Archive member included because of file (symbol)

/opt/psas/x-tools/stm32f407/arm-psas-eabi/bin/../lib/gcc/arm-psas-eabi/4.7.2/../../../../arm-psas-eabi/lib/libc.a(lib_a-memcpy-stub.o)
                              build/obj/mac_lld.o (memcpy)
/opt/psas/x-tools/stm32f407/arm-psas-eabi/bin/../lib/gcc/arm-psas-eabi/4.7.2/../../../../arm-psas-eabi/lib/libc.a(lib_a-memset.o)
                              build/obj/usb.o (memset)
/opt/psas/x-tools/stm32f407/arm-psas-eabi/bin/../lib/gcc/arm-psas-eabi/4.7.2/../../../../arm-psas-eabi/lib/libc.a(lib_a-strcasecmp.o)
                              build/obj/shell.o (strcasecmp)
/opt/psas/x-tools/stm32f407/arm-psas-eabi/bin/../lib/gcc/arm-psas-eabi/4.7.2/../../../../arm-psas-eabi/lib/libc.a(lib_a-strchr.o)
                              build/obj/shell.o (strchr)
/opt/psas/x-tools/stm32f407/arm-psas-eabi/bin/../lib/gcc/arm-psas-eabi/4.7.2/../../../../arm-psas-eabi/lib/libc.a(lib_a-strcpy.o)
                              build/obj/main.o (strcpy)
/opt/psas/x-tools/stm32f407/arm-psas-eabi/bin/../lib/gcc/arm-psas-eabi/4.7.2/../../../../arm-psas-eabi/lib/libc.a(lib_a-strlen.o)
                              build/obj/pbuf.o (strlen)
/opt/psas/x-tools/stm32f407/arm-psas-eabi/bin/../lib/gcc/arm-psas-eabi/4.7.2/../../../../arm-psas-eabi/lib/libc.a(lib_a-strspn.o)
                              build/obj/shell.o (strspn)
/opt/psas/x-tools/stm32f407/arm-psas-eabi/bin/../lib/gcc/arm-psas-eabi/4.7.2/../../../../arm-psas-eabi/lib/libc.a(lib_a-ctype_.o)
                              /opt/psas/x-tools/stm32f407/arm-psas-eabi/bin/../lib/gcc/arm-psas-eabi/4.7.2/../../../../arm-psas-eabi/lib/libc.a(lib_a-strcasecmp.o) (__ctype_ptr__)

Discarded input sections

 .text          0x0000000000000000        0x0 build/obj/crt0.o
 .data          0x0000000000000000        0x0 build/obj/crt0.o
 .bss           0x0000000000000000        0x0 build/obj/crt0.o
 .text.__early_init
                0x0000000000000000       0x10 build/obj/crt0.o
 .text          0x0000000000000000        0x0 build/obj/vectors.o
 .data          0x0000000000000000        0x0 build/obj/vectors.o
 .bss           0x0000000000000000        0x0 build/obj/vectors.o
 .text          0x0000000000000000        0x0 build/obj/chcore.o
 .data          0x0000000000000000        0x0 build/obj/chcore.o
 .bss           0x0000000000000000        0x0 build/obj/chcore.o
 .text          0x0000000000000000        0x0 build/obj/chcore_v7m.o
 .data          0x0000000000000000        0x0 build/obj/chcore_v7m.o
 .bss           0x0000000000000000        0x0 build/obj/chcore_v7m.o
 .text          0x0000000000000000        0x0 build/obj/nvic.o
 .data          0x0000000000000000        0x0 build/obj/nvic.o
 .bss           0x0000000000000000        0x0 build/obj/nvic.o
 .text.nvicDisableVector
                0x0000000000000000       0x40 build/obj/nvic.o
 .text          0x0000000000000000        0x0 build/obj/chsys.o
 .data          0x0000000000000000        0x0 build/obj/chsys.o
 .bss           0x0000000000000000        0x0 build/obj/chsys.o
 .text          0x0000000000000000        0x0 build/obj/chdebug.o
 .data          0x0000000000000000        0x0 build/obj/chdebug.o
 .bss           0x0000000000000000        0x0 build/obj/chdebug.o
 .debug_info    0x0000000000000000       0x72 build/obj/chdebug.o
 .debug_abbrev  0x0000000000000000       0x26 build/obj/chdebug.o
 .debug_aranges
                0x0000000000000000       0x18 build/obj/chdebug.o
 .debug_line    0x0000000000000000       0x1d build/obj/chdebug.o
 .debug_str     0x0000000000000000      0x106 build/obj/chdebug.o
 .comment       0x0000000000000000       0x34 build/obj/chdebug.o
 .ARM.attributes
                0x0000000000000000       0x3b build/obj/chdebug.o
 .text          0x0000000000000000        0x0 build/obj/chlists.o
 .data          0x0000000000000000        0x0 build/obj/chlists.o
 .bss           0x0000000000000000        0x0 build/obj/chlists.o
 .debug_info    0x0000000000000000       0x72 build/obj/chlists.o
 .debug_abbrev  0x0000000000000000       0x26 build/obj/chlists.o
 .debug_aranges
                0x0000000000000000       0x18 build/obj/chlists.o
 .debug_line    0x0000000000000000       0x1d build/obj/chlists.o
 .debug_str     0x0000000000000000      0x106 build/obj/chlists.o
 .comment       0x0000000000000000       0x34 build/obj/chlists.o
 .ARM.attributes
                0x0000000000000000       0x3b build/obj/chlists.o
 .text          0x0000000000000000        0x0 build/obj/chvt.o
 .data          0x0000000000000000        0x0 build/obj/chvt.o
 .bss           0x0000000000000000        0x0 build/obj/chvt.o
 .text          0x0000000000000000        0x0 build/obj/chschd.o
 .data          0x0000000000000000        0x0 build/obj/chschd.o
 .bss           0x0000000000000000        0x0 build/obj/chschd.o
 .text          0x0000000000000000        0x0 build/obj/chthreads.o
 .data          0x0000000000000000        0x0 build/obj/chthreads.o
 .bss           0x0000000000000000        0x0 build/obj/chthreads.o
 .text          0x0000000000000000        0x0 build/obj/chdynamic.o
 .data          0x0000000000000000        0x0 build/obj/chdynamic.o
 .bss           0x0000000000000000        0x0 build/obj/chdynamic.o
 .text          0x0000000000000000        0x0 build/obj/chregistry.o
 .data          0x0000000000000000        0x0 build/obj/chregistry.o
 .bss           0x0000000000000000        0x0 build/obj/chregistry.o
 .text          0x0000000000000000        0x0 build/obj/chsem.o
 .data          0x0000000000000000        0x0 build/obj/chsem.o
 .bss           0x0000000000000000        0x0 build/obj/chsem.o
 .text          0x0000000000000000        0x0 build/obj/chmtx.o
 .data          0x0000000000000000        0x0 build/obj/chmtx.o
 .bss           0x0000000000000000        0x0 build/obj/chmtx.o
 .text.chMtxTryLockS
                0x0000000000000000       0x20 build/obj/chmtx.o
 .text          0x0000000000000000        0x0 build/obj/chcond.o
 .data          0x0000000000000000        0x0 build/obj/chcond.o
 .bss           0x0000000000000000        0x0 build/obj/chcond.o
 .text          0x0000000000000000        0x0 build/obj/chevents.o
 .data          0x0000000000000000        0x0 build/obj/chevents.o
 .bss           0x0000000000000000        0x0 build/obj/chevents.o
 .text.chEvtGetAndClearFlags
                0x0000000000000000       0x20 build/obj/chevents.o
 .text.chEvtGetAndClearFlagsI
                0x0000000000000000       0x10 build/obj/chevents.o
 .text          0x0000000000000000        0x0 build/obj/chmsg.o
 .data          0x0000000000000000        0x0 build/obj/chmsg.o
 .bss           0x0000000000000000        0x0 build/obj/chmsg.o
 .text          0x0000000000000000        0x0 build/obj/chmboxes.o
 .data          0x0000000000000000        0x0 build/obj/chmboxes.o
 .bss           0x0000000000000000        0x0 build/obj/chmboxes.o
 .text          0x0000000000000000        0x0 build/obj/chqueues.o
 .data          0x0000000000000000        0x0 build/obj/chqueues.o
 .bss           0x0000000000000000        0x0 build/obj/chqueues.o
 .text          0x0000000000000000        0x0 build/obj/chmemcore.o
 .data          0x0000000000000000        0x0 build/obj/chmemcore.o
 .bss           0x0000000000000000        0x0 build/obj/chmemcore.o
 .text.chCoreAllocI
                0x0000000000000000       0x30 build/obj/chmemcore.o
 .text          0x0000000000000000        0x0 build/obj/chheap.o
 .data          0x0000000000000000        0x0 build/obj/chheap.o
 .bss           0x0000000000000000        0x0 build/obj/chheap.o
 .text          0x0000000000000000        0x0 build/obj/chmempools.o
 .data          0x0000000000000000        0x0 build/obj/chmempools.o
 .bss           0x0000000000000000        0x0 build/obj/chmempools.o
 .text.chPoolAllocI
                0x0000000000000000       0x20 build/obj/chmempools.o
 .text.chPoolFreeI
                0x0000000000000000       0x10 build/obj/chmempools.o
 .text          0x0000000000000000        0x0 build/obj/test.o
 .data          0x0000000000000000        0x0 build/obj/test.o
 .bss           0x0000000000000000        0x0 build/obj/test.o
 .text._test_fail
                0x0000000000000000       0x30 build/obj/test.o
 .text          0x0000000000000000        0x0 build/obj/testthd.o
 .data          0x0000000000000000        0x0 build/obj/testthd.o
 .bss           0x0000000000000000        0x0 build/obj/testthd.o
 .text          0x0000000000000000        0x0 build/obj/testsem.o
 .data          0x0000000000000000        0x0 build/obj/testsem.o
 .bss           0x0000000000000000        0x0 build/obj/testsem.o
 .text          0x0000000000000000        0x0 build/obj/testmtx.o
 .data          0x0000000000000000        0x0 build/obj/testmtx.o
 .bss           0x0000000000000000        0x0 build/obj/testmtx.o
 .text          0x0000000000000000        0x0 build/obj/testmsg.o
 .data          0x0000000000000000        0x0 build/obj/testmsg.o
 .bss           0x0000000000000000        0x0 build/obj/testmsg.o
 .text          0x0000000000000000        0x0 build/obj/testmbox.o
 .data          0x0000000000000000        0x0 build/obj/testmbox.o
 .bss           0x0000000000000000        0x0 build/obj/testmbox.o
 .text          0x0000000000000000        0x0 build/obj/testevt.o
 .data          0x0000000000000000        0x0 build/obj/testevt.o
 .bss           0x0000000000000000        0x0 build/obj/testevt.o
 .text          0x0000000000000000        0x0 build/obj/testheap.o
 .data          0x0000000000000000        0x0 build/obj/testheap.o
 .bss           0x0000000000000000        0x0 build/obj/testheap.o
 .text          0x0000000000000000        0x0 build/obj/testpools.o
 .data          0x0000000000000000        0x0 build/obj/testpools.o
 .bss           0x0000000000000000        0x0 build/obj/testpools.o
 .text          0x0000000000000000        0x0 build/obj/testdyn.o
 .data          0x0000000000000000        0x0 build/obj/testdyn.o
 .bss           0x0000000000000000        0x0 build/obj/testdyn.o
 .text          0x0000000000000000        0x0 build/obj/testqueues.o
 .data          0x0000000000000000        0x0 build/obj/testqueues.o
 .bss           0x0000000000000000        0x0 build/obj/testqueues.o
 .text          0x0000000000000000        0x0 build/obj/testbmk.o
 .data          0x0000000000000000        0x0 build/obj/testbmk.o
 .bss           0x0000000000000000        0x0 build/obj/testbmk.o
 .text          0x0000000000000000        0x0 build/obj/hal.o
 .data          0x0000000000000000        0x0 build/obj/hal.o
 .bss           0x0000000000000000        0x0 build/obj/hal.o
 .text          0x0000000000000000        0x0 build/obj/adc.o
 .data          0x0000000000000000        0x0 build/obj/adc.o
 .bss           0x0000000000000000        0x0 build/obj/adc.o
 .debug_info    0x0000000000000000       0x90 build/obj/adc.o
 .debug_abbrev  0x0000000000000000       0x4b build/obj/adc.o
 .debug_aranges
                0x0000000000000000       0x18 build/obj/adc.o
 .debug_line    0x0000000000000000       0xd1 build/obj/adc.o
 .debug_str     0x0000000000000000      0x114 build/obj/adc.o
 .comment       0x0000000000000000       0x34 build/obj/adc.o
 .ARM.attributes
                0x0000000000000000       0x3b build/obj/adc.o
 .text          0x0000000000000000        0x0 build/obj/can.o
 .data          0x0000000000000000        0x0 build/obj/can.o
 .bss           0x0000000000000000        0x0 build/obj/can.o
 .debug_info    0x0000000000000000       0x90 build/obj/can.o
 .debug_abbrev  0x0000000000000000       0x4b build/obj/can.o
 .debug_aranges
                0x0000000000000000       0x18 build/obj/can.o
 .debug_line    0x0000000000000000       0xd1 build/obj/can.o
 .debug_str     0x0000000000000000      0x114 build/obj/can.o
 .comment       0x0000000000000000       0x34 build/obj/can.o
 .ARM.attributes
                0x0000000000000000       0x3b build/obj/can.o
 .text          0x0000000000000000        0x0 build/obj/ext.o
 .data          0x0000000000000000        0x0 build/obj/ext.o
 .bss           0x0000000000000000        0x0 build/obj/ext.o
 .debug_info    0x0000000000000000       0x90 build/obj/ext.o
 .debug_abbrev  0x0000000000000000       0x4b build/obj/ext.o
 .debug_aranges
                0x0000000000000000       0x18 build/obj/ext.o
 .debug_line    0x0000000000000000       0xd1 build/obj/ext.o
 .debug_str     0x0000000000000000      0x114 build/obj/ext.o
 .comment       0x0000000000000000       0x34 build/obj/ext.o
 .ARM.attributes
                0x0000000000000000       0x3b build/obj/ext.o
 .text          0x0000000000000000        0x0 build/obj/gpt.o
 .data          0x0000000000000000        0x0 build/obj/gpt.o
 .bss           0x0000000000000000        0x0 build/obj/gpt.o
 .debug_info    0x0000000000000000       0x90 build/obj/gpt.o
 .debug_abbrev  0x0000000000000000       0x4b build/obj/gpt.o
 .debug_aranges
                0x0000000000000000       0x18 build/obj/gpt.o
 .debug_line    0x0000000000000000       0xd1 build/obj/gpt.o
 .debug_str     0x0000000000000000      0x114 build/obj/gpt.o
 .comment       0x0000000000000000       0x34 build/obj/gpt.o
 .ARM.attributes
                0x0000000000000000       0x3b build/obj/gpt.o
 .text          0x0000000000000000        0x0 build/obj/i2c.o
 .data          0x0000000000000000        0x0 build/obj/i2c.o
 .bss           0x0000000000000000        0x0 build/obj/i2c.o
 .debug_info    0x0000000000000000       0x90 build/obj/i2c.o
 .debug_abbrev  0x0000000000000000       0x4b build/obj/i2c.o
 .debug_aranges
                0x0000000000000000       0x18 build/obj/i2c.o
 .debug_line    0x0000000000000000       0xd1 build/obj/i2c.o
 .debug_str     0x0000000000000000      0x114 build/obj/i2c.o
 .comment       0x0000000000000000       0x34 build/obj/i2c.o
 .ARM.attributes
                0x0000000000000000       0x3b build/obj/i2c.o
 .text          0x0000000000000000        0x0 build/obj/icu.o
 .data          0x0000000000000000        0x0 build/obj/icu.o
 .bss           0x0000000000000000        0x0 build/obj/icu.o
 .debug_info    0x0000000000000000       0x90 build/obj/icu.o
 .debug_abbrev  0x0000000000000000       0x4b build/obj/icu.o
 .debug_aranges
                0x0000000000000000       0x18 build/obj/icu.o
 .debug_line    0x0000000000000000       0xd1 build/obj/icu.o
 .debug_str     0x0000000000000000      0x114 build/obj/icu.o
 .comment       0x0000000000000000       0x34 build/obj/icu.o
 .ARM.attributes
                0x0000000000000000       0x3b build/obj/icu.o
 .text          0x0000000000000000        0x0 build/obj/mac.o
 .data          0x0000000000000000        0x0 build/obj/mac.o
 .bss           0x0000000000000000        0x0 build/obj/mac.o
 .text.macStop  0x0000000000000000       0x20 build/obj/mac.o
 .text          0x0000000000000000        0x0 build/obj/mmc_spi.o
 .data          0x0000000000000000        0x0 build/obj/mmc_spi.o
 .bss           0x0000000000000000        0x0 build/obj/mmc_spi.o
 .debug_info    0x0000000000000000       0x90 build/obj/mmc_spi.o
 .debug_abbrev  0x0000000000000000       0x4b build/obj/mmc_spi.o
 .debug_aranges
                0x0000000000000000       0x18 build/obj/mmc_spi.o
 .debug_line    0x0000000000000000       0xd1 build/obj/mmc_spi.o
 .debug_str     0x0000000000000000      0x118 build/obj/mmc_spi.o
 .comment       0x0000000000000000       0x34 build/obj/mmc_spi.o
 .ARM.attributes
                0x0000000000000000       0x3b build/obj/mmc_spi.o
 .text          0x0000000000000000        0x0 build/obj/mmcsd.o
 .data          0x0000000000000000        0x0 build/obj/mmcsd.o
 .bss           0x0000000000000000        0x0 build/obj/mmcsd.o
 .text          0x0000000000000000        0x0 build/obj/pal.o
 .data          0x0000000000000000        0x0 build/obj/pal.o
 .bss           0x0000000000000000        0x0 build/obj/pal.o
 .text.palReadBus
                0x0000000000000000       0x10 build/obj/pal.o
 .text.palWriteBus
                0x0000000000000000       0x20 build/obj/pal.o
 .text.palSetBusMode
                0x0000000000000000       0x10 build/obj/pal.o
 .debug_info    0x0000000000000000      0x2db build/obj/pal.o
 .debug_abbrev  0x0000000000000000      0x14e build/obj/pal.o
 .debug_loc     0x0000000000000000       0xaf build/obj/pal.o
 .debug_aranges
                0x0000000000000000       0x30 build/obj/pal.o
 .debug_ranges  0x0000000000000000       0x20 build/obj/pal.o
 .debug_line    0x0000000000000000      0x174 build/obj/pal.o
 .debug_str     0x0000000000000000      0x1f4 build/obj/pal.o
 .comment       0x0000000000000000       0x34 build/obj/pal.o
 .ARM.attributes
                0x0000000000000000       0x3b build/obj/pal.o
 .debug_frame   0x0000000000000000       0x4c build/obj/pal.o
 .text          0x0000000000000000        0x0 build/obj/pwm.o
 .data          0x0000000000000000        0x0 build/obj/pwm.o
 .bss           0x0000000000000000        0x0 build/obj/pwm.o
 .debug_info    0x0000000000000000       0x90 build/obj/pwm.o
 .debug_abbrev  0x0000000000000000       0x4b build/obj/pwm.o
 .debug_aranges
                0x0000000000000000       0x18 build/obj/pwm.o
 .debug_line    0x0000000000000000       0xd1 build/obj/pwm.o
 .debug_str     0x0000000000000000      0x114 build/obj/pwm.o
 .comment       0x0000000000000000       0x34 build/obj/pwm.o
 .ARM.attributes
                0x0000000000000000       0x3b build/obj/pwm.o
 .text          0x0000000000000000        0x0 build/obj/rtc.o
 .data          0x0000000000000000        0x0 build/obj/rtc.o
 .bss           0x0000000000000000        0x0 build/obj/rtc.o
 .debug_info    0x0000000000000000       0x90 build/obj/rtc.o
 .debug_abbrev  0x0000000000000000       0x4b build/obj/rtc.o
 .debug_aranges
                0x0000000000000000       0x18 build/obj/rtc.o
 .debug_line    0x0000000000000000       0xd1 build/obj/rtc.o
 .debug_str     0x0000000000000000      0x114 build/obj/rtc.o
 .comment       0x0000000000000000       0x34 build/obj/rtc.o
 .ARM.attributes
                0x0000000000000000       0x3b build/obj/rtc.o
 .text          0x0000000000000000        0x0 build/obj/sdc.o
 .data          0x0000000000000000        0x0 build/obj/sdc.o
 .bss           0x0000000000000000        0x0 build/obj/sdc.o
 .text.sdcStop  0x0000000000000000       0x20 build/obj/sdc.o
 .text.sdcGetAndClearErrors
                0x0000000000000000       0x20 build/obj/sdc.o
 .text.sdcErase
                0x0000000000000000       0x90 build/obj/sdc.o
 .text          0x0000000000000000        0x0 build/obj/serial.o
 .data          0x0000000000000000        0x0 build/obj/serial.o
 .bss           0x0000000000000000        0x0 build/obj/serial.o
 .text.sdStop   0x0000000000000000       0x30 build/obj/serial.o
 .text.sdRequestDataI
                0x0000000000000000       0x20 build/obj/serial.o
 .text          0x0000000000000000        0x0 build/obj/serial_usb.o
 .data          0x0000000000000000        0x0 build/obj/serial_usb.o
 .bss           0x0000000000000000        0x0 build/obj/serial_usb.o
 .text.sduStop  0x0000000000000000       0x20 build/obj/serial_usb.o
 .text          0x0000000000000000        0x0 build/obj/spi.o
 .data          0x0000000000000000        0x0 build/obj/spi.o
 .bss           0x0000000000000000        0x0 build/obj/spi.o
 .debug_info    0x0000000000000000       0x90 build/obj/spi.o
 .debug_abbrev  0x0000000000000000       0x4b build/obj/spi.o
 .debug_aranges
                0x0000000000000000       0x18 build/obj/spi.o
 .debug_line    0x0000000000000000       0xd1 build/obj/spi.o
 .debug_str     0x0000000000000000      0x114 build/obj/spi.o
 .comment       0x0000000000000000       0x34 build/obj/spi.o
 .ARM.attributes
                0x0000000000000000       0x3b build/obj/spi.o
 .text          0x0000000000000000        0x0 build/obj/tm.o
 .data          0x0000000000000000        0x0 build/obj/tm.o
 .bss           0x0000000000000000        0x0 build/obj/tm.o
 .text.tmObjectInit
                0x0000000000000000       0x30 build/obj/tm.o
 .text          0x0000000000000000        0x0 build/obj/uart.o
 .data          0x0000000000000000        0x0 build/obj/uart.o
 .bss           0x0000000000000000        0x0 build/obj/uart.o
 .debug_info    0x0000000000000000       0x90 build/obj/uart.o
 .debug_abbrev  0x0000000000000000       0x4b build/obj/uart.o
 .debug_aranges
                0x0000000000000000       0x18 build/obj/uart.o
 .debug_line    0x0000000000000000       0xd1 build/obj/uart.o
 .debug_str     0x0000000000000000      0x115 build/obj/uart.o
 .comment       0x0000000000000000       0x34 build/obj/uart.o
 .ARM.attributes
                0x0000000000000000       0x3b build/obj/uart.o
 .text          0x0000000000000000        0x0 build/obj/usb.o
 .data          0x0000000000000000        0x0 build/obj/usb.o
 .bss           0x0000000000000000        0x0 build/obj/usb.o
 .text.usbStop  0x0000000000000000       0x20 build/obj/usb.o
 .text.usbDisableEndpointsI
                0x0000000000000000       0x20 build/obj/usb.o
 .text.usbStallReceiveI
                0x0000000000000000       0x20 build/obj/usb.o
 .text.usbStallTransmitI
                0x0000000000000000       0x20 build/obj/usb.o
 .text          0x0000000000000000        0x0 build/obj/stm32_dma.o
 .data          0x0000000000000000        0x0 build/obj/stm32_dma.o
 .bss           0x0000000000000000        0x0 build/obj/stm32_dma.o
 .text.dmaStreamRelease
                0x0000000000000000       0x60 build/obj/stm32_dma.o
 .text          0x0000000000000000        0x0 build/obj/hal_lld.o
 .data          0x0000000000000000        0x0 build/obj/hal_lld.o
 .bss           0x0000000000000000        0x0 build/obj/hal_lld.o
 .text          0x0000000000000000        0x0 build/obj/adc_lld.o
 .data          0x0000000000000000        0x0 build/obj/adc_lld.o
 .bss           0x0000000000000000        0x0 build/obj/adc_lld.o
 .debug_info    0x0000000000000000       0x90 build/obj/adc_lld.o
 .debug_abbrev  0x0000000000000000       0x4b build/obj/adc_lld.o
 .debug_aranges
                0x0000000000000000       0x18 build/obj/adc_lld.o
 .debug_line    0x0000000000000000       0xd1 build/obj/adc_lld.o
 .debug_str     0x0000000000000000      0x128 build/obj/adc_lld.o
 .comment       0x0000000000000000       0x34 build/obj/adc_lld.o
 .ARM.attributes
                0x0000000000000000       0x3b build/obj/adc_lld.o
 .text          0x0000000000000000        0x0 build/obj/ext_lld_isr.o
 .data          0x0000000000000000        0x0 build/obj/ext_lld_isr.o
 .bss           0x0000000000000000        0x0 build/obj/ext_lld_isr.o
 .debug_info    0x0000000000000000       0x90 build/obj/ext_lld_isr.o
 .debug_abbrev  0x0000000000000000       0x4b build/obj/ext_lld_isr.o
 .debug_aranges
                0x0000000000000000       0x18 build/obj/ext_lld_isr.o
 .debug_line    0x0000000000000000       0xd1 build/obj/ext_lld_isr.o
 .debug_str     0x0000000000000000      0x12c build/obj/ext_lld_isr.o
 .comment       0x0000000000000000       0x34 build/obj/ext_lld_isr.o
 .ARM.attributes
                0x0000000000000000       0x3b build/obj/ext_lld_isr.o
 .text          0x0000000000000000        0x0 build/obj/can_lld.o
 .data          0x0000000000000000        0x0 build/obj/can_lld.o
 .bss           0x0000000000000000        0x0 build/obj/can_lld.o
 .debug_info    0x0000000000000000       0x90 build/obj/can_lld.o
 .debug_abbrev  0x0000000000000000       0x4b build/obj/can_lld.o
 .debug_aranges
                0x0000000000000000       0x18 build/obj/can_lld.o
 .debug_line    0x0000000000000000       0xd1 build/obj/can_lld.o
 .debug_str     0x0000000000000000      0x124 build/obj/can_lld.o
 .comment       0x0000000000000000       0x34 build/obj/can_lld.o
 .ARM.attributes
                0x0000000000000000       0x3b build/obj/can_lld.o
 .text          0x0000000000000000        0x0 build/obj/ext_lld.o
 .data          0x0000000000000000        0x0 build/obj/ext_lld.o
 .bss           0x0000000000000000        0x0 build/obj/ext_lld.o
 .debug_info    0x0000000000000000       0x90 build/obj/ext_lld.o
 .debug_abbrev  0x0000000000000000       0x4b build/obj/ext_lld.o
 .debug_aranges
                0x0000000000000000       0x18 build/obj/ext_lld.o
 .debug_line    0x0000000000000000       0xd1 build/obj/ext_lld.o
 .debug_str     0x0000000000000000      0x124 build/obj/ext_lld.o
 .comment       0x0000000000000000       0x34 build/obj/ext_lld.o
 .ARM.attributes
                0x0000000000000000       0x3b build/obj/ext_lld.o
 .text          0x0000000000000000        0x0 build/obj/gpt_lld.o
 .data          0x0000000000000000        0x0 build/obj/gpt_lld.o
 .bss           0x0000000000000000        0x0 build/obj/gpt_lld.o
 .debug_info    0x0000000000000000       0x90 build/obj/gpt_lld.o
 .debug_abbrev  0x0000000000000000       0x4b build/obj/gpt_lld.o
 .debug_aranges
                0x0000000000000000       0x18 build/obj/gpt_lld.o
 .debug_line    0x0000000000000000       0xd1 build/obj/gpt_lld.o
 .debug_str     0x0000000000000000      0x124 build/obj/gpt_lld.o
 .comment       0x0000000000000000       0x34 build/obj/gpt_lld.o
 .ARM.attributes
                0x0000000000000000       0x3b build/obj/gpt_lld.o
 .text          0x0000000000000000        0x0 build/obj/icu_lld.o
 .data          0x0000000000000000        0x0 build/obj/icu_lld.o
 .bss           0x0000000000000000        0x0 build/obj/icu_lld.o
 .debug_info    0x0000000000000000       0x90 build/obj/icu_lld.o
 .debug_abbrev  0x0000000000000000       0x4b build/obj/icu_lld.o
 .debug_aranges
                0x0000000000000000       0x18 build/obj/icu_lld.o
 .debug_line    0x0000000000000000       0xd1 build/obj/icu_lld.o
 .debug_str     0x0000000000000000      0x124 build/obj/icu_lld.o
 .comment       0x0000000000000000       0x34 build/obj/icu_lld.o
 .ARM.attributes
                0x0000000000000000       0x3b build/obj/icu_lld.o
 .text          0x0000000000000000        0x0 build/obj/mac_lld.o
 .data          0x0000000000000000        0x0 build/obj/mac_lld.o
 .bss           0x0000000000000000        0x0 build/obj/mac_lld.o
 .text.mac_lld_stop
                0x0000000000000000       0x70 build/obj/mac_lld.o
 .text          0x0000000000000000        0x0 build/obj/pwm_lld.o
 .data          0x0000000000000000        0x0 build/obj/pwm_lld.o
 .bss           0x0000000000000000        0x0 build/obj/pwm_lld.o
 .debug_info    0x0000000000000000       0x90 build/obj/pwm_lld.o
 .debug_abbrev  0x0000000000000000       0x4b build/obj/pwm_lld.o
 .debug_aranges
                0x0000000000000000       0x18 build/obj/pwm_lld.o
 .debug_line    0x0000000000000000       0xd1 build/obj/pwm_lld.o
 .debug_str     0x0000000000000000      0x124 build/obj/pwm_lld.o
 .comment       0x0000000000000000       0x34 build/obj/pwm_lld.o
 .ARM.attributes
                0x0000000000000000       0x3b build/obj/pwm_lld.o
 .text          0x0000000000000000        0x0 build/obj/sdc_lld.o
 .data          0x0000000000000000        0x0 build/obj/sdc_lld.o
 .bss           0x0000000000000000        0x0 build/obj/sdc_lld.o
 .text.sdc_lld_stop
                0x0000000000000000       0x40 build/obj/sdc_lld.o
 .text          0x0000000000000000        0x0 build/obj/pal_lld.o
 .data          0x0000000000000000        0x0 build/obj/pal_lld.o
 .bss           0x0000000000000000        0x0 build/obj/pal_lld.o
 .text._pal_lld_setgroupmode
                0x0000000000000000       0xd0 build/obj/pal_lld.o
 .text          0x0000000000000000        0x0 build/obj/i2c_lld.o
 .data          0x0000000000000000        0x0 build/obj/i2c_lld.o
 .bss           0x0000000000000000        0x0 build/obj/i2c_lld.o
 .debug_info    0x0000000000000000       0x90 build/obj/i2c_lld.o
 .debug_abbrev  0x0000000000000000       0x4b build/obj/i2c_lld.o
 .debug_aranges
                0x0000000000000000       0x18 build/obj/i2c_lld.o
 .debug_line    0x0000000000000000       0xd1 build/obj/i2c_lld.o
 .debug_str     0x0000000000000000      0x12a build/obj/i2c_lld.o
 .comment       0x0000000000000000       0x34 build/obj/i2c_lld.o
 .ARM.attributes
                0x0000000000000000       0x3b build/obj/i2c_lld.o
 .text          0x0000000000000000        0x0 build/obj/usb_lld.o
 .data          0x0000000000000000        0x0 build/obj/usb_lld.o
 .bss           0x0000000000000000        0x0 build/obj/usb_lld.o
 .text.usb_lld_stop
                0x0000000000000000       0x20 build/obj/usb_lld.o
 .text.usb_lld_disable_endpoints
                0x0000000000000000       0x10 build/obj/usb_lld.o
 .text          0x0000000000000000        0x0 build/obj/rtc_lld.o
 .data          0x0000000000000000        0x0 build/obj/rtc_lld.o
 .bss           0x0000000000000000        0x0 build/obj/rtc_lld.o
 .debug_info    0x0000000000000000       0x90 build/obj/rtc_lld.o
 .debug_abbrev  0x0000000000000000       0x4b build/obj/rtc_lld.o
 .debug_aranges
                0x0000000000000000       0x18 build/obj/rtc_lld.o
 .debug_line    0x0000000000000000       0xd1 build/obj/rtc_lld.o
 .debug_str     0x0000000000000000      0x12a build/obj/rtc_lld.o
 .comment       0x0000000000000000       0x34 build/obj/rtc_lld.o
 .ARM.attributes
                0x0000000000000000       0x3b build/obj/rtc_lld.o
 .text          0x0000000000000000        0x0 build/obj/spi_lld.o
 .data          0x0000000000000000        0x0 build/obj/spi_lld.o
 .bss           0x0000000000000000        0x0 build/obj/spi_lld.o
 .debug_info    0x0000000000000000       0x90 build/obj/spi_lld.o
 .debug_abbrev  0x0000000000000000       0x4b build/obj/spi_lld.o
 .debug_aranges
                0x0000000000000000       0x18 build/obj/spi_lld.o
 .debug_line    0x0000000000000000       0xd1 build/obj/spi_lld.o
 .debug_str     0x0000000000000000      0x12a build/obj/spi_lld.o
 .comment       0x0000000000000000       0x34 build/obj/spi_lld.o
 .ARM.attributes
                0x0000000000000000       0x3b build/obj/spi_lld.o
 .text          0x0000000000000000        0x0 build/obj/serial_lld.o
 .data          0x0000000000000000        0x0 build/obj/serial_lld.o
 .bss           0x0000000000000000        0x0 build/obj/serial_lld.o
 .text.sd_lld_stop
                0x0000000000000000       0x40 build/obj/serial_lld.o
 .text          0x0000000000000000        0x0 build/obj/uart_lld.o
 .data          0x0000000000000000        0x0 build/obj/uart_lld.o
 .bss           0x0000000000000000        0x0 build/obj/uart_lld.o
 .debug_info    0x0000000000000000       0x90 build/obj/uart_lld.o
 .debug_abbrev  0x0000000000000000       0x4b build/obj/uart_lld.o
 .debug_aranges
                0x0000000000000000       0x18 build/obj/uart_lld.o
 .debug_line    0x0000000000000000       0xd1 build/obj/uart_lld.o
 .debug_str     0x0000000000000000      0x12d build/obj/uart_lld.o
 .comment       0x0000000000000000       0x34 build/obj/uart_lld.o
 .ARM.attributes
                0x0000000000000000       0x3b build/obj/uart_lld.o
 .text          0x0000000000000000        0x0 build/obj/board.o
 .data          0x0000000000000000        0x0 build/obj/board.o
 .bss           0x0000000000000000        0x0 build/obj/board.o
 .text          0x0000000000000000        0x0 build/obj/lwipthread.o
 .data          0x0000000000000000        0x0 build/obj/lwipthread.o
 .bss           0x0000000000000000        0x0 build/obj/lwipthread.o
 .text          0x0000000000000000        0x0 build/obj/sys_arch.o
 .data          0x0000000000000000        0x0 build/obj/sys_arch.o
 .bss           0x0000000000000000        0x0 build/obj/sys_arch.o
 .text.sys_arch_protect
                0x0000000000000000       0x10 build/obj/sys_arch.o
 .text.sys_arch_unprotect
                0x0000000000000000       0x10 build/obj/sys_arch.o
 .text          0x0000000000000000        0x0 build/obj/etharp.o
 .data          0x0000000000000000        0x0 build/obj/etharp.o
 .bss           0x0000000000000000        0x0 build/obj/etharp.o
 .text.etharp_find_addr
                0x0000000000000000       0x50 build/obj/etharp.o
 .text          0x0000000000000000        0x0 build/obj/dhcp.o
 .data          0x0000000000000000        0x0 build/obj/dhcp.o
 .bss           0x0000000000000000        0x0 build/obj/dhcp.o
 .debug_info    0x0000000000000000       0x72 build/obj/dhcp.o
 .debug_abbrev  0x0000000000000000       0x26 build/obj/dhcp.o
 .debug_aranges
                0x0000000000000000       0x18 build/obj/dhcp.o
 .debug_line    0x0000000000000000       0x1d build/obj/dhcp.o
 .debug_str     0x0000000000000000      0x107 build/obj/dhcp.o
 .comment       0x0000000000000000       0x34 build/obj/dhcp.o
 .ARM.attributes
                0x0000000000000000       0x3b build/obj/dhcp.o
 .text          0x0000000000000000        0x0 build/obj/dns.o
 .data          0x0000000000000000        0x0 build/obj/dns.o
 .bss           0x0000000000000000        0x0 build/obj/dns.o
 .debug_info    0x0000000000000000       0x72 build/obj/dns.o
 .debug_abbrev  0x0000000000000000       0x26 build/obj/dns.o
 .debug_aranges
                0x0000000000000000       0x18 build/obj/dns.o
 .debug_line    0x0000000000000000       0x1d build/obj/dns.o
 .debug_str     0x0000000000000000      0x106 build/obj/dns.o
 .comment       0x0000000000000000       0x34 build/obj/dns.o
 .ARM.attributes
                0x0000000000000000       0x3b build/obj/dns.o
 .text          0x0000000000000000        0x0 build/obj/init.o
 .data          0x0000000000000000        0x0 build/obj/init.o
 .bss           0x0000000000000000        0x0 build/obj/init.o
 .text          0x0000000000000000        0x0 build/obj/mem.o
 .data          0x0000000000000000        0x0 build/obj/mem.o
 .bss           0x0000000000000000        0x0 build/obj/mem.o
 .text.mem_calloc
                0x0000000000000000       0x20 build/obj/mem.o
 .text          0x0000000000000000        0x0 build/obj/memp.o
 .data          0x0000000000000000        0x0 build/obj/memp.o
 .bss           0x0000000000000000        0x0 build/obj/memp.o
 .text          0x0000000000000000        0x0 build/obj/netif.o
 .data          0x0000000000000000        0x0 build/obj/netif.o
 .bss           0x0000000000000000        0x0 build/obj/netif.o
 .text.netif_remove
                0x0000000000000000       0x50 build/obj/netif.o
 .text.netif_find
                0x0000000000000000       0x40 build/obj/netif.o
 .text.netif_set_gw
                0x0000000000000000       0x10 build/obj/netif.o
 .text.netif_set_netmask
                0x0000000000000000       0x10 build/obj/netif.o
 .text.netif_set_down
                0x0000000000000000       0x20 build/obj/netif.o
 .text          0x0000000000000000        0x0 build/obj/pbuf.o
 .data          0x0000000000000000        0x0 build/obj/pbuf.o
 .bss           0x0000000000000000        0x0 build/obj/pbuf.o
 .text.pbuf_chain
                0x0000000000000000       0x20 build/obj/pbuf.o
 .text.pbuf_dechain
                0x0000000000000000       0x50 build/obj/pbuf.o
 .text.pbuf_take
                0x0000000000000000       0x70 build/obj/pbuf.o
 .text.pbuf_coalesce
                0x0000000000000000       0x30 build/obj/pbuf.o
 .text.pbuf_get_at
                0x0000000000000000       0x30 build/obj/pbuf.o
 .text.pbuf_memcmp
                0x0000000000000000       0x80 build/obj/pbuf.o
 .text.pbuf_memfind
                0x0000000000000000       0x50 build/obj/pbuf.o
 .text.pbuf_strstr
                0x0000000000000000       0x50 build/obj/pbuf.o
 .text          0x0000000000000000        0x0 build/obj/raw.o
 .data          0x0000000000000000        0x0 build/obj/raw.o
 .bss           0x0000000000000000        0x0 build/obj/raw.o
 .text.raw_connect
                0x0000000000000000       0x10 build/obj/raw.o
 .text.raw_sendto
                0x0000000000000000       0xb0 build/obj/raw.o
 .text.raw_send
                0x0000000000000000       0x10 build/obj/raw.o
 .text          0x0000000000000000        0x0 build/obj/stats.o
 .data          0x0000000000000000        0x0 build/obj/stats.o
 .bss           0x0000000000000000        0x0 build/obj/stats.o
 .text          0x0000000000000000        0x0 build/obj/sys.o
 .data          0x0000000000000000        0x0 build/obj/sys.o
 .bss           0x0000000000000000        0x0 build/obj/sys.o
 .text.sys_msleep
                0x0000000000000000       0x30 build/obj/sys.o
 .debug_info    0x0000000000000000      0x53a build/obj/sys.o
 .debug_abbrev  0x0000000000000000      0x16a build/obj/sys.o
 .debug_loc     0x0000000000000000       0x73 build/obj/sys.o
 .debug_aranges
                0x0000000000000000       0x20 build/obj/sys.o
 .debug_ranges  0x0000000000000000       0x10 build/obj/sys.o
 .debug_line    0x0000000000000000      0x1bf build/obj/sys.o
 .debug_str     0x0000000000000000      0x2fa build/obj/sys.o
 .comment       0x0000000000000000       0x34 build/obj/sys.o
 .ARM.attributes
                0x0000000000000000       0x3b build/obj/sys.o
 .debug_frame   0x0000000000000000       0x2c build/obj/sys.o
 .text          0x0000000000000000        0x0 build/obj/tcp.o
 .data          0x0000000000000000        0x0 build/obj/tcp.o
 .bss           0x0000000000000000        0x0 build/obj/tcp.o
 .text.tcp_setprio
                0x0000000000000000       0x10 build/obj/tcp.o
 .text.tcp_next_iss
                0x0000000000000000       0x20 build/obj/tcp.o
 .text.tcp_connect
                0x0000000000000000      0x120 build/obj/tcp.o
 .text.tcp_debug_state_str
                0x0000000000000000       0x10 build/obj/tcp.o
 .rodata.tcp_state_str
                0x0000000000000000       0x2c build/obj/tcp.o
 .rodata.str1.4
                0x0000000000000000       0x78 build/obj/tcp.o
 .text          0x0000000000000000        0x0 build/obj/tcp_in.o
 .data          0x0000000000000000        0x0 build/obj/tcp_in.o
 .bss           0x0000000000000000        0x0 build/obj/tcp_in.o
 .text          0x0000000000000000        0x0 build/obj/tcp_out.o
 .data          0x0000000000000000        0x0 build/obj/tcp_out.o
 .bss           0x0000000000000000        0x0 build/obj/tcp_out.o
 .text          0x0000000000000000        0x0 build/obj/udp.o
 .data          0x0000000000000000        0x0 build/obj/udp.o
 .bss           0x0000000000000000        0x0 build/obj/udp.o
 .text.udp_sendto_if
                0x0000000000000000      0x110 build/obj/udp.o
 .text.udp_sendto
                0x0000000000000000       0x40 build/obj/udp.o
 .text.udp_send
                0x0000000000000000       0x10 build/obj/udp.o
 .text.udp_connect
                0x0000000000000000       0x60 build/obj/udp.o
 .text.udp_disconnect
                0x0000000000000000       0x10 build/obj/udp.o
 .text          0x0000000000000000        0x0 build/obj/autoip.o
 .data          0x0000000000000000        0x0 build/obj/autoip.o
 .bss           0x0000000000000000        0x0 build/obj/autoip.o
 .debug_info    0x0000000000000000       0x72 build/obj/autoip.o
 .debug_abbrev  0x0000000000000000       0x26 build/obj/autoip.o
 .debug_aranges
                0x0000000000000000       0x18 build/obj/autoip.o
 .debug_line    0x0000000000000000       0x1d build/obj/autoip.o
 .debug_str     0x0000000000000000      0x10e build/obj/autoip.o
 .comment       0x0000000000000000       0x34 build/obj/autoip.o
 .ARM.attributes
                0x0000000000000000       0x3b build/obj/autoip.o
 .text          0x0000000000000000        0x0 build/obj/icmp.o
 .data          0x0000000000000000        0x0 build/obj/icmp.o
 .bss           0x0000000000000000        0x0 build/obj/icmp.o
 .text          0x0000000000000000        0x0 build/obj/igmp.o
 .data          0x0000000000000000        0x0 build/obj/igmp.o
 .bss           0x0000000000000000        0x0 build/obj/igmp.o
 .debug_info    0x0000000000000000       0x72 build/obj/igmp.o
 .debug_abbrev  0x0000000000000000       0x26 build/obj/igmp.o
 .debug_aranges
                0x0000000000000000       0x18 build/obj/igmp.o
 .debug_line    0x0000000000000000       0x1d build/obj/igmp.o
 .debug_str     0x0000000000000000      0x10c build/obj/igmp.o
 .comment       0x0000000000000000       0x34 build/obj/igmp.o
 .ARM.attributes
                0x0000000000000000       0x3b build/obj/igmp.o
 .text          0x0000000000000000        0x0 build/obj/inet.o
 .data          0x0000000000000000        0x0 build/obj/inet.o
 .bss           0x0000000000000000        0x0 build/obj/inet.o
 .debug_info    0x0000000000000000       0x72 build/obj/inet.o
 .debug_abbrev  0x0000000000000000       0x26 build/obj/inet.o
 .debug_aranges
                0x0000000000000000       0x18 build/obj/inet.o
 .debug_line    0x0000000000000000       0x1d build/obj/inet.o
 .debug_str     0x0000000000000000      0x10c build/obj/inet.o
 .comment       0x0000000000000000       0x34 build/obj/inet.o
 .ARM.attributes
                0x0000000000000000       0x3b build/obj/inet.o
 .text          0x0000000000000000        0x0 build/obj/inet_chksum.o
 .data          0x0000000000000000        0x0 build/obj/inet_chksum.o
 .bss           0x0000000000000000        0x0 build/obj/inet_chksum.o
 .text.inet_chksum_pseudo_partial
                0x0000000000000000       0xc0 build/obj/inet_chksum.o
 .text          0x0000000000000000        0x0 build/obj/ip.o
 .data          0x0000000000000000        0x0 build/obj/ip.o
 .bss           0x0000000000000000        0x0 build/obj/ip.o
 .text          0x0000000000000000        0x0 build/obj/ip_addr.o
 .data          0x0000000000000000        0x0 build/obj/ip_addr.o
 .bss           0x0000000000000000        0x0 build/obj/ip_addr.o
 .text.ip4_addr_netmask_valid
                0x0000000000000000       0x30 build/obj/ip_addr.o
 .text.ipaddr_aton
                0x0000000000000000      0x150 build/obj/ip_addr.o
 .text.ipaddr_addr
                0x0000000000000000       0x20 build/obj/ip_addr.o
 .text.ipaddr_ntoa_r
                0x0000000000000000       0xc0 build/obj/ip_addr.o
 .text.ipaddr_ntoa
                0x0000000000000000       0x10 build/obj/ip_addr.o
 .rodata.ip_addr_broadcast
                0x0000000000000000        0x4 build/obj/ip_addr.o
 .rodata.ip_addr_any
                0x0000000000000000        0x4 build/obj/ip_addr.o
 .bss.str.5011  0x0000000000000000       0x10 build/obj/ip_addr.o
 .text          0x0000000000000000        0x0 build/obj/ip_frag.o
 .data          0x0000000000000000        0x0 build/obj/ip_frag.o
 .bss           0x0000000000000000        0x0 build/obj/ip_frag.o
 .text          0x0000000000000000        0x0 build/obj/def.o
 .data          0x0000000000000000        0x0 build/obj/def.o
 .bss           0x0000000000000000        0x0 build/obj/def.o
 .text          0x0000000000000000        0x0 build/obj/timers.o
 .data          0x0000000000000000        0x0 build/obj/timers.o
 .bss           0x0000000000000000        0x0 build/obj/timers.o
 .text          0x0000000000000000        0x0 build/obj/api_lib.o
 .data          0x0000000000000000        0x0 build/obj/api_lib.o
 .bss           0x0000000000000000        0x0 build/obj/api_lib.o
 .text.netconn_getaddr
                0x0000000000000000       0x40 build/obj/api_lib.o
 .text.netconn_connect
                0x0000000000000000       0x40 build/obj/api_lib.o
 .text.netconn_disconnect
                0x0000000000000000       0x30 build/obj/api_lib.o
 .text.netconn_recv_tcp_pbuf
                0x0000000000000000       0x20 build/obj/api_lib.o
 .text.netconn_recved
                0x0000000000000000       0x30 build/obj/api_lib.o
 .text.netconn_send
                0x0000000000000000       0x40 build/obj/api_lib.o
 .text.netconn_sendto
                0x0000000000000000       0x20 build/obj/api_lib.o
 .text.netconn_shutdown
                0x0000000000000000       0x50 build/obj/api_lib.o
 .text          0x0000000000000000        0x0 build/obj/api_msg.o
 .data          0x0000000000000000        0x0 build/obj/api_msg.o
 .bss           0x0000000000000000        0x0 build/obj/api_msg.o
 .text.do_connected
                0x0000000000000000       0x90 build/obj/api_msg.o
 .text.do_connect
                0x0000000000000000       0xb0 build/obj/api_msg.o
 .text.do_disconnect
                0x0000000000000000       0x30 build/obj/api_msg.o
 .text.do_send  0x0000000000000000       0x80 build/obj/api_msg.o
 .text.do_getaddr
                0x0000000000000000       0xa0 build/obj/api_msg.o
 .text          0x0000000000000000        0x0 build/obj/err.o
 .data          0x0000000000000000        0x0 build/obj/err.o
 .bss           0x0000000000000000        0x0 build/obj/err.o
 .debug_info    0x0000000000000000       0x72 build/obj/err.o
 .debug_abbrev  0x0000000000000000       0x26 build/obj/err.o
 .debug_aranges
                0x0000000000000000       0x18 build/obj/err.o
 .debug_line    0x0000000000000000       0x1d build/obj/err.o
 .debug_str     0x0000000000000000      0x105 build/obj/err.o
 .comment       0x0000000000000000       0x34 build/obj/err.o
 .ARM.attributes
                0x0000000000000000       0x3b build/obj/err.o
 .text          0x0000000000000000        0x0 build/obj/netbuf.o
 .data          0x0000000000000000        0x0 build/obj/netbuf.o
 .bss           0x0000000000000000        0x0 build/obj/netbuf.o
 .text.netbuf_new
                0x0000000000000000       0x20 build/obj/netbuf.o
 .text.netbuf_alloc
                0x0000000000000000       0x40 build/obj/netbuf.o
 .text.netbuf_free
                0x0000000000000000       0x20 build/obj/netbuf.o
 .text.netbuf_ref
                0x0000000000000000       0x40 build/obj/netbuf.o
 .text.netbuf_chain
                0x0000000000000000       0x30 build/obj/netbuf.o
 .text.netbuf_next
                0x0000000000000000       0x30 build/obj/netbuf.o
 .text.netbuf_first
                0x0000000000000000       0x10 build/obj/netbuf.o
 .text          0x0000000000000000        0x0 build/obj/netdb.o
 .data          0x0000000000000000        0x0 build/obj/netdb.o
 .bss           0x0000000000000000        0x0 build/obj/netdb.o
 .debug_info    0x0000000000000000       0x72 build/obj/netdb.o
 .debug_abbrev  0x0000000000000000       0x26 build/obj/netdb.o
 .debug_aranges
                0x0000000000000000       0x18 build/obj/netdb.o
 .debug_line    0x0000000000000000       0x1d build/obj/netdb.o
 .debug_str     0x0000000000000000      0x107 build/obj/netdb.o
 .comment       0x0000000000000000       0x34 build/obj/netdb.o
 .ARM.attributes
                0x0000000000000000       0x3b build/obj/netdb.o
 .text          0x0000000000000000        0x0 build/obj/netifapi.o
 .data          0x0000000000000000        0x0 build/obj/netifapi.o
 .bss           0x0000000000000000        0x0 build/obj/netifapi.o
 .debug_info    0x0000000000000000       0x72 build/obj/netifapi.o
 .debug_abbrev  0x0000000000000000       0x26 build/obj/netifapi.o
 .debug_aranges
                0x0000000000000000       0x18 build/obj/netifapi.o
 .debug_line    0x0000000000000000       0x1d build/obj/netifapi.o
 .debug_str     0x0000000000000000      0x10a build/obj/netifapi.o
 .comment       0x0000000000000000       0x34 build/obj/netifapi.o
 .ARM.attributes
                0x0000000000000000       0x3b build/obj/netifapi.o
 .text          0x0000000000000000        0x0 build/obj/sockets.o
 .data          0x0000000000000000        0x0 build/obj/sockets.o
 .bss           0x0000000000000000        0x0 build/obj/sockets.o
 .text.alloc_socket
                0x0000000000000000       0x70 build/obj/sockets.o
 .text.lwip_setsockopt_internal
                0x0000000000000000      0x100 build/obj/sockets.o
 .text.lwip_getsockopt_internal
                0x0000000000000000      0x110 build/obj/sockets.o
 .text.event_callback
                0x0000000000000000      0x100 build/obj/sockets.o
 .text.lwip_selscan
                0x0000000000000000      0x130 build/obj/sockets.o
 .text.lwip_getaddrname
                0x0000000000000000       0x80 build/obj/sockets.o
 .text.lwip_accept
                0x0000000000000000      0x150 build/obj/sockets.o
 .text.lwip_bind
                0x0000000000000000       0x80 build/obj/sockets.o
 .text.lwip_close
                0x0000000000000000       0x60 build/obj/sockets.o
 .text.lwip_connect
                0x0000000000000000       0x80 build/obj/sockets.o
 .text.lwip_listen
                0x0000000000000000       0x50 build/obj/sockets.o
 .text.lwip_recvfrom
                0x0000000000000000      0x220 build/obj/sockets.o
 .text.lwip_read
                0x0000000000000000       0x20 build/obj/sockets.o
 .text.lwip_recv
                0x0000000000000000       0x20 build/obj/sockets.o
 .text.lwip_sendto
                0x0000000000000000       0xe0 build/obj/sockets.o
 .text.lwip_send
                0x0000000000000000       0xa0 build/obj/sockets.o
 .text.lwip_socket
                0x0000000000000000       0x80 build/obj/sockets.o
 .text.lwip_write
                0x0000000000000000       0x10 build/obj/sockets.o
 .text.lwip_select
                0x0000000000000000      0x300 build/obj/sockets.o
 .text.lwip_shutdown
                0x0000000000000000       0x70 build/obj/sockets.o
 .text.lwip_getpeername
                0x0000000000000000       0x10 build/obj/sockets.o
 .text.lwip_getsockname
                0x0000000000000000       0x10 build/obj/sockets.o
 .text.lwip_getsockopt
                0x0000000000000000      0x100 build/obj/sockets.o
 .text.lwip_setsockopt
                0x0000000000000000       0xe0 build/obj/sockets.o
 .text.lwip_ioctl
                0x0000000000000000       0x60 build/obj/sockets.o
 .text.lwip_fcntl
                0x0000000000000000       0x50 build/obj/sockets.o
 .rodata.err_to_errno_table
                0x0000000000000000       0x40 build/obj/sockets.o
 .bss.select_cb_list
                0x0000000000000000        0x4 build/obj/sockets.o
 .bss.sockets   0x0000000000000000       0x60 build/obj/sockets.o
 .bss.select_cb_ctr
                0x0000000000000000        0x4 build/obj/sockets.o
 .text          0x0000000000000000        0x0 build/obj/tcpip.o
 .data          0x0000000000000000        0x0 build/obj/tcpip.o
 .bss           0x0000000000000000        0x0 build/obj/tcpip.o
 .text.pbuf_free_int
                0x0000000000000000       0x10 build/obj/tcpip.o
 .text.tcpip_timeout
                0x0000000000000000       0x40 build/obj/tcpip.o
 .text.tcpip_untimeout
                0x0000000000000000       0x40 build/obj/tcpip.o
 .text.pbuf_free_callback
                0x0000000000000000       0x10 build/obj/tcpip.o
 .text.mem_free_callback
                0x0000000000000000       0x10 build/obj/tcpip.o
 .text          0x0000000000000000        0x0 build/obj/fatfs_diskio.o
 .data          0x0000000000000000        0x0 build/obj/fatfs_diskio.o
 .bss           0x0000000000000000        0x0 build/obj/fatfs_diskio.o
 .text.disk_ioctl
                0x0000000000000000       0x40 build/obj/fatfs_diskio.o
 .text.get_fattime
                0x0000000000000000       0x10 build/obj/fatfs_diskio.o
 .text          0x0000000000000000        0x0 build/obj/fatfs_syscall.o
 .data          0x0000000000000000        0x0 build/obj/fatfs_syscall.o
 .bss           0x0000000000000000        0x0 build/obj/fatfs_syscall.o
 .text          0x0000000000000000        0x0 build/obj/ff.o
 .data          0x0000000000000000        0x0 build/obj/ff.o
 .bss           0x0000000000000000        0x0 build/obj/ff.o
 .text.sync     0x0000000000000000       0xd0 build/obj/ff.o
 .text.clust2sect
                0x0000000000000000       0x20 build/obj/ff.o
 .text.dir_remove
                0x0000000000000000       0x50 build/obj/ff.o
 .text.remove_chain
                0x0000000000000000       0x60 build/obj/ff.o
 .text.gen_numname
                0x0000000000000000       0xa0 build/obj/ff.o
 .text.dir_register
                0x0000000000000000      0x250 build/obj/ff.o
 .text.f_open   0x0000000000000000      0x1b0 build/obj/ff.o
 .text.f_read   0x0000000000000000      0x1e0 build/obj/ff.o
 .text.f_write  0x0000000000000000      0x240 build/obj/ff.o
 .text.f_sync   0x0000000000000000       0xc0 build/obj/ff.o
 .text.f_close  0x0000000000000000       0x10 build/obj/ff.o
 .text.f_lseek  0x0000000000000000      0x1d0 build/obj/ff.o
 .text.f_stat   0x0000000000000000       0x70 build/obj/ff.o
 .text.f_truncate
                0x0000000000000000       0xa0 build/obj/ff.o
 .text.f_unlink
                0x0000000000000000       0xe0 build/obj/ff.o
 .text.f_mkdir  0x0000000000000000      0x240 build/obj/ff.o
 .text.f_chmod  0x0000000000000000       0x80 build/obj/ff.o
 .text.f_utime  0x0000000000000000       0x90 build/obj/ff.o
 .text.f_rename
                0x0000000000000000      0x180 build/obj/ff.o
 .text          0x0000000000000000        0x0 build/obj/ccsbcs.o
 .data          0x0000000000000000        0x0 build/obj/ccsbcs.o
 .bss           0x0000000000000000        0x0 build/obj/ccsbcs.o
 .text          0x0000000000000000        0x0 build/obj/evtimer.o
 .data          0x0000000000000000        0x0 build/obj/evtimer.o
 .bss           0x0000000000000000        0x0 build/obj/evtimer.o
 .text.evtStop  0x0000000000000000       0x20 build/obj/evtimer.o
 .text          0x0000000000000000        0x0 build/obj/chprintf.o
 .data          0x0000000000000000        0x0 build/obj/chprintf.o
 .bss           0x0000000000000000        0x0 build/obj/chprintf.o
 .text          0x0000000000000000        0x0 build/obj/shell.o
 .data          0x0000000000000000        0x0 build/obj/shell.o
 .bss           0x0000000000000000        0x0 build/obj/shell.o
 .text.shellCreateStatic
                0x0000000000000000       0x20 build/obj/shell.o
 .text          0x0000000000000000        0x0 build/obj/web.o
 .data          0x0000000000000000        0x0 build/obj/web.o
 .bss           0x0000000000000000        0x0 build/obj/web.o
 .text          0x0000000000000000        0x0 build/obj/main.o
 .data          0x0000000000000000        0x0 build/obj/main.o
 .bss           0x0000000000000000        0x0 build/obj/main.o
 .data          0x0000000000000000        0x0 /opt/psas/x-tools/stm32f407/arm-psas-eabi/bin/../lib/gcc/arm-psas-eabi/4.7.2/../../../../arm-psas-eabi/lib/libc.a(lib_a-memcpy-stub.o)
 .bss           0x0000000000000000        0x0 /opt/psas/x-tools/stm32f407/arm-psas-eabi/bin/../lib/gcc/arm-psas-eabi/4.7.2/../../../../arm-psas-eabi/lib/libc.a(lib_a-memcpy-stub.o)
 .data          0x0000000000000000        0x0 /opt/psas/x-tools/stm32f407/arm-psas-eabi/bin/../lib/gcc/arm-psas-eabi/4.7.2/../../../../arm-psas-eabi/lib/libc.a(lib_a-memset.o)
 .bss           0x0000000000000000        0x0 /opt/psas/x-tools/stm32f407/arm-psas-eabi/bin/../lib/gcc/arm-psas-eabi/4.7.2/../../../../arm-psas-eabi/lib/libc.a(lib_a-memset.o)
 .data          0x0000000000000000        0x0 /opt/psas/x-tools/stm32f407/arm-psas-eabi/bin/../lib/gcc/arm-psas-eabi/4.7.2/../../../../arm-psas-eabi/lib/libc.a(lib_a-strcasecmp.o)
 .bss           0x0000000000000000        0x0 /opt/psas/x-tools/stm32f407/arm-psas-eabi/bin/../lib/gcc/arm-psas-eabi/4.7.2/../../../../arm-psas-eabi/lib/libc.a(lib_a-strcasecmp.o)
 .data          0x0000000000000000        0x0 /opt/psas/x-tools/stm32f407/arm-psas-eabi/bin/../lib/gcc/arm-psas-eabi/4.7.2/../../../../arm-psas-eabi/lib/libc.a(lib_a-strchr.o)
 .bss           0x0000000000000000        0x0 /opt/psas/x-tools/stm32f407/arm-psas-eabi/bin/../lib/gcc/arm-psas-eabi/4.7.2/../../../../arm-psas-eabi/lib/libc.a(lib_a-strchr.o)
 .data          0x0000000000000000        0x0 /opt/psas/x-tools/stm32f407/arm-psas-eabi/bin/../lib/gcc/arm-psas-eabi/4.7.2/../../../../arm-psas-eabi/lib/libc.a(lib_a-strcpy.o)
 .bss           0x0000000000000000        0x0 /opt/psas/x-tools/stm32f407/arm-psas-eabi/bin/../lib/gcc/arm-psas-eabi/4.7.2/../../../../arm-psas-eabi/lib/libc.a(lib_a-strcpy.o)
 .data          0x0000000000000000        0x0 /opt/psas/x-tools/stm32f407/arm-psas-eabi/bin/../lib/gcc/arm-psas-eabi/4.7.2/../../../../arm-psas-eabi/lib/libc.a(lib_a-strlen.o)
 .bss           0x0000000000000000        0x0 /opt/psas/x-tools/stm32f407/arm-psas-eabi/bin/../lib/gcc/arm-psas-eabi/4.7.2/../../../../arm-psas-eabi/lib/libc.a(lib_a-strlen.o)
 .data          0x0000000000000000        0x0 /opt/psas/x-tools/stm32f407/arm-psas-eabi/bin/../lib/gcc/arm-psas-eabi/4.7.2/../../../../arm-psas-eabi/lib/libc.a(lib_a-strspn.o)
 .bss           0x0000000000000000        0x0 /opt/psas/x-tools/stm32f407/arm-psas-eabi/bin/../lib/gcc/arm-psas-eabi/4.7.2/../../../../arm-psas-eabi/lib/libc.a(lib_a-strspn.o)
 .text          0x0000000000000000        0x0 /opt/psas/x-tools/stm32f407/arm-psas-eabi/bin/../lib/gcc/arm-psas-eabi/4.7.2/../../../../arm-psas-eabi/lib/libc.a(lib_a-ctype_.o)
 .bss           0x0000000000000000        0x0 /opt/psas/x-tools/stm32f407/arm-psas-eabi/bin/../lib/gcc/arm-psas-eabi/4.7.2/../../../../arm-psas-eabi/lib/libc.a(lib_a-ctype_.o)

Memory Configuration

Name             Origin             Length             Attributes
flash            0x0000000008000000 0x0000000000100000
ram              0x0000000020000000 0x000000000001c000
ethram           0x000000002001c000 0x0000000000004000
ccmram           0x0000000010000000 0x0000000000010000
*default*        0x0000000000000000 0xffffffffffffffff

Linker script and memory map

LOAD build/obj/crt0.o
LOAD build/obj/vectors.o
LOAD build/obj/chcore.o
LOAD build/obj/chcore_v7m.o
LOAD build/obj/nvic.o
LOAD build/obj/chsys.o
LOAD build/obj/chdebug.o
LOAD build/obj/chlists.o
LOAD build/obj/chvt.o
LOAD build/obj/chschd.o
LOAD build/obj/chthreads.o
LOAD build/obj/chdynamic.o
LOAD build/obj/chregistry.o
LOAD build/obj/chsem.o
LOAD build/obj/chmtx.o
LOAD build/obj/chcond.o
LOAD build/obj/chevents.o
LOAD build/obj/chmsg.o
LOAD build/obj/chmboxes.o
LOAD build/obj/chqueues.o
LOAD build/obj/chmemcore.o
LOAD build/obj/chheap.o
LOAD build/obj/chmempools.o
LOAD build/obj/test.o
LOAD build/obj/testthd.o
LOAD build/obj/testsem.o
LOAD build/obj/testmtx.o
LOAD build/obj/testmsg.o
LOAD build/obj/testmbox.o
LOAD build/obj/testevt.o
LOAD build/obj/testheap.o
LOAD build/obj/testpools.o
LOAD build/obj/testdyn.o
LOAD build/obj/testqueues.o
LOAD build/obj/testbmk.o
LOAD build/obj/hal.o
LOAD build/obj/adc.o
LOAD build/obj/can.o
LOAD build/obj/ext.o
LOAD build/obj/gpt.o
LOAD build/obj/i2c.o
LOAD build/obj/icu.o
LOAD build/obj/mac.o
LOAD build/obj/mmc_spi.o
LOAD build/obj/mmcsd.o
LOAD build/obj/pal.o
LOAD build/obj/pwm.o
LOAD build/obj/rtc.o
LOAD build/obj/sdc.o
LOAD build/obj/serial.o
LOAD build/obj/serial_usb.o
LOAD build/obj/spi.o
LOAD build/obj/tm.o
LOAD build/obj/uart.o
LOAD build/obj/usb.o
LOAD build/obj/stm32_dma.o
LOAD build/obj/hal_lld.o
LOAD build/obj/adc_lld.o
LOAD build/obj/ext_lld_isr.o
LOAD build/obj/can_lld.o
LOAD build/obj/ext_lld.o
LOAD build/obj/gpt_lld.o
LOAD build/obj/icu_lld.o
LOAD build/obj/mac_lld.o
LOAD build/obj/pwm_lld.o
LOAD build/obj/sdc_lld.o
LOAD build/obj/pal_lld.o
LOAD build/obj/i2c_lld.o
LOAD build/obj/usb_lld.o
LOAD build/obj/rtc_lld.o
LOAD build/obj/spi_lld.o
LOAD build/obj/serial_lld.o
LOAD build/obj/uart_lld.o
LOAD build/obj/board.o
LOAD build/obj/lwipthread.o
LOAD build/obj/sys_arch.o
LOAD build/obj/etharp.o
LOAD build/obj/dhcp.o
LOAD build/obj/dns.o
LOAD build/obj/init.o
LOAD build/obj/mem.o
LOAD build/obj/memp.o
LOAD build/obj/netif.o
LOAD build/obj/pbuf.o
LOAD build/obj/raw.o
LOAD build/obj/stats.o
LOAD build/obj/sys.o
LOAD build/obj/tcp.o
LOAD build/obj/tcp_in.o
LOAD build/obj/tcp_out.o
LOAD build/obj/udp.o
LOAD build/obj/autoip.o
LOAD build/obj/icmp.o
LOAD build/obj/igmp.o
LOAD build/obj/inet.o
LOAD build/obj/inet_chksum.o
LOAD build/obj/ip.o
LOAD build/obj/ip_addr.o
LOAD build/obj/ip_frag.o
LOAD build/obj/def.o
LOAD build/obj/timers.o
LOAD build/obj/api_lib.o
LOAD build/obj/api_msg.o
LOAD build/obj/err.o
LOAD build/obj/netbuf.o
LOAD build/obj/netdb.o
LOAD build/obj/netifapi.o
LOAD build/obj/sockets.o
LOAD build/obj/tcpip.o
LOAD build/obj/fatfs_diskio.o
LOAD build/obj/fatfs_syscall.o
LOAD build/obj/ff.o
LOAD build/obj/ccsbcs.o
LOAD build/obj/evtimer.o
LOAD build/obj/chprintf.o
LOAD build/obj/shell.o
LOAD build/obj/web.o
LOAD build/obj/main.o
START GROUP
LOAD /opt/psas/x-tools/stm32f407/arm-psas-eabi/bin/../lib/gcc/arm-psas-eabi/4.7.2/libgcc.a
LOAD /opt/psas/x-tools/stm32f407/arm-psas-eabi/bin/../lib/gcc/arm-psas-eabi/4.7.2/../../../../arm-psas-eabi/lib/libc.a
END GROUP
                0x0000000000000400                __main_stack_size__ = 0x400
                0x0000000000000400                __process_stack_size__ = 0x400
                0x0000000020000000                __ram_start__ = ORIGIN (ram)
                0x000000000001c000                __ram_size__ = 0x1c000
                0x000000002001c000                __ram_end__ = (__ram_start__ + __ram_size__)
                0x0000000000000000                . = 0x0
                0x0000000000000000                _text = .

startup         0x0000000008000000      0x188
 *(vectors)
 vectors        0x0000000008000000      0x188 build/obj/vectors.o
                0x0000000008000000                _vectors

constructors    0x0000000008000188        0x0
                0x0000000008000188                PROVIDE (__init_array_start, .)
 *(SORT(.init_array.*))
 *(.init_array)
                0x0000000008000188                PROVIDE (__init_array_end, .)

destructors     0x0000000008000188        0x0
                0x0000000008000188                PROVIDE (__fini_array_start, .)
 *(.fini_array)
 *(SORT(.fini_array.*))
                0x0000000008000188                PROVIDE (__fini_array_end, .)

.text           0x0000000008000190    0x13d84
 *(.text.startup.*)
 .text.startup.main
                0x0000000008000190      0x170 build/obj/main.o
                0x0000000008000190                main
 *(.text)
 .text          0x0000000008000300       0x12 /opt/psas/x-tools/stm32f407/arm-psas-eabi/bin/../lib/gcc/arm-psas-eabi/4.7.2/../../../../arm-psas-eabi/lib/libc.a(lib_a-memcpy-stub.o)
                0x0000000008000300                memcpy
 *fill*         0x0000000008000312        0xe 00
 .text          0x0000000008000320       0x10 /opt/psas/x-tools/stm32f407/arm-psas-eabi/bin/../lib/gcc/arm-psas-eabi/4.7.2/../../../../arm-psas-eabi/lib/libc.a(lib_a-memset.o)
                0x0000000008000320                memset
 .text          0x0000000008000330       0x3c /opt/psas/x-tools/stm32f407/arm-psas-eabi/bin/../lib/gcc/arm-psas-eabi/4.7.2/../../../../arm-psas-eabi/lib/libc.a(lib_a-strcasecmp.o)
                0x0000000008000330                strcasecmp
 *fill*         0x000000000800036c        0x4 00
 .text          0x0000000008000370       0x1a /opt/psas/x-tools/stm32f407/arm-psas-eabi/bin/../lib/gcc/arm-psas-eabi/4.7.2/../../../../arm-psas-eabi/lib/libc.a(lib_a-strchr.o)
                0x0000000008000370                strchr
 *fill*         0x000000000800038a        0x6 00
 .text          0x0000000008000390       0x10 /opt/psas/x-tools/stm32f407/arm-psas-eabi/bin/../lib/gcc/arm-psas-eabi/4.7.2/../../../../arm-psas-eabi/lib/libc.a(lib_a-strcpy.o)
                0x0000000008000390                strcpy
 .text          0x00000000080003a0       0x10 /opt/psas/x-tools/stm32f407/arm-psas-eabi/bin/../lib/gcc/arm-psas-eabi/4.7.2/../../../../arm-psas-eabi/lib/libc.a(lib_a-strlen.o)
                0x00000000080003a0                strlen
 .text          0x00000000080003b0       0x24 /opt/psas/x-tools/stm32f407/arm-psas-eabi/bin/../lib/gcc/arm-psas-eabi/4.7.2/../../../../arm-psas-eabi/lib/libc.a(lib_a-strspn.o)
                0x00000000080003b0                strspn
 *(.text.*)
 *fill*         0x00000000080003d4        0xc 00
 .text.__late_init
                0x00000000080003e0       0x10 build/obj/crt0.o
                0x00000000080003e0                __late_init
 .text._default_exit
                0x00000000080003f0       0x10 build/obj/crt0.o
                0x00000000080003f0                _default_exit
 .text.ResetHandler
                0x0000000008000400      0x120 build/obj/crt0.o
                0x0000000008000400                ResetHandler
 .text._unhandled_exception
                0x0000000008000520       0x10 build/obj/vectors.o
                0x0000000008000520                Vector58
                0x0000000008000520                VectorE8
                0x0000000008000520                Vector9C
                0x0000000008000520                VectorAC
                0x0000000008000520                Vector5C
                0x0000000008000520                NMIVector
                0x0000000008000520                Vector11C
                0x0000000008000520                Vector8C
                0x0000000008000520                VectorDC
                0x0000000008000520                Vector168
                0x0000000008000520                Vector110
                0x0000000008000520                VectorC8
                0x0000000008000520                Vector94
                0x0000000008000520                VectorA8
                0x0000000008000520                VectorB4
                0x0000000008000520                Vector160
                0x0000000008000520                VectorEC
                0x0000000008000520                UsageFaultVector
                0x0000000008000520                DebugMonitorVector
                0x0000000008000520                Vector40
                0x0000000008000520                VectorF8
                0x0000000008000520                Vector108
                0x0000000008000520                VectorBC
                0x0000000008000520                Vector148
                0x0000000008000520                PendSVVector
                0x0000000008000520                Vector118
                0x0000000008000520                Vector64
                0x0000000008000520                VectorCC
                0x0000000008000520                Vector54
                0x0000000008000520                Vector98
                0x0000000008000520                VectorD8
                0x0000000008000520                Vector138
                0x0000000008000520                Vector24
                0x0000000008000520                Vector178
                0x0000000008000520                BusFaultVector
                0x0000000008000520                VectorD0
                0x0000000008000520                Vector140
                0x0000000008000520                VectorE4
                0x0000000008000520                VectorC0
                0x0000000008000520                HardFaultVector
                0x0000000008000520                VectorF0
                0x0000000008000520                Vector13C
                0x0000000008000520                Vector100
                0x0000000008000520                VectorE0
                0x0000000008000520                VectorF4
                0x0000000008000520                MemManageVector
                0x0000000008000520                VectorA0
                0x0000000008000520                VectorC4
                0x0000000008000520                Vector180
                0x0000000008000520                VectorB0
                0x0000000008000520                Vector90
                0x0000000008000520                Vector114
                0x0000000008000520                Vector164
                0x0000000008000520                Vector60
                0x0000000008000520                Vector1C
                0x0000000008000520                Vector17C
                0x0000000008000520                Vector48
                0x0000000008000520                Vector16C
                0x0000000008000520                VectorD4
                0x0000000008000520                Vector4C
                0x0000000008000520                Vector144
                0x0000000008000520                Vector68
                0x0000000008000520                _unhandled_exception
                0x0000000008000520                Vector170
                0x0000000008000520                Vector88
                0x0000000008000520                Vector184
                0x0000000008000520                Vector10C
                0x0000000008000520                Vector50
                0x0000000008000520                Vector44
                0x0000000008000520                Vector28
                0x0000000008000520                VectorB8
                0x0000000008000520                Vector34
                0x0000000008000520                VectorA4
                0x0000000008000520                Vector20
                0x0000000008000520                Vector174
 .text.port_halt
                0x0000000008000530       0x10 build/obj/chcore.o
                0x0000000008000530                port_halt
 .text._port_switch_from_isr
                0x0000000008000540       0x10 build/obj/chcore_v7m.o
                0x0000000008000540                _port_switch_from_isr
 .text.SVCallVector
                0x0000000008000550       0x20 build/obj/chcore_v7m.o
                0x0000000008000550                SVCallVector
 .text._port_init
                0x0000000008000570       0x40 build/obj/chcore_v7m.o
                0x0000000008000570                _port_init
 .text._port_irq_epilogue
                0x00000000080005b0       0x70 build/obj/chcore_v7m.o
                0x00000000080005b0                _port_irq_epilogue
 .text.SysTickVector
                0x0000000008000620       0x20 build/obj/chcore_v7m.o
                0x0000000008000620                SysTickVector
 .text._port_switch
                0x0000000008000640       0x10 build/obj/chcore_v7m.o
                0x0000000008000640                _port_switch
 .text._port_thread_start
                0x0000000008000650       0x10 build/obj/chcore_v7m.o
                0x0000000008000650                _port_thread_start
 .text.nvicEnableVector
                0x0000000008000660       0x50 build/obj/nvic.o
                0x0000000008000660                nvicEnableVector
 .text.nvicSetSystemHandlerPriority
                0x00000000080006b0       0x30 build/obj/nvic.o
                0x00000000080006b0                nvicSetSystemHandlerPriority
 .text._idle_thread
                0x00000000080006e0       0x20 build/obj/chsys.o
                0x00000000080006e0                _idle_thread
 .text.chSysInit
                0x0000000008000700       0x70 build/obj/chsys.o
                0x0000000008000700                chSysInit
 .text.chSysTimerHandlerI
                0x0000000008000770       0x60 build/obj/chsys.o
                0x0000000008000770                chSysTimerHandlerI
 .text._vt_init
                0x00000000080007d0       0x20 build/obj/chvt.o
                0x00000000080007d0                _vt_init
 .text.chVTSetI
                0x00000000080007f0       0x40 build/obj/chvt.o
                0x00000000080007f0                chVTSetI
 .text.chVTResetI
                0x0000000008000830       0x30 build/obj/chvt.o
                0x0000000008000830                chVTResetI
 .text.chTimeIsWithin
                0x0000000008000860       0x40 build/obj/chvt.o
                0x0000000008000860                chTimeIsWithin
 .text.wakeup   0x00000000080008a0       0x60 build/obj/chschd.o
 .text._scheduler_init
                0x0000000008000900       0x20 build/obj/chschd.o
                0x0000000008000900                _scheduler_init
 .text.chSchReadyI
                0x0000000008000920       0x20 build/obj/chschd.o
                0x0000000008000920                chSchReadyI
 .text.chSchGoSleepS
                0x0000000008000940       0x30 build/obj/chschd.o
                0x0000000008000940                chSchGoSleepS
 .text.chSchGoSleepTimeoutS
                0x0000000008000970       0x40 build/obj/chschd.o
                0x0000000008000970                chSchGoSleepTimeoutS
 .text.chSchWakeupS
                0x00000000080009b0       0x60 build/obj/chschd.o
                0x00000000080009b0                chSchWakeupS
 .text.chSchDoRescheduleBehind
                0x0000000008000a10       0x40 build/obj/chschd.o
                0x0000000008000a10                chSchDoRescheduleBehind
 .text.chSchDoRescheduleAhead
                0x0000000008000a50       0x40 build/obj/chschd.o
                0x0000000008000a50                chSchDoRescheduleAhead
 .text.chSchRescheduleS
                0x0000000008000a90       0x20 build/obj/chschd.o
                0x0000000008000a90                chSchRescheduleS
 .text.chSchDoReschedule
                0x0000000008000ab0       0x20 build/obj/chschd.o
                0x0000000008000ab0                chSchDoReschedule
 .text._thread_init
                0x0000000008000ad0       0x50 build/obj/chthreads.o
                0x0000000008000ad0                _thread_init
 .text.chThdCreateI
                0x0000000008000b20       0x70 build/obj/chthreads.o
                0x0000000008000b20                chThdCreateI
 .text.chThdCreateStatic
                0x0000000008000b90       0x30 build/obj/chthreads.o
                0x0000000008000b90                chThdCreateStatic
 .text.chThdSetPriority
                0x0000000008000bc0       0x30 build/obj/chthreads.o
                0x0000000008000bc0                chThdSetPriority
 .text.chThdResume
                0x0000000008000bf0       0x20 build/obj/chthreads.o
                0x0000000008000bf0                chThdResume
 .text.chThdTerminate
                0x0000000008000c10       0x20 build/obj/chthreads.o
                0x0000000008000c10                chThdTerminate
 .text.chThdSleep
                0x0000000008000c30       0x20 build/obj/chthreads.o
                0x0000000008000c30                chThdSleep
 .text.chThdSleepUntil
                0x0000000008000c50       0x30 build/obj/chthreads.o
                0x0000000008000c50                chThdSleepUntil
 .text.chThdYield
                0x0000000008000c80       0x30 build/obj/chthreads.o
                0x0000000008000c80                chThdYield
 .text.chThdExitS
                0x0000000008000cb0       0x40 build/obj/chthreads.o
                0x0000000008000cb0                chThdExitS
 .text.chThdExit
                0x0000000008000cf0       0x10 build/obj/chthreads.o
                0x0000000008000cf0                chThdExit
 .text.chThdWait
                0x0000000008000d00       0x40 build/obj/chthreads.o
                0x0000000008000d00                chThdWait
 .text.chThdAddRef
                0x0000000008000d40       0x20 build/obj/chdynamic.o
                0x0000000008000d40                chThdAddRef
 .text.chThdRelease
                0x0000000008000d60       0x50 build/obj/chdynamic.o
                0x0000000008000d60                chThdRelease
 .text.chThdCreateFromHeap
                0x0000000008000db0       0x40 build/obj/chdynamic.o
                0x0000000008000db0                chThdCreateFromHeap
 .text.chThdCreateFromMemoryPool
                0x0000000008000df0       0x50 build/obj/chdynamic.o
                0x0000000008000df0                chThdCreateFromMemoryPool
 .text.chRegFirstThread
                0x0000000008000e40       0x20 build/obj/chregistry.o
                0x0000000008000e40                chRegFirstThread
 .text.chRegNextThread
                0x0000000008000e60       0x30 build/obj/chregistry.o
                0x0000000008000e60                chRegNextThread
 .text.chSemInit
                0x0000000008000e90       0x10 build/obj/chsem.o
                0x0000000008000e90                chSemInit
 .text.chSemResetI
                0x0000000008000ea0       0x30 build/obj/chsem.o
                0x0000000008000ea0                chSemResetI
 .text.chSemReset
                0x0000000008000ed0       0x20 build/obj/chsem.o
                0x0000000008000ed0                chSemReset
 .text.chSemWaitS
                0x0000000008000ef0       0x40 build/obj/chsem.o
                0x0000000008000ef0                chSemWaitS
 .text.chSemWait
                0x0000000008000f30       0x20 build/obj/chsem.o
                0x0000000008000f30                chSemWait
 .text.chSemWaitTimeoutS
                0x0000000008000f50       0x40 build/obj/chsem.o
                0x0000000008000f50                chSemWaitTimeoutS
 .text.chSemWaitTimeout
                0x0000000008000f90       0x20 build/obj/chsem.o
                0x0000000008000f90                chSemWaitTimeout
 .text.chSemSignal
                0x0000000008000fb0       0x30 build/obj/chsem.o
                0x0000000008000fb0                chSemSignal
 .text.chSemSignalI
                0x0000000008000fe0       0x20 build/obj/chsem.o
                0x0000000008000fe0                chSemSignalI
 .text.chSemAddCounterI
                0x0000000008001000       0x30 build/obj/chsem.o
                0x0000000008001000                chSemAddCounterI
 .text.chSemSignalWait
                0x0000000008001030       0x70 build/obj/chsem.o
                0x0000000008001030                chSemSignalWait
 .text.chMtxInit
                0x00000000080010a0       0x10 build/obj/chmtx.o
                0x00000000080010a0                chMtxInit
 .text.chMtxLockS
                0x00000000080010b0       0xd0 build/obj/chmtx.o
                0x00000000080010b0                chMtxLockS
 .text.chMtxLock
                0x0000000008001180       0x20 build/obj/chmtx.o
                0x0000000008001180                chMtxLock
 .text.chMtxTryLock
                0x00000000080011a0       0x30 build/obj/chmtx.o
                0x00000000080011a0                chMtxTryLock
 .text.chMtxUnlock
                0x00000000080011d0       0x60 build/obj/chmtx.o
                0x00000000080011d0                chMtxUnlock
 .text.chMtxUnlockS
                0x0000000008001230       0x50 build/obj/chmtx.o
                0x0000000008001230                chMtxUnlockS
 .text.chMtxUnlockAll
                0x0000000008001280       0x50 build/obj/chmtx.o
                0x0000000008001280                chMtxUnlockAll
 .text.chCondInit
                0x00000000080012d0       0x10 build/obj/chcond.o
                0x00000000080012d0                chCondInit
 .text.chCondSignal
                0x00000000080012e0       0x30 build/obj/chcond.o
                0x00000000080012e0                chCondSignal
 .text.chCondSignalI
                0x0000000008001310       0x20 build/obj/chcond.o
                0x0000000008001310                chCondSignalI
 .text.chCondBroadcastI
                0x0000000008001330       0x30 build/obj/chcond.o
                0x0000000008001330                chCondBroadcastI
 .text.chCondBroadcast
                0x0000000008001360       0x20 build/obj/chcond.o
                0x0000000008001360                chCondBroadcast
 .text.chCondWaitS
                0x0000000008001380       0x50 build/obj/chcond.o
                0x0000000008001380                chCondWaitS
 .text.chCondWait
                0x00000000080013d0       0x20 build/obj/chcond.o
                0x00000000080013d0                chCondWait
 .text.chCondWaitTimeoutS
                0x00000000080013f0       0x50 build/obj/chcond.o
                0x00000000080013f0                chCondWaitTimeoutS
 .text.chCondWaitTimeout
                0x0000000008001440       0x20 build/obj/chcond.o
                0x0000000008001440                chCondWaitTimeout
 .text.chEvtRegisterMask
                0x0000000008001460       0x30 build/obj/chevents.o
                0x0000000008001460                chEvtRegisterMask
 .text.chEvtUnregister
                0x0000000008001490       0x30 build/obj/chevents.o
                0x0000000008001490                chEvtUnregister
 .text.chEvtGetAndClearEvents
                0x00000000080014c0       0x30 build/obj/chevents.o
                0x00000000080014c0                chEvtGetAndClearEvents
 .text.chEvtAddEvents
                0x00000000080014f0       0x20 build/obj/chevents.o
                0x00000000080014f0                chEvtAddEvents
 .text.chEvtSignalI
                0x0000000008001510       0x30 build/obj/chevents.o
                0x0000000008001510                chEvtSignalI
 .text.chEvtSignal
                0x0000000008001540       0x20 build/obj/chevents.o
                0x0000000008001540                chEvtSignal
 .text.chEvtBroadcastFlagsI
                0x0000000008001560       0x20 build/obj/chevents.o
                0x0000000008001560                chEvtBroadcastFlagsI
 .text.chEvtBroadcastFlags
                0x0000000008001580       0x20 build/obj/chevents.o
                0x0000000008001580                chEvtBroadcastFlags
 .text.chEvtDispatch
                0x00000000080015a0       0x30 build/obj/chevents.o
                0x00000000080015a0                chEvtDispatch
 .text.chEvtWaitOne
                0x00000000080015d0       0x40 build/obj/chevents.o
                0x00000000080015d0                chEvtWaitOne
 .text.chEvtWaitAny
                0x0000000008001610       0x40 build/obj/chevents.o
                0x0000000008001610                chEvtWaitAny
 .text.chEvtWaitAll
                0x0000000008001650       0x40 build/obj/chevents.o
                0x0000000008001650                chEvtWaitAll
 .text.chEvtWaitOneTimeout
                0x0000000008001690       0x50 build/obj/chevents.o
                0x0000000008001690                chEvtWaitOneTimeout
 .text.chEvtWaitAnyTimeout
                0x00000000080016e0       0x50 build/obj/chevents.o
                0x00000000080016e0                chEvtWaitAnyTimeout
 .text.chEvtWaitAllTimeout
                0x0000000008001730       0x60 build/obj/chevents.o
                0x0000000008001730                chEvtWaitAllTimeout
 .text.chMsgSend
                0x0000000008001790       0x40 build/obj/chmsg.o
                0x0000000008001790                chMsgSend
 .text.chMsgWait
                0x00000000080017d0       0x40 build/obj/chmsg.o
                0x00000000080017d0                chMsgWait
 .text.chMsgRelease
                0x0000000008001810       0x20 build/obj/chmsg.o
                0x0000000008001810                chMsgRelease
 .text.chMBInit
                0x0000000008001830       0x30 build/obj/chmboxes.o
                0x0000000008001830                chMBInit
 .text.chMBReset
                0x0000000008001860       0x40 build/obj/chmboxes.o
                0x0000000008001860                chMBReset
 .text.chMBPostS
                0x00000000080018a0       0x40 build/obj/chmboxes.o
                0x00000000080018a0                chMBPostS
 .text.chMBPost
                0x00000000080018e0       0x20 build/obj/chmboxes.o
                0x00000000080018e0                chMBPost
 .text.chMBPostI
                0x0000000008001900       0x30 build/obj/chmboxes.o
                0x0000000008001900                chMBPostI
 .text.chMBPostAheadS
                0x0000000008001930       0x40 build/obj/chmboxes.o
                0x0000000008001930                chMBPostAheadS
 .text.chMBPostAhead
                0x0000000008001970       0x20 build/obj/chmboxes.o
                0x0000000008001970                chMBPostAhead
 .text.chMBPostAheadI
                0x0000000008001990       0x30 build/obj/chmboxes.o
                0x0000000008001990                chMBPostAheadI
 .text.chMBFetchS
                0x00000000080019c0       0x40 build/obj/chmboxes.o
                0x00000000080019c0                chMBFetchS
 .text.chMBFetch
                0x0000000008001a00       0x20 build/obj/chmboxes.o
                0x0000000008001a00                chMBFetch
 .text.chMBFetchI
                0x0000000008001a20       0x30 build/obj/chmboxes.o
                0x0000000008001a20                chMBFetchI
 .text.qwait    0x0000000008001a50       0x30 build/obj/chqueues.o
 .text.chIQInit
                0x0000000008001a80       0x20 build/obj/chqueues.o
                0x0000000008001a80                chIQInit
 .text.chIQResetI
                0x0000000008001aa0       0x30 build/obj/chqueues.o
                0x0000000008001aa0                chIQResetI
 .text.chIQPutI
                0x0000000008001ad0       0x50 build/obj/chqueues.o
                0x0000000008001ad0                chIQPutI
 .text.chIQGetTimeout
                0x0000000008001b20       0x50 build/obj/chqueues.o
                0x0000000008001b20                chIQGetTimeout
 .text.chIQReadTimeout
                0x0000000008001b70       0x80 build/obj/chqueues.o
                0x0000000008001b70                chIQReadTimeout
 .text.chOQInit
                0x0000000008001bf0       0x20 build/obj/chqueues.o
                0x0000000008001bf0                chOQInit
 .text.chOQResetI
                0x0000000008001c10       0x30 build/obj/chqueues.o
                0x0000000008001c10                chOQResetI
 .text.chOQPutTimeout
                0x0000000008001c40       0x50 build/obj/chqueues.o
                0x0000000008001c40                chOQPutTimeout
 .text.chOQGetI
                0x0000000008001c90       0x50 build/obj/chqueues.o
                0x0000000008001c90                chOQGetI
 .text.chOQWriteTimeout
                0x0000000008001ce0       0x80 build/obj/chqueues.o
                0x0000000008001ce0                chOQWriteTimeout
 .text._core_init
                0x0000000008001d60       0x30 build/obj/chmemcore.o
                0x0000000008001d60                _core_init
 .text.chCoreAlloc
                0x0000000008001d90       0x40 build/obj/chmemcore.o
                0x0000000008001d90                chCoreAlloc
 .text.chCoreStatus
                0x0000000008001dd0       0x20 build/obj/chmemcore.o
                0x0000000008001dd0                chCoreStatus
 .text._heap_init
                0x0000000008001df0       0x20 build/obj/chheap.o
                0x0000000008001df0                _heap_init
 .text.chHeapInit
                0x0000000008001e10       0x20 build/obj/chheap.o
                0x0000000008001e10                chHeapInit
 .text.chHeapAlloc
                0x0000000008001e30       0x90 build/obj/chheap.o
                0x0000000008001e30                chHeapAlloc
 .text.chHeapFree
                0x0000000008001ec0       0x90 build/obj/chheap.o
                0x0000000008001ec0                chHeapFree
 .text.chHeapStatus
                0x0000000008001f50       0x40 build/obj/chheap.o
                0x0000000008001f50                chHeapStatus
 .text.chPoolInit
                0x0000000008001f90       0x10 build/obj/chmempools.o
                0x0000000008001f90                chPoolInit
 .text.chPoolLoadArray
                0x0000000008001fa0       0x30 build/obj/chmempools.o
                0x0000000008001fa0                chPoolLoadArray
 .text.chPoolAlloc
                0x0000000008001fd0       0x30 build/obj/chmempools.o
                0x0000000008001fd0                chPoolAlloc
 .text.chPoolFree
                0x0000000008002000       0x20 build/obj/chmempools.o
                0x0000000008002000                chPoolFree
 .text.tmr      0x0000000008002020       0x10 build/obj/test.o
 .text.print_line
                0x0000000008002030       0x30 build/obj/test.o
 .text.test_printn
                0x0000000008002060       0x70 build/obj/test.o
                0x0000000008002060                test_printn
 .text.test_print
                0x00000000080020d0       0x20 build/obj/test.o
                0x00000000080020d0                test_print
 .text.test_println
                0x00000000080020f0       0x30 build/obj/test.o
                0x00000000080020f0                test_println
 .text.test_emit_token
                0x0000000008002120       0x20 build/obj/test.o
                0x0000000008002120                test_emit_token
 .text._test_assert
                0x0000000008002140       0x30 build/obj/test.o
                0x0000000008002140                _test_assert
 .text._test_assert_sequence
                0x0000000008002170       0x60 build/obj/test.o
                0x0000000008002170                _test_assert_sequence
 .text._test_assert_time_window
                0x00000000080021d0       0x30 build/obj/test.o
                0x00000000080021d0                _test_assert_time_window
 .text.test_terminate_threads
                0x0000000008002200       0x20 build/obj/test.o
                0x0000000008002200                test_terminate_threads
 .text.test_wait_threads
                0x0000000008002220       0x30 build/obj/test.o
                0x0000000008002220                test_wait_threads
 .text.test_cpu_pulse
                0x0000000008002250       0x60 build/obj/test.o
                0x0000000008002250                test_cpu_pulse
 .text.test_wait_tick
                0x00000000080022b0       0x20 build/obj/test.o
                0x00000000080022b0                test_wait_tick
 .text.test_start_timer
                0x00000000080022d0       0x50 build/obj/test.o
                0x00000000080022d0                test_start_timer
 .text.TestThread
                0x0000000008002320      0x330 build/obj/test.o
                0x0000000008002320                TestThread
 .text.thd3_execute
                0x0000000008002650      0x140 build/obj/testthd.o
 .text.thd2_execute
                0x0000000008002790       0xf0 build/obj/testthd.o
 .text.thd1_execute
                0x0000000008002880       0xf0 build/obj/testthd.o
 .text.thread   0x0000000008002970       0x10 build/obj/testthd.o
 .text.thd4_execute
                0x0000000008002980       0x80 build/obj/testthd.o
 .text.sem3_setup
                0x0000000008002a00       0x10 build/obj/testsem.o
 .text.sem2_setup
                0x0000000008002a10       0x10 build/obj/testsem.o
 .text.sem1_setup
                0x0000000008002a20       0x10 build/obj/testsem.o
 .text.sem4_execute
                0x0000000008002a30      0x100 build/obj/testsem.o
 .text.thread4  0x0000000008002b30       0x30 build/obj/testsem.o
 .text.thread3  0x0000000008002b60       0x20 build/obj/testsem.o
 .text.thread1  0x0000000008002b80       0x20 build/obj/testsem.o
 .text.thread2  0x0000000008002ba0       0x30 build/obj/testsem.o
 .text.sem1_execute
                0x0000000008002bd0      0x150 build/obj/testsem.o
 .text.sem3_execute
                0x0000000008002d20       0xa0 build/obj/testsem.o
 .text.sem2_execute
                0x0000000008002dc0      0x150 build/obj/testsem.o
 .text.mtx8_execute
                0x0000000008002f10       0xb0 build/obj/testmtx.o
 .text.thread12
                0x0000000008002fc0       0x20 build/obj/testmtx.o
 .text.thread1  0x0000000008002fe0       0x20 build/obj/testmtx.o
 .text.thread10
                0x0000000008003000       0x30 build/obj/testmtx.o
 .text.thread11
                0x0000000008003030       0x40 build/obj/testmtx.o
 .text.mtx8_setup
                0x0000000008003070       0x30 build/obj/testmtx.o
 .text.mtx7_setup
                0x00000000080030a0       0x20 build/obj/testmtx.o
 .text.mtx6_setup
                0x00000000080030c0       0x20 build/obj/testmtx.o
 .text.mtx5_setup
                0x00000000080030e0       0x10 build/obj/testmtx.o
 .text.mtx4_setup
                0x00000000080030f0       0x20 build/obj/testmtx.o
 .text.mtx3_setup
                0x0000000008003110       0x20 build/obj/testmtx.o
 .text.mtx2_setup
                0x0000000008003130       0x10 build/obj/testmtx.o
 .text.mtx1_setup
                0x0000000008003140       0x10 build/obj/testmtx.o
 .text.mtx7_execute
                0x0000000008003150       0xd0 build/obj/testmtx.o
 .text.mtx6_execute
                0x0000000008003220      0x100 build/obj/testmtx.o
 .text.mtx1_execute
                0x0000000008003320       0xe0 build/obj/testmtx.o
 .text.mtx5_execute
                0x0000000008003400       0xd0 build/obj/testmtx.o
 .text.mtx4_execute
                0x00000000080034d0      0x260 build/obj/testmtx.o
 .text.thread4b
                0x0000000008003730       0x20 build/obj/testmtx.o
 .text.thread4a
                0x0000000008003750       0x20 build/obj/testmtx.o
 .text.mtx3_execute
                0x0000000008003770       0xf0 build/obj/testmtx.o
 .text.mtx2_execute
                0x0000000008003860       0xb0 build/obj/testmtx.o
 .text.thread3HH
                0x0000000008003910       0x30 build/obj/testmtx.o
 .text.thread3H
                0x0000000008003940       0x20 build/obj/testmtx.o
 .text.thread3M
                0x0000000008003960       0x30 build/obj/testmtx.o
 .text.thread3L
                0x0000000008003990       0x50 build/obj/testmtx.o
 .text.thread3LL
                0x00000000080039e0       0x30 build/obj/testmtx.o
 .text.thread2L
                0x0000000008003a10       0x30 build/obj/testmtx.o
 .text.thread2M
                0x0000000008003a40       0x20 build/obj/testmtx.o
 .text.thread2H
                0x0000000008003a60       0x30 build/obj/testmtx.o
 .text.msg1_execute
                0x0000000008003a90       0x90 build/obj/testmsg.o
 .text.thread   0x0000000008003b20       0x20 build/obj/testmsg.o
 .text.mbox1_execute
                0x0000000008003b40      0x630 build/obj/testmbox.o
 .text.mbox1_setup
                0x0000000008004170       0x20 build/obj/testmbox.o
 .text.evt3_setup
                0x0000000008004190       0x10 build/obj/testevt.o
 .text.evt2_setup
                0x00000000080041a0       0x10 build/obj/testevt.o
 .text.evt1_setup
                0x00000000080041b0       0x10 build/obj/testevt.o
 .text.evt2_execute
                0x00000000080041c0      0x260 build/obj/testevt.o
 .text.thread2  0x0000000008004420       0x30 build/obj/testevt.o
 .text.thread1  0x0000000008004450       0x20 build/obj/testevt.o
 .text.evt1_execute
                0x0000000008004470       0x90 build/obj/testevt.o
 .text.h3       0x0000000008004500       0x10 build/obj/testevt.o
 .text.h2       0x0000000008004510       0x10 build/obj/testevt.o
 .text.h1       0x0000000008004520       0x10 build/obj/testevt.o
 .text.evt3_execute
                0x0000000008004530       0xb0 build/obj/testevt.o
 .text.heap1_execute
                0x00000000080045e0      0x250 build/obj/testheap.o
 .text.heap1_setup
                0x0000000008004830       0x20 build/obj/testheap.o
 .text.null_provider
                0x0000000008004850       0x10 build/obj/testpools.o
 .text.pools1_setup
                0x0000000008004860       0x20 build/obj/testpools.o
 .text.pools1_execute
                0x0000000008004880       0xd0 build/obj/testpools.o
 .text.regfind  0x0000000008004950       0x30 build/obj/testdyn.o
 .text.dyn3_execute
                0x0000000008004980      0x140 build/obj/testdyn.o
 .text.thread   0x0000000008004ac0       0x10 build/obj/testdyn.o
 .text.dyn3_setup
                0x0000000008004ad0       0x20 build/obj/testdyn.o
 .text.dyn1_setup
                0x0000000008004af0       0x20 build/obj/testdyn.o
 .text.dyn2_execute
                0x0000000008004b10      0x100 build/obj/testdyn.o
 .text.dyn2_setup
                0x0000000008004c10       0x20 build/obj/testdyn.o
 .text.dyn1_execute
                0x0000000008004c30       0xf0 build/obj/testdyn.o
 .text.notify   0x0000000008004d20       0x10 build/obj/testqueues.o
 .text.thread2  0x0000000008004d30       0x20 build/obj/testqueues.o
 .text.queues2_setup
                0x0000000008004d50       0x30 build/obj/testqueues.o
 .text.thread1  0x0000000008004d80       0x20 build/obj/testqueues.o
 .text.queues1_setup
                0x0000000008004da0       0x30 build/obj/testqueues.o
 .text.queues2_execute
                0x0000000008004dd0      0x270 build/obj/testqueues.o
 .text.queues1_execute
                0x0000000008005040      0x2b0 build/obj/testqueues.o
 .text.thread2  0x00000000080052f0       0x10 build/obj/testbmk.o
 .text.tmo      0x0000000008005300       0x10 build/obj/testbmk.o
 .text.bmk13_execute
                0x0000000008005310      0x100 build/obj/testbmk.o
 .text.bmk12_execute
                0x0000000008005410       0x70 build/obj/testbmk.o
 .text.bmk12_setup
                0x0000000008005480       0x10 build/obj/testbmk.o
 .text.thread3  0x0000000008005490       0x30 build/obj/testbmk.o
 .text.bmk11_execute
                0x00000000080054c0       0x70 build/obj/testbmk.o
 .text.bmk11_setup
                0x0000000008005530       0x10 build/obj/testbmk.o
 .text.bmk7_setup
                0x0000000008005540       0x10 build/obj/testbmk.o
 .text.bmk10_execute
                0x0000000008005550       0x80 build/obj/testbmk.o
 .text.bmk9_execute
                0x00000000080055d0       0xb0 build/obj/testbmk.o
 .text.bmk6_execute
                0x0000000008005680       0x70 build/obj/testbmk.o
 .text.bmk8_execute
                0x00000000080056f0       0xf0 build/obj/testbmk.o
 .text.thread8  0x00000000080057e0       0x40 build/obj/testbmk.o
 .text.bmk7_execute
                0x0000000008005820      0x110 build/obj/testbmk.o
 .text.bmk5_execute
                0x0000000008005930       0x80 build/obj/testbmk.o
 .text.bmk4_execute
                0x00000000080059b0       0xc0 build/obj/testbmk.o
 .text.msg_loop_test
                0x0000000008005a70       0x40 build/obj/testbmk.o
 .text.bmk3_execute
                0x0000000008005ab0       0xe0 build/obj/testbmk.o
 .text.bmk2_execute
                0x0000000008005b90       0x80 build/obj/testbmk.o
 .text.bmk1_execute
                0x0000000008005c10       0x80 build/obj/testbmk.o
 .text.thread1  0x0000000008005c90       0x20 build/obj/testbmk.o
 .text.thread4  0x0000000008005cb0       0x30 build/obj/testbmk.o
                0x0000000008005cb0                thread4
 .text.halInit  0x0000000008005ce0       0x40 build/obj/hal.o
                0x0000000008005ce0                halInit
 .text.halIsCounterWithin
                0x0000000008005d20       0x40 build/obj/hal.o
                0x0000000008005d20                halIsCounterWithin
 .text.halPolledDelay
                0x0000000008005d60       0x50 build/obj/hal.o
                0x0000000008005d60                halPolledDelay
 .text.macInit  0x0000000008005db0       0x10 build/obj/mac.o
                0x0000000008005db0                macInit
 .text.macObjectInit
                0x0000000008005dc0       0x30 build/obj/mac.o
                0x0000000008005dc0                macObjectInit
 .text.macStart
                0x0000000008005df0       0x20 build/obj/mac.o
                0x0000000008005df0                macStart
 .text.macWaitTransmitDescriptor
                0x0000000008005e10       0x60 build/obj/mac.o
                0x0000000008005e10                macWaitTransmitDescriptor
 .text.macReleaseTransmitDescriptor
                0x0000000008005e70       0x10 build/obj/mac.o
                0x0000000008005e70                macReleaseTransmitDescriptor
 .text.macWaitReceiveDescriptor
                0x0000000008005e80       0x60 build/obj/mac.o
                0x0000000008005e80                macWaitReceiveDescriptor
 .text.macReleaseReceiveDescriptor
                0x0000000008005ee0       0x10 build/obj/mac.o
                0x0000000008005ee0                macReleaseReceiveDescriptor
 .text.macPollLinkStatus
                0x0000000008005ef0       0x10 build/obj/mac.o
                0x0000000008005ef0                macPollLinkStatus
 .text.mmcsdGetCapacity
                0x0000000008005f00       0x50 build/obj/mmcsd.o
                0x0000000008005f00                mmcsdGetCapacity
 .text.sdcGetInfo
                0x0000000008005f50       0x20 build/obj/sdc.o
                0x0000000008005f50                sdcGetInfo
 .text.sdcSync  0x0000000008005f70       0x10 build/obj/sdc.o
                0x0000000008005f70                sdcSync
 .text.sdcConnect
                0x0000000008005f80      0x1d0 build/obj/sdc.o
                0x0000000008005f80                sdcConnect
 .text.sdcWrite
                0x0000000008006150       0x30 build/obj/sdc.o
                0x0000000008006150                sdcWrite
 .text.sdcRead  0x0000000008006180       0x30 build/obj/sdc.o
                0x0000000008006180                sdcRead
 .text._sdc_wait_for_transfer_state
                0x00000000080061b0       0x50 build/obj/sdc.o
                0x00000000080061b0                _sdc_wait_for_transfer_state
 .text.sdcDisconnect
                0x0000000008006200       0x50 build/obj/sdc.o
                0x0000000008006200                sdcDisconnect
 .text.sdcInit  0x0000000008006250       0x10 build/obj/sdc.o
                0x0000000008006250                sdcInit
 .text.sdcObjectInit
                0x0000000008006260       0x20 build/obj/sdc.o
                0x0000000008006260                sdcObjectInit
 .text.sdcStart
                0x0000000008006280       0x20 build/obj/sdc.o
                0x0000000008006280                sdcStart
 .text.readt    0x00000000080062a0       0x10 build/obj/serial.o
 .text.read     0x00000000080062b0       0x10 build/obj/serial.o
 .text.writet   0x00000000080062c0       0x10 build/obj/serial.o
 .text.write    0x00000000080062d0       0x10 build/obj/serial.o
 .text.gett     0x00000000080062e0       0x10 build/obj/serial.o
 .text.get      0x00000000080062f0       0x10 build/obj/serial.o
 .text.putt     0x0000000008006300       0x10 build/obj/serial.o
 .text.put      0x0000000008006310       0x10 build/obj/serial.o
 .text.sdInit   0x0000000008006320       0x10 build/obj/serial.o
                0x0000000008006320                sdInit
 .text.sdObjectInit
                0x0000000008006330       0x50 build/obj/serial.o
                0x0000000008006330                sdObjectInit
 .text.sdStart  0x0000000008006380       0x20 build/obj/serial.o
                0x0000000008006380                sdStart
 .text.sdIncomingDataI
                0x00000000080063a0       0x40 build/obj/serial.o
                0x00000000080063a0                sdIncomingDataI
 .text.inotify  0x00000000080063e0       0x70 build/obj/serial_usb.o
 .text.onotify  0x0000000008006450       0x60 build/obj/serial_usb.o
 .text.readt    0x00000000080064b0       0x10 build/obj/serial_usb.o
 .text.read     0x00000000080064c0       0x10 build/obj/serial_usb.o
 .text.writet   0x00000000080064d0       0x10 build/obj/serial_usb.o
 .text.write    0x00000000080064e0       0x10 build/obj/serial_usb.o
 .text.gett     0x00000000080064f0       0x10 build/obj/serial_usb.o
 .text.get      0x0000000008006500       0x10 build/obj/serial_usb.o
 .text.putt     0x0000000008006510       0x10 build/obj/serial_usb.o
 .text.put      0x0000000008006520       0x10 build/obj/serial_usb.o
 .text.sduInit  0x0000000008006530       0x10 build/obj/serial_usb.o
                0x0000000008006530                sduInit
 .text.sduObjectInit
                0x0000000008006540       0x60 build/obj/serial_usb.o
                0x0000000008006540                sduObjectInit
 .text.sduStart
                0x00000000080065a0       0x20 build/obj/serial_usb.o
                0x00000000080065a0                sduStart
 .text.sduConfigureHookI
                0x00000000080065c0       0x40 build/obj/serial_usb.o
                0x00000000080065c0                sduConfigureHookI
 .text.sduRequestsHook
                0x0000000008006600       0x40 build/obj/serial_usb.o
                0x0000000008006600                sduRequestsHook
 .text.sduDataTransmitted
                0x0000000008006640       0x70 build/obj/serial_usb.o
                0x0000000008006640                sduDataTransmitted
 .text.sduDataReceived
                0x00000000080066b0       0x60 build/obj/serial_usb.o
                0x00000000080066b0                sduDataReceived
 .text.sduInterruptTransmitted
                0x0000000008006710       0x10 build/obj/serial_usb.o
                0x0000000008006710                sduInterruptTransmitted
 .text.tm_start
                0x0000000008006720       0x10 build/obj/tm.o
 .text.tm_stop  0x0000000008006730       0x40 build/obj/tm.o
 .text.tmInit   0x0000000008006770       0x50 build/obj/tm.o
                0x0000000008006770                tmInit
 .text.usbInit  0x00000000080067c0       0x10 build/obj/usb.o
                0x00000000080067c0                usbInit
 .text.usbObjectInit
                0x00000000080067d0       0x10 build/obj/usb.o
                0x00000000080067d0                usbObjectInit
 .text.usbStart
                0x00000000080067e0       0x30 build/obj/usb.o
                0x00000000080067e0                usbStart
 .text.usbInitEndpointI
                0x0000000008006810       0x40 build/obj/usb.o
                0x0000000008006810                usbInitEndpointI
 .text.usbPrepareReceive
                0x0000000008006850       0x20 build/obj/usb.o
                0x0000000008006850                usbPrepareReceive
 .text.usbPrepareTransmit
                0x0000000008006870       0x20 build/obj/usb.o
                0x0000000008006870                usbPrepareTransmit
 .text.usbPrepareQueuedReceive
                0x0000000008006890       0x20 build/obj/usb.o
                0x0000000008006890                usbPrepareQueuedReceive
 .text.usbPrepareQueuedTransmit
                0x00000000080068b0       0x20 build/obj/usb.o
                0x00000000080068b0                usbPrepareQueuedTransmit
 .text.usbStartReceiveI
                0x00000000080068d0       0x30 build/obj/usb.o
                0x00000000080068d0                usbStartReceiveI
 .text.usbStartTransmitI
                0x0000000008006900       0x30 build/obj/usb.o
                0x0000000008006900                usbStartTransmitI
 .text._usb_reset
                0x0000000008006930       0x30 build/obj/usb.o
                0x0000000008006930                _usb_reset
 .text._usb_ep0setup
                0x0000000008006960      0x320 build/obj/usb.o
                0x0000000008006960                _usb_ep0setup
 .text._usb_ep0in
                0x0000000008006c80       0xb0 build/obj/usb.o
                0x0000000008006c80                _usb_ep0in
 .text._usb_ep0out
                0x0000000008006d30       0x80 build/obj/usb.o
                0x0000000008006d30                _usb_ep0out
 .text.Vector6C
                0x0000000008006db0       0x30 build/obj/stm32_dma.o
                0x0000000008006db0                Vector6C
 .text.Vector70
                0x0000000008006de0       0x30 build/obj/stm32_dma.o
                0x0000000008006de0                Vector70
 .text.Vector74
                0x0000000008006e10       0x30 build/obj/stm32_dma.o
                0x0000000008006e10                Vector74
 .text.Vector78
                0x0000000008006e40       0x30 build/obj/stm32_dma.o
                0x0000000008006e40                Vector78
 .text.Vector7C
                0x0000000008006e70       0x30 build/obj/stm32_dma.o
                0x0000000008006e70                Vector7C
 .text.Vector80
                0x0000000008006ea0       0x30 build/obj/stm32_dma.o
                0x0000000008006ea0                Vector80
 .text.Vector84
                0x0000000008006ed0       0x30 build/obj/stm32_dma.o
                0x0000000008006ed0                Vector84
 .text.VectorFC
                0x0000000008006f00       0x30 build/obj/stm32_dma.o
                0x0000000008006f00                VectorFC
 .text.Vector120
                0x0000000008006f30       0x30 build/obj/stm32_dma.o
                0x0000000008006f30                Vector120
 .text.Vector124
                0x0000000008006f60       0x30 build/obj/stm32_dma.o
                0x0000000008006f60                Vector124
 .text.Vector128
                0x0000000008006f90       0x30 build/obj/stm32_dma.o
                0x0000000008006f90                Vector128
 .text.Vector12C
                0x0000000008006fc0       0x30 build/obj/stm32_dma.o
                0x0000000008006fc0                Vector12C
 .text.Vector130
                0x0000000008006ff0       0x30 build/obj/stm32_dma.o
                0x0000000008006ff0                Vector130
 .text.Vector150
                0x0000000008007020       0x30 build/obj/stm32_dma.o
                0x0000000008007020                Vector150
 .text.Vector154
                0x0000000008007050       0x30 build/obj/stm32_dma.o
                0x0000000008007050                Vector154
 .text.Vector158
                0x0000000008007080       0x30 build/obj/stm32_dma.o
                0x0000000008007080                Vector158
 .text.dmaInit  0x00000000080070b0       0x50 build/obj/stm32_dma.o
                0x00000000080070b0                dmaInit
 .text.dmaStreamAllocate
                0x0000000008007100       0xb0 build/obj/stm32_dma.o
                0x0000000008007100                dmaStreamAllocate
 .text.hal_lld_init
                0x00000000080071b0       0xd0 build/obj/hal_lld.o
                0x00000000080071b0                hal_lld_init
 .text.stm32_clock_init
                0x0000000008007280      0x130 build/obj/hal_lld.o
                0x0000000008007280                stm32_clock_init
 .text.mac_lld_set_address
                0x00000000080073b0       0x50 build/obj/mac_lld.o
 .text.Vector134
                0x0000000008007400       0x60 build/obj/mac_lld.o
                0x0000000008007400                Vector134
 .text.mac_lld_init
                0x0000000008007460      0x1a0 build/obj/mac_lld.o
                0x0000000008007460                mac_lld_init
 .text.mac_lld_start
                0x0000000008007600      0x110 build/obj/mac_lld.o
                0x0000000008007600                mac_lld_start
 .text.mac_lld_get_transmit_descriptor
                0x0000000008007710       0x50 build/obj/mac_lld.o
                0x0000000008007710                mac_lld_get_transmit_descriptor
 .text.mac_lld_write_transmit_descriptor
                0x0000000008007760       0x30 build/obj/mac_lld.o
                0x0000000008007760                mac_lld_write_transmit_descriptor
 .text.mac_lld_release_transmit_descriptor
                0x0000000008007790       0x40 build/obj/mac_lld.o
                0x0000000008007790                mac_lld_release_transmit_descriptor
 .text.mac_lld_get_receive_descriptor
                0x00000000080077d0       0x70 build/obj/mac_lld.o
                0x00000000080077d0                mac_lld_get_receive_descriptor
 .text.mac_lld_read_receive_descriptor
                0x0000000008007840       0x30 build/obj/mac_lld.o
                0x0000000008007840                mac_lld_read_receive_descriptor
 .text.mac_lld_release_receive_descriptor
                0x0000000008007870       0x40 build/obj/mac_lld.o
                0x0000000008007870                mac_lld_release_receive_descriptor
 .text.mac_lld_poll_link_status
                0x00000000080078b0       0xd0 build/obj/mac_lld.o
                0x00000000080078b0                mac_lld_poll_link_status
 .text.sdc_lld_collect_errors
                0x0000000008007980       0xd0 build/obj/sdc_lld.o
 .text.Vector104
                0x0000000008007a50       0x40 build/obj/sdc_lld.o
                0x0000000008007a50                Vector104
 .text.sdc_lld_init
                0x0000000008007a90       0x20 build/obj/sdc_lld.o
                0x0000000008007a90                sdc_lld_init
 .text.sdc_lld_start
                0x0000000008007ab0       0x60 build/obj/sdc_lld.o
                0x0000000008007ab0                sdc_lld_start
 .text.sdc_lld_start_clk
                0x0000000008007b10       0x20 build/obj/sdc_lld.o
                0x0000000008007b10                sdc_lld_start_clk
 .text.sdc_lld_set_data_clk
                0x0000000008007b30       0x20 build/obj/sdc_lld.o
                0x0000000008007b30                sdc_lld_set_data_clk
 .text.sdc_lld_stop_clk
                0x0000000008007b50       0x10 build/obj/sdc_lld.o
                0x0000000008007b50                sdc_lld_stop_clk
 .text.sdc_lld_set_bus_mode
                0x0000000008007b60       0x30 build/obj/sdc_lld.o
                0x0000000008007b60                sdc_lld_set_bus_mode
 .text.sdc_lld_send_cmd_none
                0x0000000008007b90       0x30 build/obj/sdc_lld.o
                0x0000000008007b90                sdc_lld_send_cmd_none
 .text.sdc_lld_send_cmd_short
                0x0000000008007bc0       0x40 build/obj/sdc_lld.o
                0x0000000008007bc0                sdc_lld_send_cmd_short
 .text.sdc_lld_send_cmd_short_crc
                0x0000000008007c00       0x40 build/obj/sdc_lld.o
                0x0000000008007c00                sdc_lld_send_cmd_short_crc
 .text.sdc_lld_wait_transaction_end
                0x0000000008007c40       0xa0 build/obj/sdc_lld.o
 .text.sdc_lld_error_cleanup
                0x0000000008007ce0       0x70 build/obj/sdc_lld.o
 .text.sdc_lld_send_cmd_long_crc
                0x0000000008007d50       0x50 build/obj/sdc_lld.o
                0x0000000008007d50                sdc_lld_send_cmd_long_crc
 .text.sdc_lld_read_aligned
                0x0000000008007da0       0xc0 build/obj/sdc_lld.o
                0x0000000008007da0                sdc_lld_read_aligned
 .text.sdc_lld_write_aligned
                0x0000000008007e60       0xd0 build/obj/sdc_lld.o
                0x0000000008007e60                sdc_lld_write_aligned
 .text.sdc_lld_read
                0x0000000008007f30       0x60 build/obj/sdc_lld.o
                0x0000000008007f30                sdc_lld_read
 .text.sdc_lld_write
                0x0000000008007f90       0x60 build/obj/sdc_lld.o
                0x0000000008007f90                sdc_lld_write
 .text.sdc_lld_sync
                0x0000000008007ff0       0x10 build/obj/sdc_lld.o
                0x0000000008007ff0                sdc_lld_sync
 .text._pal_lld_init
                0x0000000008008000      0x1b0 build/obj/pal_lld.o
                0x0000000008008000                _pal_lld_init
 .text.otg_disable_ep
                0x00000000080081b0       0x90 build/obj/usb_lld.o
 .text.otg_epout_handler
                0x0000000008008240       0x60 build/obj/usb_lld.o
 .text.otg_txfifo_flush
                0x00000000080082a0       0x20 build/obj/usb_lld.o
 .text.usb_lld_pump
                0x00000000080082c0      0x390 build/obj/usb_lld.o
 .text.otg_epin_handler
                0x0000000008008650       0x80 build/obj/usb_lld.o
 .text.Vector14C
                0x00000000080086d0      0x100 build/obj/usb_lld.o
                0x00000000080086d0                Vector14C
 .text.usb_lld_init
                0x00000000080087d0       0x30 build/obj/usb_lld.o
                0x00000000080087d0                usb_lld_init
 .text.usb_lld_start
                0x0000000008008800       0xe0 build/obj/usb_lld.o
                0x0000000008008800                usb_lld_start
 .text.usb_lld_reset
                0x00000000080088e0       0xd0 build/obj/usb_lld.o
                0x00000000080088e0                usb_lld_reset
 .text.usb_lld_set_address
                0x00000000080089b0       0x20 build/obj/usb_lld.o
                0x00000000080089b0                usb_lld_set_address
 .text.usb_lld_init_endpoint
                0x00000000080089d0      0x140 build/obj/usb_lld.o
                0x00000000080089d0                usb_lld_init_endpoint
 .text.usb_lld_get_status_out
                0x0000000008008b10       0x20 build/obj/usb_lld.o
                0x0000000008008b10                usb_lld_get_status_out
 .text.usb_lld_get_status_in
                0x0000000008008b30       0x20 build/obj/usb_lld.o
                0x0000000008008b30                usb_lld_get_status_in
 .text.usb_lld_read_setup
                0x0000000008008b50       0x20 build/obj/usb_lld.o
                0x0000000008008b50                usb_lld_read_setup
 .text.usb_lld_prepare_receive
                0x0000000008008b70       0x30 build/obj/usb_lld.o
                0x0000000008008b70                usb_lld_prepare_receive
 .text.usb_lld_prepare_transmit
                0x0000000008008ba0       0x40 build/obj/usb_lld.o
                0x0000000008008ba0                usb_lld_prepare_transmit
 .text.usb_lld_start_out
                0x0000000008008be0       0x10 build/obj/usb_lld.o
                0x0000000008008be0                usb_lld_start_out
 .text.usb_lld_start_in
                0x0000000008008bf0       0x30 build/obj/usb_lld.o
                0x0000000008008bf0                usb_lld_start_in
 .text.usb_lld_stall_out
                0x0000000008008c20       0x10 build/obj/usb_lld.o
                0x0000000008008c20                usb_lld_stall_out
 .text.usb_lld_stall_in
                0x0000000008008c30       0x10 build/obj/usb_lld.o
                0x0000000008008c30                usb_lld_stall_in
 .text.usb_lld_clear_out
                0x0000000008008c40       0x10 build/obj/usb_lld.o
                0x0000000008008c40                usb_lld_clear_out
 .text.usb_lld_clear_in
                0x0000000008008c50       0x10 build/obj/usb_lld.o
                0x0000000008008c50                usb_lld_clear_in
 .text.notify6  0x0000000008008c60       0x20 build/obj/serial_lld.o
 .text.Vector15C
                0x0000000008008c80      0x130 build/obj/serial_lld.o
                0x0000000008008c80                Vector15C
 .text.sd_lld_init
                0x0000000008008db0       0x30 build/obj/serial_lld.o
                0x0000000008008db0                sd_lld_init
 .text.sd_lld_start
                0x0000000008008de0       0xa0 build/obj/serial_lld.o
                0x0000000008008de0                sd_lld_start
 .text.__early_init
                0x0000000008008e80       0x10 build/obj/board.o
                0x0000000008008e80                __early_init
 .text.sdc_lld_is_card_inserted
                0x0000000008008e90       0x30 build/obj/board.o
                0x0000000008008e90                sdc_lld_is_card_inserted
 .text.sdc_lld_is_write_protected
                0x0000000008008ec0       0x10 build/obj/board.o
                0x0000000008008ec0                sdc_lld_is_write_protected
 .text.boardInit
                0x0000000008008ed0       0x10 build/obj/board.o
                0x0000000008008ed0                boardInit
 .text.ethernetif_init
                0x0000000008008ee0       0x40 build/obj/lwipthread.o
 .text.low_level_output
                0x0000000008008f20       0x50 build/obj/lwipthread.o
 .text.lwip_thread
                0x0000000008008f70      0x1e0 build/obj/lwipthread.o
                0x0000000008008f70                lwip_thread
 .text.sys_init
                0x0000000008009150       0x10 build/obj/sys_arch.o
                0x0000000008009150                sys_init
 .text.sys_sem_new
                0x0000000008009160       0x50 build/obj/sys_arch.o
                0x0000000008009160                sys_sem_new
 .text.sys_sem_free
                0x00000000080091b0       0x30 build/obj/sys_arch.o
                0x00000000080091b0                sys_sem_free
 .text.sys_sem_signal
                0x00000000080091e0       0x10 build/obj/sys_arch.o
                0x00000000080091e0                sys_sem_signal
 .text.sys_arch_sem_wait
                0x00000000080091f0       0x40 build/obj/sys_arch.o
                0x00000000080091f0                sys_arch_sem_wait
 .text.sys_sem_valid
                0x0000000008009230       0x10 build/obj/sys_arch.o
                0x0000000008009230                sys_sem_valid
 .text.sys_sem_set_invalid
                0x0000000008009240       0x10 build/obj/sys_arch.o
                0x0000000008009240                sys_sem_set_invalid
 .text.sys_mbox_new
                0x0000000008009250       0x50 build/obj/sys_arch.o
                0x0000000008009250                sys_mbox_new
 .text.sys_mbox_free
                0x00000000080092a0       0x40 build/obj/sys_arch.o
                0x00000000080092a0                sys_mbox_free
 .text.sys_mbox_post
                0x00000000080092e0       0x10 build/obj/sys_arch.o
                0x00000000080092e0                sys_mbox_post
 .text.sys_mbox_trypost
                0x00000000080092f0       0x30 build/obj/sys_arch.o
                0x00000000080092f0                sys_mbox_trypost
 .text.sys_arch_mbox_fetch
                0x0000000008009320       0x40 build/obj/sys_arch.o
                0x0000000008009320                sys_arch_mbox_fetch
 .text.sys_arch_mbox_tryfetch
                0x0000000008009360       0x20 build/obj/sys_arch.o
                0x0000000008009360                sys_arch_mbox_tryfetch
 .text.sys_mbox_valid
                0x0000000008009380       0x10 build/obj/sys_arch.o
                0x0000000008009380                sys_mbox_valid
 .text.sys_mbox_set_invalid
                0x0000000008009390       0x10 build/obj/sys_arch.o
                0x0000000008009390                sys_mbox_set_invalid
 .text.sys_thread_new
                0x00000000080093a0       0x30 build/obj/sys_arch.o
                0x00000000080093a0                sys_thread_new
 .text.find_entry
                0x00000000080093d0      0x150 build/obj/etharp.o
 .text.etharp_send_ip
                0x0000000008009520       0x50 build/obj/etharp.o
 .text.etharp_tmr
                0x0000000008009570       0x60 build/obj/etharp.o
                0x0000000008009570                etharp_tmr
 .text.etharp_request
                0x00000000080095d0       0xd0 build/obj/etharp.o
                0x00000000080095d0                etharp_request
 .text.etharp_query
                0x00000000080096a0      0x150 build/obj/etharp.o
                0x00000000080096a0                etharp_query
 .text.etharp_output
                0x00000000080097f0       0xf0 build/obj/etharp.o
                0x00000000080097f0                etharp_output
 .text.ethernet_input
                0x00000000080098e0      0x200 build/obj/etharp.o
                0x00000000080098e0                ethernet_input
 .text.lwip_init
                0x0000000008009ae0       0x30 build/obj/init.o
                0x0000000008009ae0                lwip_init
 .text.mem_init
                0x0000000008009b10       0x70 build/obj/mem.o
                0x0000000008009b10                mem_init
 .text.mem_free
                0x0000000008009b80      0x140 build/obj/mem.o
                0x0000000008009b80                mem_free
 .text.mem_trim
                0x0000000008009cc0      0x140 build/obj/mem.o
                0x0000000008009cc0                mem_trim
 .text.mem_malloc
                0x0000000008009e00      0x180 build/obj/mem.o
                0x0000000008009e00                mem_malloc
 .text.memp_init
                0x0000000008009f80       0xa0 build/obj/memp.o
                0x0000000008009f80                memp_init
 .text.memp_malloc
                0x000000000800a020       0x70 build/obj/memp.o
                0x000000000800a020                memp_malloc
 .text.memp_free
                0x000000000800a090       0x40 build/obj/memp.o
                0x000000000800a090                memp_free
 .text.netif_init
                0x000000000800a0d0       0x10 build/obj/netif.o
                0x000000000800a0d0                netif_init
 .text.netif_set_ipaddr
                0x000000000800a0e0       0x60 build/obj/netif.o
                0x000000000800a0e0                netif_set_ipaddr
 .text.netif_set_addr
                0x000000000800a140       0x20 build/obj/netif.o
                0x000000000800a140                netif_set_addr
 .text.netif_add
                0x000000000800a160       0x70 build/obj/netif.o
                0x000000000800a160                netif_add
 .text.netif_set_default
                0x000000000800a1d0       0x10 build/obj/netif.o
                0x000000000800a1d0                netif_set_default
 .text.netif_set_up
                0x000000000800a1e0       0x20 build/obj/netif.o
                0x000000000800a1e0                netif_set_up
 .text.netif_set_link_up
                0x000000000800a200       0x30 build/obj/netif.o
                0x000000000800a200                netif_set_link_up
 .text.netif_set_link_down
                0x000000000800a230       0x20 build/obj/netif.o
                0x000000000800a230                netif_set_link_down
 .text.pbuf_free_ooseq
                0x000000000800a250       0x30 build/obj/pbuf.o
 .text.pbuf_pool_is_empty
                0x000000000800a280       0x30 build/obj/pbuf.o
 .text.pbuf_alloced_custom
                0x000000000800a2b0       0x70 build/obj/pbuf.o
                0x000000000800a2b0                pbuf_alloced_custom
 .text.pbuf_header
                0x000000000800a320       0x80 build/obj/pbuf.o
                0x000000000800a320                pbuf_header
 .text.pbuf_free
                0x000000000800a3a0       0x90 build/obj/pbuf.o
                0x000000000800a3a0                pbuf_free
 .text.pbuf_realloc
                0x000000000800a430       0xb0 build/obj/pbuf.o
                0x000000000800a430                pbuf_realloc
 .text.pbuf_alloc
                0x000000000800a4e0      0x190 build/obj/pbuf.o
                0x000000000800a4e0                pbuf_alloc
 .text.pbuf_clen
                0x000000000800a670       0x20 build/obj/pbuf.o
                0x000000000800a670                pbuf_clen
 .text.pbuf_ref
                0x000000000800a690       0x10 build/obj/pbuf.o
                0x000000000800a690                pbuf_ref
 .text.pbuf_cat
                0x000000000800a6a0       0x50 build/obj/pbuf.o
                0x000000000800a6a0                pbuf_cat
 .text.pbuf_copy
                0x000000000800a6f0       0xd0 build/obj/pbuf.o
                0x000000000800a6f0                pbuf_copy
 .text.pbuf_copy_partial
                0x000000000800a7c0       0x80 build/obj/pbuf.o
                0x000000000800a7c0                pbuf_copy_partial
 .text.raw_input
                0x000000000800a840       0x80 build/obj/raw.o
                0x000000000800a840                raw_input
 .text.raw_bind
                0x000000000800a8c0       0x10 build/obj/raw.o
                0x000000000800a8c0                raw_bind
 .text.raw_recv
                0x000000000800a8d0       0x10 build/obj/raw.o
                0x000000000800a8d0                raw_recv
 .text.raw_remove
                0x000000000800a8e0       0x40 build/obj/raw.o
                0x000000000800a8e0                raw_remove
 .text.raw_new  0x000000000800a920       0x30 build/obj/raw.o
                0x000000000800a920                raw_new
 .text.stats_init
                0x000000000800a950       0x10 build/obj/stats.o
                0x000000000800a950                stats_init
 .text.tcp_accept_null
                0x000000000800a960       0x10 build/obj/tcp.o
 .text.tcp_new_port
                0x000000000800a970       0x50 build/obj/tcp.o
 .text.tcp_bind
                0x000000000800a9c0       0x80 build/obj/tcp.o
                0x000000000800a9c0                tcp_bind
 .text.tcp_listen_with_backlog
                0x000000000800aa40       0xb0 build/obj/tcp.o
                0x000000000800aa40                tcp_listen_with_backlog
 .text.tcp_update_rcv_ann_wnd
                0x000000000800aaf0       0x50 build/obj/tcp.o
                0x000000000800aaf0                tcp_update_rcv_ann_wnd
 .text.tcp_recved
                0x000000000800ab40       0x50 build/obj/tcp.o
                0x000000000800ab40                tcp_recved
 .text.tcp_seg_free
                0x000000000800ab90       0x20 build/obj/tcp.o
                0x000000000800ab90                tcp_seg_free
 .text.tcp_segs_free
                0x000000000800abb0       0x20 build/obj/tcp.o
                0x000000000800abb0                tcp_segs_free
 .text.tcp_seg_copy
                0x000000000800abd0       0x30 build/obj/tcp.o
                0x000000000800abd0                tcp_seg_copy
 .text.tcp_arg  0x000000000800ac00       0x10 build/obj/tcp.o
                0x000000000800ac00                tcp_arg
 .text.tcp_recv
                0x000000000800ac10       0x10 build/obj/tcp.o
                0x000000000800ac10                tcp_recv
 .text.tcp_sent
                0x000000000800ac20       0x10 build/obj/tcp.o
                0x000000000800ac20                tcp_sent
 .text.tcp_err  0x000000000800ac30       0x10 build/obj/tcp.o
                0x000000000800ac30                tcp_err
 .text.tcp_accept
                0x000000000800ac40       0x10 build/obj/tcp.o
                0x000000000800ac40                tcp_accept
 .text.tcp_poll
                0x000000000800ac50       0x10 build/obj/tcp.o
                0x000000000800ac50                tcp_poll
 .text.tcp_pcb_purge
                0x000000000800ac60       0x50 build/obj/tcp.o
                0x000000000800ac60                tcp_pcb_purge
 .text.tcp_slowtmr
                0x000000000800acb0      0x370 build/obj/tcp.o
                0x000000000800acb0                tcp_slowtmr
 .text.tcp_pcb_remove
                0x000000000800b020       0x90 build/obj/tcp.o
                0x000000000800b020                tcp_pcb_remove
 .text.tcp_abandon
                0x000000000800b0b0       0xb0 build/obj/tcp.o
                0x000000000800b0b0                tcp_abandon
 .text.tcp_abort
                0x000000000800b160       0x10 build/obj/tcp.o
                0x000000000800b160                tcp_abort
 .text.tcp_alloc
                0x000000000800b170      0x140 build/obj/tcp.o
                0x000000000800b170                tcp_alloc
 .text.tcp_new  0x000000000800b2b0       0x10 build/obj/tcp.o
                0x000000000800b2b0                tcp_new
 .text.tcp_close_shutdown
                0x000000000800b2c0      0x150 build/obj/tcp.o
 .text.tcp_shutdown
                0x000000000800b410       0x60 build/obj/tcp.o
                0x000000000800b410                tcp_shutdown
 .text.tcp_close
                0x000000000800b470       0x20 build/obj/tcp.o
                0x000000000800b470                tcp_close
 .text.tcp_recv_null
                0x000000000800b490       0x30 build/obj/tcp.o
                0x000000000800b490                tcp_recv_null
 .text.tcp_fasttmr
                0x000000000800b4c0       0x80 build/obj/tcp.o
                0x000000000800b4c0                tcp_fasttmr
 .text.tcp_tmr  0x000000000800b540       0x30 build/obj/tcp.o
                0x000000000800b540                tcp_tmr
 .text.tcp_eff_send_mss
                0x000000000800b570       0x20 build/obj/tcp.o
                0x000000000800b570                tcp_eff_send_mss
 .text.tcp_parseopt
                0x000000000800b590       0x90 build/obj/tcp_in.o
 .text.tcp_oos_insert_segment
                0x000000000800b620       0xb0 build/obj/tcp_in.o
 .text.tcp_receive
                0x000000000800b6d0      0x990 build/obj/tcp_in.o
 .text.tcp_input
                0x000000000800c060      0xb90 build/obj/tcp_in.o
                0x000000000800c060                tcp_input
 .text.tcp_pbuf_prealloc
                0x000000000800cbf0       0x70 build/obj/tcp_out.o
 .text.tcp_create_segment
                0x000000000800cc60       0xc0 build/obj/tcp_out.o
 .text.tcp_output_alloc_header.constprop.0
                0x000000000800cd20       0x70 build/obj/tcp_out.o
 .text.tcp_write
                0x000000000800cd90      0x480 build/obj/tcp_out.o
                0x000000000800cd90                tcp_write
 .text.tcp_enqueue_flags
                0x000000000800d210      0x150 build/obj/tcp_out.o
                0x000000000800d210                tcp_enqueue_flags
 .text.tcp_send_fin
                0x000000000800d360       0x40 build/obj/tcp_out.o
                0x000000000800d360                tcp_send_fin
 .text.tcp_send_empty_ack
                0x000000000800d3a0       0x70 build/obj/tcp_out.o
                0x000000000800d3a0                tcp_send_empty_ack
 .text.tcp_output
                0x000000000800d410      0x310 build/obj/tcp_out.o
                0x000000000800d410                tcp_output
 .text.tcp_rst  0x000000000800d720       0xc0 build/obj/tcp_out.o
                0x000000000800d720                tcp_rst
 .text.tcp_rexmit_rto
                0x000000000800d7e0       0x30 build/obj/tcp_out.o
                0x000000000800d7e0                tcp_rexmit_rto
 .text.tcp_rexmit
                0x000000000800d810       0x50 build/obj/tcp_out.o
                0x000000000800d810                tcp_rexmit
 .text.tcp_rexmit_fast
                0x000000000800d860       0x60 build/obj/tcp_out.o
                0x000000000800d860                tcp_rexmit_fast
 .text.tcp_keepalive
                0x000000000800d8c0       0x70 build/obj/tcp_out.o
                0x000000000800d8c0                tcp_keepalive
 .text.tcp_zero_window_probe
                0x000000000800d930       0xe0 build/obj/tcp_out.o
                0x000000000800d930                tcp_zero_window_probe
 .text.udp_input
                0x000000000800da10      0x250 build/obj/udp.o
                0x000000000800da10                udp_input
 .text.udp_bind
                0x000000000800dc60       0xb0 build/obj/udp.o
                0x000000000800dc60                udp_bind
 .text.udp_recv
                0x000000000800dd10       0x10 build/obj/udp.o
                0x000000000800dd10                udp_recv
 .text.udp_remove
                0x000000000800dd20       0x40 build/obj/udp.o
                0x000000000800dd20                udp_remove
 .text.udp_new  0x000000000800dd60       0x20 build/obj/udp.o
                0x000000000800dd60                udp_new
 .text.icmp_send_response
                0x000000000800dd80       0xb0 build/obj/icmp.o
 .text.icmp_input
                0x000000000800de30      0x1e0 build/obj/icmp.o
                0x000000000800de30                icmp_input
 .text.icmp_dest_unreach
                0x000000000800e010       0x10 build/obj/icmp.o
                0x000000000800e010                icmp_dest_unreach
 .text.icmp_time_exceeded
                0x000000000800e020       0x10 build/obj/icmp.o
                0x000000000800e020                icmp_time_exceeded
 .text.lwip_standard_chksum
                0x000000000800e030       0x80 build/obj/inet_chksum.o
 .text.inet_chksum_pseudo
                0x000000000800e0b0       0x90 build/obj/inet_chksum.o
                0x000000000800e0b0                inet_chksum_pseudo
 .text.inet_chksum
                0x000000000800e140       0x10 build/obj/inet_chksum.o
                0x000000000800e140                inet_chksum
 .text.inet_chksum_pbuf
                0x000000000800e150       0x60 build/obj/inet_chksum.o
                0x000000000800e150                inet_chksum_pbuf
 .text.ip_route
                0x000000000800e1b0       0x50 build/obj/ip.o
                0x000000000800e1b0                ip_route
 .text.ip_input
                0x000000000800e200      0x210 build/obj/ip.o
                0x000000000800e200                ip_input
 .text.ip_output_if
                0x000000000800e410      0x130 build/obj/ip.o
                0x000000000800e410                ip_output_if
 .text.ip_output
                0x000000000800e540       0x60 build/obj/ip.o
                0x000000000800e540                ip_output
 .text.ip4_addr_isbroadcast
                0x000000000800e5a0       0x30 build/obj/ip_addr.o
                0x000000000800e5a0                ip4_addr_isbroadcast
 .text.ip_reass_dequeue_datagram
                0x000000000800e5d0       0x40 build/obj/ip_frag.o
 .text.ip_reass_free_complete_datagram
                0x000000000800e610       0xc0 build/obj/ip_frag.o
 .text.ip_reass_remove_oldest_datagram
                0x000000000800e6d0       0xa0 build/obj/ip_frag.o
 .text.ipfrag_free_pbuf_custom
                0x000000000800e770       0x20 build/obj/ip_frag.o
 .text.ip_reass_tmr
                0x000000000800e790       0x30 build/obj/ip_frag.o
                0x000000000800e790                ip_reass_tmr
 .text.ip_reass
                0x000000000800e7c0      0x390 build/obj/ip_frag.o
                0x000000000800e7c0                ip_reass
 .text.ip_frag  0x000000000800eb50      0x1e0 build/obj/ip_frag.o
                0x000000000800eb50                ip_frag
 .text.lwip_htons
                0x000000000800ed30       0x10 build/obj/def.o
                0x000000000800ed30                lwip_htons
 .text.lwip_ntohs
                0x000000000800ed40       0x10 build/obj/def.o
                0x000000000800ed40                lwip_ntohs
 .text.lwip_htonl
                0x000000000800ed50       0x10 build/obj/def.o
                0x000000000800ed50                lwip_htonl
 .text.lwip_ntohl
                0x000000000800ed60       0x10 build/obj/def.o
                0x000000000800ed60                lwip_ntohl
 .text.sys_timeout
                0x000000000800ed70       0x60 build/obj/timers.o
                0x000000000800ed70                sys_timeout
 .text.sys_timeouts_init
                0x000000000800edd0       0x30 build/obj/timers.o
                0x000000000800edd0                sys_timeouts_init
 .text.arp_timer
                0x000000000800ee00       0x20 build/obj/timers.o
 .text.ip_reass_timer
                0x000000000800ee20       0x20 build/obj/timers.o
 .text.tcp_timer_needed
                0x000000000800ee40       0x40 build/obj/timers.o
                0x000000000800ee40                tcp_timer_needed
 .text.tcpip_tcp_timer
                0x000000000800ee80       0x40 build/obj/timers.o
 .text.sys_untimeout
                0x000000000800eec0       0x50 build/obj/timers.o
                0x000000000800eec0                sys_untimeout
 .text.sys_timeouts_mbox_fetch
                0x000000000800ef10       0x70 build/obj/timers.o
                0x000000000800ef10                sys_timeouts_mbox_fetch
 .text.netconn_recv_data
                0x000000000800ef80       0xe0 build/obj/api_lib.o
 .text.netconn_new_with_proto_and_callback
                0x000000000800f060       0x80 build/obj/api_lib.o
                0x000000000800f060                netconn_new_with_proto_and_callback
 .text.netconn_delete
                0x000000000800f0e0       0x30 build/obj/api_lib.o
                0x000000000800f0e0                netconn_delete
 .text.netconn_bind
                0x000000000800f110       0x40 build/obj/api_lib.o
                0x000000000800f110                netconn_bind
 .text.netconn_listen_with_backlog
                0x000000000800f150       0x30 build/obj/api_lib.o
                0x000000000800f150                netconn_listen_with_backlog
 .text.netconn_accept
                0x000000000800f180       0x80 build/obj/api_lib.o
                0x000000000800f180                netconn_accept
 .text.netconn_recv
                0x000000000800f200       0xa0 build/obj/api_lib.o
                0x000000000800f200                netconn_recv
 .text.netconn_write
                0x000000000800f2a0       0x50 build/obj/api_lib.o
                0x000000000800f2a0                netconn_write
 .text.netconn_close
                0x000000000800f2f0       0x40 build/obj/api_lib.o
                0x000000000800f2f0                netconn_close
 .text.setup_tcp
                0x000000000800f330       0x50 build/obj/api_msg.o
 .text.do_close_internal
                0x000000000800f380      0x150 build/obj/api_msg.o
 .text.err_tcp  0x000000000800f4d0       0xc0 build/obj/api_msg.o
 .text.recv_tcp
                0x000000000800f590       0x90 build/obj/api_msg.o
 .text.do_writemore
                0x000000000800f620      0x150 build/obj/api_msg.o
 .text.poll_tcp
                0x000000000800f770       0x60 build/obj/api_msg.o
 .text.recv_udp
                0x000000000800f7d0       0xa0 build/obj/api_msg.o
 .text.recv_raw
                0x000000000800f870       0x90 build/obj/api_msg.o
 .text.sent_tcp
                0x000000000800f900       0x60 build/obj/api_msg.o
 .text.do_newconn
                0x000000000800f960       0xa0 build/obj/api_msg.o
                0x000000000800f960                do_newconn
 .text.netconn_alloc
                0x000000000800fa00       0xa0 build/obj/api_msg.o
                0x000000000800fa00                netconn_alloc
 .text.netconn_free
                0x000000000800faa0       0x50 build/obj/api_msg.o
                0x000000000800faa0                netconn_free
 .text.netconn_drain
                0x000000000800faf0       0xc0 build/obj/api_msg.o
 .text.accept_function
                0x000000000800fbb0       0x80 build/obj/api_msg.o
 .text.do_delconn
                0x000000000800fc30       0xf0 build/obj/api_msg.o
                0x000000000800fc30                do_delconn
 .text.do_bind  0x000000000800fd20       0x60 build/obj/api_msg.o
                0x000000000800fd20                do_bind
 .text.do_listen
                0x000000000800fd80       0xc0 build/obj/api_msg.o
                0x000000000800fd80                do_listen
 .text.do_recv  0x000000000800fe40       0x50 build/obj/api_msg.o
                0x000000000800fe40                do_recv
 .text.do_write
                0x000000000800fe90       0x80 build/obj/api_msg.o
                0x000000000800fe90                do_write
 .text.do_close
                0x000000000800ff10       0x80 build/obj/api_msg.o
                0x000000000800ff10                do_close
 .text.netbuf_delete
                0x000000000800ff90       0x30 build/obj/netbuf.o
                0x000000000800ff90                netbuf_delete
 .text.netbuf_data
                0x000000000800ffc0       0x30 build/obj/netbuf.o
                0x000000000800ffc0                netbuf_data
 .text.lwip_socket_init
                0x000000000800fff0       0x10 build/obj/sockets.o
                0x000000000800fff0                lwip_socket_init
 .text.tcpip_thread
                0x0000000008010000       0xb0 build/obj/tcpip.o
 .text.tcpip_input
                0x00000000080100b0       0x50 build/obj/tcpip.o
                0x00000000080100b0                tcpip_input
 .text.tcpip_callback_with_block
                0x0000000008010100       0x60 build/obj/tcpip.o
                0x0000000008010100                tcpip_callback_with_block
 .text.tcpip_apimsg
                0x0000000008010160       0x40 build/obj/tcpip.o
                0x0000000008010160                tcpip_apimsg
 .text.tcpip_init
                0x00000000080101a0       0x50 build/obj/tcpip.o
                0x00000000080101a0                tcpip_init
 .text.disk_initialize
                0x00000000080101f0       0x30 build/obj/fatfs_diskio.o
                0x00000000080101f0                disk_initialize
 .text.disk_status
                0x0000000008010220       0x30 build/obj/fatfs_diskio.o
                0x0000000008010220                disk_status
 .text.disk_read
                0x0000000008010250       0x30 build/obj/fatfs_diskio.o
                0x0000000008010250                disk_read
 .text.disk_write
                0x0000000008010280       0x30 build/obj/fatfs_diskio.o
                0x0000000008010280                disk_write
 .text.ff_cre_syncobj
                0x00000000080102b0       0x20 build/obj/fatfs_syscall.o
                0x00000000080102b0                ff_cre_syncobj
 .text.ff_del_syncobj
                0x00000000080102d0       0x10 build/obj/fatfs_syscall.o
                0x00000000080102d0                ff_del_syncobj
 .text.ff_req_grant
                0x00000000080102e0       0x20 build/obj/fatfs_syscall.o
                0x00000000080102e0                ff_req_grant
 .text.ff_rel_grant
                0x0000000008010300       0x10 build/obj/fatfs_syscall.o
                0x0000000008010300                ff_rel_grant
 .text.ff_memalloc
                0x0000000008010310       0x10 build/obj/fatfs_syscall.o
                0x0000000008010310                ff_memalloc
 .text.ff_memfree
                0x0000000008010320       0x10 build/obj/fatfs_syscall.o
                0x0000000008010320                ff_memfree
 .text.get_fileinfo
                0x0000000008010330      0x110 build/obj/ff.o
 .text.move_window
                0x0000000008010440       0x80 build/obj/ff.o
 .text.check_fs
                0x00000000080104c0       0x90 build/obj/ff.o
 .text.validate
                0x0000000008010550       0x40 build/obj/ff.o
 .text.unlock_fs
                0x0000000008010590       0x20 build/obj/ff.o
 .text.chk_mounted
                0x00000000080105b0      0x320 build/obj/ff.o
 .text.get_fat  0x00000000080108d0       0xd0 build/obj/ff.o
                0x00000000080108d0                get_fat
 .text.dir_sdi  0x00000000080109a0       0xa0 build/obj/ff.o
 .text.put_fat  0x0000000008010a40      0x110 build/obj/ff.o
                0x0000000008010a40                put_fat
 .text.create_chain
                0x0000000008010b50       0xb0 build/obj/ff.o
 .text.dir_next
                0x0000000008010c00      0x130 build/obj/ff.o
 .text.dir_find.part.5
                0x0000000008010d30      0x180 build/obj/ff.o
 .text.follow_path
                0x0000000008010eb0      0x330 build/obj/ff.o
 .text.dir_read
                0x00000000080111e0      0x130 build/obj/ff.o
 .text.f_mount  0x0000000008011310       0x40 build/obj/ff.o
                0x0000000008011310                f_mount
 .text.f_opendir
                0x0000000008011350       0xa0 build/obj/ff.o
                0x0000000008011350                f_opendir
 .text.f_readdir
                0x00000000080113f0       0x90 build/obj/ff.o
                0x00000000080113f0                f_readdir
 .text.f_getfree
                0x0000000008011480      0x120 build/obj/ff.o
                0x0000000008011480                f_getfree
 .text.ff_convert
                0x00000000080115a0       0x40 build/obj/ccsbcs.o
                0x00000000080115a0                ff_convert
 .text.ff_wtoupper
                0x00000000080115e0       0x30 build/obj/ccsbcs.o
                0x00000000080115e0                ff_wtoupper
 .text.tmrcb    0x0000000008011610       0x30 build/obj/evtimer.o
 .text.evtStart
                0x0000000008011640       0x30 build/obj/evtimer.o
                0x0000000008011640                evtStart
 .text.long_to_string_with_divisor.constprop.0
                0x0000000008011670       0x50 build/obj/chprintf.o
 .text.chprintf
                0x00000000080116c0      0x2d0 build/obj/chprintf.o
                0x00000000080116c0                chprintf
 .text.cmd_systime
                0x0000000008011990       0x30 build/obj/shell.o
 .text.cmd_info
                0x00000000080119c0       0xc0 build/obj/shell.o
 .text._strtok.constprop.2
                0x0000000008011a80       0x40 build/obj/shell.o
 .text.shellInit
                0x0000000008011ac0       0x10 build/obj/shell.o
                0x0000000008011ac0                shellInit
 .text.shellCreate
                0x0000000008011ad0       0x20 build/obj/shell.o
                0x0000000008011ad0                shellCreate
 .text.shellGetLine
                0x0000000008011af0       0xa0 build/obj/shell.o
                0x0000000008011af0                shellGetLine
 .text.shell_thread
                0x0000000008011b90      0x1c0 build/obj/shell.o
 .text.http_server
                0x0000000008011d50       0xd0 build/obj/web.o
                0x0000000008011d50                http_server
 .text.get_descriptor
                0x0000000008011e20       0x40 build/obj/main.o
 .text.Thread1  0x0000000008011e60       0x40 build/obj/main.o
 .text.RemoveHandler
                0x0000000008011ea0       0x20 build/obj/main.o
 .text.tmrfunc  0x0000000008011ec0       0x70 build/obj/main.o
 .text.cmd_test
                0x0000000008011f30       0x60 build/obj/main.o
 .text.cmd_threads
                0x0000000008011f90       0x70 build/obj/main.o
 .text.cmd_mem  0x0000000008012000       0x60 build/obj/main.o
 .text.InsertHandler
                0x0000000008012060       0x40 build/obj/main.o
 .text.usb_event
                0x00000000080120a0       0x40 build/obj/main.o
 .text.scan_files.constprop.5
                0x00000000080120e0       0x90 build/obj/main.o
 .text.cmd_tree
                0x0000000008012170       0x80 build/obj/main.o
 *(.rodata)
 .rodata        0x00000000080121f0        0x4 build/obj/shell.o
 *fill*         0x00000000080121f4        0xc 00
 .rodata        0x0000000008012200      0x101 /opt/psas/x-tools/stm32f407/arm-psas-eabi/bin/../lib/gcc/arm-psas-eabi/4.7.2/../../../../arm-psas-eabi/lib/libc.a(lib_a-ctype_.o)
                0x0000000008012200                _ctype_
 *(.rodata.*)
 *fill*         0x0000000008012301        0xf 00
 .rodata.str1.4
                0x0000000008012310        0x5 build/obj/chsys.o
                                          0x8 (size before relaxing)
 *fill*         0x0000000008012315        0xb 00
 .rodata.ch_debug
                0x0000000008012320       0x18 build/obj/chregistry.o
                0x0000000008012320                ch_debug
 *fill*         0x0000000008012338        0x8 00
 .rodata.wa     0x0000000008012340       0x14 build/obj/test.o
                0x0000000008012340                wa
 *fill*         0x0000000008012354        0xc 00
 .rodata.str1.4
                0x0000000008012360      0x1b7 build/obj/test.o
                                        0x1c8 (size before relaxing)
 *fill*         0x0000000008012517        0x9 00
 .rodata.patterns
                0x0000000008012520       0x30 build/obj/test.o
 .rodata.testthd1
                0x0000000008012550       0x10 build/obj/testthd.o
                0x0000000008012550                testthd1
 .rodata.testthd2
                0x0000000008012560       0x10 build/obj/testthd.o
                0x0000000008012560                testthd2
 .rodata.testthd3
                0x0000000008012570       0x10 build/obj/testthd.o
                0x0000000008012570                testthd3
 .rodata.testthd4
                0x0000000008012580       0x10 build/obj/testthd.o
                0x0000000008012580                testthd4
 .rodata.patternthd
                0x0000000008012590       0x14 build/obj/testthd.o
                0x0000000008012590                patternthd
 *fill*         0x00000000080125a4        0xc 00
 .rodata.str1.4
                0x00000000080125b0       0x77 build/obj/testthd.o
                                         0x80 (size before relaxing)
 *fill*         0x0000000008012627        0x9 00
 .rodata.testsem1
                0x0000000008012630       0x10 build/obj/testsem.o
                0x0000000008012630                testsem1
 .rodata.testsem2
                0x0000000008012640       0x10 build/obj/testsem.o
                0x0000000008012640                testsem2
 .rodata.testsem3
                0x0000000008012650       0x10 build/obj/testsem.o
                0x0000000008012650                testsem3
 .rodata.testsem4
                0x0000000008012660       0x10 build/obj/testsem.o
                0x0000000008012660                testsem4
 .rodata.patternsem
                0x0000000008012670       0x14 build/obj/testsem.o
                0x0000000008012670                patternsem
 *fill*         0x0000000008012684        0xc 00
 .rodata.str1.4
                0x0000000008012690       0x6e build/obj/testsem.o
                                         0x8c (size before relaxing)
 *fill*         0x00000000080126fe        0x2 00
 .rodata.testmtx5
                0x0000000008012700       0x10 build/obj/testmtx.o
                0x0000000008012700                testmtx5
 .rodata.testmtx6
                0x0000000008012710       0x10 build/obj/testmtx.o
                0x0000000008012710                testmtx6
 .rodata.testmtx7
                0x0000000008012720       0x10 build/obj/testmtx.o
                0x0000000008012720                testmtx7
 .rodata.testmtx8
                0x0000000008012730       0x10 build/obj/testmtx.o
                0x0000000008012730                testmtx8
 .rodata.str1.4
                0x0000000008012740       0xed build/obj/testmtx.o
                                        0x10c (size before relaxing)
 *fill*         0x000000000801282d        0x3 00
 .rodata.patternmtx
                0x0000000008012830       0x24 build/obj/testmtx.o
                0x0000000008012830                patternmtx
 *fill*         0x0000000008012854        0xc 00
 .rodata.testmtx1
                0x0000000008012860       0x10 build/obj/testmtx.o
                0x0000000008012860                testmtx1
 .rodata.testmtx2
                0x0000000008012870       0x10 build/obj/testmtx.o
                0x0000000008012870                testmtx2
 .rodata.testmtx3
                0x0000000008012880       0x10 build/obj/testmtx.o
                0x0000000008012880                testmtx3
 .rodata.testmtx4
                0x0000000008012890       0x10 build/obj/testmtx.o
                0x0000000008012890                testmtx4
 .rodata.testmsg1
                0x00000000080128a0       0x10 build/obj/testmsg.o
                0x00000000080128a0                testmsg1
 .rodata.str1.4
                0x00000000080128b0        0xf build/obj/testmsg.o
                                         0x14 (size before relaxing)
 *fill*         0x00000000080128bf        0x1 00
 .rodata.patternmsg
                0x00000000080128c0        0x8 build/obj/testmsg.o
                0x00000000080128c0                patternmsg
 *fill*         0x00000000080128c8        0x8 00
 .rodata.patternmbox
                0x00000000080128d0        0x8 build/obj/testmbox.o
                0x00000000080128d0                patternmbox
 *fill*         0x00000000080128d8        0x8 00
 .rodata.str1.4
                0x00000000080128e0       0x20 build/obj/testmbox.o
                                         0x28 (size before relaxing)
 .rodata.testmbox1
                0x0000000008012900       0x10 build/obj/testmbox.o
                0x0000000008012900                testmbox1
 .rodata.patternevt
                0x0000000008012910       0x10 build/obj/testevt.o
                0x0000000008012910                patternevt
 .rodata.testevt2
                0x0000000008012920       0x10 build/obj/testevt.o
                0x0000000008012920                testevt2
 .rodata.str1.4
                0x0000000008012930       0x52 build/obj/testevt.o
                                         0x5c (size before relaxing)
 *fill*         0x0000000008012982        0xe 00
 .rodata.testevt1
                0x0000000008012990       0x10 build/obj/testevt.o
                0x0000000008012990                testevt1
 .rodata.evhndl
                0x00000000080129a0        0xc build/obj/testevt.o
 *fill*         0x00000000080129ac        0x4 00
 .rodata.testevt3
                0x00000000080129b0       0x10 build/obj/testevt.o
                0x00000000080129b0                testevt3
 .rodata.patternheap
                0x00000000080129c0        0x8 build/obj/testheap.o
                0x00000000080129c0                patternheap
 *fill*         0x00000000080129c8        0x8 00
 .rodata.str1.4
                0x00000000080129d0       0x28 build/obj/testheap.o
 *fill*         0x00000000080129f8        0x8 00
 .rodata.testheap1
                0x0000000008012a00       0x10 build/obj/testheap.o
                0x0000000008012a00                testheap1
 .rodata.str1.4
                0x0000000008012a10       0x1c build/obj/testpools.o
 *fill*         0x0000000008012a2c        0x4 00
 .rodata.patternpools
                0x0000000008012a30        0x8 build/obj/testpools.o
                0x0000000008012a30                patternpools
 *fill*         0x0000000008012a38        0x8 00
 .rodata.testpools1
                0x0000000008012a40       0x10 build/obj/testpools.o
                0x0000000008012a40                testpools1
 .rodata.testdyn1
                0x0000000008012a50       0x10 build/obj/testdyn.o
                0x0000000008012a50                testdyn1
 .rodata.testdyn2
                0x0000000008012a60       0x10 build/obj/testdyn.o
                0x0000000008012a60                testdyn2
 .rodata.testdyn3
                0x0000000008012a70       0x10 build/obj/testdyn.o
                0x0000000008012a70                testdyn3
 .rodata.str1.4
                0x0000000008012a80       0x8d build/obj/testdyn.o
                                         0xa4 (size before relaxing)
 *fill*         0x0000000008012b0d        0x3 00
 .rodata.patterndyn
                0x0000000008012b10       0x10 build/obj/testdyn.o
                0x0000000008012b10                patterndyn
 .rodata.testqueues1
                0x0000000008012b20       0x10 build/obj/testqueues.o
                0x0000000008012b20                testqueues1
 .rodata.testqueues2
                0x0000000008012b30       0x10 build/obj/testqueues.o
                0x0000000008012b30                testqueues2
 .rodata.str1.4
                0x0000000008012b40       0x2d build/obj/testqueues.o
                                         0x38 (size before relaxing)
 *fill*         0x0000000008012b6d        0x3 00
 .rodata.patternqueues
                0x0000000008012b70        0xc build/obj/testqueues.o
                0x0000000008012b70                patternqueues
 *fill*         0x0000000008012b7c        0x4 00
 .rodata.testbmk8
                0x0000000008012b80       0x10 build/obj/testbmk.o
                0x0000000008012b80                testbmk8
 .rodata.patternbmk
                0x0000000008012b90       0x38 build/obj/testbmk.o
                0x0000000008012b90                patternbmk
 *fill*         0x0000000008012bc8        0x8 00
 .rodata.testbmk3
                0x0000000008012bd0       0x10 build/obj/testbmk.o
                0x0000000008012bd0                testbmk3
 .rodata.testbmk10
                0x0000000008012be0       0x10 build/obj/testbmk.o
                0x0000000008012be0                testbmk10
 .rodata.testbmk4
                0x0000000008012bf0       0x10 build/obj/testbmk.o
                0x0000000008012bf0                testbmk4
 .rodata.testbmk12
                0x0000000008012c00       0x10 build/obj/testbmk.o
                0x0000000008012c00                testbmk12
 .rodata.testbmk2
                0x0000000008012c10       0x10 build/obj/testbmk.o
                0x0000000008012c10                testbmk2
 .rodata.str1.4
                0x0000000008012c20      0x2c7 build/obj/testbmk.o
                                        0x2c8 (size before relaxing)
 *fill*         0x0000000008012ee7        0x9 00
 .rodata.testbmk9
                0x0000000008012ef0       0x10 build/obj/testbmk.o
                0x0000000008012ef0                testbmk9
 .rodata.testbmk1
                0x0000000008012f00       0x10 build/obj/testbmk.o
                0x0000000008012f00                testbmk1
 .rodata.testbmk11
                0x0000000008012f10       0x10 build/obj/testbmk.o
                0x0000000008012f10                testbmk11
 .rodata.testbmk13
                0x0000000008012f20       0x10 build/obj/testbmk.o
                0x0000000008012f20                testbmk13
 .rodata.testbmk5
                0x0000000008012f30       0x10 build/obj/testbmk.o
                0x0000000008012f30                testbmk5
 .rodata.testbmk6
                0x0000000008012f40       0x10 build/obj/testbmk.o
                0x0000000008012f40                testbmk6
 .rodata.testbmk7
                0x0000000008012f50       0x10 build/obj/testbmk.o
                0x0000000008012f50                testbmk7
 .rodata.sdc_vmt
                0x0000000008012f60       0x20 build/obj/sdc.o
 .rodata.vmt    0x0000000008012f80       0x20 build/obj/serial.o
 .rodata.vmt    0x0000000008012fa0       0x20 build/obj/serial_usb.o
 .rodata.zero_status
                0x0000000008012fc0        0x4 build/obj/usb.o
 *fill*         0x0000000008012fc4        0xc 00
 .rodata.active_status
                0x0000000008012fd0        0x4 build/obj/usb.o
 *fill*         0x0000000008012fd4        0xc 00
 .rodata.halted_status
                0x0000000008012fe0        0x4 build/obj/usb.o
 *fill*         0x0000000008012fe4        0xc 00
 .rodata._stm32_dma_streams
                0x0000000008012ff0       0xc0 build/obj/stm32_dma.o
                0x0000000008012ff0                _stm32_dma_streams
 .rodata.default_mac_address
                0x00000000080130b0        0x8 build/obj/mac_lld.o
 *fill*         0x00000000080130b8        0x8 00
 .rodata.fsparams
                0x00000000080130c0        0xc build/obj/usb_lld.o
 *fill*         0x00000000080130cc        0x4 00
 .rodata.str1.4
                0x00000000080130d0        0xd build/obj/usb_lld.o
                                         0x10 (size before relaxing)
 *fill*         0x00000000080130dd        0x3 00
 .rodata.ep0config
                0x00000000080130e0       0x24 build/obj/usb_lld.o
 *fill*         0x0000000008013104        0xc 00
 .rodata.default_config
                0x0000000008013110        0xc build/obj/serial_lld.o
 *fill*         0x000000000801311c        0x4 00
 .rodata.pal_default_config
                0x0000000008013120       0xfc build/obj/board.o
                0x0000000008013120                pal_default_config
 *fill*         0x000000000801321c        0x4 00
 .rodata.mac_config.7837
                0x0000000008013220        0x4 build/obj/lwipthread.o
 *fill*         0x0000000008013224        0xc 00
 .rodata.str1.4
                0x0000000008013230        0xb build/obj/lwipthread.o
                                          0xc (size before relaxing)
 *fill*         0x000000000801323b        0x5 00
 .rodata.ethbroadcast
                0x0000000008013240        0x8 build/obj/etharp.o
                0x0000000008013240                ethbroadcast
 *fill*         0x0000000008013248        0x8 00
 .rodata.ethzero
                0x0000000008013250        0x8 build/obj/etharp.o
                0x0000000008013250                ethzero
 *fill*         0x0000000008013258        0x8 00
 .rodata.memp_num
                0x0000000008013260       0x1c build/obj/memp.o
 *fill*         0x000000000801327c        0x4 00
 .rodata.memp_sizes
                0x0000000008013280       0x1c build/obj/memp.o
 *fill*         0x000000000801329c        0x4 00
 .rodata.tcp_pcb_lists
                0x00000000080132a0       0x10 build/obj/tcp.o
                0x00000000080132a0                tcp_pcb_lists
 .rodata.tcp_backoff
                0x00000000080132b0       0x10 build/obj/tcp.o
                0x00000000080132b0                tcp_backoff
 .rodata.tcp_persist_backoff
                0x00000000080132c0        0x8 build/obj/tcp.o
                0x00000000080132c0                tcp_persist_backoff
 *fill*         0x00000000080132c8        0x8 00
 .rodata.str1.4
                0x00000000080132d0        0xd build/obj/tcpip.o
                                         0x10 (size before relaxing)
 *fill*         0x00000000080132dd        0x3 00
 .rodata.str1.4
                0x00000000080132e0       0x13 build/obj/ff.o
                                         0x14 (size before relaxing)
 *fill*         0x00000000080132f3        0xd 00
 .rodata.LfnOfs
                0x0000000008013300       0x10 build/obj/ff.o
 .rodata.excvt.5231
                0x0000000008013310       0x80 build/obj/ff.o
 .rodata.tbl_lower.4974
                0x0000000008013390      0x1e0 build/obj/ccsbcs.o
 .rodata.Tbl    0x0000000008013570      0x100 build/obj/ccsbcs.o
 .rodata.tbl_upper.4975
                0x0000000008013670      0x1e0 build/obj/ccsbcs.o
 .rodata.str1.4
                0x0000000008013850        0x7 build/obj/chprintf.o
                                          0x8 (size before relaxing)
 *fill*         0x0000000008013857        0x9 00
 .rodata.str1.4
                0x0000000008013860      0x169 build/obj/shell.o
                                        0x1ec (size before relaxing)
 *fill*         0x00000000080139c9        0x7 00
 .rodata.http_index_html
                0x00000000080139d0       0x88 build/obj/web.o
 *fill*         0x0000000008013a58        0x8 00
 .rodata.str1.4
                0x0000000008013a60        0x5 build/obj/web.o
                                          0x8 (size before relaxing)
 *fill*         0x0000000008013a65        0xb 00
 .rodata.http_html_hdr
                0x0000000008013a70       0x30 build/obj/web.o
 .rodata.vcom_configuration_descriptor_data
                0x0000000008013aa0       0x44 build/obj/main.o
 *fill*         0x0000000008013ae4        0xc 00
 .rodata.usbcfg
                0x0000000008013af0       0x10 build/obj/main.o
 .rodata.ep2config
                0x0000000008013b00       0x24 build/obj/main.o
 *fill*         0x0000000008013b24        0xc 00
 .rodata.vcom_string0
                0x0000000008013b30        0x4 build/obj/main.o
 *fill*         0x0000000008013b34        0xc 00
 .rodata.vcom_string3
                0x0000000008013b40        0x8 build/obj/main.o
 *fill*         0x0000000008013b48        0x8 00
 .rodata.vcom_string1
                0x0000000008013b50       0x28 build/obj/main.o
 *fill*         0x0000000008013b78        0x8 00
 .rodata.vcom_strings
                0x0000000008013b80       0x20 build/obj/main.o
 .rodata.vcom_device_descriptor
                0x0000000008013ba0        0x8 build/obj/main.o
 *fill*         0x0000000008013ba8        0x8 00
 .rodata.vcom_string2
                0x0000000008013bb0       0x38 build/obj/main.o
 *fill*         0x0000000008013be8        0x8 00
 .rodata.states.8500
                0x0000000008013bf0       0x3c build/obj/main.o
 *fill*         0x0000000008013c2c        0x4 00
 .rodata.serusbcfg
                0x0000000008013c30        0x4 build/obj/main.o
 *fill*         0x0000000008013c34        0xc 00
 .rodata.evhndl.8536
                0x0000000008013c40        0x8 build/obj/main.o
 *fill*         0x0000000008013c48        0x8 00
 .rodata.vcom_device_descriptor_data
                0x0000000008013c50       0x14 build/obj/main.o
 *fill*         0x0000000008013c64        0xc 00
 .rodata.vcom_configuration_descriptor
                0x0000000008013c70        0x8 build/obj/main.o
 *fill*         0x0000000008013c78        0x8 00
 .rodata.commands
                0x0000000008013c80       0x28 build/obj/main.o
 *fill*         0x0000000008013ca8        0x8 00
 .rodata.shell_cfg1
                0x0000000008013cb0        0x8 build/obj/main.o
 *fill*         0x0000000008013cb8        0x8 00
 .rodata.ep1config
                0x0000000008013cc0       0x24 build/obj/main.o
 *fill*         0x0000000008013ce4        0xc 00
 .rodata.str1.4
                0x0000000008013cf0      0x224 build/obj/main.o
                                        0x22c (size before relaxing)
 *(.glue_7t)
 .glue_7t       0x0000000000000000        0x0 linker stubs
 *(.glue_7)
 .glue_7        0x0000000000000000        0x0 linker stubs
 *(.gcc*)

.vfp11_veneer   0x0000000008013f14        0x0
 .vfp11_veneer  0x0000000000000000        0x0 linker stubs

.v4_bx          0x0000000008013f14        0x0
 .v4_bx         0x0000000000000000        0x0 linker stubs

.iplt           0x0000000008013f14        0x0
 .iplt          0x0000000000000000        0x0 build/obj/crt0.o

.rel.dyn        0x0000000008013f14        0x0
 .rel.iplt      0x0000000000000000        0x0 build/obj/crt0.o

.ARM.extab
 *(.ARM.extab* .gnu.linkonce.armextab.*)

.ARM.exidx      0x0000000008013f14        0x0
                0x0000000008013f14                PROVIDE (__exidx_start, .)
 *(.ARM.exidx* .gnu.linkonce.armexidx.*)
                0x0000000008013f14                PROVIDE (__exidx_end, .)

.eh_frame_hdr
 *(.eh_frame_hdr)

.eh_frame
 *(.eh_frame)

.textalign      0x0000000008013f14        0x4
                0x0000000008013f18                . = ALIGN (0x8)
 *fill*         0x0000000008013f14        0x4 00
                0x0000000008013f18                _etext = .
                0x0000000008013f18                _textdata = _etext

.stacks         0x0000000020000000      0x800
                0x0000000020000000                . = ALIGN (0x8)
                0x0000000020000000                __main_stack_base__ = .
                0x0000000020000400                . = (. + __main_stack_size__)
 *fill*         0x0000000020000000      0x400 00
                0x0000000020000400                . = ALIGN (0x8)
                0x0000000020000400                __main_stack_end__ = .
                0x0000000020000400                __process_stack_base__ = .
                0x0000000020000400                __main_thread_stack_base__ = .
                0x0000000020000800                . = (. + __process_stack_size__)
 *fill*         0x0000000020000400      0x400 00
                0x0000000020000800                . = ALIGN (0x8)
                0x0000000020000800                __process_stack_end__ = .
                0x0000000020000800                __main_thread_stack_end__ = .

.data           0x0000000020000800       0xe4 load address 0x0000000008013f18
                0x0000000020000800                . = ALIGN (0x4)
                0x0000000020000800                PROVIDE (_data, .)
 *(.data)
 .data          0x0000000020000800        0x4 /opt/psas/x-tools/stm32f407/arm-psas-eabi/bin/../lib/gcc/arm-psas-eabi/4.7.2/../../../../arm-psas-eabi/lib/libc.a(lib_a-ctype_.o)
                0x0000000020000800                __ctype_ptr__
                0x0000000020000804                . = ALIGN (0x4)
 *(.data.*)
 .data.sem1     0x0000000020000804        0xc build/obj/testsem.o
 .data.m1       0x0000000020000810       0x10 build/obj/testmtx.o
 .data.m2       0x0000000020000820       0x10 build/obj/testmtx.o
 .data.c1       0x0000000020000830        0x8 build/obj/testmtx.o
 .data.mb1      0x0000000020000838       0x28 build/obj/testmbox.o
 .data.es1      0x0000000020000860        0x4 build/obj/testevt.o
 .data.es2      0x0000000020000864        0x4 build/obj/testevt.o
 .data.mp1      0x0000000020000868        0xc build/obj/testpools.o
 .data.oq       0x0000000020000874       0x24 build/obj/testqueues.o
 .data.iq       0x0000000020000898       0x24 build/obj/testqueues.o
 .data.linecoding
                0x00000000200008bc        0x8 build/obj/serial_usb.o
 .data.iss.6043
                0x00000000200008c4        0x4 build/obj/tcp.o
 .data.port.5907
                0x00000000200008c8        0x2 build/obj/tcp.o
 *fill*         0x00000000200008ca        0x2 00
 .data.local_commands
                0x00000000200008cc       0x18 build/obj/shell.o
                0x00000000200008e4                . = ALIGN (0x4)
 *(.ramtext)
                0x00000000200008e4                . = ALIGN (0x4)
                0x00000000200008e4                PROVIDE (_edata, .)

.igot.plt       0x00000000200008e4        0x0 load address 0x0000000008013ffc
 .igot.plt      0x0000000000000000        0x0 build/obj/crt0.o

.bss            0x00000000200008e8     0x7df8 load address 0x0000000008014000
                0x00000000200008e8                . = ALIGN (0x4)
                0x00000000200008e8                PROVIDE (_bss_start, .)
 *(.bss)
                0x00000000200008e8                . = ALIGN (0x4)
 *(.bss.*)
 .bss.mainthread.4771
                0x00000000200008e8       0x48 build/obj/chsys.o
 .bss._idle_thread_wa
                0x0000000020000930       0xc0 build/obj/chsys.o
                0x0000000020000930                _idle_thread_wa
 .bss.vtlist    0x00000000200009f0       0x10 build/obj/chvt.o
                0x00000000200009f0                vtlist
 .bss.rlist     0x0000000020000a00       0x1c build/obj/chschd.o
                0x0000000020000a00                rlist
 .bss.endmem    0x0000000020000a1c        0x4 build/obj/chmemcore.o
 .bss.nextmem   0x0000000020000a20        0x4 build/obj/chmemcore.o
 *fill*         0x0000000020000a24        0x4 00
 .bss.default_heap
                0x0000000020000a28       0x20 build/obj/chheap.o
 .bss.test      0x0000000020000a48      0x5f0 build/obj/test.o
                0x0000000020000a48                test
 .bss.failpoint
                0x0000000020001038        0x4 build/obj/test.o
 .bss.local_fail
                0x000000002000103c        0x4 build/obj/test.o
 .bss.test_timer_done
                0x0000000020001040        0x4 build/obj/test.o
                0x0000000020001040                test_timer_done
 .bss.tokp      0x0000000020001044        0x4 build/obj/test.o
 .bss.global_fail
                0x0000000020001048        0x4 build/obj/test.o
 .bss.vt        0x000000002000104c       0x14 build/obj/test.o
 .bss.threads   0x0000000020001060       0x14 build/obj/test.o
                0x0000000020001060                threads
 .bss.chp       0x0000000020001074        0x4 build/obj/test.o
 .bss.tokens_buffer
                0x0000000020001078       0x10 build/obj/test.o
 .bss.test_heap
                0x0000000020001088       0x20 build/obj/testheap.o
 .bss.mp1       0x00000000200010a8        0xc build/obj/testdyn.o
 *fill*         0x00000000200010b4        0x4 00
 .bss.heap1     0x00000000200010b8       0x20 build/obj/testdyn.o
 .bss.iq.4919   0x00000000200010d8       0x24 build/obj/testbmk.o
 .bss.mtx1      0x00000000200010fc       0x10 build/obj/testbmk.o
 .bss.ib.4918   0x000000002000110c       0x10 build/obj/testbmk.o
 .bss.sem1      0x000000002000111c        0xc build/obj/testbmk.o
 .bss.vt2.4932  0x0000000020001128       0x14 build/obj/testbmk.o
 .bss.vt1.4931  0x000000002000113c       0x14 build/obj/testbmk.o
 .bss.measurement_offset
                0x0000000020001150        0x4 build/obj/tm.o
 .bss.dma_isr_redir
                0x0000000020001154       0x80 build/obj/stm32_dma.o
 .bss.dma_streams_mask
                0x00000000200011d4        0x4 build/obj/stm32_dma.o
 .bss.ETHD1     0x00000000200011d8       0x34 build/obj/mac_lld.o
                0x00000000200011d8                ETHD1
 .bss.rb        0x000000002000120c     0x17d0 build/obj/mac_lld.o
 .bss.rd        0x00000000200029dc       0x40 build/obj/mac_lld.o
 .bss.tb        0x0000000020002a1c      0xbe8 build/obj/mac_lld.o
 .bss.td        0x0000000020003604       0x20 build/obj/mac_lld.o
 .bss.SDCD1     0x0000000020003624       0x48 build/obj/sdc_lld.o
                0x0000000020003624                SDCD1
 .bss.u         0x000000002000366c      0x200 build/obj/sdc_lld.o
 *fill*         0x000000002000386c        0x4 00
 .bss.USBD1     0x0000000020003870      0x188 build/obj/usb_lld.o
                0x0000000020003870                USBD1
 .bss.ep0_state
                0x00000000200039f8       0x10 build/obj/usb_lld.o
 .bss.ep0setup_buffer
                0x0000000020003a08        0x8 build/obj/usb_lld.o
 .bss.SD6       0x0000000020003a10       0x78 build/obj/serial_lld.o
                0x0000000020003a10                SD6
 .bss.last_status.7065
                0x0000000020003a88        0x4 build/obj/board.o
 .bss.thisif.7836
                0x0000000020003a8c       0x30 build/obj/lwipthread.o
 *fill*         0x0000000020003abc        0x4 00
 .bss.wa_lwip_thread
                0x0000000020003ac0      0x2b0 build/obj/lwipthread.o
                0x0000000020003ac0                wa_lwip_thread
 .bss.etharp_cached_entry
                0x0000000020003d70        0x1 build/obj/etharp.o
 *fill*         0x0000000020003d71        0x3 00
 .bss.arp_table
                0x0000000020003d74       0xa0 build/obj/etharp.o
 .bss.ram_heap  0x0000000020003e14      0x654 build/obj/mem.o
                0x0000000020003e14                ram_heap
 .bss.lfree     0x0000000020004468        0x4 build/obj/mem.o
 .bss.ram_end   0x000000002000446c        0x4 build/obj/mem.o
 .bss.mem_mutex
                0x0000000020004470        0x4 build/obj/mem.o
 .bss.ram       0x0000000020004474        0x4 build/obj/mem.o
 .bss.memp_memory
                0x0000000020004478     0x3170 build/obj/memp.o
 .bss.memp_tab  0x00000000200075e8       0x38 build/obj/memp.o
 .bss.netif_list
                0x0000000020007620        0x4 build/obj/netif.o
                0x0000000020007620                netif_list
 .bss.netif_default
                0x0000000020007624        0x4 build/obj/netif.o
                0x0000000020007624                netif_default
 .bss.netifnum.5518
                0x0000000020007628        0x1 build/obj/netif.o
 .bss.pbuf_free_ooseq_queued
                0x0000000020007629        0x1 build/obj/pbuf.o
 *fill*         0x000000002000762a        0x2 00
 .bss.raw_pcbs  0x000000002000762c        0x4 build/obj/raw.o
 .bss.lwip_stats
                0x0000000020007630      0x150 build/obj/stats.o
                0x0000000020007630                lwip_stats
 .bss.tcp_ticks
                0x0000000020007780        0x4 build/obj/tcp.o
                0x0000000020007780                tcp_ticks
 .bss.tcp_timer
                0x0000000020007784        0x1 build/obj/tcp.o
 *fill*         0x0000000020007785        0x3 00
 .bss.tcp_listen_pcbs
                0x0000000020007788        0x4 build/obj/tcp.o
                0x0000000020007788                tcp_listen_pcbs
 .bss.tcp_active_pcbs
                0x000000002000778c        0x4 build/obj/tcp.o
                0x000000002000778c                tcp_active_pcbs
 .bss.tcp_tw_pcbs
                0x0000000020007790        0x4 build/obj/tcp.o
                0x0000000020007790                tcp_tw_pcbs
 .bss.tcp_tmp_pcb
                0x0000000020007794        0x4 build/obj/tcp.o
                0x0000000020007794                tcp_tmp_pcb
 .bss.tcp_bound_pcbs
                0x0000000020007798        0x4 build/obj/tcp.o
                0x0000000020007798                tcp_bound_pcbs
 .bss.tcphdr    0x000000002000779c        0x4 build/obj/tcp_in.o
 .bss.seqno     0x00000000200077a0        0x4 build/obj/tcp_in.o
 .bss.tcplen    0x00000000200077a4        0x2 build/obj/tcp_in.o
 *fill*         0x00000000200077a6        0x2 00
 .bss.ackno     0x00000000200077a8        0x4 build/obj/tcp_in.o
 .bss.flags     0x00000000200077ac        0x1 build/obj/tcp_in.o
 .bss.recv_flags
                0x00000000200077ad        0x1 build/obj/tcp_in.o
 *fill*         0x00000000200077ae        0x2 00
 .bss.recv_data
                0x00000000200077b0        0x4 build/obj/tcp_in.o
 .bss.iphdr     0x00000000200077b4        0x4 build/obj/tcp_in.o
 .bss.inseg     0x00000000200077b8       0x10 build/obj/tcp_in.o
 .bss.tcp_input_pcb
                0x00000000200077c8        0x4 build/obj/tcp_in.o
                0x00000000200077c8                tcp_input_pcb
 .bss.udp_pcbs  0x00000000200077cc        0x4 build/obj/udp.o
                0x00000000200077cc                udp_pcbs
 .bss.current_header
                0x00000000200077d0        0x4 build/obj/ip.o
                0x00000000200077d0                current_header
 .bss.ip_id     0x00000000200077d4        0x2 build/obj/ip.o
 *fill*         0x00000000200077d6        0x2 00
 .bss.current_iphdr_src
                0x00000000200077d8        0x4 build/obj/ip.o
                0x00000000200077d8                current_iphdr_src
 .bss.current_iphdr_dest
                0x00000000200077dc        0x4 build/obj/ip.o
                0x00000000200077dc                current_iphdr_dest
 .bss.current_netif
                0x00000000200077e0        0x4 build/obj/ip.o
                0x00000000200077e0                current_netif
 .bss.reassdatagrams
                0x00000000200077e4        0x4 build/obj/ip_frag.o
 .bss.ip_reass_pbufcount
                0x00000000200077e8        0x2 build/obj/ip_frag.o
 *fill*         0x00000000200077ea        0x2 00
 .bss.tcpip_tcp_timer_active
                0x00000000200077ec        0x4 build/obj/timers.o
 .bss.next_timeout
                0x00000000200077f0        0x4 build/obj/timers.o
 .bss.mbox      0x00000000200077f4        0x4 build/obj/tcpip.o
 .bss.tcpip_init_done_arg
                0x00000000200077f8        0x4 build/obj/tcpip.o
 .bss.tcpip_init_done
                0x00000000200077fc        0x4 build/obj/tcpip.o
 .bss.ff_sem    0x0000000020007800        0xc build/obj/fatfs_syscall.o
 .bss.Fsid      0x000000002000780c        0x2 build/obj/ff.o
 *fill*         0x000000002000780e        0x2 00
 .bss.FatFs     0x0000000020007810        0x4 build/obj/ff.o
 .bss.shell_terminated
                0x0000000020007814        0x4 build/obj/shell.o
                0x0000000020007814                shell_terminated
 .bss.wa_http_server
                0x0000000020007818      0x4b0 build/obj/web.o
                0x0000000020007818                wa_http_server
 .bss.fs_ready  0x0000000020007cc8        0x4 build/obj/main.o
 .bss.shelltp.8535
                0x0000000020007ccc        0x4 build/obj/main.o
 .bss.removed_event
                0x0000000020007cd0        0x4 build/obj/main.o
 .bss.SDU1      0x0000000020007cd4      0x258 build/obj/main.o
 .bss.inserted_event
                0x0000000020007f2c        0x4 build/obj/main.o
 .bss.ep2instate
                0x0000000020007f30       0x10 build/obj/main.o
 .bss.fbuff     0x0000000020007f40      0x400 build/obj/main.o
 .bss.tmr       0x0000000020008340       0x14 build/obj/main.o
 .bss.ep1outstate
                0x0000000020008354       0x10 build/obj/main.o
 .bss.cnt       0x0000000020008364        0x4 build/obj/main.o
 .bss.SDC_FS    0x0000000020008368      0x234 build/obj/main.o
 .bss.ep1instate
                0x000000002000859c       0x10 build/obj/main.o
 *fill*         0x00000000200085ac        0x4 00
 .bss.waThread1
                0x00000000200085b0      0x130 build/obj/main.o
                0x00000000200086e0                . = ALIGN (0x4)
 *(COMMON)
                0x00000000200086e0                . = ALIGN (0x4)
                0x00000000200086e0                PROVIDE (_bss_end, .)
                0x00000000200086e0                PROVIDE (end, .)
                0x00000000200086e0                _end = .
                0x00000000200086e0                __heap_base__ = _end
                0x000000002001c000                __heap_end__ = __ram_end__
OUTPUT(build/ch.elf elf32-littlearm)

.debug_info     0x0000000000000000    0x4fa7e
 .debug_info    0x0000000000000000      0x2b3 build/obj/crt0.o
 .debug_info    0x00000000000002b3      0x1e9 build/obj/vectors.o
 .debug_info    0x000000000000049c       0x93 build/obj/chcore.o
 .debug_info    0x000000000000052f      0x895 build/obj/chcore_v7m.o
 .debug_info    0x0000000000000dc4      0x44e build/obj/nvic.o
 .debug_info    0x0000000000001212      0x8a1 build/obj/chsys.o
 .debug_info    0x0000000000001ab3      0x273 build/obj/chvt.o
 .debug_info    0x0000000000001d26      0x9e0 build/obj/chschd.o
 .debug_info    0x0000000000002706      0xc43 build/obj/chthreads.o
 .debug_info    0x0000000000003349      0x8fc build/obj/chdynamic.o
 .debug_info    0x0000000000003c45      0x67d build/obj/chregistry.o
 .debug_info    0x00000000000042c2      0xb53 build/obj/chsem.o
 .debug_info    0x0000000000004e15      0xa44 build/obj/chmtx.o
 .debug_info    0x0000000000005859      0x9fa build/obj/chcond.o
 .debug_info    0x0000000000006253      0xe2d build/obj/chevents.o
 .debug_info    0x0000000000007080      0x6c3 build/obj/chmsg.o
 .debug_info    0x0000000000007743      0xad0 build/obj/chmboxes.o
 .debug_info    0x0000000000008213      0xc76 build/obj/chqueues.o
 .debug_info    0x0000000000008e89      0x228 build/obj/chmemcore.o
 .debug_info    0x00000000000090b1      0x732 build/obj/chheap.o
 .debug_info    0x00000000000097e3      0x423 build/obj/chmempools.o
 .debug_info    0x0000000000009c06     0x1392 build/obj/test.o
 .debug_info    0x000000000000af98      0xd35 build/obj/testthd.o
 .debug_info    0x000000000000bccd     0x1167 build/obj/testsem.o
 .debug_info    0x000000000000ce34     0x1e06 build/obj/testmtx.o
 .debug_info    0x000000000000ec3a      0x75e build/obj/testmsg.o
 .debug_info    0x000000000000f398     0x1306 build/obj/testmbox.o
 .debug_info    0x000000000001069e     0x1178 build/obj/testevt.o
 .debug_info    0x0000000000011816      0xc47 build/obj/testheap.o
 .debug_info    0x000000000001245d      0x47d build/obj/testpools.o
 .debug_info    0x00000000000128da     0x101b build/obj/testdyn.o
 .debug_info    0x00000000000138f5     0x18e4 build/obj/testqueues.o
 .debug_info    0x00000000000151d9     0x1f17 build/obj/testbmk.o
 .debug_info    0x00000000000170f0      0x426 build/obj/hal.o
 .debug_info    0x0000000000017516      0xcb8 build/obj/mac.o
 .debug_info    0x00000000000181ce      0x2b8 build/obj/mmcsd.o
 .debug_info    0x0000000000018486     0x121c build/obj/sdc.o
 .debug_info    0x00000000000196a2     0x10b6 build/obj/serial.o
 .debug_info    0x000000000001a758     0x1f3a build/obj/serial_usb.o
 .debug_info    0x000000000001c692      0x2ec build/obj/tm.o
 .debug_info    0x000000000001c97e     0x1ee3 build/obj/usb.o
 .debug_info    0x000000000001e861      0xb1f build/obj/stm32_dma.o
 .debug_info    0x000000000001f380      0x6da build/obj/hal_lld.o
 .debug_info    0x000000000001fa5a     0x1adb build/obj/mac_lld.o
 .debug_info    0x0000000000021535     0x1ab9 build/obj/sdc_lld.o
 .debug_info    0x0000000000022fee      0x744 build/obj/pal_lld.o
 .debug_info    0x0000000000023732     0x297c build/obj/usb_lld.o
 .debug_info    0x00000000000260ae     0x12b0 build/obj/serial_lld.o
 .debug_info    0x000000000002735e      0xa3e build/obj/board.o
 .debug_info    0x0000000000027d9c     0x15bc build/obj/lwipthread.o
 .debug_info    0x0000000000029358     0x106b build/obj/sys_arch.o
 .debug_info    0x000000000002a3c3     0x1301 build/obj/etharp.o
 .debug_info    0x000000000002b6c4      0x121 build/obj/init.o
 .debug_info    0x000000000002b7e5      0xbe6 build/obj/mem.o
 .debug_info    0x000000000002c3cb      0x504 build/obj/memp.o
 .debug_info    0x000000000002c8cf      0xe9f build/obj/netif.o
 .debug_info    0x000000000002d76e     0x1500 build/obj/pbuf.o
 .debug_info    0x000000000002ec6e      0xa42 build/obj/raw.o
 .debug_info    0x000000000002f6b0      0x34b build/obj/stats.o
 .debug_info    0x000000000002f9fb     0x1fe8 build/obj/tcp.o
 .debug_info    0x00000000000319e3     0x1cb2 build/obj/tcp_in.o
 .debug_info    0x0000000000033695     0x1e0f build/obj/tcp_out.o
 .debug_info    0x00000000000354a4     0x110d build/obj/udp.o
 .debug_info    0x00000000000365b1      0xc94 build/obj/icmp.o
 .debug_info    0x0000000000037245      0x4be build/obj/inet_chksum.o
 .debug_info    0x0000000000037703      0xd2e build/obj/ip.o
 .debug_info    0x0000000000038431      0x65a build/obj/ip_addr.o
 .debug_info    0x0000000000038a8b     0x1395 build/obj/ip_frag.o
 .debug_info    0x0000000000039e20      0x18b build/obj/def.o
 .debug_info    0x0000000000039fab      0xf94 build/obj/timers.o
 .debug_info    0x000000000003af3f     0x1bb5 build/obj/api_lib.o
 .debug_info    0x000000000003caf4     0x29f1 build/obj/api_msg.o
 .debug_info    0x000000000003f4e5      0x602 build/obj/netbuf.o
 .debug_info    0x000000000003fae7     0x2e25 build/obj/sockets.o
 .debug_info    0x000000000004290c     0x13fc build/obj/tcpip.o
 .debug_info    0x0000000000043d08      0xa2b build/obj/fatfs_diskio.o
 .debug_info    0x0000000000044733      0x774 build/obj/fatfs_syscall.o
 .debug_info    0x0000000000044ea7     0x4269 build/obj/ff.o
 .debug_info    0x0000000000049110      0x184 build/obj/ccsbcs.o
 .debug_info    0x0000000000049294      0x706 build/obj/evtimer.o
 .debug_info    0x000000000004999a      0x4ad build/obj/chprintf.o
 .debug_info    0x0000000000049e47     0x1429 build/obj/shell.o
 .debug_info    0x000000000004b270      0xc3e build/obj/web.o
 .debug_info    0x000000000004beae     0x34f9 build/obj/main.o
 .debug_info    0x000000000004f3a7      0x103 /opt/psas/x-tools/stm32f407/arm-psas-eabi/bin/../lib/gcc/arm-psas-eabi/4.7.2/../../../../arm-psas-eabi/lib/libc.a(lib_a-memcpy-stub.o)
 .debug_info    0x000000000004f4aa       0xd3 /opt/psas/x-tools/stm32f407/arm-psas-eabi/bin/../lib/gcc/arm-psas-eabi/4.7.2/../../../../arm-psas-eabi/lib/libc.a(lib_a-memset.o)
 .debug_info    0x000000000004f57d      0x150 /opt/psas/x-tools/stm32f407/arm-psas-eabi/bin/../lib/gcc/arm-psas-eabi/4.7.2/../../../../arm-psas-eabi/lib/libc.a(lib_a-strcasecmp.o)
 .debug_info    0x000000000004f6cd       0xe3 /opt/psas/x-tools/stm32f407/arm-psas-eabi/bin/../lib/gcc/arm-psas-eabi/4.7.2/../../../../arm-psas-eabi/lib/libc.a(lib_a-strchr.o)
 .debug_info    0x000000000004f7b0       0xbd /opt/psas/x-tools/stm32f407/arm-psas-eabi/bin/../lib/gcc/arm-psas-eabi/4.7.2/../../../../arm-psas-eabi/lib/libc.a(lib_a-strcpy.o)
 .debug_info    0x000000000004f86d       0xcd /opt/psas/x-tools/stm32f407/arm-psas-eabi/bin/../lib/gcc/arm-psas-eabi/4.7.2/../../../../arm-psas-eabi/lib/libc.a(lib_a-strlen.o)
 .debug_info    0x000000000004f93a       0xd7 /opt/psas/x-tools/stm32f407/arm-psas-eabi/bin/../lib/gcc/arm-psas-eabi/4.7.2/../../../../arm-psas-eabi/lib/libc.a(lib_a-strspn.o)
 .debug_info    0x000000000004fa11       0x6d /opt/psas/x-tools/stm32f407/arm-psas-eabi/bin/../lib/gcc/arm-psas-eabi/4.7.2/../../../../arm-psas-eabi/lib/libc.a(lib_a-ctype_.o)

.debug_abbrev   0x0000000000000000     0xe192
 .debug_abbrev  0x0000000000000000       0xdc build/obj/crt0.o
 .debug_abbrev  0x00000000000000dc       0xb1 build/obj/vectors.o
 .debug_abbrev  0x000000000000018d       0x44 build/obj/chcore.o
 .debug_abbrev  0x00000000000001d1      0x1d5 build/obj/chcore_v7m.o
 .debug_abbrev  0x00000000000003a6       0xf2 build/obj/nvic.o
 .debug_abbrev  0x0000000000000498      0x220 build/obj/chsys.o
 .debug_abbrev  0x00000000000006b8      0x15e build/obj/chvt.o
 .debug_abbrev  0x0000000000000816      0x340 build/obj/chschd.o
 .debug_abbrev  0x0000000000000b56      0x368 build/obj/chthreads.o
 .debug_abbrev  0x0000000000000ebe      0x23a build/obj/chdynamic.o
 .debug_abbrev  0x00000000000010f8      0x197 build/obj/chregistry.o
 .debug_abbrev  0x000000000000128f      0x33d build/obj/chsem.o
 .debug_abbrev  0x00000000000015cc      0x332 build/obj/chmtx.o
 .debug_abbrev  0x00000000000018fe      0x2fa build/obj/chcond.o
 .debug_abbrev  0x0000000000001bf8      0x359 build/obj/chevents.o
 .debug_abbrev  0x0000000000001f51      0x23b build/obj/chmsg.o
 .debug_abbrev  0x000000000000218c      0x253 build/obj/chmboxes.o
 .debug_abbrev  0x00000000000023df      0x34c build/obj/chqueues.o
 .debug_abbrev  0x000000000000272b      0x16c build/obj/chmemcore.o
 .debug_abbrev  0x0000000000002897      0x210 build/obj/chheap.o
 .debug_abbrev  0x0000000000002aa7      0x21c build/obj/chmempools.o
 .debug_abbrev  0x0000000000002cc3      0x512 build/obj/test.o
 .debug_abbrev  0x00000000000031d5      0x2aa build/obj/testthd.o
 .debug_abbrev  0x000000000000347f      0x330 build/obj/testsem.o
 .debug_abbrev  0x00000000000037af      0x327 build/obj/testmtx.o
 .debug_abbrev  0x0000000000003ad6      0x22b build/obj/testmsg.o
 .debug_abbrev  0x0000000000003d01      0x231 build/obj/testmbox.o
 .debug_abbrev  0x0000000000003f32      0x308 build/obj/testevt.o
 .debug_abbrev  0x000000000000423a      0x22e build/obj/testheap.o
 .debug_abbrev  0x0000000000004468      0x1e0 build/obj/testpools.o
 .debug_abbrev  0x0000000000004648      0x2bc build/obj/testdyn.o
 .debug_abbrev  0x0000000000004904      0x305 build/obj/testqueues.o
 .debug_abbrev  0x0000000000004c09      0x38d build/obj/testbmk.o
 .debug_abbrev  0x0000000000004f96      0x1b4 build/obj/hal.o
 .debug_abbrev  0x000000000000514a      0x2aa build/obj/mac.o
 .debug_abbrev  0x00000000000053f4      0x120 build/obj/mmcsd.o
 .debug_abbrev  0x0000000000005514      0x3bb build/obj/sdc.o
 .debug_abbrev  0x00000000000058cf      0x2d5 build/obj/serial.o
 .debug_abbrev  0x0000000000005ba4      0x3df build/obj/serial_usb.o
 .debug_abbrev  0x0000000000005f83      0x19c build/obj/tm.o
 .debug_abbrev  0x000000000000611f      0x386 build/obj/usb.o
 .debug_abbrev  0x00000000000064a5      0x221 build/obj/stm32_dma.o
 .debug_abbrev  0x00000000000066c6      0x12d build/obj/hal_lld.o
 .debug_abbrev  0x00000000000067f3      0x44a build/obj/mac_lld.o
 .debug_abbrev  0x0000000000006c3d      0x4a1 build/obj/sdc_lld.o
 .debug_abbrev  0x00000000000070de      0x1c6 build/obj/pal_lld.o
 .debug_abbrev  0x00000000000072a4      0x55f build/obj/usb_lld.o
 .debug_abbrev  0x0000000000007803      0x341 build/obj/serial_lld.o
 .debug_abbrev  0x0000000000007b44      0x1e6 build/obj/board.o
 .debug_abbrev  0x0000000000007d2a      0x380 build/obj/lwipthread.o
 .debug_abbrev  0x00000000000080aa      0x2b9 build/obj/sys_arch.o
 .debug_abbrev  0x0000000000008363      0x381 build/obj/etharp.o
 .debug_abbrev  0x00000000000086e4       0x81 build/obj/init.o
 .debug_abbrev  0x0000000000008765      0x2b9 build/obj/mem.o
 .debug_abbrev  0x0000000000008a1e      0x16b build/obj/memp.o
 .debug_abbrev  0x0000000000008b89      0x367 build/obj/netif.o
 .debug_abbrev  0x0000000000008ef0      0x419 build/obj/pbuf.o
 .debug_abbrev  0x0000000000009309      0x2ad build/obj/raw.o
 .debug_abbrev  0x00000000000095b6       0xc6 build/obj/stats.o
 .debug_abbrev  0x000000000000967c      0x50a build/obj/tcp.o
 .debug_abbrev  0x0000000000009b86      0x38f build/obj/tcp_in.o
 .debug_abbrev  0x0000000000009f15      0x411 build/obj/tcp_out.o
 .debug_abbrev  0x000000000000a326      0x2c8 build/obj/udp.o
 .debug_abbrev  0x000000000000a5ee      0x26d build/obj/icmp.o
 .debug_abbrev  0x000000000000a85b      0x18f build/obj/inet_chksum.o
 .debug_abbrev  0x000000000000a9ea      0x254 build/obj/ip.o
 .debug_abbrev  0x000000000000ac3e      0x248 build/obj/ip_addr.o
 .debug_abbrev  0x000000000000ae86      0x383 build/obj/ip_frag.o
 .debug_abbrev  0x000000000000b209       0xca build/obj/def.o
 .debug_abbrev  0x000000000000b2d3      0x29c build/obj/timers.o
 .debug_abbrev  0x000000000000b56f      0x389 build/obj/api_lib.o
 .debug_abbrev  0x000000000000b8f8      0x438 build/obj/api_msg.o
 .debug_abbrev  0x000000000000bd30      0x1ba build/obj/netbuf.o
 .debug_abbrev  0x000000000000beea      0x416 build/obj/sockets.o
 .debug_abbrev  0x000000000000c300      0x302 build/obj/tcpip.o
 .debug_abbrev  0x000000000000c602      0x23b build/obj/fatfs_diskio.o
 .debug_abbrev  0x000000000000c83d      0x1f5 build/obj/fatfs_syscall.o
 .debug_abbrev  0x000000000000ca32      0x3c1 build/obj/ff.o
 .debug_abbrev  0x000000000000cdf3       0xc6 build/obj/ccsbcs.o
 .debug_abbrev  0x000000000000ceb9      0x185 build/obj/evtimer.o
 .debug_abbrev  0x000000000000d03e      0x1d3 build/obj/chprintf.o
 .debug_abbrev  0x000000000000d211      0x390 build/obj/shell.o
 .debug_abbrev  0x000000000000d5a1      0x277 build/obj/web.o
 .debug_abbrev  0x000000000000d818      0x52c build/obj/main.o
 .debug_abbrev  0x000000000000dd44       0xa2 /opt/psas/x-tools/stm32f407/arm-psas-eabi/bin/../lib/gcc/arm-psas-eabi/4.7.2/../../../../arm-psas-eabi/lib/libc.a(lib_a-memcpy-stub.o)
 .debug_abbrev  0x000000000000dde6       0x8c /opt/psas/x-tools/stm32f407/arm-psas-eabi/bin/../lib/gcc/arm-psas-eabi/4.7.2/../../../../arm-psas-eabi/lib/libc.a(lib_a-memset.o)
 .debug_abbrev  0x000000000000de72       0xc0 /opt/psas/x-tools/stm32f407/arm-psas-eabi/bin/../lib/gcc/arm-psas-eabi/4.7.2/../../../../arm-psas-eabi/lib/libc.a(lib_a-strcasecmp.o)
 .debug_abbrev  0x000000000000df32       0x81 /opt/psas/x-tools/stm32f407/arm-psas-eabi/bin/../lib/gcc/arm-psas-eabi/4.7.2/../../../../arm-psas-eabi/lib/libc.a(lib_a-strchr.o)
 .debug_abbrev  0x000000000000dfb3       0x70 /opt/psas/x-tools/stm32f407/arm-psas-eabi/bin/../lib/gcc/arm-psas-eabi/4.7.2/../../../../arm-psas-eabi/lib/libc.a(lib_a-strcpy.o)
 .debug_abbrev  0x000000000000e023       0x8a /opt/psas/x-tools/stm32f407/arm-psas-eabi/bin/../lib/gcc/arm-psas-eabi/4.7.2/../../../../arm-psas-eabi/lib/libc.a(lib_a-strlen.o)
 .debug_abbrev  0x000000000000e0ad       0x99 /opt/psas/x-tools/stm32f407/arm-psas-eabi/bin/../lib/gcc/arm-psas-eabi/4.7.2/../../../../arm-psas-eabi/lib/libc.a(lib_a-strspn.o)
 .debug_abbrev  0x000000000000e146       0x4c /opt/psas/x-tools/stm32f407/arm-psas-eabi/bin/../lib/gcc/arm-psas-eabi/4.7.2/../../../../arm-psas-eabi/lib/libc.a(lib_a-ctype_.o)

.debug_aranges  0x0000000000000000     0x20e0
 .debug_aranges
                0x0000000000000000       0x38 build/obj/crt0.o
 .debug_aranges
                0x0000000000000038       0x20 build/obj/vectors.o
 .debug_aranges
                0x0000000000000058       0x20 build/obj/chcore.o
 .debug_aranges
                0x0000000000000078       0x50 build/obj/chcore_v7m.o
 .debug_aranges
                0x00000000000000c8       0x30 build/obj/nvic.o
 .debug_aranges
                0x00000000000000f8       0x30 build/obj/chsys.o
 .debug_aranges
                0x0000000000000128       0x38 build/obj/chvt.o
 .debug_aranges
                0x0000000000000160       0x68 build/obj/chschd.o
 .debug_aranges
                0x00000000000001c8       0x78 build/obj/chthreads.o
 .debug_aranges
                0x0000000000000240       0x38 build/obj/chdynamic.o
 .debug_aranges
                0x0000000000000278       0x28 build/obj/chregistry.o
 .debug_aranges
                0x00000000000002a0       0x70 build/obj/chsem.o
 .debug_aranges
                0x0000000000000310       0x58 build/obj/chmtx.o
 .debug_aranges
                0x0000000000000368       0x60 build/obj/chcond.o
 .debug_aranges
                0x00000000000003c8       0xa0 build/obj/chevents.o
 .debug_aranges
                0x0000000000000468       0x30 build/obj/chmsg.o
 .debug_aranges
                0x0000000000000498       0x70 build/obj/chmboxes.o
 .debug_aranges
                0x0000000000000508       0x70 build/obj/chqueues.o
 .debug_aranges
                0x0000000000000578       0x38 build/obj/chmemcore.o
 .debug_aranges
                0x00000000000005b0       0x40 build/obj/chheap.o
 .debug_aranges
                0x00000000000005f0       0x48 build/obj/chmempools.o
 .debug_aranges
                0x0000000000000638       0x98 build/obj/test.o
 .debug_aranges
                0x00000000000006d0       0x40 build/obj/testthd.o
 .debug_aranges
                0x0000000000000710       0x70 build/obj/testsem.o
 .debug_aranges
                0x0000000000000780      0x108 build/obj/testmtx.o
 .debug_aranges
                0x0000000000000888       0x28 build/obj/testmsg.o
 .debug_aranges
                0x00000000000008b0       0x28 build/obj/testmbox.o
 .debug_aranges
                0x00000000000008d8       0x70 build/obj/testevt.o
 .debug_aranges
                0x0000000000000948       0x28 build/obj/testheap.o
 .debug_aranges
                0x0000000000000970       0x30 build/obj/testpools.o
 .debug_aranges
                0x00000000000009a0       0x58 build/obj/testdyn.o
 .debug_aranges
                0x00000000000009f8       0x50 build/obj/testqueues.o
 .debug_aranges
                0x0000000000000a48       0xd0 build/obj/testbmk.o
 .debug_aranges
                0x0000000000000b18       0x30 build/obj/hal.o
 .debug_aranges
                0x0000000000000b48       0x60 build/obj/mac.o
 .debug_aranges
                0x0000000000000ba8       0x20 build/obj/mmcsd.o
 .debug_aranges
                0x0000000000000bc8       0x80 build/obj/sdc.o
 .debug_aranges
                0x0000000000000c48       0x88 build/obj/serial.o
 .debug_aranges
                0x0000000000000cd0       0xb0 build/obj/serial_usb.o
 .debug_aranges
                0x0000000000000d80       0x38 build/obj/tm.o
 .debug_aranges
                0x0000000000000db8       0xa8 build/obj/usb.o
 .debug_aranges
                0x0000000000000e60       0xb0 build/obj/stm32_dma.o
 .debug_aranges
                0x0000000000000f10       0x28 build/obj/hal_lld.o
 .debug_aranges
                0x0000000000000f38       0x78 build/obj/mac_lld.o
 .debug_aranges
                0x0000000000000fb0       0xb8 build/obj/sdc_lld.o
 .debug_aranges
                0x0000000000001068       0x28 build/obj/pal_lld.o
 .debug_aranges
                0x0000000000001090       0xd8 build/obj/usb_lld.o
 .debug_aranges
                0x0000000000001168       0x40 build/obj/serial_lld.o
 .debug_aranges
                0x00000000000011a8       0x38 build/obj/board.o
 .debug_aranges
                0x00000000000011e0       0x30 build/obj/lwipthread.o
 .debug_aranges
                0x0000000000001210       0xa8 build/obj/sys_arch.o
 .debug_aranges
                0x00000000000012b8       0x58 build/obj/etharp.o
 .debug_aranges
                0x0000000000001310       0x20 build/obj/init.o
 .debug_aranges
                0x0000000000001330       0x40 build/obj/mem.o
 .debug_aranges
                0x0000000000001370       0x30 build/obj/memp.o
 .debug_aranges
                0x00000000000013a0       0x80 build/obj/netif.o
 .debug_aranges
                0x0000000000001420       0xb8 build/obj/pbuf.o
 .debug_aranges
                0x00000000000014d8       0x58 build/obj/raw.o
 .debug_aranges
                0x0000000000001530       0x20 build/obj/stats.o
 .debug_aranges
                0x0000000000001550      0x120 build/obj/tcp.o
 .debug_aranges
                0x0000000000001670       0x38 build/obj/tcp_in.o
 .debug_aranges
                0x00000000000016a8       0x88 build/obj/tcp_out.o
 .debug_aranges
                0x0000000000001730       0x68 build/obj/udp.o
 .debug_aranges
                0x0000000000001798       0x38 build/obj/icmp.o
 .debug_aranges
                0x00000000000017d0       0x40 build/obj/inet_chksum.o
 .debug_aranges
                0x0000000000001810       0x38 build/obj/ip.o
 .debug_aranges
                0x0000000000001848       0x48 build/obj/ip_addr.o
 .debug_aranges
                0x0000000000001890       0x50 build/obj/ip_frag.o
 .debug_aranges
                0x00000000000018e0       0x38 build/obj/def.o
 .debug_aranges
                0x0000000000001918       0x58 build/obj/timers.o
 .debug_aranges
                0x0000000000001970       0xa0 build/obj/api_lib.o
 .debug_aranges
                0x0000000000001a10       0xe0 build/obj/api_msg.o
 .debug_aranges
                0x0000000000001af0       0x60 build/obj/netbuf.o
 .debug_aranges
                0x0000000000001b50       0xf0 build/obj/sockets.o
 .debug_aranges
                0x0000000000001c40       0x68 build/obj/tcpip.o
 .debug_aranges
                0x0000000000001ca8       0x48 build/obj/fatfs_diskio.o
 .debug_aranges
                0x0000000000001cf0       0x48 build/obj/fatfs_syscall.o
 .debug_aranges
                0x0000000000001d38      0x140 build/obj/ff.o
 .debug_aranges
                0x0000000000001e78       0x28 build/obj/ccsbcs.o
 .debug_aranges
                0x0000000000001ea0       0x30 build/obj/evtimer.o
 .debug_aranges
                0x0000000000001ed0       0x28 build/obj/chprintf.o
 .debug_aranges
                0x0000000000001ef8       0x58 build/obj/shell.o
 .debug_aranges
                0x0000000000001f50       0x20 build/obj/web.o
 .debug_aranges
                0x0000000000001f70       0x78 build/obj/main.o
 .debug_aranges
                0x0000000000001fe8       0x20 /opt/psas/x-tools/stm32f407/arm-psas-eabi/bin/../lib/gcc/arm-psas-eabi/4.7.2/../../../../arm-psas-eabi/lib/libc.a(lib_a-memcpy-stub.o)
 .debug_aranges
                0x0000000000002008       0x20 /opt/psas/x-tools/stm32f407/arm-psas-eabi/bin/../lib/gcc/arm-psas-eabi/4.7.2/../../../../arm-psas-eabi/lib/libc.a(lib_a-memset.o)
 .debug_aranges
                0x0000000000002028       0x20 /opt/psas/x-tools/stm32f407/arm-psas-eabi/bin/../lib/gcc/arm-psas-eabi/4.7.2/../../../../arm-psas-eabi/lib/libc.a(lib_a-strcasecmp.o)
 .debug_aranges
                0x0000000000002048       0x20 /opt/psas/x-tools/stm32f407/arm-psas-eabi/bin/../lib/gcc/arm-psas-eabi/4.7.2/../../../../arm-psas-eabi/lib/libc.a(lib_a-strchr.o)
 .debug_aranges
                0x0000000000002068       0x20 /opt/psas/x-tools/stm32f407/arm-psas-eabi/bin/../lib/gcc/arm-psas-eabi/4.7.2/../../../../arm-psas-eabi/lib/libc.a(lib_a-strcpy.o)
 .debug_aranges
                0x0000000000002088       0x20 /opt/psas/x-tools/stm32f407/arm-psas-eabi/bin/../lib/gcc/arm-psas-eabi/4.7.2/../../../../arm-psas-eabi/lib/libc.a(lib_a-strlen.o)
 .debug_aranges
                0x00000000000020a8       0x20 /opt/psas/x-tools/stm32f407/arm-psas-eabi/bin/../lib/gcc/arm-psas-eabi/4.7.2/../../../../arm-psas-eabi/lib/libc.a(lib_a-strspn.o)
 .debug_aranges
                0x00000000000020c8       0x18 /opt/psas/x-tools/stm32f407/arm-psas-eabi/bin/../lib/gcc/arm-psas-eabi/4.7.2/../../../../arm-psas-eabi/lib/libc.a(lib_a-ctype_.o)

.debug_ranges   0x0000000000000000     0x43a0
 .debug_ranges  0x0000000000000000       0xe0 build/obj/crt0.o
 .debug_ranges  0x00000000000000e0       0x10 build/obj/vectors.o
 .debug_ranges  0x00000000000000f0       0x10 build/obj/chcore.o
 .debug_ranges  0x0000000000000100       0x58 build/obj/chcore_v7m.o
 .debug_ranges  0x0000000000000158       0x20 build/obj/nvic.o
 .debug_ranges  0x0000000000000178       0x20 build/obj/chsys.o
 .debug_ranges  0x0000000000000198       0x28 build/obj/chvt.o
 .debug_ranges  0x00000000000001c0      0x1d0 build/obj/chschd.o
 .debug_ranges  0x0000000000000390       0xc8 build/obj/chthreads.o
 .debug_ranges  0x0000000000000458       0x28 build/obj/chdynamic.o
 .debug_ranges  0x0000000000000480       0x30 build/obj/chregistry.o
 .debug_ranges  0x00000000000004b0       0xf0 build/obj/chsem.o
 .debug_ranges  0x00000000000005a0      0x210 build/obj/chmtx.o
 .debug_ranges  0x00000000000007b0       0xf0 build/obj/chcond.o
 .debug_ranges  0x00000000000008a0       0xd8 build/obj/chevents.o
 .debug_ranges  0x0000000000000978       0x38 build/obj/chmsg.o
 .debug_ranges  0x00000000000009b0       0x78 build/obj/chmboxes.o
 .debug_ranges  0x0000000000000a28       0xd8 build/obj/chqueues.o
 .debug_ranges  0x0000000000000b00       0x28 build/obj/chmemcore.o
 .debug_ranges  0x0000000000000b28       0x30 build/obj/chheap.o
 .debug_ranges  0x0000000000000b58       0xf8 build/obj/chmempools.o
 .debug_ranges  0x0000000000000c50      0x190 build/obj/test.o
 .debug_ranges  0x0000000000000de0       0x90 build/obj/testthd.o
 .debug_ranges  0x0000000000000e70       0xc0 build/obj/testsem.o
 .debug_ranges  0x0000000000000f30      0x110 build/obj/testmtx.o
 .debug_ranges  0x0000000000001040       0x18 build/obj/testmsg.o
 .debug_ranges  0x0000000000001058       0xc0 build/obj/testmbox.o
 .debug_ranges  0x0000000000001118       0x90 build/obj/testevt.o
 .debug_ranges  0x00000000000011a8       0x18 build/obj/testheap.o
 .debug_ranges  0x00000000000011c0       0x60 build/obj/testpools.o
 .debug_ranges  0x0000000000001220       0x48 build/obj/testdyn.o
 .debug_ranges  0x0000000000001268      0x130 build/obj/testqueues.o
 .debug_ranges  0x0000000000001398       0xd8 build/obj/testbmk.o
 .debug_ranges  0x0000000000001470       0x60 build/obj/hal.o
 .debug_ranges  0x00000000000014d0       0xb0 build/obj/mac.o
 .debug_ranges  0x0000000000001580       0x28 build/obj/mmcsd.o
 .debug_ranges  0x00000000000015a8       0xd0 build/obj/sdc.o
 .debug_ranges  0x0000000000001678       0xa8 build/obj/serial.o
 .debug_ranges  0x0000000000001720       0xd0 build/obj/serial_usb.o
 .debug_ranges  0x00000000000017f0       0x80 build/obj/tm.o
 .debug_ranges  0x0000000000001870       0xe0 build/obj/usb.o
 .debug_ranges  0x0000000000001950       0xa0 build/obj/stm32_dma.o
 .debug_ranges  0x00000000000019f0       0x30 build/obj/hal_lld.o
 .debug_ranges  0x0000000000001a20      0x188 build/obj/mac_lld.o
 .debug_ranges  0x0000000000001ba8      0x198 build/obj/sdc_lld.o
 .debug_ranges  0x0000000000001d40      0x168 build/obj/pal_lld.o
 .debug_ranges  0x0000000000001ea8      0x3c0 build/obj/usb_lld.o
 .debug_ranges  0x0000000000002268       0x60 build/obj/serial_lld.o
 .debug_ranges  0x00000000000022c8       0x28 build/obj/board.o
 .debug_ranges  0x00000000000022f0       0xd8 build/obj/lwipthread.o
 .debug_ranges  0x00000000000023c8       0x98 build/obj/sys_arch.o
 .debug_ranges  0x0000000000002460      0x1c8 build/obj/etharp.o
 .debug_ranges  0x0000000000002628       0x10 build/obj/init.o
 .debug_ranges  0x0000000000002638       0x70 build/obj/mem.o
 .debug_ranges  0x00000000000026a8       0x20 build/obj/memp.o
 .debug_ranges  0x00000000000026c8       0x70 build/obj/netif.o
 .debug_ranges  0x0000000000002738      0x188 build/obj/pbuf.o
 .debug_ranges  0x00000000000028c0       0x48 build/obj/raw.o
 .debug_ranges  0x0000000000002908       0x10 build/obj/stats.o
 .debug_ranges  0x0000000000002918      0x260 build/obj/tcp.o
 .debug_ranges  0x0000000000002b78      0x170 build/obj/tcp_in.o
 .debug_ranges  0x0000000000002ce8      0x1c0 build/obj/tcp_out.o
 .debug_ranges  0x0000000000002ea8       0x58 build/obj/udp.o
 .debug_ranges  0x0000000000002f00       0x68 build/obj/icmp.o
 .debug_ranges  0x0000000000002f68       0x30 build/obj/inet_chksum.o
 .debug_ranges  0x0000000000002f98       0x70 build/obj/ip.o
 .debug_ranges  0x0000000000003008       0x38 build/obj/ip_addr.o
 .debug_ranges  0x0000000000003040      0x158 build/obj/ip_frag.o
 .debug_ranges  0x0000000000003198       0x28 build/obj/def.o
 .debug_ranges  0x00000000000031c0       0x48 build/obj/timers.o
 .debug_ranges  0x0000000000003208      0x128 build/obj/api_lib.o
 .debug_ranges  0x0000000000003330      0x128 build/obj/api_msg.o
 .debug_ranges  0x0000000000003458       0x50 build/obj/netbuf.o
 .debug_ranges  0x00000000000034a8      0x528 build/obj/sockets.o
 .debug_ranges  0x00000000000039d0       0x58 build/obj/tcpip.o
 .debug_ranges  0x0000000000003a28       0x38 build/obj/fatfs_diskio.o
 .debug_ranges  0x0000000000003a60       0x38 build/obj/fatfs_syscall.o
 .debug_ranges  0x0000000000003a98      0x5d0 build/obj/ff.o
 .debug_ranges  0x0000000000004068       0x18 build/obj/ccsbcs.o
 .debug_ranges  0x0000000000004080       0x50 build/obj/evtimer.o
 .debug_ranges  0x00000000000040d0       0x18 build/obj/chprintf.o
 .debug_ranges  0x00000000000040e8      0x110 build/obj/shell.o
 .debug_ranges  0x00000000000041f8       0x50 build/obj/web.o
 .debug_ranges  0x0000000000004248      0x108 build/obj/main.o
 .debug_ranges  0x0000000000004350       0x50 /opt/psas/x-tools/stm32f407/arm-psas-eabi/bin/../lib/gcc/arm-psas-eabi/4.7.2/../../../../arm-psas-eabi/lib/libc.a(lib_a-strcasecmp.o)

.debug_line     0x0000000000000000    0x136ad
 .debug_line    0x0000000000000000      0x14f build/obj/crt0.o
 .debug_line    0x000000000000014f       0xd9 build/obj/vectors.o
 .debug_line    0x0000000000000228       0x53 build/obj/chcore.o
 .debug_line    0x000000000000027b      0x20a build/obj/chcore_v7m.o
 .debug_line    0x0000000000000485      0x118 build/obj/nvic.o
 .debug_line    0x000000000000059d      0x21d build/obj/chsys.o
 .debug_line    0x00000000000007ba      0x174 build/obj/chvt.o
 .debug_line    0x000000000000092e      0x32c build/obj/chschd.o
 .debug_line    0x0000000000000c5a      0x35f build/obj/chthreads.o
 .debug_line    0x0000000000000fb9      0x244 build/obj/chdynamic.o
 .debug_line    0x00000000000011fd      0x1f0 build/obj/chregistry.o
 .debug_line    0x00000000000013ed      0x308 build/obj/chsem.o
 .debug_line    0x00000000000016f5      0x35a build/obj/chmtx.o
 .debug_line    0x0000000000001a4f      0x286 build/obj/chcond.o
 .debug_line    0x0000000000001cd5      0x326 build/obj/chevents.o
 .debug_line    0x0000000000001ffb      0x1a9 build/obj/chmsg.o
 .debug_line    0x00000000000021a4      0x27f build/obj/chmboxes.o
 .debug_line    0x0000000000002423      0x3b2 build/obj/chqueues.o
 .debug_line    0x00000000000027d5      0x177 build/obj/chmemcore.o
 .debug_line    0x000000000000294c      0x28b build/obj/chheap.o
 .debug_line    0x0000000000002bd7      0x1f4 build/obj/chmempools.o
 .debug_line    0x0000000000002dcb      0x539 build/obj/test.o
 .debug_line    0x0000000000003304      0x250 build/obj/testthd.o
 .debug_line    0x0000000000003554      0x322 build/obj/testsem.o
 .debug_line    0x0000000000003876      0x4e7 build/obj/testmtx.o
 .debug_line    0x0000000000003d5d      0x1e2 build/obj/testmsg.o
 .debug_line    0x0000000000003f3f      0x254 build/obj/testmbox.o
 .debug_line    0x0000000000004193      0x2e3 build/obj/testevt.o
 .debug_line    0x0000000000004476      0x21e build/obj/testheap.o
 .debug_line    0x0000000000004694      0x1c5 build/obj/testpools.o
 .debug_line    0x0000000000004859      0x322 build/obj/testdyn.o
 .debug_line    0x0000000000004b7b      0x2a3 build/obj/testqueues.o
 .debug_line    0x0000000000004e1e      0x5de build/obj/testbmk.o
 .debug_line    0x00000000000053fc      0x294 build/obj/hal.o
 .debug_line    0x0000000000005690      0x32d build/obj/mac.o
 .debug_line    0x00000000000059bd      0x120 build/obj/mmcsd.o
 .debug_line    0x0000000000005add      0x3c1 build/obj/sdc.o
 .debug_line    0x0000000000005e9e      0x395 build/obj/serial.o
 .debug_line    0x0000000000006233      0x429 build/obj/serial_usb.o
 .debug_line    0x000000000000665c      0x1dd build/obj/tm.o
 .debug_line    0x0000000000006839      0x4e3 build/obj/usb.o
 .debug_line    0x0000000000006d1c      0x3f6 build/obj/stm32_dma.o
 .debug_line    0x0000000000007112      0x1e5 build/obj/hal_lld.o
 .debug_line    0x00000000000072f7      0x5e5 build/obj/mac_lld.o
 .debug_line    0x00000000000078dc      0x529 build/obj/sdc_lld.o
 .debug_line    0x0000000000007e05      0x1f7 build/obj/pal_lld.o
 .debug_line    0x0000000000007ffc      0x7d5 build/obj/usb_lld.o
 .debug_line    0x00000000000087d1      0x34c build/obj/serial_lld.o
 .debug_line    0x0000000000008b1d      0x288 build/obj/board.o
 .debug_line    0x0000000000008da5      0x47f build/obj/lwipthread.o
 .debug_line    0x0000000000009224      0x3c0 build/obj/sys_arch.o
 .debug_line    0x00000000000095e4      0x527 build/obj/etharp.o
 .debug_line    0x0000000000009b0b       0xc4 build/obj/init.o
 .debug_line    0x0000000000009bcf      0x39c build/obj/mem.o
 .debug_line    0x0000000000009f6b      0x212 build/obj/memp.o
 .debug_line    0x000000000000a17d      0x381 build/obj/netif.o
 .debug_line    0x000000000000a4fe      0x728 build/obj/pbuf.o
 .debug_line    0x000000000000ac26      0x2e2 build/obj/raw.o
 .debug_line    0x000000000000af08      0x134 build/obj/stats.o
 .debug_line    0x000000000000b03c      0x894 build/obj/tcp.o
 .debug_line    0x000000000000b8d0      0x870 build/obj/tcp_in.o
 .debug_line    0x000000000000c140      0x768 build/obj/tcp_out.o
 .debug_line    0x000000000000c8a8      0x4c0 build/obj/udp.o
 .debug_line    0x000000000000cd68      0x2d6 build/obj/icmp.o
 .debug_line    0x000000000000d03e      0x265 build/obj/inet_chksum.o
 .debug_line    0x000000000000d2a3      0x399 build/obj/ip.o
 .debug_line    0x000000000000d63c      0x2de build/obj/ip_addr.o
 .debug_line    0x000000000000d91a      0x4c6 build/obj/ip_frag.o
 .debug_line    0x000000000000dde0      0x12f build/obj/def.o
 .debug_line    0x000000000000df0f      0x37c build/obj/timers.o
 .debug_line    0x000000000000e28b      0x5c7 build/obj/api_lib.o
 .debug_line    0x000000000000e852      0x9e8 build/obj/api_msg.o
 .debug_line    0x000000000000f23a      0x2a8 build/obj/netbuf.o
 .debug_line    0x000000000000f4e2      0xb4e build/obj/sockets.o
 .debug_line    0x0000000000010030      0x428 build/obj/tcpip.o
 .debug_line    0x0000000000010458      0x2dd build/obj/fatfs_diskio.o
 .debug_line    0x0000000000010735      0x255 build/obj/fatfs_syscall.o
 .debug_line    0x000000000001098a     0x1194 build/obj/ff.o
 .debug_line    0x0000000000011b1e       0xb3 build/obj/ccsbcs.o
 .debug_line    0x0000000000011bd1      0x196 build/obj/evtimer.o
 .debug_line    0x0000000000011d67      0x2db build/obj/chprintf.o
 .debug_line    0x0000000000012042      0x3b8 build/obj/shell.o
 .debug_line    0x00000000000123fa      0x29b build/obj/web.o
 .debug_line    0x0000000000012695      0x5fc build/obj/main.o
 .debug_line    0x0000000000012c91      0x19f /opt/psas/x-tools/stm32f407/arm-psas-eabi/bin/../lib/gcc/arm-psas-eabi/4.7.2/../../../../arm-psas-eabi/lib/libc.a(lib_a-memcpy-stub.o)
 .debug_line    0x0000000000012e30      0x197 /opt/psas/x-tools/stm32f407/arm-psas-eabi/bin/../lib/gcc/arm-psas-eabi/4.7.2/../../../../arm-psas-eabi/lib/libc.a(lib_a-memset.o)
 .debug_line    0x0000000000012fc7      0x122 /opt/psas/x-tools/stm32f407/arm-psas-eabi/bin/../lib/gcc/arm-psas-eabi/4.7.2/../../../../arm-psas-eabi/lib/libc.a(lib_a-strcasecmp.o)
 .debug_line    0x00000000000130e9      0x112 /opt/psas/x-tools/stm32f407/arm-psas-eabi/bin/../lib/gcc/arm-psas-eabi/4.7.2/../../../../arm-psas-eabi/lib/libc.a(lib_a-strchr.o)
 .debug_line    0x00000000000131fb      0x107 /opt/psas/x-tools/stm32f407/arm-psas-eabi/bin/../lib/gcc/arm-psas-eabi/4.7.2/../../../../arm-psas-eabi/lib/libc.a(lib_a-strcpy.o)
 .debug_line    0x0000000000013302      0x18d /opt/psas/x-tools/stm32f407/arm-psas-eabi/bin/../lib/gcc/arm-psas-eabi/4.7.2/../../../../arm-psas-eabi/lib/libc.a(lib_a-strlen.o)
 .debug_line    0x000000000001348f      0x197 /opt/psas/x-tools/stm32f407/arm-psas-eabi/bin/../lib/gcc/arm-psas-eabi/4.7.2/../../../../arm-psas-eabi/lib/libc.a(lib_a-strspn.o)
 .debug_line    0x0000000000013626       0x87 /opt/psas/x-tools/stm32f407/arm-psas-eabi/bin/../lib/gcc/arm-psas-eabi/4.7.2/../../../../arm-psas-eabi/lib/libc.a(lib_a-ctype_.o)

.debug_str      0x0000000000000000     0x766a
 .debug_str     0x0000000000000000      0x1e7 build/obj/crt0.o
                                        0x22b (size before relaxing)
 .debug_str     0x00000000000001e7      0x136 build/obj/vectors.o
                                        0x242 (size before relaxing)
 .debug_str     0x000000000000031d       0x2d build/obj/chcore.o
                                        0x115 (size before relaxing)
 .debug_str     0x000000000000034a      0x2c5 build/obj/chcore_v7m.o
                                        0x3ea (size before relaxing)
 .debug_str     0x000000000000060f       0x96 build/obj/nvic.o
                                        0x214 (size before relaxing)
 .debug_str     0x00000000000006a5      0x1fe build/obj/chsys.o
                                        0x4c2 (size before relaxing)
 .debug_str     0x00000000000008a3       0x4c build/obj/chvt.o
                                        0x1b9 (size before relaxing)
 .debug_str     0x00000000000008ef       0xcb build/obj/chschd.o
                                        0x3f7 (size before relaxing)
 .debug_str     0x00000000000009ba       0xd3 build/obj/chthreads.o
                                        0x462 (size before relaxing)
 .debug_str     0x0000000000000a8d      0x10d build/obj/chdynamic.o
                                        0x3d9 (size before relaxing)
 .debug_str     0x0000000000000b9a       0x42 build/obj/chregistry.o
                                        0x3e5 (size before relaxing)
 .debug_str     0x0000000000000bdc       0xc8 build/obj/chsem.o
                                        0x3db (size before relaxing)
 .debug_str     0x0000000000000ca4       0x8a build/obj/chmtx.o
                                        0x37c (size before relaxing)
 .debug_str     0x0000000000000d2e       0xb0 build/obj/chcond.o
                                        0x3c9 (size before relaxing)
 .debug_str     0x0000000000000dde      0x1b9 build/obj/chevents.o
                                        0x4a0 (size before relaxing)
 .debug_str     0x0000000000000f97       0x3d build/obj/chmsg.o
                                        0x314 (size before relaxing)
 .debug_str     0x0000000000000fd4       0xe2 build/obj/chmboxes.o
                                        0x3a3 (size before relaxing)
 .debug_str     0x00000000000010b6      0x119 build/obj/chqueues.o
                                        0x407 (size before relaxing)
 .debug_str     0x00000000000011cf       0x70 build/obj/chmemcore.o
                                        0x180 (size before relaxing)
 .debug_str     0x000000000000123f       0x48 build/obj/chheap.o
                                        0x360 (size before relaxing)
 .debug_str     0x0000000000001287       0x55 build/obj/chmempools.o
                                        0x1ce (size before relaxing)
 .debug_str     0x00000000000012dc      0x264 build/obj/test.o
                                        0x5f8 (size before relaxing)
 .debug_str     0x0000000000001540       0x6d build/obj/testthd.o
                                        0x47d (size before relaxing)
 .debug_str     0x00000000000015ad       0xd6 build/obj/testsem.o
                                        0x539 (size before relaxing)
 .debug_str     0x0000000000001683      0x194 build/obj/testmtx.o
                                        0x637 (size before relaxing)
 .debug_str     0x0000000000001817       0x2b build/obj/testmsg.o
                                        0x370 (size before relaxing)
 .debug_str     0x0000000000001842       0x3f build/obj/testmbox.o
                                        0x3ec (size before relaxing)
 .debug_str     0x0000000000001881       0x7f build/obj/testevt.o
                                        0x5a2 (size before relaxing)
 .debug_str     0x0000000000001900       0x44 build/obj/testheap.o
                                        0x3ae (size before relaxing)
 .debug_str     0x0000000000001944       0x4c build/obj/testpools.o
                                        0x20f (size before relaxing)
 .debug_str     0x0000000000001990       0x86 build/obj/testdyn.o
                                        0x552 (size before relaxing)
 .debug_str     0x0000000000001a16       0x6c build/obj/testqueues.o
                                        0x4d9 (size before relaxing)
 .debug_str     0x0000000000001a82      0x179 build/obj/testbmk.o
                                        0x6be (size before relaxing)
 .debug_str     0x0000000000001bfb      0x16d build/obj/hal.o
                                        0x29b (size before relaxing)
 .debug_str     0x0000000000001d68      0x27e build/obj/mac.o
                                        0x60e (size before relaxing)
 .debug_str     0x0000000000001fe6       0x5b build/obj/mmcsd.o
                                        0x16c (size before relaxing)
 .debug_str     0x0000000000002041      0x36a build/obj/sdc.o
                                        0x64c (size before relaxing)
 .debug_str     0x00000000000023ab      0x17b build/obj/serial.o
                                        0x58c (size before relaxing)
 .debug_str     0x0000000000002526      0x781 build/obj/serial_usb.o
                                        0xbfb (size before relaxing)
 .debug_str     0x0000000000002ca7       0x67 build/obj/tm.o
                                        0x1d1 (size before relaxing)
 .debug_str     0x0000000000002d0e      0x2b0 build/obj/usb.o
                                        0xc4a (size before relaxing)
 .debug_str     0x0000000000002fbe      0x734 build/obj/stm32_dma.o
                                        0x939 (size before relaxing)
 .debug_str     0x00000000000036f2       0xe9 build/obj/hal_lld.o
                                        0x3a3 (size before relaxing)
 .debug_str     0x00000000000037db      0x31a build/obj/mac_lld.o
                                        0xed5 (size before relaxing)
 .debug_str     0x0000000000003af5      0x140 build/obj/sdc_lld.o
                                        0xdaf (size before relaxing)
 .debug_str     0x0000000000003c35       0xc4 build/obj/pal_lld.o
                                        0x374 (size before relaxing)
 .debug_str     0x0000000000003cf9      0x1f9 build/obj/usb_lld.o
                                       0x13b8 (size before relaxing)
 .debug_str     0x0000000000003ef2       0x66 build/obj/serial_lld.o
                                        0xb1b (size before relaxing)
 .debug_str     0x0000000000003f58       0x67 build/obj/board.o
                                        0x57c (size before relaxing)
 .debug_str     0x0000000000003fbf      0x41f build/obj/lwipthread.o
                                        0xa7c (size before relaxing)
 .debug_str     0x00000000000043de      0x192 build/obj/sys_arch.o
                                        0x6d0 (size before relaxing)
 .debug_str     0x0000000000004570      0x2d0 build/obj/etharp.o
                                        0x719 (size before relaxing)
 .debug_str     0x0000000000004840       0x57 build/obj/init.o
                                        0x166 (size before relaxing)
 .debug_str     0x0000000000004897       0x9d build/obj/mem.o
                                        0x548 (size before relaxing)
 .debug_str     0x0000000000004934       0x65 build/obj/memp.o
                                        0x33d (size before relaxing)
 .debug_str     0x0000000000004999      0x34e build/obj/netif.o
                                        0x6fc (size before relaxing)
 .debug_str     0x0000000000004ce7      0x22f build/obj/pbuf.o
                                        0x89a (size before relaxing)
 .debug_str     0x0000000000004f16      0x11a build/obj/raw.o
                                        0x4f3 (size before relaxing)
 .debug_str     0x0000000000005030       0x20 build/obj/stats.o
                                        0x2c5 (size before relaxing)
 .debug_str     0x0000000000005050      0x37c build/obj/tcp.o
                                        0xaa6 (size before relaxing)
 .debug_str     0x00000000000053cc      0x17e build/obj/tcp_in.o
                                        0x9f9 (size before relaxing)
 .debug_str     0x000000000000554a      0x142 build/obj/tcp_out.o
                                        0x988 (size before relaxing)
 .debug_str     0x000000000000568c      0x164 build/obj/udp.o
                                        0x6e7 (size before relaxing)
 .debug_str     0x00000000000057f0       0xbd build/obj/icmp.o
                                        0x54b (size before relaxing)
 .debug_str     0x00000000000058ad       0x7f build/obj/inet_chksum.o
                                        0x230 (size before relaxing)
 .debug_str     0x000000000000592c       0x7d build/obj/ip.o
                                        0x5cf (size before relaxing)
 .debug_str     0x00000000000059a9       0xa8 build/obj/ip_addr.o
                                        0x2c1 (size before relaxing)
 .debug_str     0x0000000000005a51      0x254 build/obj/ip_frag.o
                                        0x7ed (size before relaxing)
 .debug_str     0x0000000000005ca5       0x1e build/obj/def.o
                                        0x150 (size before relaxing)
 .debug_str     0x0000000000005cc3       0xe2 build/obj/timers.o
                                        0x853 (size before relaxing)
 .debug_str     0x0000000000005da5      0x352 build/obj/api_lib.o
                                        0xaf5 (size before relaxing)
 .debug_str     0x00000000000060f7      0x1a3 build/obj/api_msg.o
                                        0xd48 (size before relaxing)
 .debug_str     0x000000000000629a       0x86 build/obj/netbuf.o
                                        0x396 (size before relaxing)
 .debug_str     0x0000000000006320      0x429 build/obj/sockets.o
                                        0xe85 (size before relaxing)
 .debug_str     0x0000000000006749      0x108 build/obj/tcpip.o
                                        0x95f (size before relaxing)
 .debug_str     0x0000000000006851       0xc8 build/obj/fatfs_diskio.o
                                        0x51f (size before relaxing)
 .debug_str     0x0000000000006919       0x97 build/obj/fatfs_syscall.o
                                        0x3d3 (size before relaxing)
 .debug_str     0x00000000000069b0      0x478 build/obj/ff.o
                                        0x84e (size before relaxing)
 .debug_str     0x0000000000006e28       0x38 build/obj/ccsbcs.o
                                        0x142 (size before relaxing)
 .debug_str     0x0000000000006e60       0x29 build/obj/evtimer.o
                                        0x363 (size before relaxing)
 .debug_str     0x0000000000006e89       0xab build/obj/chprintf.o
                                        0x1ff (size before relaxing)
 .debug_str     0x0000000000006f34      0x143 build/obj/shell.o
                                        0x5bf (size before relaxing)
 .debug_str     0x0000000000007077       0x4f build/obj/web.o
                                        0x69d (size before relaxing)
 .debug_str     0x00000000000070c6      0x219 build/obj/main.o
                                       0x147e (size before relaxing)
 .debug_str     0x00000000000072df       0x85 /opt/psas/x-tools/stm32f407/arm-psas-eabi/bin/../lib/gcc/arm-psas-eabi/4.7.2/../../../../arm-psas-eabi/lib/libc.a(lib_a-memcpy-stub.o)
                                        0x131 (size before relaxing)
 .debug_str     0x0000000000007364       0x67 /opt/psas/x-tools/stm32f407/arm-psas-eabi/bin/../lib/gcc/arm-psas-eabi/4.7.2/../../../../arm-psas-eabi/lib/libc.a(lib_a-memset.o)
                                        0x113 (size before relaxing)
 .debug_str     0x00000000000073cb       0x83 /opt/psas/x-tools/stm32f407/arm-psas-eabi/bin/../lib/gcc/arm-psas-eabi/4.7.2/../../../../arm-psas-eabi/lib/libc.a(lib_a-strcasecmp.o)
                                        0x12c (size before relaxing)
 .debug_str     0x000000000000744e       0x67 /opt/psas/x-tools/stm32f407/arm-psas-eabi/bin/../lib/gcc/arm-psas-eabi/4.7.2/../../../../arm-psas-eabi/lib/libc.a(lib_a-strchr.o)
                                        0x10c (size before relaxing)
 .debug_str     0x00000000000074b5       0x6c /opt/psas/x-tools/stm32f407/arm-psas-eabi/bin/../lib/gcc/arm-psas-eabi/4.7.2/../../../../arm-psas-eabi/lib/libc.a(lib_a-strcpy.o)
                                        0x111 (size before relaxing)
 .debug_str     0x0000000000007521       0x74 /opt/psas/x-tools/stm32f407/arm-psas-eabi/bin/../lib/gcc/arm-psas-eabi/4.7.2/../../../../arm-psas-eabi/lib/libc.a(lib_a-strlen.o)
                                        0x120 (size before relaxing)
 .debug_str     0x0000000000007595       0x67 /opt/psas/x-tools/stm32f407/arm-psas-eabi/bin/../lib/gcc/arm-psas-eabi/4.7.2/../../../../arm-psas-eabi/lib/libc.a(lib_a-strspn.o)
                                        0x113 (size before relaxing)
 .debug_str     0x00000000000075fc       0x6e /opt/psas/x-tools/stm32f407/arm-psas-eabi/bin/../lib/gcc/arm-psas-eabi/4.7.2/../../../../arm-psas-eabi/lib/libc.a(lib_a-ctype_.o)
                                         0x96 (size before relaxing)

.comment        0x0000000000000000       0x33
 .comment       0x0000000000000000       0x33 build/obj/crt0.o
                                         0x34 (size before relaxing)
 .comment       0x0000000000000000       0x34 build/obj/vectors.o
 .comment       0x0000000000000000       0x34 build/obj/chcore.o
 .comment       0x0000000000000000       0x34 build/obj/chcore_v7m.o
 .comment       0x0000000000000000       0x34 build/obj/nvic.o
 .comment       0x0000000000000000       0x34 build/obj/chsys.o
 .comment       0x0000000000000000       0x34 build/obj/chvt.o
 .comment       0x0000000000000000       0x34 build/obj/chschd.o
 .comment       0x0000000000000000       0x34 build/obj/chthreads.o
 .comment       0x0000000000000000       0x34 build/obj/chdynamic.o
 .comment       0x0000000000000000       0x34 build/obj/chregistry.o
 .comment       0x0000000000000000       0x34 build/obj/chsem.o
 .comment       0x0000000000000000       0x34 build/obj/chmtx.o
 .comment       0x0000000000000000       0x34 build/obj/chcond.o
 .comment       0x0000000000000000       0x34 build/obj/chevents.o
 .comment       0x0000000000000000       0x34 build/obj/chmsg.o
 .comment       0x0000000000000000       0x34 build/obj/chmboxes.o
 .comment       0x0000000000000000       0x34 build/obj/chqueues.o
 .comment       0x0000000000000000       0x34 build/obj/chmemcore.o
 .comment       0x0000000000000000       0x34 build/obj/chheap.o
 .comment       0x0000000000000000       0x34 build/obj/chmempools.o
 .comment       0x0000000000000000       0x34 build/obj/test.o
 .comment       0x0000000000000000       0x34 build/obj/testthd.o
 .comment       0x0000000000000000       0x34 build/obj/testsem.o
 .comment       0x0000000000000000       0x34 build/obj/testmtx.o
 .comment       0x0000000000000000       0x34 build/obj/testmsg.o
 .comment       0x0000000000000000       0x34 build/obj/testmbox.o
 .comment       0x0000000000000000       0x34 build/obj/testevt.o
 .comment       0x0000000000000000       0x34 build/obj/testheap.o
 .comment       0x0000000000000000       0x34 build/obj/testpools.o
 .comment       0x0000000000000000       0x34 build/obj/testdyn.o
 .comment       0x0000000000000000       0x34 build/obj/testqueues.o
 .comment       0x0000000000000000       0x34 build/obj/testbmk.o
 .comment       0x0000000000000000       0x34 build/obj/hal.o
 .comment       0x0000000000000000       0x34 build/obj/mac.o
 .comment       0x0000000000000000       0x34 build/obj/mmcsd.o
 .comment       0x0000000000000000       0x34 build/obj/sdc.o
 .comment       0x0000000000000000       0x34 build/obj/serial.o
 .comment       0x0000000000000000       0x34 build/obj/serial_usb.o
 .comment       0x0000000000000000       0x34 build/obj/tm.o
 .comment       0x0000000000000000       0x34 build/obj/usb.o
 .comment       0x0000000000000000       0x34 build/obj/stm32_dma.o
 .comment       0x0000000000000000       0x34 build/obj/hal_lld.o
 .comment       0x0000000000000000       0x34 build/obj/mac_lld.o
 .comment       0x0000000000000000       0x34 build/obj/sdc_lld.o
 .comment       0x0000000000000000       0x34 build/obj/pal_lld.o
 .comment       0x0000000000000000       0x34 build/obj/usb_lld.o
 .comment       0x0000000000000000       0x34 build/obj/serial_lld.o
 .comment       0x0000000000000000       0x34 build/obj/board.o
 .comment       0x0000000000000000       0x34 build/obj/lwipthread.o
 .comment       0x0000000000000000       0x34 build/obj/sys_arch.o
 .comment       0x0000000000000000       0x34 build/obj/etharp.o
 .comment       0x0000000000000000       0x34 build/obj/init.o
 .comment       0x0000000000000000       0x34 build/obj/mem.o
 .comment       0x0000000000000000       0x34 build/obj/memp.o
 .comment       0x0000000000000000       0x34 build/obj/netif.o
 .comment       0x0000000000000000       0x34 build/obj/pbuf.o
 .comment       0x0000000000000000       0x34 build/obj/raw.o
 .comment       0x0000000000000000       0x34 build/obj/stats.o
 .comment       0x0000000000000000       0x34 build/obj/tcp.o
 .comment       0x0000000000000000       0x34 build/obj/tcp_in.o
 .comment       0x0000000000000000       0x34 build/obj/tcp_out.o
 .comment       0x0000000000000000       0x34 build/obj/udp.o
 .comment       0x0000000000000000       0x34 build/obj/icmp.o
 .comment       0x0000000000000000       0x34 build/obj/inet_chksum.o
 .comment       0x0000000000000000       0x34 build/obj/ip.o
 .comment       0x0000000000000000       0x34 build/obj/ip_addr.o
 .comment       0x0000000000000000       0x34 build/obj/ip_frag.o
 .comment       0x0000000000000000       0x34 build/obj/def.o
 .comment       0x0000000000000000       0x34 build/obj/timers.o
 .comment       0x0000000000000000       0x34 build/obj/api_lib.o
 .comment       0x0000000000000000       0x34 build/obj/api_msg.o
 .comment       0x0000000000000000       0x34 build/obj/netbuf.o
 .comment       0x0000000000000000       0x34 build/obj/sockets.o
 .comment       0x0000000000000000       0x34 build/obj/tcpip.o
 .comment       0x0000000000000000       0x34 build/obj/fatfs_diskio.o
 .comment       0x0000000000000000       0x34 build/obj/fatfs_syscall.o
 .comment       0x0000000000000000       0x34 build/obj/ff.o
 .comment       0x0000000000000000       0x34 build/obj/ccsbcs.o
 .comment       0x0000000000000000       0x34 build/obj/evtimer.o
 .comment       0x0000000000000000       0x34 build/obj/chprintf.o
 .comment       0x0000000000000000       0x34 build/obj/shell.o
 .comment       0x0000000000000000       0x34 build/obj/web.o
 .comment       0x0000000000000000       0x34 build/obj/main.o
 .comment       0x0000000000000000       0x34 /opt/psas/x-tools/stm32f407/arm-psas-eabi/bin/../lib/gcc/arm-psas-eabi/4.7.2/../../../../arm-psas-eabi/lib/libc.a(lib_a-memcpy-stub.o)
 .comment       0x0000000000000000       0x34 /opt/psas/x-tools/stm32f407/arm-psas-eabi/bin/../lib/gcc/arm-psas-eabi/4.7.2/../../../../arm-psas-eabi/lib/libc.a(lib_a-memset.o)
 .comment       0x0000000000000000       0x34 /opt/psas/x-tools/stm32f407/arm-psas-eabi/bin/../lib/gcc/arm-psas-eabi/4.7.2/../../../../arm-psas-eabi/lib/libc.a(lib_a-strcasecmp.o)
 .comment       0x0000000000000000       0x34 /opt/psas/x-tools/stm32f407/arm-psas-eabi/bin/../lib/gcc/arm-psas-eabi/4.7.2/../../../../arm-psas-eabi/lib/libc.a(lib_a-strchr.o)
 .comment       0x0000000000000000       0x34 /opt/psas/x-tools/stm32f407/arm-psas-eabi/bin/../lib/gcc/arm-psas-eabi/4.7.2/../../../../arm-psas-eabi/lib/libc.a(lib_a-strcpy.o)
 .comment       0x0000000000000000       0x34 /opt/psas/x-tools/stm32f407/arm-psas-eabi/bin/../lib/gcc/arm-psas-eabi/4.7.2/../../../../arm-psas-eabi/lib/libc.a(lib_a-strlen.o)
 .comment       0x0000000000000000       0x34 /opt/psas/x-tools/stm32f407/arm-psas-eabi/bin/../lib/gcc/arm-psas-eabi/4.7.2/../../../../arm-psas-eabi/lib/libc.a(lib_a-strspn.o)
 .comment       0x0000000000000000       0x34 /opt/psas/x-tools/stm32f407/arm-psas-eabi/bin/../lib/gcc/arm-psas-eabi/4.7.2/../../../../arm-psas-eabi/lib/libc.a(lib_a-ctype_.o)

.ARM.attributes
                0x0000000000000000       0x3b
 .ARM.attributes
                0x0000000000000000       0x3b build/obj/crt0.o
 .ARM.attributes
                0x000000000000003b       0x3b build/obj/vectors.o
 .ARM.attributes
                0x0000000000000076       0x3b build/obj/chcore.o
 .ARM.attributes
                0x00000000000000b1       0x3b build/obj/chcore_v7m.o
 .ARM.attributes
                0x00000000000000ec       0x3b build/obj/nvic.o
 .ARM.attributes
                0x0000000000000127       0x3b build/obj/chsys.o
 .ARM.attributes
                0x0000000000000162       0x3b build/obj/chvt.o
 .ARM.attributes
                0x000000000000019d       0x3b build/obj/chschd.o
 .ARM.attributes
                0x00000000000001d8       0x3b build/obj/chthreads.o
 .ARM.attributes
                0x0000000000000213       0x3b build/obj/chdynamic.o
 .ARM.attributes
                0x000000000000024e       0x3b build/obj/chregistry.o
 .ARM.attributes
                0x0000000000000289       0x3b build/obj/chsem.o
 .ARM.attributes
                0x00000000000002c4       0x3b build/obj/chmtx.o
 .ARM.attributes
                0x00000000000002ff       0x3b build/obj/chcond.o
 .ARM.attributes
                0x000000000000033a       0x3b build/obj/chevents.o
 .ARM.attributes
                0x0000000000000375       0x3b build/obj/chmsg.o
 .ARM.attributes
                0x00000000000003b0       0x3b build/obj/chmboxes.o
 .ARM.attributes
                0x00000000000003eb       0x3b build/obj/chqueues.o
 .ARM.attributes
                0x0000000000000426       0x3b build/obj/chmemcore.o
 .ARM.attributes
                0x0000000000000461       0x3b build/obj/chheap.o
 .ARM.attributes
                0x000000000000049c       0x3b build/obj/chmempools.o
 .ARM.attributes
                0x00000000000004d7       0x3b build/obj/test.o
 .ARM.attributes
                0x0000000000000512       0x3b build/obj/testthd.o
 .ARM.attributes
                0x000000000000054d       0x3b build/obj/testsem.o
 .ARM.attributes
                0x0000000000000588       0x3b build/obj/testmtx.o
 .ARM.attributes
                0x00000000000005c3       0x3b build/obj/testmsg.o
 .ARM.attributes
                0x00000000000005fe       0x3b build/obj/testmbox.o
 .ARM.attributes
                0x0000000000000639       0x3b build/obj/testevt.o
 .ARM.attributes
                0x0000000000000674       0x3b build/obj/testheap.o
 .ARM.attributes
                0x00000000000006af       0x3b build/obj/testpools.o
 .ARM.attributes
                0x00000000000006ea       0x3b build/obj/testdyn.o
 .ARM.attributes
                0x0000000000000725       0x3b build/obj/testqueues.o
 .ARM.attributes
                0x0000000000000760       0x3b build/obj/testbmk.o
 .ARM.attributes
                0x000000000000079b       0x3b build/obj/hal.o
 .ARM.attributes
                0x00000000000007d6       0x3b build/obj/mac.o
 .ARM.attributes
                0x0000000000000811       0x3b build/obj/mmcsd.o
 .ARM.attributes
                0x000000000000084c       0x3b build/obj/sdc.o
 .ARM.attributes
                0x0000000000000887       0x3b build/obj/serial.o
 .ARM.attributes
                0x00000000000008c2       0x3b build/obj/serial_usb.o
 .ARM.attributes
                0x00000000000008fd       0x3b build/obj/tm.o
 .ARM.attributes
                0x0000000000000938       0x3b build/obj/usb.o
 .ARM.attributes
                0x0000000000000973       0x3b build/obj/stm32_dma.o
 .ARM.attributes
                0x00000000000009ae       0x3b build/obj/hal_lld.o
 .ARM.attributes
                0x00000000000009e9       0x3b build/obj/mac_lld.o
 .ARM.attributes
                0x0000000000000a24       0x3b build/obj/sdc_lld.o
 .ARM.attributes
                0x0000000000000a5f       0x3b build/obj/pal_lld.o
 .ARM.attributes
                0x0000000000000a9a       0x3b build/obj/usb_lld.o
 .ARM.attributes
                0x0000000000000ad5       0x3b build/obj/serial_lld.o
 .ARM.attributes
                0x0000000000000b10       0x3b build/obj/board.o
 .ARM.attributes
                0x0000000000000b4b       0x3b build/obj/lwipthread.o
 .ARM.attributes
                0x0000000000000b86       0x3b build/obj/sys_arch.o
 .ARM.attributes
                0x0000000000000bc1       0x3b build/obj/etharp.o
 .ARM.attributes
                0x0000000000000bfc       0x3b build/obj/init.o
 .ARM.attributes
                0x0000000000000c37       0x3b build/obj/mem.o
 .ARM.attributes
                0x0000000000000c72       0x3b build/obj/memp.o
 .ARM.attributes
                0x0000000000000cad       0x3b build/obj/netif.o
 .ARM.attributes
                0x0000000000000ce8       0x3b build/obj/pbuf.o
 .ARM.attributes
                0x0000000000000d23       0x3b build/obj/raw.o
 .ARM.attributes
                0x0000000000000d5e       0x3b build/obj/stats.o
 .ARM.attributes
                0x0000000000000d99       0x3b build/obj/tcp.o
 .ARM.attributes
                0x0000000000000dd4       0x3b build/obj/tcp_in.o
 .ARM.attributes
                0x0000000000000e0f       0x3b build/obj/tcp_out.o
 .ARM.attributes
                0x0000000000000e4a       0x3b build/obj/udp.o
 .ARM.attributes
                0x0000000000000e85       0x3b build/obj/icmp.o
 .ARM.attributes
                0x0000000000000ec0       0x3b build/obj/inet_chksum.o
 .ARM.attributes
                0x0000000000000efb       0x3b build/obj/ip.o
 .ARM.attributes
                0x0000000000000f36       0x3b build/obj/ip_addr.o
 .ARM.attributes
                0x0000000000000f71       0x3b build/obj/ip_frag.o
 .ARM.attributes
                0x0000000000000fac       0x3b build/obj/def.o
 .ARM.attributes
                0x0000000000000fe7       0x3b build/obj/timers.o
 .ARM.attributes
                0x0000000000001022       0x3b build/obj/api_lib.o
 .ARM.attributes
                0x000000000000105d       0x3b build/obj/api_msg.o
 .ARM.attributes
                0x0000000000001098       0x3b build/obj/netbuf.o
 .ARM.attributes
                0x00000000000010d3       0x3b build/obj/sockets.o
 .ARM.attributes
                0x000000000000110e       0x3b build/obj/tcpip.o
 .ARM.attributes
                0x0000000000001149       0x3b build/obj/fatfs_diskio.o
 .ARM.attributes
                0x0000000000001184       0x3b build/obj/fatfs_syscall.o
 .ARM.attributes
                0x00000000000011bf       0x3b build/obj/ff.o
 .ARM.attributes
                0x00000000000011fa       0x3b build/obj/ccsbcs.o
 .ARM.attributes
                0x0000000000001235       0x3b build/obj/evtimer.o
 .ARM.attributes
                0x0000000000001270       0x3b build/obj/chprintf.o
 .ARM.attributes
                0x00000000000012ab       0x3b build/obj/shell.o
 .ARM.attributes
                0x00000000000012e6       0x3b build/obj/web.o
 .ARM.attributes
                0x0000000000001321       0x3b build/obj/main.o
 .ARM.attributes
                0x000000000000135c       0x3b /opt/psas/x-tools/stm32f407/arm-psas-eabi/bin/../lib/gcc/arm-psas-eabi/4.7.2/../../../../arm-psas-eabi/lib/libc.a(lib_a-memcpy-stub.o)
 .ARM.attributes
                0x0000000000001397       0x3b /opt/psas/x-tools/stm32f407/arm-psas-eabi/bin/../lib/gcc/arm-psas-eabi/4.7.2/../../../../arm-psas-eabi/lib/libc.a(lib_a-memset.o)
 .ARM.attributes
                0x00000000000013d2       0x3b /opt/psas/x-tools/stm32f407/arm-psas-eabi/bin/../lib/gcc/arm-psas-eabi/4.7.2/../../../../arm-psas-eabi/lib/libc.a(lib_a-strcasecmp.o)
 .ARM.attributes
                0x000000000000140d       0x3b /opt/psas/x-tools/stm32f407/arm-psas-eabi/bin/../lib/gcc/arm-psas-eabi/4.7.2/../../../../arm-psas-eabi/lib/libc.a(lib_a-strchr.o)
 .ARM.attributes
                0x0000000000001448       0x3b /opt/psas/x-tools/stm32f407/arm-psas-eabi/bin/../lib/gcc/arm-psas-eabi/4.7.2/../../../../arm-psas-eabi/lib/libc.a(lib_a-strcpy.o)
 .ARM.attributes
                0x0000000000001483       0x3b /opt/psas/x-tools/stm32f407/arm-psas-eabi/bin/../lib/gcc/arm-psas-eabi/4.7.2/../../../../arm-psas-eabi/lib/libc.a(lib_a-strlen.o)
 .ARM.attributes
                0x00000000000014be       0x3b /opt/psas/x-tools/stm32f407/arm-psas-eabi/bin/../lib/gcc/arm-psas-eabi/4.7.2/../../../../arm-psas-eabi/lib/libc.a(lib_a-strspn.o)
 .ARM.attributes
                0x00000000000014f9       0x3b /opt/psas/x-tools/stm32f407/arm-psas-eabi/bin/../lib/gcc/arm-psas-eabi/4.7.2/../../../../arm-psas-eabi/lib/libc.a(lib_a-ctype_.o)

.debug_frame    0x0000000000000000     0x5ca8
 .debug_frame   0x0000000000000000       0x50 build/obj/crt0.o
 .debug_frame   0x0000000000000050       0x20 build/obj/vectors.o
 .debug_frame   0x0000000000000070       0x20 build/obj/chcore.o
 .debug_frame   0x0000000000000090       0x98 build/obj/chcore_v7m.o
 .debug_frame   0x0000000000000128       0x64 build/obj/nvic.o
 .debug_frame   0x000000000000018c       0x5c build/obj/chsys.o
 .debug_frame   0x00000000000001e8       0x5c build/obj/chvt.o
 .debug_frame   0x0000000000000244       0xf0 build/obj/chschd.o
 .debug_frame   0x0000000000000334      0x160 build/obj/chthreads.o
 .debug_frame   0x0000000000000494       0x80 build/obj/chdynamic.o
 .debug_frame   0x0000000000000514       0x3c build/obj/chregistry.o
 .debug_frame   0x0000000000000550      0x130 build/obj/chsem.o
 .debug_frame   0x0000000000000680       0xe4 build/obj/chmtx.o
 .debug_frame   0x0000000000000764      0x11c build/obj/chcond.o
 .debug_frame   0x0000000000000880      0x1e0 build/obj/chevents.o
 .debug_frame   0x0000000000000a60       0x68 build/obj/chmsg.o
 .debug_frame   0x0000000000000ac8      0x154 build/obj/chmboxes.o
 .debug_frame   0x0000000000000c1c      0x170 build/obj/chqueues.o
 .debug_frame   0x0000000000000d8c       0x50 build/obj/chmemcore.o
 .debug_frame   0x0000000000000ddc       0x98 build/obj/chheap.o
 .debug_frame   0x0000000000000e74       0x90 build/obj/chmempools.o
 .debug_frame   0x0000000000000f04      0x1e0 build/obj/test.o
 .debug_frame   0x00000000000010e4       0xc4 build/obj/testthd.o
 .debug_frame   0x00000000000011a8      0x138 build/obj/testsem.o
 .debug_frame   0x00000000000012e0      0x398 build/obj/testmtx.o
 .debug_frame   0x0000000000001678       0x48 build/obj/testmsg.o
 .debug_frame   0x00000000000016c0       0x48 build/obj/testmbox.o
 .debug_frame   0x0000000000001708      0x108 build/obj/testevt.o
 .debug_frame   0x0000000000001810       0x44 build/obj/testheap.o
 .debug_frame   0x0000000000001854       0x50 build/obj/testpools.o
 .debug_frame   0x00000000000018a4       0xdc build/obj/testdyn.o
 .debug_frame   0x0000000000001980       0xe0 build/obj/testqueues.o
 .debug_frame   0x0000000000001a60      0x2b8 build/obj/testbmk.o
 .debug_frame   0x0000000000001d18       0x54 build/obj/hal.o
 .debug_frame   0x0000000000001d6c      0x100 build/obj/mac.o
 .debug_frame   0x0000000000001e6c       0x20 build/obj/mmcsd.o
 .debug_frame   0x0000000000001e8c      0x160 build/obj/sdc.o
 .debug_frame   0x0000000000001fec      0x13c build/obj/serial.o
 .debug_frame   0x0000000000002128      0x1a4 build/obj/serial_usb.o
 .debug_frame   0x00000000000022cc       0x64 build/obj/tm.o
 .debug_frame   0x0000000000002330      0x208 build/obj/usb.o
 .debug_frame   0x0000000000002538      0x230 build/obj/stm32_dma.o
 .debug_frame   0x0000000000002768       0x3c build/obj/hal_lld.o
 .debug_frame   0x00000000000027a4      0x15c build/obj/mac_lld.o
 .debug_frame   0x0000000000002900      0x23c build/obj/sdc_lld.o
 .debug_frame   0x0000000000002b3c       0x4c build/obj/pal_lld.o
 .debug_frame   0x0000000000002b88      0x268 build/obj/usb_lld.o
 .debug_frame   0x0000000000002df0       0x94 build/obj/serial_lld.o
 .debug_frame   0x0000000000002e84       0x50 build/obj/board.o
 .debug_frame   0x0000000000002ed4       0x68 build/obj/lwipthread.o
 .debug_frame   0x0000000000002f3c      0x1bc build/obj/sys_arch.o
 .debug_frame   0x00000000000030f8      0x168 build/obj/etharp.o
 .debug_frame   0x0000000000003260       0x2c build/obj/init.o
 .debug_frame   0x000000000000328c       0xd4 build/obj/mem.o
 .debug_frame   0x0000000000003360       0x7c build/obj/memp.o
 .debug_frame   0x00000000000033dc      0x120 build/obj/netif.o
 .debug_frame   0x00000000000034fc      0x29c build/obj/pbuf.o
 .debug_frame   0x0000000000003798       0xd4 build/obj/raw.o
 .debug_frame   0x000000000000386c       0x20 build/obj/stats.o
 .debug_frame   0x000000000000388c      0x388 build/obj/tcp.o
 .debug_frame   0x0000000000003c14       0xc8 build/obj/tcp_in.o
 .debug_frame   0x0000000000003cdc      0x244 build/obj/tcp_out.o
 .debug_frame   0x0000000000003f20      0x140 build/obj/udp.o
 .debug_frame   0x0000000000004060       0x90 build/obj/icmp.o
 .debug_frame   0x00000000000040f0       0xcc build/obj/inet_chksum.o
 .debug_frame   0x00000000000041bc       0xb8 build/obj/ip.o
 .debug_frame   0x0000000000004274       0xc0 build/obj/ip_addr.o
 .debug_frame   0x0000000000004334      0x128 build/obj/ip_frag.o
 .debug_frame   0x000000000000445c       0x50 build/obj/def.o
 .debug_frame   0x00000000000044ac       0xf8 build/obj/timers.o
 .debug_frame   0x00000000000045a4      0x210 build/obj/api_lib.o
 .debug_frame   0x00000000000047b4      0x370 build/obj/api_msg.o
 .debug_frame   0x0000000000004b24      0x10c build/obj/netbuf.o
 .debug_frame   0x0000000000004c30      0x38c build/obj/sockets.o
 .debug_frame   0x0000000000004fbc      0x124 build/obj/tcpip.o
 .debug_frame   0x00000000000050e0       0xa0 build/obj/fatfs_diskio.o
 .debug_frame   0x0000000000005180       0x94 build/obj/fatfs_syscall.o
 .debug_frame   0x0000000000005214      0x5cc build/obj/ff.o
 .debug_frame   0x00000000000057e0       0x38 build/obj/ccsbcs.o
 .debug_frame   0x0000000000005818       0x64 build/obj/evtimer.o
 .debug_frame   0x000000000000587c       0x70 build/obj/chprintf.o
 .debug_frame   0x00000000000058ec       0xf8 build/obj/shell.o
 .debug_frame   0x00000000000059e4       0x34 build/obj/web.o
 .debug_frame   0x0000000000005a18      0x190 build/obj/main.o
 .debug_frame   0x0000000000005ba8       0x28 /opt/psas/x-tools/stm32f407/arm-psas-eabi/bin/../lib/gcc/arm-psas-eabi/4.7.2/../../../../arm-psas-eabi/lib/libc.a(lib_a-memcpy-stub.o)
 .debug_frame   0x0000000000005bd0       0x20 /opt/psas/x-tools/stm32f407/arm-psas-eabi/bin/../lib/gcc/arm-psas-eabi/4.7.2/../../../../arm-psas-eabi/lib/libc.a(lib_a-memset.o)
 .debug_frame   0x0000000000005bf0       0x2c /opt/psas/x-tools/stm32f407/arm-psas-eabi/bin/../lib/gcc/arm-psas-eabi/4.7.2/../../../../arm-psas-eabi/lib/libc.a(lib_a-strcasecmp.o)
 .debug_frame   0x0000000000005c1c       0x20 /opt/psas/x-tools/stm32f407/arm-psas-eabi/bin/../lib/gcc/arm-psas-eabi/4.7.2/../../../../arm-psas-eabi/lib/libc.a(lib_a-strchr.o)
 .debug_frame   0x0000000000005c3c       0x20 /opt/psas/x-tools/stm32f407/arm-psas-eabi/bin/../lib/gcc/arm-psas-eabi/4.7.2/../../../../arm-psas-eabi/lib/libc.a(lib_a-strcpy.o)
 .debug_frame   0x0000000000005c5c       0x20 /opt/psas/x-tools/stm32f407/arm-psas-eabi/bin/../lib/gcc/arm-psas-eabi/4.7.2/../../../../arm-psas-eabi/lib/libc.a(lib_a-strlen.o)
 .debug_frame   0x0000000000005c7c       0x2c /opt/psas/x-tools/stm32f407/arm-psas-eabi/bin/../lib/gcc/arm-psas-eabi/4.7.2/../../../../arm-psas-eabi/lib/libc.a(lib_a-strspn.o)

.debug_loc      0x0000000000000000    0x225b4
 .debug_loc     0x0000000000000000      0x10c build/obj/chcore_v7m.o
 .debug_loc     0x000000000000010c      0x1ca build/obj/nvic.o
 .debug_loc     0x00000000000002d6       0xb6 build/obj/chsys.o
 .debug_loc     0x000000000000038c       0xc1 build/obj/chvt.o
 .debug_loc     0x000000000000044d      0x327 build/obj/chschd.o
 .debug_loc     0x0000000000000774      0x526 build/obj/chthreads.o
 .debug_loc     0x0000000000000c9a      0x2fa build/obj/chdynamic.o
 .debug_loc     0x0000000000000f94       0xb7 build/obj/chregistry.o
 .debug_loc     0x000000000000104b      0x6b2 build/obj/chsem.o
 .debug_loc     0x00000000000016fd      0x474 build/obj/chmtx.o
 .debug_loc     0x0000000000001b71      0x488 build/obj/chcond.o
 .debug_loc     0x0000000000001ff9      0x8c3 build/obj/chevents.o
 .debug_loc     0x00000000000028bc      0x1b9 build/obj/chmsg.o
 .debug_loc     0x0000000000002a75      0x67f build/obj/chmboxes.o
 .debug_loc     0x00000000000030f4      0x8c4 build/obj/chqueues.o
 .debug_loc     0x00000000000039b8      0x114 build/obj/chmemcore.o
 .debug_loc     0x0000000000003acc      0x370 build/obj/chheap.o
 .debug_loc     0x0000000000003e3c      0x27c build/obj/chmempools.o
 .debug_loc     0x00000000000040b8      0x72c build/obj/test.o
 .debug_loc     0x00000000000047e4      0x1dc build/obj/testthd.o
 .debug_loc     0x00000000000049c0      0x2f2 build/obj/testsem.o
 .debug_loc     0x0000000000004cb2      0x611 build/obj/testmtx.o
 .debug_loc     0x00000000000052c3       0x93 build/obj/testmsg.o
 .debug_loc     0x0000000000005356      0x5f2 build/obj/testmbox.o
 .debug_loc     0x0000000000005948      0x2ca build/obj/testevt.o
 .debug_loc     0x0000000000005c12      0x1b9 build/obj/testheap.o
 .debug_loc     0x0000000000005dcb       0x55 build/obj/testpools.o
 .debug_loc     0x0000000000005e20      0x1a3 build/obj/testdyn.o
 .debug_loc     0x0000000000005fc3      0x71b build/obj/testqueues.o
 .debug_loc     0x00000000000066de      0x5ab build/obj/testbmk.o
 .debug_loc     0x0000000000006c89       0x98 build/obj/hal.o
 .debug_loc     0x0000000000006d21      0x37e build/obj/mac.o
 .debug_loc     0x000000000000709f      0x206 build/obj/mmcsd.o
 .debug_loc     0x00000000000072a5      0x5df build/obj/sdc.o
 .debug_loc     0x0000000000007884      0x587 build/obj/serial.o
 .debug_loc     0x0000000000007e0b      0x811 build/obj/serial_usb.o
 .debug_loc     0x000000000000861c       0xb9 build/obj/tm.o
 .debug_loc     0x00000000000086d5      0xd11 build/obj/usb.o
 .debug_loc     0x00000000000093e6      0x4b1 build/obj/stm32_dma.o
 .debug_loc     0x0000000000009897       0x20 build/obj/hal_lld.o
 .debug_loc     0x00000000000098b7      0x65d build/obj/mac_lld.o
 .debug_loc     0x0000000000009f14      0xc27 build/obj/sdc_lld.o
 .debug_loc     0x000000000000ab3b      0x15d build/obj/pal_lld.o
 .debug_loc     0x000000000000ac98     0x10a6 build/obj/usb_lld.o
 .debug_loc     0x000000000000bd3e      0x2e1 build/obj/serial_lld.o
 .debug_loc     0x000000000000c01f       0x5b build/obj/board.o
 .debug_loc     0x000000000000c07a      0x221 build/obj/lwipthread.o
 .debug_loc     0x000000000000c29b      0x5b3 build/obj/sys_arch.o
 .debug_loc     0x000000000000c84e      0xd6d build/obj/etharp.o
 .debug_loc     0x000000000000d5bb       0x20 build/obj/init.o
 .debug_loc     0x000000000000d5db      0x510 build/obj/mem.o
 .debug_loc     0x000000000000daeb      0x201 build/obj/memp.o
 .debug_loc     0x000000000000dcec      0x44c build/obj/netif.o
 .debug_loc     0x000000000000e138     0x15ca build/obj/pbuf.o
 .debug_loc     0x000000000000f702      0x43c build/obj/raw.o
 .debug_loc     0x000000000000fb3e     0x1293 build/obj/tcp.o
 .debug_loc     0x0000000000010dd1      0xbdf build/obj/tcp_in.o
 .debug_loc     0x00000000000119b0     0x16a6 build/obj/tcp_out.o
 .debug_loc     0x0000000000013056      0x8ee build/obj/udp.o
 .debug_loc     0x0000000000013944      0x31f build/obj/icmp.o
 .debug_loc     0x0000000000013c63      0x834 build/obj/inet_chksum.o
 .debug_loc     0x0000000000014497      0x4b4 build/obj/ip.o
 .debug_loc     0x000000000001494b      0x582 build/obj/ip_addr.o
 .debug_loc     0x0000000000014ecd      0xe32 build/obj/ip_frag.o
 .debug_loc     0x0000000000015cff       0x84 build/obj/def.o
 .debug_loc     0x0000000000015d83      0x30c build/obj/timers.o
 .debug_loc     0x000000000001608f      0xe65 build/obj/api_lib.o
 .debug_loc     0x0000000000016ef4     0x1329 build/obj/api_msg.o
 .debug_loc     0x000000000001821d      0x426 build/obj/netbuf.o
 .debug_loc     0x0000000000018643     0x24a4 build/obj/sockets.o
 .debug_loc     0x000000000001aae7      0x42e build/obj/tcpip.o
 .debug_loc     0x000000000001af15      0x2f4 build/obj/fatfs_diskio.o
 .debug_loc     0x000000000001b209      0x165 build/obj/fatfs_syscall.o
 .debug_loc     0x000000000001b36e     0x540c build/obj/ff.o
 .debug_loc     0x000000000002077a      0x122 build/obj/ccsbcs.o
 .debug_loc     0x000000000002089c      0x163 build/obj/evtimer.o
 .debug_loc     0x00000000000209ff      0x753 build/obj/chprintf.o
 .debug_loc     0x0000000000021152      0x753 build/obj/shell.o
 .debug_loc     0x00000000000218a5      0x12b build/obj/web.o
 .debug_loc     0x00000000000219d0      0x897 build/obj/main.o
 .debug_loc     0x0000000000022267       0x59 /opt/psas/x-tools/stm32f407/arm-psas-eabi/bin/../lib/gcc/arm-psas-eabi/4.7.2/../../../../arm-psas-eabi/lib/libc.a(lib_a-memcpy-stub.o)
 .debug_loc     0x00000000000222c0       0x3f /opt/psas/x-tools/stm32f407/arm-psas-eabi/bin/../lib/gcc/arm-psas-eabi/4.7.2/../../../../arm-psas-eabi/lib/libc.a(lib_a-memset.o)
 .debug_loc     0x00000000000222ff      0x17b /opt/psas/x-tools/stm32f407/arm-psas-eabi/bin/../lib/gcc/arm-psas-eabi/4.7.2/../../../../arm-psas-eabi/lib/libc.a(lib_a-strcasecmp.o)
 .debug_loc     0x000000000002247a       0x78 /opt/psas/x-tools/stm32f407/arm-psas-eabi/bin/../lib/gcc/arm-psas-eabi/4.7.2/../../../../arm-psas-eabi/lib/libc.a(lib_a-strchr.o)
 .debug_loc     0x00000000000224f2       0x21 /opt/psas/x-tools/stm32f407/arm-psas-eabi/bin/../lib/gcc/arm-psas-eabi/4.7.2/../../../../arm-psas-eabi/lib/libc.a(lib_a-strcpy.o)
 .debug_loc     0x0000000000022513       0x21 /opt/psas/x-tools/stm32f407/arm-psas-eabi/bin/../lib/gcc/arm-psas-eabi/4.7.2/../../../../arm-psas-eabi/lib/libc.a(lib_a-strlen.o)
 .debug_loc     0x0000000000022534       0x80 /opt/psas/x-tools/stm32f407/arm-psas-eabi/bin/../lib/gcc/arm-psas-eabi/4.7.2/../../../../arm-psas-eabi/lib/libc.a(lib_a-strspn.o)

Cross Reference Table

Symbol                                            File
BusFaultVector                                    build/obj/vectors.o
DebugMonitorVector                                build/obj/vectors.o
ETHD1                                             build/obj/mac_lld.o
                                                  build/obj/lwipthread.o
HardFaultVector                                   build/obj/vectors.o
MemManageVector                                   build/obj/vectors.o
NMIVector                                         build/obj/vectors.o
PendSVVector                                      build/obj/vectors.o
ResetHandler                                      build/obj/crt0.o
                                                  build/obj/vectors.o
SD6                                               build/obj/serial_lld.o
                                                  build/obj/main.o
SDCD1                                             build/obj/sdc_lld.o
                                                  build/obj/main.o
                                                  build/obj/fatfs_diskio.o
SVCallVector                                      build/obj/chcore_v7m.o
                                                  build/obj/vectors.o
SysTickVector                                     build/obj/chcore_v7m.o
                                                  build/obj/vectors.o
TestThread                                        build/obj/test.o
                                                  build/obj/main.o
USBD1                                             build/obj/usb_lld.o
                                                  build/obj/main.o
UsageFaultVector                                  build/obj/vectors.o
Vector100                                         build/obj/vectors.o
Vector104                                         build/obj/sdc_lld.o
                                                  build/obj/vectors.o
Vector108                                         build/obj/vectors.o
Vector10C                                         build/obj/vectors.o
Vector110                                         build/obj/vectors.o
Vector114                                         build/obj/vectors.o
Vector118                                         build/obj/vectors.o
Vector11C                                         build/obj/vectors.o
Vector120                                         build/obj/stm32_dma.o
                                                  build/obj/vectors.o
Vector124                                         build/obj/stm32_dma.o
                                                  build/obj/vectors.o
Vector128                                         build/obj/stm32_dma.o
                                                  build/obj/vectors.o
Vector12C                                         build/obj/stm32_dma.o
                                                  build/obj/vectors.o
Vector130                                         build/obj/stm32_dma.o
                                                  build/obj/vectors.o
Vector134                                         build/obj/mac_lld.o
                                                  build/obj/vectors.o
Vector138                                         build/obj/vectors.o
Vector13C                                         build/obj/vectors.o
Vector140                                         build/obj/vectors.o
Vector144                                         build/obj/vectors.o
Vector148                                         build/obj/vectors.o
Vector14C                                         build/obj/usb_lld.o
                                                  build/obj/vectors.o
Vector150                                         build/obj/stm32_dma.o
                                                  build/obj/vectors.o
Vector154                                         build/obj/stm32_dma.o
                                                  build/obj/vectors.o
Vector158                                         build/obj/stm32_dma.o
                                                  build/obj/vectors.o
Vector15C                                         build/obj/serial_lld.o
                                                  build/obj/vectors.o
Vector160                                         build/obj/vectors.o
Vector164                                         build/obj/vectors.o
Vector168                                         build/obj/vectors.o
Vector16C                                         build/obj/vectors.o
Vector170                                         build/obj/vectors.o
Vector174                                         build/obj/vectors.o
Vector178                                         build/obj/vectors.o
Vector17C                                         build/obj/vectors.o
Vector180                                         build/obj/vectors.o
Vector184                                         build/obj/vectors.o
Vector1C                                          build/obj/vectors.o
Vector20                                          build/obj/vectors.o
Vector24                                          build/obj/vectors.o
Vector28                                          build/obj/vectors.o
Vector34                                          build/obj/vectors.o
Vector40                                          build/obj/vectors.o
Vector44                                          build/obj/vectors.o
Vector48                                          build/obj/vectors.o
Vector4C                                          build/obj/vectors.o
Vector50                                          build/obj/vectors.o
Vector54                                          build/obj/vectors.o
Vector58                                          build/obj/vectors.o
Vector5C                                          build/obj/vectors.o
Vector60                                          build/obj/vectors.o
Vector64                                          build/obj/vectors.o
Vector68                                          build/obj/vectors.o
Vector6C                                          build/obj/stm32_dma.o
                                                  build/obj/vectors.o
Vector70                                          build/obj/stm32_dma.o
                                                  build/obj/vectors.o
Vector74                                          build/obj/stm32_dma.o
                                                  build/obj/vectors.o
Vector78                                          build/obj/stm32_dma.o
                                                  build/obj/vectors.o
Vector7C                                          build/obj/stm32_dma.o
                                                  build/obj/vectors.o
Vector80                                          build/obj/stm32_dma.o
                                                  build/obj/vectors.o
Vector84                                          build/obj/stm32_dma.o
                                                  build/obj/vectors.o
Vector88                                          build/obj/vectors.o
Vector8C                                          build/obj/vectors.o
Vector90                                          build/obj/vectors.o
Vector94                                          build/obj/vectors.o
Vector98                                          build/obj/vectors.o
Vector9C                                          build/obj/vectors.o
VectorA0                                          build/obj/vectors.o
VectorA4                                          build/obj/vectors.o
VectorA8                                          build/obj/vectors.o
VectorAC                                          build/obj/vectors.o
VectorB0                                          build/obj/vectors.o
VectorB4                                          build/obj/vectors.o
VectorB8                                          build/obj/vectors.o
VectorBC                                          build/obj/vectors.o
VectorC0                                          build/obj/vectors.o
VectorC4                                          build/obj/vectors.o
VectorC8                                          build/obj/vectors.o
VectorCC                                          build/obj/vectors.o
VectorD0                                          build/obj/vectors.o
VectorD4                                          build/obj/vectors.o
VectorD8                                          build/obj/vectors.o
VectorDC                                          build/obj/vectors.o
VectorE0                                          build/obj/vectors.o
VectorE4                                          build/obj/vectors.o
VectorE8                                          build/obj/vectors.o
VectorEC                                          build/obj/vectors.o
VectorF0                                          build/obj/vectors.o
VectorF4                                          build/obj/vectors.o
VectorF8                                          build/obj/vectors.o
VectorFC                                          build/obj/stm32_dma.o
                                                  build/obj/vectors.o
__ctype_ptr__                                     /opt/psas/x-tools/stm32f407/arm-psas-eabi/bin/../lib/gcc/arm-psas-eabi/4.7.2/../../../../arm-psas-eabi/lib/libc.a(lib_a-ctype_.o)
                                                  /opt/psas/x-tools/stm32f407/arm-psas-eabi/bin/../lib/gcc/arm-psas-eabi/4.7.2/../../../../arm-psas-eabi/lib/libc.a(lib_a-strcasecmp.o)
__early_init                                      build/obj/board.o
                                                  build/obj/crt0.o
__fini_array_end                                  build/obj/crt0.o
__fini_array_start                                build/obj/crt0.o
__heap_base__                                     build/obj/chmemcore.o
__heap_end__                                      build/obj/chmemcore.o
__init_array_end                                  build/obj/crt0.o
__init_array_start                                build/obj/crt0.o
__late_init                                       build/obj/crt0.o
__main_stack_base__                               build/obj/crt0.o
__main_stack_end__                                build/obj/vectors.o
                                                  build/obj/crt0.o
__process_stack_base__                            build/obj/crt0.o
__process_stack_end__                             build/obj/crt0.o
_bss_end                                          build/obj/crt0.o
_bss_start                                        build/obj/crt0.o
_core_init                                        build/obj/chmemcore.o
                                                  build/obj/chsys.o
_ctype_                                           /opt/psas/x-tools/stm32f407/arm-psas-eabi/bin/../lib/gcc/arm-psas-eabi/4.7.2/../../../../arm-psas-eabi/lib/libc.a(lib_a-ctype_.o)
_data                                             build/obj/crt0.o
_default_exit                                     build/obj/crt0.o
_edata                                            build/obj/crt0.o
_heap_init                                        build/obj/chheap.o
                                                  build/obj/chsys.o
_idle_thread                                      build/obj/chsys.o
_idle_thread_wa                                   build/obj/chsys.o
_pal_lld_init                                     build/obj/pal_lld.o
                                                  build/obj/hal.o
_pal_lld_setgroupmode                             build/obj/pal_lld.o
                                                  build/obj/pal.o
_port_init                                        build/obj/chcore_v7m.o
                                                  build/obj/chsys.o
_port_irq_epilogue                                build/obj/chcore_v7m.o
                                                  build/obj/serial_lld.o
                                                  build/obj/usb_lld.o
                                                  build/obj/sdc_lld.o
                                                  build/obj/mac_lld.o
                                                  build/obj/stm32_dma.o
_port_switch                                      build/obj/chcore_v7m.o
                                                  build/obj/chschd.o
_port_switch_from_isr                             build/obj/chcore_v7m.o
_port_thread_start                                build/obj/chcore_v7m.o
                                                  build/obj/chthreads.o
_scheduler_init                                   build/obj/chschd.o
                                                  build/obj/chsys.o
_sdc_wait_for_transfer_state                      build/obj/sdc.o
                                                  build/obj/sdc_lld.o
_stm32_dma_streams                                build/obj/stm32_dma.o
                                                  build/obj/sdc_lld.o
_test_assert                                      build/obj/test.o
                                                  build/obj/testqueues.o
                                                  build/obj/testdyn.o
                                                  build/obj/testpools.o
                                                  build/obj/testheap.o
                                                  build/obj/testevt.o
                                                  build/obj/testmbox.o
                                                  build/obj/testmtx.o
                                                  build/obj/testsem.o
                                                  build/obj/testthd.o
_test_assert_sequence                             build/obj/test.o
                                                  build/obj/testqueues.o
                                                  build/obj/testdyn.o
                                                  build/obj/testevt.o
                                                  build/obj/testmbox.o
                                                  build/obj/testmsg.o
                                                  build/obj/testmtx.o
                                                  build/obj/testsem.o
                                                  build/obj/testthd.o
_test_assert_time_window                          build/obj/test.o
                                                  build/obj/testevt.o
                                                  build/obj/testmtx.o
                                                  build/obj/testsem.o
                                                  build/obj/testthd.o
_test_fail                                        build/obj/test.o
_textdata                                         build/obj/crt0.o
_thread_init                                      build/obj/chthreads.o
                                                  build/obj/chsys.o
_unhandled_exception                              build/obj/vectors.o
_usb_ep0in                                        build/obj/usb.o
                                                  build/obj/usb_lld.o
_usb_ep0out                                       build/obj/usb.o
                                                  build/obj/usb_lld.o
_usb_ep0setup                                     build/obj/usb.o
                                                  build/obj/usb_lld.o
_usb_reset                                        build/obj/usb.o
                                                  build/obj/usb_lld.o
_vectors                                          build/obj/vectors.o
_vt_init                                          build/obj/chvt.o
                                                  build/obj/chsys.o
boardInit                                         build/obj/board.o
                                                  build/obj/hal.o
chCondBroadcast                                   build/obj/chcond.o
                                                  build/obj/testmtx.o
chCondBroadcastI                                  build/obj/chcond.o
chCondInit                                        build/obj/chcond.o
                                                  build/obj/testmtx.o
chCondSignal                                      build/obj/chcond.o
                                                  build/obj/testmtx.o
chCondSignalI                                     build/obj/chcond.o
                                                  build/obj/testmtx.o
chCondWait                                        build/obj/chcond.o
                                                  build/obj/testmtx.o
chCondWaitS                                       build/obj/chcond.o
chCondWaitTimeout                                 build/obj/chcond.o
                                                  build/obj/testmtx.o
chCondWaitTimeoutS                                build/obj/chcond.o
chCoreAlloc                                       build/obj/chmemcore.o
                                                  build/obj/sys_arch.o
                                                  build/obj/chheap.o
chCoreAllocI                                      build/obj/chmemcore.o
chCoreStatus                                      build/obj/chmemcore.o
                                                  build/obj/main.o
                                                  build/obj/testheap.o
chEvtAddEvents                                    build/obj/chevents.o
                                                  build/obj/lwipthread.o
                                                  build/obj/testevt.o
chEvtBroadcastFlags                               build/obj/chevents.o
                                                  build/obj/testevt.o
chEvtBroadcastFlagsI                              build/obj/chevents.o
                                                  build/obj/main.o
                                                  build/obj/shell.o
                                                  build/obj/evtimer.o
                                                  build/obj/serial_lld.o
                                                  build/obj/mac_lld.o
                                                  build/obj/serial_usb.o
                                                  build/obj/serial.o
chEvtDispatch                                     build/obj/chevents.o
                                                  build/obj/main.o
                                                  build/obj/testevt.o
chEvtGetAndClearEvents                            build/obj/chevents.o
                                                  build/obj/testevt.o
chEvtGetAndClearFlags                             build/obj/chevents.o
chEvtGetAndClearFlagsI                            build/obj/chevents.o
chEvtRegisterMask                                 build/obj/chevents.o
                                                  build/obj/main.o
                                                  build/obj/lwipthread.o
                                                  build/obj/testevt.o
chEvtSignal                                       build/obj/chevents.o
                                                  build/obj/testevt.o
chEvtSignalI                                      build/obj/chevents.o
chEvtUnregister                                   build/obj/chevents.o
                                                  build/obj/testevt.o
chEvtWaitAll                                      build/obj/chevents.o
                                                  build/obj/testevt.o
chEvtWaitAllTimeout                               build/obj/chevents.o
                                                  build/obj/testevt.o
chEvtWaitAny                                      build/obj/chevents.o
                                                  build/obj/lwipthread.o
                                                  build/obj/testevt.o
chEvtWaitAnyTimeout                               build/obj/chevents.o
                                                  build/obj/testevt.o
chEvtWaitOne                                      build/obj/chevents.o
                                                  build/obj/testevt.o
chEvtWaitOneTimeout                               build/obj/chevents.o
                                                  build/obj/main.o
                                                  build/obj/testevt.o
chHeapAlloc                                       build/obj/chheap.o
                                                  build/obj/fatfs_syscall.o
                                                  build/obj/sys_arch.o
                                                  build/obj/testdyn.o
                                                  build/obj/testheap.o
                                                  build/obj/chdynamic.o
chHeapFree                                        build/obj/chheap.o
                                                  build/obj/fatfs_syscall.o
                                                  build/obj/sys_arch.o
                                                  build/obj/testdyn.o
                                                  build/obj/testheap.o
                                                  build/obj/chdynamic.o
chHeapInit                                        build/obj/chheap.o
                                                  build/obj/testdyn.o
                                                  build/obj/testheap.o
chHeapStatus                                      build/obj/chheap.o
                                                  build/obj/main.o
                                                  build/obj/testdyn.o
                                                  build/obj/testheap.o
chIQGetTimeout                                    build/obj/chqueues.o
                                                  build/obj/serial_usb.o
                                                  build/obj/serial.o
                                                  build/obj/testbmk.o
                                                  build/obj/testqueues.o
chIQInit                                          build/obj/chqueues.o
                                                  build/obj/serial_usb.o
                                                  build/obj/serial.o
                                                  build/obj/testbmk.o
                                                  build/obj/testqueues.o
chIQPutI                                          build/obj/chqueues.o
                                                  build/obj/serial.o
                                                  build/obj/testbmk.o
                                                  build/obj/testqueues.o
chIQReadTimeout                                   build/obj/chqueues.o
                                                  build/obj/serial_usb.o
                                                  build/obj/serial.o
                                                  build/obj/testqueues.o
chIQResetI                                        build/obj/chqueues.o
                                                  build/obj/serial_usb.o
                                                  build/obj/serial.o
                                                  build/obj/testqueues.o
chMBFetch                                         build/obj/chmboxes.o
                                                  build/obj/sys_arch.o
                                                  build/obj/testmbox.o
chMBFetchI                                        build/obj/chmboxes.o
                                                  build/obj/testmbox.o
chMBFetchS                                        build/obj/chmboxes.o
                                                  build/obj/sys_arch.o
chMBInit                                          build/obj/chmboxes.o
                                                  build/obj/sys_arch.o
                                                  build/obj/testmbox.o
chMBPost                                          build/obj/chmboxes.o
                                                  build/obj/sys_arch.o
                                                  build/obj/testmbox.o
chMBPostAhead                                     build/obj/chmboxes.o
                                                  build/obj/testmbox.o
chMBPostAheadI                                    build/obj/chmboxes.o
                                                  build/obj/testmbox.o
chMBPostAheadS                                    build/obj/chmboxes.o
chMBPostI                                         build/obj/chmboxes.o
                                                  build/obj/testmbox.o
chMBPostS                                         build/obj/chmboxes.o
chMBReset                                         build/obj/chmboxes.o
                                                  build/obj/sys_arch.o
                                                  build/obj/testmbox.o
chMsgRelease                                      build/obj/chmsg.o
                                                  build/obj/testbmk.o
                                                  build/obj/testmsg.o
chMsgSend                                         build/obj/chmsg.o
                                                  build/obj/testbmk.o
                                                  build/obj/testmsg.o
chMsgWait                                         build/obj/chmsg.o
                                                  build/obj/testbmk.o
                                                  build/obj/testmsg.o
chMtxInit                                         build/obj/chmtx.o
                                                  build/obj/testbmk.o
                                                  build/obj/testmtx.o
                                                  build/obj/chheap.o
chMtxLock                                         build/obj/chmtx.o
                                                  build/obj/testbmk.o
                                                  build/obj/testmtx.o
                                                  build/obj/chheap.o
chMtxLockS                                        build/obj/chmtx.o
                                                  build/obj/chcond.o
chMtxTryLock                                      build/obj/chmtx.o
                                                  build/obj/testmtx.o
chMtxTryLockS                                     build/obj/chmtx.o
chMtxUnlock                                       build/obj/chmtx.o
                                                  build/obj/testbmk.o
                                                  build/obj/testmtx.o
                                                  build/obj/chheap.o
chMtxUnlockAll                                    build/obj/chmtx.o
                                                  build/obj/testmtx.o
chMtxUnlockS                                      build/obj/chmtx.o
                                                  build/obj/testmtx.o
                                                  build/obj/chcond.o
chOQGetI                                          build/obj/chqueues.o
                                                  build/obj/serial_lld.o
                                                  build/obj/serial.o
                                                  build/obj/testqueues.o
chOQInit                                          build/obj/chqueues.o
                                                  build/obj/serial_usb.o
                                                  build/obj/serial.o
                                                  build/obj/testqueues.o
chOQPutTimeout                                    build/obj/chqueues.o
                                                  build/obj/serial_usb.o
                                                  build/obj/serial.o
                                                  build/obj/testqueues.o
chOQResetI                                        build/obj/chqueues.o
                                                  build/obj/serial_usb.o
                                                  build/obj/serial.o
                                                  build/obj/testqueues.o
chOQWriteTimeout                                  build/obj/chqueues.o
                                                  build/obj/serial_usb.o
                                                  build/obj/serial.o
                                                  build/obj/testqueues.o
chPoolAlloc                                       build/obj/chmempools.o
                                                  build/obj/testdyn.o
                                                  build/obj/testpools.o
                                                  build/obj/chdynamic.o
chPoolAllocI                                      build/obj/chmempools.o
chPoolFree                                        build/obj/chmempools.o
                                                  build/obj/testdyn.o
                                                  build/obj/testpools.o
                                                  build/obj/chdynamic.o
chPoolFreeI                                       build/obj/chmempools.o
chPoolInit                                        build/obj/chmempools.o
                                                  build/obj/testdyn.o
                                                  build/obj/testpools.o
chPoolLoadArray                                   build/obj/chmempools.o
                                                  build/obj/testpools.o
chRegFirstThread                                  build/obj/chregistry.o
                                                  build/obj/main.o
                                                  build/obj/testdyn.o
chRegNextThread                                   build/obj/chregistry.o
                                                  build/obj/main.o
                                                  build/obj/testdyn.o
chSchDoReschedule                                 build/obj/chschd.o
                                                  build/obj/chcore_v7m.o
chSchDoRescheduleAhead                            build/obj/chschd.o
chSchDoRescheduleBehind                           build/obj/chschd.o
                                                  build/obj/chthreads.o
chSchGoSleepS                                     build/obj/chschd.o
                                                  build/obj/usb_lld.o
                                                  build/obj/sdc_lld.o
                                                  build/obj/testbmk.o
                                                  build/obj/chmsg.o
                                                  build/obj/chevents.o
                                                  build/obj/chcond.o
                                                  build/obj/chmtx.o
                                                  build/obj/chsem.o
                                                  build/obj/chthreads.o
chSchGoSleepTimeoutS                              build/obj/chschd.o
                                                  build/obj/chqueues.o
                                                  build/obj/chevents.o
                                                  build/obj/chcond.o
                                                  build/obj/chsem.o
                                                  build/obj/chthreads.o
chSchReadyI                                       build/obj/chschd.o
                                                  build/obj/usb_lld.o
                                                  build/obj/sdc_lld.o
                                                  build/obj/chqueues.o
                                                  build/obj/chmsg.o
                                                  build/obj/chevents.o
                                                  build/obj/chcond.o
                                                  build/obj/chmtx.o
                                                  build/obj/chsem.o
                                                  build/obj/chthreads.o
chSchRescheduleS                                  build/obj/chschd.o
                                                  build/obj/usb_lld.o
                                                  build/obj/serial.o
                                                  build/obj/testmtx.o
                                                  build/obj/testsem.o
                                                  build/obj/chmboxes.o
                                                  build/obj/chevents.o
                                                  build/obj/chcond.o
                                                  build/obj/chmtx.o
                                                  build/obj/chsem.o
                                                  build/obj/chthreads.o
chSchWakeupS                                      build/obj/chschd.o
                                                  build/obj/testbmk.o
                                                  build/obj/chmsg.o
                                                  build/obj/chcond.o
                                                  build/obj/chmtx.o
                                                  build/obj/chsem.o
                                                  build/obj/chdynamic.o
                                                  build/obj/chthreads.o
chSemAddCounterI                                  build/obj/chsem.o
                                                  build/obj/testsem.o
chSemInit                                         build/obj/chsem.o
                                                  build/obj/fatfs_syscall.o
                                                  build/obj/sys_arch.o
                                                  build/obj/mac.o
                                                  build/obj/testbmk.o
                                                  build/obj/testsem.o
                                                  build/obj/chmboxes.o
chSemReset                                        build/obj/chsem.o
                                                  build/obj/fatfs_syscall.o
                                                  build/obj/testbmk.o
                                                  build/obj/testsem.o
chSemResetI                                       build/obj/chsem.o
                                                  build/obj/mac_lld.o
                                                  build/obj/chmboxes.o
chSemSignal                                       build/obj/chsem.o
                                                  build/obj/fatfs_syscall.o
                                                  build/obj/sys_arch.o
                                                  build/obj/testbmk.o
                                                  build/obj/testsem.o
chSemSignalI                                      build/obj/chsem.o
                                                  build/obj/testsem.o
                                                  build/obj/chmboxes.o
chSemSignalWait                                   build/obj/chsem.o
                                                  build/obj/testsem.o
chSemWait                                         build/obj/chsem.o
                                                  build/obj/testbmk.o
                                                  build/obj/testsem.o
chSemWaitS                                        build/obj/chsem.o
chSemWaitTimeout                                  build/obj/chsem.o
                                                  build/obj/fatfs_syscall.o
                                                  build/obj/testsem.o
chSemWaitTimeoutS                                 build/obj/chsem.o
                                                  build/obj/sys_arch.o
                                                  build/obj/mac.o
                                                  build/obj/chmboxes.o
chSysInit                                         build/obj/chsys.o
                                                  build/obj/main.o
chSysTimerHandlerI                                build/obj/chsys.o
                                                  build/obj/chcore_v7m.o
chThdAddRef                                       build/obj/chdynamic.o
                                                  build/obj/testdyn.o
chThdCreateFromHeap                               build/obj/chdynamic.o
                                                  build/obj/main.o
                                                  build/obj/shell.o
                                                  build/obj/testdyn.o
chThdCreateFromMemoryPool                         build/obj/chdynamic.o
                                                  build/obj/testdyn.o
chThdCreateI                                      build/obj/chthreads.o
                                                  build/obj/usb_lld.o
                                                  build/obj/testthd.o
                                                  build/obj/chdynamic.o
chThdCreateStatic                                 build/obj/chthreads.o
                                                  build/obj/main.o
                                                  build/obj/shell.o
                                                  build/obj/sys_arch.o
                                                  build/obj/testbmk.o
                                                  build/obj/testqueues.o
                                                  build/obj/testevt.o
                                                  build/obj/testmsg.o
                                                  build/obj/testmtx.o
                                                  build/obj/testsem.o
                                                  build/obj/testthd.o
                                                  build/obj/chsys.o
chThdExit                                         build/obj/chthreads.o
                                                  build/obj/chcore_v7m.o
chThdExitS                                        build/obj/chthreads.o
                                                  build/obj/shell.o
chThdRelease                                      build/obj/chdynamic.o
                                                  build/obj/main.o
                                                  build/obj/testdyn.o
                                                  build/obj/chregistry.o
                                                  build/obj/chthreads.o
chThdResume                                       build/obj/chthreads.o
                                                  build/obj/testthd.o
chThdSetPriority                                  build/obj/chthreads.o
                                                  build/obj/web.o
                                                  build/obj/lwipthread.o
                                                  build/obj/testthd.o
chThdSleep                                        build/obj/chthreads.o
                                                  build/obj/main.o
                                                  build/obj/sdc.o
                                                  build/obj/testbmk.o
                                                  build/obj/testdyn.o
                                                  build/obj/testevt.o
                                                  build/obj/testmtx.o
                                                  build/obj/testsem.o
                                                  build/obj/testthd.o
                                                  build/obj/test.o
chThdSleepUntil                                   build/obj/chthreads.o
                                                  build/obj/testthd.o
chThdTerminate                                    build/obj/chthreads.o
                                                  build/obj/test.o
chThdWait                                         build/obj/chthreads.o
                                                  build/obj/main.o
                                                  build/obj/testbmk.o
                                                  build/obj/test.o
chThdYield                                        build/obj/chthreads.o
                                                  build/obj/testbmk.o
chTimeIsWithin                                    build/obj/chvt.o
                                                  build/obj/test.o
chVTResetI                                        build/obj/chvt.o
                                                  build/obj/evtimer.o
                                                  build/obj/testbmk.o
                                                  build/obj/chschd.o
chVTSetI                                          build/obj/chvt.o
                                                  build/obj/main.o
                                                  build/obj/evtimer.o
                                                  build/obj/testbmk.o
                                                  build/obj/test.o
                                                  build/obj/chschd.o
ch_debug                                          build/obj/chregistry.o
                                                  build/obj/chsys.o
chprintf                                          build/obj/chprintf.o
                                                  build/obj/main.o
                                                  build/obj/shell.o
clust2sect                                        build/obj/ff.o
current_header                                    build/obj/ip.o
current_iphdr_dest                                build/obj/ip.o
                                                  build/obj/icmp.o
                                                  build/obj/udp.o
                                                  build/obj/tcp_in.o
                                                  build/obj/raw.o
current_iphdr_src                                 build/obj/ip.o
                                                  build/obj/api_msg.o
                                                  build/obj/icmp.o
                                                  build/obj/udp.o
                                                  build/obj/tcp_in.o
                                                  build/obj/raw.o
current_netif                                     build/obj/ip.o
disk_initialize                                   build/obj/fatfs_diskio.o
                                                  build/obj/ff.o
disk_ioctl                                        build/obj/fatfs_diskio.o
                                                  build/obj/ff.o
disk_read                                         build/obj/fatfs_diskio.o
                                                  build/obj/ff.o
disk_status                                       build/obj/fatfs_diskio.o
                                                  build/obj/ff.o
disk_write                                        build/obj/fatfs_diskio.o
                                                  build/obj/ff.o
dmaInit                                           build/obj/stm32_dma.o
                                                  build/obj/hal_lld.o
dmaStreamAllocate                                 build/obj/stm32_dma.o
                                                  build/obj/sdc_lld.o
dmaStreamRelease                                  build/obj/stm32_dma.o
                                                  build/obj/sdc_lld.o
do_bind                                           build/obj/api_msg.o
                                                  build/obj/api_lib.o
do_close                                          build/obj/api_msg.o
                                                  build/obj/api_lib.o
do_connect                                        build/obj/api_msg.o
                                                  build/obj/api_lib.o
do_delconn                                        build/obj/api_msg.o
                                                  build/obj/api_lib.o
do_disconnect                                     build/obj/api_msg.o
                                                  build/obj/api_lib.o
do_getaddr                                        build/obj/api_msg.o
                                                  build/obj/api_lib.o
do_listen                                         build/obj/api_msg.o
                                                  build/obj/api_lib.o
do_newconn                                        build/obj/api_msg.o
                                                  build/obj/api_lib.o
do_recv                                           build/obj/api_msg.o
                                                  build/obj/api_lib.o
do_send                                           build/obj/api_msg.o
                                                  build/obj/api_lib.o
do_write                                          build/obj/api_msg.o
                                                  build/obj/api_lib.o
etharp_find_addr                                  build/obj/etharp.o
etharp_output                                     build/obj/etharp.o
                                                  build/obj/lwipthread.o
etharp_query                                      build/obj/etharp.o
etharp_request                                    build/obj/etharp.o
                                                  build/obj/netif.o
etharp_tmr                                        build/obj/etharp.o
                                                  build/obj/timers.o
ethbroadcast                                      build/obj/etharp.o
ethernet_input                                    build/obj/etharp.o
                                                  build/obj/tcpip.o
ethzero                                           build/obj/etharp.o
evtStart                                          build/obj/evtimer.o
                                                  build/obj/lwipthread.o
evtStop                                           build/obj/evtimer.o
f_chmod                                           build/obj/ff.o
f_close                                           build/obj/ff.o
f_getfree                                         build/obj/ff.o
                                                  build/obj/main.o
f_lseek                                           build/obj/ff.o
f_mkdir                                           build/obj/ff.o
f_mount                                           build/obj/ff.o
                                                  build/obj/main.o
f_open                                            build/obj/ff.o
f_opendir                                         build/obj/ff.o
                                                  build/obj/main.o
f_read                                            build/obj/ff.o
f_readdir                                         build/obj/ff.o
                                                  build/obj/main.o
f_rename                                          build/obj/ff.o
f_stat                                            build/obj/ff.o
f_sync                                            build/obj/ff.o
f_truncate                                        build/obj/ff.o
f_unlink                                          build/obj/ff.o
f_utime                                           build/obj/ff.o
f_write                                           build/obj/ff.o
ff_convert                                        build/obj/ccsbcs.o
                                                  build/obj/ff.o
ff_cre_syncobj                                    build/obj/fatfs_syscall.o
                                                  build/obj/ff.o
ff_del_syncobj                                    build/obj/fatfs_syscall.o
                                                  build/obj/ff.o
ff_memalloc                                       build/obj/fatfs_syscall.o
                                                  build/obj/ff.o
ff_memfree                                        build/obj/fatfs_syscall.o
                                                  build/obj/ff.o
ff_rel_grant                                      build/obj/fatfs_syscall.o
                                                  build/obj/ff.o
ff_req_grant                                      build/obj/fatfs_syscall.o
                                                  build/obj/ff.o
ff_wtoupper                                       build/obj/ccsbcs.o
                                                  build/obj/ff.o
gen_numname                                       build/obj/ff.o
get_fat                                           build/obj/ff.o
get_fattime                                       build/obj/fatfs_diskio.o
                                                  build/obj/ff.o
halInit                                           build/obj/hal.o
                                                  build/obj/main.o
halIsCounterWithin                                build/obj/hal.o
                                                  build/obj/mac_lld.o
halPolledDelay                                    build/obj/hal.o
                                                  build/obj/usb_lld.o
hal_lld_init                                      build/obj/hal_lld.o
                                                  build/obj/hal.o
http_server                                       build/obj/web.o
                                                  build/obj/main.o
icmp_dest_unreach                                 build/obj/icmp.o
                                                  build/obj/ip.o
                                                  build/obj/udp.o
icmp_input                                        build/obj/icmp.o
                                                  build/obj/ip.o
icmp_time_exceeded                                build/obj/icmp.o
                                                  build/obj/ip_frag.o
inet_chksum                                       build/obj/inet_chksum.o
                                                  build/obj/ip_frag.o
                                                  build/obj/ip.o
                                                  build/obj/icmp.o
inet_chksum_pbuf                                  build/obj/inet_chksum.o
                                                  build/obj/icmp.o
inet_chksum_pseudo                                build/obj/inet_chksum.o
                                                  build/obj/udp.o
                                                  build/obj/tcp_out.o
                                                  build/obj/tcp_in.o
inet_chksum_pseudo_partial                        build/obj/inet_chksum.o
ip4_addr_isbroadcast                              build/obj/ip_addr.o
                                                  build/obj/ip.o
                                                  build/obj/icmp.o
                                                  build/obj/udp.o
                                                  build/obj/tcp_in.o
                                                  build/obj/etharp.o
ip4_addr_netmask_valid                            build/obj/ip_addr.o
ip_addr_any                                       build/obj/ip_addr.o
ip_addr_broadcast                                 build/obj/ip_addr.o
ip_frag                                           build/obj/ip_frag.o
                                                  build/obj/ip.o
ip_input                                          build/obj/ip.o
                                                  build/obj/tcpip.o
                                                  build/obj/etharp.o
ip_output                                         build/obj/ip.o
                                                  build/obj/icmp.o
                                                  build/obj/tcp_out.o
ip_output_if                                      build/obj/ip.o
                                                  build/obj/icmp.o
                                                  build/obj/udp.o
                                                  build/obj/raw.o
ip_reass                                          build/obj/ip_frag.o
                                                  build/obj/ip.o
ip_reass_tmr                                      build/obj/ip_frag.o
                                                  build/obj/timers.o
ip_route                                          build/obj/ip.o
                                                  build/obj/udp.o
                                                  build/obj/tcp_out.o
                                                  build/obj/tcp.o
                                                  build/obj/raw.o
ipaddr_addr                                       build/obj/ip_addr.o
ipaddr_aton                                       build/obj/ip_addr.o
ipaddr_ntoa                                       build/obj/ip_addr.o
ipaddr_ntoa_r                                     build/obj/ip_addr.o
lwip_accept                                       build/obj/sockets.o
lwip_bind                                         build/obj/sockets.o
lwip_close                                        build/obj/sockets.o
lwip_connect                                      build/obj/sockets.o
lwip_fcntl                                        build/obj/sockets.o
lwip_getpeername                                  build/obj/sockets.o
lwip_getsockname                                  build/obj/sockets.o
lwip_getsockopt                                   build/obj/sockets.o
lwip_htonl                                        build/obj/def.o
                                                  build/obj/ip_addr.o
                                                  build/obj/tcp_out.o
lwip_htons                                        build/obj/def.o
                                                  build/obj/sockets.o
                                                  build/obj/ip_frag.o
                                                  build/obj/ip.o
                                                  build/obj/inet_chksum.o
                                                  build/obj/udp.o
                                                  build/obj/tcp_out.o
                                                  build/obj/tcp_in.o
                                                  build/obj/etharp.o
                                                  build/obj/lwipthread.o
lwip_init                                         build/obj/init.o
                                                  build/obj/tcpip.o
lwip_ioctl                                        build/obj/sockets.o
lwip_listen                                       build/obj/sockets.o
lwip_ntohl                                        build/obj/def.o
                                                  build/obj/tcp_out.o
                                                  build/obj/tcp_in.o
lwip_ntohs                                        build/obj/def.o
                                                  build/obj/sockets.o
                                                  build/obj/ip_frag.o
                                                  build/obj/ip.o
                                                  build/obj/icmp.o
                                                  build/obj/udp.o
                                                  build/obj/tcp_out.o
                                                  build/obj/tcp_in.o
lwip_read                                         build/obj/sockets.o
lwip_recv                                         build/obj/sockets.o
lwip_recvfrom                                     build/obj/sockets.o
lwip_select                                       build/obj/sockets.o
lwip_send                                         build/obj/sockets.o
lwip_sendto                                       build/obj/sockets.o
lwip_setsockopt                                   build/obj/sockets.o
lwip_shutdown                                     build/obj/sockets.o
lwip_socket                                       build/obj/sockets.o
lwip_socket_init                                  build/obj/sockets.o
                                                  build/obj/init.o
lwip_stats                                        build/obj/stats.o
                                                  build/obj/ip_frag.o
                                                  build/obj/ip.o
                                                  build/obj/icmp.o
                                                  build/obj/udp.o
                                                  build/obj/tcp_out.o
                                                  build/obj/tcp_in.o
                                                  build/obj/tcp.o
                                                  build/obj/memp.o
                                                  build/obj/mem.o
                                                  build/obj/etharp.o
                                                  build/obj/sys_arch.o
                                                  build/obj/lwipthread.o
lwip_thread                                       build/obj/lwipthread.o
                                                  build/obj/main.o
lwip_write                                        build/obj/sockets.o
macInit                                           build/obj/mac.o
                                                  build/obj/hal.o
macObjectInit                                     build/obj/mac.o
                                                  build/obj/mac_lld.o
macPollLinkStatus                                 build/obj/mac.o
                                                  build/obj/lwipthread.o
macReleaseReceiveDescriptor                       build/obj/mac.o
                                                  build/obj/lwipthread.o
macReleaseTransmitDescriptor                      build/obj/mac.o
                                                  build/obj/lwipthread.o
macStart                                          build/obj/mac.o
                                                  build/obj/lwipthread.o
macStop                                           build/obj/mac.o
macWaitReceiveDescriptor                          build/obj/mac.o
                                                  build/obj/lwipthread.o
macWaitTransmitDescriptor                         build/obj/mac.o
                                                  build/obj/lwipthread.o
mac_lld_get_receive_descriptor                    build/obj/mac_lld.o
                                                  build/obj/mac.o
mac_lld_get_transmit_descriptor                   build/obj/mac_lld.o
                                                  build/obj/mac.o
mac_lld_init                                      build/obj/mac_lld.o
                                                  build/obj/mac.o
mac_lld_poll_link_status                          build/obj/mac_lld.o
                                                  build/obj/mac.o
mac_lld_read_receive_descriptor                   build/obj/mac_lld.o
                                                  build/obj/lwipthread.o
mac_lld_release_receive_descriptor                build/obj/mac_lld.o
                                                  build/obj/mac.o
mac_lld_release_transmit_descriptor               build/obj/mac_lld.o
                                                  build/obj/mac.o
mac_lld_start                                     build/obj/mac_lld.o
                                                  build/obj/mac.o
mac_lld_stop                                      build/obj/mac_lld.o
                                                  build/obj/mac.o
mac_lld_write_transmit_descriptor                 build/obj/mac_lld.o
                                                  build/obj/lwipthread.o
main                                              build/obj/main.o
                                                  build/obj/crt0.o
mem_calloc                                        build/obj/mem.o
mem_free                                          build/obj/mem.o
                                                  build/obj/tcpip.o
                                                  build/obj/pbuf.o
mem_free_callback                                 build/obj/tcpip.o
mem_init                                          build/obj/mem.o
                                                  build/obj/init.o
                                                  build/obj/lwipthread.o
mem_malloc                                        build/obj/mem.o
                                                  build/obj/pbuf.o
mem_trim                                          build/obj/mem.o
                                                  build/obj/pbuf.o
memcpy                                            /opt/psas/x-tools/stm32f407/arm-psas-eabi/bin/../lib/gcc/arm-psas-eabi/4.7.2/../../../../arm-psas-eabi/lib/libc.a(lib_a-memcpy-stub.o)
                                                  build/obj/sockets.o
                                                  build/obj/tcp_out.o
                                                  build/obj/pbuf.o
                                                  build/obj/sdc_lld.o
                                                  build/obj/mac_lld.o
memp_free                                         build/obj/memp.o
                                                  build/obj/tcpip.o
                                                  build/obj/netbuf.o
                                                  build/obj/api_msg.o
                                                  build/obj/api_lib.o
                                                  build/obj/timers.o
                                                  build/obj/ip_frag.o
                                                  build/obj/udp.o
                                                  build/obj/tcp_in.o
                                                  build/obj/tcp.o
                                                  build/obj/raw.o
                                                  build/obj/pbuf.o
memp_init                                         build/obj/memp.o
                                                  build/obj/init.o
                                                  build/obj/lwipthread.o
memp_malloc                                       build/obj/memp.o
                                                  build/obj/tcpip.o
                                                  build/obj/netbuf.o
                                                  build/obj/api_msg.o
                                                  build/obj/api_lib.o
                                                  build/obj/timers.o
                                                  build/obj/ip_frag.o
                                                  build/obj/udp.o
                                                  build/obj/tcp_out.o
                                                  build/obj/tcp.o
                                                  build/obj/raw.o
                                                  build/obj/pbuf.o
memset                                            /opt/psas/x-tools/stm32f407/arm-psas-eabi/bin/../lib/gcc/arm-psas-eabi/4.7.2/../../../../arm-psas-eabi/lib/libc.a(lib_a-memset.o)
                                                  build/obj/ip_frag.o
                                                  build/obj/udp.o
                                                  build/obj/tcp.o
                                                  build/obj/raw.o
                                                  build/obj/mem.o
                                                  build/obj/usb.o
mmcsdGetCapacity                                  build/obj/mmcsd.o
                                                  build/obj/sdc.o
netbuf_alloc                                      build/obj/netbuf.o
netbuf_chain                                      build/obj/netbuf.o
netbuf_data                                       build/obj/netbuf.o
                                                  build/obj/web.o
netbuf_delete                                     build/obj/netbuf.o
                                                  build/obj/web.o
                                                  build/obj/sockets.o
                                                  build/obj/api_msg.o
netbuf_first                                      build/obj/netbuf.o
netbuf_free                                       build/obj/netbuf.o
                                                  build/obj/sockets.o
netbuf_new                                        build/obj/netbuf.o
netbuf_next                                       build/obj/netbuf.o
netbuf_ref                                        build/obj/netbuf.o
                                                  build/obj/sockets.o
netconn_accept                                    build/obj/api_lib.o
                                                  build/obj/web.o
                                                  build/obj/sockets.o
netconn_alloc                                     build/obj/api_msg.o
                                                  build/obj/api_lib.o
netconn_bind                                      build/obj/api_lib.o
                                                  build/obj/web.o
                                                  build/obj/sockets.o
netconn_close                                     build/obj/api_lib.o
                                                  build/obj/web.o
netconn_connect                                   build/obj/api_lib.o
                                                  build/obj/sockets.o
netconn_delete                                    build/obj/api_lib.o
                                                  build/obj/web.o
                                                  build/obj/sockets.o
netconn_disconnect                                build/obj/api_lib.o
netconn_free                                      build/obj/api_msg.o
                                                  build/obj/api_lib.o
netconn_getaddr                                   build/obj/api_lib.o
                                                  build/obj/sockets.o
netconn_listen_with_backlog                       build/obj/api_lib.o
                                                  build/obj/web.o
                                                  build/obj/sockets.o
netconn_new_with_proto_and_callback               build/obj/api_lib.o
                                                  build/obj/web.o
                                                  build/obj/sockets.o
netconn_recv                                      build/obj/api_lib.o
                                                  build/obj/web.o
                                                  build/obj/sockets.o
netconn_recv_tcp_pbuf                             build/obj/api_lib.o
                                                  build/obj/sockets.o
netconn_recved                                    build/obj/api_lib.o
                                                  build/obj/sockets.o
netconn_send                                      build/obj/api_lib.o
                                                  build/obj/sockets.o
netconn_sendto                                    build/obj/api_lib.o
netconn_shutdown                                  build/obj/api_lib.o
                                                  build/obj/sockets.o
netconn_write                                     build/obj/api_lib.o
                                                  build/obj/web.o
                                                  build/obj/sockets.o
netif_add                                         build/obj/netif.o
                                                  build/obj/lwipthread.o
netif_default                                     build/obj/netif.o
                                                  build/obj/ip.o
netif_find                                        build/obj/netif.o
netif_init                                        build/obj/netif.o
                                                  build/obj/init.o
                                                  build/obj/lwipthread.o
netif_list                                        build/obj/netif.o
                                                  build/obj/ip.o
netif_remove                                      build/obj/netif.o
netif_set_addr                                    build/obj/netif.o
netif_set_default                                 build/obj/netif.o
                                                  build/obj/lwipthread.o
netif_set_down                                    build/obj/netif.o
netif_set_gw                                      build/obj/netif.o
netif_set_ipaddr                                  build/obj/netif.o
netif_set_link_down                               build/obj/netif.o
                                                  build/obj/lwipthread.o
netif_set_link_up                                 build/obj/netif.o
                                                  build/obj/lwipthread.o
netif_set_netmask                                 build/obj/netif.o
netif_set_up                                      build/obj/netif.o
                                                  build/obj/lwipthread.o
nvicDisableVector                                 build/obj/nvic.o
                                                  build/obj/serial_lld.o
                                                  build/obj/sdc_lld.o
                                                  build/obj/mac_lld.o
                                                  build/obj/stm32_dma.o
nvicEnableVector                                  build/obj/nvic.o
                                                  build/obj/serial_lld.o
                                                  build/obj/usb_lld.o
                                                  build/obj/sdc_lld.o
                                                  build/obj/mac_lld.o
                                                  build/obj/stm32_dma.o
nvicSetSystemHandlerPriority                      build/obj/nvic.o
                                                  build/obj/chcore_v7m.o
palReadBus                                        build/obj/pal.o
palSetBusMode                                     build/obj/pal.o
palWriteBus                                       build/obj/pal.o
pal_default_config                                build/obj/board.o
                                                  build/obj/hal.o
patternbmk                                        build/obj/testbmk.o
                                                  build/obj/test.o
patterndyn                                        build/obj/testdyn.o
                                                  build/obj/test.o
patternevt                                        build/obj/testevt.o
                                                  build/obj/test.o
patternheap                                       build/obj/testheap.o
                                                  build/obj/test.o
patternmbox                                       build/obj/testmbox.o
                                                  build/obj/test.o
patternmsg                                        build/obj/testmsg.o
                                                  build/obj/test.o
patternmtx                                        build/obj/testmtx.o
                                                  build/obj/test.o
patternpools                                      build/obj/testpools.o
                                                  build/obj/test.o
patternqueues                                     build/obj/testqueues.o
                                                  build/obj/test.o
patternsem                                        build/obj/testsem.o
                                                  build/obj/test.o
patternthd                                        build/obj/testthd.o
                                                  build/obj/test.o
pbuf_alloc                                        build/obj/pbuf.o
                                                  build/obj/netbuf.o
                                                  build/obj/api_msg.o
                                                  build/obj/ip_frag.o
                                                  build/obj/icmp.o
                                                  build/obj/udp.o
                                                  build/obj/tcp_out.o
                                                  build/obj/raw.o
                                                  build/obj/etharp.o
                                                  build/obj/lwipthread.o
pbuf_alloced_custom                               build/obj/pbuf.o
                                                  build/obj/ip_frag.o
pbuf_cat                                          build/obj/pbuf.o
                                                  build/obj/netbuf.o
                                                  build/obj/ip_frag.o
                                                  build/obj/tcp_out.o
                                                  build/obj/tcp_in.o
pbuf_chain                                        build/obj/pbuf.o
                                                  build/obj/udp.o
                                                  build/obj/raw.o
pbuf_clen                                         build/obj/pbuf.o
                                                  build/obj/ip_frag.o
                                                  build/obj/tcp_out.o
                                                  build/obj/tcp_in.o
pbuf_coalesce                                     build/obj/pbuf.o
pbuf_copy                                         build/obj/pbuf.o
                                                  build/obj/api_msg.o
                                                  build/obj/icmp.o
                                                  build/obj/etharp.o
pbuf_copy_partial                                 build/obj/pbuf.o
                                                  build/obj/sockets.o
                                                  build/obj/tcp_out.o
pbuf_dechain                                      build/obj/pbuf.o
pbuf_free                                         build/obj/pbuf.o
                                                  build/obj/tcpip.o
                                                  build/obj/sockets.o
                                                  build/obj/netbuf.o
                                                  build/obj/api_msg.o
                                                  build/obj/ip_frag.o
                                                  build/obj/ip.o
                                                  build/obj/icmp.o
                                                  build/obj/udp.o
                                                  build/obj/tcp_out.o
                                                  build/obj/tcp_in.o
                                                  build/obj/tcp.o
                                                  build/obj/raw.o
                                                  build/obj/etharp.o
                                                  build/obj/lwipthread.o
pbuf_free_callback                                build/obj/tcpip.o
pbuf_get_at                                       build/obj/pbuf.o
pbuf_header                                       build/obj/pbuf.o
                                                  build/obj/ip_frag.o
                                                  build/obj/ip.o
                                                  build/obj/icmp.o
                                                  build/obj/udp.o
                                                  build/obj/tcp_out.o
                                                  build/obj/tcp_in.o
                                                  build/obj/raw.o
                                                  build/obj/etharp.o
pbuf_memcmp                                       build/obj/pbuf.o
pbuf_memfind                                      build/obj/pbuf.o
pbuf_realloc                                      build/obj/pbuf.o
                                                  build/obj/ip.o
                                                  build/obj/tcp_in.o
pbuf_ref                                          build/obj/pbuf.o
                                                  build/obj/ip_frag.o
                                                  build/obj/tcp.o
                                                  build/obj/etharp.o
pbuf_strstr                                       build/obj/pbuf.o
pbuf_take                                         build/obj/pbuf.o
port_halt                                         build/obj/chcore.o
                                                  build/obj/web.o
                                                  build/obj/tcpip.o
                                                  build/obj/sockets.o
                                                  build/obj/netbuf.o
                                                  build/obj/api_msg.o
                                                  build/obj/api_lib.o
                                                  build/obj/timers.o
                                                  build/obj/ip_frag.o
                                                  build/obj/ip_addr.o
                                                  build/obj/ip.o
                                                  build/obj/inet_chksum.o
                                                  build/obj/icmp.o
                                                  build/obj/udp.o
                                                  build/obj/tcp_out.o
                                                  build/obj/tcp_in.o
                                                  build/obj/tcp.o
                                                  build/obj/raw.o
                                                  build/obj/pbuf.o
                                                  build/obj/netif.o
                                                  build/obj/memp.o
                                                  build/obj/mem.o
                                                  build/obj/etharp.o
                                                  build/obj/mac_lld.o
put_fat                                           build/obj/ff.o
ram_heap                                          build/obj/mem.o
raw_bind                                          build/obj/raw.o
                                                  build/obj/api_msg.o
raw_connect                                       build/obj/raw.o
                                                  build/obj/api_msg.o
raw_input                                         build/obj/raw.o
                                                  build/obj/ip.o
raw_new                                           build/obj/raw.o
                                                  build/obj/api_msg.o
raw_recv                                          build/obj/raw.o
                                                  build/obj/api_msg.o
raw_remove                                        build/obj/raw.o
                                                  build/obj/api_msg.o
raw_send                                          build/obj/raw.o
                                                  build/obj/api_msg.o
raw_sendto                                        build/obj/raw.o
                                                  build/obj/api_msg.o
rlist                                             build/obj/chschd.o
                                                  build/obj/main.o
                                                  build/obj/web.o
                                                  build/obj/shell.o
                                                  build/obj/lwipthread.o
                                                  build/obj/usb_lld.o
                                                  build/obj/sdc_lld.o
                                                  build/obj/testbmk.o
                                                  build/obj/testqueues.o
                                                  build/obj/testdyn.o
                                                  build/obj/testevt.o
                                                  build/obj/testmsg.o
                                                  build/obj/testmtx.o
                                                  build/obj/testsem.o
                                                  build/obj/testthd.o
                                                  build/obj/test.o
                                                  build/obj/chqueues.o
                                                  build/obj/chmsg.o
                                                  build/obj/chevents.o
                                                  build/obj/chcond.o
                                                  build/obj/chmtx.o
                                                  build/obj/chsem.o
                                                  build/obj/chregistry.o
                                                  build/obj/chthreads.o
                                                  build/obj/chsys.o
                                                  build/obj/chcore_v7m.o
sdIncomingDataI                                   build/obj/serial.o
                                                  build/obj/serial_lld.o
sdInit                                            build/obj/serial.o
                                                  build/obj/hal.o
sdObjectInit                                      build/obj/serial.o
                                                  build/obj/serial_lld.o
sdRequestDataI                                    build/obj/serial.o
sdStart                                           build/obj/serial.o
                                                  build/obj/main.o
sdStop                                            build/obj/serial.o
sd_lld_init                                       build/obj/serial_lld.o
                                                  build/obj/serial.o
sd_lld_start                                      build/obj/serial_lld.o
                                                  build/obj/serial.o
sd_lld_stop                                       build/obj/serial_lld.o
                                                  build/obj/serial.o
sdcConnect                                        build/obj/sdc.o
                                                  build/obj/main.o
sdcDisconnect                                     build/obj/sdc.o
                                                  build/obj/main.o
sdcErase                                          build/obj/sdc.o
sdcGetAndClearErrors                              build/obj/sdc.o
sdcGetInfo                                        build/obj/sdc.o
sdcInit                                           build/obj/sdc.o
                                                  build/obj/hal.o
sdcObjectInit                                     build/obj/sdc.o
                                                  build/obj/sdc_lld.o
sdcRead                                           build/obj/sdc.o
                                                  build/obj/fatfs_diskio.o
sdcStart                                          build/obj/sdc.o
                                                  build/obj/main.o
sdcStop                                           build/obj/sdc.o
sdcSync                                           build/obj/sdc.o
sdcWrite                                          build/obj/sdc.o
                                                  build/obj/fatfs_diskio.o
sdc_lld_init                                      build/obj/sdc_lld.o
                                                  build/obj/sdc.o
sdc_lld_is_card_inserted                          build/obj/board.o
                                                  build/obj/sdc.o
sdc_lld_is_write_protected                        build/obj/board.o
                                                  build/obj/fatfs_diskio.o
                                                  build/obj/sdc.o
sdc_lld_read                                      build/obj/sdc_lld.o
                                                  build/obj/sdc.o
sdc_lld_read_aligned                              build/obj/sdc_lld.o
sdc_lld_send_cmd_long_crc                         build/obj/sdc_lld.o
                                                  build/obj/sdc.o
sdc_lld_send_cmd_none                             build/obj/sdc_lld.o
                                                  build/obj/sdc.o
sdc_lld_send_cmd_short                            build/obj/sdc_lld.o
                                                  build/obj/sdc.o
sdc_lld_send_cmd_short_crc                        build/obj/sdc_lld.o
                                                  build/obj/sdc.o
sdc_lld_set_bus_mode                              build/obj/sdc_lld.o
                                                  build/obj/sdc.o
sdc_lld_set_data_clk                              build/obj/sdc_lld.o
                                                  build/obj/sdc.o
sdc_lld_start                                     build/obj/sdc_lld.o
                                                  build/obj/sdc.o
sdc_lld_start_clk                                 build/obj/sdc_lld.o
                                                  build/obj/sdc.o
sdc_lld_stop                                      build/obj/sdc_lld.o
                                                  build/obj/sdc.o
sdc_lld_stop_clk                                  build/obj/sdc_lld.o
                                                  build/obj/sdc.o
sdc_lld_sync                                      build/obj/sdc_lld.o
                                                  build/obj/sdc.o
sdc_lld_write                                     build/obj/sdc_lld.o
                                                  build/obj/sdc.o
sdc_lld_write_aligned                             build/obj/sdc_lld.o
sduConfigureHookI                                 build/obj/serial_usb.o
                                                  build/obj/main.o
sduDataReceived                                   build/obj/serial_usb.o
                                                  build/obj/main.o
sduDataTransmitted                                build/obj/serial_usb.o
                                                  build/obj/main.o
sduInit                                           build/obj/serial_usb.o
                                                  build/obj/hal.o
sduInterruptTransmitted                           build/obj/serial_usb.o
                                                  build/obj/main.o
sduObjectInit                                     build/obj/serial_usb.o
                                                  build/obj/main.o
sduRequestsHook                                   build/obj/serial_usb.o
                                                  build/obj/main.o
sduStart                                          build/obj/serial_usb.o
                                                  build/obj/main.o
sduStop                                           build/obj/serial_usb.o
shellCreate                                       build/obj/shell.o
                                                  build/obj/main.o
shellCreateStatic                                 build/obj/shell.o
shellGetLine                                      build/obj/shell.o
shellInit                                         build/obj/shell.o
                                                  build/obj/main.o
shell_terminated                                  build/obj/shell.o
stats_init                                        build/obj/stats.o
                                                  build/obj/init.o
stm32_clock_init                                  build/obj/hal_lld.o
                                                  build/obj/board.o
strcasecmp                                        /opt/psas/x-tools/stm32f407/arm-psas-eabi/bin/../lib/gcc/arm-psas-eabi/4.7.2/../../../../arm-psas-eabi/lib/libc.a(lib_a-strcasecmp.o)
                                                  build/obj/shell.o
strchr                                            /opt/psas/x-tools/stm32f407/arm-psas-eabi/bin/../lib/gcc/arm-psas-eabi/4.7.2/../../../../arm-psas-eabi/lib/libc.a(lib_a-strchr.o)
                                                  build/obj/shell.o
strcpy                                            /opt/psas/x-tools/stm32f407/arm-psas-eabi/bin/../lib/gcc/arm-psas-eabi/4.7.2/../../../../arm-psas-eabi/lib/libc.a(lib_a-strcpy.o)
                                                  build/obj/main.o
strlen                                            /opt/psas/x-tools/stm32f407/arm-psas-eabi/bin/../lib/gcc/arm-psas-eabi/4.7.2/../../../../arm-psas-eabi/lib/libc.a(lib_a-strlen.o)
                                                  build/obj/main.o
                                                  build/obj/pbuf.o
strspn                                            /opt/psas/x-tools/stm32f407/arm-psas-eabi/bin/../lib/gcc/arm-psas-eabi/4.7.2/../../../../arm-psas-eabi/lib/libc.a(lib_a-strspn.o)
                                                  build/obj/shell.o
sys_arch_mbox_fetch                               build/obj/sys_arch.o
                                                  build/obj/api_lib.o
                                                  build/obj/timers.o
sys_arch_mbox_tryfetch                            build/obj/sys_arch.o
                                                  build/obj/api_msg.o
sys_arch_protect                                  build/obj/sys_arch.o
sys_arch_sem_wait                                 build/obj/sys_arch.o
                                                  build/obj/tcpip.o
                                                  build/obj/sockets.o
                                                  build/obj/sys.o
                                                  build/obj/mem.o
sys_arch_unprotect                                build/obj/sys_arch.o
sys_init                                          build/obj/sys_arch.o
                                                  build/obj/init.o
                                                  build/obj/lwipthread.o
sys_mbox_free                                     build/obj/sys_arch.o
                                                  build/obj/api_msg.o
                                                  build/obj/api_lib.o
sys_mbox_new                                      build/obj/sys_arch.o
                                                  build/obj/tcpip.o
                                                  build/obj/api_msg.o
sys_mbox_post                                     build/obj/sys_arch.o
                                                  build/obj/tcpip.o
sys_mbox_set_invalid                              build/obj/sys_arch.o
                                                  build/obj/api_msg.o
sys_mbox_trypost                                  build/obj/sys_arch.o
                                                  build/obj/tcpip.o
                                                  build/obj/api_msg.o
sys_mbox_valid                                    build/obj/sys_arch.o
                                                  build/obj/tcpip.o
                                                  build/obj/api_msg.o
                                                  build/obj/api_lib.o
sys_msleep                                        build/obj/sys.o
sys_sem_free                                      build/obj/sys_arch.o
                                                  build/obj/sockets.o
                                                  build/obj/api_msg.o
                                                  build/obj/api_lib.o
                                                  build/obj/sys.o
sys_sem_new                                       build/obj/sys_arch.o
                                                  build/obj/sockets.o
                                                  build/obj/api_msg.o
                                                  build/obj/sys.o
                                                  build/obj/mem.o
sys_sem_set_invalid                               build/obj/sys_arch.o
                                                  build/obj/api_msg.o
sys_sem_signal                                    build/obj/sys_arch.o
                                                  build/obj/sockets.o
                                                  build/obj/api_msg.o
                                                  build/obj/mem.o
sys_sem_valid                                     build/obj/sys_arch.o
                                                  build/obj/api_msg.o
                                                  build/obj/api_lib.o
sys_thread_new                                    build/obj/sys_arch.o
                                                  build/obj/tcpip.o
sys_timeout                                       build/obj/timers.o
                                                  build/obj/tcpip.o
sys_timeouts_init                                 build/obj/timers.o
                                                  build/obj/init.o
sys_timeouts_mbox_fetch                           build/obj/timers.o
                                                  build/obj/tcpip.o
sys_untimeout                                     build/obj/timers.o
                                                  build/obj/tcpip.o
tcp_abandon                                       build/obj/tcp.o
                                                  build/obj/tcp_in.o
tcp_abort                                         build/obj/tcp.o
                                                  build/obj/api_msg.o
                                                  build/obj/tcp_in.o
                                                  build/obj/netif.o
tcp_accept                                        build/obj/tcp.o
                                                  build/obj/api_msg.o
tcp_active_pcbs                                   build/obj/tcp.o
                                                  build/obj/timers.o
                                                  build/obj/tcp_in.o
                                                  build/obj/pbuf.o
                                                  build/obj/netif.o
tcp_alloc                                         build/obj/tcp.o
                                                  build/obj/tcp_in.o
tcp_arg                                           build/obj/tcp.o
                                                  build/obj/api_msg.o
tcp_backoff                                       build/obj/tcp.o
tcp_bind                                          build/obj/tcp.o
                                                  build/obj/api_msg.o
tcp_bound_pcbs                                    build/obj/tcp.o
tcp_close                                         build/obj/tcp.o
                                                  build/obj/api_msg.o
tcp_connect                                       build/obj/tcp.o
                                                  build/obj/api_msg.o
tcp_debug_state_str                               build/obj/tcp.o
tcp_eff_send_mss                                  build/obj/tcp.o
                                                  build/obj/tcp_in.o
tcp_enqueue_flags                                 build/obj/tcp_out.o
                                                  build/obj/tcp_in.o
                                                  build/obj/tcp.o
tcp_err                                           build/obj/tcp.o
                                                  build/obj/api_msg.o
tcp_fasttmr                                       build/obj/tcp.o
tcp_input                                         build/obj/tcp_in.o
                                                  build/obj/ip.o
tcp_input_pcb                                     build/obj/tcp_in.o
                                                  build/obj/tcp_out.o
tcp_keepalive                                     build/obj/tcp_out.o
                                                  build/obj/tcp.o
tcp_listen_pcbs                                   build/obj/tcp.o
                                                  build/obj/tcp_in.o
                                                  build/obj/netif.o
tcp_listen_with_backlog                           build/obj/tcp.o
                                                  build/obj/api_msg.o
tcp_new                                           build/obj/tcp.o
                                                  build/obj/api_msg.o
tcp_next_iss                                      build/obj/tcp.o
tcp_output                                        build/obj/tcp_out.o
                                                  build/obj/api_msg.o
                                                  build/obj/tcp_in.o
                                                  build/obj/tcp.o
tcp_pcb_lists                                     build/obj/tcp.o
tcp_pcb_purge                                     build/obj/tcp.o
                                                  build/obj/tcp_in.o
tcp_pcb_remove                                    build/obj/tcp.o
                                                  build/obj/tcp_in.o
tcp_persist_backoff                               build/obj/tcp.o
tcp_poll                                          build/obj/tcp.o
                                                  build/obj/api_msg.o
tcp_recv                                          build/obj/tcp.o
                                                  build/obj/api_msg.o
tcp_recv_null                                     build/obj/tcp.o
                                                  build/obj/tcp_in.o
tcp_recved                                        build/obj/tcp.o
                                                  build/obj/api_msg.o
tcp_rexmit                                        build/obj/tcp_out.o
                                                  build/obj/tcp_in.o
tcp_rexmit_fast                                   build/obj/tcp_out.o
                                                  build/obj/tcp_in.o
tcp_rexmit_rto                                    build/obj/tcp_out.o
                                                  build/obj/tcp.o
tcp_rst                                           build/obj/tcp_out.o
                                                  build/obj/tcp_in.o
                                                  build/obj/tcp.o
tcp_seg_copy                                      build/obj/tcp.o
                                                  build/obj/tcp_in.o
tcp_seg_free                                      build/obj/tcp.o
                                                  build/obj/tcp_out.o
                                                  build/obj/tcp_in.o
tcp_segs_free                                     build/obj/tcp.o
                                                  build/obj/tcp_out.o
                                                  build/obj/tcp_in.o
                                                  build/obj/pbuf.o
tcp_send_empty_ack                                build/obj/tcp_out.o
                                                  build/obj/tcp_in.o
tcp_send_fin                                      build/obj/tcp_out.o
                                                  build/obj/tcp.o
tcp_sent                                          build/obj/tcp.o
                                                  build/obj/api_msg.o
tcp_setprio                                       build/obj/tcp.o
tcp_shutdown                                      build/obj/tcp.o
                                                  build/obj/api_msg.o
tcp_slowtmr                                       build/obj/tcp.o
tcp_state_str                                     build/obj/tcp.o
tcp_ticks                                         build/obj/tcp.o
                                                  build/obj/tcp_out.o
                                                  build/obj/tcp_in.o
tcp_timer_needed                                  build/obj/timers.o
                                                  build/obj/tcp_in.o
                                                  build/obj/tcp.o
tcp_tmp_pcb                                       build/obj/tcp.o
                                                  build/obj/tcp_in.o
tcp_tmr                                           build/obj/tcp.o
                                                  build/obj/timers.o
tcp_tw_pcbs                                       build/obj/tcp.o
                                                  build/obj/timers.o
                                                  build/obj/tcp_in.o
tcp_update_rcv_ann_wnd                            build/obj/tcp.o
                                                  build/obj/tcp_in.o
tcp_write                                         build/obj/tcp_out.o
                                                  build/obj/api_msg.o
tcp_zero_window_probe                             build/obj/tcp_out.o
                                                  build/obj/tcp.o
tcpip_apimsg                                      build/obj/tcpip.o
                                                  build/obj/api_lib.o
tcpip_callback_with_block                         build/obj/tcpip.o
                                                  build/obj/sockets.o
                                                  build/obj/pbuf.o
                                                  build/obj/lwipthread.o
tcpip_init                                        build/obj/tcpip.o
                                                  build/obj/lwipthread.o
tcpip_input                                       build/obj/tcpip.o
                                                  build/obj/lwipthread.o
tcpip_timeout                                     build/obj/tcpip.o
tcpip_untimeout                                   build/obj/tcpip.o
test                                              build/obj/test.o
                                                  build/obj/testqueues.o
                                                  build/obj/testdyn.o
                                                  build/obj/testheap.o
                                                  build/obj/testmbox.o
test_cpu_pulse                                    build/obj/test.o
                                                  build/obj/testmtx.o
test_emit_token                                   build/obj/test.o
                                                  build/obj/testqueues.o
                                                  build/obj/testdyn.o
                                                  build/obj/testevt.o
                                                  build/obj/testmbox.o
                                                  build/obj/testmsg.o
                                                  build/obj/testmtx.o
                                                  build/obj/testsem.o
                                                  build/obj/testthd.o
test_print                                        build/obj/test.o
                                                  build/obj/testbmk.o
test_println                                      build/obj/test.o
                                                  build/obj/testbmk.o
test_printn                                       build/obj/test.o
                                                  build/obj/testbmk.o
test_start_timer                                  build/obj/test.o
                                                  build/obj/testbmk.o
test_terminate_threads                            build/obj/test.o
                                                  build/obj/testbmk.o
test_timer_done                                   build/obj/test.o
                                                  build/obj/testbmk.o
test_wait_threads                                 build/obj/test.o
                                                  build/obj/testbmk.o
                                                  build/obj/testqueues.o
                                                  build/obj/testdyn.o
                                                  build/obj/testevt.o
                                                  build/obj/testmtx.o
                                                  build/obj/testsem.o
                                                  build/obj/testthd.o
test_wait_tick                                    build/obj/test.o
                                                  build/obj/testbmk.o
                                                  build/obj/testevt.o
                                                  build/obj/testmtx.o
                                                  build/obj/testsem.o
                                                  build/obj/testthd.o
testbmk1                                          build/obj/testbmk.o
testbmk10                                         build/obj/testbmk.o
testbmk11                                         build/obj/testbmk.o
testbmk12                                         build/obj/testbmk.o
testbmk13                                         build/obj/testbmk.o
testbmk2                                          build/obj/testbmk.o
testbmk3                                          build/obj/testbmk.o
testbmk4                                          build/obj/testbmk.o
testbmk5                                          build/obj/testbmk.o
testbmk6                                          build/obj/testbmk.o
testbmk7                                          build/obj/testbmk.o
testbmk8                                          build/obj/testbmk.o
testbmk9                                          build/obj/testbmk.o
testdyn1                                          build/obj/testdyn.o
testdyn2                                          build/obj/testdyn.o
testdyn3                                          build/obj/testdyn.o
testevt1                                          build/obj/testevt.o
testevt2                                          build/obj/testevt.o
testevt3                                          build/obj/testevt.o
testheap1                                         build/obj/testheap.o
testmbox1                                         build/obj/testmbox.o
testmsg1                                          build/obj/testmsg.o
testmtx1                                          build/obj/testmtx.o
testmtx2                                          build/obj/testmtx.o
testmtx3                                          build/obj/testmtx.o
testmtx4                                          build/obj/testmtx.o
testmtx5                                          build/obj/testmtx.o
testmtx6                                          build/obj/testmtx.o
testmtx7                                          build/obj/testmtx.o
testmtx8                                          build/obj/testmtx.o
testpools1                                        build/obj/testpools.o
testqueues1                                       build/obj/testqueues.o
testqueues2                                       build/obj/testqueues.o
testsem1                                          build/obj/testsem.o
testsem2                                          build/obj/testsem.o
testsem3                                          build/obj/testsem.o
testsem4                                          build/obj/testsem.o
testthd1                                          build/obj/testthd.o
testthd2                                          build/obj/testthd.o
testthd3                                          build/obj/testthd.o
testthd4                                          build/obj/testthd.o
thread4                                           build/obj/testbmk.o
threads                                           build/obj/test.o
                                                  build/obj/testbmk.o
                                                  build/obj/testqueues.o
                                                  build/obj/testdyn.o
                                                  build/obj/testevt.o
                                                  build/obj/testmsg.o
                                                  build/obj/testmtx.o
                                                  build/obj/testsem.o
                                                  build/obj/testthd.o
tmInit                                            build/obj/tm.o
                                                  build/obj/hal.o
tmObjectInit                                      build/obj/tm.o
udp_bind                                          build/obj/udp.o
                                                  build/obj/api_msg.o
udp_connect                                       build/obj/udp.o
                                                  build/obj/api_msg.o
udp_disconnect                                    build/obj/udp.o
                                                  build/obj/api_msg.o
udp_input                                         build/obj/udp.o
                                                  build/obj/ip.o
udp_new                                           build/obj/udp.o
                                                  build/obj/api_msg.o
udp_pcbs                                          build/obj/udp.o
udp_recv                                          build/obj/udp.o
                                                  build/obj/api_msg.o
udp_remove                                        build/obj/udp.o
                                                  build/obj/api_msg.o
udp_send                                          build/obj/udp.o
                                                  build/obj/api_msg.o
udp_sendto                                        build/obj/udp.o
                                                  build/obj/api_msg.o
udp_sendto_if                                     build/obj/udp.o
usbDisableEndpointsI                              build/obj/usb.o
usbInit                                           build/obj/usb.o
                                                  build/obj/hal.o
usbInitEndpointI                                  build/obj/usb.o
                                                  build/obj/main.o
usbObjectInit                                     build/obj/usb.o
                                                  build/obj/usb_lld.o
usbPrepareQueuedReceive                           build/obj/usb.o
                                                  build/obj/serial_usb.o
usbPrepareQueuedTransmit                          build/obj/usb.o
                                                  build/obj/serial_usb.o
usbPrepareReceive                                 build/obj/usb.o
usbPrepareTransmit                                build/obj/usb.o
usbStallReceiveI                                  build/obj/usb.o
usbStallTransmitI                                 build/obj/usb.o
usbStart                                          build/obj/usb.o
                                                  build/obj/main.o
usbStartReceiveI                                  build/obj/usb.o
                                                  build/obj/serial_usb.o
usbStartTransmitI                                 build/obj/usb.o
                                                  build/obj/serial_usb.o
usbStop                                           build/obj/usb.o
usb_lld_clear_in                                  build/obj/usb_lld.o
                                                  build/obj/usb.o
usb_lld_clear_out                                 build/obj/usb_lld.o
                                                  build/obj/usb.o
usb_lld_disable_endpoints                         build/obj/usb_lld.o
                                                  build/obj/usb.o
usb_lld_get_status_in                             build/obj/usb_lld.o
                                                  build/obj/usb.o
usb_lld_get_status_out                            build/obj/usb_lld.o
                                                  build/obj/usb.o
usb_lld_init                                      build/obj/usb_lld.o
                                                  build/obj/usb.o
usb_lld_init_endpoint                             build/obj/usb_lld.o
                                                  build/obj/usb.o
usb_lld_prepare_receive                           build/obj/usb_lld.o
                                                  build/obj/usb.o
usb_lld_prepare_transmit                          build/obj/usb_lld.o
                                                  build/obj/usb.o
usb_lld_read_setup                                build/obj/usb_lld.o
                                                  build/obj/usb.o
usb_lld_reset                                     build/obj/usb_lld.o
                                                  build/obj/usb.o
usb_lld_set_address                               build/obj/usb_lld.o
                                                  build/obj/usb.o
usb_lld_stall_in                                  build/obj/usb_lld.o
                                                  build/obj/usb.o
usb_lld_stall_out                                 build/obj/usb_lld.o
                                                  build/obj/usb.o
usb_lld_start                                     build/obj/usb_lld.o
                                                  build/obj/usb.o
usb_lld_start_in                                  build/obj/usb_lld.o
                                                  build/obj/usb.o
usb_lld_start_out                                 build/obj/usb_lld.o
                                                  build/obj/usb.o
usb_lld_stop                                      build/obj/usb_lld.o
                                                  build/obj/usb.o
vtlist                                            build/obj/chvt.o
                                                  build/obj/shell.o
                                                  build/obj/sys_arch.o
                                                  build/obj/mac.o
                                                  build/obj/testevt.o
                                                  build/obj/testmtx.o
                                                  build/obj/testsem.o
                                                  build/obj/testthd.o
                                                  build/obj/test.o
                                                  build/obj/chthreads.o
                                                  build/obj/chsys.o
wa                                                build/obj/test.o
                                                  build/obj/testbmk.o
                                                  build/obj/testqueues.o
                                                  build/obj/testdyn.o
                                                  build/obj/testpools.o
                                                  build/obj/testevt.o
                                                  build/obj/testmsg.o
                                                  build/obj/testmtx.o
                                                  build/obj/testsem.o
                                                  build/obj/testthd.o
wa_http_server                                    build/obj/web.o
                                                  build/obj/main.o
wa_lwip_thread                                    build/obj/lwipthread.o
                                                  build/obj/main.o
