ARM GAS  /tmp/ccPYC652.s 			page 1


   1              		.syntax unified
   2              		.cpu cortex-m4
   3              		.eabi_attribute 27, 3
   4              		.eabi_attribute 28, 1
   5              		.fpu fpv4-sp-d16
   6              		.eabi_attribute 20, 1
   7              		.eabi_attribute 21, 1
   8              		.eabi_attribute 23, 3
   9              		.eabi_attribute 24, 1
  10              		.eabi_attribute 25, 1
  11              		.eabi_attribute 26, 1
  12              		.eabi_attribute 30, 2
  13              		.eabi_attribute 34, 1
  14              		.eabi_attribute 18, 4
  15              		.thumb
  16              		.file	"api_lib.c"
  17              		.text
  18              	.Ltext0:
  19              		.cfi_sections	.debug_frame
  20              		.section	.text.netconn_recv_data,"ax",%progbits
  21              		.align	2
  22              		.p2align 4,,15
  23              		.thumb
  24              		.thumb_func
  25              		.type	netconn_recv_data, %function
  26              	netconn_recv_data:
  27              	.LFB15:
  28              		.file 1 "../../ext/lwip/src/api/api_lib.c"
  29              		.loc 1 343 0
  30              		.cfi_startproc
  31              		@ args = 0, pretend = 0, frame = 32
  32              		@ frame_needed = 0, uses_anonymous_args = 0
  33              	.LVL0:
  34 0000 F0B5     		push	{r4, r5, r6, r7, lr}
  35              	.LCFI0:
  36              		.cfi_def_cfa_offset 20
  37              		.cfi_offset 4, -20
  38              		.cfi_offset 5, -16
  39              		.cfi_offset 6, -12
  40              		.cfi_offset 7, -8
  41              		.cfi_offset 14, -4
  42 0002 89B0     		sub	sp, sp, #36
  43              	.LCFI1:
  44              		.cfi_def_cfa_offset 56
  45              		.loc 1 344 0
  46 0004 0025     		movs	r5, #0
  47              		.loc 1 351 0
  48 0006 0E46     		mov	r6, r1
  49              		.loc 1 343 0
  50 0008 0446     		mov	r4, r0
  51              		.loc 1 344 0
  52 000a 0195     		str	r5, [sp, #4]
  53              	.LVL1:
  54              		.loc 1 351 0
  55 000c 0029     		cmp	r1, #0
  56 000e 5DD0     		beq	.L4
  57              		.loc 1 352 0
ARM GAS  /tmp/ccPYC652.s 			page 2


  58 0010 0D60     		str	r5, [r1, #0]
  59              		.loc 1 353 0
  60 0012 0028     		cmp	r0, #0
  61 0014 5AD0     		beq	.L4
  62              		.loc 1 354 0
  63 0016 00F11007 		add	r7, r0, #16
  64 001a 3846     		mov	r0, r7
  65              	.LVL2:
  66 001c FFF7FEFF 		bl	sys_mbox_valid
  67              	.LVL3:
  68 0020 0028     		cmp	r0, #0
  69 0022 4ED0     		beq	.L29
  70              	.LVL4:
  71              		.loc 1 357 0
  72 0024 94F90800 		ldrsb	r0, [r4, #8]
  73 0028 10F1090F 		cmn	r0, #9
  74 002c 01DA     		bge	.L30
  75              	.LVL5:
  76              	.L24:
  77              		.loc 1 422 0
  78 002e 09B0     		add	sp, sp, #36
  79 0030 F0BD     		pop	{r4, r5, r6, r7, pc}
  80              	.LVL6:
  81              	.L30:
  82              		.loc 1 371 0
  83 0032 3846     		mov	r0, r7
  84 0034 01A9     		add	r1, sp, #4
  85 0036 2A46     		mov	r2, r5
  86 0038 FFF7FEFF 		bl	sys_arch_mbox_fetch
  87              	.LVL7:
  88              		.loc 1 375 0
  89 003c 2378     		ldrb	r3, [r4, #0]	@ zero_extendqisi2
  90 003e 102B     		cmp	r3, #16
  91 0040 0DD0     		beq	.L31
  92              		.loc 1 406 0
  93 0042 019B     		ldr	r3, [sp, #4]
  94 0044 002B     		cmp	r3, #0
  95 0046 38D0     		beq	.L32
  96              	.L15:
  97              	.LVL8:
  98              		.loc 1 407 0
  99 0048 1A68     		ldr	r2, [r3, #0]
 100 004a 1289     		ldrh	r2, [r2, #8]
 101              	.LVL9:
 102              	.L14:
 103              		.loc 1 415 0
 104 004c A56A     		ldr	r5, [r4, #40]
 105 004e 1DB1     		cbz	r5, .L16
 106              		.loc 1 415 0 is_stmt 0 discriminator 1
 107 0050 2046     		mov	r0, r4
 108 0052 0121     		movs	r1, #1
 109 0054 A847     		blx	r5
 110              	.LVL10:
 111 0056 019B     		ldr	r3, [sp, #4]
 112              	.LVL11:
 113              	.L16:
 114              		.loc 1 419 0 is_stmt 1
ARM GAS  /tmp/ccPYC652.s 			page 3


 115 0058 3360     		str	r3, [r6, #0]
 116 005a 0020     		movs	r0, #0
 117 005c E7E7     		b	.L24
 118              	.L31:
 119              		.loc 1 376 0
 120 005e 237F     		ldrb	r3, [r4, #28]	@ zero_extendqisi2
 121 0060 03F00803 		and	r3, r3, #8
 122 0064 DBB2     		uxtb	r3, r3
 123 0066 6BB9     		cbnz	r3, .L7
 124              		.loc 1 380 0
 125 0068 1B4A     		ldr	r2, .L34
 126 006a 019B     		ldr	r3, [sp, #4]
 127 006c 0292     		str	r2, [sp, #8]
 128              		.loc 1 381 0
 129 006e 0394     		str	r4, [sp, #12]
 130              		.loc 1 382 0
 131 0070 73B1     		cbz	r3, .L9
 132              		.loc 1 383 0
 133 0072 1B89     		ldrh	r3, [r3, #8]
 134 0074 0593     		str	r3, [sp, #20]
 135              	.L12:
 136              		.loc 1 388 0
 137 0076 02A8     		add	r0, sp, #8
 138 0078 FFF7FEFF 		bl	tcpip_apimsg
 139              	.LVL12:
 140              		.loc 1 392 0
 141 007c 019B     		ldr	r3, [sp, #4]
 142 007e 53B1     		cbz	r3, .L33
 143              	.L11:
 144              		.loc 1 398 0
 145 0080 1A89     		ldrh	r2, [r3, #8]
 146              	.LVL13:
 147 0082 E3E7     		b	.L14
 148              	.LVL14:
 149              	.L7:
 150              		.loc 1 376 0 discriminator 1
 151 0084 019B     		ldr	r3, [sp, #4]
 152 0086 002B     		cmp	r3, #0
 153 0088 FAD1     		bne	.L11
 154              		.loc 1 380 0
 155 008a 134B     		ldr	r3, .L34
 156              		.loc 1 381 0
 157 008c 0394     		str	r4, [sp, #12]
 158              		.loc 1 380 0
 159 008e 0293     		str	r3, [sp, #8]
 160              	.L9:
 161              		.loc 1 385 0
 162 0090 0123     		movs	r3, #1
 163 0092 0593     		str	r3, [sp, #20]
 164 0094 EFE7     		b	.L12
 165              	.LVL15:
 166              	.L33:
 167              		.loc 1 393 0
 168 0096 A56A     		ldr	r5, [r4, #40]
 169 0098 1DB1     		cbz	r5, .L13
 170              		.loc 1 393 0 is_stmt 0 discriminator 1
 171 009a 2046     		mov	r0, r4
ARM GAS  /tmp/ccPYC652.s 			page 4


 172 009c 0121     		movs	r1, #1
 173 009e 1A46     		mov	r2, r3
 174 00a0 A847     		blx	r5
 175              	.LVL16:
 176              	.L13:
 177              		.loc 1 395 0 is_stmt 1
 178 00a2 94F90830 		ldrsb	r3, [r4, #8]
 179 00a6 0933     		adds	r3, r3, #9
 180 00a8 B8BF     		it	lt
 181 00aa 6FF00B00 		mvnlt	r0, #11
 182 00ae BEDB     		blt	.L24
 183              		.loc 1 395 0 is_stmt 0 discriminator 1
 184 00b0 F423     		movs	r3, #244
 185 00b2 2372     		strb	r3, [r4, #8]
 186 00b4 6FF00B00 		mvn	r0, #11
 187 00b8 B9E7     		b	.L24
 188              	.LVL17:
 189              	.L32:
 190              		.loc 1 406 0 is_stmt 1 discriminator 1
 191 00ba FFF7FEFF 		bl	port_halt
 192              	.LVL18:
 193 00be 019B     		ldr	r3, [sp, #4]
 194 00c0 C2E7     		b	.L15
 195              	.L29:
 196              		.loc 1 354 0 discriminator 1
 197 00c2 FFF7FEFF 		bl	port_halt
 198              	.LVL19:
 199 00c6 6FF00C00 		mvn	r0, #12
 200 00ca B0E7     		b	.L24
 201              	.LVL20:
 202              	.L4:
 203              		.loc 1 351 0 discriminator 1
 204 00cc FFF7FEFF 		bl	port_halt
 205              	.LVL21:
 206 00d0 6FF00D00 		mvn	r0, #13
 207 00d4 ABE7     		b	.L24
 208              	.L35:
 209 00d6 00BF     		.align	2
 210              	.L34:
 211 00d8 00000000 		.word	do_recv
 212              		.cfi_endproc
 213              	.LFE15:
 214              		.size	netconn_recv_data, .-netconn_recv_data
 215 00dc AFF30080 		.section	.text.netconn_new_with_proto_and_callback,"ax",%progbits
 216              		.align	2
 217              		.p2align 4,,15
 218              		.global	netconn_new_with_proto_and_callback
 219              		.thumb
 220              		.thumb_func
 221              		.type	netconn_new_with_proto_and_callback, %function
 222              	netconn_new_with_proto_and_callback:
 223              	.LFB7:
 224              		.loc 1 69 0
 225              		.cfi_startproc
 226              		@ args = 0, pretend = 0, frame = 24
 227              		@ frame_needed = 0, uses_anonymous_args = 0
 228              	.LVL22:
ARM GAS  /tmp/ccPYC652.s 			page 5


 229 0000 70B5     		push	{r4, r5, r6, lr}
 230              	.LCFI2:
 231              		.cfi_def_cfa_offset 16
 232              		.cfi_offset 4, -16
 233              		.cfi_offset 5, -12
 234              		.cfi_offset 6, -8
 235              		.cfi_offset 14, -4
 236 0002 0D46     		mov	r5, r1
 237 0004 86B0     		sub	sp, sp, #24
 238              	.LCFI3:
 239              		.cfi_def_cfa_offset 40
 240              		.loc 1 73 0
 241 0006 1146     		mov	r1, r2
 242              	.LVL23:
 243 0008 FFF7FEFF 		bl	netconn_alloc
 244              	.LVL24:
 245              		.loc 1 74 0
 246 000c 0446     		mov	r4, r0
 247 000e 40B1     		cbz	r0, .L37
 248              		.loc 1 75 0
 249 0010 1A4B     		ldr	r3, .L58
 250              		.loc 1 76 0
 251 0012 8DF80C50 		strb	r5, [sp, #12]
 252              		.loc 1 78 0
 253 0016 6846     		mov	r0, sp
 254              	.LVL25:
 255              		.loc 1 77 0
 256 0018 8DE81800 		stmia	sp, {r3, r4}
 257              		.loc 1 78 0
 258 001c FFF7FEFF 		bl	tcpip_apimsg
 259              	.LVL26:
 260 0020 10B9     		cbnz	r0, .L54
 261              	.LVL27:
 262              	.L37:
 263              		.loc 1 92 0
 264 0022 2046     		mov	r0, r4
 265 0024 06B0     		add	sp, sp, #24
 266 0026 70BD     		pop	{r4, r5, r6, pc}
 267              	.LVL28:
 268              	.L54:
 269              		.loc 1 79 0
 270 0028 6368     		ldr	r3, [r4, #4]
 271 002a 0BB1     		cbz	r3, .L38
 272              		.loc 1 79 0 is_stmt 0 discriminator 1
 273 002c FFF7FEFF 		bl	port_halt
 274              	.LVL29:
 275              	.L38:
 276              		.loc 1 80 0 is_stmt 1
 277 0030 04F10C06 		add	r6, r4, #12
 278 0034 3046     		mov	r0, r6
 279 0036 FFF7FEFF 		bl	sys_sem_valid
 280              	.LVL30:
 281 003a E0B1     		cbz	r0, .L55
 282              	.L39:
 283              		.loc 1 81 0
 284 003c 04F11005 		add	r5, r4, #16
 285 0040 2846     		mov	r0, r5
ARM GAS  /tmp/ccPYC652.s 			page 6


 286 0042 FFF7FEFF 		bl	sys_mbox_valid
 287              	.LVL31:
 288 0046 98B1     		cbz	r0, .L56
 289              	.L40:
 290              		.loc 1 83 0
 291 0048 04F11400 		add	r0, r4, #20
 292 004c FFF7FEFF 		bl	sys_mbox_valid
 293              	.LVL32:
 294 0050 58B9     		cbnz	r0, .L57
 295              	.L41:
 296              		.loc 1 85 0
 297 0052 3046     		mov	r0, r6
 298 0054 FFF7FEFF 		bl	sys_sem_free
 299              	.LVL33:
 300              		.loc 1 86 0
 301 0058 2846     		mov	r0, r5
 302 005a FFF7FEFF 		bl	sys_mbox_free
 303              	.LVL34:
 304              		.loc 1 87 0
 305 005e 2146     		mov	r1, r4
 306 0060 0820     		movs	r0, #8
 307 0062 FFF7FEFF 		bl	memp_free
 308              	.LVL35:
 309              		.loc 1 88 0
 310 0066 0024     		movs	r4, #0
 311              	.LVL36:
 312 0068 DBE7     		b	.L37
 313              	.LVL37:
 314              	.L57:
 315              		.loc 1 83 0 discriminator 1
 316 006a FFF7FEFF 		bl	port_halt
 317              	.LVL38:
 318 006e F0E7     		b	.L41
 319              	.L56:
 320              		.loc 1 81 0 discriminator 1
 321 0070 FFF7FEFF 		bl	port_halt
 322              	.LVL39:
 323 0074 E8E7     		b	.L40
 324              	.L55:
 325              		.loc 1 80 0 discriminator 1
 326 0076 FFF7FEFF 		bl	port_halt
 327              	.LVL40:
 328 007a DFE7     		b	.L39
 329              	.L59:
 330              		.align	2
 331              	.L58:
 332 007c 00000000 		.word	do_newconn
 333              		.cfi_endproc
 334              	.LFE7:
 335              		.size	netconn_new_with_proto_and_callback, .-netconn_new_with_proto_and_callback
 336              		.section	.text.netconn_delete,"ax",%progbits
 337              		.align	2
 338              		.p2align 4,,15
 339              		.global	netconn_delete
 340              		.thumb
 341              		.thumb_func
 342              		.type	netconn_delete, %function
ARM GAS  /tmp/ccPYC652.s 			page 7


 343              	netconn_delete:
 344              	.LFB8:
 345              		.loc 1 104 0
 346              		.cfi_startproc
 347              		@ args = 0, pretend = 0, frame = 24
 348              		@ frame_needed = 0, uses_anonymous_args = 0
 349              	.LVL41:
 350 0000 10B5     		push	{r4, lr}
 351              	.LCFI4:
 352              		.cfi_def_cfa_offset 8
 353              		.cfi_offset 4, -8
 354              		.cfi_offset 14, -4
 355              		.loc 1 108 0
 356 0002 0446     		mov	r4, r0
 357              		.loc 1 104 0
 358 0004 86B0     		sub	sp, sp, #24
 359              	.LCFI5:
 360              		.cfi_def_cfa_offset 32
 361              		.loc 1 108 0
 362 0006 40B1     		cbz	r0, .L61
 363              		.loc 1 112 0
 364 0008 054B     		ldr	r3, .L65
 365              		.loc 1 113 0
 366 000a 0190     		str	r0, [sp, #4]
 367              		.loc 1 114 0
 368 000c 6846     		mov	r0, sp
 369              	.LVL42:
 370              		.loc 1 112 0
 371 000e 0093     		str	r3, [sp, #0]
 372              		.loc 1 114 0
 373 0010 FFF7FEFF 		bl	tcpip_apimsg
 374              	.LVL43:
 375              		.loc 1 116 0
 376 0014 2046     		mov	r0, r4
 377 0016 FFF7FEFF 		bl	netconn_free
 378              	.LVL44:
 379              	.L61:
 380              		.loc 1 121 0
 381 001a 0020     		movs	r0, #0
 382 001c 06B0     		add	sp, sp, #24
 383 001e 10BD     		pop	{r4, pc}
 384              	.L66:
 385              		.align	2
 386              	.L65:
 387 0020 00000000 		.word	do_delconn
 388              		.cfi_endproc
 389              	.LFE8:
 390              		.size	netconn_delete, .-netconn_delete
 391 0024 AFF30080 		.section	.text.netconn_getaddr,"ax",%progbits
 391      AFF30080 
 391      AFF30080 
 392              		.align	2
 393              		.p2align 4,,15
 394              		.global	netconn_getaddr
 395              		.thumb
 396              		.thumb_func
 397              		.type	netconn_getaddr, %function
ARM GAS  /tmp/ccPYC652.s 			page 8


 398              	netconn_getaddr:
 399              	.LFB9:
 400              		.loc 1 136 0
 401              		.cfi_startproc
 402              		@ args = 0, pretend = 0, frame = 24
 403              		@ frame_needed = 0, uses_anonymous_args = 0
 404              	.LVL45:
 405 0000 30B5     		push	{r4, r5, lr}
 406              	.LCFI6:
 407              		.cfi_def_cfa_offset 12
 408              		.cfi_offset 4, -12
 409              		.cfi_offset 5, -8
 410              		.cfi_offset 14, -4
 411              		.loc 1 140 0
 412 0002 0446     		mov	r4, r0
 413              		.loc 1 136 0
 414 0004 87B0     		sub	sp, sp, #28
 415              	.LCFI7:
 416              		.cfi_def_cfa_offset 40
 417              		.loc 1 140 0
 418 0006 98B1     		cbz	r0, .L70
 419              		.loc 1 141 0
 420 0008 91B1     		cbz	r1, .L70
 421              		.loc 1 142 0
 422 000a 8AB1     		cbz	r2, .L70
 423              		.loc 1 144 0
 424 000c 0A4D     		ldr	r5, .L77
 425              		.loc 1 145 0
 426 000e 0190     		str	r0, [sp, #4]
 427              		.loc 1 149 0
 428 0010 6846     		mov	r0, sp
 429              	.LVL46:
 430              		.loc 1 148 0
 431 0012 8DF81430 		strb	r3, [sp, #20]
 432              		.loc 1 144 0
 433 0016 0095     		str	r5, [sp, #0]
 434              		.loc 1 146 0
 435 0018 0391     		str	r1, [sp, #12]
 436              		.loc 1 147 0
 437 001a 0492     		str	r2, [sp, #16]
 438              		.loc 1 149 0
 439 001c FFF7FEFF 		bl	tcpip_apimsg
 440              	.LVL47:
 441              		.loc 1 151 0
 442 0020 94F90830 		ldrsb	r3, [r4, #8]
 443 0024 0933     		adds	r3, r3, #9
 444 0026 A8BF     		it	ge
 445 0028 2072     		strbge	r0, [r4, #8]
 446              	.LVL48:
 447              	.L69:
 448              		.loc 1 153 0
 449 002a 40B2     		sxtb	r0, r0
 450 002c 07B0     		add	sp, sp, #28
 451 002e 30BD     		pop	{r4, r5, pc}
 452              	.LVL49:
 453              	.L70:
 454              		.loc 1 140 0 discriminator 1
ARM GAS  /tmp/ccPYC652.s 			page 9


 455 0030 FFF7FEFF 		bl	port_halt
 456              	.LVL50:
 457 0034 F220     		movs	r0, #242
 458 0036 F8E7     		b	.L69
 459              	.L78:
 460              		.align	2
 461              	.L77:
 462 0038 00000000 		.word	do_getaddr
 463              		.cfi_endproc
 464              	.LFE9:
 465              		.size	netconn_getaddr, .-netconn_getaddr
 466 003c AFF30080 		.section	.text.netconn_bind,"ax",%progbits
 467              		.align	2
 468              		.p2align 4,,15
 469              		.global	netconn_bind
 470              		.thumb
 471              		.thumb_func
 472              		.type	netconn_bind, %function
 473              	netconn_bind:
 474              	.LFB10:
 475              		.loc 1 167 0
 476              		.cfi_startproc
 477              		@ args = 0, pretend = 0, frame = 24
 478              		@ frame_needed = 0, uses_anonymous_args = 0
 479              	.LVL51:
 480 0000 10B5     		push	{r4, lr}
 481              	.LCFI8:
 482              		.cfi_def_cfa_offset 8
 483              		.cfi_offset 4, -8
 484              		.cfi_offset 14, -4
 485              		.loc 1 171 0
 486 0002 0446     		mov	r4, r0
 487              		.loc 1 167 0
 488 0004 86B0     		sub	sp, sp, #24
 489              	.LCFI9:
 490              		.cfi_def_cfa_offset 32
 491              		.loc 1 171 0
 492 0006 80B1     		cbz	r0, .L82
 493              		.loc 1 173 0
 494 0008 0A4B     		ldr	r3, .L83
 495              		.loc 1 174 0
 496 000a 0190     		str	r0, [sp, #4]
 497              		.loc 1 177 0
 498 000c 6846     		mov	r0, sp
 499              	.LVL52:
 500              		.loc 1 173 0
 501 000e 0093     		str	r3, [sp, #0]
 502              		.loc 1 175 0
 503 0010 0391     		str	r1, [sp, #12]
 504              		.loc 1 176 0
 505 0012 ADF81020 		strh	r2, [sp, #16]	@ movhi
 506              		.loc 1 177 0
 507 0016 FFF7FEFF 		bl	tcpip_apimsg
 508              	.LVL53:
 509              		.loc 1 179 0
 510 001a 94F90830 		ldrsb	r3, [r4, #8]
 511 001e 0933     		adds	r3, r3, #9
ARM GAS  /tmp/ccPYC652.s 			page 10


 512 0020 A8BF     		it	ge
 513 0022 2072     		strbge	r0, [r4, #8]
 514              	.LVL54:
 515              	.L81:
 516              		.loc 1 181 0
 517 0024 40B2     		sxtb	r0, r0
 518 0026 06B0     		add	sp, sp, #24
 519 0028 10BD     		pop	{r4, pc}
 520              	.LVL55:
 521              	.L82:
 522              		.loc 1 171 0 discriminator 1
 523 002a FFF7FEFF 		bl	port_halt
 524              	.LVL56:
 525 002e F220     		movs	r0, #242
 526 0030 F8E7     		b	.L81
 527              	.L84:
 528 0032 00BF     		.align	2
 529              	.L83:
 530 0034 00000000 		.word	do_bind
 531              		.cfi_endproc
 532              	.LFE10:
 533              		.size	netconn_bind, .-netconn_bind
 534 0038 AFF30080 		.section	.text.netconn_connect,"ax",%progbits
 534      AFF30080 
 535              		.align	2
 536              		.p2align 4,,15
 537              		.global	netconn_connect
 538              		.thumb
 539              		.thumb_func
 540              		.type	netconn_connect, %function
 541              	netconn_connect:
 542              	.LFB11:
 543              		.loc 1 193 0
 544              		.cfi_startproc
 545              		@ args = 0, pretend = 0, frame = 24
 546              		@ frame_needed = 0, uses_anonymous_args = 0
 547              	.LVL57:
 548 0000 10B5     		push	{r4, lr}
 549              	.LCFI10:
 550              		.cfi_def_cfa_offset 8
 551              		.cfi_offset 4, -8
 552              		.cfi_offset 14, -4
 553              		.loc 1 197 0
 554 0002 0446     		mov	r4, r0
 555              		.loc 1 193 0
 556 0004 86B0     		sub	sp, sp, #24
 557              	.LCFI11:
 558              		.cfi_def_cfa_offset 32
 559              		.loc 1 197 0
 560 0006 80B1     		cbz	r0, .L88
 561              		.loc 1 199 0
 562 0008 0A4B     		ldr	r3, .L89
 563              		.loc 1 200 0
 564 000a 0190     		str	r0, [sp, #4]
 565              		.loc 1 204 0
 566 000c 6846     		mov	r0, sp
 567              	.LVL58:
ARM GAS  /tmp/ccPYC652.s 			page 11


 568              		.loc 1 199 0
 569 000e 0093     		str	r3, [sp, #0]
 570              		.loc 1 201 0
 571 0010 0391     		str	r1, [sp, #12]
 572              		.loc 1 202 0
 573 0012 ADF81020 		strh	r2, [sp, #16]	@ movhi
 574              		.loc 1 204 0
 575 0016 FFF7FEFF 		bl	tcpip_apimsg
 576              	.LVL59:
 577              		.loc 1 206 0
 578 001a 94F90830 		ldrsb	r3, [r4, #8]
 579 001e 0933     		adds	r3, r3, #9
 580 0020 A8BF     		it	ge
 581 0022 2072     		strbge	r0, [r4, #8]
 582              	.LVL60:
 583              	.L87:
 584              		.loc 1 208 0
 585 0024 40B2     		sxtb	r0, r0
 586 0026 06B0     		add	sp, sp, #24
 587 0028 10BD     		pop	{r4, pc}
 588              	.LVL61:
 589              	.L88:
 590              		.loc 1 197 0 discriminator 1
 591 002a FFF7FEFF 		bl	port_halt
 592              	.LVL62:
 593 002e F220     		movs	r0, #242
 594 0030 F8E7     		b	.L87
 595              	.L90:
 596 0032 00BF     		.align	2
 597              	.L89:
 598 0034 00000000 		.word	do_connect
 599              		.cfi_endproc
 600              	.LFE11:
 601              		.size	netconn_connect, .-netconn_connect
 602 0038 AFF30080 		.section	.text.netconn_disconnect,"ax",%progbits
 602      AFF30080 
 603              		.align	2
 604              		.p2align 4,,15
 605              		.global	netconn_disconnect
 606              		.thumb
 607              		.thumb_func
 608              		.type	netconn_disconnect, %function
 609              	netconn_disconnect:
 610              	.LFB12:
 611              		.loc 1 218 0
 612              		.cfi_startproc
 613              		@ args = 0, pretend = 0, frame = 24
 614              		@ frame_needed = 0, uses_anonymous_args = 0
 615              	.LVL63:
 616 0000 10B5     		push	{r4, lr}
 617              	.LCFI12:
 618              		.cfi_def_cfa_offset 8
 619              		.cfi_offset 4, -8
 620              		.cfi_offset 14, -4
 621              		.loc 1 222 0
 622 0002 0446     		mov	r4, r0
 623              		.loc 1 218 0
ARM GAS  /tmp/ccPYC652.s 			page 12


 624 0004 86B0     		sub	sp, sp, #24
 625              	.LCFI13:
 626              		.cfi_def_cfa_offset 32
 627              		.loc 1 222 0
 628 0006 68B1     		cbz	r0, .L94
 629              		.loc 1 224 0
 630 0008 084B     		ldr	r3, .L95
 631              		.loc 1 225 0
 632 000a 0190     		str	r0, [sp, #4]
 633              		.loc 1 226 0
 634 000c 6846     		mov	r0, sp
 635              	.LVL64:
 636              		.loc 1 224 0
 637 000e 0093     		str	r3, [sp, #0]
 638              		.loc 1 226 0
 639 0010 FFF7FEFF 		bl	tcpip_apimsg
 640              	.LVL65:
 641              		.loc 1 228 0
 642 0014 94F90830 		ldrsb	r3, [r4, #8]
 643 0018 0933     		adds	r3, r3, #9
 644 001a A8BF     		it	ge
 645 001c 2072     		strbge	r0, [r4, #8]
 646              	.LVL66:
 647              	.L93:
 648              		.loc 1 230 0
 649 001e 40B2     		sxtb	r0, r0
 650 0020 06B0     		add	sp, sp, #24
 651 0022 10BD     		pop	{r4, pc}
 652              	.LVL67:
 653              	.L94:
 654              		.loc 1 222 0 discriminator 1
 655 0024 FFF7FEFF 		bl	port_halt
 656              	.LVL68:
 657 0028 F220     		movs	r0, #242
 658 002a F8E7     		b	.L93
 659              	.L96:
 660              		.align	2
 661              	.L95:
 662 002c 00000000 		.word	do_disconnect
 663              		.cfi_endproc
 664              	.LFE12:
 665              		.size	netconn_disconnect, .-netconn_disconnect
 666              		.section	.text.netconn_listen_with_backlog,"ax",%progbits
 667              		.align	2
 668              		.p2align 4,,15
 669              		.global	netconn_listen_with_backlog
 670              		.thumb
 671              		.thumb_func
 672              		.type	netconn_listen_with_backlog, %function
 673              	netconn_listen_with_backlog:
 674              	.LFB13:
 675              		.loc 1 242 0
 676              		.cfi_startproc
 677              		@ args = 0, pretend = 0, frame = 24
 678              		@ frame_needed = 0, uses_anonymous_args = 0
 679              	.LVL69:
 680 0000 10B5     		push	{r4, lr}
ARM GAS  /tmp/ccPYC652.s 			page 13


 681              	.LCFI14:
 682              		.cfi_def_cfa_offset 8
 683              		.cfi_offset 4, -8
 684              		.cfi_offset 14, -4
 685              		.loc 1 250 0
 686 0002 0446     		mov	r4, r0
 687              		.loc 1 242 0
 688 0004 86B0     		sub	sp, sp, #24
 689              	.LCFI15:
 690              		.cfi_def_cfa_offset 32
 691              		.loc 1 250 0
 692 0006 68B1     		cbz	r0, .L100
 693              		.loc 1 252 0
 694 0008 084B     		ldr	r3, .L101
 695              		.loc 1 253 0
 696 000a 0190     		str	r0, [sp, #4]
 697              		.loc 1 257 0
 698 000c 6846     		mov	r0, sp
 699              	.LVL70:
 700              		.loc 1 252 0
 701 000e 0093     		str	r3, [sp, #0]
 702              		.loc 1 257 0
 703 0010 FFF7FEFF 		bl	tcpip_apimsg
 704              	.LVL71:
 705              		.loc 1 259 0
 706 0014 94F90830 		ldrsb	r3, [r4, #8]
 707 0018 0933     		adds	r3, r3, #9
 708 001a A8BF     		it	ge
 709 001c 2072     		strbge	r0, [r4, #8]
 710              	.LVL72:
 711              	.L99:
 712              		.loc 1 266 0
 713 001e 40B2     		sxtb	r0, r0
 714 0020 06B0     		add	sp, sp, #24
 715 0022 10BD     		pop	{r4, pc}
 716              	.LVL73:
 717              	.L100:
 718              		.loc 1 250 0 discriminator 1
 719 0024 FFF7FEFF 		bl	port_halt
 720              	.LVL74:
 721 0028 F220     		movs	r0, #242
 722 002a F8E7     		b	.L99
 723              	.L102:
 724              		.align	2
 725              	.L101:
 726 002c 00000000 		.word	do_listen
 727              		.cfi_endproc
 728              	.LFE13:
 729              		.size	netconn_listen_with_backlog, .-netconn_listen_with_backlog
 730              		.section	.text.netconn_accept,"ax",%progbits
 731              		.align	2
 732              		.p2align 4,,15
 733              		.global	netconn_accept
 734              		.thumb
 735              		.thumb_func
 736              		.type	netconn_accept, %function
 737              	netconn_accept:
ARM GAS  /tmp/ccPYC652.s 			page 14


 738              	.LFB14:
 739              		.loc 1 278 0
 740              		.cfi_startproc
 741              		@ args = 0, pretend = 0, frame = 8
 742              		@ frame_needed = 0, uses_anonymous_args = 0
 743              	.LVL75:
 744 0000 F0B5     		push	{r4, r5, r6, r7, lr}
 745              	.LCFI16:
 746              		.cfi_def_cfa_offset 20
 747              		.cfi_offset 4, -20
 748              		.cfi_offset 5, -16
 749              		.cfi_offset 6, -12
 750              		.cfi_offset 7, -8
 751              		.cfi_offset 14, -4
 752              		.loc 1 286 0
 753 0002 0D46     		mov	r5, r1
 754              		.loc 1 278 0
 755 0004 83B0     		sub	sp, sp, #12
 756              	.LCFI17:
 757              		.cfi_def_cfa_offset 32
 758              		.loc 1 278 0
 759 0006 0446     		mov	r4, r0
 760              		.loc 1 286 0
 761 0008 0029     		cmp	r1, #0
 762 000a 2DD0     		beq	.L106
 763              		.loc 1 287 0
 764 000c 0026     		movs	r6, #0
 765 000e 0E60     		str	r6, [r1, #0]
 766              		.loc 1 288 0
 767 0010 0028     		cmp	r0, #0
 768 0012 29D0     		beq	.L106
 769              		.loc 1 289 0
 770 0014 00F11407 		add	r7, r0, #20
 771 0018 3846     		mov	r0, r7
 772              	.LVL76:
 773 001a FFF7FEFF 		bl	sys_mbox_valid
 774              	.LVL77:
 775 001e 0028     		cmp	r0, #0
 776 0020 22D0     		beq	.L106
 777              	.LVL78:
 778              		.loc 1 292 0
 779 0022 94F90800 		ldrsb	r0, [r4, #8]
 780 0026 10F1090F 		cmn	r0, #9
 781 002a 01DA     		bge	.L119
 782              	.LVL79:
 783              	.L105:
 784              		.loc 1 330 0
 785 002c 03B0     		add	sp, sp, #12
 786 002e F0BD     		pop	{r4, r5, r6, r7, pc}
 787              	.LVL80:
 788              	.L119:
 789              		.loc 1 304 0
 790 0030 3846     		mov	r0, r7
 791 0032 01A9     		add	r1, sp, #4
 792 0034 3246     		mov	r2, r6
 793 0036 FFF7FEFF 		bl	sys_arch_mbox_fetch
 794              	.LVL81:
ARM GAS  /tmp/ccPYC652.s 			page 15


 795              		.loc 1 307 0
 796 003a A36A     		ldr	r3, [r4, #40]
 797 003c 1BB1     		cbz	r3, .L107
 798              		.loc 1 307 0 is_stmt 0 discriminator 1
 799 003e 2046     		mov	r0, r4
 800 0040 0121     		movs	r1, #1
 801 0042 3246     		mov	r2, r6
 802 0044 9847     		blx	r3
 803              	.LVL82:
 804              	.L107:
 805              		.loc 1 309 0 is_stmt 1
 806 0046 019B     		ldr	r3, [sp, #4]
 807 0048 13B1     		cbz	r3, .L120
 808              		.loc 1 322 0
 809 004a 2B60     		str	r3, [r5, #0]
 810 004c 0020     		movs	r0, #0
 811 004e EDE7     		b	.L105
 812              	.L120:
 813              		.loc 1 311 0
 814 0050 94F90830 		ldrsb	r3, [r4, #8]
 815 0054 0933     		adds	r3, r3, #9
 816 0056 B8BF     		it	lt
 817 0058 6FF00900 		mvnlt	r0, #9
 818 005c E6DB     		blt	.L105
 819              		.loc 1 311 0 is_stmt 0 discriminator 1
 820 005e F623     		movs	r3, #246
 821 0060 2372     		strb	r3, [r4, #8]
 822 0062 6FF00900 		mvn	r0, #9
 823 0066 E1E7     		b	.L105
 824              	.LVL83:
 825              	.L106:
 826              		.loc 1 286 0 is_stmt 1 discriminator 1
 827 0068 FFF7FEFF 		bl	port_halt
 828              	.LVL84:
 829 006c 6FF00D00 		mvn	r0, #13
 830 0070 DCE7     		b	.L105
 831              		.cfi_endproc
 832              	.LFE14:
 833              		.size	netconn_accept, .-netconn_accept
 834 0072 00BFAFF3 		.section	.text.netconn_recv_tcp_pbuf,"ax",%progbits
 834      0080AFF3 
 834      0080AFF3 
 834      0080
 835              		.align	2
 836              		.p2align 4,,15
 837              		.global	netconn_recv_tcp_pbuf
 838              		.thumb
 839              		.thumb_func
 840              		.type	netconn_recv_tcp_pbuf, %function
 841              	netconn_recv_tcp_pbuf:
 842              	.LFB16:
 843              		.loc 1 435 0
 844              		.cfi_startproc
 845              		@ args = 0, pretend = 0, frame = 0
 846              		@ frame_needed = 0, uses_anonymous_args = 0
 847              	.LVL85:
 848 0000 08B5     		push	{r3, lr}
ARM GAS  /tmp/ccPYC652.s 			page 16


 849              	.LCFI18:
 850              		.cfi_def_cfa_offset 8
 851              		.cfi_offset 3, -8
 852              		.cfi_offset 14, -4
 853              		.loc 1 436 0
 854 0002 30B1     		cbz	r0, .L122
 855              		.loc 1 436 0 is_stmt 0 discriminator 2
 856 0004 0378     		ldrb	r3, [r0, #0]	@ zero_extendqisi2
 857 0006 102B     		cmp	r3, #16
 858 0008 03D1     		bne	.L122
 859              		.loc 1 440 0 is_stmt 1
 860 000a BDE80840 		pop	{r3, lr}
 861              		.loc 1 439 0
 862 000e FFF7FEBF 		b	netconn_recv_data
 863              	.LVL86:
 864              	.L122:
 865              		.loc 1 436 0 discriminator 1
 866 0012 FFF7FEFF 		bl	port_halt
 867              	.LVL87:
 868              		.loc 1 440 0 discriminator 1
 869 0016 6FF00D00 		mvn	r0, #13
 870 001a 08BD     		pop	{r3, pc}
 871              		.cfi_endproc
 872              	.LFE16:
 873              		.size	netconn_recv_tcp_pbuf, .-netconn_recv_tcp_pbuf
 874 001c AFF30080 		.section	.text.netconn_recv,"ax",%progbits
 875              		.align	2
 876              		.p2align 4,,15
 877              		.global	netconn_recv
 878              		.thumb
 879              		.thumb_func
 880              		.type	netconn_recv, %function
 881              	netconn_recv:
 882              	.LFB17:
 883              		.loc 1 452 0
 884              		.cfi_startproc
 885              		@ args = 0, pretend = 0, frame = 8
 886              		@ frame_needed = 0, uses_anonymous_args = 0
 887              	.LVL88:
 888 0000 70B5     		push	{r4, r5, r6, lr}
 889              	.LCFI19:
 890              		.cfi_def_cfa_offset 16
 891              		.cfi_offset 4, -16
 892              		.cfi_offset 5, -12
 893              		.cfi_offset 6, -8
 894              		.cfi_offset 14, -4
 895              		.loc 1 458 0
 896 0002 0D46     		mov	r5, r1
 897              		.loc 1 452 0
 898 0004 82B0     		sub	sp, sp, #8
 899              	.LCFI20:
 900              		.cfi_def_cfa_offset 24
 901              		.loc 1 452 0
 902 0006 0446     		mov	r4, r0
 903              		.loc 1 458 0
 904 0008 0029     		cmp	r1, #0
 905 000a 3CD0     		beq	.L132
ARM GAS  /tmp/ccPYC652.s 			page 17


 906              		.loc 1 459 0
 907 000c 0026     		movs	r6, #0
 908 000e 0E60     		str	r6, [r1, #0]
 909              		.loc 1 460 0
 910 0010 0028     		cmp	r0, #0
 911 0012 38D0     		beq	.L132
 912              		.loc 1 461 0
 913 0014 00F11000 		add	r0, r0, #16
 914              	.LVL89:
 915 0018 FFF7FEFF 		bl	sys_mbox_valid
 916              	.LVL90:
 917 001c 0028     		cmp	r0, #0
 918 001e 2ED0     		beq	.L143
 919              		.loc 1 464 0
 920 0020 2378     		ldrb	r3, [r4, #0]	@ zero_extendqisi2
 921 0022 102B     		cmp	r3, #16
 922 0024 07D0     		beq	.L144
 923              		.loc 1 492 0
 924 0026 2046     		mov	r0, r4
 925 0028 2946     		mov	r1, r5
 926 002a FFF7FEFF 		bl	netconn_recv_data
 927              	.LVL91:
 928 002e 0446     		mov	r4, r0
 929              	.LVL92:
 930              	.L131:
 931              		.loc 1 495 0
 932 0030 60B2     		sxtb	r0, r4
 933 0032 02B0     		add	sp, sp, #8
 934 0034 70BD     		pop	{r4, r5, r6, pc}
 935              	.LVL93:
 936              	.L144:
 937              	.LBB2:
 938              		.loc 1 468 0
 939 0036 0720     		movs	r0, #7
 940              		.loc 1 465 0
 941 0038 0196     		str	r6, [sp, #4]
 942              	.LVL94:
 943              		.loc 1 468 0
 944 003a FFF7FEFF 		bl	memp_malloc
 945              	.LVL95:
 946              		.loc 1 469 0
 947 003e 0646     		mov	r6, r0
 948 0040 70B1     		cbz	r0, .L145
 949              		.loc 1 474 0
 950 0042 2046     		mov	r0, r4
 951              	.LVL96:
 952 0044 01A9     		add	r1, sp, #4
 953 0046 FFF7FEFF 		bl	netconn_recv_data
 954              	.LVL97:
 955              		.loc 1 475 0
 956 004a 0446     		mov	r4, r0
 957              	.LVL98:
 958 004c 80B9     		cbnz	r0, .L146
 959              		.loc 1 479 0
 960 004e 019B     		ldr	r3, [sp, #4]
 961 0050 EBB1     		cbz	r3, .L147
 962              	.LVL99:
ARM GAS  /tmp/ccPYC652.s 			page 18


 963              	.L138:
 964              		.loc 1 483 0
 965 0052 0022     		movs	r2, #0
 966              		.loc 1 481 0
 967 0054 3360     		str	r3, [r6, #0]
 968              		.loc 1 482 0
 969 0056 7360     		str	r3, [r6, #4]
 970              		.loc 1 483 0
 971 0058 B281     		strh	r2, [r6, #12]	@ movhi
 972              		.loc 1 484 0
 973 005a B260     		str	r2, [r6, #8]
 974              		.loc 1 485 0
 975 005c 2E60     		str	r6, [r5, #0]
 976 005e E7E7     		b	.L131
 977              	.LVL100:
 978              	.L145:
 979              		.loc 1 470 0
 980 0060 94F90830 		ldrsb	r3, [r4, #8]
 981 0064 0933     		adds	r3, r3, #9
 982 0066 08DB     		blt	.L139
 983              		.loc 1 470 0 is_stmt 0 discriminator 1
 984 0068 FF23     		movs	r3, #255
 985 006a 2372     		strb	r3, [r4, #8]
 986              		.loc 1 471 0 is_stmt 1 discriminator 1
 987 006c 1C46     		mov	r4, r3
 988              	.LVL101:
 989 006e DFE7     		b	.L131
 990              	.LVL102:
 991              	.L146:
 992              		.loc 1 476 0
 993 0070 0720     		movs	r0, #7
 994              	.LVL103:
 995 0072 3146     		mov	r1, r6
 996 0074 FFF7FEFF 		bl	memp_free
 997              	.LVL104:
 998 0078 DAE7     		b	.L131
 999              	.LVL105:
 1000              	.L139:
 1001              		.loc 1 471 0
 1002 007a FF24     		movs	r4, #255
 1003              	.LVL106:
 1004 007c D8E7     		b	.L131
 1005              	.LVL107:
 1006              	.L143:
 1007              	.LBE2:
 1008              		.loc 1 461 0 discriminator 1
 1009 007e FFF7FEFF 		bl	port_halt
 1010              	.LVL108:
 1011 0082 F324     		movs	r4, #243
 1012              	.LVL109:
 1013 0084 D4E7     		b	.L131
 1014              	.LVL110:
 1015              	.L132:
 1016              		.loc 1 458 0 discriminator 1
 1017 0086 FFF7FEFF 		bl	port_halt
 1018              	.LVL111:
 1019 008a F224     		movs	r4, #242
ARM GAS  /tmp/ccPYC652.s 			page 19


 1020              	.LVL112:
 1021 008c D0E7     		b	.L131
 1022              	.LVL113:
 1023              	.L147:
 1024              	.LBB3:
 1025              		.loc 1 479 0 discriminator 1
 1026 008e FFF7FEFF 		bl	port_halt
 1027              	.LVL114:
 1028 0092 019B     		ldr	r3, [sp, #4]
 1029 0094 DDE7     		b	.L138
 1030              	.LBE3:
 1031              		.cfi_endproc
 1032              	.LFE17:
 1033              		.size	netconn_recv, .-netconn_recv
 1034 0096 00BFAFF3 		.section	.text.netconn_recved,"ax",%progbits
 1034      0080AFF3 
 1034      0080
 1035              		.align	2
 1036              		.p2align 4,,15
 1037              		.global	netconn_recved
 1038              		.thumb
 1039              		.thumb_func
 1040              		.type	netconn_recved, %function
 1041              	netconn_recved:
 1042              	.LFB18:
 1043              		.loc 1 509 0
 1044              		.cfi_startproc
 1045              		@ args = 0, pretend = 0, frame = 24
 1046              		@ frame_needed = 0, uses_anonymous_args = 0
 1047              	.LVL115:
 1048 0000 00B5     		push	{lr}
 1049              	.LCFI21:
 1050              		.cfi_def_cfa_offset 4
 1051              		.cfi_offset 14, -4
 1052 0002 87B0     		sub	sp, sp, #28
 1053              	.LCFI22:
 1054              		.cfi_def_cfa_offset 32
 1055              		.loc 1 511 0
 1056 0004 10B1     		cbz	r0, .L148
 1057              		.loc 1 511 0 is_stmt 0 discriminator 1
 1058 0006 0378     		ldrb	r3, [r0, #0]	@ zero_extendqisi2
 1059 0008 102B     		cmp	r3, #16
 1060 000a 01D0     		beq	.L156
 1061              	.LVL116:
 1062              	.L148:
 1063              		.loc 1 527 0 is_stmt 1
 1064 000c 07B0     		add	sp, sp, #28
 1065 000e 00BD     		pop	{pc}
 1066              	.LVL117:
 1067              	.L156:
 1068              		.loc 1 512 0 discriminator 1
 1069 0010 037F     		ldrb	r3, [r0, #28]	@ zero_extendqisi2
 1070              		.loc 1 511 0 discriminator 1
 1071 0012 03F00803 		and	r3, r3, #8
 1072 0016 DBB2     		uxtb	r3, r3
 1073 0018 002B     		cmp	r3, #0
 1074 001a F7D0     		beq	.L148
ARM GAS  /tmp/ccPYC652.s 			page 20


 1075              	.LBB4:
 1076              		.loc 1 517 0
 1077 001c 034B     		ldr	r3, .L157
 1078              		.loc 1 518 0
 1079 001e 0190     		str	r0, [sp, #4]
 1080              		.loc 1 521 0
 1081 0020 6846     		mov	r0, sp
 1082              	.LVL118:
 1083              		.loc 1 517 0
 1084 0022 0093     		str	r3, [sp, #0]
 1085              		.loc 1 519 0
 1086 0024 0391     		str	r1, [sp, #12]
 1087              		.loc 1 521 0
 1088 0026 FFF7FEFF 		bl	tcpip_apimsg
 1089              	.LVL119:
 1090 002a EFE7     		b	.L148
 1091              	.L158:
 1092              		.align	2
 1093              	.L157:
 1094 002c 00000000 		.word	do_recv
 1095              	.LBE4:
 1096              		.cfi_endproc
 1097              	.LFE18:
 1098              		.size	netconn_recved, .-netconn_recved
 1099              		.section	.text.netconn_send,"ax",%progbits
 1100              		.align	2
 1101              		.p2align 4,,15
 1102              		.global	netconn_send
 1103              		.thumb
 1104              		.thumb_func
 1105              		.type	netconn_send, %function
 1106              	netconn_send:
 1107              	.LFB20:
 1108              		.loc 1 559 0
 1109              		.cfi_startproc
 1110              		@ args = 0, pretend = 0, frame = 24
 1111              		@ frame_needed = 0, uses_anonymous_args = 0
 1112              	.LVL120:
 1113 0000 10B5     		push	{r4, lr}
 1114              	.LCFI23:
 1115              		.cfi_def_cfa_offset 8
 1116              		.cfi_offset 4, -8
 1117              		.cfi_offset 14, -4
 1118              		.loc 1 563 0
 1119 0002 0446     		mov	r4, r0
 1120              		.loc 1 559 0
 1121 0004 86B0     		sub	sp, sp, #24
 1122              	.LCFI24:
 1123              		.cfi_def_cfa_offset 32
 1124              		.loc 1 563 0
 1125 0006 70B1     		cbz	r0, .L162
 1126              		.loc 1 566 0
 1127 0008 094B     		ldr	r3, .L163
 1128              		.loc 1 567 0
 1129 000a 0190     		str	r0, [sp, #4]
 1130              		.loc 1 569 0
 1131 000c 6846     		mov	r0, sp
ARM GAS  /tmp/ccPYC652.s 			page 21


 1132              	.LVL121:
 1133              		.loc 1 566 0
 1134 000e 0093     		str	r3, [sp, #0]
 1135              		.loc 1 568 0
 1136 0010 0391     		str	r1, [sp, #12]
 1137              		.loc 1 569 0
 1138 0012 FFF7FEFF 		bl	tcpip_apimsg
 1139              	.LVL122:
 1140              		.loc 1 571 0
 1141 0016 94F90830 		ldrsb	r3, [r4, #8]
 1142 001a 0933     		adds	r3, r3, #9
 1143 001c A8BF     		it	ge
 1144 001e 2072     		strbge	r0, [r4, #8]
 1145              	.LVL123:
 1146              	.L161:
 1147              		.loc 1 573 0
 1148 0020 40B2     		sxtb	r0, r0
 1149 0022 06B0     		add	sp, sp, #24
 1150 0024 10BD     		pop	{r4, pc}
 1151              	.LVL124:
 1152              	.L162:
 1153              		.loc 1 563 0 discriminator 1
 1154 0026 FFF7FEFF 		bl	port_halt
 1155              	.LVL125:
 1156 002a F220     		movs	r0, #242
 1157 002c F8E7     		b	.L161
 1158              	.L164:
 1159 002e 00BF     		.align	2
 1160              	.L163:
 1161 0030 00000000 		.word	do_send
 1162              		.cfi_endproc
 1163              	.LFE20:
 1164              		.size	netconn_send, .-netconn_send
 1165 0034 AFF30080 		.section	.text.netconn_sendto,"ax",%progbits
 1165      AFF30080 
 1165      AFF30080 
 1166              		.align	2
 1167              		.p2align 4,,15
 1168              		.global	netconn_sendto
 1169              		.thumb
 1170              		.thumb_func
 1171              		.type	netconn_sendto, %function
 1172              	netconn_sendto:
 1173              	.LFB19:
 1174              		.loc 1 541 0
 1175              		.cfi_startproc
 1176              		@ args = 0, pretend = 0, frame = 0
 1177              		@ frame_needed = 0, uses_anonymous_args = 0
 1178              		@ link register save eliminated.
 1179              	.LVL126:
 1180              		.loc 1 542 0
 1181 0000 29B1     		cbz	r1, .L166
 1182              		.loc 1 543 0
 1183 0002 02B1     		cbz	r2, .L167
 1184              		.loc 1 543 0 is_stmt 0 discriminator 1
 1185 0004 1268     		ldr	r2, [r2, #0]
 1186              	.LVL127:
ARM GAS  /tmp/ccPYC652.s 			page 22


 1187              	.L167:
 1188              		.loc 1 543 0 discriminator 3
 1189 0006 8A60     		str	r2, [r1, #8]
 1190              		.loc 1 544 0 is_stmt 1 discriminator 3
 1191 0008 8B81     		strh	r3, [r1, #12]	@ movhi
 1192              		.loc 1 548 0 discriminator 3
 1193              		.loc 1 545 0 discriminator 3
 1194 000a FFF7FEBF 		b	netconn_send
 1195              	.LVL128:
 1196              	.L166:
 1197              		.loc 1 548 0
 1198 000e 6FF00500 		mvn	r0, #5
 1199              	.LVL129:
 1200 0012 7047     		bx	lr
 1201              		.cfi_endproc
 1202              	.LFE19:
 1203              		.size	netconn_sendto, .-netconn_sendto
 1204 0014 AFF30080 		.section	.text.netconn_write,"ax",%progbits
 1204      AFF30080 
 1204      AFF30080 
 1205              		.align	2
 1206              		.p2align 4,,15
 1207              		.global	netconn_write
 1208              		.thumb
 1209              		.thumb_func
 1210              		.type	netconn_write, %function
 1211              	netconn_write:
 1212              	.LFB21:
 1213              		.loc 1 589 0
 1214              		.cfi_startproc
 1215              		@ args = 0, pretend = 0, frame = 24
 1216              		@ frame_needed = 0, uses_anonymous_args = 0
 1217              	.LVL130:
 1218 0000 30B5     		push	{r4, r5, lr}
 1219              	.LCFI25:
 1220              		.cfi_def_cfa_offset 12
 1221              		.cfi_offset 4, -12
 1222              		.cfi_offset 5, -8
 1223              		.cfi_offset 14, -4
 1224              		.loc 1 593 0
 1225 0002 0446     		mov	r4, r0
 1226              		.loc 1 589 0
 1227 0004 87B0     		sub	sp, sp, #28
 1228              	.LCFI26:
 1229              		.cfi_def_cfa_offset 40
 1230              		.loc 1 593 0
 1231 0006 D0B1     		cbz	r0, .L174
 1232              		.loc 1 594 0
 1233 0008 0078     		ldrb	r0, [r0, #0]	@ zero_extendqisi2
 1234              	.LVL131:
 1235 000a 1028     		cmp	r0, #16
 1236 000c 13D1     		bne	.L175
 1237              		.loc 1 596 0
 1238 000e 1046     		mov	r0, r2
 1239              		.loc 1 595 0
 1240 0010 72B1     		cbz	r2, .L171
 1241              		.loc 1 601 0
ARM GAS  /tmp/ccPYC652.s 			page 23


 1242 0012 0D4D     		ldr	r5, .L176
 1243              		.loc 1 604 0
 1244 0014 8DF81430 		strb	r3, [sp, #20]
 1245              		.loc 1 609 0
 1246 0018 6846     		mov	r0, sp
 1247              		.loc 1 602 0
 1248 001a 0194     		str	r4, [sp, #4]
 1249              		.loc 1 601 0
 1250 001c 0095     		str	r5, [sp, #0]
 1251              		.loc 1 603 0
 1252 001e 0391     		str	r1, [sp, #12]
 1253              		.loc 1 605 0
 1254 0020 0492     		str	r2, [sp, #16]
 1255              		.loc 1 609 0
 1256 0022 FFF7FEFF 		bl	tcpip_apimsg
 1257              	.LVL132:
 1258              		.loc 1 611 0
 1259 0026 94F90830 		ldrsb	r3, [r4, #8]
 1260 002a 0933     		adds	r3, r3, #9
 1261 002c A8BF     		it	ge
 1262 002e 2072     		strbge	r0, [r4, #8]
 1263              	.LVL133:
 1264              	.L171:
 1265              		.loc 1 613 0
 1266 0030 40B2     		sxtb	r0, r0
 1267 0032 07B0     		add	sp, sp, #28
 1268 0034 30BD     		pop	{r4, r5, pc}
 1269              	.LVL134:
 1270              	.L175:
 1271              		.loc 1 594 0 discriminator 1
 1272 0036 FFF7FEFF 		bl	port_halt
 1273              	.LVL135:
 1274 003a FA20     		movs	r0, #250
 1275 003c F8E7     		b	.L171
 1276              	.LVL136:
 1277              	.L174:
 1278              		.loc 1 593 0 discriminator 1
 1279 003e FFF7FEFF 		bl	port_halt
 1280              	.LVL137:
 1281 0042 F220     		movs	r0, #242
 1282 0044 F4E7     		b	.L171
 1283              	.L177:
 1284 0046 00BF     		.align	2
 1285              	.L176:
 1286 0048 00000000 		.word	do_write
 1287              		.cfi_endproc
 1288              	.LFE21:
 1289              		.size	netconn_write, .-netconn_write
 1290 004c AFF30080 		.section	.text.netconn_close,"ax",%progbits
 1291              		.align	2
 1292              		.p2align 4,,15
 1293              		.global	netconn_close
 1294              		.thumb
 1295              		.thumb_func
 1296              		.type	netconn_close, %function
 1297              	netconn_close:
 1298              	.LFB23:
ARM GAS  /tmp/ccPYC652.s 			page 24


 1299              		.loc 1 650 0
 1300              		.cfi_startproc
 1301              		@ args = 0, pretend = 0, frame = 24
 1302              		@ frame_needed = 0, uses_anonymous_args = 0
 1303              	.LVL138:
 1304 0000 10B5     		push	{r4, lr}
 1305              	.LCFI27:
 1306              		.cfi_def_cfa_offset 8
 1307              		.cfi_offset 4, -8
 1308              		.cfi_offset 14, -4
 1309              	.LBB7:
 1310              	.LBB8:
 1311              		.loc 1 628 0
 1312 0002 0446     		mov	r4, r0
 1313              	.LBE8:
 1314              	.LBE7:
 1315              		.loc 1 650 0
 1316 0004 86B0     		sub	sp, sp, #24
 1317              	.LCFI28:
 1318              		.cfi_def_cfa_offset 32
 1319              	.LBB11:
 1320              	.LBB9:
 1321              		.loc 1 628 0
 1322 0006 80B1     		cbz	r0, .L181
 1323              		.loc 1 630 0
 1324 0008 0A4B     		ldr	r3, .L182
 1325              		.loc 1 631 0
 1326 000a 0190     		str	r0, [sp, #4]
 1327              		.loc 1 630 0
 1328 000c 0093     		str	r3, [sp, #0]
 1329              		.loc 1 636 0
 1330 000e 6846     		mov	r0, sp
 1331              	.LVL139:
 1332              		.loc 1 633 0
 1333 0010 0323     		movs	r3, #3
 1334 0012 8DF80C30 		strb	r3, [sp, #12]
 1335              		.loc 1 636 0
 1336 0016 FFF7FEFF 		bl	tcpip_apimsg
 1337              	.LVL140:
 1338              		.loc 1 638 0
 1339 001a 94F90830 		ldrsb	r3, [r4, #8]
 1340 001e 0933     		adds	r3, r3, #9
 1341 0020 A8BF     		it	ge
 1342 0022 2072     		strbge	r0, [r4, #8]
 1343              	.LVL141:
 1344              	.L180:
 1345              	.LBE9:
 1346              	.LBE11:
 1347              		.loc 1 653 0
 1348 0024 40B2     		sxtb	r0, r0
 1349 0026 06B0     		add	sp, sp, #24
 1350 0028 10BD     		pop	{r4, pc}
 1351              	.LVL142:
 1352              	.L181:
 1353              	.LBB12:
 1354              	.LBB10:
 1355              		.loc 1 628 0
ARM GAS  /tmp/ccPYC652.s 			page 25


 1356 002a FFF7FEFF 		bl	port_halt
 1357              	.LVL143:
 1358 002e F220     		movs	r0, #242
 1359 0030 F8E7     		b	.L180
 1360              	.L183:
 1361 0032 00BF     		.align	2
 1362              	.L182:
 1363 0034 00000000 		.word	do_close
 1364              	.LBE10:
 1365              	.LBE12:
 1366              		.cfi_endproc
 1367              	.LFE23:
 1368              		.size	netconn_close, .-netconn_close
 1369 0038 AFF30080 		.section	.text.netconn_shutdown,"ax",%progbits
 1369      AFF30080 
 1370              		.align	2
 1371              		.p2align 4,,15
 1372              		.global	netconn_shutdown
 1373              		.thumb
 1374              		.thumb_func
 1375              		.type	netconn_shutdown, %function
 1376              	netconn_shutdown:
 1377              	.LFB24:
 1378              		.loc 1 663 0
 1379              		.cfi_startproc
 1380              		@ args = 0, pretend = 0, frame = 24
 1381              		@ frame_needed = 0, uses_anonymous_args = 0
 1382              	.LVL144:
 1383 0000 10B5     		push	{r4, lr}
 1384              	.LCFI29:
 1385              		.cfi_def_cfa_offset 8
 1386              		.cfi_offset 4, -8
 1387              		.cfi_offset 14, -4
 1388              		.loc 1 664 0
 1389 0002 002A     		cmp	r2, #0
 1390 0004 14BF     		ite	ne
 1391 0006 0222     		movne	r2, #2
 1392 0008 0022     		moveq	r2, #0
 1393              	.LVL145:
 1394              		.loc 1 663 0
 1395 000a 86B0     		sub	sp, sp, #24
 1396              	.LCFI30:
 1397              		.cfi_def_cfa_offset 32
 1398              	.LBB15:
 1399              	.LBB16:
 1400              		.loc 1 628 0
 1401 000c 0446     		mov	r4, r0
 1402              	.LBE16:
 1403              	.LBE15:
 1404              		.loc 1 664 0
 1405 000e 0029     		cmp	r1, #0
 1406 0010 0CBF     		ite	eq
 1407 0012 1146     		moveq	r1, r2
 1408 0014 42F00101 		orrne	r1, r2, #1
 1409              	.LVL146:
 1410              	.LBB19:
 1411              	.LBB17:
ARM GAS  /tmp/ccPYC652.s 			page 26


 1412              		.loc 1 628 0
 1413 0018 78B1     		cbz	r0, .L189
 1414              		.loc 1 630 0
 1415 001a 0A4B     		ldr	r3, .L190
 1416              		.loc 1 631 0
 1417 001c 0190     		str	r0, [sp, #4]
 1418              		.loc 1 636 0
 1419 001e 6846     		mov	r0, sp
 1420              	.LVL147:
 1421              		.loc 1 630 0
 1422 0020 0093     		str	r3, [sp, #0]
 1423              		.loc 1 633 0
 1424 0022 8DF80C10 		strb	r1, [sp, #12]
 1425              		.loc 1 636 0
 1426 0026 FFF7FEFF 		bl	tcpip_apimsg
 1427              	.LVL148:
 1428              		.loc 1 638 0
 1429 002a 94F90830 		ldrsb	r3, [r4, #8]
 1430 002e 0933     		adds	r3, r3, #9
 1431 0030 A8BF     		it	ge
 1432 0032 2072     		strbge	r0, [r4, #8]
 1433              	.LVL149:
 1434              	.L187:
 1435              	.LBE17:
 1436              	.LBE19:
 1437              		.loc 1 665 0
 1438 0034 40B2     		sxtb	r0, r0
 1439 0036 06B0     		add	sp, sp, #24
 1440 0038 10BD     		pop	{r4, pc}
 1441              	.LVL150:
 1442              	.L189:
 1443              	.LBB20:
 1444              	.LBB18:
 1445              		.loc 1 628 0
 1446 003a FFF7FEFF 		bl	port_halt
 1447              	.LVL151:
 1448 003e F220     		movs	r0, #242
 1449 0040 F8E7     		b	.L187
 1450              	.L191:
 1451 0042 00BF     		.align	2
 1452              	.L190:
 1453 0044 00000000 		.word	do_close
 1454              	.LBE18:
 1455              	.LBE20:
 1456              		.cfi_endproc
 1457              	.LFE24:
 1458              		.size	netconn_shutdown, .-netconn_shutdown
 1459 0048 AFF30080 		.text
 1459      AFF30080 
 1460              	.Letext0:
 1461              		.file 2 "/opt/psas/x-tools/stm32f407/arm-psas-eabi/bin/../lib/gcc/arm-psas-eabi/4.7.2/include/stdd
 1462              		.file 3 "/opt/psas/x-tools/stm32f407/arm-psas-eabi/bin/../lib/gcc/arm-psas-eabi/4.7.2/../../../../
 1463              		.file 4 "../../os/ports/GCC/ARMCMx/chtypes.h"
 1464              		.file 5 "../../os/kernel/include/chlists.h"
 1465              		.file 6 "../../os/kernel/include/chthreads.h"
 1466              		.file 7 "../../os/ports/GCC/ARMCMx/chcore_v7m.h"
 1467              		.file 8 "../../os/kernel/include/chsem.h"
ARM GAS  /tmp/ccPYC652.s 			page 27


 1468              		.file 9 "../../os/kernel/include/chmtx.h"
 1469              		.file 10 "../../os/kernel/include/chmboxes.h"
 1470              		.file 11 "../../os/various/lwip_bindings/arch/cc.h"
 1471              		.file 12 "../../ext/lwip/src/include/lwip/err.h"
 1472              		.file 13 "../../ext/lwip/src/include/lwip/pbuf.h"
 1473              		.file 14 "../../ext/lwip/src/include/ipv4/lwip/ip_addr.h"
 1474              		.file 15 "../../ext/lwip/src/include/lwip/netbuf.h"
 1475              		.file 16 "../../os/various/lwip_bindings/arch/sys_arch.h"
 1476              		.file 17 "../../ext/lwip/src/include/lwip/api.h"
 1477              		.file 18 "../../ext/lwip/src/include/ipv4/lwip/ip.h"
 1478              		.file 19 "../../ext/lwip/src/include/lwip/tcp.h"
 1479              		.file 20 "../../ext/lwip/src/include/lwip/udp.h"
 1480              		.file 21 "../../ext/lwip/src/include/lwip/raw.h"
 1481              		.file 22 "../../ext/lwip/src/include/lwip/api_msg.h"
 1482              		.file 23 "../../ext/lwip/src/include/lwip/memp.h"
 1483              		.file 24 "../../ext/lwip/src/include/lwip/sys.h"
 1484              		.file 25 "../../ext/lwip/src/include/lwip/tcpip.h"