ARM GAS  /tmp/ccKs28dn.s 			page 1


   1              		.syntax unified
   2              		.cpu cortex-m4
   3              		.eabi_attribute 27, 3
   4              		.eabi_attribute 28, 1
   5              		.fpu fpv4-sp-d16
   6              		.eabi_attribute 20, 1
   7              		.eabi_attribute 21, 1
   8              		.eabi_attribute 23, 3
   9              		.eabi_attribute 24, 1
  10              		.eabi_attribute 25, 1
  11              		.eabi_attribute 26, 1
  12              		.eabi_attribute 30, 2
  13              		.eabi_attribute 34, 1
  14              		.eabi_attribute 18, 4
  15              		.thumb
  16              		.file	"api_msg.c"
  17              		.text
  18              	.Ltext0:
  19              		.cfi_sections	.debug_frame
  20              		.section	.text.setup_tcp,"ax",%progbits
  21              		.align	2
  22              		.p2align 4,,15
  23              		.thumb
  24              		.thumb_func
  25              		.type	setup_tcp, %function
  26              	setup_tcp:
  27              	.LFB13:
  28              		.file 1 "../../ext/lwip/src/api/api_msg.c"
  29              		.loc 1 414 0
  30              		.cfi_startproc
  31              		@ args = 0, pretend = 0, frame = 0
  32              		@ frame_needed = 0, uses_anonymous_args = 0
  33              	.LVL0:
  34 0000 10B5     		push	{r4, lr}
  35              	.LCFI0:
  36              		.cfi_def_cfa_offset 8
  37              		.cfi_offset 4, -8
  38              		.cfi_offset 14, -4
  39              		.loc 1 417 0
  40 0002 4468     		ldr	r4, [r0, #4]
  41              	.LVL1:
  42              		.loc 1 418 0
  43 0004 0146     		mov	r1, r0
  44 0006 2046     		mov	r0, r4
  45              	.LVL2:
  46 0008 FFF7FEFF 		bl	tcp_arg
  47              	.LVL3:
  48              		.loc 1 419 0
  49 000c 40F20001 		movw	r1, #:lower16:recv_tcp
  50 0010 2046     		mov	r0, r4
  51 0012 C0F20001 		movt	r1, #:upper16:recv_tcp
  52 0016 FFF7FEFF 		bl	tcp_recv
  53              	.LVL4:
  54              		.loc 1 420 0
  55 001a 40F20001 		movw	r1, #:lower16:sent_tcp
  56 001e 2046     		mov	r0, r4
  57 0020 C0F20001 		movt	r1, #:upper16:sent_tcp
ARM GAS  /tmp/ccKs28dn.s 			page 2


  58 0024 FFF7FEFF 		bl	tcp_sent
  59              	.LVL5:
  60              		.loc 1 421 0
  61 0028 40F20001 		movw	r1, #:lower16:poll_tcp
  62 002c 2046     		mov	r0, r4
  63 002e C0F20001 		movt	r1, #:upper16:poll_tcp
  64 0032 0422     		movs	r2, #4
  65 0034 FFF7FEFF 		bl	tcp_poll
  66              	.LVL6:
  67              		.loc 1 422 0
  68 0038 40F20001 		movw	r1, #:lower16:err_tcp
  69 003c 2046     		mov	r0, r4
  70 003e C0F20001 		movt	r1, #:upper16:err_tcp
  71              		.loc 1 423 0
  72 0042 BDE81040 		pop	{r4, lr}
  73              		.loc 1 422 0
  74 0046 FFF7FEBF 		b	tcp_err
  75              	.LVL7:
  76              		.cfi_endproc
  77              	.LFE13:
  78              		.size	setup_tcp, .-setup_tcp
  79 004a 00BFAFF3 		.section	.text.do_connected,"ax",%progbits
  79      0080
  80              		.align	2
  81              		.p2align 4,,15
  82              		.thumb
  83              		.thumb_func
  84              		.type	do_connected, %function
  85              	do_connected:
  86              	.LFB23:
  87              		.loc 1 926 0
  88              		.cfi_startproc
  89              		@ args = 0, pretend = 0, frame = 0
  90              		@ frame_needed = 0, uses_anonymous_args = 0
  91              	.LVL8:
  92 0000 38B5     		push	{r3, r4, r5, lr}
  93              	.LCFI1:
  94              		.cfi_def_cfa_offset 16
  95              		.cfi_offset 3, -16
  96              		.cfi_offset 4, -12
  97              		.cfi_offset 5, -8
  98              		.cfi_offset 14, -4
  99              		.loc 1 934 0
 100 0002 0446     		mov	r4, r0
 101              		.loc 1 926 0
 102 0004 1546     		mov	r5, r2
 103              		.loc 1 934 0
 104 0006 0028     		cmp	r0, #0
 105 0008 3DD0     		beq	.L12
 106              		.loc 1 938 0
 107 000a 4378     		ldrb	r3, [r0, #1]	@ zero_extendqisi2
 108 000c 032B     		cmp	r3, #3
 109 000e 01D0     		beq	.L4
 110              		.loc 1 938 0 is_stmt 0 discriminator 1
 111 0010 FFF7FEFF 		bl	port_halt
 112              	.LVL9:
 113              	.L4:
ARM GAS  /tmp/ccKs28dn.s 			page 3


 114              		.loc 1 939 0 is_stmt 1
 115 0014 636A     		ldr	r3, [r4, #36]
 116 0016 53B3     		cbz	r3, .L24
 117              	.L5:
 118              		.loc 1 943 0
 119 0018 1D71     		strb	r5, [r3, #4]
 120              	.L7:
 121              		.loc 1 945 0
 122 001a 2378     		ldrb	r3, [r4, #0]	@ zero_extendqisi2
 123 001c 102B     		cmp	r3, #16
 124 001e 20D0     		beq	.L25
 125              	.L9:
 126              		.loc 1 948 0
 127 0020 227F     		ldrb	r2, [r4, #28]	@ zero_extendqisi2
 128 0022 82F00405 		eor	r5, r2, #4
 129              		.loc 1 950 0
 130 0026 0023     		movs	r3, #0
 131              		.loc 1 949 0
 132 0028 22F00402 		bic	r2, r2, #4
 133              		.loc 1 948 0
 134 002c C5F38005 		ubfx	r5, r5, #2, #1
 135              	.LVL10:
 136              		.loc 1 949 0
 137 0030 2277     		strb	r2, [r4, #28]
 138              		.loc 1 950 0
 139 0032 6362     		str	r3, [r4, #36]
 140              		.loc 1 951 0
 141 0034 6370     		strb	r3, [r4, #1]
 142              		.loc 1 952 0
 143 0036 75B1     		cbz	r5, .L26
 144              	.L10:
 145              		.loc 1 955 0
 146 0038 A36A     		ldr	r3, [r4, #40]
 147 003a 1BB1     		cbz	r3, .L11
 148              		.loc 1 955 0 is_stmt 0 discriminator 1
 149 003c 2046     		mov	r0, r4
 150 003e 0221     		movs	r1, #2
 151 0040 0022     		movs	r2, #0
 152 0042 9847     		blx	r3
 153              	.LVL11:
 154              	.L11:
 155              		.loc 1 960 0 is_stmt 1
 156 0044 2846     		mov	r0, r5
 157              		.loc 1 957 0
 158 0046 25B1     		cbz	r5, .L3
 159              	.LVL12:
 160              		.loc 1 958 0
 161 0048 04F10C00 		add	r0, r4, #12
 162              	.LVL13:
 163 004c FFF7FEFF 		bl	sys_sem_signal
 164              	.LVL14:
 165              		.loc 1 960 0
 166 0050 0020     		movs	r0, #0
 167              	.LVL15:
 168              	.L3:
 169              		.loc 1 961 0
 170 0052 40B2     		sxtb	r0, r0
ARM GAS  /tmp/ccKs28dn.s 			page 4


 171 0054 38BD     		pop	{r3, r4, r5, pc}
 172              	.LVL16:
 173              	.L26:
 174              		.loc 1 953 0
 175 0056 94F90830 		ldrsb	r3, [r4, #8]
 176 005a 0933     		adds	r3, r3, #9
 177 005c A8BF     		it	ge
 178 005e 2572     		strbge	r5, [r4, #8]
 179 0060 EAE7     		b	.L10
 180              	.LVL17:
 181              	.L25:
 182              		.loc 1 945 0 discriminator 1
 183 0062 002D     		cmp	r5, #0
 184 0064 DCD1     		bne	.L9
 185              		.loc 1 946 0
 186 0066 2046     		mov	r0, r4
 187 0068 FFF7FEFF 		bl	setup_tcp
 188              	.LVL18:
 189 006c D8E7     		b	.L9
 190              	.L24:
 191              		.loc 1 939 0 discriminator 1
 192 006e 237F     		ldrb	r3, [r4, #28]	@ zero_extendqisi2
 193 0070 03F00403 		and	r3, r3, #4
 194 0074 DBB2     		uxtb	r3, r3
 195 0076 002B     		cmp	r3, #0
 196 0078 CFD1     		bne	.L7
 197              		.loc 1 939 0 is_stmt 0 discriminator 2
 198 007a FFF7FEFF 		bl	port_halt
 199              	.LVL19:
 200              		.loc 1 942 0 is_stmt 1 discriminator 2
 201 007e 636A     		ldr	r3, [r4, #36]
 202 0080 002B     		cmp	r3, #0
 203 0082 CAD0     		beq	.L7
 204 0084 C8E7     		b	.L5
 205              	.LVL20:
 206              	.L12:
 207              		.loc 1 935 0
 208 0086 FA20     		movs	r0, #250
 209              	.LVL21:
 210 0088 E3E7     		b	.L3
 211              		.cfi_endproc
 212              	.LFE23:
 213              		.size	do_connected, .-do_connected
 214 008a 00BFAFF3 		.section	.text.do_close_internal,"ax",%progbits
 214      0080
 215              		.align	2
 216              		.p2align 4,,15
 217              		.thumb
 218              		.thumb_func
 219              		.type	do_close_internal, %function
 220              	do_close_internal:
 221              	.LFB20:
 222              		.loc 1 736 0
 223              		.cfi_startproc
 224              		@ args = 0, pretend = 0, frame = 0
 225              		@ frame_needed = 0, uses_anonymous_args = 0
 226              	.LVL22:
ARM GAS  /tmp/ccKs28dn.s 			page 5


 227 0000 F8B5     		push	{r3, r4, r5, r6, r7, lr}
 228              	.LCFI2:
 229              		.cfi_def_cfa_offset 24
 230              		.cfi_offset 3, -24
 231              		.cfi_offset 4, -20
 232              		.cfi_offset 5, -16
 233              		.cfi_offset 6, -12
 234              		.cfi_offset 7, -8
 235              		.cfi_offset 14, -4
 236              		.loc 1 740 0
 237 0002 0446     		mov	r4, r0
 238 0004 0028     		cmp	r0, #0
 239 0006 00F09A80 		beq	.L82
 240              	.LVL23:
 241              	.L28:
 242              		.loc 1 741 0
 243 000a 2378     		ldrb	r3, [r4, #0]	@ zero_extendqisi2
 244 000c 102B     		cmp	r3, #16
 245 000e 01D0     		beq	.L29
 246              		.loc 1 741 0 is_stmt 0 discriminator 1
 247 0010 FFF7FEFF 		bl	port_halt
 248              	.LVL24:
 249              	.L29:
 250              		.loc 1 742 0 is_stmt 1
 251 0014 6378     		ldrb	r3, [r4, #1]	@ zero_extendqisi2
 252 0016 042B     		cmp	r3, #4
 253 0018 01D0     		beq	.L30
 254              		.loc 1 742 0 is_stmt 0 discriminator 1
 255 001a FFF7FEFF 		bl	port_halt
 256              	.LVL25:
 257              	.L30:
 258              		.loc 1 743 0 is_stmt 1
 259 001e 6368     		ldr	r3, [r4, #4]
 260 0020 002B     		cmp	r3, #0
 261 0022 00F08580 		beq	.L83
 262              	.L31:
 263              		.loc 1 744 0
 264 0026 636A     		ldr	r3, [r4, #36]
 265 0028 002B     		cmp	r3, #0
 266 002a 00F08480 		beq	.L84
 267              	.L32:
 268              		.loc 1 746 0
 269 002e 197A     		ldrb	r1, [r3, #8]	@ zero_extendqisi2
 270              	.LVL26:
 271              		.loc 1 750 0
 272 0030 CB1E     		subs	r3, r1, #3
 273              	.LVL27:
 274 0032 5D42     		rsbs	r5, r3, #0
 275              		.loc 1 748 0
 276 0034 01F00206 		and	r6, r1, #2
 277              		.loc 1 750 0
 278 0038 5D41     		adcs	r5, r5, r3
 279              		.loc 1 747 0
 280 003a 01F00107 		and	r7, r1, #1
 281              	.LVL28:
 282              		.loc 1 748 0
 283 003e F6B2     		uxtb	r6, r6
ARM GAS  /tmp/ccKs28dn.s 			page 6


 284              	.LVL29:
 285              		.loc 1 753 0
 286 0040 002D     		cmp	r5, #0
 287 0042 64D1     		bne	.L85
 288              		.loc 1 756 0
 289 0044 6068     		ldr	r0, [r4, #4]
 290 0046 037C     		ldrb	r3, [r0, #16]	@ zero_extendqisi2
 291 0048 012B     		cmp	r3, #1
 292 004a 68D0     		beq	.L86
 293              	.LVL30:
 294              	.L34:
 295              		.loc 1 760 0
 296 004c 002F     		cmp	r7, #0
 297 004e 53D1     		bne	.L87
 298              		.loc 1 764 0
 299 0050 002E     		cmp	r6, #0
 300 0052 3CD1     		bne	.L88
 301              	.L37:
 302              		.loc 1 767 0
 303 0054 002D     		cmp	r5, #0
 304 0056 40D1     		bne	.L89
 305              	.L38:
 306              		.loc 1 776 0
 307 0058 3246     		mov	r2, r6
 308 005a 3946     		mov	r1, r7
 309 005c FFF7FEFF 		bl	tcp_shutdown
 310              	.LVL31:
 311 0060 0246     		mov	r2, r0
 312              	.LVL32:
 313              	.L39:
 314              		.loc 1 778 0
 315 0062 F2B9     		cbnz	r2, .L40
 316              		.loc 1 780 0
 317 0064 636A     		ldr	r3, [r4, #36]
 318 0066 1A71     		strb	r2, [r3, #4]
 319              		.loc 1 781 0
 320 0068 6262     		str	r2, [r4, #36]
 321              		.loc 1 782 0
 322 006a 6270     		strb	r2, [r4, #1]
 323              		.loc 1 784 0
 324 006c 6260     		str	r2, [r4, #4]
 325              		.loc 1 787 0
 326 006e 25B1     		cbz	r5, .L41
 327              		.loc 1 788 0
 328 0070 A56A     		ldr	r5, [r4, #40]
 329 0072 15B1     		cbz	r5, .L41
 330              		.loc 1 788 0 is_stmt 0 discriminator 1
 331 0074 2046     		mov	r0, r4
 332 0076 0421     		movs	r1, #4
 333 0078 A847     		blx	r5
 334              	.LVL33:
 335              	.L41:
 336              		.loc 1 790 0 is_stmt 1
 337 007a 2FB1     		cbz	r7, .L42
 338              		.loc 1 791 0
 339 007c A36A     		ldr	r3, [r4, #40]
 340 007e 1BB1     		cbz	r3, .L42
ARM GAS  /tmp/ccKs28dn.s 			page 7


 341              		.loc 1 791 0 is_stmt 0 discriminator 1
 342 0080 0021     		movs	r1, #0
 343 0082 2046     		mov	r0, r4
 344 0084 0A46     		mov	r2, r1
 345 0086 9847     		blx	r3
 346              	.LVL34:
 347              	.L42:
 348              		.loc 1 793 0 is_stmt 1
 349 0088 2EB1     		cbz	r6, .L43
 350              		.loc 1 794 0
 351 008a A36A     		ldr	r3, [r4, #40]
 352 008c 1BB1     		cbz	r3, .L43
 353              		.loc 1 794 0 is_stmt 0 discriminator 1
 354 008e 2046     		mov	r0, r4
 355 0090 0221     		movs	r1, #2
 356 0092 0022     		movs	r2, #0
 357 0094 9847     		blx	r3
 358              	.LVL35:
 359              	.L43:
 360              		.loc 1 797 0 is_stmt 1
 361 0096 04F10C00 		add	r0, r4, #12
 362              		.loc 1 810 0
 363 009a BDE8F840 		pop	{r3, r4, r5, r6, r7, lr}
 364              		.loc 1 797 0
 365 009e FFF7FEBF 		b	sys_sem_signal
 366              	.LVL36:
 367              	.L40:
 368              		.loc 1 801 0
 369 00a2 6068     		ldr	r0, [r4, #4]
 370 00a4 037C     		ldrb	r3, [r0, #16]	@ zero_extendqisi2
 371 00a6 012B     		cmp	r3, #1
 372 00a8 3ED0     		beq	.L90
 373              	.LVL37:
 374              	.L44:
 375              		.loc 1 802 0
 376 00aa 2649     		ldr	r1, .L91
 377 00ac FFF7FEFF 		bl	tcp_sent
 378              	.LVL38:
 379              		.loc 1 803 0
 380 00b0 6068     		ldr	r0, [r4, #4]
 381 00b2 2549     		ldr	r1, .L91+4
 382 00b4 0422     		movs	r2, #4
 383 00b6 FFF7FEFF 		bl	tcp_poll
 384              	.LVL39:
 385              		.loc 1 804 0
 386 00ba 6068     		ldr	r0, [r4, #4]
 387 00bc 2349     		ldr	r1, .L91+8
 388 00be FFF7FEFF 		bl	tcp_err
 389              	.LVL40:
 390              		.loc 1 805 0
 391 00c2 6068     		ldr	r0, [r4, #4]
 392 00c4 2146     		mov	r1, r4
 393              		.loc 1 810 0
 394 00c6 BDE8F840 		pop	{r3, r4, r5, r6, r7, lr}
 395              		.loc 1 805 0
 396 00ca FFF7FEBF 		b	tcp_arg
 397              	.LVL41:
ARM GAS  /tmp/ccKs28dn.s 			page 8


 398              	.L88:
 399              		.loc 1 765 0
 400 00ce 0021     		movs	r1, #0
 401 00d0 FFF7FEFF 		bl	tcp_sent
 402              	.LVL42:
 403 00d4 6068     		ldr	r0, [r4, #4]
 404              		.loc 1 767 0
 405 00d6 002D     		cmp	r5, #0
 406 00d8 BED0     		beq	.L38
 407              	.L89:
 408              		.loc 1 768 0
 409 00da 0021     		movs	r1, #0
 410 00dc 0422     		movs	r2, #4
 411 00de FFF7FEFF 		bl	tcp_poll
 412              	.LVL43:
 413              		.loc 1 769 0
 414 00e2 6068     		ldr	r0, [r4, #4]
 415 00e4 0021     		movs	r1, #0
 416 00e6 FFF7FEFF 		bl	tcp_err
 417              	.LVL44:
 418 00ea 6068     		ldr	r0, [r4, #4]
 419              	.L35:
 420              		.loc 1 773 0
 421 00ec 002D     		cmp	r5, #0
 422 00ee B3D0     		beq	.L38
 423              		.loc 1 774 0
 424 00f0 FFF7FEFF 		bl	tcp_close
 425              	.LVL45:
 426 00f4 0246     		mov	r2, r0
 427              	.LVL46:
 428 00f6 B4E7     		b	.L39
 429              	.LVL47:
 430              	.L87:
 431              		.loc 1 761 0
 432 00f8 0021     		movs	r1, #0
 433 00fa FFF7FEFF 		bl	tcp_recv
 434              	.LVL48:
 435              		.loc 1 762 0
 436 00fe 6068     		ldr	r0, [r4, #4]
 437 0100 0021     		movs	r1, #0
 438 0102 FFF7FEFF 		bl	tcp_accept
 439              	.LVL49:
 440 0106 6068     		ldr	r0, [r4, #4]
 441              		.loc 1 764 0
 442 0108 002E     		cmp	r6, #0
 443 010a A3D0     		beq	.L37
 444 010c DFE7     		b	.L88
 445              	.LVL50:
 446              	.L85:
 447              		.loc 1 754 0
 448 010e 6068     		ldr	r0, [r4, #4]
 449 0110 0021     		movs	r1, #0
 450              	.LVL51:
 451 0112 FFF7FEFF 		bl	tcp_arg
 452              	.LVL52:
 453              		.loc 1 756 0
 454 0116 6068     		ldr	r0, [r4, #4]
ARM GAS  /tmp/ccKs28dn.s 			page 9


 455 0118 037C     		ldrb	r3, [r0, #16]	@ zero_extendqisi2
 456 011a 012B     		cmp	r3, #1
 457 011c 96D1     		bne	.L34
 458              	.L86:
 459              		.loc 1 757 0
 460 011e 0021     		movs	r1, #0
 461 0120 FFF7FEFF 		bl	tcp_accept
 462              	.LVL53:
 463 0124 6068     		ldr	r0, [r4, #4]
 464 0126 E1E7     		b	.L35
 465              	.LVL54:
 466              	.L90:
 467              		.loc 1 801 0 discriminator 1
 468 0128 FFF7FEFF 		bl	port_halt
 469              	.LVL55:
 470 012c 6068     		ldr	r0, [r4, #4]
 471 012e BCE7     		b	.L44
 472              	.LVL56:
 473              	.L83:
 474              		.loc 1 743 0 discriminator 1
 475 0130 FFF7FEFF 		bl	port_halt
 476              	.LVL57:
 477 0134 77E7     		b	.L31
 478              	.L84:
 479              		.loc 1 744 0 discriminator 1
 480 0136 FFF7FEFF 		bl	port_halt
 481              	.LVL58:
 482 013a 636A     		ldr	r3, [r4, #36]
 483 013c 77E7     		b	.L32
 484              	.LVL59:
 485              	.L82:
 486              		.loc 1 740 0 discriminator 1
 487 013e FFF7FEFF 		bl	port_halt
 488              	.LVL60:
 489 0142 62E7     		b	.L28
 490              	.L92:
 491              		.align	2
 492              	.L91:
 493 0144 00000000 		.word	sent_tcp
 494 0148 00000000 		.word	poll_tcp
 495 014c 00000000 		.word	err_tcp
 496              		.cfi_endproc
 497              	.LFE20:
 498              		.size	do_close_internal, .-do_close_internal
 499              		.section	.text.err_tcp,"ax",%progbits
 500              		.align	2
 501              		.p2align 4,,15
 502              		.thumb
 503              		.thumb_func
 504              		.type	err_tcp, %function
 505              	err_tcp:
 506              	.LFB12:
 507              		.loc 1 348 0
 508              		.cfi_startproc
 509              		@ args = 0, pretend = 0, frame = 0
 510              		@ frame_needed = 0, uses_anonymous_args = 0
 511              	.LVL61:
ARM GAS  /tmp/ccKs28dn.s 			page 10


 512 0000 F8B5     		push	{r3, r4, r5, r6, r7, lr}
 513              	.LCFI3:
 514              		.cfi_def_cfa_offset 24
 515              		.cfi_offset 3, -24
 516              		.cfi_offset 4, -20
 517              		.cfi_offset 5, -16
 518              		.cfi_offset 6, -12
 519              		.cfi_offset 7, -8
 520              		.cfi_offset 14, -4
 521              		.loc 1 354 0
 522 0002 0446     		mov	r4, r0
 523              		.loc 1 348 0
 524 0004 0F46     		mov	r7, r1
 525              		.loc 1 354 0
 526 0006 0028     		cmp	r0, #0
 527 0008 4FD0     		beq	.L123
 528              	.LVL62:
 529              	.L94:
 530              		.loc 1 369 0
 531 000a A36A     		ldr	r3, [r4, #40]
 532              		.loc 1 364 0
 533 000c 6678     		ldrb	r6, [r4, #1]	@ zero_extendqisi2
 534              	.LVL63:
 535              		.loc 1 360 0
 536 000e 2772     		strb	r7, [r4, #8]
 537              		.loc 1 356 0
 538 0010 0025     		movs	r5, #0
 539 0012 6560     		str	r5, [r4, #4]
 540              		.loc 1 365 0
 541 0014 6570     		strb	r5, [r4, #1]
 542              		.loc 1 369 0
 543 0016 7BB1     		cbz	r3, .L96
 544              		.loc 1 369 0 is_stmt 0 discriminator 1
 545 0018 2046     		mov	r0, r4
 546 001a 0421     		movs	r1, #4
 547 001c 2A46     		mov	r2, r5
 548 001e 9847     		blx	r3
 549              	.LVL64:
 550              		.loc 1 372 0 is_stmt 1 discriminator 1
 551 0020 A36A     		ldr	r3, [r4, #40]
 552 0022 4BB1     		cbz	r3, .L96
 553 0024 2046     		mov	r0, r4
 554 0026 2946     		mov	r1, r5
 555 0028 2A46     		mov	r2, r5
 556 002a 9847     		blx	r3
 557              	.LVL65:
 558              		.loc 1 373 0 discriminator 1
 559 002c A36A     		ldr	r3, [r4, #40]
 560 002e 1BB1     		cbz	r3, .L96
 561 0030 2046     		mov	r0, r4
 562 0032 0221     		movs	r1, #2
 563 0034 2A46     		mov	r2, r5
 564 0036 9847     		blx	r3
 565              	.LVL66:
 566              	.L96:
 567              		.loc 1 376 0
 568 0038 04F11005 		add	r5, r4, #16
ARM GAS  /tmp/ccKs28dn.s 			page 11


 569 003c 2846     		mov	r0, r5
 570 003e FFF7FEFF 		bl	sys_mbox_valid
 571              	.LVL67:
 572 0042 0028     		cmp	r0, #0
 573 0044 2CD1     		bne	.L124
 574              	.L97:
 575              		.loc 1 381 0
 576 0046 04F11405 		add	r5, r4, #20
 577 004a 2846     		mov	r0, r5
 578 004c FFF7FEFF 		bl	sys_mbox_valid
 579              	.LVL68:
 580 0050 0028     		cmp	r0, #0
 581 0052 20D1     		bne	.L125
 582              	.L98:
 583              		.loc 1 386 0
 584 0054 012E     		cmp	r6, #1
 585 0056 18BF     		it	ne
 586 0058 042E     		cmpne	r6, #4
 587 005a 08D0     		beq	.L99
 588              		.loc 1 386 0 is_stmt 0 discriminator 1
 589 005c 032E     		cmp	r6, #3
 590 005e 06D0     		beq	.L99
 591              		.loc 1 402 0 is_stmt 1
 592 0060 636A     		ldr	r3, [r4, #36]
 593 0062 002B     		cmp	r3, #0
 594 0064 16D0     		beq	.L93
 595              		.loc 1 404 0 discriminator 1
 596 0066 BDE8F840 		pop	{r3, r4, r5, r6, r7, lr}
 597              		.loc 1 402 0 discriminator 1
 598 006a FFF7FEBF 		b	port_halt
 599              	.LVL69:
 600              	.L99:
 601              	.LBB2:
 602              		.loc 1 390 0
 603 006e 237F     		ldrb	r3, [r4, #28]	@ zero_extendqisi2
 604              	.LVL70:
 605              		.loc 1 393 0
 606 0070 03F00402 		and	r2, r3, #4
 607 0074 D2B2     		uxtb	r2, r2
 608              		.loc 1 391 0
 609 0076 23F00403 		bic	r3, r3, #4
 610              	.LVL71:
 611 007a 2377     		strb	r3, [r4, #28]
 612              		.loc 1 393 0
 613 007c 52B9     		cbnz	r2, .L93
 614              		.loc 1 395 0
 615 007e 636A     		ldr	r3, [r4, #36]
 616 0080 B3B1     		cbz	r3, .L126
 617              	.LVL72:
 618              	.L103:
 619              		.loc 1 396 0
 620 0082 1F71     		strb	r7, [r3, #4]
 621              		.loc 1 399 0
 622 0084 04F10C00 		add	r0, r4, #12
 623              		.loc 1 397 0
 624 0088 0023     		movs	r3, #0
 625 008a 6362     		str	r3, [r4, #36]
ARM GAS  /tmp/ccKs28dn.s 			page 12


 626              	.LBE2:
 627              		.loc 1 404 0
 628 008c BDE8F840 		pop	{r3, r4, r5, r6, r7, lr}
 629              	.LBB3:
 630              		.loc 1 399 0
 631 0090 FFF7FEBF 		b	sys_sem_signal
 632              	.LVL73:
 633              	.L93:
 634 0094 F8BD     		pop	{r3, r4, r5, r6, r7, pc}
 635              	.L125:
 636              	.LBE3:
 637              		.loc 1 383 0
 638 0096 2846     		mov	r0, r5
 639 0098 0021     		movs	r1, #0
 640 009a FFF7FEFF 		bl	sys_mbox_trypost
 641              	.LVL74:
 642 009e D9E7     		b	.L98
 643              	.L124:
 644              		.loc 1 378 0
 645 00a0 2846     		mov	r0, r5
 646 00a2 0021     		movs	r1, #0
 647 00a4 FFF7FEFF 		bl	sys_mbox_trypost
 648              	.LVL75:
 649 00a8 CDE7     		b	.L97
 650              	.LVL76:
 651              	.L123:
 652              		.loc 1 354 0 discriminator 1
 653 00aa FFF7FEFF 		bl	port_halt
 654              	.LVL77:
 655 00ae ACE7     		b	.L94
 656              	.LVL78:
 657              	.L126:
 658              	.LBB4:
 659              		.loc 1 395 0 discriminator 1
 660 00b0 FFF7FEFF 		bl	port_halt
 661              	.LVL79:
 662 00b4 636A     		ldr	r3, [r4, #36]
 663 00b6 E4E7     		b	.L103
 664              	.LBE4:
 665              		.cfi_endproc
 666              	.LFE12:
 667              		.size	err_tcp, .-err_tcp
 668 00b8 AFF30080 		.section	.text.recv_tcp,"ax",%progbits
 668      AFF30080 
 669              		.align	2
 670              		.p2align 4,,15
 671              		.thumb
 672              		.thumb_func
 673              		.type	recv_tcp, %function
 674              	recv_tcp:
 675              	.LFB9:
 676              		.loc 1 217 0
 677              		.cfi_startproc
 678              		@ args = 0, pretend = 0, frame = 0
 679              		@ frame_needed = 0, uses_anonymous_args = 0
 680              	.LVL80:
 681 0000 2DE9F843 		push	{r3, r4, r5, r6, r7, r8, r9, lr}
ARM GAS  /tmp/ccKs28dn.s 			page 13


 682              	.LCFI4:
 683              		.cfi_def_cfa_offset 32
 684              		.cfi_offset 3, -32
 685              		.cfi_offset 4, -28
 686              		.cfi_offset 5, -24
 687              		.cfi_offset 6, -20
 688              		.cfi_offset 7, -16
 689              		.cfi_offset 8, -12
 690              		.cfi_offset 9, -8
 691              		.cfi_offset 14, -4
 692              		.loc 1 222 0
 693 0004 0E46     		mov	r6, r1
 694              		.loc 1 217 0
 695 0006 0446     		mov	r4, r0
 696 0008 1546     		mov	r5, r2
 697 000a 9946     		mov	r9, r3
 698              		.loc 1 222 0
 699 000c 0029     		cmp	r1, #0
 700 000e 37D0     		beq	.L142
 701              	.LVL81:
 702              	.L128:
 703              		.loc 1 223 0
 704 0010 002C     		cmp	r4, #0
 705 0012 38D0     		beq	.L143
 706              	.L129:
 707              	.LVL82:
 708              		.loc 1 225 0
 709 0014 6268     		ldr	r2, [r4, #4]
 710 0016 B242     		cmp	r2, r6
 711 0018 01D0     		beq	.L130
 712              		.loc 1 225 0 is_stmt 0 discriminator 1
 713 001a FFF7FEFF 		bl	port_halt
 714              	.LVL83:
 715              	.L130:
 716              		.loc 1 230 0 is_stmt 1
 717 001e 04F11007 		add	r7, r4, #16
 718 0022 3846     		mov	r0, r7
 719 0024 FFF7FEFF 		bl	sys_mbox_valid
 720              	.LVL84:
 721 0028 8046     		mov	r8, r0
 722 002a 78B9     		cbnz	r0, .L131
 723              		.loc 1 232 0
 724 002c 55B1     		cbz	r5, .L136
 725              		.loc 1 233 0
 726 002e 2989     		ldrh	r1, [r5, #8]
 727 0030 3046     		mov	r0, r6
 728 0032 FFF7FEFF 		bl	tcp_recved
 729              	.LVL85:
 730              		.loc 1 234 0
 731 0036 2846     		mov	r0, r5
 732 0038 FFF7FEFF 		bl	pbuf_free
 733              	.LVL86:
 734              		.loc 1 236 0
 735 003c 4046     		mov	r0, r8
 736              	.LVL87:
 737              	.L133:
 738              		.loc 1 263 0
ARM GAS  /tmp/ccKs28dn.s 			page 14


 739 003e 40B2     		sxtb	r0, r0
 740 0040 BDE8F883 		pop	{r3, r4, r5, r6, r7, r8, r9, pc}
 741              	.L136:
 742              		.loc 1 236 0
 743 0044 0020     		movs	r0, #0
 744              		.loc 1 263 0
 745 0046 40B2     		sxtb	r0, r0
 746 0048 BDE8F883 		pop	{r3, r4, r5, r6, r7, r8, r9, pc}
 747              	.LVL88:
 748              	.L131:
 749              		.loc 1 243 0
 750 004c 94F90830 		ldrsb	r3, [r4, #8]
 751 0050 0933     		adds	r3, r3, #9
 752 0052 A8BF     		it	ge
 753 0054 84F80890 		strbge	r9, [r4, #8]
 754              		.loc 1 248 0
 755 0058 2E46     		mov	r6, r5
 756              	.LVL89:
 757              		.loc 1 245 0
 758 005a 05B1     		cbz	r5, .L135
 759              		.loc 1 246 0
 760 005c 2E89     		ldrh	r6, [r5, #8]
 761              	.LVL90:
 762              	.L135:
 763              		.loc 1 251 0
 764 005e 2946     		mov	r1, r5
 765 0060 3846     		mov	r0, r7
 766 0062 FFF7FEFF 		bl	sys_mbox_trypost
 767              	.LVL91:
 768 0066 0546     		mov	r5, r0
 769              	.LVL92:
 770 0068 80B9     		cbnz	r0, .L138
 771              		.loc 1 259 0
 772 006a A36A     		ldr	r3, [r4, #40]
 773 006c 002B     		cmp	r3, #0
 774 006e E9D0     		beq	.L136
 775              		.loc 1 259 0 is_stmt 0 discriminator 1
 776 0070 2046     		mov	r0, r4
 777 0072 2946     		mov	r1, r5
 778 0074 3246     		mov	r2, r6
 779 0076 9847     		blx	r3
 780              	.LVL93:
 781              		.loc 1 262 0 is_stmt 1 discriminator 1
 782 0078 2846     		mov	r0, r5
 783              		.loc 1 263 0 discriminator 1
 784 007a 40B2     		sxtb	r0, r0
 785 007c BDE8F883 		pop	{r3, r4, r5, r6, r7, r8, r9, pc}
 786              	.LVL94:
 787              	.L142:
 788              		.loc 1 222 0 discriminator 1
 789 0080 FFF7FEFF 		bl	port_halt
 790              	.LVL95:
 791 0084 C4E7     		b	.L128
 792              	.L143:
 793              		.loc 1 223 0 discriminator 1
 794 0086 FFF7FEFF 		bl	port_halt
 795              	.LVL96:
ARM GAS  /tmp/ccKs28dn.s 			page 15


 796 008a C3E7     		b	.L129
 797              	.LVL97:
 798              	.L138:
 799              		.loc 1 253 0
 800 008c FF20     		movs	r0, #255
 801 008e D6E7     		b	.L133
 802              		.cfi_endproc
 803              	.LFE9:
 804              		.size	recv_tcp, .-recv_tcp
 805              		.section	.text.do_writemore,"ax",%progbits
 806              		.align	2
 807              		.p2align 4,,15
 808              		.thumb
 809              		.thumb_func
 810              		.type	do_writemore, %function
 811              	do_writemore:
 812              	.LFB29:
 813              		.loc 1 1195 0
 814              		.cfi_startproc
 815              		@ args = 0, pretend = 0, frame = 0
 816              		@ frame_needed = 0, uses_anonymous_args = 0
 817              	.LVL98:
 818 0000 2DE9F047 		push	{r4, r5, r6, r7, r8, r9, sl, lr}
 819              	.LCFI5:
 820              		.cfi_def_cfa_offset 32
 821              		.cfi_offset 4, -32
 822              		.cfi_offset 5, -28
 823              		.cfi_offset 6, -24
 824              		.cfi_offset 7, -20
 825              		.cfi_offset 8, -16
 826              		.cfi_offset 9, -12
 827              		.cfi_offset 10, -8
 828              		.cfi_offset 14, -4
 829              		.loc 1 1201 0
 830 0004 037F     		ldrb	r3, [r0, #28]	@ zero_extendqisi2
 831 0006 03F00203 		and	r3, r3, #2
 832 000a DBB2     		uxtb	r3, r3
 833              		.loc 1 1195 0
 834 000c 0446     		mov	r4, r0
 835              		.loc 1 1201 0
 836 000e 002B     		cmp	r3, #0
 837 0010 4BD0     		beq	.L145
 838 0012 436A     		ldr	r3, [r0, #36]
 839 0014 4FF00108 		mov	r8, #1
 840 0018 1F7C     		ldrb	r7, [r3, #16]	@ zero_extendqisi2
 841 001a C146     		mov	r9, r8
 842              	.L146:
 843              	.LVL99:
 844              		.loc 1 1206 0 discriminator 4
 845 001c 6378     		ldrb	r3, [r4, #1]	@ zero_extendqisi2
 846 001e 012B     		cmp	r3, #1
 847 0020 04D0     		beq	.L147
 848              		.loc 1 1206 0 is_stmt 0 discriminator 1
 849 0022 FFF7FEFF 		bl	port_halt
 850              	.LVL100:
 851              		.loc 1 1207 0 is_stmt 1 discriminator 1
 852 0026 636A     		ldr	r3, [r4, #36]
ARM GAS  /tmp/ccKs28dn.s 			page 16


 853 0028 002B     		cmp	r3, #0
 854 002a 7AD0     		beq	.L182
 855              	.L147:
 856              		.loc 1 1208 0
 857 002c 6368     		ldr	r3, [r4, #4]
 858 002e 002B     		cmp	r3, #0
 859 0030 00F08680 		beq	.L183
 860              	.L148:
 861              		.loc 1 1209 0
 862 0034 636A     		ldr	r3, [r4, #36]
 863 0036 266A     		ldr	r6, [r4, #32]
 864 0038 DA68     		ldr	r2, [r3, #12]
 865 003a 9642     		cmp	r6, r2
 866 003c 4FD2     		bcs	.L184
 867              	.L149:
 868              		.loc 1 1214 0
 869 003e 4FF6FF75 		movw	r5, #65535
 870              		.loc 1 1213 0
 871 0042 901B     		subs	r0, r2, r6
 872              		.loc 1 1214 0
 873 0044 A842     		cmp	r0, r5
 874              		.loc 1 1221 0
 875 0046 98BF     		it	ls
 876 0048 85B2     		uxthls	r5, r0
 877              		.loc 1 1223 0
 878 004a 6068     		ldr	r0, [r4, #4]
 879              		.loc 1 1212 0
 880 004c D3F808A0 		ldr	sl, [r3, #8]
 881              	.LVL101:
 882              		.loc 1 1223 0
 883 0050 B0F86E30 		ldrh	r3, [r0, #110]
 884              		.loc 1 1219 0
 885 0054 88BF     		it	hi
 886 0056 47F00207 		orrhi	r7, r7, #2
 887              	.LVL102:
 888              		.loc 1 1224 0
 889 005a 9D42     		cmp	r5, r3
 890              		.loc 1 1230 0
 891 005c 84BF     		itt	hi
 892 005e 47F00207 		orrhi	r7, r7, #2
 893              	.LVL103:
 894 0062 1D46     		movhi	r5, r3
 895              	.LVL104:
 896              		.loc 1 1232 0
 897 0064 B9F1000F 		cmp	r9, #0
 898 0068 01D0     		beq	.L155
 899              		.loc 1 1232 0 is_stmt 0 discriminator 1
 900 006a 9542     		cmp	r5, r2
 901 006c 34D3     		bcc	.L166
 902              	.L155:
 903              		.loc 1 1237 0 is_stmt 1
 904 006e AB19     		adds	r3, r5, r6
 905 0070 9342     		cmp	r3, r2
 906 0072 61D8     		bhi	.L185
 907              	.LVL105:
 908              	.L165:
 909              		.loc 1 1238 0
ARM GAS  /tmp/ccKs28dn.s 			page 17


 910 0074 0AEB0601 		add	r1, sl, r6
 911 0078 2A46     		mov	r2, r5
 912 007a 3B46     		mov	r3, r7
 913 007c FFF7FEFF 		bl	tcp_write
 914              	.LVL106:
 915 0080 B0F1FF32 		subs	r2, r0, #-1
 916 0084 5742     		rsbs	r7, r2, #0
 917              	.LVL107:
 918 0086 0646     		mov	r6, r0
 919              	.LVL108:
 920 0088 5741     		adcs	r7, r7, r2
 921              	.LVL109:
 922              	.L154:
 923              		.loc 1 1240 0
 924 008a 17EA080F 		tst	r7, r8
 925 008e 12D0     		beq	.L156
 926              	.LVL110:
 927              		.loc 1 1246 0
 928 0090 227F     		ldrb	r2, [r4, #28]	@ zero_extendqisi2
 929              		.loc 1 1248 0
 930 0092 A36A     		ldr	r3, [r4, #40]
 931              		.loc 1 1246 0
 932 0094 42F01002 		orr	r2, r2, #16
 933 0098 2277     		strb	r2, [r4, #28]
 934              		.loc 1 1243 0
 935 009a F926     		movs	r6, #249
 936              		.loc 1 1248 0
 937 009c 83B1     		cbz	r3, .L162
 938              		.loc 1 1248 0 is_stmt 0 discriminator 1
 939 009e 2046     		mov	r0, r4
 940 00a0 0321     		movs	r1, #3
 941 00a2 2A46     		mov	r2, r5
 942 00a4 9847     		blx	r3
 943              	.LVL111:
 944              		.loc 1 1243 0 is_stmt 1 discriminator 1
 945 00a6 F926     		movs	r6, #249
 946 00a8 0AE0     		b	.L162
 947              	.LVL112:
 948              	.L145:
 949              		.loc 1 1202 0 discriminator 2
 950 00aa 436A     		ldr	r3, [r0, #36]
 951 00ac 1F7C     		ldrb	r7, [r3, #16]	@ zero_extendqisi2
 952              		.loc 1 1201 0 discriminator 2
 953 00ae C7F38008 		ubfx	r8, r7, #2, #1
 954 00b2 C146     		mov	r9, r8
 955 00b4 B2E7     		b	.L146
 956              	.LVL113:
 957              	.L156:
 958              		.loc 1 1251 0
 959 00b6 731C     		adds	r3, r6, #1
 960 00b8 DBB2     		uxtb	r3, r3
 961 00ba 012B     		cmp	r3, #1
 962 00bc 1BD9     		bls	.L186
 963              	.L158:
 964              		.loc 1 1267 0
 965 00be A7B9     		cbnz	r7, .L161
 966              	.LVL114:
ARM GAS  /tmp/ccKs28dn.s 			page 18


 967              	.L162:
 968              		.loc 1 1288 0
 969 00c0 626A     		ldr	r2, [r4, #36]
 970              		.loc 1 1289 0
 971 00c2 0023     		movs	r3, #0
 972              		.loc 1 1288 0
 973 00c4 1671     		strb	r6, [r2, #4]
 974              		.loc 1 1295 0
 975 00c6 04F10C00 		add	r0, r4, #12
 976              		.loc 1 1289 0
 977 00ca 6362     		str	r3, [r4, #36]
 978              		.loc 1 1290 0
 979 00cc 6370     		strb	r3, [r4, #1]
 980              		.loc 1 1295 0
 981 00ce FFF7FEFF 		bl	sys_sem_signal
 982              	.LVL115:
 983              		.loc 1 1303 0
 984 00d2 0020     		movs	r0, #0
 985 00d4 BDE8F087 		pop	{r4, r5, r6, r7, r8, r9, sl, pc}
 986              	.LVL116:
 987              	.L166:
 988              		.loc 1 1232 0
 989 00d8 0127     		movs	r7, #1
 990              	.LVL117:
 991 00da FF26     		movs	r6, #255
 992              	.LVL118:
 993 00dc D5E7     		b	.L154
 994              	.LVL119:
 995              	.L184:
 996              		.loc 1 1209 0 discriminator 1
 997 00de FFF7FEFF 		bl	port_halt
 998              	.LVL120:
 999 00e2 636A     		ldr	r3, [r4, #36]
 1000 00e4 266A     		ldr	r6, [r4, #32]
 1001 00e6 DA68     		ldr	r2, [r3, #12]
 1002 00e8 A9E7     		b	.L149
 1003              	.LVL121:
 1004              	.L161:
 1005              		.loc 1 1266 0
 1006 00ea 6068     		ldr	r0, [r4, #4]
 1007 00ec FFF7FEFF 		bl	tcp_output
 1008              	.LVL122:
 1009              		.loc 1 1303 0
 1010 00f0 0020     		movs	r0, #0
 1011 00f2 BDE8F087 		pop	{r4, r5, r6, r7, r8, r9, sl, pc}
 1012              	.LVL123:
 1013              	.L186:
 1014              		.loc 1 1252 0 discriminator 1
 1015 00f6 6368     		ldr	r3, [r4, #4]
 1016              		.loc 1 1251 0 discriminator 1
 1017 00f8 B3F86E20 		ldrh	r2, [r3, #110]
 1018 00fc 802A     		cmp	r2, #128
 1019 00fe 13D9     		bls	.L159
 1020              		.loc 1 1252 0
 1021 0100 B3F87030 		ldrh	r3, [r3, #112]
 1022 0104 83B9     		cbnz	r3, .L159
 1023              	.L160:
ARM GAS  /tmp/ccKs28dn.s 			page 19


 1024              		.loc 1 1259 0
 1025 0106 002E     		cmp	r6, #0
 1026 0108 D9D1     		bne	.L158
 1027              		.loc 1 1260 0
 1028 010a 226A     		ldr	r2, [r4, #32]
 1029              		.loc 1 1261 0
 1030 010c 636A     		ldr	r3, [r4, #36]
 1031              		.loc 1 1260 0
 1032 010e AD18     		adds	r5, r5, r2
 1033              	.LVL124:
 1034 0110 2562     		str	r5, [r4, #32]
 1035              		.loc 1 1261 0
 1036 0112 DB68     		ldr	r3, [r3, #12]
 1037 0114 9D42     		cmp	r5, r3
 1038 0116 E8D1     		bne	.L161
 1039              	.LVL125:
 1040              		.loc 1 1264 0
 1041 0118 2662     		str	r6, [r4, #32]
 1042              		.loc 1 1266 0
 1043 011a 6068     		ldr	r0, [r4, #4]
 1044 011c FFF7FEFF 		bl	tcp_output
 1045              	.LVL126:
 1046 0120 CEE7     		b	.L162
 1047              	.LVL127:
 1048              	.L182:
 1049              		.loc 1 1207 0 discriminator 1
 1050 0122 FFF7FEFF 		bl	port_halt
 1051              	.LVL128:
 1052 0126 81E7     		b	.L147
 1053              	.LVL129:
 1054              	.L159:
 1055              		.loc 1 1256 0
 1056 0128 A36A     		ldr	r3, [r4, #40]
 1057 012a 002B     		cmp	r3, #0
 1058 012c EBD0     		beq	.L160
 1059              		.loc 1 1256 0 is_stmt 0 discriminator 1
 1060 012e 2046     		mov	r0, r4
 1061 0130 0321     		movs	r1, #3
 1062 0132 2A46     		mov	r2, r5
 1063 0134 9847     		blx	r3
 1064              	.LVL130:
 1065 0136 E6E7     		b	.L160
 1066              	.LVL131:
 1067              	.L185:
 1068              		.loc 1 1237 0 is_stmt 1 discriminator 1
 1069 0138 FFF7FEFF 		bl	port_halt
 1070              	.LVL132:
 1071 013c 6068     		ldr	r0, [r4, #4]
 1072 013e 99E7     		b	.L165
 1073              	.LVL133:
 1074              	.L183:
 1075              		.loc 1 1208 0 discriminator 1
 1076 0140 FFF7FEFF 		bl	port_halt
 1077              	.LVL134:
 1078 0144 76E7     		b	.L148
 1079              		.cfi_endproc
 1080              	.LFE29:
ARM GAS  /tmp/ccKs28dn.s 			page 20


 1081              		.size	do_writemore, .-do_writemore
 1082 0146 00BFAFF3 		.section	.text.poll_tcp,"ax",%progbits
 1082      0080AFF3 
 1082      0080
 1083              		.align	2
 1084              		.p2align 4,,15
 1085              		.thumb
 1086              		.thumb_func
 1087              		.type	poll_tcp, %function
 1088              	poll_tcp:
 1089              	.LFB10:
 1090              		.loc 1 278 0
 1091              		.cfi_startproc
 1092              		@ args = 0, pretend = 0, frame = 0
 1093              		@ frame_needed = 0, uses_anonymous_args = 0
 1094              	.LVL135:
 1095 0000 38B5     		push	{r3, r4, r5, lr}
 1096              	.LCFI6:
 1097              		.cfi_def_cfa_offset 16
 1098              		.cfi_offset 3, -16
 1099              		.cfi_offset 4, -12
 1100              		.cfi_offset 5, -8
 1101              		.cfi_offset 14, -4
 1102              		.loc 1 282 0
 1103 0002 0446     		mov	r4, r0
 1104 0004 20B3     		cbz	r0, .L200
 1105              	.LVL136:
 1106              	.L188:
 1107              		.loc 1 284 0
 1108 0006 6378     		ldrb	r3, [r4, #1]	@ zero_extendqisi2
 1109 0008 012B     		cmp	r3, #1
 1110 000a 19D0     		beq	.L201
 1111              		.loc 1 286 0
 1112 000c 042B     		cmp	r3, #4
 1113 000e 1BD0     		beq	.L202
 1114              	.L190:
 1115              		.loc 1 292 0
 1116 0010 237F     		ldrb	r3, [r4, #28]	@ zero_extendqisi2
 1117 0012 03F01002 		and	r2, r3, #16
 1118 0016 D2B2     		uxtb	r2, r2
 1119 0018 82B1     		cbz	r2, .L192
 1120              		.loc 1 295 0
 1121 001a 6268     		ldr	r2, [r4, #4]
 1122 001c 72B1     		cbz	r2, .L192
 1123              		.loc 1 295 0 is_stmt 0 discriminator 1
 1124 001e B2F86E10 		ldrh	r1, [r2, #110]
 1125 0022 8029     		cmp	r1, #128
 1126 0024 0AD9     		bls	.L192
 1127 0026 B2F87020 		ldrh	r2, [r2, #112]
 1128 002a 3AB9     		cbnz	r2, .L192
 1129              		.loc 1 298 0 is_stmt 1
 1130 002c A56A     		ldr	r5, [r4, #40]
 1131              		.loc 1 297 0
 1132 002e 23F01003 		bic	r3, r3, #16
 1133 0032 2377     		strb	r3, [r4, #28]
 1134              		.loc 1 298 0
 1135 0034 15B1     		cbz	r5, .L192
ARM GAS  /tmp/ccKs28dn.s 			page 21


 1136              		.loc 1 298 0 is_stmt 0 discriminator 1
 1137 0036 2046     		mov	r0, r4
 1138 0038 0221     		movs	r1, #2
 1139 003a A847     		blx	r5
 1140              	.LVL137:
 1141              	.L192:
 1142              		.loc 1 303 0 is_stmt 1
 1143 003c 0020     		movs	r0, #0
 1144 003e 38BD     		pop	{r3, r4, r5, pc}
 1145              	.L201:
 1146              		.loc 1 285 0
 1147 0040 2046     		mov	r0, r4
 1148 0042 FFF7FEFF 		bl	do_writemore
 1149              	.LVL138:
 1150 0046 E3E7     		b	.L190
 1151              	.L202:
 1152              		.loc 1 287 0
 1153 0048 2046     		mov	r0, r4
 1154 004a FFF7FEFF 		bl	do_close_internal
 1155              	.LVL139:
 1156 004e DFE7     		b	.L190
 1157              	.LVL140:
 1158              	.L200:
 1159              		.loc 1 282 0 discriminator 1
 1160 0050 FFF7FEFF 		bl	port_halt
 1161              	.LVL141:
 1162 0054 D7E7     		b	.L188
 1163              		.cfi_endproc
 1164              	.LFE10:
 1165              		.size	poll_tcp, .-poll_tcp
 1166 0056 00BFAFF3 		.section	.text.recv_udp,"ax",%progbits
 1166      0080AFF3 
 1166      0080
 1167              		.align	2
 1168              		.p2align 4,,15
 1169              		.thumb
 1170              		.thumb_func
 1171              		.type	recv_udp, %function
 1172              	recv_udp:
 1173              	.LFB8:
 1174              		.loc 1 146 0
 1175              		.cfi_startproc
 1176              		@ args = 4, pretend = 0, frame = 8
 1177              		@ frame_needed = 0, uses_anonymous_args = 0
 1178              	.LVL142:
 1179 0000 2DE9F043 		push	{r4, r5, r6, r7, r8, r9, lr}
 1180              	.LCFI7:
 1181              		.cfi_def_cfa_offset 28
 1182              		.cfi_offset 4, -28
 1183              		.cfi_offset 5, -24
 1184              		.cfi_offset 6, -20
 1185              		.cfi_offset 7, -16
 1186              		.cfi_offset 8, -12
 1187              		.cfi_offset 9, -8
 1188              		.cfi_offset 14, -4
 1189 0004 83B0     		sub	sp, sp, #12
 1190              	.LCFI8:
ARM GAS  /tmp/ccKs28dn.s 			page 22


 1191              		.cfi_def_cfa_offset 40
 1192              		.loc 1 146 0
 1193 0006 0446     		mov	r4, r0
 1194 0008 1546     		mov	r5, r2
 1195 000a 9846     		mov	r8, r3
 1196 000c BDF82890 		ldrh	r9, [sp, #40]
 1197              		.loc 1 155 0
 1198 0010 0029     		cmp	r1, #0
 1199 0012 32D0     		beq	.L217
 1200              	.LVL143:
 1201              	.L204:
 1202              		.loc 1 156 0
 1203 0014 002C     		cmp	r4, #0
 1204 0016 3BD0     		beq	.L218
 1205              	.L205:
 1206              	.LVL144:
 1207              		.loc 1 158 0
 1208 0018 6268     		ldr	r2, [r4, #4]
 1209 001a 8A42     		cmp	r2, r1
 1210 001c 01D0     		beq	.L206
 1211              		.loc 1 158 0 is_stmt 0 discriminator 1
 1212 001e FFF7FEFF 		bl	port_halt
 1213              	.LVL145:
 1214              	.L206:
 1215              		.loc 1 165 0 is_stmt 1
 1216 0022 04F11007 		add	r7, r4, #16
 1217 0026 3846     		mov	r0, r7
 1218 0028 FFF7FEFF 		bl	sys_mbox_valid
 1219              	.LVL146:
 1220 002c 28B9     		cbnz	r0, .L207
 1221              	.L216:
 1222              		.loc 1 173 0
 1223 002e 2846     		mov	r0, r5
 1224              		.loc 1 205 0
 1225 0030 03B0     		add	sp, sp, #12
 1226 0032 BDE8F043 		pop	{r4, r5, r6, r7, r8, r9, lr}
 1227              		.loc 1 173 0
 1228 0036 FFF7FEBF 		b	pbuf_free
 1229              	.LVL147:
 1230              	.L207:
 1231              		.loc 1 171 0
 1232 003a 0720     		movs	r0, #7
 1233 003c FFF7FEFF 		bl	memp_malloc
 1234              	.LVL148:
 1235              		.loc 1 172 0
 1236 0040 0646     		mov	r6, r0
 1237 0042 0028     		cmp	r0, #0
 1238 0044 F3D0     		beq	.L216
 1239              		.loc 1 176 0
 1240 0046 0560     		str	r5, [r0, #0]
 1241              		.loc 1 177 0
 1242 0048 4560     		str	r5, [r0, #4]
 1243              		.loc 1 178 0
 1244 004a 4346     		mov	r3, r8
 1245 004c B8F1000F 		cmp	r8, #0
 1246 0050 01D0     		beq	.L209
 1247              	.LVL149:
ARM GAS  /tmp/ccKs28dn.s 			page 23


 1248              		.loc 1 178 0 is_stmt 0 discriminator 1
 1249 0052 D8F80030 		ldr	r3, [r8, #0]
 1250              	.LVL150:
 1251              	.L209:
 1252              		.loc 1 195 0 is_stmt 1 discriminator 3
 1253 0056 3146     		mov	r1, r6
 1254              		.loc 1 178 0 discriminator 3
 1255 0058 B360     		str	r3, [r6, #8]
 1256              		.loc 1 179 0 discriminator 3
 1257 005a A6F80C90 		strh	r9, [r6, #12]	@ movhi
 1258              		.loc 1 195 0 discriminator 3
 1259 005e 3846     		mov	r0, r7
 1260              	.LVL151:
 1261              		.loc 1 194 0 discriminator 3
 1262 0060 2D89     		ldrh	r5, [r5, #8]
 1263              	.LVL152:
 1264              		.loc 1 195 0 discriminator 3
 1265 0062 FFF7FEFF 		bl	sys_mbox_trypost
 1266              	.LVL153:
 1267 0066 0146     		mov	r1, r0
 1268 0068 60B9     		cbnz	r0, .L219
 1269              		.loc 1 203 0
 1270 006a A36A     		ldr	r3, [r4, #40]
 1271 006c 13B1     		cbz	r3, .L203
 1272              		.loc 1 203 0 is_stmt 0 discriminator 1
 1273 006e 2046     		mov	r0, r4
 1274 0070 2A46     		mov	r2, r5
 1275 0072 9847     		blx	r3
 1276              	.LVL154:
 1277              	.L203:
 1278              		.loc 1 205 0 is_stmt 1
 1279 0074 03B0     		add	sp, sp, #12
 1280 0076 BDE8F083 		pop	{r4, r5, r6, r7, r8, r9, pc}
 1281              	.LVL155:
 1282              	.L217:
 1283              		.loc 1 155 0 discriminator 1
 1284 007a 0191     		str	r1, [sp, #4]
 1285 007c FFF7FEFF 		bl	port_halt
 1286              	.LVL156:
 1287 0080 0199     		ldr	r1, [sp, #4]
 1288 0082 C7E7     		b	.L204
 1289              	.LVL157:
 1290              	.L219:
 1291              		.loc 1 196 0
 1292 0084 3046     		mov	r0, r6
 1293              		.loc 1 205 0
 1294 0086 03B0     		add	sp, sp, #12
 1295 0088 BDE8F043 		pop	{r4, r5, r6, r7, r8, r9, lr}
 1296              		.loc 1 196 0
 1297 008c FFF7FEBF 		b	netbuf_delete
 1298              	.LVL158:
 1299              	.L218:
 1300              		.loc 1 156 0 discriminator 1
 1301 0090 0191     		str	r1, [sp, #4]
 1302 0092 FFF7FEFF 		bl	port_halt
 1303              	.LVL159:
 1304 0096 0199     		ldr	r1, [sp, #4]
ARM GAS  /tmp/ccKs28dn.s 			page 24


 1305 0098 BEE7     		b	.L205
 1306              		.cfi_endproc
 1307              	.LFE8:
 1308              		.size	recv_udp, .-recv_udp
 1309 009a 00BFAFF3 		.section	.text.recv_raw,"ax",%progbits
 1309      0080
 1310              		.align	2
 1311              		.p2align 4,,15
 1312              		.thumb
 1313              		.thumb_func
 1314              		.type	recv_raw, %function
 1315              	recv_raw:
 1316              	.LFB7:
 1317              		.loc 1 80 0
 1318              		.cfi_startproc
 1319              		@ args = 0, pretend = 0, frame = 0
 1320              		@ frame_needed = 0, uses_anonymous_args = 0
 1321              	.LVL160:
 1322 0000 2DE9F041 		push	{r4, r5, r6, r7, r8, lr}
 1323              	.LCFI9:
 1324              		.cfi_def_cfa_offset 24
 1325              		.cfi_offset 4, -24
 1326              		.cfi_offset 5, -20
 1327              		.cfi_offset 6, -16
 1328              		.cfi_offset 7, -12
 1329              		.cfi_offset 8, -8
 1330              		.cfi_offset 14, -4
 1331              		.loc 1 88 0
 1332 0004 0446     		mov	r4, r0
 1333              		.loc 1 80 0
 1334 0006 0F46     		mov	r7, r1
 1335 0008 1646     		mov	r6, r2
 1336              		.loc 1 88 0
 1337 000a 28B1     		cbz	r0, .L235
 1338              		.loc 1 88 0 is_stmt 0 discriminator 1
 1339 000c 00F11005 		add	r5, r0, #16
 1340 0010 2846     		mov	r0, r5
 1341              	.LVL161:
 1342 0012 FFF7FEFF 		bl	sys_mbox_valid
 1343              	.LVL162:
 1344 0016 10B9     		cbnz	r0, .L240
 1345              	.LVL163:
 1346              	.L235:
 1347              		.loc 1 133 0 is_stmt 1
 1348 0018 0020     		movs	r0, #0
 1349 001a BDE8F081 		pop	{r4, r5, r6, r7, r8, pc}
 1350              	.LVL164:
 1351              	.L240:
 1352              		.loc 1 97 0
 1353 001e 0320     		movs	r0, #3
 1354 0020 3189     		ldrh	r1, [r6, #8]
 1355 0022 0022     		movs	r2, #0
 1356 0024 FFF7FEFF 		bl	pbuf_alloc
 1357              	.LVL165:
 1358              		.loc 1 98 0
 1359 0028 8046     		mov	r8, r0
 1360 002a 0028     		cmp	r0, #0
ARM GAS  /tmp/ccKs28dn.s 			page 25


 1361 002c F4D0     		beq	.L235
 1362              		.loc 1 99 0
 1363 002e 3146     		mov	r1, r6
 1364 0030 FFF7FEFF 		bl	pbuf_copy
 1365              	.LVL166:
 1366 0034 F0B9     		cbnz	r0, .L227
 1367              	.LBB5:
 1368              		.loc 1 107 0
 1369 0036 0720     		movs	r0, #7
 1370 0038 FFF7FEFF 		bl	memp_malloc
 1371              	.LVL167:
 1372              		.loc 1 108 0
 1373 003c 0646     		mov	r6, r0
 1374              	.LVL168:
 1375 003e C8B1     		cbz	r0, .L227
 1376              		.loc 1 115 0
 1377 0040 104B     		ldr	r3, .L242
 1378              		.loc 1 113 0
 1379 0042 C6F80080 		str	r8, [r6, #0]
 1380              		.loc 1 115 0
 1381 0046 1B68     		ldr	r3, [r3, #0]
 1382              		.loc 1 114 0
 1383 0048 C6F80480 		str	r8, [r6, #4]
 1384              		.loc 1 115 0
 1385 004c B360     		str	r3, [r6, #8]
 1386              		.loc 1 116 0
 1387 004e 3B7C     		ldrb	r3, [r7, #16]	@ zero_extendqisi2
 1388              		.loc 1 118 0
 1389 0050 B8F80870 		ldrh	r7, [r8, #8]
 1390              	.LVL169:
 1391              		.loc 1 116 0
 1392 0054 B381     		strh	r3, [r6, #12]	@ movhi
 1393              		.loc 1 119 0
 1394 0056 3146     		mov	r1, r6
 1395 0058 2846     		mov	r0, r5
 1396              	.LVL170:
 1397 005a FFF7FEFF 		bl	sys_mbox_trypost
 1398              	.LVL171:
 1399 005e 0146     		mov	r1, r0
 1400 0060 60B9     		cbnz	r0, .L241
 1401              		.loc 1 127 0
 1402 0062 A36A     		ldr	r3, [r4, #40]
 1403 0064 002B     		cmp	r3, #0
 1404 0066 D7D0     		beq	.L235
 1405              		.loc 1 127 0 is_stmt 0 discriminator 1
 1406 0068 2046     		mov	r0, r4
 1407 006a 3A46     		mov	r2, r7
 1408 006c 9847     		blx	r3
 1409              	.LVL172:
 1410              	.LBE5:
 1411              		.loc 1 133 0 is_stmt 1 discriminator 1
 1412 006e 0020     		movs	r0, #0
 1413 0070 BDE8F081 		pop	{r4, r5, r6, r7, r8, pc}
 1414              	.LVL173:
 1415              	.L227:
 1416              	.LBB6:
 1417              		.loc 1 109 0
ARM GAS  /tmp/ccKs28dn.s 			page 26


 1418 0074 4046     		mov	r0, r8
 1419 0076 FFF7FEFF 		bl	pbuf_free
 1420              	.LVL174:
 1421              		.loc 1 110 0
 1422 007a CDE7     		b	.L235
 1423              	.LVL175:
 1424              	.L241:
 1425              		.loc 1 120 0
 1426 007c 3046     		mov	r0, r6
 1427 007e FFF7FEFF 		bl	netbuf_delete
 1428              	.LVL176:
 1429              		.loc 1 121 0
 1430 0082 C9E7     		b	.L235
 1431              	.L243:
 1432              		.align	2
 1433              	.L242:
 1434 0084 00000000 		.word	current_iphdr_src
 1435              	.LBE6:
 1436              		.cfi_endproc
 1437              	.LFE7:
 1438              		.size	recv_raw, .-recv_raw
 1439 0088 AFF30080 		.section	.text.sent_tcp,"ax",%progbits
 1439      AFF30080 
 1440              		.align	2
 1441              		.p2align 4,,15
 1442              		.thumb
 1443              		.thumb_func
 1444              		.type	sent_tcp, %function
 1445              	sent_tcp:
 1446              	.LFB11:
 1447              		.loc 1 314 0
 1448              		.cfi_startproc
 1449              		@ args = 0, pretend = 0, frame = 0
 1450              		@ frame_needed = 0, uses_anonymous_args = 0
 1451              	.LVL177:
 1452 0000 38B5     		push	{r3, r4, r5, lr}
 1453              	.LCFI10:
 1454              		.cfi_def_cfa_offset 16
 1455              		.cfi_offset 3, -16
 1456              		.cfi_offset 4, -12
 1457              		.cfi_offset 5, -8
 1458              		.cfi_offset 14, -4
 1459              		.loc 1 318 0
 1460 0002 0446     		mov	r4, r0
 1461              		.loc 1 314 0
 1462 0004 1546     		mov	r5, r2
 1463              		.loc 1 318 0
 1464 0006 08B3     		cbz	r0, .L254
 1465              	.LVL178:
 1466              	.L245:
 1467              		.loc 1 320 0
 1468 0008 6378     		ldrb	r3, [r4, #1]	@ zero_extendqisi2
 1469 000a 012B     		cmp	r3, #1
 1470 000c 16D0     		beq	.L255
 1471              		.loc 1 322 0
 1472 000e 042B     		cmp	r3, #4
 1473 0010 18D0     		beq	.L256
ARM GAS  /tmp/ccKs28dn.s 			page 27


 1474              	.L247:
 1475              		.loc 1 329 0
 1476 0012 6368     		ldr	r3, [r4, #4]
 1477 0014 83B1     		cbz	r3, .L249
 1478              		.loc 1 329 0 is_stmt 0 discriminator 1
 1479 0016 B3F86E10 		ldrh	r1, [r3, #110]
 1480 001a 8029     		cmp	r1, #128
 1481 001c 0CD9     		bls	.L249
 1482 001e B3F87030 		ldrh	r3, [r3, #112]
 1483 0022 4BB9     		cbnz	r3, .L249
 1484              	.LVL179:
 1485              	.LBB9:
 1486              	.LBB10:
 1487              		.loc 1 331 0 is_stmt 1
 1488 0024 227F     		ldrb	r2, [r4, #28]	@ zero_extendqisi2
 1489              		.loc 1 332 0
 1490 0026 A36A     		ldr	r3, [r4, #40]
 1491              		.loc 1 331 0
 1492 0028 22F01002 		bic	r2, r2, #16
 1493 002c 2277     		strb	r2, [r4, #28]
 1494              		.loc 1 332 0
 1495 002e 1BB1     		cbz	r3, .L249
 1496 0030 2046     		mov	r0, r4
 1497 0032 0221     		movs	r1, #2
 1498 0034 2A46     		mov	r2, r5
 1499 0036 9847     		blx	r3
 1500              	.LVL180:
 1501              	.L249:
 1502              	.LBE10:
 1503              	.LBE9:
 1504              		.loc 1 337 0
 1505 0038 0020     		movs	r0, #0
 1506 003a 38BD     		pop	{r3, r4, r5, pc}
 1507              	.L255:
 1508              		.loc 1 321 0
 1509 003c 2046     		mov	r0, r4
 1510 003e FFF7FEFF 		bl	do_writemore
 1511              	.LVL181:
 1512 0042 E6E7     		b	.L247
 1513              	.L256:
 1514              		.loc 1 323 0
 1515 0044 2046     		mov	r0, r4
 1516 0046 FFF7FEFF 		bl	do_close_internal
 1517              	.LVL182:
 1518 004a E2E7     		b	.L247
 1519              	.LVL183:
 1520              	.L254:
 1521              		.loc 1 318 0 discriminator 1
 1522 004c FFF7FEFF 		bl	port_halt
 1523              	.LVL184:
 1524 0050 DAE7     		b	.L245
 1525              		.cfi_endproc
 1526              	.LFE11:
 1527              		.size	sent_tcp, .-sent_tcp
 1528 0052 00BFAFF3 		.section	.text.do_newconn,"ax",%progbits
 1528      0080AFF3 
 1528      0080AFF3 
ARM GAS  /tmp/ccKs28dn.s 			page 28


 1528      0080
 1529              		.align	2
 1530              		.p2align 4,,15
 1531              		.global	do_newconn
 1532              		.thumb
 1533              		.thumb_func
 1534              		.type	do_newconn, %function
 1535              	do_newconn:
 1536              	.LFB16:
 1537              		.loc 1 541 0
 1538              		.cfi_startproc
 1539              		@ args = 0, pretend = 0, frame = 0
 1540              		@ frame_needed = 0, uses_anonymous_args = 0
 1541              	.LVL185:
 1542 0000 38B5     		push	{r3, r4, r5, lr}
 1543              	.LCFI11:
 1544              		.cfi_def_cfa_offset 16
 1545              		.cfi_offset 3, -16
 1546              		.cfi_offset 4, -12
 1547              		.cfi_offset 5, -8
 1548              		.cfi_offset 14, -4
 1549              		.loc 1 542 0
 1550 0002 0023     		movs	r3, #0
 1551              		.loc 1 543 0
 1552 0004 0468     		ldr	r4, [r0, #0]
 1553              		.loc 1 542 0
 1554 0006 0371     		strb	r3, [r0, #4]
 1555              		.loc 1 543 0
 1556 0008 6368     		ldr	r3, [r4, #4]
 1557              		.loc 1 541 0
 1558 000a 0546     		mov	r5, r0
 1559              		.loc 1 543 0
 1560 000c 2BB1     		cbz	r3, .L269
 1561              	.LVL186:
 1562              	.L258:
 1563              		.loc 1 550 0
 1564 000e 04F10C00 		add	r0, r4, #12
 1565              		.loc 1 551 0
 1566 0012 BDE83840 		pop	{r3, r4, r5, lr}
 1567              		.loc 1 550 0
 1568 0016 FFF7FEBF 		b	sys_sem_signal
 1569              	.LVL187:
 1570              	.L269:
 1571              	.LBB13:
 1572              		.loc 1 487 0
 1573 001a 2378     		ldrb	r3, [r4, #0]	@ zero_extendqisi2
 1574              	.LBB14:
 1575 001c 03F0F003 		and	r3, r3, #240
 1576 0020 202B     		cmp	r3, #32
 1577 0022 1ED0     		beq	.L261
 1578 0024 402B     		cmp	r3, #64
 1579 0026 0FD0     		beq	.L262
 1580 0028 102B     		cmp	r3, #16
 1581 002a 02D0     		beq	.L270
 1582              		.loc 1 528 0
 1583 002c FA23     		movs	r3, #250
 1584 002e 0371     		strb	r3, [r0, #4]
ARM GAS  /tmp/ccKs28dn.s 			page 29


 1585 0030 EDE7     		b	.L258
 1586              	.L270:
 1587              		.loc 1 518 0
 1588 0032 FFF7FEFF 		bl	tcp_new
 1589              	.LVL188:
 1590 0036 6060     		str	r0, [r4, #4]
 1591              		.loc 1 519 0
 1592 0038 2C68     		ldr	r4, [r5, #0]
 1593 003a 6368     		ldr	r3, [r4, #4]
 1594 003c 23B3     		cbz	r3, .L268
 1595              		.loc 1 523 0
 1596 003e 2046     		mov	r0, r4
 1597 0040 FFF7FEFF 		bl	setup_tcp
 1598              	.LVL189:
 1599 0044 2C68     		ldr	r4, [r5, #0]
 1600 0046 E2E7     		b	.L258
 1601              	.LVL190:
 1602              	.L262:
 1603              		.loc 1 490 0
 1604 0048 007A     		ldrb	r0, [r0, #8]	@ zero_extendqisi2
 1605              	.LVL191:
 1606 004a FFF7FEFF 		bl	raw_new
 1607              	.LVL192:
 1608 004e 6060     		str	r0, [r4, #4]
 1609              		.loc 1 491 0
 1610 0050 2C68     		ldr	r4, [r5, #0]
 1611 0052 6068     		ldr	r0, [r4, #4]
 1612 0054 C0B1     		cbz	r0, .L268
 1613              		.loc 1 495 0
 1614 0056 2246     		mov	r2, r4
 1615 0058 0D49     		ldr	r1, .L271
 1616 005a FFF7FEFF 		bl	raw_recv
 1617              	.LVL193:
 1618 005e 2C68     		ldr	r4, [r5, #0]
 1619 0060 D5E7     		b	.L258
 1620              	.LVL194:
 1621              	.L261:
 1622              		.loc 1 500 0
 1623 0062 FFF7FEFF 		bl	udp_new
 1624              	.LVL195:
 1625 0066 6060     		str	r0, [r4, #4]
 1626              		.loc 1 501 0
 1627 0068 2C68     		ldr	r4, [r5, #0]
 1628 006a 6068     		ldr	r0, [r4, #4]
 1629 006c 60B1     		cbz	r0, .L268
 1630              		.loc 1 510 0
 1631 006e 2378     		ldrb	r3, [r4, #0]	@ zero_extendqisi2
 1632 0070 222B     		cmp	r3, #34
 1633 0072 03D1     		bne	.L265
 1634              		.loc 1 511 0
 1635 0074 0123     		movs	r3, #1
 1636 0076 0374     		strb	r3, [r0, #16]
 1637 0078 2C68     		ldr	r4, [r5, #0]
 1638 007a 6068     		ldr	r0, [r4, #4]
 1639              	.L265:
 1640              		.loc 1 513 0
 1641 007c 2246     		mov	r2, r4
ARM GAS  /tmp/ccKs28dn.s 			page 30


 1642 007e 0549     		ldr	r1, .L271+4
 1643 0080 FFF7FEFF 		bl	udp_recv
 1644              	.LVL196:
 1645 0084 2C68     		ldr	r4, [r5, #0]
 1646 0086 C2E7     		b	.L258
 1647              	.L268:
 1648              		.loc 1 520 0
 1649 0088 FF23     		movs	r3, #255
 1650 008a 2B71     		strb	r3, [r5, #4]
 1651 008c BFE7     		b	.L258
 1652              	.L272:
 1653 008e 00BF     		.align	2
 1654              	.L271:
 1655 0090 00000000 		.word	recv_raw
 1656 0094 00000000 		.word	recv_udp
 1657              	.LBE14:
 1658              	.LBE13:
 1659              		.cfi_endproc
 1660              	.LFE16:
 1661              		.size	do_newconn, .-do_newconn
 1662 0098 AFF30080 		.section	.text.netconn_alloc,"ax",%progbits
 1662      AFF30080 
 1663              		.align	2
 1664              		.p2align 4,,15
 1665              		.global	netconn_alloc
 1666              		.thumb
 1667              		.thumb_func
 1668              		.type	netconn_alloc, %function
 1669              	netconn_alloc:
 1670              	.LFB17:
 1671              		.loc 1 565 0
 1672              		.cfi_startproc
 1673              		@ args = 0, pretend = 0, frame = 0
 1674              		@ frame_needed = 0, uses_anonymous_args = 0
 1675              	.LVL197:
 1676 0000 2DE9F843 		push	{r3, r4, r5, r6, r7, r8, r9, lr}
 1677              	.LCFI12:
 1678              		.cfi_def_cfa_offset 32
 1679              		.cfi_offset 3, -32
 1680              		.cfi_offset 4, -28
 1681              		.cfi_offset 5, -24
 1682              		.cfi_offset 6, -20
 1683              		.cfi_offset 7, -16
 1684              		.cfi_offset 8, -12
 1685              		.cfi_offset 9, -8
 1686              		.cfi_offset 14, -4
 1687              		.loc 1 565 0
 1688 0004 0546     		mov	r5, r0
 1689              		.loc 1 569 0
 1690 0006 0820     		movs	r0, #8
 1691              	.LVL198:
 1692              		.loc 1 565 0
 1693 0008 8846     		mov	r8, r1
 1694              		.loc 1 569 0
 1695 000a FFF7FEFF 		bl	memp_malloc
 1696              	.LVL199:
 1697              		.loc 1 570 0
ARM GAS  /tmp/ccKs28dn.s 			page 31


 1698 000e 0446     		mov	r4, r0
 1699 0010 48B3     		cbz	r0, .L274
 1700              		.loc 1 582 0
 1701 0012 05F0F003 		and	r3, r5, #240
 1702              		.loc 1 574 0
 1703 0016 0022     		movs	r2, #0
 1704              		.loc 1 582 0
 1705 0018 202B     		cmp	r3, #32
 1706              		.loc 1 574 0
 1707 001a 0272     		strb	r2, [r0, #8]
 1708              		.loc 1 575 0
 1709 001c 0570     		strb	r5, [r0, #0]
 1710              		.loc 1 576 0
 1711 001e 4260     		str	r2, [r0, #4]
 1712              		.loc 1 582 0
 1713 0020 24D0     		beq	.L277
 1714 0022 402B     		cmp	r3, #64
 1715 0024 22D0     		beq	.L277
 1716 0026 102B     		cmp	r3, #16
 1717 0028 23D0     		beq	.L291
 1718              		.loc 1 599 0 discriminator 1
 1719 002a FFF7FEFF 		bl	port_halt
 1720              	.LVL200:
 1721              	.L276:
 1722              		.loc 1 604 0
 1723 002e 04F10C06 		add	r6, r4, #12
 1724 0032 3046     		mov	r0, r6
 1725 0034 0021     		movs	r1, #0
 1726 0036 FFF7FEFF 		bl	sys_sem_new
 1727              	.LVL201:
 1728 003a 0746     		mov	r7, r0
 1729 003c E0B9     		cbnz	r0, .L292
 1730              		.loc 1 608 0
 1731 003e 04F11000 		add	r0, r4, #16
 1732 0042 4946     		mov	r1, r9
 1733 0044 FFF7FEFF 		bl	sys_mbox_new
 1734              	.LVL202:
 1735 0048 0546     		mov	r5, r0
 1736 004a D8B9     		cbnz	r0, .L293
 1737              		.loc 1 615 0
 1738 004c 04F11400 		add	r0, r4, #20
 1739 0050 FFF7FEFF 		bl	sys_mbox_set_invalid
 1740              	.LVL203:
 1741              		.loc 1 620 0
 1742 0054 4FF0FF33 		mov	r3, #-1
 1743              		.loc 1 617 0
 1744 0058 6570     		strb	r5, [r4, #1]
 1745              		.loc 1 620 0
 1746 005a A361     		str	r3, [r4, #24]
 1747              		.loc 1 622 0
 1748 005c C4F82880 		str	r8, [r4, #40]
 1749              		.loc 1 624 0
 1750 0060 6562     		str	r5, [r4, #36]
 1751              		.loc 1 625 0
 1752 0062 2562     		str	r5, [r4, #32]
 1753              		.loc 1 634 0
 1754 0064 2577     		strb	r5, [r4, #28]
ARM GAS  /tmp/ccKs28dn.s 			page 32


 1755              	.LVL204:
 1756              	.L274:
 1757              		.loc 1 636 0
 1758 0066 2046     		mov	r0, r4
 1759 0068 BDE8F883 		pop	{r3, r4, r5, r6, r7, r8, r9, pc}
 1760              	.LVL205:
 1761              	.L277:
 1762              		.loc 1 585 0
 1763 006c 4FF00409 		mov	r9, #4
 1764 0070 DDE7     		b	.L276
 1765              	.L291:
 1766              		.loc 1 595 0
 1767 0072 4FF02809 		mov	r9, #40
 1768 0076 DAE7     		b	.L276
 1769              	.LVL206:
 1770              	.L292:
 1771              		.loc 1 605 0
 1772 0078 2146     		mov	r1, r4
 1773 007a 0820     		movs	r0, #8
 1774 007c FFF7FEFF 		bl	memp_free
 1775              	.LVL207:
 1776              		.loc 1 606 0
 1777 0080 0024     		movs	r4, #0
 1778              	.LVL208:
 1779 0082 F0E7     		b	.L274
 1780              	.LVL209:
 1781              	.L293:
 1782              		.loc 1 609 0
 1783 0084 3046     		mov	r0, r6
 1784 0086 FFF7FEFF 		bl	sys_sem_free
 1785              	.LVL210:
 1786              		.loc 1 610 0
 1787 008a 2146     		mov	r1, r4
 1788 008c 0820     		movs	r0, #8
 1789 008e FFF7FEFF 		bl	memp_free
 1790              	.LVL211:
 1791              		.loc 1 611 0
 1792 0092 3C46     		mov	r4, r7
 1793              	.LVL212:
 1794 0094 E7E7     		b	.L274
 1795              		.cfi_endproc
 1796              	.LFE17:
 1797              		.size	netconn_alloc, .-netconn_alloc
 1798 0096 00BFAFF3 		.section	.text.netconn_free,"ax",%progbits
 1798      0080AFF3 
 1798      0080
 1799              		.align	2
 1800              		.p2align 4,,15
 1801              		.global	netconn_free
 1802              		.thumb
 1803              		.thumb_func
 1804              		.type	netconn_free, %function
 1805              	netconn_free:
 1806              	.LFB18:
 1807              		.loc 1 646 0
 1808              		.cfi_startproc
 1809              		@ args = 0, pretend = 0, frame = 0
ARM GAS  /tmp/ccKs28dn.s 			page 33


 1810              		@ frame_needed = 0, uses_anonymous_args = 0
 1811              	.LVL213:
 1812 0000 38B5     		push	{r3, r4, r5, lr}
 1813              	.LCFI13:
 1814              		.cfi_def_cfa_offset 16
 1815              		.cfi_offset 3, -16
 1816              		.cfi_offset 4, -12
 1817              		.cfi_offset 5, -8
 1818              		.cfi_offset 14, -4
 1819              		.loc 1 647 0
 1820 0002 4368     		ldr	r3, [r0, #4]
 1821              		.loc 1 646 0
 1822 0004 0446     		mov	r4, r0
 1823              		.loc 1 647 0
 1824 0006 0BB1     		cbz	r3, .L295
 1825              		.loc 1 647 0 is_stmt 0 discriminator 1
 1826 0008 FFF7FEFF 		bl	port_halt
 1827              	.LVL214:
 1828              	.L295:
 1829              		.loc 1 648 0 is_stmt 1
 1830 000c 04F11000 		add	r0, r4, #16
 1831 0010 FFF7FEFF 		bl	sys_mbox_valid
 1832              	.LVL215:
 1833 0014 A0B9     		cbnz	r0, .L307
 1834              	.L296:
 1835              		.loc 1 651 0
 1836 0016 04F11400 		add	r0, r4, #20
 1837 001a FFF7FEFF 		bl	sys_mbox_valid
 1838              	.LVL216:
 1839 001e 08B1     		cbz	r0, .L297
 1840              		.loc 1 651 0 is_stmt 0 discriminator 1
 1841 0020 FFF7FEFF 		bl	port_halt
 1842              	.LVL217:
 1843              	.L297:
 1844              		.loc 1 655 0 is_stmt 1
 1845 0024 04F10C05 		add	r5, r4, #12
 1846 0028 2846     		mov	r0, r5
 1847 002a FFF7FEFF 		bl	sys_sem_free
 1848              	.LVL218:
 1849              		.loc 1 656 0
 1850 002e 2846     		mov	r0, r5
 1851 0030 FFF7FEFF 		bl	sys_sem_set_invalid
 1852              	.LVL219:
 1853              		.loc 1 658 0
 1854 0034 0820     		movs	r0, #8
 1855 0036 2146     		mov	r1, r4
 1856              		.loc 1 659 0
 1857 0038 BDE83840 		pop	{r3, r4, r5, lr}
 1858              		.loc 1 658 0
 1859 003c FFF7FEBF 		b	memp_free
 1860              	.LVL220:
 1861              	.L307:
 1862              		.loc 1 648 0 discriminator 1
 1863 0040 FFF7FEFF 		bl	port_halt
 1864              	.LVL221:
 1865 0044 E7E7     		b	.L296
 1866              		.cfi_endproc
ARM GAS  /tmp/ccKs28dn.s 			page 34


 1867              	.LFE18:
 1868              		.size	netconn_free, .-netconn_free
 1869 0046 00BFAFF3 		.section	.text.netconn_drain,"ax",%progbits
 1869      0080AFF3 
 1869      0080
 1870              		.align	2
 1871              		.p2align 4,,15
 1872              		.thumb
 1873              		.thumb_func
 1874              		.type	netconn_drain, %function
 1875              	netconn_drain:
 1876              	.LFB19:
 1877              		.loc 1 671 0
 1878              		.cfi_startproc
 1879              		@ args = 0, pretend = 0, frame = 8
 1880              		@ frame_needed = 0, uses_anonymous_args = 0
 1881              	.LVL222:
 1882 0000 2DE9F041 		push	{r4, r5, r6, r7, r8, lr}
 1883              	.LCFI14:
 1884              		.cfi_def_cfa_offset 24
 1885              		.cfi_offset 4, -24
 1886              		.cfi_offset 5, -20
 1887              		.cfi_offset 6, -16
 1888              		.cfi_offset 7, -12
 1889              		.cfi_offset 8, -8
 1890              		.cfi_offset 14, -4
 1891              		.loc 1 680 0
 1892 0004 00F11004 		add	r4, r0, #16
 1893              		.loc 1 671 0
 1894 0008 82B0     		sub	sp, sp, #8
 1895              	.LCFI15:
 1896              		.cfi_def_cfa_offset 32
 1897              		.loc 1 671 0
 1898 000a 0546     		mov	r5, r0
 1899              		.loc 1 680 0
 1900 000c 2046     		mov	r0, r4
 1901              	.LVL223:
 1902 000e FFF7FEFF 		bl	sys_mbox_valid
 1903              	.LVL224:
 1904 0012 00B3     		cbz	r0, .L310
 1905 0014 01AE     		add	r6, sp, #4
 1906              	.LVL225:
 1907              	.L339:
 1908              		.loc 1 681 0 discriminator 1
 1909 0016 3146     		mov	r1, r6
 1910 0018 2046     		mov	r0, r4
 1911 001a FFF7FEFF 		bl	sys_arch_mbox_tryfetch
 1912              	.LVL226:
 1913 001e 0130     		adds	r0, r0, #1
 1914 0020 13D0     		beq	.L340
 1915              		.loc 1 683 0
 1916 0022 2B78     		ldrb	r3, [r5, #0]	@ zero_extendqisi2
 1917 0024 102B     		cmp	r3, #16
 1918 0026 0CD1     		bne	.L311
 1919              		.loc 1 684 0
 1920 0028 019F     		ldr	r7, [sp, #4]
 1921              	.LVL227:
ARM GAS  /tmp/ccKs28dn.s 			page 35


 1922 002a 002F     		cmp	r7, #0
 1923 002c F3D0     		beq	.L339
 1924              		.loc 1 687 0
 1925 002e 6B68     		ldr	r3, [r5, #4]
 1926              		.loc 1 688 0
 1927 0030 1846     		mov	r0, r3
 1928              		.loc 1 687 0
 1929 0032 13B1     		cbz	r3, .L313
 1930              		.loc 1 688 0
 1931 0034 3989     		ldrh	r1, [r7, #8]
 1932 0036 FFF7FEFF 		bl	tcp_recved
 1933              	.LVL228:
 1934              	.L313:
 1935              		.loc 1 690 0
 1936 003a 3846     		mov	r0, r7
 1937 003c FFF7FEFF 		bl	pbuf_free
 1938              	.LVL229:
 1939 0040 E9E7     		b	.L339
 1940              	.LVL230:
 1941              	.L311:
 1942              		.loc 1 695 0
 1943 0042 0198     		ldr	r0, [sp, #4]
 1944 0044 FFF7FEFF 		bl	netbuf_delete
 1945              	.LVL231:
 1946 0048 E5E7     		b	.L339
 1947              	.L340:
 1948              		.loc 1 698 0
 1949 004a 2046     		mov	r0, r4
 1950 004c FFF7FEFF 		bl	sys_mbox_free
 1951              	.LVL232:
 1952              		.loc 1 699 0
 1953 0050 2046     		mov	r0, r4
 1954 0052 FFF7FEFF 		bl	sys_mbox_set_invalid
 1955              	.LVL233:
 1956              	.L310:
 1957              		.loc 1 704 0
 1958 0056 05F11407 		add	r7, r5, #20
 1959 005a 3846     		mov	r0, r7
 1960 005c FFF7FEFF 		bl	sys_mbox_valid
 1961              	.LVL234:
 1962 0060 20B3     		cbz	r0, .L308
 1963 0062 01AE     		add	r6, sp, #4
 1964              	.LBB15:
 1965              		.loc 1 716 0
 1966 0064 4FF00008 		mov	r8, #0
 1967 0068 14E0     		b	.L315
 1968              	.L319:
 1969              		.loc 1 709 0
 1970 006a 6B68     		ldr	r3, [r5, #4]
 1971              		.loc 1 706 0
 1972 006c 019C     		ldr	r4, [sp, #4]
 1973              	.LVL235:
 1974              		.loc 1 709 0
 1975 006e 23B1     		cbz	r3, .L317
 1976              		.loc 1 710 0
 1977 0070 1B7C     		ldrb	r3, [r3, #16]	@ zero_extendqisi2
 1978 0072 012B     		cmp	r3, #1
ARM GAS  /tmp/ccKs28dn.s 			page 36


 1979 0074 01D0     		beq	.L317
 1980              		.loc 1 710 0 is_stmt 0 discriminator 1
 1981 0076 FFF7FEFF 		bl	port_halt
 1982              	.LVL236:
 1983              	.L317:
 1984              		.loc 1 713 0 is_stmt 1
 1985 007a 2046     		mov	r0, r4
 1986 007c FFF7C0FF 		bl	netconn_drain
 1987              	.LVL237:
 1988              		.loc 1 714 0
 1989 0080 6368     		ldr	r3, [r4, #4]
 1990              		.loc 1 715 0
 1991 0082 1846     		mov	r0, r3
 1992              		.loc 1 714 0
 1993 0084 1BB1     		cbz	r3, .L318
 1994              		.loc 1 715 0
 1995 0086 FFF7FEFF 		bl	tcp_abort
 1996              	.LVL238:
 1997              		.loc 1 716 0
 1998 008a C4F80480 		str	r8, [r4, #4]
 1999              	.L318:
 2000              		.loc 1 718 0
 2001 008e 2046     		mov	r0, r4
 2002 0090 FFF7FEFF 		bl	netconn_free
 2003              	.LVL239:
 2004              	.L315:
 2005              	.LBE15:
 2006              		.loc 1 705 0 discriminator 1
 2007 0094 3146     		mov	r1, r6
 2008 0096 3846     		mov	r0, r7
 2009 0098 FFF7FEFF 		bl	sys_arch_mbox_tryfetch
 2010              	.LVL240:
 2011 009c 0130     		adds	r0, r0, #1
 2012 009e E4D1     		bne	.L319
 2013              		.loc 1 720 0
 2014 00a0 3846     		mov	r0, r7
 2015 00a2 FFF7FEFF 		bl	sys_mbox_free
 2016              	.LVL241:
 2017              		.loc 1 721 0
 2018 00a6 3846     		mov	r0, r7
 2019 00a8 FFF7FEFF 		bl	sys_mbox_set_invalid
 2020              	.LVL242:
 2021              	.L308:
 2022              		.loc 1 724 0
 2023 00ac 02B0     		add	sp, sp, #8
 2024 00ae BDE8F081 		pop	{r4, r5, r6, r7, r8, pc}
 2025              		.cfi_endproc
 2026              	.LFE19:
 2027              		.size	netconn_drain, .-netconn_drain
 2028 00b2 00BFAFF3 		.section	.text.accept_function,"ax",%progbits
 2028      0080AFF3 
 2028      0080AFF3 
 2028      0080
 2029              		.align	2
 2030              		.p2align 4,,15
 2031              		.thumb
 2032              		.thumb_func
ARM GAS  /tmp/ccKs28dn.s 			page 37


 2033              		.type	accept_function, %function
 2034              	accept_function:
 2035              	.LFB14:
 2036              		.loc 1 433 0
 2037              		.cfi_startproc
 2038              		@ args = 0, pretend = 0, frame = 0
 2039              		@ frame_needed = 0, uses_anonymous_args = 0
 2040              	.LVL243:
 2041 0000 2DE9F041 		push	{r4, r5, r6, r7, r8, lr}
 2042              	.LCFI16:
 2043              		.cfi_def_cfa_offset 24
 2044              		.cfi_offset 4, -24
 2045              		.cfi_offset 5, -20
 2046              		.cfi_offset 6, -16
 2047              		.cfi_offset 7, -12
 2048              		.cfi_offset 8, -8
 2049              		.cfi_offset 14, -4
 2050              		.loc 1 439 0
 2051 0004 00F11405 		add	r5, r0, #20
 2052              		.loc 1 433 0
 2053 0008 0446     		mov	r4, r0
 2054              	.LVL244:
 2055              		.loc 1 439 0
 2056 000a 2846     		mov	r0, r5
 2057              	.LVL245:
 2058              		.loc 1 433 0
 2059 000c 8846     		mov	r8, r1
 2060 000e 1746     		mov	r7, r2
 2061              		.loc 1 439 0
 2062 0010 FFF7FEFF 		bl	sys_mbox_valid
 2063              	.LVL246:
 2064 0014 D8B1     		cbz	r0, .L344
 2065              		.loc 1 446 0
 2066 0016 2078     		ldrb	r0, [r4, #0]	@ zero_extendqisi2
 2067 0018 A16A     		ldr	r1, [r4, #40]
 2068 001a FFF7FEFF 		bl	netconn_alloc
 2069              	.LVL247:
 2070              		.loc 1 447 0
 2071 001e 0646     		mov	r6, r0
 2072 0020 B8B1     		cbz	r0, .L345
 2073              		.loc 1 450 0
 2074 0022 C0F80480 		str	r8, [r0, #4]
 2075              		.loc 1 451 0
 2076 0026 FFF7FEFF 		bl	setup_tcp
 2077              	.LVL248:
 2078              		.loc 1 456 0
 2079 002a 2846     		mov	r0, r5
 2080              		.loc 1 454 0
 2081 002c 3772     		strb	r7, [r6, #8]
 2082              		.loc 1 456 0
 2083 002e 3146     		mov	r1, r6
 2084 0030 FFF7FEFF 		bl	sys_mbox_trypost
 2085              	.LVL249:
 2086 0034 0546     		mov	r5, r0
 2087 0036 70B9     		cbnz	r0, .L347
 2088              		.loc 1 467 0
 2089 0038 A36A     		ldr	r3, [r4, #40]
ARM GAS  /tmp/ccKs28dn.s 			page 38


 2090              		.loc 1 470 0
 2091 003a 1846     		mov	r0, r3
 2092              		.loc 1 467 0
 2093 003c 23B1     		cbz	r3, .L342
 2094              		.loc 1 467 0 is_stmt 0 discriminator 1
 2095 003e 2046     		mov	r0, r4
 2096 0040 2946     		mov	r1, r5
 2097 0042 2A46     		mov	r2, r5
 2098 0044 9847     		blx	r3
 2099              	.LVL250:
 2100              		.loc 1 470 0 is_stmt 1 discriminator 1
 2101 0046 2846     		mov	r0, r5
 2102              	.LVL251:
 2103              	.L342:
 2104              		.loc 1 471 0
 2105 0048 40B2     		sxtb	r0, r0
 2106 004a BDE8F081 		pop	{r4, r5, r6, r7, r8, pc}
 2107              	.LVL252:
 2108              	.L344:
 2109              		.loc 1 441 0
 2110 004e FA20     		movs	r0, #250
 2111 0050 FAE7     		b	.L342
 2112              	.LVL253:
 2113              	.L345:
 2114              		.loc 1 448 0
 2115 0052 FF20     		movs	r0, #255
 2116              	.LVL254:
 2117 0054 F8E7     		b	.L342
 2118              	.L347:
 2119              		.loc 1 459 0
 2120 0056 0023     		movs	r3, #0
 2121              		.loc 1 461 0
 2122 0058 06F11004 		add	r4, r6, #16
 2123              	.LVL255:
 2124              		.loc 1 459 0
 2125 005c 7360     		str	r3, [r6, #4]
 2126              		.loc 1 461 0
 2127 005e 2046     		mov	r0, r4
 2128 0060 FFF7FEFF 		bl	sys_mbox_free
 2129              	.LVL256:
 2130              		.loc 1 462 0
 2131 0064 2046     		mov	r0, r4
 2132 0066 FFF7FEFF 		bl	sys_mbox_set_invalid
 2133              	.LVL257:
 2134              		.loc 1 463 0
 2135 006a 3046     		mov	r0, r6
 2136 006c FFF7FEFF 		bl	netconn_free
 2137              	.LVL258:
 2138              		.loc 1 464 0
 2139 0070 FF20     		movs	r0, #255
 2140 0072 E9E7     		b	.L342
 2141              		.cfi_endproc
 2142              	.LFE14:
 2143              		.size	accept_function, .-accept_function
 2144 0074 AFF30080 		.section	.text.do_delconn,"ax",%progbits
 2144      AFF30080 
 2144      AFF30080 
ARM GAS  /tmp/ccKs28dn.s 			page 39


 2145              		.align	2
 2146              		.p2align 4,,15
 2147              		.global	do_delconn
 2148              		.thumb
 2149              		.thumb_func
 2150              		.type	do_delconn, %function
 2151              	do_delconn:
 2152              	.LFB21:
 2153              		.loc 1 821 0
 2154              		.cfi_startproc
 2155              		@ args = 0, pretend = 0, frame = 0
 2156              		@ frame_needed = 0, uses_anonymous_args = 0
 2157              	.LVL259:
 2158 0000 38B5     		push	{r3, r4, r5, lr}
 2159              	.LCFI17:
 2160              		.cfi_def_cfa_offset 16
 2161              		.cfi_offset 3, -16
 2162              		.cfi_offset 4, -12
 2163              		.cfi_offset 5, -8
 2164              		.cfi_offset 14, -4
 2165              		.loc 1 823 0
 2166 0002 0368     		ldr	r3, [r0, #0]
 2167 0004 5A78     		ldrb	r2, [r3, #1]	@ zero_extendqisi2
 2168 0006 12F0FD0F 		tst	r2, #253
 2169              		.loc 1 821 0
 2170 000a 0446     		mov	r4, r0
 2171              		.loc 1 823 0
 2172 000c 10D0     		beq	.L349
 2173              		.loc 1 824 0
 2174 000e 032A     		cmp	r2, #3
 2175 0010 48D0     		beq	.L350
 2176              		.loc 1 827 0
 2177 0012 1A78     		ldrb	r2, [r3, #0]	@ zero_extendqisi2
 2178 0014 102A     		cmp	r2, #16
 2179 0016 02D0     		beq	.L351
 2180              		.loc 1 827 0 is_stmt 0 discriminator 1
 2181 0018 FFF7FEFF 		bl	port_halt
 2182              	.LVL260:
 2183 001c 2368     		ldr	r3, [r4, #0]
 2184              	.L351:
 2185              		.loc 1 828 0 is_stmt 1
 2186 001e FB22     		movs	r2, #251
 2187 0020 2271     		strb	r2, [r4, #4]
 2188              	.L352:
 2189              		.loc 1 873 0
 2190 0022 03F10C00 		add	r0, r3, #12
 2191 0026 FFF7FEFF 		bl	sys_sem_valid
 2192              	.LVL261:
 2193 002a 0028     		cmp	r0, #0
 2194 002c 2AD1     		bne	.L380
 2195              	.L348:
 2196 002e 38BD     		pop	{r3, r4, r5, pc}
 2197              	.LVL262:
 2198              	.L349:
 2199              		.loc 1 830 0
 2200 0030 032A     		cmp	r2, #3
 2201 0032 37D0     		beq	.L350
ARM GAS  /tmp/ccKs28dn.s 			page 40


 2202              	.LVL263:
 2203              	.L353:
 2204              		.loc 1 833 0
 2205 0034 1846     		mov	r0, r3
 2206 0036 FFF7FEFF 		bl	netconn_drain
 2207              	.LVL264:
 2208              		.loc 1 835 0
 2209 003a 2368     		ldr	r3, [r4, #0]
 2210 003c 5868     		ldr	r0, [r3, #4]
 2211 003e 58B1     		cbz	r0, .L354
 2212              		.loc 1 837 0
 2213 0040 1A78     		ldrb	r2, [r3, #0]	@ zero_extendqisi2
 2214 0042 02F0F002 		and	r2, r2, #240
 2215 0046 202A     		cmp	r2, #32
 2216 0048 22D0     		beq	.L357
 2217 004a 402A     		cmp	r2, #64
 2218 004c 43D0     		beq	.L358
 2219 004e 102A     		cmp	r2, #16
 2220 0050 32D0     		beq	.L381
 2221              		.loc 1 864 0
 2222 0052 0022     		movs	r2, #0
 2223 0054 5A60     		str	r2, [r3, #4]
 2224 0056 2368     		ldr	r3, [r4, #0]
 2225              	.L354:
 2226              		.loc 1 870 0
 2227 0058 9D6A     		ldr	r5, [r3, #40]
 2228 005a 002D     		cmp	r5, #0
 2229 005c E1D0     		beq	.L352
 2230              		.loc 1 870 0 is_stmt 0 discriminator 1
 2231 005e 0021     		movs	r1, #0
 2232 0060 1846     		mov	r0, r3
 2233 0062 0A46     		mov	r2, r1
 2234 0064 A847     		blx	r5
 2235              	.LVL265:
 2236              		.loc 1 871 0 is_stmt 1 discriminator 1
 2237 0066 2368     		ldr	r3, [r4, #0]
 2238 0068 9D6A     		ldr	r5, [r3, #40]
 2239 006a 002D     		cmp	r5, #0
 2240 006c D9D0     		beq	.L352
 2241 006e 1846     		mov	r0, r3
 2242 0070 0221     		movs	r1, #2
 2243 0072 0022     		movs	r2, #0
 2244 0074 A847     		blx	r5
 2245              	.LVL266:
 2246 0076 2368     		ldr	r3, [r4, #0]
 2247              		.loc 1 873 0 discriminator 1
 2248 0078 03F10C00 		add	r0, r3, #12
 2249 007c FFF7FEFF 		bl	sys_sem_valid
 2250              	.LVL267:
 2251 0080 0028     		cmp	r0, #0
 2252 0082 D4D0     		beq	.L348
 2253              	.L380:
 2254              		.loc 1 874 0
 2255 0084 2068     		ldr	r0, [r4, #0]
 2256 0086 0C30     		adds	r0, r0, #12
 2257              		.loc 1 876 0
 2258 0088 BDE83840 		pop	{r3, r4, r5, lr}
ARM GAS  /tmp/ccKs28dn.s 			page 41


 2259              		.loc 1 874 0
 2260 008c FFF7FEBF 		b	sys_sem_signal
 2261              	.LVL268:
 2262              	.L357:
 2263              		.loc 1 845 0
 2264 0090 0022     		movs	r2, #0
 2265 0092 C261     		str	r2, [r0, #28]
 2266              		.loc 1 846 0
 2267 0094 5868     		ldr	r0, [r3, #4]
 2268 0096 FFF7FEFF 		bl	udp_remove
 2269              	.LVL269:
 2270 009a 2368     		ldr	r3, [r4, #0]
 2271              		.loc 1 864 0
 2272 009c 0022     		movs	r2, #0
 2273 009e 5A60     		str	r2, [r3, #4]
 2274 00a0 2368     		ldr	r3, [r4, #0]
 2275 00a2 D9E7     		b	.L354
 2276              	.LVL270:
 2277              	.L350:
 2278              		.loc 1 830 0 discriminator 1
 2279 00a4 1A7F     		ldrb	r2, [r3, #28]	@ zero_extendqisi2
 2280 00a6 02F00402 		and	r2, r2, #4
 2281 00aa D2B2     		uxtb	r2, r2
 2282 00ac 002A     		cmp	r2, #0
 2283 00ae C1D1     		bne	.L353
 2284              		.loc 1 830 0 is_stmt 0 discriminator 2
 2285 00b0 FFF7FEFF 		bl	port_halt
 2286              	.LVL271:
 2287 00b4 2368     		ldr	r3, [r4, #0]
 2288 00b6 BDE7     		b	.L353
 2289              	.L381:
 2290              		.loc 1 851 0 is_stmt 1
 2291 00b8 5A6A     		ldr	r2, [r3, #36]
 2292 00ba 9AB1     		cbz	r2, .L382
 2293              	.L359:
 2294              		.loc 1 851 0 is_stmt 0 discriminator 1
 2295 00bc FFF7FEFF 		bl	port_halt
 2296              	.LVL272:
 2297 00c0 2368     		ldr	r3, [r4, #0]
 2298              	.L360:
 2299              		.loc 1 853 0 is_stmt 1
 2300 00c2 0422     		movs	r2, #4
 2301 00c4 5A70     		strb	r2, [r3, #1]
 2302              		.loc 1 856 0
 2303 00c6 1846     		mov	r0, r3
 2304              		.loc 1 854 0
 2305 00c8 0322     		movs	r2, #3
 2306 00ca 2272     		strb	r2, [r4, #8]
 2307              		.loc 1 855 0
 2308 00cc 5C62     		str	r4, [r3, #36]
 2309              		.loc 1 876 0
 2310 00ce BDE83840 		pop	{r3, r4, r5, lr}
 2311              		.loc 1 856 0
 2312 00d2 FFF7FEBF 		b	do_close_internal
 2313              	.LVL273:
 2314              	.L358:
 2315              		.loc 1 840 0
ARM GAS  /tmp/ccKs28dn.s 			page 42


 2316 00d6 FFF7FEFF 		bl	raw_remove
 2317              	.LVL274:
 2318 00da 2368     		ldr	r3, [r4, #0]
 2319              		.loc 1 864 0
 2320 00dc 0022     		movs	r2, #0
 2321 00de 5A60     		str	r2, [r3, #4]
 2322 00e0 2368     		ldr	r3, [r4, #0]
 2323 00e2 B9E7     		b	.L354
 2324              	.L382:
 2325              		.loc 1 851 0 discriminator 2
 2326 00e4 1A6A     		ldr	r2, [r3, #32]
 2327 00e6 002A     		cmp	r2, #0
 2328 00e8 E8D1     		bne	.L359
 2329 00ea EAE7     		b	.L360
 2330              		.cfi_endproc
 2331              	.LFE21:
 2332              		.size	do_delconn, .-do_delconn
 2333 00ec AFF30080 		.section	.text.do_bind,"ax",%progbits
 2334              		.align	2
 2335              		.p2align 4,,15
 2336              		.global	do_bind
 2337              		.thumb
 2338              		.thumb_func
 2339              		.type	do_bind, %function
 2340              	do_bind:
 2341              	.LFB22:
 2342              		.loc 1 887 0
 2343              		.cfi_startproc
 2344              		@ args = 0, pretend = 0, frame = 0
 2345              		@ frame_needed = 0, uses_anonymous_args = 0
 2346              	.LVL275:
 2347 0000 10B5     		push	{r4, lr}
 2348              	.LCFI18:
 2349              		.cfi_def_cfa_offset 8
 2350              		.cfi_offset 4, -8
 2351              		.cfi_offset 14, -4
 2352              		.loc 1 888 0
 2353 0002 0368     		ldr	r3, [r0, #0]
 2354 0004 1A7A     		ldrb	r2, [r3, #8]	@ zero_extendqisi2
 2355 0006 51B2     		sxtb	r1, r2
 2356 0008 0931     		adds	r1, r1, #9
 2357              		.loc 1 887 0
 2358 000a 0446     		mov	r4, r0
 2359              		.loc 1 889 0
 2360 000c B8BF     		it	lt
 2361 000e 0271     		strblt	r2, [r0, #4]
 2362              		.loc 1 888 0
 2363 0010 0CDB     		blt	.L385
 2364              		.loc 1 891 0
 2365 0012 FA22     		movs	r2, #250
 2366 0014 0271     		strb	r2, [r0, #4]
 2367              		.loc 1 892 0
 2368 0016 5868     		ldr	r0, [r3, #4]
 2369              	.LVL276:
 2370 0018 40B1     		cbz	r0, .L385
 2371              		.loc 1 893 0
 2372 001a 1A78     		ldrb	r2, [r3, #0]	@ zero_extendqisi2
ARM GAS  /tmp/ccKs28dn.s 			page 43


 2373 001c 02F0F002 		and	r2, r2, #240
 2374 0020 202A     		cmp	r2, #32
 2375 0022 09D0     		beq	.L387
 2376 0024 402A     		cmp	r2, #64
 2377 0026 15D0     		beq	.L388
 2378 0028 102A     		cmp	r2, #16
 2379 002a 0CD0     		beq	.L392
 2380              	.L385:
 2381              		.loc 1 914 0
 2382 002c 03F10C00 		add	r0, r3, #12
 2383              		.loc 1 915 0
 2384 0030 BDE81040 		pop	{r4, lr}
 2385              		.loc 1 914 0
 2386 0034 FFF7FEBF 		b	sys_sem_signal
 2387              	.LVL277:
 2388              	.L387:
 2389              		.loc 1 901 0
 2390 0038 A168     		ldr	r1, [r4, #8]
 2391 003a A289     		ldrh	r2, [r4, #12]
 2392 003c FFF7FEFF 		bl	udp_bind
 2393              	.LVL278:
 2394 0040 2368     		ldr	r3, [r4, #0]
 2395 0042 2071     		strb	r0, [r4, #4]
 2396              		.loc 1 902 0
 2397 0044 F2E7     		b	.L385
 2398              	.L392:
 2399              		.loc 1 906 0
 2400 0046 A168     		ldr	r1, [r4, #8]
 2401 0048 A289     		ldrh	r2, [r4, #12]
 2402 004a FFF7FEFF 		bl	tcp_bind
 2403              	.LVL279:
 2404 004e 2368     		ldr	r3, [r4, #0]
 2405 0050 2071     		strb	r0, [r4, #4]
 2406              		.loc 1 907 0
 2407 0052 EBE7     		b	.L385
 2408              	.L388:
 2409              		.loc 1 896 0
 2410 0054 A168     		ldr	r1, [r4, #8]
 2411 0056 FFF7FEFF 		bl	raw_bind
 2412              	.LVL280:
 2413 005a 2368     		ldr	r3, [r4, #0]
 2414 005c 2071     		strb	r0, [r4, #4]
 2415              		.loc 1 897 0
 2416 005e E5E7     		b	.L385
 2417              		.cfi_endproc
 2418              	.LFE22:
 2419              		.size	do_bind, .-do_bind
 2420              		.section	.text.do_connect,"ax",%progbits
 2421              		.align	2
 2422              		.p2align 4,,15
 2423              		.global	do_connect
 2424              		.thumb
 2425              		.thumb_func
 2426              		.type	do_connect, %function
 2427              	do_connect:
 2428              	.LFB24:
 2429              		.loc 1 973 0
ARM GAS  /tmp/ccKs28dn.s 			page 44


 2430              		.cfi_startproc
 2431              		@ args = 0, pretend = 0, frame = 0
 2432              		@ frame_needed = 0, uses_anonymous_args = 0
 2433              	.LVL281:
 2434 0000 10B5     		push	{r4, lr}
 2435              	.LCFI19:
 2436              		.cfi_def_cfa_offset 8
 2437              		.cfi_offset 4, -8
 2438              		.cfi_offset 14, -4
 2439              		.loc 1 974 0
 2440 0002 0368     		ldr	r3, [r0, #0]
 2441              		.loc 1 973 0
 2442 0004 0446     		mov	r4, r0
 2443              		.loc 1 974 0
 2444 0006 5868     		ldr	r0, [r3, #4]
 2445              	.LVL282:
 2446 0008 0028     		cmp	r0, #0
 2447 000a 41D0     		beq	.L406
 2448              		.loc 1 978 0
 2449 000c 1A78     		ldrb	r2, [r3, #0]	@ zero_extendqisi2
 2450 000e 02F0F002 		and	r2, r2, #240
 2451 0012 202A     		cmp	r2, #32
 2452 0014 19D0     		beq	.L398
 2453 0016 402A     		cmp	r2, #64
 2454 0018 0CD0     		beq	.L399
 2455 001a 102A     		cmp	r2, #16
 2456 001c 10D0     		beq	.L407
 2457              		.loc 1 1015 0 discriminator 1
 2458 001e FFF7FEFF 		bl	port_halt
 2459              	.LVL283:
 2460 0022 FA22     		movs	r2, #250
 2461 0024 2368     		ldr	r3, [r4, #0]
 2462 0026 2271     		strb	r2, [r4, #4]
 2463              	.L395:
 2464              		.loc 1 1019 0
 2465 0028 03F10C00 		add	r0, r3, #12
 2466              		.loc 1 1020 0
 2467 002c BDE81040 		pop	{r4, lr}
 2468              		.loc 1 1019 0
 2469 0030 FFF7FEBF 		b	sys_sem_signal
 2470              	.LVL284:
 2471              	.L399:
 2472              		.loc 1 981 0
 2473 0034 A168     		ldr	r1, [r4, #8]
 2474 0036 FFF7FEFF 		bl	raw_connect
 2475              	.LVL285:
 2476 003a 2368     		ldr	r3, [r4, #0]
 2477 003c 2071     		strb	r0, [r4, #4]
 2478              		.loc 1 982 0
 2479 003e F3E7     		b	.L395
 2480              	.L407:
 2481              		.loc 1 992 0
 2482 0040 5A78     		ldrb	r2, [r3, #1]	@ zero_extendqisi2
 2483 0042 4AB1     		cbz	r2, .L400
 2484              		.loc 1 993 0
 2485 0044 F722     		movs	r2, #247
 2486 0046 2271     		strb	r2, [r4, #4]
ARM GAS  /tmp/ccKs28dn.s 			page 45


 2487 0048 EEE7     		b	.L395
 2488              	.L398:
 2489              		.loc 1 986 0
 2490 004a A168     		ldr	r1, [r4, #8]
 2491 004c A289     		ldrh	r2, [r4, #12]
 2492 004e FFF7FEFF 		bl	udp_connect
 2493              	.LVL286:
 2494 0052 2368     		ldr	r3, [r4, #0]
 2495 0054 2071     		strb	r0, [r4, #4]
 2496              		.loc 1 987 0
 2497 0056 E7E7     		b	.L395
 2498              	.L400:
 2499              		.loc 1 995 0
 2500 0058 1846     		mov	r0, r3
 2501 005a FFF7FEFF 		bl	setup_tcp
 2502              	.LVL287:
 2503              		.loc 1 996 0
 2504 005e 2368     		ldr	r3, [r4, #0]
 2505 0060 A168     		ldr	r1, [r4, #8]
 2506 0062 5868     		ldr	r0, [r3, #4]
 2507 0064 A289     		ldrh	r2, [r4, #12]
 2508 0066 0F4B     		ldr	r3, .L408
 2509 0068 FFF7FEFF 		bl	tcp_connect
 2510              	.LVL288:
 2511              	.LBB16:
 2512              		.loc 1 999 0
 2513 006c 2368     		ldr	r3, [r4, #0]
 2514              	.LBE16:
 2515              		.loc 1 996 0
 2516 006e 2071     		strb	r0, [r4, #4]
 2517              		.loc 1 998 0
 2518 0070 0028     		cmp	r0, #0
 2519 0072 D9D1     		bne	.L395
 2520              	.LBB17:
 2521              		.loc 1 999 0
 2522 0074 1A7F     		ldrb	r2, [r3, #28]	@ zero_extendqisi2
 2523              	.LVL289:
 2524              		.loc 1 1001 0
 2525 0076 02F00201 		and	r1, r2, #2
 2526              		.loc 1 1000 0
 2527 007a 0320     		movs	r0, #3
 2528              		.loc 1 1001 0
 2529 007c C9B2     		uxtb	r1, r1
 2530              		.loc 1 1000 0
 2531 007e 5870     		strb	r0, [r3, #1]
 2532              		.loc 1 1001 0
 2533 0080 49B1     		cbz	r1, .L402
 2534              		.loc 1 1001 0 is_stmt 0 discriminator 1
 2535 0082 42F00402 		orr	r2, r2, #4
 2536              	.LVL290:
 2537 0086 1A77     		strb	r2, [r3, #28]
 2538              		.loc 1 1003 0 is_stmt 1 discriminator 1
 2539 0088 FB23     		movs	r3, #251
 2540              	.LVL291:
 2541 008a 2371     		strb	r3, [r4, #4]
 2542 008c 2368     		ldr	r3, [r4, #0]
 2543 008e CBE7     		b	.L395
ARM GAS  /tmp/ccKs28dn.s 			page 46


 2544              	.LVL292:
 2545              	.L406:
 2546              	.LBE17:
 2547              		.loc 1 976 0
 2548 0090 F422     		movs	r2, #244
 2549 0092 2271     		strb	r2, [r4, #4]
 2550 0094 C8E7     		b	.L395
 2551              	.LVL293:
 2552              	.L402:
 2553              	.LBB18:
 2554              		.loc 1 1001 0 discriminator 2
 2555 0096 22F00402 		bic	r2, r2, #4
 2556              	.LVL294:
 2557 009a 1A77     		strb	r2, [r3, #28]
 2558              		.loc 1 1005 0 discriminator 2
 2559 009c 2368     		ldr	r3, [r4, #0]
 2560              	.LVL295:
 2561 009e 5C62     		str	r4, [r3, #36]
 2562              		.loc 1 1008 0 discriminator 2
 2563 00a0 10BD     		pop	{r4, pc}
 2564              	.L409:
 2565 00a2 00BF     		.align	2
 2566              	.L408:
 2567 00a4 00000000 		.word	do_connected
 2568              	.LBE18:
 2569              		.cfi_endproc
 2570              	.LFE24:
 2571              		.size	do_connect, .-do_connect
 2572 00a8 AFF30080 		.section	.text.do_disconnect,"ax",%progbits
 2572      AFF30080 
 2573              		.align	2
 2574              		.p2align 4,,15
 2575              		.global	do_disconnect
 2576              		.thumb
 2577              		.thumb_func
 2578              		.type	do_disconnect, %function
 2579              	do_disconnect:
 2580              	.LFB25:
 2581              		.loc 1 1031 0
 2582              		.cfi_startproc
 2583              		@ args = 0, pretend = 0, frame = 0
 2584              		@ frame_needed = 0, uses_anonymous_args = 0
 2585              	.LVL296:
 2586 0000 10B5     		push	{r4, lr}
 2587              	.LCFI20:
 2588              		.cfi_def_cfa_offset 8
 2589              		.cfi_offset 4, -8
 2590              		.cfi_offset 14, -4
 2591              		.loc 1 1031 0
 2592 0002 0446     		mov	r4, r0
 2593              		.loc 1 1033 0
 2594 0004 0068     		ldr	r0, [r0, #0]
 2595              	.LVL297:
 2596 0006 0278     		ldrb	r2, [r0, #0]	@ zero_extendqisi2
 2597 0008 02F0F002 		and	r2, r2, #240
 2598 000c 202A     		cmp	r2, #32
 2599 000e 06D0     		beq	.L413
ARM GAS  /tmp/ccKs28dn.s 			page 47


 2600              		.loc 1 1039 0
 2601 0010 FA22     		movs	r2, #250
 2602 0012 2271     		strb	r2, [r4, #4]
 2603              	.L412:
 2604              		.loc 1 1041 0
 2605 0014 0C30     		adds	r0, r0, #12
 2606              		.loc 1 1042 0
 2607 0016 BDE81040 		pop	{r4, lr}
 2608              		.loc 1 1041 0
 2609 001a FFF7FEBF 		b	sys_sem_signal
 2610              	.LVL298:
 2611              	.L413:
 2612              		.loc 1 1034 0
 2613 001e 4068     		ldr	r0, [r0, #4]
 2614 0020 FFF7FEFF 		bl	udp_disconnect
 2615              	.LVL299:
 2616              		.loc 1 1035 0
 2617 0024 0023     		movs	r3, #0
 2618 0026 2371     		strb	r3, [r4, #4]
 2619 0028 2068     		ldr	r0, [r4, #0]
 2620 002a F3E7     		b	.L412
 2621              		.cfi_endproc
 2622              	.LFE25:
 2623              		.size	do_disconnect, .-do_disconnect
 2624 002c AFF30080 		.section	.text.do_listen,"ax",%progbits
 2625              		.align	2
 2626              		.p2align 4,,15
 2627              		.global	do_listen
 2628              		.thumb
 2629              		.thumb_func
 2630              		.type	do_listen, %function
 2631              	do_listen:
 2632              	.LFB26:
 2633              		.loc 1 1053 0
 2634              		.cfi_startproc
 2635              		@ args = 0, pretend = 0, frame = 0
 2636              		@ frame_needed = 0, uses_anonymous_args = 0
 2637              	.LVL300:
 2638 0000 38B5     		push	{r3, r4, r5, lr}
 2639              	.LCFI21:
 2640              		.cfi_def_cfa_offset 16
 2641              		.cfi_offset 3, -16
 2642              		.cfi_offset 4, -12
 2643              		.cfi_offset 5, -8
 2644              		.cfi_offset 14, -4
 2645              		.loc 1 1054 0
 2646 0002 0368     		ldr	r3, [r0, #0]
 2647 0004 1A7A     		ldrb	r2, [r3, #8]	@ zero_extendqisi2
 2648 0006 51B2     		sxtb	r1, r2
 2649 0008 0931     		adds	r1, r1, #9
 2650              		.loc 1 1053 0
 2651 000a 0446     		mov	r4, r0
 2652              		.loc 1 1055 0
 2653 000c B8BF     		it	lt
 2654 000e 0271     		strblt	r2, [r0, #4]
 2655              		.loc 1 1054 0
 2656 0010 06DB     		blt	.L416
ARM GAS  /tmp/ccKs28dn.s 			page 48


 2657              		.loc 1 1057 0
 2658 0012 F322     		movs	r2, #243
 2659 0014 0271     		strb	r2, [r0, #4]
 2660              		.loc 1 1058 0
 2661 0016 5868     		ldr	r0, [r3, #4]
 2662              	.LVL301:
 2663 0018 10B1     		cbz	r0, .L416
 2664              		.loc 1 1059 0
 2665 001a 1A78     		ldrb	r2, [r3, #0]	@ zero_extendqisi2
 2666 001c 102A     		cmp	r2, #16
 2667 001e 05D0     		beq	.L428
 2668              	.L416:
 2669              		.loc 1 1095 0
 2670 0020 03F10C00 		add	r0, r3, #12
 2671              		.loc 1 1096 0
 2672 0024 BDE83840 		pop	{r3, r4, r5, lr}
 2673              		.loc 1 1095 0
 2674 0028 FFF7FEBF 		b	sys_sem_signal
 2675              	.LVL302:
 2676              	.L428:
 2677              		.loc 1 1060 0
 2678 002c 5A78     		ldrb	r2, [r3, #1]	@ zero_extendqisi2
 2679 002e 002A     		cmp	r2, #0
 2680 0030 F6D1     		bne	.L416
 2681              	.LBB19:
 2682              		.loc 1 1064 0
 2683 0032 FF21     		movs	r1, #255
 2684 0034 FFF7FEFF 		bl	tcp_listen_with_backlog
 2685              	.LVL303:
 2686              		.loc 1 1066 0
 2687 0038 0546     		mov	r5, r0
 2688 003a 0028     		cmp	r0, #0
 2689 003c 34D0     		beq	.L429
 2690              		.loc 1 1071 0
 2691 003e 2068     		ldr	r0, [r4, #0]
 2692              	.LVL304:
 2693 0040 1030     		adds	r0, r0, #16
 2694 0042 FFF7FEFF 		bl	sys_mbox_valid
 2695              	.LVL305:
 2696 0046 B8B9     		cbnz	r0, .L430
 2697              	.L418:
 2698              		.loc 1 1077 0
 2699 0048 2068     		ldr	r0, [r4, #0]
 2700              		.loc 1 1076 0
 2701 004a 0023     		movs	r3, #0
 2702 004c 2371     		strb	r3, [r4, #4]
 2703              		.loc 1 1077 0
 2704 004e 1430     		adds	r0, r0, #20
 2705 0050 FFF7FEFF 		bl	sys_mbox_valid
 2706              	.LVL306:
 2707 0054 48B1     		cbz	r0, .L419
 2708 0056 2079     		ldrb	r0, [r4, #4]	@ zero_extendqisi2
 2709              	.L420:
 2710              		.loc 1 1080 0
 2711 0058 B8B1     		cbz	r0, .L431
 2712              		.loc 1 1087 0
 2713 005a 2846     		mov	r0, r5
ARM GAS  /tmp/ccKs28dn.s 			page 49


 2714 005c FFF7FEFF 		bl	tcp_close
 2715              	.LVL307:
 2716              		.loc 1 1088 0
 2717 0060 2368     		ldr	r3, [r4, #0]
 2718 0062 0022     		movs	r2, #0
 2719 0064 5A60     		str	r2, [r3, #4]
 2720 0066 2368     		ldr	r3, [r4, #0]
 2721 0068 DAE7     		b	.L416
 2722              	.L419:
 2723              		.loc 1 1078 0
 2724 006a 2068     		ldr	r0, [r4, #0]
 2725 006c 0421     		movs	r1, #4
 2726 006e 1430     		adds	r0, r0, #20
 2727 0070 FFF7FEFF 		bl	sys_mbox_new
 2728              	.LVL308:
 2729 0074 2071     		strb	r0, [r4, #4]
 2730 0076 EFE7     		b	.L420
 2731              	.L430:
 2732              		.loc 1 1073 0
 2733 0078 2068     		ldr	r0, [r4, #0]
 2734 007a 1030     		adds	r0, r0, #16
 2735 007c FFF7FEFF 		bl	sys_mbox_free
 2736              	.LVL309:
 2737              		.loc 1 1074 0
 2738 0080 2068     		ldr	r0, [r4, #0]
 2739 0082 1030     		adds	r0, r0, #16
 2740 0084 FFF7FEFF 		bl	sys_mbox_set_invalid
 2741              	.LVL310:
 2742 0088 DEE7     		b	.L418
 2743              	.L431:
 2744              		.loc 1 1081 0
 2745 008a 2368     		ldr	r3, [r4, #0]
 2746              		.loc 1 1082 0
 2747 008c 5D60     		str	r5, [r3, #4]
 2748              		.loc 1 1083 0
 2749 008e 2168     		ldr	r1, [r4, #0]
 2750              		.loc 1 1081 0
 2751 0090 0222     		movs	r2, #2
 2752              		.loc 1 1083 0
 2753 0092 4868     		ldr	r0, [r1, #4]
 2754              		.loc 1 1081 0
 2755 0094 5A70     		strb	r2, [r3, #1]
 2756              		.loc 1 1083 0
 2757 0096 FFF7FEFF 		bl	tcp_arg
 2758              	.LVL311:
 2759              		.loc 1 1084 0
 2760 009a 2368     		ldr	r3, [r4, #0]
 2761 009c 0449     		ldr	r1, .L432
 2762 009e 5868     		ldr	r0, [r3, #4]
 2763 00a0 FFF7FEFF 		bl	tcp_accept
 2764              	.LVL312:
 2765 00a4 2368     		ldr	r3, [r4, #0]
 2766 00a6 BBE7     		b	.L416
 2767              	.LVL313:
 2768              	.L429:
 2769              		.loc 1 1068 0
 2770 00a8 FF23     		movs	r3, #255
ARM GAS  /tmp/ccKs28dn.s 			page 50


 2771 00aa 2371     		strb	r3, [r4, #4]
 2772 00ac 2368     		ldr	r3, [r4, #0]
 2773 00ae B7E7     		b	.L416
 2774              	.L433:
 2775              		.align	2
 2776              	.L432:
 2777 00b0 00000000 		.word	accept_function
 2778              	.LBE19:
 2779              		.cfi_endproc
 2780              	.LFE26:
 2781              		.size	do_listen, .-do_listen
 2782 00b4 AFF30080 		.section	.text.do_send,"ax",%progbits
 2782      AFF30080 
 2782      AFF30080 
 2783              		.align	2
 2784              		.p2align 4,,15
 2785              		.global	do_send
 2786              		.thumb
 2787              		.thumb_func
 2788              		.type	do_send, %function
 2789              	do_send:
 2790              	.LFB27:
 2791              		.loc 1 1107 0
 2792              		.cfi_startproc
 2793              		@ args = 0, pretend = 0, frame = 0
 2794              		@ frame_needed = 0, uses_anonymous_args = 0
 2795              	.LVL314:
 2796 0000 10B5     		push	{r4, lr}
 2797              	.LCFI22:
 2798              		.cfi_def_cfa_offset 8
 2799              		.cfi_offset 4, -8
 2800              		.cfi_offset 14, -4
 2801              		.loc 1 1108 0
 2802 0002 0368     		ldr	r3, [r0, #0]
 2803 0004 1A7A     		ldrb	r2, [r3, #8]	@ zero_extendqisi2
 2804 0006 51B2     		sxtb	r1, r2
 2805 0008 0931     		adds	r1, r1, #9
 2806              		.loc 1 1107 0
 2807 000a 0446     		mov	r4, r0
 2808              		.loc 1 1109 0
 2809 000c B8BF     		it	lt
 2810 000e 0271     		strblt	r2, [r0, #4]
 2811              		.loc 1 1108 0
 2812 0010 0ADB     		blt	.L436
 2813              		.loc 1 1111 0
 2814 0012 F322     		movs	r2, #243
 2815 0014 0271     		strb	r2, [r0, #4]
 2816              		.loc 1 1112 0
 2817 0016 5868     		ldr	r0, [r3, #4]
 2818              	.LVL315:
 2819 0018 30B1     		cbz	r0, .L436
 2820              		.loc 1 1113 0
 2821 001a 1A78     		ldrb	r2, [r3, #0]	@ zero_extendqisi2
 2822 001c 02F0F002 		and	r2, r2, #240
 2823 0020 202A     		cmp	r2, #32
 2824 0022 07D0     		beq	.L437
 2825 0024 402A     		cmp	r2, #64
ARM GAS  /tmp/ccKs28dn.s 			page 51


 2826 0026 11D0     		beq	.L452
 2827              	.L436:
 2828              		.loc 1 1148 0
 2829 0028 03F10C00 		add	r0, r3, #12
 2830              		.loc 1 1149 0
 2831 002c BDE81040 		pop	{r4, lr}
 2832              		.loc 1 1148 0
 2833 0030 FFF7FEBF 		b	sys_sem_signal
 2834              	.LVL316:
 2835              	.L437:
 2836              		.loc 1 1135 0
 2837 0034 A368     		ldr	r3, [r4, #8]
 2838 0036 13F10802 		adds	r2, r3, #8
 2839 003a 01D0     		beq	.L441
 2840              		.loc 1 1135 0 is_stmt 0 discriminator 1
 2841 003c 9968     		ldr	r1, [r3, #8]
 2842 003e 89B9     		cbnz	r1, .L442
 2843              	.L441:
 2844              		.loc 1 1136 0 is_stmt 1
 2845 0040 1968     		ldr	r1, [r3, #0]
 2846 0042 FFF7FEFF 		bl	udp_send
 2847              	.LVL317:
 2848 0046 2368     		ldr	r3, [r4, #0]
 2849 0048 2071     		strb	r0, [r4, #4]
 2850 004a EDE7     		b	.L436
 2851              	.L452:
 2852              		.loc 1 1116 0
 2853 004c A368     		ldr	r3, [r4, #8]
 2854 004e 13F10802 		adds	r2, r3, #8
 2855 0052 01D0     		beq	.L439
 2856              		.loc 1 1116 0 is_stmt 0 discriminator 1
 2857 0054 9968     		ldr	r1, [r3, #8]
 2858 0056 61B9     		cbnz	r1, .L440
 2859              	.L439:
 2860              		.loc 1 1117 0 is_stmt 1
 2861 0058 1968     		ldr	r1, [r3, #0]
 2862 005a FFF7FEFF 		bl	raw_send
 2863              	.LVL318:
 2864 005e 2368     		ldr	r3, [r4, #0]
 2865 0060 2071     		strb	r0, [r4, #4]
 2866 0062 E1E7     		b	.L436
 2867              	.L442:
 2868              		.loc 1 1138 0
 2869 0064 1968     		ldr	r1, [r3, #0]
 2870 0066 9B89     		ldrh	r3, [r3, #12]
 2871 0068 FFF7FEFF 		bl	udp_sendto
 2872              	.LVL319:
 2873 006c 2368     		ldr	r3, [r4, #0]
 2874 006e 2071     		strb	r0, [r4, #4]
 2875 0070 DAE7     		b	.L436
 2876              	.L440:
 2877              		.loc 1 1119 0
 2878 0072 1968     		ldr	r1, [r3, #0]
 2879 0074 FFF7FEFF 		bl	raw_sendto
 2880              	.LVL320:
 2881 0078 2368     		ldr	r3, [r4, #0]
 2882 007a 2071     		strb	r0, [r4, #4]
ARM GAS  /tmp/ccKs28dn.s 			page 52


 2883 007c D4E7     		b	.L436
 2884              		.cfi_endproc
 2885              	.LFE27:
 2886              		.size	do_send, .-do_send
 2887 007e 00BF     		.section	.text.do_recv,"ax",%progbits
 2888              		.align	2
 2889              		.p2align 4,,15
 2890              		.global	do_recv
 2891              		.thumb
 2892              		.thumb_func
 2893              		.type	do_recv, %function
 2894              	do_recv:
 2895              	.LFB28:
 2896              		.loc 1 1160 0
 2897              		.cfi_startproc
 2898              		@ args = 0, pretend = 0, frame = 0
 2899              		@ frame_needed = 0, uses_anonymous_args = 0
 2900              	.LVL321:
 2901 0000 F8B5     		push	{r3, r4, r5, r6, r7, lr}
 2902              	.LCFI23:
 2903              		.cfi_def_cfa_offset 24
 2904              		.cfi_offset 3, -24
 2905              		.cfi_offset 4, -20
 2906              		.cfi_offset 5, -16
 2907              		.cfi_offset 6, -12
 2908              		.cfi_offset 7, -8
 2909              		.cfi_offset 14, -4
 2910              		.loc 1 1161 0
 2911 0002 0022     		movs	r2, #0
 2912              		.loc 1 1162 0
 2913 0004 0368     		ldr	r3, [r0, #0]
 2914              		.loc 1 1161 0
 2915 0006 0271     		strb	r2, [r0, #4]
 2916              		.loc 1 1160 0
 2917 0008 0646     		mov	r6, r0
 2918              		.loc 1 1162 0
 2919 000a 5868     		ldr	r0, [r3, #4]
 2920              	.LVL322:
 2921 000c 10B1     		cbz	r0, .L454
 2922              		.loc 1 1163 0
 2923 000e 1A78     		ldrb	r2, [r3, #0]	@ zero_extendqisi2
 2924 0010 102A     		cmp	r2, #16
 2925 0012 05D0     		beq	.L462
 2926              	.L454:
 2927              		.loc 1 1179 0
 2928 0014 03F10C00 		add	r0, r3, #12
 2929              		.loc 1 1180 0
 2930 0018 BDE8F840 		pop	{r3, r4, r5, r6, r7, lr}
 2931              		.loc 1 1179 0
 2932 001c FFF7FEBF 		b	sys_sem_signal
 2933              	.LVL323:
 2934              	.L462:
 2935              	.LBB20:
 2936              		.loc 1 1170 0
 2937 0020 B468     		ldr	r4, [r6, #8]
 2938              	.LVL324:
 2939              	.LBB21:
ARM GAS  /tmp/ccKs28dn.s 			page 53


 2940              		.loc 1 1172 0
 2941 0022 4FF6FF77 		movw	r7, #65535
 2942 0026 00E0     		b	.L457
 2943              	.LVL325:
 2944              	.L463:
 2945 0028 5868     		ldr	r0, [r3, #4]
 2946              	.L457:
 2947 002a BC42     		cmp	r4, r7
 2948 002c 8DBF     		iteet	hi
 2949 002e 4FF6FF75 		movwhi	r5, #65535
 2950 0032 A1B2     		uxthls	r1, r4
 2951 0034 2546     		movls	r5, r4
 2952 0036 2946     		movhi	r1, r5
 2953              	.LVL326:
 2954              		.loc 1 1173 0
 2955 0038 FFF7FEFF 		bl	tcp_recved
 2956              	.LVL327:
 2957              	.LBE21:
 2958              		.loc 1 1175 0
 2959 003c 641B     		subs	r4, r4, r5
 2960              	.LVL328:
 2961 003e 3368     		ldr	r3, [r6, #0]
 2962 0040 F2D1     		bne	.L463
 2963 0042 E7E7     		b	.L454
 2964              	.LBE20:
 2965              		.cfi_endproc
 2966              	.LFE28:
 2967              		.size	do_recv, .-do_recv
 2968 0044 AFF30080 		.section	.text.do_write,"ax",%progbits
 2968      AFF30080 
 2968      AFF30080 
 2969              		.align	2
 2970              		.p2align 4,,15
 2971              		.global	do_write
 2972              		.thumb
 2973              		.thumb_func
 2974              		.type	do_write, %function
 2975              	do_write:
 2976              	.LFB30:
 2977              		.loc 1 1314 0
 2978              		.cfi_startproc
 2979              		@ args = 0, pretend = 0, frame = 8
 2980              		@ frame_needed = 0, uses_anonymous_args = 0
 2981              	.LVL329:
 2982 0000 00B5     		push	{lr}
 2983              	.LCFI24:
 2984              		.cfi_def_cfa_offset 4
 2985              		.cfi_offset 14, -4
 2986              		.loc 1 1315 0
 2987 0002 0368     		ldr	r3, [r0, #0]
 2988 0004 1A7A     		ldrb	r2, [r3, #8]	@ zero_extendqisi2
 2989 0006 51B2     		sxtb	r1, r2
 2990 0008 0931     		adds	r1, r1, #9
 2991              		.loc 1 1314 0
 2992 000a 83B0     		sub	sp, sp, #12
 2993              	.LCFI25:
 2994              		.cfi_def_cfa_offset 16
ARM GAS  /tmp/ccKs28dn.s 			page 54


 2995              		.loc 1 1315 0
 2996 000c 03DB     		blt	.L476
 2997              		.loc 1 1318 0
 2998 000e 1A78     		ldrb	r2, [r3, #0]	@ zero_extendqisi2
 2999 0010 102A     		cmp	r2, #16
 3000 0012 08D0     		beq	.L477
 3001              		.loc 1 1354 0
 3002 0014 FA22     		movs	r2, #250
 3003              	.L476:
 3004 0016 0271     		strb	r2, [r0, #4]
 3005              	.L466:
 3006              		.loc 1 1358 0
 3007 0018 03F10C00 		add	r0, r3, #12
 3008              	.LVL330:
 3009              		.loc 1 1359 0
 3010 001c 03B0     		add	sp, sp, #12
 3011 001e 5DF804EB 		pop	{lr}
 3012              		.loc 1 1358 0
 3013 0022 FFF7FEBF 		b	sys_sem_signal
 3014              	.LVL331:
 3015              	.L477:
 3016              		.loc 1 1320 0
 3017 0026 5A78     		ldrb	r2, [r3, #1]	@ zero_extendqisi2
 3018 0028 12B1     		cbz	r2, .L468
 3019              		.loc 1 1322 0
 3020 002a FB22     		movs	r2, #251
 3021 002c 0271     		strb	r2, [r0, #4]
 3022 002e F3E7     		b	.L466
 3023              	.L468:
 3024              		.loc 1 1323 0
 3025 0030 5A68     		ldr	r2, [r3, #4]
 3026 0032 E2B1     		cbz	r2, .L469
 3027              		.loc 1 1326 0
 3028 0034 5A6A     		ldr	r2, [r3, #36]
 3029              		.loc 1 1324 0
 3030 0036 0121     		movs	r1, #1
 3031 0038 5970     		strb	r1, [r3, #1]
 3032              		.loc 1 1326 0
 3033 003a A2B1     		cbz	r2, .L478
 3034              	.L470:
 3035              		.loc 1 1326 0 is_stmt 0 discriminator 1
 3036 003c 0190     		str	r0, [sp, #4]
 3037 003e FFF7FEFF 		bl	port_halt
 3038              	.LVL332:
 3039 0042 0198     		ldr	r0, [sp, #4]
 3040              	.L471:
 3041              		.loc 1 1328 0 is_stmt 1
 3042 0044 C368     		ldr	r3, [r0, #12]
 3043 0046 4BB1     		cbz	r3, .L479
 3044              	.L472:
 3045              		.loc 1 1329 0
 3046 0048 0368     		ldr	r3, [r0, #0]
 3047              		.loc 1 1330 0
 3048 004a 0022     		movs	r2, #0
 3049              		.loc 1 1329 0
 3050 004c 5862     		str	r0, [r3, #36]
 3051              		.loc 1 1341 0
ARM GAS  /tmp/ccKs28dn.s 			page 55


 3052 004e 1846     		mov	r0, r3
 3053              		.loc 1 1330 0
 3054 0050 1A62     		str	r2, [r3, #32]
 3055              		.loc 1 1359 0
 3056 0052 03B0     		add	sp, sp, #12
 3057 0054 5DF804EB 		pop	{lr}
 3058              		.loc 1 1341 0
 3059 0058 FFF7FEBF 		b	do_writemore
 3060              	.LVL333:
 3061              	.L479:
 3062              		.loc 1 1328 0 discriminator 1
 3063 005c 0190     		str	r0, [sp, #4]
 3064 005e FFF7FEFF 		bl	port_halt
 3065              	.LVL334:
 3066 0062 0198     		ldr	r0, [sp, #4]
 3067 0064 F0E7     		b	.L472
 3068              	.LVL335:
 3069              	.L478:
 3070              		.loc 1 1326 0 discriminator 2
 3071 0066 1B6A     		ldr	r3, [r3, #32]
 3072 0068 002B     		cmp	r3, #0
 3073 006a EBD0     		beq	.L471
 3074 006c E6E7     		b	.L470
 3075              	.L469:
 3076              		.loc 1 1347 0
 3077 006e F322     		movs	r2, #243
 3078 0070 0271     		strb	r2, [r0, #4]
 3079 0072 D1E7     		b	.L466
 3080              		.cfi_endproc
 3081              	.LFE30:
 3082              		.size	do_write, .-do_write
 3083 0074 AFF30080 		.section	.text.do_getaddr,"ax",%progbits
 3083      AFF30080 
 3083      AFF30080 
 3084              		.align	2
 3085              		.p2align 4,,15
 3086              		.global	do_getaddr
 3087              		.thumb
 3088              		.thumb_func
 3089              		.type	do_getaddr, %function
 3090              	do_getaddr:
 3091              	.LFB31:
 3092              		.loc 1 1369 0
 3093              		.cfi_startproc
 3094              		@ args = 0, pretend = 0, frame = 0
 3095              		@ frame_needed = 0, uses_anonymous_args = 0
 3096              	.LVL336:
 3097 0000 10B5     		push	{r4, lr}
 3098              	.LCFI26:
 3099              		.cfi_def_cfa_offset 8
 3100              		.cfi_offset 4, -8
 3101              		.cfi_offset 14, -4
 3102              		.loc 1 1369 0
 3103 0002 0446     		mov	r4, r0
 3104              		.loc 1 1370 0
 3105 0004 0068     		ldr	r0, [r0, #0]
 3106              	.LVL337:
ARM GAS  /tmp/ccKs28dn.s 			page 56


 3107 0006 4368     		ldr	r3, [r0, #4]
 3108 0008 002B     		cmp	r3, #0
 3109 000a 2ED0     		beq	.L481
 3110              		.loc 1 1371 0
 3111 000c 217C     		ldrb	r1, [r4, #16]	@ zero_extendqisi2
 3112 000e A268     		ldr	r2, [r4, #8]
 3113 0010 A1B9     		cbnz	r1, .L495
 3114              		.loc 1 1371 0 is_stmt 0 discriminator 2
 3115 0012 5B68     		ldr	r3, [r3, #4]
 3116 0014 1360     		str	r3, [r2, #0]
 3117              		.loc 1 1374 0 is_stmt 1 discriminator 2
 3118 0016 0023     		movs	r3, #0
 3119 0018 2371     		strb	r3, [r4, #4]
 3120              		.loc 1 1375 0 discriminator 2
 3121 001a 0378     		ldrb	r3, [r0, #0]	@ zero_extendqisi2
 3122 001c 03F0F003 		and	r3, r3, #240
 3123 0020 202B     		cmp	r3, #32
 3124 0022 14D0     		beq	.L486
 3125              	.L497:
 3126              		.loc 1 1375 0 is_stmt 0
 3127 0024 402B     		cmp	r3, #64
 3128 0026 1ED0     		beq	.L487
 3129 0028 102B     		cmp	r3, #16
 3130 002a 21D0     		beq	.L496
 3131              		.loc 1 1405 0 is_stmt 1 discriminator 1
 3132 002c FFF7FEFF 		bl	port_halt
 3133              	.LVL338:
 3134 0030 2068     		ldr	r0, [r4, #0]
 3135              	.L489:
 3136              		.loc 1 1411 0
 3137 0032 0C30     		adds	r0, r0, #12
 3138              		.loc 1 1412 0
 3139 0034 BDE81040 		pop	{r4, lr}
 3140              		.loc 1 1411 0
 3141 0038 FFF7FEBF 		b	sys_sem_signal
 3142              	.LVL339:
 3143              	.L495:
 3144              		.loc 1 1371 0 discriminator 1
 3145 003c 1B68     		ldr	r3, [r3, #0]
 3146 003e 1360     		str	r3, [r2, #0]
 3147              		.loc 1 1374 0 discriminator 1
 3148 0040 0023     		movs	r3, #0
 3149 0042 2371     		strb	r3, [r4, #4]
 3150              		.loc 1 1375 0 discriminator 1
 3151 0044 0378     		ldrb	r3, [r0, #0]	@ zero_extendqisi2
 3152 0046 03F0F003 		and	r3, r3, #240
 3153 004a 202B     		cmp	r3, #32
 3154 004c EAD1     		bne	.L497
 3155              	.L486:
 3156              		.loc 1 1388 0
 3157 004e 237C     		ldrb	r3, [r4, #16]	@ zero_extendqisi2
 3158 0050 EBB9     		cbnz	r3, .L498
 3159              		.loc 1 1391 0
 3160 0052 4368     		ldr	r3, [r0, #4]
 3161 0054 1A7C     		ldrb	r2, [r3, #16]	@ zero_extendqisi2
 3162 0056 02F00402 		and	r2, r2, #4
 3163 005a D2B2     		uxtb	r2, r2
ARM GAS  /tmp/ccKs28dn.s 			page 57


 3164 005c 2AB1     		cbz	r2, .L481
 3165              		.loc 1 1394 0
 3166 005e E268     		ldr	r2, [r4, #12]
 3167 0060 9B8A     		ldrh	r3, [r3, #20]
 3168 0062 1380     		strh	r3, [r2, #0]	@ movhi
 3169 0064 E5E7     		b	.L489
 3170              	.L487:
 3171              		.loc 1 1378 0
 3172 0066 237C     		ldrb	r3, [r4, #16]	@ zero_extendqisi2
 3173 0068 4BB9     		cbnz	r3, .L499
 3174              	.L481:
 3175              		.loc 1 1409 0
 3176 006a F323     		movs	r3, #243
 3177 006c 2371     		strb	r3, [r4, #4]
 3178 006e E0E7     		b	.L489
 3179              	.L496:
 3180              		.loc 1 1401 0
 3181 0070 227C     		ldrb	r2, [r4, #16]	@ zero_extendqisi2
 3182 0072 E368     		ldr	r3, [r4, #12]
 3183 0074 42B9     		cbnz	r2, .L500
 3184              		.loc 1 1401 0 is_stmt 0 discriminator 2
 3185 0076 4268     		ldr	r2, [r0, #4]
 3186 0078 D28B     		ldrh	r2, [r2, #30]
 3187              	.L493:
 3188              		.loc 1 1401 0 discriminator 3
 3189 007a 1A80     		strh	r2, [r3, #0]	@ movhi
 3190              		.loc 1 1402 0 is_stmt 1 discriminator 3
 3191 007c D9E7     		b	.L489
 3192              	.L499:
 3193              		.loc 1 1379 0
 3194 007e 4368     		ldr	r3, [r0, #4]
 3195 0080 E268     		ldr	r2, [r4, #12]
 3196 0082 1B7C     		ldrb	r3, [r3, #16]	@ zero_extendqisi2
 3197 0084 1380     		strh	r3, [r2, #0]	@ movhi
 3198 0086 D4E7     		b	.L489
 3199              	.L500:
 3200              		.loc 1 1401 0 discriminator 1
 3201 0088 4268     		ldr	r2, [r0, #4]
 3202 008a 928B     		ldrh	r2, [r2, #28]
 3203 008c F5E7     		b	.L493
 3204              	.L498:
 3205              		.loc 1 1389 0
 3206 008e 4368     		ldr	r3, [r0, #4]
 3207 0090 E268     		ldr	r2, [r4, #12]
 3208 0092 5B8A     		ldrh	r3, [r3, #18]
 3209 0094 1380     		strh	r3, [r2, #0]	@ movhi
 3210 0096 CCE7     		b	.L489
 3211              		.cfi_endproc
 3212              	.LFE31:
 3213              		.size	do_getaddr, .-do_getaddr
 3214 0098 AFF30080 		.section	.text.do_close,"ax",%progbits
 3214      AFF30080 
 3215              		.align	2
 3216              		.p2align 4,,15
 3217              		.global	do_close
 3218              		.thumb
 3219              		.thumb_func
ARM GAS  /tmp/ccKs28dn.s 			page 58


 3220              		.type	do_close, %function
 3221              	do_close:
 3222              	.LFB32:
 3223              		.loc 1 1422 0
 3224              		.cfi_startproc
 3225              		@ args = 0, pretend = 0, frame = 0
 3226              		@ frame_needed = 0, uses_anonymous_args = 0
 3227              	.LVL340:
 3228 0000 10B5     		push	{r4, lr}
 3229              	.LCFI27:
 3230              		.cfi_def_cfa_offset 8
 3231              		.cfi_offset 4, -8
 3232              		.cfi_offset 14, -4
 3233              		.loc 1 1422 0
 3234 0002 0446     		mov	r4, r0
 3235              		.loc 1 1425 0
 3236 0004 0068     		ldr	r0, [r0, #0]
 3237              	.LVL341:
 3238 0006 4278     		ldrb	r2, [r0, #1]	@ zero_extendqisi2
 3239 0008 12F0FD0F 		tst	r2, #253
 3240 000c 0CD0     		beq	.L502
 3241              		.loc 1 1427 0
 3242 000e 0278     		ldrb	r2, [r0, #0]	@ zero_extendqisi2
 3243 0010 102A     		cmp	r2, #16
 3244 0012 02D0     		beq	.L503
 3245              		.loc 1 1427 0 is_stmt 0 discriminator 1
 3246 0014 FFF7FEFF 		bl	port_halt
 3247              	.LVL342:
 3248 0018 2068     		ldr	r0, [r4, #0]
 3249              	.L503:
 3250              		.loc 1 1428 0 is_stmt 1
 3251 001a FB22     		movs	r2, #251
 3252 001c 2271     		strb	r2, [r4, #4]
 3253              	.L504:
 3254              		.loc 1 1451 0
 3255 001e 0C30     		adds	r0, r0, #12
 3256              		.loc 1 1452 0
 3257 0020 BDE81040 		pop	{r4, lr}
 3258              		.loc 1 1451 0
 3259 0024 FFF7FEBF 		b	sys_sem_signal
 3260              	.LVL343:
 3261              	.L502:
 3262              		.loc 1 1429 0
 3263 0028 4168     		ldr	r1, [r0, #4]
 3264 002a 11B1     		cbz	r1, .L505
 3265              		.loc 1 1429 0 is_stmt 0 discriminator 1
 3266 002c 0178     		ldrb	r1, [r0, #0]	@ zero_extendqisi2
 3267 002e 1029     		cmp	r1, #16
 3268 0030 02D0     		beq	.L526
 3269              	.L505:
 3270              		.loc 1 1449 0 is_stmt 1
 3271 0032 FA22     		movs	r2, #250
 3272 0034 2271     		strb	r2, [r4, #4]
 3273 0036 F2E7     		b	.L504
 3274              	.L526:
 3275              		.loc 1 1430 0
 3276 0038 217A     		ldrb	r1, [r4, #8]	@ zero_extendqisi2
ARM GAS  /tmp/ccKs28dn.s 			page 59


 3277 003a 0329     		cmp	r1, #3
 3278 003c 13D0     		beq	.L506
 3279              		.loc 1 1430 0 is_stmt 0 discriminator 1
 3280 003e 022A     		cmp	r2, #2
 3281 0040 15D0     		beq	.L527
 3282              		.loc 1 1434 0 is_stmt 1
 3283 0042 C907     		lsls	r1, r1, #31
 3284 0044 0FD4     		bmi	.L506
 3285              	.L508:
 3286              		.loc 1 1438 0
 3287 0046 426A     		ldr	r2, [r0, #36]
 3288 0048 4AB1     		cbz	r2, .L528
 3289              	.L509:
 3290              		.loc 1 1438 0 is_stmt 0 discriminator 1
 3291 004a FFF7FEFF 		bl	port_halt
 3292              	.LVL344:
 3293 004e 2068     		ldr	r0, [r4, #0]
 3294              	.L510:
 3295              		.loc 1 1440 0 is_stmt 1
 3296 0050 0422     		movs	r2, #4
 3297 0052 4270     		strb	r2, [r0, #1]
 3298              		.loc 1 1441 0
 3299 0054 4462     		str	r4, [r0, #36]
 3300              		.loc 1 1452 0
 3301 0056 BDE81040 		pop	{r4, lr}
 3302              		.loc 1 1442 0
 3303 005a FFF7FEBF 		b	do_close_internal
 3304              	.LVL345:
 3305              	.L528:
 3306              		.loc 1 1438 0 discriminator 2
 3307 005e 026A     		ldr	r2, [r0, #32]
 3308 0060 002A     		cmp	r2, #0
 3309 0062 F2D1     		bne	.L509
 3310 0064 F4E7     		b	.L510
 3311              	.L506:
 3312              		.loc 1 1436 0
 3313 0066 FFF7FEFF 		bl	netconn_drain
 3314              	.LVL346:
 3315 006a 2068     		ldr	r0, [r4, #0]
 3316 006c EBE7     		b	.L508
 3317              	.L527:
 3318              		.loc 1 1432 0
 3319 006e F322     		movs	r2, #243
 3320 0070 2271     		strb	r2, [r4, #4]
 3321              		.loc 1 1430 0
 3322 0072 D4E7     		b	.L504
 3323              		.cfi_endproc
 3324              	.LFE32:
 3325              		.size	do_close, .-do_close
 3326 0074 AFF30080 		.text
 3326      AFF30080 
 3326      AFF30080 
 3327              	.Letext0:
 3328              		.file 2 "/opt/psas/x-tools/stm32f407/arm-psas-eabi/bin/../lib/gcc/arm-psas-eabi/4.7.2/include/stdd
 3329              		.file 3 "/opt/psas/x-tools/stm32f407/arm-psas-eabi/bin/../lib/gcc/arm-psas-eabi/4.7.2/../../../../
 3330              		.file 4 "../../os/ports/GCC/ARMCMx/chtypes.h"
 3331              		.file 5 "../../os/kernel/include/chlists.h"
ARM GAS  /tmp/ccKs28dn.s 			page 60


 3332              		.file 6 "../../os/kernel/include/chthreads.h"
 3333              		.file 7 "../../os/ports/GCC/ARMCMx/chcore_v7m.h"
 3334              		.file 8 "../../os/kernel/include/chsem.h"
 3335              		.file 9 "../../os/kernel/include/chmtx.h"
 3336              		.file 10 "../../os/kernel/include/chmboxes.h"
 3337              		.file 11 "../../os/various/lwip_bindings/arch/cc.h"
 3338              		.file 12 "../../ext/lwip/src/include/ipv4/lwip/ip_addr.h"
 3339              		.file 13 "../../ext/lwip/src/include/lwip/err.h"
 3340              		.file 14 "../../os/various/lwip_bindings/arch/sys_arch.h"
 3341              		.file 15 "../../ext/lwip/src/include/lwip/pbuf.h"
 3342              		.file 16 "../../ext/lwip/src/include/lwip/netbuf.h"
 3343              		.file 17 "../../ext/lwip/src/include/lwip/api.h"
 3344              		.file 18 "../../ext/lwip/src/include/ipv4/lwip/ip.h"
 3345              		.file 19 "../../ext/lwip/src/include/lwip/tcp.h"
 3346              		.file 20 "../../ext/lwip/src/include/lwip/udp.h"
 3347              		.file 21 "../../ext/lwip/src/include/lwip/raw.h"
 3348              		.file 22 "../../ext/lwip/src/include/lwip/api_msg.h"
 3349              		.file 23 "../../ext/lwip/src/include/lwip/memp.h"
 3350              		.file 24 "../../ext/lwip/src/include/lwip/sys.h"