ARM GAS  /tmp/ccKs28dn.s 			page 1


   1              		.syntax unified
   2              		.cpu cortex-m4
   3              		.eabi_attribute 27, 3
   4              		.eabi_attribute 28, 1
   5              		.fpu fpv4-sp-d16
   6              		.eabi_attribute 20, 1
   7              		.eabi_attribute 21, 1
   8              		.eabi_attribute 23, 3
   9              		.eabi_attribute 24, 1
  10              		.eabi_attribute 25, 1
  11              		.eabi_attribute 26, 1
  12              		.eabi_attribute 30, 2
  13              		.eabi_attribute 34, 1
  14              		.eabi_attribute 18, 4
  15              		.thumb
  16              		.file	"api_msg.c"
  17              		.text
  18              	.Ltext0:
  19              		.cfi_sections	.debug_frame
  20              		.section	.text.setup_tcp,"ax",%progbits
  21              		.align	2
  22              		.p2align 4,,15
  23              		.thumb
  24              		.thumb_func
  25              		.type	setup_tcp, %function
  26              	setup_tcp:
  27              	.LFB13:
  28              		.file 1 "../../ext/lwip/src/api/api_msg.c"
  29              		.loc 1 414 0
  30              		.cfi_startproc
  31              		@ args = 0, pretend = 0, frame = 0
  32              		@ frame_needed = 0, uses_anonymous_args = 0
  33              	.LVL0:
  34 0000 10B5     		push	{r4, lr}
  35              	.LCFI0:
  36              		.cfi_def_cfa_offset 8
  37              		.cfi_offset 4, -8
  38              		.cfi_offset 14, -4
  39              		.loc 1 417 0
  40 0002 4468     		ldr	r4, [r0, #4]
  41              	.LVL1:
  42              		.loc 1 418 0
  43 0004 0146     		mov	r1, r0
  44 0006 2046     		mov	r0, r4
  45              	.LVL2:
  46 0008 FFF7FEFF 		bl	tcp_arg
  47              	.LVL3:
  48              		.loc 1 419 0
  49 000c 40F20001 		movw	r1, #:lower16:recv_tcp
  50 0010 2046     		mov	r0, r4
  51 0012 C0F20001 		movt	r1, #:upper16:recv_tcp
  52 0016 FFF7FEFF 		bl	tcp_recv
  53              	.LVL4:
  54              		.loc 1 420 0
  55 001a 40F20001 		movw	r1, #:lower16:sent_tcp
  56 001e 2046     		mov	r0, r4
  57 0020 C0F20001 		movt	r1, #:upper16:sent_tcp
ARM GAS  /tmp/ccKs28dn.s 			page 2


  58 0024 FFF7FEFF 		bl	tcp_sent
  59              	.LVL5:
  60              		.loc 1 421 0
  61 0028 40F20001 		movw	r1, #:lower16:poll_tcp
  62 002c 2046     		mov	r0, r4
  63 002e C0F20001 		movt	r1, #:upper16:poll_tcp
  64 0032 0422     		movs	r2, #4
  65 0034 FFF7FEFF 		bl	tcp_poll
  66              	.LVL6:
  67              		.loc 1 422 0
  68 0038 40F20001 		movw	r1, #:lower16:err_tcp
  69 003c 2046     		mov	r0, r4
  70 003e C0F20001 		movt	r1, #:upper16:err_tcp
  71              		.loc 1 423 0
  72 0042 BDE81040 		pop	{r4, lr}
  73              		.loc 1 422 0
  74 0046 FFF7FEBF 		b	tcp_err
  75              	.LVL7:
  76              		.cfi_endproc
  77              	.LFE13:
  78              		.size	setup_tcp, .-setup_tcp
  79 004a 00BFAFF3 		.section	.text.do_connected,"ax",%progbits
  79      0080
  80              		.align	2
  81              		.p2align 4,,15
  82              		.thumb
  83              		.thumb_func
  84              		.type	do_connected, %function
  85              	do_connected:
  86              	.LFB23:
  87              		.loc 1 926 0
  88              		.cfi_startproc
  89              		@ args = 0, pretend = 0, frame = 0
  90              		@ frame_needed = 0, uses_anonymous_args = 0
  91              	.LVL8:
  92 0000 38B5     		push	{r3, r4, r5, lr}
  93              	.LCFI1:
  94              		.cfi_def_cfa_offset 16
  95              		.cfi_offset 3, -16
  96              		.cfi_offset 4, -12
  97              		.cfi_offset 5, -8
  98              		.cfi_offset 14, -4
  99              		.loc 1 934 0
 100 0002 0446     		mov	r4, r0
 101              		.loc 1 926 0
 102 0004 1546     		mov	r5, r2
 103              		.loc 1 934 0
 104 0006 0028     		cmp	r0, #0
 105 0008 3DD0     		beq	.L12
 106              		.loc 1 938 0
 107 000a 4378     		ldrb	r3, [r0, #1]	@ zero_extendqisi2
 108 000c 032B     		cmp	r3, #3
 109 000e 01D0     		beq	.L4
 110              		.loc 1 938 0 is_stmt 0 discriminator 1
 111 0010 FFF7FEFF 		bl	port_halt
 112              	.LVL9:
 113              	.L4:
ARM GAS  /tmp/ccKs28dn.s 			page 3


 114              		.loc 1 939 0 is_stmt 1
 115 0014 636A     		ldr	r3, [r4, #36]
 116 0016 53B3     		cbz	r3, .L24
 117              	.L5:
 118              		.loc 1 943 0
 119 0018 1D71     		strb	r5, [r3, #4]
 120              	.L7:
 121              		.loc 1 945 0
 122 001a 2378     		ldrb	r3, [r4, #0]	@ zero_extendqisi2
 123 001c 102B     		cmp	r3, #16
 124 001e 20D0     		beq	.L25
 125              	.L9:
 126              		.loc 1 948 0
 127 0020 227F     		ldrb	r2, [r4, #28]	@ zero_extendqisi2
 128 0022 82F00405 		eor	r5, r2, #4
 129              		.loc 1 950 0
 130 0026 0023     		movs	r3, #0
 131              		.loc 1 949 0
 132 0028 22F00402 		bic	r2, r2, #4
 133              		.loc 1 948 0
 134 002c C5F38005 		ubfx	r5, r5, #2, #1
 135              	.LVL10:
 136              		.loc 1 949 0
 137 0030 2277     		strb	r2, [r4, #28]
 138              		.loc 1 950 0
 139 0032 6362     		str	r3, [r4, #36]
 140              		.loc 1 951 0
 141 0034 6370     		strb	r3, [r4, #1]
 142              		.loc 1 952 0
 143 0036 75B1     		cbz	r5, .L26
 144              	.L10:
 145              		.loc 1 955 0
 146 0038 A36A     		ldr	r3, [r4, #40]
 147 003a 1BB1     		cbz	r3, .L11
 148              		.loc 1 955 0 is_stmt 0 discriminator 1
 149 003c 2046     		mov	r0, r4
 150 003e 0221     		movs	r1, #2
 151 0040 0022     		movs	r2, #0
 152 0042 9847     		blx	r3
 153              	.LVL11:
 154              	.L11:
 155              		.loc 1 960 0 is_stmt 1
 156 0044 2846     		mov	r0, r5
 157              		.loc 1 957 0
 158 0046 25B1     		cbz	r5, .L3
 159              	.LVL12:
 160              		.loc 1 958 0
 161 0048 04F10C00 		add	r0, r4, #12
 162              	.LVL13:
 163 004c FFF7FEFF 		bl	sys_sem_signal
 164              	.LVL14:
 165              		.loc 1 960 0
 166 0050 0020     		movs	r0, #0
 167              	.LVL15:
 168              	.L3:
 169              		.loc 1 961 0
 170 0052 40B2     		sxtb	r0, r0
ARM GAS  /tmp/ccKs28dn.s 			page 4


 171 0054 38BD     		pop	{r3, r4, r5, pc}
 172              	.LVL16:
 173              	.L26:
 174              		.loc 1 953 0
 175 0056 94F90830 		ldrsb	r3, [r4, #8]
 176 005a 0933     		adds	r3, r3, #9
 177 005c A8BF     		it	ge
 178 005e 2572     		strbge	r5, [r4, #8]
 179 0060 EAE7     		b	.L10
 180              	.LVL17:
 181              	.L25:
 182              		.loc 1 945 0 discriminator 1
 183 0062 002D     		cmp	r5, #0
 184 0064 DCD1     		bne	.L9
 185              		.loc 1 946 0
 186 0066 2046     		mov	r0, r4
 187 0068 FFF7FEFF 		bl	setup_tcp
 188              	.LVL18:
 189 006c D8E7     		b	.L9
 190              	.L24:
 191              		.loc 1 939 0 discriminator 1
 192 006e 237F     		ldrb	r3, [r4, #28]	@ zero_extendqisi2
 193 0070 03F00403 		and	r3, r3, #4
 194 0074 DBB2     		uxtb	r3, r3
 195 0076 002B     		cmp	r3, #0
 196 0078 CFD1     		bne	.L7
 197              		.loc 1 939 0 is_stmt 0 discriminator 2
 198 007a FFF7FEFF 		bl	port_halt
 199              	.LVL19:
 200              		.loc 1 942 0 is_stmt 1 discriminator 2
 201 007e 636A     		ldr	r3, [r4, #36]
 202 0080 002B     		cmp	r3, #0
 203 0082 CAD0     		beq	.L7
 204 0084 C8E7     		b	.L5
 205              	.LVL20:
 206              	.L12:
 207              		.loc 1 935 0
 208 0086 FA20     		movs	r0, #250
 209              	.LVL21:
 210 0088 E3E7     		b	.L3
 211              		.cfi_endproc
 212              	.LFE23:
 213              		.size	do_connected, .-do_connected
 214 008a 00BFAFF3 		.section	.text.do_close_internal,"ax",%progbits
 214      0080
 215              		.align	2
 216              		.p2align 4,,15
 217              		.thumb
 218              		.thumb_func
 219              		.type	do_close_internal, %function
 220              	do_close_internal:
 221              	.LFB20:
 222              		.loc 1 736 0
 223              		.cfi_startproc
 224              		@ args = 0, pretend = 0, frame = 0
 225              		@ frame_needed = 0, uses_anonymous_args = 0
 226              	.LVL22:
ARM GAS  /tmp/ccKs28dn.s 			page 5


 227 0000 F8B5     		push	{r3, r4, r5, r6, r7, lr}
 228              	.LCFI2:
 229              		.cfi_def_cfa_offset 24
 230              		.cfi_offset 3, -24
 231              		.cfi_offset 4, -20
 232              		.cfi_offset 5, -16
 233              		.cfi_offset 6, -12
 234              		.cfi_offset 7, -8
 235              		.cfi_offset 14, -4
 236              		.loc 1 740 0
 237 0002 0446     		mov	r4, r0
 238 0004 0028     		cmp	r0, #0
 239 0006 00F09A80 		beq	.L82
 240              	.LVL23:
 241              	.L28:
 242              		.loc 1 741 0
 243 000a 2378     		ldrb	r3, [r4, #0]	@ zero_extendqisi2
 244 000c 102B     		cmp	r3, #16
 245 000e 01D0     		beq	.L29
 246              		.loc 1 741 0 is_stmt 0 discriminator 1
 247 0010 FFF7FEFF 		bl	port_halt
 248              	.LVL24:
 249              	.L29:
 250              		.loc 1 742 0 is_stmt 1
 251 0014 6378     		ldrb	r3, [r4, #1]	@ zero_extendqisi2
 252 0016 042B     		cmp	r3, #4
 253 0018 01D0     		beq	.L30
 254              		.loc 1 742 0 is_stmt 0 discriminator 1
 255 001a FFF7FEFF 		bl	port_halt
 256              	.LVL25:
 257              	.L30:
 258              		.loc 1 743 0 is_stmt 1
 259 001e 6368     		ldr	r3, [r4, #4]
 260 0020 002B     		cmp	r3, #0
 261 0022 00F08580 		beq	.L83
 262              	.L31:
 263              		.loc 1 744 0
 264 0026 636A     		ldr	r3, [r4, #36]
 265 0028 002B     		cmp	r3, #0
 266 002a 00F08480 		beq	.L84
 267              	.L32:
 268              		.loc 1 746 0
 269 002e 197A     		ldrb	r1, [r3, #8]	@ zero_extendqisi2
 270              	.LVL26:
 271              		.loc 1 750 0
 272 0030 CB1E     		subs	r3, r1, #3
 273              	.LVL27:
 274 0032 5D42     		rsbs	r5, r3, #0
 275              		.loc 1 748 0
 276 0034 01F00206 		and	r6, r1, #2
 277              		.loc 1 750 0
 278 0038 5D41     		adcs	r5, r5, r3
 279              		.loc 1 747 0
 280 003a 01F00107 		and	r7, r1, #1
 281              	.LVL28:
 282              		.loc 1 748 0
 283 003e F6B2     		uxtb	r6, r6
ARM GAS  /tmp/ccKs28dn.s 			page 6


 284              	.LVL29:
 285              		.loc 1 753 0
 286 0040 002D     		cmp	r5, #0
 287 0042 64D1     		bne	.L85
 288              		.loc 1 756 0
 289 0044 6068     		ldr	r0, [r4, #4]
 290 0046 037C     		ldrb	r3, [r0, #16]	@ zero_extendqisi2
 291 0048 012B     		cmp	r3, #1
 292 004a 68D0     		beq	.L86
 293              	.LVL30:
 294              	.L34:
 295              		.loc 1 760 0
 296 004c 002F     		cmp	r7, #0
 297 004e 53D1     		bne	.L87
 298              		.loc 1 764 0
 299 0050 002E     		cmp	r6, #0
 300 0052 3CD1     		bne	.L88
 301              	.L37:
 302              		.loc 1 767 0
 303 0054 002D     		cmp	r5, #0
 304 0056 40D1     		bne	.L89
 305              	.L38:
 306              		.loc 1 776 0
 307 0058 3246     		mov	r2, r6
 308 005a 3946     		mov	r1, r7
 309 005c FFF7FEFF 		bl	tcp_shutdown
 310              	.LVL31:
 311 0060 0246     		mov	r2, r0
 312              	.LVL32:
 313              	.L39:
 314              		.loc 1 778 0
 315 0062 F2B9     		cbnz	r2, .L40
 316              		.loc 1 780 0
 317 0064 636A     		ldr	r3, [r4, #36]
 318 0066 1A71     		strb	r2, [r3, #4]
 319              		.loc 1 781 0
 320 0068 6262     		str	r2, [r4, #36]
 321              		.loc 1 782 0
 322 006a 6270     		strb	r2, [r4, #1]
 323              		.loc 1 784 0
 324 006c 6260     		str	r2, [r4, #4]
 325              		.loc 1 787 0
 326 006e 25B1     		cbz	r5, .L41
 327              		.loc 1 788 0
 328 0070 A56A     		ldr	r5, [r4, #40]
 329 0072 15B1     		cbz	r5, .L41
 330              		.loc 1 788 0 is_stmt 0 discriminator 1
 331 0074 2046     		mov	r0, r4
 332 0076 0421     		movs	r1, #4
 333 0078 A847     		blx	r5
 334              	.LVL33:
 335              	.L41:
 336              		.loc 1 790 0 is_stmt 1
 337 007a 2FB1     		cbz	r7, .L42
 338              		.loc 1 791 0
 339 007c A36A     		ldr	r3, [r4, #40]
 340 007e 1BB1     		cbz	r3, .L42
ARM GAS  /tmp/ccKs28dn.s 			page 7


 341              		.loc 1 791 0 is_stmt 0 discriminator 1
 342 0080 0021     		movs	r1, #0
 343 0082 2046     		mov	r0, r4
 344 0084 0A46     		mov	r2, r1
 345 0086 9847     		blx	r3
 346              	.LVL34:
 347              	.L42:
 348              		.loc 1 793 0 is_stmt 1
 349 0088 2EB1     		cbz	r6, .L43
 350              		.loc 1 794 0
 351 008a A36A     		ldr	r3, [r4, #40]
 352 008c 1BB1     		cbz	r3, .L43
 353              		.loc 1 794 0 is_stmt 0 discriminator 1
 354 008e 2046     		mov	r0, r4
 355 0090 0221     		movs	r1, #2
 356 0092 0022     		movs	r2, #0
 357 0094 9847     		blx	r3
 358              	.LVL35:
 359              	.L43:
 360              		.loc 1 797 0 is_stmt 1
 361 0096 04F10C00 		add	r0, r4, #12
 362              		.loc 1 810 0
 363 009a BDE8F840 		pop	{r3, r4, r5, r6, r7, lr}
 364              		.loc 1 797 0
 365 009e FFF7FEBF 		b	sys_sem_signal
 366              	.LVL36:
 367              	.L40:
 368              		.loc 1 801 0
 369 00a2 6068     		ldr	r0, [r4, #4]
 370 00a4 037C     		ldrb	r3, [r0, #16]	@ zero_extendqisi2
 371 00a6 012B     		cmp	r3, #1
 372 00a8 3ED0     		beq	.L90
 373              	.LVL37:
 374              	.L44:
 375              		.loc 1 802 0
 376 00aa 2649     		ldr	r1, .L91
 377 00ac FFF7FEFF 		bl	tcp_sent
 378              	.LVL38:
 379              		.loc 1 803 0
 380 00b0 6068     		ldr	r0, [r4, #4]
 381 00b2 2549     		ldr	r1, .L91+4
 382 00b4 0422     		movs	r2, #4
 383 00b6 FFF7FEFF 		bl	tcp_poll
 384              	.LVL39:
 385              		.loc 1 804 0
 386 00ba 6068     		ldr	r0, [r4, #4]
 387 00bc 2349     		ldr	r1, .L91+8
 388 00be FFF7FEFF 		bl	tcp_err
 389              	.LVL40:
 390              		.loc 1 805 0
 391 00c2 6068     		ldr	r0, [r4, #4]
 392 00c4 2146     		mov	r1, r4
 393              		.loc 1 810 0
 394 00c6 BDE8F840 		pop	{r3, r4, r5, r6, r7, lr}
 395              		.loc 1 805 0
 396 00ca FFF7FEBF 		b	tcp_arg
 397              	.LVL41:
ARM GAS  /tmp/ccKs28dn.s 			page 8


 398              	.L88:
 399              		.loc 1 765 0
 400 00ce 0021     		movs	r1, #0
 401 00d0 FFF7FEFF 		bl	tcp_sent
 402              	.LVL42:
 403 00d4 6068     		ldr	r0, [r4, #4]
 404              		.loc 1 767 0
 405 00d6 002D     		cmp	r5, #0
 406 00d8 BED0     		beq	.L38
 407              	.L89:
 408              		.loc 1 768 0
 409 00da 0021     		movs	r1, #0
 410 00dc 0422     		movs	r2, #4
 411 00de FFF7FEFF 		bl	tcp_poll
 412              	.LVL43:
 413              		.loc 1 769 0
 414 00e2 6068     		ldr	r0, [r4, #4]
 415 00e4 0021     		movs	r1, #0
 416 00e6 FFF7FEFF 		bl	tcp_err
 417              	.LVL44:
 418 00ea 6068     		ldr	r0, [r4, #4]
 419              	.L35:
 420              		.loc 1 773 0
 421 00ec 002D     		cmp	r5, #0
 422 00ee B3D0     		beq	.L38
 423              		.loc 1 774 0
 424 00f0 FFF7FEFF 		bl	tcp_close
 425              	.LVL45:
 426 00f4 0246     		mov	r2, r0
 427              	.LVL46:
 428 00f6 B4E7     		b	.L39
 429              	.LVL47:
 430              	.L87:
 431              		.loc 1 761 0
 432 00f8 0021     		movs	r1, #0
 433 00fa FFF7FEFF 		bl	tcp_recv
 434              	.LVL48:
 435              		.loc 1 762 0
 436 00fe 6068     		ldr	r0, [r4, #4]
 437 0100 0021     		movs	r1, #0
 438 0102 FFF7FEFF 		bl	tcp_accept
 439              	.LVL49:
 440 0106 6068     		ldr	r0, [r4, #4]
 441              		.loc 1 764 0
 442 0108 002E     		cmp	r6, #0
 443 010a A3D0     		beq	.L37
 444 010c DFE7     		b	.L88
 445              	.LVL50:
 446              	.L85:
 447              		.loc 1 754 0
 448 010e 6068     		ldr	r0, [r4, #4]
 449 0110 0021     		movs	r1, #0
 450              	.LVL51:
 451 0112 FFF7FEFF 		bl	tcp_arg
 452              	.LVL52:
 453              		.loc 1 756 0
 454 0116 6068     		ldr	r0, [r4, #4]
ARM GAS  /tmp/ccKs28dn.s 			page 9


 455 0118 037C     		ldrb	r3, [r0, #16]	@ zero_extendqisi2
 456 011a 012B     		cmp	r3, #1
 457 011c 96D1     		bne	.L34
 458              	.L86:
 459              		.loc 1 757 0
 460 011e 0021     		movs	r1, #0
 461 0120 FFF7FEFF 		bl	tcp_accept
 462              	.LVL53:
 463 0124 6068     		ldr	r0, [r4, #4]
 464 0126 E1E7     		b	.L35
 465              	.LVL54:
 466              	.L90:
 467              		.loc 1 801 0 discriminator 1
 468 0128 FFF7FEFF 		bl	port_halt
 469              	.LVL55:
 470 012c 6068     		ldr	r0, [r4, #4]
 471 012e BCE7     		b	.L44
 472              	.LVL56:
 473              	.L83:
 474              		.loc 1 743 0 discriminator 1
 475 0130 FFF7FEFF 		bl	port_halt
 476              	.LVL57:
 477 0134 77E7     		b	.L31
 478              	.L84:
 479              		.loc 1 744 0 discriminator 1
 480 0136 FFF7FEFF 		bl	port_halt
 481              	.LVL58:
 482 013a 636A     		ldr	r3, [r4, #36]
 483 013c 77E7     		b	.L32
 484              	.LVL59:
 485              	.L82:
 486              		.loc 1 740 0 discriminator 1
 487 013e FFF7FEFF 		bl	port_halt
 488              	.LVL60:
 489 0142 62E7     		b	.L28
 490              	.L92:
 491              		.align	2
 492              	.L91:
 493 0144 00000000 		.word	sent_tcp
 494 0148 00000000 		.word	poll_tcp
 495 014c 00000000 		.word	err_tcp
 496              		.cfi_endproc
 497              	.LFE20:
 498              		.size	do_close_internal, .-do_close_internal
 499              		.section	.text.err_tcp,"ax",%progbits
 500              		.align	2
 501              		.p2align 4,,15
 502              		.thumb
 503              		.thumb_func
 504              		.type	err_tcp, %function
 505              	err_tcp:
 506              	.LFB12:
 507              		.loc 1 348 0
 508              		.cfi_startproc
 509              		@ args = 0, pretend = 0, frame = 0
 510              		@ frame_needed = 0, uses_anonymous_args = 0
 511              	.LVL61:
ARM GAS  /tmp/ccKs28dn.s 			page 10


 512 0000 F8B5     		push	{r3, r4, r5, r6, r7, lr}
 513              	.LCFI3:
 514              		.cfi_def_cfa_offset 24
 515              		.cfi_offset 3, -24
 516              		.cfi_offset 4, -20
 517              		.cfi_offset 5, -16
 518              		.cfi_offset 6, -12
 519              		.cfi_offset 7, -8
 520              		.cfi_offset 14, -4
 521              		.loc 1 354 0
 522 0002 0446     		mov	r4, r0
 523              		.loc 1 348 0
 524 0004 0F46     		mov	r7, r1
 525              		.loc 1 354 0
 526 0006 0028     		cmp	r0, #0
 527 0008 4FD0     		beq	.L123
 528              	.LVL62:
 529              	.L94:
 530              		.loc 1 369 0
 531 000a A36A     		ldr	r3, [r4, #40]
 532              		.loc 1 364 0
 533 000c 6678     		ldrb	r6, [r4, #1]	@ zero_extendqisi2
 534              	.LVL63:
 535              		.loc 1 360 0
 536 000e 2772     		strb	r7, [r4, #8]
 537              		.loc 1 356 0
 538 0010 0025     		movs	r5, #0
 539 0012 6560     		str	r5, [r4, #4]
 540              		.loc 1 365 0
 541 0014 6570     		strb	r5, [r4, #1]
 542              		.loc 1 369 0
 543 0016 7BB1     		cbz	r3, .L96
 544              		.loc 1 369 0 is_stmt 0 discriminator 1
 545 0018 2046     		mov	r0, r4
 546 001a 0421     		movs	r1, #4
 547 001c 2A46     		mov	r2, r5
 548 001e 9847     		blx	r3
 549              	.LVL64:
 550              		.loc 1 372 0 is_stmt 1 discriminator 1
 551 0020 A36A     		ldr	r3, [r4, #40]
 552 0022 4BB1     		cbz	r3, .L96
 553 0024 2046     		mov	r0, r4
 554 0026 2946     		mov	r1, r5
 555 0028 2A46     		mov	r2, r5
 556 002a 9847     		blx	r3
 557              	.LVL65:
 558              		.loc 1 373 0 discriminator 1
 559 002c A36A     		ldr	r3, [r4, #40]
 560 002e 1BB1     		cbz	r3, .L96
 561 0030 2046     		mov	r0, r4
 562 0032 0221     		movs	r1, #2
 563 0034 2A46     		mov	r2, r5
 564 0036 9847     		blx	r3
 565              	.LVL66:
 566              	.L96:
 567              		.loc 1 376 0
 568 0038 04F11005 		add	r5, r4, #16
ARM GAS  /tmp/ccKs28dn.s 			page 11


 569 003c 2846     		mov	r0, r5
 570 003e FFF7FEFF 		bl	sys_mbox_valid
 571              	.LVL67:
 572 0042 0028     		cmp	r0, #0
 573 0044 2CD1     		bne	.L124
 574              	.L97:
 575              		.loc 1 381 0
 576 0046 04F11405 		add	r5, r4, #20
 577 004a 2846     		mov	r0, r5
 578 004c FFF7FEFF 		bl	sys_mbox_valid
 579              	.LVL68:
 580 0050 0028     		cmp	r0, #0
 581 0052 20D1     		bne	.L125
 582              	.L98:
 583              		.loc 1 386 0
 584 0054 012E     		cmp	r6, #1
 585 0056 18BF     		it	ne
 586 0058 042E     		cmpne	r6, #4
 587 005a 08D0     		beq	.L99
 588              		.loc 1 386 0 is_stmt 0 discriminator 1
 589 005c 032E     		cmp	r6, #3
 590 005e 06D0     		beq	.L99
 591              		.loc 1 402 0 is_stmt 1
 592 0060 636A     		ldr	r3, [r4, #36]
 593 0062 002B     		cmp	r3, #0
 594 0064 16D0     		beq	.L93
 595              		.loc 1 404 0 discriminator 1
 596 0066 BDE8F840 		pop	{r3, r4, r5, r6, r7, lr}
 597              		.loc 1 402 0 discriminator 1
 598 006a FFF7FEBF 		b	port_halt
 599              	.LVL69:
 600              	.L99:
 601              	.LBB2:
 602              		.loc 1 390 0
 603 006e 237F     		ldrb	r3, [r4, #28]	@ zero_extendqisi2
 604              	.LVL70:
 605              		.loc 1 393 0
 606 0070 03F00402 		and	r2, r3, #4
 607 0074 D2B2     		uxtb	r2, r2
 608              		.loc 1 391 0
 609 0076 23F00403 		bic	r3, r3, #4
 610              	.LVL71:
 611 007a 2377     		strb	r3, [r4, #28]
 612              		.loc 1 393 0
 613 007c 52B9     		cbnz	r2, .L93
 614              		.loc 1 395 0
 615 007e 636A     		ldr	r3, [r4, #36]
 616 0080 B3B1     		cbz	r3, .L126
 617              	.LVL72:
 618              	.L103:
 619              		.loc 1 396 0
 620 0082 1F71     		strb	r7, [r3, #4]
 621              		.loc 1 399 0
 622 0084 04F10C00 		add	r0, r4, #12
 623              		.loc 1 397 0
 624 0088 0023     		movs	r3, #0
 625 008a 6362     		str	r3, [r4, #36]
ARM GAS  /tmp/ccKs28dn.s 			page 12


 626              	.LBE2:
 627              		.loc 1 404 0
 628 008c BDE8F840 		pop	{r3, r4, r5, r6, r7, lr}
 629              	.LBB3:
 630              		.loc 1 399 0
 631 0090 FFF7FEBF 		b	sys_sem_signal
 632              	.LVL73:
 633              	.L93:
 634 0094 F8BD     		pop	{r3, r4, r5, r6, r7, pc}
 635              	.L125:
 636              	.LBE3:
 637              		.loc 1 383 0
 638 0096 2846     		mov	r0, r5
 639 0098 0021     		movs	r1, #0
 640 009a FFF7FEFF 		bl	sys_mbox_trypost
 641              	.LVL74:
 642 009e D9E7     		b	.L98
 643              	.L124:
 644              		.loc 1 378 0
 645 00a0 2846     		mov	r0, r5
 646 00a2 0021     		movs	r1, #0
 647 00a4 FFF7FEFF 		bl	sys_mbox_trypost
 648              	.LVL75:
 649 00a8 CDE7     		b	.L97
 650              	.LVL76:
 651              	.L123:
 652              		.loc 1 354 0 discriminator 1
 653 00aa FFF7FEFF 		bl	port_halt
 654              	.LVL77:
 655 00ae ACE7     		b	.L94
 656              	.LVL78:
 657              	.L126:
 658              	.LBB4:
 659              		.loc 1 395 0 discriminator 1
 660 00b0 FFF7FEFF 		bl	port_halt
 661              	.LVL79:
 662 00b4 636A     		ldr	r3, [r4, #36]
 663 00b6 E4E7     		b	.L103
 664              	.LBE4:
 665              		.cfi_endproc
 666              	.LFE12:
 667              		.size	err_tcp, .-err_tcp
 668 00b8 AFF30080 		.section	.text.recv_tcp,"ax",%progbits
 668      AFF30080 
 669              		.align	2
 670              		.p2align 4,,15
 671              		.thumb
 672              		.thumb_func
 673              		.type	recv_tcp, %function
 674              	recv_tcp:
 675              	.LFB9:
 676              		.loc 1 217 0
 677              		.cfi_startproc
 678              		@ args = 0, pretend = 0, frame = 0
 679              		@ frame_needed = 0, uses_anonymous_args = 0
 680              	.LVL80:
 681 0000 2DE9F843 		push	{r3, r4, r5, r6, r7, r8, r9, lr}
ARM GAS  /tmp/ccKs28dn.s 			page 13


 682              	.LCFI4:
 683              		.cfi_def_cfa_offset 32
 684              		.cfi_offset 3, -32
 685              		.cfi_offset 4, -28
 686              		.cfi_offset 5, -24
 687              		.cfi_offset 6, -20
 688              		.cfi_offset 7, -16
 689              		.cfi_offset 8, -12
 690              		.cfi_offset 9, -8
 691              		.cfi_offset 14, -4
 692              		.loc 1 222 0
 693 0004 0E46     		mov	r6, r1
 694              		.loc 1 217 0
 695 0006 0446     		mov	r4, r0
 696 0008 1546     		mov	r5, r2
 697 000a 9946     		mov	r9, r3
 698              		.loc 1 222 0
 699 000c 0029     		cmp	r1, #0
 700 000e 37D0     		beq	.L142
 701              	.LVL81:
 702              	.L128:
 703              		.loc 1 223 0
 704 0010 002C     		cmp	r4, #0
 705 0012 38D0     		beq	.L143
 706              	.L129:
 707              	.LVL82:
 708              		.loc 1 225 0
 709 0014 6268     		ldr	r2, [r4, #4]
 710 0016 B242     		cmp	r2, r6
 711 0018 01D0     		beq	.L130
 712              		.loc 1 225 0 is_stmt 0 discriminator 1
 713 001a FFF7FEFF 		bl	port_halt
 714              	.LVL83:
 715              	.L130:
 716              		.loc 1 230 0 is_stmt 1
 717 001e 04F11007 		add	r7, r4, #16
 718 0022 3846     		mov	r0, r7
 719 0024 FFF7FEFF 		bl	sys_mbox_valid
 720              	.LVL84:
 721 0028 8046     		mov	r8, r0
 722 002a 78B9     		cbnz	r0, .L131
 723              		.loc 1 232 0
 724 002c 55B1     		cbz	r5, .L136
 725              		.loc 1 233 0
 726 002e 2989     		ldrh	r1, [r5, #8]
 727 0030 3046     		mov	r0, r6
 728 0032 FFF7FEFF 		bl	tcp_recved
 729              	.LVL85:
 730              		.loc 1 234 0
 731 0036 2846     		mov	r0, r5
 732 0038 FFF7FEFF 		bl	pbuf_free
 733              	.LVL86:
 734              		.loc 1 236 0
 735 003c 4046     		mov	r0, r8
 736              	.LVL87:
 737              	.L133:
 738              		.loc 1 263 0
ARM GAS  /tmp/ccKs28dn.s 			page 14


 739 003e 40B2     		sxtb	r0, r0
 740 0040 BDE8F883 		pop	{r3, r4, r5, r6, r7, r8, r9, pc}
 741              	.L136:
 742              		.loc 1 236 0
 743 0044 0020     		movs	r0, #0
 744              		.loc 1 263 0
 745 0046 40B2     		sxtb	r0, r0
 746 0048 BDE8F883 		pop	{r3, r4, r5, r6, r7, r8, r9, pc}
 747              	.LVL88:
 748              	.L131:
 749              		.loc 1 243 0
 750 004c 94F90830 		ldrsb	r3, [r4, #8]
 751 0050 0933     		adds	r3, r3, #9
 752 0052 A8BF     		it	ge
 753 0054 84F80890 		strbge	r9, [r4, #8]
 754              		.loc 1 248 0
 755 0058 2E46     		mov	r6, r5
 756              	.LVL89:
 757              		.loc 1 245 0
 758 005a 05B1     		cbz	r5, .L135
 759              		.loc 1 246 0
 760 005c 2E89     		ldrh	r6, [r5, #8]
 761              	.LVL90:
 762              	.L135:
 763              		.loc 1 251 0
 764 005e 2946     		mov	r1, r5
 765 0060 3846     		mov	r0, r7
 766 0062 FFF7FEFF 		bl	sys_mbox_trypost
 767              	.LVL91:
 768 0066 0546     		mov	r5, r0
 769              	.LVL92:
 770 0068 80B9     		cbnz	r0, .L138
 771              		.loc 1 259 0
 772 006a A36A     		ldr	r3, [r4, #40]
 773 006c 002B     		cmp	r3, #0
 774 006e E9D0     		beq	.L136
 775              		.loc 1 259 0 is_stmt 0 discriminator 1
 776 0070 2046     		mov	r0, r4
 777 0072 2946     		mov	r1, r5
 778 0074 3246     		mov	r2, r6
 779 0076 9847     		blx	r3
 780              	.LVL93:
 781              		.loc 1 262 0 is_stmt 1 discriminator 1
 782 0078 2846     		mov	r0, r5
 783              		.loc 1 263 0 discriminator 1
 784 007a 40B2     		sxtb	r0, r0
 785 007c BDE8F883 		pop	{r3, r4, r5, r6, r7, r8, r9, pc}
 786              	.LVL94:
 787              	.L142:
 788              		.loc 1 222 0 discriminator 1
 789 0080 FFF7FEFF 		bl	port_halt
 790              	.LVL95:
 791 0084 C4E7     		b	.L128
 792              	.L143:
 793              		.loc 1 223 0 discriminator 1
 794 0086 FFF7FEFF 		bl	port_halt
 795              	.LVL96:
ARM GAS  /tmp/ccKs28dn.s 			page 15


 796 008a C3E7     		b	.L129
 797              	.LVL97:
 798              	.L138:
 799              		.loc 1 253 0
 800 008c FF20     		movs	r0, #255
 801 008e D6E7     		b	.L133
 802              		.cfi_endproc
 803              	.LFE9:
 804              		.size	recv_tcp, .-recv_tcp
 805              		.section	.text.do_writemore,"ax",%progbits
 806              		.align	2
 807              		.p2align 4,,15
 808              		.thumb
 809              		.thumb_func
 810              		.type	do_writemore, %function
 811              	do_writemore:
 812              	.LFB29:
 813              		.loc 1 1195 0
 814              		.cfi_startproc
 815              		@ args = 0, pretend = 0, frame = 0
 816              		@ frame_needed = 0, uses_anonymous_args = 0
 817              	.LVL98:
 818 0000 2DE9F047 		push	{r4, r5, r6, r7, r8, r9, sl, lr}
 819              	.LCFI5:
 820              		.cfi_def_cfa_offset 32
 821              		.cfi_offset 4, -32
 822              		.cfi_offset 5, -28
 823              		.cfi_offset 6, -24
 824              		.cfi_offset 7, -20
 825              		.cfi_offset 8, -16
 826              		.cfi_offset 9, -12
 827              		.cfi_offset 10, -8
 828              		.cfi_offset 14, -4
 829              		.loc 1 1201 0
 830 0004 037F     		ldrb	r3, [r0, #28]	@ zero_extendqisi2
 831 0006 03F00203 		and	r3, r3, #2
 832 000a DBB2     		uxtb	r3, r3
 833              		.loc 1 1195 0
 834 000c 0446     		mov	r4, r0
 835              		.loc 1 1201 0
 836 000e 002B     		cmp	r3, #0
 837 0010 4BD0     		beq	.L145
 838 0012 436A     		ldr	r3, [r0, #36]
 839 0014 4FF00108 		mov	r8, #1
 840 0018 1F7C     		ldrb	r7, [r3, #16]	@ zero_extendqisi2
 841 001a C146     		mov	r9, r8
 842              	.L146:
 843              	.LVL99:
 844              		.loc 1 1206 0 discriminator 4
 845 001c 6378     		ldrb	r3, [r4, #1]	@ zero_extendqisi2
 846 001e 012B     		cmp	r3, #1
 847 0020 04D0     		beq	.L147
 848              		.loc 1 1206 0 is_stmt 0 discriminator 1
 849 0022 FFF7FEFF 		bl	port_halt
 850              	.LVL100:
 851              		.loc 1 1207 0 is_stmt 1 discriminator 1
 852 0026 636A     		ldr	r3, [r4, #36]
ARM GAS  /tmp/ccKs28dn.s 			page 16


 853 0028 002B     		cmp	r3, #0
 854 002a 7AD0     		beq	.L182
 855              	.L147:
 856              		.loc 1 1208 0
 857 002c 6368     		ldr	r3, [r4, #4]
 858 002e 002B     		cmp	r3, #0
 859 0030 00F08680 		beq	.L183
 860              	.L148:
 861              		.loc 1 1209 0
 862 0034 636A     		ldr	r3, [r4, #36]
 863 0036 266A     		ldr	r6, [r4, #32]
 864 0038 DA68     		ldr	r2, [r3, #12]
 865 003a 9642     		cmp	r6, r2
 866 003c 4FD2     		bcs	.L184
 867              	.L149:
 868              		.loc 1 1214 0
 869 003e 4FF6FF75 		movw	r5, #65535
 870              		.loc 1 1213 0
 871 0042 901B     		subs	r0, r2, r6
 872              		.loc 1 1214 0
 873 0044 A842     		cmp	r0, r5
 874              		.loc 1 1221 0
 875 0046 98BF     		it	ls
 876 0048 85B2     		uxthls	r5, r0
 877              		.loc 1 1223 0
 878 004a 6068     		ldr	r0, [r4, #4]
 879              		.loc 1 1212 0
 880 004c D3F808A0 		ldr	sl, [r3, #8]
 881              	.LVL101:
 882              		.loc 1 1223 0
 883 0050 B0F86E30 		ldrh	r3, [r0, #110]
 884              		.loc 1 1219 0
 885 0054 88BF     		it	hi
 886 0056 47F00207 		orrhi	r7, r7, #2
 887              	.LVL102:
 888              		.loc 1 1224 0
 889 005a 9D42     		cmp	r5, r3
 890              		.loc 1 1230 0
 891 005c 84BF     		itt	hi
 892 005e 47F00207 		orrhi	r7, r7, #2
 893              	.LVL103:
 894 0062 1D46     		movhi	r5, r3
 895              	.LVL104:
 896              		.loc 1 1232 0
 897 0064 B9F1000F 		cmp	r9, #0
 898 0068 01D0     		beq	.L155
 899              		.loc 1 1232 0 is_stmt 0 discriminator 1
 900 006a 9542     		cmp	r5, r2
 901 006c 34D3     		bcc	.L166
 902              	.L155:
 903              		.loc 1 1237 0 is_stmt 1
 904 006e AB19     		adds	r3, r5, r6
 905 0070 9342     		cmp	r3, r2
 906 0072 61D8     		bhi	.L185
 907              	.LVL105:
 908              	.L165:
 909              		.loc 1 1238 0
ARM GAS  /tmp/ccKs28dn.s 			page 17


 910 0074 0AEB0601 		add	r1, sl, r6
 911 0078 2A46     		mov	r2, r5
 912 007a 3B46     		mov	r3, r7
 913 007c FFF7FEFF 		bl	tcp_write
 914              	.LVL106:
 915 0080 B0F1FF32 		subs	r2, r0, #-1
 916 0084 5742     		rsbs	r7, r2, #0
 917              	.LVL107:
 918 0086 0646     		mov	r6, r0
 919              	.LVL108:
 920 0088 5741     		adcs	r7, r7, r2
 921              	.LVL109:
 922              	.L154:
 923              		.loc 1 1240 0
 924 008a 17EA080F 		tst	r7, r8
 925 008e 12D0     		beq	.L156
 926              	.LVL110:
 927              		.loc 1 1246 0
 928 0090 227F     		ldrb	r2, [r4, #28]	@ zero_extendqisi2
 929              		.loc 1 1248 0
 930 0092 A36A     		ldr	r3, [r4, #40]
 931              		.loc 1 1246 0
 932 0094 42F01002 		orr	r2, r2, #16
 933 0098 2277     		strb	r2, [r4, #28]
 934              		.loc 1 1243 0
 935 009a F926     		movs	r6, #249
 936              		.loc 1 1248 0
 937 009c 83B1     		cbz	r3, .L162
 938              		.loc 1 1248 0 is_stmt 0 discriminator 1
 939 009e 2046     		mov	r0, r4
 940 00a0 0321     		movs	r1, #3
 941 00a2 2A46     		mov	r2, r5
 942 00a4 9847     		blx	r3
 943              	.LVL111:
 944              		.loc 1 1243 0 is_stmt 1 discriminator 1
 945 00a6 F926     		movs	r6, #249
 946 00a8 0AE0     		b	.L162
 947              	.LVL112:
 948              	.L145:
 949              		.loc 1 1202 0 discriminator 2
 950 00aa 436A     		ldr	r3, [r0, #36]
 951 00ac 1F7C     		ldrb	r7, [r3, #16]	@ zero_extendqisi2
 952              		.loc 1 1201 0 discriminator 2
 953 00ae C7F38008 		ubfx	r8, r7, #2, #1
 954 00b2 C146     		mov	r9, r8
 955 00b4 B2E7     		b	.L146
 956              	.LVL113:
 957              	.L156:
 958              		.loc 1 1251 0
 959 00b6 731C     		adds	r3, r6, #1
 960 00b8 DBB2     		uxtb	r3, r3
 961 00ba 012B     		cmp	r3, #1
 962 00bc 1BD9     		bls	.L186
 963              	.L158:
 964              		.loc 1 1267 0
 965 00be A7B9     		cbnz	r7, .L161
 966              	.LVL114:
ARM GAS  /tmp/ccKs28dn.s 			page 18


 967              	.L162:
 968              		.loc 1 1288 0
 969 00c0 626A     		ldr	r2, [r4, #36]
 970              		.loc 1 1289 0
 971 00c2 0023     		movs	r3, #0
 972              		.loc 1 1288 0
 973 00c4 1671     		strb	r6, [r2, #4]
 974              		.loc 1 1295 0
 975 00c6 04F10C00 		add	r0, r4, #12
 976              		.loc 1 1289 0
 977 00ca 6362     		str	r3, [r4, #36]
 978              		.loc 1 1290 0
 979 00cc 6370     		strb	r3, [r4, #1]
 980              		.loc 1 1295 0
 981 00ce FFF7FEFF 		bl	sys_sem_signal
 982              	.LVL115:
 983              		.loc 1 1303 0
 984 00d2 0020     		movs	r0, #0
 985 00d4 BDE8F087 		pop	{r4, r5, r6, r7, r8, r9, sl, pc}
 986              	.LVL116:
 987              	.L166:
 988              		.loc 1 1232 0
 989 00d8 0127     		movs	r7, #1
 990              	.LVL117:
 991 00da FF26     		movs	r6, #255
 992              	.LVL118:
 993 00dc D5E7     		b	.L154
 994              	.LVL119:
 995              	.L184:
 996              		.loc 1 1209 0 discriminator 1
 997 00de FFF7FEFF 		bl	port_halt
 998              	.LVL120:
 999 00e2 636A     		ldr	r3, [r4, #36]
 1000 00e4 266A     		ldr	r6, [r4, #32]
 1001 00e6 DA68     		ldr	r2, [r3, #12]
 1002 00e8 A9E7     		b	.L149
 1003              	.LVL121:
 1004              	.L161:
 1005              		.loc 1 1266 0
 1006 00ea 6068     		ldr	r0, [r4, #4]
 1007 00ec FFF7FEFF 		bl	tcp_output
 1008              	.LVL122:
 1009              		.loc 1 1303 0
 1010 00f0 0020     		movs	r0, #0
 1011 00f2 BDE8F087 		pop	{r4, r5, r6, r7, r8, r9, sl, pc}
 1012              	.LVL123:
 1013              	.L186:
 1014              		.loc 1 1252 0 discriminator 1
 1015 00f6 6368     		ldr	r3, [r4, #4]
 1016              		.loc 1 1251 0 discriminator 1
 1017 00f8 B3F86E20 		ldrh	r2, [r3, #110]
 1018 00fc 802A     		cmp	r2, #128
 1019 00fe 13D9     		bls	.L159
 1020              		.loc 1 1252 0
 1021 0100 B3F87030 		ldrh	r3, [r3, #112]
 1022 0104 83B9     		cbnz	r3, .L159
 1023              	.L160:
ARM GAS  /tmp/ccKs28dn.s 			page 19


 1024              		.loc 1 1259 0
 1025 0106 002E     		cmp	r6, #0
 1026 0108 D9D1     		bne	.L158
 1027              		.loc 1 1260 0
 1028 010a 226A     		ldr	r2, [r4, #32]
 1029              		.loc 1 1261 0
 1030 010c 636A     		ldr	r3, [r4, #36]
 1031              		.loc 1 1260 0
 1032 010e AD18     		adds	r5, r5, r2
 1033              	.LVL124:
 1034 0110 2562     		str	r5, [r4, #32]
 1035              		.loc 1 1261 0
 1036 0112 DB68     		ldr	r3, [r3, #12]
 1037 0114 9D42     		cmp	r5, r3
 1038 0116 E8D1     		bne	.L161
 1039              	.LVL125:
 1040              		.loc 1 1264 0
 1041 0118 2662     		str	r6, [r4, #32]
 1042              		.loc 1 1266 0
 1043 011a 6068     		ldr	r0, [r4, #4]
 1044 011c FFF7FEFF 		bl	tcp_output
 1045              	.LVL126:
 1046 0120 CEE7     		b	.L162
 1047              	.LVL127:
 1048              	.L182:
 1049              		.loc 1 1207 0 discriminator 1
 1050 0122 FFF7FEFF 		bl	port_halt
 1051              	.LVL128:
 1052 0126 81E7     		b	.L147
 1053              	.LVL129:
 1054              	.L159:
 1055              		.loc 1 1256 0
 1056 0128 A36A     		ldr	r3, [r4, #40]
 1057 012a 002B     		cmp	r3, #0
 1058 012c EBD0     		beq	.L160
 1059              		.loc 1 1256 0 is_stmt 0 discriminator 1
 1060 012e 2046     		mov	r0, r4
 1061 0130 0321     		movs	r1, #3
 1062 0132 2A46     		mov	r2, r5
 1063 0134 9847     		blx	r3
 1064              	.LVL130:
 1065 0136 E6E7     		b	.L160
 1066              	.LVL131:
 1067              	.L185:
 1068              		.loc 1 1237 0 is_stmt 1 discriminator 1
 1069 0138 FFF7FEFF 		bl	port_halt
 1070              	.LVL132:
 1071 013c 6068     		ldr	r0, [r4, #4]
 1072 013e 99E7     		b	.L165
 1073              	.LVL133:
 1074              	.L183:
 1075              		.loc 1 1208 0 discriminator 1
 1076 0140 FFF7FEFF 		bl	port_halt
 1077              	.LVL134:
 1078 0144 76E7     		b	.L148
 1079              		.cfi_endproc
 1080              	.LFE29:
ARM GAS  /tmp/ccKs28dn.s 			page 20


 1081              		.size	do_writemore, .-do_writemore
 1082 0146 00BFAFF3 		.section	.text.poll_tcp,"ax",%progbits
 1082      0080AFF3 
 1082      0080
 1083              		.align	2
 1084              		.p2align 4,,15
 1085              		.thumb
 1086              		.thumb_func
 1087              		.type	poll_tcp, %function
 1088              	poll_tcp:
 1089              	.LFB10:
 1090              		.loc 1 278 0
 1091              		.cfi_startproc
 1092              		@ args = 0, pretend = 0, frame = 0
 1093              		@ frame_needed = 0, uses_anonymous_args = 0
 1094              	.LVL135:
 1095 0000 38B5     		push	{r3, r4, r5, lr}
 1096              	.LCFI6:
 1097              		.cfi_def_cfa_offset 16
 1098              		.cfi_offset 3, -16
 1099              		.cfi_offset 4, -12
 1100              		.cfi_offset 5, -8
 1101              		.cfi_offset 14, -4
 1102              		.loc 1 282 0
 1103 0002 0446     		mov	r4, r0
 1104 0004 20B3     		cbz	r0, .L200
 1105              	.LVL136:
 1106              	.L188:
 1107              		.loc 1 284 0
 1108 0006 6378     		ldrb	r3, [r4, #1]	@ zero_extendqisi2
 1109 0008 012B     		cmp	r3, #1
 1110 000a 19D0     		beq	.L201
 1111              		.loc 1 286 0
 1112 000c 042B     		cmp	r3, #4
 1113 000e 1BD0     		beq	.L202
 1114              	.L190:
 1115              		.loc 1 292 0
 1116 0010 237F     		ldrb	r3, [r4, #28]	@ zero_extendqisi2
 1117 0012 03F01002 		and	r2, r3, #16
 1118 0016 D2B2     		uxtb	r2, r2
 1119 0018 82B1     		cbz	r2, .L192
 1120              		.loc 1 295 0
 1121 001a 6268     		ldr	r2, [r4, #4]
 1122 001c 72B1     		cbz	r2, .L192
 1123              		.loc 1 295 0 is_stmt 0 discriminator 1
 1124 001e B2F86E10 		ldrh	r1, [r2, #110]
 1125 0022 8029     		cmp	r1, #128
 1126 0024 0AD9     		bls	.L192
 1127 0026 B2F87020 		ldrh	r2, [r2, #112]
 1128 002a 3AB9     		cbnz	r2, .L192
 1129              		.loc 1 298 0 is_stmt 1
 1130 002c A56A     		ldr	r5, [r4, #40]
 1131              		.loc 1 297 0
 1132 002e 23F01003 		bic	r3, r3, #16
 1133 0032 2377     		strb	r3, [r4, #28]
 1134              		.loc 1 298 0
 1135 0034 15B1     		cbz	r5, .L192
ARM GAS  /tmp/ccKs28dn.s 			page 21


 1136              		.loc 1 298 0 is_stmt 0 discriminator 1
 1137 0036 2046     		mov	r0, r4
 1138 0038 0221     		movs	r1, #2
 1139 003a A847     		blx	r5
 1140              	.LVL137:
 1141              	.L192:
 1142              		.loc 1 303 0 is_stmt 1
 1143 003c 0020     		movs	r0, #0
 1144 003e 38BD     		pop	{r3, r4, r5, pc}
 1145              	.L201:
 1146              		.loc 1 285 0
 1147 0040 2046     		mov	r0, r4
 1148 0042 FFF7FEFF 		bl	do_writemore
 1149              	.LVL138:
 1150 0046 E3E7     		b	.L190
 1151              	.L202:
 1152              		.loc 1 287 0
 1153 0048 2046     		mov	r0, r4
 1154 004a FFF7FEFF 		bl	do_close_internal
 1155              	.LVL139:
 1156 004e DFE7     		b	.L190
 1157              	.LVL140:
 1158              	.L200:
 1159              		.loc 1 282 0 discriminator 1
 1160 0050 FFF7FEFF 		bl	port_halt
 1161              	.LVL141:
 1162 0054 D7E7     		b	.L188
 1163              		.cfi_endproc
 1164              	.LFE10:
 1165              		.size	poll_tcp, .-poll_tcp
 1166 0056 00BFAFF3 		.section	.text.recv_udp,"ax",%progbits
 1166      0080AFF3 
 1166      0080
 1167              		.align	2
 1168              		.p2align 4,,15
 1169              		.thumb
 1170              		.thumb_func
 1171              		.type	recv_udp, %function
 1172              	recv_udp:
 1173              	.LFB8:
 1174              		.loc 1 146 0
 1175              		.cfi_startproc
 1176              		@ args = 4, pretend = 0, frame = 8
 1177              		@ frame_needed = 0, uses_anonymous_args = 0
 1178              	.LVL142:
 1179 0000 2DE9F043 		push	{r4, r5, r6, r7, r8, r9, lr}
 1180              	.LCFI7:
 1181              		.cfi_def_cfa_offset 28
 1182              		.cfi_offset 4, -28
 1183              		.cfi_offset 5, -24
 1184              		.cfi_offset 6, -20
 1185              		.cfi_offset 7, -16
 1186              		.cfi_offset 8, -12
 1187              		.cfi_offset 9, -8
 1188              		.cfi_offset 14, -4
 1189 0004 83B0     		sub	sp, sp, #12
 1190              	.LCFI8:
ARM GAS  /tmp/ccKs28dn.s 			page 22


 1191              		.cfi_def_cfa_offset 40
 1192              		.loc 1 146 0
 1193 0006 0446     		mov	r4, r0
 1194 0008 1546     		mov	r5, r2
 1195 000a 9846     		mov	r8, r3
 1196 000c BDF82890 		ldrh	r9, [sp, #40]
 1197              		.loc 1 155 0
 1198 0010 0029     		cmp	r1, #0
 1199 0012 32D0     		beq	.L217
 1200              	.LVL143:
 1201              	.L204:
 1202              		.loc 1 156 0
 1203 0014 002C     		cmp	r4, #0
 1204 0016 3BD0     		beq	.L218
 1205              	.L205:
 1206              	.LVL144:
 1207              		.loc 1 158 0
 1208 0018 6268     		ldr	r2, [r4, #4]
 1209 001a 8A42     		cmp	r2, r1
 1210 001c 01D0     		beq	.L206
 1211              		.loc 1 158 0 is_stmt 0 discriminator 1
 1212 001e FFF7FEFF 		bl	port_halt
 1213              	.LVL145:
 1214              	.L206:
 1215              		.loc 1 165 0 is_stmt 1
 1216 0022 04F11007 		add	r7, r4, #16
 1217 0026 3846     		mov	r0, r7
 1218 0028 FFF7FEFF 		bl	sys_mbox_valid
 1219              	.LVL146:
 1220 002c 28B9     		cbnz	r0, .L207
 1221              	.L216:
 1222              		.loc 1 173 0
 1223 002e 2846     		mov	r0, r5
 1224              		.loc 1 205 0
 1225 0030 03B0     		add	sp, sp, #12
 1226 0032 BDE8F043 		pop	{r4, r5, r6, r7, r8, r9, lr}
 1227              		.loc 1 173 0
 1228 0036 FFF7FEBF 		b	pbuf_free
 1229              	.LVL147:
 1230              	.L207:
 1231              		.loc 1 171 0
 1232 003a 0720     		movs	r0, #7
 1233 003c FFF7FEFF 		bl	memp_malloc
 1234              	.LVL148:
 1235              		.loc 1 172 0
 1236 0040 0646     		mov	r6, r0
 1237 0042 0028     		cmp	r0, #0
 1238 0044 F3D0     		beq	.L216
 1239              		.loc 1 176 0
 1240 0046 0560     		str	r5, [r0, #0]
 1241              		.loc 1 177 0
 1242 0048 4560     		str	r5, [r0, #4]
 1243              		.loc 1 178 0
 1244 004a 4346     		mov	r3, r8
 1245 004c B8F1000F 		cmp	r8, #0
 1246 0050 01D0     		beq	.L209
 1247              	.LVL149:
ARM GAS  /tmp/ccKs28dn.s 			page 23


 1248              		.loc 1 178 0 is_stmt 0 discriminator 1
 1249 0052 D8F80030 		ldr	r3, [r8, #0]
 1250              	.LVL150:
 1251              	.L209:
 1252              		.loc 1 195 0 is_stmt 1 discriminator 3
 1253 0056 3146     		mov	r1, r6
 1254              		.loc 1 178 0 discriminator 3
 1255 0058 B360     		str	r3, [r6, #8]
 1256              		.loc 1 179 0 discriminator 3
 1257 005a A6F80C90 		strh	r9, [r6, #12]	@ movhi
 1258              		.loc 1 195 0 discriminator 3
 1259 005e 3846     		mov	r0, r7
 1260              	.LVL151:
 1261              		.loc 1 194 0 discriminator 3
 1262 0060 2D89     		ldrh	r5, [r5, #8]
 1263              	.LVL152:
 1264              		.loc 1 195 0 discriminator 3
 1265 0062 FFF7FEFF 		bl	sys_mbox_trypost
 1266              	.LVL153:
 1267 0066 0146     		mov	r1, r0
 1268 0068 60B9     		cbnz	r0, .L219
 1269              		.loc 1 203 0
 1270 006a A36A     		ldr	r3, [r4, #40]
 1271 006c 13B1     		cbz	r3, .L203
 1272              		.loc 1 203 0 is_stmt 0 discriminator 1
 1273 006e 2046     		mov	r0, r4
 1274 0070 2A46     		mov	r2, r5
 1275 0072 9847     		blx	r3
 1276              	.LVL154:
 1277              	.L203:
 1278              		.loc 1 205 0 is_stmt 1
 1279 0074 03B0     		add	sp, sp, #12
 1280 0076 BDE8F083 		pop	{r4, r5, r6, r7, r8, r9, pc}
 1281              	.LVL155:
 1282              	.L217:
 1283              		.loc 1 155 0 discriminator 1
 1284 007a 0191     		str	r1, [sp, #4]
 1285 007c FFF7FEFF 		bl	port_halt
 1286              	.LVL156:
 1287 0080 0199     		ldr	r1, [sp, #4]
 1288 0082 C7E7     		b	.L204
 1289              	.LVL157:
 1290              	.L219:
 1291              		.loc 1 196 0
 1292 0084 3046     		mov	r0, r6
 1293              		.loc 1 205 0
 1294 0086 03B0     		add	sp, sp, #12
 1295 0088 BDE8F043 		pop	{r4, r5, r6, r7, r8, r9, lr}
 1296              		.loc 1 196 0
 1297 008c FFF7FEBF 		b	netbuf_delete
 1298              	.LVL158:
 1299              	.L218:
 1300              		.loc 1 156 0 discriminator 1
 1301 0090 0191     		str	r1, [sp, #4]
 1302 0092 FFF7FEFF 		bl	port_halt
 1303              	.LVL159:
 1304 0096 0199     		ldr	r1, [sp, #4]
ARM GAS  /tmp/ccKs28dn.s 			page 24


 1305 0098 BEE7     		b	.L205
 1306              		.cfi_endproc
 1307              	.LFE8:
 1308              		.size	recv_udp, .-recv_udp
 1309 009a 00BFAFF3 		.section	.text.recv_raw,"ax",%progbits
 1309      0080
 1310              		.align	2
 1311              		.p2align 4,,15
 1312              		.thumb
 1313              		.thumb_func
 1314              		.type	recv_raw, %function
 1315              	recv_raw:
 1316              	.LFB7:
 1317              		.loc 1 80 0
 1318              		.cfi_startproc
 1319              		@ args = 0, pretend = 0, frame = 0
 1320              		@ frame_needed = 0, uses_anonymous_args = 0
 1321              	.LVL160:
 1322 0000 2DE9F041 		push	{r4, r5, r6, r7, r8, lr}
 1323              	.LCFI9:
 1324              		.cfi_def_cfa_offset 24
 1325              		.cfi_offset 4, -24
 1326              		.cfi_offset 5, -20
 1327              		.cfi_offset 6, -16
 1328              		.cfi_offset 7, -12
 1329              		.cfi_offset 8, -8
 1330              		.cfi_offset 14, -4
 1331              		.loc 1 88 0
 1332 0004 0446     		mov	r4, r0
 1333              		.loc 1 80 0
 1334 0006 0F46     		mov	r7, r1
 1335 0008 1646     		mov	r6, r2
 1336              		.loc 1 88 0
 1337 000a 28B1     		cbz	r0, .L235
 1338              		.loc 1 88 0 is_stmt 0 discriminator 1
 1339 000c 00F11005 		add	r5, r0, #16
 1340 0010 2846     		mov	r0, r5
 1341              	.LVL161:
 1342 0012 FFF7FEFF 		bl	sys_mbox_valid
 1343              	.LVL162:
 1344 0016 10B9     		cbnz	r0, .L240
 1345              	.LVL163:
 1346              	.L235:
 1347              		.loc 1 133 0 is_stmt 1
 1348 0018 0020     		movs	r0, #0
 1349 001a BDE8F081 		pop	{r4, r5, r6, r7, r8, pc}
 1350              	.LVL164:
 1351              	.L240:
 1352              		.loc 1 97 0
 1353 001e 0320     		movs	r0, #3
 1354 0020 3189     		ldrh	r1, [r6, #8]
 1355 0022 0022     		movs	r2, #0
 1356 0024 FFF7FEFF 		bl	pbuf_alloc
 1357              	.LVL165:
 1358              		.loc 1 98 0
 1359 0028 8046     		mov	r8, r0
 1360 002a 0028     		cmp	r0, #0
ARM GAS  /tmp/ccKs28dn.s 			page 25


 1361 002c F4D0     		beq	.L235
 1362              		.loc 1 99 0
 1363 002e 3146     		mov	r1, r6
 1364 0030 FFF7FEFF 		bl	pbuf_copy
 1365              	.LVL166:
 1366 0034 F0B9     		cbnz	r0, .L227
 1367              	.LBB5:
 1368              		.loc 1 107 0
 1369 0036 0720     		movs	r0, #7
 1370 0038 FFF7FEFF 		bl	memp_malloc
 1371              	.LVL167:
 1372              		.loc 1 108 0
 1373 003c 0646     		mov	r6, r0
 1374              	.LVL168:
 1375 003e C8B1     		cbz	r0, .L227
 1376              		.loc 1 115 0
 1377 0040 104B     		ldr	r3, .L242
 1378              		.loc 1 113 0
 1379 0042 C6F80080 		str	r8, [r6, #0]
 1380              		.loc 1 115 0
 1381 0046 1B68     		ldr	r3, [r3, #0]
 1382              		.loc 1 114 0
 1383 0048 C6F80480 		str	r8, [r6, #4]
 1384              		.loc 1 115 0
 1385 004c B360     		str	r3, [r6, #8]
 1386              		.loc 1 116 0
 1387 004e 3B7C     		ldrb	r3, [r7, #16]	@ zero_extendqisi2
 1388              		.loc 1 118 0
 1389 0050 B8F80870 		ldrh	r7, [r8, #8]
 1390              	.LVL169:
 1391              		.loc 1 116 0
 1392 0054 B381     		strh	r3, [r6, #12]	@ movhi
 1393              		.loc 1 119 0
 1394 0056 3146     		mov	r1, r6
 1395 0058 2846     		mov	r0, r5
 1396              	.LVL170:
 1397 005a FFF7FEFF 		bl	sys_mbox_trypost
 1398              	.LVL171:
 1399 005e 0146     		mov	r1, r0
 1400 0060 60B9     		cbnz	r0, .L241
 1401              		.loc 1 127 0
 1402 0062 A36A     		ldr	r3, [r4, #40]
 1403 0064 002B     		cmp	r3, #0
 1404 0066 D7D0     		beq	.L235
 1405              		.loc 1 127 0 is_stmt 0 discriminator 1
 1406 0068 2046     		mov	r0, r4
 1407 006a 3A46     		mov	r2, r7
 1408 006c 9847     		blx	r3
 1409              	.LVL172:
 1410              	.LBE5:
 1411              		.loc 1 133 0 is_stmt 1 discriminator 1
 1412 006e 0020     		movs	r0, #0
 1413 0070 BDE8F081 		pop	{r4, r5, r6, r7, r8, pc}
 1414              	.LVL173:
 1415              	.L227:
 1416              	.LBB6:
 1417              		.loc 1 109 0
ARM GAS  /tmp/ccKs28dn.s 			page 26


 1418 0074 4046     		mov	r0, r8
 1419 0076 FFF7FEFF 		bl	pbuf_free
 1420              	.LVL174:
 1421              		.loc 1 110 0
 1422 007a CDE7     		b	.L235
 1423              	.LVL175:
 1424              	.L241:
 1425              		.loc 1 120 0
 1426 007c 3046     		mov	r0, r6
 1427 007e FFF7FEFF 		bl	netbuf_delete
 1428              	.LVL176:
 1429              		.loc 1 121 0
 1430 0082 C9E7     		b	.L235
 1431              	.L243:
 1432              		.align	2
 1433              	.L242:
 1434 0084 00000000 		.word	current_iphdr_src
 1435              	.LBE6:
 1436              		.cfi_endproc
 1437              	.LFE7:
 1438              		.size	recv_raw, .-recv_raw
 1439 0088 AFF30080 		.section	.text.sent_tcp,"ax",%progbits
 1439      AFF30080 
 1440              		.align	2
 1441              		.p2align 4,,15
 1442              		.thumb
 1443              		.thumb_func
 1444              		.type	sent_tcp, %function
 1445              	sent_tcp:
 1446              	.LFB11:
 1447              		.loc 1 314 0
 1448              		.cfi_startproc
 1449              		@ args = 0, pretend = 0, frame = 0
 1450              		@ frame_needed = 0, uses_anonymous_args = 0
 1451              	.LVL177:
 1452 0000 38B5     		push	{r3, r4, r5, lr}
 1453              	.LCFI10:
 1454              		.cfi_def_cfa_offset 16
 1455              		.cfi_offset 3, -16
 1456              		.cfi_offset 4, -12
 1457              		.cfi_offset 5, -8
 1458              		.cfi_offset 14, -4
 1459              		.loc 1 318 0
 1460 0002 0446     		mov	r4, r0
 1461              		.loc 1 314 0
 1462 0004 1546     		mov	r5, r2
 1463              		.loc 1 318 0
 1464 0006 08B3     		cbz	r0, .L254
 1465              	.LVL178:
 1466              	.L245:
 1467              		.loc 1 320 0
 1468 0008 6378     		ldrb	r3, [r4, #1]	@ zero_extendqisi2
 1469 000a 012B     		cmp	r3, #1
 1470 000c 16D0     		beq	.L255
 1471              		.loc 1 322 0
 1472 000e 042B     		cmp	r3, #4
 1473 0010 18D0     		beq	.L256
ARM GAS  /tmp/ccKs28dn.s 			page 27


 1474              	.L247:
 1475              		.loc 1 329 0
 1476 0012 6368     		ldr	r3, [r4, #4]
 1477 0014 83B1     		cbz	r3, .L249
 1478              		.loc 1 329 0 is_stmt 0 discriminator 1
 1479 0016 B3F86E10 		ldrh	r1, [r3, #110]
 1480 001a 8029     		cmp	r1, #128
 1481 001c 0CD9     		bls	.L249
 1482 001e B3F87030 		ldrh	r3, [r3, #112]
 1483 0022 4BB9     		cbnz	r3, .L249
 1484              	.LVL179:
 1485              	.LBB9:
 1486              	.LBB10:
 1487              		.loc 1 331 0 is_stmt 1
 1488 0024 227F     		ldrb	r2, [r4, #28]	@ zero_extendqisi2
 1489              		.loc 1 332 0
 1490 0026 A36A     		ldr	r3, [r4, #40]
 1491              		.loc 1 331 0
 1492 0028 22F01002 		bic	r2, r2, #16
 1493 002c 2277     		strb	r2, [r4, #28]
 1494              		.loc 1 332 0
 1495 002e 1BB1     		cbz	r3, .L249
 1496 0030 2046     		mov	r0, r4
 1497 0032 0221     		movs	r1, #2
 1498 0034 2A46     		mov	r2, r5
 1499 0036 9847     		blx	r3
 1500              	.LVL180:
 1501              	.L249:
 1502              	.LBE10:
 1503              	.LBE9:
 1504              		.loc 1 337 0
 1505 0038 0020     		movs	r0, #0
 1506 003a 38BD     		pop	{r3, r4, r5, pc}
 1507              	.L255:
 1508              		.loc 1 321 0
 1509 003c 2046     		mov	r0, r4
 1510 003e FFF7FEFF 		bl	do_writemore
 1511              	.LVL181:
 1512 0042 E6E7     		b	.L247
 1513              	.L256:
 1514              		.loc 1 323 0
 1515 0044 2046     		mov	r0, r4
 1516 0046 FFF7FEFF 		bl	do_close_internal
 1517              	.LVL182:
 1518 004a E2E7     		b	.L247
 1519              	.LVL183:
 1520              	.L254:
 1521              		.loc 1 318 0 discriminator 1
 1522 004c FFF7FEFF 		bl	port_halt
 1523              	.LVL184:
 1524 0050 DAE7     		b	.L245
 1525              		.cfi_endproc
 1526              	.LFE11:
 1527              		.size	sent_tcp, .-sent_tcp
 1528 0052 00BFAFF3 		.section	.text.do_newconn,"ax",%progbits
 1528      0080AFF3 
 1528      0080AFF3 
ARM GAS  /tmp/ccKs28dn.s 			page 28


 1528      0080
 1529              		.align	2
 1530              		.p2align 4,,15
 1531              		.global	do_newconn
 1532              		.thumb
 1533              		.thumb_func
 1534              		.type	do_newconn, %function
 1535              	do_newconn:
 1536              	.LFB16:
 1537              		.loc 1 541 0
 1538              		.cfi_startproc
 1539              		@ args = 0, pretend = 0, frame = 0
 1540              		@ frame_needed = 0, uses_anonymous_args = 0
 1541              	.LVL185:
 1542 0000 38B5     		push	{r3, r4, r5, lr}
 1543              	.LCFI11:
 1544              		.cfi_def_cfa_offset 16
 1545              		.cfi_offset 3, -16
 1546              		.cfi_offset 4, -12
 1547              		.cfi_offset 5, -8
 1548              		.cfi_offset 14, -4
 1549              		.loc 1 542 0
 1550 0002 0023     		movs	r3, #0
 1551              		.loc 1 543 0
 1552 0004 0468     		ldr	r4, [r0, #0]
 1553              		.loc 1 542 0
 1554 0006 0371     		strb	r3, [r0, #4]
 1555              		.loc 1 543 0
 1556 0008 6368     		ldr	r3, [r4, #4]
 1557              		.loc 1 541 0
 1558 000a 0546     		mov	r5, r0
 1559              		.loc 1 543 0
 1560 000c 2BB1     		cbz	r3, .L269
 1561              	.LVL186:
 1562              	.L258:
 1563              		.loc 1 550 0
 1564 000e 04F10C00 		add	r0, r4, #12
 1565              		.loc 1 551 0
 1566 0012 BDE83840 		pop	{r3, r4, r5, lr}
 1567              		.loc 1 550 0
 1568 0016 FFF7FEBF 		b	sys_sem_signal
 1569              	.LVL187:
 1570              	.L269:
 1571              	.LBB13:
 1572              		.loc 1 487 0
 1573 001a 2378     		ldrb	r3, [r4, #0]	@ zero_extendqisi2
 1574              	.LBB14:
 1575 001c 03F0F003 		and	r3, r3, #240
 1576 0020 202B     		cmp	r3, #32
 1577 0022 1ED0     		beq	.L261
 1578 0024 402B     		cmp	r3, #64
 1579 0026 0FD0     		beq	.L262
 1580 0028 102B     		cmp	r3, #16
 1581 002a 02D0     		beq	.L270
 1582              		.loc 1 528 0
 1583 002c FA23     		movs	r3, #250
 1584 002e 0371     		strb	r3, [r0, #4]
ARM GAS  /tmp/ccKs28dn.s 			page 29


 1585 0030 EDE7     		b	.L258
 1586              	.L270:
 1587              		.loc 1 518 0
 1588 0032 FFF7FEFF 		bl	tcp_new
 1589              	.LVL188:
 1590 0036 6060     		str	r0, [r4, #4]
 1591              		.loc 1 519 0
 1592 0038 2C68     		ldr	r4, [r5, #0]
 1593 003a 6368     		ldr	r3, [r4, #4]
 1594 003c 23B3     		cbz	r3, .L268
 1595              		.loc 1 523 0
 1596 003e 2046     		mov	r0, r4
 1597 0040 FFF7FEFF 		bl	setup_tcp
 1598              	.LVL189:
 1599 0044 2C68     		ldr	r4, [r5, #0]
 1600 0046 E2E7     		b	.L258
 1601              	.LVL190:
 1602              	.L262:
 1603              		.loc 1 490 0
 1604 0048 007A     		ldrb	r0, [r0, #8]	@ zero_extendqisi2
 1605              	.LVL191:
 1606 004a FFF7FEFF 		bl	raw_new
 1607              	.LVL192:
 1608 004e 6060     		str	r0, [r4, #4]
 1609              		.loc 1 491 0
 1610 0050 2C68     		ldr	r4, [r5, #0]
 1611 0052 6068     		ldr	r0, [r4, #4]
 1612 0054 C0B1     		cbz	r0, .L268
 1613              		.loc 1 495 0
 1614 0056 2246     		mov	r2, r4
 1615 0058 0D49     		ldr	r1, .L271
 1616 005a FFF7FEFF 		bl	raw_recv
 1617              	.LVL193:
 1618 005e 2C68     		ldr	r4, [r5, #0]
 1619 0060 D5E7     		b	.L258
 1620              	.LVL194:
 1621              	.L261:
 1622              		.loc 1 500 0
 1623 0062 FFF7FEFF 		bl	udp_new
 1624              	.LVL195:
 1625 0066 6060     		str	r0, [r4, #4]
 1626              		.loc 1 501 0
 1627 0068 2C68     		ldr	r4, [r5, #0]
 1628 006a 6068     		ldr	r0, [r4, #4]
 1629 006c 60B1     		cbz	r0, .L268
 1630              		.loc 1 510 0
 1631 006e 2378     		ldrb	r3, [r4, #0]	@ zero_extendqisi2
 1632 0070 222B     		cmp	r3, #34
 1633 0072 03D1     		bne	.L265
 1634              		.loc 1 511 0
 1635 0074 0123     		movs	r3, #1
 1636 0076 0374     		strb	r3, [r0, #16]
 1637 0078 2C68     		ldr	r4, [r5, #0]
 1638 007a 6068     		ldr	r0, [r4, #4]
 1639              	.L265:
 1640              		.loc 1 513 0
 1641 007c 2246     		mov	r2, r4
ARM GAS  /tmp/ccKs28dn.s 			page 30


 1642 007e 0549     		ldr	r1, .L271+4
 1643 0080 FFF7FEFF 		bl	udp_recv
 1644              	.LVL196:
 1645 0084 2C68     		ldr	r4, [r5, #0]
 1646 0086 C2E7     		b	.L258
 1647              	.L268:
 1648              		.loc 1 520 0
 1649 0088 FF23     		movs	r3, #255
 1650 008a 2B71     		strb	r3, [r5, #4]
 1651 008c BFE7     		b	.L258
 1652              	.L272:
 1653 008e 00BF     		.align	2
 1654              	.L271:
 1655 0090 00000000 		.word	recv_raw
 1656 0094 00000000 		.word	recv_udp
 1657              	.LBE14:
 1658              	.LBE13:
 1659              		.cfi_endproc
 1660              	.LFE16:
 1661              		.size	do_newconn, .-do_newconn
 1662 0098 AFF30080 		.section	.text.netconn_alloc,"ax",%progbits
 1662      AFF30080 
 1663              		.align	2
 1664              		.p2align 4,,15
 1665              		.global	netconn_alloc
 1666              		.thumb
 1667              		.thumb_func
 1668              		.type	netconn_alloc, %function
 1669              	netconn_alloc:
 1670              	.LFB17:
 1671              		.loc 1 565 0
 1672              		.cfi_startproc
 1673              		@ args = 0, pretend = 0, frame = 0
 1674              		@ frame_needed = 0, uses_anonymous_args = 0
 1675              	.LVL197:
 1676 0000 2DE9F843 		push	{r3, r4, r5, r6, r7, r8, r9, lr}
 1677              	.LCFI12:
 1678              		.cfi_def_cfa_offset 32
 1679              		.cfi_offset 3, -32
 1680              		.cfi_offset 4, -28
 1681              		.cfi_offset 5, -24
 1682              		.cfi_offset 6, -20
 1683              		.cfi_offset 7, -16
 1684              		.cfi_offset 8, -12
 1685              		.cfi_offset 9, -8
 1686              		.cfi_offset 14, -4
 1687              		.loc 1 565 0
 1688 0004 0546     		mov	r5, r0
 1689              		.loc 1 569 0
 1690 0006 0820     		movs	r0, #8
 1691              	.LVL198:
 1692              		.loc 1 565 0
 1693 0008 8846     		mov	r8, r1
 1694              		.loc 1 569 0
 1695 000a FFF7FEFF 		bl	memp_malloc
 1696              	.LVL199:
 1697              		.loc 1 570 0
ARM GAS  /tmp/ccKs28dn.s 			page 31


 1698 000e 0446     		mov	r4, r0
 1699 0010 48B3     		cbz	r0, .L274
 1700              		.loc 1 582 0
 1701 0012 05F0F003 		and	r3, r5, #240
 1702              		.loc 1 574 0
 1703 0016 0022     		movs	r2, #0
 1704              		.loc 1 582 0
 1705 0018 202B     		cmp	r3, #32
 1706              		.loc 1 574 0
 1707 001a 0272     		strb	r2, [r0, #8]
 1708              		.loc 1 575 0
 1709 001c 0570     		strb	r5, [r0, #0]
 1710              		.loc 1 576 0
 1711 001e 4260     		str	r2, [r0, #4]
 1712              		.loc 1 582 0
 1713 0020 24D0     		beq	.L277
 1714 0022 402B     		cmp	r3, #64
 1715 0024 22D0     		beq	.L277
 1716 0026 102B     		cmp	r3, #16
 1717 0028 23D0     		beq	.L291
 1718              		.loc 1 599 0 discriminator 1
 1719 002a FFF7FEFF 		bl	port_halt
 1720              	.LVL200:
 1721              	.L276:
 1722              		.loc 1 604 0
 1723 002e 04F10C06 		add	r6, r4, #12
 1724 0032 3046     		mov	r0, r6
 1725 0034 0021     		movs	r1, #0
 1726 0036 FFF7FEFF 		bl	sys_sem_new
 1727              	.LVL201:
 1728 003a 0746     		mov	r7, r0
 1729 003c E0B9     		cbnz	r0, .L292
 1730              		.loc 1 608 0
 1731 003e 04F11000 		add	r0, r4, #16
 1732 0042 4946     		mov	r1, r9
 1733 0044 FFF7FEFF 		bl	sys_mbox_new
 1734              	.LVL202:
 1735 0048 0546     		mov	r5, r0
 1736 004a D8B9     		cbnz	r0, .L293
 1737              		.loc 1 615 0
 1738 004c 04F11400 		add	r0, r4, #20
 1739 0050 FFF7FEFF 		bl	sys_mbox_set_invalid
 1740              	.LVL203:
 1741              		.loc 1 620 0
 1742 0054 4FF0FF33 		mov	r3, #-1
 1743              		.loc 1 617 0
 1744 0058 6570     		strb	r5, [r4, #1]
 1745              		.loc 1 620 0
 1746 005a A361     		str	r3, [r4, #24]
 1747              		.loc 1 622 0
 1748 005c C4F82880 		str	r8, [r4, #40]
 1749              		.loc 1 624 0
 1750 0060 6562     		str	r5, [r4, #36]
 1751              		.loc 1 625 0
 1752 0062 2562     		str	r5, [r4, #32]
 1753              		.loc 1 634 0
 1754 0064 2577     		strb	r5, [r4, #28]
ARM GAS  /tmp/ccKs28dn.s 			page 32


 1755              	.LVL204:
 1756              	.L274:
 1757              		.loc 1 636 0
 1758 0066 2046     		mov	r0, r4
 1759 0068 BDE8F883 		pop	{r3, r4, r5, r6, r7, r8, r9, pc}
 1760              	.LVL205:
 1761              	.L277:
 1762              		.loc 1 585 0
 1763 006c 4FF00409 		mov	r9, #4
 1764 0070 DDE7     		b	.L276
 1765              	.L291:
 1766              		.loc 1 595 0
 1767 0072 4FF02809 		mov	r9, #40
 1768 0076 DAE7     		b	.L276
 1769              	.LVL206:
 1770              	.L292:
 1771              		.loc 1 605 0
 1772 0078 2146     		mov	r1, r4
 1773 007a 0820     		movs	r0, #8
 1774 007c FFF7FEFF 		bl	memp_free
 1775              	.LVL207:
 1776              		.loc 1 606 0
 1777 0080 0024     		movs	r4, #0
 1778              	.LVL208:
 1779 0082 F0E7     		b	.L274
 1780              	.LVL209:
 1781              	.L293:
 1782              		.loc 1 609 0
 1783 0084 3046     		mov	r0, r6
 1784 0086 FFF7FEFF 		bl	sys_sem_free
 1785              	.LVL210:
 1786              		.loc 1 610 0
 1787 008a 2146     		mov	r1, r4
 1788 008c 0820     		movs	r0, #8
 1789 008e FFF7FEFF 		bl	memp_free
 1790              	.LVL211:
 1791              		.loc 1 611 0
 1792 0092 3C46     		mov	r4, r7
 1793              	.LVL212:
 1794 0094 E7E7     		b	.L274
 1795              		.cfi_endproc
 1796              	.LFE17:
 1797              		.size	netconn_alloc, .-netconn_alloc
 1798 0096 00BFAFF3 		.section	.text.netconn_free,"ax",%progbits
 1798      0080AFF3 
 1798      0080
 1799              		.align	2
 1800              		.p2align 4,,15
 1801              		.global	netconn_free
 1802              		.thumb
 1803              		.thumb_func
 1804              		.type	netconn_free, %function
 1805              	netconn_free:
 1806              	.LFB18:
 1807              		.loc 1 646 0
 1808              		.cfi_startproc
 1809              		@ args = 0, pretend = 0, frame = 0
ARM GAS  /tmp/ccKs28dn.s 			page 33


 1810              		@ frame_needed = 0, uses_anonymous_args = 0
 1811              	.LVL213:
 1812 0000 38B5     		push	{r3, r4, r5, lr}
 1813              	.LCFI13:
 1814              		.cfi_def_cfa_offset 16
 1815              		.cfi_offset 3, -16
 1816              		.cfi_offset 4, -12
 1817              		.cfi_offset 5, -8
 1818              		.cfi_offset 14, -4
 1819              		.loc 1 647 0
 1820 0002 4368     		ldr	r3, [r0, #4]
 1821              		.loc 1 646 0
 1822 0004 0446     		mov	r4, r0
 1823              		.loc 1 647 0
 1824 0006 0BB1     		cbz	r3, .L295
 1825              		.loc 1 647 0 is_stmt 0 discriminator 1
 1826 0008 FFF7FEFF 		bl	port_halt
 1827              	.LVL214:
 1828              	.L295:
 1829              		.loc 1 648 0 is_stmt 1
 1830 000c 04F11000 		add	r0, r4, #16
 1831 0010 FFF7FEFF 		bl	sys_mbox_valid
 1832              	.LVL215:
 1833 0014 A0B9     		cbnz	r0, .L307
 1834              	.L296:
 1835              		.loc 1 651 0
 1836 0016 04F11400 		add	r0, r4, #20
 1837 001a FFF7FEFF 		bl	sys_mbox_valid
 1838              	.LVL216:
 1839 001e 08B1     		cbz	r0, .L297
 1840              		.loc 1 651 0 is_stmt 0 discriminator 1
 1841 0020 FFF7FEFF 		bl	port_halt
 1842              	.LVL217:
 1843              	.L297:
 1844              		.loc 1 655 0 is_stmt 1
 1845 0024 04F10C05 		add	r5, r4, #12
 1846 0028 2846     		mov	r0, r5
 1847 002a FFF7FEFF 		bl	sys_sem_free
 1848              	.LVL218:
 1849              		.loc 1 656 0
 1850 002e 2846     		mov	r0, r5
 1851 0030 FFF7FEFF 		bl	sys_sem_set_invalid
 1852              	.LVL219:
 1853              		.loc 1 658 0
 1854 0034 0820     		movs	r0, #8
 1855 0036 2146     		mov	r1, r4
 1856              		.loc 1 659 0
 1857 0038 BDE83840 		pop	{r3, r4, r5, lr}
 1858              		.loc 1 658 0
 1859 003c FFF7FEBF 		b	memp_free
 1860              	.LVL220:
 1861              	.L307:
 1862              		.loc 1 648 0 discriminator 1
 1863 0040 FFF7FEFF 		bl	port_halt
 1864              	.LVL221:
 1865 0044 E7E7     		b	.L296
 1866              		.cfi_endproc
ARM GAS  /tmp/ccKs28dn.s 			page 34


 1867              	.LFE18:
 1868              		.size	netconn_free, .-netconn_free
 1869 0046 00BFAFF3 		.section	.text.netconn_drain,"ax",%progbits
 1869      0080AFF3 
 1869      0080
 1870              		.align	2
 1871              		.p2align 4,,15
 1872              		.thumb
 1873              		.thumb_func
 1874              		.type	netconn_drain, %function
 1875              	netconn_drain:
 1876              	.LFB19:
 1877              		.loc 1 671 0
 1878              		.cfi_startproc
 1879              		@ args = 0, pretend = 0, frame = 8
 1880              		@ frame_needed = 0, uses_anonymous_args = 0
 1881              	.LVL222:
 1882 0000 2DE9F041 		push	{r4, r5, r6, r7, r8, lr}
 1883              	.LCFI14:
 1884              		.cfi_def_cfa_offset 24
 1885              		.cfi_offset 4, -24
 1886              		.cfi_offset 5, -20
 1887              		.cfi_offset 6, -16
 1888              		.cfi_offset 7, -12
 1889              		.cfi_offset 8, -8
 1890              		.cfi_offset 14, -4
 1891              		.loc 1 680 0
 1892 0004 00F11004 		add	r4, r0, #16
 1893              		.loc 1 671 0
 1894 0008 82B0     		sub	sp, sp, #8
 1895              	.LCFI15:
 1896              		.cfi_def_cfa_offset 32
 1897              		.loc 1 671 0
 1898 000a 0546     		mov	r5, r0
 1899              		.loc 1 680 0
 1900 000c 2046     		mov	r0, r4
 1901              	.LVL223:
 1902 000e FFF7FEFF 		bl	sys_mbox_valid
 1903              	.LVL224:
 1904 0012 00B3     		cbz	r0, .L310
 1905 0014 01AE     		add	r6, sp, #4
 1906              	.LVL225:
 1907              	.L339:
 1908              		.loc 1 681 0 discriminator 1
 1909 0016 3146     		mov	r1, r6
 1910 0018 2046     		mov	r0, r4
 1911 001a FFF7FEFF 		bl	sys_arch_mbox_tryfetch
 1912              	.LVL226:
 1913 001e 0130     		adds	r0, r0, #1
 1914 0020 13D0     		beq	.L340
 1915              		.loc 1 683 0
 1916 0022 2B78     		ldrb	r3, [r5, #0]	@ zero_extendqisi2
 1917 0024 102B     		cmp	r3, #16
 1918 0026 0CD1     		bne	.L311
 1919              		.loc 1 684 0
 1920 0028 019F     		ldr	r7, [sp, #4]
 1921              	.LVL227:
ARM GAS  /tmp/ccKs28dn.s 			page 35


 1922 002a 002F     		cmp	r7, #0
 1923 002c F3D0     		beq	.L339
 1924              		.loc 1 687 0
 1925 002e 6B68     		ldr	r3, [r5, #4]
 1926              		.loc 1 688 0
 1927 0030 1846     		mov	r0, r3
 1928              		.loc 1 687 0
 1929 0032 13B1     		cbz	r3, .L313
 1930              		.loc 1 688 0
 1931 0034 3989     		ldrh	r1, [r7, #8]
 1932 0036 FFF7FEFF 		bl	tcp_recved
 1933              	.LVL228:
 1934              	.L313:
 1935              		.loc 1 690 0
 1936 003a 3846     		mov	r0, r7
 1937 003c FFF7FEFF 		bl	pbuf_free
 1938              	.LVL229:
 1939 0040 E9E7     		b	.L339
 1940              	.LVL230:
 1941              	.L311:
 1942              		.loc 1 695 0
 1943 0042 0198     		ldr	r0, [sp, #4]
 1944 0044 FFF7FEFF 		bl	netbuf_delete
 1945              	.LVL231:
 1946 0048 E5E7     		b	.L339
 1947              	.L340:
 1948              		.loc 1 698 0
 1949 004a 2046     		mov	r0, r4
 1950 004c FFF7FEFF 		bl	sys_mbox_free
 1951              	.LVL232:
 1952              		.loc 1 699 0
 1953 0050 2046     		mov	r0, r4
 1954 0052 FFF7FEFF 		bl	sys_mbox_set_invalid
 1955              	.LVL233:
 1956              	.L310:
 1957              		.loc 1 704 0
 1958 0056 05F11407 		add	r7, r5, #20
 1959 005a 3846     		mov	r0, r7
 1960 005c FFF7FEFF 		bl	sys_mbox_valid
 1961              	.LVL234:
 1962 0060 20B3     		cbz	r0, .L308
 1963 0062 01AE     		add	r6, sp, #4
 1964              	.LBB15:
 1965              		.loc 1 716 0
 1966 0064 4FF00008 		mov	r8, #0
 1967 0068 14E0     		b	.L315
 1968              	.L319:
 1969              		.loc 1 709 0
 1970 006a 6B68     		ldr	r3, [r5, #4]
 1971              		.loc 1 706 0
 1972 006c 019C     		ldr	r4, [sp, #4]
 1973              	.LVL235:
 1974              		.loc 1 709 0
 1975 006e 23B1     		cbz	r3, .L317
 1976              		.loc 1 710 0
 1977 0070 1B7C     		ldrb	r3, [r3, #16]	@ zero_extendqisi2
 1978 0072 012B     		cmp	r3, #1
ARM GAS  /tmp/ccKs28dn.s 			page 36


 1979 0074 01D0     		beq	.L317
 1980              		.loc 1 710 0 is_stmt 0 discriminator 1
 1981 0076 FFF7FEFF 		bl	port_halt
 1982              	.LVL236:
 1983              	.L317:
 1984              		.loc 1 713 0 is_stmt 1
 1985 007a 2046     		mov	r0, r4
 1986 007c FFF7C0FF 		bl	netconn_drain
 1987              	.LVL237:
 1988              		.loc 1 714 0
 1989 0080 6368     		ldr	r3, [r4, #4]
 1990              		.loc 1 715 0
 1991 0082 1846     		mov	r0, r3
 1992              		.loc 1 714 0
 1993 0084 1BB1     		cbz	r3, .L318
 1994              		.loc 1 715 0
 1995 0086 FFF7FEFF 		bl	tcp_abort
 1996              	.LVL238:
 1997              		.loc 1 716 0
 1998 008a C4F80480 		str	r8, [r4, #4]
 1999              	.L318:
 2000              		.loc 1 718 0
 2001 008e 2046     		mov	r0, r4
 2002 0090 FFF7FEFF 		bl	netconn_free
 2003              	.LVL239:
 2004              	.L315:
 2005              	.LBE15:
 2006              		.loc 1 705 0 discriminator 1
 2007 0094 3146     		mov	r1, r6
 2008 0096 3846     		mov	r0, r7
 2009 0098 FFF7FEFF 		bl	sys_arch_mbox_tryfetch
 2010              	.LVL240:
 2011 009c 0130     		adds	r0, r0, #1
 2012 009e E4D1     		bne	.L319
 2013              		.loc 1 720 0
 2014 00a0 3846     		mov	r0, r7
 2015 00a2 FFF7FEFF 		bl	sys_mbox_free
 2016              	.LVL241:
 2017              		.loc 1 721 0
 2018 00a6 3846     		mov	r0, r7
 2019 00a8 FFF7FEFF 		bl	sys_mbox_set_invalid
 2020              	.LVL242:
 2021              	.L308:
 2022              		.loc 1 724 0
 2023 00ac 02B0     		add	sp, sp, #8
 2024 00ae BDE8F081 		pop	{r4, r5, r6, r7, r8, pc}
 2025              		.cfi_endproc
 2026              	.LFE19:
 2027              		.size	netconn_drain, .-netconn_drain
 2028 00b2 00BFAFF3 		.section	.text.accept_function,"ax",%progbits
 2028      0080AFF3 
 2028      0080AFF3 
 2028      0080
 2029              		.align	2
 2030              		.p2align 4,,15
 2031              		.thumb
 2032              		.thumb_func
ARM GAS  /tmp/ccKs28dn.s 			page 37


 2033              		.type	accept_function, %function
 2034              	accept_function:
 2035              	.LFB14:
 2036              		.loc 1 433 0
 2037              		.cfi_startproc
 2038              		@ args = 0, pretend = 0, frame = 0
 2039              		@ frame_needed = 0, uses_anonymous_args = 0
 2040              	.LVL243:
 2041 0000 2DE9F041 		push	{r4, r5, r6, r7, r8, lr}
 2042              	.LCFI16:
 2043              		.cfi_def_cfa_offset 24
 2044              		.cfi_offset 4, -24
 2045              		.cfi_offset 5, -20
 2046              		.cfi_offset 6, -16
 2047              		.cfi_offset 7, -12
 2048              		.cfi_offset 8, -8
 2049              		.cfi_offset 14, -4
 2050              		.loc 1 439 0
 2051 0004 00F11405 		add	r5, r0, #20
 2052              		.loc 1 433 0
 2053 0008 0446     		mov	r4, r0
 2054              	.LVL244:
 2055              		.loc 1 439 0
 2056 000a 2846     		mov	r0, r5
 2057              	.LVL245:
 2058              		.loc 1 433 0
 2059 000c 8846     		mov	r8, r1
 2060 000e 1746     		mov	r7, r2
 2061              		.loc 1 439 0
 2062 0010 FFF7FEFF 		bl	sys_mbox_valid
 2063              	.LVL246:
 2064 0014 D8B1     		cbz	r0, .L344
 2065              		.loc 1 446 0
 2066 0016 2078     		ldrb	r0, [r4, #0]	@ zero_extendqisi2
 2067 0018 A16A     		ldr	r1, [r4, #40]
 2068 001a FFF7FEFF 		bl	netconn_alloc
 2069              	.LVL247:
 2070              		.loc 1 447 0
 2071 001e 0646     		mov	r6, r0
 2072 0020 B8B1     		cbz	r0, .L345
 2073              		.loc 1 450 0
 2074 0022 C0F80480 		str	r8, [r0, #4]
 2075              		.loc 1 451 0
 2076 0026 FFF7FEFF 		bl	setup_tcp
 2077              	.LVL248:
 2078              		.loc 1 456 0
 2079 002a 2846     		mov	r0, r5
 2080              		.loc 1 454 0
 2081 002c 3772     		strb	r7, [r6, #8]
 2082              		.loc 1 456 0
 2083 002e 3146     		mov	r1, r6
 2084 0030 FFF7FEFF 		bl	sys_mbox_trypost
 2085              	.LVL249:
 2086 0034 0546     		mov	r5, r0
 2087 0036 70B9     		cbnz	r0, .L347
 2088              		.loc 1 467 0
 2089 0038 A36A     		ldr	r3, [r4, #40]
ARM GAS  /tmp/ccKs28dn.s 			page 38


 2090              		.loc 1 470 0
 2091 003a 1846     		mov	r0, r3
 2092              		.loc 1 467 0
 2093 003c 23B1     		cbz	r3, .L342
 2094              		.loc 1 467 0 is_stmt 0 discriminator 1
 2095 003e 2046     		mov	r0, r4
 2096 0040 2946     		mov	r1, r5
 2097 0042 2A46     		mov	r2, r5
 2098 0044 9847     		blx	r3
 2099              	.LVL250:
 2100              		.loc 1 470 0 is_stmt 1 discriminator 1
 2101 0046 2846     		mov	r0, r5
 2102              	.LVL251:
 2103              	.L342:
 2104              		.loc 1 471 0
 2105 0048 40B2     		sxtb	r0, r0
 2106 004a BDE8F081 		pop	{r4, r5, r6, r7, r8, pc}
 2107              	.LVL252:
 2108              	.L344:
 2109              		.loc 1 441 0
 2110 004e FA20     		movs	r0, #250
 2111 0050 FAE7     		b	.L342
 2112              	.LVL253:
 2113              	.L345:
 2114              		.loc 1 448 0
 2115 0052 FF20     		movs	r0, #255
 2116              	.LVL254:
 2117 0054 F8E7     		b	.L342
 2118              	.L347:
 2119              		.loc 1 459 0
 2120 0056 0023     		movs	r3, #0
 2121              		.loc 1 461 0
 2122 0058 06F11004 		add	r4, r6, #16
 2123              	.LVL255:
 2124              		.loc 1 459 0
 2125 005c 7360     		str	r3, [r6, #4]
 2126              		.loc 1 461 0
 2127 005e 2046     		mov	r0, r4
 2128 0060 FFF7FEFF 		bl	sys_mbox_free
 2129              	.LVL256:
 2130              		.loc 1 462 0
 2131 0064 2046     		mov	r0, r4
 2132 0066 FFF7FEFF 		bl	sys_mbox_set_invalid
 2133              	.LVL257:
 2134              		.loc 1 463 0
 2135 006a 3046     		mov	r0, r6
 2136 006c FFF7FEFF 		bl	netconn_free
 2137              	.LVL258:
 2138              		.loc 1 464 0
 2139 0070 FF20     		movs	r0, #255
 2140 0072 E9E7     		b	.L342
 2141              		.cfi_endproc
 2142              	.LFE14:
 2143              		.size	accept_function, .-accept_function
 2144 0074 AFF30080 		.section	.text.do_delconn,"ax",%progbits
 2144      AFF30080 
 2144      AFF30080 
ARM GAS  /tmp/ccKs28dn.s 			page 39


 2145              		.align	2
 2146              		.p2align 4,,15
 2147              		.global	do_delconn
 2148              		.thumb
 2149              		.thumb_func
 2150              		.type	do_delconn, %function
 2151              	do_delconn:
 2152              	.LFB21:
 2153              		.loc 1 821 0
 2154              		.cfi_startproc
 2155              		@ args = 0, pretend = 0, frame = 0
 2156              		@ frame_needed = 0, uses_anonymous_args = 0
 2157              	.LVL259:
 2158 0000 38B5     		push	{r3, r4, r5, lr}
 2159              	.LCFI17:
 2160              		.cfi_def_cfa_offset 16
 2161              		.cfi_offset 3, -16
 2162              		.cfi_offset 4, -12
 2163              		.cfi_offset 5, -8
 2164              		.cfi_offset 14, -4
 2165              		.loc 1 823 0
 2166 0002 0368     		ldr	r3, [r0, #0]
 2167 0004 5A78     		ldrb	r2, [r3, #1]	@ zero_extendqisi2
 2168 0006 12F0FD0F 		tst	r2, #253
 2169              		.loc 1 821 0
 2170 000a 0446     		mov	r4, r0
 2171              		.loc 1 823 0
 2172 000c 10D0     		beq	.L349
 2173              		.loc 1 824 0
 2174 000e 032A     		cmp	r2, #3
 2175 0010 48D0     		beq	.L350
 2176              		.loc 1 827 0
 2177 0012 1A78     		ldrb	r2, [r3, #0]	@ zero_extendqisi2
 2178 0014 102A     		cmp	r2, #16
 2179 0016 02D0     		beq	.L351
 2180              		.loc 1 827 0 is_stmt 0 discriminator 1
 2181 0018 FFF7FEFF 		bl	port_halt
 2182              	.LVL260:
 2183 001c 2368     		ldr	r3, [r4, #0]
 2184              	.L351:
 2185              		.loc 1 828 0 is_stmt 1
 2186 001e FB22     		movs	r2, #251
 2187 0020 2271     		strb	r2, [r4, #4]
 2188              	.L352:
 2189              		.loc 1 873 0
 2190 0022 03F10C00 		add	r0, r3, #12
 2191 0026 FFF7FEFF 		bl	sys_sem_valid
 2192              	.LVL261:
 2193 002a 0028     		cmp	r0, #0
 2194 002c 2AD1     		bne	.L380
 2195              	.L348:
 2196 002e 38BD     		pop	{r3, r4, r5, pc}
 2197              	.LVL262:
 2198              	.L349:
 2199              		.loc 1 830 0
 2200 0030 032A     		cmp	r2, #3
 2201 0032 37D0     		beq	.L350
ARM GAS  /tmp/ccKs28dn.s 			page 40


 2202              	.LVL263:
 2203              	.L353:
 2204              		.loc 1 833 0
 2205 0034 1846     		mov	r0, r3
 2206 0036 FFF7FEFF 		bl	netconn_drain
 2207              	.LVL264:
 2208              		.loc 1 835 0
 2209 003a 2368     		ldr	r3, [r4, #0]
 2210 003c 5868     		ldr	r0, [r3, #4]
 2211 003e 58B1     		cbz	r0, .L354
 2212              		.loc 1 837 0
 2213 0040 1A78     		ldrb	r2, [r3, #0]	@ zero_extendqisi2
 2214 0042 02F0F002 		and	r2, r2, #240
 2215 0046 202A     		cmp	r2, #32
 2216 0048 22D0     		beq	.L357
 2217 004a 402A     		cmp	r2, #64
 2218 004c 43D0     		beq	.L358
 2219 004e 102A     		cmp	r2, #16
 2220 0050 32D0     		beq	.L381
 2221              		.loc 1 864 0
 2222 0052 0022     		movs	r2, #0
 2223 0054 5A60     		str	r2, [r3, #4]
 2224 0056 2368     		ldr	r3, [r4, #0]
 2225              	.L354:
 2226              		.loc 1 870 0
 2227 0058 9D6A     		ldr	r5, [r3, #40]
 2228 005a 002D     		cmp	r5, #0
 2229 005c E1D0     		beq	.L352
 2230              		.loc 1 870 0 is_stmt 0 discriminator 1
 2231 005e 0021     		movs	r1, #0
 2232 0060 1846     		mov	r0, r3
 2233 0062 0A46     		mov	r2, r1
 2234 0064 A847     		blx	r5
 2235              	.LVL265:
 2236              		.loc 1 871 0 is_stmt 1 discriminator 1
 2237 0066 2368     		ldr	r3, [r4, #0]
 2238 0068 9D6A     		ldr	r5, [r3, #40]
 2239 006a 002D     		cmp	r5, #0
 2240 006c D9D0     		beq	.L352
 2241 006e 1846     		mov	r0, r3
 2242 0070 0221     		movs	r1, #2
 2243 0072 0022     		movs	r2, #0
 2244 0074 A847     		blx	r5
 2245              	.LVL266:
 2246 0076 2368     		ldr	r3, [r4, #0]
 2247              		.loc 1 873 0 discriminator 1
 2248 0078 03F10C00 		add	r0, r3, #12
 2249 007c FFF7FEFF 		bl	sys_sem_valid
 2250              	.LVL267:
 2251 0080 0028     		cmp	r0, #0
 2252 0082 D4D0     		beq	.L348
 2253              	.L380:
 2254              		.loc 1 874 0
 2255 0084 2068     		ldr	r0, [r4, #0]
 2256 0086 0C30     		adds	r0, r0, #12
 2257              		.loc 1 876 0
 2258 0088 BDE83840 		pop	{r3, r4, r5, lr}
ARM GAS  /tmp/ccKs28dn.s 			page 41


 2259              		.loc 1 874 0
 2260 008c FFF7FEBF 		b	sys_sem_signal
 2261              	.LVL268:
 2262              	.L357:
 2263              		.loc 1 845 0
 2264 0090 0022     		movs	r2, #0
 2265 0092 C261     		str	r2, [r0, #28]
 2266              		.loc 1 846 0
 2267 0094 5868     		ldr	r0, [r3, #4]
 2268 0096 FFF7FEFF 		bl	udp_remove
 2269              	.LVL269:
 2270 009a 2368     		ldr	r3, [r4, #0]
 2271              		.loc 1 864 0
 2272 009c 0022     		movs	r2, #0
 2273 009e 5A60     		str	r2, [r3, #4]
 2274 00a0 2368     		ldr	r3, [r4, #0]
 2275 00a2 D9E7     		b	.L354
 2276              	.LVL270:
 2277              	.L350:
 2278              		.loc 1 830 0 discriminator 1
 2279 00a4 1A7F     		ldrb	r2, [r3, #28]	@ zero_extendqisi2
 2280 00a6 02F00402 		and	r2, r2, #4
 2281 00aa D2B2     		uxtb	r2, r2
 2282 00ac 002A     		cmp	r2, #0
 2283 00ae C1D1     		bne	.L353
 2284              		.loc 1 830 0 is_stmt 0 discriminator 2
 2285 00b0 FFF7FEFF 		bl	port_halt
 2286              	.LVL271:
 2287 00b4 2368     		ldr	r3, [r4, #0]
 2288 00b6 BDE7     		b	.L353
 2289              	.L381:
 2290              		.loc 1 851 0 is_stmt 1
 2291 00b8 5A6A     		ldr	r2, [r3, #36]
 2292 00ba 9AB1     		cbz	r2, .L382
 2293              	.L359:
 2294              		.loc 1 851 0 is_stmt 0 discriminator 1
 2295 00bc FFF7FEFF 		bl	port_halt
 2296              	.LVL272:
 2297 00c0 2368     		ldr	r3, [r4, #0]
 2298              	.L360:
 2299              		.loc 1 853 0 is_stmt 1
 2300 00c2 0422     		movs	r2, #4
 2301 00c4 5A70     		strb	r2, [r3, #1]
 2302              		.loc 1 856 0
 2303 00c6 1846     		mov	r0, r3
 2304              		.loc 1 854 0
 2305 00c8 0322     		movs	r2, #3
 2306 00ca 2272     		strb	r2, [r4, #8]
 2307              		.loc 1 855 0
 2308 00cc 5C62     		str	r4, [r3, #36]
 2309              		.loc 1 876 0
 2310 00ce BDE83840 		pop	{r3, r4, r5, lr}
 2311              		.loc 1 856 0
 2312 00d2 FFF7FEBF 		b	do_close_internal
 2313              	.LVL273:
 2314              	.L358:
 2315              		.loc 1 840 0
ARM GAS  /tmp/ccKs28dn.s 			page 42


 2316 00d6 FFF7FEFF 		bl	raw_remove
 2317              	.LVL274:
 2318 00da 2368     		ldr	r3, [r4, #0]
 2319              		.loc 1 864 0
 2320 00dc 0022     		movs	r2, #0
 2321 00de 5A60     		str	r2, [r3, #4]
 2322 00e0 2368     		ldr	r3, [r4, #0]
 2323 00e2 B9E7     		b	.L354
 2324              	.L382:
 2325              		.loc 1 851 0 discriminator 2
 2326 00e4 1A6A     		ldr	r2, [r3, #32]
 2327 00e6 002A     		cmp	r2, #0
 2328 00e8 E8D1     		bne	.L359
 2329 00ea EAE7     		b	.L360
 2330              		.cfi_endproc
 2331              	.LFE21:
 2332              		.size	do_delconn, .-do_delconn
 2333 00ec AFF30080 		.section	.text.do_bind,"ax",%progbits
 2334              		.align	2
 2335              		.p2align 4,,15
 2336              		.global	do_bind
 2337              		.thumb
 2338              		.thumb_func
 2339              		.type	do_bind, %function
 2340              	do_bind:
 2341              	.LFB22:
 2342              		.loc 1 887 0
 2343              		.cfi_startproc
 2344              		@ args = 0, pretend = 0, frame = 0
 2345              		@ frame_needed = 0, uses_anonymous_args = 0
 2346              	.LVL275:
 2347 0000 10B5     		push	{r4, lr}
 2348              	.LCFI18:
 2349              		.cfi_def_cfa_offset 8
 2350              		.cfi_offset 4, -8
 2351              		.cfi_offset 14, -4
 2352              		.loc 1 888 0
 2353 0002 0368     		ldr	r3, [r0, #0]
 2354 0004 1A7A     		ldrb	r2, [r3, #8]	@ zero_extendqisi2
 2355 0006 51B2     		sxtb	r1, r2
 2356 0008 0931     		adds	r1, r1, #9
 2357              		.loc 1 887 0
 2358 000a 0446     		mov	r4, r0
 2359              		.loc 1 889 0
 2360 000c B8BF     		it	lt
 2361 000e 0271     		strblt	r2, [r0, #4]
 2362              		.loc 1 888 0
 2363 0010 0CDB     		blt	.L385
 2364              		.loc 1 891 0
 2365 0012 FA22     		movs	r2, #250
 2366 0014 0271     		strb	r2, [r0, #4]
 2367              		.loc 1 892 0
 2368 0016 5868     		ldr	r0, [r3, #4]
 2369              	.LVL276:
 2370 0018 40B1     		cbz	r0, .L385
 2371              		.loc 1 893 0
 2372 001a 1A78     		ldrb	r2, [r3, #0]	@ zero_extendqisi2
ARM GAS  /tmp/ccKs28dn.s 			page 43


 2373 001c 02F0F002 		and	r2, r2, #240
 2374 0020 202A     		cmp	r2, #32
 2375 0022 09D0     		beq	.L387
 2376 0024 402A     		cmp	r2, #64
 2377 0026 15D0     		beq	.L388
 2378 0028 102A     		cmp	r2, #16
 2379 002a 0CD0     		beq	.L392
 2380              	.L385:
 2381              		.loc 1 914 0
 2382 002c 03F10C00 		add	r0, r3, #12
 2383              		.loc 1 915 0
 2384 0030 BDE81040 		pop	{r4, lr}
 2385              		.loc 1 914 0
 2386 0034 FFF7FEBF 		b	sys_sem_signal
 2387              	.LVL277:
 2388              	.L387:
 2389              		.loc 1 901 0
 2390 0038 A168     		ldr	r1, [r4, #8]
 2391 003a A289     		ldrh	r2, [r4, #12]
 2392 003c FFF7FEFF 		bl	udp_bind
 2393              	.LVL278:
 2394 0040 2368     		ldr	r3, [r4, #0]
 2395 0042 2071     		strb	r0, [r4, #4]
 2396              		.loc 1 902 0
 2397 0044 F2E7     		b	.L385
 2398              	.L392:
 2399              		.loc 1 906 0
 2400 0046 A168     		ldr	r1, [r4, #8]
 2401 0048 A289     		ldrh	r2, [r4, #12]
 2402 004a FFF7FEFF 		bl	tcp_bind
 2403              	.LVL279:
 2404 004e 2368     		ldr	r3, [r4, #0]
 2405 0050 2071     		strb	r0, [r4, #4]
 2406              		.loc 1 907 0
 2407 0052 EBE7     		b	.L385
 2408              	.L388:
 2409              		.loc 1 896 0
 2410 0054 A168     		ldr	r1, [r4, #8]
 2411 0056 FFF7FEFF 		bl	raw_bind
 2412              	.LVL280:
 2413 005a 2368     		ldr	r3, [r4, #0]
 2414 005c 2071     		strb	r0, [r4, #4]
 2415              		.loc 1 897 0
 2416 005e E5E7     		b	.L385
 2417              		.cfi_endproc
 2418              	.LFE22:
 2419              		.size	do_bind, .-do_bind
 2420              		.section	.text.do_connect,"ax",%progbits
 2421              		.align	2
 2422              		.p2align 4,,15
 2423              		.global	do_connect
 2424              		.thumb
 2425              		.thumb_func
 2426              		.type	do_connect, %function
 2427              	do_connect:
 2428              	.LFB24:
 2429              		.loc 1 973 0
ARM GAS  /tmp/ccKs28dn.s 			page 44


 2430              		.cfi_startproc
 2431              		@ args = 0, pretend = 0, frame = 0
 2432              		@ frame_needed = 0, uses_anonymous_args = 0
 2433              	.LVL281:
 2434 0000 10B5     		push	{r4, lr}
 2435              	.LCFI19:
 2436              		.cfi_def_cfa_offset 8
 2437              		.cfi_offset 4, -8
 2438              		.cfi_offset 14, -4
 2439              		.loc 1 974 0
 2440 0002 0368     		ldr	r3, [r0, #0]
 2441              		.loc 1 973 0
 2442 0004 0446     		mov	r4, r0
 2443              		.loc 1 974 0
 2444 0006 5868     		ldr	r0, [r3, #4]
 2445              	.LVL282:
 2446 0008 0028     		cmp	r0, #0
 2447 000a 41D0     		beq	.L406
 2448              		.loc 1 978 0
 2449 000c 1A78     		ldrb	r2, [r3, #0]	@ zero_extendqisi2
 2450 000e 02F0F002 		and	r2, r2, #240
 2451 0012 202A     		cmp	r2, #32
 2452 0014 19D0     		beq	.L398
 2453 0016 402A     		cmp	r2, #64
 2454 0018 0CD0     		beq	.L399
 2455 001a 102A     		cmp	r2, #16
 2456 001c 10D0     		beq	.L407
 2457              		.loc 1 1015 0 discriminator 1
 2458 001e FFF7FEFF 		bl	port_halt
 2459              	.LVL283:
 2460 0022 FA22     		movs	r2, #250
 2461 0024 2368     		ldr	r3, [r4, #0]
 2462 0026 2271     		strb	r2, [r4, #4]
 2463              	.L395:
 2464              		.loc 1 1019 0
 2465 0028 03F10C00 		add	r0, r3, #12
 2466              		.loc 1 1020 0
 2467 002c BDE81040 		pop	{r4, lr}
 2468              		.loc 1 1019 0
 2469 0030 FFF7FEBF 		b	sys_sem_signal
 2470              	.LVL284:
 2471              	.L399:
 2472              		.loc 1 981 0
 2473 0034 A168     		ldr	r1, [r4, #8]
 2474 0036 FFF7FEFF 		bl	raw_connect
 2475              	.LVL285:
 2476 003a 2368     		ldr	r3, [r4, #0]
 2477 003c 2071     		strb	r0, [r4, #4]
 2478              		.loc 1 982 0
 2479 003e F3E7     		b	.L395
 2480              	.L407:
 2481              		.loc 1 992 0
 2482 0040 5A78     		ldrb	r2, [r3, #1]	@ zero_extendqisi2
 2483 0042 4AB1     		cbz	r2, .L400
 2484              		.loc 1 993 0
 2485 0044 F722     		movs	r2, #247
 2486 0046 2271     		strb	r2, [r4, #4]
ARM GAS  /tmp/ccKs28dn.s 			page 45


 2487 0048 EEE7     		b	.L395
 2488              	.L398:
 2489              		.loc 1 986 0
 2490 004a A168     		ldr	r1, [r4, #8]
 2491 004c A289     		ldrh	r2, [r4, #12]
 2492 004e FFF7FEFF 		bl	udp_connect
 2493              	.LVL286:
 2494 0052 2368     		ldr	r3, [r4, #0]
 2495 0054 2071     		strb	r0, [r4, #4]
 2496              		.loc 1 987 0
 2497 0056 E7E7     		b	.L395
 2498              	.L400:
 2499              		.loc 1 995 0
 2500 0058 1846     		mov	r0, r3
 2501 005a FFF7FEFF 		bl	setup_tcp
 2502              	.LVL287:
 2503              		.loc 1 996 0
 2504 005e 2368     		ldr	r3, [r4, #0]
 2505 0060 A168     		ldr	r1, [r4, #8]
 2506 0062 5868     		ldr	r0, [r3, #4]
 2507 0064 A289     		ldrh	r2, [r4, #12]
 2508 0066 0F4B     		ldr	r3, .L408
 2509 0068 FFF7FEFF 		bl	tcp_connect
 2510              	.LVL288:
 2511              	.LBB16:
 2512              		.loc 1 999 0
 2513 006c 2368     		ldr	r3, [r4, #0]
 2514              	.LBE16:
 2515              		.loc 1 996 0
 2516 006e 2071     		strb	r0, [r4, #4]
 2517              		.loc 1 998 0
 2518 0070 0028     		cmp	r0, #0
 2519 0072 D9D1     		bne	.L395
 2520              	.LBB17:
 2521              		.loc 1 999 0
 2522 0074 1A7F     		ldrb	r2, [r3, #28]	@ zero_extendqisi2
 2523              	.LVL289:
 2524              		.loc 1 1001 0
 2525 0076 02F00201 		and	r1, r2, #2
 2526              		.loc 1 1000 0
 2527 007a 0320     		movs	r0, #3
 2528              		.loc 1 1001 0
 2529 007c C9B2     		uxtb	r1, r1
 2530              		.loc 1 1000 0
 2531 007e 5870     		strb	r0, [r3, #1]
 2532              		.loc 1 1001 0
 2533 0080 49B1     		cbz	r1, .L402
 2534              		.loc 1 1001 0 is_stmt 0 discriminator 1
 2535 0082 42F00402 		orr	r2, r2, #4
 2536              	.LVL290:
 2537 0086 1A77     		strb	r2, [r3, #28]
 2538              		.loc 1 1003 0 is_stmt 1 discriminator 1
 2539 0088 FB23     		movs	r3, #251
 2540              	.LVL291:
 2541 008a 2371     		strb	r3, [r4, #4]
 2542 008c 2368     		ldr	r3, [r4, #0]
 2543 008e CBE7     		b	.L395
ARM GAS  /tmp/ccKs28dn.s 			page 46


 2544              	.LVL292:
 2545              	.L406:
 2546              	.LBE17:
 2547              		.loc 1 976 0
 2548 0090 F422     		movs	r2, #244
 2549 0092 2271     		strb	r2, [r4, #4]
 2550 0094 C8E7     		b	.L395
 2551              	.LVL293:
 2552              	.L402:
 2553              	.LBB18:
 2554              		.loc 1 1001 0 discriminator 2
 2555 0096 22F00402 		bic	r2, r2, #4
 2556              	.LVL294:
 2557 009a 1A77     		strb	r2, [r3, #28]
 2558              		.loc 1 1005 0 discriminator 2
 2559 009c 2368     		ldr	r3, [r4, #0]
 2560              	.LVL295:
 2561 009e 5C62     		str	r4, [r3, #36]
 2562              		.loc 1 1008 0 discriminator 2
 2563 00a0 10BD     		pop	{r4, pc}
 2564              	.L409:
 2565 00a2 00BF     		.align	2
 2566              	.L408:
 2567 00a4 00000000 		.word	do_connected
 2568              	.LBE18:
 2569              		.cfi_endproc
 2570              	.LFE24:
 2571              		.size	do_connect, .-do_connect
 2572 00a8 AFF30080 		.section	.text.do_disconnect,"ax",%progbits
 2572      AFF30080 
 2573              		.align	2
 2574              		.p2align 4,,15
 2575              		.global	do_disconnect
 2576              		.thumb
 2577              		.thumb_func
 2578              		.type	do_disconnect, %function
 2579              	do_disconnect:
 2580              	.LFB25:
 2581              		.loc 1 1031 0
 2582              		.cfi_startproc
 2583              		@ args = 0, pretend = 0, frame = 0
 2584              		@ frame_needed = 0, uses_anonymous_args = 0
 2585              	.LVL296:
 2586 0000 10B5     		push	{r4, lr}
 2587              	.LCFI20:
 2588              		.cfi_def_cfa_offset 8
 2589              		.cfi_offset 4, -8
 2590              		.cfi_offset 14, -4
 2591              		.loc 1 1031 0
 2592 0002 0446     		mov	r4, r0
 2593              		.loc 1 1033 0
 2594 0004 0068     		ldr	r0, [r0, #0]
 2595              	.LVL297:
 2596 0006 0278     		ldrb	r2, [r0, #0]	@ zero_extendqisi2
 2597 0008 02F0F002 		and	r2, r2, #240
 2598 000c 202A     		cmp	r2, #32
 2599 000e 06D0     		beq	.L413
ARM GAS  /tmp/ccKs28dn.s 			page 47


 2600              		.loc 1 1039 0
 2601 0010 FA22     		movs	r2, #250
 2602 0012 2271     		strb	r2, [r4, #4]
 2603              	.L412:
 2604              		.loc 1 1041 0
 2605 0014 0C30     		adds	r0, r0, #12
 2606              		.loc 1 1042 0
 2607 0016 BDE81040 		pop	{r4, lr}
 2608              		.loc 1 1041 0
 2609 001a FFF7FEBF 		b	sys_sem_signal
 2610              	.LVL298:
 2611              	.L413:
 2612              		.loc 1 1034 0
 2613 001e 4068     		ldr	r0, [r0, #4]
 2614 0020 FFF7FEFF 		bl	udp_disconnect
 2615              	.LVL299:
 2616              		.loc 1 1035 0
 2617 0024 0023     		movs	r3, #0
 2618 0026 2371     		strb	r3, [r4, #4]
 2619 0028 2068     		ldr	r0, [r4, #0]
 2620 002a F3E7     		b	.L412
 2621              		.cfi_endproc
 2622              	.LFE25:
 2623              		.size	do_disconnect, .-do_disconnect
 2624 002c AFF30080 		.section	.text.do_listen,"ax",%progbits
 2625              		.align	2
 2626              		.p2align 4,,15
 2627              		.global	do_listen
 2628              		.thumb
 2629              		.thumb_func
 2630              		.type	do_listen, %function
 2631              	do_listen:
 2632              	.LFB26:
 2633              		.loc 1 1053 0
 2634              		.cfi_startproc
 2635              		@ args = 0, pretend = 0, frame = 0
 2636              		@ frame_needed = 0, uses_anonymous_args = 0
 2637              	.LVL300:
 2638 0000 38B5     		push	{r3, r4, r5, lr}
 2639              	.LCFI21:
 2640              		.cfi_def_cfa_offset 16
 2641              		.cfi_offset 3, -16
 2642              		.cfi_offset 4, -12
 2643              		.cfi_offset 5, -8
 2644              		.cfi_offset 14, -4
 2645              		.loc 1 1054 0
 2646 0002 0368     		ldr	r3, [r0, #0]
 2647 0004 1A7A     		ldrb	r2, [r3, #8]	@ zero_extendqisi2
 2648 0006 51B2     		sxtb	r1, r2
 2649 0008 0931     		adds	r1, r1, #9
 2650              		.loc 1 1053 0
 2651 000a 0446     		mov	r4, r0
 2652              		.loc 1 1055 0
 2653 000c B8BF     		it	lt
 2654 000e 0271     		strblt	r2, [r0, #4]
 2655              		.loc 1 1054 0
 2656 0010 06DB     		blt	.L416
ARM GAS  /tmp/ccKs28dn.s 			page 48


 2657              		.loc 1 1057 0
 2658 0012 F322     		movs	r2, #243
 2659 0014 0271     		strb	r2, [r0, #4]
 2660              		.loc 1 1058 0
 2661 0016 5868     		ldr	r0, [r3, #4]
 2662              	.LVL301:
 2663 0018 10B1     		cbz	r0, .L416
 2664              		.loc 1 1059 0
 2665 001a 1A78     		ldrb	r2, [r3, #0]	@ zero_extendqisi2
 2666 001c 102A     		cmp	r2, #16
 2667 001e 05D0     		beq	.L428
 2668              	.L416:
 2669              		.loc 1 1095 0
 2670 0020 03F10C00 		add	r0, r3, #12
 2671              		.loc 1 1096 0
 2672 0024 BDE83840 		pop	{r3, r4, r5, lr}
 2673              		.loc 1 1095 0
 2674 0028 FFF7FEBF 		b	sys_sem_signal
 2675              	.LVL302:
 2676              	.L428:
 2677              		.loc 1 1060 0
 2678 002c 5A78     		ldrb	r2, [r3, #1]	@ zero_extendqisi2
 2679 002e 002A     		cmp	r2, #0
 2680 0030 F6D1     		bne	.L416
 2681              	.LBB19:
 2682              		.loc 1 1064 0
 2683 0032 FF21     		movs	r1, #255
 2684 0034 FFF7FEFF 		bl	tcp_listen_with_backlog
 2685              	.LVL303:
 2686              		.loc 1 1066 0
 2687 0038 0546     		mov	r5, r0
 2688 003a 0028     		cmp	r0, #0
 2689 003c 34D0     		beq	.L429
 2690              		.loc 1 1071 0
 2691 003e 2068     		ldr	r0, [r4, #0]
 2692              	.LVL304:
 2693 0040 1030     		adds	r0, r0, #16
 2694 0042 FFF7FEFF 		bl	sys_mbox_valid
 2695              	.LVL305:
 2696 0046 B8B9     		cbnz	r0, .L430
 2697              	.L418:
 2698              		.loc 1 1077 0
 2699 0048 2068     		ldr	r0, [r4, #0]
 2700              		.loc 1 1076 0
 2701 004a 0023     		movs	r3, #0
 2702 004c 2371     		strb	r3, [r4, #4]
 2703              		.loc 1 1077 0
 2704 004e 1430     		adds	r0, r0, #20
 2705 0050 FFF7FEFF 		bl	sys_mbox_valid
 2706              	.LVL306:
 2707 0054 48B1     		cbz	r0, .L419
 2708 0056 2079     		ldrb	r0, [r4, #4]	@ zero_extendqisi2
 2709              	.L420:
 2710              		.loc 1 1080 0
 2711 0058 B8B1     		cbz	r0, .L431
 2712              		.loc 1 1087 0
 2713 005a 2846     		mov	r0, r5
ARM GAS  /tmp/ccKs28dn.s 			page 49


 2714 005c FFF7FEFF 		bl	tcp_close
 2715              	.LVL307:
 2716              		.loc 1 1088 0
 2717 0060 2368     		ldr	r3, [r4, #0]
 2718 0062 0022     		movs	r2, #0
 2719 0064 5A60     		str	r2, [r3, #4]
 2720 0066 2368     		ldr	r3, [r4, #0]
 2721 0068 DAE7     		b	.L416
 2722              	.L419:
 2723              		.loc 1 1078 0
 2724 006a 2068     		ldr	r0, [r4, #0]
 2725 006c 0421     		movs	r1, #4
 2726 006e 1430     		adds	r0, r0, #20
 2727 0070 FFF7FEFF 		bl	sys_mbox_new
 2728              	.LVL308:
 2729 0074 2071     		strb	r0, [r4, #4]
 2730 0076 EFE7     		b	.L420
 2731              	.L430:
 2732              		.loc 1 1073 0
 2733 0078 2068     		ldr	r0, [r4, #0]
 2734 007a 1030     		adds	r0, r0, #16
 2735 007c FFF7FEFF 		bl	sys_mbox_free
 2736              	.LVL309:
 2737              		.loc 1 1074 0
 2738 0080 2068     		ldr	r0, [r4, #0]
 2739 0082 1030     		adds	r0, r0, #16
 2740 0084 FFF7FEFF 		bl	sys_mbox_set_invalid
 2741              	.LVL310:
 2742 0088 DEE7     		b	.L418
 2743              	.L431:
 2744              		.loc 1 1081 0
 2745 008a 2368     		ldr	r3, [r4, #0]
 2746              		.loc 1 1082 0
 2747 008c 5D60     		str	r5, [r3, #4]
 2748              		.loc 1 1083 0
 2749 008e 2168     		ldr	r1, [r4, #0]
 2750              		.loc 1 1081 0
 2751 0090 0222     		movs	r2, #2
 2752              		.loc 1 1083 0
 2753 0092 4868     		ldr	r0, [r1, #4]
 2754              		.loc 1 1081 0
 2755 0094 5A70     		strb	r2, [r3, #1]
 2756              		.loc 1 1083 0
 2757 0096 FFF7FEFF 		bl	tcp_arg
 2758              	.LVL311:
 2759              		.loc 1 1084 0
 2760 009a 2368     		ldr	r3, [r4, #0]
 2761 009c 0449     		ldr	r1, .L432
 2762 009e 5868     		ldr	r0, [r3, #4]
 2763 00a0 FFF7FEFF 		bl	tcp_accept
 2764              	.LVL312:
 2765 00a4 2368     		ldr	r3, [r4, #0]
 2766 00a6 BBE7     		b	.L416
 2767              	.LVL313:
 2768              	.L429:
 2769              		.loc 1 1068 0
 2770 00a8 FF23     		movs	r3, #255
ARM GAS  /tmp/ccKs28dn.s 			page 50


 2771 00aa 2371     		strb	r3, [r4, #4]
 2772 00ac 2368     		ldr	r3, [r4, #0]
 2773 00ae B7E7     		b	.L416
 2774              	.L433:
 2775              		.align	2
 2776              	.L432:
 2777 00b0 00000000 		.word	accept_function
 2778              	.LBE19:
 2779              		.cfi_endproc
 2780              	.LFE26:
 2781              		.size	do_listen, .-do_listen
 2782 00b4 AFF30080 		.section	.text.do_send,"ax",%progbits
 2782      AFF30080 
 2782      AFF30080 
 2783              		.align	2
 2784              		.p2align 4,,15
 2785              		.global	do_send
 2786              		.thumb
 2787              		.thumb_func
 2788              		.type	do_send, %function
 2789              	do_send:
 2790              	.LFB27:
 2791              		.loc 1 1107 0
 2792              		.cfi_startproc
 2793              		@ args = 0, pretend = 0, frame = 0
 2794              		@ frame_needed = 0, uses_anonymous_args = 0
 2795              	.LVL314:
 2796 0000 10B5     		push	{r4, lr}
 2797              	.LCFI22:
 2798              		.cfi_def_cfa_offset 8
 2799              		.cfi_offset 4, -8
 2800              		.cfi_offset 14, -4
 2801              		.loc 1 1108 0
 2802 0002 0368     		ldr	r3, [r0, #0]
 2803 0004 1A7A     		ldrb	r2, [r3, #8]	@ zero_extendqisi2
 2804 0006 51B2     		sxtb	r1, r2
 2805 0008 0931     		adds	r1, r1, #9
 2806              		.loc 1 1107 0
 2807 000a 0446     		mov	r4, r0
 2808              		.loc 1 1109 0
 2809 000c B8BF     		it	lt
 2810 000e 0271     		strblt	r2, [r0, #4]
 2811              		.loc 1 1108 0
 2812 0010 0ADB     		blt	.L436
 2813              		.loc 1 1111 0
 2814 0012 F322     		movs	r2, #243
 2815 0014 0271     		strb	r2, [r0, #4]
 2816              		.loc 1 1112 0
 2817 0016 5868     		ldr	r0, [r3, #4]
 2818              	.LVL315:
 2819 0018 30B1     		cbz	r0, .L436
 2820              		.loc 1 1113 0
 2821 001a 1A78     		ldrb	r2, [r3, #0]	@ zero_extendqisi2
 2822 001c 02F0F002 		and	r2, r2, #240
 2823 0020 202A     		cmp	r2, #32
 2824 0022 07D0     		beq	.L437
 2825 0024 402A     		cmp	r2, #64
ARM GAS  /tmp/ccKs28dn.s 			page 51


 2826 0026 11D0     		beq	.L452
 2827              	.L436:
 2828              		.loc 1 1148 0
 2829 0028 03F10C00 		add	r0, r3, #12
 2830              		.loc 1 1149 0
 2831 002c BDE81040 		pop	{r4, lr}
 2832              		.loc 1 1148 0
 2833 0030 FFF7FEBF 		b	sys_sem_signal
 2834              	.LVL316:
 2835              	.L437:
 2836              		.loc 1 1135 0
 2837 0034 A368     		ldr	r3, [r4, #8]
 2838 0036 13F10802 		adds	r2, r3, #8
 2839 003a 01D0     		beq	.L441
 2840              		.loc 1 1135 0 is_stmt 0 discriminator 1
 2841 003c 9968     		ldr	r1, [r3, #8]
 2842 003e 89B9     		cbnz	r1, .L442
 2843              	.L441:
 2844              		.loc 1 1136 0 is_stmt 1
 2845 0040 1968     		ldr	r1, [r3, #0]
 2846 0042 FFF7FEFF 		bl	udp_send
 2847              	.LVL317:
 2848 0046 2368     		ldr	r3, [r4, #0]
 2849 0048 2071     		strb	r0, [r4, #4]
 2850 004a EDE7     		b	.L436
 2851              	.L452:
 2852              		.loc 1 1116 0
 2853 004c A368     		ldr	r3, [r4, #8]
 2854 004e 13F10802 		adds	r2, r3, #8
 2855 0052 01D0     		beq	.L439
 2856              		.loc 1 1116 0 is_stmt 0 discriminator 1
 2857 0054 9968     		ldr	r1, [r3, #8]
 2858 0056 61B9     		cbnz	r1, .L440
 2859              	.L439:
 2860              		.loc 1 1117 0 is_stmt 1
 2861 0058 1968     		ldr	r1, [r3, #0]
 2862 005a FFF7FEFF 		bl	raw_send
 2863              	.LVL318:
 2864 005e 2368     		ldr	r3, [r4, #0]
 2865 0060 2071     		strb	r0, [r4, #4]
 2866 0062 E1E7     		b	.L436
 2867              	.L442:
 2868              		.loc 1 1138 0
 2869 0064 1968     		ldr	r1, [r3, #0]
 2870 0066 9B89     		ldrh	r3, [r3, #12]
 2871 0068 FFF7FEFF 		bl	udp_sendto
 2872              	.LVL319:
 2873 006c 2368     		ldr	r3, [r4, #0]
 2874 006e 2071     		strb	r0, [r4, #4]
 2875 0070 DAE7     		b	.L436
 2876              	.L440:
 2877              		.loc 1 1119 0
 2878 0072 1968     		ldr	r1, [r3, #0]
 2879 0074 FFF7FEFF 		bl	raw_sendto
 2880              	.LVL320:
 2881 0078 2368     		ldr	r3, [r4, #0]
 2882 007a 2071     		strb	r0, [r4, #4]
ARM GAS  /tmp/ccKs28dn.s 			page 52


 2883 007c D4E7     		b	.L436
 2884              		.cfi_endproc
 2885              	.LFE27:
 2886              		.size	do_send, .-do_send
 2887 007e 00BF     		.section	.text.do_recv,"ax",%progbits
 2888              		.align	2
 2889              		.p2align 4,,15
 2890              		.global	do_recv
 2891              		.thumb
 2892              		.thumb_func
 2893              		.type	do_recv, %function
 2894              	do_recv:
 2895              	.LFB28:
 2896              		.loc 1 1160 0
 2897              		.cfi_startproc
 2898              		@ args = 0, pretend = 0, frame = 0
 2899              		@ frame_needed = 0, uses_anonymous_args = 0
 2900              	.LVL321:
 2901 0000 F8B5     		push	{r3, r4, r5, r6, r7, lr}
 2902              	.LCFI23:
 2903              		.cfi_def_cfa_offset 24
 2904              		.cfi_offset 3, -24
 2905              		.cfi_offset 4, -20
 2906              		.cfi_offset 5, -16
 2907              		.cfi_offset 6, -12
 2908              		.cfi_offset 7, -8
 2909              		.cfi_offset 14, -4
 2910              		.loc 1 1161 0
 2911 0002 0022     		movs	r2, #0
 2912              		.loc 1 1162 0
 2913 0004 0368     		ldr	r3, [r0, #0]
 2914              		.loc 1 1161 0
 2915 0006 0271     		strb	r2, [r0, #4]
 2916              		.loc 1 1160 0
 2917 0008 0646     		mov	r6, r0
 2918              		.loc 1 1162 0
 2919 000a 5868     		ldr	r0, [r3, #4]
 2920              	.LVL322:
 2921 000c 10B1     		cbz	r0, .L454
 2922              		.loc 1 1163 0
 2923 000e 1A78     		ldrb	r2, [r3, #0]	@ zero_extendqisi2
 2924 0010 102A     		cmp	r2, #16
 2925 0012 05D0     		beq	.L462
 2926              	.L454:
 2927              		.loc 1 1179 0
 2928 0014 03F10C00 		add	r0, r3, #12
 2929              		.loc 1 1180 0
 2930 0018 BDE8F840 		pop	{r3, r4, r5, r6, r7, lr}
 2931              		.loc 1 1179 0
 2932 001c FFF7FEBF 		b	sys_sem_signal
 2933              	.LVL323:
 2934              	.L462:
 2935              	.LBB20:
 2936              		.loc 1 1170 0
 2937 0020 B468     		ldr	r4, [r6, #8]
 2938              	.LVL324:
 2939              	.LBB21:
ARM GAS  /tmp/ccKs28dn.s 			page 53


 2940              		.loc 1 1172 0
 2941 0022 4FF6FF77 		movw	r7, #65535
 2942 0026 00E0     		b	.L457
 2943              	.LVL325:
 2944              	.L463:
 2945 0028 5868     		ldr	r0, [r3, #4]
 2946              	.L457:
 2947 002a BC42     		cmp	r4, r7
 2948 002c 8DBF     		iteet	hi
 2949 002e 4FF6FF75 		movwhi	r5, #65535
 2950 0032 A1B2     		uxthls	r1, r4
 2951 0034 2546     		movls	r5, r4
 2952 0036 2946     		movhi	r1, r5
 2953              	.LVL326:
 2954              		.loc 1 1173 0
 2955 0038 FFF7FEFF 		bl	tcp_recved
 2956              	.LVL327:
 2957              	.LBE21:
 2958              		.loc 1 1175 0
 2959 003c 641B     		subs	r4, r4, r5
 2960              	.LVL328:
 2961 003e 3368     		ldr	r3, [r6, #0]
 2962 0040 F2D1     		bne	.L463
 2963 0042 E7E7     		b	.L454
 2964              	.LBE20:
 2965              		.cfi_endproc
 2966              	.LFE28:
 2967              		.size	do_recv, .-do_recv
 2968 0044 AFF30080 		.section	.text.do_write,"ax",%progbits
 2968      AFF30080 
 2968      AFF30080 
 2969              		.align	2
 2970              		.p2align 4,,15
 2971              		.global	do_write
 2972              		.thumb
 2973              		.thumb_func
 2974              		.type	do_write, %function
 2975              	do_write:
 2976              	.LFB30:
 2977              		.loc 1 1314 0
 2978              		.cfi_startproc
 2979              		@ args = 0, pretend = 0, frame = 8
 2980              		@ frame_needed = 0, uses_anonymous_args = 0
 2981              	.LVL329:
 2982 0000 00B5     		push	{lr}
 2983              	.LCFI24:
 2984              		.cfi_def_cfa_offset 4
 2985              		.cfi_offset 14, -4
 2986              		.loc 1 1315 0
 2987 0002 0368     		ldr	r3, [r0, #0]
 2988 0004 1A7A     		ldrb	r2, [r3, #8]	@ zero_extendqisi2
 2989 0006 51B2     		sxtb	r1, r2
 2990 0008 0931     		adds	r1, r1, #9
 2991              		.loc 1 1314 0
 2992 000a 83B0     		sub	sp, sp, #12
 2993              	.LCFI25:
 2994              		.cfi_def_cfa_offset 16
ARM GAS  /tmp/ccKs28dn.s 			page 54


 2995              		.loc 1 1315 0
 2996 000c 03DB     		blt	.L476
 2997              		.loc 1 1318 0
 2998 000e 1A78     		ldrb	r2, [r3, #0]	@ zero_extendqisi2
 2999 0010 102A     		cmp	r2, #16
 3000 0012 08D0     		beq	.L477
 3001              		.loc 1 1354 0
 3002 0014 FA22     		movs	r2, #250
 3003              	.L476:
 3004 0016 0271     		strb	r2, [r0, #4]
 3005              	.L466:
 3006              		.loc 1 1358 0
 3007 0018 03F10C00 		add	r0, r3, #12
 3008              	.LVL330:
 3009              		.loc 1 1359 0
 3010 001c 03B0     		add	sp, sp, #12
 3011 001e 5DF804EB 		pop	{lr}
 3012              		.loc 1 1358 0
 3013 0022 FFF7FEBF 		b	sys_sem_signal
 3014              	.LVL331:
 3015              	.L477:
 3016              		.loc 1 1320 0
 3017 0026 5A78     		ldrb	r2, [r3, #1]	@ zero_extendqisi2
 3018 0028 12B1     		cbz	r2, .L468
 3019              		.loc 1 1322 0
 3020 002a FB22     		movs	r2, #251
 3021 002c 0271     		strb	r2, [r0, #4]
 3022 002e F3E7     		b	.L466
 3023              	.L468:
 3024              		.loc 1 1323 0
 3025 0030 5A68     		ldr	r2, [r3, #4]
 3026 0032 E2B1     		cbz	r2, .L469
 3027              		.loc 1 1326 0
 3028 0034 5A6A     		ldr	r2, [r3, #36]
 3029              		.loc 1 1324 0
 3030 0036 0121     		movs	r1, #1
 3031 0038 5970     		strb	r1, [r3, #1]
 3032              		.loc 1 1326 0
 3033 003a A2B1     		cbz	r2, .L478
 3034              	.L470:
 3035              		.loc 1 1326 0 is_stmt 0 discriminator 1
 3036 003c 0190     		str	r0, [sp, #4]
 3037 003e FFF7FEFF 		bl	port_halt
 3038              	.LVL332:
 3039 0042 0198     		ldr	r0, [sp, #4]
 3040              	.L471:
 3041              		.loc 1 1328 0 is_stmt 1
 3042 0044 C368     		ldr	r3, [r0, #12]
 3043 0046 4BB1     		cbz	r3, .L479
 3044              	.L472:
 3045              		.loc 1 1329 0
 3046 0048 0368     		ldr	r3, [r0, #0]
 3047              		.loc 1 1330 0
 3048 004a 0022     		movs	r2, #0
 3049              		.loc 1 1329 0
 3050 004c 5862     		str	r0, [r3, #36]
 3051              		.loc 1 1341 0
ARM GAS  /tmp/ccKs28dn.s 			page 55


 3052 004e 1846     		mov	r0, r3
 3053              		.loc 1 1330 0
 3054 0050 1A62     		str	r2, [r3, #32]
 3055              		.loc 1 1359 0
 3056 0052 03B0     		add	sp, sp, #12
 3057 0054 5DF804EB 		pop	{lr}
 3058              		.loc 1 1341 0
 3059 0058 FFF7FEBF 		b	do_writemore
 3060              	.LVL333:
 3061              	.L479:
 3062              		.loc 1 1328 0 discriminator 1
 3063 005c 0190     		str	r0, [sp, #4]
 3064 005e FFF7FEFF 		bl	port_halt
 3065              	.LVL334:
 3066 0062 0198     		ldr	r0, [sp, #4]
 3067 0064 F0E7     		b	.L472
 3068              	.LVL335:
 3069              	.L478:
 3070              		.loc 1 1326 0 discriminator 2
 3071 0066 1B6A     		ldr	r3, [r3, #32]
 3072 0068 002B     		cmp	r3, #0
 3073 006a EBD0     		beq	.L471
 3074 006c E6E7     		b	.L470
 3075              	.L469:
 3076              		.loc 1 1347 0
 3077 006e F322     		movs	r2, #243
 3078 0070 0271     		strb	r2, [r0, #4]
 3079 0072 D1E7     		b	.L466
 3080              		.cfi_endproc
 3081              	.LFE30:
 3082              		.size	do_write, .-do_write
 3083 0074 AFF30080 		.section	.text.do_getaddr,"ax",%progbits
 3083      AFF30080 
 3083      AFF30080 
 3084              		.align	2
 3085              		.p2align 4,,15
 3086              		.global	do_getaddr
 3087              		.thumb
 3088              		.thumb_func
 3089              		.type	do_getaddr, %function
 3090              	do_getaddr:
 3091              	.LFB31:
 3092              		.loc 1 1369 0
 3093              		.cfi_startproc
 3094              		@ args = 0, pretend = 0, frame = 0
 3095              		@ frame_needed = 0, uses_anonymous_args = 0
 3096              	.LVL336:
 3097 0000 10B5     		push	{r4, lr}
 3098              	.LCFI26:
 3099              		.cfi_def_cfa_offset 8
 3100              		.cfi_offset 4, -8
 3101              		.cfi_offset 14, -4
 3102              		.loc 1 1369 0
 3103 0002 0446     		mov	r4, r0
 3104              		.loc 1 1370 0
 3105 0004 0068     		ldr	r0, [r0, #0]
 3106              	.LVL337:
ARM GAS  /tmp/ccKs28dn.s 			page 56


 3107 0006 4368     		ldr	r3, [r0, #4]
 3108 0008 002B     		cmp	r3, #0
 3109 000a 2ED0     		beq	.L481
 3110              		.loc 1 1371 0
 3111 000c 217C     		ldrb	r1, [r4, #16]	@ zero_extendqisi2
 3112 000e A268     		ldr	r2, [r4, #8]
 3113 0010 A1B9     		cbnz	r1, .L495
 3114              		.loc 1 1371 0 is_stmt 0 discriminator 2
 3115 0012 5B68     		ldr	r3, [r3, #4]
 3116 0014 1360     		str	r3, [r2, #0]
 3117              		.loc 1 1374 0 is_stmt 1 discriminator 2
 3118 0016 0023     		movs	r3, #0
 3119 0018 2371     		strb	r3, [r4, #4]
 3120              		.loc 1 1375 0 discriminator 2
 3121 001a 0378     		ldrb	r3, [r0, #0]	@ zero_extendqisi2
 3122 001c 03F0F003 		and	r3, r3, #240
 3123 0020 202B     		cmp	r3, #32
 3124 0022 14D0     		beq	.L486
 3125              	.L497:
 3126              		.loc 1 1375 0 is_stmt 0
 3127 0024 402B     		cmp	r3, #64
 3128 0026 1ED0     		beq	.L487
 3129 0028 102B     		cmp	r3, #16
 3130 002a 21D0     		beq	.L496
 3131              		.loc 1 1405 0 is_stmt 1 discriminator 1
 3132 002c FFF7FEFF 		bl	port_halt
 3133              	.LVL338:
 3134 0030 2068     		ldr	r0, [r4, #0]
 3135              	.L489:
 3136              		.loc 1 1411 0
 3137 0032 0C30     		adds	r0, r0, #12
 3138              		.loc 1 1412 0
 3139 0034 BDE81040 		pop	{r4, lr}
 3140              		.loc 1 1411 0
 3141 0038 FFF7FEBF 		b	sys_sem_signal
 3142              	.LVL339:
 3143              	.L495:
 3144              		.loc 1 1371 0 discriminator 1
 3145 003c 1B68     		ldr	r3, [r3, #0]
 3146 003e 1360     		str	r3, [r2, #0]
 3147              		.loc 1 1374 0 discriminator 1
 3148 0040 0023     		movs	r3, #0
 3149 0042 2371     		strb	r3, [r4, #4]
 3150              		.loc 1 1375 0 discriminator 1
 3151 0044 0378     		ldrb	r3, [r0, #0]	@ zero_extendqisi2
 3152 0046 03F0F003 		and	r3, r3, #240
 3153 004a 202B     		cmp	r3, #32
 3154 004c EAD1     		bne	.L497
 3155              	.L486:
 3156              		.loc 1 1388 0
 3157 004e 237C     		ldrb	r3, [r4, #16]	@ zero_extendqisi2
 3158 0050 EBB9     		cbnz	r3, .L498
 3159              		.loc 1 1391 0
 3160 0052 4368     		ldr	r3, [r0, #4]
 3161 0054 1A7C     		ldrb	r2, [r3, #16]	@ zero_extendqisi2
 3162 0056 02F00402 		and	r2, r2, #4
 3163 005a D2B2     		uxtb	r2, r2
ARM GAS  /tmp/ccKs28dn.s 			page 57


 3164 005c 2AB1     		cbz	r2, .L481
 3165              		.loc 1 1394 0
 3166 005e E268     		ldr	r2, [r4, #12]
 3167 0060 9B8A     		ldrh	r3, [r3, #20]
 3168 0062 1380     		strh	r3, [r2, #0]	@ movhi
 3169 0064 E5E7     		b	.L489
 3170              	.L487:
 3171              		.loc 1 1378 0
 3172 0066 237C     		ldrb	r3, [r4, #16]	@ zero_extendqisi2
 3173 0068 4BB9     		cbnz	r3, .L499
 3174              	.L481:
 3175              		.loc 1 1409 0
 3176 006a F323     		movs	r3, #243
 3177 006c 2371     		strb	r3, [r4, #4]
 3178 006e E0E7     		b	.L489
 3179              	.L496:
 3180              		.loc 1 1401 0
 3181 0070 227C     		ldrb	r2, [r4, #16]	@ zero_extendqisi2
 3182 0072 E368     		ldr	r3, [r4, #12]
 3183 0074 42B9     		cbnz	r2, .L500
 3184              		.loc 1 1401 0 is_stmt 0 discriminator 2
 3185 0076 4268     		ldr	r2, [r0, #4]
 3186 0078 D28B     		ldrh	r2, [r2, #30]
 3187              	.L493:
 3188              		.loc 1 1401 0 discriminator 3
 3189 007a 1A80     		strh	r2, [r3, #0]	@ movhi
 3190              		.loc 1 1402 0 is_stmt 1 discriminator 3
 3191 007c D9E7     		b	.L489
 3192              	.L499:
 3193              		.loc 1 1379 0
 3194 007e 4368     		ldr	r3, [r0, #4]
 3195 0080 E268     		ldr	r2, [r4, #12]
 3196 0082 1B7C     		ldrb	r3, [r3, #16]	@ zero_extendqisi2
 3197 0084 1380     		strh	r3, [r2, #0]	@ movhi
 3198 0086 D4E7     		b	.L489
 3199              	.L500:
 3200              		.loc 1 1401 0 discriminator 1
 3201 0088 4268     		ldr	r2, [r0, #4]
 3202 008a 928B     		ldrh	r2, [r2, #28]
 3203 008c F5E7     		b	.L493
 3204              	.L498:
 3205              		.loc 1 1389 0
 3206 008e 4368     		ldr	r3, [r0, #4]
 3207 0090 E268     		ldr	r2, [r4, #12]
 3208 0092 5B8A     		ldrh	r3, [r3, #18]
 3209 0094 1380     		strh	r3, [r2, #0]	@ movhi
 3210 0096 CCE7     		b	.L489
 3211              		.cfi_endproc
 3212              	.LFE31:
 3213              		.size	do_getaddr, .-do_getaddr
 3214 0098 AFF30080 		.section	.text.do_close,"ax",%progbits
 3214      AFF30080 
 3215              		.align	2
 3216              		.p2align 4,,15
 3217              		.global	do_close
 3218              		.thumb
 3219              		.thumb_func
ARM GAS  /tmp/ccKs28dn.s 			page 58


 3220              		.type	do_close, %function
 3221              	do_close:
 3222              	.LFB32:
 3223              		.loc 1 1422 0
 3224              		.cfi_startproc
 3225              		@ args = 0, pretend = 0, frame = 0
 3226              		@ frame_needed = 0, uses_anonymous_args = 0
 3227              	.LVL340:
 3228 0000 10B5     		push	{r4, lr}
 3229              	.LCFI27:
 3230              		.cfi_def_cfa_offset 8
 3231              		.cfi_offset 4, -8
 3232              		.cfi_offset 14, -4
 3233              		.loc 1 1422 0
 3234 0002 0446     		mov	r4, r0
 3235              		.loc 1 1425 0
 3236 0004 0068     		ldr	r0, [r0, #0]
 3237              	.LVL341:
 3238 0006 4278     		ldrb	r2, [r0, #1]	@ zero_extendqisi2
 3239 0008 12F0FD0F 		tst	r2, #253
 3240 000c 0CD0     		beq	.L502
 3241              		.loc 1 1427 0
 3242 000e 0278     		ldrb	r2, [r0, #0]	@ zero_extendqisi2
 3243 0010 102A     		cmp	r2, #16
 3244 0012 02D0     		beq	.L503
 3245              		.loc 1 1427 0 is_stmt 0 discriminator 1
 3246 0014 FFF7FEFF 		bl	port_halt
 3247              	.LVL342:
 3248 0018 2068     		ldr	r0, [r4, #0]
 3249              	.L503:
 3250              		.loc 1 1428 0 is_stmt 1
 3251 001a FB22     		movs	r2, #251
 3252 001c 2271     		strb	r2, [r4, #4]
 3253              	.L504:
 3254              		.loc 1 1451 0
 3255 001e 0C30     		adds	r0, r0, #12
 3256              		.loc 1 1452 0
 3257 0020 BDE81040 		pop	{r4, lr}
 3258              		.loc 1 1451 0
 3259 0024 FFF7FEBF 		b	sys_sem_signal
 3260              	.LVL343:
 3261              	.L502:
 3262              		.loc 1 1429 0
 3263 0028 4168     		ldr	r1, [r0, #4]
 3264 002a 11B1     		cbz	r1, .L505
 3265              		.loc 1 1429 0 is_stmt 0 discriminator 1
 3266 002c 0178     		ldrb	r1, [r0, #0]	@ zero_extendqisi2
 3267 002e 1029     		cmp	r1, #16
 3268 0030 02D0     		beq	.L526
 3269              	.L505:
 3270              		.loc 1 1449 0 is_stmt 1
 3271 0032 FA22     		movs	r2, #250
 3272 0034 2271     		strb	r2, [r4, #4]
 3273 0036 F2E7     		b	.L504
 3274              	.L526:
 3275              		.loc 1 1430 0
 3276 0038 217A     		ldrb	r1, [r4, #8]	@ zero_extendqisi2
ARM GAS  /tmp/ccKs28dn.s 			page 59


 3277 003a 0329     		cmp	r1, #3
 3278 003c 13D0     		beq	.L506
 3279              		.loc 1 1430 0 is_stmt 0 discriminator 1
 3280 003e 022A     		cmp	r2, #2
 3281 0040 15D0     		beq	.L527
 3282              		.loc 1 1434 0 is_stmt 1
 3283 0042 C907     		lsls	r1, r1, #31
 3284 0044 0FD4     		bmi	.L506
 3285              	.L508:
 3286              		.loc 1 1438 0
 3287 0046 426A     		ldr	r2, [r0, #36]
 3288 0048 4AB1     		cbz	r2, .L528
 3289              	.L509:
 3290              		.loc 1 1438 0 is_stmt 0 discriminator 1
 3291 004a FFF7FEFF 		bl	port_halt
 3292              	.LVL344:
 3293 004e 2068     		ldr	r0, [r4, #0]
 3294              	.L510:
 3295              		.loc 1 1440 0 is_stmt 1
 3296 0050 0422     		movs	r2, #4
 3297 0052 4270     		strb	r2, [r0, #1]
 3298              		.loc 1 1441 0
 3299 0054 4462     		str	r4, [r0, #36]
 3300              		.loc 1 1452 0
 3301 0056 BDE81040 		pop	{r4, lr}
 3302              		.loc 1 1442 0
 3303 005a FFF7FEBF 		b	do_close_internal
 3304              	.LVL345:
 3305              	.L528:
 3306              		.loc 1 1438 0 discriminator 2
 3307 005e 026A     		ldr	r2, [r0, #32]
 3308 0060 002A     		cmp	r2, #0
 3309 0062 F2D1     		bne	.L509
 3310 0064 F4E7     		b	.L510
 3311              	.L506:
 3312              		.loc 1 1436 0
 3313 0066 FFF7FEFF 		bl	netconn_drain
 3314              	.LVL346:
 3315 006a 2068     		ldr	r0, [r4, #0]
 3316 006c EBE7     		b	.L508
 3317              	.L527:
 3318              		.loc 1 1432 0
 3319 006e F322     		movs	r2, #243
 3320 0070 2271     		strb	r2, [r4, #4]
 3321              		.loc 1 1430 0
 3322 0072 D4E7     		b	.L504
 3323              		.cfi_endproc
 3324              	.LFE32:
 3325              		.size	do_close, .-do_close
 3326 0074 AFF30080 		.text
 3326      AFF30080 
 3326      AFF30080 
 3327              	.Letext0:
 3328              		.file 2 "/opt/psas/x-tools/stm32f407/arm-psas-eabi/bin/../lib/gcc/arm-psas-eabi/4.7.2/include/stdd
 3329              		.file 3 "/opt/psas/x-tools/stm32f407/arm-psas-eabi/bin/../lib/gcc/arm-psas-eabi/4.7.2/../../../../
 3330              		.file 4 "../../os/ports/GCC/ARMCMx/chtypes.h"
 3331              		.file 5 "../../os/kernel/include/chlists.h"
ARM GAS  /tmp/ccKs28dn.s 			page 60


 3332              		.file 6 "../../os/kernel/include/chthreads.h"
 3333              		.file 7 "../../os/ports/GCC/ARMCMx/chcore_v7m.h"
 3334              		.file 8 "../../os/kernel/include/chsem.h"
 3335              		.file 9 "../../os/kernel/include/chmtx.h"
 3336              		.file 10 "../../os/kernel/include/chmboxes.h"
 3337              		.file 11 "../../os/various/lwip_bindings/arch/cc.h"
 3338              		.file 12 "../../ext/lwip/src/include/ipv4/lwip/ip_addr.h"
 3339              		.file 13 "../../ext/lwip/src/include/lwip/err.h"
 3340              		.file 14 "../../os/various/lwip_bindings/arch/sys_arch.h"
 3341              		.file 15 "../../ext/lwip/src/include/lwip/pbuf.h"
 3342              		.file 16 "../../ext/lwip/src/include/lwip/netbuf.h"
 3343              		.file 17 "../../ext/lwip/src/include/lwip/api.h"
 3344              		.file 18 "../../ext/lwip/src/include/ipv4/lwip/ip.h"
 3345              		.file 19 "../../ext/lwip/src/include/lwip/tcp.h"
 3346              		.file 20 "../../ext/lwip/src/include/lwip/udp.h"
 3347              		.file 21 "../../ext/lwip/src/include/lwip/raw.h"
 3348              		.file 22 "../../ext/lwip/src/include/lwip/api_msg.h"
 3349              		.file 23 "../../ext/lwip/src/include/lwip/memp.h"
 3350              		.file 24 "../../ext/lwip/src/include/lwip/sys.h"
 3351              		.section	.debug_info,"",%progbits
 3352              	.Ldebug_info0:
 3353 0000 ED290000 		.4byte	0x29ed
 3354 0004 0200     		.2byte	0x2
 3355 0006 00000000 		.4byte	.Ldebug_abbrev0
 3356 000a 04       		.byte	0x4
 3357 000b 01       		.uleb128 0x1
 3358 000c 7A020000 		.4byte	.LASF311
 3359 0010 01       		.byte	0x1
 3360 0011 160D0000 		.4byte	.LASF312
 3361 0015 59070000 		.4byte	.LASF313
 3362 0019 58000000 		.4byte	.Ldebug_ranges0+0x58
 3363 001d 00000000 		.4byte	0
 3364 0021 00000000 		.4byte	0
 3365 0025 00000000 		.4byte	.Ldebug_line0
 3366 0029 02       		.uleb128 0x2
 3367 002a 04       		.byte	0x4
 3368 002b 05       		.byte	0x5
 3369 002c 696E7400 		.ascii	"int\000"
 3370 0030 03       		.uleb128 0x3
 3371 0031 FB030000 		.4byte	.LASF1
 3372 0035 02       		.byte	0x2
 3373 0036 D5       		.byte	0xd5
 3374 0037 3B000000 		.4byte	0x3b
 3375 003b 04       		.uleb128 0x4
 3376 003c 04       		.byte	0x4
 3377 003d 07       		.byte	0x7
 3378 003e 23010000 		.4byte	.LASF0
 3379 0042 03       		.uleb128 0x3
 3380 0043 62020000 		.4byte	.LASF2
 3381 0047 03       		.byte	0x3
 3382 0048 29       		.byte	0x29
 3383 0049 4D000000 		.4byte	0x4d
 3384 004d 04       		.uleb128 0x4
 3385 004e 01       		.byte	0x1
 3386 004f 06       		.byte	0x6
 3387 0050 5A0C0000 		.4byte	.LASF3
 3388 0054 03       		.uleb128 0x3
ARM GAS  /tmp/ccKs28dn.s 			page 61


 3389 0055 CC050000 		.4byte	.LASF4
 3390 0059 03       		.byte	0x3
 3391 005a 2A       		.byte	0x2a
 3392 005b 5F000000 		.4byte	0x5f
 3393 005f 04       		.uleb128 0x4
 3394 0060 01       		.byte	0x1
 3395 0061 08       		.byte	0x8
 3396 0062 ED0A0000 		.4byte	.LASF5
 3397 0066 03       		.uleb128 0x3
 3398 0067 BE020000 		.4byte	.LASF6
 3399 006b 03       		.byte	0x3
 3400 006c 35       		.byte	0x35
 3401 006d 71000000 		.4byte	0x71
 3402 0071 04       		.uleb128 0x4
 3403 0072 02       		.byte	0x2
 3404 0073 05       		.byte	0x5
 3405 0074 B1080000 		.4byte	.LASF7
 3406 0078 03       		.uleb128 0x3
 3407 0079 2D080000 		.4byte	.LASF8
 3408 007d 03       		.byte	0x3
 3409 007e 36       		.byte	0x36
 3410 007f 83000000 		.4byte	0x83
 3411 0083 04       		.uleb128 0x4
 3412 0084 02       		.byte	0x2
 3413 0085 07       		.byte	0x7
 3414 0086 6E0C0000 		.4byte	.LASF9
 3415 008a 03       		.uleb128 0x3
 3416 008b 7C0A0000 		.4byte	.LASF10
 3417 008f 03       		.byte	0x3
 3418 0090 4F       		.byte	0x4f
 3419 0091 95000000 		.4byte	0x95
 3420 0095 04       		.uleb128 0x4
 3421 0096 04       		.byte	0x4
 3422 0097 05       		.byte	0x5
 3423 0098 E8080000 		.4byte	.LASF11
 3424 009c 03       		.uleb128 0x3
 3425 009d 59020000 		.4byte	.LASF12
 3426 00a1 03       		.byte	0x3
 3427 00a2 50       		.byte	0x50
 3428 00a3 A7000000 		.4byte	0xa7
 3429 00a7 04       		.uleb128 0x4
 3430 00a8 04       		.byte	0x4
 3431 00a9 07       		.byte	0x7
 3432 00aa 320A0000 		.4byte	.LASF13
 3433 00ae 04       		.uleb128 0x4
 3434 00af 08       		.byte	0x8
 3435 00b0 05       		.byte	0x5
 3436 00b1 60060000 		.4byte	.LASF14
 3437 00b5 04       		.uleb128 0x4
 3438 00b6 08       		.byte	0x8
 3439 00b7 07       		.byte	0x7
 3440 00b8 F0020000 		.4byte	.LASF15
 3441 00bc 03       		.uleb128 0x3
 3442 00bd 08080000 		.4byte	.LASF16
 3443 00c1 04       		.byte	0x4
 3444 00c2 28       		.byte	0x28
 3445 00c3 54000000 		.4byte	0x54
ARM GAS  /tmp/ccKs28dn.s 			page 62


 3446 00c7 03       		.uleb128 0x3
 3447 00c8 9F050000 		.4byte	.LASF17
 3448 00cc 04       		.byte	0x4
 3449 00cd 29       		.byte	0x29
 3450 00ce 54000000 		.4byte	0x54
 3451 00d2 03       		.uleb128 0x3
 3452 00d3 2A0A0000 		.4byte	.LASF18
 3453 00d7 04       		.byte	0x4
 3454 00d8 2A       		.byte	0x2a
 3455 00d9 54000000 		.4byte	0x54
 3456 00dd 03       		.uleb128 0x3
 3457 00de A3070000 		.4byte	.LASF19
 3458 00e2 04       		.byte	0x4
 3459 00e3 2B       		.byte	0x2b
 3460 00e4 54000000 		.4byte	0x54
 3461 00e8 03       		.uleb128 0x3
 3462 00e9 AB020000 		.4byte	.LASF20
 3463 00ed 04       		.byte	0x4
 3464 00ee 2C       		.byte	0x2c
 3465 00ef 9C000000 		.4byte	0x9c
 3466 00f3 03       		.uleb128 0x3
 3467 00f4 A0060000 		.4byte	.LASF21
 3468 00f8 04       		.byte	0x4
 3469 00f9 2D       		.byte	0x2d
 3470 00fa 8A000000 		.4byte	0x8a
 3471 00fe 03       		.uleb128 0x3
 3472 00ff 6E020000 		.4byte	.LASF22
 3473 0103 04       		.byte	0x4
 3474 0104 2F       		.byte	0x2f
 3475 0105 9C000000 		.4byte	0x9c
 3476 0109 03       		.uleb128 0x3
 3477 010a C4000000 		.4byte	.LASF23
 3478 010e 04       		.byte	0x4
 3479 010f 31       		.byte	0x31
 3480 0110 9C000000 		.4byte	0x9c
 3481 0114 03       		.uleb128 0x3
 3482 0115 3B030000 		.4byte	.LASF24
 3483 0119 04       		.byte	0x4
 3484 011a 32       		.byte	0x32
 3485 011b 8A000000 		.4byte	0x8a
 3486 011f 03       		.uleb128 0x3
 3487 0120 92050000 		.4byte	.LASF25
 3488 0124 05       		.byte	0x5
 3489 0125 23       		.byte	0x23
 3490 0126 2A010000 		.4byte	0x12a
 3491 012a 05       		.uleb128 0x5
 3492 012b 92050000 		.4byte	.LASF25
 3493 012f 48       		.byte	0x48
 3494 0130 06       		.byte	0x6
 3495 0131 57       		.byte	0x57
 3496 0132 4F020000 		.4byte	0x24f
 3497 0136 06       		.uleb128 0x6
 3498 0137 41090000 		.4byte	.LASF26
 3499 013b 06       		.byte	0x6
 3500 013c 58       		.byte	0x58
 3501 013d 74020000 		.4byte	0x274
 3502 0141 02       		.byte	0x2
ARM GAS  /tmp/ccKs28dn.s 			page 63


 3503 0142 23       		.byte	0x23
 3504 0143 00       		.uleb128 0
 3505 0144 06       		.uleb128 0x6
 3506 0145 1A0A0000 		.4byte	.LASF27
 3507 0149 06       		.byte	0x6
 3508 014a 5A       		.byte	0x5a
 3509 014b 74020000 		.4byte	0x274
 3510 014f 02       		.byte	0x2
 3511 0150 23       		.byte	0x23
 3512 0151 04       		.uleb128 0x4
 3513 0152 06       		.uleb128 0x6
 3514 0153 85000000 		.4byte	.LASF28
 3515 0157 06       		.byte	0x6
 3516 0158 5C       		.byte	0x5c
 3517 0159 E8000000 		.4byte	0xe8
 3518 015d 02       		.byte	0x2
 3519 015e 23       		.byte	0x23
 3520 015f 08       		.uleb128 0x8
 3521 0160 06       		.uleb128 0x6
 3522 0161 68090000 		.4byte	.LASF29
 3523 0165 06       		.byte	0x6
 3524 0166 5D       		.byte	0x5d
 3525 0167 42030000 		.4byte	0x342
 3526 016b 02       		.byte	0x2
 3527 016c 23       		.byte	0x23
 3528 016d 0C       		.uleb128 0xc
 3529 016e 06       		.uleb128 0x6
 3530 016f 6D030000 		.4byte	.LASF30
 3531 0173 06       		.byte	0x6
 3532 0174 5F       		.byte	0x5f
 3533 0175 74020000 		.4byte	0x274
 3534 0179 02       		.byte	0x2
 3535 017a 23       		.byte	0x23
 3536 017b 10       		.uleb128 0x10
 3537 017c 06       		.uleb128 0x6
 3538 017d B7050000 		.4byte	.LASF31
 3539 0181 06       		.byte	0x6
 3540 0182 60       		.byte	0x60
 3541 0183 74020000 		.4byte	0x274
 3542 0187 02       		.byte	0x2
 3543 0188 23       		.byte	0x23
 3544 0189 14       		.uleb128 0x14
 3545 018a 06       		.uleb128 0x6
 3546 018b 13050000 		.4byte	.LASF32
 3547 018f 06       		.byte	0x6
 3548 0190 67       		.byte	0x67
 3549 0191 90040000 		.4byte	0x490
 3550 0195 02       		.byte	0x2
 3551 0196 23       		.byte	0x23
 3552 0197 18       		.uleb128 0x18
 3553 0198 06       		.uleb128 0x6
 3554 0199 BF050000 		.4byte	.LASF33
 3555 019d 06       		.byte	0x6
 3556 019e 72       		.byte	0x72
 3557 019f C7000000 		.4byte	0xc7
 3558 01a3 02       		.byte	0x2
 3559 01a4 23       		.byte	0x23
ARM GAS  /tmp/ccKs28dn.s 			page 64


 3560 01a5 1C       		.uleb128 0x1c
 3561 01a6 06       		.uleb128 0x6
 3562 01a7 DF060000 		.4byte	.LASF34
 3563 01ab 06       		.byte	0x6
 3564 01ac 76       		.byte	0x76
 3565 01ad BC000000 		.4byte	0xbc
 3566 01b1 02       		.byte	0x2
 3567 01b2 23       		.byte	0x23
 3568 01b3 1D       		.uleb128 0x1d
 3569 01b4 06       		.uleb128 0x6
 3570 01b5 230B0000 		.4byte	.LASF35
 3571 01b9 06       		.byte	0x6
 3572 01ba 7B       		.byte	0x7b
 3573 01bb D2000000 		.4byte	0xd2
 3574 01bf 02       		.byte	0x2
 3575 01c0 23       		.byte	0x23
 3576 01c1 1E       		.uleb128 0x1e
 3577 01c2 06       		.uleb128 0x6
 3578 01c3 980B0000 		.4byte	.LASF36
 3579 01c7 06       		.byte	0x6
 3580 01c8 81       		.byte	0x81
 3581 01c9 DD000000 		.4byte	0xdd
 3582 01cd 02       		.byte	0x2
 3583 01ce 23       		.byte	0x23
 3584 01cf 1F       		.uleb128 0x1f
 3585 01d0 06       		.uleb128 0x6
 3586 01d1 53000000 		.4byte	.LASF37
 3587 01d5 06       		.byte	0x6
 3588 01d6 88       		.byte	0x88
 3589 01d7 6C030000 		.4byte	0x36c
 3590 01db 02       		.byte	0x2
 3591 01dc 23       		.byte	0x23
 3592 01dd 20       		.uleb128 0x20
 3593 01de 07       		.uleb128 0x7
 3594 01df 705F7500 		.ascii	"p_u\000"
 3595 01e3 06       		.byte	0x6
 3596 01e4 AD       		.byte	0xad
 3597 01e5 5B040000 		.4byte	0x45b
 3598 01e9 02       		.byte	0x2
 3599 01ea 23       		.byte	0x23
 3600 01eb 24       		.uleb128 0x24
 3601 01ec 06       		.uleb128 0x6
 3602 01ed 0C000000 		.4byte	.LASF38
 3603 01f1 06       		.byte	0x6
 3604 01f2 B2       		.byte	0xb2
 3605 01f3 9C020000 		.4byte	0x29c
 3606 01f7 02       		.byte	0x2
 3607 01f8 23       		.byte	0x23
 3608 01f9 28       		.uleb128 0x28
 3609 01fa 06       		.uleb128 0x6
 3610 01fb 18010000 		.4byte	.LASF39
 3611 01ff 06       		.byte	0x6
 3612 0200 B8       		.byte	0xb8
 3613 0201 7A020000 		.4byte	0x27a
 3614 0205 02       		.byte	0x2
 3615 0206 23       		.byte	0x23
 3616 0207 2C       		.uleb128 0x2c
ARM GAS  /tmp/ccKs28dn.s 			page 65


 3617 0208 06       		.uleb128 0x6
 3618 0209 FA070000 		.4byte	.LASF40
 3619 020d 06       		.byte	0x6
 3620 020e BC       		.byte	0xbc
 3621 020f F3000000 		.4byte	0xf3
 3622 0213 02       		.byte	0x2
 3623 0214 23       		.byte	0x23
 3624 0215 34       		.uleb128 0x34
 3625 0216 06       		.uleb128 0x6
 3626 0217 CD080000 		.4byte	.LASF41
 3627 021b 06       		.byte	0x6
 3628 021c C2       		.byte	0xc2
 3629 021d FE000000 		.4byte	0xfe
 3630 0221 02       		.byte	0x2
 3631 0222 23       		.byte	0x23
 3632 0223 38       		.uleb128 0x38
 3633 0224 06       		.uleb128 0x6
 3634 0225 F7050000 		.4byte	.LASF42
 3635 0229 06       		.byte	0x6
 3636 022a C9       		.byte	0xc9
 3637 022b A2040000 		.4byte	0x4a2
 3638 022f 02       		.byte	0x2
 3639 0230 23       		.byte	0x23
 3640 0231 3C       		.uleb128 0x3c
 3641 0232 06       		.uleb128 0x6
 3642 0233 8D080000 		.4byte	.LASF43
 3643 0237 06       		.byte	0x6
 3644 0238 CD       		.byte	0xcd
 3645 0239 E8000000 		.4byte	0xe8
 3646 023d 02       		.byte	0x2
 3647 023e 23       		.byte	0x23
 3648 023f 40       		.uleb128 0x40
 3649 0240 06       		.uleb128 0x6
 3650 0241 EF050000 		.4byte	.LASF44
 3651 0245 06       		.byte	0x6
 3652 0246 D3       		.byte	0xd3
 3653 0247 B2020000 		.4byte	0x2b2
 3654 024b 02       		.byte	0x2
 3655 024c 23       		.byte	0x23
 3656 024d 44       		.uleb128 0x44
 3657 024e 00       		.byte	0
 3658 024f 08       		.uleb128 0x8
 3659 0250 08       		.byte	0x8
 3660 0251 05       		.byte	0x5
 3661 0252 5A       		.byte	0x5a
 3662 0253 74020000 		.4byte	0x274
 3663 0257 06       		.uleb128 0x6
 3664 0258 41090000 		.4byte	.LASF26
 3665 025c 05       		.byte	0x5
 3666 025d 5B       		.byte	0x5b
 3667 025e 74020000 		.4byte	0x274
 3668 0262 02       		.byte	0x2
 3669 0263 23       		.byte	0x23
 3670 0264 00       		.uleb128 0
 3671 0265 06       		.uleb128 0x6
 3672 0266 1A0A0000 		.4byte	.LASF27
 3673 026a 05       		.byte	0x5
ARM GAS  /tmp/ccKs28dn.s 			page 66


 3674 026b 5D       		.byte	0x5d
 3675 026c 74020000 		.4byte	0x274
 3676 0270 02       		.byte	0x2
 3677 0271 23       		.byte	0x23
 3678 0272 04       		.uleb128 0x4
 3679 0273 00       		.byte	0
 3680 0274 09       		.uleb128 0x9
 3681 0275 04       		.byte	0x4
 3682 0276 1F010000 		.4byte	0x11f
 3683 027a 03       		.uleb128 0x3
 3684 027b 4A050000 		.4byte	.LASF45
 3685 027f 05       		.byte	0x5
 3686 0280 5F       		.byte	0x5f
 3687 0281 4F020000 		.4byte	0x24f
 3688 0285 08       		.uleb128 0x8
 3689 0286 04       		.byte	0x4
 3690 0287 05       		.byte	0x5
 3691 0288 64       		.byte	0x64
 3692 0289 9C020000 		.4byte	0x29c
 3693 028d 06       		.uleb128 0x6
 3694 028e 41090000 		.4byte	.LASF26
 3695 0292 05       		.byte	0x5
 3696 0293 66       		.byte	0x66
 3697 0294 74020000 		.4byte	0x274
 3698 0298 02       		.byte	0x2
 3699 0299 23       		.byte	0x23
 3700 029a 00       		.uleb128 0
 3701 029b 00       		.byte	0
 3702 029c 03       		.uleb128 0x3
 3703 029d 00000000 		.4byte	.LASF46
 3704 02a1 05       		.byte	0x5
 3705 02a2 69       		.byte	0x69
 3706 02a3 85020000 		.4byte	0x285
 3707 02a7 03       		.uleb128 0x3
 3708 02a8 7C000000 		.4byte	.LASF47
 3709 02ac 07       		.byte	0x7
 3710 02ad DE       		.byte	0xde
 3711 02ae B2020000 		.4byte	0x2b2
 3712 02b2 0A       		.uleb128 0xa
 3713 02b3 04       		.byte	0x4
 3714 02b4 0B       		.uleb128 0xb
 3715 02b5 48080000 		.4byte	.LASF48
 3716 02b9 24       		.byte	0x24
 3717 02ba 07       		.byte	0x7
 3718 02bb 0501     		.2byte	0x105
 3719 02bd 42030000 		.4byte	0x342
 3720 02c1 0C       		.uleb128 0xc
 3721 02c2 723400   		.ascii	"r4\000"
 3722 02c5 07       		.byte	0x7
 3723 02c6 1801     		.2byte	0x118
 3724 02c8 A7020000 		.4byte	0x2a7
 3725 02cc 02       		.byte	0x2
 3726 02cd 23       		.byte	0x23
 3727 02ce 00       		.uleb128 0
 3728 02cf 0C       		.uleb128 0xc
 3729 02d0 723500   		.ascii	"r5\000"
 3730 02d3 07       		.byte	0x7
ARM GAS  /tmp/ccKs28dn.s 			page 67


 3731 02d4 1901     		.2byte	0x119
 3732 02d6 A7020000 		.4byte	0x2a7
 3733 02da 02       		.byte	0x2
 3734 02db 23       		.byte	0x23
 3735 02dc 04       		.uleb128 0x4
 3736 02dd 0C       		.uleb128 0xc
 3737 02de 723600   		.ascii	"r6\000"
 3738 02e1 07       		.byte	0x7
 3739 02e2 1A01     		.2byte	0x11a
 3740 02e4 A7020000 		.4byte	0x2a7
 3741 02e8 02       		.byte	0x2
 3742 02e9 23       		.byte	0x23
 3743 02ea 08       		.uleb128 0x8
 3744 02eb 0C       		.uleb128 0xc
 3745 02ec 723700   		.ascii	"r7\000"
 3746 02ef 07       		.byte	0x7
 3747 02f0 1B01     		.2byte	0x11b
 3748 02f2 A7020000 		.4byte	0x2a7
 3749 02f6 02       		.byte	0x2
 3750 02f7 23       		.byte	0x23
 3751 02f8 0C       		.uleb128 0xc
 3752 02f9 0C       		.uleb128 0xc
 3753 02fa 723800   		.ascii	"r8\000"
 3754 02fd 07       		.byte	0x7
 3755 02fe 1C01     		.2byte	0x11c
 3756 0300 A7020000 		.4byte	0x2a7
 3757 0304 02       		.byte	0x2
 3758 0305 23       		.byte	0x23
 3759 0306 10       		.uleb128 0x10
 3760 0307 0C       		.uleb128 0xc
 3761 0308 723900   		.ascii	"r9\000"
 3762 030b 07       		.byte	0x7
 3763 030c 1D01     		.2byte	0x11d
 3764 030e A7020000 		.4byte	0x2a7
 3765 0312 02       		.byte	0x2
 3766 0313 23       		.byte	0x23
 3767 0314 14       		.uleb128 0x14
 3768 0315 0C       		.uleb128 0xc
 3769 0316 72313000 		.ascii	"r10\000"
 3770 031a 07       		.byte	0x7
 3771 031b 1E01     		.2byte	0x11e
 3772 031d A7020000 		.4byte	0x2a7
 3773 0321 02       		.byte	0x2
 3774 0322 23       		.byte	0x23
 3775 0323 18       		.uleb128 0x18
 3776 0324 0C       		.uleb128 0xc
 3777 0325 72313100 		.ascii	"r11\000"
 3778 0329 07       		.byte	0x7
 3779 032a 1F01     		.2byte	0x11f
 3780 032c A7020000 		.4byte	0x2a7
 3781 0330 02       		.byte	0x2
 3782 0331 23       		.byte	0x23
 3783 0332 1C       		.uleb128 0x1c
 3784 0333 0C       		.uleb128 0xc
 3785 0334 6C7200   		.ascii	"lr\000"
 3786 0337 07       		.byte	0x7
 3787 0338 2001     		.2byte	0x120
ARM GAS  /tmp/ccKs28dn.s 			page 68


 3788 033a A7020000 		.4byte	0x2a7
 3789 033e 02       		.byte	0x2
 3790 033f 23       		.byte	0x23
 3791 0340 20       		.uleb128 0x20
 3792 0341 00       		.byte	0
 3793 0342 0B       		.uleb128 0xb
 3794 0343 B8060000 		.4byte	.LASF49
 3795 0347 04       		.byte	0x4
 3796 0348 07       		.byte	0x7
 3797 0349 2A01     		.2byte	0x12a
 3798 034b 5F030000 		.4byte	0x35f
 3799 034f 0C       		.uleb128 0xc
 3800 0350 72313300 		.ascii	"r13\000"
 3801 0354 07       		.byte	0x7
 3802 0355 2B01     		.2byte	0x12b
 3803 0357 5F030000 		.4byte	0x35f
 3804 035b 02       		.byte	0x2
 3805 035c 23       		.byte	0x23
 3806 035d 00       		.uleb128 0
 3807 035e 00       		.byte	0
 3808 035f 09       		.uleb128 0x9
 3809 0360 04       		.byte	0x4
 3810 0361 B4020000 		.4byte	0x2b4
 3811 0365 04       		.uleb128 0x4
 3812 0366 04       		.byte	0x4
 3813 0367 07       		.byte	0x7
 3814 0368 210A0000 		.4byte	.LASF50
 3815 036c 0D       		.uleb128 0xd
 3816 036d 09010000 		.4byte	0x109
 3817 0371 05       		.uleb128 0x5
 3818 0372 BC090000 		.4byte	.LASF51
 3819 0376 0C       		.byte	0xc
 3820 0377 08       		.byte	0x8
 3821 0378 25       		.byte	0x25
 3822 0379 9A030000 		.4byte	0x39a
 3823 037d 06       		.uleb128 0x6
 3824 037e F4000000 		.4byte	.LASF52
 3825 0382 08       		.byte	0x8
 3826 0383 26       		.byte	0x26
 3827 0384 7A020000 		.4byte	0x27a
 3828 0388 02       		.byte	0x2
 3829 0389 23       		.byte	0x23
 3830 038a 00       		.uleb128 0
 3831 038b 06       		.uleb128 0x6
 3832 038c 3A020000 		.4byte	.LASF53
 3833 0390 08       		.byte	0x8
 3834 0391 28       		.byte	0x28
 3835 0392 14010000 		.4byte	0x114
 3836 0396 02       		.byte	0x2
 3837 0397 23       		.byte	0x23
 3838 0398 08       		.uleb128 0x8
 3839 0399 00       		.byte	0
 3840 039a 03       		.uleb128 0x3
 3841 039b BC090000 		.4byte	.LASF51
 3842 039f 08       		.byte	0x8
 3843 03a0 29       		.byte	0x29
 3844 03a1 71030000 		.4byte	0x371
ARM GAS  /tmp/ccKs28dn.s 			page 69


 3845 03a5 05       		.uleb128 0x5
 3846 03a6 AC040000 		.4byte	.LASF54
 3847 03aa 10       		.byte	0x10
 3848 03ab 09       		.byte	0x9
 3849 03ac 25       		.byte	0x25
 3850 03ad DC030000 		.4byte	0x3dc
 3851 03b1 06       		.uleb128 0x6
 3852 03b2 D8080000 		.4byte	.LASF55
 3853 03b6 09       		.byte	0x9
 3854 03b7 26       		.byte	0x26
 3855 03b8 7A020000 		.4byte	0x27a
 3856 03bc 02       		.byte	0x2
 3857 03bd 23       		.byte	0x23
 3858 03be 00       		.uleb128 0
 3859 03bf 06       		.uleb128 0x6
 3860 03c0 EC000000 		.4byte	.LASF56
 3861 03c4 09       		.byte	0x9
 3862 03c5 28       		.byte	0x28
 3863 03c6 74020000 		.4byte	0x274
 3864 03ca 02       		.byte	0x2
 3865 03cb 23       		.byte	0x23
 3866 03cc 08       		.uleb128 0x8
 3867 03cd 06       		.uleb128 0x6
 3868 03ce 4B0C0000 		.4byte	.LASF57
 3869 03d2 09       		.byte	0x9
 3870 03d3 2A       		.byte	0x2a
 3871 03d4 DC030000 		.4byte	0x3dc
 3872 03d8 02       		.byte	0x2
 3873 03d9 23       		.byte	0x23
 3874 03da 0C       		.uleb128 0xc
 3875 03db 00       		.byte	0
 3876 03dc 09       		.uleb128 0x9
 3877 03dd 04       		.byte	0x4
 3878 03de A5030000 		.4byte	0x3a5
 3879 03e2 03       		.uleb128 0x3
 3880 03e3 AC040000 		.4byte	.LASF54
 3881 03e7 09       		.byte	0x9
 3882 03e8 2C       		.byte	0x2c
 3883 03e9 A5030000 		.4byte	0x3a5
 3884 03ed 08       		.uleb128 0x8
 3885 03ee 28       		.byte	0x28
 3886 03ef 0A       		.byte	0xa
 3887 03f0 2C       		.byte	0x2c
 3888 03f1 4A040000 		.4byte	0x44a
 3889 03f5 06       		.uleb128 0x6
 3890 03f6 440A0000 		.4byte	.LASF58
 3891 03fa 0A       		.byte	0xa
 3892 03fb 2D       		.byte	0x2d
 3893 03fc 4A040000 		.4byte	0x44a
 3894 0400 02       		.byte	0x2
 3895 0401 23       		.byte	0x23
 3896 0402 00       		.uleb128 0
 3897 0403 06       		.uleb128 0x6
 3898 0404 39070000 		.4byte	.LASF59
 3899 0408 0A       		.byte	0xa
 3900 0409 2F       		.byte	0x2f
 3901 040a 4A040000 		.4byte	0x44a
ARM GAS  /tmp/ccKs28dn.s 			page 70


 3902 040e 02       		.byte	0x2
 3903 040f 23       		.byte	0x23
 3904 0410 04       		.uleb128 0x4
 3905 0411 06       		.uleb128 0x6
 3906 0412 BB080000 		.4byte	.LASF60
 3907 0416 0A       		.byte	0xa
 3908 0417 31       		.byte	0x31
 3909 0418 4A040000 		.4byte	0x44a
 3910 041c 02       		.byte	0x2
 3911 041d 23       		.byte	0x23
 3912 041e 08       		.uleb128 0x8
 3913 041f 06       		.uleb128 0x6
 3914 0420 31040000 		.4byte	.LASF61
 3915 0424 0A       		.byte	0xa
 3916 0425 32       		.byte	0x32
 3917 0426 4A040000 		.4byte	0x44a
 3918 042a 02       		.byte	0x2
 3919 042b 23       		.byte	0x23
 3920 042c 0C       		.uleb128 0xc
 3921 042d 06       		.uleb128 0x6
 3922 042e D4050000 		.4byte	.LASF62
 3923 0432 0A       		.byte	0xa
 3924 0433 33       		.byte	0x33
 3925 0434 9A030000 		.4byte	0x39a
 3926 0438 02       		.byte	0x2
 3927 0439 23       		.byte	0x23
 3928 043a 10       		.uleb128 0x10
 3929 043b 06       		.uleb128 0x6
 3930 043c B2040000 		.4byte	.LASF63
 3931 0440 0A       		.byte	0xa
 3932 0441 35       		.byte	0x35
 3933 0442 9A030000 		.4byte	0x39a
 3934 0446 02       		.byte	0x2
 3935 0447 23       		.byte	0x23
 3936 0448 1C       		.uleb128 0x1c
 3937 0449 00       		.byte	0
 3938 044a 09       		.uleb128 0x9
 3939 044b 04       		.byte	0x4
 3940 044c F3000000 		.4byte	0xf3
 3941 0450 03       		.uleb128 0x3
 3942 0451 F7010000 		.4byte	.LASF64
 3943 0455 0A       		.byte	0xa
 3944 0456 37       		.byte	0x37
 3945 0457 ED030000 		.4byte	0x3ed
 3946 045b 0E       		.uleb128 0xe
 3947 045c 04       		.byte	0x4
 3948 045d 06       		.byte	0x6
 3949 045e 8F       		.byte	0x8f
 3950 045f 90040000 		.4byte	0x490
 3951 0463 0F       		.uleb128 0xf
 3952 0464 02040000 		.4byte	.LASF65
 3953 0468 06       		.byte	0x6
 3954 0469 96       		.byte	0x96
 3955 046a F3000000 		.4byte	0xf3
 3956 046e 0F       		.uleb128 0xf
 3957 046f 0D0D0000 		.4byte	.LASF66
 3958 0473 06       		.byte	0x6
ARM GAS  /tmp/ccKs28dn.s 			page 71


 3959 0474 9D       		.byte	0x9d
 3960 0475 F3000000 		.4byte	0xf3
 3961 0479 0F       		.uleb128 0xf
 3962 047a 93010000 		.4byte	.LASF67
 3963 047e 06       		.byte	0x6
 3964 047f A4       		.byte	0xa4
 3965 0480 B2020000 		.4byte	0x2b2
 3966 0484 0F       		.uleb128 0xf
 3967 0485 CC010000 		.4byte	.LASF68
 3968 0489 06       		.byte	0x6
 3969 048a AB       		.byte	0xab
 3970 048b FE000000 		.4byte	0xfe
 3971 048f 00       		.byte	0
 3972 0490 09       		.uleb128 0x9
 3973 0491 04       		.byte	0x4
 3974 0492 96040000 		.4byte	0x496
 3975 0496 10       		.uleb128 0x10
 3976 0497 9B040000 		.4byte	0x49b
 3977 049b 04       		.uleb128 0x4
 3978 049c 01       		.byte	0x1
 3979 049d 08       		.byte	0x8
 3980 049e 57050000 		.4byte	.LASF69
 3981 04a2 09       		.uleb128 0x9
 3982 04a3 04       		.byte	0x4
 3983 04a4 E2030000 		.4byte	0x3e2
 3984 04a8 03       		.uleb128 0x3
 3985 04a9 C0060000 		.4byte	.LASF70
 3986 04ad 0B       		.byte	0xb
 3987 04ae 3C       		.byte	0x3c
 3988 04af 54000000 		.4byte	0x54
 3989 04b3 03       		.uleb128 0x3
 3990 04b4 84040000 		.4byte	.LASF71
 3991 04b8 0B       		.byte	0xb
 3992 04b9 3D       		.byte	0x3d
 3993 04ba 42000000 		.4byte	0x42
 3994 04be 03       		.uleb128 0x3
 3995 04bf 81010000 		.4byte	.LASF72
 3996 04c3 0B       		.byte	0xb
 3997 04c4 3E       		.byte	0x3e
 3998 04c5 78000000 		.4byte	0x78
 3999 04c9 03       		.uleb128 0x3
 4000 04ca 760A0000 		.4byte	.LASF73
 4001 04ce 0B       		.byte	0xb
 4002 04cf 3F       		.byte	0x3f
 4003 04d0 66000000 		.4byte	0x66
 4004 04d4 03       		.uleb128 0x3
 4005 04d5 AB080000 		.4byte	.LASF74
 4006 04d9 0B       		.byte	0xb
 4007 04da 40       		.byte	0x40
 4008 04db 9C000000 		.4byte	0x9c
 4009 04df 05       		.uleb128 0x5
 4010 04e0 400D0000 		.4byte	.LASF75
 4011 04e4 04       		.byte	0x4
 4012 04e5 0C       		.byte	0xc
 4013 04e6 2C       		.byte	0x2c
 4014 04e7 FA040000 		.4byte	0x4fa
 4015 04eb 06       		.uleb128 0x6
ARM GAS  /tmp/ccKs28dn.s 			page 72


 4016 04ec B70B0000 		.4byte	.LASF76
 4017 04f0 0C       		.byte	0xc
 4018 04f1 2D       		.byte	0x2d
 4019 04f2 D4040000 		.4byte	0x4d4
 4020 04f6 02       		.byte	0x2
 4021 04f7 23       		.byte	0x23
 4022 04f8 00       		.uleb128 0
 4023 04f9 00       		.byte	0
 4024 04fa 03       		.uleb128 0x3
 4025 04fb C70C0000 		.4byte	.LASF77
 4026 04ff 0C       		.byte	0xc
 4027 0500 40       		.byte	0x40
 4028 0501 DF040000 		.4byte	0x4df
 4029 0505 03       		.uleb128 0x3
 4030 0506 64010000 		.4byte	.LASF78
 4031 050a 0D       		.byte	0xd
 4032 050b 2F       		.byte	0x2f
 4033 050c B3040000 		.4byte	0x4b3
 4034 0510 03       		.uleb128 0x3
 4035 0511 51040000 		.4byte	.LASF79
 4036 0515 0E       		.byte	0xe
 4037 0516 3C       		.byte	0x3c
 4038 0517 1B050000 		.4byte	0x51b
 4039 051b 09       		.uleb128 0x9
 4040 051c 04       		.byte	0x4
 4041 051d 9A030000 		.4byte	0x39a
 4042 0521 03       		.uleb128 0x3
 4043 0522 2C000000 		.4byte	.LASF80
 4044 0526 0E       		.byte	0xe
 4045 0527 3D       		.byte	0x3d
 4046 0528 2C050000 		.4byte	0x52c
 4047 052c 09       		.uleb128 0x9
 4048 052d 04       		.byte	0x4
 4049 052e 50040000 		.4byte	0x450
 4050 0532 11       		.uleb128 0x11
 4051 0533 01       		.byte	0x1
 4052 0534 0F       		.byte	0xf
 4053 0535 32       		.byte	0x32
 4054 0536 53050000 		.4byte	0x553
 4055 053a 12       		.uleb128 0x12
 4056 053b 40020000 		.4byte	.LASF81
 4057 053f 00       		.sleb128 0
 4058 0540 12       		.uleb128 0x12
 4059 0541 11040000 		.4byte	.LASF82
 4060 0545 01       		.sleb128 1
 4061 0546 12       		.uleb128 0x12
 4062 0547 C8070000 		.4byte	.LASF83
 4063 054b 02       		.sleb128 2
 4064 054c 12       		.uleb128 0x12
 4065 054d B1000000 		.4byte	.LASF84
 4066 0551 03       		.sleb128 3
 4067 0552 00       		.byte	0
 4068 0553 03       		.uleb128 0x3
 4069 0554 840A0000 		.4byte	.LASF85
 4070 0558 0F       		.byte	0xf
 4071 0559 37       		.byte	0x37
 4072 055a 32050000 		.4byte	0x532
ARM GAS  /tmp/ccKs28dn.s 			page 73


 4073 055e 11       		.uleb128 0x11
 4074 055f 01       		.byte	0x1
 4075 0560 0F       		.byte	0xf
 4076 0561 39       		.byte	0x39
 4077 0562 7F050000 		.4byte	0x57f
 4078 0566 12       		.uleb128 0x12
 4079 0567 97000000 		.4byte	.LASF86
 4080 056b 00       		.sleb128 0
 4081 056c 12       		.uleb128 0x12
 4082 056d EA0C0000 		.4byte	.LASF87
 4083 0571 01       		.sleb128 1
 4084 0572 12       		.uleb128 0x12
 4085 0573 A1030000 		.4byte	.LASF88
 4086 0577 02       		.sleb128 2
 4087 0578 12       		.uleb128 0x12
 4088 0579 3F040000 		.4byte	.LASF89
 4089 057d 03       		.sleb128 3
 4090 057e 00       		.byte	0
 4091 057f 03       		.uleb128 0x3
 4092 0580 BA000000 		.4byte	.LASF90
 4093 0584 0F       		.byte	0xf
 4094 0585 3E       		.byte	0x3e
 4095 0586 5E050000 		.4byte	0x55e
 4096 058a 05       		.uleb128 0x5
 4097 058b 2C040000 		.4byte	.LASF91
 4098 058f 10       		.byte	0x10
 4099 0590 0F       		.byte	0xf
 4100 0591 49       		.byte	0x49
 4101 0592 F9050000 		.4byte	0x5f9
 4102 0596 06       		.uleb128 0x6
 4103 0597 3E010000 		.4byte	.LASF92
 4104 059b 0F       		.byte	0xf
 4105 059c 4B       		.byte	0x4b
 4106 059d F9050000 		.4byte	0x5f9
 4107 05a1 02       		.byte	0x2
 4108 05a2 23       		.byte	0x23
 4109 05a3 00       		.uleb128 0
 4110 05a4 06       		.uleb128 0x6
 4111 05a5 09040000 		.4byte	.LASF93
 4112 05a9 0F       		.byte	0xf
 4113 05aa 4E       		.byte	0x4e
 4114 05ab B2020000 		.4byte	0x2b2
 4115 05af 02       		.byte	0x2
 4116 05b0 23       		.byte	0x23
 4117 05b1 04       		.uleb128 0x4
 4118 05b2 06       		.uleb128 0x6
 4119 05b3 EC030000 		.4byte	.LASF94
 4120 05b7 0F       		.byte	0xf
 4121 05b8 57       		.byte	0x57
 4122 05b9 BE040000 		.4byte	0x4be
 4123 05bd 02       		.byte	0x2
 4124 05be 23       		.byte	0x23
 4125 05bf 08       		.uleb128 0x8
 4126 05c0 07       		.uleb128 0x7
 4127 05c1 6C656E00 		.ascii	"len\000"
 4128 05c5 0F       		.byte	0xf
 4129 05c6 5A       		.byte	0x5a
ARM GAS  /tmp/ccKs28dn.s 			page 74


 4130 05c7 BE040000 		.4byte	0x4be
 4131 05cb 02       		.byte	0x2
 4132 05cc 23       		.byte	0x23
 4133 05cd 0A       		.uleb128 0xa
 4134 05ce 06       		.uleb128 0x6
 4135 05cf E80A0000 		.4byte	.LASF95
 4136 05d3 0F       		.byte	0xf
 4137 05d4 5D       		.byte	0x5d
 4138 05d5 A8040000 		.4byte	0x4a8
 4139 05d9 02       		.byte	0x2
 4140 05da 23       		.byte	0x23
 4141 05db 0C       		.uleb128 0xc
 4142 05dc 06       		.uleb128 0x6
 4143 05dd 5B040000 		.4byte	.LASF96
 4144 05e1 0F       		.byte	0xf
 4145 05e2 60       		.byte	0x60
 4146 05e3 A8040000 		.4byte	0x4a8
 4147 05e7 02       		.byte	0x2
 4148 05e8 23       		.byte	0x23
 4149 05e9 0D       		.uleb128 0xd
 4150 05ea 07       		.uleb128 0x7
 4151 05eb 72656600 		.ascii	"ref\000"
 4152 05ef 0F       		.byte	0xf
 4153 05f0 67       		.byte	0x67
 4154 05f1 BE040000 		.4byte	0x4be
 4155 05f5 02       		.byte	0x2
 4156 05f6 23       		.byte	0x23
 4157 05f7 0E       		.uleb128 0xe
 4158 05f8 00       		.byte	0
 4159 05f9 09       		.uleb128 0x9
 4160 05fa 04       		.byte	0x4
 4161 05fb 8A050000 		.4byte	0x58a
 4162 05ff 09       		.uleb128 0x9
 4163 0600 04       		.byte	0x4
 4164 0601 FA040000 		.4byte	0x4fa
 4165 0605 05       		.uleb128 0x5
 4166 0606 C6090000 		.4byte	.LASF97
 4167 060a 10       		.byte	0x10
 4168 060b 10       		.byte	0x10
 4169 060c 30       		.byte	0x30
 4170 060d 48060000 		.4byte	0x648
 4171 0611 07       		.uleb128 0x7
 4172 0612 7000     		.ascii	"p\000"
 4173 0614 10       		.byte	0x10
 4174 0615 31       		.byte	0x31
 4175 0616 F9050000 		.4byte	0x5f9
 4176 061a 02       		.byte	0x2
 4177 061b 23       		.byte	0x23
 4178 061c 00       		.uleb128 0
 4179 061d 07       		.uleb128 0x7
 4180 061e 70747200 		.ascii	"ptr\000"
 4181 0622 10       		.byte	0x10
 4182 0623 31       		.byte	0x31
 4183 0624 F9050000 		.4byte	0x5f9
 4184 0628 02       		.byte	0x2
 4185 0629 23       		.byte	0x23
 4186 062a 04       		.uleb128 0x4
ARM GAS  /tmp/ccKs28dn.s 			page 75


 4187 062b 06       		.uleb128 0x6
 4188 062c B70B0000 		.4byte	.LASF76
 4189 0630 10       		.byte	0x10
 4190 0631 32       		.byte	0x32
 4191 0632 FA040000 		.4byte	0x4fa
 4192 0636 02       		.byte	0x2
 4193 0637 23       		.byte	0x23
 4194 0638 08       		.uleb128 0x8
 4195 0639 06       		.uleb128 0x6
 4196 063a 8F0A0000 		.4byte	.LASF98
 4197 063e 10       		.byte	0x10
 4198 063f 33       		.byte	0x33
 4199 0640 BE040000 		.4byte	0x4be
 4200 0644 02       		.byte	0x2
 4201 0645 23       		.byte	0x23
 4202 0646 0C       		.uleb128 0xc
 4203 0647 00       		.byte	0
 4204 0648 13       		.uleb128 0x13
 4205 0649 62080000 		.4byte	.LASF105
 4206 064d 01       		.byte	0x1
 4207 064e 11       		.byte	0x11
 4208 064f 53       		.byte	0x53
 4209 0650 7A060000 		.4byte	0x67a
 4210 0654 12       		.uleb128 0x12
 4211 0655 10030000 		.4byte	.LASF99
 4212 0659 00       		.sleb128 0
 4213 065a 12       		.uleb128 0x12
 4214 065b 470B0000 		.4byte	.LASF100
 4215 065f 10       		.sleb128 16
 4216 0660 12       		.uleb128 0x12
 4217 0661 C8030000 		.4byte	.LASF101
 4218 0665 20       		.sleb128 32
 4219 0666 12       		.uleb128 0x12
 4220 0667 940C0000 		.4byte	.LASF102
 4221 066b 21       		.sleb128 33
 4222 066c 12       		.uleb128 0x12
 4223 066d 50010000 		.4byte	.LASF103
 4224 0671 22       		.sleb128 34
 4225 0672 12       		.uleb128 0x12
 4226 0673 810C0000 		.4byte	.LASF104
 4227 0677 C000     		.sleb128 64
 4228 0679 00       		.byte	0
 4229 067a 13       		.uleb128 0x13
 4230 067b 14020000 		.4byte	.LASF106
 4231 067f 01       		.byte	0x1
 4232 0680 11       		.byte	0x11
 4233 0681 61       		.byte	0x61
 4234 0682 A5060000 		.4byte	0x6a5
 4235 0686 12       		.uleb128 0x12
 4236 0687 36080000 		.4byte	.LASF107
 4237 068b 00       		.sleb128 0
 4238 068c 12       		.uleb128 0x12
 4239 068d 30010000 		.4byte	.LASF108
 4240 0691 01       		.sleb128 1
 4241 0692 12       		.uleb128 0x12
 4242 0693 6B0B0000 		.4byte	.LASF109
 4243 0697 02       		.sleb128 2
ARM GAS  /tmp/ccKs28dn.s 			page 76


 4244 0698 12       		.uleb128 0x12
 4245 0699 6F080000 		.4byte	.LASF110
 4246 069d 03       		.sleb128 3
 4247 069e 12       		.uleb128 0x12
 4248 069f 3D0C0000 		.4byte	.LASF111
 4249 06a3 04       		.sleb128 4
 4250 06a4 00       		.byte	0
 4251 06a5 13       		.uleb128 0x13
 4252 06a6 A80A0000 		.4byte	.LASF112
 4253 06aa 01       		.byte	0x1
 4254 06ab 11       		.byte	0x11
 4255 06ac 6A       		.byte	0x6a
 4256 06ad D0060000 		.4byte	0x6d0
 4257 06b1 12       		.uleb128 0x12
 4258 06b2 B4030000 		.4byte	.LASF113
 4259 06b6 00       		.sleb128 0
 4260 06b7 12       		.uleb128 0x12
 4261 06b8 FE040000 		.4byte	.LASF114
 4262 06bc 01       		.sleb128 1
 4263 06bd 12       		.uleb128 0x12
 4264 06be BE040000 		.4byte	.LASF115
 4265 06c2 02       		.sleb128 2
 4266 06c3 12       		.uleb128 0x12
 4267 06c4 2A0B0000 		.4byte	.LASF116
 4268 06c8 03       		.sleb128 3
 4269 06c9 12       		.uleb128 0x12
 4270 06ca 99020000 		.4byte	.LASF117
 4271 06ce 04       		.sleb128 4
 4272 06cf 00       		.byte	0
 4273 06d0 03       		.uleb128 0x3
 4274 06d1 BD0A0000 		.4byte	.LASF118
 4275 06d5 11       		.byte	0x11
 4276 06d6 83       		.byte	0x83
 4277 06d7 DB060000 		.4byte	0x6db
 4278 06db 09       		.uleb128 0x9
 4279 06dc 04       		.byte	0x4
 4280 06dd E1060000 		.4byte	0x6e1
 4281 06e1 14       		.uleb128 0x14
 4282 06e2 01       		.byte	0x1
 4283 06e3 F7060000 		.4byte	0x6f7
 4284 06e7 15       		.uleb128 0x15
 4285 06e8 F7060000 		.4byte	0x6f7
 4286 06ec 15       		.uleb128 0x15
 4287 06ed A5060000 		.4byte	0x6a5
 4288 06f1 15       		.uleb128 0x15
 4289 06f2 BE040000 		.4byte	0x4be
 4290 06f6 00       		.byte	0
 4291 06f7 09       		.uleb128 0x9
 4292 06f8 04       		.byte	0x4
 4293 06f9 FD060000 		.4byte	0x6fd
 4294 06fd 05       		.uleb128 0x5
 4295 06fe D10C0000 		.4byte	.LASF119
 4296 0702 2C       		.byte	0x2c
 4297 0703 11       		.byte	0x11
 4298 0704 86       		.byte	0x86
 4299 0705 B2070000 		.4byte	0x7b2
 4300 0709 06       		.uleb128 0x6
ARM GAS  /tmp/ccKs28dn.s 			page 77


 4301 070a E80A0000 		.4byte	.LASF95
 4302 070e 11       		.byte	0x11
 4303 070f 88       		.byte	0x88
 4304 0710 48060000 		.4byte	0x648
 4305 0714 02       		.byte	0x2
 4306 0715 23       		.byte	0x23
 4307 0716 00       		.uleb128 0
 4308 0717 06       		.uleb128 0x6
 4309 0718 C80B0000 		.4byte	.LASF120
 4310 071c 11       		.byte	0x11
 4311 071d 8A       		.byte	0x8a
 4312 071e 7A060000 		.4byte	0x67a
 4313 0722 02       		.byte	0x2
 4314 0723 23       		.byte	0x23
 4315 0724 01       		.uleb128 0x1
 4316 0725 07       		.uleb128 0x7
 4317 0726 70636200 		.ascii	"pcb\000"
 4318 072a 11       		.byte	0x11
 4319 072b 91       		.byte	0x91
 4320 072c B2070000 		.4byte	0x7b2
 4321 0730 02       		.byte	0x2
 4322 0731 23       		.byte	0x23
 4323 0732 04       		.uleb128 0x4
 4324 0733 06       		.uleb128 0x6
 4325 0734 61040000 		.4byte	.LASF121
 4326 0738 11       		.byte	0x11
 4327 0739 93       		.byte	0x93
 4328 073a 05050000 		.4byte	0x505
 4329 073e 02       		.byte	0x2
 4330 073f 23       		.byte	0x23
 4331 0740 08       		.uleb128 0x8
 4332 0741 06       		.uleb128 0x6
 4333 0742 BA0C0000 		.4byte	.LASF122
 4334 0746 11       		.byte	0x11
 4335 0747 95       		.byte	0x95
 4336 0748 10050000 		.4byte	0x510
 4337 074c 02       		.byte	0x2
 4338 074d 23       		.byte	0x23
 4339 074e 0C       		.uleb128 0xc
 4340 074f 06       		.uleb128 0x6
 4341 0750 07010000 		.4byte	.LASF123
 4342 0754 11       		.byte	0x11
 4343 0755 98       		.byte	0x98
 4344 0756 21050000 		.4byte	0x521
 4345 075a 02       		.byte	0x2
 4346 075b 23       		.byte	0x23
 4347 075c 10       		.uleb128 0x10
 4348 075d 06       		.uleb128 0x6
 4349 075e 0C060000 		.4byte	.LASF124
 4350 0762 11       		.byte	0x11
 4351 0763 9C       		.byte	0x9c
 4352 0764 21050000 		.4byte	0x521
 4353 0768 02       		.byte	0x2
 4354 0769 23       		.byte	0x23
 4355 076a 14       		.uleb128 0x14
 4356 076b 06       		.uleb128 0x6
 4357 076c A1090000 		.4byte	.LASF125
ARM GAS  /tmp/ccKs28dn.s 			page 78


 4358 0770 11       		.byte	0x11
 4359 0771 A0       		.byte	0xa0
 4360 0772 29000000 		.4byte	0x29
 4361 0776 02       		.byte	0x2
 4362 0777 23       		.byte	0x23
 4363 0778 18       		.uleb128 0x18
 4364 0779 06       		.uleb128 0x6
 4365 077a 5B040000 		.4byte	.LASF96
 4366 077e 11       		.byte	0x11
 4367 077f B1       		.byte	0xb1
 4368 0780 A8040000 		.4byte	0x4a8
 4369 0784 02       		.byte	0x2
 4370 0785 23       		.byte	0x23
 4371 0786 1C       		.uleb128 0x1c
 4372 0787 06       		.uleb128 0x6
 4373 0788 AA0B0000 		.4byte	.LASF126
 4374 078c 11       		.byte	0x11
 4375 078d B5       		.byte	0xb5
 4376 078e 30000000 		.4byte	0x30
 4377 0792 02       		.byte	0x2
 4378 0793 23       		.byte	0x23
 4379 0794 20       		.uleb128 0x20
 4380 0795 06       		.uleb128 0x6
 4381 0796 16090000 		.4byte	.LASF127
 4382 079a 11       		.byte	0x11
 4383 079b B9       		.byte	0xb9
 4384 079c C90C0000 		.4byte	0xcc9
 4385 07a0 02       		.byte	0x2
 4386 07a1 23       		.byte	0x23
 4387 07a2 24       		.uleb128 0x24
 4388 07a3 06       		.uleb128 0x6
 4389 07a4 E20B0000 		.4byte	.LASF128
 4390 07a8 11       		.byte	0x11
 4391 07a9 BC       		.byte	0xbc
 4392 07aa D0060000 		.4byte	0x6d0
 4393 07ae 02       		.byte	0x2
 4394 07af 23       		.byte	0x23
 4395 07b0 28       		.uleb128 0x28
 4396 07b1 00       		.byte	0
 4397 07b2 0E       		.uleb128 0xe
 4398 07b3 04       		.byte	0x4
 4399 07b4 11       		.byte	0x11
 4400 07b5 8C       		.byte	0x8c
 4401 07b6 E6070000 		.4byte	0x7e6
 4402 07ba 16       		.uleb128 0x16
 4403 07bb 697000   		.ascii	"ip\000"
 4404 07be 11       		.byte	0x11
 4405 07bf 8D       		.byte	0x8d
 4406 07c0 39080000 		.4byte	0x839
 4407 07c4 16       		.uleb128 0x16
 4408 07c5 74637000 		.ascii	"tcp\000"
 4409 07c9 11       		.byte	0x11
 4410 07ca 8E       		.byte	0x8e
 4411 07cb 4E0B0000 		.4byte	0xb4e
 4412 07cf 16       		.uleb128 0x16
 4413 07d0 75647000 		.ascii	"udp\000"
 4414 07d4 11       		.byte	0x11
ARM GAS  /tmp/ccKs28dn.s 			page 79


 4415 07d5 8F       		.byte	0x8f
 4416 07d6 FB0B0000 		.4byte	0xbfb
 4417 07da 16       		.uleb128 0x16
 4418 07db 72617700 		.ascii	"raw\000"
 4419 07df 11       		.byte	0x11
 4420 07e0 90       		.byte	0x90
 4421 07e1 8C0C0000 		.4byte	0xc8c
 4422 07e5 00       		.byte	0
 4423 07e6 05       		.uleb128 0x5
 4424 07e7 400B0000 		.4byte	.LASF129
 4425 07eb 0C       		.byte	0xc
 4426 07ec 12       		.byte	0x12
 4427 07ed 59       		.byte	0x59
 4428 07ee 39080000 		.4byte	0x839
 4429 07f2 06       		.uleb128 0x6
 4430 07f3 55090000 		.4byte	.LASF130
 4431 07f7 12       		.byte	0x12
 4432 07f8 5B       		.byte	0x5b
 4433 07f9 FA040000 		.4byte	0x4fa
 4434 07fd 02       		.byte	0x2
 4435 07fe 23       		.byte	0x23
 4436 07ff 00       		.uleb128 0
 4437 0800 06       		.uleb128 0x6
 4438 0801 B00C0000 		.4byte	.LASF131
 4439 0805 12       		.byte	0x12
 4440 0806 5B       		.byte	0x5b
 4441 0807 FA040000 		.4byte	0x4fa
 4442 080b 02       		.byte	0x2
 4443 080c 23       		.byte	0x23
 4444 080d 04       		.uleb128 0x4
 4445 080e 06       		.uleb128 0x6
 4446 080f 5A000000 		.4byte	.LASF132
 4447 0813 12       		.byte	0x12
 4448 0814 5B       		.byte	0x5b
 4449 0815 A8040000 		.4byte	0x4a8
 4450 0819 02       		.byte	0x2
 4451 081a 23       		.byte	0x23
 4452 081b 08       		.uleb128 0x8
 4453 081c 07       		.uleb128 0x7
 4454 081d 746F7300 		.ascii	"tos\000"
 4455 0821 12       		.byte	0x12
 4456 0822 5B       		.byte	0x5b
 4457 0823 A8040000 		.4byte	0x4a8
 4458 0827 02       		.byte	0x2
 4459 0828 23       		.byte	0x23
 4460 0829 09       		.uleb128 0x9
 4461 082a 07       		.uleb128 0x7
 4462 082b 74746C00 		.ascii	"ttl\000"
 4463 082f 12       		.byte	0x12
 4464 0830 5B       		.byte	0x5b
 4465 0831 A8040000 		.4byte	0x4a8
 4466 0835 02       		.byte	0x2
 4467 0836 23       		.byte	0x23
 4468 0837 0A       		.uleb128 0xa
 4469 0838 00       		.byte	0
 4470 0839 09       		.uleb128 0x9
 4471 083a 04       		.byte	0x4
ARM GAS  /tmp/ccKs28dn.s 			page 80


 4472 083b E6070000 		.4byte	0x7e6
 4473 083f 05       		.uleb128 0x5
 4474 0840 660C0000 		.4byte	.LASF133
 4475 0844 A4       		.byte	0xa4
 4476 0845 13       		.byte	0x13
 4477 0846 A9       		.byte	0xa9
 4478 0847 4E0B0000 		.4byte	0xb4e
 4479 084b 06       		.uleb128 0x6
 4480 084c 55090000 		.4byte	.LASF130
 4481 0850 13       		.byte	0x13
 4482 0851 AB       		.byte	0xab
 4483 0852 FA040000 		.4byte	0x4fa
 4484 0856 02       		.byte	0x2
 4485 0857 23       		.byte	0x23
 4486 0858 00       		.uleb128 0
 4487 0859 06       		.uleb128 0x6
 4488 085a B00C0000 		.4byte	.LASF131
 4489 085e 13       		.byte	0x13
 4490 085f AB       		.byte	0xab
 4491 0860 FA040000 		.4byte	0x4fa
 4492 0864 02       		.byte	0x2
 4493 0865 23       		.byte	0x23
 4494 0866 04       		.uleb128 0x4
 4495 0867 06       		.uleb128 0x6
 4496 0868 5A000000 		.4byte	.LASF132
 4497 086c 13       		.byte	0x13
 4498 086d AB       		.byte	0xab
 4499 086e A8040000 		.4byte	0x4a8
 4500 0872 02       		.byte	0x2
 4501 0873 23       		.byte	0x23
 4502 0874 08       		.uleb128 0x8
 4503 0875 07       		.uleb128 0x7
 4504 0876 746F7300 		.ascii	"tos\000"
 4505 087a 13       		.byte	0x13
 4506 087b AB       		.byte	0xab
 4507 087c A8040000 		.4byte	0x4a8
 4508 0880 02       		.byte	0x2
 4509 0881 23       		.byte	0x23
 4510 0882 09       		.uleb128 0x9
 4511 0883 07       		.uleb128 0x7
 4512 0884 74746C00 		.ascii	"ttl\000"
 4513 0888 13       		.byte	0x13
 4514 0889 AB       		.byte	0xab
 4515 088a A8040000 		.4byte	0x4a8
 4516 088e 02       		.byte	0x2
 4517 088f 23       		.byte	0x23
 4518 0890 0A       		.uleb128 0xa
 4519 0891 06       		.uleb128 0x6
 4520 0892 3E010000 		.4byte	.LASF92
 4521 0896 13       		.byte	0x13
 4522 0897 AD       		.byte	0xad
 4523 0898 4E0B0000 		.4byte	0xb4e
 4524 089c 02       		.byte	0x2
 4525 089d 23       		.byte	0x23
 4526 089e 0C       		.uleb128 0xc
 4527 089f 06       		.uleb128 0x6
 4528 08a0 C80B0000 		.4byte	.LASF120
ARM GAS  /tmp/ccKs28dn.s 			page 81


 4529 08a4 13       		.byte	0x13
 4530 08a5 AD       		.byte	0xad
 4531 08a6 070F0000 		.4byte	0xf07
 4532 08aa 02       		.byte	0x2
 4533 08ab 23       		.byte	0x23
 4534 08ac 10       		.uleb128 0x10
 4535 08ad 06       		.uleb128 0x6
 4536 08ae 2F050000 		.4byte	.LASF134
 4537 08b2 13       		.byte	0x13
 4538 08b3 AD       		.byte	0xad
 4539 08b4 A8040000 		.4byte	0x4a8
 4540 08b8 02       		.byte	0x2
 4541 08b9 23       		.byte	0x23
 4542 08ba 11       		.uleb128 0x11
 4543 08bb 06       		.uleb128 0x6
 4544 08bc 7A0B0000 		.4byte	.LASF135
 4545 08c0 13       		.byte	0x13
 4546 08c1 AD       		.byte	0xad
 4547 08c2 B2020000 		.4byte	0x2b2
 4548 08c6 02       		.byte	0x2
 4549 08c7 23       		.byte	0x23
 4550 08c8 14       		.uleb128 0x14
 4551 08c9 06       		.uleb128 0x6
 4552 08ca 34050000 		.4byte	.LASF136
 4553 08ce 13       		.byte	0x13
 4554 08cf AD       		.byte	0xad
 4555 08d0 2E0E0000 		.4byte	0xe2e
 4556 08d4 02       		.byte	0x2
 4557 08d5 23       		.byte	0x23
 4558 08d6 18       		.uleb128 0x18
 4559 08d7 06       		.uleb128 0x6
 4560 08d8 FC000000 		.4byte	.LASF137
 4561 08dc 13       		.byte	0x13
 4562 08dd AD       		.byte	0xad
 4563 08de BE040000 		.4byte	0x4be
 4564 08e2 02       		.byte	0x2
 4565 08e3 23       		.byte	0x23
 4566 08e4 1C       		.uleb128 0x1c
 4567 08e5 06       		.uleb128 0x6
 4568 08e6 28070000 		.4byte	.LASF138
 4569 08ea 13       		.byte	0x13
 4570 08eb B0       		.byte	0xb0
 4571 08ec BE040000 		.4byte	0x4be
 4572 08f0 02       		.byte	0x2
 4573 08f1 23       		.byte	0x23
 4574 08f2 1E       		.uleb128 0x1e
 4575 08f3 06       		.uleb128 0x6
 4576 08f4 5B040000 		.4byte	.LASF96
 4577 08f8 13       		.byte	0x13
 4578 08f9 B2       		.byte	0xb2
 4579 08fa A8040000 		.4byte	0x4a8
 4580 08fe 02       		.byte	0x2
 4581 08ff 23       		.byte	0x23
 4582 0900 20       		.uleb128 0x20
 4583 0901 06       		.uleb128 0x6
 4584 0902 75030000 		.4byte	.LASF139
 4585 0906 13       		.byte	0x13
ARM GAS  /tmp/ccKs28dn.s 			page 82


 4586 0907 BF       		.byte	0xbf
 4587 0908 D4040000 		.4byte	0x4d4
 4588 090c 02       		.byte	0x2
 4589 090d 23       		.byte	0x23
 4590 090e 24       		.uleb128 0x24
 4591 090f 06       		.uleb128 0x6
 4592 0910 02090000 		.4byte	.LASF140
 4593 0914 13       		.byte	0x13
 4594 0915 C0       		.byte	0xc0
 4595 0916 BE040000 		.4byte	0x4be
 4596 091a 02       		.byte	0x2
 4597 091b 23       		.byte	0x23
 4598 091c 28       		.uleb128 0x28
 4599 091d 06       		.uleb128 0x6
 4600 091e 4D070000 		.4byte	.LASF141
 4601 0922 13       		.byte	0x13
 4602 0923 C1       		.byte	0xc1
 4603 0924 BE040000 		.4byte	0x4be
 4604 0928 02       		.byte	0x2
 4605 0929 23       		.byte	0x23
 4606 092a 2A       		.uleb128 0x2a
 4607 092b 06       		.uleb128 0x6
 4608 092c A3010000 		.4byte	.LASF142
 4609 0930 13       		.byte	0x13
 4610 0931 C2       		.byte	0xc2
 4611 0932 D4040000 		.4byte	0x4d4
 4612 0936 02       		.byte	0x2
 4613 0937 23       		.byte	0x23
 4614 0938 2C       		.uleb128 0x2c
 4615 0939 07       		.uleb128 0x7
 4616 093a 746D7200 		.ascii	"tmr\000"
 4617 093e 13       		.byte	0x13
 4618 093f C5       		.byte	0xc5
 4619 0940 D4040000 		.4byte	0x4d4
 4620 0944 02       		.byte	0x2
 4621 0945 23       		.byte	0x23
 4622 0946 30       		.uleb128 0x30
 4623 0947 06       		.uleb128 0x6
 4624 0948 A0000000 		.4byte	.LASF143
 4625 094c 13       		.byte	0x13
 4626 094d C6       		.byte	0xc6
 4627 094e A8040000 		.4byte	0x4a8
 4628 0952 02       		.byte	0x2
 4629 0953 23       		.byte	0x23
 4630 0954 34       		.uleb128 0x34
 4631 0955 06       		.uleb128 0x6
 4632 0956 F8090000 		.4byte	.LASF144
 4633 095a 13       		.byte	0x13
 4634 095b C6       		.byte	0xc6
 4635 095c A8040000 		.4byte	0x4a8
 4636 0960 02       		.byte	0x2
 4637 0961 23       		.byte	0x23
 4638 0962 35       		.uleb128 0x35
 4639 0963 06       		.uleb128 0x6
 4640 0964 41030000 		.4byte	.LASF145
 4641 0968 13       		.byte	0x13
 4642 0969 C9       		.byte	0xc9
ARM GAS  /tmp/ccKs28dn.s 			page 83


 4643 096a C9040000 		.4byte	0x4c9
 4644 096e 02       		.byte	0x2
 4645 096f 23       		.byte	0x23
 4646 0970 36       		.uleb128 0x36
 4647 0971 07       		.uleb128 0x7
 4648 0972 6D737300 		.ascii	"mss\000"
 4649 0976 13       		.byte	0x13
 4650 0977 CB       		.byte	0xcb
 4651 0978 BE040000 		.4byte	0x4be
 4652 097c 02       		.byte	0x2
 4653 097d 23       		.byte	0x23
 4654 097e 38       		.uleb128 0x38
 4655 097f 06       		.uleb128 0x6
 4656 0980 0A090000 		.4byte	.LASF146
 4657 0984 13       		.byte	0x13
 4658 0985 CE       		.byte	0xce
 4659 0986 D4040000 		.4byte	0x4d4
 4660 098a 02       		.byte	0x2
 4661 098b 23       		.byte	0x23
 4662 098c 3C       		.uleb128 0x3c
 4663 098d 06       		.uleb128 0x6
 4664 098e F8040000 		.4byte	.LASF147
 4665 0992 13       		.byte	0x13
 4666 0993 CF       		.byte	0xcf
 4667 0994 D4040000 		.4byte	0x4d4
 4668 0998 02       		.byte	0x2
 4669 0999 23       		.byte	0x23
 4670 099a 40       		.uleb128 0x40
 4671 099b 07       		.uleb128 0x7
 4672 099c 736100   		.ascii	"sa\000"
 4673 099f 13       		.byte	0x13
 4674 09a0 D0       		.byte	0xd0
 4675 09a1 C9040000 		.4byte	0x4c9
 4676 09a5 02       		.byte	0x2
 4677 09a6 23       		.byte	0x23
 4678 09a7 44       		.uleb128 0x44
 4679 09a8 07       		.uleb128 0x7
 4680 09a9 737600   		.ascii	"sv\000"
 4681 09ac 13       		.byte	0x13
 4682 09ad D0       		.byte	0xd0
 4683 09ae C9040000 		.4byte	0x4c9
 4684 09b2 02       		.byte	0x2
 4685 09b3 23       		.byte	0x23
 4686 09b4 46       		.uleb128 0x46
 4687 09b5 07       		.uleb128 0x7
 4688 09b6 72746F00 		.ascii	"rto\000"
 4689 09ba 13       		.byte	0x13
 4690 09bb D2       		.byte	0xd2
 4691 09bc C9040000 		.4byte	0x4c9
 4692 09c0 02       		.byte	0x2
 4693 09c1 23       		.byte	0x23
 4694 09c2 48       		.uleb128 0x48
 4695 09c3 06       		.uleb128 0x6
 4696 09c4 080D0000 		.4byte	.LASF148
 4697 09c8 13       		.byte	0x13
 4698 09c9 D3       		.byte	0xd3
 4699 09ca A8040000 		.4byte	0x4a8
ARM GAS  /tmp/ccKs28dn.s 			page 84


 4700 09ce 02       		.byte	0x2
 4701 09cf 23       		.byte	0x23
 4702 09d0 4A       		.uleb128 0x4a
 4703 09d1 06       		.uleb128 0x6
 4704 09d2 6A040000 		.4byte	.LASF149
 4705 09d6 13       		.byte	0x13
 4706 09d7 D6       		.byte	0xd6
 4707 09d8 D4040000 		.4byte	0x4d4
 4708 09dc 02       		.byte	0x2
 4709 09dd 23       		.byte	0x23
 4710 09de 4C       		.uleb128 0x4c
 4711 09df 06       		.uleb128 0x6
 4712 09e0 1A050000 		.4byte	.LASF150
 4713 09e4 13       		.byte	0x13
 4714 09e5 D7       		.byte	0xd7
 4715 09e6 A8040000 		.4byte	0x4a8
 4716 09ea 02       		.byte	0x2
 4717 09eb 23       		.byte	0x23
 4718 09ec 50       		.uleb128 0x50
 4719 09ed 06       		.uleb128 0x6
 4720 09ee 69020000 		.4byte	.LASF151
 4721 09f2 13       		.byte	0x13
 4722 09f3 DA       		.byte	0xda
 4723 09f4 BE040000 		.4byte	0x4be
 4724 09f8 02       		.byte	0x2
 4725 09f9 23       		.byte	0x23
 4726 09fa 52       		.uleb128 0x52
 4727 09fb 06       		.uleb128 0x6
 4728 09fc E7090000 		.4byte	.LASF152
 4729 0a00 13       		.byte	0x13
 4730 0a01 DB       		.byte	0xdb
 4731 0a02 BE040000 		.4byte	0x4be
 4732 0a06 02       		.byte	0x2
 4733 0a07 23       		.byte	0x23
 4734 0a08 54       		.uleb128 0x54
 4735 0a09 06       		.uleb128 0x6
 4736 0a0a A8090000 		.4byte	.LASF153
 4737 0a0e 13       		.byte	0x13
 4738 0a0f DE       		.byte	0xde
 4739 0a10 D4040000 		.4byte	0x4d4
 4740 0a14 02       		.byte	0x2
 4741 0a15 23       		.byte	0x23
 4742 0a16 58       		.uleb128 0x58
 4743 0a17 06       		.uleb128 0x6
 4744 0a18 4F080000 		.4byte	.LASF154
 4745 0a1c 13       		.byte	0x13
 4746 0a1d DF       		.byte	0xdf
 4747 0a1e BE040000 		.4byte	0x4be
 4748 0a22 02       		.byte	0x2
 4749 0a23 23       		.byte	0x23
 4750 0a24 5C       		.uleb128 0x5c
 4751 0a25 06       		.uleb128 0x6
 4752 0a26 DF050000 		.4byte	.LASF155
 4753 0a2a 13       		.byte	0x13
 4754 0a2b E0       		.byte	0xe0
 4755 0a2c D4040000 		.4byte	0x4d4
 4756 0a30 02       		.byte	0x2
ARM GAS  /tmp/ccKs28dn.s 			page 85


 4757 0a31 23       		.byte	0x23
 4758 0a32 60       		.uleb128 0x60
 4759 0a33 06       		.uleb128 0x6
 4760 0a34 E7050000 		.4byte	.LASF156
 4761 0a38 13       		.byte	0x13
 4762 0a39 E0       		.byte	0xe0
 4763 0a3a D4040000 		.4byte	0x4d4
 4764 0a3e 02       		.byte	0x2
 4765 0a3f 23       		.byte	0x23
 4766 0a40 64       		.uleb128 0x64
 4767 0a41 06       		.uleb128 0x6
 4768 0a42 30060000 		.4byte	.LASF157
 4769 0a46 13       		.byte	0x13
 4770 0a47 E2       		.byte	0xe2
 4771 0a48 D4040000 		.4byte	0x4d4
 4772 0a4c 02       		.byte	0x2
 4773 0a4d 23       		.byte	0x23
 4774 0a4e 68       		.uleb128 0x68
 4775 0a4f 06       		.uleb128 0x6
 4776 0a50 81050000 		.4byte	.LASF158
 4777 0a54 13       		.byte	0x13
 4778 0a55 E4       		.byte	0xe4
 4779 0a56 BE040000 		.4byte	0x4be
 4780 0a5a 02       		.byte	0x2
 4781 0a5b 23       		.byte	0x23
 4782 0a5c 6C       		.uleb128 0x6c
 4783 0a5d 06       		.uleb128 0x6
 4784 0a5e F0090000 		.4byte	.LASF159
 4785 0a62 13       		.byte	0x13
 4786 0a63 E6       		.byte	0xe6
 4787 0a64 BE040000 		.4byte	0x4be
 4788 0a68 02       		.byte	0x2
 4789 0a69 23       		.byte	0x23
 4790 0a6a 6E       		.uleb128 0x6e
 4791 0a6b 06       		.uleb128 0x6
 4792 0a6c EB0B0000 		.4byte	.LASF160
 4793 0a70 13       		.byte	0x13
 4794 0a71 E8       		.byte	0xe8
 4795 0a72 BE040000 		.4byte	0x4be
 4796 0a76 02       		.byte	0x2
 4797 0a77 23       		.byte	0x23
 4798 0a78 70       		.uleb128 0x70
 4799 0a79 06       		.uleb128 0x6
 4800 0a7a 7C090000 		.4byte	.LASF161
 4801 0a7e 13       		.byte	0x13
 4802 0a7f EC       		.byte	0xec
 4803 0a80 BE040000 		.4byte	0x4be
 4804 0a84 02       		.byte	0x2
 4805 0a85 23       		.byte	0x23
 4806 0a86 72       		.uleb128 0x72
 4807 0a87 06       		.uleb128 0x6
 4808 0a88 FB080000 		.4byte	.LASF162
 4809 0a8c 13       		.byte	0x13
 4810 0a8d F0       		.byte	0xf0
 4811 0a8e 5C0F0000 		.4byte	0xf5c
 4812 0a92 02       		.byte	0x2
 4813 0a93 23       		.byte	0x23
ARM GAS  /tmp/ccKs28dn.s 			page 86


 4814 0a94 74       		.uleb128 0x74
 4815 0a95 06       		.uleb128 0x6
 4816 0a96 1B0B0000 		.4byte	.LASF163
 4817 0a9a 13       		.byte	0x13
 4818 0a9b F1       		.byte	0xf1
 4819 0a9c 5C0F0000 		.4byte	0xf5c
 4820 0aa0 02       		.byte	0x2
 4821 0aa1 23       		.byte	0x23
 4822 0aa2 78       		.uleb128 0x78
 4823 0aa3 06       		.uleb128 0x6
 4824 0aa4 7F080000 		.4byte	.LASF164
 4825 0aa8 13       		.byte	0x13
 4826 0aa9 F3       		.byte	0xf3
 4827 0aaa 5C0F0000 		.4byte	0xf5c
 4828 0aae 02       		.byte	0x2
 4829 0aaf 23       		.byte	0x23
 4830 0ab0 7C       		.uleb128 0x7c
 4831 0ab1 06       		.uleb128 0x6
 4832 0ab2 940A0000 		.4byte	.LASF165
 4833 0ab6 13       		.byte	0x13
 4834 0ab7 F6       		.byte	0xf6
 4835 0ab8 F9050000 		.4byte	0x5f9
 4836 0abc 03       		.byte	0x3
 4837 0abd 23       		.byte	0x23
 4838 0abe 8001     		.uleb128 0x80
 4839 0ac0 06       		.uleb128 0x6
 4840 0ac1 C7050000 		.4byte	.LASF166
 4841 0ac5 13       		.byte	0x13
 4842 0ac6 FA       		.byte	0xfa
 4843 0ac7 890E0000 		.4byte	0xe89
 4844 0acb 03       		.byte	0x3
 4845 0acc 23       		.byte	0x23
 4846 0acd 8401     		.uleb128 0x84
 4847 0acf 06       		.uleb128 0x6
 4848 0ad0 5A030000 		.4byte	.LASF167
 4849 0ad4 13       		.byte	0x13
 4850 0ad5 FC       		.byte	0xfc
 4851 0ad6 590E0000 		.4byte	0xe59
 4852 0ada 03       		.byte	0x3
 4853 0adb 23       		.byte	0x23
 4854 0adc 8801     		.uleb128 0x88
 4855 0ade 06       		.uleb128 0x6
 4856 0adf 19040000 		.4byte	.LASF168
 4857 0ae3 13       		.byte	0x13
 4858 0ae4 FE       		.byte	0xfe
 4859 0ae5 FC0E0000 		.4byte	0xefc
 4860 0ae9 03       		.byte	0x3
 4861 0aea 23       		.byte	0x23
 4862 0aeb 8C01     		.uleb128 0x8c
 4863 0aed 17       		.uleb128 0x17
 4864 0aee 45050000 		.4byte	.LASF169
 4865 0af2 13       		.byte	0x13
 4866 0af3 0001     		.2byte	0x100
 4867 0af5 B40E0000 		.4byte	0xeb4
 4868 0af9 03       		.byte	0x3
 4869 0afa 23       		.byte	0x23
 4870 0afb 9001     		.uleb128 0x90
ARM GAS  /tmp/ccKs28dn.s 			page 87


 4871 0afd 17       		.uleb128 0x17
 4872 0afe 43080000 		.4byte	.LASF170
 4873 0b02 13       		.byte	0x13
 4874 0b03 0201     		.2byte	0x102
 4875 0b05 DA0E0000 		.4byte	0xeda
 4876 0b09 03       		.byte	0x3
 4877 0b0a 23       		.byte	0x23
 4878 0b0b 9401     		.uleb128 0x94
 4879 0b0d 17       		.uleb128 0x17
 4880 0b0e 610B0000 		.4byte	.LASF171
 4881 0b12 13       		.byte	0x13
 4882 0b13 0B01     		.2byte	0x10b
 4883 0b15 D4040000 		.4byte	0x4d4
 4884 0b19 03       		.byte	0x3
 4885 0b1a 23       		.byte	0x23
 4886 0b1b 9801     		.uleb128 0x98
 4887 0b1d 17       		.uleb128 0x17
 4888 0b1e A40C0000 		.4byte	.LASF172
 4889 0b22 13       		.byte	0x13
 4890 0b23 1201     		.2byte	0x112
 4891 0b25 D4040000 		.4byte	0x4d4
 4892 0b29 03       		.byte	0x3
 4893 0b2a 23       		.byte	0x23
 4894 0b2b 9C01     		.uleb128 0x9c
 4895 0b2d 17       		.uleb128 0x17
 4896 0b2e 90060000 		.4byte	.LASF173
 4897 0b32 13       		.byte	0x13
 4898 0b33 1401     		.2byte	0x114
 4899 0b35 A8040000 		.4byte	0x4a8
 4900 0b39 03       		.byte	0x3
 4901 0b3a 23       		.byte	0x23
 4902 0b3b A001     		.uleb128 0xa0
 4903 0b3d 17       		.uleb128 0x17
 4904 0b3e DC010000 		.4byte	.LASF174
 4905 0b42 13       		.byte	0x13
 4906 0b43 1701     		.2byte	0x117
 4907 0b45 A8040000 		.4byte	0x4a8
 4908 0b49 03       		.byte	0x3
 4909 0b4a 23       		.byte	0x23
 4910 0b4b A101     		.uleb128 0xa1
 4911 0b4d 00       		.byte	0
 4912 0b4e 09       		.uleb128 0x9
 4913 0b4f 04       		.byte	0x4
 4914 0b50 3F080000 		.4byte	0x83f
 4915 0b54 05       		.uleb128 0x5
 4916 0b55 16000000 		.4byte	.LASF175
 4917 0b59 20       		.byte	0x20
 4918 0b5a 14       		.byte	0x14
 4919 0b5b 5B       		.byte	0x5b
 4920 0b5c FB0B0000 		.4byte	0xbfb
 4921 0b60 06       		.uleb128 0x6
 4922 0b61 55090000 		.4byte	.LASF130
 4923 0b65 14       		.byte	0x14
 4924 0b66 5D       		.byte	0x5d
 4925 0b67 FA040000 		.4byte	0x4fa
 4926 0b6b 02       		.byte	0x2
 4927 0b6c 23       		.byte	0x23
ARM GAS  /tmp/ccKs28dn.s 			page 88


 4928 0b6d 00       		.uleb128 0
 4929 0b6e 06       		.uleb128 0x6
 4930 0b6f B00C0000 		.4byte	.LASF131
 4931 0b73 14       		.byte	0x14
 4932 0b74 5D       		.byte	0x5d
 4933 0b75 FA040000 		.4byte	0x4fa
 4934 0b79 02       		.byte	0x2
 4935 0b7a 23       		.byte	0x23
 4936 0b7b 04       		.uleb128 0x4
 4937 0b7c 06       		.uleb128 0x6
 4938 0b7d 5A000000 		.4byte	.LASF132
 4939 0b81 14       		.byte	0x14
 4940 0b82 5D       		.byte	0x5d
 4941 0b83 A8040000 		.4byte	0x4a8
 4942 0b87 02       		.byte	0x2
 4943 0b88 23       		.byte	0x23
 4944 0b89 08       		.uleb128 0x8
 4945 0b8a 07       		.uleb128 0x7
 4946 0b8b 746F7300 		.ascii	"tos\000"
 4947 0b8f 14       		.byte	0x14
 4948 0b90 5D       		.byte	0x5d
 4949 0b91 A8040000 		.4byte	0x4a8
 4950 0b95 02       		.byte	0x2
 4951 0b96 23       		.byte	0x23
 4952 0b97 09       		.uleb128 0x9
 4953 0b98 07       		.uleb128 0x7
 4954 0b99 74746C00 		.ascii	"ttl\000"
 4955 0b9d 14       		.byte	0x14
 4956 0b9e 5D       		.byte	0x5d
 4957 0b9f A8040000 		.4byte	0x4a8
 4958 0ba3 02       		.byte	0x2
 4959 0ba4 23       		.byte	0x23
 4960 0ba5 0A       		.uleb128 0xa
 4961 0ba6 06       		.uleb128 0x6
 4962 0ba7 3E010000 		.4byte	.LASF92
 4963 0bab 14       		.byte	0x14
 4964 0bac 61       		.byte	0x61
 4965 0bad FB0B0000 		.4byte	0xbfb
 4966 0bb1 02       		.byte	0x2
 4967 0bb2 23       		.byte	0x23
 4968 0bb3 0C       		.uleb128 0xc
 4969 0bb4 06       		.uleb128 0x6
 4970 0bb5 5B040000 		.4byte	.LASF96
 4971 0bb9 14       		.byte	0x14
 4972 0bba 63       		.byte	0x63
 4973 0bbb A8040000 		.4byte	0x4a8
 4974 0bbf 02       		.byte	0x2
 4975 0bc0 23       		.byte	0x23
 4976 0bc1 10       		.uleb128 0x10
 4977 0bc2 06       		.uleb128 0x6
 4978 0bc3 FC000000 		.4byte	.LASF137
 4979 0bc7 14       		.byte	0x14
 4980 0bc8 65       		.byte	0x65
 4981 0bc9 BE040000 		.4byte	0x4be
 4982 0bcd 02       		.byte	0x2
 4983 0bce 23       		.byte	0x23
 4984 0bcf 12       		.uleb128 0x12
ARM GAS  /tmp/ccKs28dn.s 			page 89


 4985 0bd0 06       		.uleb128 0x6
 4986 0bd1 28070000 		.4byte	.LASF138
 4987 0bd5 14       		.byte	0x14
 4988 0bd6 65       		.byte	0x65
 4989 0bd7 BE040000 		.4byte	0x4be
 4990 0bdb 02       		.byte	0x2
 4991 0bdc 23       		.byte	0x23
 4992 0bdd 14       		.uleb128 0x14
 4993 0bde 06       		.uleb128 0x6
 4994 0bdf 5A030000 		.4byte	.LASF167
 4995 0be3 14       		.byte	0x14
 4996 0be4 72       		.byte	0x72
 4997 0be5 FD0D0000 		.4byte	0xdfd
 4998 0be9 02       		.byte	0x2
 4999 0bea 23       		.byte	0x23
 5000 0beb 18       		.uleb128 0x18
 5001 0bec 06       		.uleb128 0x6
 5002 0bed FF010000 		.4byte	.LASF176
 5003 0bf1 14       		.byte	0x14
 5004 0bf2 74       		.byte	0x74
 5005 0bf3 B2020000 		.4byte	0x2b2
 5006 0bf7 02       		.byte	0x2
 5007 0bf8 23       		.byte	0x23
 5008 0bf9 1C       		.uleb128 0x1c
 5009 0bfa 00       		.byte	0
 5010 0bfb 09       		.uleb128 0x9
 5011 0bfc 04       		.byte	0x4
 5012 0bfd 540B0000 		.4byte	0xb54
 5013 0c01 05       		.uleb128 0x5
 5014 0c02 10010000 		.4byte	.LASF177
 5015 0c06 1C       		.byte	0x1c
 5016 0c07 15       		.byte	0x15
 5017 0c08 3F       		.byte	0x3f
 5018 0c09 8C0C0000 		.4byte	0xc8c
 5019 0c0d 06       		.uleb128 0x6
 5020 0c0e 55090000 		.4byte	.LASF130
 5021 0c12 15       		.byte	0x15
 5022 0c13 41       		.byte	0x41
 5023 0c14 FA040000 		.4byte	0x4fa
 5024 0c18 02       		.byte	0x2
 5025 0c19 23       		.byte	0x23
 5026 0c1a 00       		.uleb128 0
 5027 0c1b 06       		.uleb128 0x6
 5028 0c1c B00C0000 		.4byte	.LASF131
 5029 0c20 15       		.byte	0x15
 5030 0c21 41       		.byte	0x41
 5031 0c22 FA040000 		.4byte	0x4fa
 5032 0c26 02       		.byte	0x2
 5033 0c27 23       		.byte	0x23
 5034 0c28 04       		.uleb128 0x4
 5035 0c29 06       		.uleb128 0x6
 5036 0c2a 5A000000 		.4byte	.LASF132
 5037 0c2e 15       		.byte	0x15
 5038 0c2f 41       		.byte	0x41
 5039 0c30 A8040000 		.4byte	0x4a8
 5040 0c34 02       		.byte	0x2
 5041 0c35 23       		.byte	0x23
ARM GAS  /tmp/ccKs28dn.s 			page 90


 5042 0c36 08       		.uleb128 0x8
 5043 0c37 07       		.uleb128 0x7
 5044 0c38 746F7300 		.ascii	"tos\000"
 5045 0c3c 15       		.byte	0x15
 5046 0c3d 41       		.byte	0x41
 5047 0c3e A8040000 		.4byte	0x4a8
 5048 0c42 02       		.byte	0x2
 5049 0c43 23       		.byte	0x23
 5050 0c44 09       		.uleb128 0x9
 5051 0c45 07       		.uleb128 0x7
 5052 0c46 74746C00 		.ascii	"ttl\000"
 5053 0c4a 15       		.byte	0x15
 5054 0c4b 41       		.byte	0x41
 5055 0c4c A8040000 		.4byte	0x4a8
 5056 0c50 02       		.byte	0x2
 5057 0c51 23       		.byte	0x23
 5058 0c52 0A       		.uleb128 0xa
 5059 0c53 06       		.uleb128 0x6
 5060 0c54 3E010000 		.4byte	.LASF92
 5061 0c58 15       		.byte	0x15
 5062 0c59 43       		.byte	0x43
 5063 0c5a 8C0C0000 		.4byte	0xc8c
 5064 0c5e 02       		.byte	0x2
 5065 0c5f 23       		.byte	0x23
 5066 0c60 0C       		.uleb128 0xc
 5067 0c61 06       		.uleb128 0x6
 5068 0c62 C3010000 		.4byte	.LASF178
 5069 0c66 15       		.byte	0x15
 5070 0c67 45       		.byte	0x45
 5071 0c68 A8040000 		.4byte	0x4a8
 5072 0c6c 02       		.byte	0x2
 5073 0c6d 23       		.byte	0x23
 5074 0c6e 10       		.uleb128 0x10
 5075 0c6f 06       		.uleb128 0x6
 5076 0c70 5A030000 		.4byte	.LASF167
 5077 0c74 15       		.byte	0x15
 5078 0c75 48       		.byte	0x48
 5079 0c76 620F0000 		.4byte	0xf62
 5080 0c7a 02       		.byte	0x2
 5081 0c7b 23       		.byte	0x23
 5082 0c7c 14       		.uleb128 0x14
 5083 0c7d 06       		.uleb128 0x6
 5084 0c7e FF010000 		.4byte	.LASF176
 5085 0c82 15       		.byte	0x15
 5086 0c83 4A       		.byte	0x4a
 5087 0c84 B2020000 		.4byte	0x2b2
 5088 0c88 02       		.byte	0x2
 5089 0c89 23       		.byte	0x23
 5090 0c8a 18       		.uleb128 0x18
 5091 0c8b 00       		.byte	0
 5092 0c8c 09       		.uleb128 0x9
 5093 0c8d 04       		.byte	0x4
 5094 0c8e 010C0000 		.4byte	0xc01
 5095 0c92 05       		.uleb128 0x5
 5096 0c93 DE040000 		.4byte	.LASF179
 5097 0c97 14       		.byte	0x14
 5098 0c98 16       		.byte	0x16
ARM GAS  /tmp/ccKs28dn.s 			page 91


 5099 0c99 3E       		.byte	0x3e
 5100 0c9a C90C0000 		.4byte	0xcc9
 5101 0c9e 06       		.uleb128 0x6
 5102 0c9f 3A040000 		.4byte	.LASF180
 5103 0ca3 16       		.byte	0x16
 5104 0ca4 41       		.byte	0x41
 5105 0ca5 F7060000 		.4byte	0x6f7
 5106 0ca9 02       		.byte	0x2
 5107 0caa 23       		.byte	0x23
 5108 0cab 00       		.uleb128 0
 5109 0cac 07       		.uleb128 0x7
 5110 0cad 65727200 		.ascii	"err\000"
 5111 0cb1 16       		.byte	0x16
 5112 0cb2 43       		.byte	0x43
 5113 0cb3 05050000 		.4byte	0x505
 5114 0cb7 02       		.byte	0x2
 5115 0cb8 23       		.byte	0x23
 5116 0cb9 04       		.uleb128 0x4
 5117 0cba 07       		.uleb128 0x7
 5118 0cbb 6D736700 		.ascii	"msg\000"
 5119 0cbf 16       		.byte	0x16
 5120 0cc0 72       		.byte	0x72
 5121 0cc1 AC0D0000 		.4byte	0xdac
 5122 0cc5 02       		.byte	0x2
 5123 0cc6 23       		.byte	0x23
 5124 0cc7 08       		.uleb128 0x8
 5125 0cc8 00       		.byte	0
 5126 0cc9 09       		.uleb128 0x9
 5127 0cca 04       		.byte	0x4
 5128 0ccb 920C0000 		.4byte	0xc92
 5129 0ccf 08       		.uleb128 0x8
 5130 0cd0 01       		.byte	0x1
 5131 0cd1 16       		.byte	0x16
 5132 0cd2 49       		.byte	0x49
 5133 0cd3 E60C0000 		.4byte	0xce6
 5134 0cd7 06       		.uleb128 0x6
 5135 0cd8 99050000 		.4byte	.LASF181
 5136 0cdc 16       		.byte	0x16
 5137 0cdd 4A       		.byte	0x4a
 5138 0cde A8040000 		.4byte	0x4a8
 5139 0ce2 02       		.byte	0x2
 5140 0ce3 23       		.byte	0x23
 5141 0ce4 00       		.uleb128 0
 5142 0ce5 00       		.byte	0
 5143 0ce6 08       		.uleb128 0x8
 5144 0ce7 08       		.byte	0x8
 5145 0ce8 16       		.byte	0x16
 5146 0ce9 4D       		.byte	0x4d
 5147 0cea 0B0D0000 		.4byte	0xd0b
 5148 0cee 06       		.uleb128 0x6
 5149 0cef F4030000 		.4byte	.LASF182
 5150 0cf3 16       		.byte	0x16
 5151 0cf4 4E       		.byte	0x4e
 5152 0cf5 FF050000 		.4byte	0x5ff
 5153 0cf9 02       		.byte	0x2
 5154 0cfa 23       		.byte	0x23
 5155 0cfb 00       		.uleb128 0
ARM GAS  /tmp/ccKs28dn.s 			page 92


 5156 0cfc 06       		.uleb128 0x6
 5157 0cfd 8F0A0000 		.4byte	.LASF98
 5158 0d01 16       		.byte	0x16
 5159 0d02 4F       		.byte	0x4f
 5160 0d03 BE040000 		.4byte	0x4be
 5161 0d07 02       		.byte	0x2
 5162 0d08 23       		.byte	0x23
 5163 0d09 04       		.uleb128 0x4
 5164 0d0a 00       		.byte	0
 5165 0d0b 08       		.uleb128 0x8
 5166 0d0c 0C       		.byte	0xc
 5167 0d0d 16       		.byte	0x16
 5168 0d0e 52       		.byte	0x52
 5169 0d0f 3E0D0000 		.4byte	0xd3e
 5170 0d13 06       		.uleb128 0x6
 5171 0d14 F4030000 		.4byte	.LASF182
 5172 0d18 16       		.byte	0x16
 5173 0d19 53       		.byte	0x53
 5174 0d1a FF050000 		.4byte	0x5ff
 5175 0d1e 02       		.byte	0x2
 5176 0d1f 23       		.byte	0x23
 5177 0d20 00       		.uleb128 0
 5178 0d21 06       		.uleb128 0x6
 5179 0d22 8F0A0000 		.4byte	.LASF98
 5180 0d26 16       		.byte	0x16
 5181 0d27 54       		.byte	0x54
 5182 0d28 3E0D0000 		.4byte	0xd3e
 5183 0d2c 02       		.byte	0x2
 5184 0d2d 23       		.byte	0x23
 5185 0d2e 04       		.uleb128 0x4
 5186 0d2f 06       		.uleb128 0x6
 5187 0d30 6A010000 		.4byte	.LASF183
 5188 0d34 16       		.byte	0x16
 5189 0d35 55       		.byte	0x55
 5190 0d36 A8040000 		.4byte	0x4a8
 5191 0d3a 02       		.byte	0x2
 5192 0d3b 23       		.byte	0x23
 5193 0d3c 08       		.uleb128 0x8
 5194 0d3d 00       		.byte	0
 5195 0d3e 09       		.uleb128 0x9
 5196 0d3f 04       		.byte	0x4
 5197 0d40 BE040000 		.4byte	0x4be
 5198 0d44 08       		.uleb128 0x8
 5199 0d45 0C       		.byte	0xc
 5200 0d46 16       		.byte	0x16
 5201 0d47 58       		.byte	0x58
 5202 0d48 770D0000 		.4byte	0xd77
 5203 0d4c 06       		.uleb128 0x6
 5204 0d4d 00080000 		.4byte	.LASF184
 5205 0d51 16       		.byte	0x16
 5206 0d52 59       		.byte	0x59
 5207 0d53 770D0000 		.4byte	0xd77
 5208 0d57 02       		.byte	0x2
 5209 0d58 23       		.byte	0x23
 5210 0d59 00       		.uleb128 0
 5211 0d5a 07       		.uleb128 0x7
 5212 0d5b 6C656E00 		.ascii	"len\000"
ARM GAS  /tmp/ccKs28dn.s 			page 93


 5213 0d5f 16       		.byte	0x16
 5214 0d60 5A       		.byte	0x5a
 5215 0d61 30000000 		.4byte	0x30
 5216 0d65 02       		.byte	0x2
 5217 0d66 23       		.byte	0x23
 5218 0d67 04       		.uleb128 0x4
 5219 0d68 06       		.uleb128 0x6
 5220 0d69 C4080000 		.4byte	.LASF185
 5221 0d6d 16       		.byte	0x16
 5222 0d6e 5B       		.byte	0x5b
 5223 0d6f A8040000 		.4byte	0x4a8
 5224 0d73 02       		.byte	0x2
 5225 0d74 23       		.byte	0x23
 5226 0d75 08       		.uleb128 0x8
 5227 0d76 00       		.byte	0
 5228 0d77 09       		.uleb128 0x9
 5229 0d78 04       		.byte	0x4
 5230 0d79 7D0D0000 		.4byte	0xd7d
 5231 0d7d 18       		.uleb128 0x18
 5232 0d7e 08       		.uleb128 0x8
 5233 0d7f 04       		.byte	0x4
 5234 0d80 16       		.byte	0x16
 5235 0d81 5E       		.byte	0x5e
 5236 0d82 950D0000 		.4byte	0xd95
 5237 0d86 07       		.uleb128 0x7
 5238 0d87 6C656E00 		.ascii	"len\000"
 5239 0d8b 16       		.byte	0x16
 5240 0d8c 5F       		.byte	0x5f
 5241 0d8d D4040000 		.4byte	0x4d4
 5242 0d91 02       		.byte	0x2
 5243 0d92 23       		.byte	0x23
 5244 0d93 00       		.uleb128 0
 5245 0d94 00       		.byte	0
 5246 0d95 08       		.uleb128 0x8
 5247 0d96 01       		.byte	0x1
 5248 0d97 16       		.byte	0x16
 5249 0d98 62       		.byte	0x62
 5250 0d99 AC0D0000 		.4byte	0xdac
 5251 0d9d 06       		.uleb128 0x6
 5252 0d9e 5C0B0000 		.4byte	.LASF186
 5253 0da2 16       		.byte	0x16
 5254 0da3 63       		.byte	0x63
 5255 0da4 A8040000 		.4byte	0x4a8
 5256 0da8 02       		.byte	0x2
 5257 0da9 23       		.byte	0x23
 5258 0daa 00       		.uleb128 0
 5259 0dab 00       		.byte	0
 5260 0dac 0E       		.uleb128 0xe
 5261 0dad 0C       		.byte	0xc
 5262 0dae 16       		.byte	0x16
 5263 0daf 45       		.byte	0x45
 5264 0db0 F70D0000 		.4byte	0xdf7
 5265 0db4 16       		.uleb128 0x16
 5266 0db5 6200     		.ascii	"b\000"
 5267 0db7 16       		.byte	0x16
 5268 0db8 47       		.byte	0x47
 5269 0db9 F70D0000 		.4byte	0xdf7
ARM GAS  /tmp/ccKs28dn.s 			page 94


 5270 0dbd 16       		.uleb128 0x16
 5271 0dbe 6E00     		.ascii	"n\000"
 5272 0dc0 16       		.byte	0x16
 5273 0dc1 4B       		.byte	0x4b
 5274 0dc2 CF0C0000 		.4byte	0xccf
 5275 0dc6 16       		.uleb128 0x16
 5276 0dc7 626300   		.ascii	"bc\000"
 5277 0dca 16       		.byte	0x16
 5278 0dcb 50       		.byte	0x50
 5279 0dcc E60C0000 		.4byte	0xce6
 5280 0dd0 16       		.uleb128 0x16
 5281 0dd1 616400   		.ascii	"ad\000"
 5282 0dd4 16       		.byte	0x16
 5283 0dd5 56       		.byte	0x56
 5284 0dd6 0B0D0000 		.4byte	0xd0b
 5285 0dda 16       		.uleb128 0x16
 5286 0ddb 7700     		.ascii	"w\000"
 5287 0ddd 16       		.byte	0x16
 5288 0dde 5C       		.byte	0x5c
 5289 0ddf 440D0000 		.4byte	0xd44
 5290 0de3 16       		.uleb128 0x16
 5291 0de4 7200     		.ascii	"r\000"
 5292 0de6 16       		.byte	0x16
 5293 0de7 60       		.byte	0x60
 5294 0de8 7E0D0000 		.4byte	0xd7e
 5295 0dec 16       		.uleb128 0x16
 5296 0ded 736400   		.ascii	"sd\000"
 5297 0df0 16       		.byte	0x16
 5298 0df1 64       		.byte	0x64
 5299 0df2 950D0000 		.4byte	0xd95
 5300 0df6 00       		.byte	0
 5301 0df7 09       		.uleb128 0x9
 5302 0df8 04       		.byte	0x4
 5303 0df9 05060000 		.4byte	0x605
 5304 0dfd 03       		.uleb128 0x3
 5305 0dfe 9F080000 		.4byte	.LASF187
 5306 0e02 14       		.byte	0x14
 5307 0e03 57       		.byte	0x57
 5308 0e04 080E0000 		.4byte	0xe08
 5309 0e08 09       		.uleb128 0x9
 5310 0e09 04       		.byte	0x4
 5311 0e0a 0E0E0000 		.4byte	0xe0e
 5312 0e0e 14       		.uleb128 0x14
 5313 0e0f 01       		.byte	0x1
 5314 0e10 2E0E0000 		.4byte	0xe2e
 5315 0e14 15       		.uleb128 0x15
 5316 0e15 B2020000 		.4byte	0x2b2
 5317 0e19 15       		.uleb128 0x15
 5318 0e1a FB0B0000 		.4byte	0xbfb
 5319 0e1e 15       		.uleb128 0x15
 5320 0e1f F9050000 		.4byte	0x5f9
 5321 0e23 15       		.uleb128 0x15
 5322 0e24 FF050000 		.4byte	0x5ff
 5323 0e28 15       		.uleb128 0x15
 5324 0e29 BE040000 		.4byte	0x4be
 5325 0e2d 00       		.byte	0
 5326 0e2e 03       		.uleb128 0x3
ARM GAS  /tmp/ccKs28dn.s 			page 95


 5327 0e2f EA040000 		.4byte	.LASF188
 5328 0e33 13       		.byte	0x13
 5329 0e34 3D       		.byte	0x3d
 5330 0e35 390E0000 		.4byte	0xe39
 5331 0e39 09       		.uleb128 0x9
 5332 0e3a 04       		.byte	0x4
 5333 0e3b 3F0E0000 		.4byte	0xe3f
 5334 0e3f 19       		.uleb128 0x19
 5335 0e40 01       		.byte	0x1
 5336 0e41 05050000 		.4byte	0x505
 5337 0e45 590E0000 		.4byte	0xe59
 5338 0e49 15       		.uleb128 0x15
 5339 0e4a B2020000 		.4byte	0x2b2
 5340 0e4e 15       		.uleb128 0x15
 5341 0e4f 4E0B0000 		.4byte	0xb4e
 5342 0e53 15       		.uleb128 0x15
 5343 0e54 05050000 		.4byte	0x505
 5344 0e58 00       		.byte	0
 5345 0e59 03       		.uleb128 0x3
 5346 0e5a BC070000 		.4byte	.LASF189
 5347 0e5e 13       		.byte	0x13
 5348 0e5f 49       		.byte	0x49
 5349 0e60 640E0000 		.4byte	0xe64
 5350 0e64 09       		.uleb128 0x9
 5351 0e65 04       		.byte	0x4
 5352 0e66 6A0E0000 		.4byte	0xe6a
 5353 0e6a 19       		.uleb128 0x19
 5354 0e6b 01       		.byte	0x1
 5355 0e6c 05050000 		.4byte	0x505
 5356 0e70 890E0000 		.4byte	0xe89
 5357 0e74 15       		.uleb128 0x15
 5358 0e75 B2020000 		.4byte	0x2b2
 5359 0e79 15       		.uleb128 0x15
 5360 0e7a 4E0B0000 		.4byte	0xb4e
 5361 0e7e 15       		.uleb128 0x15
 5362 0e7f F9050000 		.4byte	0x5f9
 5363 0e83 15       		.uleb128 0x15
 5364 0e84 05050000 		.4byte	0x505
 5365 0e88 00       		.byte	0
 5366 0e89 03       		.uleb128 0x3
 5367 0e8a 08020000 		.4byte	.LASF190
 5368 0e8e 13       		.byte	0x13
 5369 0e8f 57       		.byte	0x57
 5370 0e90 940E0000 		.4byte	0xe94
 5371 0e94 09       		.uleb128 0x9
 5372 0e95 04       		.byte	0x4
 5373 0e96 9A0E0000 		.4byte	0xe9a
 5374 0e9a 19       		.uleb128 0x19
 5375 0e9b 01       		.byte	0x1
 5376 0e9c 05050000 		.4byte	0x505
 5377 0ea0 B40E0000 		.4byte	0xeb4
 5378 0ea4 15       		.uleb128 0x15
 5379 0ea5 B2020000 		.4byte	0x2b2
 5380 0ea9 15       		.uleb128 0x15
 5381 0eaa 4E0B0000 		.4byte	0xb4e
 5382 0eae 15       		.uleb128 0x15
 5383 0eaf BE040000 		.4byte	0x4be
ARM GAS  /tmp/ccKs28dn.s 			page 96


 5384 0eb3 00       		.byte	0
 5385 0eb4 03       		.uleb128 0x3
 5386 0eb5 10080000 		.4byte	.LASF191
 5387 0eb9 13       		.byte	0x13
 5388 0eba 63       		.byte	0x63
 5389 0ebb BF0E0000 		.4byte	0xebf
 5390 0ebf 09       		.uleb128 0x9
 5391 0ec0 04       		.byte	0x4
 5392 0ec1 C50E0000 		.4byte	0xec5
 5393 0ec5 19       		.uleb128 0x19
 5394 0ec6 01       		.byte	0x1
 5395 0ec7 05050000 		.4byte	0x505
 5396 0ecb DA0E0000 		.4byte	0xeda
 5397 0ecf 15       		.uleb128 0x15
 5398 0ed0 B2020000 		.4byte	0x2b2
 5399 0ed4 15       		.uleb128 0x15
 5400 0ed5 4E0B0000 		.4byte	0xb4e
 5401 0ed9 00       		.byte	0
 5402 0eda 03       		.uleb128 0x3
 5403 0edb 01060000 		.4byte	.LASF192
 5404 0edf 13       		.byte	0x13
 5405 0ee0 6F       		.byte	0x6f
 5406 0ee1 E50E0000 		.4byte	0xee5
 5407 0ee5 09       		.uleb128 0x9
 5408 0ee6 04       		.byte	0x4
 5409 0ee7 EB0E0000 		.4byte	0xeeb
 5410 0eeb 14       		.uleb128 0x14
 5411 0eec 01       		.byte	0x1
 5412 0eed FC0E0000 		.4byte	0xefc
 5413 0ef1 15       		.uleb128 0x15
 5414 0ef2 B2020000 		.4byte	0x2b2
 5415 0ef6 15       		.uleb128 0x15
 5416 0ef7 05050000 		.4byte	0x505
 5417 0efb 00       		.byte	0
 5418 0efc 03       		.uleb128 0x3
 5419 0efd 9B040000 		.4byte	.LASF193
 5420 0f01 13       		.byte	0x13
 5421 0f02 7D       		.byte	0x7d
 5422 0f03 390E0000 		.4byte	0xe39
 5423 0f07 13       		.uleb128 0x13
 5424 0f08 D90C0000 		.4byte	.LASF194
 5425 0f0c 01       		.byte	0x1
 5426 0f0d 13       		.byte	0x13
 5427 0f0e 7F       		.byte	0x7f
 5428 0f0f 560F0000 		.4byte	0xf56
 5429 0f13 12       		.uleb128 0x12
 5430 0f14 98080000 		.4byte	.LASF195
 5431 0f18 00       		.sleb128 0
 5432 0f19 12       		.uleb128 0x12
 5433 0f1a 910B0000 		.4byte	.LASF196
 5434 0f1e 01       		.sleb128 1
 5435 0f1f 12       		.uleb128 0x12
 5436 0f20 530B0000 		.4byte	.LASF197
 5437 0f24 02       		.sleb128 2
 5438 0f25 12       		.uleb128 0x12
 5439 0f26 370D0000 		.4byte	.LASF198
 5440 0f2a 03       		.sleb128 3
ARM GAS  /tmp/ccKs28dn.s 			page 97


 5441 0f2b 12       		.uleb128 0x12
 5442 0f2c B0090000 		.4byte	.LASF199
 5443 0f30 04       		.sleb128 4
 5444 0f31 12       		.uleb128 0x12
 5445 0f32 050B0000 		.4byte	.LASF200
 5446 0f36 05       		.sleb128 5
 5447 0f37 12       		.uleb128 0x12
 5448 0f38 100B0000 		.4byte	.LASF201
 5449 0f3c 06       		.sleb128 6
 5450 0f3d 12       		.uleb128 0x12
 5451 0f3e 87050000 		.4byte	.LASF202
 5452 0f42 07       		.sleb128 7
 5453 0f43 12       		.uleb128 0x12
 5454 0f44 49040000 		.4byte	.LASF203
 5455 0f48 08       		.sleb128 8
 5456 0f49 12       		.uleb128 0x12
 5457 0f4a E3030000 		.4byte	.LASF204
 5458 0f4e 09       		.sleb128 9
 5459 0f4f 12       		.uleb128 0x12
 5460 0f50 AE060000 		.4byte	.LASF205
 5461 0f54 0A       		.sleb128 10
 5462 0f55 00       		.byte	0
 5463 0f56 1A       		.uleb128 0x1a
 5464 0f57 E8020000 		.4byte	.LASF314
 5465 0f5b 01       		.byte	0x1
 5466 0f5c 09       		.uleb128 0x9
 5467 0f5d 04       		.byte	0x4
 5468 0f5e 560F0000 		.4byte	0xf56
 5469 0f62 03       		.uleb128 0x3
 5470 0f63 D3060000 		.4byte	.LASF206
 5471 0f67 15       		.byte	0x15
 5472 0f68 3C       		.byte	0x3c
 5473 0f69 6D0F0000 		.4byte	0xf6d
 5474 0f6d 09       		.uleb128 0x9
 5475 0f6e 04       		.byte	0x4
 5476 0f6f 730F0000 		.4byte	0xf73
 5477 0f73 19       		.uleb128 0x19
 5478 0f74 01       		.byte	0x1
 5479 0f75 A8040000 		.4byte	0x4a8
 5480 0f79 920F0000 		.4byte	0xf92
 5481 0f7d 15       		.uleb128 0x15
 5482 0f7e B2020000 		.4byte	0x2b2
 5483 0f82 15       		.uleb128 0x15
 5484 0f83 8C0C0000 		.4byte	0xc8c
 5485 0f87 15       		.uleb128 0x15
 5486 0f88 F9050000 		.4byte	0x5f9
 5487 0f8c 15       		.uleb128 0x15
 5488 0f8d FF050000 		.4byte	0x5ff
 5489 0f91 00       		.byte	0
 5490 0f92 11       		.uleb128 0x11
 5491 0f93 01       		.byte	0x1
 5492 0f94 17       		.byte	0x17
 5493 0f95 2B       		.byte	0x2b
 5494 0f96 F50F0000 		.4byte	0xff5
 5495 0f9a 12       		.uleb128 0x12
 5496 0f9b 050A0000 		.4byte	.LASF207
 5497 0f9f 00       		.sleb128 0
ARM GAS  /tmp/ccKs28dn.s 			page 98


 5498 0fa0 12       		.uleb128 0x12
 5499 0fa1 48090000 		.4byte	.LASF208
 5500 0fa5 01       		.sleb128 1
 5501 0fa6 12       		.uleb128 0x12
 5502 0fa7 600A0000 		.4byte	.LASF209
 5503 0fab 02       		.sleb128 2
 5504 0fac 12       		.uleb128 0x12
 5505 0fad 3F000000 		.4byte	.LASF210
 5506 0fb1 03       		.sleb128 3
 5507 0fb2 12       		.uleb128 0x12
 5508 0fb3 DB0A0000 		.4byte	.LASF211
 5509 0fb7 04       		.sleb128 4
 5510 0fb8 12       		.uleb128 0x12
 5511 0fb9 AD070000 		.4byte	.LASF212
 5512 0fbd 05       		.sleb128 5
 5513 0fbe 12       		.uleb128 0x12
 5514 0fbf CD090000 		.4byte	.LASF213
 5515 0fc3 06       		.sleb128 6
 5516 0fc4 12       		.uleb128 0x12
 5517 0fc5 54060000 		.4byte	.LASF214
 5518 0fc9 07       		.sleb128 7
 5519 0fca 12       		.uleb128 0x12
 5520 0fcb FB0C0000 		.4byte	.LASF215
 5521 0fcf 08       		.sleb128 8
 5522 0fd0 12       		.uleb128 0x12
 5523 0fd1 86020000 		.4byte	.LASF216
 5524 0fd5 09       		.sleb128 9
 5525 0fd6 12       		.uleb128 0x12
 5526 0fd7 8C030000 		.4byte	.LASF217
 5527 0fdb 0A       		.sleb128 10
 5528 0fdc 12       		.uleb128 0x12
 5529 0fdd 30090000 		.4byte	.LASF218
 5530 0fe1 0B       		.sleb128 11
 5531 0fe2 12       		.uleb128 0x12
 5532 0fe3 3B050000 		.4byte	.LASF219
 5533 0fe7 0C       		.sleb128 12
 5534 0fe8 12       		.uleb128 0x12
 5535 0fe9 A8050000 		.4byte	.LASF220
 5536 0fed 0D       		.sleb128 13
 5537 0fee 12       		.uleb128 0x12
 5538 0fef 7B040000 		.4byte	.LASF221
 5539 0ff3 0E       		.sleb128 14
 5540 0ff4 00       		.byte	0
 5541 0ff5 03       		.uleb128 0x3
 5542 0ff6 E30C0000 		.4byte	.LASF222
 5543 0ffa 17       		.byte	0x17
 5544 0ffb 2F       		.byte	0x2f
 5545 0ffc 920F0000 		.4byte	0xf92
 5546 1000 09       		.uleb128 0x9
 5547 1001 04       		.byte	0x4
 5548 1002 10050000 		.4byte	0x510
 5549 1006 1B       		.uleb128 0x1b
 5550 1007 9A010000 		.4byte	.LASF315
 5551 100b 01       		.byte	0x1
 5552 100c 3901     		.2byte	0x139
 5553 100e 01       		.byte	0x1
 5554 100f 05050000 		.4byte	0x505
ARM GAS  /tmp/ccKs28dn.s 			page 99


 5555 1013 01       		.byte	0x1
 5556 1014 49100000 		.4byte	0x1049
 5557 1018 1C       		.uleb128 0x1c
 5558 1019 61726700 		.ascii	"arg\000"
 5559 101d 01       		.byte	0x1
 5560 101e 3901     		.2byte	0x139
 5561 1020 B2020000 		.4byte	0x2b2
 5562 1024 1C       		.uleb128 0x1c
 5563 1025 70636200 		.ascii	"pcb\000"
 5564 1029 01       		.byte	0x1
 5565 102a 3901     		.2byte	0x139
 5566 102c 4E0B0000 		.4byte	0xb4e
 5567 1030 1C       		.uleb128 0x1c
 5568 1031 6C656E00 		.ascii	"len\000"
 5569 1035 01       		.byte	0x1
 5570 1036 3901     		.2byte	0x139
 5571 1038 BE040000 		.4byte	0x4be
 5572 103c 1D       		.uleb128 0x1d
 5573 103d 3A040000 		.4byte	.LASF180
 5574 1041 01       		.byte	0x1
 5575 1042 3B01     		.2byte	0x13b
 5576 1044 F7060000 		.4byte	0x6f7
 5577 1048 00       		.byte	0
 5578 1049 1E       		.uleb128 0x1e
 5579 104a 1E070000 		.4byte	.LASF224
 5580 104e 01       		.byte	0x1
 5581 104f 9D01     		.2byte	0x19d
 5582 1051 01       		.byte	0x1
 5583 1052 00000000 		.4byte	.LFB13
 5584 1056 4A000000 		.4byte	.LFE13
 5585 105a 00000000 		.4byte	.LLST0
 5586 105e 01       		.byte	0x1
 5587 105f 13110000 		.4byte	0x1113
 5588 1063 1F       		.uleb128 0x1f
 5589 1064 3A040000 		.4byte	.LASF180
 5590 1068 01       		.byte	0x1
 5591 1069 9D01     		.2byte	0x19d
 5592 106b F7060000 		.4byte	0x6f7
 5593 106f 20000000 		.4byte	.LLST1
 5594 1073 20       		.uleb128 0x20
 5595 1074 70636200 		.ascii	"pcb\000"
 5596 1078 01       		.byte	0x1
 5597 1079 9F01     		.2byte	0x19f
 5598 107b 4E0B0000 		.4byte	0xb4e
 5599 107f 01       		.byte	0x1
 5600 1080 54       		.byte	0x54
 5601 1081 21       		.uleb128 0x21
 5602 1082 0C000000 		.4byte	.LVL3
 5603 1086 D5240000 		.4byte	0x24d5
 5604 108a 9C100000 		.4byte	0x109c
 5605 108e 22       		.uleb128 0x22
 5606 108f 01       		.byte	0x1
 5607 1090 51       		.byte	0x51
 5608 1091 03       		.byte	0x3
 5609 1092 F3       		.byte	0xf3
 5610 1093 01       		.uleb128 0x1
 5611 1094 50       		.byte	0x50
ARM GAS  /tmp/ccKs28dn.s 			page 100


 5612 1095 22       		.uleb128 0x22
 5613 1096 01       		.byte	0x1
 5614 1097 50       		.byte	0x50
 5615 1098 02       		.byte	0x2
 5616 1099 74       		.byte	0x74
 5617 109a 00       		.sleb128 0
 5618 109b 00       		.byte	0
 5619 109c 21       		.uleb128 0x21
 5620 109d 1A000000 		.4byte	.LVL4
 5621 10a1 EF240000 		.4byte	0x24ef
 5622 10a5 B9100000 		.4byte	0x10b9
 5623 10a9 22       		.uleb128 0x22
 5624 10aa 01       		.byte	0x1
 5625 10ab 51       		.byte	0x51
 5626 10ac 05       		.byte	0x5
 5627 10ad 03       		.byte	0x3
 5628 10ae 00000000 		.4byte	recv_tcp
 5629 10b2 22       		.uleb128 0x22
 5630 10b3 01       		.byte	0x1
 5631 10b4 50       		.byte	0x50
 5632 10b5 02       		.byte	0x2
 5633 10b6 74       		.byte	0x74
 5634 10b7 00       		.sleb128 0
 5635 10b8 00       		.byte	0
 5636 10b9 21       		.uleb128 0x21
 5637 10ba 28000000 		.4byte	.LVL5
 5638 10be 09250000 		.4byte	0x2509
 5639 10c2 D6100000 		.4byte	0x10d6
 5640 10c6 22       		.uleb128 0x22
 5641 10c7 01       		.byte	0x1
 5642 10c8 51       		.byte	0x51
 5643 10c9 05       		.byte	0x5
 5644 10ca 03       		.byte	0x3
 5645 10cb 00000000 		.4byte	sent_tcp
 5646 10cf 22       		.uleb128 0x22
 5647 10d0 01       		.byte	0x1
 5648 10d1 50       		.byte	0x50
 5649 10d2 02       		.byte	0x2
 5650 10d3 74       		.byte	0x74
 5651 10d4 00       		.sleb128 0
 5652 10d5 00       		.byte	0
 5653 10d6 21       		.uleb128 0x21
 5654 10d7 38000000 		.4byte	.LVL6
 5655 10db 23250000 		.4byte	0x2523
 5656 10df F8100000 		.4byte	0x10f8
 5657 10e3 22       		.uleb128 0x22
 5658 10e4 01       		.byte	0x1
 5659 10e5 52       		.byte	0x52
 5660 10e6 01       		.byte	0x1
 5661 10e7 34       		.byte	0x34
 5662 10e8 22       		.uleb128 0x22
 5663 10e9 01       		.byte	0x1
 5664 10ea 51       		.byte	0x51
 5665 10eb 05       		.byte	0x5
 5666 10ec 03       		.byte	0x3
 5667 10ed 00000000 		.4byte	poll_tcp
 5668 10f1 22       		.uleb128 0x22
ARM GAS  /tmp/ccKs28dn.s 			page 101


 5669 10f2 01       		.byte	0x1
 5670 10f3 50       		.byte	0x50
 5671 10f4 02       		.byte	0x2
 5672 10f5 74       		.byte	0x74
 5673 10f6 00       		.sleb128 0
 5674 10f7 00       		.byte	0
 5675 10f8 23       		.uleb128 0x23
 5676 10f9 4A000000 		.4byte	.LVL7
 5677 10fd 01       		.byte	0x1
 5678 10fe 42250000 		.4byte	0x2542
 5679 1102 22       		.uleb128 0x22
 5680 1103 01       		.byte	0x1
 5681 1104 51       		.byte	0x51
 5682 1105 05       		.byte	0x5
 5683 1106 03       		.byte	0x3
 5684 1107 00000000 		.4byte	err_tcp
 5685 110b 22       		.uleb128 0x22
 5686 110c 01       		.byte	0x1
 5687 110d 50       		.byte	0x50
 5688 110e 02       		.byte	0x2
 5689 110f 74       		.byte	0x74
 5690 1110 00       		.sleb128 0
 5691 1111 00       		.byte	0
 5692 1112 00       		.byte	0
 5693 1113 24       		.uleb128 0x24
 5694 1114 CE0A0000 		.4byte	.LASF232
 5695 1118 01       		.byte	0x1
 5696 1119 9D03     		.2byte	0x39d
 5697 111b 01       		.byte	0x1
 5698 111c 05050000 		.4byte	0x505
 5699 1120 00000000 		.4byte	.LFB23
 5700 1124 8A000000 		.4byte	.LFE23
 5701 1128 4C000000 		.4byte	.LLST2
 5702 112c 01       		.byte	0x1
 5703 112d D6110000 		.4byte	0x11d6
 5704 1131 25       		.uleb128 0x25
 5705 1132 61726700 		.ascii	"arg\000"
 5706 1136 01       		.byte	0x1
 5707 1137 9D03     		.2byte	0x39d
 5708 1139 B2020000 		.4byte	0x2b2
 5709 113d 6C000000 		.4byte	.LLST3
 5710 1141 25       		.uleb128 0x25
 5711 1142 70636200 		.ascii	"pcb\000"
 5712 1146 01       		.byte	0x1
 5713 1147 9D03     		.2byte	0x39d
 5714 1149 4E0B0000 		.4byte	0xb4e
 5715 114d A0000000 		.4byte	.LLST4
 5716 1151 25       		.uleb128 0x25
 5717 1152 65727200 		.ascii	"err\000"
 5718 1156 01       		.byte	0x1
 5719 1157 9D03     		.2byte	0x39d
 5720 1159 05050000 		.4byte	0x505
 5721 115d CC000000 		.4byte	.LLST5
 5722 1161 26       		.uleb128 0x26
 5723 1162 3A040000 		.4byte	.LASF180
 5724 1166 01       		.byte	0x1
 5725 1167 9F03     		.2byte	0x39f
ARM GAS  /tmp/ccKs28dn.s 			page 102


 5726 1169 F7060000 		.4byte	0x6f7
 5727 116d 6C000000 		.4byte	.LLST3
 5728 1171 26       		.uleb128 0x26
 5729 1172 0A0C0000 		.4byte	.LASF223
 5730 1176 01       		.byte	0x1
 5731 1177 A003     		.2byte	0x3a0
 5732 1179 29000000 		.4byte	0x29
 5733 117d F8000000 		.4byte	.LLST7
 5734 1181 27       		.uleb128 0x27
 5735 1182 14000000 		.4byte	.LVL9
 5736 1186 5C250000 		.4byte	0x255c
 5737 118a 28       		.uleb128 0x28
 5738 118b 44000000 		.4byte	.LVL11
 5739 118f A4110000 		.4byte	0x11a4
 5740 1193 22       		.uleb128 0x22
 5741 1194 01       		.byte	0x1
 5742 1195 52       		.byte	0x52
 5743 1196 01       		.byte	0x1
 5744 1197 30       		.byte	0x30
 5745 1198 22       		.uleb128 0x22
 5746 1199 01       		.byte	0x1
 5747 119a 51       		.byte	0x51
 5748 119b 01       		.byte	0x1
 5749 119c 32       		.byte	0x32
 5750 119d 22       		.uleb128 0x22
 5751 119e 01       		.byte	0x1
 5752 119f 50       		.byte	0x50
 5753 11a0 02       		.byte	0x2
 5754 11a1 74       		.byte	0x74
 5755 11a2 00       		.sleb128 0
 5756 11a3 00       		.byte	0
 5757 11a4 21       		.uleb128 0x21
 5758 11a5 50000000 		.4byte	.LVL14
 5759 11a9 67250000 		.4byte	0x2567
 5760 11ad B8110000 		.4byte	0x11b8
 5761 11b1 22       		.uleb128 0x22
 5762 11b2 01       		.byte	0x1
 5763 11b3 50       		.byte	0x50
 5764 11b4 02       		.byte	0x2
 5765 11b5 74       		.byte	0x74
 5766 11b6 0C       		.sleb128 12
 5767 11b7 00       		.byte	0
 5768 11b8 21       		.uleb128 0x21
 5769 11b9 6C000000 		.4byte	.LVL18
 5770 11bd 49100000 		.4byte	0x1049
 5771 11c1 CC110000 		.4byte	0x11cc
 5772 11c5 22       		.uleb128 0x22
 5773 11c6 01       		.byte	0x1
 5774 11c7 50       		.byte	0x50
 5775 11c8 02       		.byte	0x2
 5776 11c9 74       		.byte	0x74
 5777 11ca 00       		.sleb128 0
 5778 11cb 00       		.byte	0
 5779 11cc 27       		.uleb128 0x27
 5780 11cd 7E000000 		.4byte	.LVL19
 5781 11d1 5C250000 		.4byte	0x255c
 5782 11d5 00       		.byte	0
ARM GAS  /tmp/ccKs28dn.s 			page 103


 5783 11d6 1E       		.uleb128 0x1e
 5784 11d7 4E0A0000 		.4byte	.LASF225
 5785 11db 01       		.byte	0x1
 5786 11dc DF02     		.2byte	0x2df
 5787 11de 01       		.byte	0x1
 5788 11df 00000000 		.4byte	.LFB20
 5789 11e3 50010000 		.4byte	.LFE20
 5790 11e7 2C010000 		.4byte	.LLST8
 5791 11eb 01       		.byte	0x1
 5792 11ec F4130000 		.4byte	0x13f4
 5793 11f0 1F       		.uleb128 0x1f
 5794 11f1 3A040000 		.4byte	.LASF180
 5795 11f5 01       		.byte	0x1
 5796 11f6 DF02     		.2byte	0x2df
 5797 11f8 F7060000 		.4byte	0x6f7
 5798 11fc 4C010000 		.4byte	.LLST9
 5799 1200 29       		.uleb128 0x29
 5800 1201 65727200 		.ascii	"err\000"
 5801 1205 01       		.byte	0x1
 5802 1206 E102     		.2byte	0x2e1
 5803 1208 05050000 		.4byte	0x505
 5804 120c 80010000 		.4byte	.LLST10
 5805 1210 26       		.uleb128 0x26
 5806 1211 5C0B0000 		.4byte	.LASF186
 5807 1215 01       		.byte	0x1
 5808 1216 E202     		.2byte	0x2e2
 5809 1218 A8040000 		.4byte	0x4a8
 5810 121c B4010000 		.4byte	.LLST11
 5811 1220 26       		.uleb128 0x26
 5812 1221 F30C0000 		.4byte	.LASF226
 5813 1225 01       		.byte	0x1
 5814 1226 E202     		.2byte	0x2e2
 5815 1228 A8040000 		.4byte	0x4a8
 5816 122c EB010000 		.4byte	.LLST12
 5817 1230 26       		.uleb128 0x26
 5818 1231 79010000 		.4byte	.LASF227
 5819 1235 01       		.byte	0x1
 5820 1236 E202     		.2byte	0x2e2
 5821 1238 A8040000 		.4byte	0x4a8
 5822 123c FE010000 		.4byte	.LLST13
 5823 1240 26       		.uleb128 0x26
 5824 1241 D2070000 		.4byte	.LASF228
 5825 1245 01       		.byte	0x1
 5826 1246 E202     		.2byte	0x2e2
 5827 1248 A8040000 		.4byte	0x4a8
 5828 124c 11020000 		.4byte	.LLST14
 5829 1250 27       		.uleb128 0x27
 5830 1251 14000000 		.4byte	.LVL24
 5831 1255 5C250000 		.4byte	0x255c
 5832 1259 27       		.uleb128 0x27
 5833 125a 1E000000 		.4byte	.LVL25
 5834 125e 5C250000 		.4byte	0x255c
 5835 1262 21       		.uleb128 0x21
 5836 1263 60000000 		.4byte	.LVL31
 5837 1267 7B250000 		.4byte	0x257b
 5838 126b 7C120000 		.4byte	0x127c
 5839 126f 22       		.uleb128 0x22
ARM GAS  /tmp/ccKs28dn.s 			page 104


 5840 1270 01       		.byte	0x1
 5841 1271 52       		.byte	0x52
 5842 1272 02       		.byte	0x2
 5843 1273 76       		.byte	0x76
 5844 1274 00       		.sleb128 0
 5845 1275 22       		.uleb128 0x22
 5846 1276 01       		.byte	0x1
 5847 1277 51       		.byte	0x51
 5848 1278 02       		.byte	0x2
 5849 1279 77       		.byte	0x77
 5850 127a 00       		.sleb128 0
 5851 127b 00       		.byte	0
 5852 127c 2A       		.uleb128 0x2a
 5853 127d 7A000000 		.4byte	.LVL33
 5854 1281 02       		.byte	0x2
 5855 1282 75       		.byte	0x75
 5856 1283 00       		.sleb128 0
 5857 1284 94120000 		.4byte	0x1294
 5858 1288 22       		.uleb128 0x22
 5859 1289 01       		.byte	0x1
 5860 128a 51       		.byte	0x51
 5861 128b 01       		.byte	0x1
 5862 128c 34       		.byte	0x34
 5863 128d 22       		.uleb128 0x22
 5864 128e 01       		.byte	0x1
 5865 128f 50       		.byte	0x50
 5866 1290 02       		.byte	0x2
 5867 1291 74       		.byte	0x74
 5868 1292 00       		.sleb128 0
 5869 1293 00       		.byte	0
 5870 1294 28       		.uleb128 0x28
 5871 1295 88000000 		.4byte	.LVL34
 5872 1299 AE120000 		.4byte	0x12ae
 5873 129d 22       		.uleb128 0x22
 5874 129e 01       		.byte	0x1
 5875 129f 52       		.byte	0x52
 5876 12a0 01       		.byte	0x1
 5877 12a1 30       		.byte	0x30
 5878 12a2 22       		.uleb128 0x22
 5879 12a3 01       		.byte	0x1
 5880 12a4 51       		.byte	0x51
 5881 12a5 01       		.byte	0x1
 5882 12a6 30       		.byte	0x30
 5883 12a7 22       		.uleb128 0x22
 5884 12a8 01       		.byte	0x1
 5885 12a9 50       		.byte	0x50
 5886 12aa 02       		.byte	0x2
 5887 12ab 74       		.byte	0x74
 5888 12ac 00       		.sleb128 0
 5889 12ad 00       		.byte	0
 5890 12ae 28       		.uleb128 0x28
 5891 12af 96000000 		.4byte	.LVL35
 5892 12b3 C8120000 		.4byte	0x12c8
 5893 12b7 22       		.uleb128 0x22
 5894 12b8 01       		.byte	0x1
 5895 12b9 52       		.byte	0x52
 5896 12ba 01       		.byte	0x1
ARM GAS  /tmp/ccKs28dn.s 			page 105


 5897 12bb 30       		.byte	0x30
 5898 12bc 22       		.uleb128 0x22
 5899 12bd 01       		.byte	0x1
 5900 12be 51       		.byte	0x51
 5901 12bf 01       		.byte	0x1
 5902 12c0 32       		.byte	0x32
 5903 12c1 22       		.uleb128 0x22
 5904 12c2 01       		.byte	0x1
 5905 12c3 50       		.byte	0x50
 5906 12c4 02       		.byte	0x2
 5907 12c5 74       		.byte	0x74
 5908 12c6 00       		.sleb128 0
 5909 12c7 00       		.byte	0
 5910 12c8 2B       		.uleb128 0x2b
 5911 12c9 A2000000 		.4byte	.LVL36
 5912 12cd 01       		.byte	0x1
 5913 12ce 67250000 		.4byte	0x2567
 5914 12d2 DD120000 		.4byte	0x12dd
 5915 12d6 22       		.uleb128 0x22
 5916 12d7 01       		.byte	0x1
 5917 12d8 50       		.byte	0x50
 5918 12d9 02       		.byte	0x2
 5919 12da 74       		.byte	0x74
 5920 12db 0C       		.sleb128 12
 5921 12dc 00       		.byte	0
 5922 12dd 21       		.uleb128 0x21
 5923 12de B0000000 		.4byte	.LVL38
 5924 12e2 09250000 		.4byte	0x2509
 5925 12e6 F4120000 		.4byte	0x12f4
 5926 12ea 22       		.uleb128 0x22
 5927 12eb 01       		.byte	0x1
 5928 12ec 51       		.byte	0x51
 5929 12ed 05       		.byte	0x5
 5930 12ee 03       		.byte	0x3
 5931 12ef 00000000 		.4byte	sent_tcp
 5932 12f3 00       		.byte	0
 5933 12f4 21       		.uleb128 0x21
 5934 12f5 BA000000 		.4byte	.LVL39
 5935 12f9 23250000 		.4byte	0x2523
 5936 12fd 10130000 		.4byte	0x1310
 5937 1301 22       		.uleb128 0x22
 5938 1302 01       		.byte	0x1
 5939 1303 52       		.byte	0x52
 5940 1304 01       		.byte	0x1
 5941 1305 34       		.byte	0x34
 5942 1306 22       		.uleb128 0x22
 5943 1307 01       		.byte	0x1
 5944 1308 51       		.byte	0x51
 5945 1309 05       		.byte	0x5
 5946 130a 03       		.byte	0x3
 5947 130b 00000000 		.4byte	poll_tcp
 5948 130f 00       		.byte	0
 5949 1310 21       		.uleb128 0x21
 5950 1311 C2000000 		.4byte	.LVL40
 5951 1315 42250000 		.4byte	0x2542
 5952 1319 27130000 		.4byte	0x1327
 5953 131d 22       		.uleb128 0x22
ARM GAS  /tmp/ccKs28dn.s 			page 106


 5954 131e 01       		.byte	0x1
 5955 131f 51       		.byte	0x51
 5956 1320 05       		.byte	0x5
 5957 1321 03       		.byte	0x3
 5958 1322 00000000 		.4byte	err_tcp
 5959 1326 00       		.byte	0
 5960 1327 2B       		.uleb128 0x2b
 5961 1328 CE000000 		.4byte	.LVL41
 5962 132c 01       		.byte	0x1
 5963 132d D5240000 		.4byte	0x24d5
 5964 1331 3C130000 		.4byte	0x133c
 5965 1335 22       		.uleb128 0x22
 5966 1336 01       		.byte	0x1
 5967 1337 51       		.byte	0x51
 5968 1338 02       		.byte	0x2
 5969 1339 74       		.byte	0x74
 5970 133a 00       		.sleb128 0
 5971 133b 00       		.byte	0
 5972 133c 21       		.uleb128 0x21
 5973 133d D4000000 		.4byte	.LVL42
 5974 1341 09250000 		.4byte	0x2509
 5975 1345 4F130000 		.4byte	0x134f
 5976 1349 22       		.uleb128 0x22
 5977 134a 01       		.byte	0x1
 5978 134b 51       		.byte	0x51
 5979 134c 01       		.byte	0x1
 5980 134d 30       		.byte	0x30
 5981 134e 00       		.byte	0
 5982 134f 21       		.uleb128 0x21
 5983 1350 E2000000 		.4byte	.LVL43
 5984 1354 23250000 		.4byte	0x2523
 5985 1358 67130000 		.4byte	0x1367
 5986 135c 22       		.uleb128 0x22
 5987 135d 01       		.byte	0x1
 5988 135e 52       		.byte	0x52
 5989 135f 01       		.byte	0x1
 5990 1360 34       		.byte	0x34
 5991 1361 22       		.uleb128 0x22
 5992 1362 01       		.byte	0x1
 5993 1363 51       		.byte	0x51
 5994 1364 01       		.byte	0x1
 5995 1365 30       		.byte	0x30
 5996 1366 00       		.byte	0
 5997 1367 21       		.uleb128 0x21
 5998 1368 EA000000 		.4byte	.LVL44
 5999 136c 42250000 		.4byte	0x2542
 6000 1370 7A130000 		.4byte	0x137a
 6001 1374 22       		.uleb128 0x22
 6002 1375 01       		.byte	0x1
 6003 1376 51       		.byte	0x51
 6004 1377 01       		.byte	0x1
 6005 1378 30       		.byte	0x30
 6006 1379 00       		.byte	0
 6007 137a 27       		.uleb128 0x27
 6008 137b F4000000 		.4byte	.LVL45
 6009 137f 9E250000 		.4byte	0x259e
 6010 1383 21       		.uleb128 0x21
ARM GAS  /tmp/ccKs28dn.s 			page 107


 6011 1384 FE000000 		.4byte	.LVL48
 6012 1388 EF240000 		.4byte	0x24ef
 6013 138c 96130000 		.4byte	0x1396
 6014 1390 22       		.uleb128 0x22
 6015 1391 01       		.byte	0x1
 6016 1392 51       		.byte	0x51
 6017 1393 01       		.byte	0x1
 6018 1394 30       		.byte	0x30
 6019 1395 00       		.byte	0
 6020 1396 21       		.uleb128 0x21
 6021 1397 06010000 		.4byte	.LVL49
 6022 139b B7250000 		.4byte	0x25b7
 6023 139f A9130000 		.4byte	0x13a9
 6024 13a3 22       		.uleb128 0x22
 6025 13a4 01       		.byte	0x1
 6026 13a5 51       		.byte	0x51
 6027 13a6 01       		.byte	0x1
 6028 13a7 30       		.byte	0x30
 6029 13a8 00       		.byte	0
 6030 13a9 21       		.uleb128 0x21
 6031 13aa 16010000 		.4byte	.LVL52
 6032 13ae D5240000 		.4byte	0x24d5
 6033 13b2 BC130000 		.4byte	0x13bc
 6034 13b6 22       		.uleb128 0x22
 6035 13b7 01       		.byte	0x1
 6036 13b8 51       		.byte	0x51
 6037 13b9 01       		.byte	0x1
 6038 13ba 30       		.byte	0x30
 6039 13bb 00       		.byte	0
 6040 13bc 21       		.uleb128 0x21
 6041 13bd 24010000 		.4byte	.LVL53
 6042 13c1 B7250000 		.4byte	0x25b7
 6043 13c5 CF130000 		.4byte	0x13cf
 6044 13c9 22       		.uleb128 0x22
 6045 13ca 01       		.byte	0x1
 6046 13cb 51       		.byte	0x51
 6047 13cc 01       		.byte	0x1
 6048 13cd 30       		.byte	0x30
 6049 13ce 00       		.byte	0
 6050 13cf 27       		.uleb128 0x27
 6051 13d0 2C010000 		.4byte	.LVL55
 6052 13d4 5C250000 		.4byte	0x255c
 6053 13d8 27       		.uleb128 0x27
 6054 13d9 34010000 		.4byte	.LVL57
 6055 13dd 5C250000 		.4byte	0x255c
 6056 13e1 27       		.uleb128 0x27
 6057 13e2 3A010000 		.4byte	.LVL58
 6058 13e6 5C250000 		.4byte	0x255c
 6059 13ea 27       		.uleb128 0x27
 6060 13eb 42010000 		.4byte	.LVL60
 6061 13ef 5C250000 		.4byte	0x255c
 6062 13f3 00       		.byte	0
 6063 13f4 1E       		.uleb128 0x1e
 6064 13f5 A6060000 		.4byte	.LASF229
 6065 13f9 01       		.byte	0x1
 6066 13fa 5B01     		.2byte	0x15b
 6067 13fc 01       		.byte	0x1
ARM GAS  /tmp/ccKs28dn.s 			page 108


 6068 13fd 00000000 		.4byte	.LFB12
 6069 1401 B8000000 		.4byte	.LFE12
 6070 1405 46020000 		.4byte	.LLST15
 6071 1409 01       		.byte	0x1
 6072 140a 46150000 		.4byte	0x1546
 6073 140e 25       		.uleb128 0x25
 6074 140f 61726700 		.ascii	"arg\000"
 6075 1413 01       		.byte	0x1
 6076 1414 5B01     		.2byte	0x15b
 6077 1416 B2020000 		.4byte	0x2b2
 6078 141a 66020000 		.4byte	.LLST16
 6079 141e 25       		.uleb128 0x25
 6080 141f 65727200 		.ascii	"err\000"
 6081 1423 01       		.byte	0x1
 6082 1424 5B01     		.2byte	0x15b
 6083 1426 05050000 		.4byte	0x505
 6084 142a 9A020000 		.4byte	.LLST17
 6085 142e 26       		.uleb128 0x26
 6086 142f 3A040000 		.4byte	.LASF180
 6087 1433 01       		.byte	0x1
 6088 1434 5D01     		.2byte	0x15d
 6089 1436 F7060000 		.4byte	0x6f7
 6090 143a 66020000 		.4byte	.LLST16
 6091 143e 26       		.uleb128 0x26
 6092 143f 4F020000 		.4byte	.LASF230
 6093 1443 01       		.byte	0x1
 6094 1444 5E01     		.2byte	0x15e
 6095 1446 7A060000 		.4byte	0x67a
 6096 144a D4020000 		.4byte	.LLST19
 6097 144e 2C       		.uleb128 0x2c
 6098 144f 00000000 		.4byte	.Ldebug_ranges0+0
 6099 1453 86140000 		.4byte	0x1486
 6100 1457 26       		.uleb128 0x26
 6101 1458 E2070000 		.4byte	.LASF231
 6102 145c 01       		.byte	0x1
 6103 145d 8601     		.2byte	0x186
 6104 145f 29000000 		.4byte	0x29
 6105 1463 FE020000 		.4byte	.LLST20
 6106 1467 2B       		.uleb128 0x2b
 6107 1468 94000000 		.4byte	.LVL73
 6108 146c 01       		.byte	0x1
 6109 146d 67250000 		.4byte	0x2567
 6110 1471 7C140000 		.4byte	0x147c
 6111 1475 22       		.uleb128 0x22
 6112 1476 01       		.byte	0x1
 6113 1477 50       		.byte	0x50
 6114 1478 02       		.byte	0x2
 6115 1479 74       		.byte	0x74
 6116 147a 0C       		.sleb128 12
 6117 147b 00       		.byte	0
 6118 147c 27       		.uleb128 0x27
 6119 147d B4000000 		.4byte	.LVL79
 6120 1481 5C250000 		.4byte	0x255c
 6121 1485 00       		.byte	0
 6122 1486 28       		.uleb128 0x28
 6123 1487 20000000 		.4byte	.LVL64
 6124 148b A1140000 		.4byte	0x14a1
ARM GAS  /tmp/ccKs28dn.s 			page 109


 6125 148f 22       		.uleb128 0x22
 6126 1490 01       		.byte	0x1
 6127 1491 52       		.byte	0x52
 6128 1492 02       		.byte	0x2
 6129 1493 75       		.byte	0x75
 6130 1494 00       		.sleb128 0
 6131 1495 22       		.uleb128 0x22
 6132 1496 01       		.byte	0x1
 6133 1497 51       		.byte	0x51
 6134 1498 01       		.byte	0x1
 6135 1499 34       		.byte	0x34
 6136 149a 22       		.uleb128 0x22
 6137 149b 01       		.byte	0x1
 6138 149c 50       		.byte	0x50
 6139 149d 02       		.byte	0x2
 6140 149e 74       		.byte	0x74
 6141 149f 00       		.sleb128 0
 6142 14a0 00       		.byte	0
 6143 14a1 28       		.uleb128 0x28
 6144 14a2 2C000000 		.4byte	.LVL65
 6145 14a6 BD140000 		.4byte	0x14bd
 6146 14aa 22       		.uleb128 0x22
 6147 14ab 01       		.byte	0x1
 6148 14ac 52       		.byte	0x52
 6149 14ad 02       		.byte	0x2
 6150 14ae 75       		.byte	0x75
 6151 14af 00       		.sleb128 0
 6152 14b0 22       		.uleb128 0x22
 6153 14b1 01       		.byte	0x1
 6154 14b2 51       		.byte	0x51
 6155 14b3 02       		.byte	0x2
 6156 14b4 75       		.byte	0x75
 6157 14b5 00       		.sleb128 0
 6158 14b6 22       		.uleb128 0x22
 6159 14b7 01       		.byte	0x1
 6160 14b8 50       		.byte	0x50
 6161 14b9 02       		.byte	0x2
 6162 14ba 74       		.byte	0x74
 6163 14bb 00       		.sleb128 0
 6164 14bc 00       		.byte	0
 6165 14bd 28       		.uleb128 0x28
 6166 14be 38000000 		.4byte	.LVL66
 6167 14c2 D8140000 		.4byte	0x14d8
 6168 14c6 22       		.uleb128 0x22
 6169 14c7 01       		.byte	0x1
 6170 14c8 52       		.byte	0x52
 6171 14c9 02       		.byte	0x2
 6172 14ca 75       		.byte	0x75
 6173 14cb 00       		.sleb128 0
 6174 14cc 22       		.uleb128 0x22
 6175 14cd 01       		.byte	0x1
 6176 14ce 51       		.byte	0x51
 6177 14cf 01       		.byte	0x1
 6178 14d0 32       		.byte	0x32
 6179 14d1 22       		.uleb128 0x22
 6180 14d2 01       		.byte	0x1
 6181 14d3 50       		.byte	0x50
ARM GAS  /tmp/ccKs28dn.s 			page 110


 6182 14d4 02       		.byte	0x2
 6183 14d5 74       		.byte	0x74
 6184 14d6 00       		.sleb128 0
 6185 14d7 00       		.byte	0
 6186 14d8 21       		.uleb128 0x21
 6187 14d9 42000000 		.4byte	.LVL67
 6188 14dd D1250000 		.4byte	0x25d1
 6189 14e1 EC140000 		.4byte	0x14ec
 6190 14e5 22       		.uleb128 0x22
 6191 14e6 01       		.byte	0x1
 6192 14e7 50       		.byte	0x50
 6193 14e8 02       		.byte	0x2
 6194 14e9 75       		.byte	0x75
 6195 14ea 00       		.sleb128 0
 6196 14eb 00       		.byte	0
 6197 14ec 21       		.uleb128 0x21
 6198 14ed 50000000 		.4byte	.LVL68
 6199 14f1 D1250000 		.4byte	0x25d1
 6200 14f5 00150000 		.4byte	0x1500
 6201 14f9 22       		.uleb128 0x22
 6202 14fa 01       		.byte	0x1
 6203 14fb 50       		.byte	0x50
 6204 14fc 02       		.byte	0x2
 6205 14fd 75       		.byte	0x75
 6206 14fe 00       		.sleb128 0
 6207 14ff 00       		.byte	0
 6208 1500 2D       		.uleb128 0x2d
 6209 1501 6E000000 		.4byte	.LVL69
 6210 1505 01       		.byte	0x1
 6211 1506 5C250000 		.4byte	0x255c
 6212 150a 21       		.uleb128 0x21
 6213 150b 9E000000 		.4byte	.LVL74
 6214 150f EF250000 		.4byte	0x25ef
 6215 1513 23150000 		.4byte	0x1523
 6216 1517 22       		.uleb128 0x22
 6217 1518 01       		.byte	0x1
 6218 1519 51       		.byte	0x51
 6219 151a 01       		.byte	0x1
 6220 151b 30       		.byte	0x30
 6221 151c 22       		.uleb128 0x22
 6222 151d 01       		.byte	0x1
 6223 151e 50       		.byte	0x50
 6224 151f 02       		.byte	0x2
 6225 1520 75       		.byte	0x75
 6226 1521 00       		.sleb128 0
 6227 1522 00       		.byte	0
 6228 1523 21       		.uleb128 0x21
 6229 1524 A8000000 		.4byte	.LVL75
 6230 1528 EF250000 		.4byte	0x25ef
 6231 152c 3C150000 		.4byte	0x153c
 6232 1530 22       		.uleb128 0x22
 6233 1531 01       		.byte	0x1
 6234 1532 51       		.byte	0x51
 6235 1533 01       		.byte	0x1
 6236 1534 30       		.byte	0x30
 6237 1535 22       		.uleb128 0x22
 6238 1536 01       		.byte	0x1
ARM GAS  /tmp/ccKs28dn.s 			page 111


 6239 1537 50       		.byte	0x50
 6240 1538 02       		.byte	0x2
 6241 1539 75       		.byte	0x75
 6242 153a 00       		.sleb128 0
 6243 153b 00       		.byte	0
 6244 153c 27       		.uleb128 0x27
 6245 153d AE000000 		.4byte	.LVL77
 6246 1541 5C250000 		.4byte	0x255c
 6247 1545 00       		.byte	0
 6248 1546 2E       		.uleb128 0x2e
 6249 1547 23040000 		.4byte	.LASF233
 6250 154b 01       		.byte	0x1
 6251 154c D8       		.byte	0xd8
 6252 154d 01       		.byte	0x1
 6253 154e 05050000 		.4byte	0x505
 6254 1552 00000000 		.4byte	.LFB9
 6255 1556 90000000 		.4byte	.LFE9
 6256 155a 4C030000 		.4byte	.LLST21
 6257 155e 01       		.byte	0x1
 6258 155f 49160000 		.4byte	0x1649
 6259 1563 2F       		.uleb128 0x2f
 6260 1564 61726700 		.ascii	"arg\000"
 6261 1568 01       		.byte	0x1
 6262 1569 D8       		.byte	0xd8
 6263 156a B2020000 		.4byte	0x2b2
 6264 156e 6C030000 		.4byte	.LLST22
 6265 1572 2F       		.uleb128 0x2f
 6266 1573 70636200 		.ascii	"pcb\000"
 6267 1577 01       		.byte	0x1
 6268 1578 D8       		.byte	0xd8
 6269 1579 4E0B0000 		.4byte	0xb4e
 6270 157d A0030000 		.4byte	.LLST23
 6271 1581 2F       		.uleb128 0x2f
 6272 1582 7000     		.ascii	"p\000"
 6273 1584 01       		.byte	0x1
 6274 1585 D8       		.byte	0xd8
 6275 1586 F9050000 		.4byte	0x5f9
 6276 158a 09040000 		.4byte	.LLST24
 6277 158e 2F       		.uleb128 0x2f
 6278 158f 65727200 		.ascii	"err\000"
 6279 1593 01       		.byte	0x1
 6280 1594 D8       		.byte	0xd8
 6281 1595 05050000 		.4byte	0x505
 6282 1599 72040000 		.4byte	.LLST25
 6283 159d 30       		.uleb128 0x30
 6284 159e 3A040000 		.4byte	.LASF180
 6285 15a2 01       		.byte	0x1
 6286 15a3 DA       		.byte	0xda
 6287 15a4 F7060000 		.4byte	0x6f7
 6288 15a8 AC040000 		.4byte	.LLST26
 6289 15ac 31       		.uleb128 0x31
 6290 15ad 6C656E00 		.ascii	"len\000"
 6291 15b1 01       		.byte	0x1
 6292 15b2 DB       		.byte	0xdb
 6293 15b3 BE040000 		.4byte	0x4be
 6294 15b7 CA040000 		.4byte	.LLST27
 6295 15bb 27       		.uleb128 0x27
ARM GAS  /tmp/ccKs28dn.s 			page 112


 6296 15bc 1E000000 		.4byte	.LVL83
 6297 15c0 5C250000 		.4byte	0x255c
 6298 15c4 21       		.uleb128 0x21
 6299 15c5 28000000 		.4byte	.LVL84
 6300 15c9 D1250000 		.4byte	0x25d1
 6301 15cd D8150000 		.4byte	0x15d8
 6302 15d1 22       		.uleb128 0x22
 6303 15d2 01       		.byte	0x1
 6304 15d3 50       		.byte	0x50
 6305 15d4 02       		.byte	0x2
 6306 15d5 77       		.byte	0x77
 6307 15d6 00       		.sleb128 0
 6308 15d7 00       		.byte	0
 6309 15d8 21       		.uleb128 0x21
 6310 15d9 36000000 		.4byte	.LVL85
 6311 15dd 0C260000 		.4byte	0x260c
 6312 15e1 EC150000 		.4byte	0x15ec
 6313 15e5 22       		.uleb128 0x22
 6314 15e6 01       		.byte	0x1
 6315 15e7 50       		.byte	0x50
 6316 15e8 02       		.byte	0x2
 6317 15e9 76       		.byte	0x76
 6318 15ea 00       		.sleb128 0
 6319 15eb 00       		.byte	0
 6320 15ec 21       		.uleb128 0x21
 6321 15ed 3C000000 		.4byte	.LVL86
 6322 15f1 26260000 		.4byte	0x2626
 6323 15f5 00160000 		.4byte	0x1600
 6324 15f9 22       		.uleb128 0x22
 6325 15fa 01       		.byte	0x1
 6326 15fb 50       		.byte	0x50
 6327 15fc 02       		.byte	0x2
 6328 15fd 75       		.byte	0x75
 6329 15fe 00       		.sleb128 0
 6330 15ff 00       		.byte	0
 6331 1600 21       		.uleb128 0x21
 6332 1601 66000000 		.4byte	.LVL91
 6333 1605 EF250000 		.4byte	0x25ef
 6334 1609 1A160000 		.4byte	0x161a
 6335 160d 22       		.uleb128 0x22
 6336 160e 01       		.byte	0x1
 6337 160f 51       		.byte	0x51
 6338 1610 02       		.byte	0x2
 6339 1611 75       		.byte	0x75
 6340 1612 00       		.sleb128 0
 6341 1613 22       		.uleb128 0x22
 6342 1614 01       		.byte	0x1
 6343 1615 50       		.byte	0x50
 6344 1616 02       		.byte	0x2
 6345 1617 77       		.byte	0x77
 6346 1618 00       		.sleb128 0
 6347 1619 00       		.byte	0
 6348 161a 28       		.uleb128 0x28
 6349 161b 78000000 		.4byte	.LVL93
 6350 161f 36160000 		.4byte	0x1636
 6351 1623 22       		.uleb128 0x22
 6352 1624 01       		.byte	0x1
ARM GAS  /tmp/ccKs28dn.s 			page 113


 6353 1625 52       		.byte	0x52
 6354 1626 02       		.byte	0x2
 6355 1627 76       		.byte	0x76
 6356 1628 00       		.sleb128 0
 6357 1629 22       		.uleb128 0x22
 6358 162a 01       		.byte	0x1
 6359 162b 51       		.byte	0x51
 6360 162c 02       		.byte	0x2
 6361 162d 75       		.byte	0x75
 6362 162e 00       		.sleb128 0
 6363 162f 22       		.uleb128 0x22
 6364 1630 01       		.byte	0x1
 6365 1631 50       		.byte	0x50
 6366 1632 02       		.byte	0x2
 6367 1633 74       		.byte	0x74
 6368 1634 00       		.sleb128 0
 6369 1635 00       		.byte	0
 6370 1636 27       		.uleb128 0x27
 6371 1637 84000000 		.4byte	.LVL95
 6372 163b 5C250000 		.4byte	0x255c
 6373 163f 27       		.uleb128 0x27
 6374 1640 8A000000 		.4byte	.LVL96
 6375 1644 5C250000 		.4byte	0x255c
 6376 1648 00       		.byte	0
 6377 1649 24       		.uleb128 0x24
 6378 164a B6010000 		.4byte	.LASF234
 6379 164e 01       		.byte	0x1
 6380 164f AA04     		.2byte	0x4aa
 6381 1651 01       		.byte	0x1
 6382 1652 05050000 		.4byte	0x505
 6383 1656 00000000 		.4byte	.LFB29
 6384 165a 46010000 		.4byte	.LFE29
 6385 165e E8040000 		.4byte	.LLST28
 6386 1662 01       		.byte	0x1
 6387 1663 A2170000 		.4byte	0x17a2
 6388 1667 1F       		.uleb128 0x1f
 6389 1668 3A040000 		.4byte	.LASF180
 6390 166c 01       		.byte	0x1
 6391 166d AA04     		.2byte	0x4aa
 6392 166f F7060000 		.4byte	0x6f7
 6393 1673 08050000 		.4byte	.LLST29
 6394 1677 29       		.uleb128 0x29
 6395 1678 65727200 		.ascii	"err\000"
 6396 167c 01       		.byte	0x1
 6397 167d AC04     		.2byte	0x4ac
 6398 167f 05050000 		.4byte	0x505
 6399 1683 3C050000 		.4byte	.LLST30
 6400 1687 26       		.uleb128 0x26
 6401 1688 00080000 		.4byte	.LASF184
 6402 168c 01       		.byte	0x1
 6403 168d AD04     		.2byte	0x4ad
 6404 168f B2020000 		.4byte	0x2b2
 6405 1693 DB050000 		.4byte	.LLST31
 6406 1697 29       		.uleb128 0x29
 6407 1698 6C656E00 		.ascii	"len\000"
 6408 169c 01       		.byte	0x1
 6409 169d AE04     		.2byte	0x4ae
ARM GAS  /tmp/ccKs28dn.s 			page 114


 6410 169f BE040000 		.4byte	0x4be
 6411 16a3 13060000 		.4byte	.LLST32
 6412 16a7 26       		.uleb128 0x26
 6413 16a8 F1080000 		.4byte	.LASF235
 6414 16ac 01       		.byte	0x1
 6415 16ad AE04     		.2byte	0x4ae
 6416 16af BE040000 		.4byte	0x4be
 6417 16b3 6C060000 		.4byte	.LLST33
 6418 16b7 26       		.uleb128 0x26
 6419 16b8 21060000 		.4byte	.LASF236
 6420 16bc 01       		.byte	0x1
 6421 16bd AF04     		.2byte	0x4af
 6422 16bf A8040000 		.4byte	0x4a8
 6423 16c3 9B060000 		.4byte	.LLST34
 6424 16c7 32       		.uleb128 0x32
 6425 16c8 11090000 		.4byte	.LASF237
 6426 16cc 01       		.byte	0x1
 6427 16cd B004     		.2byte	0x4b0
 6428 16cf 30000000 		.4byte	0x30
 6429 16d3 01       		.byte	0x1
 6430 16d4 50       		.byte	0x50
 6431 16d5 26       		.uleb128 0x26
 6432 16d6 89040000 		.4byte	.LASF238
 6433 16da 01       		.byte	0x1
 6434 16db B104     		.2byte	0x4b1
 6435 16dd A8040000 		.4byte	0x4a8
 6436 16e1 EB060000 		.4byte	.LLST35
 6437 16e5 26       		.uleb128 0x26
 6438 16e6 C4080000 		.4byte	.LASF185
 6439 16ea 01       		.byte	0x1
 6440 16eb B304     		.2byte	0x4b3
 6441 16ed A8040000 		.4byte	0x4a8
 6442 16f1 09070000 		.4byte	.LLST36
 6443 16f5 27       		.uleb128 0x27
 6444 16f6 26000000 		.4byte	.LVL100
 6445 16fa 5C250000 		.4byte	0x255c
 6446 16fe 21       		.uleb128 0x21
 6447 16ff 80000000 		.4byte	.LVL106
 6448 1703 3E260000 		.4byte	0x263e
 6449 1707 21170000 		.4byte	0x1721
 6450 170b 22       		.uleb128 0x22
 6451 170c 01       		.byte	0x1
 6452 170d 53       		.byte	0x53
 6453 170e 02       		.byte	0x2
 6454 170f 77       		.byte	0x77
 6455 1710 00       		.sleb128 0
 6456 1711 22       		.uleb128 0x22
 6457 1712 01       		.byte	0x1
 6458 1713 52       		.byte	0x52
 6459 1714 02       		.byte	0x2
 6460 1715 75       		.byte	0x75
 6461 1716 00       		.sleb128 0
 6462 1717 22       		.uleb128 0x22
 6463 1718 01       		.byte	0x1
 6464 1719 51       		.byte	0x51
 6465 171a 05       		.byte	0x5
 6466 171b 7A       		.byte	0x7a
ARM GAS  /tmp/ccKs28dn.s 			page 115


 6467 171c 00       		.sleb128 0
 6468 171d 76       		.byte	0x76
 6469 171e 00       		.sleb128 0
 6470 171f 22       		.byte	0x22
 6471 1720 00       		.byte	0
 6472 1721 28       		.uleb128 0x28
 6473 1722 A6000000 		.4byte	.LVL111
 6474 1726 3C170000 		.4byte	0x173c
 6475 172a 22       		.uleb128 0x22
 6476 172b 01       		.byte	0x1
 6477 172c 52       		.byte	0x52
 6478 172d 02       		.byte	0x2
 6479 172e 75       		.byte	0x75
 6480 172f 00       		.sleb128 0
 6481 1730 22       		.uleb128 0x22
 6482 1731 01       		.byte	0x1
 6483 1732 51       		.byte	0x51
 6484 1733 01       		.byte	0x1
 6485 1734 33       		.byte	0x33
 6486 1735 22       		.uleb128 0x22
 6487 1736 01       		.byte	0x1
 6488 1737 50       		.byte	0x50
 6489 1738 02       		.byte	0x2
 6490 1739 74       		.byte	0x74
 6491 173a 00       		.sleb128 0
 6492 173b 00       		.byte	0
 6493 173c 21       		.uleb128 0x21
 6494 173d D2000000 		.4byte	.LVL115
 6495 1741 67250000 		.4byte	0x2567
 6496 1745 50170000 		.4byte	0x1750
 6497 1749 22       		.uleb128 0x22
 6498 174a 01       		.byte	0x1
 6499 174b 50       		.byte	0x50
 6500 174c 02       		.byte	0x2
 6501 174d 74       		.byte	0x74
 6502 174e 0C       		.sleb128 12
 6503 174f 00       		.byte	0
 6504 1750 27       		.uleb128 0x27
 6505 1751 E2000000 		.4byte	.LVL120
 6506 1755 5C250000 		.4byte	0x255c
 6507 1759 27       		.uleb128 0x27
 6508 175a F0000000 		.4byte	.LVL122
 6509 175e 66260000 		.4byte	0x2666
 6510 1762 27       		.uleb128 0x27
 6511 1763 20010000 		.4byte	.LVL126
 6512 1767 66260000 		.4byte	0x2666
 6513 176b 27       		.uleb128 0x27
 6514 176c 26010000 		.4byte	.LVL128
 6515 1770 5C250000 		.4byte	0x255c
 6516 1774 28       		.uleb128 0x28
 6517 1775 36010000 		.4byte	.LVL130
 6518 1779 8F170000 		.4byte	0x178f
 6519 177d 22       		.uleb128 0x22
 6520 177e 01       		.byte	0x1
 6521 177f 52       		.byte	0x52
 6522 1780 02       		.byte	0x2
 6523 1781 75       		.byte	0x75
ARM GAS  /tmp/ccKs28dn.s 			page 116


 6524 1782 00       		.sleb128 0
 6525 1783 22       		.uleb128 0x22
 6526 1784 01       		.byte	0x1
 6527 1785 51       		.byte	0x51
 6528 1786 01       		.byte	0x1
 6529 1787 33       		.byte	0x33
 6530 1788 22       		.uleb128 0x22
 6531 1789 01       		.byte	0x1
 6532 178a 50       		.byte	0x50
 6533 178b 02       		.byte	0x2
 6534 178c 74       		.byte	0x74
 6535 178d 00       		.sleb128 0
 6536 178e 00       		.byte	0
 6537 178f 27       		.uleb128 0x27
 6538 1790 3C010000 		.4byte	.LVL132
 6539 1794 5C250000 		.4byte	0x255c
 6540 1798 27       		.uleb128 0x27
 6541 1799 44010000 		.4byte	.LVL134
 6542 179d 5C250000 		.4byte	0x255c
 6543 17a1 00       		.byte	0
 6544 17a2 24       		.uleb128 0x24
 6545 17a3 D3010000 		.4byte	.LASF239
 6546 17a7 01       		.byte	0x1
 6547 17a8 1501     		.2byte	0x115
 6548 17aa 01       		.byte	0x1
 6549 17ab 05050000 		.4byte	0x505
 6550 17af 00000000 		.4byte	.LFB10
 6551 17b3 56000000 		.4byte	.LFE10
 6552 17b7 48070000 		.4byte	.LLST37
 6553 17bb 01       		.byte	0x1
 6554 17bc 3A180000 		.4byte	0x183a
 6555 17c0 25       		.uleb128 0x25
 6556 17c1 61726700 		.ascii	"arg\000"
 6557 17c5 01       		.byte	0x1
 6558 17c6 1501     		.2byte	0x115
 6559 17c8 B2020000 		.4byte	0x2b2
 6560 17cc 68070000 		.4byte	.LLST38
 6561 17d0 25       		.uleb128 0x25
 6562 17d1 70636200 		.ascii	"pcb\000"
 6563 17d5 01       		.byte	0x1
 6564 17d6 1501     		.2byte	0x115
 6565 17d8 4E0B0000 		.4byte	0xb4e
 6566 17dc 9C070000 		.4byte	.LLST39
 6567 17e0 26       		.uleb128 0x26
 6568 17e1 3A040000 		.4byte	.LASF180
 6569 17e5 01       		.byte	0x1
 6570 17e6 1701     		.2byte	0x117
 6571 17e8 F7060000 		.4byte	0x6f7
 6572 17ec 68070000 		.4byte	.LLST38
 6573 17f0 2A       		.uleb128 0x2a
 6574 17f1 3C000000 		.4byte	.LVL137
 6575 17f5 02       		.byte	0x2
 6576 17f6 75       		.byte	0x75
 6577 17f7 00       		.sleb128 0
 6578 17f8 08180000 		.4byte	0x1808
 6579 17fc 22       		.uleb128 0x22
 6580 17fd 01       		.byte	0x1
ARM GAS  /tmp/ccKs28dn.s 			page 117


 6581 17fe 51       		.byte	0x51
 6582 17ff 01       		.byte	0x1
 6583 1800 32       		.byte	0x32
 6584 1801 22       		.uleb128 0x22
 6585 1802 01       		.byte	0x1
 6586 1803 50       		.byte	0x50
 6587 1804 02       		.byte	0x2
 6588 1805 74       		.byte	0x74
 6589 1806 00       		.sleb128 0
 6590 1807 00       		.byte	0
 6591 1808 21       		.uleb128 0x21
 6592 1809 46000000 		.4byte	.LVL138
 6593 180d 49160000 		.4byte	0x1649
 6594 1811 1C180000 		.4byte	0x181c
 6595 1815 22       		.uleb128 0x22
 6596 1816 01       		.byte	0x1
 6597 1817 50       		.byte	0x50
 6598 1818 02       		.byte	0x2
 6599 1819 74       		.byte	0x74
 6600 181a 00       		.sleb128 0
 6601 181b 00       		.byte	0
 6602 181c 21       		.uleb128 0x21
 6603 181d 4E000000 		.4byte	.LVL139
 6604 1821 D6110000 		.4byte	0x11d6
 6605 1825 30180000 		.4byte	0x1830
 6606 1829 22       		.uleb128 0x22
 6607 182a 01       		.byte	0x1
 6608 182b 50       		.byte	0x50
 6609 182c 02       		.byte	0x2
 6610 182d 74       		.byte	0x74
 6611 182e 00       		.sleb128 0
 6612 182f 00       		.byte	0
 6613 1830 27       		.uleb128 0x27
 6614 1831 54000000 		.4byte	.LVL141
 6615 1835 5C250000 		.4byte	0x255c
 6616 1839 00       		.byte	0
 6617 183a 33       		.uleb128 0x33
 6618 183b 6D0A0000 		.4byte	.LASF240
 6619 183f 01       		.byte	0x1
 6620 1840 90       		.byte	0x90
 6621 1841 01       		.byte	0x1
 6622 1842 00000000 		.4byte	.LFB8
 6623 1846 9A000000 		.4byte	.LFE8
 6624 184a D6070000 		.4byte	.LLST41
 6625 184e 01       		.byte	0x1
 6626 184f 65190000 		.4byte	0x1965
 6627 1853 2F       		.uleb128 0x2f
 6628 1854 61726700 		.ascii	"arg\000"
 6629 1858 01       		.byte	0x1
 6630 1859 90       		.byte	0x90
 6631 185a B2020000 		.4byte	0x2b2
 6632 185e 02080000 		.4byte	.LLST42
 6633 1862 2F       		.uleb128 0x2f
 6634 1863 70636200 		.ascii	"pcb\000"
 6635 1867 01       		.byte	0x1
 6636 1868 90       		.byte	0x90
 6637 1869 FB0B0000 		.4byte	0xbfb
ARM GAS  /tmp/ccKs28dn.s 			page 118


 6638 186d 36080000 		.4byte	.LLST43
 6639 1871 2F       		.uleb128 0x2f
 6640 1872 7000     		.ascii	"p\000"
 6641 1874 01       		.byte	0x1
 6642 1875 90       		.byte	0x90
 6643 1876 F9050000 		.4byte	0x5f9
 6644 187a 70080000 		.4byte	.LLST44
 6645 187e 34       		.uleb128 0x34
 6646 187f B70B0000 		.4byte	.LASF76
 6647 1883 01       		.byte	0x1
 6648 1884 91       		.byte	0x91
 6649 1885 FF050000 		.4byte	0x5ff
 6650 1889 D7080000 		.4byte	.LLST45
 6651 188d 35       		.uleb128 0x35
 6652 188e 8F0A0000 		.4byte	.LASF98
 6653 1892 01       		.byte	0x1
 6654 1893 91       		.byte	0x91
 6655 1894 BE040000 		.4byte	0x4be
 6656 1898 02       		.byte	0x2
 6657 1899 91       		.byte	0x91
 6658 189a 00       		.sleb128 0
 6659 189b 31       		.uleb128 0x31
 6660 189c 62756600 		.ascii	"buf\000"
 6661 18a0 01       		.byte	0x1
 6662 18a1 93       		.byte	0x93
 6663 18a2 F70D0000 		.4byte	0xdf7
 6664 18a6 21090000 		.4byte	.LLST46
 6665 18aa 30       		.uleb128 0x30
 6666 18ab 3A040000 		.4byte	.LASF180
 6667 18af 01       		.byte	0x1
 6668 18b0 94       		.byte	0x94
 6669 18b1 F7060000 		.4byte	0x6f7
 6670 18b5 4A090000 		.4byte	.LLST47
 6671 18b9 31       		.uleb128 0x31
 6672 18ba 6C656E00 		.ascii	"len\000"
 6673 18be 01       		.byte	0x1
 6674 18bf 95       		.byte	0x95
 6675 18c0 BE040000 		.4byte	0x4be
 6676 18c4 68090000 		.4byte	.LLST48
 6677 18c8 27       		.uleb128 0x27
 6678 18c9 22000000 		.4byte	.LVL145
 6679 18cd 5C250000 		.4byte	0x255c
 6680 18d1 21       		.uleb128 0x21
 6681 18d2 2C000000 		.4byte	.LVL146
 6682 18d6 D1250000 		.4byte	0x25d1
 6683 18da E5180000 		.4byte	0x18e5
 6684 18de 22       		.uleb128 0x22
 6685 18df 01       		.byte	0x1
 6686 18e0 50       		.byte	0x50
 6687 18e1 02       		.byte	0x2
 6688 18e2 77       		.byte	0x77
 6689 18e3 00       		.sleb128 0
 6690 18e4 00       		.byte	0
 6691 18e5 2B       		.uleb128 0x2b
 6692 18e6 3A000000 		.4byte	.LVL147
 6693 18ea 01       		.byte	0x1
 6694 18eb 26260000 		.4byte	0x2626
ARM GAS  /tmp/ccKs28dn.s 			page 119


 6695 18ef FA180000 		.4byte	0x18fa
 6696 18f3 22       		.uleb128 0x22
 6697 18f4 01       		.byte	0x1
 6698 18f5 50       		.byte	0x50
 6699 18f6 02       		.byte	0x2
 6700 18f7 75       		.byte	0x75
 6701 18f8 00       		.sleb128 0
 6702 18f9 00       		.byte	0
 6703 18fa 21       		.uleb128 0x21
 6704 18fb 40000000 		.4byte	.LVL148
 6705 18ff 7F260000 		.4byte	0x267f
 6706 1903 0D190000 		.4byte	0x190d
 6707 1907 22       		.uleb128 0x22
 6708 1908 01       		.byte	0x1
 6709 1909 50       		.byte	0x50
 6710 190a 01       		.byte	0x1
 6711 190b 37       		.byte	0x37
 6712 190c 00       		.byte	0
 6713 190d 21       		.uleb128 0x21
 6714 190e 66000000 		.4byte	.LVL153
 6715 1912 EF250000 		.4byte	0x25ef
 6716 1916 27190000 		.4byte	0x1927
 6717 191a 22       		.uleb128 0x22
 6718 191b 01       		.byte	0x1
 6719 191c 51       		.byte	0x51
 6720 191d 02       		.byte	0x2
 6721 191e 76       		.byte	0x76
 6722 191f 00       		.sleb128 0
 6723 1920 22       		.uleb128 0x22
 6724 1921 01       		.byte	0x1
 6725 1922 50       		.byte	0x50
 6726 1923 02       		.byte	0x2
 6727 1924 77       		.byte	0x77
 6728 1925 00       		.sleb128 0
 6729 1926 00       		.byte	0
 6730 1927 28       		.uleb128 0x28
 6731 1928 74000000 		.4byte	.LVL154
 6732 192c 3D190000 		.4byte	0x193d
 6733 1930 22       		.uleb128 0x22
 6734 1931 01       		.byte	0x1
 6735 1932 52       		.byte	0x52
 6736 1933 02       		.byte	0x2
 6737 1934 75       		.byte	0x75
 6738 1935 00       		.sleb128 0
 6739 1936 22       		.uleb128 0x22
 6740 1937 01       		.byte	0x1
 6741 1938 50       		.byte	0x50
 6742 1939 02       		.byte	0x2
 6743 193a 74       		.byte	0x74
 6744 193b 00       		.sleb128 0
 6745 193c 00       		.byte	0
 6746 193d 27       		.uleb128 0x27
 6747 193e 80000000 		.4byte	.LVL156
 6748 1942 5C250000 		.4byte	0x255c
 6749 1946 2B       		.uleb128 0x2b
 6750 1947 90000000 		.4byte	.LVL158
 6751 194b 01       		.byte	0x1
ARM GAS  /tmp/ccKs28dn.s 			page 120


 6752 194c 97260000 		.4byte	0x2697
 6753 1950 5B190000 		.4byte	0x195b
 6754 1954 22       		.uleb128 0x22
 6755 1955 01       		.byte	0x1
 6756 1956 50       		.byte	0x50
 6757 1957 02       		.byte	0x2
 6758 1958 76       		.byte	0x76
 6759 1959 00       		.sleb128 0
 6760 195a 00       		.byte	0
 6761 195b 27       		.uleb128 0x27
 6762 195c 96000000 		.4byte	.LVL159
 6763 1960 5C250000 		.4byte	0x255c
 6764 1964 00       		.byte	0
 6765 1965 2E       		.uleb128 0x2e
 6766 1966 6F050000 		.4byte	.LASF241
 6767 196a 01       		.byte	0x1
 6768 196b 4E       		.byte	0x4e
 6769 196c 01       		.byte	0x1
 6770 196d A8040000 		.4byte	0x4a8
 6771 1971 00000000 		.4byte	.LFB7
 6772 1975 88000000 		.4byte	.LFE7
 6773 1979 95090000 		.4byte	.LLST49
 6774 197d 01       		.byte	0x1
 6775 197e AA1A0000 		.4byte	0x1aaa
 6776 1982 2F       		.uleb128 0x2f
 6777 1983 61726700 		.ascii	"arg\000"
 6778 1987 01       		.byte	0x1
 6779 1988 4E       		.byte	0x4e
 6780 1989 B2020000 		.4byte	0x2b2
 6781 198d B5090000 		.4byte	.LLST50
 6782 1991 2F       		.uleb128 0x2f
 6783 1992 70636200 		.ascii	"pcb\000"
 6784 1996 01       		.byte	0x1
 6785 1997 4E       		.byte	0x4e
 6786 1998 8C0C0000 		.4byte	0xc8c
 6787 199c D3090000 		.4byte	.LLST51
 6788 19a0 2F       		.uleb128 0x2f
 6789 19a1 7000     		.ascii	"p\000"
 6790 19a3 01       		.byte	0x1
 6791 19a4 4E       		.byte	0x4e
 6792 19a5 F9050000 		.4byte	0x5f9
 6793 19a9 310A0000 		.4byte	.LLST52
 6794 19ad 34       		.uleb128 0x34
 6795 19ae B70B0000 		.4byte	.LASF76
 6796 19b2 01       		.byte	0x1
 6797 19b3 4F       		.byte	0x4f
 6798 19b4 FF050000 		.4byte	0x5ff
 6799 19b8 760A0000 		.4byte	.LLST53
 6800 19bc 31       		.uleb128 0x31
 6801 19bd 7100     		.ascii	"q\000"
 6802 19bf 01       		.byte	0x1
 6803 19c0 51       		.byte	0x51
 6804 19c1 F9050000 		.4byte	0x5f9
 6805 19c5 970A0000 		.4byte	.LLST54
 6806 19c9 31       		.uleb128 0x31
 6807 19ca 62756600 		.ascii	"buf\000"
 6808 19ce 01       		.byte	0x1
ARM GAS  /tmp/ccKs28dn.s 			page 121


 6809 19cf 52       		.byte	0x52
 6810 19d0 F70D0000 		.4byte	0xdf7
 6811 19d4 B50A0000 		.4byte	.LLST55
 6812 19d8 30       		.uleb128 0x30
 6813 19d9 3A040000 		.4byte	.LASF180
 6814 19dd 01       		.byte	0x1
 6815 19de 53       		.byte	0x53
 6816 19df F7060000 		.4byte	0x6f7
 6817 19e3 B5090000 		.4byte	.LLST50
 6818 19e7 2C       		.uleb128 0x2c
 6819 19e8 20000000 		.4byte	.Ldebug_ranges0+0x20
 6820 19ec 671A0000 		.4byte	0x1a67
 6821 19f0 31       		.uleb128 0x31
 6822 19f1 6C656E00 		.ascii	"len\000"
 6823 19f5 01       		.byte	0x1
 6824 19f6 6A       		.byte	0x6a
 6825 19f7 BE040000 		.4byte	0x4be
 6826 19fb E90A0000 		.4byte	.LLST57
 6827 19ff 21       		.uleb128 0x21
 6828 1a00 3C000000 		.4byte	.LVL167
 6829 1a04 7F260000 		.4byte	0x267f
 6830 1a08 121A0000 		.4byte	0x1a12
 6831 1a0c 22       		.uleb128 0x22
 6832 1a0d 01       		.byte	0x1
 6833 1a0e 50       		.byte	0x50
 6834 1a0f 01       		.byte	0x1
 6835 1a10 37       		.byte	0x37
 6836 1a11 00       		.byte	0
 6837 1a12 21       		.uleb128 0x21
 6838 1a13 5E000000 		.4byte	.LVL171
 6839 1a17 EF250000 		.4byte	0x25ef
 6840 1a1b 2C1A0000 		.4byte	0x1a2c
 6841 1a1f 22       		.uleb128 0x22
 6842 1a20 01       		.byte	0x1
 6843 1a21 51       		.byte	0x51
 6844 1a22 02       		.byte	0x2
 6845 1a23 76       		.byte	0x76
 6846 1a24 00       		.sleb128 0
 6847 1a25 22       		.uleb128 0x22
 6848 1a26 01       		.byte	0x1
 6849 1a27 50       		.byte	0x50
 6850 1a28 02       		.byte	0x2
 6851 1a29 75       		.byte	0x75
 6852 1a2a 00       		.sleb128 0
 6853 1a2b 00       		.byte	0
 6854 1a2c 28       		.uleb128 0x28
 6855 1a2d 6E000000 		.4byte	.LVL172
 6856 1a31 421A0000 		.4byte	0x1a42
 6857 1a35 22       		.uleb128 0x22
 6858 1a36 01       		.byte	0x1
 6859 1a37 52       		.byte	0x52
 6860 1a38 02       		.byte	0x2
 6861 1a39 77       		.byte	0x77
 6862 1a3a 00       		.sleb128 0
 6863 1a3b 22       		.uleb128 0x22
 6864 1a3c 01       		.byte	0x1
 6865 1a3d 50       		.byte	0x50
ARM GAS  /tmp/ccKs28dn.s 			page 122


 6866 1a3e 02       		.byte	0x2
 6867 1a3f 74       		.byte	0x74
 6868 1a40 00       		.sleb128 0
 6869 1a41 00       		.byte	0
 6870 1a42 21       		.uleb128 0x21
 6871 1a43 7A000000 		.4byte	.LVL174
 6872 1a47 26260000 		.4byte	0x2626
 6873 1a4b 561A0000 		.4byte	0x1a56
 6874 1a4f 22       		.uleb128 0x22
 6875 1a50 01       		.byte	0x1
 6876 1a51 50       		.byte	0x50
 6877 1a52 02       		.byte	0x2
 6878 1a53 78       		.byte	0x78
 6879 1a54 00       		.sleb128 0
 6880 1a55 00       		.byte	0
 6881 1a56 36       		.uleb128 0x36
 6882 1a57 82000000 		.4byte	.LVL176
 6883 1a5b 97260000 		.4byte	0x2697
 6884 1a5f 22       		.uleb128 0x22
 6885 1a60 01       		.byte	0x1
 6886 1a61 50       		.byte	0x50
 6887 1a62 02       		.byte	0x2
 6888 1a63 76       		.byte	0x76
 6889 1a64 00       		.sleb128 0
 6890 1a65 00       		.byte	0
 6891 1a66 00       		.byte	0
 6892 1a67 21       		.uleb128 0x21
 6893 1a68 16000000 		.4byte	.LVL162
 6894 1a6c D1250000 		.4byte	0x25d1
 6895 1a70 7B1A0000 		.4byte	0x1a7b
 6896 1a74 22       		.uleb128 0x22
 6897 1a75 01       		.byte	0x1
 6898 1a76 50       		.byte	0x50
 6899 1a77 02       		.byte	0x2
 6900 1a78 75       		.byte	0x75
 6901 1a79 00       		.sleb128 0
 6902 1a7a 00       		.byte	0
 6903 1a7b 21       		.uleb128 0x21
 6904 1a7c 28000000 		.4byte	.LVL165
 6905 1a80 AB260000 		.4byte	0x26ab
 6906 1a84 931A0000 		.4byte	0x1a93
 6907 1a88 22       		.uleb128 0x22
 6908 1a89 01       		.byte	0x1
 6909 1a8a 52       		.byte	0x52
 6910 1a8b 01       		.byte	0x1
 6911 1a8c 30       		.byte	0x30
 6912 1a8d 22       		.uleb128 0x22
 6913 1a8e 01       		.byte	0x1
 6914 1a8f 50       		.byte	0x50
 6915 1a90 01       		.byte	0x1
 6916 1a91 33       		.byte	0x33
 6917 1a92 00       		.byte	0
 6918 1a93 36       		.uleb128 0x36
 6919 1a94 34000000 		.4byte	.LVL166
 6920 1a98 CD260000 		.4byte	0x26cd
 6921 1a9c 22       		.uleb128 0x22
 6922 1a9d 01       		.byte	0x1
ARM GAS  /tmp/ccKs28dn.s 			page 123


 6923 1a9e 51       		.byte	0x51
 6924 1a9f 02       		.byte	0x2
 6925 1aa0 76       		.byte	0x76
 6926 1aa1 00       		.sleb128 0
 6927 1aa2 22       		.uleb128 0x22
 6928 1aa3 01       		.byte	0x1
 6929 1aa4 50       		.byte	0x50
 6930 1aa5 02       		.byte	0x2
 6931 1aa6 78       		.byte	0x78
 6932 1aa7 00       		.sleb128 0
 6933 1aa8 00       		.byte	0
 6934 1aa9 00       		.byte	0
 6935 1aaa 37       		.uleb128 0x37
 6936 1aab 06100000 		.4byte	0x1006
 6937 1aaf 00000000 		.4byte	.LFB11
 6938 1ab3 52000000 		.4byte	.LFE11
 6939 1ab7 130B0000 		.4byte	.LLST58
 6940 1abb 01       		.byte	0x1
 6941 1abc 681B0000 		.4byte	0x1b68
 6942 1ac0 38       		.uleb128 0x38
 6943 1ac1 18100000 		.4byte	0x1018
 6944 1ac5 330B0000 		.4byte	.LLST59
 6945 1ac9 38       		.uleb128 0x38
 6946 1aca 24100000 		.4byte	0x1024
 6947 1ace 670B0000 		.4byte	.LLST60
 6948 1ad2 38       		.uleb128 0x38
 6949 1ad3 30100000 		.4byte	0x1030
 6950 1ad7 A10B0000 		.4byte	.LLST61
 6951 1adb 39       		.uleb128 0x39
 6952 1adc 3C100000 		.4byte	0x103c
 6953 1ae0 330B0000 		.4byte	.LLST59
 6954 1ae4 3A       		.uleb128 0x3a
 6955 1ae5 06100000 		.4byte	0x1006
 6956 1ae9 24000000 		.4byte	.LBB9
 6957 1aed 38000000 		.4byte	.LBE9
 6958 1af1 01       		.byte	0x1
 6959 1af2 3901     		.2byte	0x139
 6960 1af4 361B0000 		.4byte	0x1b36
 6961 1af8 38       		.uleb128 0x38
 6962 1af9 30100000 		.4byte	0x1030
 6963 1afd DB0B0000 		.4byte	.LLST63
 6964 1b01 38       		.uleb128 0x38
 6965 1b02 18100000 		.4byte	0x1018
 6966 1b06 EE0B0000 		.4byte	.LLST64
 6967 1b0a 3B       		.uleb128 0x3b
 6968 1b0b 24000000 		.4byte	.LBB10
 6969 1b0f 38000000 		.4byte	.LBE10
 6970 1b13 3C       		.uleb128 0x3c
 6971 1b14 3C100000 		.4byte	0x103c
 6972 1b18 3D       		.uleb128 0x3d
 6973 1b19 24100000 		.4byte	0x1024
 6974 1b1d 3E       		.uleb128 0x3e
 6975 1b1e 38000000 		.4byte	.LVL180
 6976 1b22 22       		.uleb128 0x22
 6977 1b23 01       		.byte	0x1
 6978 1b24 52       		.byte	0x52
 6979 1b25 02       		.byte	0x2
ARM GAS  /tmp/ccKs28dn.s 			page 124


 6980 1b26 75       		.byte	0x75
 6981 1b27 00       		.sleb128 0
 6982 1b28 22       		.uleb128 0x22
 6983 1b29 01       		.byte	0x1
 6984 1b2a 51       		.byte	0x51
 6985 1b2b 01       		.byte	0x1
 6986 1b2c 32       		.byte	0x32
 6987 1b2d 22       		.uleb128 0x22
 6988 1b2e 01       		.byte	0x1
 6989 1b2f 50       		.byte	0x50
 6990 1b30 02       		.byte	0x2
 6991 1b31 74       		.byte	0x74
 6992 1b32 00       		.sleb128 0
 6993 1b33 00       		.byte	0
 6994 1b34 00       		.byte	0
 6995 1b35 00       		.byte	0
 6996 1b36 21       		.uleb128 0x21
 6997 1b37 42000000 		.4byte	.LVL181
 6998 1b3b 49160000 		.4byte	0x1649
 6999 1b3f 4A1B0000 		.4byte	0x1b4a
 7000 1b43 22       		.uleb128 0x22
 7001 1b44 01       		.byte	0x1
 7002 1b45 50       		.byte	0x50
 7003 1b46 02       		.byte	0x2
 7004 1b47 74       		.byte	0x74
 7005 1b48 00       		.sleb128 0
 7006 1b49 00       		.byte	0
 7007 1b4a 21       		.uleb128 0x21
 7008 1b4b 4A000000 		.4byte	.LVL182
 7009 1b4f D6110000 		.4byte	0x11d6
 7010 1b53 5E1B0000 		.4byte	0x1b5e
 7011 1b57 22       		.uleb128 0x22
 7012 1b58 01       		.byte	0x1
 7013 1b59 50       		.byte	0x50
 7014 1b5a 02       		.byte	0x2
 7015 1b5b 74       		.byte	0x74
 7016 1b5c 00       		.sleb128 0
 7017 1b5d 00       		.byte	0
 7018 1b5e 27       		.uleb128 0x27
 7019 1b5f 50000000 		.4byte	.LVL184
 7020 1b63 5C250000 		.4byte	0x255c
 7021 1b67 00       		.byte	0
 7022 1b68 3F       		.uleb128 0x3f
 7023 1b69 220C0000 		.4byte	.LASF316
 7024 1b6d 01       		.byte	0x1
 7025 1b6e E201     		.2byte	0x1e2
 7026 1b70 01       		.byte	0x1
 7027 1b71 01       		.byte	0x1
 7028 1b72 831B0000 		.4byte	0x1b83
 7029 1b76 1C       		.uleb128 0x1c
 7030 1b77 6D736700 		.ascii	"msg\000"
 7031 1b7b 01       		.byte	0x1
 7032 1b7c E201     		.2byte	0x1e2
 7033 1b7e C90C0000 		.4byte	0xcc9
 7034 1b82 00       		.byte	0
 7035 1b83 40       		.uleb128 0x40
 7036 1b84 01       		.byte	0x1
ARM GAS  /tmp/ccKs28dn.s 			page 125


 7037 1b85 96090000 		.4byte	.LASF243
 7038 1b89 01       		.byte	0x1
 7039 1b8a 1C02     		.2byte	0x21c
 7040 1b8c 01       		.byte	0x1
 7041 1b8d 00000000 		.4byte	.LFB16
 7042 1b91 98000000 		.4byte	.LFE16
 7043 1b95 010C0000 		.4byte	.LLST65
 7044 1b99 01       		.byte	0x1
 7045 1b9a 431C0000 		.4byte	0x1c43
 7046 1b9e 25       		.uleb128 0x25
 7047 1b9f 6D736700 		.ascii	"msg\000"
 7048 1ba3 01       		.byte	0x1
 7049 1ba4 1C02     		.2byte	0x21c
 7050 1ba6 C90C0000 		.4byte	0xcc9
 7051 1baa 210C0000 		.4byte	.LLST66
 7052 1bae 3A       		.uleb128 0x3a
 7053 1baf 681B0000 		.4byte	0x1b68
 7054 1bb3 1A000000 		.4byte	.LBB13
 7055 1bb7 98000000 		.4byte	.LBE13
 7056 1bbb 01       		.byte	0x1
 7057 1bbc 2002     		.2byte	0x220
 7058 1bbe 311C0000 		.4byte	0x1c31
 7059 1bc2 38       		.uleb128 0x38
 7060 1bc3 761B0000 		.4byte	0x1b76
 7061 1bc7 810C0000 		.4byte	.LLST67
 7062 1bcb 27       		.uleb128 0x27
 7063 1bcc 36000000 		.4byte	.LVL188
 7064 1bd0 EA260000 		.4byte	0x26ea
 7065 1bd4 21       		.uleb128 0x21
 7066 1bd5 44000000 		.4byte	.LVL189
 7067 1bd9 49100000 		.4byte	0x1049
 7068 1bdd E81B0000 		.4byte	0x1be8
 7069 1be1 22       		.uleb128 0x22
 7070 1be2 01       		.byte	0x1
 7071 1be3 50       		.byte	0x50
 7072 1be4 02       		.byte	0x2
 7073 1be5 74       		.byte	0x74
 7074 1be6 00       		.sleb128 0
 7075 1be7 00       		.byte	0
 7076 1be8 27       		.uleb128 0x27
 7077 1be9 4E000000 		.4byte	.LVL192
 7078 1bed F9260000 		.4byte	0x26f9
 7079 1bf1 21       		.uleb128 0x21
 7080 1bf2 5E000000 		.4byte	.LVL193
 7081 1bf6 11270000 		.4byte	0x2711
 7082 1bfa 0E1C0000 		.4byte	0x1c0e
 7083 1bfe 22       		.uleb128 0x22
 7084 1bff 01       		.byte	0x1
 7085 1c00 52       		.byte	0x52
 7086 1c01 02       		.byte	0x2
 7087 1c02 74       		.byte	0x74
 7088 1c03 00       		.sleb128 0
 7089 1c04 22       		.uleb128 0x22
 7090 1c05 01       		.byte	0x1
 7091 1c06 51       		.byte	0x51
 7092 1c07 05       		.byte	0x5
 7093 1c08 03       		.byte	0x3
ARM GAS  /tmp/ccKs28dn.s 			page 126


 7094 1c09 00000000 		.4byte	recv_raw
 7095 1c0d 00       		.byte	0
 7096 1c0e 27       		.uleb128 0x27
 7097 1c0f 66000000 		.4byte	.LVL195
 7098 1c13 2F270000 		.4byte	0x272f
 7099 1c17 36       		.uleb128 0x36
 7100 1c18 84000000 		.4byte	.LVL196
 7101 1c1c 3D270000 		.4byte	0x273d
 7102 1c20 22       		.uleb128 0x22
 7103 1c21 01       		.byte	0x1
 7104 1c22 52       		.byte	0x52
 7105 1c23 02       		.byte	0x2
 7106 1c24 74       		.byte	0x74
 7107 1c25 00       		.sleb128 0
 7108 1c26 22       		.uleb128 0x22
 7109 1c27 01       		.byte	0x1
 7110 1c28 51       		.byte	0x51
 7111 1c29 05       		.byte	0x5
 7112 1c2a 03       		.byte	0x3
 7113 1c2b 00000000 		.4byte	recv_udp
 7114 1c2f 00       		.byte	0
 7115 1c30 00       		.byte	0
 7116 1c31 23       		.uleb128 0x23
 7117 1c32 1A000000 		.4byte	.LVL187
 7118 1c36 01       		.byte	0x1
 7119 1c37 67250000 		.4byte	0x2567
 7120 1c3b 22       		.uleb128 0x22
 7121 1c3c 01       		.byte	0x1
 7122 1c3d 50       		.byte	0x50
 7123 1c3e 02       		.byte	0x2
 7124 1c3f 74       		.byte	0x74
 7125 1c40 0C       		.sleb128 12
 7126 1c41 00       		.byte	0
 7127 1c42 00       		.byte	0
 7128 1c43 41       		.uleb128 0x41
 7129 1c44 01       		.byte	0x1
 7130 1c45 6E090000 		.4byte	.LASF317
 7131 1c49 01       		.byte	0x1
 7132 1c4a 3402     		.2byte	0x234
 7133 1c4c 01       		.byte	0x1
 7134 1c4d F7060000 		.4byte	0x6f7
 7135 1c51 00000000 		.4byte	.LFB17
 7136 1c55 96000000 		.4byte	.LFE17
 7137 1c59 CB0C0000 		.4byte	.LLST68
 7138 1c5d 01       		.byte	0x1
 7139 1c5e 461D0000 		.4byte	0x1d46
 7140 1c62 25       		.uleb128 0x25
 7141 1c63 7400     		.ascii	"t\000"
 7142 1c65 01       		.byte	0x1
 7143 1c66 3402     		.2byte	0x234
 7144 1c68 48060000 		.4byte	0x648
 7145 1c6c EB0C0000 		.4byte	.LLST69
 7146 1c70 1F       		.uleb128 0x1f
 7147 1c71 E20B0000 		.4byte	.LASF128
 7148 1c75 01       		.byte	0x1
 7149 1c76 3402     		.2byte	0x234
 7150 1c78 D0060000 		.4byte	0x6d0
ARM GAS  /tmp/ccKs28dn.s 			page 127


 7151 1c7c 0C0D0000 		.4byte	.LLST70
 7152 1c80 26       		.uleb128 0x26
 7153 1c81 3A040000 		.4byte	.LASF180
 7154 1c85 01       		.byte	0x1
 7155 1c86 3602     		.2byte	0x236
 7156 1c88 F7060000 		.4byte	0x6f7
 7157 1c8c 2A0D0000 		.4byte	.LLST71
 7158 1c90 26       		.uleb128 0x26
 7159 1c91 34070000 		.4byte	.LASF242
 7160 1c95 01       		.byte	0x1
 7161 1c96 3702     		.2byte	0x237
 7162 1c98 29000000 		.4byte	0x29
 7163 1c9c 830D0000 		.4byte	.LLST72
 7164 1ca0 21       		.uleb128 0x21
 7165 1ca1 0E000000 		.4byte	.LVL199
 7166 1ca5 7F260000 		.4byte	0x267f
 7167 1ca9 B31C0000 		.4byte	0x1cb3
 7168 1cad 22       		.uleb128 0x22
 7169 1cae 01       		.byte	0x1
 7170 1caf 50       		.byte	0x50
 7171 1cb0 01       		.byte	0x1
 7172 1cb1 38       		.byte	0x38
 7173 1cb2 00       		.byte	0
 7174 1cb3 27       		.uleb128 0x27
 7175 1cb4 2E000000 		.4byte	.LVL200
 7176 1cb8 5C250000 		.4byte	0x255c
 7177 1cbc 21       		.uleb128 0x21
 7178 1cbd 3A000000 		.4byte	.LVL201
 7179 1cc1 5B270000 		.4byte	0x275b
 7180 1cc5 D51C0000 		.4byte	0x1cd5
 7181 1cc9 22       		.uleb128 0x22
 7182 1cca 01       		.byte	0x1
 7183 1ccb 51       		.byte	0x51
 7184 1ccc 01       		.byte	0x1
 7185 1ccd 30       		.byte	0x30
 7186 1cce 22       		.uleb128 0x22
 7187 1ccf 01       		.byte	0x1
 7188 1cd0 50       		.byte	0x50
 7189 1cd1 02       		.byte	0x2
 7190 1cd2 76       		.byte	0x76
 7191 1cd3 00       		.sleb128 0
 7192 1cd4 00       		.byte	0
 7193 1cd5 21       		.uleb128 0x21
 7194 1cd6 48000000 		.4byte	.LVL202
 7195 1cda 78270000 		.4byte	0x2778
 7196 1cde EF1C0000 		.4byte	0x1cef
 7197 1ce2 22       		.uleb128 0x22
 7198 1ce3 01       		.byte	0x1
 7199 1ce4 51       		.byte	0x51
 7200 1ce5 02       		.byte	0x2
 7201 1ce6 79       		.byte	0x79
 7202 1ce7 00       		.sleb128 0
 7203 1ce8 22       		.uleb128 0x22
 7204 1ce9 01       		.byte	0x1
 7205 1cea 50       		.byte	0x50
 7206 1ceb 02       		.byte	0x2
 7207 1cec 74       		.byte	0x74
ARM GAS  /tmp/ccKs28dn.s 			page 128


 7208 1ced 10       		.sleb128 16
 7209 1cee 00       		.byte	0
 7210 1cef 21       		.uleb128 0x21
 7211 1cf0 54000000 		.4byte	.LVL203
 7212 1cf4 95270000 		.4byte	0x2795
 7213 1cf8 031D0000 		.4byte	0x1d03
 7214 1cfc 22       		.uleb128 0x22
 7215 1cfd 01       		.byte	0x1
 7216 1cfe 50       		.byte	0x50
 7217 1cff 02       		.byte	0x2
 7218 1d00 74       		.byte	0x74
 7219 1d01 14       		.sleb128 20
 7220 1d02 00       		.byte	0
 7221 1d03 21       		.uleb128 0x21
 7222 1d04 80000000 		.4byte	.LVL207
 7223 1d08 A9270000 		.4byte	0x27a9
 7224 1d0c 1C1D0000 		.4byte	0x1d1c
 7225 1d10 22       		.uleb128 0x22
 7226 1d11 01       		.byte	0x1
 7227 1d12 51       		.byte	0x51
 7228 1d13 02       		.byte	0x2
 7229 1d14 74       		.byte	0x74
 7230 1d15 00       		.sleb128 0
 7231 1d16 22       		.uleb128 0x22
 7232 1d17 01       		.byte	0x1
 7233 1d18 50       		.byte	0x50
 7234 1d19 01       		.byte	0x1
 7235 1d1a 38       		.byte	0x38
 7236 1d1b 00       		.byte	0
 7237 1d1c 21       		.uleb128 0x21
 7238 1d1d 8A000000 		.4byte	.LVL210
 7239 1d21 C2270000 		.4byte	0x27c2
 7240 1d25 301D0000 		.4byte	0x1d30
 7241 1d29 22       		.uleb128 0x22
 7242 1d2a 01       		.byte	0x1
 7243 1d2b 50       		.byte	0x50
 7244 1d2c 02       		.byte	0x2
 7245 1d2d 76       		.byte	0x76
 7246 1d2e 00       		.sleb128 0
 7247 1d2f 00       		.byte	0
 7248 1d30 36       		.uleb128 0x36
 7249 1d31 92000000 		.4byte	.LVL211
 7250 1d35 A9270000 		.4byte	0x27a9
 7251 1d39 22       		.uleb128 0x22
 7252 1d3a 01       		.byte	0x1
 7253 1d3b 51       		.byte	0x51
 7254 1d3c 02       		.byte	0x2
 7255 1d3d 74       		.byte	0x74
 7256 1d3e 00       		.sleb128 0
 7257 1d3f 22       		.uleb128 0x22
 7258 1d40 01       		.byte	0x1
 7259 1d41 50       		.byte	0x50
 7260 1d42 01       		.byte	0x1
 7261 1d43 38       		.byte	0x38
 7262 1d44 00       		.byte	0
 7263 1d45 00       		.byte	0
 7264 1d46 40       		.uleb128 0x40
ARM GAS  /tmp/ccKs28dn.s 			page 129


 7265 1d47 01       		.byte	0x1
 7266 1d48 22050000 		.4byte	.LASF244
 7267 1d4c 01       		.byte	0x1
 7268 1d4d 8502     		.2byte	0x285
 7269 1d4f 01       		.byte	0x1
 7270 1d50 00000000 		.4byte	.LFB18
 7271 1d54 46000000 		.4byte	.LFE18
 7272 1d58 A10D0000 		.4byte	.LLST73
 7273 1d5c 01       		.byte	0x1
 7274 1d5d F71D0000 		.4byte	0x1df7
 7275 1d61 1F       		.uleb128 0x1f
 7276 1d62 3A040000 		.4byte	.LASF180
 7277 1d66 01       		.byte	0x1
 7278 1d67 8502     		.2byte	0x285
 7279 1d69 F7060000 		.4byte	0x6f7
 7280 1d6d C10D0000 		.4byte	.LLST74
 7281 1d71 27       		.uleb128 0x27
 7282 1d72 0C000000 		.4byte	.LVL214
 7283 1d76 5C250000 		.4byte	0x255c
 7284 1d7a 21       		.uleb128 0x21
 7285 1d7b 14000000 		.4byte	.LVL215
 7286 1d7f D1250000 		.4byte	0x25d1
 7287 1d83 8E1D0000 		.4byte	0x1d8e
 7288 1d87 22       		.uleb128 0x22
 7289 1d88 01       		.byte	0x1
 7290 1d89 50       		.byte	0x50
 7291 1d8a 02       		.byte	0x2
 7292 1d8b 74       		.byte	0x74
 7293 1d8c 10       		.sleb128 16
 7294 1d8d 00       		.byte	0
 7295 1d8e 21       		.uleb128 0x21
 7296 1d8f 1E000000 		.4byte	.LVL216
 7297 1d93 D1250000 		.4byte	0x25d1
 7298 1d97 A21D0000 		.4byte	0x1da2
 7299 1d9b 22       		.uleb128 0x22
 7300 1d9c 01       		.byte	0x1
 7301 1d9d 50       		.byte	0x50
 7302 1d9e 02       		.byte	0x2
 7303 1d9f 74       		.byte	0x74
 7304 1da0 14       		.sleb128 20
 7305 1da1 00       		.byte	0
 7306 1da2 27       		.uleb128 0x27
 7307 1da3 24000000 		.4byte	.LVL217
 7308 1da7 5C250000 		.4byte	0x255c
 7309 1dab 21       		.uleb128 0x21
 7310 1dac 2E000000 		.4byte	.LVL218
 7311 1db0 C2270000 		.4byte	0x27c2
 7312 1db4 BF1D0000 		.4byte	0x1dbf
 7313 1db8 22       		.uleb128 0x22
 7314 1db9 01       		.byte	0x1
 7315 1dba 50       		.byte	0x50
 7316 1dbb 02       		.byte	0x2
 7317 1dbc 75       		.byte	0x75
 7318 1dbd 00       		.sleb128 0
 7319 1dbe 00       		.byte	0
 7320 1dbf 21       		.uleb128 0x21
 7321 1dc0 34000000 		.4byte	.LVL219
ARM GAS  /tmp/ccKs28dn.s 			page 130


 7322 1dc4 D6270000 		.4byte	0x27d6
 7323 1dc8 D31D0000 		.4byte	0x1dd3
 7324 1dcc 22       		.uleb128 0x22
 7325 1dcd 01       		.byte	0x1
 7326 1dce 50       		.byte	0x50
 7327 1dcf 02       		.byte	0x2
 7328 1dd0 75       		.byte	0x75
 7329 1dd1 00       		.sleb128 0
 7330 1dd2 00       		.byte	0
 7331 1dd3 2B       		.uleb128 0x2b
 7332 1dd4 40000000 		.4byte	.LVL220
 7333 1dd8 01       		.byte	0x1
 7334 1dd9 A9270000 		.4byte	0x27a9
 7335 1ddd ED1D0000 		.4byte	0x1ded
 7336 1de1 22       		.uleb128 0x22
 7337 1de2 01       		.byte	0x1
 7338 1de3 51       		.byte	0x51
 7339 1de4 02       		.byte	0x2
 7340 1de5 74       		.byte	0x74
 7341 1de6 00       		.sleb128 0
 7342 1de7 22       		.uleb128 0x22
 7343 1de8 01       		.byte	0x1
 7344 1de9 50       		.byte	0x50
 7345 1dea 01       		.byte	0x1
 7346 1deb 38       		.byte	0x38
 7347 1dec 00       		.byte	0
 7348 1ded 27       		.uleb128 0x27
 7349 1dee 44000000 		.4byte	.LVL221
 7350 1df2 5C250000 		.4byte	0x255c
 7351 1df6 00       		.byte	0
 7352 1df7 1E       		.uleb128 0x1e
 7353 1df8 C5060000 		.4byte	.LASF245
 7354 1dfc 01       		.byte	0x1
 7355 1dfd 9E02     		.2byte	0x29e
 7356 1dff 01       		.byte	0x1
 7357 1e00 00000000 		.4byte	.LFB19
 7358 1e04 B2000000 		.4byte	.LFE19
 7359 1e08 DF0D0000 		.4byte	.LLST75
 7360 1e0c 01       		.byte	0x1
 7361 1e0d 611F0000 		.4byte	0x1f61
 7362 1e11 1F       		.uleb128 0x1f
 7363 1e12 3A040000 		.4byte	.LASF180
 7364 1e16 01       		.byte	0x1
 7365 1e17 9E02     		.2byte	0x29e
 7366 1e19 F7060000 		.4byte	0x6f7
 7367 1e1d 0B0E0000 		.4byte	.LLST76
 7368 1e21 20       		.uleb128 0x20
 7369 1e22 6D656D00 		.ascii	"mem\000"
 7370 1e26 01       		.byte	0x1
 7371 1e27 A002     		.2byte	0x2a0
 7372 1e29 B2020000 		.4byte	0x2b2
 7373 1e2d 02       		.byte	0x2
 7374 1e2e 91       		.byte	0x91
 7375 1e2f 64       		.sleb128 -28
 7376 1e30 29       		.uleb128 0x29
 7377 1e31 7000     		.ascii	"p\000"
 7378 1e33 01       		.byte	0x1
ARM GAS  /tmp/ccKs28dn.s 			page 131


 7379 1e34 A202     		.2byte	0x2a2
 7380 1e36 F9050000 		.4byte	0x5f9
 7381 1e3a 290E0000 		.4byte	.LLST77
 7382 1e3e 42       		.uleb128 0x42
 7383 1e3f 64000000 		.4byte	.LBB15
 7384 1e43 94000000 		.4byte	.LBE15
 7385 1e47 921E0000 		.4byte	0x1e92
 7386 1e4b 26       		.uleb128 0x26
 7387 1e4c 520C0000 		.4byte	.LASF246
 7388 1e50 01       		.byte	0x1
 7389 1e51 C202     		.2byte	0x2c2
 7390 1e53 F7060000 		.4byte	0x6f7
 7391 1e57 3C0E0000 		.4byte	.LLST78
 7392 1e5b 27       		.uleb128 0x27
 7393 1e5c 7A000000 		.4byte	.LVL236
 7394 1e60 5C250000 		.4byte	0x255c
 7395 1e64 21       		.uleb128 0x21
 7396 1e65 80000000 		.4byte	.LVL237
 7397 1e69 F71D0000 		.4byte	0x1df7
 7398 1e6d 781E0000 		.4byte	0x1e78
 7399 1e71 22       		.uleb128 0x22
 7400 1e72 01       		.byte	0x1
 7401 1e73 50       		.byte	0x50
 7402 1e74 02       		.byte	0x2
 7403 1e75 74       		.byte	0x74
 7404 1e76 00       		.sleb128 0
 7405 1e77 00       		.byte	0
 7406 1e78 27       		.uleb128 0x27
 7407 1e79 8A000000 		.4byte	.LVL238
 7408 1e7d EA270000 		.4byte	0x27ea
 7409 1e81 36       		.uleb128 0x36
 7410 1e82 94000000 		.4byte	.LVL239
 7411 1e86 461D0000 		.4byte	0x1d46
 7412 1e8a 22       		.uleb128 0x22
 7413 1e8b 01       		.byte	0x1
 7414 1e8c 50       		.byte	0x50
 7415 1e8d 02       		.byte	0x2
 7416 1e8e 74       		.byte	0x74
 7417 1e8f 00       		.sleb128 0
 7418 1e90 00       		.byte	0
 7419 1e91 00       		.byte	0
 7420 1e92 21       		.uleb128 0x21
 7421 1e93 12000000 		.4byte	.LVL224
 7422 1e97 D1250000 		.4byte	0x25d1
 7423 1e9b A61E0000 		.4byte	0x1ea6
 7424 1e9f 22       		.uleb128 0x22
 7425 1ea0 01       		.byte	0x1
 7426 1ea1 50       		.byte	0x50
 7427 1ea2 02       		.byte	0x2
 7428 1ea3 74       		.byte	0x74
 7429 1ea4 00       		.sleb128 0
 7430 1ea5 00       		.byte	0
 7431 1ea6 21       		.uleb128 0x21
 7432 1ea7 1E000000 		.4byte	.LVL226
 7433 1eab FF270000 		.4byte	0x27ff
 7434 1eaf C01E0000 		.4byte	0x1ec0
 7435 1eb3 22       		.uleb128 0x22
ARM GAS  /tmp/ccKs28dn.s 			page 132


 7436 1eb4 01       		.byte	0x1
 7437 1eb5 51       		.byte	0x51
 7438 1eb6 02       		.byte	0x2
 7439 1eb7 76       		.byte	0x76
 7440 1eb8 00       		.sleb128 0
 7441 1eb9 22       		.uleb128 0x22
 7442 1eba 01       		.byte	0x1
 7443 1ebb 50       		.byte	0x50
 7444 1ebc 02       		.byte	0x2
 7445 1ebd 74       		.byte	0x74
 7446 1ebe 00       		.sleb128 0
 7447 1ebf 00       		.byte	0
 7448 1ec0 27       		.uleb128 0x27
 7449 1ec1 3A000000 		.4byte	.LVL228
 7450 1ec5 0C260000 		.4byte	0x260c
 7451 1ec9 21       		.uleb128 0x21
 7452 1eca 40000000 		.4byte	.LVL229
 7453 1ece 26260000 		.4byte	0x2626
 7454 1ed2 DD1E0000 		.4byte	0x1edd
 7455 1ed6 22       		.uleb128 0x22
 7456 1ed7 01       		.byte	0x1
 7457 1ed8 50       		.byte	0x50
 7458 1ed9 02       		.byte	0x2
 7459 1eda 77       		.byte	0x77
 7460 1edb 00       		.sleb128 0
 7461 1edc 00       		.byte	0
 7462 1edd 27       		.uleb128 0x27
 7463 1ede 48000000 		.4byte	.LVL231
 7464 1ee2 97260000 		.4byte	0x2697
 7465 1ee6 21       		.uleb128 0x21
 7466 1ee7 50000000 		.4byte	.LVL232
 7467 1eeb 22280000 		.4byte	0x2822
 7468 1eef FA1E0000 		.4byte	0x1efa
 7469 1ef3 22       		.uleb128 0x22
 7470 1ef4 01       		.byte	0x1
 7471 1ef5 50       		.byte	0x50
 7472 1ef6 02       		.byte	0x2
 7473 1ef7 74       		.byte	0x74
 7474 1ef8 00       		.sleb128 0
 7475 1ef9 00       		.byte	0
 7476 1efa 21       		.uleb128 0x21
 7477 1efb 56000000 		.4byte	.LVL233
 7478 1eff 95270000 		.4byte	0x2795
 7479 1f03 0E1F0000 		.4byte	0x1f0e
 7480 1f07 22       		.uleb128 0x22
 7481 1f08 01       		.byte	0x1
 7482 1f09 50       		.byte	0x50
 7483 1f0a 02       		.byte	0x2
 7484 1f0b 74       		.byte	0x74
 7485 1f0c 00       		.sleb128 0
 7486 1f0d 00       		.byte	0
 7487 1f0e 21       		.uleb128 0x21
 7488 1f0f 60000000 		.4byte	.LVL234
 7489 1f13 D1250000 		.4byte	0x25d1
 7490 1f17 221F0000 		.4byte	0x1f22
 7491 1f1b 22       		.uleb128 0x22
 7492 1f1c 01       		.byte	0x1
ARM GAS  /tmp/ccKs28dn.s 			page 133


 7493 1f1d 50       		.byte	0x50
 7494 1f1e 02       		.byte	0x2
 7495 1f1f 77       		.byte	0x77
 7496 1f20 00       		.sleb128 0
 7497 1f21 00       		.byte	0
 7498 1f22 21       		.uleb128 0x21
 7499 1f23 9C000000 		.4byte	.LVL240
 7500 1f27 FF270000 		.4byte	0x27ff
 7501 1f2b 3C1F0000 		.4byte	0x1f3c
 7502 1f2f 22       		.uleb128 0x22
 7503 1f30 01       		.byte	0x1
 7504 1f31 51       		.byte	0x51
 7505 1f32 02       		.byte	0x2
 7506 1f33 76       		.byte	0x76
 7507 1f34 00       		.sleb128 0
 7508 1f35 22       		.uleb128 0x22
 7509 1f36 01       		.byte	0x1
 7510 1f37 50       		.byte	0x50
 7511 1f38 02       		.byte	0x2
 7512 1f39 77       		.byte	0x77
 7513 1f3a 00       		.sleb128 0
 7514 1f3b 00       		.byte	0
 7515 1f3c 21       		.uleb128 0x21
 7516 1f3d A6000000 		.4byte	.LVL241
 7517 1f41 22280000 		.4byte	0x2822
 7518 1f45 501F0000 		.4byte	0x1f50
 7519 1f49 22       		.uleb128 0x22
 7520 1f4a 01       		.byte	0x1
 7521 1f4b 50       		.byte	0x50
 7522 1f4c 02       		.byte	0x2
 7523 1f4d 77       		.byte	0x77
 7524 1f4e 00       		.sleb128 0
 7525 1f4f 00       		.byte	0
 7526 1f50 36       		.uleb128 0x36
 7527 1f51 AC000000 		.4byte	.LVL242
 7528 1f55 95270000 		.4byte	0x2795
 7529 1f59 22       		.uleb128 0x22
 7530 1f5a 01       		.byte	0x1
 7531 1f5b 50       		.byte	0x50
 7532 1f5c 02       		.byte	0x2
 7533 1f5d 77       		.byte	0x77
 7534 1f5e 00       		.sleb128 0
 7535 1f5f 00       		.byte	0
 7536 1f60 00       		.byte	0
 7537 1f61 24       		.uleb128 0x24
 7538 1f62 38060000 		.4byte	.LASF247
 7539 1f66 01       		.byte	0x1
 7540 1f67 B001     		.2byte	0x1b0
 7541 1f69 01       		.byte	0x1
 7542 1f6a 05050000 		.4byte	0x505
 7543 1f6e 00000000 		.4byte	.LFB14
 7544 1f72 74000000 		.4byte	.LFE14
 7545 1f76 4F0E0000 		.4byte	.LLST79
 7546 1f7a 01       		.byte	0x1
 7547 1f7b 6F200000 		.4byte	0x206f
 7548 1f7f 25       		.uleb128 0x25
 7549 1f80 61726700 		.ascii	"arg\000"
ARM GAS  /tmp/ccKs28dn.s 			page 134


 7550 1f84 01       		.byte	0x1
 7551 1f85 B001     		.2byte	0x1b0
 7552 1f87 B2020000 		.4byte	0x2b2
 7553 1f8b 6F0E0000 		.4byte	.LLST80
 7554 1f8f 1F       		.uleb128 0x1f
 7555 1f90 A10A0000 		.4byte	.LASF248
 7556 1f94 01       		.byte	0x1
 7557 1f95 B001     		.2byte	0x1b0
 7558 1f97 4E0B0000 		.4byte	0xb4e
 7559 1f9b B40E0000 		.4byte	.LLST81
 7560 1f9f 25       		.uleb128 0x25
 7561 1fa0 65727200 		.ascii	"err\000"
 7562 1fa4 01       		.byte	0x1
 7563 1fa5 B001     		.2byte	0x1b0
 7564 1fa7 05050000 		.4byte	0x505
 7565 1fab D20E0000 		.4byte	.LLST82
 7566 1faf 26       		.uleb128 0x26
 7567 1fb0 520C0000 		.4byte	.LASF246
 7568 1fb4 01       		.byte	0x1
 7569 1fb5 B201     		.2byte	0x1b2
 7570 1fb7 F7060000 		.4byte	0x6f7
 7571 1fbb F30E0000 		.4byte	.LLST83
 7572 1fbf 26       		.uleb128 0x26
 7573 1fc0 3A040000 		.4byte	.LASF180
 7574 1fc4 01       		.byte	0x1
 7575 1fc5 B301     		.2byte	0x1b3
 7576 1fc7 F7060000 		.4byte	0x6f7
 7577 1fcb 270F0000 		.4byte	.LLST84
 7578 1fcf 21       		.uleb128 0x21
 7579 1fd0 14000000 		.4byte	.LVL246
 7580 1fd4 D1250000 		.4byte	0x25d1
 7581 1fd8 E31F0000 		.4byte	0x1fe3
 7582 1fdc 22       		.uleb128 0x22
 7583 1fdd 01       		.byte	0x1
 7584 1fde 50       		.byte	0x50
 7585 1fdf 02       		.byte	0x2
 7586 1fe0 75       		.byte	0x75
 7587 1fe1 00       		.sleb128 0
 7588 1fe2 00       		.byte	0
 7589 1fe3 27       		.uleb128 0x27
 7590 1fe4 1E000000 		.4byte	.LVL247
 7591 1fe8 431C0000 		.4byte	0x1c43
 7592 1fec 21       		.uleb128 0x21
 7593 1fed 2A000000 		.4byte	.LVL248
 7594 1ff1 49100000 		.4byte	0x1049
 7595 1ff5 00200000 		.4byte	0x2000
 7596 1ff9 22       		.uleb128 0x22
 7597 1ffa 01       		.byte	0x1
 7598 1ffb 50       		.byte	0x50
 7599 1ffc 02       		.byte	0x2
 7600 1ffd 76       		.byte	0x76
 7601 1ffe 00       		.sleb128 0
 7602 1fff 00       		.byte	0
 7603 2000 21       		.uleb128 0x21
 7604 2001 34000000 		.4byte	.LVL249
 7605 2005 EF250000 		.4byte	0x25ef
 7606 2009 1A200000 		.4byte	0x201a
ARM GAS  /tmp/ccKs28dn.s 			page 135


 7607 200d 22       		.uleb128 0x22
 7608 200e 01       		.byte	0x1
 7609 200f 51       		.byte	0x51
 7610 2010 02       		.byte	0x2
 7611 2011 76       		.byte	0x76
 7612 2012 00       		.sleb128 0
 7613 2013 22       		.uleb128 0x22
 7614 2014 01       		.byte	0x1
 7615 2015 50       		.byte	0x50
 7616 2016 02       		.byte	0x2
 7617 2017 75       		.byte	0x75
 7618 2018 00       		.sleb128 0
 7619 2019 00       		.byte	0
 7620 201a 28       		.uleb128 0x28
 7621 201b 46000000 		.4byte	.LVL250
 7622 201f 36200000 		.4byte	0x2036
 7623 2023 22       		.uleb128 0x22
 7624 2024 01       		.byte	0x1
 7625 2025 52       		.byte	0x52
 7626 2026 02       		.byte	0x2
 7627 2027 75       		.byte	0x75
 7628 2028 00       		.sleb128 0
 7629 2029 22       		.uleb128 0x22
 7630 202a 01       		.byte	0x1
 7631 202b 51       		.byte	0x51
 7632 202c 02       		.byte	0x2
 7633 202d 75       		.byte	0x75
 7634 202e 00       		.sleb128 0
 7635 202f 22       		.uleb128 0x22
 7636 2030 01       		.byte	0x1
 7637 2031 50       		.byte	0x50
 7638 2032 02       		.byte	0x2
 7639 2033 74       		.byte	0x74
 7640 2034 00       		.sleb128 0
 7641 2035 00       		.byte	0
 7642 2036 21       		.uleb128 0x21
 7643 2037 64000000 		.4byte	.LVL256
 7644 203b 22280000 		.4byte	0x2822
 7645 203f 4A200000 		.4byte	0x204a
 7646 2043 22       		.uleb128 0x22
 7647 2044 01       		.byte	0x1
 7648 2045 50       		.byte	0x50
 7649 2046 02       		.byte	0x2
 7650 2047 74       		.byte	0x74
 7651 2048 00       		.sleb128 0
 7652 2049 00       		.byte	0
 7653 204a 21       		.uleb128 0x21
 7654 204b 6A000000 		.4byte	.LVL257
 7655 204f 95270000 		.4byte	0x2795
 7656 2053 5E200000 		.4byte	0x205e
 7657 2057 22       		.uleb128 0x22
 7658 2058 01       		.byte	0x1
 7659 2059 50       		.byte	0x50
 7660 205a 02       		.byte	0x2
 7661 205b 74       		.byte	0x74
 7662 205c 00       		.sleb128 0
 7663 205d 00       		.byte	0
ARM GAS  /tmp/ccKs28dn.s 			page 136


 7664 205e 36       		.uleb128 0x36
 7665 205f 70000000 		.4byte	.LVL258
 7666 2063 461D0000 		.4byte	0x1d46
 7667 2067 22       		.uleb128 0x22
 7668 2068 01       		.byte	0x1
 7669 2069 50       		.byte	0x50
 7670 206a 02       		.byte	0x2
 7671 206b 76       		.byte	0x76
 7672 206c 00       		.sleb128 0
 7673 206d 00       		.byte	0
 7674 206e 00       		.byte	0
 7675 206f 40       		.uleb128 0x40
 7676 2070 01       		.byte	0x1
 7677 2071 65000000 		.4byte	.LASF249
 7678 2075 01       		.byte	0x1
 7679 2076 3403     		.2byte	0x334
 7680 2078 01       		.byte	0x1
 7681 2079 00000000 		.4byte	.LFB21
 7682 207d EC000000 		.4byte	.LFE21
 7683 2081 6C0F0000 		.4byte	.LLST85
 7684 2085 01       		.byte	0x1
 7685 2086 25210000 		.4byte	0x2125
 7686 208a 25       		.uleb128 0x25
 7687 208b 6D736700 		.ascii	"msg\000"
 7688 208f 01       		.byte	0x1
 7689 2090 3403     		.2byte	0x334
 7690 2092 C90C0000 		.4byte	0xcc9
 7691 2096 8C0F0000 		.4byte	.LLST86
 7692 209a 27       		.uleb128 0x27
 7693 209b 1C000000 		.4byte	.LVL260
 7694 209f 5C250000 		.4byte	0x255c
 7695 20a3 27       		.uleb128 0x27
 7696 20a4 2A000000 		.4byte	.LVL261
 7697 20a8 36280000 		.4byte	0x2836
 7698 20ac 27       		.uleb128 0x27
 7699 20ad 3A000000 		.4byte	.LVL264
 7700 20b1 F71D0000 		.4byte	0x1df7
 7701 20b5 2A       		.uleb128 0x2a
 7702 20b6 66000000 		.4byte	.LVL265
 7703 20ba 02       		.byte	0x2
 7704 20bb 75       		.byte	0x75
 7705 20bc 00       		.sleb128 0
 7706 20bd CC200000 		.4byte	0x20cc
 7707 20c1 22       		.uleb128 0x22
 7708 20c2 01       		.byte	0x1
 7709 20c3 52       		.byte	0x52
 7710 20c4 01       		.byte	0x1
 7711 20c5 30       		.byte	0x30
 7712 20c6 22       		.uleb128 0x22
 7713 20c7 01       		.byte	0x1
 7714 20c8 51       		.byte	0x51
 7715 20c9 01       		.byte	0x1
 7716 20ca 30       		.byte	0x30
 7717 20cb 00       		.byte	0
 7718 20cc 2A       		.uleb128 0x2a
 7719 20cd 76000000 		.4byte	.LVL266
 7720 20d1 02       		.byte	0x2
ARM GAS  /tmp/ccKs28dn.s 			page 137


 7721 20d2 75       		.byte	0x75
 7722 20d3 00       		.sleb128 0
 7723 20d4 E3200000 		.4byte	0x20e3
 7724 20d8 22       		.uleb128 0x22
 7725 20d9 01       		.byte	0x1
 7726 20da 52       		.byte	0x52
 7727 20db 01       		.byte	0x1
 7728 20dc 30       		.byte	0x30
 7729 20dd 22       		.uleb128 0x22
 7730 20de 01       		.byte	0x1
 7731 20df 51       		.byte	0x51
 7732 20e0 01       		.byte	0x1
 7733 20e1 32       		.byte	0x32
 7734 20e2 00       		.byte	0
 7735 20e3 27       		.uleb128 0x27
 7736 20e4 80000000 		.4byte	.LVL267
 7737 20e8 36280000 		.4byte	0x2836
 7738 20ec 2D       		.uleb128 0x2d
 7739 20ed 90000000 		.4byte	.LVL268
 7740 20f1 01       		.byte	0x1
 7741 20f2 67250000 		.4byte	0x2567
 7742 20f6 27       		.uleb128 0x27
 7743 20f7 9A000000 		.4byte	.LVL269
 7744 20fb 4E280000 		.4byte	0x284e
 7745 20ff 27       		.uleb128 0x27
 7746 2100 B4000000 		.4byte	.LVL271
 7747 2104 5C250000 		.4byte	0x255c
 7748 2108 27       		.uleb128 0x27
 7749 2109 C0000000 		.4byte	.LVL272
 7750 210d 5C250000 		.4byte	0x255c
 7751 2111 2D       		.uleb128 0x2d
 7752 2112 D6000000 		.4byte	.LVL273
 7753 2116 01       		.byte	0x1
 7754 2117 D6110000 		.4byte	0x11d6
 7755 211b 27       		.uleb128 0x27
 7756 211c DA000000 		.4byte	.LVL274
 7757 2120 62280000 		.4byte	0x2862
 7758 2124 00       		.byte	0
 7759 2125 40       		.uleb128 0x40
 7760 2126 01       		.byte	0x1
 7761 2127 85080000 		.4byte	.LASF250
 7762 212b 01       		.byte	0x1
 7763 212c 7603     		.2byte	0x376
 7764 212e 01       		.byte	0x1
 7765 212f 00000000 		.4byte	.LFB22
 7766 2133 60000000 		.4byte	.LFE22
 7767 2137 D60F0000 		.4byte	.LLST87
 7768 213b 01       		.byte	0x1
 7769 213c 76210000 		.4byte	0x2176
 7770 2140 25       		.uleb128 0x25
 7771 2141 6D736700 		.ascii	"msg\000"
 7772 2145 01       		.byte	0x1
 7773 2146 7603     		.2byte	0x376
 7774 2148 C90C0000 		.4byte	0xcc9
 7775 214c F60F0000 		.4byte	.LLST88
 7776 2150 2D       		.uleb128 0x2d
 7777 2151 38000000 		.4byte	.LVL277
ARM GAS  /tmp/ccKs28dn.s 			page 138


 7778 2155 01       		.byte	0x1
 7779 2156 67250000 		.4byte	0x2567
 7780 215a 27       		.uleb128 0x27
 7781 215b 40000000 		.4byte	.LVL278
 7782 215f 76280000 		.4byte	0x2876
 7783 2163 27       		.uleb128 0x27
 7784 2164 4E000000 		.4byte	.LVL279
 7785 2168 98280000 		.4byte	0x2898
 7786 216c 27       		.uleb128 0x27
 7787 216d 5A000000 		.4byte	.LVL280
 7788 2171 BB280000 		.4byte	0x28bb
 7789 2175 00       		.byte	0
 7790 2176 40       		.uleb128 0x40
 7791 2177 01       		.byte	0x1
 7792 2178 85060000 		.4byte	.LASF251
 7793 217c 01       		.byte	0x1
 7794 217d CC03     		.2byte	0x3cc
 7795 217f 01       		.byte	0x1
 7796 2180 00000000 		.4byte	.LFB24
 7797 2184 A8000000 		.4byte	.LFE24
 7798 2188 14100000 		.4byte	.LLST89
 7799 218c 01       		.byte	0x1
 7800 218d FD210000 		.4byte	0x21fd
 7801 2191 25       		.uleb128 0x25
 7802 2192 6D736700 		.ascii	"msg\000"
 7803 2196 01       		.byte	0x1
 7804 2197 CC03     		.2byte	0x3cc
 7805 2199 C90C0000 		.4byte	0xcc9
 7806 219d 34100000 		.4byte	.LLST90
 7807 21a1 2C       		.uleb128 0x2c
 7808 21a2 38000000 		.4byte	.Ldebug_ranges0+0x38
 7809 21a6 BB210000 		.4byte	0x21bb
 7810 21aa 26       		.uleb128 0x26
 7811 21ab 43010000 		.4byte	.LASF252
 7812 21af 01       		.byte	0x1
 7813 21b0 E703     		.2byte	0x3e7
 7814 21b2 A8040000 		.4byte	0x4a8
 7815 21b6 52100000 		.4byte	.LLST91
 7816 21ba 00       		.byte	0
 7817 21bb 27       		.uleb128 0x27
 7818 21bc 22000000 		.4byte	.LVL283
 7819 21c0 5C250000 		.4byte	0x255c
 7820 21c4 2D       		.uleb128 0x2d
 7821 21c5 34000000 		.4byte	.LVL284
 7822 21c9 01       		.byte	0x1
 7823 21ca 67250000 		.4byte	0x2567
 7824 21ce 27       		.uleb128 0x27
 7825 21cf 3A000000 		.4byte	.LVL285
 7826 21d3 D8280000 		.4byte	0x28d8
 7827 21d7 27       		.uleb128 0x27
 7828 21d8 52000000 		.4byte	.LVL286
 7829 21dc F5280000 		.4byte	0x28f5
 7830 21e0 27       		.uleb128 0x27
 7831 21e1 5E000000 		.4byte	.LVL287
 7832 21e5 49100000 		.4byte	0x1049
 7833 21e9 36       		.uleb128 0x36
 7834 21ea 6C000000 		.4byte	.LVL288
ARM GAS  /tmp/ccKs28dn.s 			page 139


 7835 21ee 17290000 		.4byte	0x2917
 7836 21f2 22       		.uleb128 0x22
 7837 21f3 01       		.byte	0x1
 7838 21f4 53       		.byte	0x53
 7839 21f5 05       		.byte	0x5
 7840 21f6 03       		.byte	0x3
 7841 21f7 00000000 		.4byte	do_connected
 7842 21fb 00       		.byte	0
 7843 21fc 00       		.byte	0
 7844 21fd 40       		.uleb128 0x40
 7845 21fe 01       		.byte	0x1
 7846 21ff 1E000000 		.4byte	.LASF253
 7847 2203 01       		.byte	0x1
 7848 2204 0604     		.2byte	0x406
 7849 2206 01       		.byte	0x1
 7850 2207 00000000 		.4byte	.LFB25
 7851 220b 2C000000 		.4byte	.LFE25
 7852 220f DA100000 		.4byte	.LLST92
 7853 2213 01       		.byte	0x1
 7854 2214 3C220000 		.4byte	0x223c
 7855 2218 25       		.uleb128 0x25
 7856 2219 6D736700 		.ascii	"msg\000"
 7857 221d 01       		.byte	0x1
 7858 221e 0604     		.2byte	0x406
 7859 2220 C90C0000 		.4byte	0xcc9
 7860 2224 FA100000 		.4byte	.LLST93
 7861 2228 2D       		.uleb128 0x2d
 7862 2229 1E000000 		.4byte	.LVL298
 7863 222d 01       		.byte	0x1
 7864 222e 67250000 		.4byte	0x2567
 7865 2232 27       		.uleb128 0x27
 7866 2233 24000000 		.4byte	.LVL299
 7867 2237 3F290000 		.4byte	0x293f
 7868 223b 00       		.byte	0
 7869 223c 40       		.uleb128 0x40
 7870 223d 01       		.byte	0x1
 7871 223e FB0A0000 		.4byte	.LASF254
 7872 2242 01       		.byte	0x1
 7873 2243 1C04     		.2byte	0x41c
 7874 2245 01       		.byte	0x1
 7875 2246 00000000 		.4byte	.LFB26
 7876 224a B4000000 		.4byte	.LFE26
 7877 224e 18110000 		.4byte	.LLST94
 7878 2252 01       		.byte	0x1
 7879 2253 0B230000 		.4byte	0x230b
 7880 2257 25       		.uleb128 0x25
 7881 2258 6D736700 		.ascii	"msg\000"
 7882 225c 01       		.byte	0x1
 7883 225d 1C04     		.2byte	0x41c
 7884 225f C90C0000 		.4byte	0xcc9
 7885 2263 38110000 		.4byte	.LLST95
 7886 2267 42       		.uleb128 0x42
 7887 2268 32000000 		.4byte	.LBB19
 7888 226c B4000000 		.4byte	.LBE19
 7889 2270 00230000 		.4byte	0x2300
 7890 2274 26       		.uleb128 0x26
 7891 2275 050C0000 		.4byte	.LASF255
ARM GAS  /tmp/ccKs28dn.s 			page 140


 7892 2279 01       		.byte	0x1
 7893 227a 2804     		.2byte	0x428
 7894 227c 4E0B0000 		.4byte	0xb4e
 7895 2280 56110000 		.4byte	.LLST96
 7896 2284 21       		.uleb128 0x21
 7897 2285 38000000 		.4byte	.LVL303
 7898 2289 53290000 		.4byte	0x2953
 7899 228d 98220000 		.4byte	0x2298
 7900 2291 22       		.uleb128 0x22
 7901 2292 01       		.byte	0x1
 7902 2293 51       		.byte	0x51
 7903 2294 02       		.byte	0x2
 7904 2295 09       		.byte	0x9
 7905 2296 FF       		.byte	0xff
 7906 2297 00       		.byte	0
 7907 2298 27       		.uleb128 0x27
 7908 2299 46000000 		.4byte	.LVL305
 7909 229d D1250000 		.4byte	0x25d1
 7910 22a1 27       		.uleb128 0x27
 7911 22a2 54000000 		.4byte	.LVL306
 7912 22a6 D1250000 		.4byte	0x25d1
 7913 22aa 21       		.uleb128 0x21
 7914 22ab 60000000 		.4byte	.LVL307
 7915 22af 9E250000 		.4byte	0x259e
 7916 22b3 BE220000 		.4byte	0x22be
 7917 22b7 22       		.uleb128 0x22
 7918 22b8 01       		.byte	0x1
 7919 22b9 50       		.byte	0x50
 7920 22ba 02       		.byte	0x2
 7921 22bb 75       		.byte	0x75
 7922 22bc 00       		.sleb128 0
 7923 22bd 00       		.byte	0
 7924 22be 21       		.uleb128 0x21
 7925 22bf 74000000 		.4byte	.LVL308
 7926 22c3 78270000 		.4byte	0x2778
 7927 22c7 D1220000 		.4byte	0x22d1
 7928 22cb 22       		.uleb128 0x22
 7929 22cc 01       		.byte	0x1
 7930 22cd 51       		.byte	0x51
 7931 22ce 01       		.byte	0x1
 7932 22cf 34       		.byte	0x34
 7933 22d0 00       		.byte	0
 7934 22d1 27       		.uleb128 0x27
 7935 22d2 80000000 		.4byte	.LVL309
 7936 22d6 22280000 		.4byte	0x2822
 7937 22da 27       		.uleb128 0x27
 7938 22db 88000000 		.4byte	.LVL310
 7939 22df 95270000 		.4byte	0x2795
 7940 22e3 27       		.uleb128 0x27
 7941 22e4 9A000000 		.4byte	.LVL311
 7942 22e8 D5240000 		.4byte	0x24d5
 7943 22ec 36       		.uleb128 0x36
 7944 22ed A4000000 		.4byte	.LVL312
 7945 22f1 B7250000 		.4byte	0x25b7
 7946 22f5 22       		.uleb128 0x22
 7947 22f6 01       		.byte	0x1
 7948 22f7 51       		.byte	0x51
ARM GAS  /tmp/ccKs28dn.s 			page 141


 7949 22f8 05       		.byte	0x5
 7950 22f9 03       		.byte	0x3
 7951 22fa 00000000 		.4byte	accept_function
 7952 22fe 00       		.byte	0
 7953 22ff 00       		.byte	0
 7954 2300 2D       		.uleb128 0x2d
 7955 2301 2C000000 		.4byte	.LVL302
 7956 2305 01       		.byte	0x1
 7957 2306 67250000 		.4byte	0x2567
 7958 230a 00       		.byte	0
 7959 230b 40       		.uleb128 0x40
 7960 230c 01       		.byte	0x1
 7961 230d E0080000 		.4byte	.LASF256
 7962 2311 01       		.byte	0x1
 7963 2312 5204     		.2byte	0x452
 7964 2314 01       		.byte	0x1
 7965 2315 00000000 		.4byte	.LFB27
 7966 2319 7E000000 		.4byte	.LFE27
 7967 231d 7F110000 		.4byte	.LLST97
 7968 2321 01       		.byte	0x1
 7969 2322 65230000 		.4byte	0x2365
 7970 2326 25       		.uleb128 0x25
 7971 2327 6D736700 		.ascii	"msg\000"
 7972 232b 01       		.byte	0x1
 7973 232c 5204     		.2byte	0x452
 7974 232e C90C0000 		.4byte	0xcc9
 7975 2332 9F110000 		.4byte	.LLST98
 7976 2336 2D       		.uleb128 0x2d
 7977 2337 34000000 		.4byte	.LVL316
 7978 233b 01       		.byte	0x1
 7979 233c 67250000 		.4byte	0x2567
 7980 2340 27       		.uleb128 0x27
 7981 2341 46000000 		.4byte	.LVL317
 7982 2345 71290000 		.4byte	0x2971
 7983 2349 27       		.uleb128 0x27
 7984 234a 5E000000 		.4byte	.LVL318
 7985 234e 8E290000 		.4byte	0x298e
 7986 2352 27       		.uleb128 0x27
 7987 2353 6C000000 		.4byte	.LVL319
 7988 2357 AB290000 		.4byte	0x29ab
 7989 235b 27       		.uleb128 0x27
 7990 235c 78000000 		.4byte	.LVL320
 7991 2360 D2290000 		.4byte	0x29d2
 7992 2364 00       		.byte	0
 7993 2365 40       		.uleb128 0x40
 7994 2366 01       		.byte	0x1
 7995 2367 120A0000 		.4byte	.LASF257
 7996 236b 01       		.byte	0x1
 7997 236c 8704     		.2byte	0x487
 7998 236e 01       		.byte	0x1
 7999 236f 00000000 		.4byte	.LFB28
 8000 2373 44000000 		.4byte	.LFE28
 8001 2377 BD110000 		.4byte	.LLST99
 8002 237b 01       		.byte	0x1
 8003 237c DC230000 		.4byte	0x23dc
 8004 2380 25       		.uleb128 0x25
 8005 2381 6D736700 		.ascii	"msg\000"
ARM GAS  /tmp/ccKs28dn.s 			page 142


 8006 2385 01       		.byte	0x1
 8007 2386 8704     		.2byte	0x487
 8008 2388 C90C0000 		.4byte	0xcc9
 8009 238c DD110000 		.4byte	.LLST100
 8010 2390 42       		.uleb128 0x42
 8011 2391 20000000 		.4byte	.LBB20
 8012 2395 44000000 		.4byte	.LBE20
 8013 2399 D1230000 		.4byte	0x23d1
 8014 239d 26       		.uleb128 0x26
 8015 239e 8C090000 		.4byte	.LASF258
 8016 23a2 01       		.byte	0x1
 8017 23a3 9204     		.2byte	0x492
 8018 23a5 D4040000 		.4byte	0x4d4
 8019 23a9 FB110000 		.4byte	.LLST101
 8020 23ad 3B       		.uleb128 0x3b
 8021 23ae 22000000 		.4byte	.LBB21
 8022 23b2 3C000000 		.4byte	.LBE21
 8023 23b6 26       		.uleb128 0x26
 8024 23b7 8D0C0000 		.4byte	.LASF259
 8025 23bb 01       		.byte	0x1
 8026 23bc 9404     		.2byte	0x494
 8027 23be BE040000 		.4byte	0x4be
 8028 23c2 29120000 		.4byte	.LLST102
 8029 23c6 27       		.uleb128 0x27
 8030 23c7 3C000000 		.4byte	.LVL327
 8031 23cb 0C260000 		.4byte	0x260c
 8032 23cf 00       		.byte	0
 8033 23d0 00       		.byte	0
 8034 23d1 2D       		.uleb128 0x2d
 8035 23d2 20000000 		.4byte	.LVL323
 8036 23d6 01       		.byte	0x1
 8037 23d7 67250000 		.4byte	0x2567
 8038 23db 00       		.byte	0
 8039 23dc 40       		.uleb128 0x40
 8040 23dd 01       		.byte	0x1
 8041 23de 5C050000 		.4byte	.LASF260
 8042 23e2 01       		.byte	0x1
 8043 23e3 2105     		.2byte	0x521
 8044 23e5 01       		.byte	0x1
 8045 23e6 00000000 		.4byte	.LFB30
 8046 23ea 74000000 		.4byte	.LFE30
 8047 23ee 3C120000 		.4byte	.LLST103
 8048 23f2 01       		.byte	0x1
 8049 23f3 2E240000 		.4byte	0x242e
 8050 23f7 25       		.uleb128 0x25
 8051 23f8 6D736700 		.ascii	"msg\000"
 8052 23fc 01       		.byte	0x1
 8053 23fd 2105     		.2byte	0x521
 8054 23ff C90C0000 		.4byte	0xcc9
 8055 2403 68120000 		.4byte	.LLST104
 8056 2407 2D       		.uleb128 0x2d
 8057 2408 26000000 		.4byte	.LVL331
 8058 240c 01       		.byte	0x1
 8059 240d 67250000 		.4byte	0x2567
 8060 2411 27       		.uleb128 0x27
 8061 2412 42000000 		.4byte	.LVL332
 8062 2416 5C250000 		.4byte	0x255c
ARM GAS  /tmp/ccKs28dn.s 			page 143


 8063 241a 2D       		.uleb128 0x2d
 8064 241b 5C000000 		.4byte	.LVL333
 8065 241f 01       		.byte	0x1
 8066 2420 49160000 		.4byte	0x1649
 8067 2424 27       		.uleb128 0x27
 8068 2425 62000000 		.4byte	.LVL334
 8069 2429 5C250000 		.4byte	0x255c
 8070 242d 00       		.byte	0
 8071 242e 40       		.uleb128 0x40
 8072 242f 01       		.byte	0x1
 8073 2430 DC090000 		.4byte	.LASF261
 8074 2434 01       		.byte	0x1
 8075 2435 5805     		.2byte	0x558
 8076 2437 01       		.byte	0x1
 8077 2438 00000000 		.4byte	.LFB31
 8078 243c 98000000 		.4byte	.LFE31
 8079 2440 AD120000 		.4byte	.LLST105
 8080 2444 01       		.byte	0x1
 8081 2445 6D240000 		.4byte	0x246d
 8082 2449 25       		.uleb128 0x25
 8083 244a 6D736700 		.ascii	"msg\000"
 8084 244e 01       		.byte	0x1
 8085 244f 5805     		.2byte	0x558
 8086 2451 C90C0000 		.4byte	0xcc9
 8087 2455 CD120000 		.4byte	.LLST106
 8088 2459 27       		.uleb128 0x27
 8089 245a 30000000 		.4byte	.LVL338
 8090 245e 5C250000 		.4byte	0x255c
 8091 2462 2D       		.uleb128 0x2d
 8092 2463 3C000000 		.4byte	.LVL339
 8093 2467 01       		.byte	0x1
 8094 2468 67250000 		.4byte	0x2567
 8095 246c 00       		.byte	0
 8096 246d 40       		.uleb128 0x40
 8097 246e 01       		.byte	0x1
 8098 246f 340C0000 		.4byte	.LASF262
 8099 2473 01       		.byte	0x1
 8100 2474 8D05     		.2byte	0x58d
 8101 2476 01       		.byte	0x1
 8102 2477 00000000 		.4byte	.LFB32
 8103 247b 74000000 		.4byte	.LFE32
 8104 247f EB120000 		.4byte	.LLST107
 8105 2483 01       		.byte	0x1
 8106 2484 C8240000 		.4byte	0x24c8
 8107 2488 25       		.uleb128 0x25
 8108 2489 6D736700 		.ascii	"msg\000"
 8109 248d 01       		.byte	0x1
 8110 248e 8D05     		.2byte	0x58d
 8111 2490 C90C0000 		.4byte	0xcc9
 8112 2494 0B130000 		.4byte	.LLST108
 8113 2498 27       		.uleb128 0x27
 8114 2499 18000000 		.4byte	.LVL342
 8115 249d 5C250000 		.4byte	0x255c
 8116 24a1 2D       		.uleb128 0x2d
 8117 24a2 28000000 		.4byte	.LVL343
 8118 24a6 01       		.byte	0x1
 8119 24a7 67250000 		.4byte	0x2567
ARM GAS  /tmp/ccKs28dn.s 			page 144


 8120 24ab 27       		.uleb128 0x27
 8121 24ac 4E000000 		.4byte	.LVL344
 8122 24b0 5C250000 		.4byte	0x255c
 8123 24b4 2D       		.uleb128 0x2d
 8124 24b5 5E000000 		.4byte	.LVL345
 8125 24b9 01       		.byte	0x1
 8126 24ba D6110000 		.4byte	0x11d6
 8127 24be 27       		.uleb128 0x27
 8128 24bf 6A000000 		.4byte	.LVL346
 8129 24c3 F71D0000 		.4byte	0x1df7
 8130 24c7 00       		.byte	0
 8131 24c8 43       		.uleb128 0x43
 8132 24c9 20030000 		.4byte	.LASF318
 8133 24cd 12       		.byte	0x12
 8134 24ce A7       		.byte	0xa7
 8135 24cf FA040000 		.4byte	0x4fa
 8136 24d3 01       		.byte	0x1
 8137 24d4 01       		.byte	0x1
 8138 24d5 44       		.uleb128 0x44
 8139 24d6 01       		.byte	0x1
 8140 24d7 A20B0000 		.4byte	.LASF263
 8141 24db 13       		.byte	0x13
 8142 24dc 3C01     		.2byte	0x13c
 8143 24de 01       		.byte	0x1
 8144 24df 01       		.byte	0x1
 8145 24e0 EF240000 		.4byte	0x24ef
 8146 24e4 15       		.uleb128 0x15
 8147 24e5 4E0B0000 		.4byte	0xb4e
 8148 24e9 15       		.uleb128 0x15
 8149 24ea B2020000 		.4byte	0x2b2
 8150 24ee 00       		.byte	0
 8151 24ef 44       		.uleb128 0x44
 8152 24f0 01       		.byte	0x1
 8153 24f1 CE0B0000 		.4byte	.LASF264
 8154 24f5 13       		.byte	0x13
 8155 24f6 3E01     		.2byte	0x13e
 8156 24f8 01       		.byte	0x1
 8157 24f9 01       		.byte	0x1
 8158 24fa 09250000 		.4byte	0x2509
 8159 24fe 15       		.uleb128 0x15
 8160 24ff 4E0B0000 		.4byte	0xb4e
 8161 2503 15       		.uleb128 0x15
 8162 2504 590E0000 		.4byte	0xe59
 8163 2508 00       		.byte	0
 8164 2509 44       		.uleb128 0x44
 8165 250a 01       		.byte	0x1
 8166 250b 31020000 		.4byte	.LASF265
 8167 250f 13       		.byte	0x13
 8168 2510 3F01     		.2byte	0x13f
 8169 2512 01       		.byte	0x1
 8170 2513 01       		.byte	0x1
 8171 2514 23250000 		.4byte	0x2523
 8172 2518 15       		.uleb128 0x15
 8173 2519 4E0B0000 		.4byte	0xb4e
 8174 251d 15       		.uleb128 0x15
 8175 251e 890E0000 		.4byte	0xe89
 8176 2522 00       		.byte	0
ARM GAS  /tmp/ccKs28dn.s 			page 145


 8177 2523 44       		.uleb128 0x44
 8178 2524 01       		.byte	0x1
 8179 2525 32030000 		.4byte	.LASF266
 8180 2529 13       		.byte	0x13
 8181 252a 4001     		.2byte	0x140
 8182 252c 01       		.byte	0x1
 8183 252d 01       		.byte	0x1
 8184 252e 42250000 		.4byte	0x2542
 8185 2532 15       		.uleb128 0x15
 8186 2533 4E0B0000 		.4byte	0xb4e
 8187 2537 15       		.uleb128 0x15
 8188 2538 B40E0000 		.4byte	0xeb4
 8189 253c 15       		.uleb128 0x15
 8190 253d A8040000 		.4byte	0x4a8
 8191 2541 00       		.byte	0
 8192 2542 44       		.uleb128 0x44
 8193 2543 01       		.byte	0x1
 8194 2544 16070000 		.4byte	.LASF267
 8195 2548 13       		.byte	0x13
 8196 2549 4101     		.2byte	0x141
 8197 254b 01       		.byte	0x1
 8198 254c 01       		.byte	0x1
 8199 254d 5C250000 		.4byte	0x255c
 8200 2551 15       		.uleb128 0x15
 8201 2552 4E0B0000 		.4byte	0xb4e
 8202 2556 15       		.uleb128 0x15
 8203 2557 DA0E0000 		.4byte	0xeda
 8204 255b 00       		.byte	0
 8205 255c 45       		.uleb128 0x45
 8206 255d 01       		.byte	0x1
 8207 255e 870B0000 		.4byte	.LASF319
 8208 2562 07       		.byte	0x7
 8209 2563 FA01     		.2byte	0x1fa
 8210 2565 01       		.byte	0x1
 8211 2566 01       		.byte	0x1
 8212 2567 46       		.uleb128 0x46
 8213 2568 01       		.byte	0x1
 8214 2569 7D030000 		.4byte	.LASF268
 8215 256d 18       		.byte	0x18
 8216 256e 88       		.byte	0x88
 8217 256f 01       		.byte	0x1
 8218 2570 01       		.byte	0x1
 8219 2571 7B250000 		.4byte	0x257b
 8220 2575 15       		.uleb128 0x15
 8221 2576 00100000 		.4byte	0x1000
 8222 257a 00       		.byte	0
 8223 257b 47       		.uleb128 0x47
 8224 257c 01       		.byte	0x1
 8225 257d 40070000 		.4byte	.LASF269
 8226 2581 13       		.byte	0x13
 8227 2582 5E01     		.2byte	0x15e
 8228 2584 01       		.byte	0x1
 8229 2585 05050000 		.4byte	0x505
 8230 2589 01       		.byte	0x1
 8231 258a 9E250000 		.4byte	0x259e
 8232 258e 15       		.uleb128 0x15
 8233 258f 4E0B0000 		.4byte	0xb4e
ARM GAS  /tmp/ccKs28dn.s 			page 146


 8234 2593 15       		.uleb128 0x15
 8235 2594 29000000 		.4byte	0x29
 8236 2598 15       		.uleb128 0x15
 8237 2599 29000000 		.4byte	0x29
 8238 259d 00       		.byte	0
 8239 259e 47       		.uleb128 0x47
 8240 259f 01       		.byte	0x1
 8241 25a0 5E090000 		.4byte	.LASF270
 8242 25a4 13       		.byte	0x13
 8243 25a5 5D01     		.2byte	0x15d
 8244 25a7 01       		.byte	0x1
 8245 25a8 05050000 		.4byte	0x505
 8246 25ac 01       		.byte	0x1
 8247 25ad B7250000 		.4byte	0x25b7
 8248 25b1 15       		.uleb128 0x15
 8249 25b2 4E0B0000 		.4byte	0xb4e
 8250 25b6 00       		.byte	0
 8251 25b7 44       		.uleb128 0x44
 8252 25b8 01       		.byte	0x1
 8253 25b9 57080000 		.4byte	.LASF271
 8254 25bd 13       		.byte	0x13
 8255 25be 3D01     		.2byte	0x13d
 8256 25c0 01       		.byte	0x1
 8257 25c1 01       		.byte	0x1
 8258 25c2 D1250000 		.4byte	0x25d1
 8259 25c6 15       		.uleb128 0x15
 8260 25c7 4E0B0000 		.4byte	0xb4e
 8261 25cb 15       		.uleb128 0x15
 8262 25cc 2E0E0000 		.4byte	0xe2e
 8263 25d0 00       		.byte	0
 8264 25d1 48       		.uleb128 0x48
 8265 25d2 01       		.byte	0x1
 8266 25d3 D4030000 		.4byte	.LASF272
 8267 25d7 18       		.byte	0x18
 8268 25d8 CC       		.byte	0xcc
 8269 25d9 01       		.byte	0x1
 8270 25da 29000000 		.4byte	0x29
 8271 25de 01       		.byte	0x1
 8272 25df E9250000 		.4byte	0x25e9
 8273 25e3 15       		.uleb128 0x15
 8274 25e4 E9250000 		.4byte	0x25e9
 8275 25e8 00       		.byte	0
 8276 25e9 09       		.uleb128 0x9
 8277 25ea 04       		.byte	0x4
 8278 25eb 21050000 		.4byte	0x521
 8279 25ef 48       		.uleb128 0x48
 8280 25f0 01       		.byte	0x1
 8281 25f1 1C080000 		.4byte	.LASF273
 8282 25f5 18       		.byte	0x18
 8283 25f6 B1       		.byte	0xb1
 8284 25f7 01       		.byte	0x1
 8285 25f8 05050000 		.4byte	0x505
 8286 25fc 01       		.byte	0x1
 8287 25fd 0C260000 		.4byte	0x260c
 8288 2601 15       		.uleb128 0x15
 8289 2602 E9250000 		.4byte	0x25e9
 8290 2606 15       		.uleb128 0x15
ARM GAS  /tmp/ccKs28dn.s 			page 147


 8291 2607 B2020000 		.4byte	0x2b2
 8292 260b 00       		.byte	0
 8293 260c 44       		.uleb128 0x44
 8294 260d 01       		.byte	0x1
 8295 260e 4F030000 		.4byte	.LASF274
 8296 2612 13       		.byte	0x13
 8297 2613 5301     		.2byte	0x153
 8298 2615 01       		.byte	0x1
 8299 2616 01       		.byte	0x1
 8300 2617 26260000 		.4byte	0x2626
 8301 261b 15       		.uleb128 0x15
 8302 261c 4E0B0000 		.4byte	0xb4e
 8303 2620 15       		.uleb128 0x15
 8304 2621 BE040000 		.4byte	0x4be
 8305 2625 00       		.byte	0
 8306 2626 48       		.uleb128 0x48
 8307 2627 01       		.byte	0x1
 8308 2628 17060000 		.4byte	.LASF275
 8309 262c 0F       		.byte	0xf
 8310 262d 83       		.byte	0x83
 8311 262e 01       		.byte	0x1
 8312 262f A8040000 		.4byte	0x4a8
 8313 2633 01       		.byte	0x1
 8314 2634 3E260000 		.4byte	0x263e
 8315 2638 15       		.uleb128 0x15
 8316 2639 F9050000 		.4byte	0x5f9
 8317 263d 00       		.byte	0
 8318 263e 47       		.uleb128 0x47
 8319 263f 01       		.byte	0x1
 8320 2640 65050000 		.4byte	.LASF276
 8321 2644 13       		.byte	0x13
 8322 2645 6401     		.2byte	0x164
 8323 2647 01       		.byte	0x1
 8324 2648 05050000 		.4byte	0x505
 8325 264c 01       		.byte	0x1
 8326 264d 66260000 		.4byte	0x2666
 8327 2651 15       		.uleb128 0x15
 8328 2652 4E0B0000 		.4byte	0xb4e
 8329 2656 15       		.uleb128 0x15
 8330 2657 770D0000 		.4byte	0xd77
 8331 265b 15       		.uleb128 0x15
 8332 265c BE040000 		.4byte	0x4be
 8333 2660 15       		.uleb128 0x15
 8334 2661 A8040000 		.4byte	0x4a8
 8335 2665 00       		.byte	0
 8336 2666 47       		.uleb128 0x47
 8337 2667 01       		.byte	0x1
 8338 2668 D3040000 		.4byte	.LASF277
 8339 266c 13       		.byte	0x13
 8340 266d 6D01     		.2byte	0x16d
 8341 266f 01       		.byte	0x1
 8342 2670 05050000 		.4byte	0x505
 8343 2674 01       		.byte	0x1
 8344 2675 7F260000 		.4byte	0x267f
 8345 2679 15       		.uleb128 0x15
 8346 267a 4E0B0000 		.4byte	0xb4e
 8347 267e 00       		.byte	0
ARM GAS  /tmp/ccKs28dn.s 			page 148


 8348 267f 48       		.uleb128 0x48
 8349 2680 01       		.byte	0x1
 8350 2681 48060000 		.4byte	.LASF278
 8351 2685 17       		.byte	0x17
 8352 2686 6A       		.byte	0x6a
 8353 2687 01       		.byte	0x1
 8354 2688 B2020000 		.4byte	0x2b2
 8355 268c 01       		.byte	0x1
 8356 268d 97260000 		.4byte	0x2697
 8357 2691 15       		.uleb128 0x15
 8358 2692 F50F0000 		.4byte	0xff5
 8359 2696 00       		.byte	0
 8360 2697 46       		.uleb128 0x46
 8361 2698 01       		.byte	0x1
 8362 2699 C6020000 		.4byte	.LASF279
 8363 269d 10       		.byte	0x10
 8364 269e 41       		.byte	0x41
 8365 269f 01       		.byte	0x1
 8366 26a0 01       		.byte	0x1
 8367 26a1 AB260000 		.4byte	0x26ab
 8368 26a5 15       		.uleb128 0x15
 8369 26a6 F70D0000 		.4byte	0xdf7
 8370 26aa 00       		.byte	0
 8371 26ab 48       		.uleb128 0x48
 8372 26ac 01       		.byte	0x1
 8373 26ad B3020000 		.4byte	.LASF280
 8374 26b1 0F       		.byte	0xf
 8375 26b2 7A       		.byte	0x7a
 8376 26b3 01       		.byte	0x1
 8377 26b4 F9050000 		.4byte	0x5f9
 8378 26b8 01       		.byte	0x1
 8379 26b9 CD260000 		.4byte	0x26cd
 8380 26bd 15       		.uleb128 0x15
 8381 26be 53050000 		.4byte	0x553
 8382 26c2 15       		.uleb128 0x15
 8383 26c3 BE040000 		.4byte	0x4be
 8384 26c7 15       		.uleb128 0x15
 8385 26c8 7F050000 		.4byte	0x57f
 8386 26cc 00       		.byte	0
 8387 26cd 48       		.uleb128 0x48
 8388 26ce 01       		.byte	0x1
 8389 26cf AA030000 		.4byte	.LASF281
 8390 26d3 0F       		.byte	0xf
 8391 26d4 88       		.byte	0x88
 8392 26d5 01       		.byte	0x1
 8393 26d6 05050000 		.4byte	0x505
 8394 26da 01       		.byte	0x1
 8395 26db EA260000 		.4byte	0x26ea
 8396 26df 15       		.uleb128 0x15
 8397 26e0 F9050000 		.4byte	0x5f9
 8398 26e4 15       		.uleb128 0x15
 8399 26e5 F9050000 		.4byte	0x5f9
 8400 26e9 00       		.byte	0
 8401 26ea 49       		.uleb128 0x49
 8402 26eb 01       		.byte	0x1
 8403 26ec 47030000 		.4byte	.LASF284
 8404 26f0 13       		.byte	0x13
ARM GAS  /tmp/ccKs28dn.s 			page 149


 8405 26f1 3A01     		.2byte	0x13a
 8406 26f3 01       		.byte	0x1
 8407 26f4 4E0B0000 		.4byte	0xb4e
 8408 26f8 01       		.byte	0x1
 8409 26f9 48       		.uleb128 0x48
 8410 26fa 01       		.byte	0x1
 8411 26fb 37000000 		.4byte	.LASF282
 8412 26ff 15       		.byte	0x15
 8413 2700 4F       		.byte	0x4f
 8414 2701 01       		.byte	0x1
 8415 2702 8C0C0000 		.4byte	0xc8c
 8416 2706 01       		.byte	0x1
 8417 2707 11270000 		.4byte	0x2711
 8418 270b 15       		.uleb128 0x15
 8419 270c A8040000 		.4byte	0x4a8
 8420 2710 00       		.byte	0
 8421 2711 46       		.uleb128 0x46
 8422 2712 01       		.byte	0x1
 8423 2713 72040000 		.4byte	.LASF283
 8424 2717 15       		.byte	0x15
 8425 2718 54       		.byte	0x54
 8426 2719 01       		.byte	0x1
 8427 271a 01       		.byte	0x1
 8428 271b 2F270000 		.4byte	0x272f
 8429 271f 15       		.uleb128 0x15
 8430 2720 8C0C0000 		.4byte	0xc8c
 8431 2724 15       		.uleb128 0x15
 8432 2725 620F0000 		.4byte	0xf62
 8433 2729 15       		.uleb128 0x15
 8434 272a B2020000 		.4byte	0x2b2
 8435 272e 00       		.byte	0
 8436 272f 4A       		.uleb128 0x4a
 8437 2730 01       		.byte	0x1
 8438 2731 93040000 		.4byte	.LASF285
 8439 2735 14       		.byte	0x14
 8440 2736 7B       		.byte	0x7b
 8441 2737 01       		.byte	0x1
 8442 2738 FB0B0000 		.4byte	0xbfb
 8443 273c 01       		.byte	0x1
 8444 273d 46       		.uleb128 0x46
 8445 273e 01       		.byte	0x1
 8446 273f B40A0000 		.4byte	.LASF286
 8447 2743 14       		.byte	0x14
 8448 2744 82       		.byte	0x82
 8449 2745 01       		.byte	0x1
 8450 2746 01       		.byte	0x1
 8451 2747 5B270000 		.4byte	0x275b
 8452 274b 15       		.uleb128 0x15
 8453 274c FB0B0000 		.4byte	0xbfb
 8454 2750 15       		.uleb128 0x15
 8455 2751 FD0D0000 		.4byte	0xdfd
 8456 2755 15       		.uleb128 0x15
 8457 2756 B2020000 		.4byte	0x2b2
 8458 275a 00       		.byte	0
 8459 275b 48       		.uleb128 0x48
 8460 275c 01       		.byte	0x1
 8461 275d 6E060000 		.4byte	.LASF287
ARM GAS  /tmp/ccKs28dn.s 			page 150


 8462 2761 18       		.byte	0x18
 8463 2762 85       		.byte	0x85
 8464 2763 01       		.byte	0x1
 8465 2764 05050000 		.4byte	0x505
 8466 2768 01       		.byte	0x1
 8467 2769 78270000 		.4byte	0x2778
 8468 276d 15       		.uleb128 0x15
 8469 276e 00100000 		.4byte	0x1000
 8470 2772 15       		.uleb128 0x15
 8471 2773 A8040000 		.4byte	0x4a8
 8472 2777 00       		.byte	0
 8473 2778 48       		.uleb128 0x48
 8474 2779 01       		.byte	0x1
 8475 277a F80B0000 		.4byte	.LASF288
 8476 277e 18       		.byte	0x18
 8477 277f A8       		.byte	0xa8
 8478 2780 01       		.byte	0x1
 8479 2781 05050000 		.4byte	0x505
 8480 2785 01       		.byte	0x1
 8481 2786 95270000 		.4byte	0x2795
 8482 278a 15       		.uleb128 0x15
 8483 278b E9250000 		.4byte	0x25e9
 8484 278f 15       		.uleb128 0x15
 8485 2790 29000000 		.4byte	0x29
 8486 2794 00       		.byte	0
 8487 2795 46       		.uleb128 0x46
 8488 2796 01       		.byte	0x1
 8489 2797 D7000000 		.4byte	.LASF289
 8490 279b 18       		.byte	0x18
 8491 279c D0       		.byte	0xd0
 8492 279d 01       		.byte	0x1
 8493 279e 01       		.byte	0x1
 8494 279f A9270000 		.4byte	0x27a9
 8495 27a3 15       		.uleb128 0x15
 8496 27a4 E9250000 		.4byte	0x25e9
 8497 27a8 00       		.byte	0
 8498 27a9 46       		.uleb128 0x46
 8499 27aa 01       		.byte	0x1
 8500 27ab 2A0C0000 		.4byte	.LASF290
 8501 27af 17       		.byte	0x17
 8502 27b0 6C       		.byte	0x6c
 8503 27b1 01       		.byte	0x1
 8504 27b2 01       		.byte	0x1
 8505 27b3 C2270000 		.4byte	0x27c2
 8506 27b7 15       		.uleb128 0x15
 8507 27b8 F50F0000 		.4byte	0xff5
 8508 27bc 15       		.uleb128 0x15
 8509 27bd B2020000 		.4byte	0x2b2
 8510 27c1 00       		.byte	0
 8511 27c2 46       		.uleb128 0x46
 8512 27c3 01       		.byte	0x1
 8513 27c4 EA010000 		.4byte	.LASF291
 8514 27c8 18       		.byte	0x18
 8515 27c9 91       		.byte	0x91
 8516 27ca 01       		.byte	0x1
 8517 27cb 01       		.byte	0x1
 8518 27cc D6270000 		.4byte	0x27d6
ARM GAS  /tmp/ccKs28dn.s 			page 151


 8519 27d0 15       		.uleb128 0x15
 8520 27d1 00100000 		.4byte	0x1000
 8521 27d5 00       		.byte	0
 8522 27d6 46       		.uleb128 0x46
 8523 27d7 01       		.byte	0x1
 8524 27d8 D4020000 		.4byte	.LASF292
 8525 27dc 18       		.byte	0x18
 8526 27dd 9A       		.byte	0x9a
 8527 27de 01       		.byte	0x1
 8528 27df 01       		.byte	0x1
 8529 27e0 EA270000 		.4byte	0x27ea
 8530 27e4 15       		.uleb128 0x15
 8531 27e5 00100000 		.4byte	0x1000
 8532 27e9 00       		.byte	0
 8533 27ea 44       		.uleb128 0x44
 8534 27eb 01       		.byte	0x1
 8535 27ec D8070000 		.4byte	.LASF293
 8536 27f0 13       		.byte	0x13
 8537 27f1 5C01     		.2byte	0x15c
 8538 27f3 01       		.byte	0x1
 8539 27f4 01       		.byte	0x1
 8540 27f5 FF270000 		.4byte	0x27ff
 8541 27f9 15       		.uleb128 0x15
 8542 27fa 4E0B0000 		.4byte	0xb4e
 8543 27fe 00       		.byte	0
 8544 27ff 48       		.uleb128 0x48
 8545 2800 01       		.byte	0x1
 8546 2801 E7060000 		.4byte	.LASF294
 8547 2805 18       		.byte	0x18
 8548 2806 C2       		.byte	0xc2
 8549 2807 01       		.byte	0x1
 8550 2808 D4040000 		.4byte	0x4d4
 8551 280c 01       		.byte	0x1
 8552 280d 1C280000 		.4byte	0x281c
 8553 2811 15       		.uleb128 0x15
 8554 2812 E9250000 		.4byte	0x25e9
 8555 2816 15       		.uleb128 0x15
 8556 2817 1C280000 		.4byte	0x281c
 8557 281b 00       		.byte	0
 8558 281c 09       		.uleb128 0x9
 8559 281d 04       		.byte	0x4
 8560 281e B2020000 		.4byte	0x2b2
 8561 2822 46       		.uleb128 0x46
 8562 2823 01       		.byte	0x1
 8563 2824 22090000 		.4byte	.LASF295
 8564 2828 18       		.byte	0x18
 8565 2829 C8       		.byte	0xc8
 8566 282a 01       		.byte	0x1
 8567 282b 01       		.byte	0x1
 8568 282c 36280000 		.4byte	0x2836
 8569 2830 15       		.uleb128 0x15
 8570 2831 E9250000 		.4byte	0x25e9
 8571 2835 00       		.byte	0
 8572 2836 48       		.uleb128 0x48
 8573 2837 01       		.byte	0x1
 8574 2838 5F030000 		.4byte	.LASF296
 8575 283c 18       		.byte	0x18
ARM GAS  /tmp/ccKs28dn.s 			page 152


 8576 283d 96       		.byte	0x96
 8577 283e 01       		.byte	0x1
 8578 283f 29000000 		.4byte	0x29
 8579 2843 01       		.byte	0x1
 8580 2844 4E280000 		.4byte	0x284e
 8581 2848 15       		.uleb128 0x15
 8582 2849 00100000 		.4byte	0x1000
 8583 284d 00       		.byte	0
 8584 284e 46       		.uleb128 0x46
 8585 284f 01       		.byte	0x1
 8586 2850 170C0000 		.4byte	.LASF297
 8587 2854 14       		.byte	0x14
 8588 2855 7C       		.byte	0x7c
 8589 2856 01       		.byte	0x1
 8590 2857 01       		.byte	0x1
 8591 2858 62280000 		.4byte	0x2862
 8592 285c 15       		.uleb128 0x15
 8593 285d FB0B0000 		.4byte	0xbfb
 8594 2861 00       		.byte	0
 8595 2862 46       		.uleb128 0x46
 8596 2863 01       		.byte	0x1
 8597 2864 D70B0000 		.4byte	.LASF298
 8598 2868 15       		.byte	0x15
 8599 2869 50       		.byte	0x50
 8600 286a 01       		.byte	0x1
 8601 286b 01       		.byte	0x1
 8602 286c 76280000 		.4byte	0x2876
 8603 2870 15       		.uleb128 0x15
 8604 2871 8C0C0000 		.4byte	0xc8c
 8605 2875 00       		.byte	0
 8606 2876 48       		.uleb128 0x48
 8607 2877 01       		.byte	0x1
 8608 2878 07030000 		.4byte	.LASF299
 8609 287c 14       		.byte	0x14
 8610 287d 7D       		.byte	0x7d
 8611 287e 01       		.byte	0x1
 8612 287f 05050000 		.4byte	0x505
 8613 2883 01       		.byte	0x1
 8614 2884 98280000 		.4byte	0x2898
 8615 2888 15       		.uleb128 0x15
 8616 2889 FB0B0000 		.4byte	0xbfb
 8617 288d 15       		.uleb128 0x15
 8618 288e FF050000 		.4byte	0x5ff
 8619 2892 15       		.uleb128 0x15
 8620 2893 BE040000 		.4byte	0x4be
 8621 2897 00       		.byte	0
 8622 2898 47       		.uleb128 0x47
 8623 2899 01       		.byte	0x1
 8624 289a CE000000 		.4byte	.LASF300
 8625 289e 13       		.byte	0x13
 8626 289f 5401     		.2byte	0x154
 8627 28a1 01       		.byte	0x1
 8628 28a2 05050000 		.4byte	0x505
 8629 28a6 01       		.byte	0x1
 8630 28a7 BB280000 		.4byte	0x28bb
 8631 28ab 15       		.uleb128 0x15
 8632 28ac 4E0B0000 		.4byte	0xb4e
ARM GAS  /tmp/ccKs28dn.s 			page 153


 8633 28b0 15       		.uleb128 0x15
 8634 28b1 FF050000 		.4byte	0x5ff
 8635 28b5 15       		.uleb128 0x15
 8636 28b6 BE040000 		.4byte	0x4be
 8637 28ba 00       		.byte	0
 8638 28bb 48       		.uleb128 0x48
 8639 28bc 01       		.byte	0x1
 8640 28bd 78050000 		.4byte	.LASF301
 8641 28c1 15       		.byte	0x15
 8642 28c2 51       		.byte	0x51
 8643 28c3 01       		.byte	0x1
 8644 28c4 05050000 		.4byte	0x505
 8645 28c8 01       		.byte	0x1
 8646 28c9 D8280000 		.4byte	0x28d8
 8647 28cd 15       		.uleb128 0x15
 8648 28ce 8C0C0000 		.4byte	0xc8c
 8649 28d2 15       		.uleb128 0x15
 8650 28d3 FF050000 		.4byte	0x5ff
 8651 28d7 00       		.byte	0
 8652 28d8 48       		.uleb128 0x48
 8653 28d9 01       		.byte	0x1
 8654 28da BC0B0000 		.4byte	.LASF302
 8655 28de 15       		.byte	0x15
 8656 28df 52       		.byte	0x52
 8657 28e0 01       		.byte	0x1
 8658 28e1 05050000 		.4byte	0x505
 8659 28e5 01       		.byte	0x1
 8660 28e6 F5280000 		.4byte	0x28f5
 8661 28ea 15       		.uleb128 0x15
 8662 28eb 8C0C0000 		.4byte	0xc8c
 8663 28ef 15       		.uleb128 0x15
 8664 28f0 FF050000 		.4byte	0x5ff
 8665 28f4 00       		.byte	0
 8666 28f5 48       		.uleb128 0x48
 8667 28f6 01       		.byte	0x1
 8668 28f7 87010000 		.4byte	.LASF303
 8669 28fb 14       		.byte	0x14
 8670 28fc 7F       		.byte	0x7f
 8671 28fd 01       		.byte	0x1
 8672 28fe 05050000 		.4byte	0x505
 8673 2902 01       		.byte	0x1
 8674 2903 17290000 		.4byte	0x2917
 8675 2907 15       		.uleb128 0x15
 8676 2908 FB0B0000 		.4byte	0xbfb
 8677 290c 15       		.uleb128 0x15
 8678 290d FF050000 		.4byte	0x5ff
 8679 2911 15       		.uleb128 0x15
 8680 2912 BE040000 		.4byte	0x4be
 8681 2916 00       		.byte	0
 8682 2917 47       		.uleb128 0x47
 8683 2918 01       		.byte	0x1
 8684 2919 70000000 		.4byte	.LASF304
 8685 291d 13       		.byte	0x13
 8686 291e 5601     		.2byte	0x156
 8687 2920 01       		.byte	0x1
 8688 2921 05050000 		.4byte	0x505
 8689 2925 01       		.byte	0x1
ARM GAS  /tmp/ccKs28dn.s 			page 154


 8690 2926 3F290000 		.4byte	0x293f
 8691 292a 15       		.uleb128 0x15
 8692 292b 4E0B0000 		.4byte	0xb4e
 8693 292f 15       		.uleb128 0x15
 8694 2930 FF050000 		.4byte	0x5ff
 8695 2934 15       		.uleb128 0x15
 8696 2935 BE040000 		.4byte	0x4be
 8697 2939 15       		.uleb128 0x15
 8698 293a FC0E0000 		.4byte	0xefc
 8699 293e 00       		.byte	0
 8700 293f 46       		.uleb128 0x46
 8701 2940 01       		.byte	0x1
 8702 2941 22020000 		.4byte	.LASF305
 8703 2945 14       		.byte	0x14
 8704 2946 81       		.byte	0x81
 8705 2947 01       		.byte	0x1
 8706 2948 01       		.byte	0x1
 8707 2949 53290000 		.4byte	0x2953
 8708 294d 15       		.uleb128 0x15
 8709 294e FB0B0000 		.4byte	0xbfb
 8710 2952 00       		.byte	0
 8711 2953 47       		.uleb128 0x47
 8712 2954 01       		.byte	0x1
 8713 2955 FE060000 		.4byte	.LASF306
 8714 2959 13       		.byte	0x13
 8715 295a 5901     		.2byte	0x159
 8716 295c 01       		.byte	0x1
 8717 295d 4E0B0000 		.4byte	0xb4e
 8718 2961 01       		.byte	0x1
 8719 2962 71290000 		.4byte	0x2971
 8720 2966 15       		.uleb128 0x15
 8721 2967 4E0B0000 		.4byte	0xb4e
 8722 296b 15       		.uleb128 0x15
 8723 296c A8040000 		.4byte	0x4a8
 8724 2970 00       		.byte	0
 8725 2971 48       		.uleb128 0x48
 8726 2972 01       		.byte	0x1
 8727 2973 70010000 		.4byte	.LASF307
 8728 2977 14       		.byte	0x14
 8729 2978 89       		.byte	0x89
 8730 2979 01       		.byte	0x1
 8731 297a 05050000 		.4byte	0x505
 8732 297e 01       		.byte	0x1
 8733 297f 8E290000 		.4byte	0x298e
 8734 2983 15       		.uleb128 0x15
 8735 2984 FB0B0000 		.4byte	0xbfb
 8736 2988 15       		.uleb128 0x15
 8737 2989 F9050000 		.4byte	0x5f9
 8738 298d 00       		.byte	0
 8739 298e 48       		.uleb128 0x48
 8740 298f 01       		.byte	0x1
 8741 2990 A8000000 		.4byte	.LASF308
 8742 2994 15       		.byte	0x15
 8743 2995 56       		.byte	0x56
 8744 2996 01       		.byte	0x1
 8745 2997 05050000 		.4byte	0x505
 8746 299b 01       		.byte	0x1
ARM GAS  /tmp/ccKs28dn.s 			page 155


 8747 299c AB290000 		.4byte	0x29ab
 8748 29a0 15       		.uleb128 0x15
 8749 29a1 8C0C0000 		.4byte	0xc8c
 8750 29a5 15       		.uleb128 0x15
 8751 29a6 F9050000 		.4byte	0x5f9
 8752 29aa 00       		.byte	0
 8753 29ab 48       		.uleb128 0x48
 8754 29ac 01       		.byte	0x1
 8755 29ad 8C000000 		.4byte	.LASF309
 8756 29b1 14       		.byte	0x14
 8757 29b2 87       		.byte	0x87
 8758 29b3 01       		.byte	0x1
 8759 29b4 05050000 		.4byte	0x505
 8760 29b8 01       		.byte	0x1
 8761 29b9 D2290000 		.4byte	0x29d2
 8762 29bd 15       		.uleb128 0x15
 8763 29be FB0B0000 		.4byte	0xbfb
 8764 29c2 15       		.uleb128 0x15
 8765 29c3 F9050000 		.4byte	0x5f9
 8766 29c7 15       		.uleb128 0x15
 8767 29c8 FF050000 		.4byte	0x5ff
 8768 29cc 15       		.uleb128 0x15
 8769 29cd BE040000 		.4byte	0x4be
 8770 29d1 00       		.byte	0
 8771 29d2 4B       		.uleb128 0x4b
 8772 29d3 01       		.byte	0x1
 8773 29d4 7A060000 		.4byte	.LASF310
 8774 29d8 15       		.byte	0x15
 8775 29d9 55       		.byte	0x55
 8776 29da 01       		.byte	0x1
 8777 29db 05050000 		.4byte	0x505
 8778 29df 01       		.byte	0x1
 8779 29e0 15       		.uleb128 0x15
 8780 29e1 8C0C0000 		.4byte	0xc8c
 8781 29e5 15       		.uleb128 0x15
 8782 29e6 F9050000 		.4byte	0x5f9
 8783 29ea 15       		.uleb128 0x15
 8784 29eb FF050000 		.4byte	0x5ff
 8785 29ef 00       		.byte	0
 8786 29f0 00       		.byte	0
 8787              		.section	.debug_abbrev,"",%progbits
 8788              	.Ldebug_abbrev0:
 8789 0000 01       		.uleb128 0x1
 8790 0001 11       		.uleb128 0x11
 8791 0002 01       		.byte	0x1
 8792 0003 25       		.uleb128 0x25
 8793 0004 0E       		.uleb128 0xe
 8794 0005 13       		.uleb128 0x13
 8795 0006 0B       		.uleb128 0xb
 8796 0007 03       		.uleb128 0x3
 8797 0008 0E       		.uleb128 0xe
 8798 0009 1B       		.uleb128 0x1b
 8799 000a 0E       		.uleb128 0xe
 8800 000b 55       		.uleb128 0x55
 8801 000c 06       		.uleb128 0x6
 8802 000d 11       		.uleb128 0x11
 8803 000e 01       		.uleb128 0x1
ARM GAS  /tmp/ccKs28dn.s 			page 156


 8804 000f 52       		.uleb128 0x52
 8805 0010 01       		.uleb128 0x1
 8806 0011 10       		.uleb128 0x10
 8807 0012 06       		.uleb128 0x6
 8808 0013 00       		.byte	0
 8809 0014 00       		.byte	0
 8810 0015 02       		.uleb128 0x2
 8811 0016 24       		.uleb128 0x24
 8812 0017 00       		.byte	0
 8813 0018 0B       		.uleb128 0xb
 8814 0019 0B       		.uleb128 0xb
 8815 001a 3E       		.uleb128 0x3e
 8816 001b 0B       		.uleb128 0xb
 8817 001c 03       		.uleb128 0x3
 8818 001d 08       		.uleb128 0x8
 8819 001e 00       		.byte	0
 8820 001f 00       		.byte	0
 8821 0020 03       		.uleb128 0x3
 8822 0021 16       		.uleb128 0x16
 8823 0022 00       		.byte	0
 8824 0023 03       		.uleb128 0x3
 8825 0024 0E       		.uleb128 0xe
 8826 0025 3A       		.uleb128 0x3a
 8827 0026 0B       		.uleb128 0xb
 8828 0027 3B       		.uleb128 0x3b
 8829 0028 0B       		.uleb128 0xb
 8830 0029 49       		.uleb128 0x49
 8831 002a 13       		.uleb128 0x13
 8832 002b 00       		.byte	0
 8833 002c 00       		.byte	0
 8834 002d 04       		.uleb128 0x4
 8835 002e 24       		.uleb128 0x24
 8836 002f 00       		.byte	0
 8837 0030 0B       		.uleb128 0xb
 8838 0031 0B       		.uleb128 0xb
 8839 0032 3E       		.uleb128 0x3e
 8840 0033 0B       		.uleb128 0xb
 8841 0034 03       		.uleb128 0x3
 8842 0035 0E       		.uleb128 0xe
 8843 0036 00       		.byte	0
 8844 0037 00       		.byte	0
 8845 0038 05       		.uleb128 0x5
 8846 0039 13       		.uleb128 0x13
 8847 003a 01       		.byte	0x1
 8848 003b 03       		.uleb128 0x3
 8849 003c 0E       		.uleb128 0xe
 8850 003d 0B       		.uleb128 0xb
 8851 003e 0B       		.uleb128 0xb
 8852 003f 3A       		.uleb128 0x3a
 8853 0040 0B       		.uleb128 0xb
 8854 0041 3B       		.uleb128 0x3b
 8855 0042 0B       		.uleb128 0xb
 8856 0043 01       		.uleb128 0x1
 8857 0044 13       		.uleb128 0x13
 8858 0045 00       		.byte	0
 8859 0046 00       		.byte	0
 8860 0047 06       		.uleb128 0x6
ARM GAS  /tmp/ccKs28dn.s 			page 157


 8861 0048 0D       		.uleb128 0xd
 8862 0049 00       		.byte	0
 8863 004a 03       		.uleb128 0x3
 8864 004b 0E       		.uleb128 0xe
 8865 004c 3A       		.uleb128 0x3a
 8866 004d 0B       		.uleb128 0xb
 8867 004e 3B       		.uleb128 0x3b
 8868 004f 0B       		.uleb128 0xb
 8869 0050 49       		.uleb128 0x49
 8870 0051 13       		.uleb128 0x13
 8871 0052 38       		.uleb128 0x38
 8872 0053 0A       		.uleb128 0xa
 8873 0054 00       		.byte	0
 8874 0055 00       		.byte	0
 8875 0056 07       		.uleb128 0x7
 8876 0057 0D       		.uleb128 0xd
 8877 0058 00       		.byte	0
 8878 0059 03       		.uleb128 0x3
 8879 005a 08       		.uleb128 0x8
 8880 005b 3A       		.uleb128 0x3a
 8881 005c 0B       		.uleb128 0xb
 8882 005d 3B       		.uleb128 0x3b
 8883 005e 0B       		.uleb128 0xb
 8884 005f 49       		.uleb128 0x49
 8885 0060 13       		.uleb128 0x13
 8886 0061 38       		.uleb128 0x38
 8887 0062 0A       		.uleb128 0xa
 8888 0063 00       		.byte	0
 8889 0064 00       		.byte	0
 8890 0065 08       		.uleb128 0x8
 8891 0066 13       		.uleb128 0x13
 8892 0067 01       		.byte	0x1
 8893 0068 0B       		.uleb128 0xb
 8894 0069 0B       		.uleb128 0xb
 8895 006a 3A       		.uleb128 0x3a
 8896 006b 0B       		.uleb128 0xb
 8897 006c 3B       		.uleb128 0x3b
 8898 006d 0B       		.uleb128 0xb
 8899 006e 01       		.uleb128 0x1
 8900 006f 13       		.uleb128 0x13
 8901 0070 00       		.byte	0
 8902 0071 00       		.byte	0
 8903 0072 09       		.uleb128 0x9
 8904 0073 0F       		.uleb128 0xf
 8905 0074 00       		.byte	0
 8906 0075 0B       		.uleb128 0xb
 8907 0076 0B       		.uleb128 0xb
 8908 0077 49       		.uleb128 0x49
 8909 0078 13       		.uleb128 0x13
 8910 0079 00       		.byte	0
 8911 007a 00       		.byte	0
 8912 007b 0A       		.uleb128 0xa
 8913 007c 0F       		.uleb128 0xf
 8914 007d 00       		.byte	0
 8915 007e 0B       		.uleb128 0xb
 8916 007f 0B       		.uleb128 0xb
 8917 0080 00       		.byte	0
ARM GAS  /tmp/ccKs28dn.s 			page 158


 8918 0081 00       		.byte	0
 8919 0082 0B       		.uleb128 0xb
 8920 0083 13       		.uleb128 0x13
 8921 0084 01       		.byte	0x1
 8922 0085 03       		.uleb128 0x3
 8923 0086 0E       		.uleb128 0xe
 8924 0087 0B       		.uleb128 0xb
 8925 0088 0B       		.uleb128 0xb
 8926 0089 3A       		.uleb128 0x3a
 8927 008a 0B       		.uleb128 0xb
 8928 008b 3B       		.uleb128 0x3b
 8929 008c 05       		.uleb128 0x5
 8930 008d 01       		.uleb128 0x1
 8931 008e 13       		.uleb128 0x13
 8932 008f 00       		.byte	0
 8933 0090 00       		.byte	0
 8934 0091 0C       		.uleb128 0xc
 8935 0092 0D       		.uleb128 0xd
 8936 0093 00       		.byte	0
 8937 0094 03       		.uleb128 0x3
 8938 0095 08       		.uleb128 0x8
 8939 0096 3A       		.uleb128 0x3a
 8940 0097 0B       		.uleb128 0xb
 8941 0098 3B       		.uleb128 0x3b
 8942 0099 05       		.uleb128 0x5
 8943 009a 49       		.uleb128 0x49
 8944 009b 13       		.uleb128 0x13
 8945 009c 38       		.uleb128 0x38
 8946 009d 0A       		.uleb128 0xa
 8947 009e 00       		.byte	0
 8948 009f 00       		.byte	0
 8949 00a0 0D       		.uleb128 0xd
 8950 00a1 35       		.uleb128 0x35
 8951 00a2 00       		.byte	0
 8952 00a3 49       		.uleb128 0x49
 8953 00a4 13       		.uleb128 0x13
 8954 00a5 00       		.byte	0
 8955 00a6 00       		.byte	0
 8956 00a7 0E       		.uleb128 0xe
 8957 00a8 17       		.uleb128 0x17
 8958 00a9 01       		.byte	0x1
 8959 00aa 0B       		.uleb128 0xb
 8960 00ab 0B       		.uleb128 0xb
 8961 00ac 3A       		.uleb128 0x3a
 8962 00ad 0B       		.uleb128 0xb
 8963 00ae 3B       		.uleb128 0x3b
 8964 00af 0B       		.uleb128 0xb
 8965 00b0 01       		.uleb128 0x1
 8966 00b1 13       		.uleb128 0x13
 8967 00b2 00       		.byte	0
 8968 00b3 00       		.byte	0
 8969 00b4 0F       		.uleb128 0xf
 8970 00b5 0D       		.uleb128 0xd
 8971 00b6 00       		.byte	0
 8972 00b7 03       		.uleb128 0x3
 8973 00b8 0E       		.uleb128 0xe
 8974 00b9 3A       		.uleb128 0x3a
ARM GAS  /tmp/ccKs28dn.s 			page 159


 8975 00ba 0B       		.uleb128 0xb
 8976 00bb 3B       		.uleb128 0x3b
 8977 00bc 0B       		.uleb128 0xb
 8978 00bd 49       		.uleb128 0x49
 8979 00be 13       		.uleb128 0x13
 8980 00bf 00       		.byte	0
 8981 00c0 00       		.byte	0
 8982 00c1 10       		.uleb128 0x10
 8983 00c2 26       		.uleb128 0x26
 8984 00c3 00       		.byte	0
 8985 00c4 49       		.uleb128 0x49
 8986 00c5 13       		.uleb128 0x13
 8987 00c6 00       		.byte	0
 8988 00c7 00       		.byte	0
 8989 00c8 11       		.uleb128 0x11
 8990 00c9 04       		.uleb128 0x4
 8991 00ca 01       		.byte	0x1
 8992 00cb 0B       		.uleb128 0xb
 8993 00cc 0B       		.uleb128 0xb
 8994 00cd 3A       		.uleb128 0x3a
 8995 00ce 0B       		.uleb128 0xb
 8996 00cf 3B       		.uleb128 0x3b
 8997 00d0 0B       		.uleb128 0xb
 8998 00d1 01       		.uleb128 0x1
 8999 00d2 13       		.uleb128 0x13
 9000 00d3 00       		.byte	0
 9001 00d4 00       		.byte	0
 9002 00d5 12       		.uleb128 0x12
 9003 00d6 28       		.uleb128 0x28
 9004 00d7 00       		.byte	0
 9005 00d8 03       		.uleb128 0x3
 9006 00d9 0E       		.uleb128 0xe
 9007 00da 1C       		.uleb128 0x1c
 9008 00db 0D       		.uleb128 0xd
 9009 00dc 00       		.byte	0
 9010 00dd 00       		.byte	0
 9011 00de 13       		.uleb128 0x13
 9012 00df 04       		.uleb128 0x4
 9013 00e0 01       		.byte	0x1
 9014 00e1 03       		.uleb128 0x3
 9015 00e2 0E       		.uleb128 0xe
 9016 00e3 0B       		.uleb128 0xb
 9017 00e4 0B       		.uleb128 0xb
 9018 00e5 3A       		.uleb128 0x3a
 9019 00e6 0B       		.uleb128 0xb
 9020 00e7 3B       		.uleb128 0x3b
 9021 00e8 0B       		.uleb128 0xb
 9022 00e9 01       		.uleb128 0x1
 9023 00ea 13       		.uleb128 0x13
 9024 00eb 00       		.byte	0
 9025 00ec 00       		.byte	0
 9026 00ed 14       		.uleb128 0x14
 9027 00ee 15       		.uleb128 0x15
 9028 00ef 01       		.byte	0x1
 9029 00f0 27       		.uleb128 0x27
 9030 00f1 0C       		.uleb128 0xc
 9031 00f2 01       		.uleb128 0x1
ARM GAS  /tmp/ccKs28dn.s 			page 160


 9032 00f3 13       		.uleb128 0x13
 9033 00f4 00       		.byte	0
 9034 00f5 00       		.byte	0
 9035 00f6 15       		.uleb128 0x15
 9036 00f7 05       		.uleb128 0x5
 9037 00f8 00       		.byte	0
 9038 00f9 49       		.uleb128 0x49
 9039 00fa 13       		.uleb128 0x13
 9040 00fb 00       		.byte	0
 9041 00fc 00       		.byte	0
 9042 00fd 16       		.uleb128 0x16
 9043 00fe 0D       		.uleb128 0xd
 9044 00ff 00       		.byte	0
 9045 0100 03       		.uleb128 0x3
 9046 0101 08       		.uleb128 0x8
 9047 0102 3A       		.uleb128 0x3a
 9048 0103 0B       		.uleb128 0xb
 9049 0104 3B       		.uleb128 0x3b
 9050 0105 0B       		.uleb128 0xb
 9051 0106 49       		.uleb128 0x49
 9052 0107 13       		.uleb128 0x13
 9053 0108 00       		.byte	0
 9054 0109 00       		.byte	0
 9055 010a 17       		.uleb128 0x17
 9056 010b 0D       		.uleb128 0xd
 9057 010c 00       		.byte	0
 9058 010d 03       		.uleb128 0x3
 9059 010e 0E       		.uleb128 0xe
 9060 010f 3A       		.uleb128 0x3a
 9061 0110 0B       		.uleb128 0xb
 9062 0111 3B       		.uleb128 0x3b
 9063 0112 05       		.uleb128 0x5
 9064 0113 49       		.uleb128 0x49
 9065 0114 13       		.uleb128 0x13
 9066 0115 38       		.uleb128 0x38
 9067 0116 0A       		.uleb128 0xa
 9068 0117 00       		.byte	0
 9069 0118 00       		.byte	0
 9070 0119 18       		.uleb128 0x18
 9071 011a 26       		.uleb128 0x26
 9072 011b 00       		.byte	0
 9073 011c 00       		.byte	0
 9074 011d 00       		.byte	0
 9075 011e 19       		.uleb128 0x19
 9076 011f 15       		.uleb128 0x15
 9077 0120 01       		.byte	0x1
 9078 0121 27       		.uleb128 0x27
 9079 0122 0C       		.uleb128 0xc
 9080 0123 49       		.uleb128 0x49
 9081 0124 13       		.uleb128 0x13
 9082 0125 01       		.uleb128 0x1
 9083 0126 13       		.uleb128 0x13
 9084 0127 00       		.byte	0
 9085 0128 00       		.byte	0
 9086 0129 1A       		.uleb128 0x1a
 9087 012a 13       		.uleb128 0x13
 9088 012b 00       		.byte	0
ARM GAS  /tmp/ccKs28dn.s 			page 161


 9089 012c 03       		.uleb128 0x3
 9090 012d 0E       		.uleb128 0xe
 9091 012e 3C       		.uleb128 0x3c
 9092 012f 0C       		.uleb128 0xc
 9093 0130 00       		.byte	0
 9094 0131 00       		.byte	0
 9095 0132 1B       		.uleb128 0x1b
 9096 0133 2E       		.uleb128 0x2e
 9097 0134 01       		.byte	0x1
 9098 0135 03       		.uleb128 0x3
 9099 0136 0E       		.uleb128 0xe
 9100 0137 3A       		.uleb128 0x3a
 9101 0138 0B       		.uleb128 0xb
 9102 0139 3B       		.uleb128 0x3b
 9103 013a 05       		.uleb128 0x5
 9104 013b 27       		.uleb128 0x27
 9105 013c 0C       		.uleb128 0xc
 9106 013d 49       		.uleb128 0x49
 9107 013e 13       		.uleb128 0x13
 9108 013f 20       		.uleb128 0x20
 9109 0140 0B       		.uleb128 0xb
 9110 0141 01       		.uleb128 0x1
 9111 0142 13       		.uleb128 0x13
 9112 0143 00       		.byte	0
 9113 0144 00       		.byte	0
 9114 0145 1C       		.uleb128 0x1c
 9115 0146 05       		.uleb128 0x5
 9116 0147 00       		.byte	0
 9117 0148 03       		.uleb128 0x3
 9118 0149 08       		.uleb128 0x8
 9119 014a 3A       		.uleb128 0x3a
 9120 014b 0B       		.uleb128 0xb
 9121 014c 3B       		.uleb128 0x3b
 9122 014d 05       		.uleb128 0x5
 9123 014e 49       		.uleb128 0x49
 9124 014f 13       		.uleb128 0x13
 9125 0150 00       		.byte	0
 9126 0151 00       		.byte	0
 9127 0152 1D       		.uleb128 0x1d
 9128 0153 34       		.uleb128 0x34
 9129 0154 00       		.byte	0
 9130 0155 03       		.uleb128 0x3
 9131 0156 0E       		.uleb128 0xe
 9132 0157 3A       		.uleb128 0x3a
 9133 0158 0B       		.uleb128 0xb
 9134 0159 3B       		.uleb128 0x3b
 9135 015a 05       		.uleb128 0x5
 9136 015b 49       		.uleb128 0x49
 9137 015c 13       		.uleb128 0x13
 9138 015d 00       		.byte	0
 9139 015e 00       		.byte	0
 9140 015f 1E       		.uleb128 0x1e
 9141 0160 2E       		.uleb128 0x2e
 9142 0161 01       		.byte	0x1
 9143 0162 03       		.uleb128 0x3
 9144 0163 0E       		.uleb128 0xe
 9145 0164 3A       		.uleb128 0x3a
ARM GAS  /tmp/ccKs28dn.s 			page 162


 9146 0165 0B       		.uleb128 0xb
 9147 0166 3B       		.uleb128 0x3b
 9148 0167 05       		.uleb128 0x5
 9149 0168 27       		.uleb128 0x27
 9150 0169 0C       		.uleb128 0xc
 9151 016a 11       		.uleb128 0x11
 9152 016b 01       		.uleb128 0x1
 9153 016c 12       		.uleb128 0x12
 9154 016d 01       		.uleb128 0x1
 9155 016e 40       		.uleb128 0x40
 9156 016f 06       		.uleb128 0x6
 9157 0170 9742     		.uleb128 0x2117
 9158 0172 0C       		.uleb128 0xc
 9159 0173 01       		.uleb128 0x1
 9160 0174 13       		.uleb128 0x13
 9161 0175 00       		.byte	0
 9162 0176 00       		.byte	0
 9163 0177 1F       		.uleb128 0x1f
 9164 0178 05       		.uleb128 0x5
 9165 0179 00       		.byte	0
 9166 017a 03       		.uleb128 0x3
 9167 017b 0E       		.uleb128 0xe
 9168 017c 3A       		.uleb128 0x3a
 9169 017d 0B       		.uleb128 0xb
 9170 017e 3B       		.uleb128 0x3b
 9171 017f 05       		.uleb128 0x5
 9172 0180 49       		.uleb128 0x49
 9173 0181 13       		.uleb128 0x13
 9174 0182 02       		.uleb128 0x2
 9175 0183 06       		.uleb128 0x6
 9176 0184 00       		.byte	0
 9177 0185 00       		.byte	0
 9178 0186 20       		.uleb128 0x20
 9179 0187 34       		.uleb128 0x34
 9180 0188 00       		.byte	0
 9181 0189 03       		.uleb128 0x3
 9182 018a 08       		.uleb128 0x8
 9183 018b 3A       		.uleb128 0x3a
 9184 018c 0B       		.uleb128 0xb
 9185 018d 3B       		.uleb128 0x3b
 9186 018e 05       		.uleb128 0x5
 9187 018f 49       		.uleb128 0x49
 9188 0190 13       		.uleb128 0x13
 9189 0191 02       		.uleb128 0x2
 9190 0192 0A       		.uleb128 0xa
 9191 0193 00       		.byte	0
 9192 0194 00       		.byte	0
 9193 0195 21       		.uleb128 0x21
 9194 0196 898201   		.uleb128 0x4109
 9195 0199 01       		.byte	0x1
 9196 019a 11       		.uleb128 0x11
 9197 019b 01       		.uleb128 0x1
 9198 019c 31       		.uleb128 0x31
 9199 019d 13       		.uleb128 0x13
 9200 019e 01       		.uleb128 0x1
 9201 019f 13       		.uleb128 0x13
 9202 01a0 00       		.byte	0
ARM GAS  /tmp/ccKs28dn.s 			page 163


 9203 01a1 00       		.byte	0
 9204 01a2 22       		.uleb128 0x22
 9205 01a3 8A8201   		.uleb128 0x410a
 9206 01a6 00       		.byte	0
 9207 01a7 02       		.uleb128 0x2
 9208 01a8 0A       		.uleb128 0xa
 9209 01a9 9142     		.uleb128 0x2111
 9210 01ab 0A       		.uleb128 0xa
 9211 01ac 00       		.byte	0
 9212 01ad 00       		.byte	0
 9213 01ae 23       		.uleb128 0x23
 9214 01af 898201   		.uleb128 0x4109
 9215 01b2 01       		.byte	0x1
 9216 01b3 11       		.uleb128 0x11
 9217 01b4 01       		.uleb128 0x1
 9218 01b5 9542     		.uleb128 0x2115
 9219 01b7 0C       		.uleb128 0xc
 9220 01b8 31       		.uleb128 0x31
 9221 01b9 13       		.uleb128 0x13
 9222 01ba 00       		.byte	0
 9223 01bb 00       		.byte	0
 9224 01bc 24       		.uleb128 0x24
 9225 01bd 2E       		.uleb128 0x2e
 9226 01be 01       		.byte	0x1
 9227 01bf 03       		.uleb128 0x3
 9228 01c0 0E       		.uleb128 0xe
 9229 01c1 3A       		.uleb128 0x3a
 9230 01c2 0B       		.uleb128 0xb
 9231 01c3 3B       		.uleb128 0x3b
 9232 01c4 05       		.uleb128 0x5
 9233 01c5 27       		.uleb128 0x27
 9234 01c6 0C       		.uleb128 0xc
 9235 01c7 49       		.uleb128 0x49
 9236 01c8 13       		.uleb128 0x13
 9237 01c9 11       		.uleb128 0x11
 9238 01ca 01       		.uleb128 0x1
 9239 01cb 12       		.uleb128 0x12
 9240 01cc 01       		.uleb128 0x1
 9241 01cd 40       		.uleb128 0x40
 9242 01ce 06       		.uleb128 0x6
 9243 01cf 9742     		.uleb128 0x2117
 9244 01d1 0C       		.uleb128 0xc
 9245 01d2 01       		.uleb128 0x1
 9246 01d3 13       		.uleb128 0x13
 9247 01d4 00       		.byte	0
 9248 01d5 00       		.byte	0
 9249 01d6 25       		.uleb128 0x25
 9250 01d7 05       		.uleb128 0x5
 9251 01d8 00       		.byte	0
 9252 01d9 03       		.uleb128 0x3
 9253 01da 08       		.uleb128 0x8
 9254 01db 3A       		.uleb128 0x3a
 9255 01dc 0B       		.uleb128 0xb
 9256 01dd 3B       		.uleb128 0x3b
 9257 01de 05       		.uleb128 0x5
 9258 01df 49       		.uleb128 0x49
 9259 01e0 13       		.uleb128 0x13
ARM GAS  /tmp/ccKs28dn.s 			page 164


 9260 01e1 02       		.uleb128 0x2
 9261 01e2 06       		.uleb128 0x6
 9262 01e3 00       		.byte	0
 9263 01e4 00       		.byte	0
 9264 01e5 26       		.uleb128 0x26
 9265 01e6 34       		.uleb128 0x34
 9266 01e7 00       		.byte	0
 9267 01e8 03       		.uleb128 0x3
 9268 01e9 0E       		.uleb128 0xe
 9269 01ea 3A       		.uleb128 0x3a
 9270 01eb 0B       		.uleb128 0xb
 9271 01ec 3B       		.uleb128 0x3b
 9272 01ed 05       		.uleb128 0x5
 9273 01ee 49       		.uleb128 0x49
 9274 01ef 13       		.uleb128 0x13
 9275 01f0 02       		.uleb128 0x2
 9276 01f1 06       		.uleb128 0x6
 9277 01f2 00       		.byte	0
 9278 01f3 00       		.byte	0
 9279 01f4 27       		.uleb128 0x27
 9280 01f5 898201   		.uleb128 0x4109
 9281 01f8 00       		.byte	0
 9282 01f9 11       		.uleb128 0x11
 9283 01fa 01       		.uleb128 0x1
 9284 01fb 31       		.uleb128 0x31
 9285 01fc 13       		.uleb128 0x13
 9286 01fd 00       		.byte	0
 9287 01fe 00       		.byte	0
 9288 01ff 28       		.uleb128 0x28
 9289 0200 898201   		.uleb128 0x4109
 9290 0203 01       		.byte	0x1
 9291 0204 11       		.uleb128 0x11
 9292 0205 01       		.uleb128 0x1
 9293 0206 01       		.uleb128 0x1
 9294 0207 13       		.uleb128 0x13
 9295 0208 00       		.byte	0
 9296 0209 00       		.byte	0
 9297 020a 29       		.uleb128 0x29
 9298 020b 34       		.uleb128 0x34
 9299 020c 00       		.byte	0
 9300 020d 03       		.uleb128 0x3
 9301 020e 08       		.uleb128 0x8
 9302 020f 3A       		.uleb128 0x3a
 9303 0210 0B       		.uleb128 0xb
 9304 0211 3B       		.uleb128 0x3b
 9305 0212 05       		.uleb128 0x5
 9306 0213 49       		.uleb128 0x49
 9307 0214 13       		.uleb128 0x13
 9308 0215 02       		.uleb128 0x2
 9309 0216 06       		.uleb128 0x6
 9310 0217 00       		.byte	0
 9311 0218 00       		.byte	0
 9312 0219 2A       		.uleb128 0x2a
 9313 021a 898201   		.uleb128 0x4109
 9314 021d 01       		.byte	0x1
 9315 021e 11       		.uleb128 0x11
 9316 021f 01       		.uleb128 0x1
ARM GAS  /tmp/ccKs28dn.s 			page 165


 9317 0220 9342     		.uleb128 0x2113
 9318 0222 0A       		.uleb128 0xa
 9319 0223 01       		.uleb128 0x1
 9320 0224 13       		.uleb128 0x13
 9321 0225 00       		.byte	0
 9322 0226 00       		.byte	0
 9323 0227 2B       		.uleb128 0x2b
 9324 0228 898201   		.uleb128 0x4109
 9325 022b 01       		.byte	0x1
 9326 022c 11       		.uleb128 0x11
 9327 022d 01       		.uleb128 0x1
 9328 022e 9542     		.uleb128 0x2115
 9329 0230 0C       		.uleb128 0xc
 9330 0231 31       		.uleb128 0x31
 9331 0232 13       		.uleb128 0x13
 9332 0233 01       		.uleb128 0x1
 9333 0234 13       		.uleb128 0x13
 9334 0235 00       		.byte	0
 9335 0236 00       		.byte	0
 9336 0237 2C       		.uleb128 0x2c
 9337 0238 0B       		.uleb128 0xb
 9338 0239 01       		.byte	0x1
 9339 023a 55       		.uleb128 0x55
 9340 023b 06       		.uleb128 0x6
 9341 023c 01       		.uleb128 0x1
 9342 023d 13       		.uleb128 0x13
 9343 023e 00       		.byte	0
 9344 023f 00       		.byte	0
 9345 0240 2D       		.uleb128 0x2d
 9346 0241 898201   		.uleb128 0x4109
 9347 0244 00       		.byte	0
 9348 0245 11       		.uleb128 0x11
 9349 0246 01       		.uleb128 0x1
 9350 0247 9542     		.uleb128 0x2115
 9351 0249 0C       		.uleb128 0xc
 9352 024a 31       		.uleb128 0x31
 9353 024b 13       		.uleb128 0x13
 9354 024c 00       		.byte	0
 9355 024d 00       		.byte	0
 9356 024e 2E       		.uleb128 0x2e
 9357 024f 2E       		.uleb128 0x2e
 9358 0250 01       		.byte	0x1
 9359 0251 03       		.uleb128 0x3
 9360 0252 0E       		.uleb128 0xe
 9361 0253 3A       		.uleb128 0x3a
 9362 0254 0B       		.uleb128 0xb
 9363 0255 3B       		.uleb128 0x3b
 9364 0256 0B       		.uleb128 0xb
 9365 0257 27       		.uleb128 0x27
 9366 0258 0C       		.uleb128 0xc
 9367 0259 49       		.uleb128 0x49
 9368 025a 13       		.uleb128 0x13
 9369 025b 11       		.uleb128 0x11
 9370 025c 01       		.uleb128 0x1
 9371 025d 12       		.uleb128 0x12
 9372 025e 01       		.uleb128 0x1
 9373 025f 40       		.uleb128 0x40
ARM GAS  /tmp/ccKs28dn.s 			page 166


 9374 0260 06       		.uleb128 0x6
 9375 0261 9742     		.uleb128 0x2117
 9376 0263 0C       		.uleb128 0xc
 9377 0264 01       		.uleb128 0x1
 9378 0265 13       		.uleb128 0x13
 9379 0266 00       		.byte	0
 9380 0267 00       		.byte	0
 9381 0268 2F       		.uleb128 0x2f
 9382 0269 05       		.uleb128 0x5
 9383 026a 00       		.byte	0
 9384 026b 03       		.uleb128 0x3
 9385 026c 08       		.uleb128 0x8
 9386 026d 3A       		.uleb128 0x3a
 9387 026e 0B       		.uleb128 0xb
 9388 026f 3B       		.uleb128 0x3b
 9389 0270 0B       		.uleb128 0xb
 9390 0271 49       		.uleb128 0x49
 9391 0272 13       		.uleb128 0x13
 9392 0273 02       		.uleb128 0x2
 9393 0274 06       		.uleb128 0x6
 9394 0275 00       		.byte	0
 9395 0276 00       		.byte	0
 9396 0277 30       		.uleb128 0x30
 9397 0278 34       		.uleb128 0x34
 9398 0279 00       		.byte	0
 9399 027a 03       		.uleb128 0x3
 9400 027b 0E       		.uleb128 0xe
 9401 027c 3A       		.uleb128 0x3a
 9402 027d 0B       		.uleb128 0xb
 9403 027e 3B       		.uleb128 0x3b
 9404 027f 0B       		.uleb128 0xb
 9405 0280 49       		.uleb128 0x49
 9406 0281 13       		.uleb128 0x13
 9407 0282 02       		.uleb128 0x2
 9408 0283 06       		.uleb128 0x6
 9409 0284 00       		.byte	0
 9410 0285 00       		.byte	0
 9411 0286 31       		.uleb128 0x31
 9412 0287 34       		.uleb128 0x34
 9413 0288 00       		.byte	0
 9414 0289 03       		.uleb128 0x3
 9415 028a 08       		.uleb128 0x8
 9416 028b 3A       		.uleb128 0x3a
 9417 028c 0B       		.uleb128 0xb
 9418 028d 3B       		.uleb128 0x3b
 9419 028e 0B       		.uleb128 0xb
 9420 028f 49       		.uleb128 0x49
 9421 0290 13       		.uleb128 0x13
 9422 0291 02       		.uleb128 0x2
 9423 0292 06       		.uleb128 0x6
 9424 0293 00       		.byte	0
 9425 0294 00       		.byte	0
 9426 0295 32       		.uleb128 0x32
 9427 0296 34       		.uleb128 0x34
 9428 0297 00       		.byte	0
 9429 0298 03       		.uleb128 0x3
 9430 0299 0E       		.uleb128 0xe
ARM GAS  /tmp/ccKs28dn.s 			page 167


 9431 029a 3A       		.uleb128 0x3a
 9432 029b 0B       		.uleb128 0xb
 9433 029c 3B       		.uleb128 0x3b
 9434 029d 05       		.uleb128 0x5
 9435 029e 49       		.uleb128 0x49
 9436 029f 13       		.uleb128 0x13
 9437 02a0 02       		.uleb128 0x2
 9438 02a1 0A       		.uleb128 0xa
 9439 02a2 00       		.byte	0
 9440 02a3 00       		.byte	0
 9441 02a4 33       		.uleb128 0x33
 9442 02a5 2E       		.uleb128 0x2e
 9443 02a6 01       		.byte	0x1
 9444 02a7 03       		.uleb128 0x3
 9445 02a8 0E       		.uleb128 0xe
 9446 02a9 3A       		.uleb128 0x3a
 9447 02aa 0B       		.uleb128 0xb
 9448 02ab 3B       		.uleb128 0x3b
 9449 02ac 0B       		.uleb128 0xb
 9450 02ad 27       		.uleb128 0x27
 9451 02ae 0C       		.uleb128 0xc
 9452 02af 11       		.uleb128 0x11
 9453 02b0 01       		.uleb128 0x1
 9454 02b1 12       		.uleb128 0x12
 9455 02b2 01       		.uleb128 0x1
 9456 02b3 40       		.uleb128 0x40
 9457 02b4 06       		.uleb128 0x6
 9458 02b5 9742     		.uleb128 0x2117
 9459 02b7 0C       		.uleb128 0xc
 9460 02b8 01       		.uleb128 0x1
 9461 02b9 13       		.uleb128 0x13
 9462 02ba 00       		.byte	0
 9463 02bb 00       		.byte	0
 9464 02bc 34       		.uleb128 0x34
 9465 02bd 05       		.uleb128 0x5
 9466 02be 00       		.byte	0
 9467 02bf 03       		.uleb128 0x3
 9468 02c0 0E       		.uleb128 0xe
 9469 02c1 3A       		.uleb128 0x3a
 9470 02c2 0B       		.uleb128 0xb
 9471 02c3 3B       		.uleb128 0x3b
 9472 02c4 0B       		.uleb128 0xb
 9473 02c5 49       		.uleb128 0x49
 9474 02c6 13       		.uleb128 0x13
 9475 02c7 02       		.uleb128 0x2
 9476 02c8 06       		.uleb128 0x6
 9477 02c9 00       		.byte	0
 9478 02ca 00       		.byte	0
 9479 02cb 35       		.uleb128 0x35
 9480 02cc 05       		.uleb128 0x5
 9481 02cd 00       		.byte	0
 9482 02ce 03       		.uleb128 0x3
 9483 02cf 0E       		.uleb128 0xe
 9484 02d0 3A       		.uleb128 0x3a
 9485 02d1 0B       		.uleb128 0xb
 9486 02d2 3B       		.uleb128 0x3b
 9487 02d3 0B       		.uleb128 0xb
ARM GAS  /tmp/ccKs28dn.s 			page 168


 9488 02d4 49       		.uleb128 0x49
 9489 02d5 13       		.uleb128 0x13
 9490 02d6 02       		.uleb128 0x2
 9491 02d7 0A       		.uleb128 0xa
 9492 02d8 00       		.byte	0
 9493 02d9 00       		.byte	0
 9494 02da 36       		.uleb128 0x36
 9495 02db 898201   		.uleb128 0x4109
 9496 02de 01       		.byte	0x1
 9497 02df 11       		.uleb128 0x11
 9498 02e0 01       		.uleb128 0x1
 9499 02e1 31       		.uleb128 0x31
 9500 02e2 13       		.uleb128 0x13
 9501 02e3 00       		.byte	0
 9502 02e4 00       		.byte	0
 9503 02e5 37       		.uleb128 0x37
 9504 02e6 2E       		.uleb128 0x2e
 9505 02e7 01       		.byte	0x1
 9506 02e8 31       		.uleb128 0x31
 9507 02e9 13       		.uleb128 0x13
 9508 02ea 11       		.uleb128 0x11
 9509 02eb 01       		.uleb128 0x1
 9510 02ec 12       		.uleb128 0x12
 9511 02ed 01       		.uleb128 0x1
 9512 02ee 40       		.uleb128 0x40
 9513 02ef 06       		.uleb128 0x6
 9514 02f0 9742     		.uleb128 0x2117
 9515 02f2 0C       		.uleb128 0xc
 9516 02f3 01       		.uleb128 0x1
 9517 02f4 13       		.uleb128 0x13
 9518 02f5 00       		.byte	0
 9519 02f6 00       		.byte	0
 9520 02f7 38       		.uleb128 0x38
 9521 02f8 05       		.uleb128 0x5
 9522 02f9 00       		.byte	0
 9523 02fa 31       		.uleb128 0x31
 9524 02fb 13       		.uleb128 0x13
 9525 02fc 02       		.uleb128 0x2
 9526 02fd 06       		.uleb128 0x6
 9527 02fe 00       		.byte	0
 9528 02ff 00       		.byte	0
 9529 0300 39       		.uleb128 0x39
 9530 0301 34       		.uleb128 0x34
 9531 0302 00       		.byte	0
 9532 0303 31       		.uleb128 0x31
 9533 0304 13       		.uleb128 0x13
 9534 0305 02       		.uleb128 0x2
 9535 0306 06       		.uleb128 0x6
 9536 0307 00       		.byte	0
 9537 0308 00       		.byte	0
 9538 0309 3A       		.uleb128 0x3a
 9539 030a 1D       		.uleb128 0x1d
 9540 030b 01       		.byte	0x1
 9541 030c 31       		.uleb128 0x31
 9542 030d 13       		.uleb128 0x13
 9543 030e 11       		.uleb128 0x11
 9544 030f 01       		.uleb128 0x1
ARM GAS  /tmp/ccKs28dn.s 			page 169


 9545 0310 12       		.uleb128 0x12
 9546 0311 01       		.uleb128 0x1
 9547 0312 58       		.uleb128 0x58
 9548 0313 0B       		.uleb128 0xb
 9549 0314 59       		.uleb128 0x59
 9550 0315 05       		.uleb128 0x5
 9551 0316 01       		.uleb128 0x1
 9552 0317 13       		.uleb128 0x13
 9553 0318 00       		.byte	0
 9554 0319 00       		.byte	0
 9555 031a 3B       		.uleb128 0x3b
 9556 031b 0B       		.uleb128 0xb
 9557 031c 01       		.byte	0x1
 9558 031d 11       		.uleb128 0x11
 9559 031e 01       		.uleb128 0x1
 9560 031f 12       		.uleb128 0x12
 9561 0320 01       		.uleb128 0x1
 9562 0321 00       		.byte	0
 9563 0322 00       		.byte	0
 9564 0323 3C       		.uleb128 0x3c
 9565 0324 34       		.uleb128 0x34
 9566 0325 00       		.byte	0
 9567 0326 31       		.uleb128 0x31
 9568 0327 13       		.uleb128 0x13
 9569 0328 00       		.byte	0
 9570 0329 00       		.byte	0
 9571 032a 3D       		.uleb128 0x3d
 9572 032b 05       		.uleb128 0x5
 9573 032c 00       		.byte	0
 9574 032d 31       		.uleb128 0x31
 9575 032e 13       		.uleb128 0x13
 9576 032f 00       		.byte	0
 9577 0330 00       		.byte	0
 9578 0331 3E       		.uleb128 0x3e
 9579 0332 898201   		.uleb128 0x4109
 9580 0335 01       		.byte	0x1
 9581 0336 11       		.uleb128 0x11
 9582 0337 01       		.uleb128 0x1
 9583 0338 00       		.byte	0
 9584 0339 00       		.byte	0
 9585 033a 3F       		.uleb128 0x3f
 9586 033b 2E       		.uleb128 0x2e
 9587 033c 01       		.byte	0x1
 9588 033d 03       		.uleb128 0x3
 9589 033e 0E       		.uleb128 0xe
 9590 033f 3A       		.uleb128 0x3a
 9591 0340 0B       		.uleb128 0xb
 9592 0341 3B       		.uleb128 0x3b
 9593 0342 05       		.uleb128 0x5
 9594 0343 27       		.uleb128 0x27
 9595 0344 0C       		.uleb128 0xc
 9596 0345 20       		.uleb128 0x20
 9597 0346 0B       		.uleb128 0xb
 9598 0347 01       		.uleb128 0x1
 9599 0348 13       		.uleb128 0x13
 9600 0349 00       		.byte	0
 9601 034a 00       		.byte	0
ARM GAS  /tmp/ccKs28dn.s 			page 170


 9602 034b 40       		.uleb128 0x40
 9603 034c 2E       		.uleb128 0x2e
 9604 034d 01       		.byte	0x1
 9605 034e 3F       		.uleb128 0x3f
 9606 034f 0C       		.uleb128 0xc
 9607 0350 03       		.uleb128 0x3
 9608 0351 0E       		.uleb128 0xe
 9609 0352 3A       		.uleb128 0x3a
 9610 0353 0B       		.uleb128 0xb
 9611 0354 3B       		.uleb128 0x3b
 9612 0355 05       		.uleb128 0x5
 9613 0356 27       		.uleb128 0x27
 9614 0357 0C       		.uleb128 0xc
 9615 0358 11       		.uleb128 0x11
 9616 0359 01       		.uleb128 0x1
 9617 035a 12       		.uleb128 0x12
 9618 035b 01       		.uleb128 0x1
 9619 035c 40       		.uleb128 0x40
 9620 035d 06       		.uleb128 0x6
 9621 035e 9742     		.uleb128 0x2117
 9622 0360 0C       		.uleb128 0xc
 9623 0361 01       		.uleb128 0x1
 9624 0362 13       		.uleb128 0x13
 9625 0363 00       		.byte	0
 9626 0364 00       		.byte	0
 9627 0365 41       		.uleb128 0x41
 9628 0366 2E       		.uleb128 0x2e
 9629 0367 01       		.byte	0x1
 9630 0368 3F       		.uleb128 0x3f
 9631 0369 0C       		.uleb128 0xc
 9632 036a 03       		.uleb128 0x3
 9633 036b 0E       		.uleb128 0xe
 9634 036c 3A       		.uleb128 0x3a
 9635 036d 0B       		.uleb128 0xb
 9636 036e 3B       		.uleb128 0x3b
 9637 036f 05       		.uleb128 0x5
 9638 0370 27       		.uleb128 0x27
 9639 0371 0C       		.uleb128 0xc
 9640 0372 49       		.uleb128 0x49
 9641 0373 13       		.uleb128 0x13
 9642 0374 11       		.uleb128 0x11
 9643 0375 01       		.uleb128 0x1
 9644 0376 12       		.uleb128 0x12
 9645 0377 01       		.uleb128 0x1
 9646 0378 40       		.uleb128 0x40
 9647 0379 06       		.uleb128 0x6
 9648 037a 9742     		.uleb128 0x2117
 9649 037c 0C       		.uleb128 0xc
 9650 037d 01       		.uleb128 0x1
 9651 037e 13       		.uleb128 0x13
 9652 037f 00       		.byte	0
 9653 0380 00       		.byte	0
 9654 0381 42       		.uleb128 0x42
 9655 0382 0B       		.uleb128 0xb
 9656 0383 01       		.byte	0x1
 9657 0384 11       		.uleb128 0x11
 9658 0385 01       		.uleb128 0x1
ARM GAS  /tmp/ccKs28dn.s 			page 171


 9659 0386 12       		.uleb128 0x12
 9660 0387 01       		.uleb128 0x1
 9661 0388 01       		.uleb128 0x1
 9662 0389 13       		.uleb128 0x13
 9663 038a 00       		.byte	0
 9664 038b 00       		.byte	0
 9665 038c 43       		.uleb128 0x43
 9666 038d 34       		.uleb128 0x34
 9667 038e 00       		.byte	0
 9668 038f 03       		.uleb128 0x3
 9669 0390 0E       		.uleb128 0xe
 9670 0391 3A       		.uleb128 0x3a
 9671 0392 0B       		.uleb128 0xb
 9672 0393 3B       		.uleb128 0x3b
 9673 0394 0B       		.uleb128 0xb
 9674 0395 49       		.uleb128 0x49
 9675 0396 13       		.uleb128 0x13
 9676 0397 3F       		.uleb128 0x3f
 9677 0398 0C       		.uleb128 0xc
 9678 0399 3C       		.uleb128 0x3c
 9679 039a 0C       		.uleb128 0xc
 9680 039b 00       		.byte	0
 9681 039c 00       		.byte	0
 9682 039d 44       		.uleb128 0x44
 9683 039e 2E       		.uleb128 0x2e
 9684 039f 01       		.byte	0x1
 9685 03a0 3F       		.uleb128 0x3f
 9686 03a1 0C       		.uleb128 0xc
 9687 03a2 03       		.uleb128 0x3
 9688 03a3 0E       		.uleb128 0xe
 9689 03a4 3A       		.uleb128 0x3a
 9690 03a5 0B       		.uleb128 0xb
 9691 03a6 3B       		.uleb128 0x3b
 9692 03a7 05       		.uleb128 0x5
 9693 03a8 27       		.uleb128 0x27
 9694 03a9 0C       		.uleb128 0xc
 9695 03aa 3C       		.uleb128 0x3c
 9696 03ab 0C       		.uleb128 0xc
 9697 03ac 01       		.uleb128 0x1
 9698 03ad 13       		.uleb128 0x13
 9699 03ae 00       		.byte	0
 9700 03af 00       		.byte	0
 9701 03b0 45       		.uleb128 0x45
 9702 03b1 2E       		.uleb128 0x2e
 9703 03b2 00       		.byte	0
 9704 03b3 3F       		.uleb128 0x3f
 9705 03b4 0C       		.uleb128 0xc
 9706 03b5 03       		.uleb128 0x3
 9707 03b6 0E       		.uleb128 0xe
 9708 03b7 3A       		.uleb128 0x3a
 9709 03b8 0B       		.uleb128 0xb
 9710 03b9 3B       		.uleb128 0x3b
 9711 03ba 05       		.uleb128 0x5
 9712 03bb 27       		.uleb128 0x27
 9713 03bc 0C       		.uleb128 0xc
 9714 03bd 3C       		.uleb128 0x3c
 9715 03be 0C       		.uleb128 0xc
ARM GAS  /tmp/ccKs28dn.s 			page 172


 9716 03bf 00       		.byte	0
 9717 03c0 00       		.byte	0
 9718 03c1 46       		.uleb128 0x46
 9719 03c2 2E       		.uleb128 0x2e
 9720 03c3 01       		.byte	0x1
 9721 03c4 3F       		.uleb128 0x3f
 9722 03c5 0C       		.uleb128 0xc
 9723 03c6 03       		.uleb128 0x3
 9724 03c7 0E       		.uleb128 0xe
 9725 03c8 3A       		.uleb128 0x3a
 9726 03c9 0B       		.uleb128 0xb
 9727 03ca 3B       		.uleb128 0x3b
 9728 03cb 0B       		.uleb128 0xb
 9729 03cc 27       		.uleb128 0x27
 9730 03cd 0C       		.uleb128 0xc
 9731 03ce 3C       		.uleb128 0x3c
 9732 03cf 0C       		.uleb128 0xc
 9733 03d0 01       		.uleb128 0x1
 9734 03d1 13       		.uleb128 0x13
 9735 03d2 00       		.byte	0
 9736 03d3 00       		.byte	0
 9737 03d4 47       		.uleb128 0x47
 9738 03d5 2E       		.uleb128 0x2e
 9739 03d6 01       		.byte	0x1
 9740 03d7 3F       		.uleb128 0x3f
 9741 03d8 0C       		.uleb128 0xc
 9742 03d9 03       		.uleb128 0x3
 9743 03da 0E       		.uleb128 0xe
 9744 03db 3A       		.uleb128 0x3a
 9745 03dc 0B       		.uleb128 0xb
 9746 03dd 3B       		.uleb128 0x3b
 9747 03de 05       		.uleb128 0x5
 9748 03df 27       		.uleb128 0x27
 9749 03e0 0C       		.uleb128 0xc
 9750 03e1 49       		.uleb128 0x49
 9751 03e2 13       		.uleb128 0x13
 9752 03e3 3C       		.uleb128 0x3c
 9753 03e4 0C       		.uleb128 0xc
 9754 03e5 01       		.uleb128 0x1
 9755 03e6 13       		.uleb128 0x13
 9756 03e7 00       		.byte	0
 9757 03e8 00       		.byte	0
 9758 03e9 48       		.uleb128 0x48
 9759 03ea 2E       		.uleb128 0x2e
 9760 03eb 01       		.byte	0x1
 9761 03ec 3F       		.uleb128 0x3f
 9762 03ed 0C       		.uleb128 0xc
 9763 03ee 03       		.uleb128 0x3
 9764 03ef 0E       		.uleb128 0xe
 9765 03f0 3A       		.uleb128 0x3a
 9766 03f1 0B       		.uleb128 0xb
 9767 03f2 3B       		.uleb128 0x3b
 9768 03f3 0B       		.uleb128 0xb
 9769 03f4 27       		.uleb128 0x27
 9770 03f5 0C       		.uleb128 0xc
 9771 03f6 49       		.uleb128 0x49
 9772 03f7 13       		.uleb128 0x13
ARM GAS  /tmp/ccKs28dn.s 			page 173


 9773 03f8 3C       		.uleb128 0x3c
 9774 03f9 0C       		.uleb128 0xc
 9775 03fa 01       		.uleb128 0x1
 9776 03fb 13       		.uleb128 0x13
 9777 03fc 00       		.byte	0
 9778 03fd 00       		.byte	0
 9779 03fe 49       		.uleb128 0x49
 9780 03ff 2E       		.uleb128 0x2e
 9781 0400 00       		.byte	0
 9782 0401 3F       		.uleb128 0x3f
 9783 0402 0C       		.uleb128 0xc
 9784 0403 03       		.uleb128 0x3
 9785 0404 0E       		.uleb128 0xe
 9786 0405 3A       		.uleb128 0x3a
 9787 0406 0B       		.uleb128 0xb
 9788 0407 3B       		.uleb128 0x3b
 9789 0408 05       		.uleb128 0x5
 9790 0409 27       		.uleb128 0x27
 9791 040a 0C       		.uleb128 0xc
 9792 040b 49       		.uleb128 0x49
 9793 040c 13       		.uleb128 0x13
 9794 040d 3C       		.uleb128 0x3c
 9795 040e 0C       		.uleb128 0xc
 9796 040f 00       		.byte	0
 9797 0410 00       		.byte	0
 9798 0411 4A       		.uleb128 0x4a
 9799 0412 2E       		.uleb128 0x2e
 9800 0413 00       		.byte	0
 9801 0414 3F       		.uleb128 0x3f
 9802 0415 0C       		.uleb128 0xc
 9803 0416 03       		.uleb128 0x3
 9804 0417 0E       		.uleb128 0xe
 9805 0418 3A       		.uleb128 0x3a
 9806 0419 0B       		.uleb128 0xb
 9807 041a 3B       		.uleb128 0x3b
 9808 041b 0B       		.uleb128 0xb
 9809 041c 27       		.uleb128 0x27
 9810 041d 0C       		.uleb128 0xc
 9811 041e 49       		.uleb128 0x49
 9812 041f 13       		.uleb128 0x13
 9813 0420 3C       		.uleb128 0x3c
 9814 0421 0C       		.uleb128 0xc
 9815 0422 00       		.byte	0
 9816 0423 00       		.byte	0
 9817 0424 4B       		.uleb128 0x4b
 9818 0425 2E       		.uleb128 0x2e
 9819 0426 01       		.byte	0x1
 9820 0427 3F       		.uleb128 0x3f
 9821 0428 0C       		.uleb128 0xc
 9822 0429 03       		.uleb128 0x3
 9823 042a 0E       		.uleb128 0xe
 9824 042b 3A       		.uleb128 0x3a
 9825 042c 0B       		.uleb128 0xb
 9826 042d 3B       		.uleb128 0x3b
 9827 042e 0B       		.uleb128 0xb
 9828 042f 27       		.uleb128 0x27
 9829 0430 0C       		.uleb128 0xc
ARM GAS  /tmp/ccKs28dn.s 			page 174


 9830 0431 49       		.uleb128 0x49
 9831 0432 13       		.uleb128 0x13
 9832 0433 3C       		.uleb128 0x3c
 9833 0434 0C       		.uleb128 0xc
 9834 0435 00       		.byte	0
 9835 0436 00       		.byte	0
 9836 0437 00       		.byte	0
 9837              		.section	.debug_loc,"",%progbits
 9838              	.Ldebug_loc0:
 9839              	.LLST0:
 9840 0000 00000000 		.4byte	.LFB13
 9841 0004 02000000 		.4byte	.LCFI0
 9842 0008 0200     		.2byte	0x2
 9843 000a 7D       		.byte	0x7d
 9844 000b 00       		.sleb128 0
 9845 000c 02000000 		.4byte	.LCFI0
 9846 0010 4A000000 		.4byte	.LFE13
 9847 0014 0200     		.2byte	0x2
 9848 0016 7D       		.byte	0x7d
 9849 0017 08       		.sleb128 8
 9850 0018 00000000 		.4byte	0
 9851 001c 00000000 		.4byte	0
 9852              	.LLST1:
 9853 0020 00000000 		.4byte	.LVL0
 9854 0024 08000000 		.4byte	.LVL2
 9855 0028 0100     		.2byte	0x1
 9856 002a 50       		.byte	0x50
 9857 002b 08000000 		.4byte	.LVL2
 9858 002f 0B000000 		.4byte	.LVL3-1
 9859 0033 0100     		.2byte	0x1
 9860 0035 51       		.byte	0x51
 9861 0036 0B000000 		.4byte	.LVL3-1
 9862 003a 4A000000 		.4byte	.LFE13
 9863 003e 0400     		.2byte	0x4
 9864 0040 F3       		.byte	0xf3
 9865 0041 01       		.uleb128 0x1
 9866 0042 50       		.byte	0x50
 9867 0043 9F       		.byte	0x9f
 9868 0044 00000000 		.4byte	0
 9869 0048 00000000 		.4byte	0
 9870              	.LLST2:
 9871 004c 00000000 		.4byte	.LFB23
 9872 0050 02000000 		.4byte	.LCFI1
 9873 0054 0200     		.2byte	0x2
 9874 0056 7D       		.byte	0x7d
 9875 0057 00       		.sleb128 0
 9876 0058 02000000 		.4byte	.LCFI1
 9877 005c 8A000000 		.4byte	.LFE23
 9878 0060 0200     		.2byte	0x2
 9879 0062 7D       		.byte	0x7d
 9880 0063 10       		.sleb128 16
 9881 0064 00000000 		.4byte	0
 9882 0068 00000000 		.4byte	0
 9883              	.LLST3:
 9884 006c 00000000 		.4byte	.LVL8
 9885 0070 13000000 		.4byte	.LVL9-1
 9886 0074 0100     		.2byte	0x1
ARM GAS  /tmp/ccKs28dn.s 			page 175


 9887 0076 50       		.byte	0x50
 9888 0077 13000000 		.4byte	.LVL9-1
 9889 007b 86000000 		.4byte	.LVL20
 9890 007f 0100     		.2byte	0x1
 9891 0081 54       		.byte	0x54
 9892 0082 86000000 		.4byte	.LVL20
 9893 0086 88000000 		.4byte	.LVL21
 9894 008a 0100     		.2byte	0x1
 9895 008c 50       		.byte	0x50
 9896 008d 88000000 		.4byte	.LVL21
 9897 0091 8A000000 		.4byte	.LFE23
 9898 0095 0100     		.2byte	0x1
 9899 0097 54       		.byte	0x54
 9900 0098 00000000 		.4byte	0
 9901 009c 00000000 		.4byte	0
 9902              	.LLST4:
 9903 00a0 00000000 		.4byte	.LVL8
 9904 00a4 13000000 		.4byte	.LVL9-1
 9905 00a8 0100     		.2byte	0x1
 9906 00aa 51       		.byte	0x51
 9907 00ab 13000000 		.4byte	.LVL9-1
 9908 00af 86000000 		.4byte	.LVL20
 9909 00b3 0400     		.2byte	0x4
 9910 00b5 F3       		.byte	0xf3
 9911 00b6 01       		.uleb128 0x1
 9912 00b7 51       		.byte	0x51
 9913 00b8 9F       		.byte	0x9f
 9914 00b9 86000000 		.4byte	.LVL20
 9915 00bd 8A000000 		.4byte	.LFE23
 9916 00c1 0100     		.2byte	0x1
 9917 00c3 51       		.byte	0x51
 9918 00c4 00000000 		.4byte	0
 9919 00c8 00000000 		.4byte	0
 9920              	.LLST5:
 9921 00cc 00000000 		.4byte	.LVL8
 9922 00d0 13000000 		.4byte	.LVL9-1
 9923 00d4 0100     		.2byte	0x1
 9924 00d6 52       		.byte	0x52
 9925 00d7 13000000 		.4byte	.LVL9-1
 9926 00db 86000000 		.4byte	.LVL20
 9927 00df 0400     		.2byte	0x4
 9928 00e1 F3       		.byte	0xf3
 9929 00e2 01       		.uleb128 0x1
 9930 00e3 52       		.byte	0x52
 9931 00e4 9F       		.byte	0x9f
 9932 00e5 86000000 		.4byte	.LVL20
 9933 00e9 8A000000 		.4byte	.LFE23
 9934 00ed 0100     		.2byte	0x1
 9935 00ef 52       		.byte	0x52
 9936 00f0 00000000 		.4byte	0
 9937 00f4 00000000 		.4byte	0
 9938              	.LLST7:
 9939 00f8 30000000 		.4byte	.LVL10
 9940 00fc 48000000 		.4byte	.LVL12
 9941 0100 0100     		.2byte	0x1
 9942 0102 55       		.byte	0x55
 9943 0103 48000000 		.4byte	.LVL12
ARM GAS  /tmp/ccKs28dn.s 			page 176


 9944 0107 4C000000 		.4byte	.LVL13
 9945 010b 0100     		.2byte	0x1
 9946 010d 50       		.byte	0x50
 9947 010e 4C000000 		.4byte	.LVL13
 9948 0112 52000000 		.4byte	.LVL15
 9949 0116 0100     		.2byte	0x1
 9950 0118 55       		.byte	0x55
 9951 0119 56000000 		.4byte	.LVL16
 9952 011d 62000000 		.4byte	.LVL17
 9953 0121 0100     		.2byte	0x1
 9954 0123 55       		.byte	0x55
 9955 0124 00000000 		.4byte	0
 9956 0128 00000000 		.4byte	0
 9957              	.LLST8:
 9958 012c 00000000 		.4byte	.LFB20
 9959 0130 02000000 		.4byte	.LCFI2
 9960 0134 0200     		.2byte	0x2
 9961 0136 7D       		.byte	0x7d
 9962 0137 00       		.sleb128 0
 9963 0138 02000000 		.4byte	.LCFI2
 9964 013c 50010000 		.4byte	.LFE20
 9965 0140 0200     		.2byte	0x2
 9966 0142 7D       		.byte	0x7d
 9967 0143 18       		.sleb128 24
 9968 0144 00000000 		.4byte	0
 9969 0148 00000000 		.4byte	0
 9970              	.LLST9:
 9971 014c 00000000 		.4byte	.LVL22
 9972 0150 0A000000 		.4byte	.LVL23
 9973 0154 0100     		.2byte	0x1
 9974 0156 50       		.byte	0x50
 9975 0157 0A000000 		.4byte	.LVL23
 9976 015b 3E010000 		.4byte	.LVL59
 9977 015f 0100     		.2byte	0x1
 9978 0161 54       		.byte	0x54
 9979 0162 3E010000 		.4byte	.LVL59
 9980 0166 41010000 		.4byte	.LVL60-1
 9981 016a 0100     		.2byte	0x1
 9982 016c 50       		.byte	0x50
 9983 016d 41010000 		.4byte	.LVL60-1
 9984 0171 50010000 		.4byte	.LFE20
 9985 0175 0100     		.2byte	0x1
 9986 0177 54       		.byte	0x54
 9987 0178 00000000 		.4byte	0
 9988 017c 00000000 		.4byte	0
 9989              	.LLST10:
 9990 0180 62000000 		.4byte	.LVL32
 9991 0184 79000000 		.4byte	.LVL33-1
 9992 0188 0100     		.2byte	0x1
 9993 018a 52       		.byte	0x52
 9994 018b A2000000 		.4byte	.LVL36
 9995 018f AA000000 		.4byte	.LVL37
 9996 0193 0100     		.2byte	0x1
 9997 0195 52       		.byte	0x52
 9998 0196 F6000000 		.4byte	.LVL46
 9999 019a F8000000 		.4byte	.LVL47
 10000 019e 0100     		.2byte	0x1
ARM GAS  /tmp/ccKs28dn.s 			page 177


 10001 01a0 50       		.byte	0x50
 10002 01a1 28010000 		.4byte	.LVL54
 10003 01a5 2B010000 		.4byte	.LVL55-1
 10004 01a9 0100     		.2byte	0x1
 10005 01ab 52       		.byte	0x52
 10006 01ac 00000000 		.4byte	0
 10007 01b0 00000000 		.4byte	0
 10008              	.LLST11:
 10009 01b4 30000000 		.4byte	.LVL26
 10010 01b8 32000000 		.4byte	.LVL27
 10011 01bc 0200     		.2byte	0x2
 10012 01be 73       		.byte	0x73
 10013 01bf 08       		.sleb128 8
 10014 01c0 32000000 		.4byte	.LVL27
 10015 01c4 4C000000 		.4byte	.LVL30
 10016 01c8 0100     		.2byte	0x1
 10017 01ca 51       		.byte	0x51
 10018 01cb 0E010000 		.4byte	.LVL50
 10019 01cf 12010000 		.4byte	.LVL51
 10020 01d3 0100     		.2byte	0x1
 10021 01d5 51       		.byte	0x51
 10022 01d6 12010000 		.4byte	.LVL51
 10023 01da 15010000 		.4byte	.LVL52-1
 10024 01de 0300     		.2byte	0x3
 10025 01e0 73       		.byte	0x73
 10026 01e1 03       		.sleb128 3
 10027 01e2 9F       		.byte	0x9f
 10028 01e3 00000000 		.4byte	0
 10029 01e7 00000000 		.4byte	0
 10030              	.LLST12:
 10031 01eb 3E000000 		.4byte	.LVL28
 10032 01ef 30010000 		.4byte	.LVL56
 10033 01f3 0100     		.2byte	0x1
 10034 01f5 57       		.byte	0x57
 10035 01f6 00000000 		.4byte	0
 10036 01fa 00000000 		.4byte	0
 10037              	.LLST13:
 10038 01fe 40000000 		.4byte	.LVL29
 10039 0202 30010000 		.4byte	.LVL56
 10040 0206 0100     		.2byte	0x1
 10041 0208 56       		.byte	0x56
 10042 0209 00000000 		.4byte	0
 10043 020d 00000000 		.4byte	0
 10044              	.LLST14:
 10045 0211 40000000 		.4byte	.LVL29
 10046 0215 4C000000 		.4byte	.LVL30
 10047 0219 0500     		.2byte	0x5
 10048 021b 71       		.byte	0x71
 10049 021c 00       		.sleb128 0
 10050 021d 33       		.byte	0x33
 10051 021e 29       		.byte	0x29
 10052 021f 9F       		.byte	0x9f
 10053 0220 0E010000 		.4byte	.LVL50
 10054 0224 12010000 		.4byte	.LVL51
 10055 0228 0500     		.2byte	0x5
 10056 022a 71       		.byte	0x71
 10057 022b 00       		.sleb128 0
ARM GAS  /tmp/ccKs28dn.s 			page 178


 10058 022c 33       		.byte	0x33
 10059 022d 29       		.byte	0x29
 10060 022e 9F       		.byte	0x9f
 10061 022f 12010000 		.4byte	.LVL51
 10062 0233 15010000 		.4byte	.LVL52-1
 10063 0237 0500     		.2byte	0x5
 10064 0239 73       		.byte	0x73
 10065 023a 00       		.sleb128 0
 10066 023b 30       		.byte	0x30
 10067 023c 29       		.byte	0x29
 10068 023d 9F       		.byte	0x9f
 10069 023e 00000000 		.4byte	0
 10070 0242 00000000 		.4byte	0
 10071              	.LLST15:
 10072 0246 00000000 		.4byte	.LFB12
 10073 024a 02000000 		.4byte	.LCFI3
 10074 024e 0200     		.2byte	0x2
 10075 0250 7D       		.byte	0x7d
 10076 0251 00       		.sleb128 0
 10077 0252 02000000 		.4byte	.LCFI3
 10078 0256 B8000000 		.4byte	.LFE12
 10079 025a 0200     		.2byte	0x2
 10080 025c 7D       		.byte	0x7d
 10081 025d 18       		.sleb128 24
 10082 025e 00000000 		.4byte	0
 10083 0262 00000000 		.4byte	0
 10084              	.LLST16:
 10085 0266 00000000 		.4byte	.LVL61
 10086 026a 0A000000 		.4byte	.LVL62
 10087 026e 0100     		.2byte	0x1
 10088 0270 50       		.byte	0x50
 10089 0271 0A000000 		.4byte	.LVL62
 10090 0275 AA000000 		.4byte	.LVL76
 10091 0279 0100     		.2byte	0x1
 10092 027b 54       		.byte	0x54
 10093 027c AA000000 		.4byte	.LVL76
 10094 0280 AD000000 		.4byte	.LVL77-1
 10095 0284 0100     		.2byte	0x1
 10096 0286 50       		.byte	0x50
 10097 0287 AD000000 		.4byte	.LVL77-1
 10098 028b B8000000 		.4byte	.LFE12
 10099 028f 0100     		.2byte	0x1
 10100 0291 54       		.byte	0x54
 10101 0292 00000000 		.4byte	0
 10102 0296 00000000 		.4byte	0
 10103              	.LLST17:
 10104 029a 00000000 		.4byte	.LVL61
 10105 029e 0A000000 		.4byte	.LVL62
 10106 02a2 0100     		.2byte	0x1
 10107 02a4 51       		.byte	0x51
 10108 02a5 0A000000 		.4byte	.LVL62
 10109 02a9 AA000000 		.4byte	.LVL76
 10110 02ad 0400     		.2byte	0x4
 10111 02af F3       		.byte	0xf3
 10112 02b0 01       		.uleb128 0x1
 10113 02b1 51       		.byte	0x51
 10114 02b2 9F       		.byte	0x9f
ARM GAS  /tmp/ccKs28dn.s 			page 179


 10115 02b3 AA000000 		.4byte	.LVL76
 10116 02b7 AD000000 		.4byte	.LVL77-1
 10117 02bb 0100     		.2byte	0x1
 10118 02bd 51       		.byte	0x51
 10119 02be AD000000 		.4byte	.LVL77-1
 10120 02c2 B8000000 		.4byte	.LFE12
 10121 02c6 0400     		.2byte	0x4
 10122 02c8 F3       		.byte	0xf3
 10123 02c9 01       		.uleb128 0x1
 10124 02ca 51       		.byte	0x51
 10125 02cb 9F       		.byte	0x9f
 10126 02cc 00000000 		.4byte	0
 10127 02d0 00000000 		.4byte	0
 10128              	.LLST19:
 10129 02d4 0E000000 		.4byte	.LVL63
 10130 02d8 1F000000 		.4byte	.LVL64-1
 10131 02dc 0200     		.2byte	0x2
 10132 02de 74       		.byte	0x74
 10133 02df 01       		.sleb128 1
 10134 02e0 1F000000 		.4byte	.LVL64-1
 10135 02e4 AA000000 		.4byte	.LVL76
 10136 02e8 0100     		.2byte	0x1
 10137 02ea 56       		.byte	0x56
 10138 02eb B0000000 		.4byte	.LVL78
 10139 02ef B8000000 		.4byte	.LFE12
 10140 02f3 0100     		.2byte	0x1
 10141 02f5 56       		.byte	0x56
 10142 02f6 00000000 		.4byte	0
 10143 02fa 00000000 		.4byte	0
 10144              	.LLST20:
 10145 02fe 70000000 		.4byte	.LVL70
 10146 0302 7A000000 		.4byte	.LVL71
 10147 0306 0C00     		.2byte	0xc
 10148 0308 73       		.byte	0x73
 10149 0309 00       		.sleb128 0
 10150 030a 34       		.byte	0x34
 10151 030b 1A       		.byte	0x1a
 10152 030c 48       		.byte	0x48
 10153 030d 24       		.byte	0x24
 10154 030e 30       		.byte	0x30
 10155 030f 2E       		.byte	0x2e
 10156 0310 08       		.byte	0x8
 10157 0311 FF       		.byte	0xff
 10158 0312 1A       		.byte	0x1a
 10159 0313 9F       		.byte	0x9f
 10160 0314 7A000000 		.4byte	.LVL71
 10161 0318 82000000 		.4byte	.LVL72
 10162 031c 0E00     		.2byte	0xe
 10163 031e 74       		.byte	0x74
 10164 031f 1C       		.sleb128 28
 10165 0320 94       		.byte	0x94
 10166 0321 01       		.byte	0x1
 10167 0322 34       		.byte	0x34
 10168 0323 1A       		.byte	0x1a
 10169 0324 48       		.byte	0x48
 10170 0325 24       		.byte	0x24
 10171 0326 30       		.byte	0x30
ARM GAS  /tmp/ccKs28dn.s 			page 180


 10172 0327 2E       		.byte	0x2e
 10173 0328 08       		.byte	0x8
 10174 0329 FF       		.byte	0xff
 10175 032a 1A       		.byte	0x1a
 10176 032b 9F       		.byte	0x9f
 10177 032c B0000000 		.4byte	.LVL78
 10178 0330 B3000000 		.4byte	.LVL79-1
 10179 0334 0E00     		.2byte	0xe
 10180 0336 74       		.byte	0x74
 10181 0337 1C       		.sleb128 28
 10182 0338 94       		.byte	0x94
 10183 0339 01       		.byte	0x1
 10184 033a 34       		.byte	0x34
 10185 033b 1A       		.byte	0x1a
 10186 033c 48       		.byte	0x48
 10187 033d 24       		.byte	0x24
 10188 033e 30       		.byte	0x30
 10189 033f 2E       		.byte	0x2e
 10190 0340 08       		.byte	0x8
 10191 0341 FF       		.byte	0xff
 10192 0342 1A       		.byte	0x1a
 10193 0343 9F       		.byte	0x9f
 10194 0344 00000000 		.4byte	0
 10195 0348 00000000 		.4byte	0
 10196              	.LLST21:
 10197 034c 00000000 		.4byte	.LFB9
 10198 0350 04000000 		.4byte	.LCFI4
 10199 0354 0200     		.2byte	0x2
 10200 0356 7D       		.byte	0x7d
 10201 0357 00       		.sleb128 0
 10202 0358 04000000 		.4byte	.LCFI4
 10203 035c 90000000 		.4byte	.LFE9
 10204 0360 0200     		.2byte	0x2
 10205 0362 7D       		.byte	0x7d
 10206 0363 20       		.sleb128 32
 10207 0364 00000000 		.4byte	0
 10208 0368 00000000 		.4byte	0
 10209              	.LLST22:
 10210 036c 00000000 		.4byte	.LVL80
 10211 0370 10000000 		.4byte	.LVL81
 10212 0374 0100     		.2byte	0x1
 10213 0376 50       		.byte	0x50
 10214 0377 10000000 		.4byte	.LVL81
 10215 037b 80000000 		.4byte	.LVL94
 10216 037f 0100     		.2byte	0x1
 10217 0381 54       		.byte	0x54
 10218 0382 80000000 		.4byte	.LVL94
 10219 0386 83000000 		.4byte	.LVL95-1
 10220 038a 0100     		.2byte	0x1
 10221 038c 50       		.byte	0x50
 10222 038d 83000000 		.4byte	.LVL95-1
 10223 0391 90000000 		.4byte	.LFE9
 10224 0395 0100     		.2byte	0x1
 10225 0397 54       		.byte	0x54
 10226 0398 00000000 		.4byte	0
 10227 039c 00000000 		.4byte	0
 10228              	.LLST23:
ARM GAS  /tmp/ccKs28dn.s 			page 181


 10229 03a0 00000000 		.4byte	.LVL80
 10230 03a4 10000000 		.4byte	.LVL81
 10231 03a8 0100     		.2byte	0x1
 10232 03aa 51       		.byte	0x51
 10233 03ab 10000000 		.4byte	.LVL81
 10234 03af 3E000000 		.4byte	.LVL87
 10235 03b3 0100     		.2byte	0x1
 10236 03b5 56       		.byte	0x56
 10237 03b6 3E000000 		.4byte	.LVL87
 10238 03ba 4C000000 		.4byte	.LVL88
 10239 03be 0400     		.2byte	0x4
 10240 03c0 F3       		.byte	0xf3
 10241 03c1 01       		.uleb128 0x1
 10242 03c2 51       		.byte	0x51
 10243 03c3 9F       		.byte	0x9f
 10244 03c4 4C000000 		.4byte	.LVL88
 10245 03c8 5A000000 		.4byte	.LVL89
 10246 03cc 0100     		.2byte	0x1
 10247 03ce 56       		.byte	0x56
 10248 03cf 5A000000 		.4byte	.LVL89
 10249 03d3 80000000 		.4byte	.LVL94
 10250 03d7 0400     		.2byte	0x4
 10251 03d9 F3       		.byte	0xf3
 10252 03da 01       		.uleb128 0x1
 10253 03db 51       		.byte	0x51
 10254 03dc 9F       		.byte	0x9f
 10255 03dd 80000000 		.4byte	.LVL94
 10256 03e1 83000000 		.4byte	.LVL95-1
 10257 03e5 0100     		.2byte	0x1
 10258 03e7 51       		.byte	0x51
 10259 03e8 83000000 		.4byte	.LVL95-1
 10260 03ec 8C000000 		.4byte	.LVL97
 10261 03f0 0100     		.2byte	0x1
 10262 03f2 56       		.byte	0x56
 10263 03f3 8C000000 		.4byte	.LVL97
 10264 03f7 90000000 		.4byte	.LFE9
 10265 03fb 0400     		.2byte	0x4
 10266 03fd F3       		.byte	0xf3
 10267 03fe 01       		.uleb128 0x1
 10268 03ff 51       		.byte	0x51
 10269 0400 9F       		.byte	0x9f
 10270 0401 00000000 		.4byte	0
 10271 0405 00000000 		.4byte	0
 10272              	.LLST24:
 10273 0409 00000000 		.4byte	.LVL80
 10274 040d 10000000 		.4byte	.LVL81
 10275 0411 0100     		.2byte	0x1
 10276 0413 52       		.byte	0x52
 10277 0414 10000000 		.4byte	.LVL81
 10278 0418 3E000000 		.4byte	.LVL87
 10279 041c 0100     		.2byte	0x1
 10280 041e 55       		.byte	0x55
 10281 041f 3E000000 		.4byte	.LVL87
 10282 0423 4C000000 		.4byte	.LVL88
 10283 0427 0400     		.2byte	0x4
 10284 0429 F3       		.byte	0xf3
 10285 042a 01       		.uleb128 0x1
ARM GAS  /tmp/ccKs28dn.s 			page 182


 10286 042b 52       		.byte	0x52
 10287 042c 9F       		.byte	0x9f
 10288 042d 4C000000 		.4byte	.LVL88
 10289 0431 68000000 		.4byte	.LVL92
 10290 0435 0100     		.2byte	0x1
 10291 0437 55       		.byte	0x55
 10292 0438 68000000 		.4byte	.LVL92
 10293 043c 80000000 		.4byte	.LVL94
 10294 0440 0400     		.2byte	0x4
 10295 0442 F3       		.byte	0xf3
 10296 0443 01       		.uleb128 0x1
 10297 0444 52       		.byte	0x52
 10298 0445 9F       		.byte	0x9f
 10299 0446 80000000 		.4byte	.LVL94
 10300 044a 83000000 		.4byte	.LVL95-1
 10301 044e 0100     		.2byte	0x1
 10302 0450 52       		.byte	0x52
 10303 0451 83000000 		.4byte	.LVL95-1
 10304 0455 8C000000 		.4byte	.LVL97
 10305 0459 0100     		.2byte	0x1
 10306 045b 55       		.byte	0x55
 10307 045c 8C000000 		.4byte	.LVL97
 10308 0460 90000000 		.4byte	.LFE9
 10309 0464 0400     		.2byte	0x4
 10310 0466 F3       		.byte	0xf3
 10311 0467 01       		.uleb128 0x1
 10312 0468 52       		.byte	0x52
 10313 0469 9F       		.byte	0x9f
 10314 046a 00000000 		.4byte	0
 10315 046e 00000000 		.4byte	0
 10316              	.LLST25:
 10317 0472 00000000 		.4byte	.LVL80
 10318 0476 10000000 		.4byte	.LVL81
 10319 047a 0100     		.2byte	0x1
 10320 047c 53       		.byte	0x53
 10321 047d 10000000 		.4byte	.LVL81
 10322 0481 80000000 		.4byte	.LVL94
 10323 0485 0400     		.2byte	0x4
 10324 0487 F3       		.byte	0xf3
 10325 0488 01       		.uleb128 0x1
 10326 0489 53       		.byte	0x53
 10327 048a 9F       		.byte	0x9f
 10328 048b 80000000 		.4byte	.LVL94
 10329 048f 83000000 		.4byte	.LVL95-1
 10330 0493 0100     		.2byte	0x1
 10331 0495 53       		.byte	0x53
 10332 0496 83000000 		.4byte	.LVL95-1
 10333 049a 90000000 		.4byte	.LFE9
 10334 049e 0400     		.2byte	0x4
 10335 04a0 F3       		.byte	0xf3
 10336 04a1 01       		.uleb128 0x1
 10337 04a2 53       		.byte	0x53
 10338 04a3 9F       		.byte	0x9f
 10339 04a4 00000000 		.4byte	0
 10340 04a8 00000000 		.4byte	0
 10341              	.LLST26:
 10342 04ac 14000000 		.4byte	.LVL82
ARM GAS  /tmp/ccKs28dn.s 			page 183


 10343 04b0 80000000 		.4byte	.LVL94
 10344 04b4 0100     		.2byte	0x1
 10345 04b6 54       		.byte	0x54
 10346 04b7 8C000000 		.4byte	.LVL97
 10347 04bb 90000000 		.4byte	.LFE9
 10348 04bf 0100     		.2byte	0x1
 10349 04c1 54       		.byte	0x54
 10350 04c2 00000000 		.4byte	0
 10351 04c6 00000000 		.4byte	0
 10352              	.LLST27:
 10353 04ca 5E000000 		.4byte	.LVL90
 10354 04ce 80000000 		.4byte	.LVL94
 10355 04d2 0100     		.2byte	0x1
 10356 04d4 56       		.byte	0x56
 10357 04d5 8C000000 		.4byte	.LVL97
 10358 04d9 90000000 		.4byte	.LFE9
 10359 04dd 0100     		.2byte	0x1
 10360 04df 56       		.byte	0x56
 10361 04e0 00000000 		.4byte	0
 10362 04e4 00000000 		.4byte	0
 10363              	.LLST28:
 10364 04e8 00000000 		.4byte	.LFB29
 10365 04ec 04000000 		.4byte	.LCFI5
 10366 04f0 0200     		.2byte	0x2
 10367 04f2 7D       		.byte	0x7d
 10368 04f3 00       		.sleb128 0
 10369 04f4 04000000 		.4byte	.LCFI5
 10370 04f8 46010000 		.4byte	.LFE29
 10371 04fc 0200     		.2byte	0x2
 10372 04fe 7D       		.byte	0x7d
 10373 04ff 20       		.sleb128 32
 10374 0500 00000000 		.4byte	0
 10375 0504 00000000 		.4byte	0
 10376              	.LLST29:
 10377 0508 00000000 		.4byte	.LVL98
 10378 050c 25000000 		.4byte	.LVL100-1
 10379 0510 0100     		.2byte	0x1
 10380 0512 50       		.byte	0x50
 10381 0513 25000000 		.4byte	.LVL100-1
 10382 0517 AA000000 		.4byte	.LVL112
 10383 051b 0100     		.2byte	0x1
 10384 051d 54       		.byte	0x54
 10385 051e AA000000 		.4byte	.LVL112
 10386 0522 B6000000 		.4byte	.LVL113
 10387 0526 0100     		.2byte	0x1
 10388 0528 50       		.byte	0x50
 10389 0529 B6000000 		.4byte	.LVL113
 10390 052d 46010000 		.4byte	.LFE29
 10391 0531 0100     		.2byte	0x1
 10392 0533 54       		.byte	0x54
 10393 0534 00000000 		.4byte	0
 10394 0538 00000000 		.4byte	0
 10395              	.LLST30:
 10396 053c 00000000 		.4byte	.LVL98
 10397 0540 88000000 		.4byte	.LVL108
 10398 0544 0200     		.2byte	0x2
 10399 0546 30       		.byte	0x30
ARM GAS  /tmp/ccKs28dn.s 			page 184


 10400 0547 9F       		.byte	0x9f
 10401 0548 88000000 		.4byte	.LVL108
 10402 054c 8A000000 		.4byte	.LVL109
 10403 0550 0100     		.2byte	0x1
 10404 0552 50       		.byte	0x50
 10405 0553 8A000000 		.4byte	.LVL109
 10406 0557 90000000 		.4byte	.LVL110
 10407 055b 0100     		.2byte	0x1
 10408 055d 56       		.byte	0x56
 10409 055e 90000000 		.4byte	.LVL110
 10410 0562 AA000000 		.4byte	.LVL112
 10411 0566 0300     		.2byte	0x3
 10412 0568 09       		.byte	0x9
 10413 0569 F9       		.byte	0xf9
 10414 056a 9F       		.byte	0x9f
 10415 056b AA000000 		.4byte	.LVL112
 10416 056f B6000000 		.4byte	.LVL113
 10417 0573 0200     		.2byte	0x2
 10418 0575 30       		.byte	0x30
 10419 0576 9F       		.byte	0x9f
 10420 0577 B6000000 		.4byte	.LVL113
 10421 057b C0000000 		.4byte	.LVL114
 10422 057f 0100     		.2byte	0x1
 10423 0581 56       		.byte	0x56
 10424 0582 D8000000 		.4byte	.LVL116
 10425 0586 EA000000 		.4byte	.LVL121
 10426 058a 0200     		.2byte	0x2
 10427 058c 30       		.byte	0x30
 10428 058d 9F       		.byte	0x9f
 10429 058e EA000000 		.4byte	.LVL121
 10430 0592 F0000000 		.4byte	.LVL122
 10431 0596 0100     		.2byte	0x1
 10432 0598 56       		.byte	0x56
 10433 0599 F0000000 		.4byte	.LVL122
 10434 059d F6000000 		.4byte	.LVL123
 10435 05a1 0200     		.2byte	0x2
 10436 05a3 30       		.byte	0x30
 10437 05a4 9F       		.byte	0x9f
 10438 05a5 F6000000 		.4byte	.LVL123
 10439 05a9 20010000 		.4byte	.LVL126
 10440 05ad 0100     		.2byte	0x1
 10441 05af 56       		.byte	0x56
 10442 05b0 20010000 		.4byte	.LVL126
 10443 05b4 28010000 		.4byte	.LVL129
 10444 05b8 0200     		.2byte	0x2
 10445 05ba 30       		.byte	0x30
 10446 05bb 9F       		.byte	0x9f
 10447 05bc 28010000 		.4byte	.LVL129
 10448 05c0 38010000 		.4byte	.LVL131
 10449 05c4 0100     		.2byte	0x1
 10450 05c6 56       		.byte	0x56
 10451 05c7 38010000 		.4byte	.LVL131
 10452 05cb 46010000 		.4byte	.LFE29
 10453 05cf 0200     		.2byte	0x2
 10454 05d1 30       		.byte	0x30
 10455 05d2 9F       		.byte	0x9f
 10456 05d3 00000000 		.4byte	0
ARM GAS  /tmp/ccKs28dn.s 			page 185


 10457 05d7 00000000 		.4byte	0
 10458              	.LLST31:
 10459 05db 50000000 		.4byte	.LVL101
 10460 05df 88000000 		.4byte	.LVL108
 10461 05e3 0600     		.2byte	0x6
 10462 05e5 7A       		.byte	0x7a
 10463 05e6 00       		.sleb128 0
 10464 05e7 76       		.byte	0x76
 10465 05e8 00       		.sleb128 0
 10466 05e9 22       		.byte	0x22
 10467 05ea 9F       		.byte	0x9f
 10468 05eb D8000000 		.4byte	.LVL116
 10469 05ef DC000000 		.4byte	.LVL118
 10470 05f3 0600     		.2byte	0x6
 10471 05f5 7A       		.byte	0x7a
 10472 05f6 00       		.sleb128 0
 10473 05f7 76       		.byte	0x76
 10474 05f8 00       		.sleb128 0
 10475 05f9 22       		.byte	0x22
 10476 05fa 9F       		.byte	0x9f
 10477 05fb 38010000 		.4byte	.LVL131
 10478 05ff 40010000 		.4byte	.LVL133
 10479 0603 0600     		.2byte	0x6
 10480 0605 7A       		.byte	0x7a
 10481 0606 00       		.sleb128 0
 10482 0607 76       		.byte	0x76
 10483 0608 00       		.sleb128 0
 10484 0609 22       		.byte	0x22
 10485 060a 9F       		.byte	0x9f
 10486 060b 00000000 		.4byte	0
 10487 060f 00000000 		.4byte	0
 10488              	.LLST32:
 10489 0613 50000000 		.4byte	.LVL101
 10490 0617 5A000000 		.4byte	.LVL102
 10491 061b 0300     		.2byte	0x3
 10492 061d 09       		.byte	0x9
 10493 061e FF       		.byte	0xff
 10494 061f 9F       		.byte	0x9f
 10495 0620 5A000000 		.4byte	.LVL102
 10496 0624 64000000 		.4byte	.LVL104
 10497 0628 0300     		.2byte	0x3
 10498 062a 70       		.byte	0x70
 10499 062b EE00     		.sleb128 110
 10500 062d 64000000 		.4byte	.LVL104
 10501 0631 AA000000 		.4byte	.LVL112
 10502 0635 0100     		.2byte	0x1
 10503 0637 55       		.byte	0x55
 10504 0638 B6000000 		.4byte	.LVL113
 10505 063c C0000000 		.4byte	.LVL114
 10506 0640 0100     		.2byte	0x1
 10507 0642 55       		.byte	0x55
 10508 0643 D8000000 		.4byte	.LVL116
 10509 0647 DE000000 		.4byte	.LVL119
 10510 064b 0100     		.2byte	0x1
 10511 064d 55       		.byte	0x55
 10512 064e F6000000 		.4byte	.LVL123
 10513 0652 10010000 		.4byte	.LVL124
ARM GAS  /tmp/ccKs28dn.s 			page 186


 10514 0656 0100     		.2byte	0x1
 10515 0658 55       		.byte	0x55
 10516 0659 28010000 		.4byte	.LVL129
 10517 065d 40010000 		.4byte	.LVL133
 10518 0661 0100     		.2byte	0x1
 10519 0663 55       		.byte	0x55
 10520 0664 00000000 		.4byte	0
 10521 0668 00000000 		.4byte	0
 10522              	.LLST33:
 10523 066c 5A000000 		.4byte	.LVL102
 10524 0670 74000000 		.4byte	.LVL105
 10525 0674 0300     		.2byte	0x3
 10526 0676 70       		.byte	0x70
 10527 0677 EE00     		.sleb128 110
 10528 0679 D8000000 		.4byte	.LVL116
 10529 067d DE000000 		.4byte	.LVL119
 10530 0681 0300     		.2byte	0x3
 10531 0683 70       		.byte	0x70
 10532 0684 EE00     		.sleb128 110
 10533 0686 38010000 		.4byte	.LVL131
 10534 068a 3B010000 		.4byte	.LVL132-1
 10535 068e 0300     		.2byte	0x3
 10536 0690 70       		.byte	0x70
 10537 0691 EE00     		.sleb128 110
 10538 0693 00000000 		.4byte	0
 10539 0697 00000000 		.4byte	0
 10540              	.LLST34:
 10541 069b 00000000 		.4byte	.LVL98
 10542 069f 90000000 		.4byte	.LVL110
 10543 06a3 0200     		.2byte	0x2
 10544 06a5 30       		.byte	0x30
 10545 06a6 9F       		.byte	0x9f
 10546 06a7 90000000 		.4byte	.LVL110
 10547 06ab AA000000 		.4byte	.LVL112
 10548 06af 0200     		.2byte	0x2
 10549 06b1 31       		.byte	0x31
 10550 06b2 9F       		.byte	0x9f
 10551 06b3 AA000000 		.4byte	.LVL112
 10552 06b7 C0000000 		.4byte	.LVL114
 10553 06bb 0200     		.2byte	0x2
 10554 06bd 30       		.byte	0x30
 10555 06be 9F       		.byte	0x9f
 10556 06bf D8000000 		.4byte	.LVL116
 10557 06c3 18010000 		.4byte	.LVL125
 10558 06c7 0200     		.2byte	0x2
 10559 06c9 30       		.byte	0x30
 10560 06ca 9F       		.byte	0x9f
 10561 06cb 18010000 		.4byte	.LVL125
 10562 06cf 22010000 		.4byte	.LVL127
 10563 06d3 0200     		.2byte	0x2
 10564 06d5 31       		.byte	0x31
 10565 06d6 9F       		.byte	0x9f
 10566 06d7 22010000 		.4byte	.LVL127
 10567 06db 46010000 		.4byte	.LFE29
 10568 06df 0200     		.2byte	0x2
 10569 06e1 30       		.byte	0x30
 10570 06e2 9F       		.byte	0x9f
ARM GAS  /tmp/ccKs28dn.s 			page 187


 10571 06e3 00000000 		.4byte	0
 10572 06e7 00000000 		.4byte	0
 10573              	.LLST35:
 10574 06eb 1C000000 		.4byte	.LVL99
 10575 06ef AA000000 		.4byte	.LVL112
 10576 06f3 0100     		.2byte	0x1
 10577 06f5 59       		.byte	0x59
 10578 06f6 B6000000 		.4byte	.LVL113
 10579 06fa 46010000 		.4byte	.LFE29
 10580 06fe 0100     		.2byte	0x1
 10581 0700 59       		.byte	0x59
 10582 0701 00000000 		.4byte	0
 10583 0705 00000000 		.4byte	0
 10584              	.LLST36:
 10585 0709 1C000000 		.4byte	.LVL99
 10586 070d 86000000 		.4byte	.LVL107
 10587 0711 0100     		.2byte	0x1
 10588 0713 57       		.byte	0x57
 10589 0714 D8000000 		.4byte	.LVL116
 10590 0718 DA000000 		.4byte	.LVL117
 10591 071c 0100     		.2byte	0x1
 10592 071e 57       		.byte	0x57
 10593 071f DE000000 		.4byte	.LVL119
 10594 0723 EA000000 		.4byte	.LVL121
 10595 0727 0100     		.2byte	0x1
 10596 0729 57       		.byte	0x57
 10597 072a 22010000 		.4byte	.LVL127
 10598 072e 28010000 		.4byte	.LVL129
 10599 0732 0100     		.2byte	0x1
 10600 0734 57       		.byte	0x57
 10601 0735 38010000 		.4byte	.LVL131
 10602 0739 46010000 		.4byte	.LFE29
 10603 073d 0100     		.2byte	0x1
 10604 073f 57       		.byte	0x57
 10605 0740 00000000 		.4byte	0
 10606 0744 00000000 		.4byte	0
 10607              	.LLST37:
 10608 0748 00000000 		.4byte	.LFB10
 10609 074c 02000000 		.4byte	.LCFI6
 10610 0750 0200     		.2byte	0x2
 10611 0752 7D       		.byte	0x7d
 10612 0753 00       		.sleb128 0
 10613 0754 02000000 		.4byte	.LCFI6
 10614 0758 56000000 		.4byte	.LFE10
 10615 075c 0200     		.2byte	0x2
 10616 075e 7D       		.byte	0x7d
 10617 075f 10       		.sleb128 16
 10618 0760 00000000 		.4byte	0
 10619 0764 00000000 		.4byte	0
 10620              	.LLST38:
 10621 0768 00000000 		.4byte	.LVL135
 10622 076c 06000000 		.4byte	.LVL136
 10623 0770 0100     		.2byte	0x1
 10624 0772 50       		.byte	0x50
 10625 0773 06000000 		.4byte	.LVL136
 10626 0777 50000000 		.4byte	.LVL140
 10627 077b 0100     		.2byte	0x1
ARM GAS  /tmp/ccKs28dn.s 			page 188


 10628 077d 54       		.byte	0x54
 10629 077e 50000000 		.4byte	.LVL140
 10630 0782 53000000 		.4byte	.LVL141-1
 10631 0786 0100     		.2byte	0x1
 10632 0788 50       		.byte	0x50
 10633 0789 53000000 		.4byte	.LVL141-1
 10634 078d 56000000 		.4byte	.LFE10
 10635 0791 0100     		.2byte	0x1
 10636 0793 54       		.byte	0x54
 10637 0794 00000000 		.4byte	0
 10638 0798 00000000 		.4byte	0
 10639              	.LLST39:
 10640 079c 00000000 		.4byte	.LVL135
 10641 07a0 06000000 		.4byte	.LVL136
 10642 07a4 0100     		.2byte	0x1
 10643 07a6 51       		.byte	0x51
 10644 07a7 06000000 		.4byte	.LVL136
 10645 07ab 50000000 		.4byte	.LVL140
 10646 07af 0400     		.2byte	0x4
 10647 07b1 F3       		.byte	0xf3
 10648 07b2 01       		.uleb128 0x1
 10649 07b3 51       		.byte	0x51
 10650 07b4 9F       		.byte	0x9f
 10651 07b5 50000000 		.4byte	.LVL140
 10652 07b9 53000000 		.4byte	.LVL141-1
 10653 07bd 0100     		.2byte	0x1
 10654 07bf 51       		.byte	0x51
 10655 07c0 53000000 		.4byte	.LVL141-1
 10656 07c4 56000000 		.4byte	.LFE10
 10657 07c8 0400     		.2byte	0x4
 10658 07ca F3       		.byte	0xf3
 10659 07cb 01       		.uleb128 0x1
 10660 07cc 51       		.byte	0x51
 10661 07cd 9F       		.byte	0x9f
 10662 07ce 00000000 		.4byte	0
 10663 07d2 00000000 		.4byte	0
 10664              	.LLST41:
 10665 07d6 00000000 		.4byte	.LFB8
 10666 07da 04000000 		.4byte	.LCFI7
 10667 07de 0200     		.2byte	0x2
 10668 07e0 7D       		.byte	0x7d
 10669 07e1 00       		.sleb128 0
 10670 07e2 04000000 		.4byte	.LCFI7
 10671 07e6 06000000 		.4byte	.LCFI8
 10672 07ea 0200     		.2byte	0x2
 10673 07ec 7D       		.byte	0x7d
 10674 07ed 1C       		.sleb128 28
 10675 07ee 06000000 		.4byte	.LCFI8
 10676 07f2 9A000000 		.4byte	.LFE8
 10677 07f6 0200     		.2byte	0x2
 10678 07f8 7D       		.byte	0x7d
 10679 07f9 28       		.sleb128 40
 10680 07fa 00000000 		.4byte	0
 10681 07fe 00000000 		.4byte	0
 10682              	.LLST42:
 10683 0802 00000000 		.4byte	.LVL142
 10684 0806 14000000 		.4byte	.LVL143
ARM GAS  /tmp/ccKs28dn.s 			page 189


 10685 080a 0100     		.2byte	0x1
 10686 080c 50       		.byte	0x50
 10687 080d 14000000 		.4byte	.LVL143
 10688 0811 7A000000 		.4byte	.LVL155
 10689 0815 0100     		.2byte	0x1
 10690 0817 54       		.byte	0x54
 10691 0818 7A000000 		.4byte	.LVL155
 10692 081c 7F000000 		.4byte	.LVL156-1
 10693 0820 0100     		.2byte	0x1
 10694 0822 50       		.byte	0x50
 10695 0823 7F000000 		.4byte	.LVL156-1
 10696 0827 9A000000 		.4byte	.LFE8
 10697 082b 0100     		.2byte	0x1
 10698 082d 54       		.byte	0x54
 10699 082e 00000000 		.4byte	0
 10700 0832 00000000 		.4byte	0
 10701              	.LLST43:
 10702 0836 00000000 		.4byte	.LVL142
 10703 083a 14000000 		.4byte	.LVL143
 10704 083e 0100     		.2byte	0x1
 10705 0840 51       		.byte	0x51
 10706 0841 14000000 		.4byte	.LVL143
 10707 0845 7A000000 		.4byte	.LVL155
 10708 0849 0400     		.2byte	0x4
 10709 084b F3       		.byte	0xf3
 10710 084c 01       		.uleb128 0x1
 10711 084d 51       		.byte	0x51
 10712 084e 9F       		.byte	0x9f
 10713 084f 7A000000 		.4byte	.LVL155
 10714 0853 7F000000 		.4byte	.LVL156-1
 10715 0857 0100     		.2byte	0x1
 10716 0859 51       		.byte	0x51
 10717 085a 7F000000 		.4byte	.LVL156-1
 10718 085e 9A000000 		.4byte	.LFE8
 10719 0862 0400     		.2byte	0x4
 10720 0864 F3       		.byte	0xf3
 10721 0865 01       		.uleb128 0x1
 10722 0866 51       		.byte	0x51
 10723 0867 9F       		.byte	0x9f
 10724 0868 00000000 		.4byte	0
 10725 086c 00000000 		.4byte	0
 10726              	.LLST44:
 10727 0870 00000000 		.4byte	.LVL142
 10728 0874 14000000 		.4byte	.LVL143
 10729 0878 0100     		.2byte	0x1
 10730 087a 52       		.byte	0x52
 10731 087b 14000000 		.4byte	.LVL143
 10732 087f 62000000 		.4byte	.LVL152
 10733 0883 0100     		.2byte	0x1
 10734 0885 55       		.byte	0x55
 10735 0886 62000000 		.4byte	.LVL152
 10736 088a 65000000 		.4byte	.LVL153-1
 10737 088e 0200     		.2byte	0x2
 10738 0890 76       		.byte	0x76
 10739 0891 00       		.sleb128 0
 10740 0892 65000000 		.4byte	.LVL153-1
 10741 0896 7A000000 		.4byte	.LVL155
ARM GAS  /tmp/ccKs28dn.s 			page 190


 10742 089a 0400     		.2byte	0x4
 10743 089c F3       		.byte	0xf3
 10744 089d 01       		.uleb128 0x1
 10745 089e 52       		.byte	0x52
 10746 089f 9F       		.byte	0x9f
 10747 08a0 7A000000 		.4byte	.LVL155
 10748 08a4 7F000000 		.4byte	.LVL156-1
 10749 08a8 0100     		.2byte	0x1
 10750 08aa 52       		.byte	0x52
 10751 08ab 7F000000 		.4byte	.LVL156-1
 10752 08af 84000000 		.4byte	.LVL157
 10753 08b3 0100     		.2byte	0x1
 10754 08b5 55       		.byte	0x55
 10755 08b6 84000000 		.4byte	.LVL157
 10756 08ba 90000000 		.4byte	.LVL158
 10757 08be 0400     		.2byte	0x4
 10758 08c0 F3       		.byte	0xf3
 10759 08c1 01       		.uleb128 0x1
 10760 08c2 52       		.byte	0x52
 10761 08c3 9F       		.byte	0x9f
 10762 08c4 90000000 		.4byte	.LVL158
 10763 08c8 9A000000 		.4byte	.LFE8
 10764 08cc 0100     		.2byte	0x1
 10765 08ce 55       		.byte	0x55
 10766 08cf 00000000 		.4byte	0
 10767 08d3 00000000 		.4byte	0
 10768              	.LLST45:
 10769 08d7 00000000 		.4byte	.LVL142
 10770 08db 14000000 		.4byte	.LVL143
 10771 08df 0100     		.2byte	0x1
 10772 08e1 53       		.byte	0x53
 10773 08e2 14000000 		.4byte	.LVL143
 10774 08e6 52000000 		.4byte	.LVL149
 10775 08ea 0100     		.2byte	0x1
 10776 08ec 58       		.byte	0x58
 10777 08ed 52000000 		.4byte	.LVL149
 10778 08f1 56000000 		.4byte	.LVL150
 10779 08f5 0100     		.2byte	0x1
 10780 08f7 53       		.byte	0x53
 10781 08f8 56000000 		.4byte	.LVL150
 10782 08fc 7A000000 		.4byte	.LVL155
 10783 0900 0100     		.2byte	0x1
 10784 0902 58       		.byte	0x58
 10785 0903 7A000000 		.4byte	.LVL155
 10786 0907 7F000000 		.4byte	.LVL156-1
 10787 090b 0100     		.2byte	0x1
 10788 090d 53       		.byte	0x53
 10789 090e 7F000000 		.4byte	.LVL156-1
 10790 0912 9A000000 		.4byte	.LFE8
 10791 0916 0100     		.2byte	0x1
 10792 0918 58       		.byte	0x58
 10793 0919 00000000 		.4byte	0
 10794 091d 00000000 		.4byte	0
 10795              	.LLST46:
 10796 0921 40000000 		.4byte	.LVL148
 10797 0925 60000000 		.4byte	.LVL151
 10798 0929 0100     		.2byte	0x1
ARM GAS  /tmp/ccKs28dn.s 			page 191


 10799 092b 50       		.byte	0x50
 10800 092c 60000000 		.4byte	.LVL151
 10801 0930 7A000000 		.4byte	.LVL155
 10802 0934 0100     		.2byte	0x1
 10803 0936 56       		.byte	0x56
 10804 0937 84000000 		.4byte	.LVL157
 10805 093b 90000000 		.4byte	.LVL158
 10806 093f 0100     		.2byte	0x1
 10807 0941 56       		.byte	0x56
 10808 0942 00000000 		.4byte	0
 10809 0946 00000000 		.4byte	0
 10810              	.LLST47:
 10811 094a 18000000 		.4byte	.LVL144
 10812 094e 7A000000 		.4byte	.LVL155
 10813 0952 0100     		.2byte	0x1
 10814 0954 54       		.byte	0x54
 10815 0955 84000000 		.4byte	.LVL157
 10816 0959 90000000 		.4byte	.LVL158
 10817 095d 0100     		.2byte	0x1
 10818 095f 54       		.byte	0x54
 10819 0960 00000000 		.4byte	0
 10820 0964 00000000 		.4byte	0
 10821              	.LLST48:
 10822 0968 62000000 		.4byte	.LVL152
 10823 096c 65000000 		.4byte	.LVL153-1
 10824 0970 0500     		.2byte	0x5
 10825 0972 76       		.byte	0x76
 10826 0973 00       		.sleb128 0
 10827 0974 06       		.byte	0x6
 10828 0975 23       		.byte	0x23
 10829 0976 08       		.uleb128 0x8
 10830 0977 65000000 		.4byte	.LVL153-1
 10831 097b 7A000000 		.4byte	.LVL155
 10832 097f 0100     		.2byte	0x1
 10833 0981 55       		.byte	0x55
 10834 0982 84000000 		.4byte	.LVL157
 10835 0986 90000000 		.4byte	.LVL158
 10836 098a 0100     		.2byte	0x1
 10837 098c 55       		.byte	0x55
 10838 098d 00000000 		.4byte	0
 10839 0991 00000000 		.4byte	0
 10840              	.LLST49:
 10841 0995 00000000 		.4byte	.LFB7
 10842 0999 04000000 		.4byte	.LCFI9
 10843 099d 0200     		.2byte	0x2
 10844 099f 7D       		.byte	0x7d
 10845 09a0 00       		.sleb128 0
 10846 09a1 04000000 		.4byte	.LCFI9
 10847 09a5 88000000 		.4byte	.LFE7
 10848 09a9 0200     		.2byte	0x2
 10849 09ab 7D       		.byte	0x7d
 10850 09ac 18       		.sleb128 24
 10851 09ad 00000000 		.4byte	0
 10852 09b1 00000000 		.4byte	0
 10853              	.LLST50:
 10854 09b5 00000000 		.4byte	.LVL160
 10855 09b9 12000000 		.4byte	.LVL161
ARM GAS  /tmp/ccKs28dn.s 			page 192


 10856 09bd 0100     		.2byte	0x1
 10857 09bf 50       		.byte	0x50
 10858 09c0 12000000 		.4byte	.LVL161
 10859 09c4 88000000 		.4byte	.LFE7
 10860 09c8 0100     		.2byte	0x1
 10861 09ca 54       		.byte	0x54
 10862 09cb 00000000 		.4byte	0
 10863 09cf 00000000 		.4byte	0
 10864              	.LLST51:
 10865 09d3 00000000 		.4byte	.LVL160
 10866 09d7 15000000 		.4byte	.LVL162-1
 10867 09db 0100     		.2byte	0x1
 10868 09dd 51       		.byte	0x51
 10869 09de 15000000 		.4byte	.LVL162-1
 10870 09e2 18000000 		.4byte	.LVL163
 10871 09e6 0100     		.2byte	0x1
 10872 09e8 57       		.byte	0x57
 10873 09e9 18000000 		.4byte	.LVL163
 10874 09ed 1E000000 		.4byte	.LVL164
 10875 09f1 0400     		.2byte	0x4
 10876 09f3 F3       		.byte	0xf3
 10877 09f4 01       		.uleb128 0x1
 10878 09f5 51       		.byte	0x51
 10879 09f6 9F       		.byte	0x9f
 10880 09f7 1E000000 		.4byte	.LVL164
 10881 09fb 54000000 		.4byte	.LVL169
 10882 09ff 0100     		.2byte	0x1
 10883 0a01 57       		.byte	0x57
 10884 0a02 54000000 		.4byte	.LVL169
 10885 0a06 74000000 		.4byte	.LVL173
 10886 0a0a 0400     		.2byte	0x4
 10887 0a0c F3       		.byte	0xf3
 10888 0a0d 01       		.uleb128 0x1
 10889 0a0e 51       		.byte	0x51
 10890 0a0f 9F       		.byte	0x9f
 10891 0a10 74000000 		.4byte	.LVL173
 10892 0a14 7C000000 		.4byte	.LVL175
 10893 0a18 0100     		.2byte	0x1
 10894 0a1a 57       		.byte	0x57
 10895 0a1b 7C000000 		.4byte	.LVL175
 10896 0a1f 88000000 		.4byte	.LFE7
 10897 0a23 0400     		.2byte	0x4
 10898 0a25 F3       		.byte	0xf3
 10899 0a26 01       		.uleb128 0x1
 10900 0a27 51       		.byte	0x51
 10901 0a28 9F       		.byte	0x9f
 10902 0a29 00000000 		.4byte	0
 10903 0a2d 00000000 		.4byte	0
 10904              	.LLST52:
 10905 0a31 00000000 		.4byte	.LVL160
 10906 0a35 15000000 		.4byte	.LVL162-1
 10907 0a39 0100     		.2byte	0x1
 10908 0a3b 52       		.byte	0x52
 10909 0a3c 15000000 		.4byte	.LVL162-1
 10910 0a40 18000000 		.4byte	.LVL163
 10911 0a44 0100     		.2byte	0x1
 10912 0a46 56       		.byte	0x56
ARM GAS  /tmp/ccKs28dn.s 			page 193


 10913 0a47 18000000 		.4byte	.LVL163
 10914 0a4b 1E000000 		.4byte	.LVL164
 10915 0a4f 0400     		.2byte	0x4
 10916 0a51 F3       		.byte	0xf3
 10917 0a52 01       		.uleb128 0x1
 10918 0a53 52       		.byte	0x52
 10919 0a54 9F       		.byte	0x9f
 10920 0a55 1E000000 		.4byte	.LVL164
 10921 0a59 3E000000 		.4byte	.LVL168
 10922 0a5d 0100     		.2byte	0x1
 10923 0a5f 56       		.byte	0x56
 10924 0a60 3E000000 		.4byte	.LVL168
 10925 0a64 88000000 		.4byte	.LFE7
 10926 0a68 0400     		.2byte	0x4
 10927 0a6a F3       		.byte	0xf3
 10928 0a6b 01       		.uleb128 0x1
 10929 0a6c 52       		.byte	0x52
 10930 0a6d 9F       		.byte	0x9f
 10931 0a6e 00000000 		.4byte	0
 10932 0a72 00000000 		.4byte	0
 10933              	.LLST53:
 10934 0a76 00000000 		.4byte	.LVL160
 10935 0a7a 15000000 		.4byte	.LVL162-1
 10936 0a7e 0100     		.2byte	0x1
 10937 0a80 53       		.byte	0x53
 10938 0a81 15000000 		.4byte	.LVL162-1
 10939 0a85 88000000 		.4byte	.LFE7
 10940 0a89 0400     		.2byte	0x4
 10941 0a8b F3       		.byte	0xf3
 10942 0a8c 01       		.uleb128 0x1
 10943 0a8d 53       		.byte	0x53
 10944 0a8e 9F       		.byte	0x9f
 10945 0a8f 00000000 		.4byte	0
 10946 0a93 00000000 		.4byte	0
 10947              	.LLST54:
 10948 0a97 28000000 		.4byte	.LVL165
 10949 0a9b 33000000 		.4byte	.LVL166-1
 10950 0a9f 0100     		.2byte	0x1
 10951 0aa1 50       		.byte	0x50
 10952 0aa2 33000000 		.4byte	.LVL166-1
 10953 0aa6 88000000 		.4byte	.LFE7
 10954 0aaa 0100     		.2byte	0x1
 10955 0aac 58       		.byte	0x58
 10956 0aad 00000000 		.4byte	0
 10957 0ab1 00000000 		.4byte	0
 10958              	.LLST55:
 10959 0ab5 3C000000 		.4byte	.LVL167
 10960 0ab9 5A000000 		.4byte	.LVL170
 10961 0abd 0100     		.2byte	0x1
 10962 0abf 50       		.byte	0x50
 10963 0ac0 5A000000 		.4byte	.LVL170
 10964 0ac4 5D000000 		.4byte	.LVL171-1
 10965 0ac8 0100     		.2byte	0x1
 10966 0aca 51       		.byte	0x51
 10967 0acb 5D000000 		.4byte	.LVL171-1
 10968 0acf 74000000 		.4byte	.LVL173
 10969 0ad3 0100     		.2byte	0x1
ARM GAS  /tmp/ccKs28dn.s 			page 194


 10970 0ad5 56       		.byte	0x56
 10971 0ad6 7C000000 		.4byte	.LVL175
 10972 0ada 88000000 		.4byte	.LFE7
 10973 0ade 0100     		.2byte	0x1
 10974 0ae0 56       		.byte	0x56
 10975 0ae1 00000000 		.4byte	0
 10976 0ae5 00000000 		.4byte	0
 10977              	.LLST57:
 10978 0ae9 54000000 		.4byte	.LVL169
 10979 0aed 5D000000 		.4byte	.LVL171-1
 10980 0af1 0200     		.2byte	0x2
 10981 0af3 78       		.byte	0x78
 10982 0af4 08       		.sleb128 8
 10983 0af5 5D000000 		.4byte	.LVL171-1
 10984 0af9 74000000 		.4byte	.LVL173
 10985 0afd 0100     		.2byte	0x1
 10986 0aff 57       		.byte	0x57
 10987 0b00 7C000000 		.4byte	.LVL175
 10988 0b04 88000000 		.4byte	.LFE7
 10989 0b08 0100     		.2byte	0x1
 10990 0b0a 57       		.byte	0x57
 10991 0b0b 00000000 		.4byte	0
 10992 0b0f 00000000 		.4byte	0
 10993              	.LLST58:
 10994 0b13 00000000 		.4byte	.LFB11
 10995 0b17 02000000 		.4byte	.LCFI10
 10996 0b1b 0200     		.2byte	0x2
 10997 0b1d 7D       		.byte	0x7d
 10998 0b1e 00       		.sleb128 0
 10999 0b1f 02000000 		.4byte	.LCFI10
 11000 0b23 52000000 		.4byte	.LFE11
 11001 0b27 0200     		.2byte	0x2
 11002 0b29 7D       		.byte	0x7d
 11003 0b2a 10       		.sleb128 16
 11004 0b2b 00000000 		.4byte	0
 11005 0b2f 00000000 		.4byte	0
 11006              	.LLST59:
 11007 0b33 00000000 		.4byte	.LVL177
 11008 0b37 08000000 		.4byte	.LVL178
 11009 0b3b 0100     		.2byte	0x1
 11010 0b3d 50       		.byte	0x50
 11011 0b3e 08000000 		.4byte	.LVL178
 11012 0b42 4C000000 		.4byte	.LVL183
 11013 0b46 0100     		.2byte	0x1
 11014 0b48 54       		.byte	0x54
 11015 0b49 4C000000 		.4byte	.LVL183
 11016 0b4d 4F000000 		.4byte	.LVL184-1
 11017 0b51 0100     		.2byte	0x1
 11018 0b53 50       		.byte	0x50
 11019 0b54 4F000000 		.4byte	.LVL184-1
 11020 0b58 52000000 		.4byte	.LFE11
 11021 0b5c 0100     		.2byte	0x1
 11022 0b5e 54       		.byte	0x54
 11023 0b5f 00000000 		.4byte	0
 11024 0b63 00000000 		.4byte	0
 11025              	.LLST60:
 11026 0b67 00000000 		.4byte	.LVL177
ARM GAS  /tmp/ccKs28dn.s 			page 195


 11027 0b6b 08000000 		.4byte	.LVL178
 11028 0b6f 0100     		.2byte	0x1
 11029 0b71 51       		.byte	0x51
 11030 0b72 08000000 		.4byte	.LVL178
 11031 0b76 4C000000 		.4byte	.LVL183
 11032 0b7a 0400     		.2byte	0x4
 11033 0b7c F3       		.byte	0xf3
 11034 0b7d 01       		.uleb128 0x1
 11035 0b7e 51       		.byte	0x51
 11036 0b7f 9F       		.byte	0x9f
 11037 0b80 4C000000 		.4byte	.LVL183
 11038 0b84 4F000000 		.4byte	.LVL184-1
 11039 0b88 0100     		.2byte	0x1
 11040 0b8a 51       		.byte	0x51
 11041 0b8b 4F000000 		.4byte	.LVL184-1
 11042 0b8f 52000000 		.4byte	.LFE11
 11043 0b93 0400     		.2byte	0x4
 11044 0b95 F3       		.byte	0xf3
 11045 0b96 01       		.uleb128 0x1
 11046 0b97 51       		.byte	0x51
 11047 0b98 9F       		.byte	0x9f
 11048 0b99 00000000 		.4byte	0
 11049 0b9d 00000000 		.4byte	0
 11050              	.LLST61:
 11051 0ba1 00000000 		.4byte	.LVL177
 11052 0ba5 08000000 		.4byte	.LVL178
 11053 0ba9 0100     		.2byte	0x1
 11054 0bab 52       		.byte	0x52
 11055 0bac 08000000 		.4byte	.LVL178
 11056 0bb0 4C000000 		.4byte	.LVL183
 11057 0bb4 0400     		.2byte	0x4
 11058 0bb6 F3       		.byte	0xf3
 11059 0bb7 01       		.uleb128 0x1
 11060 0bb8 52       		.byte	0x52
 11061 0bb9 9F       		.byte	0x9f
 11062 0bba 4C000000 		.4byte	.LVL183
 11063 0bbe 4F000000 		.4byte	.LVL184-1
 11064 0bc2 0100     		.2byte	0x1
 11065 0bc4 52       		.byte	0x52
 11066 0bc5 4F000000 		.4byte	.LVL184-1
 11067 0bc9 52000000 		.4byte	.LFE11
 11068 0bcd 0400     		.2byte	0x4
 11069 0bcf F3       		.byte	0xf3
 11070 0bd0 01       		.uleb128 0x1
 11071 0bd1 52       		.byte	0x52
 11072 0bd2 9F       		.byte	0x9f
 11073 0bd3 00000000 		.4byte	0
 11074 0bd7 00000000 		.4byte	0
 11075              	.LLST63:
 11076 0bdb 24000000 		.4byte	.LVL179
 11077 0bdf 38000000 		.4byte	.LVL180
 11078 0be3 0100     		.2byte	0x1
 11079 0be5 55       		.byte	0x55
 11080 0be6 00000000 		.4byte	0
 11081 0bea 00000000 		.4byte	0
 11082              	.LLST64:
 11083 0bee 24000000 		.4byte	.LVL179
ARM GAS  /tmp/ccKs28dn.s 			page 196


 11084 0bf2 38000000 		.4byte	.LVL180
 11085 0bf6 0100     		.2byte	0x1
 11086 0bf8 54       		.byte	0x54
 11087 0bf9 00000000 		.4byte	0
 11088 0bfd 00000000 		.4byte	0
 11089              	.LLST65:
 11090 0c01 00000000 		.4byte	.LFB16
 11091 0c05 02000000 		.4byte	.LCFI11
 11092 0c09 0200     		.2byte	0x2
 11093 0c0b 7D       		.byte	0x7d
 11094 0c0c 00       		.sleb128 0
 11095 0c0d 02000000 		.4byte	.LCFI11
 11096 0c11 98000000 		.4byte	.LFE16
 11097 0c15 0200     		.2byte	0x2
 11098 0c17 7D       		.byte	0x7d
 11099 0c18 10       		.sleb128 16
 11100 0c19 00000000 		.4byte	0
 11101 0c1d 00000000 		.4byte	0
 11102              	.LLST66:
 11103 0c21 00000000 		.4byte	.LVL185
 11104 0c25 0E000000 		.4byte	.LVL186
 11105 0c29 0100     		.2byte	0x1
 11106 0c2b 50       		.byte	0x50
 11107 0c2c 0E000000 		.4byte	.LVL186
 11108 0c30 1A000000 		.4byte	.LVL187
 11109 0c34 0100     		.2byte	0x1
 11110 0c36 55       		.byte	0x55
 11111 0c37 1A000000 		.4byte	.LVL187
 11112 0c3b 35000000 		.4byte	.LVL188-1
 11113 0c3f 0100     		.2byte	0x1
 11114 0c41 50       		.byte	0x50
 11115 0c42 35000000 		.4byte	.LVL188-1
 11116 0c46 48000000 		.4byte	.LVL190
 11117 0c4a 0100     		.2byte	0x1
 11118 0c4c 55       		.byte	0x55
 11119 0c4d 48000000 		.4byte	.LVL190
 11120 0c51 4A000000 		.4byte	.LVL191
 11121 0c55 0100     		.2byte	0x1
 11122 0c57 50       		.byte	0x50
 11123 0c58 4A000000 		.4byte	.LVL191
 11124 0c5c 62000000 		.4byte	.LVL194
 11125 0c60 0100     		.2byte	0x1
 11126 0c62 55       		.byte	0x55
 11127 0c63 62000000 		.4byte	.LVL194
 11128 0c67 65000000 		.4byte	.LVL195-1
 11129 0c6b 0100     		.2byte	0x1
 11130 0c6d 50       		.byte	0x50
 11131 0c6e 65000000 		.4byte	.LVL195-1
 11132 0c72 98000000 		.4byte	.LFE16
 11133 0c76 0100     		.2byte	0x1
 11134 0c78 55       		.byte	0x55
 11135 0c79 00000000 		.4byte	0
 11136 0c7d 00000000 		.4byte	0
 11137              	.LLST67:
 11138 0c81 1A000000 		.4byte	.LVL187
 11139 0c85 35000000 		.4byte	.LVL188-1
 11140 0c89 0100     		.2byte	0x1
ARM GAS  /tmp/ccKs28dn.s 			page 197


 11141 0c8b 50       		.byte	0x50
 11142 0c8c 35000000 		.4byte	.LVL188-1
 11143 0c90 48000000 		.4byte	.LVL190
 11144 0c94 0100     		.2byte	0x1
 11145 0c96 55       		.byte	0x55
 11146 0c97 48000000 		.4byte	.LVL190
 11147 0c9b 4A000000 		.4byte	.LVL191
 11148 0c9f 0100     		.2byte	0x1
 11149 0ca1 50       		.byte	0x50
 11150 0ca2 4A000000 		.4byte	.LVL191
 11151 0ca6 62000000 		.4byte	.LVL194
 11152 0caa 0100     		.2byte	0x1
 11153 0cac 55       		.byte	0x55
 11154 0cad 62000000 		.4byte	.LVL194
 11155 0cb1 65000000 		.4byte	.LVL195-1
 11156 0cb5 0100     		.2byte	0x1
 11157 0cb7 50       		.byte	0x50
 11158 0cb8 65000000 		.4byte	.LVL195-1
 11159 0cbc 98000000 		.4byte	.LFE16
 11160 0cc0 0100     		.2byte	0x1
 11161 0cc2 55       		.byte	0x55
 11162 0cc3 00000000 		.4byte	0
 11163 0cc7 00000000 		.4byte	0
 11164              	.LLST68:
 11165 0ccb 00000000 		.4byte	.LFB17
 11166 0ccf 04000000 		.4byte	.LCFI12
 11167 0cd3 0200     		.2byte	0x2
 11168 0cd5 7D       		.byte	0x7d
 11169 0cd6 00       		.sleb128 0
 11170 0cd7 04000000 		.4byte	.LCFI12
 11171 0cdb 96000000 		.4byte	.LFE17
 11172 0cdf 0200     		.2byte	0x2
 11173 0ce1 7D       		.byte	0x7d
 11174 0ce2 20       		.sleb128 32
 11175 0ce3 00000000 		.4byte	0
 11176 0ce7 00000000 		.4byte	0
 11177              	.LLST69:
 11178 0ceb 00000000 		.4byte	.LVL197
 11179 0cef 08000000 		.4byte	.LVL198
 11180 0cf3 0100     		.2byte	0x1
 11181 0cf5 50       		.byte	0x50
 11182 0cf6 08000000 		.4byte	.LVL198
 11183 0cfa 96000000 		.4byte	.LFE17
 11184 0cfe 0400     		.2byte	0x4
 11185 0d00 F3       		.byte	0xf3
 11186 0d01 01       		.uleb128 0x1
 11187 0d02 50       		.byte	0x50
 11188 0d03 9F       		.byte	0x9f
 11189 0d04 00000000 		.4byte	0
 11190 0d08 00000000 		.4byte	0
 11191              	.LLST70:
 11192 0d0c 00000000 		.4byte	.LVL197
 11193 0d10 0D000000 		.4byte	.LVL199-1
 11194 0d14 0100     		.2byte	0x1
 11195 0d16 51       		.byte	0x51
 11196 0d17 0D000000 		.4byte	.LVL199-1
 11197 0d1b 96000000 		.4byte	.LFE17
ARM GAS  /tmp/ccKs28dn.s 			page 198


 11198 0d1f 0100     		.2byte	0x1
 11199 0d21 58       		.byte	0x58
 11200 0d22 00000000 		.4byte	0
 11201 0d26 00000000 		.4byte	0
 11202              	.LLST71:
 11203 0d2a 0E000000 		.4byte	.LVL199
 11204 0d2e 2D000000 		.4byte	.LVL200-1
 11205 0d32 0100     		.2byte	0x1
 11206 0d34 50       		.byte	0x50
 11207 0d35 2D000000 		.4byte	.LVL200-1
 11208 0d39 66000000 		.4byte	.LVL204
 11209 0d3d 0100     		.2byte	0x1
 11210 0d3f 54       		.byte	0x54
 11211 0d40 6C000000 		.4byte	.LVL205
 11212 0d44 78000000 		.4byte	.LVL206
 11213 0d48 0100     		.2byte	0x1
 11214 0d4a 50       		.byte	0x50
 11215 0d4b 78000000 		.4byte	.LVL206
 11216 0d4f 82000000 		.4byte	.LVL208
 11217 0d53 0100     		.2byte	0x1
 11218 0d55 54       		.byte	0x54
 11219 0d56 82000000 		.4byte	.LVL208
 11220 0d5a 84000000 		.4byte	.LVL209
 11221 0d5e 0300     		.2byte	0x3
 11222 0d60 76       		.byte	0x76
 11223 0d61 74       		.sleb128 -12
 11224 0d62 9F       		.byte	0x9f
 11225 0d63 84000000 		.4byte	.LVL209
 11226 0d67 94000000 		.4byte	.LVL212
 11227 0d6b 0100     		.2byte	0x1
 11228 0d6d 54       		.byte	0x54
 11229 0d6e 94000000 		.4byte	.LVL212
 11230 0d72 96000000 		.4byte	.LFE17
 11231 0d76 0300     		.2byte	0x3
 11232 0d78 76       		.byte	0x76
 11233 0d79 74       		.sleb128 -12
 11234 0d7a 9F       		.byte	0x9f
 11235 0d7b 00000000 		.4byte	0
 11236 0d7f 00000000 		.4byte	0
 11237              	.LLST72:
 11238 0d83 2E000000 		.4byte	.LVL200
 11239 0d87 66000000 		.4byte	.LVL204
 11240 0d8b 0100     		.2byte	0x1
 11241 0d8d 59       		.byte	0x59
 11242 0d8e 78000000 		.4byte	.LVL206
 11243 0d92 96000000 		.4byte	.LFE17
 11244 0d96 0100     		.2byte	0x1
 11245 0d98 59       		.byte	0x59
 11246 0d99 00000000 		.4byte	0
 11247 0d9d 00000000 		.4byte	0
 11248              	.LLST73:
 11249 0da1 00000000 		.4byte	.LFB18
 11250 0da5 02000000 		.4byte	.LCFI13
 11251 0da9 0200     		.2byte	0x2
 11252 0dab 7D       		.byte	0x7d
 11253 0dac 00       		.sleb128 0
 11254 0dad 02000000 		.4byte	.LCFI13
ARM GAS  /tmp/ccKs28dn.s 			page 199


 11255 0db1 46000000 		.4byte	.LFE18
 11256 0db5 0200     		.2byte	0x2
 11257 0db7 7D       		.byte	0x7d
 11258 0db8 10       		.sleb128 16
 11259 0db9 00000000 		.4byte	0
 11260 0dbd 00000000 		.4byte	0
 11261              	.LLST74:
 11262 0dc1 00000000 		.4byte	.LVL213
 11263 0dc5 0B000000 		.4byte	.LVL214-1
 11264 0dc9 0100     		.2byte	0x1
 11265 0dcb 50       		.byte	0x50
 11266 0dcc 0B000000 		.4byte	.LVL214-1
 11267 0dd0 46000000 		.4byte	.LFE18
 11268 0dd4 0100     		.2byte	0x1
 11269 0dd6 54       		.byte	0x54
 11270 0dd7 00000000 		.4byte	0
 11271 0ddb 00000000 		.4byte	0
 11272              	.LLST75:
 11273 0ddf 00000000 		.4byte	.LFB19
 11274 0de3 04000000 		.4byte	.LCFI14
 11275 0de7 0200     		.2byte	0x2
 11276 0de9 7D       		.byte	0x7d
 11277 0dea 00       		.sleb128 0
 11278 0deb 04000000 		.4byte	.LCFI14
 11279 0def 0A000000 		.4byte	.LCFI15
 11280 0df3 0200     		.2byte	0x2
 11281 0df5 7D       		.byte	0x7d
 11282 0df6 18       		.sleb128 24
 11283 0df7 0A000000 		.4byte	.LCFI15
 11284 0dfb B2000000 		.4byte	.LFE19
 11285 0dff 0200     		.2byte	0x2
 11286 0e01 7D       		.byte	0x7d
 11287 0e02 20       		.sleb128 32
 11288 0e03 00000000 		.4byte	0
 11289 0e07 00000000 		.4byte	0
 11290              	.LLST76:
 11291 0e0b 00000000 		.4byte	.LVL222
 11292 0e0f 0E000000 		.4byte	.LVL223
 11293 0e13 0100     		.2byte	0x1
 11294 0e15 50       		.byte	0x50
 11295 0e16 0E000000 		.4byte	.LVL223
 11296 0e1a B2000000 		.4byte	.LFE19
 11297 0e1e 0100     		.2byte	0x1
 11298 0e20 55       		.byte	0x55
 11299 0e21 00000000 		.4byte	0
 11300 0e25 00000000 		.4byte	0
 11301              	.LLST77:
 11302 0e29 2A000000 		.4byte	.LVL227
 11303 0e2d 42000000 		.4byte	.LVL230
 11304 0e31 0100     		.2byte	0x1
 11305 0e33 57       		.byte	0x57
 11306 0e34 00000000 		.4byte	0
 11307 0e38 00000000 		.4byte	0
 11308              	.LLST78:
 11309 0e3c 6E000000 		.4byte	.LVL235
 11310 0e40 94000000 		.4byte	.LVL239
 11311 0e44 0100     		.2byte	0x1
ARM GAS  /tmp/ccKs28dn.s 			page 200


 11312 0e46 54       		.byte	0x54
 11313 0e47 00000000 		.4byte	0
 11314 0e4b 00000000 		.4byte	0
 11315              	.LLST79:
 11316 0e4f 00000000 		.4byte	.LFB14
 11317 0e53 04000000 		.4byte	.LCFI16
 11318 0e57 0200     		.2byte	0x2
 11319 0e59 7D       		.byte	0x7d
 11320 0e5a 00       		.sleb128 0
 11321 0e5b 04000000 		.4byte	.LCFI16
 11322 0e5f 74000000 		.4byte	.LFE14
 11323 0e63 0200     		.2byte	0x2
 11324 0e65 7D       		.byte	0x7d
 11325 0e66 18       		.sleb128 24
 11326 0e67 00000000 		.4byte	0
 11327 0e6b 00000000 		.4byte	0
 11328              	.LLST80:
 11329 0e6f 00000000 		.4byte	.LVL243
 11330 0e73 0C000000 		.4byte	.LVL245
 11331 0e77 0100     		.2byte	0x1
 11332 0e79 50       		.byte	0x50
 11333 0e7a 0C000000 		.4byte	.LVL245
 11334 0e7e 48000000 		.4byte	.LVL251
 11335 0e82 0100     		.2byte	0x1
 11336 0e84 54       		.byte	0x54
 11337 0e85 48000000 		.4byte	.LVL251
 11338 0e89 4E000000 		.4byte	.LVL252
 11339 0e8d 0400     		.2byte	0x4
 11340 0e8f F3       		.byte	0xf3
 11341 0e90 01       		.uleb128 0x1
 11342 0e91 50       		.byte	0x50
 11343 0e92 9F       		.byte	0x9f
 11344 0e93 4E000000 		.4byte	.LVL252
 11345 0e97 5C000000 		.4byte	.LVL255
 11346 0e9b 0100     		.2byte	0x1
 11347 0e9d 54       		.byte	0x54
 11348 0e9e 5C000000 		.4byte	.LVL255
 11349 0ea2 74000000 		.4byte	.LFE14
 11350 0ea6 0400     		.2byte	0x4
 11351 0ea8 F3       		.byte	0xf3
 11352 0ea9 01       		.uleb128 0x1
 11353 0eaa 50       		.byte	0x50
 11354 0eab 9F       		.byte	0x9f
 11355 0eac 00000000 		.4byte	0
 11356 0eb0 00000000 		.4byte	0
 11357              	.LLST81:
 11358 0eb4 00000000 		.4byte	.LVL243
 11359 0eb8 13000000 		.4byte	.LVL246-1
 11360 0ebc 0100     		.2byte	0x1
 11361 0ebe 51       		.byte	0x51
 11362 0ebf 13000000 		.4byte	.LVL246-1
 11363 0ec3 74000000 		.4byte	.LFE14
 11364 0ec7 0100     		.2byte	0x1
 11365 0ec9 58       		.byte	0x58
 11366 0eca 00000000 		.4byte	0
 11367 0ece 00000000 		.4byte	0
 11368              	.LLST82:
ARM GAS  /tmp/ccKs28dn.s 			page 201


 11369 0ed2 00000000 		.4byte	.LVL243
 11370 0ed6 13000000 		.4byte	.LVL246-1
 11371 0eda 0100     		.2byte	0x1
 11372 0edc 52       		.byte	0x52
 11373 0edd 13000000 		.4byte	.LVL246-1
 11374 0ee1 74000000 		.4byte	.LFE14
 11375 0ee5 0400     		.2byte	0x4
 11376 0ee7 F3       		.byte	0xf3
 11377 0ee8 01       		.uleb128 0x1
 11378 0ee9 52       		.byte	0x52
 11379 0eea 9F       		.byte	0x9f
 11380 0eeb 00000000 		.4byte	0
 11381 0eef 00000000 		.4byte	0
 11382              	.LLST83:
 11383 0ef3 1E000000 		.4byte	.LVL247
 11384 0ef7 29000000 		.4byte	.LVL248-1
 11385 0efb 0100     		.2byte	0x1
 11386 0efd 50       		.byte	0x50
 11387 0efe 29000000 		.4byte	.LVL248-1
 11388 0f02 48000000 		.4byte	.LVL251
 11389 0f06 0100     		.2byte	0x1
 11390 0f08 56       		.byte	0x56
 11391 0f09 52000000 		.4byte	.LVL253
 11392 0f0d 54000000 		.4byte	.LVL254
 11393 0f11 0100     		.2byte	0x1
 11394 0f13 50       		.byte	0x50
 11395 0f14 54000000 		.4byte	.LVL254
 11396 0f18 74000000 		.4byte	.LFE14
 11397 0f1c 0100     		.2byte	0x1
 11398 0f1e 56       		.byte	0x56
 11399 0f1f 00000000 		.4byte	0
 11400 0f23 00000000 		.4byte	0
 11401              	.LLST84:
 11402 0f27 0A000000 		.4byte	.LVL244
 11403 0f2b 0C000000 		.4byte	.LVL245
 11404 0f2f 0100     		.2byte	0x1
 11405 0f31 50       		.byte	0x50
 11406 0f32 0C000000 		.4byte	.LVL245
 11407 0f36 48000000 		.4byte	.LVL251
 11408 0f3a 0100     		.2byte	0x1
 11409 0f3c 54       		.byte	0x54
 11410 0f3d 48000000 		.4byte	.LVL251
 11411 0f41 4E000000 		.4byte	.LVL252
 11412 0f45 0400     		.2byte	0x4
 11413 0f47 F3       		.byte	0xf3
 11414 0f48 01       		.uleb128 0x1
 11415 0f49 50       		.byte	0x50
 11416 0f4a 9F       		.byte	0x9f
 11417 0f4b 4E000000 		.4byte	.LVL252
 11418 0f4f 5C000000 		.4byte	.LVL255
 11419 0f53 0100     		.2byte	0x1
 11420 0f55 54       		.byte	0x54
 11421 0f56 5C000000 		.4byte	.LVL255
 11422 0f5a 74000000 		.4byte	.LFE14
 11423 0f5e 0400     		.2byte	0x4
 11424 0f60 F3       		.byte	0xf3
 11425 0f61 01       		.uleb128 0x1
ARM GAS  /tmp/ccKs28dn.s 			page 202


 11426 0f62 50       		.byte	0x50
 11427 0f63 9F       		.byte	0x9f
 11428 0f64 00000000 		.4byte	0
 11429 0f68 00000000 		.4byte	0
 11430              	.LLST85:
 11431 0f6c 00000000 		.4byte	.LFB21
 11432 0f70 02000000 		.4byte	.LCFI17
 11433 0f74 0200     		.2byte	0x2
 11434 0f76 7D       		.byte	0x7d
 11435 0f77 00       		.sleb128 0
 11436 0f78 02000000 		.4byte	.LCFI17
 11437 0f7c EC000000 		.4byte	.LFE21
 11438 0f80 0200     		.2byte	0x2
 11439 0f82 7D       		.byte	0x7d
 11440 0f83 10       		.sleb128 16
 11441 0f84 00000000 		.4byte	0
 11442 0f88 00000000 		.4byte	0
 11443              	.LLST86:
 11444 0f8c 00000000 		.4byte	.LVL259
 11445 0f90 1B000000 		.4byte	.LVL260-1
 11446 0f94 0100     		.2byte	0x1
 11447 0f96 50       		.byte	0x50
 11448 0f97 1B000000 		.4byte	.LVL260-1
 11449 0f9b 30000000 		.4byte	.LVL262
 11450 0f9f 0100     		.2byte	0x1
 11451 0fa1 54       		.byte	0x54
 11452 0fa2 30000000 		.4byte	.LVL262
 11453 0fa6 34000000 		.4byte	.LVL263
 11454 0faa 0100     		.2byte	0x1
 11455 0fac 50       		.byte	0x50
 11456 0fad 34000000 		.4byte	.LVL263
 11457 0fb1 A4000000 		.4byte	.LVL270
 11458 0fb5 0100     		.2byte	0x1
 11459 0fb7 54       		.byte	0x54
 11460 0fb8 A4000000 		.4byte	.LVL270
 11461 0fbc B3000000 		.4byte	.LVL271-1
 11462 0fc0 0100     		.2byte	0x1
 11463 0fc2 50       		.byte	0x50
 11464 0fc3 B3000000 		.4byte	.LVL271-1
 11465 0fc7 EC000000 		.4byte	.LFE21
 11466 0fcb 0100     		.2byte	0x1
 11467 0fcd 54       		.byte	0x54
 11468 0fce 00000000 		.4byte	0
 11469 0fd2 00000000 		.4byte	0
 11470              	.LLST87:
 11471 0fd6 00000000 		.4byte	.LFB22
 11472 0fda 02000000 		.4byte	.LCFI18
 11473 0fde 0200     		.2byte	0x2
 11474 0fe0 7D       		.byte	0x7d
 11475 0fe1 00       		.sleb128 0
 11476 0fe2 02000000 		.4byte	.LCFI18
 11477 0fe6 60000000 		.4byte	.LFE22
 11478 0fea 0200     		.2byte	0x2
 11479 0fec 7D       		.byte	0x7d
 11480 0fed 08       		.sleb128 8
 11481 0fee 00000000 		.4byte	0
 11482 0ff2 00000000 		.4byte	0
ARM GAS  /tmp/ccKs28dn.s 			page 203


 11483              	.LLST88:
 11484 0ff6 00000000 		.4byte	.LVL275
 11485 0ffa 18000000 		.4byte	.LVL276
 11486 0ffe 0100     		.2byte	0x1
 11487 1000 50       		.byte	0x50
 11488 1001 18000000 		.4byte	.LVL276
 11489 1005 60000000 		.4byte	.LFE22
 11490 1009 0100     		.2byte	0x1
 11491 100b 54       		.byte	0x54
 11492 100c 00000000 		.4byte	0
 11493 1010 00000000 		.4byte	0
 11494              	.LLST89:
 11495 1014 00000000 		.4byte	.LFB24
 11496 1018 02000000 		.4byte	.LCFI19
 11497 101c 0200     		.2byte	0x2
 11498 101e 7D       		.byte	0x7d
 11499 101f 00       		.sleb128 0
 11500 1020 02000000 		.4byte	.LCFI19
 11501 1024 A8000000 		.4byte	.LFE24
 11502 1028 0200     		.2byte	0x2
 11503 102a 7D       		.byte	0x7d
 11504 102b 08       		.sleb128 8
 11505 102c 00000000 		.4byte	0
 11506 1030 00000000 		.4byte	0
 11507              	.LLST90:
 11508 1034 00000000 		.4byte	.LVL281
 11509 1038 08000000 		.4byte	.LVL282
 11510 103c 0100     		.2byte	0x1
 11511 103e 50       		.byte	0x50
 11512 103f 08000000 		.4byte	.LVL282
 11513 1043 A8000000 		.4byte	.LFE24
 11514 1047 0100     		.2byte	0x1
 11515 1049 54       		.byte	0x54
 11516 104a 00000000 		.4byte	0
 11517 104e 00000000 		.4byte	0
 11518              	.LLST91:
 11519 1052 76000000 		.4byte	.LVL289
 11520 1056 86000000 		.4byte	.LVL290
 11521 105a 0900     		.2byte	0x9
 11522 105c 72       		.byte	0x72
 11523 105d 00       		.sleb128 0
 11524 105e 32       		.byte	0x32
 11525 105f 1A       		.byte	0x1a
 11526 1060 48       		.byte	0x48
 11527 1061 24       		.byte	0x24
 11528 1062 30       		.byte	0x30
 11529 1063 2E       		.byte	0x2e
 11530 1064 9F       		.byte	0x9f
 11531 1065 86000000 		.4byte	.LVL290
 11532 1069 8A000000 		.4byte	.LVL291
 11533 106d 0B00     		.2byte	0xb
 11534 106f 73       		.byte	0x73
 11535 1070 1C       		.sleb128 28
 11536 1071 94       		.byte	0x94
 11537 1072 01       		.byte	0x1
 11538 1073 32       		.byte	0x32
 11539 1074 1A       		.byte	0x1a
ARM GAS  /tmp/ccKs28dn.s 			page 204


 11540 1075 48       		.byte	0x48
 11541 1076 24       		.byte	0x24
 11542 1077 30       		.byte	0x30
 11543 1078 2E       		.byte	0x2e
 11544 1079 9F       		.byte	0x9f
 11545 107a 8A000000 		.4byte	.LVL291
 11546 107e 90000000 		.4byte	.LVL292
 11547 1082 0E00     		.2byte	0xe
 11548 1084 74       		.byte	0x74
 11549 1085 00       		.sleb128 0
 11550 1086 06       		.byte	0x6
 11551 1087 23       		.byte	0x23
 11552 1088 1C       		.uleb128 0x1c
 11553 1089 94       		.byte	0x94
 11554 108a 01       		.byte	0x1
 11555 108b 32       		.byte	0x32
 11556 108c 1A       		.byte	0x1a
 11557 108d 48       		.byte	0x48
 11558 108e 24       		.byte	0x24
 11559 108f 30       		.byte	0x30
 11560 1090 2E       		.byte	0x2e
 11561 1091 9F       		.byte	0x9f
 11562 1092 96000000 		.4byte	.LVL293
 11563 1096 9A000000 		.4byte	.LVL294
 11564 109a 0900     		.2byte	0x9
 11565 109c 72       		.byte	0x72
 11566 109d 00       		.sleb128 0
 11567 109e 32       		.byte	0x32
 11568 109f 1A       		.byte	0x1a
 11569 10a0 48       		.byte	0x48
 11570 10a1 24       		.byte	0x24
 11571 10a2 30       		.byte	0x30
 11572 10a3 2E       		.byte	0x2e
 11573 10a4 9F       		.byte	0x9f
 11574 10a5 9A000000 		.4byte	.LVL294
 11575 10a9 9E000000 		.4byte	.LVL295
 11576 10ad 0B00     		.2byte	0xb
 11577 10af 73       		.byte	0x73
 11578 10b0 1C       		.sleb128 28
 11579 10b1 94       		.byte	0x94
 11580 10b2 01       		.byte	0x1
 11581 10b3 32       		.byte	0x32
 11582 10b4 1A       		.byte	0x1a
 11583 10b5 48       		.byte	0x48
 11584 10b6 24       		.byte	0x24
 11585 10b7 30       		.byte	0x30
 11586 10b8 2E       		.byte	0x2e
 11587 10b9 9F       		.byte	0x9f
 11588 10ba 9E000000 		.4byte	.LVL295
 11589 10be A8000000 		.4byte	.LFE24
 11590 10c2 0E00     		.2byte	0xe
 11591 10c4 74       		.byte	0x74
 11592 10c5 00       		.sleb128 0
 11593 10c6 06       		.byte	0x6
 11594 10c7 23       		.byte	0x23
 11595 10c8 1C       		.uleb128 0x1c
 11596 10c9 94       		.byte	0x94
ARM GAS  /tmp/ccKs28dn.s 			page 205


 11597 10ca 01       		.byte	0x1
 11598 10cb 32       		.byte	0x32
 11599 10cc 1A       		.byte	0x1a
 11600 10cd 48       		.byte	0x48
 11601 10ce 24       		.byte	0x24
 11602 10cf 30       		.byte	0x30
 11603 10d0 2E       		.byte	0x2e
 11604 10d1 9F       		.byte	0x9f
 11605 10d2 00000000 		.4byte	0
 11606 10d6 00000000 		.4byte	0
 11607              	.LLST92:
 11608 10da 00000000 		.4byte	.LFB25
 11609 10de 02000000 		.4byte	.LCFI20
 11610 10e2 0200     		.2byte	0x2
 11611 10e4 7D       		.byte	0x7d
 11612 10e5 00       		.sleb128 0
 11613 10e6 02000000 		.4byte	.LCFI20
 11614 10ea 2C000000 		.4byte	.LFE25
 11615 10ee 0200     		.2byte	0x2
 11616 10f0 7D       		.byte	0x7d
 11617 10f1 08       		.sleb128 8
 11618 10f2 00000000 		.4byte	0
 11619 10f6 00000000 		.4byte	0
 11620              	.LLST93:
 11621 10fa 00000000 		.4byte	.LVL296
 11622 10fe 06000000 		.4byte	.LVL297
 11623 1102 0100     		.2byte	0x1
 11624 1104 50       		.byte	0x50
 11625 1105 06000000 		.4byte	.LVL297
 11626 1109 2C000000 		.4byte	.LFE25
 11627 110d 0100     		.2byte	0x1
 11628 110f 54       		.byte	0x54
 11629 1110 00000000 		.4byte	0
 11630 1114 00000000 		.4byte	0
 11631              	.LLST94:
 11632 1118 00000000 		.4byte	.LFB26
 11633 111c 02000000 		.4byte	.LCFI21
 11634 1120 0200     		.2byte	0x2
 11635 1122 7D       		.byte	0x7d
 11636 1123 00       		.sleb128 0
 11637 1124 02000000 		.4byte	.LCFI21
 11638 1128 B4000000 		.4byte	.LFE26
 11639 112c 0200     		.2byte	0x2
 11640 112e 7D       		.byte	0x7d
 11641 112f 10       		.sleb128 16
 11642 1130 00000000 		.4byte	0
 11643 1134 00000000 		.4byte	0
 11644              	.LLST95:
 11645 1138 00000000 		.4byte	.LVL300
 11646 113c 18000000 		.4byte	.LVL301
 11647 1140 0100     		.2byte	0x1
 11648 1142 50       		.byte	0x50
 11649 1143 18000000 		.4byte	.LVL301
 11650 1147 B4000000 		.4byte	.LFE26
 11651 114b 0100     		.2byte	0x1
 11652 114d 54       		.byte	0x54
 11653 114e 00000000 		.4byte	0
ARM GAS  /tmp/ccKs28dn.s 			page 206


 11654 1152 00000000 		.4byte	0
 11655              	.LLST96:
 11656 1156 38000000 		.4byte	.LVL303
 11657 115a 40000000 		.4byte	.LVL304
 11658 115e 0100     		.2byte	0x1
 11659 1160 50       		.byte	0x50
 11660 1161 40000000 		.4byte	.LVL304
 11661 1165 A8000000 		.4byte	.LVL313
 11662 1169 0100     		.2byte	0x1
 11663 116b 55       		.byte	0x55
 11664 116c A8000000 		.4byte	.LVL313
 11665 1170 B4000000 		.4byte	.LFE26
 11666 1174 0100     		.2byte	0x1
 11667 1176 50       		.byte	0x50
 11668 1177 00000000 		.4byte	0
 11669 117b 00000000 		.4byte	0
 11670              	.LLST97:
 11671 117f 00000000 		.4byte	.LFB27
 11672 1183 02000000 		.4byte	.LCFI22
 11673 1187 0200     		.2byte	0x2
 11674 1189 7D       		.byte	0x7d
 11675 118a 00       		.sleb128 0
 11676 118b 02000000 		.4byte	.LCFI22
 11677 118f 7E000000 		.4byte	.LFE27
 11678 1193 0200     		.2byte	0x2
 11679 1195 7D       		.byte	0x7d
 11680 1196 08       		.sleb128 8
 11681 1197 00000000 		.4byte	0
 11682 119b 00000000 		.4byte	0
 11683              	.LLST98:
 11684 119f 00000000 		.4byte	.LVL314
 11685 11a3 18000000 		.4byte	.LVL315
 11686 11a7 0100     		.2byte	0x1
 11687 11a9 50       		.byte	0x50
 11688 11aa 18000000 		.4byte	.LVL315
 11689 11ae 7E000000 		.4byte	.LFE27
 11690 11b2 0100     		.2byte	0x1
 11691 11b4 54       		.byte	0x54
 11692 11b5 00000000 		.4byte	0
 11693 11b9 00000000 		.4byte	0
 11694              	.LLST99:
 11695 11bd 00000000 		.4byte	.LFB28
 11696 11c1 02000000 		.4byte	.LCFI23
 11697 11c5 0200     		.2byte	0x2
 11698 11c7 7D       		.byte	0x7d
 11699 11c8 00       		.sleb128 0
 11700 11c9 02000000 		.4byte	.LCFI23
 11701 11cd 44000000 		.4byte	.LFE28
 11702 11d1 0200     		.2byte	0x2
 11703 11d3 7D       		.byte	0x7d
 11704 11d4 18       		.sleb128 24
 11705 11d5 00000000 		.4byte	0
 11706 11d9 00000000 		.4byte	0
 11707              	.LLST100:
 11708 11dd 00000000 		.4byte	.LVL321
 11709 11e1 0C000000 		.4byte	.LVL322
 11710 11e5 0100     		.2byte	0x1
ARM GAS  /tmp/ccKs28dn.s 			page 207


 11711 11e7 50       		.byte	0x50
 11712 11e8 0C000000 		.4byte	.LVL322
 11713 11ec 44000000 		.4byte	.LFE28
 11714 11f0 0100     		.2byte	0x1
 11715 11f2 56       		.byte	0x56
 11716 11f3 00000000 		.4byte	0
 11717 11f7 00000000 		.4byte	0
 11718              	.LLST101:
 11719 11fb 22000000 		.4byte	.LVL324
 11720 11ff 3C000000 		.4byte	.LVL327
 11721 1203 0100     		.2byte	0x1
 11722 1205 54       		.byte	0x54
 11723 1206 3C000000 		.4byte	.LVL327
 11724 120a 3E000000 		.4byte	.LVL328
 11725 120e 0600     		.2byte	0x6
 11726 1210 74       		.byte	0x74
 11727 1211 00       		.sleb128 0
 11728 1212 75       		.byte	0x75
 11729 1213 00       		.sleb128 0
 11730 1214 1C       		.byte	0x1c
 11731 1215 9F       		.byte	0x9f
 11732 1216 3E000000 		.4byte	.LVL328
 11733 121a 44000000 		.4byte	.LFE28
 11734 121e 0100     		.2byte	0x1
 11735 1220 54       		.byte	0x54
 11736 1221 00000000 		.4byte	0
 11737 1225 00000000 		.4byte	0
 11738              	.LLST102:
 11739 1229 38000000 		.4byte	.LVL326
 11740 122d 3B000000 		.4byte	.LVL327-1
 11741 1231 0100     		.2byte	0x1
 11742 1233 51       		.byte	0x51
 11743 1234 00000000 		.4byte	0
 11744 1238 00000000 		.4byte	0
 11745              	.LLST103:
 11746 123c 00000000 		.4byte	.LFB30
 11747 1240 02000000 		.4byte	.LCFI24
 11748 1244 0200     		.2byte	0x2
 11749 1246 7D       		.byte	0x7d
 11750 1247 00       		.sleb128 0
 11751 1248 02000000 		.4byte	.LCFI24
 11752 124c 0C000000 		.4byte	.LCFI25
 11753 1250 0200     		.2byte	0x2
 11754 1252 7D       		.byte	0x7d
 11755 1253 04       		.sleb128 4
 11756 1254 0C000000 		.4byte	.LCFI25
 11757 1258 74000000 		.4byte	.LFE30
 11758 125c 0200     		.2byte	0x2
 11759 125e 7D       		.byte	0x7d
 11760 125f 10       		.sleb128 16
 11761 1260 00000000 		.4byte	0
 11762 1264 00000000 		.4byte	0
 11763              	.LLST104:
 11764 1268 00000000 		.4byte	.LVL329
 11765 126c 1C000000 		.4byte	.LVL330
 11766 1270 0100     		.2byte	0x1
 11767 1272 50       		.byte	0x50
ARM GAS  /tmp/ccKs28dn.s 			page 208


 11768 1273 1C000000 		.4byte	.LVL330
 11769 1277 26000000 		.4byte	.LVL331
 11770 127b 0400     		.2byte	0x4
 11771 127d F3       		.byte	0xf3
 11772 127e 01       		.uleb128 0x1
 11773 127f 50       		.byte	0x50
 11774 1280 9F       		.byte	0x9f
 11775 1281 26000000 		.4byte	.LVL331
 11776 1285 41000000 		.4byte	.LVL332-1
 11777 1289 0100     		.2byte	0x1
 11778 128b 50       		.byte	0x50
 11779 128c 41000000 		.4byte	.LVL332-1
 11780 1290 66000000 		.4byte	.LVL335
 11781 1294 0400     		.2byte	0x4
 11782 1296 F3       		.byte	0xf3
 11783 1297 01       		.uleb128 0x1
 11784 1298 50       		.byte	0x50
 11785 1299 9F       		.byte	0x9f
 11786 129a 66000000 		.4byte	.LVL335
 11787 129e 74000000 		.4byte	.LFE30
 11788 12a2 0100     		.2byte	0x1
 11789 12a4 50       		.byte	0x50
 11790 12a5 00000000 		.4byte	0
 11791 12a9 00000000 		.4byte	0
 11792              	.LLST105:
 11793 12ad 00000000 		.4byte	.LFB31
 11794 12b1 02000000 		.4byte	.LCFI26
 11795 12b5 0200     		.2byte	0x2
 11796 12b7 7D       		.byte	0x7d
 11797 12b8 00       		.sleb128 0
 11798 12b9 02000000 		.4byte	.LCFI26
 11799 12bd 98000000 		.4byte	.LFE31
 11800 12c1 0200     		.2byte	0x2
 11801 12c3 7D       		.byte	0x7d
 11802 12c4 08       		.sleb128 8
 11803 12c5 00000000 		.4byte	0
 11804 12c9 00000000 		.4byte	0
 11805              	.LLST106:
 11806 12cd 00000000 		.4byte	.LVL336
 11807 12d1 06000000 		.4byte	.LVL337
 11808 12d5 0100     		.2byte	0x1
 11809 12d7 50       		.byte	0x50
 11810 12d8 06000000 		.4byte	.LVL337
 11811 12dc 98000000 		.4byte	.LFE31
 11812 12e0 0100     		.2byte	0x1
 11813 12e2 54       		.byte	0x54
 11814 12e3 00000000 		.4byte	0
 11815 12e7 00000000 		.4byte	0
 11816              	.LLST107:
 11817 12eb 00000000 		.4byte	.LFB32
 11818 12ef 02000000 		.4byte	.LCFI27
 11819 12f3 0200     		.2byte	0x2
 11820 12f5 7D       		.byte	0x7d
 11821 12f6 00       		.sleb128 0
 11822 12f7 02000000 		.4byte	.LCFI27
 11823 12fb 74000000 		.4byte	.LFE32
 11824 12ff 0200     		.2byte	0x2
ARM GAS  /tmp/ccKs28dn.s 			page 209


 11825 1301 7D       		.byte	0x7d
 11826 1302 08       		.sleb128 8
 11827 1303 00000000 		.4byte	0
 11828 1307 00000000 		.4byte	0
 11829              	.LLST108:
 11830 130b 00000000 		.4byte	.LVL340
 11831 130f 06000000 		.4byte	.LVL341
 11832 1313 0100     		.2byte	0x1
 11833 1315 50       		.byte	0x50
 11834 1316 06000000 		.4byte	.LVL341
 11835 131a 74000000 		.4byte	.LFE32
 11836 131e 0100     		.2byte	0x1
 11837 1320 54       		.byte	0x54
 11838 1321 00000000 		.4byte	0
 11839 1325 00000000 		.4byte	0
 11840              		.section	.debug_aranges,"",%progbits
 11841 0000 DC000000 		.4byte	0xdc
 11842 0004 0200     		.2byte	0x2
 11843 0006 00000000 		.4byte	.Ldebug_info0
 11844 000a 04       		.byte	0x4
 11845 000b 00       		.byte	0
 11846 000c 0000     		.2byte	0
 11847 000e 0000     		.2byte	0
 11848 0010 00000000 		.4byte	.LFB13
 11849 0014 4A000000 		.4byte	.LFE13-.LFB13
 11850 0018 00000000 		.4byte	.LFB23
 11851 001c 8A000000 		.4byte	.LFE23-.LFB23
 11852 0020 00000000 		.4byte	.LFB20
 11853 0024 50010000 		.4byte	.LFE20-.LFB20
 11854 0028 00000000 		.4byte	.LFB12
 11855 002c B8000000 		.4byte	.LFE12-.LFB12
 11856 0030 00000000 		.4byte	.LFB9
 11857 0034 90000000 		.4byte	.LFE9-.LFB9
 11858 0038 00000000 		.4byte	.LFB29
 11859 003c 46010000 		.4byte	.LFE29-.LFB29
 11860 0040 00000000 		.4byte	.LFB10
 11861 0044 56000000 		.4byte	.LFE10-.LFB10
 11862 0048 00000000 		.4byte	.LFB8
 11863 004c 9A000000 		.4byte	.LFE8-.LFB8
 11864 0050 00000000 		.4byte	.LFB7
 11865 0054 88000000 		.4byte	.LFE7-.LFB7
 11866 0058 00000000 		.4byte	.LFB11
 11867 005c 52000000 		.4byte	.LFE11-.LFB11
 11868 0060 00000000 		.4byte	.LFB16
 11869 0064 98000000 		.4byte	.LFE16-.LFB16
 11870 0068 00000000 		.4byte	.LFB17
 11871 006c 96000000 		.4byte	.LFE17-.LFB17
 11872 0070 00000000 		.4byte	.LFB18
 11873 0074 46000000 		.4byte	.LFE18-.LFB18
 11874 0078 00000000 		.4byte	.LFB19
 11875 007c B2000000 		.4byte	.LFE19-.LFB19
 11876 0080 00000000 		.4byte	.LFB14
 11877 0084 74000000 		.4byte	.LFE14-.LFB14
 11878 0088 00000000 		.4byte	.LFB21
 11879 008c EC000000 		.4byte	.LFE21-.LFB21
 11880 0090 00000000 		.4byte	.LFB22
 11881 0094 60000000 		.4byte	.LFE22-.LFB22
ARM GAS  /tmp/ccKs28dn.s 			page 210


 11882 0098 00000000 		.4byte	.LFB24
 11883 009c A8000000 		.4byte	.LFE24-.LFB24
 11884 00a0 00000000 		.4byte	.LFB25
 11885 00a4 2C000000 		.4byte	.LFE25-.LFB25
 11886 00a8 00000000 		.4byte	.LFB26
 11887 00ac B4000000 		.4byte	.LFE26-.LFB26
 11888 00b0 00000000 		.4byte	.LFB27
 11889 00b4 7E000000 		.4byte	.LFE27-.LFB27
 11890 00b8 00000000 		.4byte	.LFB28
 11891 00bc 44000000 		.4byte	.LFE28-.LFB28
 11892 00c0 00000000 		.4byte	.LFB30
 11893 00c4 74000000 		.4byte	.LFE30-.LFB30
 11894 00c8 00000000 		.4byte	.LFB31
 11895 00cc 98000000 		.4byte	.LFE31-.LFB31
 11896 00d0 00000000 		.4byte	.LFB32
 11897 00d4 74000000 		.4byte	.LFE32-.LFB32
 11898 00d8 00000000 		.4byte	0
 11899 00dc 00000000 		.4byte	0
 11900              		.section	.debug_ranges,"",%progbits
 11901              	.Ldebug_ranges0:
 11902 0000 6E000000 		.4byte	.LBB2
 11903 0004 8C000000 		.4byte	.LBE2
 11904 0008 90000000 		.4byte	.LBB3
 11905 000c 96000000 		.4byte	.LBE3
 11906 0010 B0000000 		.4byte	.LBB4
 11907 0014 B8000000 		.4byte	.LBE4
 11908 0018 00000000 		.4byte	0
 11909 001c 00000000 		.4byte	0
 11910 0020 36000000 		.4byte	.LBB5
 11911 0024 6E000000 		.4byte	.LBE5
 11912 0028 74000000 		.4byte	.LBB6
 11913 002c 88000000 		.4byte	.LBE6
 11914 0030 00000000 		.4byte	0
 11915 0034 00000000 		.4byte	0
 11916 0038 6C000000 		.4byte	.LBB16
 11917 003c 6E000000 		.4byte	.LBE16
 11918 0040 74000000 		.4byte	.LBB17
 11919 0044 90000000 		.4byte	.LBE17
 11920 0048 96000000 		.4byte	.LBB18
 11921 004c A8000000 		.4byte	.LBE18
 11922 0050 00000000 		.4byte	0
 11923 0054 00000000 		.4byte	0
 11924 0058 00000000 		.4byte	.LFB13
 11925 005c 4A000000 		.4byte	.LFE13
 11926 0060 00000000 		.4byte	.LFB23
 11927 0064 8A000000 		.4byte	.LFE23
 11928 0068 00000000 		.4byte	.LFB20
 11929 006c 50010000 		.4byte	.LFE20
 11930 0070 00000000 		.4byte	.LFB12
 11931 0074 B8000000 		.4byte	.LFE12
 11932 0078 00000000 		.4byte	.LFB9
 11933 007c 90000000 		.4byte	.LFE9
 11934 0080 00000000 		.4byte	.LFB29
 11935 0084 46010000 		.4byte	.LFE29
 11936 0088 00000000 		.4byte	.LFB10
 11937 008c 56000000 		.4byte	.LFE10
 11938 0090 00000000 		.4byte	.LFB8
ARM GAS  /tmp/ccKs28dn.s 			page 211


 11939 0094 9A000000 		.4byte	.LFE8
 11940 0098 00000000 		.4byte	.LFB7
 11941 009c 88000000 		.4byte	.LFE7
 11942 00a0 00000000 		.4byte	.LFB11
 11943 00a4 52000000 		.4byte	.LFE11
 11944 00a8 00000000 		.4byte	.LFB16
 11945 00ac 98000000 		.4byte	.LFE16
 11946 00b0 00000000 		.4byte	.LFB17
 11947 00b4 96000000 		.4byte	.LFE17
 11948 00b8 00000000 		.4byte	.LFB18
 11949 00bc 46000000 		.4byte	.LFE18
 11950 00c0 00000000 		.4byte	.LFB19
 11951 00c4 B2000000 		.4byte	.LFE19
 11952 00c8 00000000 		.4byte	.LFB14
 11953 00cc 74000000 		.4byte	.LFE14
 11954 00d0 00000000 		.4byte	.LFB21
 11955 00d4 EC000000 		.4byte	.LFE21
 11956 00d8 00000000 		.4byte	.LFB22
 11957 00dc 60000000 		.4byte	.LFE22
 11958 00e0 00000000 		.4byte	.LFB24
 11959 00e4 A8000000 		.4byte	.LFE24
 11960 00e8 00000000 		.4byte	.LFB25
 11961 00ec 2C000000 		.4byte	.LFE25
 11962 00f0 00000000 		.4byte	.LFB26
 11963 00f4 B4000000 		.4byte	.LFE26
 11964 00f8 00000000 		.4byte	.LFB27
 11965 00fc 7E000000 		.4byte	.LFE27
 11966 0100 00000000 		.4byte	.LFB28
 11967 0104 44000000 		.4byte	.LFE28
 11968 0108 00000000 		.4byte	.LFB30
 11969 010c 74000000 		.4byte	.LFE30
 11970 0110 00000000 		.4byte	.LFB31
 11971 0114 98000000 		.4byte	.LFE31
 11972 0118 00000000 		.4byte	.LFB32
 11973 011c 74000000 		.4byte	.LFE32
 11974 0120 00000000 		.4byte	0
 11975 0124 00000000 		.4byte	0
 11976              		.section	.debug_line,"",%progbits
 11977              	.Ldebug_line0:
 11978 0000 E4090000 		.section	.debug_str,"MS",%progbits,1
 11978      02009902 
 11978      00000201 
 11978      FB0E0D00 
 11978      01010101 
 11979              	.LASF46:
 11980 0000 54687265 		.ascii	"ThreadsList\000"
 11980      6164734C 
 11980      69737400 
 11981              	.LASF38:
 11982 000c 705F7761 		.ascii	"p_waiting\000"
 11982      6974696E 
 11982      6700
 11983              	.LASF175:
 11984 0016 7564705F 		.ascii	"udp_pcb\000"
 11984      70636200 
 11985              	.LASF253:
 11986 001e 646F5F64 		.ascii	"do_disconnect\000"
ARM GAS  /tmp/ccKs28dn.s 			page 212


 11986      6973636F 
 11986      6E6E6563 
 11986      7400
 11987              	.LASF80:
 11988 002c 7379735F 		.ascii	"sys_mbox_t\000"
 11988      6D626F78 
 11988      5F7400
 11989              	.LASF282:
 11990 0037 7261775F 		.ascii	"raw_new\000"
 11990      6E657700 
 11991              	.LASF210:
 11992 003f 4D454D50 		.ascii	"MEMP_TCP_PCB_LISTEN\000"
 11992      5F544350 
 11992      5F504342 
 11992      5F4C4953 
 11992      54454E00 
 11993              	.LASF37:
 11994 0053 705F7469 		.ascii	"p_time\000"
 11994      6D6500
 11995              	.LASF132:
 11996 005a 736F5F6F 		.ascii	"so_options\000"
 11996      7074696F 
 11996      6E7300
 11997              	.LASF249:
 11998 0065 646F5F64 		.ascii	"do_delconn\000"
 11998      656C636F 
 11998      6E6E00
 11999              	.LASF304:
 12000 0070 7463705F 		.ascii	"tcp_connect\000"
 12000      636F6E6E 
 12000      65637400 
 12001              	.LASF47:
 12002 007c 72656761 		.ascii	"regarm_t\000"
 12002      726D5F74 
 12002      00
 12003              	.LASF28:
 12004 0085 705F7072 		.ascii	"p_prio\000"
 12004      696F00
 12005              	.LASF309:
 12006 008c 7564705F 		.ascii	"udp_sendto\000"
 12006      73656E64 
 12006      746F00
 12007              	.LASF86:
 12008 0097 50425546 		.ascii	"PBUF_RAM\000"
 12008      5F52414D 
 12008      00
 12009              	.LASF143:
 12010 00a0 706F6C6C 		.ascii	"polltmr\000"
 12010      746D7200 
 12011              	.LASF308:
 12012 00a8 7261775F 		.ascii	"raw_send\000"
 12012      73656E64 
 12012      00
 12013              	.LASF84:
 12014 00b1 50425546 		.ascii	"PBUF_RAW\000"
 12014      5F524157 
 12014      00
ARM GAS  /tmp/ccKs28dn.s 			page 213


 12015              	.LASF90:
 12016 00ba 70627566 		.ascii	"pbuf_type\000"
 12016      5F747970 
 12016      6500
 12017              	.LASF23:
 12018 00c4 73797374 		.ascii	"systime_t\000"
 12018      696D655F 
 12018      7400
 12019              	.LASF300:
 12020 00ce 7463705F 		.ascii	"tcp_bind\000"
 12020      62696E64 
 12020      00
 12021              	.LASF289:
 12022 00d7 7379735F 		.ascii	"sys_mbox_set_invalid\000"
 12022      6D626F78 
 12022      5F736574 
 12022      5F696E76 
 12022      616C6964 
 12023              	.LASF56:
 12024 00ec 6D5F6F77 		.ascii	"m_owner\000"
 12024      6E657200 
 12025              	.LASF52:
 12026 00f4 735F7175 		.ascii	"s_queue\000"
 12026      65756500 
 12027              	.LASF137:
 12028 00fc 6C6F6361 		.ascii	"local_port\000"
 12028      6C5F706F 
 12028      727400
 12029              	.LASF123:
 12030 0107 72656376 		.ascii	"recvmbox\000"
 12030      6D626F78 
 12030      00
 12031              	.LASF177:
 12032 0110 7261775F 		.ascii	"raw_pcb\000"
 12032      70636200 
 12033              	.LASF39:
 12034 0118 705F6D73 		.ascii	"p_msgqueue\000"
 12034      67717565 
 12034      756500
 12035              	.LASF0:
 12036 0123 756E7369 		.ascii	"unsigned int\000"
 12036      676E6564 
 12036      20696E74 
 12036      00
 12037              	.LASF108:
 12038 0130 4E455443 		.ascii	"NETCONN_WRITE\000"
 12038      4F4E4E5F 
 12038      57524954 
 12038      4500
 12039              	.LASF92:
 12040 013e 6E657874 		.ascii	"next\000"
 12040      00
 12041              	.LASF252:
 12042 0143 6E6F6E5F 		.ascii	"non_blocking\000"
 12042      626C6F63 
 12042      6B696E67 
 12042      00
ARM GAS  /tmp/ccKs28dn.s 			page 214


 12043              	.LASF103:
 12044 0150 4E455443 		.ascii	"NETCONN_UDPNOCHKSUM\000"
 12044      4F4E4E5F 
 12044      5544504E 
 12044      4F43484B 
 12044      53554D00 
 12045              	.LASF78:
 12046 0164 6572725F 		.ascii	"err_t\000"
 12046      7400
 12047              	.LASF183:
 12048 016a 6C6F6361 		.ascii	"local\000"
 12048      6C00
 12049              	.LASF307:
 12050 0170 7564705F 		.ascii	"udp_send\000"
 12050      73656E64 
 12050      00
 12051              	.LASF227:
 12052 0179 73687574 		.ascii	"shut_tx\000"
 12052      5F747800 
 12053              	.LASF72:
 12054 0181 7531365F 		.ascii	"u16_t\000"
 12054      7400
 12055              	.LASF303:
 12056 0187 7564705F 		.ascii	"udp_connect\000"
 12056      636F6E6E 
 12056      65637400 
 12057              	.LASF67:
 12058 0193 77746F62 		.ascii	"wtobjp\000"
 12058      6A7000
 12059              	.LASF315:
 12060 019a 73656E74 		.ascii	"sent_tcp\000"
 12060      5F746370 
 12060      00
 12061              	.LASF142:
 12062 01a3 7263765F 		.ascii	"rcv_ann_right_edge\000"
 12062      616E6E5F 
 12062      72696768 
 12062      745F6564 
 12062      676500
 12063              	.LASF234:
 12064 01b6 646F5F77 		.ascii	"do_writemore\000"
 12064      72697465 
 12064      6D6F7265 
 12064      00
 12065              	.LASF178:
 12066 01c3 70726F74 		.ascii	"protocol\000"
 12066      6F636F6C 
 12066      00
 12067              	.LASF68:
 12068 01cc 65776D61 		.ascii	"ewmask\000"
 12068      736B00
 12069              	.LASF239:
 12070 01d3 706F6C6C 		.ascii	"poll_tcp\000"
 12070      5F746370 
 12070      00
 12071              	.LASF174:
 12072 01dc 6B656570 		.ascii	"keep_cnt_sent\000"
ARM GAS  /tmp/ccKs28dn.s 			page 215


 12072      5F636E74 
 12072      5F73656E 
 12072      7400
 12073              	.LASF291:
 12074 01ea 7379735F 		.ascii	"sys_sem_free\000"
 12074      73656D5F 
 12074      66726565 
 12074      00
 12075              	.LASF64:
 12076 01f7 4D61696C 		.ascii	"Mailbox\000"
 12076      626F7800 
 12077              	.LASF176:
 12078 01ff 72656376 		.ascii	"recv_arg\000"
 12078      5F617267 
 12078      00
 12079              	.LASF190:
 12080 0208 7463705F 		.ascii	"tcp_sent_fn\000"
 12080      73656E74 
 12080      5F666E00 
 12081              	.LASF106:
 12082 0214 6E657463 		.ascii	"netconn_state\000"
 12082      6F6E6E5F 
 12082      73746174 
 12082      6500
 12083              	.LASF305:
 12084 0222 7564705F 		.ascii	"udp_disconnect\000"
 12084      64697363 
 12084      6F6E6E65 
 12084      637400
 12085              	.LASF265:
 12086 0231 7463705F 		.ascii	"tcp_sent\000"
 12086      73656E74 
 12086      00
 12087              	.LASF53:
 12088 023a 735F636E 		.ascii	"s_cnt\000"
 12088      7400
 12089              	.LASF81:
 12090 0240 50425546 		.ascii	"PBUF_TRANSPORT\000"
 12090      5F545241 
 12090      4E53504F 
 12090      525400
 12091              	.LASF230:
 12092 024f 6F6C645F 		.ascii	"old_state\000"
 12092      73746174 
 12092      6500
 12093              	.LASF12:
 12094 0259 75696E74 		.ascii	"uint32_t\000"
 12094      33325F74 
 12094      00
 12095              	.LASF2:
 12096 0262 696E7438 		.ascii	"int8_t\000"
 12096      5F7400
 12097              	.LASF151:
 12098 0269 63776E64 		.ascii	"cwnd\000"
 12098      00
 12099              	.LASF22:
 12100 026e 6576656E 		.ascii	"eventmask_t\000"
ARM GAS  /tmp/ccKs28dn.s 			page 216


 12100      746D6173 
 12100      6B5F7400 
 12101              	.LASF311:
 12102 027a 474E5520 		.ascii	"GNU C 4.7.2\000"
 12102      4320342E 
 12102      372E3200 
 12103              	.LASF216:
 12104 0286 4D454D50 		.ascii	"MEMP_TCPIP_MSG_API\000"
 12104      5F544350 
 12104      49505F4D 
 12104      53475F41 
 12104      504900
 12105              	.LASF117:
 12106 0299 4E455443 		.ascii	"NETCONN_EVT_ERROR\000"
 12106      4F4E4E5F 
 12106      4556545F 
 12106      4552524F 
 12106      5200
 12107              	.LASF20:
 12108 02ab 74707269 		.ascii	"tprio_t\000"
 12108      6F5F7400 
 12109              	.LASF280:
 12110 02b3 70627566 		.ascii	"pbuf_alloc\000"
 12110      5F616C6C 
 12110      6F6300
 12111              	.LASF6:
 12112 02be 696E7431 		.ascii	"int16_t\000"
 12112      365F7400 
 12113              	.LASF279:
 12114 02c6 6E657462 		.ascii	"netbuf_delete\000"
 12114      75665F64 
 12114      656C6574 
 12114      6500
 12115              	.LASF292:
 12116 02d4 7379735F 		.ascii	"sys_sem_set_invalid\000"
 12116      73656D5F 
 12116      7365745F 
 12116      696E7661 
 12116      6C696400 
 12117              	.LASF314:
 12118 02e8 7463705F 		.ascii	"tcp_seg\000"
 12118      73656700 
 12119              	.LASF15:
 12120 02f0 6C6F6E67 		.ascii	"long long unsigned int\000"
 12120      206C6F6E 
 12120      6720756E 
 12120      7369676E 
 12120      65642069 
 12121              	.LASF299:
 12122 0307 7564705F 		.ascii	"udp_bind\000"
 12122      62696E64 
 12122      00
 12123              	.LASF99:
 12124 0310 4E455443 		.ascii	"NETCONN_INVALID\000"
 12124      4F4E4E5F 
 12124      494E5641 
 12124      4C494400 
ARM GAS  /tmp/ccKs28dn.s 			page 217


 12125              	.LASF318:
 12126 0320 63757272 		.ascii	"current_iphdr_src\000"
 12126      656E745F 
 12126      69706864 
 12126      725F7372 
 12126      6300
 12127              	.LASF266:
 12128 0332 7463705F 		.ascii	"tcp_poll\000"
 12128      706F6C6C 
 12128      00
 12129              	.LASF24:
 12130 033b 636E745F 		.ascii	"cnt_t\000"
 12130      7400
 12131              	.LASF145:
 12132 0341 7274696D 		.ascii	"rtime\000"
 12132      6500
 12133              	.LASF284:
 12134 0347 7463705F 		.ascii	"tcp_new\000"
 12134      6E657700 
 12135              	.LASF274:
 12136 034f 7463705F 		.ascii	"tcp_recved\000"
 12136      72656376 
 12136      656400
 12137              	.LASF167:
 12138 035a 72656376 		.ascii	"recv\000"
 12138      00
 12139              	.LASF296:
 12140 035f 7379735F 		.ascii	"sys_sem_valid\000"
 12140      73656D5F 
 12140      76616C69 
 12140      6400
 12141              	.LASF30:
 12142 036d 705F6E65 		.ascii	"p_newer\000"
 12142      77657200 
 12143              	.LASF139:
 12144 0375 7263765F 		.ascii	"rcv_nxt\000"
 12144      6E787400 
 12145              	.LASF268:
 12146 037d 7379735F 		.ascii	"sys_sem_signal\000"
 12146      73656D5F 
 12146      7369676E 
 12146      616C00
 12147              	.LASF217:
 12148 038c 4D454D50 		.ascii	"MEMP_TCPIP_MSG_INPKT\000"
 12148      5F544350 
 12148      49505F4D 
 12148      53475F49 
 12148      4E504B54 
 12149              	.LASF88:
 12150 03a1 50425546 		.ascii	"PBUF_REF\000"
 12150      5F524546 
 12150      00
 12151              	.LASF281:
 12152 03aa 70627566 		.ascii	"pbuf_copy\000"
 12152      5F636F70 
 12152      7900
 12153              	.LASF113:
ARM GAS  /tmp/ccKs28dn.s 			page 218


 12154 03b4 4E455443 		.ascii	"NETCONN_EVT_RCVPLUS\000"
 12154      4F4E4E5F 
 12154      4556545F 
 12154      52435650 
 12154      4C555300 
 12155              	.LASF101:
 12156 03c8 4E455443 		.ascii	"NETCONN_UDP\000"
 12156      4F4E4E5F 
 12156      55445000 
 12157              	.LASF272:
 12158 03d4 7379735F 		.ascii	"sys_mbox_valid\000"
 12158      6D626F78 
 12158      5F76616C 
 12158      696400
 12159              	.LASF204:
 12160 03e3 4C415354 		.ascii	"LAST_ACK\000"
 12160      5F41434B 
 12160      00
 12161              	.LASF94:
 12162 03ec 746F745F 		.ascii	"tot_len\000"
 12162      6C656E00 
 12163              	.LASF182:
 12164 03f4 69706164 		.ascii	"ipaddr\000"
 12164      647200
 12165              	.LASF1:
 12166 03fb 73697A65 		.ascii	"size_t\000"
 12166      5F7400
 12167              	.LASF65:
 12168 0402 7264796D 		.ascii	"rdymsg\000"
 12168      736700
 12169              	.LASF93:
 12170 0409 7061796C 		.ascii	"payload\000"
 12170      6F616400 
 12171              	.LASF82:
 12172 0411 50425546 		.ascii	"PBUF_IP\000"
 12172      5F495000 
 12173              	.LASF168:
 12174 0419 636F6E6E 		.ascii	"connected\000"
 12174      65637465 
 12174      6400
 12175              	.LASF233:
 12176 0423 72656376 		.ascii	"recv_tcp\000"
 12176      5F746370 
 12176      00
 12177              	.LASF91:
 12178 042c 70627566 		.ascii	"pbuf\000"
 12178      00
 12179              	.LASF61:
 12180 0431 6D625F72 		.ascii	"mb_rdptr\000"
 12180      64707472 
 12180      00
 12181              	.LASF180:
 12182 043a 636F6E6E 		.ascii	"conn\000"
 12182      00
 12183              	.LASF89:
 12184 043f 50425546 		.ascii	"PBUF_POOL\000"
 12184      5F504F4F 
ARM GAS  /tmp/ccKs28dn.s 			page 219


 12184      4C00
 12185              	.LASF203:
 12186 0449 434C4F53 		.ascii	"CLOSING\000"
 12186      494E4700 
 12187              	.LASF79:
 12188 0451 7379735F 		.ascii	"sys_sem_t\000"
 12188      73656D5F 
 12188      7400
 12189              	.LASF96:
 12190 045b 666C6167 		.ascii	"flags\000"
 12190      7300
 12191              	.LASF121:
 12192 0461 6C617374 		.ascii	"last_err\000"
 12192      5F657272 
 12192      00
 12193              	.LASF149:
 12194 046a 6C617374 		.ascii	"lastack\000"
 12194      61636B00 
 12195              	.LASF283:
 12196 0472 7261775F 		.ascii	"raw_recv\000"
 12196      72656376 
 12196      00
 12197              	.LASF221:
 12198 047b 4D454D50 		.ascii	"MEMP_MAX\000"
 12198      5F4D4158 
 12198      00
 12199              	.LASF71:
 12200 0484 73385F74 		.ascii	"s8_t\000"
 12200      00
 12201              	.LASF238:
 12202 0489 646F6E74 		.ascii	"dontblock\000"
 12202      626C6F63 
 12202      6B00
 12203              	.LASF285:
 12204 0493 7564705F 		.ascii	"udp_new\000"
 12204      6E657700 
 12205              	.LASF193:
 12206 049b 7463705F 		.ascii	"tcp_connected_fn\000"
 12206      636F6E6E 
 12206      65637465 
 12206      645F666E 
 12206      00
 12207              	.LASF54:
 12208 04ac 4D757465 		.ascii	"Mutex\000"
 12208      7800
 12209              	.LASF63:
 12210 04b2 6D625F65 		.ascii	"mb_emptysem\000"
 12210      6D707479 
 12210      73656D00 
 12211              	.LASF115:
 12212 04be 4E455443 		.ascii	"NETCONN_EVT_SENDPLUS\000"
 12212      4F4E4E5F 
 12212      4556545F 
 12212      53454E44 
 12212      504C5553 
 12213              	.LASF277:
 12214 04d3 7463705F 		.ascii	"tcp_output\000"
ARM GAS  /tmp/ccKs28dn.s 			page 220


 12214      6F757470 
 12214      757400
 12215              	.LASF179:
 12216 04de 6170695F 		.ascii	"api_msg_msg\000"
 12216      6D73675F 
 12216      6D736700 
 12217              	.LASF188:
 12218 04ea 7463705F 		.ascii	"tcp_accept_fn\000"
 12218      61636365 
 12218      70745F66 
 12218      6E00
 12219              	.LASF147:
 12220 04f8 72747365 		.ascii	"rtseq\000"
 12220      7100
 12221              	.LASF114:
 12222 04fe 4E455443 		.ascii	"NETCONN_EVT_RCVMINUS\000"
 12222      4F4E4E5F 
 12222      4556545F 
 12222      5243564D 
 12222      494E5553 
 12223              	.LASF32:
 12224 0513 705F6E61 		.ascii	"p_name\000"
 12224      6D6500
 12225              	.LASF150:
 12226 051a 64757061 		.ascii	"dupacks\000"
 12226      636B7300 
 12227              	.LASF244:
 12228 0522 6E657463 		.ascii	"netconn_free\000"
 12228      6F6E6E5F 
 12228      66726565 
 12228      00
 12229              	.LASF134:
 12230 052f 7072696F 		.ascii	"prio\000"
 12230      00
 12231              	.LASF136:
 12232 0534 61636365 		.ascii	"accept\000"
 12232      707400
 12233              	.LASF219:
 12234 053b 4D454D50 		.ascii	"MEMP_PBUF\000"
 12234      5F504255 
 12234      4600
 12235              	.LASF169:
 12236 0545 706F6C6C 		.ascii	"poll\000"
 12236      00
 12237              	.LASF45:
 12238 054a 54687265 		.ascii	"ThreadsQueue\000"
 12238      61647351 
 12238      75657565 
 12238      00
 12239              	.LASF69:
 12240 0557 63686172 		.ascii	"char\000"
 12240      00
 12241              	.LASF260:
 12242 055c 646F5F77 		.ascii	"do_write\000"
 12242      72697465 
 12242      00
 12243              	.LASF276:
ARM GAS  /tmp/ccKs28dn.s 			page 221


 12244 0565 7463705F 		.ascii	"tcp_write\000"
 12244      77726974 
 12244      6500
 12245              	.LASF241:
 12246 056f 72656376 		.ascii	"recv_raw\000"
 12246      5F726177 
 12246      00
 12247              	.LASF301:
 12248 0578 7261775F 		.ascii	"raw_bind\000"
 12248      62696E64 
 12248      00
 12249              	.LASF158:
 12250 0581 61636B65 		.ascii	"acked\000"
 12250      6400
 12251              	.LASF202:
 12252 0587 434C4F53 		.ascii	"CLOSE_WAIT\000"
 12252      455F5741 
 12252      495400
 12253              	.LASF25:
 12254 0592 54687265 		.ascii	"Thread\000"
 12254      616400
 12255              	.LASF181:
 12256 0599 70726F74 		.ascii	"proto\000"
 12256      6F00
 12257              	.LASF17:
 12258 059f 74737461 		.ascii	"tstate_t\000"
 12258      74655F74 
 12258      00
 12259              	.LASF220:
 12260 05a8 4D454D50 		.ascii	"MEMP_PBUF_POOL\000"
 12260      5F504255 
 12260      465F504F 
 12260      4F4C00
 12261              	.LASF31:
 12262 05b7 705F6F6C 		.ascii	"p_older\000"
 12262      64657200 
 12263              	.LASF33:
 12264 05bf 705F7374 		.ascii	"p_state\000"
 12264      61746500 
 12265              	.LASF166:
 12266 05c7 73656E74 		.ascii	"sent\000"
 12266      00
 12267              	.LASF4:
 12268 05cc 75696E74 		.ascii	"uint8_t\000"
 12268      385F7400 
 12269              	.LASF62:
 12270 05d4 6D625F66 		.ascii	"mb_fullsem\000"
 12270      756C6C73 
 12270      656D00
 12271              	.LASF155:
 12272 05df 736E645F 		.ascii	"snd_wl1\000"
 12272      776C3100 
 12273              	.LASF156:
 12274 05e7 736E645F 		.ascii	"snd_wl2\000"
 12274      776C3200 
 12275              	.LASF44:
 12276 05ef 705F6D70 		.ascii	"p_mpool\000"
ARM GAS  /tmp/ccKs28dn.s 			page 222


 12276      6F6F6C00 
 12277              	.LASF42:
 12278 05f7 705F6D74 		.ascii	"p_mtxlist\000"
 12278      786C6973 
 12278      7400
 12279              	.LASF192:
 12280 0601 7463705F 		.ascii	"tcp_err_fn\000"
 12280      6572725F 
 12280      666E00
 12281              	.LASF124:
 12282 060c 61636365 		.ascii	"acceptmbox\000"
 12282      70746D62 
 12282      6F7800
 12283              	.LASF275:
 12284 0617 70627566 		.ascii	"pbuf_free\000"
 12284      5F667265 
 12284      6500
 12285              	.LASF236:
 12286 0621 77726974 		.ascii	"write_finished\000"
 12286      655F6669 
 12286      6E697368 
 12286      656400
 12287              	.LASF157:
 12288 0630 736E645F 		.ascii	"snd_lbb\000"
 12288      6C626200 
 12289              	.LASF247:
 12290 0638 61636365 		.ascii	"accept_function\000"
 12290      70745F66 
 12290      756E6374 
 12290      696F6E00 
 12291              	.LASF278:
 12292 0648 6D656D70 		.ascii	"memp_malloc\000"
 12292      5F6D616C 
 12292      6C6F6300 
 12293              	.LASF214:
 12294 0654 4D454D50 		.ascii	"MEMP_NETBUF\000"
 12294      5F4E4554 
 12294      42554600 
 12295              	.LASF14:
 12296 0660 6C6F6E67 		.ascii	"long long int\000"
 12296      206C6F6E 
 12296      6720696E 
 12296      7400
 12297              	.LASF287:
 12298 066e 7379735F 		.ascii	"sys_sem_new\000"
 12298      73656D5F 
 12298      6E657700 
 12299              	.LASF310:
 12300 067a 7261775F 		.ascii	"raw_sendto\000"
 12300      73656E64 
 12300      746F00
 12301              	.LASF251:
 12302 0685 646F5F63 		.ascii	"do_connect\000"
 12302      6F6E6E65 
 12302      637400
 12303              	.LASF173:
 12304 0690 70657273 		.ascii	"persist_backoff\000"
ARM GAS  /tmp/ccKs28dn.s 			page 223


 12304      6973745F 
 12304      6261636B 
 12304      6F666600 
 12305              	.LASF21:
 12306 06a0 6D73675F 		.ascii	"msg_t\000"
 12306      7400
 12307              	.LASF229:
 12308 06a6 6572725F 		.ascii	"err_tcp\000"
 12308      74637000 
 12309              	.LASF205:
 12310 06ae 54494D45 		.ascii	"TIME_WAIT\000"
 12310      5F574149 
 12310      5400
 12311              	.LASF49:
 12312 06b8 636F6E74 		.ascii	"context\000"
 12312      65787400 
 12313              	.LASF70:
 12314 06c0 75385F74 		.ascii	"u8_t\000"
 12314      00
 12315              	.LASF245:
 12316 06c5 6E657463 		.ascii	"netconn_drain\000"
 12316      6F6E6E5F 
 12316      64726169 
 12316      6E00
 12317              	.LASF206:
 12318 06d3 7261775F 		.ascii	"raw_recv_fn\000"
 12318      72656376 
 12318      5F666E00 
 12319              	.LASF34:
 12320 06df 705F666C 		.ascii	"p_flags\000"
 12320      61677300 
 12321              	.LASF294:
 12322 06e7 7379735F 		.ascii	"sys_arch_mbox_tryfetch\000"
 12322      61726368 
 12322      5F6D626F 
 12322      785F7472 
 12322      79666574 
 12323              	.LASF306:
 12324 06fe 7463705F 		.ascii	"tcp_listen_with_backlog\000"
 12324      6C697374 
 12324      656E5F77 
 12324      6974685F 
 12324      6261636B 
 12325              	.LASF267:
 12326 0716 7463705F 		.ascii	"tcp_err\000"
 12326      65727200 
 12327              	.LASF224:
 12328 071e 73657475 		.ascii	"setup_tcp\000"
 12328      705F7463 
 12328      7000
 12329              	.LASF138:
 12330 0728 72656D6F 		.ascii	"remote_port\000"
 12330      74655F70 
 12330      6F727400 
 12331              	.LASF242:
 12332 0734 73697A65 		.ascii	"size\000"
 12332      00
ARM GAS  /tmp/ccKs28dn.s 			page 224


 12333              	.LASF59:
 12334 0739 6D625F74 		.ascii	"mb_top\000"
 12334      6F7000
 12335              	.LASF269:
 12336 0740 7463705F 		.ascii	"tcp_shutdown\000"
 12336      73687574 
 12336      646F776E 
 12336      00
 12337              	.LASF141:
 12338 074d 7263765F 		.ascii	"rcv_ann_wnd\000"
 12338      616E6E5F 
 12338      776E6400 
 12339              	.LASF313:
 12340 0759 2F686F6D 		.ascii	"/home/kwilson/Sandbox/ChibiOS_2.5.1/demos/ARMCM4-ST"
 12340      652F6B77 
 12340      696C736F 
 12340      6E2F5361 
 12340      6E64626F 
 12341 078c 4D333246 		.ascii	"M32F407-LWIP-FATFS-USB\000"
 12341      3430372D 
 12341      4C574950 
 12341      2D464154 
 12341      46532D55 
 12342              	.LASF19:
 12343 07a3 74736C69 		.ascii	"tslices_t\000"
 12343      6365735F 
 12343      7400
 12344              	.LASF212:
 12345 07ad 4D454D50 		.ascii	"MEMP_REASSDATA\000"
 12345      5F524541 
 12345      53534441 
 12345      544100
 12346              	.LASF189:
 12347 07bc 7463705F 		.ascii	"tcp_recv_fn\000"
 12347      72656376 
 12347      5F666E00 
 12348              	.LASF83:
 12349 07c8 50425546 		.ascii	"PBUF_LINK\000"
 12349      5F4C494E 
 12349      4B00
 12350              	.LASF228:
 12351 07d2 636C6F73 		.ascii	"close\000"
 12351      6500
 12352              	.LASF293:
 12353 07d8 7463705F 		.ascii	"tcp_abort\000"
 12353      61626F72 
 12353      7400
 12354              	.LASF231:
 12355 07e2 7761735F 		.ascii	"was_nonblocking_connect\000"
 12355      6E6F6E62 
 12355      6C6F636B 
 12355      696E675F 
 12355      636F6E6E 
 12356              	.LASF40:
 12357 07fa 705F6D73 		.ascii	"p_msg\000"
 12357      6700
 12358              	.LASF184:
ARM GAS  /tmp/ccKs28dn.s 			page 225


 12359 0800 64617461 		.ascii	"dataptr\000"
 12359      70747200 
 12360              	.LASF16:
 12361 0808 746D6F64 		.ascii	"tmode_t\000"
 12361      655F7400 
 12362              	.LASF191:
 12363 0810 7463705F 		.ascii	"tcp_poll_fn\000"
 12363      706F6C6C 
 12363      5F666E00 
 12364              	.LASF273:
 12365 081c 7379735F 		.ascii	"sys_mbox_trypost\000"
 12365      6D626F78 
 12365      5F747279 
 12365      706F7374 
 12365      00
 12366              	.LASF8:
 12367 082d 75696E74 		.ascii	"uint16_t\000"
 12367      31365F74 
 12367      00
 12368              	.LASF107:
 12369 0836 4E455443 		.ascii	"NETCONN_NONE\000"
 12369      4F4E4E5F 
 12369      4E4F4E45 
 12369      00
 12370              	.LASF170:
 12371 0843 65727266 		.ascii	"errf\000"
 12371      00
 12372              	.LASF48:
 12373 0848 696E7463 		.ascii	"intctx\000"
 12373      747800
 12374              	.LASF154:
 12375 084f 736E645F 		.ascii	"snd_wnd\000"
 12375      776E6400 
 12376              	.LASF271:
 12377 0857 7463705F 		.ascii	"tcp_accept\000"
 12377      61636365 
 12377      707400
 12378              	.LASF105:
 12379 0862 6E657463 		.ascii	"netconn_type\000"
 12379      6F6E6E5F 
 12379      74797065 
 12379      00
 12380              	.LASF110:
 12381 086f 4E455443 		.ascii	"NETCONN_CONNECT\000"
 12381      4F4E4E5F 
 12381      434F4E4E 
 12381      45435400 
 12382              	.LASF164:
 12383 087f 6F6F7365 		.ascii	"ooseq\000"
 12383      7100
 12384              	.LASF250:
 12385 0885 646F5F62 		.ascii	"do_bind\000"
 12385      696E6400 
 12386              	.LASF43:
 12387 088d 705F7265 		.ascii	"p_realprio\000"
 12387      616C7072 
 12387      696F00
ARM GAS  /tmp/ccKs28dn.s 			page 226


 12388              	.LASF195:
 12389 0898 434C4F53 		.ascii	"CLOSED\000"
 12389      454400
 12390              	.LASF187:
 12391 089f 7564705F 		.ascii	"udp_recv_fn\000"
 12391      72656376 
 12391      5F666E00 
 12392              	.LASF74:
 12393 08ab 7533325F 		.ascii	"u32_t\000"
 12393      7400
 12394              	.LASF7:
 12395 08b1 73686F72 		.ascii	"short int\000"
 12395      7420696E 
 12395      7400
 12396              	.LASF60:
 12397 08bb 6D625F77 		.ascii	"mb_wrptr\000"
 12397      72707472 
 12397      00
 12398              	.LASF185:
 12399 08c4 61706966 		.ascii	"apiflags\000"
 12399      6C616773 
 12399      00
 12400              	.LASF41:
 12401 08cd 705F6570 		.ascii	"p_epending\000"
 12401      656E6469 
 12401      6E6700
 12402              	.LASF55:
 12403 08d8 6D5F7175 		.ascii	"m_queue\000"
 12403      65756500 
 12404              	.LASF256:
 12405 08e0 646F5F73 		.ascii	"do_send\000"
 12405      656E6400 
 12406              	.LASF11:
 12407 08e8 6C6F6E67 		.ascii	"long int\000"
 12407      20696E74 
 12407      00
 12408              	.LASF235:
 12409 08f1 61766169 		.ascii	"available\000"
 12409      6C61626C 
 12409      6500
 12410              	.LASF162:
 12411 08fb 756E7365 		.ascii	"unsent\000"
 12411      6E7400
 12412              	.LASF140:
 12413 0902 7263765F 		.ascii	"rcv_wnd\000"
 12413      776E6400 
 12414              	.LASF146:
 12415 090a 72747465 		.ascii	"rttest\000"
 12415      737400
 12416              	.LASF237:
 12417 0911 64696666 		.ascii	"diff\000"
 12417      00
 12418              	.LASF127:
 12419 0916 63757272 		.ascii	"current_msg\000"
 12419      656E745F 
 12419      6D736700 
 12420              	.LASF295:
ARM GAS  /tmp/ccKs28dn.s 			page 227


 12421 0922 7379735F 		.ascii	"sys_mbox_free\000"
 12421      6D626F78 
 12421      5F667265 
 12421      6500
 12422              	.LASF218:
 12423 0930 4D454D50 		.ascii	"MEMP_SYS_TIMEOUT\000"
 12423      5F535953 
 12423      5F54494D 
 12423      454F5554 
 12423      00
 12424              	.LASF26:
 12425 0941 705F6E65 		.ascii	"p_next\000"
 12425      787400
 12426              	.LASF208:
 12427 0948 4D454D50 		.ascii	"MEMP_UDP_PCB\000"
 12427      5F554450 
 12427      5F504342 
 12427      00
 12428              	.LASF130:
 12429 0955 6C6F6361 		.ascii	"local_ip\000"
 12429      6C5F6970 
 12429      00
 12430              	.LASF270:
 12431 095e 7463705F 		.ascii	"tcp_close\000"
 12431      636C6F73 
 12431      6500
 12432              	.LASF29:
 12433 0968 705F6374 		.ascii	"p_ctx\000"
 12433      7800
 12434              	.LASF317:
 12435 096e 6E657463 		.ascii	"netconn_alloc\000"
 12435      6F6E6E5F 
 12435      616C6C6F 
 12435      6300
 12436              	.LASF161:
 12437 097c 756E7365 		.ascii	"unsent_oversize\000"
 12437      6E745F6F 
 12437      76657273 
 12437      697A6500 
 12438              	.LASF258:
 12439 098c 72656D61 		.ascii	"remaining\000"
 12439      696E696E 
 12439      6700
 12440              	.LASF243:
 12441 0996 646F5F6E 		.ascii	"do_newconn\000"
 12441      6577636F 
 12441      6E6E00
 12442              	.LASF125:
 12443 09a1 736F636B 		.ascii	"socket\000"
 12443      657400
 12444              	.LASF153:
 12445 09a8 736E645F 		.ascii	"snd_nxt\000"
 12445      6E787400 
 12446              	.LASF199:
 12447 09b0 45535441 		.ascii	"ESTABLISHED\000"
 12447      424C4953 
 12447      48454400 
ARM GAS  /tmp/ccKs28dn.s 			page 228


 12448              	.LASF51:
 12449 09bc 53656D61 		.ascii	"Semaphore\000"
 12449      70686F72 
 12449      6500
 12450              	.LASF97:
 12451 09c6 6E657462 		.ascii	"netbuf\000"
 12451      756600
 12452              	.LASF213:
 12453 09cd 4D454D50 		.ascii	"MEMP_FRAG_PBUF\000"
 12453      5F465241 
 12453      475F5042 
 12453      554600
 12454              	.LASF261:
 12455 09dc 646F5F67 		.ascii	"do_getaddr\000"
 12455      65746164 
 12455      647200
 12456              	.LASF152:
 12457 09e7 73737468 		.ascii	"ssthresh\000"
 12457      72657368 
 12457      00
 12458              	.LASF159:
 12459 09f0 736E645F 		.ascii	"snd_buf\000"
 12459      62756600 
 12460              	.LASF144:
 12461 09f8 706F6C6C 		.ascii	"pollinterval\000"
 12461      696E7465 
 12461      7276616C 
 12461      00
 12462              	.LASF207:
 12463 0a05 4D454D50 		.ascii	"MEMP_RAW_PCB\000"
 12463      5F524157 
 12463      5F504342 
 12463      00
 12464              	.LASF257:
 12465 0a12 646F5F72 		.ascii	"do_recv\000"
 12465      65637600 
 12466              	.LASF27:
 12467 0a1a 705F7072 		.ascii	"p_prev\000"
 12467      657600
 12468              	.LASF50:
 12469 0a21 73697A65 		.ascii	"sizetype\000"
 12469      74797065 
 12469      00
 12470              	.LASF18:
 12471 0a2a 74726566 		.ascii	"trefs_t\000"
 12471      735F7400 
 12472              	.LASF13:
 12473 0a32 6C6F6E67 		.ascii	"long unsigned int\000"
 12473      20756E73 
 12473      69676E65 
 12473      6420696E 
 12473      7400
 12474              	.LASF58:
 12475 0a44 6D625F62 		.ascii	"mb_buffer\000"
 12475      75666665 
 12475      7200
 12476              	.LASF225:
ARM GAS  /tmp/ccKs28dn.s 			page 229


 12477 0a4e 646F5F63 		.ascii	"do_close_internal\000"
 12477      6C6F7365 
 12477      5F696E74 
 12477      65726E61 
 12477      6C00
 12478              	.LASF209:
 12479 0a60 4D454D50 		.ascii	"MEMP_TCP_PCB\000"
 12479      5F544350 
 12479      5F504342 
 12479      00
 12480              	.LASF240:
 12481 0a6d 72656376 		.ascii	"recv_udp\000"
 12481      5F756470 
 12481      00
 12482              	.LASF73:
 12483 0a76 7331365F 		.ascii	"s16_t\000"
 12483      7400
 12484              	.LASF10:
 12485 0a7c 696E7433 		.ascii	"int32_t\000"
 12485      325F7400 
 12486              	.LASF85:
 12487 0a84 70627566 		.ascii	"pbuf_layer\000"
 12487      5F6C6179 
 12487      657200
 12488              	.LASF98:
 12489 0a8f 706F7274 		.ascii	"port\000"
 12489      00
 12490              	.LASF165:
 12491 0a94 72656675 		.ascii	"refused_data\000"
 12491      7365645F 
 12491      64617461 
 12491      00
 12492              	.LASF248:
 12493 0aa1 6E657770 		.ascii	"newpcb\000"
 12493      636200
 12494              	.LASF112:
 12495 0aa8 6E657463 		.ascii	"netconn_evt\000"
 12495      6F6E6E5F 
 12495      65767400 
 12496              	.LASF286:
 12497 0ab4 7564705F 		.ascii	"udp_recv\000"
 12497      72656376 
 12497      00
 12498              	.LASF118:
 12499 0abd 6E657463 		.ascii	"netconn_callback\000"
 12499      6F6E6E5F 
 12499      63616C6C 
 12499      6261636B 
 12499      00
 12500              	.LASF232:
 12501 0ace 646F5F63 		.ascii	"do_connected\000"
 12501      6F6E6E65 
 12501      63746564 
 12501      00
 12502              	.LASF211:
 12503 0adb 4D454D50 		.ascii	"MEMP_TCP_SEG\000"
 12503      5F544350 
ARM GAS  /tmp/ccKs28dn.s 			page 230


 12503      5F534547 
 12503      00
 12504              	.LASF95:
 12505 0ae8 74797065 		.ascii	"type\000"
 12505      00
 12506              	.LASF5:
 12507 0aed 756E7369 		.ascii	"unsigned char\000"
 12507      676E6564 
 12507      20636861 
 12507      7200
 12508              	.LASF254:
 12509 0afb 646F5F6C 		.ascii	"do_listen\000"
 12509      69737465 
 12509      6E00
 12510              	.LASF200:
 12511 0b05 46494E5F 		.ascii	"FIN_WAIT_1\000"
 12511      57414954 
 12511      5F3100
 12512              	.LASF201:
 12513 0b10 46494E5F 		.ascii	"FIN_WAIT_2\000"
 12513      57414954 
 12513      5F3200
 12514              	.LASF163:
 12515 0b1b 756E6163 		.ascii	"unacked\000"
 12515      6B656400 
 12516              	.LASF35:
 12517 0b23 705F7265 		.ascii	"p_refs\000"
 12517      667300
 12518              	.LASF116:
 12519 0b2a 4E455443 		.ascii	"NETCONN_EVT_SENDMINUS\000"
 12519      4F4E4E5F 
 12519      4556545F 
 12519      53454E44 
 12519      4D494E55 
 12520              	.LASF129:
 12521 0b40 69705F70 		.ascii	"ip_pcb\000"
 12521      636200
 12522              	.LASF100:
 12523 0b47 4E455443 		.ascii	"NETCONN_TCP\000"
 12523      4F4E4E5F 
 12523      54435000 
 12524              	.LASF197:
 12525 0b53 53594E5F 		.ascii	"SYN_SENT\000"
 12525      53454E54 
 12525      00
 12526              	.LASF186:
 12527 0b5c 73687574 		.ascii	"shut\000"
 12527      00
 12528              	.LASF171:
 12529 0b61 6B656570 		.ascii	"keep_idle\000"
 12529      5F69646C 
 12529      6500
 12530              	.LASF109:
 12531 0b6b 4E455443 		.ascii	"NETCONN_LISTEN\000"
 12531      4F4E4E5F 
 12531      4C495354 
 12531      454E00
ARM GAS  /tmp/ccKs28dn.s 			page 231


 12532              	.LASF135:
 12533 0b7a 63616C6C 		.ascii	"callback_arg\000"
 12533      6261636B 
 12533      5F617267 
 12533      00
 12534              	.LASF319:
 12535 0b87 706F7274 		.ascii	"port_halt\000"
 12535      5F68616C 
 12535      7400
 12536              	.LASF196:
 12537 0b91 4C495354 		.ascii	"LISTEN\000"
 12537      454E00
 12538              	.LASF36:
 12539 0b98 705F7072 		.ascii	"p_preempt\000"
 12539      65656D70 
 12539      7400
 12540              	.LASF263:
 12541 0ba2 7463705F 		.ascii	"tcp_arg\000"
 12541      61726700 
 12542              	.LASF126:
 12543 0baa 77726974 		.ascii	"write_offset\000"
 12543      655F6F66 
 12543      66736574 
 12543      00
 12544              	.LASF76:
 12545 0bb7 61646472 		.ascii	"addr\000"
 12545      00
 12546              	.LASF302:
 12547 0bbc 7261775F 		.ascii	"raw_connect\000"
 12547      636F6E6E 
 12547      65637400 
 12548              	.LASF120:
 12549 0bc8 73746174 		.ascii	"state\000"
 12549      6500
 12550              	.LASF264:
 12551 0bce 7463705F 		.ascii	"tcp_recv\000"
 12551      72656376 
 12551      00
 12552              	.LASF298:
 12553 0bd7 7261775F 		.ascii	"raw_remove\000"
 12553      72656D6F 
 12553      766500
 12554              	.LASF128:
 12555 0be2 63616C6C 		.ascii	"callback\000"
 12555      6261636B 
 12555      00
 12556              	.LASF160:
 12557 0beb 736E645F 		.ascii	"snd_queuelen\000"
 12557      71756575 
 12557      656C656E 
 12557      00
 12558              	.LASF288:
 12559 0bf8 7379735F 		.ascii	"sys_mbox_new\000"
 12559      6D626F78 
 12559      5F6E6577 
 12559      00
 12560              	.LASF255:
ARM GAS  /tmp/ccKs28dn.s 			page 232


 12561 0c05 6C706362 		.ascii	"lpcb\000"
 12561      00
 12562              	.LASF223:
 12563 0c0a 7761735F 		.ascii	"was_blocking\000"
 12563      626C6F63 
 12563      6B696E67 
 12563      00
 12564              	.LASF297:
 12565 0c17 7564705F 		.ascii	"udp_remove\000"
 12565      72656D6F 
 12565      766500
 12566              	.LASF316:
 12567 0c22 7063625F 		.ascii	"pcb_new\000"
 12567      6E657700 
 12568              	.LASF290:
 12569 0c2a 6D656D70 		.ascii	"memp_free\000"
 12569      5F667265 
 12569      6500
 12570              	.LASF262:
 12571 0c34 646F5F63 		.ascii	"do_close\000"
 12571      6C6F7365 
 12571      00
 12572              	.LASF111:
 12573 0c3d 4E455443 		.ascii	"NETCONN_CLOSE\000"
 12573      4F4E4E5F 
 12573      434C4F53 
 12573      4500
 12574              	.LASF57:
 12575 0c4b 6D5F6E65 		.ascii	"m_next\000"
 12575      787400
 12576              	.LASF246:
 12577 0c52 6E657763 		.ascii	"newconn\000"
 12577      6F6E6E00 
 12578              	.LASF3:
 12579 0c5a 7369676E 		.ascii	"signed char\000"
 12579      65642063 
 12579      68617200 
 12580              	.LASF133:
 12581 0c66 7463705F 		.ascii	"tcp_pcb\000"
 12581      70636200 
 12582              	.LASF9:
 12583 0c6e 73686F72 		.ascii	"short unsigned int\000"
 12583      7420756E 
 12583      7369676E 
 12583      65642069 
 12583      6E7400
 12584              	.LASF104:
 12585 0c81 4E455443 		.ascii	"NETCONN_RAW\000"
 12585      4F4E4E5F 
 12585      52415700 
 12586              	.LASF259:
 12587 0c8d 72656376 		.ascii	"recved\000"
 12587      656400
 12588              	.LASF102:
 12589 0c94 4E455443 		.ascii	"NETCONN_UDPLITE\000"
 12589      4F4E4E5F 
 12589      5544504C 
ARM GAS  /tmp/ccKs28dn.s 			page 233


 12589      49544500 
 12590              	.LASF172:
 12591 0ca4 70657273 		.ascii	"persist_cnt\000"
 12591      6973745F 
 12591      636E7400 
 12592              	.LASF131:
 12593 0cb0 72656D6F 		.ascii	"remote_ip\000"
 12593      74655F69 
 12593      7000
 12594              	.LASF122:
 12595 0cba 6F705F63 		.ascii	"op_completed\000"
 12595      6F6D706C 
 12595      65746564 
 12595      00
 12596              	.LASF77:
 12597 0cc7 69705F61 		.ascii	"ip_addr_t\000"
 12597      6464725F 
 12597      7400
 12598              	.LASF119:
 12599 0cd1 6E657463 		.ascii	"netconn\000"
 12599      6F6E6E00 
 12600              	.LASF194:
 12601 0cd9 7463705F 		.ascii	"tcp_state\000"
 12601      73746174 
 12601      6500
 12602              	.LASF222:
 12603 0ce3 6D656D70 		.ascii	"memp_t\000"
 12603      5F7400
 12604              	.LASF87:
 12605 0cea 50425546 		.ascii	"PBUF_ROM\000"
 12605      5F524F4D 
 12605      00
 12606              	.LASF226:
 12607 0cf3 73687574 		.ascii	"shut_rx\000"
 12607      5F727800 
 12608              	.LASF215:
 12609 0cfb 4D454D50 		.ascii	"MEMP_NETCONN\000"
 12609      5F4E4554 
 12609      434F4E4E 
 12609      00
 12610              	.LASF148:
 12611 0d08 6E727478 		.ascii	"nrtx\000"
 12611      00
 12612              	.LASF66:
 12613 0d0d 65786974 		.ascii	"exitcode\000"
 12613      636F6465 
 12613      00
 12614              	.LASF312:
 12615 0d16 2E2E2F2E 		.ascii	"../../ext/lwip/src/api/api_msg.c\000"
 12615      2E2F6578 
 12615      742F6C77 
 12615      69702F73 
 12615      72632F61 
 12616              	.LASF198:
 12617 0d37 53594E5F 		.ascii	"SYN_RCVD\000"
 12617      52435644 
 12617      00
ARM GAS  /tmp/ccKs28dn.s 			page 234


 12618              	.LASF75:
 12619 0d40 69705F61 		.ascii	"ip_addr\000"
 12619      64647200 
 12620              		.ident	"GCC: (crosstool-NG 1.17.0 - PSAS ST32F4 GFE) 4.7.2"
ARM GAS  /tmp/ccKs28dn.s 			page 235


DEFINED SYMBOLS
                            *ABS*:0000000000000000 api_msg.c
     /tmp/ccKs28dn.s:21     .text.setup_tcp:0000000000000000 $t
     /tmp/ccKs28dn.s:26     .text.setup_tcp:0000000000000000 setup_tcp
     /tmp/ccKs28dn.s:674    .text.recv_tcp:0000000000000000 recv_tcp
     /tmp/ccKs28dn.s:1445   .text.sent_tcp:0000000000000000 sent_tcp
     /tmp/ccKs28dn.s:1088   .text.poll_tcp:0000000000000000 poll_tcp
     /tmp/ccKs28dn.s:505    .text.err_tcp:0000000000000000 err_tcp
     /tmp/ccKs28dn.s:80     .text.do_connected:0000000000000000 $t
     /tmp/ccKs28dn.s:85     .text.do_connected:0000000000000000 do_connected
     /tmp/ccKs28dn.s:215    .text.do_close_internal:0000000000000000 $t
     /tmp/ccKs28dn.s:220    .text.do_close_internal:0000000000000000 do_close_internal
     /tmp/ccKs28dn.s:493    .text.do_close_internal:0000000000000144 $d
     /tmp/ccKs28dn.s:500    .text.err_tcp:0000000000000000 $t
     /tmp/ccKs28dn.s:669    .text.recv_tcp:0000000000000000 $t
     /tmp/ccKs28dn.s:806    .text.do_writemore:0000000000000000 $t
     /tmp/ccKs28dn.s:811    .text.do_writemore:0000000000000000 do_writemore
     /tmp/ccKs28dn.s:1083   .text.poll_tcp:0000000000000000 $t
     /tmp/ccKs28dn.s:1167   .text.recv_udp:0000000000000000 $t
     /tmp/ccKs28dn.s:1172   .text.recv_udp:0000000000000000 recv_udp
     /tmp/ccKs28dn.s:1310   .text.recv_raw:0000000000000000 $t
     /tmp/ccKs28dn.s:1315   .text.recv_raw:0000000000000000 recv_raw
     /tmp/ccKs28dn.s:1434   .text.recv_raw:0000000000000084 $d
     /tmp/ccKs28dn.s:1440   .text.sent_tcp:0000000000000000 $t
     /tmp/ccKs28dn.s:1529   .text.do_newconn:0000000000000000 $t
     /tmp/ccKs28dn.s:1535   .text.do_newconn:0000000000000000 do_newconn
     /tmp/ccKs28dn.s:1655   .text.do_newconn:0000000000000090 $d
     /tmp/ccKs28dn.s:1663   .text.netconn_alloc:0000000000000000 $t
     /tmp/ccKs28dn.s:1669   .text.netconn_alloc:0000000000000000 netconn_alloc
     /tmp/ccKs28dn.s:1799   .text.netconn_free:0000000000000000 $t
     /tmp/ccKs28dn.s:1805   .text.netconn_free:0000000000000000 netconn_free
     /tmp/ccKs28dn.s:1870   .text.netconn_drain:0000000000000000 $t
     /tmp/ccKs28dn.s:1875   .text.netconn_drain:0000000000000000 netconn_drain
     /tmp/ccKs28dn.s:2029   .text.accept_function:0000000000000000 $t
     /tmp/ccKs28dn.s:2034   .text.accept_function:0000000000000000 accept_function
     /tmp/ccKs28dn.s:2145   .text.do_delconn:0000000000000000 $t
     /tmp/ccKs28dn.s:2151   .text.do_delconn:0000000000000000 do_delconn
     /tmp/ccKs28dn.s:2334   .text.do_bind:0000000000000000 $t
     /tmp/ccKs28dn.s:2340   .text.do_bind:0000000000000000 do_bind
     /tmp/ccKs28dn.s:2421   .text.do_connect:0000000000000000 $t
     /tmp/ccKs28dn.s:2427   .text.do_connect:0000000000000000 do_connect
     /tmp/ccKs28dn.s:2567   .text.do_connect:00000000000000a4 $d
     /tmp/ccKs28dn.s:2573   .text.do_disconnect:0000000000000000 $t
     /tmp/ccKs28dn.s:2579   .text.do_disconnect:0000000000000000 do_disconnect
     /tmp/ccKs28dn.s:2625   .text.do_listen:0000000000000000 $t
     /tmp/ccKs28dn.s:2631   .text.do_listen:0000000000000000 do_listen
     /tmp/ccKs28dn.s:2777   .text.do_listen:00000000000000b0 $d
     /tmp/ccKs28dn.s:2783   .text.do_send:0000000000000000 $t
     /tmp/ccKs28dn.s:2789   .text.do_send:0000000000000000 do_send
     /tmp/ccKs28dn.s:2888   .text.do_recv:0000000000000000 $t
     /tmp/ccKs28dn.s:2894   .text.do_recv:0000000000000000 do_recv
     /tmp/ccKs28dn.s:2969   .text.do_write:0000000000000000 $t
     /tmp/ccKs28dn.s:2975   .text.do_write:0000000000000000 do_write
     /tmp/ccKs28dn.s:3084   .text.do_getaddr:0000000000000000 $t
     /tmp/ccKs28dn.s:3090   .text.do_getaddr:0000000000000000 do_getaddr
     /tmp/ccKs28dn.s:3215   .text.do_close:0000000000000000 $t
     /tmp/ccKs28dn.s:3221   .text.do_close:0000000000000000 do_close
ARM GAS  /tmp/ccKs28dn.s 			page 236


                     .debug_frame:0000000000000010 $d
     /tmp/ccKs28dn.s:1439   .text.recv_raw:0000000000000088 $t
     /tmp/ccKs28dn.s:1662   .text.do_newconn:0000000000000098 $t
     /tmp/ccKs28dn.s:2572   .text.do_connect:00000000000000a8 $t
     /tmp/ccKs28dn.s:2782   .text.do_listen:00000000000000b4 $t

UNDEFINED SYMBOLS
tcp_arg
tcp_recv
tcp_sent
tcp_poll
tcp_err
port_halt
sys_sem_signal
tcp_shutdown
tcp_close
tcp_accept
sys_mbox_valid
sys_mbox_trypost
tcp_recved
pbuf_free
tcp_write
tcp_output
memp_malloc
netbuf_delete
pbuf_alloc
pbuf_copy
current_iphdr_src
tcp_new
raw_new
raw_recv
udp_new
udp_recv
sys_sem_new
sys_mbox_new
sys_mbox_set_invalid
memp_free
sys_sem_free
sys_sem_set_invalid
sys_arch_mbox_tryfetch
sys_mbox_free
tcp_abort
sys_sem_valid
udp_remove
raw_remove
udp_bind
tcp_bind
raw_bind
raw_connect
udp_connect
tcp_connect
udp_disconnect
tcp_listen_with_backlog
udp_send
raw_send
udp_sendto
raw_sendto
ARM GAS  /tmp/ccKs28dn.s 			page 237


