ARM GAS  /tmp/ccMZ2PH5.s 			page 1


   1              		.syntax unified
   2              		.cpu cortex-m4
   3              		.eabi_attribute 27, 3
   4              		.eabi_attribute 28, 1
   5              		.fpu fpv4-sp-d16
   6              		.eabi_attribute 20, 1
   7              		.eabi_attribute 21, 1
   8              		.eabi_attribute 23, 3
   9              		.eabi_attribute 24, 1
  10              		.eabi_attribute 25, 1
  11              		.eabi_attribute 26, 1
  12              		.eabi_attribute 30, 2
  13              		.eabi_attribute 34, 1
  14              		.eabi_attribute 18, 4
  15              		.thumb
  16              		.file	"board.c"
  17              		.text
  18              	.Ltext0:
  19              		.cfi_sections	.debug_frame
  20              		.section	.text.__early_init,"ax",%progbits
  21              		.align	2
  22              		.p2align 4,,15
  23              		.global	__early_init
  24              		.thumb
  25              		.thumb_func
  26              		.type	__early_init, %function
  27              	__early_init:
  28              	.LFB118:
  29              		.file 1 "../../boards/OLIMEX_STM32_E407/board.c"
  30              		.loc 1 58 0
  31              		.cfi_startproc
  32              		@ args = 0, pretend = 0, frame = 0
  33              		@ frame_needed = 0, uses_anonymous_args = 0
  34              		@ link register save eliminated.
  35              		.loc 1 61 0
  36              		.loc 1 60 0
  37 0000 FFF7FEBF 		b	stm32_clock_init
  38              	.LVL0:
  39              		.cfi_endproc
  40              	.LFE118:
  41              		.size	__early_init, .-__early_init
  42 0004 AFF30080 		.section	.text.sdc_lld_is_card_inserted,"ax",%progbits
  42      AFF30080 
  42      AFF30080 
  43              		.align	2
  44              		.p2align 4,,15
  45              		.global	sdc_lld_is_card_inserted
  46              		.thumb
  47              		.thumb_func
  48              		.type	sdc_lld_is_card_inserted, %function
  49              	sdc_lld_is_card_inserted:
  50              	.LFB119:
  51              		.loc 1 67 0
  52              		.cfi_startproc
  53              		@ args = 0, pretend = 0, frame = 0
  54              		@ frame_needed = 0, uses_anonymous_args = 0
  55              		@ link register save eliminated.
ARM GAS  /tmp/ccMZ2PH5.s 			page 2


  56              	.LVL1:
  57              		.loc 1 70 0
  58 0000 0379     		ldrb	r3, [r0, #4]	@ zero_extendqisi2
  59 0002 DA1E     		subs	r2, r3, #3
  60 0004 062B     		cmp	r3, #6
  61 0006 18BF     		it	ne
  62 0008 012A     		cmpne	r2, #1
  63 000a 0BD9     		bls	.L3
  64              		.loc 1 70 0 is_stmt 0 discriminator 1
  65 000c 072B     		cmp	r3, #7
  66 000e 09D0     		beq	.L3
  67              		.loc 1 72 0 is_stmt 1
  68 0010 4FF40063 		mov	r3, #2048
  69 0014 C4F20203 		movt	r3, 16386
  70 0018 1869     		ldr	r0, [r3, #16]
  71              	.LVL2:
  72 001a 044B     		ldr	r3, .L7
  73 001c C0F3C020 		ubfx	r0, r0, #11, #1
  74 0020 1860     		str	r0, [r3, #0]
  75              		.loc 1 73 0
  76 0022 7047     		bx	lr
  77              	.LVL3:
  78              	.L3:
  79              		.loc 1 71 0
  80 0024 014B     		ldr	r3, .L7
  81 0026 1868     		ldr	r0, [r3, #0]
  82              	.LVL4:
  83 0028 7047     		bx	lr
  84              	.L8:
  85 002a 00BF     		.align	2
  86              	.L7:
  87 002c 00000000 		.word	.LANCHOR0
  88              		.cfi_endproc
  89              	.LFE119:
  90              		.size	sdc_lld_is_card_inserted, .-sdc_lld_is_card_inserted
  91              		.section	.text.sdc_lld_is_write_protected,"ax",%progbits
  92              		.align	2
  93              		.p2align 4,,15
  94              		.global	sdc_lld_is_write_protected
  95              		.thumb
  96              		.thumb_func
  97              		.type	sdc_lld_is_write_protected, %function
  98              	sdc_lld_is_write_protected:
  99              	.LFB120:
 100              		.loc 1 78 0
 101              		.cfi_startproc
 102              		@ args = 0, pretend = 0, frame = 0
 103              		@ frame_needed = 0, uses_anonymous_args = 0
 104              		@ link register save eliminated.
 105              	.LVL5:
 106              		.loc 1 82 0
 107 0000 0020     		movs	r0, #0
 108              	.LVL6:
 109 0002 7047     		bx	lr
 110              		.cfi_endproc
 111              	.LFE120:
 112              		.size	sdc_lld_is_write_protected, .-sdc_lld_is_write_protected
ARM GAS  /tmp/ccMZ2PH5.s 			page 3


 113 0004 AFF30080 		.section	.text.boardInit,"ax",%progbits
 113      AFF30080 
 113      AFF30080 
 114              		.align	2
 115              		.p2align 4,,15
 116              		.global	boardInit
 117              		.thumb
 118              		.thumb_func
 119              		.type	boardInit, %function
 120              	boardInit:
 121              	.LFB121:
 122              		.loc 1 111 0
 123              		.cfi_startproc
 124              		@ args = 0, pretend = 0, frame = 0
 125              		@ frame_needed = 0, uses_anonymous_args = 0
 126              		@ link register save eliminated.
 127 0000 7047     		bx	lr
 128              		.cfi_endproc
 129              	.LFE121:
 130              		.size	boardInit, .-boardInit
 131              		.global	pal_default_config
 132 0002 00BFAFF3 		.section	.rodata.pal_default_config,"a",%progbits
 132      0080AFF3 
 132      0080AFF3 
 132      0080
 133              		.align	2
 134              		.type	pal_default_config, %object
 135              		.size	pal_default_config, 252
 136              	pal_default_config:
 137 0000 2880A1AA 		.word	-1432256472
 138 0004 00000000 		.word	0
 139 0008 FFFFFFFF 		.word	-1
 140 000c 00150820 		.word	537400576
 141 0010 FFFF0000 		.word	65535
 142 0014 B00B00B0 		.word	-1342174288
 143 0018 00AA0A00 		.word	698880
 144 001c 81022AA2 		.word	-1574305151
 145 0020 00030000 		.word	768
 146 0024 FFFFFFFF 		.word	-1
 147 0028 00544008 		.word	138433536
 148 002c FFFF0000 		.word	65535
 149 0030 00000000 		.word	0
 150 0034 44050CCC 		.word	-871627452
 151 0038 A8AAAA06 		.word	111848104
 152 003c 00000000 		.word	0
 153 0040 FFFFFFFF 		.word	-1
 154 0044 01000000 		.word	1
 155 0048 FFFF0000 		.word	65535
 156 004c B055BB88 		.word	-2000988752
 157 0050 CCCC0C00 		.word	838860
 158 0054 20000000 		.word	32
 159 0058 00000000 		.word	0
 160 005c FFFFFFFF 		.word	-1
 161 0060 45555555 		.word	1431655749
 162 0064 FFFF0000 		.word	65535
 163 0068 000C0000 		.word	3072
 164 006c 00000000 		.word	0
ARM GAS  /tmp/ccMZ2PH5.s 			page 4


 165 0070 00000000 		.word	0
 166 0074 00000000 		.word	0
 167 0078 FFFFFFFF 		.word	-1
 168 007c 55555555 		.word	1431655765
 169 0080 FFFF0000 		.word	65535
 170 0084 00000000 		.word	0
 171 0088 00000000 		.word	0
 172 008c 00000000 		.word	0
 173 0090 00000000 		.word	0
 174 0094 FFFFFFFF 		.word	-1
 175 0098 55551555 		.word	1427461461
 176 009c FFFF0000 		.word	65535
 177 00a0 00000000 		.word	0
 178 00a4 00000000 		.word	0
 179 00a8 00009028 		.word	680525824
 180 00ac 00000000 		.word	0
 181 00b0 FFFFFFFF 		.word	-1
 182 00b4 55550541 		.word	1090868565
 183 00b8 FFFF0000 		.word	65535
 184 00bc 00000000 		.word	0
 185 00c0 00B0B00B 		.word	196128768
 186 00c4 00000000 		.word	0
 187 00c8 00000000 		.word	0
 188 00cc FFFFFFFF 		.word	-1
 189 00d0 50555555 		.word	1431655760
 190 00d4 FFFF0000 		.word	65535
 191 00d8 00000000 		.word	0
 192 00dc 00000000 		.word	0
 193 00e0 00000000 		.word	0
 194 00e4 00000000 		.word	0
 195 00e8 FFFFFFFF 		.word	-1
 196 00ec 55555555 		.word	1431655765
 197 00f0 FFFF0000 		.word	65535
 198 00f4 00000000 		.word	0
 199 00f8 00000000 		.word	0
 200              		.section	.bss.last_status.7065,"aw",%nobits
 201              		.align	2
 202              		.set	.LANCHOR0,. + 0
 203              		.type	last_status.7065, %object
 204              		.size	last_status.7065, 4
 205              	last_status.7065:
 206 0000 00000000 		.space	4
 207              		.text
 208              	.Letext0:
 209              		.file 2 "/opt/psas/x-tools/stm32f407/arm-psas-eabi/bin/../lib/gcc/arm-psas-eabi/4.7.2/../../../../
 210              		.file 3 "../../os/ports/GCC/ARMCMx/chtypes.h"
 211              		.file 4 "../../os/kernel/include/chlists.h"
 212              		.file 5 "../../os/kernel/include/chthreads.h"
 213              		.file 6 "../../os/ports/GCC/ARMCMx/chcore_v7m.h"
 214              		.file 7 "../../os/kernel/include/chmtx.h"
 215              		.file 8 "../../os/hal/platforms/STM32F4xx/stm32f4xx.h"
 216              		.file 9 "../../os/hal/platforms/STM32F4xx/stm32_dma.h"
 217              		.file 10 "../../os/hal/include/io_block.h"
 218              		.file 11 "../../os/hal/platforms/STM32/GPIOv2/pal_lld.h"
 219              		.file 12 "../../os/hal/platforms/STM32/sdc_lld.h"
 220              		.file 13 "../../os/ports/common/ARMCMx/CMSIS/include/core_cm4.h"
 221              		.file 14 "../../os/hal/platforms/STM32F4xx/hal_lld.h"
ARM GAS  /tmp/ccMZ2PH5.s 			page 5


 222              		.section	.debug_info,"",%progbits
 223              	.Ldebug_info0:
 224 0000 3A0A0000 		.4byte	0xa3a
 225 0004 0200     		.2byte	0x2
 226 0006 00000000 		.4byte	.Ldebug_abbrev0
 227 000a 04       		.byte	0x4
 228 000b 01       		.uleb128 0x1
 229 000c 57030000 		.4byte	.LASF132
 230 0010 01       		.byte	0x1
 231 0011 53010000 		.4byte	.LASF133
 232 0015 B4020000 		.4byte	.LASF134
 233 0019 00000000 		.4byte	.Ldebug_ranges0+0
 234 001d 00000000 		.4byte	0
 235 0021 00000000 		.4byte	0
 236 0025 00000000 		.4byte	.Ldebug_line0
 237 0029 02       		.uleb128 0x2
 238 002a 04       		.byte	0x4
 239 002b 05       		.byte	0x5
 240 002c 696E7400 		.ascii	"int\000"
 241 0030 03       		.uleb128 0x3
 242 0031 04       		.byte	0x4
 243 0032 07       		.byte	0x7
 244 0033 F3010000 		.4byte	.LASF0
 245 0037 03       		.uleb128 0x3
 246 0038 01       		.byte	0x1
 247 0039 06       		.byte	0x6
 248 003a D9000000 		.4byte	.LASF1
 249 003e 04       		.uleb128 0x4
 250 003f 07050000 		.4byte	.LASF4
 251 0043 02       		.byte	0x2
 252 0044 2A       		.byte	0x2a
 253 0045 49000000 		.4byte	0x49
 254 0049 03       		.uleb128 0x3
 255 004a 01       		.byte	0x1
 256 004b 08       		.byte	0x8
 257 004c BF030000 		.4byte	.LASF2
 258 0050 03       		.uleb128 0x3
 259 0051 02       		.byte	0x2
 260 0052 05       		.byte	0x5
 261 0053 DC030000 		.4byte	.LASF3
 262 0057 04       		.uleb128 0x4
 263 0058 4A010000 		.4byte	.LASF5
 264 005c 02       		.byte	0x2
 265 005d 36       		.byte	0x36
 266 005e 62000000 		.4byte	0x62
 267 0062 03       		.uleb128 0x3
 268 0063 02       		.byte	0x2
 269 0064 07       		.byte	0x7
 270 0065 33020000 		.4byte	.LASF6
 271 0069 04       		.uleb128 0x4
 272 006a B7030000 		.4byte	.LASF7
 273 006e 02       		.byte	0x2
 274 006f 4F       		.byte	0x4f
 275 0070 74000000 		.4byte	0x74
 276 0074 03       		.uleb128 0x3
 277 0075 04       		.byte	0x4
 278 0076 05       		.byte	0x5
ARM GAS  /tmp/ccMZ2PH5.s 			page 6


 279 0077 28010000 		.4byte	.LASF8
 280 007b 04       		.uleb128 0x4
 281 007c 45040000 		.4byte	.LASF9
 282 0080 02       		.byte	0x2
 283 0081 50       		.byte	0x50
 284 0082 86000000 		.4byte	0x86
 285 0086 03       		.uleb128 0x3
 286 0087 04       		.byte	0x4
 287 0088 07       		.byte	0x7
 288 0089 4E040000 		.4byte	.LASF10
 289 008d 03       		.uleb128 0x3
 290 008e 08       		.byte	0x8
 291 008f 05       		.byte	0x5
 292 0090 CB000000 		.4byte	.LASF11
 293 0094 03       		.uleb128 0x3
 294 0095 08       		.byte	0x8
 295 0096 07       		.byte	0x7
 296 0097 76000000 		.4byte	.LASF12
 297 009b 04       		.uleb128 0x4
 298 009c ED000000 		.4byte	.LASF13
 299 00a0 03       		.byte	0x3
 300 00a1 27       		.byte	0x27
 301 00a2 69000000 		.4byte	0x69
 302 00a6 04       		.uleb128 0x4
 303 00a7 94020000 		.4byte	.LASF14
 304 00ab 03       		.byte	0x3
 305 00ac 28       		.byte	0x28
 306 00ad 3E000000 		.4byte	0x3e
 307 00b1 04       		.uleb128 0x4
 308 00b2 38010000 		.4byte	.LASF15
 309 00b6 03       		.byte	0x3
 310 00b7 29       		.byte	0x29
 311 00b8 3E000000 		.4byte	0x3e
 312 00bc 04       		.uleb128 0x4
 313 00bd 6D030000 		.4byte	.LASF16
 314 00c1 03       		.byte	0x3
 315 00c2 2A       		.byte	0x2a
 316 00c3 3E000000 		.4byte	0x3e
 317 00c7 04       		.uleb128 0x4
 318 00c8 0D010000 		.4byte	.LASF17
 319 00cc 03       		.byte	0x3
 320 00cd 2B       		.byte	0x2b
 321 00ce 3E000000 		.4byte	0x3e
 322 00d2 04       		.uleb128 0x4
 323 00d3 A8030000 		.4byte	.LASF18
 324 00d7 03       		.byte	0x3
 325 00d8 2C       		.byte	0x2c
 326 00d9 7B000000 		.4byte	0x7b
 327 00dd 04       		.uleb128 0x4
 328 00de 7F020000 		.4byte	.LASF19
 329 00e2 03       		.byte	0x3
 330 00e3 2D       		.byte	0x2d
 331 00e4 69000000 		.4byte	0x69
 332 00e8 04       		.uleb128 0x4
 333 00e9 A8020000 		.4byte	.LASF20
 334 00ed 03       		.byte	0x3
 335 00ee 2F       		.byte	0x2f
ARM GAS  /tmp/ccMZ2PH5.s 			page 7


 336 00ef 7B000000 		.4byte	0x7b
 337 00f3 04       		.uleb128 0x4
 338 00f4 8F040000 		.4byte	.LASF21
 339 00f8 03       		.byte	0x3
 340 00f9 31       		.byte	0x31
 341 00fa 7B000000 		.4byte	0x7b
 342 00fe 04       		.uleb128 0x4
 343 00ff B9010000 		.4byte	.LASF22
 344 0103 04       		.byte	0x4
 345 0104 23       		.byte	0x23
 346 0105 09010000 		.4byte	0x109
 347 0109 05       		.uleb128 0x5
 348 010a B9010000 		.4byte	.LASF22
 349 010e 48       		.byte	0x48
 350 010f 05       		.byte	0x5
 351 0110 57       		.byte	0x57
 352 0111 2E020000 		.4byte	0x22e
 353 0115 06       		.uleb128 0x6
 354 0116 12040000 		.4byte	.LASF23
 355 011a 05       		.byte	0x5
 356 011b 58       		.byte	0x58
 357 011c 53020000 		.4byte	0x253
 358 0120 02       		.byte	0x2
 359 0121 23       		.byte	0x23
 360 0122 00       		.uleb128 0
 361 0123 06       		.uleb128 0x6
 362 0124 8E030000 		.4byte	.LASF24
 363 0128 05       		.byte	0x5
 364 0129 5A       		.byte	0x5a
 365 012a 53020000 		.4byte	0x253
 366 012e 02       		.byte	0x2
 367 012f 23       		.byte	0x23
 368 0130 04       		.uleb128 0x4
 369 0131 06       		.uleb128 0x6
 370 0132 C4000000 		.4byte	.LASF25
 371 0136 05       		.byte	0x5
 372 0137 5C       		.byte	0x5c
 373 0138 D2000000 		.4byte	0xd2
 374 013c 02       		.byte	0x2
 375 013d 23       		.byte	0x23
 376 013e 08       		.uleb128 0x8
 377 013f 06       		.uleb128 0x6
 378 0140 6C050000 		.4byte	.LASF26
 379 0144 05       		.byte	0x5
 380 0145 5D       		.byte	0x5d
 381 0146 21030000 		.4byte	0x321
 382 014a 02       		.byte	0x2
 383 014b 23       		.byte	0x23
 384 014c 0C       		.uleb128 0xc
 385 014d 06       		.uleb128 0x6
 386 014e 7A010000 		.4byte	.LASF27
 387 0152 05       		.byte	0x5
 388 0153 5F       		.byte	0x5f
 389 0154 53020000 		.4byte	0x253
 390 0158 02       		.byte	0x2
 391 0159 23       		.byte	0x23
 392 015a 10       		.uleb128 0x10
ARM GAS  /tmp/ccMZ2PH5.s 			page 8


 393 015b 06       		.uleb128 0x6
 394 015c 33030000 		.4byte	.LASF28
 395 0160 05       		.byte	0x5
 396 0161 60       		.byte	0x60
 397 0162 53020000 		.4byte	0x253
 398 0166 02       		.byte	0x2
 399 0167 23       		.byte	0x23
 400 0168 14       		.uleb128 0x14
 401 0169 06       		.uleb128 0x6
 402 016a 29050000 		.4byte	.LASF29
 403 016e 05       		.byte	0x5
 404 016f 67       		.byte	0x67
 405 0170 D2030000 		.4byte	0x3d2
 406 0174 02       		.byte	0x2
 407 0175 23       		.byte	0x23
 408 0176 18       		.uleb128 0x18
 409 0177 06       		.uleb128 0x6
 410 0178 E6030000 		.4byte	.LASF30
 411 017c 05       		.byte	0x5
 412 017d 72       		.byte	0x72
 413 017e B1000000 		.4byte	0xb1
 414 0182 02       		.byte	0x2
 415 0183 23       		.byte	0x23
 416 0184 1C       		.uleb128 0x1c
 417 0185 06       		.uleb128 0x6
 418 0186 EB010000 		.4byte	.LASF31
 419 018a 05       		.byte	0x5
 420 018b 76       		.byte	0x76
 421 018c A6000000 		.4byte	0xa6
 422 0190 02       		.byte	0x2
 423 0191 23       		.byte	0x23
 424 0192 1D       		.uleb128 0x1d
 425 0193 06       		.uleb128 0x6
 426 0194 E7040000 		.4byte	.LASF32
 427 0198 05       		.byte	0x5
 428 0199 7B       		.byte	0x7b
 429 019a BC000000 		.4byte	0xbc
 430 019e 02       		.byte	0x2
 431 019f 23       		.byte	0x23
 432 01a0 1E       		.uleb128 0x1e
 433 01a1 06       		.uleb128 0x6
 434 01a2 FA030000 		.4byte	.LASF33
 435 01a6 05       		.byte	0x5
 436 01a7 81       		.byte	0x81
 437 01a8 C7000000 		.4byte	0xc7
 438 01ac 02       		.byte	0x2
 439 01ad 23       		.byte	0x23
 440 01ae 1F       		.uleb128 0x1f
 441 01af 06       		.uleb128 0x6
 442 01b0 28000000 		.4byte	.LASF34
 443 01b4 05       		.byte	0x5
 444 01b5 88       		.byte	0x88
 445 01b6 50030000 		.4byte	0x350
 446 01ba 02       		.byte	0x2
 447 01bb 23       		.byte	0x23
 448 01bc 20       		.uleb128 0x20
 449 01bd 07       		.uleb128 0x7
ARM GAS  /tmp/ccMZ2PH5.s 			page 9


 450 01be 705F7500 		.ascii	"p_u\000"
 451 01c2 05       		.byte	0x5
 452 01c3 AD       		.byte	0xad
 453 01c4 9D030000 		.4byte	0x39d
 454 01c8 02       		.byte	0x2
 455 01c9 23       		.byte	0x23
 456 01ca 24       		.uleb128 0x24
 457 01cb 06       		.uleb128 0x6
 458 01cc 72050000 		.4byte	.LASF35
 459 01d0 05       		.byte	0x5
 460 01d1 B2       		.byte	0xb2
 461 01d2 7B020000 		.4byte	0x27b
 462 01d6 02       		.byte	0x2
 463 01d7 23       		.byte	0x23
 464 01d8 28       		.uleb128 0x28
 465 01d9 06       		.uleb128 0x6
 466 01da 07020000 		.4byte	.LASF36
 467 01de 05       		.byte	0x5
 468 01df B8       		.byte	0xb8
 469 01e0 59020000 		.4byte	0x259
 470 01e4 02       		.byte	0x2
 471 01e5 23       		.byte	0x23
 472 01e6 2C       		.uleb128 0x2c
 473 01e7 06       		.uleb128 0x6
 474 01e8 37050000 		.4byte	.LASF37
 475 01ec 05       		.byte	0x5
 476 01ed BC       		.byte	0xbc
 477 01ee DD000000 		.4byte	0xdd
 478 01f2 02       		.byte	0x2
 479 01f3 23       		.byte	0x23
 480 01f4 34       		.uleb128 0x34
 481 01f5 06       		.uleb128 0x6
 482 01f6 35040000 		.4byte	.LASF38
 483 01fa 05       		.byte	0x5
 484 01fb C2       		.byte	0xc2
 485 01fc E8000000 		.4byte	0xe8
 486 0200 02       		.byte	0x2
 487 0201 23       		.byte	0x23
 488 0202 38       		.uleb128 0x38
 489 0203 06       		.uleb128 0x6
 490 0204 D2030000 		.4byte	.LASF39
 491 0208 05       		.byte	0x5
 492 0209 C9       		.byte	0xc9
 493 020a E4030000 		.4byte	0x3e4
 494 020e 02       		.byte	0x2
 495 020f 23       		.byte	0x23
 496 0210 3C       		.uleb128 0x3c
 497 0211 06       		.uleb128 0x6
 498 0212 99040000 		.4byte	.LASF40
 499 0216 05       		.byte	0x5
 500 0217 CD       		.byte	0xcd
 501 0218 D2000000 		.4byte	0xd2
 502 021c 02       		.byte	0x2
 503 021d 23       		.byte	0x23
 504 021e 40       		.uleb128 0x40
 505 021f 06       		.uleb128 0x6
 506 0220 E5000000 		.4byte	.LASF41
ARM GAS  /tmp/ccMZ2PH5.s 			page 10


 507 0224 05       		.byte	0x5
 508 0225 D3       		.byte	0xd3
 509 0226 91020000 		.4byte	0x291
 510 022a 02       		.byte	0x2
 511 022b 23       		.byte	0x23
 512 022c 44       		.uleb128 0x44
 513 022d 00       		.byte	0
 514 022e 08       		.uleb128 0x8
 515 022f 08       		.byte	0x8
 516 0230 04       		.byte	0x4
 517 0231 5A       		.byte	0x5a
 518 0232 53020000 		.4byte	0x253
 519 0236 06       		.uleb128 0x6
 520 0237 12040000 		.4byte	.LASF23
 521 023b 04       		.byte	0x4
 522 023c 5B       		.byte	0x5b
 523 023d 53020000 		.4byte	0x253
 524 0241 02       		.byte	0x2
 525 0242 23       		.byte	0x23
 526 0243 00       		.uleb128 0
 527 0244 06       		.uleb128 0x6
 528 0245 8E030000 		.4byte	.LASF24
 529 0249 04       		.byte	0x4
 530 024a 5D       		.byte	0x5d
 531 024b 53020000 		.4byte	0x253
 532 024f 02       		.byte	0x2
 533 0250 23       		.byte	0x23
 534 0251 04       		.uleb128 0x4
 535 0252 00       		.byte	0
 536 0253 09       		.uleb128 0x9
 537 0254 04       		.byte	0x4
 538 0255 FE000000 		.4byte	0xfe
 539 0259 04       		.uleb128 0x4
 540 025a 45030000 		.4byte	.LASF42
 541 025e 04       		.byte	0x4
 542 025f 5F       		.byte	0x5f
 543 0260 2E020000 		.4byte	0x22e
 544 0264 08       		.uleb128 0x8
 545 0265 04       		.byte	0x4
 546 0266 04       		.byte	0x4
 547 0267 64       		.byte	0x64
 548 0268 7B020000 		.4byte	0x27b
 549 026c 06       		.uleb128 0x6
 550 026d 12040000 		.4byte	.LASF23
 551 0271 04       		.byte	0x4
 552 0272 66       		.byte	0x66
 553 0273 53020000 		.4byte	0x253
 554 0277 02       		.byte	0x2
 555 0278 23       		.byte	0x23
 556 0279 00       		.uleb128 0
 557 027a 00       		.byte	0
 558 027b 04       		.uleb128 0x4
 559 027c 9C020000 		.4byte	.LASF43
 560 0280 04       		.byte	0x4
 561 0281 69       		.byte	0x69
 562 0282 64020000 		.4byte	0x264
 563 0286 04       		.uleb128 0x4
ARM GAS  /tmp/ccMZ2PH5.s 			page 11


 564 0287 A0010000 		.4byte	.LASF44
 565 028b 06       		.byte	0x6
 566 028c DE       		.byte	0xde
 567 028d 91020000 		.4byte	0x291
 568 0291 0A       		.uleb128 0xa
 569 0292 04       		.byte	0x4
 570 0293 0B       		.uleb128 0xb
 571 0294 CF040000 		.4byte	.LASF45
 572 0298 24       		.byte	0x24
 573 0299 06       		.byte	0x6
 574 029a 0501     		.2byte	0x105
 575 029c 21030000 		.4byte	0x321
 576 02a0 0C       		.uleb128 0xc
 577 02a1 723400   		.ascii	"r4\000"
 578 02a4 06       		.byte	0x6
 579 02a5 1801     		.2byte	0x118
 580 02a7 86020000 		.4byte	0x286
 581 02ab 02       		.byte	0x2
 582 02ac 23       		.byte	0x23
 583 02ad 00       		.uleb128 0
 584 02ae 0C       		.uleb128 0xc
 585 02af 723500   		.ascii	"r5\000"
 586 02b2 06       		.byte	0x6
 587 02b3 1901     		.2byte	0x119
 588 02b5 86020000 		.4byte	0x286
 589 02b9 02       		.byte	0x2
 590 02ba 23       		.byte	0x23
 591 02bb 04       		.uleb128 0x4
 592 02bc 0C       		.uleb128 0xc
 593 02bd 723600   		.ascii	"r6\000"
 594 02c0 06       		.byte	0x6
 595 02c1 1A01     		.2byte	0x11a
 596 02c3 86020000 		.4byte	0x286
 597 02c7 02       		.byte	0x2
 598 02c8 23       		.byte	0x23
 599 02c9 08       		.uleb128 0x8
 600 02ca 0C       		.uleb128 0xc
 601 02cb 723700   		.ascii	"r7\000"
 602 02ce 06       		.byte	0x6
 603 02cf 1B01     		.2byte	0x11b
 604 02d1 86020000 		.4byte	0x286
 605 02d5 02       		.byte	0x2
 606 02d6 23       		.byte	0x23
 607 02d7 0C       		.uleb128 0xc
 608 02d8 0C       		.uleb128 0xc
 609 02d9 723800   		.ascii	"r8\000"
 610 02dc 06       		.byte	0x6
 611 02dd 1C01     		.2byte	0x11c
 612 02df 86020000 		.4byte	0x286
 613 02e3 02       		.byte	0x2
 614 02e4 23       		.byte	0x23
 615 02e5 10       		.uleb128 0x10
 616 02e6 0C       		.uleb128 0xc
 617 02e7 723900   		.ascii	"r9\000"
 618 02ea 06       		.byte	0x6
 619 02eb 1D01     		.2byte	0x11d
 620 02ed 86020000 		.4byte	0x286
ARM GAS  /tmp/ccMZ2PH5.s 			page 12


 621 02f1 02       		.byte	0x2
 622 02f2 23       		.byte	0x23
 623 02f3 14       		.uleb128 0x14
 624 02f4 0C       		.uleb128 0xc
 625 02f5 72313000 		.ascii	"r10\000"
 626 02f9 06       		.byte	0x6
 627 02fa 1E01     		.2byte	0x11e
 628 02fc 86020000 		.4byte	0x286
 629 0300 02       		.byte	0x2
 630 0301 23       		.byte	0x23
 631 0302 18       		.uleb128 0x18
 632 0303 0C       		.uleb128 0xc
 633 0304 72313100 		.ascii	"r11\000"
 634 0308 06       		.byte	0x6
 635 0309 1F01     		.2byte	0x11f
 636 030b 86020000 		.4byte	0x286
 637 030f 02       		.byte	0x2
 638 0310 23       		.byte	0x23
 639 0311 1C       		.uleb128 0x1c
 640 0312 0C       		.uleb128 0xc
 641 0313 6C7200   		.ascii	"lr\000"
 642 0316 06       		.byte	0x6
 643 0317 2001     		.2byte	0x120
 644 0319 86020000 		.4byte	0x286
 645 031d 02       		.byte	0x2
 646 031e 23       		.byte	0x23
 647 031f 20       		.uleb128 0x20
 648 0320 00       		.byte	0
 649 0321 0B       		.uleb128 0xb
 650 0322 BC040000 		.4byte	.LASF46
 651 0326 04       		.byte	0x4
 652 0327 06       		.byte	0x6
 653 0328 2A01     		.2byte	0x12a
 654 032a 3E030000 		.4byte	0x33e
 655 032e 0C       		.uleb128 0xc
 656 032f 72313300 		.ascii	"r13\000"
 657 0333 06       		.byte	0x6
 658 0334 2B01     		.2byte	0x12b
 659 0336 3E030000 		.4byte	0x33e
 660 033a 02       		.byte	0x2
 661 033b 23       		.byte	0x23
 662 033c 00       		.uleb128 0
 663 033d 00       		.byte	0
 664 033e 09       		.uleb128 0x9
 665 033f 04       		.byte	0x4
 666 0340 93020000 		.4byte	0x293
 667 0344 0D       		.uleb128 0xd
 668 0345 7B000000 		.4byte	0x7b
 669 0349 03       		.uleb128 0x3
 670 034a 04       		.byte	0x4
 671 034b 07       		.byte	0x7
 672 034c 17030000 		.4byte	.LASF47
 673 0350 0D       		.uleb128 0xd
 674 0351 F3000000 		.4byte	0xf3
 675 0355 05       		.uleb128 0x5
 676 0356 26030000 		.4byte	.LASF48
 677 035a 10       		.byte	0x10
ARM GAS  /tmp/ccMZ2PH5.s 			page 13


 678 035b 07       		.byte	0x7
 679 035c 25       		.byte	0x25
 680 035d 8C030000 		.4byte	0x38c
 681 0361 06       		.uleb128 0x6
 682 0362 F4000000 		.4byte	.LASF49
 683 0366 07       		.byte	0x7
 684 0367 26       		.byte	0x26
 685 0368 59020000 		.4byte	0x259
 686 036c 02       		.byte	0x2
 687 036d 23       		.byte	0x23
 688 036e 00       		.uleb128 0
 689 036f 06       		.uleb128 0x6
 690 0370 47050000 		.4byte	.LASF50
 691 0374 07       		.byte	0x7
 692 0375 28       		.byte	0x28
 693 0376 53020000 		.4byte	0x253
 694 037a 02       		.byte	0x2
 695 037b 23       		.byte	0x23
 696 037c 08       		.uleb128 0x8
 697 037d 06       		.uleb128 0x6
 698 037e 88040000 		.4byte	.LASF51
 699 0382 07       		.byte	0x7
 700 0383 2A       		.byte	0x2a
 701 0384 8C030000 		.4byte	0x38c
 702 0388 02       		.byte	0x2
 703 0389 23       		.byte	0x23
 704 038a 0C       		.uleb128 0xc
 705 038b 00       		.byte	0
 706 038c 09       		.uleb128 0x9
 707 038d 04       		.byte	0x4
 708 038e 55030000 		.4byte	0x355
 709 0392 04       		.uleb128 0x4
 710 0393 26030000 		.4byte	.LASF48
 711 0397 07       		.byte	0x7
 712 0398 2C       		.byte	0x2c
 713 0399 55030000 		.4byte	0x355
 714 039d 0E       		.uleb128 0xe
 715 039e 04       		.byte	0x4
 716 039f 05       		.byte	0x5
 717 03a0 8F       		.byte	0x8f
 718 03a1 D2030000 		.4byte	0x3d2
 719 03a5 0F       		.uleb128 0xf
 720 03a6 37000000 		.4byte	.LASF52
 721 03aa 05       		.byte	0x5
 722 03ab 96       		.byte	0x96
 723 03ac DD000000 		.4byte	0xdd
 724 03b0 0F       		.uleb128 0xf
 725 03b1 93000000 		.4byte	.LASF53
 726 03b5 05       		.byte	0x5
 727 03b6 9D       		.byte	0x9d
 728 03b7 DD000000 		.4byte	0xdd
 729 03bb 0F       		.uleb128 0xf
 730 03bc 22050000 		.4byte	.LASF54
 731 03c0 05       		.byte	0x5
 732 03c1 A4       		.byte	0xa4
 733 03c2 91020000 		.4byte	0x291
 734 03c6 0F       		.uleb128 0xf
ARM GAS  /tmp/ccMZ2PH5.s 			page 14


 735 03c7 0B040000 		.4byte	.LASF55
 736 03cb 05       		.byte	0x5
 737 03cc AB       		.byte	0xab
 738 03cd E8000000 		.4byte	0xe8
 739 03d1 00       		.byte	0
 740 03d2 09       		.uleb128 0x9
 741 03d3 04       		.byte	0x4
 742 03d4 D8030000 		.4byte	0x3d8
 743 03d8 10       		.uleb128 0x10
 744 03d9 DD030000 		.4byte	0x3dd
 745 03dd 03       		.uleb128 0x3
 746 03de 01       		.byte	0x1
 747 03df 08       		.byte	0x8
 748 03e0 65040000 		.4byte	.LASF56
 749 03e4 09       		.uleb128 0x9
 750 03e5 04       		.byte	0x4
 751 03e6 92030000 		.4byte	0x392
 752 03ea 09       		.uleb128 0x9
 753 03eb 04       		.byte	0x4
 754 03ec 3E000000 		.4byte	0x3e
 755 03f0 09       		.uleb128 0x9
 756 03f1 04       		.byte	0x4
 757 03f2 F6030000 		.4byte	0x3f6
 758 03f6 10       		.uleb128 0x10
 759 03f7 3E000000 		.4byte	0x3e
 760 03fb 11       		.uleb128 0x11
 761 03fc 7B000000 		.4byte	0x7b
 762 0400 0B040000 		.4byte	0x40b
 763 0404 12       		.uleb128 0x12
 764 0405 49030000 		.4byte	0x349
 765 0409 03       		.byte	0x3
 766 040a 00       		.byte	0
 767 040b 0D       		.uleb128 0xd
 768 040c 69000000 		.4byte	0x69
 769 0410 13       		.uleb128 0x13
 770 0411 18       		.byte	0x18
 771 0412 08       		.byte	0x8
 772 0413 D301     		.2byte	0x1d3
 773 0415 73040000 		.4byte	0x473
 774 0419 0C       		.uleb128 0xc
 775 041a 435200   		.ascii	"CR\000"
 776 041d 08       		.byte	0x8
 777 041e D501     		.2byte	0x1d5
 778 0420 44030000 		.4byte	0x344
 779 0424 02       		.byte	0x2
 780 0425 23       		.byte	0x23
 781 0426 00       		.uleb128 0
 782 0427 14       		.uleb128 0x14
 783 0428 A4040000 		.4byte	.LASF57
 784 042c 08       		.byte	0x8
 785 042d D601     		.2byte	0x1d6
 786 042f 44030000 		.4byte	0x344
 787 0433 02       		.byte	0x2
 788 0434 23       		.byte	0x23
 789 0435 04       		.uleb128 0x4
 790 0436 0C       		.uleb128 0xc
 791 0437 50415200 		.ascii	"PAR\000"
ARM GAS  /tmp/ccMZ2PH5.s 			page 15


 792 043b 08       		.byte	0x8
 793 043c D701     		.2byte	0x1d7
 794 043e 44030000 		.4byte	0x344
 795 0442 02       		.byte	0x2
 796 0443 23       		.byte	0x23
 797 0444 08       		.uleb128 0x8
 798 0445 14       		.uleb128 0x14
 799 0446 23000000 		.4byte	.LASF58
 800 044a 08       		.byte	0x8
 801 044b D801     		.2byte	0x1d8
 802 044d 44030000 		.4byte	0x344
 803 0451 02       		.byte	0x2
 804 0452 23       		.byte	0x23
 805 0453 0C       		.uleb128 0xc
 806 0454 14       		.uleb128 0x14
 807 0455 E2040000 		.4byte	.LASF59
 808 0459 08       		.byte	0x8
 809 045a D901     		.2byte	0x1d9
 810 045c 44030000 		.4byte	0x344
 811 0460 02       		.byte	0x2
 812 0461 23       		.byte	0x23
 813 0462 10       		.uleb128 0x10
 814 0463 0C       		.uleb128 0xc
 815 0464 46435200 		.ascii	"FCR\000"
 816 0468 08       		.byte	0x8
 817 0469 DA01     		.2byte	0x1da
 818 046b 44030000 		.4byte	0x344
 819 046f 02       		.byte	0x2
 820 0470 23       		.byte	0x23
 821 0471 14       		.uleb128 0x14
 822 0472 00       		.byte	0
 823 0473 15       		.uleb128 0x15
 824 0474 A9040000 		.4byte	.LASF60
 825 0478 08       		.byte	0x8
 826 0479 DB01     		.2byte	0x1db
 827 047b 10040000 		.4byte	0x410
 828 047f 08       		.uleb128 0x8
 829 0480 0C       		.byte	0xc
 830 0481 09       		.byte	0x9
 831 0482 DE       		.byte	0xde
 832 0483 CE040000 		.4byte	0x4ce
 833 0487 06       		.uleb128 0x6
 834 0488 62000000 		.4byte	.LASF61
 835 048c 09       		.byte	0x9
 836 048d DF       		.byte	0xdf
 837 048e CE040000 		.4byte	0x4ce
 838 0492 02       		.byte	0x2
 839 0493 23       		.byte	0x23
 840 0494 00       		.uleb128 0
 841 0495 06       		.uleb128 0x6
 842 0496 40040000 		.4byte	.LASF62
 843 049a 09       		.byte	0x9
 844 049b E0       		.byte	0xe0
 845 049c D4040000 		.4byte	0x4d4
 846 04a0 02       		.byte	0x2
 847 04a1 23       		.byte	0x23
 848 04a2 04       		.uleb128 0x4
ARM GAS  /tmp/ccMZ2PH5.s 			page 16


 849 04a3 06       		.uleb128 0x6
 850 04a4 1F020000 		.4byte	.LASF63
 851 04a8 09       		.byte	0x9
 852 04a9 E1       		.byte	0xe1
 853 04aa 3E000000 		.4byte	0x3e
 854 04ae 02       		.byte	0x2
 855 04af 23       		.byte	0x23
 856 04b0 08       		.uleb128 0x8
 857 04b1 06       		.uleb128 0x6
 858 04b2 A9010000 		.4byte	.LASF64
 859 04b6 09       		.byte	0x9
 860 04b7 E3       		.byte	0xe3
 861 04b8 3E000000 		.4byte	0x3e
 862 04bc 02       		.byte	0x2
 863 04bd 23       		.byte	0x23
 864 04be 09       		.uleb128 0x9
 865 04bf 06       		.uleb128 0x6
 866 04c0 9C000000 		.4byte	.LASF65
 867 04c4 09       		.byte	0x9
 868 04c5 E4       		.byte	0xe4
 869 04c6 3E000000 		.4byte	0x3e
 870 04ca 02       		.byte	0x2
 871 04cb 23       		.byte	0x23
 872 04cc 0A       		.uleb128 0xa
 873 04cd 00       		.byte	0
 874 04ce 09       		.uleb128 0x9
 875 04cf 04       		.byte	0x4
 876 04d0 73040000 		.4byte	0x473
 877 04d4 09       		.uleb128 0x9
 878 04d5 04       		.byte	0x4
 879 04d6 44030000 		.4byte	0x344
 880 04da 04       		.uleb128 0x4
 881 04db 95030000 		.4byte	.LASF66
 882 04df 09       		.byte	0x9
 883 04e0 E5       		.byte	0xe5
 884 04e1 7F040000 		.4byte	0x47f
 885 04e5 16       		.uleb128 0x16
 886 04e6 01       		.byte	0x1
 887 04e7 0A       		.byte	0xa
 888 04e8 2C       		.byte	0x2c
 889 04e9 1E050000 		.4byte	0x51e
 890 04ed 17       		.uleb128 0x17
 891 04ee 17010000 		.4byte	.LASF67
 892 04f2 00       		.sleb128 0
 893 04f3 17       		.uleb128 0x17
 894 04f4 41010000 		.4byte	.LASF68
 895 04f8 01       		.sleb128 1
 896 04f9 17       		.uleb128 0x17
 897 04fa 4D020000 		.4byte	.LASF69
 898 04fe 02       		.sleb128 2
 899 04ff 17       		.uleb128 0x17
 900 0500 85020000 		.4byte	.LASF70
 901 0504 03       		.sleb128 3
 902 0505 17       		.uleb128 0x17
 903 0506 6A040000 		.4byte	.LASF71
 904 050a 04       		.sleb128 4
 905 050b 17       		.uleb128 0x17
ARM GAS  /tmp/ccMZ2PH5.s 			page 17


 906 050c 3B030000 		.4byte	.LASF72
 907 0510 05       		.sleb128 5
 908 0511 17       		.uleb128 0x17
 909 0512 0B030000 		.4byte	.LASF73
 910 0516 06       		.sleb128 6
 911 0517 17       		.uleb128 0x17
 912 0518 EE030000 		.4byte	.LASF74
 913 051c 07       		.sleb128 7
 914 051d 00       		.byte	0
 915 051e 04       		.uleb128 0x4
 916 051f B9000000 		.4byte	.LASF75
 917 0523 0A       		.byte	0xa
 918 0524 35       		.byte	0x35
 919 0525 E5040000 		.4byte	0x4e5
 920 0529 08       		.uleb128 0x8
 921 052a 08       		.byte	0x8
 922 052b 0A       		.byte	0xa
 923 052c 3A       		.byte	0x3a
 924 052d 4E050000 		.4byte	0x54e
 925 0531 06       		.uleb128 0x6
 926 0532 C0010000 		.4byte	.LASF76
 927 0536 0A       		.byte	0xa
 928 0537 3B       		.byte	0x3b
 929 0538 7B000000 		.4byte	0x7b
 930 053c 02       		.byte	0x2
 931 053d 23       		.byte	0x23
 932 053e 00       		.uleb128 0
 933 053f 06       		.uleb128 0x6
 934 0540 2F000000 		.4byte	.LASF77
 935 0544 0A       		.byte	0xa
 936 0545 3C       		.byte	0x3c
 937 0546 7B000000 		.4byte	0x7b
 938 054a 02       		.byte	0x2
 939 054b 23       		.byte	0x23
 940 054c 04       		.uleb128 0x4
 941 054d 00       		.byte	0
 942 054e 04       		.uleb128 0x4
 943 054f 00000000 		.4byte	.LASF78
 944 0553 0A       		.byte	0xa
 945 0554 3D       		.byte	0x3d
 946 0555 29050000 		.4byte	0x529
 947 0559 18       		.uleb128 0x18
 948 055a 01       		.byte	0x1
 949 055b 9B000000 		.4byte	0x9b
 950 055f 69050000 		.4byte	0x569
 951 0563 19       		.uleb128 0x19
 952 0564 91020000 		.4byte	0x291
 953 0568 00       		.byte	0
 954 0569 09       		.uleb128 0x9
 955 056a 04       		.byte	0x4
 956 056b 59050000 		.4byte	0x559
 957 056f 18       		.uleb128 0x18
 958 0570 01       		.byte	0x1
 959 0571 9B000000 		.4byte	0x9b
 960 0575 8E050000 		.4byte	0x58e
 961 0579 19       		.uleb128 0x19
 962 057a 91020000 		.4byte	0x291
ARM GAS  /tmp/ccMZ2PH5.s 			page 18


 963 057e 19       		.uleb128 0x19
 964 057f 7B000000 		.4byte	0x7b
 965 0583 19       		.uleb128 0x19
 966 0584 EA030000 		.4byte	0x3ea
 967 0588 19       		.uleb128 0x19
 968 0589 7B000000 		.4byte	0x7b
 969 058d 00       		.byte	0
 970 058e 09       		.uleb128 0x9
 971 058f 04       		.byte	0x4
 972 0590 6F050000 		.4byte	0x56f
 973 0594 18       		.uleb128 0x18
 974 0595 01       		.byte	0x1
 975 0596 9B000000 		.4byte	0x9b
 976 059a B3050000 		.4byte	0x5b3
 977 059e 19       		.uleb128 0x19
 978 059f 91020000 		.4byte	0x291
 979 05a3 19       		.uleb128 0x19
 980 05a4 7B000000 		.4byte	0x7b
 981 05a8 19       		.uleb128 0x19
 982 05a9 F0030000 		.4byte	0x3f0
 983 05ad 19       		.uleb128 0x19
 984 05ae 7B000000 		.4byte	0x7b
 985 05b2 00       		.byte	0
 986 05b3 09       		.uleb128 0x9
 987 05b4 04       		.byte	0x4
 988 05b5 94050000 		.4byte	0x594
 989 05b9 18       		.uleb128 0x18
 990 05ba 01       		.byte	0x1
 991 05bb 9B000000 		.4byte	0x9b
 992 05bf CE050000 		.4byte	0x5ce
 993 05c3 19       		.uleb128 0x19
 994 05c4 91020000 		.4byte	0x291
 995 05c8 19       		.uleb128 0x19
 996 05c9 CE050000 		.4byte	0x5ce
 997 05cd 00       		.byte	0
 998 05ce 09       		.uleb128 0x9
 999 05cf 04       		.byte	0x4
 1000 05d0 4E050000 		.4byte	0x54e
 1001 05d4 09       		.uleb128 0x9
 1002 05d5 04       		.byte	0x4
 1003 05d6 B9050000 		.4byte	0x5b9
 1004 05da 08       		.uleb128 0x8
 1005 05db 04       		.byte	0x4
 1006 05dc 0B       		.byte	0xb
 1007 05dd 9A       		.byte	0x9a
 1008 05de FF050000 		.4byte	0x5ff
 1009 05e2 07       		.uleb128 0x7
 1010 05e3 73657400 		.ascii	"set\000"
 1011 05e7 0B       		.byte	0xb
 1012 05e8 9B       		.byte	0x9b
 1013 05e9 57000000 		.4byte	0x57
 1014 05ed 02       		.byte	0x2
 1015 05ee 23       		.byte	0x23
 1016 05ef 00       		.uleb128 0
 1017 05f0 06       		.uleb128 0x6
 1018 05f1 20030000 		.4byte	.LASF79
 1019 05f5 0B       		.byte	0xb
ARM GAS  /tmp/ccMZ2PH5.s 			page 19


 1020 05f6 9C       		.byte	0x9c
 1021 05f7 57000000 		.4byte	0x57
 1022 05fb 02       		.byte	0x2
 1023 05fc 23       		.byte	0x23
 1024 05fd 02       		.uleb128 0x2
 1025 05fe 00       		.byte	0
 1026 05ff 0E       		.uleb128 0xe
 1027 0600 04       		.byte	0x4
 1028 0601 0B       		.byte	0xb
 1029 0602 98       		.byte	0x98
 1030 0603 1A060000 		.4byte	0x61a
 1031 0607 1A       		.uleb128 0x1a
 1032 0608 5700     		.ascii	"W\000"
 1033 060a 0B       		.byte	0xb
 1034 060b 99       		.byte	0x99
 1035 060c 7B000000 		.4byte	0x7b
 1036 0610 1A       		.uleb128 0x1a
 1037 0611 4800     		.ascii	"H\000"
 1038 0613 0B       		.byte	0xb
 1039 0614 9D       		.byte	0x9d
 1040 0615 DA050000 		.4byte	0x5da
 1041 0619 00       		.byte	0
 1042 061a 08       		.uleb128 0x8
 1043 061b 28       		.byte	0x28
 1044 061c 0B       		.byte	0xb
 1045 061d 90       		.byte	0x90
 1046 061e AF060000 		.4byte	0x6af
 1047 0622 06       		.uleb128 0x6
 1048 0623 70000000 		.4byte	.LASF80
 1049 0627 0B       		.byte	0xb
 1050 0628 92       		.byte	0x92
 1051 0629 44030000 		.4byte	0x344
 1052 062d 02       		.byte	0x2
 1053 062e 23       		.byte	0x23
 1054 062f 00       		.uleb128 0
 1055 0630 06       		.uleb128 0x6
 1056 0631 4B000000 		.4byte	.LASF81
 1057 0635 0B       		.byte	0xb
 1058 0636 93       		.byte	0x93
 1059 0637 44030000 		.4byte	0x344
 1060 063b 02       		.byte	0x2
 1061 063c 23       		.byte	0x23
 1062 063d 04       		.uleb128 0x4
 1063 063e 06       		.uleb128 0x6
 1064 063f 98010000 		.4byte	.LASF82
 1065 0643 0B       		.byte	0xb
 1066 0644 94       		.byte	0x94
 1067 0645 44030000 		.4byte	0x344
 1068 0649 02       		.byte	0x2
 1069 064a 23       		.byte	0x23
 1070 064b 08       		.uleb128 0x8
 1071 064c 06       		.uleb128 0x6
 1072 064d 8D000000 		.4byte	.LASF83
 1073 0651 0B       		.byte	0xb
 1074 0652 95       		.byte	0x95
 1075 0653 44030000 		.4byte	0x344
 1076 0657 02       		.byte	0x2
ARM GAS  /tmp/ccMZ2PH5.s 			page 20


 1077 0658 23       		.byte	0x23
 1078 0659 0C       		.uleb128 0xc
 1079 065a 07       		.uleb128 0x7
 1080 065b 49445200 		.ascii	"IDR\000"
 1081 065f 0B       		.byte	0xb
 1082 0660 96       		.byte	0x96
 1083 0661 44030000 		.4byte	0x344
 1084 0665 02       		.byte	0x2
 1085 0666 23       		.byte	0x23
 1086 0667 10       		.uleb128 0x10
 1087 0668 07       		.uleb128 0x7
 1088 0669 4F445200 		.ascii	"ODR\000"
 1089 066d 0B       		.byte	0xb
 1090 066e 97       		.byte	0x97
 1091 066f 44030000 		.4byte	0x344
 1092 0673 02       		.byte	0x2
 1093 0674 23       		.byte	0x23
 1094 0675 14       		.uleb128 0x14
 1095 0676 06       		.uleb128 0x6
 1096 0677 EE040000 		.4byte	.LASF84
 1097 067b 0B       		.byte	0xb
 1098 067c 9E       		.byte	0x9e
 1099 067d AF060000 		.4byte	0x6af
 1100 0681 02       		.byte	0x2
 1101 0682 23       		.byte	0x23
 1102 0683 18       		.uleb128 0x18
 1103 0684 06       		.uleb128 0x6
 1104 0685 1A020000 		.4byte	.LASF85
 1105 0689 0B       		.byte	0xb
 1106 068a 9F       		.byte	0x9f
 1107 068b 44030000 		.4byte	0x344
 1108 068f 02       		.byte	0x2
 1109 0690 23       		.byte	0x23
 1110 0691 1C       		.uleb128 0x1c
 1111 0692 06       		.uleb128 0x6
 1112 0693 68030000 		.4byte	.LASF86
 1113 0697 0B       		.byte	0xb
 1114 0698 A0       		.byte	0xa0
 1115 0699 44030000 		.4byte	0x344
 1116 069d 02       		.byte	0x2
 1117 069e 23       		.byte	0x23
 1118 069f 20       		.uleb128 0x20
 1119 06a0 06       		.uleb128 0x6
 1120 06a1 63030000 		.4byte	.LASF87
 1121 06a5 0B       		.byte	0xb
 1122 06a6 A1       		.byte	0xa1
 1123 06a7 44030000 		.4byte	0x344
 1124 06ab 02       		.byte	0x2
 1125 06ac 23       		.byte	0x23
 1126 06ad 24       		.uleb128 0x24
 1127 06ae 00       		.byte	0
 1128 06af 0D       		.uleb128 0xd
 1129 06b0 FF050000 		.4byte	0x5ff
 1130 06b4 04       		.uleb128 0x4
 1131 06b5 82010000 		.4byte	.LASF88
 1132 06b9 0B       		.byte	0xb
 1133 06ba A2       		.byte	0xa2
ARM GAS  /tmp/ccMZ2PH5.s 			page 21


 1134 06bb 1A060000 		.4byte	0x61a
 1135 06bf 08       		.uleb128 0x8
 1136 06c0 1C       		.byte	0x1c
 1137 06c1 0B       		.byte	0xb
 1138 06c2 A7       		.byte	0xa7
 1139 06c3 2A070000 		.4byte	0x72a
 1140 06c7 06       		.uleb128 0x6
 1141 06c8 07010000 		.4byte	.LASF89
 1142 06cc 0B       		.byte	0xb
 1143 06cd A9       		.byte	0xa9
 1144 06ce 7B000000 		.4byte	0x7b
 1145 06d2 02       		.byte	0x2
 1146 06d3 23       		.byte	0x23
 1147 06d4 00       		.uleb128 0
 1148 06d5 06       		.uleb128 0x6
 1149 06d6 52000000 		.4byte	.LASF90
 1150 06da 0B       		.byte	0xb
 1151 06db AB       		.byte	0xab
 1152 06dc 7B000000 		.4byte	0x7b
 1153 06e0 02       		.byte	0x2
 1154 06e1 23       		.byte	0x23
 1155 06e2 04       		.uleb128 0x4
 1156 06e3 06       		.uleb128 0x6
 1157 06e4 12020000 		.4byte	.LASF91
 1158 06e8 0B       		.byte	0xb
 1159 06e9 AD       		.byte	0xad
 1160 06ea 7B000000 		.4byte	0x7b
 1161 06ee 02       		.byte	0x2
 1162 06ef 23       		.byte	0x23
 1163 06f0 08       		.uleb128 0x8
 1164 06f1 06       		.uleb128 0x6
 1165 06f2 0F050000 		.4byte	.LASF92
 1166 06f6 0B       		.byte	0xb
 1167 06f7 AF       		.byte	0xaf
 1168 06f8 7B000000 		.4byte	0x7b
 1169 06fc 02       		.byte	0x2
 1170 06fd 23       		.byte	0x23
 1171 06fe 0C       		.uleb128 0xc
 1172 06ff 07       		.uleb128 0x7
 1173 0700 6F647200 		.ascii	"odr\000"
 1174 0704 0B       		.byte	0xb
 1175 0705 B1       		.byte	0xb1
 1176 0706 7B000000 		.4byte	0x7b
 1177 070a 02       		.byte	0x2
 1178 070b 23       		.byte	0x23
 1179 070c 10       		.uleb128 0x10
 1180 070d 06       		.uleb128 0x6
 1181 070e CD030000 		.4byte	.LASF93
 1182 0712 0B       		.byte	0xb
 1183 0713 B3       		.byte	0xb3
 1184 0714 7B000000 		.4byte	0x7b
 1185 0718 02       		.byte	0x2
 1186 0719 23       		.byte	0x23
 1187 071a 14       		.uleb128 0x14
 1188 071b 06       		.uleb128 0x6
 1189 071c 52030000 		.4byte	.LASF94
 1190 0720 0B       		.byte	0xb
ARM GAS  /tmp/ccMZ2PH5.s 			page 22


 1191 0721 B5       		.byte	0xb5
 1192 0722 7B000000 		.4byte	0x7b
 1193 0726 02       		.byte	0x2
 1194 0727 23       		.byte	0x23
 1195 0728 18       		.uleb128 0x18
 1196 0729 00       		.byte	0
 1197 072a 04       		.uleb128 0x4
 1198 072b 10000000 		.4byte	.LASF95
 1199 072f 0B       		.byte	0xb
 1200 0730 B6       		.byte	0xb6
 1201 0731 BF060000 		.4byte	0x6bf
 1202 0735 08       		.uleb128 0x8
 1203 0736 FC       		.byte	0xfc
 1204 0737 0B       		.byte	0xb
 1205 0738 BF       		.byte	0xbf
 1206 0739 C0070000 		.4byte	0x7c0
 1207 073d 06       		.uleb128 0x6
 1208 073e 04040000 		.4byte	.LASF96
 1209 0742 0B       		.byte	0xb
 1210 0743 C1       		.byte	0xc1
 1211 0744 2A070000 		.4byte	0x72a
 1212 0748 02       		.byte	0x2
 1213 0749 23       		.byte	0x23
 1214 074a 00       		.uleb128 0
 1215 074b 06       		.uleb128 0x6
 1216 074c E4010000 		.4byte	.LASF97
 1217 0750 0B       		.byte	0xb
 1218 0751 C3       		.byte	0xc3
 1219 0752 2A070000 		.4byte	0x72a
 1220 0756 02       		.byte	0x2
 1221 0757 23       		.byte	0x23
 1222 0758 1C       		.uleb128 0x1c
 1223 0759 06       		.uleb128 0x6
 1224 075a 30050000 		.4byte	.LASF98
 1225 075e 0B       		.byte	0xb
 1226 075f C5       		.byte	0xc5
 1227 0760 2A070000 		.4byte	0x72a
 1228 0764 02       		.byte	0x2
 1229 0765 23       		.byte	0x23
 1230 0766 38       		.uleb128 0x38
 1231 0767 06       		.uleb128 0x6
 1232 0768 2C030000 		.4byte	.LASF99
 1233 076c 0B       		.byte	0xb
 1234 076d C7       		.byte	0xc7
 1235 076e 2A070000 		.4byte	0x72a
 1236 0772 02       		.byte	0x2
 1237 0773 23       		.byte	0x23
 1238 0774 54       		.uleb128 0x54
 1239 0775 06       		.uleb128 0x6
 1240 0776 31010000 		.4byte	.LASF100
 1241 077a 0B       		.byte	0xb
 1242 077b CA       		.byte	0xca
 1243 077c 2A070000 		.4byte	0x72a
 1244 0780 02       		.byte	0x2
 1245 0781 23       		.byte	0x23
 1246 0782 70       		.uleb128 0x70
 1247 0783 06       		.uleb128 0x6
ARM GAS  /tmp/ccMZ2PH5.s 			page 23


 1248 0784 46020000 		.4byte	.LASF101
 1249 0788 0B       		.byte	0xb
 1250 0789 CE       		.byte	0xce
 1251 078a 2A070000 		.4byte	0x72a
 1252 078e 03       		.byte	0x3
 1253 078f 23       		.byte	0x23
 1254 0790 8C01     		.uleb128 0x8c
 1255 0792 06       		.uleb128 0x6
 1256 0793 FE020000 		.4byte	.LASF102
 1257 0797 0B       		.byte	0xb
 1258 0798 D2       		.byte	0xd2
 1259 0799 2A070000 		.4byte	0x72a
 1260 079d 03       		.byte	0x3
 1261 079e 23       		.byte	0x23
 1262 079f A801     		.uleb128 0xa8
 1263 07a1 06       		.uleb128 0x6
 1264 07a2 69000000 		.4byte	.LASF103
 1265 07a6 0B       		.byte	0xb
 1266 07a7 D6       		.byte	0xd6
 1267 07a8 2A070000 		.4byte	0x72a
 1268 07ac 03       		.byte	0x3
 1269 07ad 23       		.byte	0x23
 1270 07ae C401     		.uleb128 0xc4
 1271 07b0 06       		.uleb128 0x6
 1272 07b1 26040000 		.4byte	.LASF104
 1273 07b5 0B       		.byte	0xb
 1274 07b6 DA       		.byte	0xda
 1275 07b7 2A070000 		.4byte	0x72a
 1276 07bb 03       		.byte	0x3
 1277 07bc 23       		.byte	0x23
 1278 07bd E001     		.uleb128 0xe0
 1279 07bf 00       		.byte	0
 1280 07c0 04       		.uleb128 0x4
 1281 07c1 3D050000 		.4byte	.LASF105
 1282 07c5 0B       		.byte	0xb
 1283 07c6 DC       		.byte	0xdc
 1284 07c7 35070000 		.4byte	0x735
 1285 07cb 04       		.uleb128 0x4
 1286 07cc DA010000 		.4byte	.LASF106
 1287 07d0 0C       		.byte	0xc
 1288 07d1 BC       		.byte	0xbc
 1289 07d2 7B000000 		.4byte	0x7b
 1290 07d6 04       		.uleb128 0x4
 1291 07d7 C4040000 		.4byte	.LASF107
 1292 07db 0C       		.byte	0xc
 1293 07dc C1       		.byte	0xc1
 1294 07dd 7B000000 		.4byte	0x7b
 1295 07e1 04       		.uleb128 0x4
 1296 07e2 4F050000 		.4byte	.LASF108
 1297 07e6 0C       		.byte	0xc
 1298 07e7 C6       		.byte	0xc6
 1299 07e8 EC070000 		.4byte	0x7ec
 1300 07ec 05       		.uleb128 0x5
 1301 07ed 4F050000 		.4byte	.LASF108
 1302 07f1 48       		.byte	0x48
 1303 07f2 0C       		.byte	0xc
 1304 07f3 E2       		.byte	0xe2
ARM GAS  /tmp/ccMZ2PH5.s 			page 24


 1305 07f4 A3080000 		.4byte	0x8a3
 1306 07f8 07       		.uleb128 0x7
 1307 07f9 766D7400 		.ascii	"vmt\000"
 1308 07fd 0C       		.byte	0xc
 1309 07fe E6       		.byte	0xe6
 1310 07ff 42090000 		.4byte	0x942
 1311 0803 02       		.byte	0x2
 1312 0804 23       		.byte	0x23
 1313 0805 00       		.uleb128 0
 1314 0806 06       		.uleb128 0x6
 1315 0807 22010000 		.4byte	.LASF109
 1316 080b 0C       		.byte	0xc
 1317 080c E7       		.byte	0xe7
 1318 080d 1E050000 		.4byte	0x51e
 1319 0811 02       		.byte	0x2
 1320 0812 23       		.byte	0x23
 1321 0813 04       		.uleb128 0x4
 1322 0814 07       		.uleb128 0x7
 1323 0815 63696400 		.ascii	"cid\000"
 1324 0819 0C       		.byte	0xc
 1325 081a E7       		.byte	0xe7
 1326 081b FB030000 		.4byte	0x3fb
 1327 081f 02       		.byte	0x2
 1328 0820 23       		.byte	0x23
 1329 0821 08       		.uleb128 0x8
 1330 0822 07       		.uleb128 0x7
 1331 0823 63736400 		.ascii	"csd\000"
 1332 0827 0C       		.byte	0xc
 1333 0828 E7       		.byte	0xe7
 1334 0829 FB030000 		.4byte	0x3fb
 1335 082d 02       		.byte	0x2
 1336 082e 23       		.byte	0x23
 1337 082f 18       		.uleb128 0x18
 1338 0830 06       		.uleb128 0x6
 1339 0831 59000000 		.4byte	.LASF110
 1340 0835 0C       		.byte	0xc
 1341 0836 E7       		.byte	0xe7
 1342 0837 7B000000 		.4byte	0x7b
 1343 083b 02       		.byte	0x2
 1344 083c 23       		.byte	0x23
 1345 083d 28       		.uleb128 0x28
 1346 083e 06       		.uleb128 0x6
 1347 083f 7C040000 		.4byte	.LASF111
 1348 0843 0C       		.byte	0xc
 1349 0844 EB       		.byte	0xeb
 1350 0845 4D090000 		.4byte	0x94d
 1351 0849 02       		.byte	0x2
 1352 084a 23       		.byte	0x23
 1353 084b 2C       		.uleb128 0x2c
 1354 084c 06       		.uleb128 0x6
 1355 084d A3000000 		.4byte	.LASF112
 1356 0851 0C       		.byte	0xc
 1357 0852 EF       		.byte	0xef
 1358 0853 CB070000 		.4byte	0x7cb
 1359 0857 02       		.byte	0x2
 1360 0858 23       		.byte	0x23
 1361 0859 30       		.uleb128 0x30
ARM GAS  /tmp/ccMZ2PH5.s 			page 25


 1362 085a 06       		.uleb128 0x6
 1363 085b 00020000 		.4byte	.LASF113
 1364 085f 0C       		.byte	0xc
 1365 0860 F3       		.byte	0xf3
 1366 0861 D6070000 		.4byte	0x7d6
 1367 0865 02       		.byte	0x2
 1368 0866 23       		.byte	0x23
 1369 0867 34       		.uleb128 0x34
 1370 0868 07       		.uleb128 0x7
 1371 0869 72636100 		.ascii	"rca\000"
 1372 086d 0C       		.byte	0xc
 1373 086e F7       		.byte	0xf7
 1374 086f 7B000000 		.4byte	0x7b
 1375 0873 02       		.byte	0x2
 1376 0874 23       		.byte	0x23
 1377 0875 38       		.uleb128 0x38
 1378 0876 06       		.uleb128 0x6
 1379 0877 B0030000 		.4byte	.LASF114
 1380 087b 0C       		.byte	0xc
 1381 087c FC       		.byte	0xfc
 1382 087d 53020000 		.4byte	0x253
 1383 0881 02       		.byte	0x2
 1384 0882 23       		.byte	0x23
 1385 0883 3C       		.uleb128 0x3c
 1386 0884 14       		.uleb128 0x14
 1387 0885 1A050000 		.4byte	.LASF115
 1388 0889 0C       		.byte	0xc
 1389 088a 0001     		.2byte	0x100
 1390 088c 7B000000 		.4byte	0x7b
 1391 0890 02       		.byte	0x2
 1392 0891 23       		.byte	0x23
 1393 0892 40       		.uleb128 0x40
 1394 0893 0C       		.uleb128 0xc
 1395 0894 646D6100 		.ascii	"dma\000"
 1396 0898 0C       		.byte	0xc
 1397 0899 0401     		.2byte	0x104
 1398 089b 58090000 		.4byte	0x958
 1399 089f 02       		.byte	0x2
 1400 08a0 23       		.byte	0x23
 1401 08a1 44       		.uleb128 0x44
 1402 08a2 00       		.byte	0
 1403 08a3 08       		.uleb128 0x8
 1404 08a4 04       		.byte	0x4
 1405 08a5 0C       		.byte	0xc
 1406 08a6 CC       		.byte	0xcc
 1407 08a7 BA080000 		.4byte	0x8ba
 1408 08ab 06       		.uleb128 0x6
 1409 08ac B3010000 		.4byte	.LASF116
 1410 08b0 0C       		.byte	0xc
 1411 08b1 CD       		.byte	0xcd
 1412 08b2 7B000000 		.4byte	0x7b
 1413 08b6 02       		.byte	0x2
 1414 08b7 23       		.byte	0x23
 1415 08b8 00       		.uleb128 0
 1416 08b9 00       		.byte	0
 1417 08ba 04       		.uleb128 0x4
 1418 08bb F3040000 		.4byte	.LASF117
ARM GAS  /tmp/ccMZ2PH5.s 			page 26


 1419 08bf 0C       		.byte	0xc
 1420 08c0 CE       		.byte	0xce
 1421 08c1 A3080000 		.4byte	0x8a3
 1422 08c5 05       		.uleb128 0x5
 1423 08c6 19040000 		.4byte	.LASF118
 1424 08ca 20       		.byte	0x20
 1425 08cb 0C       		.byte	0xc
 1426 08cc DB       		.byte	0xdb
 1427 08cd 42090000 		.4byte	0x942
 1428 08d1 06       		.uleb128 0x6
 1429 08d2 D6040000 		.4byte	.LASF119
 1430 08d6 0C       		.byte	0xc
 1431 08d7 DC       		.byte	0xdc
 1432 08d8 69050000 		.4byte	0x569
 1433 08dc 02       		.byte	0x2
 1434 08dd 23       		.byte	0x23
 1435 08de 00       		.uleb128 0
 1436 08df 06       		.uleb128 0x6
 1437 08e0 3E000000 		.4byte	.LASF120
 1438 08e4 0C       		.byte	0xc
 1439 08e5 DC       		.byte	0xdc
 1440 08e6 69050000 		.4byte	0x569
 1441 08ea 02       		.byte	0x2
 1442 08eb 23       		.byte	0x23
 1443 08ec 04       		.uleb128 0x4
 1444 08ed 06       		.uleb128 0x6
 1445 08ee 2D040000 		.4byte	.LASF121
 1446 08f2 0C       		.byte	0xc
 1447 08f3 DC       		.byte	0xdc
 1448 08f4 69050000 		.4byte	0x569
 1449 08f8 02       		.byte	0x2
 1450 08f9 23       		.byte	0x23
 1451 08fa 08       		.uleb128 0x8
 1452 08fb 06       		.uleb128 0x6
 1453 08fc FC000000 		.4byte	.LASF122
 1454 0900 0C       		.byte	0xc
 1455 0901 DC       		.byte	0xdc
 1456 0902 69050000 		.4byte	0x569
 1457 0906 02       		.byte	0x2
 1458 0907 23       		.byte	0x23
 1459 0908 0C       		.uleb128 0xc
 1460 0909 06       		.uleb128 0x6
 1461 090a 60040000 		.4byte	.LASF123
 1462 090e 0C       		.byte	0xc
 1463 090f DC       		.byte	0xdc
 1464 0910 8E050000 		.4byte	0x58e
 1465 0914 02       		.byte	0x2
 1466 0915 23       		.byte	0x23
 1467 0916 10       		.uleb128 0x10
 1468 0917 06       		.uleb128 0x6
 1469 0918 05030000 		.4byte	.LASF124
 1470 091c 0C       		.byte	0xc
 1471 091d DC       		.byte	0xdc
 1472 091e B3050000 		.4byte	0x5b3
 1473 0922 02       		.byte	0x2
 1474 0923 23       		.byte	0x23
 1475 0924 14       		.uleb128 0x14
ARM GAS  /tmp/ccMZ2PH5.s 			page 27


 1476 0925 06       		.uleb128 0x6
 1477 0926 15050000 		.4byte	.LASF125
 1478 092a 0C       		.byte	0xc
 1479 092b DC       		.byte	0xdc
 1480 092c 69050000 		.4byte	0x569
 1481 0930 02       		.byte	0x2
 1482 0931 23       		.byte	0x23
 1483 0932 18       		.uleb128 0x18
 1484 0933 06       		.uleb128 0x6
 1485 0934 8F010000 		.4byte	.LASF126
 1486 0938 0C       		.byte	0xc
 1487 0939 DC       		.byte	0xdc
 1488 093a D4050000 		.4byte	0x5d4
 1489 093e 02       		.byte	0x2
 1490 093f 23       		.byte	0x23
 1491 0940 1C       		.uleb128 0x1c
 1492 0941 00       		.byte	0
 1493 0942 09       		.uleb128 0x9
 1494 0943 04       		.byte	0x4
 1495 0944 48090000 		.4byte	0x948
 1496 0948 10       		.uleb128 0x10
 1497 0949 C5080000 		.4byte	0x8c5
 1498 094d 09       		.uleb128 0x9
 1499 094e 04       		.byte	0x4
 1500 094f 53090000 		.4byte	0x953
 1501 0953 10       		.uleb128 0x10
 1502 0954 BA080000 		.4byte	0x8ba
 1503 0958 09       		.uleb128 0x9
 1504 0959 04       		.byte	0x4
 1505 095a 5E090000 		.4byte	0x95e
 1506 095e 10       		.uleb128 0x10
 1507 095f DA040000 		.4byte	0x4da
 1508 0963 1B       		.uleb128 0x1b
 1509 0964 01       		.byte	0x1
 1510 0965 26020000 		.4byte	.LASF135
 1511 0969 01       		.byte	0x1
 1512 096a 3A       		.byte	0x3a
 1513 096b 01       		.byte	0x1
 1514 096c 00000000 		.4byte	.LFB118
 1515 0970 04000000 		.4byte	.LFE118
 1516 0974 02       		.byte	0x2
 1517 0975 7D       		.byte	0x7d
 1518 0976 00       		.sleb128 0
 1519 0977 01       		.byte	0x1
 1520 0978 87090000 		.4byte	0x987
 1521 097c 1C       		.uleb128 0x1c
 1522 097d 04000000 		.4byte	.LVL0
 1523 0981 01       		.byte	0x1
 1524 0982 320A0000 		.4byte	0xa32
 1525 0986 00       		.byte	0
 1526 0987 1D       		.uleb128 0x1d
 1527 0988 01       		.byte	0x1
 1528 0989 75030000 		.4byte	.LASF127
 1529 098d 01       		.byte	0x1
 1530 098e 43       		.byte	0x43
 1531 098f 01       		.byte	0x1
 1532 0990 9B000000 		.4byte	0x9b
ARM GAS  /tmp/ccMZ2PH5.s 			page 28


 1533 0994 00000000 		.4byte	.LFB119
 1534 0998 30000000 		.4byte	.LFE119
 1535 099c 02       		.byte	0x2
 1536 099d 7D       		.byte	0x7d
 1537 099e 00       		.sleb128 0
 1538 099f 01       		.byte	0x1
 1539 09a0 C5090000 		.4byte	0x9c5
 1540 09a4 1E       		.uleb128 0x1e
 1541 09a5 83040000 		.4byte	.LASF129
 1542 09a9 01       		.byte	0x1
 1543 09aa 43       		.byte	0x43
 1544 09ab C5090000 		.4byte	0x9c5
 1545 09af 00000000 		.4byte	.LLST0
 1546 09b3 1F       		.uleb128 0x1f
 1547 09b4 58020000 		.4byte	.LASF136
 1548 09b8 01       		.byte	0x1
 1549 09b9 44       		.byte	0x44
 1550 09ba 9B000000 		.4byte	0x9b
 1551 09be 05       		.byte	0x5
 1552 09bf 03       		.byte	0x3
 1553 09c0 00000000 		.4byte	last_status.7065
 1554 09c4 00       		.byte	0
 1555 09c5 09       		.uleb128 0x9
 1556 09c6 04       		.byte	0x4
 1557 09c7 E1070000 		.4byte	0x7e1
 1558 09cb 1D       		.uleb128 0x1d
 1559 09cc 01       		.byte	0x1
 1560 09cd 64020000 		.4byte	.LASF128
 1561 09d1 01       		.byte	0x1
 1562 09d2 4E       		.byte	0x4e
 1563 09d3 01       		.byte	0x1
 1564 09d4 9B000000 		.4byte	0x9b
 1565 09d8 00000000 		.4byte	.LFB120
 1566 09dc 04000000 		.4byte	.LFE120
 1567 09e0 02       		.byte	0x2
 1568 09e1 7D       		.byte	0x7d
 1569 09e2 00       		.sleb128 0
 1570 09e3 01       		.byte	0x1
 1571 09e4 F8090000 		.4byte	0x9f8
 1572 09e8 1E       		.uleb128 0x1e
 1573 09e9 83040000 		.4byte	.LASF129
 1574 09ed 01       		.byte	0x1
 1575 09ee 4E       		.byte	0x4e
 1576 09ef C5090000 		.4byte	0x9c5
 1577 09f3 3A000000 		.4byte	.LLST1
 1578 09f7 00       		.byte	0
 1579 09f8 20       		.uleb128 0x20
 1580 09f9 01       		.byte	0x1
 1581 09fa FD040000 		.4byte	.LASF137
 1582 09fe 01       		.byte	0x1
 1583 09ff 6F       		.byte	0x6f
 1584 0a00 01       		.byte	0x1
 1585 0a01 00000000 		.4byte	.LFB121
 1586 0a05 02000000 		.4byte	.LFE121
 1587 0a09 02       		.byte	0x2
 1588 0a0a 7D       		.byte	0x7d
 1589 0a0b 00       		.sleb128 0
ARM GAS  /tmp/ccMZ2PH5.s 			page 29


 1590 0a0c 01       		.byte	0x1
 1591 0a0d 21       		.uleb128 0x21
 1592 0a0e AC000000 		.4byte	.LASF130
 1593 0a12 0D       		.byte	0xd
 1594 0a13 9806     		.2byte	0x698
 1595 0a15 0B040000 		.4byte	0x40b
 1596 0a19 01       		.byte	0x1
 1597 0a1a 01       		.byte	0x1
 1598 0a1b 22       		.uleb128 0x22
 1599 0a1c 59050000 		.4byte	.LASF131
 1600 0a20 01       		.byte	0x1
 1601 0a21 1E       		.byte	0x1e
 1602 0a22 2D0A0000 		.4byte	0xa2d
 1603 0a26 01       		.byte	0x1
 1604 0a27 05       		.byte	0x5
 1605 0a28 03       		.byte	0x3
 1606 0a29 00000000 		.4byte	pal_default_config
 1607 0a2d 10       		.uleb128 0x10
 1608 0a2e C0070000 		.4byte	0x7c0
 1609 0a32 23       		.uleb128 0x23
 1610 0a33 01       		.byte	0x1
 1611 0a34 C9010000 		.4byte	.LASF138
 1612 0a38 0E       		.byte	0xe
 1613 0a39 1506     		.2byte	0x615
 1614 0a3b 01       		.byte	0x1
 1615 0a3c 01       		.byte	0x1
 1616 0a3d 00       		.byte	0
 1617              		.section	.debug_abbrev,"",%progbits
 1618              	.Ldebug_abbrev0:
 1619 0000 01       		.uleb128 0x1
 1620 0001 11       		.uleb128 0x11
 1621 0002 01       		.byte	0x1
 1622 0003 25       		.uleb128 0x25
 1623 0004 0E       		.uleb128 0xe
 1624 0005 13       		.uleb128 0x13
 1625 0006 0B       		.uleb128 0xb
 1626 0007 03       		.uleb128 0x3
 1627 0008 0E       		.uleb128 0xe
 1628 0009 1B       		.uleb128 0x1b
 1629 000a 0E       		.uleb128 0xe
 1630 000b 55       		.uleb128 0x55
 1631 000c 06       		.uleb128 0x6
 1632 000d 11       		.uleb128 0x11
 1633 000e 01       		.uleb128 0x1
 1634 000f 52       		.uleb128 0x52
 1635 0010 01       		.uleb128 0x1
 1636 0011 10       		.uleb128 0x10
 1637 0012 06       		.uleb128 0x6
 1638 0013 00       		.byte	0
 1639 0014 00       		.byte	0
 1640 0015 02       		.uleb128 0x2
 1641 0016 24       		.uleb128 0x24
 1642 0017 00       		.byte	0
 1643 0018 0B       		.uleb128 0xb
 1644 0019 0B       		.uleb128 0xb
 1645 001a 3E       		.uleb128 0x3e
 1646 001b 0B       		.uleb128 0xb
ARM GAS  /tmp/ccMZ2PH5.s 			page 30


 1647 001c 03       		.uleb128 0x3
 1648 001d 08       		.uleb128 0x8
 1649 001e 00       		.byte	0
 1650 001f 00       		.byte	0
 1651 0020 03       		.uleb128 0x3
 1652 0021 24       		.uleb128 0x24
 1653 0022 00       		.byte	0
 1654 0023 0B       		.uleb128 0xb
 1655 0024 0B       		.uleb128 0xb
 1656 0025 3E       		.uleb128 0x3e
 1657 0026 0B       		.uleb128 0xb
 1658 0027 03       		.uleb128 0x3
 1659 0028 0E       		.uleb128 0xe
 1660 0029 00       		.byte	0
 1661 002a 00       		.byte	0
 1662 002b 04       		.uleb128 0x4
 1663 002c 16       		.uleb128 0x16
 1664 002d 00       		.byte	0
 1665 002e 03       		.uleb128 0x3
 1666 002f 0E       		.uleb128 0xe
 1667 0030 3A       		.uleb128 0x3a
 1668 0031 0B       		.uleb128 0xb
 1669 0032 3B       		.uleb128 0x3b
 1670 0033 0B       		.uleb128 0xb
 1671 0034 49       		.uleb128 0x49
 1672 0035 13       		.uleb128 0x13
 1673 0036 00       		.byte	0
 1674 0037 00       		.byte	0
 1675 0038 05       		.uleb128 0x5
 1676 0039 13       		.uleb128 0x13
 1677 003a 01       		.byte	0x1
 1678 003b 03       		.uleb128 0x3
 1679 003c 0E       		.uleb128 0xe
 1680 003d 0B       		.uleb128 0xb
 1681 003e 0B       		.uleb128 0xb
 1682 003f 3A       		.uleb128 0x3a
 1683 0040 0B       		.uleb128 0xb
 1684 0041 3B       		.uleb128 0x3b
 1685 0042 0B       		.uleb128 0xb
 1686 0043 01       		.uleb128 0x1
 1687 0044 13       		.uleb128 0x13
 1688 0045 00       		.byte	0
 1689 0046 00       		.byte	0
 1690 0047 06       		.uleb128 0x6
 1691 0048 0D       		.uleb128 0xd
 1692 0049 00       		.byte	0
 1693 004a 03       		.uleb128 0x3
 1694 004b 0E       		.uleb128 0xe
 1695 004c 3A       		.uleb128 0x3a
 1696 004d 0B       		.uleb128 0xb
 1697 004e 3B       		.uleb128 0x3b
 1698 004f 0B       		.uleb128 0xb
 1699 0050 49       		.uleb128 0x49
 1700 0051 13       		.uleb128 0x13
 1701 0052 38       		.uleb128 0x38
 1702 0053 0A       		.uleb128 0xa
 1703 0054 00       		.byte	0
ARM GAS  /tmp/ccMZ2PH5.s 			page 31


 1704 0055 00       		.byte	0
 1705 0056 07       		.uleb128 0x7
 1706 0057 0D       		.uleb128 0xd
 1707 0058 00       		.byte	0
 1708 0059 03       		.uleb128 0x3
 1709 005a 08       		.uleb128 0x8
 1710 005b 3A       		.uleb128 0x3a
 1711 005c 0B       		.uleb128 0xb
 1712 005d 3B       		.uleb128 0x3b
 1713 005e 0B       		.uleb128 0xb
 1714 005f 49       		.uleb128 0x49
 1715 0060 13       		.uleb128 0x13
 1716 0061 38       		.uleb128 0x38
 1717 0062 0A       		.uleb128 0xa
 1718 0063 00       		.byte	0
 1719 0064 00       		.byte	0
 1720 0065 08       		.uleb128 0x8
 1721 0066 13       		.uleb128 0x13
 1722 0067 01       		.byte	0x1
 1723 0068 0B       		.uleb128 0xb
 1724 0069 0B       		.uleb128 0xb
 1725 006a 3A       		.uleb128 0x3a
 1726 006b 0B       		.uleb128 0xb
 1727 006c 3B       		.uleb128 0x3b
 1728 006d 0B       		.uleb128 0xb
 1729 006e 01       		.uleb128 0x1
 1730 006f 13       		.uleb128 0x13
 1731 0070 00       		.byte	0
 1732 0071 00       		.byte	0
 1733 0072 09       		.uleb128 0x9
 1734 0073 0F       		.uleb128 0xf
 1735 0074 00       		.byte	0
 1736 0075 0B       		.uleb128 0xb
 1737 0076 0B       		.uleb128 0xb
 1738 0077 49       		.uleb128 0x49
 1739 0078 13       		.uleb128 0x13
 1740 0079 00       		.byte	0
 1741 007a 00       		.byte	0
 1742 007b 0A       		.uleb128 0xa
 1743 007c 0F       		.uleb128 0xf
 1744 007d 00       		.byte	0
 1745 007e 0B       		.uleb128 0xb
 1746 007f 0B       		.uleb128 0xb
 1747 0080 00       		.byte	0
 1748 0081 00       		.byte	0
 1749 0082 0B       		.uleb128 0xb
 1750 0083 13       		.uleb128 0x13
 1751 0084 01       		.byte	0x1
 1752 0085 03       		.uleb128 0x3
 1753 0086 0E       		.uleb128 0xe
 1754 0087 0B       		.uleb128 0xb
 1755 0088 0B       		.uleb128 0xb
 1756 0089 3A       		.uleb128 0x3a
 1757 008a 0B       		.uleb128 0xb
 1758 008b 3B       		.uleb128 0x3b
 1759 008c 05       		.uleb128 0x5
 1760 008d 01       		.uleb128 0x1
ARM GAS  /tmp/ccMZ2PH5.s 			page 32


 1761 008e 13       		.uleb128 0x13
 1762 008f 00       		.byte	0
 1763 0090 00       		.byte	0
 1764 0091 0C       		.uleb128 0xc
 1765 0092 0D       		.uleb128 0xd
 1766 0093 00       		.byte	0
 1767 0094 03       		.uleb128 0x3
 1768 0095 08       		.uleb128 0x8
 1769 0096 3A       		.uleb128 0x3a
 1770 0097 0B       		.uleb128 0xb
 1771 0098 3B       		.uleb128 0x3b
 1772 0099 05       		.uleb128 0x5
 1773 009a 49       		.uleb128 0x49
 1774 009b 13       		.uleb128 0x13
 1775 009c 38       		.uleb128 0x38
 1776 009d 0A       		.uleb128 0xa
 1777 009e 00       		.byte	0
 1778 009f 00       		.byte	0
 1779 00a0 0D       		.uleb128 0xd
 1780 00a1 35       		.uleb128 0x35
 1781 00a2 00       		.byte	0
 1782 00a3 49       		.uleb128 0x49
 1783 00a4 13       		.uleb128 0x13
 1784 00a5 00       		.byte	0
 1785 00a6 00       		.byte	0
 1786 00a7 0E       		.uleb128 0xe
 1787 00a8 17       		.uleb128 0x17
 1788 00a9 01       		.byte	0x1
 1789 00aa 0B       		.uleb128 0xb
 1790 00ab 0B       		.uleb128 0xb
 1791 00ac 3A       		.uleb128 0x3a
 1792 00ad 0B       		.uleb128 0xb
 1793 00ae 3B       		.uleb128 0x3b
 1794 00af 0B       		.uleb128 0xb
 1795 00b0 01       		.uleb128 0x1
 1796 00b1 13       		.uleb128 0x13
 1797 00b2 00       		.byte	0
 1798 00b3 00       		.byte	0
 1799 00b4 0F       		.uleb128 0xf
 1800 00b5 0D       		.uleb128 0xd
 1801 00b6 00       		.byte	0
 1802 00b7 03       		.uleb128 0x3
 1803 00b8 0E       		.uleb128 0xe
 1804 00b9 3A       		.uleb128 0x3a
 1805 00ba 0B       		.uleb128 0xb
 1806 00bb 3B       		.uleb128 0x3b
 1807 00bc 0B       		.uleb128 0xb
 1808 00bd 49       		.uleb128 0x49
 1809 00be 13       		.uleb128 0x13
 1810 00bf 00       		.byte	0
 1811 00c0 00       		.byte	0
 1812 00c1 10       		.uleb128 0x10
 1813 00c2 26       		.uleb128 0x26
 1814 00c3 00       		.byte	0
 1815 00c4 49       		.uleb128 0x49
 1816 00c5 13       		.uleb128 0x13
 1817 00c6 00       		.byte	0
ARM GAS  /tmp/ccMZ2PH5.s 			page 33


 1818 00c7 00       		.byte	0
 1819 00c8 11       		.uleb128 0x11
 1820 00c9 01       		.uleb128 0x1
 1821 00ca 01       		.byte	0x1
 1822 00cb 49       		.uleb128 0x49
 1823 00cc 13       		.uleb128 0x13
 1824 00cd 01       		.uleb128 0x1
 1825 00ce 13       		.uleb128 0x13
 1826 00cf 00       		.byte	0
 1827 00d0 00       		.byte	0
 1828 00d1 12       		.uleb128 0x12
 1829 00d2 21       		.uleb128 0x21
 1830 00d3 00       		.byte	0
 1831 00d4 49       		.uleb128 0x49
 1832 00d5 13       		.uleb128 0x13
 1833 00d6 2F       		.uleb128 0x2f
 1834 00d7 0B       		.uleb128 0xb
 1835 00d8 00       		.byte	0
 1836 00d9 00       		.byte	0
 1837 00da 13       		.uleb128 0x13
 1838 00db 13       		.uleb128 0x13
 1839 00dc 01       		.byte	0x1
 1840 00dd 0B       		.uleb128 0xb
 1841 00de 0B       		.uleb128 0xb
 1842 00df 3A       		.uleb128 0x3a
 1843 00e0 0B       		.uleb128 0xb
 1844 00e1 3B       		.uleb128 0x3b
 1845 00e2 05       		.uleb128 0x5
 1846 00e3 01       		.uleb128 0x1
 1847 00e4 13       		.uleb128 0x13
 1848 00e5 00       		.byte	0
 1849 00e6 00       		.byte	0
 1850 00e7 14       		.uleb128 0x14
 1851 00e8 0D       		.uleb128 0xd
 1852 00e9 00       		.byte	0
 1853 00ea 03       		.uleb128 0x3
 1854 00eb 0E       		.uleb128 0xe
 1855 00ec 3A       		.uleb128 0x3a
 1856 00ed 0B       		.uleb128 0xb
 1857 00ee 3B       		.uleb128 0x3b
 1858 00ef 05       		.uleb128 0x5
 1859 00f0 49       		.uleb128 0x49
 1860 00f1 13       		.uleb128 0x13
 1861 00f2 38       		.uleb128 0x38
 1862 00f3 0A       		.uleb128 0xa
 1863 00f4 00       		.byte	0
 1864 00f5 00       		.byte	0
 1865 00f6 15       		.uleb128 0x15
 1866 00f7 16       		.uleb128 0x16
 1867 00f8 00       		.byte	0
 1868 00f9 03       		.uleb128 0x3
 1869 00fa 0E       		.uleb128 0xe
 1870 00fb 3A       		.uleb128 0x3a
 1871 00fc 0B       		.uleb128 0xb
 1872 00fd 3B       		.uleb128 0x3b
 1873 00fe 05       		.uleb128 0x5
 1874 00ff 49       		.uleb128 0x49
ARM GAS  /tmp/ccMZ2PH5.s 			page 34


 1875 0100 13       		.uleb128 0x13
 1876 0101 00       		.byte	0
 1877 0102 00       		.byte	0
 1878 0103 16       		.uleb128 0x16
 1879 0104 04       		.uleb128 0x4
 1880 0105 01       		.byte	0x1
 1881 0106 0B       		.uleb128 0xb
 1882 0107 0B       		.uleb128 0xb
 1883 0108 3A       		.uleb128 0x3a
 1884 0109 0B       		.uleb128 0xb
 1885 010a 3B       		.uleb128 0x3b
 1886 010b 0B       		.uleb128 0xb
 1887 010c 01       		.uleb128 0x1
 1888 010d 13       		.uleb128 0x13
 1889 010e 00       		.byte	0
 1890 010f 00       		.byte	0
 1891 0110 17       		.uleb128 0x17
 1892 0111 28       		.uleb128 0x28
 1893 0112 00       		.byte	0
 1894 0113 03       		.uleb128 0x3
 1895 0114 0E       		.uleb128 0xe
 1896 0115 1C       		.uleb128 0x1c
 1897 0116 0D       		.uleb128 0xd
 1898 0117 00       		.byte	0
 1899 0118 00       		.byte	0
 1900 0119 18       		.uleb128 0x18
 1901 011a 15       		.uleb128 0x15
 1902 011b 01       		.byte	0x1
 1903 011c 27       		.uleb128 0x27
 1904 011d 0C       		.uleb128 0xc
 1905 011e 49       		.uleb128 0x49
 1906 011f 13       		.uleb128 0x13
 1907 0120 01       		.uleb128 0x1
 1908 0121 13       		.uleb128 0x13
 1909 0122 00       		.byte	0
 1910 0123 00       		.byte	0
 1911 0124 19       		.uleb128 0x19
 1912 0125 05       		.uleb128 0x5
 1913 0126 00       		.byte	0
 1914 0127 49       		.uleb128 0x49
 1915 0128 13       		.uleb128 0x13
 1916 0129 00       		.byte	0
 1917 012a 00       		.byte	0
 1918 012b 1A       		.uleb128 0x1a
 1919 012c 0D       		.uleb128 0xd
 1920 012d 00       		.byte	0
 1921 012e 03       		.uleb128 0x3
 1922 012f 08       		.uleb128 0x8
 1923 0130 3A       		.uleb128 0x3a
 1924 0131 0B       		.uleb128 0xb
 1925 0132 3B       		.uleb128 0x3b
 1926 0133 0B       		.uleb128 0xb
 1927 0134 49       		.uleb128 0x49
 1928 0135 13       		.uleb128 0x13
 1929 0136 00       		.byte	0
 1930 0137 00       		.byte	0
 1931 0138 1B       		.uleb128 0x1b
ARM GAS  /tmp/ccMZ2PH5.s 			page 35


 1932 0139 2E       		.uleb128 0x2e
 1933 013a 01       		.byte	0x1
 1934 013b 3F       		.uleb128 0x3f
 1935 013c 0C       		.uleb128 0xc
 1936 013d 03       		.uleb128 0x3
 1937 013e 0E       		.uleb128 0xe
 1938 013f 3A       		.uleb128 0x3a
 1939 0140 0B       		.uleb128 0xb
 1940 0141 3B       		.uleb128 0x3b
 1941 0142 0B       		.uleb128 0xb
 1942 0143 27       		.uleb128 0x27
 1943 0144 0C       		.uleb128 0xc
 1944 0145 11       		.uleb128 0x11
 1945 0146 01       		.uleb128 0x1
 1946 0147 12       		.uleb128 0x12
 1947 0148 01       		.uleb128 0x1
 1948 0149 40       		.uleb128 0x40
 1949 014a 0A       		.uleb128 0xa
 1950 014b 9742     		.uleb128 0x2117
 1951 014d 0C       		.uleb128 0xc
 1952 014e 01       		.uleb128 0x1
 1953 014f 13       		.uleb128 0x13
 1954 0150 00       		.byte	0
 1955 0151 00       		.byte	0
 1956 0152 1C       		.uleb128 0x1c
 1957 0153 898201   		.uleb128 0x4109
 1958 0156 00       		.byte	0
 1959 0157 11       		.uleb128 0x11
 1960 0158 01       		.uleb128 0x1
 1961 0159 9542     		.uleb128 0x2115
 1962 015b 0C       		.uleb128 0xc
 1963 015c 31       		.uleb128 0x31
 1964 015d 13       		.uleb128 0x13
 1965 015e 00       		.byte	0
 1966 015f 00       		.byte	0
 1967 0160 1D       		.uleb128 0x1d
 1968 0161 2E       		.uleb128 0x2e
 1969 0162 01       		.byte	0x1
 1970 0163 3F       		.uleb128 0x3f
 1971 0164 0C       		.uleb128 0xc
 1972 0165 03       		.uleb128 0x3
 1973 0166 0E       		.uleb128 0xe
 1974 0167 3A       		.uleb128 0x3a
 1975 0168 0B       		.uleb128 0xb
 1976 0169 3B       		.uleb128 0x3b
 1977 016a 0B       		.uleb128 0xb
 1978 016b 27       		.uleb128 0x27
 1979 016c 0C       		.uleb128 0xc
 1980 016d 49       		.uleb128 0x49
 1981 016e 13       		.uleb128 0x13
 1982 016f 11       		.uleb128 0x11
 1983 0170 01       		.uleb128 0x1
 1984 0171 12       		.uleb128 0x12
 1985 0172 01       		.uleb128 0x1
 1986 0173 40       		.uleb128 0x40
 1987 0174 0A       		.uleb128 0xa
 1988 0175 9742     		.uleb128 0x2117
ARM GAS  /tmp/ccMZ2PH5.s 			page 36


 1989 0177 0C       		.uleb128 0xc
 1990 0178 01       		.uleb128 0x1
 1991 0179 13       		.uleb128 0x13
 1992 017a 00       		.byte	0
 1993 017b 00       		.byte	0
 1994 017c 1E       		.uleb128 0x1e
 1995 017d 05       		.uleb128 0x5
 1996 017e 00       		.byte	0
 1997 017f 03       		.uleb128 0x3
 1998 0180 0E       		.uleb128 0xe
 1999 0181 3A       		.uleb128 0x3a
 2000 0182 0B       		.uleb128 0xb
 2001 0183 3B       		.uleb128 0x3b
 2002 0184 0B       		.uleb128 0xb
 2003 0185 49       		.uleb128 0x49
 2004 0186 13       		.uleb128 0x13
 2005 0187 02       		.uleb128 0x2
 2006 0188 06       		.uleb128 0x6
 2007 0189 00       		.byte	0
 2008 018a 00       		.byte	0
 2009 018b 1F       		.uleb128 0x1f
 2010 018c 34       		.uleb128 0x34
 2011 018d 00       		.byte	0
 2012 018e 03       		.uleb128 0x3
 2013 018f 0E       		.uleb128 0xe
 2014 0190 3A       		.uleb128 0x3a
 2015 0191 0B       		.uleb128 0xb
 2016 0192 3B       		.uleb128 0x3b
 2017 0193 0B       		.uleb128 0xb
 2018 0194 49       		.uleb128 0x49
 2019 0195 13       		.uleb128 0x13
 2020 0196 02       		.uleb128 0x2
 2021 0197 0A       		.uleb128 0xa
 2022 0198 00       		.byte	0
 2023 0199 00       		.byte	0
 2024 019a 20       		.uleb128 0x20
 2025 019b 2E       		.uleb128 0x2e
 2026 019c 00       		.byte	0
 2027 019d 3F       		.uleb128 0x3f
 2028 019e 0C       		.uleb128 0xc
 2029 019f 03       		.uleb128 0x3
 2030 01a0 0E       		.uleb128 0xe
 2031 01a1 3A       		.uleb128 0x3a
 2032 01a2 0B       		.uleb128 0xb
 2033 01a3 3B       		.uleb128 0x3b
 2034 01a4 0B       		.uleb128 0xb
 2035 01a5 27       		.uleb128 0x27
 2036 01a6 0C       		.uleb128 0xc
 2037 01a7 11       		.uleb128 0x11
 2038 01a8 01       		.uleb128 0x1
 2039 01a9 12       		.uleb128 0x12
 2040 01aa 01       		.uleb128 0x1
 2041 01ab 40       		.uleb128 0x40
 2042 01ac 0A       		.uleb128 0xa
 2043 01ad 9742     		.uleb128 0x2117
 2044 01af 0C       		.uleb128 0xc
 2045 01b0 00       		.byte	0
ARM GAS  /tmp/ccMZ2PH5.s 			page 37


 2046 01b1 00       		.byte	0
 2047 01b2 21       		.uleb128 0x21
 2048 01b3 34       		.uleb128 0x34
 2049 01b4 00       		.byte	0
 2050 01b5 03       		.uleb128 0x3
 2051 01b6 0E       		.uleb128 0xe
 2052 01b7 3A       		.uleb128 0x3a
 2053 01b8 0B       		.uleb128 0xb
 2054 01b9 3B       		.uleb128 0x3b
 2055 01ba 05       		.uleb128 0x5
 2056 01bb 49       		.uleb128 0x49
 2057 01bc 13       		.uleb128 0x13
 2058 01bd 3F       		.uleb128 0x3f
 2059 01be 0C       		.uleb128 0xc
 2060 01bf 3C       		.uleb128 0x3c
 2061 01c0 0C       		.uleb128 0xc
 2062 01c1 00       		.byte	0
 2063 01c2 00       		.byte	0
 2064 01c3 22       		.uleb128 0x22
 2065 01c4 34       		.uleb128 0x34
 2066 01c5 00       		.byte	0
 2067 01c6 03       		.uleb128 0x3
 2068 01c7 0E       		.uleb128 0xe
 2069 01c8 3A       		.uleb128 0x3a
 2070 01c9 0B       		.uleb128 0xb
 2071 01ca 3B       		.uleb128 0x3b
 2072 01cb 0B       		.uleb128 0xb
 2073 01cc 49       		.uleb128 0x49
 2074 01cd 13       		.uleb128 0x13
 2075 01ce 3F       		.uleb128 0x3f
 2076 01cf 0C       		.uleb128 0xc
 2077 01d0 02       		.uleb128 0x2
 2078 01d1 0A       		.uleb128 0xa
 2079 01d2 00       		.byte	0
 2080 01d3 00       		.byte	0
 2081 01d4 23       		.uleb128 0x23
 2082 01d5 2E       		.uleb128 0x2e
 2083 01d6 00       		.byte	0
 2084 01d7 3F       		.uleb128 0x3f
 2085 01d8 0C       		.uleb128 0xc
 2086 01d9 03       		.uleb128 0x3
 2087 01da 0E       		.uleb128 0xe
 2088 01db 3A       		.uleb128 0x3a
 2089 01dc 0B       		.uleb128 0xb
 2090 01dd 3B       		.uleb128 0x3b
 2091 01de 05       		.uleb128 0x5
 2092 01df 27       		.uleb128 0x27
 2093 01e0 0C       		.uleb128 0xc
 2094 01e1 3C       		.uleb128 0x3c
 2095 01e2 0C       		.uleb128 0xc
 2096 01e3 00       		.byte	0
 2097 01e4 00       		.byte	0
 2098 01e5 00       		.byte	0
 2099              		.section	.debug_loc,"",%progbits
 2100              	.Ldebug_loc0:
 2101              	.LLST0:
 2102 0000 00000000 		.4byte	.LVL1
ARM GAS  /tmp/ccMZ2PH5.s 			page 38


 2103 0004 1A000000 		.4byte	.LVL2
 2104 0008 0100     		.2byte	0x1
 2105 000a 50       		.byte	0x50
 2106 000b 1A000000 		.4byte	.LVL2
 2107 000f 24000000 		.4byte	.LVL3
 2108 0013 0400     		.2byte	0x4
 2109 0015 F3       		.byte	0xf3
 2110 0016 01       		.uleb128 0x1
 2111 0017 50       		.byte	0x50
 2112 0018 9F       		.byte	0x9f
 2113 0019 24000000 		.4byte	.LVL3
 2114 001d 28000000 		.4byte	.LVL4
 2115 0021 0100     		.2byte	0x1
 2116 0023 50       		.byte	0x50
 2117 0024 28000000 		.4byte	.LVL4
 2118 0028 30000000 		.4byte	.LFE119
 2119 002c 0400     		.2byte	0x4
 2120 002e F3       		.byte	0xf3
 2121 002f 01       		.uleb128 0x1
 2122 0030 50       		.byte	0x50
 2123 0031 9F       		.byte	0x9f
 2124 0032 00000000 		.4byte	0
 2125 0036 00000000 		.4byte	0
 2126              	.LLST1:
 2127 003a 00000000 		.4byte	.LVL5
 2128 003e 02000000 		.4byte	.LVL6
 2129 0042 0100     		.2byte	0x1
 2130 0044 50       		.byte	0x50
 2131 0045 02000000 		.4byte	.LVL6
 2132 0049 04000000 		.4byte	.LFE120
 2133 004d 0400     		.2byte	0x4
 2134 004f F3       		.byte	0xf3
 2135 0050 01       		.uleb128 0x1
 2136 0051 50       		.byte	0x50
 2137 0052 9F       		.byte	0x9f
 2138 0053 00000000 		.4byte	0
 2139 0057 00000000 		.4byte	0
 2140              		.section	.debug_aranges,"",%progbits
 2141 0000 34000000 		.4byte	0x34
 2142 0004 0200     		.2byte	0x2
 2143 0006 00000000 		.4byte	.Ldebug_info0
 2144 000a 04       		.byte	0x4
 2145 000b 00       		.byte	0
 2146 000c 0000     		.2byte	0
 2147 000e 0000     		.2byte	0
 2148 0010 00000000 		.4byte	.LFB118
 2149 0014 04000000 		.4byte	.LFE118-.LFB118
 2150 0018 00000000 		.4byte	.LFB119
 2151 001c 30000000 		.4byte	.LFE119-.LFB119
 2152 0020 00000000 		.4byte	.LFB120
 2153 0024 04000000 		.4byte	.LFE120-.LFB120
 2154 0028 00000000 		.4byte	.LFB121
 2155 002c 02000000 		.4byte	.LFE121-.LFB121
 2156 0030 00000000 		.4byte	0
 2157 0034 00000000 		.4byte	0
 2158              		.section	.debug_ranges,"",%progbits
 2159              	.Ldebug_ranges0:
ARM GAS  /tmp/ccMZ2PH5.s 			page 39


 2160 0000 00000000 		.4byte	.LFB118
 2161 0004 04000000 		.4byte	.LFE118
 2162 0008 00000000 		.4byte	.LFB119
 2163 000c 30000000 		.4byte	.LFE119
 2164 0010 00000000 		.4byte	.LFB120
 2165 0014 04000000 		.4byte	.LFE120
 2166 0018 00000000 		.4byte	.LFB121
 2167 001c 02000000 		.4byte	.LFE121
 2168 0020 00000000 		.4byte	0
 2169 0024 00000000 		.4byte	0
 2170              		.section	.debug_line,"",%progbits
 2171              	.Ldebug_line0:
 2172 0000 84020000 		.section	.debug_str,"MS",%progbits,1
 2172      02003102 
 2172      00000201 
 2172      FB0E0D00 
 2172      01010101 
 2173              	.LASF78:
 2174 0000 426C6F63 		.ascii	"BlockDeviceInfo\000"
 2174      6B446576 
 2174      69636549 
 2174      6E666F00 
 2175              	.LASF95:
 2176 0010 73746D33 		.ascii	"stm32_gpio_setup_t\000"
 2176      325F6770 
 2176      696F5F73 
 2176      65747570 
 2176      5F7400
 2177              	.LASF58:
 2178 0023 4D304152 		.ascii	"M0AR\000"
 2178      00
 2179              	.LASF34:
 2180 0028 705F7469 		.ascii	"p_time\000"
 2180      6D6500
 2181              	.LASF77:
 2182 002f 626C6B5F 		.ascii	"blk_num\000"
 2182      6E756D00 
 2183              	.LASF52:
 2184 0037 7264796D 		.ascii	"rdymsg\000"
 2184      736700
 2185              	.LASF120:
 2186 003e 69735F70 		.ascii	"is_protected\000"
 2186      726F7465 
 2186      63746564 
 2186      00
 2187              	.LASF81:
 2188 004b 4F545950 		.ascii	"OTYPER\000"
 2188      455200
 2189              	.LASF90:
 2190 0052 6F747970 		.ascii	"otyper\000"
 2190      657200
 2191              	.LASF110:
 2192 0059 63617061 		.ascii	"capacity\000"
 2192      63697479 
 2192      00
 2193              	.LASF61:
 2194 0062 73747265 		.ascii	"stream\000"
ARM GAS  /tmp/ccMZ2PH5.s 			page 40


 2194      616D00
 2195              	.LASF103:
 2196 0069 50484461 		.ascii	"PHData\000"
 2196      746100
 2197              	.LASF80:
 2198 0070 4D4F4445 		.ascii	"MODER\000"
 2198      5200
 2199              	.LASF12:
 2200 0076 6C6F6E67 		.ascii	"long long unsigned int\000"
 2200      206C6F6E 
 2200      6720756E 
 2200      7369676E 
 2200      65642069 
 2201              	.LASF83:
 2202 008d 50555044 		.ascii	"PUPDR\000"
 2202      5200
 2203              	.LASF53:
 2204 0093 65786974 		.ascii	"exitcode\000"
 2204      636F6465 
 2204      00
 2205              	.LASF65:
 2206 009c 76656374 		.ascii	"vector\000"
 2206      6F7200
 2207              	.LASF112:
 2208 00a3 63617264 		.ascii	"cardmode\000"
 2208      6D6F6465 
 2208      00
 2209              	.LASF130:
 2210 00ac 49544D5F 		.ascii	"ITM_RxBuffer\000"
 2210      52784275 
 2210      66666572 
 2210      00
 2211              	.LASF75:
 2212 00b9 626C6B73 		.ascii	"blkstate_t\000"
 2212      74617465 
 2212      5F7400
 2213              	.LASF25:
 2214 00c4 705F7072 		.ascii	"p_prio\000"
 2214      696F00
 2215              	.LASF11:
 2216 00cb 6C6F6E67 		.ascii	"long long int\000"
 2216      206C6F6E 
 2216      6720696E 
 2216      7400
 2217              	.LASF1:
 2218 00d9 7369676E 		.ascii	"signed char\000"
 2218      65642063 
 2218      68617200 
 2219              	.LASF41:
 2220 00e5 705F6D70 		.ascii	"p_mpool\000"
 2220      6F6F6C00 
 2221              	.LASF13:
 2222 00ed 626F6F6C 		.ascii	"bool_t\000"
 2222      5F7400
 2223              	.LASF49:
 2224 00f4 6D5F7175 		.ascii	"m_queue\000"
 2224      65756500 
ARM GAS  /tmp/ccMZ2PH5.s 			page 41


 2225              	.LASF122:
 2226 00fc 64697363 		.ascii	"disconnect\000"
 2226      6F6E6E65 
 2226      637400
 2227              	.LASF89:
 2228 0107 6D6F6465 		.ascii	"moder\000"
 2228      7200
 2229              	.LASF17:
 2230 010d 74736C69 		.ascii	"tslices_t\000"
 2230      6365735F 
 2230      7400
 2231              	.LASF67:
 2232 0117 424C4B5F 		.ascii	"BLK_UNINIT\000"
 2232      554E494E 
 2232      495400
 2233              	.LASF109:
 2234 0122 73746174 		.ascii	"state\000"
 2234      6500
 2235              	.LASF8:
 2236 0128 6C6F6E67 		.ascii	"long int\000"
 2236      20696E74 
 2236      00
 2237              	.LASF100:
 2238 0131 50454461 		.ascii	"PEData\000"
 2238      746100
 2239              	.LASF15:
 2240 0138 74737461 		.ascii	"tstate_t\000"
 2240      74655F74 
 2240      00
 2241              	.LASF68:
 2242 0141 424C4B5F 		.ascii	"BLK_STOP\000"
 2242      53544F50 
 2242      00
 2243              	.LASF5:
 2244 014a 75696E74 		.ascii	"uint16_t\000"
 2244      31365F74 
 2244      00
 2245              	.LASF133:
 2246 0153 2E2E2F2E 		.ascii	"../../boards/OLIMEX_STM32_E407/board.c\000"
 2246      2E2F626F 
 2246      61726473 
 2246      2F4F4C49 
 2246      4D45585F 
 2247              	.LASF27:
 2248 017a 705F6E65 		.ascii	"p_newer\000"
 2248      77657200 
 2249              	.LASF88:
 2250 0182 4750494F 		.ascii	"GPIO_TypeDef\000"
 2250      5F547970 
 2250      65446566 
 2250      00
 2251              	.LASF126:
 2252 018f 6765745F 		.ascii	"get_info\000"
 2252      696E666F 
 2252      00
 2253              	.LASF82:
 2254 0198 4F535045 		.ascii	"OSPEEDR\000"
ARM GAS  /tmp/ccMZ2PH5.s 			page 42


 2254      45445200 
 2255              	.LASF44:
 2256 01a0 72656761 		.ascii	"regarm_t\000"
 2256      726D5F74 
 2256      00
 2257              	.LASF64:
 2258 01a9 73656C66 		.ascii	"selfindex\000"
 2258      696E6465 
 2258      7800
 2259              	.LASF116:
 2260 01b3 64756D6D 		.ascii	"dummy\000"
 2260      7900
 2261              	.LASF22:
 2262 01b9 54687265 		.ascii	"Thread\000"
 2262      616400
 2263              	.LASF76:
 2264 01c0 626C6B5F 		.ascii	"blk_size\000"
 2264      73697A65 
 2264      00
 2265              	.LASF138:
 2266 01c9 73746D33 		.ascii	"stm32_clock_init\000"
 2266      325F636C 
 2266      6F636B5F 
 2266      696E6974 
 2266      00
 2267              	.LASF106:
 2268 01da 7364636D 		.ascii	"sdcmode_t\000"
 2268      6F64655F 
 2268      7400
 2269              	.LASF97:
 2270 01e4 50424461 		.ascii	"PBData\000"
 2270      746100
 2271              	.LASF31:
 2272 01eb 705F666C 		.ascii	"p_flags\000"
 2272      61677300 
 2273              	.LASF0:
 2274 01f3 756E7369 		.ascii	"unsigned int\000"
 2274      676E6564 
 2274      20696E74 
 2274      00
 2275              	.LASF113:
 2276 0200 6572726F 		.ascii	"errors\000"
 2276      727300
 2277              	.LASF36:
 2278 0207 705F6D73 		.ascii	"p_msgqueue\000"
 2278      67717565 
 2278      756500
 2279              	.LASF91:
 2280 0212 6F737065 		.ascii	"ospeedr\000"
 2280      65647200 
 2281              	.LASF85:
 2282 021a 4C434B52 		.ascii	"LCKR\000"
 2282      00
 2283              	.LASF63:
 2284 021f 69736869 		.ascii	"ishift\000"
 2284      667400
 2285              	.LASF135:
ARM GAS  /tmp/ccMZ2PH5.s 			page 43


 2286 0226 5F5F6561 		.ascii	"__early_init\000"
 2286      726C795F 
 2286      696E6974 
 2286      00
 2287              	.LASF6:
 2288 0233 73686F72 		.ascii	"short unsigned int\000"
 2288      7420756E 
 2288      7369676E 
 2288      65642069 
 2288      6E7400
 2289              	.LASF101:
 2290 0246 50464461 		.ascii	"PFData\000"
 2290      746100
 2291              	.LASF69:
 2292 024d 424C4B5F 		.ascii	"BLK_ACTIVE\000"
 2292      41435449 
 2292      564500
 2293              	.LASF136:
 2294 0258 6C617374 		.ascii	"last_status\000"
 2294      5F737461 
 2294      74757300 
 2295              	.LASF128:
 2296 0264 7364635F 		.ascii	"sdc_lld_is_write_protected\000"
 2296      6C6C645F 
 2296      69735F77 
 2296      72697465 
 2296      5F70726F 
 2297              	.LASF19:
 2298 027f 6D73675F 		.ascii	"msg_t\000"
 2298      7400
 2299              	.LASF70:
 2300 0285 424C4B5F 		.ascii	"BLK_CONNECTING\000"
 2300      434F4E4E 
 2300      45435449 
 2300      4E4700
 2301              	.LASF14:
 2302 0294 746D6F64 		.ascii	"tmode_t\000"
 2302      655F7400 
 2303              	.LASF43:
 2304 029c 54687265 		.ascii	"ThreadsList\000"
 2304      6164734C 
 2304      69737400 
 2305              	.LASF20:
 2306 02a8 6576656E 		.ascii	"eventmask_t\000"
 2306      746D6173 
 2306      6B5F7400 
 2307              	.LASF134:
 2308 02b4 2F686F6D 		.ascii	"/home/kwilson/Sandbox/ChibiOS_2.5.1/demos/ARMCM4-ST"
 2308      652F6B77 
 2308      696C736F 
 2308      6E2F5361 
 2308      6E64626F 
 2309 02e7 4D333246 		.ascii	"M32F407-LWIP-FATFS-USB\000"
 2309      3430372D 
 2309      4C574950 
 2309      2D464154 
 2309      46532D55 
ARM GAS  /tmp/ccMZ2PH5.s 			page 44


 2310              	.LASF102:
 2311 02fe 50474461 		.ascii	"PGData\000"
 2311      746100
 2312              	.LASF124:
 2313 0305 77726974 		.ascii	"write\000"
 2313      6500
 2314              	.LASF73:
 2315 030b 424C4B5F 		.ascii	"BLK_READING\000"
 2315      52454144 
 2315      494E4700 
 2316              	.LASF47:
 2317 0317 73697A65 		.ascii	"sizetype\000"
 2317      74797065 
 2317      00
 2318              	.LASF79:
 2319 0320 636C6561 		.ascii	"clear\000"
 2319      7200
 2320              	.LASF48:
 2321 0326 4D757465 		.ascii	"Mutex\000"
 2321      7800
 2322              	.LASF99:
 2323 032c 50444461 		.ascii	"PDData\000"
 2323      746100
 2324              	.LASF28:
 2325 0333 705F6F6C 		.ascii	"p_older\000"
 2325      64657200 
 2326              	.LASF72:
 2327 033b 424C4B5F 		.ascii	"BLK_READY\000"
 2327      52454144 
 2327      5900
 2328              	.LASF42:
 2329 0345 54687265 		.ascii	"ThreadsQueue\000"
 2329      61647351 
 2329      75657565 
 2329      00
 2330              	.LASF94:
 2331 0352 61667268 		.ascii	"afrh\000"
 2331      00
 2332              	.LASF132:
 2333 0357 474E5520 		.ascii	"GNU C 4.7.2\000"
 2333      4320342E 
 2333      372E3200 
 2334              	.LASF87:
 2335 0363 41465248 		.ascii	"AFRH\000"
 2335      00
 2336              	.LASF86:
 2337 0368 4146524C 		.ascii	"AFRL\000"
 2337      00
 2338              	.LASF16:
 2339 036d 74726566 		.ascii	"trefs_t\000"
 2339      735F7400 
 2340              	.LASF127:
 2341 0375 7364635F 		.ascii	"sdc_lld_is_card_inserted\000"
 2341      6C6C645F 
 2341      69735F63 
 2341      6172645F 
 2341      696E7365 
ARM GAS  /tmp/ccMZ2PH5.s 			page 45


 2342              	.LASF24:
 2343 038e 705F7072 		.ascii	"p_prev\000"
 2343      657600
 2344              	.LASF66:
 2345 0395 73746D33 		.ascii	"stm32_dma_stream_t\000"
 2345      325F646D 
 2345      615F7374 
 2345      7265616D 
 2345      5F7400
 2346              	.LASF18:
 2347 03a8 74707269 		.ascii	"tprio_t\000"
 2347      6F5F7400 
 2348              	.LASF114:
 2349 03b0 74687265 		.ascii	"thread\000"
 2349      616400
 2350              	.LASF7:
 2351 03b7 696E7433 		.ascii	"int32_t\000"
 2351      325F7400 
 2352              	.LASF2:
 2353 03bf 756E7369 		.ascii	"unsigned char\000"
 2353      676E6564 
 2353      20636861 
 2353      7200
 2354              	.LASF93:
 2355 03cd 6166726C 		.ascii	"afrl\000"
 2355      00
 2356              	.LASF39:
 2357 03d2 705F6D74 		.ascii	"p_mtxlist\000"
 2357      786C6973 
 2357      7400
 2358              	.LASF3:
 2359 03dc 73686F72 		.ascii	"short int\000"
 2359      7420696E 
 2359      7400
 2360              	.LASF30:
 2361 03e6 705F7374 		.ascii	"p_state\000"
 2361      61746500 
 2362              	.LASF74:
 2363 03ee 424C4B5F 		.ascii	"BLK_WRITING\000"
 2363      57524954 
 2363      494E4700 
 2364              	.LASF33:
 2365 03fa 705F7072 		.ascii	"p_preempt\000"
 2365      65656D70 
 2365      7400
 2366              	.LASF96:
 2367 0404 50414461 		.ascii	"PAData\000"
 2367      746100
 2368              	.LASF55:
 2369 040b 65776D61 		.ascii	"ewmask\000"
 2369      736B00
 2370              	.LASF23:
 2371 0412 705F6E65 		.ascii	"p_next\000"
 2371      787400
 2372              	.LASF118:
 2373 0419 53444344 		.ascii	"SDCDriverVMT\000"
 2373      72697665 
ARM GAS  /tmp/ccMZ2PH5.s 			page 46


 2373      72564D54 
 2373      00
 2374              	.LASF104:
 2375 0426 50494461 		.ascii	"PIData\000"
 2375      746100
 2376              	.LASF121:
 2377 042d 636F6E6E 		.ascii	"connect\000"
 2377      65637400 
 2378              	.LASF38:
 2379 0435 705F6570 		.ascii	"p_epending\000"
 2379      656E6469 
 2379      6E6700
 2380              	.LASF62:
 2381 0440 69666372 		.ascii	"ifcr\000"
 2381      00
 2382              	.LASF9:
 2383 0445 75696E74 		.ascii	"uint32_t\000"
 2383      33325F74 
 2383      00
 2384              	.LASF10:
 2385 044e 6C6F6E67 		.ascii	"long unsigned int\000"
 2385      20756E73 
 2385      69676E65 
 2385      6420696E 
 2385      7400
 2386              	.LASF123:
 2387 0460 72656164 		.ascii	"read\000"
 2387      00
 2388              	.LASF56:
 2389 0465 63686172 		.ascii	"char\000"
 2389      00
 2390              	.LASF71:
 2391 046a 424C4B5F 		.ascii	"BLK_DISCONNECTING\000"
 2391      44495343 
 2391      4F4E4E45 
 2391      4354494E 
 2391      4700
 2392              	.LASF111:
 2393 047c 636F6E66 		.ascii	"config\000"
 2393      696700
 2394              	.LASF129:
 2395 0483 73646370 		.ascii	"sdcp\000"
 2395      00
 2396              	.LASF51:
 2397 0488 6D5F6E65 		.ascii	"m_next\000"
 2397      787400
 2398              	.LASF21:
 2399 048f 73797374 		.ascii	"systime_t\000"
 2399      696D655F 
 2399      7400
 2400              	.LASF40:
 2401 0499 705F7265 		.ascii	"p_realprio\000"
 2401      616C7072 
 2401      696F00
 2402              	.LASF57:
 2403 04a4 4E445452 		.ascii	"NDTR\000"
 2403      00
ARM GAS  /tmp/ccMZ2PH5.s 			page 47


 2404              	.LASF60:
 2405 04a9 444D415F 		.ascii	"DMA_Stream_TypeDef\000"
 2405      53747265 
 2405      616D5F54 
 2405      79706544 
 2405      656600
 2406              	.LASF46:
 2407 04bc 636F6E74 		.ascii	"context\000"
 2407      65787400 
 2408              	.LASF107:
 2409 04c4 73646366 		.ascii	"sdcflags_t\000"
 2409      6C616773 
 2409      5F7400
 2410              	.LASF45:
 2411 04cf 696E7463 		.ascii	"intctx\000"
 2411      747800
 2412              	.LASF119:
 2413 04d6 69735F69 		.ascii	"is_inserted\000"
 2413      6E736572 
 2413      74656400 
 2414              	.LASF59:
 2415 04e2 4D314152 		.ascii	"M1AR\000"
 2415      00
 2416              	.LASF32:
 2417 04e7 705F7265 		.ascii	"p_refs\000"
 2417      667300
 2418              	.LASF84:
 2419 04ee 42535252 		.ascii	"BSRR\000"
 2419      00
 2420              	.LASF117:
 2421 04f3 53444343 		.ascii	"SDCConfig\000"
 2421      6F6E6669 
 2421      6700
 2422              	.LASF137:
 2423 04fd 626F6172 		.ascii	"boardInit\000"
 2423      64496E69 
 2423      7400
 2424              	.LASF4:
 2425 0507 75696E74 		.ascii	"uint8_t\000"
 2425      385F7400 
 2426              	.LASF92:
 2427 050f 70757064 		.ascii	"pupdr\000"
 2427      7200
 2428              	.LASF125:
 2429 0515 73796E63 		.ascii	"sync\000"
 2429      00
 2430              	.LASF115:
 2431 051a 646D616D 		.ascii	"dmamode\000"
 2431      6F646500 
 2432              	.LASF54:
 2433 0522 77746F62 		.ascii	"wtobjp\000"
 2433      6A7000
 2434              	.LASF29:
 2435 0529 705F6E61 		.ascii	"p_name\000"
 2435      6D6500
 2436              	.LASF98:
 2437 0530 50434461 		.ascii	"PCData\000"
ARM GAS  /tmp/ccMZ2PH5.s 			page 48


 2437      746100
 2438              	.LASF37:
 2439 0537 705F6D73 		.ascii	"p_msg\000"
 2439      6700
 2440              	.LASF105:
 2441 053d 50414C43 		.ascii	"PALConfig\000"
 2441      6F6E6669 
 2441      6700
 2442              	.LASF50:
 2443 0547 6D5F6F77 		.ascii	"m_owner\000"
 2443      6E657200 
 2444              	.LASF108:
 2445 054f 53444344 		.ascii	"SDCDriver\000"
 2445      72697665 
 2445      7200
 2446              	.LASF131:
 2447 0559 70616C5F 		.ascii	"pal_default_config\000"
 2447      64656661 
 2447      756C745F 
 2447      636F6E66 
 2447      696700
 2448              	.LASF26:
 2449 056c 705F6374 		.ascii	"p_ctx\000"
 2449      7800
 2450              	.LASF35:
 2451 0572 705F7761 		.ascii	"p_waiting\000"
 2451      6974696E 
 2451      6700
 2452              		.ident	"GCC: (crosstool-NG 1.17.0 - PSAS ST32F4 GFE) 4.7.2"
ARM GAS  /tmp/ccMZ2PH5.s 			page 49


DEFINED SYMBOLS
                            *ABS*:0000000000000000 board.c
     /tmp/ccMZ2PH5.s:21     .text.__early_init:0000000000000000 $t
     /tmp/ccMZ2PH5.s:27     .text.__early_init:0000000000000000 __early_init
     /tmp/ccMZ2PH5.s:43     .text.sdc_lld_is_card_inserted:0000000000000000 $t
     /tmp/ccMZ2PH5.s:49     .text.sdc_lld_is_card_inserted:0000000000000000 sdc_lld_is_card_inserted
     /tmp/ccMZ2PH5.s:87     .text.sdc_lld_is_card_inserted:000000000000002c $d
     /tmp/ccMZ2PH5.s:92     .text.sdc_lld_is_write_protected:0000000000000000 $t
     /tmp/ccMZ2PH5.s:98     .text.sdc_lld_is_write_protected:0000000000000000 sdc_lld_is_write_protected
     /tmp/ccMZ2PH5.s:114    .text.boardInit:0000000000000000 $t
     /tmp/ccMZ2PH5.s:120    .text.boardInit:0000000000000000 boardInit
     /tmp/ccMZ2PH5.s:136    .rodata.pal_default_config:0000000000000000 pal_default_config
     /tmp/ccMZ2PH5.s:133    .rodata.pal_default_config:0000000000000000 $d
     /tmp/ccMZ2PH5.s:201    .bss.last_status.7065:0000000000000000 $d
     /tmp/ccMZ2PH5.s:205    .bss.last_status.7065:0000000000000000 last_status.7065
                     .debug_frame:0000000000000010 $d

UNDEFINED SYMBOLS
stm32_clock_init
