ARM GAS  /tmp/ccMZ2PH5.s 			page 1


   1              		.syntax unified
   2              		.cpu cortex-m4
   3              		.eabi_attribute 27, 3
   4              		.eabi_attribute 28, 1
   5              		.fpu fpv4-sp-d16
   6              		.eabi_attribute 20, 1
   7              		.eabi_attribute 21, 1
   8              		.eabi_attribute 23, 3
   9              		.eabi_attribute 24, 1
  10              		.eabi_attribute 25, 1
  11              		.eabi_attribute 26, 1
  12              		.eabi_attribute 30, 2
  13              		.eabi_attribute 34, 1
  14              		.eabi_attribute 18, 4
  15              		.thumb
  16              		.file	"board.c"
  17              		.text
  18              	.Ltext0:
  19              		.cfi_sections	.debug_frame
  20              		.section	.text.__early_init,"ax",%progbits
  21              		.align	2
  22              		.p2align 4,,15
  23              		.global	__early_init
  24              		.thumb
  25              		.thumb_func
  26              		.type	__early_init, %function
  27              	__early_init:
  28              	.LFB118:
  29              		.file 1 "../../boards/OLIMEX_STM32_E407/board.c"
  30              		.loc 1 58 0
  31              		.cfi_startproc
  32              		@ args = 0, pretend = 0, frame = 0
  33              		@ frame_needed = 0, uses_anonymous_args = 0
  34              		@ link register save eliminated.
  35              		.loc 1 61 0
  36              		.loc 1 60 0
  37 0000 FFF7FEBF 		b	stm32_clock_init
  38              	.LVL0:
  39              		.cfi_endproc
  40              	.LFE118:
  41              		.size	__early_init, .-__early_init
  42 0004 AFF30080 		.section	.text.sdc_lld_is_card_inserted,"ax",%progbits
  42      AFF30080 
  42      AFF30080 
  43              		.align	2
  44              		.p2align 4,,15
  45              		.global	sdc_lld_is_card_inserted
  46              		.thumb
  47              		.thumb_func
  48              		.type	sdc_lld_is_card_inserted, %function
  49              	sdc_lld_is_card_inserted:
  50              	.LFB119:
  51              		.loc 1 67 0
  52              		.cfi_startproc
  53              		@ args = 0, pretend = 0, frame = 0
  54              		@ frame_needed = 0, uses_anonymous_args = 0
  55              		@ link register save eliminated.
ARM GAS  /tmp/ccMZ2PH5.s 			page 2


  56              	.LVL1:
  57              		.loc 1 70 0
  58 0000 0379     		ldrb	r3, [r0, #4]	@ zero_extendqisi2
  59 0002 DA1E     		subs	r2, r3, #3
  60 0004 062B     		cmp	r3, #6
  61 0006 18BF     		it	ne
  62 0008 012A     		cmpne	r2, #1
  63 000a 0BD9     		bls	.L3
  64              		.loc 1 70 0 is_stmt 0 discriminator 1
  65 000c 072B     		cmp	r3, #7
  66 000e 09D0     		beq	.L3
  67              		.loc 1 72 0 is_stmt 1
  68 0010 4FF40063 		mov	r3, #2048
  69 0014 C4F20203 		movt	r3, 16386
  70 0018 1869     		ldr	r0, [r3, #16]
  71              	.LVL2:
  72 001a 044B     		ldr	r3, .L7
  73 001c C0F3C020 		ubfx	r0, r0, #11, #1
  74 0020 1860     		str	r0, [r3, #0]
  75              		.loc 1 73 0
  76 0022 7047     		bx	lr
  77              	.LVL3:
  78              	.L3:
  79              		.loc 1 71 0
  80 0024 014B     		ldr	r3, .L7
  81 0026 1868     		ldr	r0, [r3, #0]
  82              	.LVL4:
  83 0028 7047     		bx	lr
  84              	.L8:
  85 002a 00BF     		.align	2
  86              	.L7:
  87 002c 00000000 		.word	.LANCHOR0
  88              		.cfi_endproc
  89              	.LFE119:
  90              		.size	sdc_lld_is_card_inserted, .-sdc_lld_is_card_inserted
  91              		.section	.text.sdc_lld_is_write_protected,"ax",%progbits
  92              		.align	2
  93              		.p2align 4,,15
  94              		.global	sdc_lld_is_write_protected
  95              		.thumb
  96              		.thumb_func
  97              		.type	sdc_lld_is_write_protected, %function
  98              	sdc_lld_is_write_protected:
  99              	.LFB120:
 100              		.loc 1 78 0
 101              		.cfi_startproc
 102              		@ args = 0, pretend = 0, frame = 0
 103              		@ frame_needed = 0, uses_anonymous_args = 0
 104              		@ link register save eliminated.
 105              	.LVL5:
 106              		.loc 1 82 0
 107 0000 0020     		movs	r0, #0
 108              	.LVL6:
 109 0002 7047     		bx	lr
 110              		.cfi_endproc
 111              	.LFE120:
 112              		.size	sdc_lld_is_write_protected, .-sdc_lld_is_write_protected
ARM GAS  /tmp/ccMZ2PH5.s 			page 3


 113 0004 AFF30080 		.section	.text.boardInit,"ax",%progbits
 113      AFF30080 
 113      AFF30080 
 114              		.align	2
 115              		.p2align 4,,15
 116              		.global	boardInit
 117              		.thumb
 118              		.thumb_func
 119              		.type	boardInit, %function
 120              	boardInit:
 121              	.LFB121:
 122              		.loc 1 111 0
 123              		.cfi_startproc
 124              		@ args = 0, pretend = 0, frame = 0
 125              		@ frame_needed = 0, uses_anonymous_args = 0
 126              		@ link register save eliminated.
 127 0000 7047     		bx	lr
 128              		.cfi_endproc
 129              	.LFE121:
 130              		.size	boardInit, .-boardInit
 131              		.global	pal_default_config
 132 0002 00BFAFF3 		.section	.rodata.pal_default_config,"a",%progbits
 132      0080AFF3 
 132      0080AFF3 
 132      0080
 133              		.align	2
 134              		.type	pal_default_config, %object
 135              		.size	pal_default_config, 252
 136              	pal_default_config:
 137 0000 2880A1AA 		.word	-1432256472
 138 0004 00000000 		.word	0
 139 0008 FFFFFFFF 		.word	-1
 140 000c 00150820 		.word	537400576
 141 0010 FFFF0000 		.word	65535
 142 0014 B00B00B0 		.word	-1342174288
 143 0018 00AA0A00 		.word	698880
 144 001c 81022AA2 		.word	-1574305151
 145 0020 00030000 		.word	768
 146 0024 FFFFFFFF 		.word	-1
 147 0028 00544008 		.word	138433536
 148 002c FFFF0000 		.word	65535
 149 0030 00000000 		.word	0
 150 0034 44050CCC 		.word	-871627452
 151 0038 A8AAAA06 		.word	111848104
 152 003c 00000000 		.word	0
 153 0040 FFFFFFFF 		.word	-1
 154 0044 01000000 		.word	1
 155 0048 FFFF0000 		.word	65535
 156 004c B055BB88 		.word	-2000988752
 157 0050 CCCC0C00 		.word	838860
 158 0054 20000000 		.word	32
 159 0058 00000000 		.word	0
 160 005c FFFFFFFF 		.word	-1
 161 0060 45555555 		.word	1431655749
 162 0064 FFFF0000 		.word	65535
 163 0068 000C0000 		.word	3072
 164 006c 00000000 		.word	0
ARM GAS  /tmp/ccMZ2PH5.s 			page 4


 165 0070 00000000 		.word	0
 166 0074 00000000 		.word	0
 167 0078 FFFFFFFF 		.word	-1
 168 007c 55555555 		.word	1431655765
 169 0080 FFFF0000 		.word	65535
 170 0084 00000000 		.word	0
 171 0088 00000000 		.word	0
 172 008c 00000000 		.word	0
 173 0090 00000000 		.word	0
 174 0094 FFFFFFFF 		.word	-1
 175 0098 55551555 		.word	1427461461
 176 009c FFFF0000 		.word	65535
 177 00a0 00000000 		.word	0
 178 00a4 00000000 		.word	0
 179 00a8 00009028 		.word	680525824
 180 00ac 00000000 		.word	0
 181 00b0 FFFFFFFF 		.word	-1
 182 00b4 55550541 		.word	1090868565
 183 00b8 FFFF0000 		.word	65535
 184 00bc 00000000 		.word	0
 185 00c0 00B0B00B 		.word	196128768
 186 00c4 00000000 		.word	0
 187 00c8 00000000 		.word	0
 188 00cc FFFFFFFF 		.word	-1
 189 00d0 50555555 		.word	1431655760
 190 00d4 FFFF0000 		.word	65535
 191 00d8 00000000 		.word	0
 192 00dc 00000000 		.word	0
 193 00e0 00000000 		.word	0
 194 00e4 00000000 		.word	0
 195 00e8 FFFFFFFF 		.word	-1
 196 00ec 55555555 		.word	1431655765
 197 00f0 FFFF0000 		.word	65535
 198 00f4 00000000 		.word	0
 199 00f8 00000000 		.word	0
 200              		.section	.bss.last_status.7065,"aw",%nobits
 201              		.align	2
 202              		.set	.LANCHOR0,. + 0
 203              		.type	last_status.7065, %object
 204              		.size	last_status.7065, 4
 205              	last_status.7065:
 206 0000 00000000 		.space	4
 207              		.text
 208              	.Letext0:
 209              		.file 2 "/opt/psas/x-tools/stm32f407/arm-psas-eabi/bin/../lib/gcc/arm-psas-eabi/4.7.2/../../../../
 210              		.file 3 "../../os/ports/GCC/ARMCMx/chtypes.h"
 211              		.file 4 "../../os/kernel/include/chlists.h"
 212              		.file 5 "../../os/kernel/include/chthreads.h"
 213              		.file 6 "../../os/ports/GCC/ARMCMx/chcore_v7m.h"
 214              		.file 7 "../../os/kernel/include/chmtx.h"
 215              		.file 8 "../../os/hal/platforms/STM32F4xx/stm32f4xx.h"
 216              		.file 9 "../../os/hal/platforms/STM32F4xx/stm32_dma.h"
 217              		.file 10 "../../os/hal/include/io_block.h"
 218              		.file 11 "../../os/hal/platforms/STM32/GPIOv2/pal_lld.h"
 219              		.file 12 "../../os/hal/platforms/STM32/sdc_lld.h"
 220              		.file 13 "../../os/ports/common/ARMCMx/CMSIS/include/core_cm4.h"
 221              		.file 14 "../../os/hal/platforms/STM32F4xx/hal_lld.h"
ARM GAS  /tmp/ccMZ2PH5.s 			page 5

