ARM GAS  /tmp/ccAt6hqs.s 			page 1


   1              		.syntax unified
   2              		.cpu cortex-m4
   3              		.eabi_attribute 27, 3
   4              		.eabi_attribute 28, 1
   5              		.fpu fpv4-sp-d16
   6              		.eabi_attribute 20, 1
   7              		.eabi_attribute 21, 1
   8              		.eabi_attribute 23, 3
   9              		.eabi_attribute 24, 1
  10              		.eabi_attribute 25, 1
  11              		.eabi_attribute 26, 1
  12              		.eabi_attribute 30, 2
  13              		.eabi_attribute 34, 1
  14              		.eabi_attribute 18, 4
  15              		.thumb
  16              		.file	"chevents.c"
  17              		.text
  18              	.Ltext0:
  19              		.cfi_sections	.debug_frame
  20              		.section	.text.chEvtRegisterMask,"ax",%progbits
  21              		.align	2
  22              		.p2align 4,,15
  23              		.global	chEvtRegisterMask
  24              		.thumb
  25              		.thumb_func
  26              		.type	chEvtRegisterMask, %function
  27              	chEvtRegisterMask:
  28              	.LFB7:
  29              		.file 1 "../../os/kernel/src/chevents.c"
  30              		.loc 1 78 0
  31              		.cfi_startproc
  32              		@ args = 0, pretend = 0, frame = 0
  33              		@ frame_needed = 0, uses_anonymous_args = 0
  34              		@ link register save eliminated.
  35              	.LVL0:
  36 0000 30B4     		push	{r4, r5}
  37              	.LCFI0:
  38              		.cfi_def_cfa_offset 8
  39              		.cfi_offset 4, -8
  40              		.cfi_offset 5, -4
  41              	.LBB2:
  42              		.loc 1 82 0
  43 0002 2023     		movs	r3, #32
  44              	.LVL1:
  45              	@ 82 "../../os/kernel/src/chevents.c" 1
  46 0004 83F31188 		msr     BASEPRI, r3
  47              	@ 0 "" 2
  48              	.LVL2:
  49              		.thumb
  50              	.LBE2:
  51              		.loc 1 85 0
  52 0008 40F20003 		movw	r3, #:lower16:rlist
  53              	.LVL3:
  54 000c C0F20003 		movt	r3, #:upper16:rlist
  55              		.loc 1 83 0
  56 0010 0468     		ldr	r4, [r0, #0]
  57              		.loc 1 85 0
ARM GAS  /tmp/ccAt6hqs.s 			page 2


  58 0012 9D69     		ldr	r5, [r3, #24]
  59              		.loc 1 83 0
  60 0014 0C60     		str	r4, [r1, #0]
  61              		.loc 1 87 0
  62 0016 0024     		movs	r4, #0
  63              		.loc 1 84 0
  64 0018 0160     		str	r1, [r0, #0]
  65              	.LBB3:
  66              		.loc 1 88 0
  67 001a 2346     		mov	r3, r4
  68              	.LVL4:
  69              	.LBE3:
  70              		.loc 1 85 0
  71 001c 4D60     		str	r5, [r1, #4]
  72              		.loc 1 86 0
  73 001e 8A60     		str	r2, [r1, #8]
  74              		.loc 1 87 0
  75 0020 CC60     		str	r4, [r1, #12]
  76              	.LBB4:
  77              		.loc 1 88 0
  78              	@ 88 "../../os/kernel/src/chevents.c" 1
  79 0022 83F31188 		msr     BASEPRI, r3
  80              	@ 0 "" 2
  81              	.LVL5:
  82              		.thumb
  83              	.LBE4:
  84              		.loc 1 89 0
  85 0026 30BC     		pop	{r4, r5}
  86 0028 7047     		bx	lr
  87              		.cfi_endproc
  88              	.LFE7:
  89              		.size	chEvtRegisterMask, .-chEvtRegisterMask
  90 002a 00BFAFF3 		.section	.text.chEvtUnregister,"ax",%progbits
  90      0080
  91              		.align	2
  92              		.p2align 4,,15
  93              		.global	chEvtUnregister
  94              		.thumb
  95              		.thumb_func
  96              		.type	chEvtUnregister, %function
  97              	chEvtUnregister:
  98              	.LFB8:
  99              		.loc 1 104 0
 100              		.cfi_startproc
 101              		@ args = 0, pretend = 0, frame = 0
 102              		@ frame_needed = 0, uses_anonymous_args = 0
 103              		@ link register save eliminated.
 104              	.LVL6:
 105              	.LBB5:
 106              		.loc 1 110 0
 107 0000 2023     		movs	r3, #32
 108              	.LVL7:
 109              	@ 110 "../../os/kernel/src/chevents.c" 1
 110 0002 83F31188 		msr     BASEPRI, r3
 111              	@ 0 "" 2
 112              	.LVL8:
 113              		.thumb
ARM GAS  /tmp/ccAt6hqs.s 			page 3


 114              	.LBE5:
 115              		.loc 1 109 0
 116 0006 0246     		mov	r2, r0
 117              		.loc 1 111 0
 118 0008 00E0     		b	.L3
 119              	.LVL9:
 120              	.L6:
 121              		.loc 1 112 0
 122 000a 1A46     		mov	r2, r3
 123              	.LVL10:
 124              	.L3:
 125              		.loc 1 111 0 discriminator 1
 126 000c 1368     		ldr	r3, [r2, #0]
 127              	.LVL11:
 128 000e 8342     		cmp	r3, r0
 129 0010 03D0     		beq	.L4
 130              		.loc 1 112 0
 131 0012 9942     		cmp	r1, r3
 132 0014 F9D1     		bne	.L6
 133              		.loc 1 113 0
 134 0016 0B68     		ldr	r3, [r1, #0]
 135 0018 1360     		str	r3, [r2, #0]
 136              	.L4:
 137              	.LBB6:
 138              		.loc 1 118 0
 139 001a 0023     		movs	r3, #0
 140              	.LVL12:
 141              	@ 118 "../../os/kernel/src/chevents.c" 1
 142 001c 83F31188 		msr     BASEPRI, r3
 143              	@ 0 "" 2
 144              	.LVL13:
 145              		.thumb
 146 0020 7047     		bx	lr
 147              	.LBE6:
 148              		.cfi_endproc
 149              	.LFE8:
 150              		.size	chEvtUnregister, .-chEvtUnregister
 151 0022 00BFAFF3 		.section	.text.chEvtGetAndClearEvents,"ax",%progbits
 151      0080AFF3 
 151      0080AFF3 
 151      0080
 152              		.align	2
 153              		.p2align 4,,15
 154              		.global	chEvtGetAndClearEvents
 155              		.thumb
 156              		.thumb_func
 157              		.type	chEvtGetAndClearEvents, %function
 158              	chEvtGetAndClearEvents:
 159              	.LFB9:
 160              		.loc 1 129 0
 161              		.cfi_startproc
 162              		@ args = 0, pretend = 0, frame = 0
 163              		@ frame_needed = 0, uses_anonymous_args = 0
 164              		@ link register save eliminated.
 165              	.LVL14:
 166 0000 10B4     		push	{r4}
 167              	.LCFI1:
ARM GAS  /tmp/ccAt6hqs.s 			page 4


 168              		.cfi_def_cfa_offset 4
 169              		.cfi_offset 4, -4
 170              	.LBB7:
 171              		.loc 1 132 0
 172 0002 2023     		movs	r3, #32
 173              	.LVL15:
 174              	@ 132 "../../os/kernel/src/chevents.c" 1
 175 0004 83F31188 		msr     BASEPRI, r3
 176              	@ 0 "" 2
 177              	.LVL16:
 178              		.thumb
 179              	.LBE7:
 180              		.loc 1 134 0
 181 0008 40F20002 		movw	r2, #:lower16:rlist
 182 000c C0F20002 		movt	r2, #:upper16:rlist
 183              	.LBB8:
 184              		.loc 1 137 0
 185 0010 0023     		movs	r3, #0
 186              	.LVL17:
 187              	.LBE8:
 188              		.loc 1 134 0
 189 0012 9169     		ldr	r1, [r2, #24]
 190 0014 8A6B     		ldr	r2, [r1, #56]
 191              	.LVL18:
 192              		.loc 1 135 0
 193 0016 22EA0004 		bic	r4, r2, r0
 194 001a 8C63     		str	r4, [r1, #56]
 195              	.LBB9:
 196              		.loc 1 137 0
 197              	@ 137 "../../os/kernel/src/chevents.c" 1
 198 001c 83F31188 		msr     BASEPRI, r3
 199              	@ 0 "" 2
 200              	.LVL19:
 201              		.thumb
 202              	.LBE9:
 203              		.loc 1 139 0
 204 0020 1040     		ands	r0, r0, r2
 205              	.LVL20:
 206 0022 10BC     		pop	{r4}
 207 0024 7047     		bx	lr
 208              		.cfi_endproc
 209              	.LFE9:
 210              		.size	chEvtGetAndClearEvents, .-chEvtGetAndClearEvents
 211 0026 00BFAFF3 		.section	.text.chEvtAddEvents,"ax",%progbits
 211      0080AFF3 
 211      0080
 212              		.align	2
 213              		.p2align 4,,15
 214              		.global	chEvtAddEvents
 215              		.thumb
 216              		.thumb_func
 217              		.type	chEvtAddEvents, %function
 218              	chEvtAddEvents:
 219              	.LFB10:
 220              		.loc 1 150 0
 221              		.cfi_startproc
 222              		@ args = 0, pretend = 0, frame = 0
ARM GAS  /tmp/ccAt6hqs.s 			page 5


 223              		@ frame_needed = 0, uses_anonymous_args = 0
 224              		@ link register save eliminated.
 225              	.LVL21:
 226              	.LBB10:
 227              		.loc 1 152 0
 228 0000 2023     		movs	r3, #32
 229              	.LVL22:
 230              	@ 152 "../../os/kernel/src/chevents.c" 1
 231 0002 83F31188 		msr     BASEPRI, r3
 232              	@ 0 "" 2
 233              	.LVL23:
 234              		.thumb
 235              	.LBE10:
 236              		.loc 1 154 0
 237 0006 40F20002 		movw	r2, #:lower16:rlist
 238 000a C0F20002 		movt	r2, #:upper16:rlist
 239              	.LBB11:
 240              		.loc 1 156 0
 241 000e 0023     		movs	r3, #0
 242              	.LVL24:
 243              	.LBE11:
 244              		.loc 1 154 0
 245 0010 9269     		ldr	r2, [r2, #24]
 246 0012 916B     		ldr	r1, [r2, #56]
 247 0014 0843     		orrs	r0, r0, r1
 248              	.LVL25:
 249 0016 9063     		str	r0, [r2, #56]
 250              	.LVL26:
 251              	.LBB12:
 252              		.loc 1 156 0
 253              	@ 156 "../../os/kernel/src/chevents.c" 1
 254 0018 83F31188 		msr     BASEPRI, r3
 255              	@ 0 "" 2
 256              	.LVL27:
 257              		.thumb
 258              	.LBE12:
 259              		.loc 1 158 0
 260 001c 7047     		bx	lr
 261              		.cfi_endproc
 262              	.LFE10:
 263              		.size	chEvtAddEvents, .-chEvtAddEvents
 264 001e 00BF     		.section	.text.chEvtGetAndClearFlags,"ax",%progbits
 265              		.align	2
 266              		.p2align 4,,15
 267              		.global	chEvtGetAndClearFlags
 268              		.thumb
 269              		.thumb_func
 270              		.type	chEvtGetAndClearFlags, %function
 271              	chEvtGetAndClearFlags:
 272              	.LFB12:
 273              		.loc 1 202 0
 274              		.cfi_startproc
 275              		@ args = 0, pretend = 0, frame = 0
 276              		@ frame_needed = 0, uses_anonymous_args = 0
 277              		@ link register save eliminated.
 278              	.LVL28:
 279              		.loc 1 202 0
ARM GAS  /tmp/ccAt6hqs.s 			page 6


 280 0000 0246     		mov	r2, r0
 281              	.LBB13:
 282              		.loc 1 205 0
 283 0002 2023     		movs	r3, #32
 284              	.LVL29:
 285              	@ 205 "../../os/kernel/src/chevents.c" 1
 286 0004 83F31188 		msr     BASEPRI, r3
 287              	@ 0 "" 2
 288              	.LVL30:
 289              		.thumb
 290              	.LBE13:
 291              		.loc 1 208 0
 292 0008 0023     		movs	r3, #0
 293              	.LVL31:
 294              		.loc 1 207 0
 295 000a C068     		ldr	r0, [r0, #12]
 296              	.LVL32:
 297              		.loc 1 208 0
 298 000c D360     		str	r3, [r2, #12]
 299              	.LBB14:
 300              		.loc 1 210 0
 301              	@ 210 "../../os/kernel/src/chevents.c" 1
 302 000e 83F31188 		msr     BASEPRI, r3
 303              	@ 0 "" 2
 304              	.LVL33:
 305              		.thumb
 306              	.LBE14:
 307              		.loc 1 212 0
 308 0012 7047     		bx	lr
 309              		.cfi_endproc
 310              	.LFE12:
 311              		.size	chEvtGetAndClearFlags, .-chEvtGetAndClearFlags
 312 0014 AFF30080 		.section	.text.chEvtSignalI,"ax",%progbits
 312      AFF30080 
 312      AFF30080 
 313              		.align	2
 314              		.p2align 4,,15
 315              		.global	chEvtSignalI
 316              		.thumb
 317              		.thumb_func
 318              		.type	chEvtSignalI, %function
 319              	chEvtSignalI:
 320              	.LFB14:
 321              		.loc 1 244 0
 322              		.cfi_startproc
 323              		@ args = 0, pretend = 0, frame = 0
 324              		@ frame_needed = 0, uses_anonymous_args = 0
 325              	.LVL34:
 326 0000 08B5     		push	{r3, lr}
 327              	.LCFI2:
 328              		.cfi_def_cfa_offset 8
 329              		.cfi_offset 3, -8
 330              		.cfi_offset 14, -4
 331              		.loc 1 249 0
 332 0002 826B     		ldr	r2, [r0, #56]
 333              		.loc 1 251 0
 334 0004 037F     		ldrb	r3, [r0, #28]	@ zero_extendqisi2
ARM GAS  /tmp/ccAt6hqs.s 			page 7


 335              		.loc 1 249 0
 336 0006 1143     		orrs	r1, r1, r2
 337              	.LVL35:
 338              		.loc 1 251 0
 339 0008 082B     		cmp	r3, #8
 340              		.loc 1 249 0
 341 000a 8163     		str	r1, [r0, #56]
 342              		.loc 1 251 0
 343 000c 0BD0     		beq	.L15
 344              		.loc 1 252 0
 345 000e 092B     		cmp	r3, #9
 346 0010 00D0     		beq	.L16
 347              	.L11:
 348 0012 08BD     		pop	{r3, pc}
 349              	.L16:
 350              		.loc 1 254 0
 351 0014 436A     		ldr	r3, [r0, #36]
 352 0016 1940     		ands	r1, r1, r3
 353              		.loc 1 253 0
 354 0018 8B42     		cmp	r3, r1
 355 001a FAD1     		bne	.L11
 356              	.L13:
 357              	.LVL36:
 358              	.LBB17:
 359              	.LBB18:
 360              		.loc 1 255 0
 361 001c FFF7FEFF 		bl	chSchReadyI
 362              	.LVL37:
 363 0020 0023     		movs	r3, #0
 364 0022 4362     		str	r3, [r0, #36]
 365 0024 08BD     		pop	{r3, pc}
 366              	.LVL38:
 367              	.L15:
 368              	.LBE18:
 369              	.LBE17:
 370              		.loc 1 252 0 discriminator 1
 371 0026 436A     		ldr	r3, [r0, #36]
 372              		.loc 1 251 0 discriminator 1
 373 0028 1942     		tst	r1, r3
 374 002a F7D1     		bne	.L13
 375 002c 08BD     		pop	{r3, pc}
 376              		.cfi_endproc
 377              	.LFE14:
 378              		.size	chEvtSignalI, .-chEvtSignalI
 379 002e 00BF     		.section	.text.chEvtSignal,"ax",%progbits
 380              		.align	2
 381              		.p2align 4,,15
 382              		.global	chEvtSignal
 383              		.thumb
 384              		.thumb_func
 385              		.type	chEvtSignal, %function
 386              	chEvtSignal:
 387              	.LFB13:
 388              		.loc 1 222 0
 389              		.cfi_startproc
 390              		@ args = 0, pretend = 0, frame = 0
 391              		@ frame_needed = 0, uses_anonymous_args = 0
ARM GAS  /tmp/ccAt6hqs.s 			page 8


 392              	.LVL39:
 393 0000 08B5     		push	{r3, lr}
 394              	.LCFI3:
 395              		.cfi_def_cfa_offset 8
 396              		.cfi_offset 3, -8
 397              		.cfi_offset 14, -4
 398              	.LBB19:
 399              		.loc 1 226 0
 400 0002 2023     		movs	r3, #32
 401              	.LVL40:
 402              	@ 226 "../../os/kernel/src/chevents.c" 1
 403 0004 83F31188 		msr     BASEPRI, r3
 404              	@ 0 "" 2
 405              	.LVL41:
 406              		.thumb
 407              	.LBE19:
 408              		.loc 1 227 0
 409 0008 FFF7FEFF 		bl	chEvtSignalI
 410              	.LVL42:
 411              		.loc 1 228 0
 412 000c FFF7FEFF 		bl	chSchRescheduleS
 413              	.LVL43:
 414              	.LBB20:
 415              		.loc 1 229 0
 416 0010 0023     		movs	r3, #0
 417              	.LVL44:
 418              	@ 229 "../../os/kernel/src/chevents.c" 1
 419 0012 83F31188 		msr     BASEPRI, r3
 420              	@ 0 "" 2
 421              	.LVL45:
 422              		.thumb
 423 0016 08BD     		pop	{r3, pc}
 424              	.LBE20:
 425              		.cfi_endproc
 426              	.LFE13:
 427              		.size	chEvtSignal, .-chEvtSignal
 428 0018 AFF30080 		.section	.text.chEvtBroadcastFlagsI,"ax",%progbits
 428      AFF30080 
 429              		.align	2
 430              		.p2align 4,,15
 431              		.global	chEvtBroadcastFlagsI
 432              		.thumb
 433              		.thumb_func
 434              		.type	chEvtBroadcastFlagsI, %function
 435              	chEvtBroadcastFlagsI:
 436              	.LFB11:
 437              		.loc 1 177 0
 438              		.cfi_startproc
 439              		@ args = 0, pretend = 0, frame = 0
 440              		@ frame_needed = 0, uses_anonymous_args = 0
 441              	.LVL46:
 442 0000 70B5     		push	{r4, r5, r6, lr}
 443              	.LCFI4:
 444              		.cfi_def_cfa_offset 16
 445              		.cfi_offset 4, -16
 446              		.cfi_offset 5, -12
 447              		.cfi_offset 6, -8
ARM GAS  /tmp/ccAt6hqs.s 			page 9


 448              		.cfi_offset 14, -4
 449              		.loc 1 183 0
 450 0002 0468     		ldr	r4, [r0, #0]
 451              	.LVL47:
 452              		.loc 1 184 0
 453 0004 A042     		cmp	r0, r4
 454              		.loc 1 177 0
 455 0006 0546     		mov	r5, r0
 456 0008 0E46     		mov	r6, r1
 457              		.loc 1 184 0
 458 000a 08D0     		beq	.L18
 459              	.LVL48:
 460              	.L22:
 461              		.loc 1 186 0
 462 000c 201D     		adds	r0, r4, #4
 463 000e 0BC8     		ldmia	r0, {r0, r1, r3}
 464              		.loc 1 185 0
 465 0010 3343     		orrs	r3, r3, r6
 466 0012 E360     		str	r3, [r4, #12]
 467              		.loc 1 186 0
 468 0014 FFF7FEFF 		bl	chEvtSignalI
 469              	.LVL49:
 470              		.loc 1 187 0
 471 0018 2468     		ldr	r4, [r4, #0]
 472              	.LVL50:
 473              		.loc 1 184 0
 474 001a A542     		cmp	r5, r4
 475 001c F6D1     		bne	.L22
 476              	.L18:
 477 001e 70BD     		pop	{r4, r5, r6, pc}
 478              		.cfi_endproc
 479              	.LFE11:
 480              		.size	chEvtBroadcastFlagsI, .-chEvtBroadcastFlagsI
 481              		.section	.text.chEvtBroadcastFlags,"ax",%progbits
 482              		.align	2
 483              		.p2align 4,,15
 484              		.global	chEvtBroadcastFlags
 485              		.thumb
 486              		.thumb_func
 487              		.type	chEvtBroadcastFlags, %function
 488              	chEvtBroadcastFlags:
 489              	.LFB15:
 490              		.loc 1 271 0
 491              		.cfi_startproc
 492              		@ args = 0, pretend = 0, frame = 0
 493              		@ frame_needed = 0, uses_anonymous_args = 0
 494              	.LVL51:
 495 0000 08B5     		push	{r3, lr}
 496              	.LCFI5:
 497              		.cfi_def_cfa_offset 8
 498              		.cfi_offset 3, -8
 499              		.cfi_offset 14, -4
 500              	.LBB21:
 501              		.loc 1 273 0
 502 0002 2023     		movs	r3, #32
 503              	.LVL52:
 504              	@ 273 "../../os/kernel/src/chevents.c" 1
ARM GAS  /tmp/ccAt6hqs.s 			page 10


 505 0004 83F31188 		msr     BASEPRI, r3
 506              	@ 0 "" 2
 507              	.LVL53:
 508              		.thumb
 509              	.LBE21:
 510              		.loc 1 274 0
 511 0008 FFF7FEFF 		bl	chEvtBroadcastFlagsI
 512              	.LVL54:
 513              		.loc 1 275 0
 514 000c FFF7FEFF 		bl	chSchRescheduleS
 515              	.LVL55:
 516              	.LBB22:
 517              		.loc 1 276 0
 518 0010 0023     		movs	r3, #0
 519              	.LVL56:
 520              	@ 276 "../../os/kernel/src/chevents.c" 1
 521 0012 83F31188 		msr     BASEPRI, r3
 522              	@ 0 "" 2
 523              	.LVL57:
 524              		.thumb
 525 0016 08BD     		pop	{r3, pc}
 526              	.LBE22:
 527              		.cfi_endproc
 528              	.LFE15:
 529              		.size	chEvtBroadcastFlags, .-chEvtBroadcastFlags
 530 0018 AFF30080 		.section	.text.chEvtGetAndClearFlagsI,"ax",%progbits
 530      AFF30080 
 531              		.align	2
 532              		.p2align 4,,15
 533              		.global	chEvtGetAndClearFlagsI
 534              		.thumb
 535              		.thumb_func
 536              		.type	chEvtGetAndClearFlagsI, %function
 537              	chEvtGetAndClearFlagsI:
 538              	.LFB16:
 539              		.loc 1 290 0
 540              		.cfi_startproc
 541              		@ args = 0, pretend = 0, frame = 0
 542              		@ frame_needed = 0, uses_anonymous_args = 0
 543              		@ link register save eliminated.
 544              	.LVL58:
 545              		.loc 1 290 0
 546 0000 0346     		mov	r3, r0
 547              		.loc 1 294 0
 548 0002 0022     		movs	r2, #0
 549              		.loc 1 293 0
 550 0004 C068     		ldr	r0, [r0, #12]
 551              	.LVL59:
 552              		.loc 1 294 0
 553 0006 DA60     		str	r2, [r3, #12]
 554              		.loc 1 297 0
 555 0008 7047     		bx	lr
 556              		.cfi_endproc
 557              	.LFE16:
 558              		.size	chEvtGetAndClearFlagsI, .-chEvtGetAndClearFlagsI
 559 000a 00BFAFF3 		.section	.text.chEvtDispatch,"ax",%progbits
 559      0080
ARM GAS  /tmp/ccAt6hqs.s 			page 11


 560              		.align	2
 561              		.p2align 4,,15
 562              		.global	chEvtDispatch
 563              		.thumb
 564              		.thumb_func
 565              		.type	chEvtDispatch, %function
 566              	chEvtDispatch:
 567              	.LFB17:
 568              		.loc 1 308 0
 569              		.cfi_startproc
 570              		@ args = 0, pretend = 0, frame = 0
 571              		@ frame_needed = 0, uses_anonymous_args = 0
 572              	.LVL60:
 573 0000 F8B5     		push	{r3, r4, r5, r6, r7, lr}
 574              	.LCFI6:
 575              		.cfi_def_cfa_offset 24
 576              		.cfi_offset 3, -24
 577              		.cfi_offset 4, -20
 578              		.cfi_offset 5, -16
 579              		.cfi_offset 6, -12
 580              		.cfi_offset 7, -8
 581              		.cfi_offset 14, -4
 582              		.loc 1 314 0
 583 0002 0D46     		mov	r5, r1
 584              		.loc 1 308 0
 585 0004 0746     		mov	r7, r0
 586              		.loc 1 314 0
 587 0006 89B1     		cbz	r1, .L26
 588 0008 0024     		movs	r4, #0
 589              		.loc 1 315 0
 590 000a 0126     		movs	r6, #1
 591 000c 01E0     		b	.L27
 592              	.LVL61:
 593              	.L28:
 594              		.loc 1 322 0
 595 000e 0134     		adds	r4, r4, #1
 596              	.LVL62:
 597              		.loc 1 314 0
 598 0010 65B1     		cbz	r5, .L26
 599              	.LVL63:
 600              	.L27:
 601              		.loc 1 315 0
 602 0012 06FA04F3 		lsl	r3, r6, r4
 603 0016 2B42     		tst	r3, r5
 604 0018 F9D0     		beq	.L28
 605              		.loc 1 320 0
 606 001a 57F82420 		ldr	r2, [r7, r4, lsl #2]
 607 001e 2046     		mov	r0, r4
 608              		.loc 1 319 0
 609 0020 25EA0305 		bic	r5, r5, r3
 610              	.LVL64:
 611              		.loc 1 322 0
 612 0024 0134     		adds	r4, r4, #1
 613              		.loc 1 320 0
 614 0026 9047     		blx	r2
 615              	.LVL65:
 616              		.loc 1 314 0
ARM GAS  /tmp/ccAt6hqs.s 			page 12


 617 0028 002D     		cmp	r5, #0
 618 002a F2D1     		bne	.L27
 619              	.LVL66:
 620              	.L26:
 621 002c F8BD     		pop	{r3, r4, r5, r6, r7, pc}
 622              		.cfi_endproc
 623              	.LFE17:
 624              		.size	chEvtDispatch, .-chEvtDispatch
 625 002e 00BF     		.section	.text.chEvtWaitOne,"ax",%progbits
 626              		.align	2
 627              		.p2align 4,,15
 628              		.global	chEvtWaitOne
 629              		.thumb
 630              		.thumb_func
 631              		.type	chEvtWaitOne, %function
 632              	chEvtWaitOne:
 633              	.LFB18:
 634              		.loc 1 343 0
 635              		.cfi_startproc
 636              		@ args = 0, pretend = 0, frame = 0
 637              		@ frame_needed = 0, uses_anonymous_args = 0
 638              	.LVL67:
 639 0000 38B5     		push	{r3, r4, r5, lr}
 640              	.LCFI7:
 641              		.cfi_def_cfa_offset 16
 642              		.cfi_offset 3, -16
 643              		.cfi_offset 4, -12
 644              		.cfi_offset 5, -8
 645              		.cfi_offset 14, -4
 646              		.loc 1 344 0
 647 0002 0D4B     		ldr	r3, .L37
 648              		.loc 1 343 0
 649 0004 0546     		mov	r5, r0
 650              		.loc 1 344 0
 651 0006 9C69     		ldr	r4, [r3, #24]
 652              	.LVL68:
 653              	.LBB23:
 654              		.loc 1 347 0
 655 0008 2023     		movs	r3, #32
 656              	.LVL69:
 657              	@ 347 "../../os/kernel/src/chevents.c" 1
 658 000a 83F31188 		msr     BASEPRI, r3
 659              	@ 0 "" 2
 660              	.LVL70:
 661              		.thumb
 662              	.LBE23:
 663              		.loc 1 349 0
 664 000e A36B     		ldr	r3, [r4, #56]
 665              	.LVL71:
 666 0010 10EA0302 		ands	r2, r0, r3
 667              	.LVL72:
 668 0014 06D1     		bne	.L36
 669              		.loc 1 350 0
 670 0016 6062     		str	r0, [r4, #36]
 671              		.loc 1 351 0
 672 0018 0820     		movs	r0, #8
 673              	.LVL73:
ARM GAS  /tmp/ccAt6hqs.s 			page 13


 674 001a FFF7FEFF 		bl	chSchGoSleepS
 675              	.LVL74:
 676              		.loc 1 352 0
 677 001e A36B     		ldr	r3, [r4, #56]
 678 0020 05EA0302 		and	r2, r5, r3
 679              	.LVL75:
 680              	.L36:
 681              		.loc 1 354 0
 682 0024 5042     		negs	r0, r2
 683 0026 1040     		ands	r0, r0, r2
 684              	.LVL76:
 685              		.loc 1 355 0
 686 0028 23EA0003 		bic	r3, r3, r0
 687 002c A363     		str	r3, [r4, #56]
 688              	.LBB24:
 689              		.loc 1 357 0
 690 002e 0023     		movs	r3, #0
 691              	.LVL77:
 692              	@ 357 "../../os/kernel/src/chevents.c" 1
 693 0030 83F31188 		msr     BASEPRI, r3
 694              	@ 0 "" 2
 695              	.LVL78:
 696              		.thumb
 697              	.LBE24:
 698              		.loc 1 359 0
 699 0034 38BD     		pop	{r3, r4, r5, pc}
 700              	.L38:
 701 0036 00BF     		.align	2
 702              	.L37:
 703 0038 00000000 		.word	rlist
 704              		.cfi_endproc
 705              	.LFE18:
 706              		.size	chEvtWaitOne, .-chEvtWaitOne
 707 003c AFF30080 		.section	.text.chEvtWaitAny,"ax",%progbits
 708              		.align	2
 709              		.p2align 4,,15
 710              		.global	chEvtWaitAny
 711              		.thumb
 712              		.thumb_func
 713              		.type	chEvtWaitAny, %function
 714              	chEvtWaitAny:
 715              	.LFB19:
 716              		.loc 1 372 0
 717              		.cfi_startproc
 718              		@ args = 0, pretend = 0, frame = 0
 719              		@ frame_needed = 0, uses_anonymous_args = 0
 720              	.LVL79:
 721 0000 38B5     		push	{r3, r4, r5, lr}
 722              	.LCFI8:
 723              		.cfi_def_cfa_offset 16
 724              		.cfi_offset 3, -16
 725              		.cfi_offset 4, -12
 726              		.cfi_offset 5, -8
 727              		.cfi_offset 14, -4
 728              		.loc 1 373 0
 729 0002 0B4B     		ldr	r3, .L41
 730              		.loc 1 372 0
ARM GAS  /tmp/ccAt6hqs.s 			page 14


 731 0004 0546     		mov	r5, r0
 732              		.loc 1 373 0
 733 0006 9C69     		ldr	r4, [r3, #24]
 734              	.LVL80:
 735              	.LBB25:
 736              		.loc 1 376 0
 737 0008 2023     		movs	r3, #32
 738              	.LVL81:
 739              	@ 376 "../../os/kernel/src/chevents.c" 1
 740 000a 83F31188 		msr     BASEPRI, r3
 741              	@ 0 "" 2
 742              	.LVL82:
 743              		.thumb
 744              	.LBE25:
 745              		.loc 1 378 0
 746 000e A36B     		ldr	r3, [r4, #56]
 747              	.LVL83:
 748 0010 1840     		ands	r0, r0, r3
 749              	.LVL84:
 750 0012 06D1     		bne	.L40
 751              		.loc 1 380 0
 752 0014 0820     		movs	r0, #8
 753              	.LVL85:
 754              		.loc 1 379 0
 755 0016 6562     		str	r5, [r4, #36]
 756              		.loc 1 380 0
 757 0018 FFF7FEFF 		bl	chSchGoSleepS
 758              	.LVL86:
 759              		.loc 1 381 0
 760 001c A36B     		ldr	r3, [r4, #56]
 761 001e 05EA0300 		and	r0, r5, r3
 762              	.LVL87:
 763              	.L40:
 764              		.loc 1 383 0
 765 0022 23EA0003 		bic	r3, r3, r0
 766 0026 A363     		str	r3, [r4, #56]
 767              	.LBB26:
 768              		.loc 1 385 0
 769 0028 0023     		movs	r3, #0
 770              	.LVL88:
 771              	@ 385 "../../os/kernel/src/chevents.c" 1
 772 002a 83F31188 		msr     BASEPRI, r3
 773              	@ 0 "" 2
 774              	.LVL89:
 775              		.thumb
 776              	.LBE26:
 777              		.loc 1 387 0
 778 002e 38BD     		pop	{r3, r4, r5, pc}
 779              	.L42:
 780              		.align	2
 781              	.L41:
 782 0030 00000000 		.word	rlist
 783              		.cfi_endproc
 784              	.LFE19:
 785              		.size	chEvtWaitAny, .-chEvtWaitAny
 786 0034 AFF30080 		.section	.text.chEvtWaitAll,"ax",%progbits
 786      AFF30080 
ARM GAS  /tmp/ccAt6hqs.s 			page 15


 786      AFF30080 
 787              		.align	2
 788              		.p2align 4,,15
 789              		.global	chEvtWaitAll
 790              		.thumb
 791              		.thumb_func
 792              		.type	chEvtWaitAll, %function
 793              	chEvtWaitAll:
 794              	.LFB20:
 795              		.loc 1 400 0
 796              		.cfi_startproc
 797              		@ args = 0, pretend = 0, frame = 0
 798              		@ frame_needed = 0, uses_anonymous_args = 0
 799              	.LVL90:
 800 0000 38B5     		push	{r3, r4, r5, lr}
 801              	.LCFI9:
 802              		.cfi_def_cfa_offset 16
 803              		.cfi_offset 3, -16
 804              		.cfi_offset 4, -12
 805              		.cfi_offset 5, -8
 806              		.cfi_offset 14, -4
 807              		.loc 1 401 0
 808 0002 0C4B     		ldr	r3, .L45
 809              		.loc 1 400 0
 810 0004 0446     		mov	r4, r0
 811              		.loc 1 401 0
 812 0006 9D69     		ldr	r5, [r3, #24]
 813              	.LVL91:
 814              	.LBB27:
 815              		.loc 1 403 0
 816 0008 2023     		movs	r3, #32
 817              	.LVL92:
 818              	@ 403 "../../os/kernel/src/chevents.c" 1
 819 000a 83F31188 		msr     BASEPRI, r3
 820              	@ 0 "" 2
 821              	.LVL93:
 822              		.thumb
 823              	.LBE27:
 824              		.loc 1 405 0
 825 000e AB6B     		ldr	r3, [r5, #56]
 826              	.LVL94:
 827 0010 00EA0302 		and	r2, r0, r3
 828 0014 8242     		cmp	r2, r0
 829 0016 04D0     		beq	.L44
 830              		.loc 1 406 0
 831 0018 6862     		str	r0, [r5, #36]
 832              		.loc 1 407 0
 833 001a 0920     		movs	r0, #9
 834              	.LVL95:
 835 001c FFF7FEFF 		bl	chSchGoSleepS
 836              	.LVL96:
 837 0020 AB6B     		ldr	r3, [r5, #56]
 838              	.L44:
 839              		.loc 1 409 0
 840 0022 23EA0403 		bic	r3, r3, r4
 841 0026 AB63     		str	r3, [r5, #56]
 842              	.LBB28:
ARM GAS  /tmp/ccAt6hqs.s 			page 16


 843              		.loc 1 411 0
 844 0028 0023     		movs	r3, #0
 845              	.LVL97:
 846              	@ 411 "../../os/kernel/src/chevents.c" 1
 847 002a 83F31188 		msr     BASEPRI, r3
 848              	@ 0 "" 2
 849              	.LVL98:
 850              		.thumb
 851              	.LBE28:
 852              		.loc 1 413 0
 853 002e 2046     		mov	r0, r4
 854 0030 38BD     		pop	{r3, r4, r5, pc}
 855              	.L46:
 856 0032 00BF     		.align	2
 857              	.L45:
 858 0034 00000000 		.word	rlist
 859              		.cfi_endproc
 860              	.LFE20:
 861              		.size	chEvtWaitAll, .-chEvtWaitAll
 862 0038 AFF30080 		.section	.text.chEvtWaitOneTimeout,"ax",%progbits
 862      AFF30080 
 863              		.align	2
 864              		.p2align 4,,15
 865              		.global	chEvtWaitOneTimeout
 866              		.thumb
 867              		.thumb_func
 868              		.type	chEvtWaitOneTimeout, %function
 869              	chEvtWaitOneTimeout:
 870              	.LFB21:
 871              		.loc 1 439 0
 872              		.cfi_startproc
 873              		@ args = 0, pretend = 0, frame = 0
 874              		@ frame_needed = 0, uses_anonymous_args = 0
 875              	.LVL99:
 876              		.loc 1 440 0
 877 0000 114B     		ldr	r3, .L53
 878              		.loc 1 439 0
 879 0002 70B5     		push	{r4, r5, r6, lr}
 880              	.LCFI10:
 881              		.cfi_def_cfa_offset 16
 882              		.cfi_offset 4, -16
 883              		.cfi_offset 5, -12
 884              		.cfi_offset 6, -8
 885              		.cfi_offset 14, -4
 886              		.loc 1 440 0
 887 0004 9E69     		ldr	r6, [r3, #24]
 888              	.LVL100:
 889              		.loc 1 439 0
 890 0006 0546     		mov	r5, r0
 891              	.LBB29:
 892              		.loc 1 443 0
 893 0008 2023     		movs	r3, #32
 894              	.LVL101:
 895              	@ 443 "../../os/kernel/src/chevents.c" 1
 896 000a 83F31188 		msr     BASEPRI, r3
 897              	@ 0 "" 2
 898              	.LVL102:
ARM GAS  /tmp/ccAt6hqs.s 			page 17


 899              		.thumb
 900              	.LBE29:
 901              		.loc 1 445 0
 902 000e B36B     		ldr	r3, [r6, #56]
 903              	.LVL103:
 904 0010 10EA0304 		ands	r4, r0, r3
 905              	.LVL104:
 906 0014 0ED1     		bne	.L48
 907              		.loc 1 446 0
 908 0016 21B9     		cbnz	r1, .L49
 909              	.LVL105:
 910              	.L52:
 911              	.LBB30:
 912              		.loc 1 452 0
 913 0018 2346     		mov	r3, r4
 914              	.LVL106:
 915              	@ 452 "../../os/kernel/src/chevents.c" 1
 916 001a 83F31188 		msr     BASEPRI, r3
 917              	@ 0 "" 2
 918              	.LVL107:
 919              		.thumb
 920              	.LBE30:
 921              		.loc 1 462 0
 922 001e 2046     		mov	r0, r4
 923 0020 70BD     		pop	{r4, r5, r6, pc}
 924              	.LVL108:
 925              	.L49:
 926              		.loc 1 450 0
 927 0022 7062     		str	r0, [r6, #36]
 928              		.loc 1 451 0
 929 0024 0820     		movs	r0, #8
 930              	.LVL109:
 931 0026 FFF7FEFF 		bl	chSchGoSleepTimeoutS
 932              	.LVL110:
 933 002a 0028     		cmp	r0, #0
 934 002c F4DB     		blt	.L52
 935              		.loc 1 455 0
 936 002e B36B     		ldr	r3, [r6, #56]
 937 0030 05EA0304 		and	r4, r5, r3
 938              	.LVL111:
 939              	.L48:
 940              		.loc 1 457 0
 941 0034 6242     		negs	r2, r4
 942 0036 1440     		ands	r4, r4, r2
 943              	.LVL112:
 944              		.loc 1 458 0
 945 0038 23EA0403 		bic	r3, r3, r4
 946 003c B363     		str	r3, [r6, #56]
 947              	.LBB31:
 948              		.loc 1 460 0
 949 003e 0023     		movs	r3, #0
 950              	.LVL113:
 951              	@ 460 "../../os/kernel/src/chevents.c" 1
 952 0040 83F31188 		msr     BASEPRI, r3
 953              	@ 0 "" 2
 954              	.LVL114:
 955              		.thumb
ARM GAS  /tmp/ccAt6hqs.s 			page 18


 956              	.LBE31:
 957              		.loc 1 462 0
 958 0044 2046     		mov	r0, r4
 959 0046 70BD     		pop	{r4, r5, r6, pc}
 960              	.L54:
 961              		.align	2
 962              	.L53:
 963 0048 00000000 		.word	rlist
 964              		.cfi_endproc
 965              	.LFE21:
 966              		.size	chEvtWaitOneTimeout, .-chEvtWaitOneTimeout
 967 004c AFF30080 		.section	.text.chEvtWaitAnyTimeout,"ax",%progbits
 968              		.align	2
 969              		.p2align 4,,15
 970              		.global	chEvtWaitAnyTimeout
 971              		.thumb
 972              		.thumb_func
 973              		.type	chEvtWaitAnyTimeout, %function
 974              	chEvtWaitAnyTimeout:
 975              	.LFB22:
 976              		.loc 1 482 0
 977              		.cfi_startproc
 978              		@ args = 0, pretend = 0, frame = 0
 979              		@ frame_needed = 0, uses_anonymous_args = 0
 980              	.LVL115:
 981              		.loc 1 483 0
 982 0000 104B     		ldr	r3, .L61
 983              		.loc 1 482 0
 984 0002 70B5     		push	{r4, r5, r6, lr}
 985              	.LCFI11:
 986              		.cfi_def_cfa_offset 16
 987              		.cfi_offset 4, -16
 988              		.cfi_offset 5, -12
 989              		.cfi_offset 6, -8
 990              		.cfi_offset 14, -4
 991              		.loc 1 483 0
 992 0004 9E69     		ldr	r6, [r3, #24]
 993              	.LVL116:
 994              		.loc 1 482 0
 995 0006 0446     		mov	r4, r0
 996              	.LBB32:
 997              		.loc 1 486 0
 998 0008 2023     		movs	r3, #32
 999              	.LVL117:
 1000              	@ 486 "../../os/kernel/src/chevents.c" 1
 1001 000a 83F31188 		msr     BASEPRI, r3
 1002              	@ 0 "" 2
 1003              	.LVL118:
 1004              		.thumb
 1005              	.LBE32:
 1006              		.loc 1 488 0
 1007 000e B26B     		ldr	r2, [r6, #56]
 1008              	.LVL119:
 1009 0010 14EA0205 		ands	r5, r4, r2
 1010              	.LVL120:
 1011 0014 0ED1     		bne	.L56
 1012              		.loc 1 489 0
ARM GAS  /tmp/ccAt6hqs.s 			page 19


 1013 0016 21B9     		cbnz	r1, .L57
 1014              	.LVL121:
 1015              	.L60:
 1016              	.LBB33:
 1017              		.loc 1 495 0
 1018 0018 2B46     		mov	r3, r5
 1019              	.LVL122:
 1020              	@ 495 "../../os/kernel/src/chevents.c" 1
 1021 001a 83F31188 		msr     BASEPRI, r3
 1022              	@ 0 "" 2
 1023              	.LVL123:
 1024              		.thumb
 1025              	.LBE33:
 1026              		.loc 1 504 0
 1027 001e 2846     		mov	r0, r5
 1028 0020 70BD     		pop	{r4, r5, r6, pc}
 1029              	.LVL124:
 1030              	.L57:
 1031              		.loc 1 494 0
 1032 0022 0820     		movs	r0, #8
 1033              	.LVL125:
 1034              		.loc 1 493 0
 1035 0024 7462     		str	r4, [r6, #36]
 1036              		.loc 1 494 0
 1037 0026 FFF7FEFF 		bl	chSchGoSleepTimeoutS
 1038              	.LVL126:
 1039 002a 0028     		cmp	r0, #0
 1040 002c F4DB     		blt	.L60
 1041              		.loc 1 498 0
 1042 002e B26B     		ldr	r2, [r6, #56]
 1043 0030 04EA0205 		and	r5, r4, r2
 1044              	.LVL127:
 1045              	.L56:
 1046              		.loc 1 500 0
 1047 0034 22EA0502 		bic	r2, r2, r5
 1048 0038 B263     		str	r2, [r6, #56]
 1049              	.LBB34:
 1050              		.loc 1 502 0
 1051 003a 0023     		movs	r3, #0
 1052              	.LVL128:
 1053              	@ 502 "../../os/kernel/src/chevents.c" 1
 1054 003c 83F31188 		msr     BASEPRI, r3
 1055              	@ 0 "" 2
 1056              	.LVL129:
 1057              		.thumb
 1058              	.LBE34:
 1059              		.loc 1 504 0
 1060 0040 2846     		mov	r0, r5
 1061 0042 70BD     		pop	{r4, r5, r6, pc}
 1062              	.L62:
 1063              		.align	2
 1064              	.L61:
 1065 0044 00000000 		.word	rlist
 1066              		.cfi_endproc
 1067              	.LFE22:
 1068              		.size	chEvtWaitAnyTimeout, .-chEvtWaitAnyTimeout
 1069 0048 AFF30080 		.section	.text.chEvtWaitAllTimeout,"ax",%progbits
ARM GAS  /tmp/ccAt6hqs.s 			page 20


 1069      AFF30080 
 1070              		.align	2
 1071              		.p2align 4,,15
 1072              		.global	chEvtWaitAllTimeout
 1073              		.thumb
 1074              		.thumb_func
 1075              		.type	chEvtWaitAllTimeout, %function
 1076              	chEvtWaitAllTimeout:
 1077              	.LFB23:
 1078              		.loc 1 523 0
 1079              		.cfi_startproc
 1080              		@ args = 0, pretend = 0, frame = 0
 1081              		@ frame_needed = 0, uses_anonymous_args = 0
 1082              	.LVL130:
 1083 0000 38B5     		push	{r3, r4, r5, lr}
 1084              	.LCFI12:
 1085              		.cfi_def_cfa_offset 16
 1086              		.cfi_offset 3, -16
 1087              		.cfi_offset 4, -12
 1088              		.cfi_offset 5, -8
 1089              		.cfi_offset 14, -4
 1090              		.loc 1 524 0
 1091 0002 134B     		ldr	r3, .L68
 1092              		.loc 1 523 0
 1093 0004 0446     		mov	r4, r0
 1094              		.loc 1 524 0
 1095 0006 9D69     		ldr	r5, [r3, #24]
 1096              	.LVL131:
 1097              	.LBB35:
 1098              		.loc 1 526 0
 1099 0008 2023     		movs	r3, #32
 1100              	.LVL132:
 1101              	@ 526 "../../os/kernel/src/chevents.c" 1
 1102 000a 83F31188 		msr     BASEPRI, r3
 1103              	@ 0 "" 2
 1104              	.LVL133:
 1105              		.thumb
 1106              	.LBE35:
 1107              		.loc 1 528 0
 1108 000e AA6B     		ldr	r2, [r5, #56]
 1109 0010 04EA0203 		and	r3, r4, r2
 1110              	.LVL134:
 1111 0014 A342     		cmp	r3, r4
 1112 0016 0DD0     		beq	.L64
 1113              		.loc 1 529 0
 1114 0018 29B9     		cbnz	r1, .L65
 1115              	.LBB36:
 1116              		.loc 1 530 0
 1117 001a 0B46     		mov	r3, r1
 1118              	.LVL135:
 1119              	@ 530 "../../os/kernel/src/chevents.c" 1
 1120 001c 83F31188 		msr     BASEPRI, r3
 1121              	@ 0 "" 2
 1122              	.LVL136:
 1123              		.thumb
 1124              	.LBE36:
 1125              		.loc 1 531 0
ARM GAS  /tmp/ccAt6hqs.s 			page 21


 1126 0020 0C46     		mov	r4, r1
 1127              		.loc 1 543 0
 1128 0022 2046     		mov	r0, r4
 1129              	.LVL137:
 1130 0024 38BD     		pop	{r3, r4, r5, pc}
 1131              	.LVL138:
 1132              	.L65:
 1133              		.loc 1 534 0
 1134 0026 0920     		movs	r0, #9
 1135              	.LVL139:
 1136              		.loc 1 533 0
 1137 0028 6C62     		str	r4, [r5, #36]
 1138              		.loc 1 534 0
 1139 002a FFF7FEFF 		bl	chSchGoSleepTimeoutS
 1140              	.LVL140:
 1141 002e 0028     		cmp	r0, #0
 1142 0030 08DB     		blt	.L67
 1143 0032 AA6B     		ldr	r2, [r5, #56]
 1144              	.L64:
 1145              		.loc 1 539 0
 1146 0034 22EA0402 		bic	r2, r2, r4
 1147 0038 AA63     		str	r2, [r5, #56]
 1148              	.LBB37:
 1149              		.loc 1 541 0
 1150 003a 0023     		movs	r3, #0
 1151              	.LVL141:
 1152              	@ 541 "../../os/kernel/src/chevents.c" 1
 1153 003c 83F31188 		msr     BASEPRI, r3
 1154              	@ 0 "" 2
 1155              	.LVL142:
 1156              		.thumb
 1157              	.L66:
 1158              	.LBE37:
 1159              		.loc 1 543 0
 1160 0040 2046     		mov	r0, r4
 1161 0042 38BD     		pop	{r3, r4, r5, pc}
 1162              	.LVL143:
 1163              	.L67:
 1164              	.LBB38:
 1165              		.loc 1 535 0
 1166 0044 0023     		movs	r3, #0
 1167              	@ 535 "../../os/kernel/src/chevents.c" 1
 1168 0046 83F31188 		msr     BASEPRI, r3
 1169              	@ 0 "" 2
 1170              	.LVL144:
 1171              		.thumb
 1172              	.LBE38:
 1173              		.loc 1 536 0
 1174 004a 1C46     		mov	r4, r3
 1175              	.LVL145:
 1176 004c F8E7     		b	.L66
 1177              	.L69:
 1178 004e 00BF     		.align	2
 1179              	.L68:
 1180 0050 00000000 		.word	rlist
 1181              		.cfi_endproc
 1182              	.LFE23:
ARM GAS  /tmp/ccAt6hqs.s 			page 22


 1183              		.size	chEvtWaitAllTimeout, .-chEvtWaitAllTimeout
 1184 0054 AFF30080 		.text
 1184      AFF30080 
 1184      AFF30080 
 1185              	.Letext0:
 1186              		.file 2 "/opt/psas/x-tools/stm32f407/arm-psas-eabi/bin/../lib/gcc/arm-psas-eabi/4.7.2/../../../../
 1187              		.file 3 "../../os/ports/GCC/ARMCMx/chtypes.h"
 1188              		.file 4 "../../os/kernel/include/chlists.h"
 1189              		.file 5 "../../os/kernel/include/chthreads.h"
 1190              		.file 6 "../../os/ports/GCC/ARMCMx/chcore_v7m.h"
 1191              		.file 7 "../../os/kernel/include/chschd.h"
 1192              		.file 8 "../../os/kernel/include/chmtx.h"
 1193              		.file 9 "../../os/kernel/include/chevents.h"