ARM GAS  /tmp/ccWOKPbl.s 			page 1


   1              		.syntax unified
   2              		.cpu cortex-m4
   3              		.eabi_attribute 27, 3
   4              		.eabi_attribute 28, 1
   5              		.fpu fpv4-sp-d16
   6              		.eabi_attribute 20, 1
   7              		.eabi_attribute 21, 1
   8              		.eabi_attribute 23, 3
   9              		.eabi_attribute 24, 1
  10              		.eabi_attribute 25, 1
  11              		.eabi_attribute 26, 1
  12              		.eabi_attribute 30, 2
  13              		.eabi_attribute 34, 1
  14              		.eabi_attribute 18, 4
  15              		.thumb
  16              		.file	"chsys.c"
  17              		.text
  18              	.Ltext0:
  19              		.cfi_sections	.debug_frame
  20              		.section	.text._idle_thread,"ax",%progbits
  21              		.align	2
  22              		.p2align 4,,15
  23              		.global	_idle_thread
  24              		.thumb
  25              		.thumb_func
  26              		.type	_idle_thread, %function
  27              	_idle_thread:
  28              	.LFB7:
  29              		.file 1 "../../os/kernel/src/chsys.c"
  30              		.loc 1 54 0
  31              		.cfi_startproc
  32              		@ args = 0, pretend = 0, frame = 0
  33              		@ frame_needed = 0, uses_anonymous_args = 0
  34              		@ link register save eliminated.
  35              	.LVL0:
  36              		.loc 1 57 0
  37 0000 024B     		ldr	r3, .L4
  38 0002 034A     		ldr	r2, .L4+4
  39 0004 9B69     		ldr	r3, [r3, #24]
  40 0006 9A61     		str	r2, [r3, #24]
  41              	.L2:
  42 0008 FEE7     		b	.L2
  43              	.L5:
  44 000a 00BF     		.align	2
  45              	.L4:
  46 000c 00000000 		.word	rlist
  47 0010 00000000 		.word	.LC0
  48              		.cfi_endproc
  49              	.LFE7:
  50              		.size	_idle_thread, .-_idle_thread
  51 0014 AFF30080 		.section	.text.chSysInit,"ax",%progbits
  51      AFF30080 
  51      AFF30080 
  52              		.align	2
  53              		.p2align 4,,15
  54              		.global	chSysInit
  55              		.thumb
ARM GAS  /tmp/ccWOKPbl.s 			page 2


  56              		.thumb_func
  57              		.type	chSysInit, %function
  58              	chSysInit:
  59              	.LFB8:
  60              		.loc 1 77 0
  61              		.cfi_startproc
  62              		@ args = 0, pretend = 0, frame = 0
  63              		@ frame_needed = 0, uses_anonymous_args = 0
  64 0000 00B5     		push	{lr}
  65              	.LCFI0:
  66              		.cfi_def_cfa_offset 4
  67              		.cfi_offset 14, -4
  68 0002 83B0     		sub	sp, sp, #12
  69              	.LCFI1:
  70              		.cfi_def_cfa_offset 16
  71              		.loc 1 83 0
  72 0004 FFF7FEFF 		bl	_port_init
  73              	.LVL1:
  74              		.loc 1 84 0
  75 0008 FFF7FEFF 		bl	_scheduler_init
  76              	.LVL2:
  77              		.loc 1 85 0
  78 000c FFF7FEFF 		bl	_vt_init
  79              	.LVL3:
  80              		.loc 1 87 0
  81 0010 FFF7FEFF 		bl	_core_init
  82              	.LVL4:
  83              		.loc 1 90 0
  84 0014 FFF7FEFF 		bl	_heap_init
  85              	.LVL5:
  86              		.loc 1 97 0
  87 0018 40F20000 		movw	r0, #:lower16:.LANCHOR0
  88 001c 4021     		movs	r1, #64
  89 001e C0F20000 		movt	r0, #:upper16:.LANCHOR0
  90 0022 FFF7FEFF 		bl	_thread_init
  91              	.LVL6:
  92 0026 40F20001 		movw	r1, #:lower16:rlist
  93 002a C0F20001 		movt	r1, #:upper16:rlist
  94              		.loc 1 98 0
  95 002e 0122     		movs	r2, #1
  96              		.loc 1 97 0
  97 0030 8861     		str	r0, [r1, #24]
  98              		.loc 1 98 0
  99 0032 0277     		strb	r2, [r0, #28]
 100              	.LBB2:
 101              		.loc 1 104 0
 102 0034 0023     		movs	r3, #0
 103              	.LVL7:
 104              	@ 104 "../../os/kernel/src/chsys.c" 1
 105 0036 83F31188 		msr     BASEPRI, r3                    
 106 003a 62B6     		cpsie   i
 107              	@ 0 "" 2
 108              	.LVL8:
 109              		.thumb
 110              	.LBE2:
 111              		.loc 1 108 0
 112 003c 40F20000 		movw	r0, #:lower16:ch_debug
ARM GAS  /tmp/ccWOKPbl.s 			page 3


 113 0040 8969     		ldr	r1, [r1, #24]
 114 0042 C0F20000 		movt	r0, #:upper16:ch_debug
 115 0046 8861     		str	r0, [r1, #24]
 116              		.loc 1 114 0
 117 0048 0093     		str	r3, [sp, #0]
 118 004a 40F20000 		movw	r0, #:lower16:.LANCHOR1
 119 004e 40F20003 		movw	r3, #:lower16:_idle_thread
 120              	.LVL9:
 121 0052 C021     		movs	r1, #192
 122 0054 C0F20003 		movt	r3, #:upper16:_idle_thread
 123 0058 C0F20000 		movt	r0, #:upper16:.LANCHOR1
 124 005c FFF7FEFF 		bl	chThdCreateStatic
 125              	.LVL10:
 126              		.loc 1 117 0
 127 0060 03B0     		add	sp, sp, #12
 128 0062 00BD     		pop	{pc}
 129              		.cfi_endproc
 130              	.LFE8:
 131              		.size	chSysInit, .-chSysInit
 132 0064 AFF30080 		.section	.text.chSysTimerHandlerI,"ax",%progbits
 132      AFF30080 
 132      AFF30080 
 133              		.align	2
 134              		.p2align 4,,15
 135              		.global	chSysTimerHandlerI
 136              		.thumb
 137              		.thumb_func
 138              		.type	chSysTimerHandlerI, %function
 139              	chSysTimerHandlerI:
 140              	.LFB9:
 141              		.loc 1 130 0
 142              		.cfi_startproc
 143              		@ args = 0, pretend = 0, frame = 0
 144              		@ frame_needed = 0, uses_anonymous_args = 0
 145 0000 38B5     		push	{r3, r4, r5, lr}
 146              	.LCFI2:
 147              		.cfi_def_cfa_offset 16
 148              		.cfi_offset 3, -16
 149              		.cfi_offset 4, -12
 150              		.cfi_offset 5, -8
 151              		.cfi_offset 14, -4
 152              		.loc 1 136 0
 153 0002 134B     		ldr	r3, .L20
 154 0004 9B69     		ldr	r3, [r3, #24]
 155 0006 DA7F     		ldrb	r2, [r3, #31]	@ zero_extendqisi2
 156 0008 0AB1     		cbz	r2, .L8
 157              		.loc 1 138 0
 158 000a 013A     		subs	r2, r2, #1
 159 000c DA77     		strb	r2, [r3, #31]
 160              	.L8:
 161              		.loc 1 141 0
 162 000e 1A6A     		ldr	r2, [r3, #32]
 163              		.loc 1 143 0
 164 0010 104C     		ldr	r4, .L20+4
 165              		.loc 1 141 0
 166 0012 0132     		adds	r2, r2, #1
 167 0014 1A62     		str	r2, [r3, #32]
ARM GAS  /tmp/ccWOKPbl.s 			page 4


 168              		.loc 1 143 0
 169 0016 E368     		ldr	r3, [r4, #12]
 170 0018 2268     		ldr	r2, [r4, #0]
 171 001a 0133     		adds	r3, r3, #1
 172 001c A242     		cmp	r2, r4
 173 001e E360     		str	r3, [r4, #12]
 174 0020 14D0     		beq	.L7
 175              	.LBB3:
 176              		.loc 1 143 0 is_stmt 0 discriminator 1
 177 0022 9568     		ldr	r5, [r2, #8]
 178 0024 013D     		subs	r5, r5, #1
 179 0026 9560     		str	r5, [r2, #8]
 180              	.LVL11:
 181 0028 85B9     		cbnz	r5, .L7
 182              	.L16:
 183              	.LBB4:
 184              		.loc 1 143 0 discriminator 3
 185 002a 1368     		ldr	r3, [r2, #0]
 186 002c D168     		ldr	r1, [r2, #12]
 187              	.LVL12:
 188 002e 5C60     		str	r4, [r3, #4]
 189 0030 2360     		str	r3, [r4, #0]
 190 0032 D560     		str	r5, [r2, #12]
 191              	.LBB5:
 192 0034 0023     		movs	r3, #0
 193              	.LVL13:
 194              	@ 143 "../../os/kernel/src/chsys.c" 1
 195 0036 83F31188 		msr     BASEPRI, r3
 196              	@ 0 "" 2
 197              	.LVL14:
 198              		.thumb
 199              	.LBE5:
 200 003a 1069     		ldr	r0, [r2, #16]
 201 003c 8847     		blx	r1
 202              	.LVL15:
 203              	.LBB6:
 204 003e 2023     		movs	r3, #32
 205              	.LVL16:
 206              	@ 143 "../../os/kernel/src/chsys.c" 1
 207 0040 83F31188 		msr     BASEPRI, r3
 208              	@ 0 "" 2
 209              	.LVL17:
 210              		.thumb
 211              	.LBE6:
 212              	.LBE4:
 213 0044 2268     		ldr	r2, [r4, #0]
 214              	.LVL18:
 215 0046 9368     		ldr	r3, [r2, #8]
 216              	.LVL19:
 217 0048 002B     		cmp	r3, #0
 218 004a EED0     		beq	.L16
 219              	.LVL20:
 220              	.L7:
 221 004c 38BD     		pop	{r3, r4, r5, pc}
 222              	.L21:
 223 004e 00BF     		.align	2
 224              	.L20:
ARM GAS  /tmp/ccWOKPbl.s 			page 5


 225 0050 00000000 		.word	rlist
 226 0054 00000000 		.word	vtlist
 227              	.LBE3:
 228              		.cfi_endproc
 229              	.LFE9:
 230              		.size	chSysTimerHandlerI, .-chSysTimerHandlerI
 231              		.global	_idle_thread_wa
 232 0058 AFF30080 		.section	.bss.mainthread.4771,"aw",%nobits
 232      AFF30080 
 233              		.align	2
 234              		.set	.LANCHOR0,. + 0
 235              		.type	mainthread.4771, %object
 236              		.size	mainthread.4771, 72
 237              	mainthread.4771:
 238 0000 00000000 		.space	72
 238      00000000 
 238      00000000 
 238      00000000 
 238      00000000 
 239              		.section	.rodata.str1.4,"aMS",%progbits,1
 240              		.align	2
 241              	.LC0:
 242 0000 69646C65 		.ascii	"idle\000"
 242      00
 243 0005 000000   		.section	.bss._idle_thread_wa,"aw",%nobits
 244              		.align	3
 245              		.set	.LANCHOR1,. + 0
 246              		.type	_idle_thread_wa, %object
 247              		.size	_idle_thread_wa, 192
 248              	_idle_thread_wa:
 249 0000 00000000 		.space	192
 249      00000000 
 249      00000000 
 249      00000000 
 249      00000000 
 250              		.text
 251              	.Letext0:
 252              		.file 2 "/opt/psas/x-tools/stm32f407/arm-psas-eabi/bin/../lib/gcc/arm-psas-eabi/4.7.2/include/stdd
 253              		.file 3 "/opt/psas/x-tools/stm32f407/arm-psas-eabi/bin/../lib/gcc/arm-psas-eabi/4.7.2/../../../../
 254              		.file 4 "../../os/ports/GCC/ARMCMx/chtypes.h"
 255              		.file 5 "../../os/kernel/include/chlists.h"
 256              		.file 6 "../../os/kernel/include/chthreads.h"
 257              		.file 7 "../../os/ports/GCC/ARMCMx/chcore_v7m.h"
 258              		.file 8 "../../os/kernel/include/chvt.h"
 259              		.file 9 "../../os/kernel/include/chschd.h"
 260              		.file 10 "../../os/kernel/include/chmtx.h"
 261              		.file 11 "../../os/kernel/include/chregistry.h"
 262              		.file 12 "../../os/kernel/include/chmemcore.h"
 263              		.file 13 "../../os/kernel/include/chheap.h"