ARM GAS  /tmp/cc20QH3W.s 			page 1


   1              		.syntax unified
   2              		.cpu cortex-m4
   3              		.eabi_attribute 27, 3
   4              		.eabi_attribute 28, 1
   5              		.fpu fpv4-sp-d16
   6              		.eabi_attribute 20, 1
   7              		.eabi_attribute 21, 1
   8              		.eabi_attribute 23, 3
   9              		.eabi_attribute 24, 1
  10              		.eabi_attribute 25, 1
  11              		.eabi_attribute 26, 1
  12              		.eabi_attribute 30, 2
  13              		.eabi_attribute 34, 1
  14              		.eabi_attribute 18, 4
  15              		.thumb
  16              		.file	"crt0.c"
  17              		.text
  18              	.Ltext0:
  19              		.cfi_sections	.debug_frame
  20              		.section	.text.__early_init,"ax",%progbits
  21              		.align	2
  22              		.p2align 4,,15
  23              		.weak	__early_init
  24              		.thumb
  25              		.thumb_func
  26              		.type	__early_init, %function
  27              	__early_init:
  28              	.LFB7:
  29              		.file 1 "../../os/ports/GCC/ARMCMx/crt0.c"
  30              		.loc 1 213 0
  31              		.cfi_startproc
  32              		@ args = 0, pretend = 0, frame = 0
  33              		@ frame_needed = 0, uses_anonymous_args = 0
  34              		@ link register save eliminated.
  35 0000 7047     		bx	lr
  36              		.cfi_endproc
  37              	.LFE7:
  38              		.size	__early_init, .-__early_init
  39 0002 00BFAFF3 		.section	.text.__late_init,"ax",%progbits
  39      0080AFF3 
  39      0080AFF3 
  39      0080
  40              		.align	2
  41              		.p2align 4,,15
  42              		.weak	__late_init
  43              		.thumb
  44              		.thumb_func
  45              		.type	__late_init, %function
  46              	__late_init:
  47              	.LFB8:
  48              		.loc 1 225 0
  49              		.cfi_startproc
  50              		@ args = 0, pretend = 0, frame = 0
  51              		@ frame_needed = 0, uses_anonymous_args = 0
  52              		@ link register save eliminated.
  53 0000 7047     		bx	lr
  54              		.cfi_endproc
ARM GAS  /tmp/cc20QH3W.s 			page 2


  55              	.LFE8:
  56              		.size	__late_init, .-__late_init
  57 0002 00BFAFF3 		.section	.text._default_exit,"ax",%progbits
  57      0080AFF3 
  57      0080AFF3 
  57      0080
  58              		.align	2
  59              		.p2align 4,,15
  60              		.weak	_default_exit
  61              		.thumb
  62              		.thumb_func
  63              		.type	_default_exit, %function
  64              	_default_exit:
  65              	.LFB9:
  66              		.loc 1 236 0
  67              		.cfi_startproc
  68              		@ Naked Function: prologue and epilogue provided by programmer.
  69              		@ args = 0, pretend = 0, frame = 0
  70              		@ frame_needed = 0, uses_anonymous_args = 0
  71              	.L4:
  72 0000 FEE7     		b	.L4
  73              		.cfi_endproc
  74              	.LFE9:
  75              		.size	_default_exit, .-_default_exit
  76 0002 00BFAFF3 		.section	.text.ResetHandler,"ax",%progbits
  76      0080AFF3 
  76      0080AFF3 
  76      0080
  77              		.align	2
  78              		.p2align 4,,15
  79              		.global	ResetHandler
  80              		.thumb
  81              		.thumb_func
  82              		.type	ResetHandler, %function
  83              	ResetHandler:
  84              	.LFB10:
  85              		.loc 1 247 0
  86              		.cfi_startproc
  87              		@ Naked Function: prologue and epilogue provided by programmer.
  88              		@ args = 0, pretend = 0, frame = 0
  89              		@ frame_needed = 0, uses_anonymous_args = 0
  90              		.loc 1 253 0
  91              	@ 253 "../../os/ports/GCC/ARMCMx/crt0.c" 1
  92 0000 72B6     		cpsid   i
  93              	@ 0 "" 2
  94              		.loc 1 254 0
  95              		.thumb
  96 0002 3748     		ldr	r0, .L32
  97              	.LVL0:
  98              		.loc 1 255 0
  99              	@ 255 "../../os/ports/GCC/ARMCMx/crt0.c" 1
 100 0004 80F30988 		msr     PSP, r0
 101              	@ 0 "" 2
 102              	.LVL1:
 103              		.loc 1 275 0
 104              		.thumb
 105 0008 0223     		movs	r3, #2
ARM GAS  /tmp/cc20QH3W.s 			page 3


 106              	@ 275 "../../os/ports/GCC/ARMCMx/crt0.c" 1
 107 000a 83F31488 		msr     CONTROL, r3
 108              	@ 0 "" 2
 109              		.loc 1 276 0
 110              	@ 276 "../../os/ports/GCC/ARMCMx/crt0.c" 1
 111 000e BFF36F8F 		isb
 112              	@ 0 "" 2
 113              	.LVL2:
 114              		.thumb
 115              	.LBB2:
 116              		.loc 1 280 0
 117 0012 344A     		ldr	r2, .L32+4
 118 0014 344B     		ldr	r3, .L32+8
 119 0016 9A42     		cmp	r2, r3
 120 0018 0BD2     		bcs	.L10
 121              	.LBE2:
 122              	.LBB3:
 123              		.loc 1 247 0
 124 001a D143     		mvns	r1, r2
 125 001c C918     		adds	r1, r1, r3
 126 001e 21F00301 		bic	r1, r1, #3
 127 0022 131F     		subs	r3, r2, #4
 128 0024 8918     		adds	r1, r1, r2
 129              	.LBE3:
 130              	.LBB4:
 131              		.loc 1 280 0
 132 0026 4FF05532 		mov	r2, #1431655765
 133              	.LVL3:
 134              	.L9:
 135              		.loc 1 280 0 is_stmt 0 discriminator 2
 136 002a 43F8042F 		str	r2, [r3, #4]!
 137 002e 8B42     		cmp	r3, r1
 138 0030 FBD1     		bne	.L9
 139              	.L10:
 140              	.LVL4:
 141              	.LBE4:
 142              	.LBB5:
 143              		.loc 1 283 0 is_stmt 1
 144 0032 2E4A     		ldr	r2, .L32+12
 145 0034 8242     		cmp	r2, r0
 146 0036 0CD2     		bcs	.L8
 147              	.LBE5:
 148              	.LBB6:
 149              		.loc 1 247 0
 150 0038 2D49     		ldr	r1, .L32+16
 151 003a 131D     		adds	r3, r2, #4
 152 003c C91A     		subs	r1, r1, r3
 153 003e 21F00301 		bic	r1, r1, #3
 154 0042 131F     		subs	r3, r2, #4
 155 0044 8918     		adds	r1, r1, r2
 156              	.LBE6:
 157              	.LBB7:
 158              		.loc 1 283 0
 159 0046 4FF05532 		mov	r2, #1431655765
 160              	.LVL5:
 161              	.L13:
 162              		.loc 1 283 0 is_stmt 0 discriminator 2
ARM GAS  /tmp/cc20QH3W.s 			page 4


 163 004a 43F8042F 		str	r2, [r3, #4]!
 164 004e 8B42     		cmp	r3, r1
 165 0050 FBD1     		bne	.L13
 166              	.L8:
 167              	.LBE7:
 168              		.loc 1 289 0 is_stmt 1
 169 0052 FFF7FEFF 		bl	__early_init
 170              	.LVL6:
 171              	.LBB8:
 172              		.loc 1 298 0
 173 0056 2749     		ldr	r1, .L32+20
 174 0058 274B     		ldr	r3, .L32+24
 175 005a 9942     		cmp	r1, r3
 176 005c 0BD2     		bcs	.L12
 177              	.LBE8:
 178              	.LBB9:
 179              		.loc 1 247 0
 180 005e C843     		mvns	r0, r1
 181 0060 C018     		adds	r0, r0, r3
 182 0062 20F00300 		bic	r0, r0, #3
 183 0066 254C     		ldr	r4, .L32+28
 184 0068 0430     		adds	r0, r0, #4
 185              	.LBE9:
 186 006a 0023     		movs	r3, #0
 187              	.LVL7:
 188              	.L16:
 189              	.LBB10:
 190              		.loc 1 299 0
 191 006c 1A59     		ldr	r2, [r3, r4]
 192 006e 5A50     		str	r2, [r3, r1]
 193 0070 0433     		adds	r3, r3, #4
 194              		.loc 1 298 0
 195 0072 8342     		cmp	r3, r0
 196 0074 FAD1     		bne	.L16
 197              	.L12:
 198              	.LVL8:
 199              	.LBE10:
 200              	.LBB11:
 201              		.loc 1 305 0
 202 0076 224A     		ldr	r2, .L32+32
 203 0078 224B     		ldr	r3, .L32+36
 204 007a 9A42     		cmp	r2, r3
 205 007c 0AD2     		bcs	.L15
 206              	.LBE11:
 207              	.LBB12:
 208              		.loc 1 247 0
 209 007e D143     		mvns	r1, r2
 210 0080 C918     		adds	r1, r1, r3
 211 0082 21F00301 		bic	r1, r1, #3
 212 0086 131F     		subs	r3, r2, #4
 213 0088 8918     		adds	r1, r1, r2
 214              	.LBE12:
 215              	.LBB13:
 216              		.loc 1 305 0
 217 008a 0022     		movs	r2, #0
 218              	.LVL9:
 219              	.L19:
ARM GAS  /tmp/cc20QH3W.s 			page 5


 220              		.loc 1 305 0 is_stmt 0 discriminator 2
 221 008c 43F8042F 		str	r2, [r3, #4]!
 222 0090 8B42     		cmp	r3, r1
 223 0092 FBD1     		bne	.L19
 224              	.L15:
 225              	.LBE13:
 226              		.loc 1 309 0 is_stmt 1
 227 0094 FFF7FEFF 		bl	__late_init
 228              	.LVL10:
 229              	.LBB14:
 230              		.loc 1 315 0
 231 0098 1B4D     		ldr	r5, .L32+40
 232 009a 1C4B     		ldr	r3, .L32+44
 233 009c 9D42     		cmp	r5, r3
 234 009e 0BD2     		bcs	.L18
 235              	.LBE14:
 236              	.LBB15:
 237              		.loc 1 247 0
 238 00a0 EE43     		mvns	r6, r5
 239 00a2 F618     		adds	r6, r6, r3
 240 00a4 B608     		lsrs	r6, r6, #2
 241 00a6 043D     		subs	r5, r5, #4
 242 00a8 0136     		adds	r6, r6, #1
 243              	.LBE15:
 244 00aa 0024     		movs	r4, #0
 245              	.LVL11:
 246              	.L22:
 247              	.LBB16:
 248              		.loc 1 316 0
 249 00ac 55F8043F 		ldr	r3, [r5, #4]!
 250 00b0 0134     		adds	r4, r4, #1
 251 00b2 9847     		blx	r3
 252              	.LVL12:
 253              		.loc 1 315 0
 254 00b4 B442     		cmp	r4, r6
 255 00b6 F9D1     		bne	.L22
 256              	.L18:
 257              	.LBE16:
 258              		.loc 1 323 0
 259 00b8 FFF7FEFF 		bl	main
 260              	.LVL13:
 261              	.LBB17:
 262              		.loc 1 329 0
 263 00bc 144D     		ldr	r5, .L32+48
 264 00be 154B     		ldr	r3, .L32+52
 265 00c0 9D42     		cmp	r5, r3
 266 00c2 0BD2     		bcs	.L21
 267              	.LBE17:
 268              		.loc 1 247 0
 269 00c4 EE43     		mvns	r6, r5
 270 00c6 F618     		adds	r6, r6, r3
 271 00c8 B608     		lsrs	r6, r6, #2
 272 00ca 043D     		subs	r5, r5, #4
 273 00cc 0136     		adds	r6, r6, #1
 274 00ce 0024     		movs	r4, #0
 275              	.LVL14:
 276              	.L23:
ARM GAS  /tmp/cc20QH3W.s 			page 6


 277              	.LBB18:
 278              		.loc 1 330 0
 279 00d0 55F8043F 		ldr	r3, [r5, #4]!
 280 00d4 0134     		adds	r4, r4, #1
 281 00d6 9847     		blx	r3
 282              	.LVL15:
 283              		.loc 1 329 0
 284 00d8 B442     		cmp	r4, r6
 285 00da F9D1     		bne	.L23
 286              	.L21:
 287              	.LBE18:
 288              		.loc 1 337 0
 289 00dc FFF7FEFF 		bl	_default_exit
 290              	.LVL16:
 291              		.loc 1 338 0
 292              	.L33:
 293              		.align	2
 294              	.L32:
 295 00e0 00000000 		.word	__process_stack_end__
 296 00e4 00000000 		.word	__main_stack_base__
 297 00e8 00000000 		.word	__main_stack_end__
 298 00ec 00000000 		.word	__process_stack_base__
 299 00f0 03000000 		.word	__process_stack_end__+3
 300 00f4 00000000 		.word	_data
 301 00f8 00000000 		.word	_edata
 302 00fc 00000000 		.word	_textdata
 303 0100 00000000 		.word	_bss_start
 304 0104 00000000 		.word	_bss_end
 305 0108 00000000 		.word	__init_array_start
 306 010c 00000000 		.word	__init_array_end
 307 0110 00000000 		.word	__fini_array_start
 308 0114 00000000 		.word	__fini_array_end
 309              		.cfi_endproc
 310              	.LFE10:
 311              		.size	ResetHandler, .-ResetHandler
 312 0118 AFF30080 		.text
 312      AFF30080 
 313              	.Letext0:
 314              		.file 2 "/opt/psas/x-tools/stm32f407/arm-psas-eabi/bin/../lib/gcc/arm-psas-eabi/4.7.2/../../../../
 315              		.section	.debug_info,"",%progbits
 316              	.Ldebug_info0:
 317 0000 AF020000 		.4byte	0x2af
 318 0004 0200     		.2byte	0x2
 319 0006 00000000 		.4byte	.Ldebug_abbrev0
 320 000a 04       		.byte	0x4
 321 000b 01       		.uleb128 0x1
 322 000c 99010000 		.4byte	.LASF31
 323 0010 01       		.byte	0x1
 324 0011 B5000000 		.4byte	.LASF32
 325 0015 51000000 		.4byte	.LASF33
 326 0019 B8000000 		.4byte	.Ldebug_ranges0+0xb8
 327 001d 00000000 		.4byte	0
 328 0021 00000000 		.4byte	0
 329 0025 00000000 		.4byte	.Ldebug_line0
 330 0029 02       		.uleb128 0x2
 331 002a 04       		.byte	0x4
 332 002b 05       		.byte	0x5
ARM GAS  /tmp/cc20QH3W.s 			page 7


 333 002c 696E7400 		.ascii	"int\000"
 334 0030 03       		.uleb128 0x3
 335 0031 04       		.byte	0x4
 336 0032 07       		.byte	0x7
 337 0033 31010000 		.4byte	.LASF0
 338 0037 03       		.uleb128 0x3
 339 0038 01       		.byte	0x1
 340 0039 06       		.byte	0x6
 341 003a E3010000 		.4byte	.LASF1
 342 003e 04       		.uleb128 0x4
 343 003f 7E010000 		.4byte	.LASF6
 344 0043 02       		.byte	0x2
 345 0044 2A       		.byte	0x2a
 346 0045 49000000 		.4byte	0x49
 347 0049 03       		.uleb128 0x3
 348 004a 01       		.byte	0x1
 349 004b 08       		.byte	0x8
 350 004c 9B000000 		.4byte	.LASF2
 351 0050 03       		.uleb128 0x3
 352 0051 02       		.byte	0x2
 353 0052 05       		.byte	0x5
 354 0053 B9010000 		.4byte	.LASF3
 355 0057 03       		.uleb128 0x3
 356 0058 02       		.byte	0x2
 357 0059 07       		.byte	0x7
 358 005a E3000000 		.4byte	.LASF4
 359 005e 03       		.uleb128 0x3
 360 005f 04       		.byte	0x4
 361 0060 05       		.byte	0x5
 362 0061 D4010000 		.4byte	.LASF5
 363 0065 04       		.uleb128 0x4
 364 0066 CB010000 		.4byte	.LASF7
 365 006a 02       		.byte	0x2
 366 006b 50       		.byte	0x50
 367 006c 70000000 		.4byte	0x70
 368 0070 03       		.uleb128 0x3
 369 0071 04       		.byte	0x4
 370 0072 07       		.byte	0x7
 371 0073 1A010000 		.4byte	.LASF8
 372 0077 03       		.uleb128 0x3
 373 0078 08       		.byte	0x8
 374 0079 05       		.byte	0x5
 375 007a 86010000 		.4byte	.LASF9
 376 007e 03       		.uleb128 0x3
 377 007f 08       		.byte	0x8
 378 0080 07       		.byte	0x7
 379 0081 3E010000 		.4byte	.LASF10
 380 0085 03       		.uleb128 0x3
 381 0086 04       		.byte	0x4
 382 0087 07       		.byte	0x7
 383 0088 75010000 		.4byte	.LASF11
 384 008c 03       		.uleb128 0x3
 385 008d 01       		.byte	0x1
 386 008e 08       		.byte	0x8
 387 008f 94010000 		.4byte	.LASF12
 388 0093 04       		.uleb128 0x4
 389 0094 C3010000 		.4byte	.LASF13
ARM GAS  /tmp/cc20QH3W.s 			page 8


 390 0098 01       		.byte	0x1
 391 0099 1F       		.byte	0x1f
 392 009a 9E000000 		.4byte	0x9e
 393 009e 05       		.uleb128 0x5
 394 009f 04       		.byte	0x4
 395 00a0 A4000000 		.4byte	0xa4
 396 00a4 06       		.uleb128 0x6
 397 00a5 01       		.byte	0x1
 398 00a6 04       		.uleb128 0x4
 399 00a7 3A000000 		.4byte	.LASF14
 400 00ab 01       		.byte	0x1
 401 00ac 20       		.byte	0x20
 402 00ad B1000000 		.4byte	0xb1
 403 00b1 05       		.uleb128 0x5
 404 00b2 04       		.byte	0x4
 405 00b3 93000000 		.4byte	0x93
 406 00b7 07       		.uleb128 0x7
 407 00b8 01       		.byte	0x1
 408 00b9 68010000 		.4byte	.LASF15
 409 00bd 01       		.byte	0x1
 410 00be D5       		.byte	0xd5
 411 00bf 01       		.byte	0x1
 412 00c0 00000000 		.4byte	.LFB7
 413 00c4 02000000 		.4byte	.LFE7
 414 00c8 02       		.byte	0x2
 415 00c9 7D       		.byte	0x7d
 416 00ca 00       		.sleb128 0
 417 00cb 01       		.byte	0x1
 418 00cc 07       		.uleb128 0x7
 419 00cd 01       		.byte	0x1
 420 00ce A9000000 		.4byte	.LASF16
 421 00d2 01       		.byte	0x1
 422 00d3 E1       		.byte	0xe1
 423 00d4 01       		.byte	0x1
 424 00d5 00000000 		.4byte	.LFB8
 425 00d9 02000000 		.4byte	.LFE8
 426 00dd 02       		.byte	0x2
 427 00de 7D       		.byte	0x7d
 428 00df 00       		.sleb128 0
 429 00e0 01       		.byte	0x1
 430 00e1 07       		.uleb128 0x7
 431 00e2 01       		.byte	0x1
 432 00e3 43000000 		.4byte	.LASF17
 433 00e7 01       		.byte	0x1
 434 00e8 EC       		.byte	0xec
 435 00e9 01       		.byte	0x1
 436 00ea 00000000 		.4byte	.LFB9
 437 00ee 02000000 		.4byte	.LFE9
 438 00f2 02       		.byte	0x2
 439 00f3 7D       		.byte	0x7d
 440 00f4 00       		.sleb128 0
 441 00f5 01       		.byte	0x1
 442 00f6 08       		.uleb128 0x8
 443 00f7 01       		.byte	0x1
 444 00f8 D6000000 		.4byte	.LASF34
 445 00fc 01       		.byte	0x1
 446 00fd F7       		.byte	0xf7
ARM GAS  /tmp/cc20QH3W.s 			page 9


 447 00fe 01       		.byte	0x1
 448 00ff 00000000 		.4byte	.LFB10
 449 0103 18010000 		.4byte	.LFE10
 450 0107 02       		.byte	0x2
 451 0108 7D       		.byte	0x7d
 452 0109 00       		.sleb128 0
 453 010a 01       		.byte	0x1
 454 010b F9010000 		.4byte	0x1f9
 455 010f 09       		.uleb128 0x9
 456 0110 70737000 		.ascii	"psp\000"
 457 0114 01       		.byte	0x1
 458 0115 F8       		.byte	0xf8
 459 0116 65000000 		.4byte	0x65
 460 011a 01       		.byte	0x1
 461 011b 50       		.byte	0x50
 462 011c 0A       		.uleb128 0xa
 463 011d 72656700 		.ascii	"reg\000"
 464 0121 01       		.byte	0x1
 465 0122 F8       		.byte	0xf8
 466 0123 65000000 		.4byte	0x65
 467 0127 02       		.byte	0x2
 468 0128 0B       		.uleb128 0xb
 469 0129 00000000 		.4byte	.Ldebug_ranges0+0
 470 012d 48010000 		.4byte	0x148
 471 0131 0C       		.uleb128 0xc
 472 0132 703100   		.ascii	"p1\000"
 473 0135 01       		.byte	0x1
 474 0136 1801     		.2byte	0x118
 475 0138 F9010000 		.4byte	0x1f9
 476 013c 0C       		.uleb128 0xc
 477 013d 703200   		.ascii	"p2\000"
 478 0140 01       		.byte	0x1
 479 0141 1801     		.2byte	0x118
 480 0143 F9010000 		.4byte	0x1f9
 481 0147 00       		.byte	0
 482 0148 0B       		.uleb128 0xb
 483 0149 18000000 		.4byte	.Ldebug_ranges0+0x18
 484 014d 68010000 		.4byte	0x168
 485 0151 0C       		.uleb128 0xc
 486 0152 703100   		.ascii	"p1\000"
 487 0155 01       		.byte	0x1
 488 0156 1B01     		.2byte	0x11b
 489 0158 F9010000 		.4byte	0x1f9
 490 015c 0C       		.uleb128 0xc
 491 015d 703200   		.ascii	"p2\000"
 492 0160 01       		.byte	0x1
 493 0161 1B01     		.2byte	0x11b
 494 0163 F9010000 		.4byte	0x1f9
 495 0167 00       		.byte	0
 496 0168 0B       		.uleb128 0xb
 497 0169 38000000 		.4byte	.Ldebug_ranges0+0x38
 498 016d 88010000 		.4byte	0x188
 499 0171 0C       		.uleb128 0xc
 500 0172 747000   		.ascii	"tp\000"
 501 0175 01       		.byte	0x1
 502 0176 2601     		.2byte	0x126
 503 0178 F9010000 		.4byte	0x1f9
ARM GAS  /tmp/cc20QH3W.s 			page 10


 504 017c 0C       		.uleb128 0xc
 505 017d 647000   		.ascii	"dp\000"
 506 0180 01       		.byte	0x1
 507 0181 2601     		.2byte	0x126
 508 0183 F9010000 		.4byte	0x1f9
 509 0187 00       		.byte	0
 510 0188 0B       		.uleb128 0xb
 511 0189 58000000 		.4byte	.Ldebug_ranges0+0x58
 512 018d A8010000 		.4byte	0x1a8
 513 0191 0C       		.uleb128 0xc
 514 0192 703100   		.ascii	"p1\000"
 515 0195 01       		.byte	0x1
 516 0196 3101     		.2byte	0x131
 517 0198 F9010000 		.4byte	0x1f9
 518 019c 0C       		.uleb128 0xc
 519 019d 703200   		.ascii	"p2\000"
 520 01a0 01       		.byte	0x1
 521 01a1 3101     		.2byte	0x131
 522 01a3 F9010000 		.4byte	0x1f9
 523 01a7 00       		.byte	0
 524 01a8 0B       		.uleb128 0xb
 525 01a9 78000000 		.4byte	.Ldebug_ranges0+0x78
 526 01ad BE010000 		.4byte	0x1be
 527 01b1 0C       		.uleb128 0xc
 528 01b2 66707000 		.ascii	"fpp\000"
 529 01b6 01       		.byte	0x1
 530 01b7 3A01     		.2byte	0x13a
 531 01b9 A6000000 		.4byte	0xa6
 532 01bd 00       		.byte	0
 533 01be 0B       		.uleb128 0xb
 534 01bf 98000000 		.4byte	.Ldebug_ranges0+0x98
 535 01c3 D4010000 		.4byte	0x1d4
 536 01c7 0C       		.uleb128 0xc
 537 01c8 66707000 		.ascii	"fpp\000"
 538 01cc 01       		.byte	0x1
 539 01cd 4801     		.2byte	0x148
 540 01cf A6000000 		.4byte	0xa6
 541 01d3 00       		.byte	0
 542 01d4 0D       		.uleb128 0xd
 543 01d5 56000000 		.4byte	.LVL6
 544 01d9 B7000000 		.4byte	0xb7
 545 01dd 0D       		.uleb128 0xd
 546 01de 98000000 		.4byte	.LVL10
 547 01e2 CC000000 		.4byte	0xcc
 548 01e6 0D       		.uleb128 0xd
 549 01e7 BC000000 		.4byte	.LVL13
 550 01eb A8020000 		.4byte	0x2a8
 551 01ef 0D       		.uleb128 0xd
 552 01f0 E0000000 		.4byte	.LVL16
 553 01f4 E1000000 		.4byte	0xe1
 554 01f8 00       		.byte	0
 555 01f9 05       		.uleb128 0x5
 556 01fa 04       		.byte	0x4
 557 01fb 65000000 		.4byte	0x65
 558 01ff 0E       		.uleb128 0xe
 559 0200 A5010000 		.4byte	.LASF18
 560 0204 01       		.byte	0x1
ARM GAS  /tmp/cc20QH3W.s 			page 11


 561 0205 76       		.byte	0x76
 562 0206 65000000 		.4byte	0x65
 563 020a 01       		.byte	0x1
 564 020b 01       		.byte	0x1
 565 020c 0E       		.uleb128 0xe
 566 020d 18020000 		.4byte	.LASF19
 567 0211 01       		.byte	0x1
 568 0212 7E       		.byte	0x7e
 569 0213 65000000 		.4byte	0x65
 570 0217 01       		.byte	0x1
 571 0218 01       		.byte	0x1
 572 0219 0E       		.uleb128 0xe
 573 021a 23000000 		.4byte	.LASF20
 574 021e 01       		.byte	0x1
 575 021f 85       		.byte	0x85
 576 0220 65000000 		.4byte	0x65
 577 0224 01       		.byte	0x1
 578 0225 01       		.byte	0x1
 579 0226 0E       		.uleb128 0xe
 580 0227 EF010000 		.4byte	.LASF21
 581 022b 01       		.byte	0x1
 582 022c 8C       		.byte	0x8c
 583 022d 65000000 		.4byte	0x65
 584 0231 01       		.byte	0x1
 585 0232 01       		.byte	0x1
 586 0233 0E       		.uleb128 0xe
 587 0234 5E010000 		.4byte	.LASF22
 588 0238 01       		.byte	0x1
 589 0239 92       		.byte	0x92
 590 023a 65000000 		.4byte	0x65
 591 023e 01       		.byte	0x1
 592 023f 01       		.byte	0x1
 593 0240 0E       		.uleb128 0xe
 594 0241 DD010000 		.4byte	.LASF23
 595 0245 01       		.byte	0x1
 596 0246 98       		.byte	0x98
 597 0247 65000000 		.4byte	0x65
 598 024b 01       		.byte	0x1
 599 024c 01       		.byte	0x1
 600 024d 0E       		.uleb128 0xe
 601 024e 0B000000 		.4byte	.LASF24
 602 0252 01       		.byte	0x1
 603 0253 9E       		.byte	0x9e
 604 0254 65000000 		.4byte	0x65
 605 0258 01       		.byte	0x1
 606 0259 01       		.byte	0x1
 607 025a 0E       		.uleb128 0xe
 608 025b 00000000 		.4byte	.LASF25
 609 025f 01       		.byte	0x1
 610 0260 A4       		.byte	0xa4
 611 0261 65000000 		.4byte	0x65
 612 0265 01       		.byte	0x1
 613 0266 01       		.byte	0x1
 614 0267 0E       		.uleb128 0xe
 615 0268 55010000 		.4byte	.LASF26
 616 026c 01       		.byte	0x1
 617 026d AA       		.byte	0xaa
ARM GAS  /tmp/cc20QH3W.s 			page 12


 618 026e 65000000 		.4byte	0x65
 619 0272 01       		.byte	0x1
 620 0273 01       		.byte	0x1
 621 0274 0E       		.uleb128 0xe
 622 0275 05020000 		.4byte	.LASF27
 623 0279 01       		.byte	0x1
 624 027a B0       		.byte	0xb0
 625 027b 93000000 		.4byte	0x93
 626 027f 01       		.byte	0x1
 627 0280 01       		.byte	0x1
 628 0281 0E       		.uleb128 0xe
 629 0282 09010000 		.4byte	.LASF28
 630 0286 01       		.byte	0x1
 631 0287 B6       		.byte	0xb6
 632 0288 93000000 		.4byte	0x93
 633 028c 01       		.byte	0x1
 634 028d 01       		.byte	0x1
 635 028e 0E       		.uleb128 0xe
 636 028f F6000000 		.4byte	.LASF29
 637 0293 01       		.byte	0x1
 638 0294 BC       		.byte	0xbc
 639 0295 93000000 		.4byte	0x93
 640 0299 01       		.byte	0x1
 641 029a 01       		.byte	0x1
 642 029b 0E       		.uleb128 0xe
 643 029c 12000000 		.4byte	.LASF30
 644 02a0 01       		.byte	0x1
 645 02a1 C2       		.byte	0xc2
 646 02a2 93000000 		.4byte	0x93
 647 02a6 01       		.byte	0x1
 648 02a7 01       		.byte	0x1
 649 02a8 0F       		.uleb128 0xf
 650 02a9 01       		.byte	0x1
 651 02aa 2C010000 		.4byte	.LASF35
 652 02ae 01       		.byte	0x1
 653 02af C9       		.byte	0xc9
 654 02b0 01       		.byte	0x1
 655 02b1 01       		.byte	0x1
 656 02b2 00       		.byte	0
 657              		.section	.debug_abbrev,"",%progbits
 658              	.Ldebug_abbrev0:
 659 0000 01       		.uleb128 0x1
 660 0001 11       		.uleb128 0x11
 661 0002 01       		.byte	0x1
 662 0003 25       		.uleb128 0x25
 663 0004 0E       		.uleb128 0xe
 664 0005 13       		.uleb128 0x13
 665 0006 0B       		.uleb128 0xb
 666 0007 03       		.uleb128 0x3
 667 0008 0E       		.uleb128 0xe
 668 0009 1B       		.uleb128 0x1b
 669 000a 0E       		.uleb128 0xe
 670 000b 55       		.uleb128 0x55
 671 000c 06       		.uleb128 0x6
 672 000d 11       		.uleb128 0x11
 673 000e 01       		.uleb128 0x1
 674 000f 52       		.uleb128 0x52
ARM GAS  /tmp/cc20QH3W.s 			page 13


 675 0010 01       		.uleb128 0x1
 676 0011 10       		.uleb128 0x10
 677 0012 06       		.uleb128 0x6
 678 0013 00       		.byte	0
 679 0014 00       		.byte	0
 680 0015 02       		.uleb128 0x2
 681 0016 24       		.uleb128 0x24
 682 0017 00       		.byte	0
 683 0018 0B       		.uleb128 0xb
 684 0019 0B       		.uleb128 0xb
 685 001a 3E       		.uleb128 0x3e
 686 001b 0B       		.uleb128 0xb
 687 001c 03       		.uleb128 0x3
 688 001d 08       		.uleb128 0x8
 689 001e 00       		.byte	0
 690 001f 00       		.byte	0
 691 0020 03       		.uleb128 0x3
 692 0021 24       		.uleb128 0x24
 693 0022 00       		.byte	0
 694 0023 0B       		.uleb128 0xb
 695 0024 0B       		.uleb128 0xb
 696 0025 3E       		.uleb128 0x3e
 697 0026 0B       		.uleb128 0xb
 698 0027 03       		.uleb128 0x3
 699 0028 0E       		.uleb128 0xe
 700 0029 00       		.byte	0
 701 002a 00       		.byte	0
 702 002b 04       		.uleb128 0x4
 703 002c 16       		.uleb128 0x16
 704 002d 00       		.byte	0
 705 002e 03       		.uleb128 0x3
 706 002f 0E       		.uleb128 0xe
 707 0030 3A       		.uleb128 0x3a
 708 0031 0B       		.uleb128 0xb
 709 0032 3B       		.uleb128 0x3b
 710 0033 0B       		.uleb128 0xb
 711 0034 49       		.uleb128 0x49
 712 0035 13       		.uleb128 0x13
 713 0036 00       		.byte	0
 714 0037 00       		.byte	0
 715 0038 05       		.uleb128 0x5
 716 0039 0F       		.uleb128 0xf
 717 003a 00       		.byte	0
 718 003b 0B       		.uleb128 0xb
 719 003c 0B       		.uleb128 0xb
 720 003d 49       		.uleb128 0x49
 721 003e 13       		.uleb128 0x13
 722 003f 00       		.byte	0
 723 0040 00       		.byte	0
 724 0041 06       		.uleb128 0x6
 725 0042 15       		.uleb128 0x15
 726 0043 00       		.byte	0
 727 0044 27       		.uleb128 0x27
 728 0045 0C       		.uleb128 0xc
 729 0046 00       		.byte	0
 730 0047 00       		.byte	0
 731 0048 07       		.uleb128 0x7
ARM GAS  /tmp/cc20QH3W.s 			page 14


 732 0049 2E       		.uleb128 0x2e
 733 004a 00       		.byte	0
 734 004b 3F       		.uleb128 0x3f
 735 004c 0C       		.uleb128 0xc
 736 004d 03       		.uleb128 0x3
 737 004e 0E       		.uleb128 0xe
 738 004f 3A       		.uleb128 0x3a
 739 0050 0B       		.uleb128 0xb
 740 0051 3B       		.uleb128 0x3b
 741 0052 0B       		.uleb128 0xb
 742 0053 27       		.uleb128 0x27
 743 0054 0C       		.uleb128 0xc
 744 0055 11       		.uleb128 0x11
 745 0056 01       		.uleb128 0x1
 746 0057 12       		.uleb128 0x12
 747 0058 01       		.uleb128 0x1
 748 0059 40       		.uleb128 0x40
 749 005a 0A       		.uleb128 0xa
 750 005b 9742     		.uleb128 0x2117
 751 005d 0C       		.uleb128 0xc
 752 005e 00       		.byte	0
 753 005f 00       		.byte	0
 754 0060 08       		.uleb128 0x8
 755 0061 2E       		.uleb128 0x2e
 756 0062 01       		.byte	0x1
 757 0063 3F       		.uleb128 0x3f
 758 0064 0C       		.uleb128 0xc
 759 0065 03       		.uleb128 0x3
 760 0066 0E       		.uleb128 0xe
 761 0067 3A       		.uleb128 0x3a
 762 0068 0B       		.uleb128 0xb
 763 0069 3B       		.uleb128 0x3b
 764 006a 0B       		.uleb128 0xb
 765 006b 27       		.uleb128 0x27
 766 006c 0C       		.uleb128 0xc
 767 006d 11       		.uleb128 0x11
 768 006e 01       		.uleb128 0x1
 769 006f 12       		.uleb128 0x12
 770 0070 01       		.uleb128 0x1
 771 0071 40       		.uleb128 0x40
 772 0072 0A       		.uleb128 0xa
 773 0073 9642     		.uleb128 0x2116
 774 0075 0C       		.uleb128 0xc
 775 0076 01       		.uleb128 0x1
 776 0077 13       		.uleb128 0x13
 777 0078 00       		.byte	0
 778 0079 00       		.byte	0
 779 007a 09       		.uleb128 0x9
 780 007b 34       		.uleb128 0x34
 781 007c 00       		.byte	0
 782 007d 03       		.uleb128 0x3
 783 007e 08       		.uleb128 0x8
 784 007f 3A       		.uleb128 0x3a
 785 0080 0B       		.uleb128 0xb
 786 0081 3B       		.uleb128 0x3b
 787 0082 0B       		.uleb128 0xb
 788 0083 49       		.uleb128 0x49
ARM GAS  /tmp/cc20QH3W.s 			page 15


 789 0084 13       		.uleb128 0x13
 790 0085 02       		.uleb128 0x2
 791 0086 0A       		.uleb128 0xa
 792 0087 00       		.byte	0
 793 0088 00       		.byte	0
 794 0089 0A       		.uleb128 0xa
 795 008a 34       		.uleb128 0x34
 796 008b 00       		.byte	0
 797 008c 03       		.uleb128 0x3
 798 008d 08       		.uleb128 0x8
 799 008e 3A       		.uleb128 0x3a
 800 008f 0B       		.uleb128 0xb
 801 0090 3B       		.uleb128 0x3b
 802 0091 0B       		.uleb128 0xb
 803 0092 49       		.uleb128 0x49
 804 0093 13       		.uleb128 0x13
 805 0094 1C       		.uleb128 0x1c
 806 0095 0B       		.uleb128 0xb
 807 0096 00       		.byte	0
 808 0097 00       		.byte	0
 809 0098 0B       		.uleb128 0xb
 810 0099 0B       		.uleb128 0xb
 811 009a 01       		.byte	0x1
 812 009b 55       		.uleb128 0x55
 813 009c 06       		.uleb128 0x6
 814 009d 01       		.uleb128 0x1
 815 009e 13       		.uleb128 0x13
 816 009f 00       		.byte	0
 817 00a0 00       		.byte	0
 818 00a1 0C       		.uleb128 0xc
 819 00a2 34       		.uleb128 0x34
 820 00a3 00       		.byte	0
 821 00a4 03       		.uleb128 0x3
 822 00a5 08       		.uleb128 0x8
 823 00a6 3A       		.uleb128 0x3a
 824 00a7 0B       		.uleb128 0xb
 825 00a8 3B       		.uleb128 0x3b
 826 00a9 05       		.uleb128 0x5
 827 00aa 49       		.uleb128 0x49
 828 00ab 13       		.uleb128 0x13
 829 00ac 00       		.byte	0
 830 00ad 00       		.byte	0
 831 00ae 0D       		.uleb128 0xd
 832 00af 898201   		.uleb128 0x4109
 833 00b2 00       		.byte	0
 834 00b3 11       		.uleb128 0x11
 835 00b4 01       		.uleb128 0x1
 836 00b5 31       		.uleb128 0x31
 837 00b6 13       		.uleb128 0x13
 838 00b7 00       		.byte	0
 839 00b8 00       		.byte	0
 840 00b9 0E       		.uleb128 0xe
 841 00ba 34       		.uleb128 0x34
 842 00bb 00       		.byte	0
 843 00bc 03       		.uleb128 0x3
 844 00bd 0E       		.uleb128 0xe
 845 00be 3A       		.uleb128 0x3a
ARM GAS  /tmp/cc20QH3W.s 			page 16


 846 00bf 0B       		.uleb128 0xb
 847 00c0 3B       		.uleb128 0x3b
 848 00c1 0B       		.uleb128 0xb
 849 00c2 49       		.uleb128 0x49
 850 00c3 13       		.uleb128 0x13
 851 00c4 3F       		.uleb128 0x3f
 852 00c5 0C       		.uleb128 0xc
 853 00c6 3C       		.uleb128 0x3c
 854 00c7 0C       		.uleb128 0xc
 855 00c8 00       		.byte	0
 856 00c9 00       		.byte	0
 857 00ca 0F       		.uleb128 0xf
 858 00cb 2E       		.uleb128 0x2e
 859 00cc 00       		.byte	0
 860 00cd 3F       		.uleb128 0x3f
 861 00ce 0C       		.uleb128 0xc
 862 00cf 03       		.uleb128 0x3
 863 00d0 0E       		.uleb128 0xe
 864 00d1 3A       		.uleb128 0x3a
 865 00d2 0B       		.uleb128 0xb
 866 00d3 3B       		.uleb128 0x3b
 867 00d4 0B       		.uleb128 0xb
 868 00d5 27       		.uleb128 0x27
 869 00d6 0C       		.uleb128 0xc
 870 00d7 3C       		.uleb128 0x3c
 871 00d8 0C       		.uleb128 0xc
 872 00d9 00       		.byte	0
 873 00da 00       		.byte	0
 874 00db 00       		.byte	0
 875              		.section	.debug_aranges,"",%progbits
 876 0000 34000000 		.4byte	0x34
 877 0004 0200     		.2byte	0x2
 878 0006 00000000 		.4byte	.Ldebug_info0
 879 000a 04       		.byte	0x4
 880 000b 00       		.byte	0
 881 000c 0000     		.2byte	0
 882 000e 0000     		.2byte	0
 883 0010 00000000 		.4byte	.LFB7
 884 0014 02000000 		.4byte	.LFE7-.LFB7
 885 0018 00000000 		.4byte	.LFB8
 886 001c 02000000 		.4byte	.LFE8-.LFB8
 887 0020 00000000 		.4byte	.LFB9
 888 0024 02000000 		.4byte	.LFE9-.LFB9
 889 0028 00000000 		.4byte	.LFB10
 890 002c 18010000 		.4byte	.LFE10-.LFB10
 891 0030 00000000 		.4byte	0
 892 0034 00000000 		.4byte	0
 893              		.section	.debug_ranges,"",%progbits
 894              	.Ldebug_ranges0:
 895 0000 12000000 		.4byte	.LBB2
 896 0004 1A000000 		.4byte	.LBE2
 897 0008 26000000 		.4byte	.LBB4
 898 000c 32000000 		.4byte	.LBE4
 899 0010 00000000 		.4byte	0
 900 0014 00000000 		.4byte	0
 901 0018 1A000000 		.4byte	.LBB3
 902 001c 26000000 		.4byte	.LBE3
ARM GAS  /tmp/cc20QH3W.s 			page 17


 903 0020 32000000 		.4byte	.LBB5
 904 0024 38000000 		.4byte	.LBE5
 905 0028 46000000 		.4byte	.LBB7
 906 002c 52000000 		.4byte	.LBE7
 907 0030 00000000 		.4byte	0
 908 0034 00000000 		.4byte	0
 909 0038 38000000 		.4byte	.LBB6
 910 003c 46000000 		.4byte	.LBE6
 911 0040 56000000 		.4byte	.LBB8
 912 0044 5E000000 		.4byte	.LBE8
 913 0048 6C000000 		.4byte	.LBB10
 914 004c 76000000 		.4byte	.LBE10
 915 0050 00000000 		.4byte	0
 916 0054 00000000 		.4byte	0
 917 0058 5E000000 		.4byte	.LBB9
 918 005c 6A000000 		.4byte	.LBE9
 919 0060 76000000 		.4byte	.LBB11
 920 0064 7E000000 		.4byte	.LBE11
 921 0068 8A000000 		.4byte	.LBB13
 922 006c 94000000 		.4byte	.LBE13
 923 0070 00000000 		.4byte	0
 924 0074 00000000 		.4byte	0
 925 0078 7E000000 		.4byte	.LBB12
 926 007c 8A000000 		.4byte	.LBE12
 927 0080 98000000 		.4byte	.LBB14
 928 0084 A0000000 		.4byte	.LBE14
 929 0088 AC000000 		.4byte	.LBB16
 930 008c B8000000 		.4byte	.LBE16
 931 0090 00000000 		.4byte	0
 932 0094 00000000 		.4byte	0
 933 0098 A0000000 		.4byte	.LBB15
 934 009c AA000000 		.4byte	.LBE15
 935 00a0 BC000000 		.4byte	.LBB17
 936 00a4 C4000000 		.4byte	.LBE17
 937 00a8 D0000000 		.4byte	.LBB18
 938 00ac DC000000 		.4byte	.LBE18
 939 00b0 00000000 		.4byte	0
 940 00b4 00000000 		.4byte	0
 941 00b8 00000000 		.4byte	.LFB7
 942 00bc 02000000 		.4byte	.LFE7
 943 00c0 00000000 		.4byte	.LFB8
 944 00c4 02000000 		.4byte	.LFE8
 945 00c8 00000000 		.4byte	.LFB9
 946 00cc 02000000 		.4byte	.LFE9
 947 00d0 00000000 		.4byte	.LFB10
 948 00d4 18010000 		.4byte	.LFE10
 949 00d8 00000000 		.4byte	0
 950 00dc 00000000 		.4byte	0
 951              		.section	.debug_line,"",%progbits
 952              	.Ldebug_line0:
 953 0000 4B010000 		.section	.debug_str,"MS",%progbits,1
 953      0200B200 
 953      00000201 
 953      FB0E0D00 
 953      01010101 
 954              	.LASF25:
 955 0000 5F627373 		.ascii	"_bss_start\000"
ARM GAS  /tmp/cc20QH3W.s 			page 18


 955      5F737461 
 955      727400
 956              	.LASF24:
 957 000b 5F656461 		.ascii	"_edata\000"
 957      746100
 958              	.LASF30:
 959 0012 5F5F6669 		.ascii	"__fini_array_end\000"
 959      6E695F61 
 959      72726179 
 959      5F656E64 
 959      00
 960              	.LASF20:
 961 0023 5F5F7072 		.ascii	"__process_stack_base__\000"
 961      6F636573 
 961      735F7374 
 961      61636B5F 
 961      62617365 
 962              	.LASF14:
 963 003a 66756E63 		.ascii	"funcpp_t\000"
 963      70705F74 
 963      00
 964              	.LASF17:
 965 0043 5F646566 		.ascii	"_default_exit\000"
 965      61756C74 
 965      5F657869 
 965      7400
 966              	.LASF33:
 967 0051 2F686F6D 		.ascii	"/home/kwilson/Sandbox/ChibiOS_2.5.1/demos/ARMCM4-ST"
 967      652F6B77 
 967      696C736F 
 967      6E2F5361 
 967      6E64626F 
 968 0084 4D333246 		.ascii	"M32F407-LWIP-FATFS-USB\000"
 968      3430372D 
 968      4C574950 
 968      2D464154 
 968      46532D55 
 969              	.LASF2:
 970 009b 756E7369 		.ascii	"unsigned char\000"
 970      676E6564 
 970      20636861 
 970      7200
 971              	.LASF16:
 972 00a9 5F5F6C61 		.ascii	"__late_init\000"
 972      74655F69 
 972      6E697400 
 973              	.LASF32:
 974 00b5 2E2E2F2E 		.ascii	"../../os/ports/GCC/ARMCMx/crt0.c\000"
 974      2E2F6F73 
 974      2F706F72 
 974      74732F47 
 974      43432F41 
 975              	.LASF34:
 976 00d6 52657365 		.ascii	"ResetHandler\000"
 976      7448616E 
 976      646C6572 
 976      00
ARM GAS  /tmp/cc20QH3W.s 			page 19


 977              	.LASF4:
 978 00e3 73686F72 		.ascii	"short unsigned int\000"
 978      7420756E 
 978      7369676E 
 978      65642069 
 978      6E7400
 979              	.LASF29:
 980 00f6 5F5F6669 		.ascii	"__fini_array_start\000"
 980      6E695F61 
 980      72726179 
 980      5F737461 
 980      727400
 981              	.LASF28:
 982 0109 5F5F696E 		.ascii	"__init_array_end\000"
 982      69745F61 
 982      72726179 
 982      5F656E64 
 982      00
 983              	.LASF8:
 984 011a 6C6F6E67 		.ascii	"long unsigned int\000"
 984      20756E73 
 984      69676E65 
 984      6420696E 
 984      7400
 985              	.LASF35:
 986 012c 6D61696E 		.ascii	"main\000"
 986      00
 987              	.LASF0:
 988 0131 756E7369 		.ascii	"unsigned int\000"
 988      676E6564 
 988      20696E74 
 988      00
 989              	.LASF10:
 990 013e 6C6F6E67 		.ascii	"long long unsigned int\000"
 990      206C6F6E 
 990      6720756E 
 990      7369676E 
 990      65642069 
 991              	.LASF26:
 992 0155 5F627373 		.ascii	"_bss_end\000"
 992      5F656E64 
 992      00
 993              	.LASF22:
 994 015e 5F746578 		.ascii	"_textdata\000"
 994      74646174 
 994      6100
 995              	.LASF15:
 996 0168 5F5F6561 		.ascii	"__early_init\000"
 996      726C795F 
 996      696E6974 
 996      00
 997              	.LASF11:
 998 0175 73697A65 		.ascii	"sizetype\000"
 998      74797065 
 998      00
 999              	.LASF6:
 1000 017e 75696E74 		.ascii	"uint8_t\000"
ARM GAS  /tmp/cc20QH3W.s 			page 20


 1000      385F7400 
 1001              	.LASF9:
 1002 0186 6C6F6E67 		.ascii	"long long int\000"
 1002      206C6F6E 
 1002      6720696E 
 1002      7400
 1003              	.LASF12:
 1004 0194 63686172 		.ascii	"char\000"
 1004      00
 1005              	.LASF31:
 1006 0199 474E5520 		.ascii	"GNU C 4.7.2\000"
 1006      4320342E 
 1006      372E3200 
 1007              	.LASF18:
 1008 01a5 5F5F6D61 		.ascii	"__main_stack_base__\000"
 1008      696E5F73 
 1008      7461636B 
 1008      5F626173 
 1008      655F5F00 
 1009              	.LASF3:
 1010 01b9 73686F72 		.ascii	"short int\000"
 1010      7420696E 
 1010      7400
 1011              	.LASF13:
 1012 01c3 66756E63 		.ascii	"funcp_t\000"
 1012      705F7400 
 1013              	.LASF7:
 1014 01cb 75696E74 		.ascii	"uint32_t\000"
 1014      33325F74 
 1014      00
 1015              	.LASF5:
 1016 01d4 6C6F6E67 		.ascii	"long int\000"
 1016      20696E74 
 1016      00
 1017              	.LASF23:
 1018 01dd 5F646174 		.ascii	"_data\000"
 1018      6100
 1019              	.LASF1:
 1020 01e3 7369676E 		.ascii	"signed char\000"
 1020      65642063 
 1020      68617200 
 1021              	.LASF21:
 1022 01ef 5F5F7072 		.ascii	"__process_stack_end__\000"
 1022      6F636573 
 1022      735F7374 
 1022      61636B5F 
 1022      656E645F 
 1023              	.LASF27:
 1024 0205 5F5F696E 		.ascii	"__init_array_start\000"
 1024      69745F61 
 1024      72726179 
 1024      5F737461 
 1024      727400
 1025              	.LASF19:
 1026 0218 5F5F6D61 		.ascii	"__main_stack_end__\000"
 1026      696E5F73 
 1026      7461636B 
ARM GAS  /tmp/cc20QH3W.s 			page 21


 1026      5F656E64 
 1026      5F5F00
 1027              		.ident	"GCC: (crosstool-NG 1.17.0 - PSAS ST32F4 GFE) 4.7.2"
ARM GAS  /tmp/cc20QH3W.s 			page 22


DEFINED SYMBOLS
                            *ABS*:0000000000000000 crt0.c
     /tmp/cc20QH3W.s:21     .text.__early_init:0000000000000000 $t
     /tmp/cc20QH3W.s:27     .text.__early_init:0000000000000000 __early_init
     /tmp/cc20QH3W.s:40     .text.__late_init:0000000000000000 $t
     /tmp/cc20QH3W.s:46     .text.__late_init:0000000000000000 __late_init
     /tmp/cc20QH3W.s:58     .text._default_exit:0000000000000000 $t
     /tmp/cc20QH3W.s:64     .text._default_exit:0000000000000000 _default_exit
     /tmp/cc20QH3W.s:77     .text.ResetHandler:0000000000000000 $t
     /tmp/cc20QH3W.s:83     .text.ResetHandler:0000000000000000 ResetHandler
     /tmp/cc20QH3W.s:295    .text.ResetHandler:00000000000000e0 $d
                     .debug_frame:0000000000000010 $d
     /tmp/cc20QH3W.s:312    .text.ResetHandler:0000000000000118 $t

UNDEFINED SYMBOLS
main
__process_stack_end__
__main_stack_base__
__main_stack_end__
__process_stack_base__
_data
_edata
_textdata
_bss_start
_bss_end
__init_array_start
__init_array_end
__fini_array_start
__fini_array_end
