ARM GAS  /tmp/cc20QH3W.s 			page 1


   1              		.syntax unified
   2              		.cpu cortex-m4
   3              		.eabi_attribute 27, 3
   4              		.eabi_attribute 28, 1
   5              		.fpu fpv4-sp-d16
   6              		.eabi_attribute 20, 1
   7              		.eabi_attribute 21, 1
   8              		.eabi_attribute 23, 3
   9              		.eabi_attribute 24, 1
  10              		.eabi_attribute 25, 1
  11              		.eabi_attribute 26, 1
  12              		.eabi_attribute 30, 2
  13              		.eabi_attribute 34, 1
  14              		.eabi_attribute 18, 4
  15              		.thumb
  16              		.file	"crt0.c"
  17              		.text
  18              	.Ltext0:
  19              		.cfi_sections	.debug_frame
  20              		.section	.text.__early_init,"ax",%progbits
  21              		.align	2
  22              		.p2align 4,,15
  23              		.weak	__early_init
  24              		.thumb
  25              		.thumb_func
  26              		.type	__early_init, %function
  27              	__early_init:
  28              	.LFB7:
  29              		.file 1 "../../os/ports/GCC/ARMCMx/crt0.c"
  30              		.loc 1 213 0
  31              		.cfi_startproc
  32              		@ args = 0, pretend = 0, frame = 0
  33              		@ frame_needed = 0, uses_anonymous_args = 0
  34              		@ link register save eliminated.
  35 0000 7047     		bx	lr
  36              		.cfi_endproc
  37              	.LFE7:
  38              		.size	__early_init, .-__early_init
  39 0002 00BFAFF3 		.section	.text.__late_init,"ax",%progbits
  39      0080AFF3 
  39      0080AFF3 
  39      0080
  40              		.align	2
  41              		.p2align 4,,15
  42              		.weak	__late_init
  43              		.thumb
  44              		.thumb_func
  45              		.type	__late_init, %function
  46              	__late_init:
  47              	.LFB8:
  48              		.loc 1 225 0
  49              		.cfi_startproc
  50              		@ args = 0, pretend = 0, frame = 0
  51              		@ frame_needed = 0, uses_anonymous_args = 0
  52              		@ link register save eliminated.
  53 0000 7047     		bx	lr
  54              		.cfi_endproc
ARM GAS  /tmp/cc20QH3W.s 			page 2


  55              	.LFE8:
  56              		.size	__late_init, .-__late_init
  57 0002 00BFAFF3 		.section	.text._default_exit,"ax",%progbits
  57      0080AFF3 
  57      0080AFF3 
  57      0080
  58              		.align	2
  59              		.p2align 4,,15
  60              		.weak	_default_exit
  61              		.thumb
  62              		.thumb_func
  63              		.type	_default_exit, %function
  64              	_default_exit:
  65              	.LFB9:
  66              		.loc 1 236 0
  67              		.cfi_startproc
  68              		@ Naked Function: prologue and epilogue provided by programmer.
  69              		@ args = 0, pretend = 0, frame = 0
  70              		@ frame_needed = 0, uses_anonymous_args = 0
  71              	.L4:
  72 0000 FEE7     		b	.L4
  73              		.cfi_endproc
  74              	.LFE9:
  75              		.size	_default_exit, .-_default_exit
  76 0002 00BFAFF3 		.section	.text.ResetHandler,"ax",%progbits
  76      0080AFF3 
  76      0080AFF3 
  76      0080
  77              		.align	2
  78              		.p2align 4,,15
  79              		.global	ResetHandler
  80              		.thumb
  81              		.thumb_func
  82              		.type	ResetHandler, %function
  83              	ResetHandler:
  84              	.LFB10:
  85              		.loc 1 247 0
  86              		.cfi_startproc
  87              		@ Naked Function: prologue and epilogue provided by programmer.
  88              		@ args = 0, pretend = 0, frame = 0
  89              		@ frame_needed = 0, uses_anonymous_args = 0
  90              		.loc 1 253 0
  91              	@ 253 "../../os/ports/GCC/ARMCMx/crt0.c" 1
  92 0000 72B6     		cpsid   i
  93              	@ 0 "" 2
  94              		.loc 1 254 0
  95              		.thumb
  96 0002 3748     		ldr	r0, .L32
  97              	.LVL0:
  98              		.loc 1 255 0
  99              	@ 255 "../../os/ports/GCC/ARMCMx/crt0.c" 1
 100 0004 80F30988 		msr     PSP, r0
 101              	@ 0 "" 2
 102              	.LVL1:
 103              		.loc 1 275 0
 104              		.thumb
 105 0008 0223     		movs	r3, #2
ARM GAS  /tmp/cc20QH3W.s 			page 3


 106              	@ 275 "../../os/ports/GCC/ARMCMx/crt0.c" 1
 107 000a 83F31488 		msr     CONTROL, r3
 108              	@ 0 "" 2
 109              		.loc 1 276 0
 110              	@ 276 "../../os/ports/GCC/ARMCMx/crt0.c" 1
 111 000e BFF36F8F 		isb
 112              	@ 0 "" 2
 113              	.LVL2:
 114              		.thumb
 115              	.LBB2:
 116              		.loc 1 280 0
 117 0012 344A     		ldr	r2, .L32+4
 118 0014 344B     		ldr	r3, .L32+8
 119 0016 9A42     		cmp	r2, r3
 120 0018 0BD2     		bcs	.L10
 121              	.LBE2:
 122              	.LBB3:
 123              		.loc 1 247 0
 124 001a D143     		mvns	r1, r2
 125 001c C918     		adds	r1, r1, r3
 126 001e 21F00301 		bic	r1, r1, #3
 127 0022 131F     		subs	r3, r2, #4
 128 0024 8918     		adds	r1, r1, r2
 129              	.LBE3:
 130              	.LBB4:
 131              		.loc 1 280 0
 132 0026 4FF05532 		mov	r2, #1431655765
 133              	.LVL3:
 134              	.L9:
 135              		.loc 1 280 0 is_stmt 0 discriminator 2
 136 002a 43F8042F 		str	r2, [r3, #4]!
 137 002e 8B42     		cmp	r3, r1
 138 0030 FBD1     		bne	.L9
 139              	.L10:
 140              	.LVL4:
 141              	.LBE4:
 142              	.LBB5:
 143              		.loc 1 283 0 is_stmt 1
 144 0032 2E4A     		ldr	r2, .L32+12
 145 0034 8242     		cmp	r2, r0
 146 0036 0CD2     		bcs	.L8
 147              	.LBE5:
 148              	.LBB6:
 149              		.loc 1 247 0
 150 0038 2D49     		ldr	r1, .L32+16
 151 003a 131D     		adds	r3, r2, #4
 152 003c C91A     		subs	r1, r1, r3
 153 003e 21F00301 		bic	r1, r1, #3
 154 0042 131F     		subs	r3, r2, #4
 155 0044 8918     		adds	r1, r1, r2
 156              	.LBE6:
 157              	.LBB7:
 158              		.loc 1 283 0
 159 0046 4FF05532 		mov	r2, #1431655765
 160              	.LVL5:
 161              	.L13:
 162              		.loc 1 283 0 is_stmt 0 discriminator 2
ARM GAS  /tmp/cc20QH3W.s 			page 4


 163 004a 43F8042F 		str	r2, [r3, #4]!
 164 004e 8B42     		cmp	r3, r1
 165 0050 FBD1     		bne	.L13
 166              	.L8:
 167              	.LBE7:
 168              		.loc 1 289 0 is_stmt 1
 169 0052 FFF7FEFF 		bl	__early_init
 170              	.LVL6:
 171              	.LBB8:
 172              		.loc 1 298 0
 173 0056 2749     		ldr	r1, .L32+20
 174 0058 274B     		ldr	r3, .L32+24
 175 005a 9942     		cmp	r1, r3
 176 005c 0BD2     		bcs	.L12
 177              	.LBE8:
 178              	.LBB9:
 179              		.loc 1 247 0
 180 005e C843     		mvns	r0, r1
 181 0060 C018     		adds	r0, r0, r3
 182 0062 20F00300 		bic	r0, r0, #3
 183 0066 254C     		ldr	r4, .L32+28
 184 0068 0430     		adds	r0, r0, #4
 185              	.LBE9:
 186 006a 0023     		movs	r3, #0
 187              	.LVL7:
 188              	.L16:
 189              	.LBB10:
 190              		.loc 1 299 0
 191 006c 1A59     		ldr	r2, [r3, r4]
 192 006e 5A50     		str	r2, [r3, r1]
 193 0070 0433     		adds	r3, r3, #4
 194              		.loc 1 298 0
 195 0072 8342     		cmp	r3, r0
 196 0074 FAD1     		bne	.L16
 197              	.L12:
 198              	.LVL8:
 199              	.LBE10:
 200              	.LBB11:
 201              		.loc 1 305 0
 202 0076 224A     		ldr	r2, .L32+32
 203 0078 224B     		ldr	r3, .L32+36
 204 007a 9A42     		cmp	r2, r3
 205 007c 0AD2     		bcs	.L15
 206              	.LBE11:
 207              	.LBB12:
 208              		.loc 1 247 0
 209 007e D143     		mvns	r1, r2
 210 0080 C918     		adds	r1, r1, r3
 211 0082 21F00301 		bic	r1, r1, #3
 212 0086 131F     		subs	r3, r2, #4
 213 0088 8918     		adds	r1, r1, r2
 214              	.LBE12:
 215              	.LBB13:
 216              		.loc 1 305 0
 217 008a 0022     		movs	r2, #0
 218              	.LVL9:
 219              	.L19:
ARM GAS  /tmp/cc20QH3W.s 			page 5


 220              		.loc 1 305 0 is_stmt 0 discriminator 2
 221 008c 43F8042F 		str	r2, [r3, #4]!
 222 0090 8B42     		cmp	r3, r1
 223 0092 FBD1     		bne	.L19
 224              	.L15:
 225              	.LBE13:
 226              		.loc 1 309 0 is_stmt 1
 227 0094 FFF7FEFF 		bl	__late_init
 228              	.LVL10:
 229              	.LBB14:
 230              		.loc 1 315 0
 231 0098 1B4D     		ldr	r5, .L32+40
 232 009a 1C4B     		ldr	r3, .L32+44
 233 009c 9D42     		cmp	r5, r3
 234 009e 0BD2     		bcs	.L18
 235              	.LBE14:
 236              	.LBB15:
 237              		.loc 1 247 0
 238 00a0 EE43     		mvns	r6, r5
 239 00a2 F618     		adds	r6, r6, r3
 240 00a4 B608     		lsrs	r6, r6, #2
 241 00a6 043D     		subs	r5, r5, #4
 242 00a8 0136     		adds	r6, r6, #1
 243              	.LBE15:
 244 00aa 0024     		movs	r4, #0
 245              	.LVL11:
 246              	.L22:
 247              	.LBB16:
 248              		.loc 1 316 0
 249 00ac 55F8043F 		ldr	r3, [r5, #4]!
 250 00b0 0134     		adds	r4, r4, #1
 251 00b2 9847     		blx	r3
 252              	.LVL12:
 253              		.loc 1 315 0
 254 00b4 B442     		cmp	r4, r6
 255 00b6 F9D1     		bne	.L22
 256              	.L18:
 257              	.LBE16:
 258              		.loc 1 323 0
 259 00b8 FFF7FEFF 		bl	main
 260              	.LVL13:
 261              	.LBB17:
 262              		.loc 1 329 0
 263 00bc 144D     		ldr	r5, .L32+48
 264 00be 154B     		ldr	r3, .L32+52
 265 00c0 9D42     		cmp	r5, r3
 266 00c2 0BD2     		bcs	.L21
 267              	.LBE17:
 268              		.loc 1 247 0
 269 00c4 EE43     		mvns	r6, r5
 270 00c6 F618     		adds	r6, r6, r3
 271 00c8 B608     		lsrs	r6, r6, #2
 272 00ca 043D     		subs	r5, r5, #4
 273 00cc 0136     		adds	r6, r6, #1
 274 00ce 0024     		movs	r4, #0
 275              	.LVL14:
 276              	.L23:
ARM GAS  /tmp/cc20QH3W.s 			page 6


 277              	.LBB18:
 278              		.loc 1 330 0
 279 00d0 55F8043F 		ldr	r3, [r5, #4]!
 280 00d4 0134     		adds	r4, r4, #1
 281 00d6 9847     		blx	r3
 282              	.LVL15:
 283              		.loc 1 329 0
 284 00d8 B442     		cmp	r4, r6
 285 00da F9D1     		bne	.L23
 286              	.L21:
 287              	.LBE18:
 288              		.loc 1 337 0
 289 00dc FFF7FEFF 		bl	_default_exit
 290              	.LVL16:
 291              		.loc 1 338 0
 292              	.L33:
 293              		.align	2
 294              	.L32:
 295 00e0 00000000 		.word	__process_stack_end__
 296 00e4 00000000 		.word	__main_stack_base__
 297 00e8 00000000 		.word	__main_stack_end__
 298 00ec 00000000 		.word	__process_stack_base__
 299 00f0 03000000 		.word	__process_stack_end__+3
 300 00f4 00000000 		.word	_data
 301 00f8 00000000 		.word	_edata
 302 00fc 00000000 		.word	_textdata
 303 0100 00000000 		.word	_bss_start
 304 0104 00000000 		.word	_bss_end
 305 0108 00000000 		.word	__init_array_start
 306 010c 00000000 		.word	__init_array_end
 307 0110 00000000 		.word	__fini_array_start
 308 0114 00000000 		.word	__fini_array_end
 309              		.cfi_endproc
 310              	.LFE10:
 311              		.size	ResetHandler, .-ResetHandler
 312 0118 AFF30080 		.text
 312      AFF30080 
 313              	.Letext0:
 314              		.file 2 "/opt/psas/x-tools/stm32f407/arm-psas-eabi/bin/../lib/gcc/arm-psas-eabi/4.7.2/../../../../