ARM GAS  /tmp/ccYRp0JW.s 			page 1


   1              		.syntax unified
   2              		.cpu cortex-m4
   3              		.eabi_attribute 27, 3
   4              		.eabi_attribute 28, 1
   5              		.fpu fpv4-sp-d16
   6              		.eabi_attribute 20, 1
   7              		.eabi_attribute 21, 1
   8              		.eabi_attribute 23, 3
   9              		.eabi_attribute 24, 1
  10              		.eabi_attribute 25, 1
  11              		.eabi_attribute 26, 1
  12              		.eabi_attribute 30, 2
  13              		.eabi_attribute 34, 1
  14              		.eabi_attribute 18, 4
  15              		.thumb
  16              		.file	"def.c"
  17              		.text
  18              	.Ltext0:
  19              		.cfi_sections	.debug_frame
  20              		.section	.text.lwip_htons,"ax",%progbits
  21              		.align	2
  22              		.p2align 4,,15
  23              		.global	lwip_htons
  24              		.thumb
  25              		.thumb_func
  26              		.type	lwip_htons, %function
  27              	lwip_htons:
  28              	.LFB7:
  29              		.file 1 "../../ext/lwip/src/core/def.c"
  30              		.loc 1 65 0
  31              		.cfi_startproc
  32              		@ args = 0, pretend = 0, frame = 0
  33              		@ frame_needed = 0, uses_anonymous_args = 0
  34              		@ link register save eliminated.
  35              	.LVL0:
  36              		.loc 1 66 0
  37 0000 030A     		lsrs	r3, r0, #8
  38 0002 43EA0020 		orr	r0, r3, r0, lsl #8
  39              	.LVL1:
  40              		.loc 1 67 0
  41 0006 80B2     		uxth	r0, r0
  42 0008 7047     		bx	lr
  43              		.cfi_endproc
  44              	.LFE7:
  45              		.size	lwip_htons, .-lwip_htons
  46              		.section	.text.lwip_ntohs,"ax",%progbits
  47              		.align	2
  48              		.p2align 4,,15
  49              		.global	lwip_ntohs
  50              		.thumb
  51              		.thumb_func
  52              		.type	lwip_ntohs, %function
  53              	lwip_ntohs:
  54              	.LFB8:
  55              		.loc 1 77 0
  56              		.cfi_startproc
  57              		@ args = 0, pretend = 0, frame = 0
ARM GAS  /tmp/ccYRp0JW.s 			page 2


  58              		@ frame_needed = 0, uses_anonymous_args = 0
  59              		@ link register save eliminated.
  60              	.LVL2:
  61              	.LBB6:
  62              	.LBB7:
  63              		.loc 1 66 0
  64 0000 030A     		lsrs	r3, r0, #8
  65 0002 43EA0020 		orr	r0, r3, r0, lsl #8
  66              	.LVL3:
  67              	.LBE7:
  68              	.LBE6:
  69              		.loc 1 79 0
  70 0006 80B2     		uxth	r0, r0
  71 0008 7047     		bx	lr
  72              		.cfi_endproc
  73              	.LFE8:
  74              		.size	lwip_ntohs, .-lwip_ntohs
  75 000a 00BFAFF3 		.section	.text.lwip_htonl,"ax",%progbits
  75      0080
  76              		.align	2
  77              		.p2align 4,,15
  78              		.global	lwip_htonl
  79              		.thumb
  80              		.thumb_func
  81              		.type	lwip_htonl, %function
  82              	lwip_htonl:
  83              	.LFB9:
  84              		.loc 1 89 0
  85              		.cfi_startproc
  86              		@ args = 0, pretend = 0, frame = 0
  87              		@ frame_needed = 0, uses_anonymous_args = 0
  88              		@ link register save eliminated.
  89              	.LVL4:
  90              		.loc 1 94 0
  91 0000 00BA     		rev	r0, r0
  92              	.LVL5:
  93 0002 7047     		bx	lr
  94              		.cfi_endproc
  95              	.LFE9:
  96              		.size	lwip_htonl, .-lwip_htonl
  97 0004 AFF30080 		.section	.text.lwip_ntohl,"ax",%progbits
  97      AFF30080 
  97      AFF30080 
  98              		.align	2
  99              		.p2align 4,,15
 100              		.global	lwip_ntohl
 101              		.thumb
 102              		.thumb_func
 103              		.type	lwip_ntohl, %function
 104              	lwip_ntohl:
 105              	.LFB10:
 106              		.loc 1 104 0
 107              		.cfi_startproc
 108              		@ args = 0, pretend = 0, frame = 0
 109              		@ frame_needed = 0, uses_anonymous_args = 0
 110              		@ link register save eliminated.
 111              	.LVL6:
ARM GAS  /tmp/ccYRp0JW.s 			page 3


 112              		.loc 1 106 0
 113 0000 00BA     		rev	r0, r0
 114              	.LVL7:
 115 0002 7047     		bx	lr
 116              		.cfi_endproc
 117              	.LFE10:
 118              		.size	lwip_ntohl, .-lwip_ntohl
 119 0004 AFF30080 		.text
 119      AFF30080 
 119      AFF30080 
 120              	.Letext0:
 121              		.file 2 "/opt/psas/x-tools/stm32f407/arm-psas-eabi/bin/../lib/gcc/arm-psas-eabi/4.7.2/../../../../
 122              		.file 3 "../../os/various/lwip_bindings/arch/cc.h"