ARM GAS  /tmp/ccx0Simk.s 			page 1


   1              		.syntax unified
   2              		.cpu cortex-m4
   3              		.eabi_attribute 27, 3
   4              		.eabi_attribute 28, 1
   5              		.fpu fpv4-sp-d16
   6              		.eabi_attribute 20, 1
   7              		.eabi_attribute 21, 1
   8              		.eabi_attribute 23, 3
   9              		.eabi_attribute 24, 1
  10              		.eabi_attribute 25, 1
  11              		.eabi_attribute 26, 1
  12              		.eabi_attribute 30, 2
  13              		.eabi_attribute 34, 1
  14              		.eabi_attribute 18, 4
  15              		.thumb
  16              		.file	"fatfs_syscall.c"
  17              		.text
  18              	.Ltext0:
  19              		.cfi_sections	.debug_frame
  20              		.section	.text.ff_cre_syncobj,"ax",%progbits
  21              		.align	2
  22              		.p2align 4,,15
  23              		.global	ff_cre_syncobj
  24              		.thumb
  25              		.thumb_func
  26              		.type	ff_cre_syncobj, %function
  27              	ff_cre_syncobj:
  28              	.LFB7:
  29              		.file 1 "../../os/various/fatfs_bindings/fatfs_syscall.c"
  30              		.loc 1 38 0
  31              		.cfi_startproc
  32              		@ args = 0, pretend = 0, frame = 0
  33              		@ frame_needed = 0, uses_anonymous_args = 0
  34              	.LVL0:
  35 0000 08B5     		push	{r3, lr}
  36              	.LCFI0:
  37              		.cfi_def_cfa_offset 8
  38              		.cfi_offset 3, -8
  39              		.cfi_offset 14, -4
  40              		.loc 1 40 0
  41 0002 40F20003 		movw	r3, #:lower16:.LANCHOR0
  42 0006 C0F20003 		movt	r3, #:upper16:.LANCHOR0
  43 000a 00EB4000 		add	r0, r0, r0, lsl #1
  44              	.LVL1:
  45 000e 03EB8000 		add	r0, r3, r0, lsl #2
  46 0012 0860     		str	r0, [r1, #0]
  47              		.loc 1 41 0
  48 0014 0121     		movs	r1, #1
  49              	.LVL2:
  50 0016 FFF7FEFF 		bl	chSemInit
  51              	.LVL3:
  52              		.loc 1 43 0
  53 001a 0120     		movs	r0, #1
  54 001c 08BD     		pop	{r3, pc}
  55              		.cfi_endproc
  56              	.LFE7:
  57              		.size	ff_cre_syncobj, .-ff_cre_syncobj
ARM GAS  /tmp/ccx0Simk.s 			page 2


  58 001e 00BF     		.section	.text.ff_del_syncobj,"ax",%progbits
  59              		.align	2
  60              		.p2align 4,,15
  61              		.global	ff_del_syncobj
  62              		.thumb
  63              		.thumb_func
  64              		.type	ff_del_syncobj, %function
  65              	ff_del_syncobj:
  66              	.LFB8:
  67              		.loc 1 48 0
  68              		.cfi_startproc
  69              		@ args = 0, pretend = 0, frame = 0
  70              		@ frame_needed = 0, uses_anonymous_args = 0
  71              	.LVL4:
  72 0000 08B5     		push	{r3, lr}
  73              	.LCFI1:
  74              		.cfi_def_cfa_offset 8
  75              		.cfi_offset 3, -8
  76              		.cfi_offset 14, -4
  77              		.loc 1 50 0
  78 0002 0021     		movs	r1, #0
  79 0004 FFF7FEFF 		bl	chSemReset
  80              	.LVL5:
  81              		.loc 1 52 0
  82 0008 0120     		movs	r0, #1
  83 000a 08BD     		pop	{r3, pc}
  84              		.cfi_endproc
  85              	.LFE8:
  86              		.size	ff_del_syncobj, .-ff_del_syncobj
  87 000c AFF30080 		.section	.text.ff_req_grant,"ax",%progbits
  88              		.align	2
  89              		.p2align 4,,15
  90              		.global	ff_req_grant
  91              		.thumb
  92              		.thumb_func
  93              		.type	ff_req_grant, %function
  94              	ff_req_grant:
  95              	.LFB9:
  96              		.loc 1 57 0
  97              		.cfi_startproc
  98              		@ args = 0, pretend = 0, frame = 0
  99              		@ frame_needed = 0, uses_anonymous_args = 0
 100              	.LVL6:
 101 0000 08B5     		push	{r3, lr}
 102              	.LCFI2:
 103              		.cfi_def_cfa_offset 8
 104              		.cfi_offset 3, -8
 105              		.cfi_offset 14, -4
 106              		.loc 1 59 0
 107 0002 4FF47A71 		mov	r1, #1000
 108 0006 FFF7FEFF 		bl	chSemWaitTimeout
 109              	.LVL7:
 110              		.loc 1 61 0
 111 000a D0F10100 		rsbs	r0, r0, #1
 112              	.LVL8:
 113 000e 38BF     		it	cc
 114 0010 0020     		movcc	r0, #0
ARM GAS  /tmp/ccx0Simk.s 			page 3


 115 0012 08BD     		pop	{r3, pc}
 116              		.cfi_endproc
 117              	.LFE9:
 118              		.size	ff_req_grant, .-ff_req_grant
 119 0014 AFF30080 		.section	.text.ff_rel_grant,"ax",%progbits
 119      AFF30080 
 119      AFF30080 
 120              		.align	2
 121              		.p2align 4,,15
 122              		.global	ff_rel_grant
 123              		.thumb
 124              		.thumb_func
 125              		.type	ff_rel_grant, %function
 126              	ff_rel_grant:
 127              	.LFB10:
 128              		.loc 1 66 0
 129              		.cfi_startproc
 130              		@ args = 0, pretend = 0, frame = 0
 131              		@ frame_needed = 0, uses_anonymous_args = 0
 132              		@ link register save eliminated.
 133              	.LVL9:
 134              		.loc 1 69 0
 135              		.loc 1 68 0
 136 0000 FFF7FEBF 		b	chSemSignal
 137              	.LVL10:
 138              		.cfi_endproc
 139              	.LFE10:
 140              		.size	ff_rel_grant, .-ff_rel_grant
 141 0004 AFF30080 		.section	.text.ff_memalloc,"ax",%progbits
 141      AFF30080 
 141      AFF30080 
 142              		.align	2
 143              		.p2align 4,,15
 144              		.global	ff_memalloc
 145              		.thumb
 146              		.thumb_func
 147              		.type	ff_memalloc, %function
 148              	ff_memalloc:
 149              	.LFB11:
 150              		.loc 1 76 0
 151              		.cfi_startproc
 152              		@ args = 0, pretend = 0, frame = 0
 153              		@ frame_needed = 0, uses_anonymous_args = 0
 154              		@ link register save eliminated.
 155              	.LVL11:
 156              		.loc 1 76 0
 157 0000 0146     		mov	r1, r0
 158              		.loc 1 78 0
 159 0002 0020     		movs	r0, #0
 160              	.LVL12:
 161              		.loc 1 79 0
 162              		.loc 1 78 0
 163 0004 FFF7FEBF 		b	chHeapAlloc
 164              	.LVL13:
 165              		.cfi_endproc
 166              	.LFE11:
 167              		.size	ff_memalloc, .-ff_memalloc
ARM GAS  /tmp/ccx0Simk.s 			page 4


 168 0008 AFF30080 		.section	.text.ff_memfree,"ax",%progbits
 168      AFF30080 
 169              		.align	2
 170              		.p2align 4,,15
 171              		.global	ff_memfree
 172              		.thumb
 173              		.thumb_func
 174              		.type	ff_memfree, %function
 175              	ff_memfree:
 176              	.LFB12:
 177              		.loc 1 84 0
 178              		.cfi_startproc
 179              		@ args = 0, pretend = 0, frame = 0
 180              		@ frame_needed = 0, uses_anonymous_args = 0
 181              		@ link register save eliminated.
 182              	.LVL14:
 183              		.loc 1 87 0
 184              		.loc 1 86 0
 185 0000 FFF7FEBF 		b	chHeapFree
 186              	.LVL15:
 187              		.cfi_endproc
 188              	.LFE12:
 189              		.size	ff_memfree, .-ff_memfree
 190 0004 AFF30080 		.section	.bss.ff_sem,"aw",%nobits
 190      AFF30080 
 190      AFF30080 
 191              		.align	2
 192              		.set	.LANCHOR0,. + 0
 193              		.type	ff_sem, %object
 194              		.size	ff_sem, 12
 195              	ff_sem:
 196 0000 00000000 		.space	12
 196      00000000 
 196      00000000 
 197              		.text
 198              	.Letext0:
 199              		.file 2 "/opt/psas/x-tools/stm32f407/arm-psas-eabi/bin/../lib/gcc/arm-psas-eabi/4.7.2/include/stdd
 200              		.file 3 "/opt/psas/x-tools/stm32f407/arm-psas-eabi/bin/../lib/gcc/arm-psas-eabi/4.7.2/../../../../
 201              		.file 4 "../../os/ports/GCC/ARMCMx/chtypes.h"
 202              		.file 5 "../../os/kernel/include/chlists.h"
 203              		.file 6 "../../os/kernel/include/chthreads.h"
 204              		.file 7 "../../os/ports/GCC/ARMCMx/chcore_v7m.h"
 205              		.file 8 "../../os/kernel/include/chsem.h"
 206              		.file 9 "../../os/kernel/include/chmtx.h"
 207              		.file 10 "../../os/kernel/include/chmemcore.h"
 208              		.file 11 "../../os/kernel/include/chheap.h"
 209              		.file 12 "../../ext/fatfs/src/integer.h"