ARM GAS  /tmp/ccpqRukc.s 			page 1


   1              		.syntax unified
   2              		.cpu cortex-m4
   3              		.eabi_attribute 27, 3
   4              		.eabi_attribute 28, 1
   5              		.fpu fpv4-sp-d16
   6              		.eabi_attribute 20, 1
   7              		.eabi_attribute 21, 1
   8              		.eabi_attribute 23, 3
   9              		.eabi_attribute 24, 1
  10              		.eabi_attribute 25, 1
  11              		.eabi_attribute 26, 1
  12              		.eabi_attribute 30, 2
  13              		.eabi_attribute 34, 1
  14              		.eabi_attribute 18, 4
  15              		.thumb
  16              		.file	"fatfs_diskio.c"
  17              		.text
  18              	.Ltext0:
  19              		.cfi_sections	.debug_frame
  20              		.section	.text.disk_initialize,"ax",%progbits
  21              		.align	2
  22              		.p2align 4,,15
  23              		.global	disk_initialize
  24              		.thumb
  25              		.thumb_func
  26              		.type	disk_initialize, %function
  27              	disk_initialize:
  28              	.LFB118:
  29              		.file 1 "../../os/various/fatfs_bindings/fatfs_diskio.c"
  30              		.loc 1 44 0
  31              		.cfi_startproc
  32              		@ args = 0, pretend = 0, frame = 0
  33              		@ frame_needed = 0, uses_anonymous_args = 0
  34              	.LVL0:
  35 0000 10B5     		push	{r4, lr}
  36              	.LCFI0:
  37              		.cfi_def_cfa_offset 8
  38              		.cfi_offset 4, -8
  39              		.cfi_offset 14, -4
  40              		.loc 1 68 0
  41 0002 0224     		movs	r4, #2
  42              		.loc 1 47 0
  43 0004 50B9     		cbnz	r0, .L2
  44              	.LVL1:
  45              		.loc 1 61 0
  46 0006 0648     		ldr	r0, .L10
  47              	.LVL2:
  48 0008 0479     		ldrb	r4, [r0, #4]	@ zero_extendqisi2
  49              		.loc 1 59 0
  50 000a 053C     		subs	r4, r4, #5
  51 000c 18BF     		it	ne
  52 000e 0124     		movne	r4, #1
  53              	.LVL3:
  54              		.loc 1 63 0
  55 0010 FFF7FEFF 		bl	sdc_lld_is_write_protected
  56              	.LVL4:
  57 0014 10B1     		cbz	r0, .L2
ARM GAS  /tmp/ccpqRukc.s 			page 2


  58              		.loc 1 64 0
  59 0016 44F00404 		orr	r4, r4, #4
  60 001a E4B2     		uxtb	r4, r4
  61              	.LVL5:
  62              	.L2:
  63              		.loc 1 69 0
  64 001c 2046     		mov	r0, r4
  65 001e 10BD     		pop	{r4, pc}
  66              	.L11:
  67              		.align	2
  68              	.L10:
  69 0020 00000000 		.word	SDCD1
  70              		.cfi_endproc
  71              	.LFE118:
  72              		.size	disk_initialize, .-disk_initialize
  73 0024 AFF30080 		.section	.text.disk_status,"ax",%progbits
  73      AFF30080 
  73      AFF30080 
  74              		.align	2
  75              		.p2align 4,,15
  76              		.global	disk_status
  77              		.thumb
  78              		.thumb_func
  79              		.type	disk_status, %function
  80              	disk_status:
  81              	.LFB119:
  82              		.loc 1 79 0
  83              		.cfi_startproc
  84              		@ args = 0, pretend = 0, frame = 0
  85              		@ frame_needed = 0, uses_anonymous_args = 0
  86              	.LVL6:
  87 0000 10B5     		push	{r4, lr}
  88              	.LCFI1:
  89              		.cfi_def_cfa_offset 8
  90              		.cfi_offset 4, -8
  91              		.cfi_offset 14, -4
  92              		.loc 1 103 0
  93 0002 0224     		movs	r4, #2
  94              		.loc 1 82 0
  95 0004 50B9     		cbnz	r0, .L13
  96              	.LVL7:
  97              		.loc 1 96 0
  98 0006 0648     		ldr	r0, .L20
  99              	.LVL8:
 100 0008 0479     		ldrb	r4, [r0, #4]	@ zero_extendqisi2
 101              		.loc 1 94 0
 102 000a 053C     		subs	r4, r4, #5
 103 000c 18BF     		it	ne
 104 000e 0124     		movne	r4, #1
 105              	.LVL9:
 106              		.loc 1 98 0
 107 0010 FFF7FEFF 		bl	sdc_lld_is_write_protected
 108              	.LVL10:
 109 0014 10B1     		cbz	r0, .L13
 110              		.loc 1 99 0
 111 0016 44F00404 		orr	r4, r4, #4
 112 001a E4B2     		uxtb	r4, r4
ARM GAS  /tmp/ccpqRukc.s 			page 3


 113              	.LVL11:
 114              	.L13:
 115              		.loc 1 104 0
 116 001c 2046     		mov	r0, r4
 117 001e 10BD     		pop	{r4, pc}
 118              	.L21:
 119              		.align	2
 120              	.L20:
 121 0020 00000000 		.word	SDCD1
 122              		.cfi_endproc
 123              	.LFE119:
 124              		.size	disk_status, .-disk_status
 125 0024 AFF30080 		.section	.text.disk_read,"ax",%progbits
 125      AFF30080 
 125      AFF30080 
 126              		.align	2
 127              		.p2align 4,,15
 128              		.global	disk_read
 129              		.thumb
 130              		.thumb_func
 131              		.type	disk_read, %function
 132              	disk_read:
 133              	.LFB120:
 134              		.loc 1 117 0
 135              		.cfi_startproc
 136              		@ args = 0, pretend = 0, frame = 0
 137              		@ frame_needed = 0, uses_anonymous_args = 0
 138              	.LVL12:
 139 0000 10B5     		push	{r4, lr}
 140              	.LCFI2:
 141              		.cfi_def_cfa_offset 8
 142              		.cfi_offset 4, -8
 143              		.cfi_offset 14, -4
 144              		.loc 1 117 0
 145 0002 0C46     		mov	r4, r1
 146              		.loc 1 118 0
 147 0004 28B9     		cbnz	r0, .L27
 148              		.loc 1 136 0
 149 0006 0848     		ldr	r0, .L29
 150              	.LVL13:
 151 0008 0179     		ldrb	r1, [r0, #4]	@ zero_extendqisi2
 152              	.LVL14:
 153 000a 0529     		cmp	r1, #5
 154 000c 03D0     		beq	.L28
 155              		.loc 1 137 0
 156 000e 0320     		movs	r0, #3
 157              		.loc 1 144 0
 158 0010 10BD     		pop	{r4, pc}
 159              	.LVL15:
 160              	.L27:
 161              		.loc 1 143 0
 162 0012 0420     		movs	r0, #4
 163              	.LVL16:
 164 0014 10BD     		pop	{r4, pc}
 165              	.LVL17:
 166              	.L28:
 167              		.loc 1 138 0
ARM GAS  /tmp/ccpqRukc.s 			page 4


 168 0016 1146     		mov	r1, r2
 169 0018 2246     		mov	r2, r4
 170              	.LVL18:
 171 001a FFF7FEFF 		bl	sdcRead
 172              	.LVL19:
 173              		.loc 1 137 0
 174 001e 0030     		adds	r0, r0, #0
 175 0020 18BF     		it	ne
 176 0022 0120     		movne	r0, #1
 177 0024 10BD     		pop	{r4, pc}
 178              	.L30:
 179 0026 00BF     		.align	2
 180              	.L29:
 181 0028 00000000 		.word	SDCD1
 182              		.cfi_endproc
 183              	.LFE120:
 184              		.size	disk_read, .-disk_read
 185 002c AFF30080 		.section	.text.disk_write,"ax",%progbits
 186              		.align	2
 187              		.p2align 4,,15
 188              		.global	disk_write
 189              		.thumb
 190              		.thumb_func
 191              		.type	disk_write, %function
 192              	disk_write:
 193              	.LFB121:
 194              		.loc 1 158 0
 195              		.cfi_startproc
 196              		@ args = 0, pretend = 0, frame = 0
 197              		@ frame_needed = 0, uses_anonymous_args = 0
 198              	.LVL20:
 199 0000 10B5     		push	{r4, lr}
 200              	.LCFI3:
 201              		.cfi_def_cfa_offset 8
 202              		.cfi_offset 4, -8
 203              		.cfi_offset 14, -4
 204              		.loc 1 158 0
 205 0002 0C46     		mov	r4, r1
 206              		.loc 1 159 0
 207 0004 28B9     		cbnz	r0, .L36
 208              		.loc 1 179 0
 209 0006 0848     		ldr	r0, .L38
 210              	.LVL21:
 211 0008 0179     		ldrb	r1, [r0, #4]	@ zero_extendqisi2
 212              	.LVL22:
 213 000a 0529     		cmp	r1, #5
 214 000c 03D0     		beq	.L37
 215              		.loc 1 180 0
 216 000e 0320     		movs	r0, #3
 217              		.loc 1 187 0
 218 0010 10BD     		pop	{r4, pc}
 219              	.LVL23:
 220              	.L36:
 221              		.loc 1 186 0
 222 0012 0420     		movs	r0, #4
 223              	.LVL24:
 224 0014 10BD     		pop	{r4, pc}
ARM GAS  /tmp/ccpqRukc.s 			page 5


 225              	.LVL25:
 226              	.L37:
 227              		.loc 1 181 0
 228 0016 1146     		mov	r1, r2
 229 0018 2246     		mov	r2, r4
 230              	.LVL26:
 231 001a FFF7FEFF 		bl	sdcWrite
 232              	.LVL27:
 233              		.loc 1 180 0
 234 001e 0030     		adds	r0, r0, #0
 235 0020 18BF     		it	ne
 236 0022 0120     		movne	r0, #1
 237 0024 10BD     		pop	{r4, pc}
 238              	.L39:
 239 0026 00BF     		.align	2
 240              	.L38:
 241 0028 00000000 		.word	SDCD1
 242              		.cfi_endproc
 243              	.LFE121:
 244              		.size	disk_write, .-disk_write
 245 002c AFF30080 		.section	.text.disk_ioctl,"ax",%progbits
 246              		.align	2
 247              		.p2align 4,,15
 248              		.global	disk_ioctl
 249              		.thumb
 250              		.thumb_func
 251              		.type	disk_ioctl, %function
 252              	disk_ioctl:
 253              	.LFB122:
 254              		.loc 1 200 0
 255              		.cfi_startproc
 256              		@ args = 0, pretend = 0, frame = 0
 257              		@ frame_needed = 0, uses_anonymous_args = 0
 258              		@ link register save eliminated.
 259              	.LVL28:
 260              		.loc 1 201 0
 261 0000 28B9     		cbnz	r0, .L49
 262              		.loc 1 220 0
 263 0002 0329     		cmp	r1, #3
 264 0004 03D8     		bhi	.L49
 265 0006 DFE801F0 		tbb	[pc, r1]
 266              	.L47:
 267 000a 07       		.byte	(.L51-.L47)/2
 268 000b 09       		.byte	(.L44-.L47)/2
 269 000c 0E       		.byte	(.L45-.L47)/2
 270 000d 04       		.byte	(.L46-.L47)/2
 271              		.align	1
 272              	.L49:
 273              		.loc 1 238 0
 274 000e 0420     		movs	r0, #4
 275              	.LVL29:
 276              		.loc 1 243 0
 277 0010 7047     		bx	lr
 278              	.LVL30:
 279              	.L46:
 280              		.loc 1 230 0
 281 0012 4FF48073 		mov	r3, #256
ARM GAS  /tmp/ccpqRukc.s 			page 6


 282 0016 1360     		str	r3, [r2, #0]
 283              	.L51:
 284              		.loc 1 231 0
 285 0018 0020     		movs	r0, #0
 286              	.LVL31:
 287 001a 7047     		bx	lr
 288              	.LVL32:
 289              	.L44:
 290              		.loc 1 224 0
 291 001c 044B     		ldr	r3, .L52
 292 001e 9B6A     		ldr	r3, [r3, #40]
 293              		.loc 1 225 0
 294 0020 0020     		movs	r0, #0
 295              	.LVL33:
 296              		.loc 1 224 0
 297 0022 1360     		str	r3, [r2, #0]
 298              		.loc 1 225 0
 299 0024 7047     		bx	lr
 300              	.LVL34:
 301              	.L45:
 302              		.loc 1 227 0
 303 0026 4FF40073 		mov	r3, #512
 304 002a 1380     		strh	r3, [r2, #0]	@ movhi
 305              		.loc 1 228 0
 306 002c 0020     		movs	r0, #0
 307              	.LVL35:
 308 002e 7047     		bx	lr
 309              	.L53:
 310              		.align	2
 311              	.L52:
 312 0030 00000000 		.word	SDCD1
 313              		.cfi_endproc
 314              	.LFE122:
 315              		.size	disk_ioctl, .-disk_ioctl
 316 0034 AFF30080 		.section	.text.get_fattime,"ax",%progbits
 316      AFF30080 
 316      AFF30080 
 317              		.align	2
 318              		.p2align 4,,15
 319              		.global	get_fattime
 320              		.thumb
 321              		.thumb_func
 322              		.type	get_fattime, %function
 323              	get_fattime:
 324              	.LFB123:
 325              		.loc 1 245 0
 326              		.cfi_startproc
 327              		@ args = 0, pretend = 0, frame = 0
 328              		@ frame_needed = 0, uses_anonymous_args = 0
 329              		@ link register save eliminated.
 330              		.loc 1 251 0
 331 0000 4FF40410 		mov	r0, #2162688
 332 0004 7047     		bx	lr
 333              		.cfi_endproc
 334              	.LFE123:
 335              		.size	get_fattime, .-get_fattime
 336 0006 00BFAFF3 		.text
ARM GAS  /tmp/ccpqRukc.s 			page 7


 336      0080AFF3 
 336      0080
 337              	.Letext0:
 338              		.file 2 "/opt/psas/x-tools/stm32f407/arm-psas-eabi/bin/../lib/gcc/arm-psas-eabi/4.7.2/../../../../
 339              		.file 3 "../../os/ports/GCC/ARMCMx/chtypes.h"
 340              		.file 4 "../../os/kernel/include/chlists.h"
 341              		.file 5 "../../os/kernel/include/chthreads.h"
 342              		.file 6 "../../os/ports/GCC/ARMCMx/chcore_v7m.h"
 343              		.file 7 "../../os/kernel/include/chmtx.h"
 344              		.file 8 "../../os/hal/platforms/STM32F4xx/stm32f4xx.h"
 345              		.file 9 "../../os/hal/platforms/STM32F4xx/stm32_dma.h"
 346              		.file 10 "../../os/hal/include/io_block.h"
 347              		.file 11 "../../os/hal/platforms/STM32/sdc_lld.h"
 348              		.file 12 "../../ext/fatfs/src/integer.h"
 349              		.file 13 "../../ext/fatfs/src/diskio.h"
 350              		.file 14 "../../os/ports/common/ARMCMx/CMSIS/include/core_cm4.h"
 351              		.file 15 "../../os/hal/include/sdc.h"