ARM GAS  /tmp/ccx0Simk.s 			page 1


   1              		.syntax unified
   2              		.cpu cortex-m4
   3              		.eabi_attribute 27, 3
   4              		.eabi_attribute 28, 1
   5              		.fpu fpv4-sp-d16
   6              		.eabi_attribute 20, 1
   7              		.eabi_attribute 21, 1
   8              		.eabi_attribute 23, 3
   9              		.eabi_attribute 24, 1
  10              		.eabi_attribute 25, 1
  11              		.eabi_attribute 26, 1
  12              		.eabi_attribute 30, 2
  13              		.eabi_attribute 34, 1
  14              		.eabi_attribute 18, 4
  15              		.thumb
  16              		.file	"fatfs_syscall.c"
  17              		.text
  18              	.Ltext0:
  19              		.cfi_sections	.debug_frame
  20              		.section	.text.ff_cre_syncobj,"ax",%progbits
  21              		.align	2
  22              		.p2align 4,,15
  23              		.global	ff_cre_syncobj
  24              		.thumb
  25              		.thumb_func
  26              		.type	ff_cre_syncobj, %function
  27              	ff_cre_syncobj:
  28              	.LFB7:
  29              		.file 1 "../../os/various/fatfs_bindings/fatfs_syscall.c"
  30              		.loc 1 38 0
  31              		.cfi_startproc
  32              		@ args = 0, pretend = 0, frame = 0
  33              		@ frame_needed = 0, uses_anonymous_args = 0
  34              	.LVL0:
  35 0000 08B5     		push	{r3, lr}
  36              	.LCFI0:
  37              		.cfi_def_cfa_offset 8
  38              		.cfi_offset 3, -8
  39              		.cfi_offset 14, -4
  40              		.loc 1 40 0
  41 0002 40F20003 		movw	r3, #:lower16:.LANCHOR0
  42 0006 C0F20003 		movt	r3, #:upper16:.LANCHOR0
  43 000a 00EB4000 		add	r0, r0, r0, lsl #1
  44              	.LVL1:
  45 000e 03EB8000 		add	r0, r3, r0, lsl #2
  46 0012 0860     		str	r0, [r1, #0]
  47              		.loc 1 41 0
  48 0014 0121     		movs	r1, #1
  49              	.LVL2:
  50 0016 FFF7FEFF 		bl	chSemInit
  51              	.LVL3:
  52              		.loc 1 43 0
  53 001a 0120     		movs	r0, #1
  54 001c 08BD     		pop	{r3, pc}
  55              		.cfi_endproc
  56              	.LFE7:
  57              		.size	ff_cre_syncobj, .-ff_cre_syncobj
ARM GAS  /tmp/ccx0Simk.s 			page 2


  58 001e 00BF     		.section	.text.ff_del_syncobj,"ax",%progbits
  59              		.align	2
  60              		.p2align 4,,15
  61              		.global	ff_del_syncobj
  62              		.thumb
  63              		.thumb_func
  64              		.type	ff_del_syncobj, %function
  65              	ff_del_syncobj:
  66              	.LFB8:
  67              		.loc 1 48 0
  68              		.cfi_startproc
  69              		@ args = 0, pretend = 0, frame = 0
  70              		@ frame_needed = 0, uses_anonymous_args = 0
  71              	.LVL4:
  72 0000 08B5     		push	{r3, lr}
  73              	.LCFI1:
  74              		.cfi_def_cfa_offset 8
  75              		.cfi_offset 3, -8
  76              		.cfi_offset 14, -4
  77              		.loc 1 50 0
  78 0002 0021     		movs	r1, #0
  79 0004 FFF7FEFF 		bl	chSemReset
  80              	.LVL5:
  81              		.loc 1 52 0
  82 0008 0120     		movs	r0, #1
  83 000a 08BD     		pop	{r3, pc}
  84              		.cfi_endproc
  85              	.LFE8:
  86              		.size	ff_del_syncobj, .-ff_del_syncobj
  87 000c AFF30080 		.section	.text.ff_req_grant,"ax",%progbits
  88              		.align	2
  89              		.p2align 4,,15
  90              		.global	ff_req_grant
  91              		.thumb
  92              		.thumb_func
  93              		.type	ff_req_grant, %function
  94              	ff_req_grant:
  95              	.LFB9:
  96              		.loc 1 57 0
  97              		.cfi_startproc
  98              		@ args = 0, pretend = 0, frame = 0
  99              		@ frame_needed = 0, uses_anonymous_args = 0
 100              	.LVL6:
 101 0000 08B5     		push	{r3, lr}
 102              	.LCFI2:
 103              		.cfi_def_cfa_offset 8
 104              		.cfi_offset 3, -8
 105              		.cfi_offset 14, -4
 106              		.loc 1 59 0
 107 0002 4FF47A71 		mov	r1, #1000
 108 0006 FFF7FEFF 		bl	chSemWaitTimeout
 109              	.LVL7:
 110              		.loc 1 61 0
 111 000a D0F10100 		rsbs	r0, r0, #1
 112              	.LVL8:
 113 000e 38BF     		it	cc
 114 0010 0020     		movcc	r0, #0
ARM GAS  /tmp/ccx0Simk.s 			page 3


 115 0012 08BD     		pop	{r3, pc}
 116              		.cfi_endproc
 117              	.LFE9:
 118              		.size	ff_req_grant, .-ff_req_grant
 119 0014 AFF30080 		.section	.text.ff_rel_grant,"ax",%progbits
 119      AFF30080 
 119      AFF30080 
 120              		.align	2
 121              		.p2align 4,,15
 122              		.global	ff_rel_grant
 123              		.thumb
 124              		.thumb_func
 125              		.type	ff_rel_grant, %function
 126              	ff_rel_grant:
 127              	.LFB10:
 128              		.loc 1 66 0
 129              		.cfi_startproc
 130              		@ args = 0, pretend = 0, frame = 0
 131              		@ frame_needed = 0, uses_anonymous_args = 0
 132              		@ link register save eliminated.
 133              	.LVL9:
 134              		.loc 1 69 0
 135              		.loc 1 68 0
 136 0000 FFF7FEBF 		b	chSemSignal
 137              	.LVL10:
 138              		.cfi_endproc
 139              	.LFE10:
 140              		.size	ff_rel_grant, .-ff_rel_grant
 141 0004 AFF30080 		.section	.text.ff_memalloc,"ax",%progbits
 141      AFF30080 
 141      AFF30080 
 142              		.align	2
 143              		.p2align 4,,15
 144              		.global	ff_memalloc
 145              		.thumb
 146              		.thumb_func
 147              		.type	ff_memalloc, %function
 148              	ff_memalloc:
 149              	.LFB11:
 150              		.loc 1 76 0
 151              		.cfi_startproc
 152              		@ args = 0, pretend = 0, frame = 0
 153              		@ frame_needed = 0, uses_anonymous_args = 0
 154              		@ link register save eliminated.
 155              	.LVL11:
 156              		.loc 1 76 0
 157 0000 0146     		mov	r1, r0
 158              		.loc 1 78 0
 159 0002 0020     		movs	r0, #0
 160              	.LVL12:
 161              		.loc 1 79 0
 162              		.loc 1 78 0
 163 0004 FFF7FEBF 		b	chHeapAlloc
 164              	.LVL13:
 165              		.cfi_endproc
 166              	.LFE11:
 167              		.size	ff_memalloc, .-ff_memalloc
ARM GAS  /tmp/ccx0Simk.s 			page 4


 168 0008 AFF30080 		.section	.text.ff_memfree,"ax",%progbits
 168      AFF30080 
 169              		.align	2
 170              		.p2align 4,,15
 171              		.global	ff_memfree
 172              		.thumb
 173              		.thumb_func
 174              		.type	ff_memfree, %function
 175              	ff_memfree:
 176              	.LFB12:
 177              		.loc 1 84 0
 178              		.cfi_startproc
 179              		@ args = 0, pretend = 0, frame = 0
 180              		@ frame_needed = 0, uses_anonymous_args = 0
 181              		@ link register save eliminated.
 182              	.LVL14:
 183              		.loc 1 87 0
 184              		.loc 1 86 0
 185 0000 FFF7FEBF 		b	chHeapFree
 186              	.LVL15:
 187              		.cfi_endproc
 188              	.LFE12:
 189              		.size	ff_memfree, .-ff_memfree
 190 0004 AFF30080 		.section	.bss.ff_sem,"aw",%nobits
 190      AFF30080 
 190      AFF30080 
 191              		.align	2
 192              		.set	.LANCHOR0,. + 0
 193              		.type	ff_sem, %object
 194              		.size	ff_sem, 12
 195              	ff_sem:
 196 0000 00000000 		.space	12
 196      00000000 
 196      00000000 
 197              		.text
 198              	.Letext0:
 199              		.file 2 "/opt/psas/x-tools/stm32f407/arm-psas-eabi/bin/../lib/gcc/arm-psas-eabi/4.7.2/include/stdd
 200              		.file 3 "/opt/psas/x-tools/stm32f407/arm-psas-eabi/bin/../lib/gcc/arm-psas-eabi/4.7.2/../../../../
 201              		.file 4 "../../os/ports/GCC/ARMCMx/chtypes.h"
 202              		.file 5 "../../os/kernel/include/chlists.h"
 203              		.file 6 "../../os/kernel/include/chthreads.h"
 204              		.file 7 "../../os/ports/GCC/ARMCMx/chcore_v7m.h"
 205              		.file 8 "../../os/kernel/include/chsem.h"
 206              		.file 9 "../../os/kernel/include/chmtx.h"
 207              		.file 10 "../../os/kernel/include/chmemcore.h"
 208              		.file 11 "../../os/kernel/include/chheap.h"
 209              		.file 12 "../../ext/fatfs/src/integer.h"
 210              		.section	.debug_info,"",%progbits
 211              	.Ldebug_info0:
 212 0000 70070000 		.4byte	0x770
 213 0004 0200     		.2byte	0x2
 214 0006 00000000 		.4byte	.Ldebug_abbrev0
 215 000a 04       		.byte	0x4
 216 000b 01       		.uleb128 0x1
 217 000c 65020000 		.4byte	.LASF88
 218 0010 01       		.byte	0x1
 219 0011 92000000 		.4byte	.LASF89
ARM GAS  /tmp/ccx0Simk.s 			page 5


 220 0015 D1010000 		.4byte	.LASF90
 221 0019 00000000 		.4byte	.Ldebug_ranges0+0
 222 001d 00000000 		.4byte	0
 223 0021 00000000 		.4byte	0
 224 0025 00000000 		.4byte	.Ldebug_line0
 225 0029 02       		.uleb128 0x2
 226 002a 04       		.byte	0x4
 227 002b 05       		.byte	0x5
 228 002c 696E7400 		.ascii	"int\000"
 229 0030 03       		.uleb128 0x3
 230 0031 06000000 		.4byte	.LASF2
 231 0035 02       		.byte	0x2
 232 0036 D5       		.byte	0xd5
 233 0037 3B000000 		.4byte	0x3b
 234 003b 04       		.uleb128 0x4
 235 003c 04       		.byte	0x4
 236 003d 07       		.byte	0x7
 237 003e 3A010000 		.4byte	.LASF0
 238 0042 04       		.uleb128 0x4
 239 0043 01       		.byte	0x1
 240 0044 06       		.byte	0x6
 241 0045 6B000000 		.4byte	.LASF1
 242 0049 03       		.uleb128 0x3
 243 004a 80030000 		.4byte	.LASF3
 244 004e 03       		.byte	0x3
 245 004f 2A       		.byte	0x2a
 246 0050 54000000 		.4byte	0x54
 247 0054 04       		.uleb128 0x4
 248 0055 01       		.byte	0x1
 249 0056 08       		.byte	0x8
 250 0057 9B020000 		.4byte	.LASF4
 251 005b 04       		.uleb128 0x4
 252 005c 02       		.byte	0x2
 253 005d 05       		.byte	0x5
 254 005e BE020000 		.4byte	.LASF5
 255 0062 04       		.uleb128 0x4
 256 0063 02       		.byte	0x2
 257 0064 07       		.byte	0x7
 258 0065 8D010000 		.4byte	.LASF6
 259 0069 03       		.uleb128 0x3
 260 006a 93020000 		.4byte	.LASF7
 261 006e 03       		.byte	0x3
 262 006f 4F       		.byte	0x4f
 263 0070 74000000 		.4byte	0x74
 264 0074 04       		.uleb128 0x4
 265 0075 04       		.byte	0x4
 266 0076 05       		.byte	0x5
 267 0077 E3000000 		.4byte	.LASF8
 268 007b 03       		.uleb128 0x3
 269 007c 27030000 		.4byte	.LASF9
 270 0080 03       		.byte	0x3
 271 0081 50       		.byte	0x50
 272 0082 86000000 		.4byte	0x86
 273 0086 04       		.uleb128 0x4
 274 0087 04       		.byte	0x4
 275 0088 07       		.byte	0x7
 276 0089 68010000 		.4byte	.LASF10
ARM GAS  /tmp/ccx0Simk.s 			page 6


 277 008d 04       		.uleb128 0x4
 278 008e 08       		.byte	0x8
 279 008f 05       		.byte	0x5
 280 0090 5D000000 		.4byte	.LASF11
 281 0094 03       		.uleb128 0x3
 282 0095 14000000 		.4byte	.LASF12
 283 0099 03       		.byte	0x3
 284 009a 78       		.byte	0x78
 285 009b 9F000000 		.4byte	0x9f
 286 009f 04       		.uleb128 0x4
 287 00a0 08       		.byte	0x8
 288 00a1 07       		.byte	0x7
 289 00a2 2A000000 		.4byte	.LASF13
 290 00a6 03       		.uleb128 0x3
 291 00a7 B1010000 		.4byte	.LASF14
 292 00ab 04       		.byte	0x4
 293 00ac 28       		.byte	0x28
 294 00ad 49000000 		.4byte	0x49
 295 00b1 03       		.uleb128 0x3
 296 00b2 FB000000 		.4byte	.LASF15
 297 00b6 04       		.byte	0x4
 298 00b7 29       		.byte	0x29
 299 00b8 49000000 		.4byte	0x49
 300 00bc 03       		.uleb128 0x3
 301 00bd 7C020000 		.4byte	.LASF16
 302 00c1 04       		.byte	0x4
 303 00c2 2A       		.byte	0x2a
 304 00c3 49000000 		.4byte	0x49
 305 00c7 03       		.uleb128 0x3
 306 00c8 D9000000 		.4byte	.LASF17
 307 00cc 04       		.byte	0x4
 308 00cd 2B       		.byte	0x2b
 309 00ce 49000000 		.4byte	0x49
 310 00d2 03       		.uleb128 0x3
 311 00d3 8B020000 		.4byte	.LASF18
 312 00d7 04       		.byte	0x4
 313 00d8 2C       		.byte	0x2c
 314 00d9 7B000000 		.4byte	0x7b
 315 00dd 03       		.uleb128 0x3
 316 00de AB010000 		.4byte	.LASF19
 317 00e2 04       		.byte	0x4
 318 00e3 2D       		.byte	0x2d
 319 00e4 69000000 		.4byte	0x69
 320 00e8 03       		.uleb128 0x3
 321 00e9 C5010000 		.4byte	.LASF20
 322 00ed 04       		.byte	0x4
 323 00ee 2F       		.byte	0x2f
 324 00ef 7B000000 		.4byte	0x7b
 325 00f3 03       		.uleb128 0x3
 326 00f4 41030000 		.4byte	.LASF21
 327 00f8 04       		.byte	0x4
 328 00f9 31       		.byte	0x31
 329 00fa 7B000000 		.4byte	0x7b
 330 00fe 03       		.uleb128 0x3
 331 00ff 34010000 		.4byte	.LASF22
 332 0103 04       		.byte	0x4
 333 0104 32       		.byte	0x32
ARM GAS  /tmp/ccx0Simk.s 			page 7


 334 0105 69000000 		.4byte	0x69
 335 0109 03       		.uleb128 0x3
 336 010a 09030000 		.4byte	.LASF23
 337 010e 05       		.byte	0x5
 338 010f 23       		.byte	0x23
 339 0110 14010000 		.4byte	0x114
 340 0114 05       		.uleb128 0x5
 341 0115 09030000 		.4byte	.LASF23
 342 0119 48       		.byte	0x48
 343 011a 06       		.byte	0x6
 344 011b 57       		.byte	0x57
 345 011c 39020000 		.4byte	0x239
 346 0120 06       		.uleb128 0x6
 347 0121 FA020000 		.4byte	.LASF24
 348 0125 06       		.byte	0x6
 349 0126 58       		.byte	0x58
 350 0127 5E020000 		.4byte	0x25e
 351 012b 02       		.byte	0x2
 352 012c 23       		.byte	0x23
 353 012d 00       		.uleb128 0
 354 012e 06       		.uleb128 0x6
 355 012f 84020000 		.4byte	.LASF25
 356 0133 06       		.byte	0x6
 357 0134 5A       		.byte	0x5a
 358 0135 5E020000 		.4byte	0x25e
 359 0139 02       		.byte	0x2
 360 013a 23       		.byte	0x23
 361 013b 04       		.uleb128 0x4
 362 013c 06       		.uleb128 0x6
 363 013d 56000000 		.4byte	.LASF26
 364 0141 06       		.byte	0x6
 365 0142 5C       		.byte	0x5c
 366 0143 D2000000 		.4byte	0xd2
 367 0147 02       		.byte	0x2
 368 0148 23       		.byte	0x23
 369 0149 08       		.uleb128 0x8
 370 014a 06       		.uleb128 0x6
 371 014b AD030000 		.4byte	.LASF27
 372 014f 06       		.byte	0x6
 373 0150 5D       		.byte	0x5d
 374 0151 37030000 		.4byte	0x337
 375 0155 02       		.byte	0x2
 376 0156 23       		.byte	0x23
 377 0157 0C       		.uleb128 0xc
 378 0158 06       		.uleb128 0x6
 379 0159 10010000 		.4byte	.LASF28
 380 015d 06       		.byte	0x6
 381 015e 5F       		.byte	0x5f
 382 015f 5E020000 		.4byte	0x25e
 383 0163 02       		.byte	0x2
 384 0164 23       		.byte	0x23
 385 0165 10       		.uleb128 0x10
 386 0166 06       		.uleb128 0x6
 387 0167 3C020000 		.4byte	.LASF29
 388 016b 06       		.byte	0x6
 389 016c 60       		.byte	0x60
 390 016d 5E020000 		.4byte	0x25e
ARM GAS  /tmp/ccx0Simk.s 			page 8


 391 0171 02       		.byte	0x2
 392 0172 23       		.byte	0x23
 393 0173 14       		.uleb128 0x14
 394 0174 06       		.uleb128 0x6
 395 0175 8F030000 		.4byte	.LASF30
 396 0179 06       		.byte	0x6
 397 017a 67       		.byte	0x67
 398 017b E9040000 		.4byte	0x4e9
 399 017f 02       		.byte	0x2
 400 0180 23       		.byte	0x23
 401 0181 18       		.uleb128 0x18
 402 0182 06       		.uleb128 0x6
 403 0183 C8020000 		.4byte	.LASF31
 404 0187 06       		.byte	0x6
 405 0188 72       		.byte	0x72
 406 0189 B1000000 		.4byte	0xb1
 407 018d 02       		.byte	0x2
 408 018e 23       		.byte	0x23
 409 018f 1C       		.uleb128 0x1c
 410 0190 06       		.uleb128 0x6
 411 0191 01030000 		.4byte	.LASF32
 412 0195 06       		.byte	0x6
 413 0196 76       		.byte	0x76
 414 0197 A6000000 		.4byte	0xa6
 415 019b 02       		.byte	0x2
 416 019c 23       		.byte	0x23
 417 019d 1D       		.uleb128 0x1d
 418 019e 06       		.uleb128 0x6
 419 019f 79030000 		.4byte	.LASF33
 420 01a3 06       		.byte	0x6
 421 01a4 7B       		.byte	0x7b
 422 01a5 BC000000 		.4byte	0xbc
 423 01a9 02       		.byte	0x2
 424 01aa 23       		.byte	0x23
 425 01ab 1E       		.uleb128 0x1e
 426 01ac 06       		.uleb128 0x6
 427 01ad D0020000 		.4byte	.LASF34
 428 01b1 06       		.byte	0x6
 429 01b2 81       		.byte	0x81
 430 01b3 C7000000 		.4byte	0xc7
 431 01b7 02       		.byte	0x2
 432 01b8 23       		.byte	0x23
 433 01b9 1F       		.uleb128 0x1f
 434 01ba 06       		.uleb128 0x6
 435 01bb 56030000 		.4byte	.LASF35
 436 01bf 06       		.byte	0x6
 437 01c0 88       		.byte	0x88
 438 01c1 61030000 		.4byte	0x361
 439 01c5 02       		.byte	0x2
 440 01c6 23       		.byte	0x23
 441 01c7 20       		.uleb128 0x20
 442 01c8 07       		.uleb128 0x7
 443 01c9 705F7500 		.ascii	"p_u\000"
 444 01cd 06       		.byte	0x6
 445 01ce AD       		.byte	0xad
 446 01cf B4040000 		.4byte	0x4b4
 447 01d3 02       		.byte	0x2
ARM GAS  /tmp/ccx0Simk.s 			page 9


 448 01d4 23       		.byte	0x23
 449 01d5 24       		.uleb128 0x24
 450 01d6 06       		.uleb128 0x6
 451 01d7 B3030000 		.4byte	.LASF36
 452 01db 06       		.byte	0x6
 453 01dc B2       		.byte	0xb2
 454 01dd 86020000 		.4byte	0x286
 455 01e1 02       		.byte	0x2
 456 01e2 23       		.byte	0x23
 457 01e3 28       		.uleb128 0x28
 458 01e4 06       		.uleb128 0x6
 459 01e5 64030000 		.4byte	.LASF37
 460 01e9 06       		.byte	0x6
 461 01ea B8       		.byte	0xb8
 462 01eb 64020000 		.4byte	0x264
 463 01ef 02       		.byte	0x2
 464 01f0 23       		.byte	0x23
 465 01f1 2C       		.uleb128 0x2c
 466 01f2 06       		.uleb128 0x6
 467 01f3 00000000 		.4byte	.LASF38
 468 01f7 06       		.byte	0x6
 469 01f8 BC       		.byte	0xbc
 470 01f9 DD000000 		.4byte	0xdd
 471 01fd 02       		.byte	0x2
 472 01fe 23       		.byte	0x23
 473 01ff 34       		.uleb128 0x34
 474 0200 06       		.uleb128 0x6
 475 0201 1C030000 		.4byte	.LASF39
 476 0205 06       		.byte	0x6
 477 0206 C2       		.byte	0xc2
 478 0207 E8000000 		.4byte	0xe8
 479 020b 02       		.byte	0x2
 480 020c 23       		.byte	0x23
 481 020d 38       		.uleb128 0x38
 482 020e 06       		.uleb128 0x6
 483 020f B4020000 		.4byte	.LASF40
 484 0213 06       		.byte	0x6
 485 0214 C9       		.byte	0xc9
 486 0215 FB040000 		.4byte	0x4fb
 487 0219 02       		.byte	0x2
 488 021a 23       		.byte	0x23
 489 021b 3C       		.uleb128 0x3c
 490 021c 06       		.uleb128 0x6
 491 021d 4B030000 		.4byte	.LASF41
 492 0221 06       		.byte	0x6
 493 0222 CD       		.byte	0xcd
 494 0223 D2000000 		.4byte	0xd2
 495 0227 02       		.byte	0x2
 496 0228 23       		.byte	0x23
 497 0229 40       		.uleb128 0x40
 498 022a 06       		.uleb128 0x6
 499 022b 82000000 		.4byte	.LASF42
 500 022f 06       		.byte	0x6
 501 0230 D3       		.byte	0xd3
 502 0231 9C020000 		.4byte	0x29c
 503 0235 02       		.byte	0x2
 504 0236 23       		.byte	0x23
ARM GAS  /tmp/ccx0Simk.s 			page 10


 505 0237 44       		.uleb128 0x44
 506 0238 00       		.byte	0
 507 0239 08       		.uleb128 0x8
 508 023a 08       		.byte	0x8
 509 023b 05       		.byte	0x5
 510 023c 5A       		.byte	0x5a
 511 023d 5E020000 		.4byte	0x25e
 512 0241 06       		.uleb128 0x6
 513 0242 FA020000 		.4byte	.LASF24
 514 0246 05       		.byte	0x5
 515 0247 5B       		.byte	0x5b
 516 0248 5E020000 		.4byte	0x25e
 517 024c 02       		.byte	0x2
 518 024d 23       		.byte	0x23
 519 024e 00       		.uleb128 0
 520 024f 06       		.uleb128 0x6
 521 0250 84020000 		.4byte	.LASF25
 522 0254 05       		.byte	0x5
 523 0255 5D       		.byte	0x5d
 524 0256 5E020000 		.4byte	0x25e
 525 025a 02       		.byte	0x2
 526 025b 23       		.byte	0x23
 527 025c 04       		.uleb128 0x4
 528 025d 00       		.byte	0
 529 025e 09       		.uleb128 0x9
 530 025f 04       		.byte	0x4
 531 0260 09010000 		.4byte	0x109
 532 0264 03       		.uleb128 0x3
 533 0265 44020000 		.4byte	.LASF43
 534 0269 05       		.byte	0x5
 535 026a 5F       		.byte	0x5f
 536 026b 39020000 		.4byte	0x239
 537 026f 08       		.uleb128 0x8
 538 0270 04       		.byte	0x4
 539 0271 05       		.byte	0x5
 540 0272 64       		.byte	0x64
 541 0273 86020000 		.4byte	0x286
 542 0277 06       		.uleb128 0x6
 543 0278 FA020000 		.4byte	.LASF24
 544 027c 05       		.byte	0x5
 545 027d 66       		.byte	0x66
 546 027e 5E020000 		.4byte	0x25e
 547 0282 02       		.byte	0x2
 548 0283 23       		.byte	0x23
 549 0284 00       		.uleb128 0
 550 0285 00       		.byte	0
 551 0286 03       		.uleb128 0x3
 552 0287 B9010000 		.4byte	.LASF44
 553 028b 05       		.byte	0x5
 554 028c 69       		.byte	0x69
 555 028d 6F020000 		.4byte	0x26f
 556 0291 03       		.uleb128 0x3
 557 0292 20010000 		.4byte	.LASF45
 558 0296 07       		.byte	0x7
 559 0297 DE       		.byte	0xde
 560 0298 9C020000 		.4byte	0x29c
 561 029c 0A       		.uleb128 0xa
ARM GAS  /tmp/ccx0Simk.s 			page 11


 562 029d 04       		.byte	0x4
 563 029e 03       		.uleb128 0x3
 564 029f 21020000 		.4byte	.LASF46
 565 02a3 07       		.byte	0x7
 566 02a4 E4       		.byte	0xe4
 567 02a5 94000000 		.4byte	0x94
 568 02a9 0B       		.uleb128 0xb
 569 02aa 5D030000 		.4byte	.LASF47
 570 02ae 24       		.byte	0x24
 571 02af 07       		.byte	0x7
 572 02b0 0501     		.2byte	0x105
 573 02b2 37030000 		.4byte	0x337
 574 02b6 0C       		.uleb128 0xc
 575 02b7 723400   		.ascii	"r4\000"
 576 02ba 07       		.byte	0x7
 577 02bb 1801     		.2byte	0x118
 578 02bd 91020000 		.4byte	0x291
 579 02c1 02       		.byte	0x2
 580 02c2 23       		.byte	0x23
 581 02c3 00       		.uleb128 0
 582 02c4 0C       		.uleb128 0xc
 583 02c5 723500   		.ascii	"r5\000"
 584 02c8 07       		.byte	0x7
 585 02c9 1901     		.2byte	0x119
 586 02cb 91020000 		.4byte	0x291
 587 02cf 02       		.byte	0x2
 588 02d0 23       		.byte	0x23
 589 02d1 04       		.uleb128 0x4
 590 02d2 0C       		.uleb128 0xc
 591 02d3 723600   		.ascii	"r6\000"
 592 02d6 07       		.byte	0x7
 593 02d7 1A01     		.2byte	0x11a
 594 02d9 91020000 		.4byte	0x291
 595 02dd 02       		.byte	0x2
 596 02de 23       		.byte	0x23
 597 02df 08       		.uleb128 0x8
 598 02e0 0C       		.uleb128 0xc
 599 02e1 723700   		.ascii	"r7\000"
 600 02e4 07       		.byte	0x7
 601 02e5 1B01     		.2byte	0x11b
 602 02e7 91020000 		.4byte	0x291
 603 02eb 02       		.byte	0x2
 604 02ec 23       		.byte	0x23
 605 02ed 0C       		.uleb128 0xc
 606 02ee 0C       		.uleb128 0xc
 607 02ef 723800   		.ascii	"r8\000"
 608 02f2 07       		.byte	0x7
 609 02f3 1C01     		.2byte	0x11c
 610 02f5 91020000 		.4byte	0x291
 611 02f9 02       		.byte	0x2
 612 02fa 23       		.byte	0x23
 613 02fb 10       		.uleb128 0x10
 614 02fc 0C       		.uleb128 0xc
 615 02fd 723900   		.ascii	"r9\000"
 616 0300 07       		.byte	0x7
 617 0301 1D01     		.2byte	0x11d
 618 0303 91020000 		.4byte	0x291
ARM GAS  /tmp/ccx0Simk.s 			page 12


 619 0307 02       		.byte	0x2
 620 0308 23       		.byte	0x23
 621 0309 14       		.uleb128 0x14
 622 030a 0C       		.uleb128 0xc
 623 030b 72313000 		.ascii	"r10\000"
 624 030f 07       		.byte	0x7
 625 0310 1E01     		.2byte	0x11e
 626 0312 91020000 		.4byte	0x291
 627 0316 02       		.byte	0x2
 628 0317 23       		.byte	0x23
 629 0318 18       		.uleb128 0x18
 630 0319 0C       		.uleb128 0xc
 631 031a 72313100 		.ascii	"r11\000"
 632 031e 07       		.byte	0x7
 633 031f 1F01     		.2byte	0x11f
 634 0321 91020000 		.4byte	0x291
 635 0325 02       		.byte	0x2
 636 0326 23       		.byte	0x23
 637 0327 1C       		.uleb128 0x1c
 638 0328 0C       		.uleb128 0xc
 639 0329 6C7200   		.ascii	"lr\000"
 640 032c 07       		.byte	0x7
 641 032d 2001     		.2byte	0x120
 642 032f 91020000 		.4byte	0x291
 643 0333 02       		.byte	0x2
 644 0334 23       		.byte	0x23
 645 0335 20       		.uleb128 0x20
 646 0336 00       		.byte	0
 647 0337 0B       		.uleb128 0xb
 648 0338 80010000 		.4byte	.LASF48
 649 033c 04       		.byte	0x4
 650 033d 07       		.byte	0x7
 651 033e 2A01     		.2byte	0x12a
 652 0340 54030000 		.4byte	0x354
 653 0344 0C       		.uleb128 0xc
 654 0345 72313300 		.ascii	"r13\000"
 655 0349 07       		.byte	0x7
 656 034a 2B01     		.2byte	0x12b
 657 034c 54030000 		.4byte	0x354
 658 0350 02       		.byte	0x2
 659 0351 23       		.byte	0x23
 660 0352 00       		.uleb128 0
 661 0353 00       		.byte	0
 662 0354 09       		.uleb128 0x9
 663 0355 04       		.byte	0x4
 664 0356 A9020000 		.4byte	0x2a9
 665 035a 04       		.uleb128 0x4
 666 035b 04       		.byte	0x4
 667 035c 07       		.byte	0x7
 668 035d 2C020000 		.4byte	.LASF49
 669 0361 0D       		.uleb128 0xd
 670 0362 F3000000 		.4byte	0xf3
 671 0366 05       		.uleb128 0x5
 672 0367 6F030000 		.4byte	.LASF50
 673 036b 0C       		.byte	0xc
 674 036c 08       		.byte	0x8
 675 036d 25       		.byte	0x25
ARM GAS  /tmp/ccx0Simk.s 			page 13


 676 036e 8F030000 		.4byte	0x38f
 677 0372 06       		.uleb128 0x6
 678 0373 18010000 		.4byte	.LASF51
 679 0377 08       		.byte	0x8
 680 0378 26       		.byte	0x26
 681 0379 64020000 		.4byte	0x264
 682 037d 02       		.byte	0x2
 683 037e 23       		.byte	0x23
 684 037f 00       		.uleb128 0
 685 0380 06       		.uleb128 0x6
 686 0381 7A010000 		.4byte	.LASF52
 687 0385 08       		.byte	0x8
 688 0386 28       		.byte	0x28
 689 0387 FE000000 		.4byte	0xfe
 690 038b 02       		.byte	0x2
 691 038c 23       		.byte	0x23
 692 038d 08       		.uleb128 0x8
 693 038e 00       		.byte	0
 694 038f 03       		.uleb128 0x3
 695 0390 6F030000 		.4byte	.LASF50
 696 0394 08       		.byte	0x8
 697 0395 29       		.byte	0x29
 698 0396 66030000 		.4byte	0x366
 699 039a 05       		.uleb128 0x5
 700 039b 1B020000 		.4byte	.LASF53
 701 039f 10       		.byte	0x10
 702 03a0 09       		.byte	0x9
 703 03a1 25       		.byte	0x25
 704 03a2 D1030000 		.4byte	0x3d1
 705 03a6 06       		.uleb128 0x6
 706 03a7 8A000000 		.4byte	.LASF54
 707 03ab 09       		.byte	0x9
 708 03ac 26       		.byte	0x26
 709 03ad 64020000 		.4byte	0x264
 710 03b1 02       		.byte	0x2
 711 03b2 23       		.byte	0x23
 712 03b3 00       		.uleb128 0
 713 03b4 06       		.uleb128 0x6
 714 03b5 A5030000 		.4byte	.LASF55
 715 03b9 09       		.byte	0x9
 716 03ba 28       		.byte	0x28
 717 03bb 5E020000 		.4byte	0x25e
 718 03bf 02       		.byte	0x2
 719 03c0 23       		.byte	0x23
 720 03c1 08       		.uleb128 0x8
 721 03c2 06       		.uleb128 0x6
 722 03c3 3A030000 		.4byte	.LASF56
 723 03c7 09       		.byte	0x9
 724 03c8 2A       		.byte	0x2a
 725 03c9 D1030000 		.4byte	0x3d1
 726 03cd 02       		.byte	0x2
 727 03ce 23       		.byte	0x23
 728 03cf 0C       		.uleb128 0xc
 729 03d0 00       		.byte	0
 730 03d1 09       		.uleb128 0x9
 731 03d2 04       		.byte	0x4
 732 03d3 9A030000 		.4byte	0x39a
ARM GAS  /tmp/ccx0Simk.s 			page 14


 733 03d7 03       		.uleb128 0x3
 734 03d8 1B020000 		.4byte	.LASF53
 735 03dc 09       		.byte	0x9
 736 03dd 2C       		.byte	0x2c
 737 03de 9A030000 		.4byte	0x39a
 738 03e2 03       		.uleb128 0x3
 739 03e3 1D000000 		.4byte	.LASF57
 740 03e7 0A       		.byte	0xa
 741 03e8 25       		.byte	0x25
 742 03e9 ED030000 		.4byte	0x3ed
 743 03ed 09       		.uleb128 0x9
 744 03ee 04       		.byte	0x4
 745 03ef F3030000 		.4byte	0x3f3
 746 03f3 0E       		.uleb128 0xe
 747 03f4 01       		.byte	0x1
 748 03f5 9C020000 		.4byte	0x29c
 749 03f9 03040000 		.4byte	0x403
 750 03fd 0F       		.uleb128 0xf
 751 03fe 30000000 		.4byte	0x30
 752 0402 00       		.byte	0
 753 0403 03       		.uleb128 0x3
 754 0404 71020000 		.4byte	.LASF58
 755 0408 0B       		.byte	0xb
 756 0409 2D       		.byte	0x2d
 757 040a 0E040000 		.4byte	0x40e
 758 040e 05       		.uleb128 0x5
 759 040f C7030000 		.4byte	.LASF59
 760 0413 20       		.byte	0x20
 761 0414 0B       		.byte	0xb
 762 0415 40       		.byte	0x40
 763 0416 45040000 		.4byte	0x445
 764 041a 06       		.uleb128 0x6
 765 041b A9020000 		.4byte	.LASF60
 766 041f 0B       		.byte	0xb
 767 0420 41       		.byte	0x41
 768 0421 E2030000 		.4byte	0x3e2
 769 0425 02       		.byte	0x2
 770 0426 23       		.byte	0x23
 771 0427 00       		.uleb128 0
 772 0428 06       		.uleb128 0x6
 773 0429 4A000000 		.4byte	.LASF61
 774 042d 0B       		.byte	0xb
 775 042e 43       		.byte	0x43
 776 042f 64040000 		.4byte	0x464
 777 0433 02       		.byte	0x2
 778 0434 23       		.byte	0x23
 779 0435 08       		.uleb128 0x8
 780 0436 06       		.uleb128 0x6
 781 0437 77000000 		.4byte	.LASF62
 782 043b 0B       		.byte	0xb
 783 043c 45       		.byte	0x45
 784 043d D7030000 		.4byte	0x3d7
 785 0441 02       		.byte	0x2
 786 0442 23       		.byte	0x23
 787 0443 10       		.uleb128 0x10
 788 0444 00       		.byte	0
 789 0445 10       		.uleb128 0x10
ARM GAS  /tmp/ccx0Simk.s 			page 15


 790 0446 04       		.byte	0x4
 791 0447 0B       		.byte	0xb
 792 0448 35       		.byte	0x35
 793 0449 64040000 		.4byte	0x464
 794 044d 11       		.uleb128 0x11
 795 044e 51000000 		.4byte	.LASF63
 796 0452 0B       		.byte	0xb
 797 0453 36       		.byte	0x36
 798 0454 85040000 		.4byte	0x485
 799 0458 11       		.uleb128 0x11
 800 0459 30030000 		.4byte	.LASF64
 801 045d 0B       		.byte	0xb
 802 045e 37       		.byte	0x37
 803 045f 8B040000 		.4byte	0x48b
 804 0463 00       		.byte	0
 805 0464 12       		.uleb128 0x12
 806 0465 DA020000 		.4byte	.LASF91
 807 0469 08       		.byte	0x8
 808 046a 0B       		.byte	0xb
 809 046b 32       		.byte	0x32
 810 046c 85040000 		.4byte	0x485
 811 0470 11       		.uleb128 0x11
 812 0471 2E010000 		.4byte	.LASF65
 813 0475 0B       		.byte	0xb
 814 0476 33       		.byte	0x33
 815 0477 9E020000 		.4byte	0x29e
 816 047b 13       		.uleb128 0x13
 817 047c 6800     		.ascii	"h\000"
 818 047e 0B       		.byte	0xb
 819 047f 3A       		.byte	0x3a
 820 0480 91040000 		.4byte	0x491
 821 0484 00       		.byte	0
 822 0485 09       		.uleb128 0x9
 823 0486 04       		.byte	0x4
 824 0487 64040000 		.4byte	0x464
 825 048b 09       		.uleb128 0x9
 826 048c 04       		.byte	0x4
 827 048d 03040000 		.4byte	0x403
 828 0491 08       		.uleb128 0x8
 829 0492 08       		.byte	0x8
 830 0493 0B       		.byte	0xb
 831 0494 34       		.byte	0x34
 832 0495 B4040000 		.4byte	0x4b4
 833 0499 07       		.uleb128 0x7
 834 049a 7500     		.ascii	"u\000"
 835 049c 0B       		.byte	0xb
 836 049d 38       		.byte	0x38
 837 049e 45040000 		.4byte	0x445
 838 04a2 02       		.byte	0x2
 839 04a3 23       		.byte	0x23
 840 04a4 00       		.uleb128 0
 841 04a5 06       		.uleb128 0x6
 842 04a6 88010000 		.4byte	.LASF66
 843 04aa 0B       		.byte	0xb
 844 04ab 39       		.byte	0x39
 845 04ac 30000000 		.4byte	0x30
 846 04b0 02       		.byte	0x2
ARM GAS  /tmp/ccx0Simk.s 			page 16


 847 04b1 23       		.byte	0x23
 848 04b2 04       		.uleb128 0x4
 849 04b3 00       		.byte	0
 850 04b4 10       		.uleb128 0x10
 851 04b5 04       		.byte	0x4
 852 04b6 06       		.byte	0x6
 853 04b7 8F       		.byte	0x8f
 854 04b8 E9040000 		.4byte	0x4e9
 855 04bc 11       		.uleb128 0x11
 856 04bd 0D000000 		.4byte	.LASF67
 857 04c1 06       		.byte	0x6
 858 04c2 96       		.byte	0x96
 859 04c3 DD000000 		.4byte	0xdd
 860 04c7 11       		.uleb128 0x11
 861 04c8 41000000 		.4byte	.LASF68
 862 04cc 06       		.byte	0x6
 863 04cd 9D       		.byte	0x9d
 864 04ce DD000000 		.4byte	0xdd
 865 04d2 11       		.uleb128 0x11
 866 04d3 88030000 		.4byte	.LASF69
 867 04d7 06       		.byte	0x6
 868 04d8 A4       		.byte	0xa4
 869 04d9 9C020000 		.4byte	0x29c
 870 04dd 11       		.uleb128 0x11
 871 04de F3020000 		.4byte	.LASF70
 872 04e2 06       		.byte	0x6
 873 04e3 AB       		.byte	0xab
 874 04e4 E8000000 		.4byte	0xe8
 875 04e8 00       		.byte	0
 876 04e9 09       		.uleb128 0x9
 877 04ea 04       		.byte	0x4
 878 04eb EF040000 		.4byte	0x4ef
 879 04ef 14       		.uleb128 0x14
 880 04f0 F4040000 		.4byte	0x4f4
 881 04f4 04       		.uleb128 0x4
 882 04f5 01       		.byte	0x1
 883 04f6 08       		.byte	0x8
 884 04f7 35030000 		.4byte	.LASF71
 885 04fb 09       		.uleb128 0x9
 886 04fc 04       		.byte	0x4
 887 04fd D7030000 		.4byte	0x3d7
 888 0501 03       		.uleb128 0x3
 889 0502 63010000 		.4byte	.LASF72
 890 0506 0C       		.byte	0xc
 891 0507 11       		.byte	0x11
 892 0508 3B000000 		.4byte	0x3b
 893 050c 03       		.uleb128 0x3
 894 050d 29010000 		.4byte	.LASF73
 895 0511 0C       		.byte	0xc
 896 0512 16       		.byte	0x16
 897 0513 54000000 		.4byte	0x54
 898 0517 09       		.uleb128 0x9
 899 0518 04       		.byte	0x4
 900 0519 8F030000 		.4byte	0x38f
 901 051d 15       		.uleb128 0x15
 902 051e 01       		.byte	0x1
 903 051f EC000000 		.4byte	.LASF75
ARM GAS  /tmp/ccx0Simk.s 			page 17


 904 0523 01       		.byte	0x1
 905 0524 26       		.byte	0x26
 906 0525 01       		.byte	0x1
 907 0526 29000000 		.4byte	0x29
 908 052a 00000000 		.4byte	.LFB7
 909 052e 1E000000 		.4byte	.LFE7
 910 0532 00000000 		.4byte	.LLST0
 911 0536 01       		.byte	0x1
 912 0537 69050000 		.4byte	0x569
 913 053b 16       		.uleb128 0x16
 914 053c 766F6C00 		.ascii	"vol\000"
 915 0540 01       		.byte	0x1
 916 0541 26       		.byte	0x26
 917 0542 0C050000 		.4byte	0x50c
 918 0546 20000000 		.4byte	.LLST1
 919 054a 17       		.uleb128 0x17
 920 054b 7D000000 		.4byte	.LASF74
 921 054f 01       		.byte	0x1
 922 0550 26       		.byte	0x26
 923 0551 69050000 		.4byte	0x569
 924 0555 41000000 		.4byte	.LLST2
 925 0559 18       		.uleb128 0x18
 926 055a 1A000000 		.4byte	.LVL3
 927 055e E3060000 		.4byte	0x6e3
 928 0562 19       		.uleb128 0x19
 929 0563 01       		.byte	0x1
 930 0564 51       		.byte	0x51
 931 0565 01       		.byte	0x1
 932 0566 31       		.byte	0x31
 933 0567 00       		.byte	0
 934 0568 00       		.byte	0
 935 0569 09       		.uleb128 0x9
 936 056a 04       		.byte	0x4
 937 056b 17050000 		.4byte	0x517
 938 056f 15       		.uleb128 0x15
 939 0570 01       		.byte	0x1
 940 0571 96030000 		.4byte	.LASF76
 941 0575 01       		.byte	0x1
 942 0576 30       		.byte	0x30
 943 0577 01       		.byte	0x1
 944 0578 29000000 		.4byte	0x29
 945 057c 00000000 		.4byte	.LFB8
 946 0580 0C000000 		.4byte	.LFE8
 947 0584 62000000 		.4byte	.LLST3
 948 0588 01       		.byte	0x1
 949 0589 B3050000 		.4byte	0x5b3
 950 058d 17       		.uleb128 0x17
 951 058e 7D000000 		.4byte	.LASF74
 952 0592 01       		.byte	0x1
 953 0593 30       		.byte	0x30
 954 0594 17050000 		.4byte	0x517
 955 0598 82000000 		.4byte	.LLST4
 956 059c 18       		.uleb128 0x18
 957 059d 08000000 		.4byte	.LVL5
 958 05a1 FC060000 		.4byte	0x6fc
 959 05a5 19       		.uleb128 0x19
 960 05a6 01       		.byte	0x1
ARM GAS  /tmp/ccx0Simk.s 			page 18


 961 05a7 51       		.byte	0x51
 962 05a8 01       		.byte	0x1
 963 05a9 30       		.byte	0x30
 964 05aa 19       		.uleb128 0x19
 965 05ab 01       		.byte	0x1
 966 05ac 50       		.byte	0x50
 967 05ad 03       		.byte	0x3
 968 05ae F3       		.byte	0xf3
 969 05af 01       		.uleb128 0x1
 970 05b0 50       		.byte	0x50
 971 05b1 00       		.byte	0
 972 05b2 00       		.byte	0
 973 05b3 15       		.uleb128 0x15
 974 05b4 01       		.byte	0x1
 975 05b5 51020000 		.4byte	.LASF77
 976 05b9 01       		.byte	0x1
 977 05ba 39       		.byte	0x39
 978 05bb 01       		.byte	0x1
 979 05bc 29000000 		.4byte	0x29
 980 05c0 00000000 		.4byte	.LFB9
 981 05c4 14000000 		.4byte	.LFE9
 982 05c8 A3000000 		.4byte	.LLST5
 983 05cc 01       		.byte	0x1
 984 05cd 08060000 		.4byte	0x608
 985 05d1 17       		.uleb128 0x17
 986 05d2 7D000000 		.4byte	.LASF74
 987 05d6 01       		.byte	0x1
 988 05d7 39       		.byte	0x39
 989 05d8 17050000 		.4byte	0x517
 990 05dc C3000000 		.4byte	.LLST6
 991 05e0 1A       		.uleb128 0x1a
 992 05e1 6D736700 		.ascii	"msg\000"
 993 05e5 01       		.byte	0x1
 994 05e6 3B       		.byte	0x3b
 995 05e7 DD000000 		.4byte	0xdd
 996 05eb E4000000 		.4byte	.LLST7
 997 05ef 18       		.uleb128 0x18
 998 05f0 0A000000 		.4byte	.LVL7
 999 05f4 15070000 		.4byte	0x715
 1000 05f8 19       		.uleb128 0x19
 1001 05f9 01       		.byte	0x1
 1002 05fa 51       		.byte	0x51
 1003 05fb 03       		.byte	0x3
 1004 05fc 0A       		.byte	0xa
 1005 05fd E803     		.2byte	0x3e8
 1006 05ff 19       		.uleb128 0x19
 1007 0600 01       		.byte	0x1
 1008 0601 50       		.byte	0x50
 1009 0602 03       		.byte	0x3
 1010 0603 F3       		.byte	0xf3
 1011 0604 01       		.uleb128 0x1
 1012 0605 50       		.byte	0x50
 1013 0606 00       		.byte	0
 1014 0607 00       		.byte	0
 1015 0608 1B       		.uleb128 0x1b
 1016 0609 01       		.byte	0x1
 1017 060a E6020000 		.4byte	.LASF79
ARM GAS  /tmp/ccx0Simk.s 			page 19


 1018 060e 01       		.byte	0x1
 1019 060f 42       		.byte	0x42
 1020 0610 01       		.byte	0x1
 1021 0611 00000000 		.4byte	.LFB10
 1022 0615 04000000 		.4byte	.LFE10
 1023 0619 02       		.byte	0x2
 1024 061a 7D       		.byte	0x7d
 1025 061b 00       		.sleb128 0
 1026 061c 01       		.byte	0x1
 1027 061d 43060000 		.4byte	0x643
 1028 0621 17       		.uleb128 0x17
 1029 0622 7D000000 		.4byte	.LASF74
 1030 0626 01       		.byte	0x1
 1031 0627 42       		.byte	0x42
 1032 0628 17050000 		.4byte	0x517
 1033 062c F7000000 		.4byte	.LLST8
 1034 0630 1C       		.uleb128 0x1c
 1035 0631 04000000 		.4byte	.LVL10
 1036 0635 01       		.byte	0x1
 1037 0636 32070000 		.4byte	0x732
 1038 063a 19       		.uleb128 0x19
 1039 063b 01       		.byte	0x1
 1040 063c 50       		.byte	0x50
 1041 063d 03       		.byte	0x3
 1042 063e F3       		.byte	0xf3
 1043 063f 01       		.uleb128 0x1
 1044 0640 50       		.byte	0x50
 1045 0641 00       		.byte	0
 1046 0642 00       		.byte	0
 1047 0643 1D       		.uleb128 0x1d
 1048 0644 01       		.byte	0x1
 1049 0645 CD000000 		.4byte	.LASF78
 1050 0649 01       		.byte	0x1
 1051 064a 4C       		.byte	0x4c
 1052 064b 01       		.byte	0x1
 1053 064c 9C020000 		.4byte	0x29c
 1054 0650 00000000 		.4byte	.LFB11
 1055 0654 08000000 		.4byte	.LFE11
 1056 0658 02       		.byte	0x2
 1057 0659 7D       		.byte	0x7d
 1058 065a 00       		.sleb128 0
 1059 065b 01       		.byte	0x1
 1060 065c 87060000 		.4byte	0x687
 1061 0660 17       		.uleb128 0x17
 1062 0661 88010000 		.4byte	.LASF66
 1063 0665 01       		.byte	0x1
 1064 0666 4C       		.byte	0x4c
 1065 0667 01050000 		.4byte	0x501
 1066 066b 18010000 		.4byte	.LLST9
 1067 066f 1C       		.uleb128 0x1c
 1068 0670 08000000 		.4byte	.LVL13
 1069 0674 01       		.byte	0x1
 1070 0675 46070000 		.4byte	0x746
 1071 0679 19       		.uleb128 0x19
 1072 067a 01       		.byte	0x1
 1073 067b 51       		.byte	0x51
 1074 067c 03       		.byte	0x3
ARM GAS  /tmp/ccx0Simk.s 			page 20


 1075 067d F3       		.byte	0xf3
 1076 067e 01       		.uleb128 0x1
 1077 067f 50       		.byte	0x50
 1078 0680 19       		.uleb128 0x19
 1079 0681 01       		.byte	0x1
 1080 0682 50       		.byte	0x50
 1081 0683 01       		.byte	0x1
 1082 0684 30       		.byte	0x30
 1083 0685 00       		.byte	0
 1084 0686 00       		.byte	0
 1085 0687 1B       		.uleb128 0x1b
 1086 0688 01       		.byte	0x1
 1087 0689 58010000 		.4byte	.LASF80
 1088 068d 01       		.byte	0x1
 1089 068e 54       		.byte	0x54
 1090 068f 01       		.byte	0x1
 1091 0690 00000000 		.4byte	.LFB12
 1092 0694 04000000 		.4byte	.LFE12
 1093 0698 02       		.byte	0x2
 1094 0699 7D       		.byte	0x7d
 1095 069a 00       		.sleb128 0
 1096 069b 01       		.byte	0x1
 1097 069c C2060000 		.4byte	0x6c2
 1098 06a0 17       		.uleb128 0x17
 1099 06a1 35020000 		.4byte	.LASF81
 1100 06a5 01       		.byte	0x1
 1101 06a6 54       		.byte	0x54
 1102 06a7 9C020000 		.4byte	0x29c
 1103 06ab 44010000 		.4byte	.LLST10
 1104 06af 1C       		.uleb128 0x1c
 1105 06b0 04000000 		.4byte	.LVL15
 1106 06b4 01       		.byte	0x1
 1107 06b5 63070000 		.4byte	0x763
 1108 06b9 19       		.uleb128 0x19
 1109 06ba 01       		.byte	0x1
 1110 06bb 50       		.byte	0x50
 1111 06bc 03       		.byte	0x3
 1112 06bd F3       		.byte	0xf3
 1113 06be 01       		.uleb128 0x1
 1114 06bf 50       		.byte	0x50
 1115 06c0 00       		.byte	0
 1116 06c1 00       		.byte	0
 1117 06c2 1E       		.uleb128 0x1e
 1118 06c3 8F030000 		.4byte	0x38f
 1119 06c7 D2060000 		.4byte	0x6d2
 1120 06cb 1F       		.uleb128 0x1f
 1121 06cc 5A030000 		.4byte	0x35a
 1122 06d0 00       		.byte	0
 1123 06d1 00       		.byte	0
 1124 06d2 20       		.uleb128 0x20
 1125 06d3 5E020000 		.4byte	.LASF82
 1126 06d7 01       		.byte	0x1
 1127 06d8 21       		.byte	0x21
 1128 06d9 C2060000 		.4byte	0x6c2
 1129 06dd 05       		.byte	0x5
 1130 06de 03       		.byte	0x3
 1131 06df 00000000 		.4byte	ff_sem
ARM GAS  /tmp/ccx0Simk.s 			page 21


 1132 06e3 21       		.uleb128 0x21
 1133 06e4 01       		.byte	0x1
 1134 06e5 BD030000 		.4byte	.LASF83
 1135 06e9 08       		.byte	0x8
 1136 06ea 2E       		.byte	0x2e
 1137 06eb 01       		.byte	0x1
 1138 06ec 01       		.byte	0x1
 1139 06ed FC060000 		.4byte	0x6fc
 1140 06f1 0F       		.uleb128 0xf
 1141 06f2 17050000 		.4byte	0x517
 1142 06f6 0F       		.uleb128 0xf
 1143 06f7 FE000000 		.4byte	0xfe
 1144 06fb 00       		.byte	0
 1145 06fc 21       		.uleb128 0x21
 1146 06fd 01       		.byte	0x1
 1147 06fe A0010000 		.4byte	.LASF84
 1148 0702 08       		.byte	0x8
 1149 0703 2F       		.byte	0x2f
 1150 0704 01       		.byte	0x1
 1151 0705 01       		.byte	0x1
 1152 0706 15070000 		.4byte	0x715
 1153 070a 0F       		.uleb128 0xf
 1154 070b 17050000 		.4byte	0x517
 1155 070f 0F       		.uleb128 0xf
 1156 0710 FE000000 		.4byte	0xfe
 1157 0714 00       		.byte	0
 1158 0715 22       		.uleb128 0x22
 1159 0716 01       		.byte	0x1
 1160 0717 47010000 		.4byte	.LASF86
 1161 071b 08       		.byte	0x8
 1162 071c 33       		.byte	0x33
 1163 071d 01       		.byte	0x1
 1164 071e DD000000 		.4byte	0xdd
 1165 0722 01       		.byte	0x1
 1166 0723 32070000 		.4byte	0x732
 1167 0727 0F       		.uleb128 0xf
 1168 0728 17050000 		.4byte	0x517
 1169 072c 0F       		.uleb128 0xf
 1170 072d F3000000 		.4byte	0xf3
 1171 0731 00       		.byte	0
 1172 0732 21       		.uleb128 0x21
 1173 0733 01       		.byte	0x1
 1174 0734 04010000 		.4byte	.LASF85
 1175 0738 08       		.byte	0x8
 1176 0739 35       		.byte	0x35
 1177 073a 01       		.byte	0x1
 1178 073b 01       		.byte	0x1
 1179 073c 46070000 		.4byte	0x746
 1180 0740 0F       		.uleb128 0xf
 1181 0741 17050000 		.4byte	0x517
 1182 0745 00       		.byte	0
 1183 0746 22       		.uleb128 0x22
 1184 0747 01       		.byte	0x1
 1185 0748 10030000 		.4byte	.LASF87
 1186 074c 0B       		.byte	0xb
 1187 074d 52       		.byte	0x52
 1188 074e 01       		.byte	0x1
ARM GAS  /tmp/ccx0Simk.s 			page 22


 1189 074f 9C020000 		.4byte	0x29c
 1190 0753 01       		.byte	0x1
 1191 0754 63070000 		.4byte	0x763
 1192 0758 0F       		.uleb128 0xf
 1193 0759 8B040000 		.4byte	0x48b
 1194 075d 0F       		.uleb128 0xf
 1195 075e 30000000 		.4byte	0x30
 1196 0762 00       		.byte	0
 1197 0763 23       		.uleb128 0x23
 1198 0764 01       		.byte	0x1
 1199 0765 C2000000 		.4byte	.LASF92
 1200 0769 0B       		.byte	0xb
 1201 076a 53       		.byte	0x53
 1202 076b 01       		.byte	0x1
 1203 076c 01       		.byte	0x1
 1204 076d 0F       		.uleb128 0xf
 1205 076e 9C020000 		.4byte	0x29c
 1206 0772 00       		.byte	0
 1207 0773 00       		.byte	0
 1208              		.section	.debug_abbrev,"",%progbits
 1209              	.Ldebug_abbrev0:
 1210 0000 01       		.uleb128 0x1
 1211 0001 11       		.uleb128 0x11
 1212 0002 01       		.byte	0x1
 1213 0003 25       		.uleb128 0x25
 1214 0004 0E       		.uleb128 0xe
 1215 0005 13       		.uleb128 0x13
 1216 0006 0B       		.uleb128 0xb
 1217 0007 03       		.uleb128 0x3
 1218 0008 0E       		.uleb128 0xe
 1219 0009 1B       		.uleb128 0x1b
 1220 000a 0E       		.uleb128 0xe
 1221 000b 55       		.uleb128 0x55
 1222 000c 06       		.uleb128 0x6
 1223 000d 11       		.uleb128 0x11
 1224 000e 01       		.uleb128 0x1
 1225 000f 52       		.uleb128 0x52
 1226 0010 01       		.uleb128 0x1
 1227 0011 10       		.uleb128 0x10
 1228 0012 06       		.uleb128 0x6
 1229 0013 00       		.byte	0
 1230 0014 00       		.byte	0
 1231 0015 02       		.uleb128 0x2
 1232 0016 24       		.uleb128 0x24
 1233 0017 00       		.byte	0
 1234 0018 0B       		.uleb128 0xb
 1235 0019 0B       		.uleb128 0xb
 1236 001a 3E       		.uleb128 0x3e
 1237 001b 0B       		.uleb128 0xb
 1238 001c 03       		.uleb128 0x3
 1239 001d 08       		.uleb128 0x8
 1240 001e 00       		.byte	0
 1241 001f 00       		.byte	0
 1242 0020 03       		.uleb128 0x3
 1243 0021 16       		.uleb128 0x16
 1244 0022 00       		.byte	0
 1245 0023 03       		.uleb128 0x3
ARM GAS  /tmp/ccx0Simk.s 			page 23


 1246 0024 0E       		.uleb128 0xe
 1247 0025 3A       		.uleb128 0x3a
 1248 0026 0B       		.uleb128 0xb
 1249 0027 3B       		.uleb128 0x3b
 1250 0028 0B       		.uleb128 0xb
 1251 0029 49       		.uleb128 0x49
 1252 002a 13       		.uleb128 0x13
 1253 002b 00       		.byte	0
 1254 002c 00       		.byte	0
 1255 002d 04       		.uleb128 0x4
 1256 002e 24       		.uleb128 0x24
 1257 002f 00       		.byte	0
 1258 0030 0B       		.uleb128 0xb
 1259 0031 0B       		.uleb128 0xb
 1260 0032 3E       		.uleb128 0x3e
 1261 0033 0B       		.uleb128 0xb
 1262 0034 03       		.uleb128 0x3
 1263 0035 0E       		.uleb128 0xe
 1264 0036 00       		.byte	0
 1265 0037 00       		.byte	0
 1266 0038 05       		.uleb128 0x5
 1267 0039 13       		.uleb128 0x13
 1268 003a 01       		.byte	0x1
 1269 003b 03       		.uleb128 0x3
 1270 003c 0E       		.uleb128 0xe
 1271 003d 0B       		.uleb128 0xb
 1272 003e 0B       		.uleb128 0xb
 1273 003f 3A       		.uleb128 0x3a
 1274 0040 0B       		.uleb128 0xb
 1275 0041 3B       		.uleb128 0x3b
 1276 0042 0B       		.uleb128 0xb
 1277 0043 01       		.uleb128 0x1
 1278 0044 13       		.uleb128 0x13
 1279 0045 00       		.byte	0
 1280 0046 00       		.byte	0
 1281 0047 06       		.uleb128 0x6
 1282 0048 0D       		.uleb128 0xd
 1283 0049 00       		.byte	0
 1284 004a 03       		.uleb128 0x3
 1285 004b 0E       		.uleb128 0xe
 1286 004c 3A       		.uleb128 0x3a
 1287 004d 0B       		.uleb128 0xb
 1288 004e 3B       		.uleb128 0x3b
 1289 004f 0B       		.uleb128 0xb
 1290 0050 49       		.uleb128 0x49
 1291 0051 13       		.uleb128 0x13
 1292 0052 38       		.uleb128 0x38
 1293 0053 0A       		.uleb128 0xa
 1294 0054 00       		.byte	0
 1295 0055 00       		.byte	0
 1296 0056 07       		.uleb128 0x7
 1297 0057 0D       		.uleb128 0xd
 1298 0058 00       		.byte	0
 1299 0059 03       		.uleb128 0x3
 1300 005a 08       		.uleb128 0x8
 1301 005b 3A       		.uleb128 0x3a
 1302 005c 0B       		.uleb128 0xb
ARM GAS  /tmp/ccx0Simk.s 			page 24


 1303 005d 3B       		.uleb128 0x3b
 1304 005e 0B       		.uleb128 0xb
 1305 005f 49       		.uleb128 0x49
 1306 0060 13       		.uleb128 0x13
 1307 0061 38       		.uleb128 0x38
 1308 0062 0A       		.uleb128 0xa
 1309 0063 00       		.byte	0
 1310 0064 00       		.byte	0
 1311 0065 08       		.uleb128 0x8
 1312 0066 13       		.uleb128 0x13
 1313 0067 01       		.byte	0x1
 1314 0068 0B       		.uleb128 0xb
 1315 0069 0B       		.uleb128 0xb
 1316 006a 3A       		.uleb128 0x3a
 1317 006b 0B       		.uleb128 0xb
 1318 006c 3B       		.uleb128 0x3b
 1319 006d 0B       		.uleb128 0xb
 1320 006e 01       		.uleb128 0x1
 1321 006f 13       		.uleb128 0x13
 1322 0070 00       		.byte	0
 1323 0071 00       		.byte	0
 1324 0072 09       		.uleb128 0x9
 1325 0073 0F       		.uleb128 0xf
 1326 0074 00       		.byte	0
 1327 0075 0B       		.uleb128 0xb
 1328 0076 0B       		.uleb128 0xb
 1329 0077 49       		.uleb128 0x49
 1330 0078 13       		.uleb128 0x13
 1331 0079 00       		.byte	0
 1332 007a 00       		.byte	0
 1333 007b 0A       		.uleb128 0xa
 1334 007c 0F       		.uleb128 0xf
 1335 007d 00       		.byte	0
 1336 007e 0B       		.uleb128 0xb
 1337 007f 0B       		.uleb128 0xb
 1338 0080 00       		.byte	0
 1339 0081 00       		.byte	0
 1340 0082 0B       		.uleb128 0xb
 1341 0083 13       		.uleb128 0x13
 1342 0084 01       		.byte	0x1
 1343 0085 03       		.uleb128 0x3
 1344 0086 0E       		.uleb128 0xe
 1345 0087 0B       		.uleb128 0xb
 1346 0088 0B       		.uleb128 0xb
 1347 0089 3A       		.uleb128 0x3a
 1348 008a 0B       		.uleb128 0xb
 1349 008b 3B       		.uleb128 0x3b
 1350 008c 05       		.uleb128 0x5
 1351 008d 01       		.uleb128 0x1
 1352 008e 13       		.uleb128 0x13
 1353 008f 00       		.byte	0
 1354 0090 00       		.byte	0
 1355 0091 0C       		.uleb128 0xc
 1356 0092 0D       		.uleb128 0xd
 1357 0093 00       		.byte	0
 1358 0094 03       		.uleb128 0x3
 1359 0095 08       		.uleb128 0x8
ARM GAS  /tmp/ccx0Simk.s 			page 25


 1360 0096 3A       		.uleb128 0x3a
 1361 0097 0B       		.uleb128 0xb
 1362 0098 3B       		.uleb128 0x3b
 1363 0099 05       		.uleb128 0x5
 1364 009a 49       		.uleb128 0x49
 1365 009b 13       		.uleb128 0x13
 1366 009c 38       		.uleb128 0x38
 1367 009d 0A       		.uleb128 0xa
 1368 009e 00       		.byte	0
 1369 009f 00       		.byte	0
 1370 00a0 0D       		.uleb128 0xd
 1371 00a1 35       		.uleb128 0x35
 1372 00a2 00       		.byte	0
 1373 00a3 49       		.uleb128 0x49
 1374 00a4 13       		.uleb128 0x13
 1375 00a5 00       		.byte	0
 1376 00a6 00       		.byte	0
 1377 00a7 0E       		.uleb128 0xe
 1378 00a8 15       		.uleb128 0x15
 1379 00a9 01       		.byte	0x1
 1380 00aa 27       		.uleb128 0x27
 1381 00ab 0C       		.uleb128 0xc
 1382 00ac 49       		.uleb128 0x49
 1383 00ad 13       		.uleb128 0x13
 1384 00ae 01       		.uleb128 0x1
 1385 00af 13       		.uleb128 0x13
 1386 00b0 00       		.byte	0
 1387 00b1 00       		.byte	0
 1388 00b2 0F       		.uleb128 0xf
 1389 00b3 05       		.uleb128 0x5
 1390 00b4 00       		.byte	0
 1391 00b5 49       		.uleb128 0x49
 1392 00b6 13       		.uleb128 0x13
 1393 00b7 00       		.byte	0
 1394 00b8 00       		.byte	0
 1395 00b9 10       		.uleb128 0x10
 1396 00ba 17       		.uleb128 0x17
 1397 00bb 01       		.byte	0x1
 1398 00bc 0B       		.uleb128 0xb
 1399 00bd 0B       		.uleb128 0xb
 1400 00be 3A       		.uleb128 0x3a
 1401 00bf 0B       		.uleb128 0xb
 1402 00c0 3B       		.uleb128 0x3b
 1403 00c1 0B       		.uleb128 0xb
 1404 00c2 01       		.uleb128 0x1
 1405 00c3 13       		.uleb128 0x13
 1406 00c4 00       		.byte	0
 1407 00c5 00       		.byte	0
 1408 00c6 11       		.uleb128 0x11
 1409 00c7 0D       		.uleb128 0xd
 1410 00c8 00       		.byte	0
 1411 00c9 03       		.uleb128 0x3
 1412 00ca 0E       		.uleb128 0xe
 1413 00cb 3A       		.uleb128 0x3a
 1414 00cc 0B       		.uleb128 0xb
 1415 00cd 3B       		.uleb128 0x3b
 1416 00ce 0B       		.uleb128 0xb
ARM GAS  /tmp/ccx0Simk.s 			page 26


 1417 00cf 49       		.uleb128 0x49
 1418 00d0 13       		.uleb128 0x13
 1419 00d1 00       		.byte	0
 1420 00d2 00       		.byte	0
 1421 00d3 12       		.uleb128 0x12
 1422 00d4 17       		.uleb128 0x17
 1423 00d5 01       		.byte	0x1
 1424 00d6 03       		.uleb128 0x3
 1425 00d7 0E       		.uleb128 0xe
 1426 00d8 0B       		.uleb128 0xb
 1427 00d9 0B       		.uleb128 0xb
 1428 00da 3A       		.uleb128 0x3a
 1429 00db 0B       		.uleb128 0xb
 1430 00dc 3B       		.uleb128 0x3b
 1431 00dd 0B       		.uleb128 0xb
 1432 00de 01       		.uleb128 0x1
 1433 00df 13       		.uleb128 0x13
 1434 00e0 00       		.byte	0
 1435 00e1 00       		.byte	0
 1436 00e2 13       		.uleb128 0x13
 1437 00e3 0D       		.uleb128 0xd
 1438 00e4 00       		.byte	0
 1439 00e5 03       		.uleb128 0x3
 1440 00e6 08       		.uleb128 0x8
 1441 00e7 3A       		.uleb128 0x3a
 1442 00e8 0B       		.uleb128 0xb
 1443 00e9 3B       		.uleb128 0x3b
 1444 00ea 0B       		.uleb128 0xb
 1445 00eb 49       		.uleb128 0x49
 1446 00ec 13       		.uleb128 0x13
 1447 00ed 00       		.byte	0
 1448 00ee 00       		.byte	0
 1449 00ef 14       		.uleb128 0x14
 1450 00f0 26       		.uleb128 0x26
 1451 00f1 00       		.byte	0
 1452 00f2 49       		.uleb128 0x49
 1453 00f3 13       		.uleb128 0x13
 1454 00f4 00       		.byte	0
 1455 00f5 00       		.byte	0
 1456 00f6 15       		.uleb128 0x15
 1457 00f7 2E       		.uleb128 0x2e
 1458 00f8 01       		.byte	0x1
 1459 00f9 3F       		.uleb128 0x3f
 1460 00fa 0C       		.uleb128 0xc
 1461 00fb 03       		.uleb128 0x3
 1462 00fc 0E       		.uleb128 0xe
 1463 00fd 3A       		.uleb128 0x3a
 1464 00fe 0B       		.uleb128 0xb
 1465 00ff 3B       		.uleb128 0x3b
 1466 0100 0B       		.uleb128 0xb
 1467 0101 27       		.uleb128 0x27
 1468 0102 0C       		.uleb128 0xc
 1469 0103 49       		.uleb128 0x49
 1470 0104 13       		.uleb128 0x13
 1471 0105 11       		.uleb128 0x11
 1472 0106 01       		.uleb128 0x1
 1473 0107 12       		.uleb128 0x12
ARM GAS  /tmp/ccx0Simk.s 			page 27


 1474 0108 01       		.uleb128 0x1
 1475 0109 40       		.uleb128 0x40
 1476 010a 06       		.uleb128 0x6
 1477 010b 9742     		.uleb128 0x2117
 1478 010d 0C       		.uleb128 0xc
 1479 010e 01       		.uleb128 0x1
 1480 010f 13       		.uleb128 0x13
 1481 0110 00       		.byte	0
 1482 0111 00       		.byte	0
 1483 0112 16       		.uleb128 0x16
 1484 0113 05       		.uleb128 0x5
 1485 0114 00       		.byte	0
 1486 0115 03       		.uleb128 0x3
 1487 0116 08       		.uleb128 0x8
 1488 0117 3A       		.uleb128 0x3a
 1489 0118 0B       		.uleb128 0xb
 1490 0119 3B       		.uleb128 0x3b
 1491 011a 0B       		.uleb128 0xb
 1492 011b 49       		.uleb128 0x49
 1493 011c 13       		.uleb128 0x13
 1494 011d 02       		.uleb128 0x2
 1495 011e 06       		.uleb128 0x6
 1496 011f 00       		.byte	0
 1497 0120 00       		.byte	0
 1498 0121 17       		.uleb128 0x17
 1499 0122 05       		.uleb128 0x5
 1500 0123 00       		.byte	0
 1501 0124 03       		.uleb128 0x3
 1502 0125 0E       		.uleb128 0xe
 1503 0126 3A       		.uleb128 0x3a
 1504 0127 0B       		.uleb128 0xb
 1505 0128 3B       		.uleb128 0x3b
 1506 0129 0B       		.uleb128 0xb
 1507 012a 49       		.uleb128 0x49
 1508 012b 13       		.uleb128 0x13
 1509 012c 02       		.uleb128 0x2
 1510 012d 06       		.uleb128 0x6
 1511 012e 00       		.byte	0
 1512 012f 00       		.byte	0
 1513 0130 18       		.uleb128 0x18
 1514 0131 898201   		.uleb128 0x4109
 1515 0134 01       		.byte	0x1
 1516 0135 11       		.uleb128 0x11
 1517 0136 01       		.uleb128 0x1
 1518 0137 31       		.uleb128 0x31
 1519 0138 13       		.uleb128 0x13
 1520 0139 00       		.byte	0
 1521 013a 00       		.byte	0
 1522 013b 19       		.uleb128 0x19
 1523 013c 8A8201   		.uleb128 0x410a
 1524 013f 00       		.byte	0
 1525 0140 02       		.uleb128 0x2
 1526 0141 0A       		.uleb128 0xa
 1527 0142 9142     		.uleb128 0x2111
 1528 0144 0A       		.uleb128 0xa
 1529 0145 00       		.byte	0
 1530 0146 00       		.byte	0
ARM GAS  /tmp/ccx0Simk.s 			page 28


 1531 0147 1A       		.uleb128 0x1a
 1532 0148 34       		.uleb128 0x34
 1533 0149 00       		.byte	0
 1534 014a 03       		.uleb128 0x3
 1535 014b 08       		.uleb128 0x8
 1536 014c 3A       		.uleb128 0x3a
 1537 014d 0B       		.uleb128 0xb
 1538 014e 3B       		.uleb128 0x3b
 1539 014f 0B       		.uleb128 0xb
 1540 0150 49       		.uleb128 0x49
 1541 0151 13       		.uleb128 0x13
 1542 0152 02       		.uleb128 0x2
 1543 0153 06       		.uleb128 0x6
 1544 0154 00       		.byte	0
 1545 0155 00       		.byte	0
 1546 0156 1B       		.uleb128 0x1b
 1547 0157 2E       		.uleb128 0x2e
 1548 0158 01       		.byte	0x1
 1549 0159 3F       		.uleb128 0x3f
 1550 015a 0C       		.uleb128 0xc
 1551 015b 03       		.uleb128 0x3
 1552 015c 0E       		.uleb128 0xe
 1553 015d 3A       		.uleb128 0x3a
 1554 015e 0B       		.uleb128 0xb
 1555 015f 3B       		.uleb128 0x3b
 1556 0160 0B       		.uleb128 0xb
 1557 0161 27       		.uleb128 0x27
 1558 0162 0C       		.uleb128 0xc
 1559 0163 11       		.uleb128 0x11
 1560 0164 01       		.uleb128 0x1
 1561 0165 12       		.uleb128 0x12
 1562 0166 01       		.uleb128 0x1
 1563 0167 40       		.uleb128 0x40
 1564 0168 0A       		.uleb128 0xa
 1565 0169 9742     		.uleb128 0x2117
 1566 016b 0C       		.uleb128 0xc
 1567 016c 01       		.uleb128 0x1
 1568 016d 13       		.uleb128 0x13
 1569 016e 00       		.byte	0
 1570 016f 00       		.byte	0
 1571 0170 1C       		.uleb128 0x1c
 1572 0171 898201   		.uleb128 0x4109
 1573 0174 01       		.byte	0x1
 1574 0175 11       		.uleb128 0x11
 1575 0176 01       		.uleb128 0x1
 1576 0177 9542     		.uleb128 0x2115
 1577 0179 0C       		.uleb128 0xc
 1578 017a 31       		.uleb128 0x31
 1579 017b 13       		.uleb128 0x13
 1580 017c 00       		.byte	0
 1581 017d 00       		.byte	0
 1582 017e 1D       		.uleb128 0x1d
 1583 017f 2E       		.uleb128 0x2e
 1584 0180 01       		.byte	0x1
 1585 0181 3F       		.uleb128 0x3f
 1586 0182 0C       		.uleb128 0xc
 1587 0183 03       		.uleb128 0x3
ARM GAS  /tmp/ccx0Simk.s 			page 29


 1588 0184 0E       		.uleb128 0xe
 1589 0185 3A       		.uleb128 0x3a
 1590 0186 0B       		.uleb128 0xb
 1591 0187 3B       		.uleb128 0x3b
 1592 0188 0B       		.uleb128 0xb
 1593 0189 27       		.uleb128 0x27
 1594 018a 0C       		.uleb128 0xc
 1595 018b 49       		.uleb128 0x49
 1596 018c 13       		.uleb128 0x13
 1597 018d 11       		.uleb128 0x11
 1598 018e 01       		.uleb128 0x1
 1599 018f 12       		.uleb128 0x12
 1600 0190 01       		.uleb128 0x1
 1601 0191 40       		.uleb128 0x40
 1602 0192 0A       		.uleb128 0xa
 1603 0193 9742     		.uleb128 0x2117
 1604 0195 0C       		.uleb128 0xc
 1605 0196 01       		.uleb128 0x1
 1606 0197 13       		.uleb128 0x13
 1607 0198 00       		.byte	0
 1608 0199 00       		.byte	0
 1609 019a 1E       		.uleb128 0x1e
 1610 019b 01       		.uleb128 0x1
 1611 019c 01       		.byte	0x1
 1612 019d 49       		.uleb128 0x49
 1613 019e 13       		.uleb128 0x13
 1614 019f 01       		.uleb128 0x1
 1615 01a0 13       		.uleb128 0x13
 1616 01a1 00       		.byte	0
 1617 01a2 00       		.byte	0
 1618 01a3 1F       		.uleb128 0x1f
 1619 01a4 21       		.uleb128 0x21
 1620 01a5 00       		.byte	0
 1621 01a6 49       		.uleb128 0x49
 1622 01a7 13       		.uleb128 0x13
 1623 01a8 2F       		.uleb128 0x2f
 1624 01a9 0B       		.uleb128 0xb
 1625 01aa 00       		.byte	0
 1626 01ab 00       		.byte	0
 1627 01ac 20       		.uleb128 0x20
 1628 01ad 34       		.uleb128 0x34
 1629 01ae 00       		.byte	0
 1630 01af 03       		.uleb128 0x3
 1631 01b0 0E       		.uleb128 0xe
 1632 01b1 3A       		.uleb128 0x3a
 1633 01b2 0B       		.uleb128 0xb
 1634 01b3 3B       		.uleb128 0x3b
 1635 01b4 0B       		.uleb128 0xb
 1636 01b5 49       		.uleb128 0x49
 1637 01b6 13       		.uleb128 0x13
 1638 01b7 02       		.uleb128 0x2
 1639 01b8 0A       		.uleb128 0xa
 1640 01b9 00       		.byte	0
 1641 01ba 00       		.byte	0
 1642 01bb 21       		.uleb128 0x21
 1643 01bc 2E       		.uleb128 0x2e
 1644 01bd 01       		.byte	0x1
ARM GAS  /tmp/ccx0Simk.s 			page 30


 1645 01be 3F       		.uleb128 0x3f
 1646 01bf 0C       		.uleb128 0xc
 1647 01c0 03       		.uleb128 0x3
 1648 01c1 0E       		.uleb128 0xe
 1649 01c2 3A       		.uleb128 0x3a
 1650 01c3 0B       		.uleb128 0xb
 1651 01c4 3B       		.uleb128 0x3b
 1652 01c5 0B       		.uleb128 0xb
 1653 01c6 27       		.uleb128 0x27
 1654 01c7 0C       		.uleb128 0xc
 1655 01c8 3C       		.uleb128 0x3c
 1656 01c9 0C       		.uleb128 0xc
 1657 01ca 01       		.uleb128 0x1
 1658 01cb 13       		.uleb128 0x13
 1659 01cc 00       		.byte	0
 1660 01cd 00       		.byte	0
 1661 01ce 22       		.uleb128 0x22
 1662 01cf 2E       		.uleb128 0x2e
 1663 01d0 01       		.byte	0x1
 1664 01d1 3F       		.uleb128 0x3f
 1665 01d2 0C       		.uleb128 0xc
 1666 01d3 03       		.uleb128 0x3
 1667 01d4 0E       		.uleb128 0xe
 1668 01d5 3A       		.uleb128 0x3a
 1669 01d6 0B       		.uleb128 0xb
 1670 01d7 3B       		.uleb128 0x3b
 1671 01d8 0B       		.uleb128 0xb
 1672 01d9 27       		.uleb128 0x27
 1673 01da 0C       		.uleb128 0xc
 1674 01db 49       		.uleb128 0x49
 1675 01dc 13       		.uleb128 0x13
 1676 01dd 3C       		.uleb128 0x3c
 1677 01de 0C       		.uleb128 0xc
 1678 01df 01       		.uleb128 0x1
 1679 01e0 13       		.uleb128 0x13
 1680 01e1 00       		.byte	0
 1681 01e2 00       		.byte	0
 1682 01e3 23       		.uleb128 0x23
 1683 01e4 2E       		.uleb128 0x2e
 1684 01e5 01       		.byte	0x1
 1685 01e6 3F       		.uleb128 0x3f
 1686 01e7 0C       		.uleb128 0xc
 1687 01e8 03       		.uleb128 0x3
 1688 01e9 0E       		.uleb128 0xe
 1689 01ea 3A       		.uleb128 0x3a
 1690 01eb 0B       		.uleb128 0xb
 1691 01ec 3B       		.uleb128 0x3b
 1692 01ed 0B       		.uleb128 0xb
 1693 01ee 27       		.uleb128 0x27
 1694 01ef 0C       		.uleb128 0xc
 1695 01f0 3C       		.uleb128 0x3c
 1696 01f1 0C       		.uleb128 0xc
 1697 01f2 00       		.byte	0
 1698 01f3 00       		.byte	0
 1699 01f4 00       		.byte	0
 1700              		.section	.debug_loc,"",%progbits
 1701              	.Ldebug_loc0:
ARM GAS  /tmp/ccx0Simk.s 			page 31


 1702              	.LLST0:
 1703 0000 00000000 		.4byte	.LFB7
 1704 0004 02000000 		.4byte	.LCFI0
 1705 0008 0200     		.2byte	0x2
 1706 000a 7D       		.byte	0x7d
 1707 000b 00       		.sleb128 0
 1708 000c 02000000 		.4byte	.LCFI0
 1709 0010 1E000000 		.4byte	.LFE7
 1710 0014 0200     		.2byte	0x2
 1711 0016 7D       		.byte	0x7d
 1712 0017 08       		.sleb128 8
 1713 0018 00000000 		.4byte	0
 1714 001c 00000000 		.4byte	0
 1715              	.LLST1:
 1716 0020 00000000 		.4byte	.LVL0
 1717 0024 0E000000 		.4byte	.LVL1
 1718 0028 0100     		.2byte	0x1
 1719 002a 50       		.byte	0x50
 1720 002b 0E000000 		.4byte	.LVL1
 1721 002f 1E000000 		.4byte	.LFE7
 1722 0033 0400     		.2byte	0x4
 1723 0035 F3       		.byte	0xf3
 1724 0036 01       		.uleb128 0x1
 1725 0037 50       		.byte	0x50
 1726 0038 9F       		.byte	0x9f
 1727 0039 00000000 		.4byte	0
 1728 003d 00000000 		.4byte	0
 1729              	.LLST2:
 1730 0041 00000000 		.4byte	.LVL0
 1731 0045 16000000 		.4byte	.LVL2
 1732 0049 0100     		.2byte	0x1
 1733 004b 51       		.byte	0x51
 1734 004c 16000000 		.4byte	.LVL2
 1735 0050 1E000000 		.4byte	.LFE7
 1736 0054 0400     		.2byte	0x4
 1737 0056 F3       		.byte	0xf3
 1738 0057 01       		.uleb128 0x1
 1739 0058 51       		.byte	0x51
 1740 0059 9F       		.byte	0x9f
 1741 005a 00000000 		.4byte	0
 1742 005e 00000000 		.4byte	0
 1743              	.LLST3:
 1744 0062 00000000 		.4byte	.LFB8
 1745 0066 02000000 		.4byte	.LCFI1
 1746 006a 0200     		.2byte	0x2
 1747 006c 7D       		.byte	0x7d
 1748 006d 00       		.sleb128 0
 1749 006e 02000000 		.4byte	.LCFI1
 1750 0072 0C000000 		.4byte	.LFE8
 1751 0076 0200     		.2byte	0x2
 1752 0078 7D       		.byte	0x7d
 1753 0079 08       		.sleb128 8
 1754 007a 00000000 		.4byte	0
 1755 007e 00000000 		.4byte	0
 1756              	.LLST4:
 1757 0082 00000000 		.4byte	.LVL4
 1758 0086 07000000 		.4byte	.LVL5-1
ARM GAS  /tmp/ccx0Simk.s 			page 32


 1759 008a 0100     		.2byte	0x1
 1760 008c 50       		.byte	0x50
 1761 008d 07000000 		.4byte	.LVL5-1
 1762 0091 0C000000 		.4byte	.LFE8
 1763 0095 0400     		.2byte	0x4
 1764 0097 F3       		.byte	0xf3
 1765 0098 01       		.uleb128 0x1
 1766 0099 50       		.byte	0x50
 1767 009a 9F       		.byte	0x9f
 1768 009b 00000000 		.4byte	0
 1769 009f 00000000 		.4byte	0
 1770              	.LLST5:
 1771 00a3 00000000 		.4byte	.LFB9
 1772 00a7 02000000 		.4byte	.LCFI2
 1773 00ab 0200     		.2byte	0x2
 1774 00ad 7D       		.byte	0x7d
 1775 00ae 00       		.sleb128 0
 1776 00af 02000000 		.4byte	.LCFI2
 1777 00b3 14000000 		.4byte	.LFE9
 1778 00b7 0200     		.2byte	0x2
 1779 00b9 7D       		.byte	0x7d
 1780 00ba 08       		.sleb128 8
 1781 00bb 00000000 		.4byte	0
 1782 00bf 00000000 		.4byte	0
 1783              	.LLST6:
 1784 00c3 00000000 		.4byte	.LVL6
 1785 00c7 09000000 		.4byte	.LVL7-1
 1786 00cb 0100     		.2byte	0x1
 1787 00cd 50       		.byte	0x50
 1788 00ce 09000000 		.4byte	.LVL7-1
 1789 00d2 14000000 		.4byte	.LFE9
 1790 00d6 0400     		.2byte	0x4
 1791 00d8 F3       		.byte	0xf3
 1792 00d9 01       		.uleb128 0x1
 1793 00da 50       		.byte	0x50
 1794 00db 9F       		.byte	0x9f
 1795 00dc 00000000 		.4byte	0
 1796 00e0 00000000 		.4byte	0
 1797              	.LLST7:
 1798 00e4 0A000000 		.4byte	.LVL7
 1799 00e8 0E000000 		.4byte	.LVL8
 1800 00ec 0100     		.2byte	0x1
 1801 00ee 50       		.byte	0x50
 1802 00ef 00000000 		.4byte	0
 1803 00f3 00000000 		.4byte	0
 1804              	.LLST8:
 1805 00f7 00000000 		.4byte	.LVL9
 1806 00fb 03000000 		.4byte	.LVL10-1
 1807 00ff 0100     		.2byte	0x1
 1808 0101 50       		.byte	0x50
 1809 0102 03000000 		.4byte	.LVL10-1
 1810 0106 04000000 		.4byte	.LFE10
 1811 010a 0400     		.2byte	0x4
 1812 010c F3       		.byte	0xf3
 1813 010d 01       		.uleb128 0x1
 1814 010e 50       		.byte	0x50
 1815 010f 9F       		.byte	0x9f
ARM GAS  /tmp/ccx0Simk.s 			page 33


 1816 0110 00000000 		.4byte	0
 1817 0114 00000000 		.4byte	0
 1818              	.LLST9:
 1819 0118 00000000 		.4byte	.LVL11
 1820 011c 04000000 		.4byte	.LVL12
 1821 0120 0100     		.2byte	0x1
 1822 0122 50       		.byte	0x50
 1823 0123 04000000 		.4byte	.LVL12
 1824 0127 07000000 		.4byte	.LVL13-1
 1825 012b 0100     		.2byte	0x1
 1826 012d 51       		.byte	0x51
 1827 012e 07000000 		.4byte	.LVL13-1
 1828 0132 08000000 		.4byte	.LFE11
 1829 0136 0400     		.2byte	0x4
 1830 0138 F3       		.byte	0xf3
 1831 0139 01       		.uleb128 0x1
 1832 013a 50       		.byte	0x50
 1833 013b 9F       		.byte	0x9f
 1834 013c 00000000 		.4byte	0
 1835 0140 00000000 		.4byte	0
 1836              	.LLST10:
 1837 0144 00000000 		.4byte	.LVL14
 1838 0148 03000000 		.4byte	.LVL15-1
 1839 014c 0100     		.2byte	0x1
 1840 014e 50       		.byte	0x50
 1841 014f 03000000 		.4byte	.LVL15-1
 1842 0153 04000000 		.4byte	.LFE12
 1843 0157 0400     		.2byte	0x4
 1844 0159 F3       		.byte	0xf3
 1845 015a 01       		.uleb128 0x1
 1846 015b 50       		.byte	0x50
 1847 015c 9F       		.byte	0x9f
 1848 015d 00000000 		.4byte	0
 1849 0161 00000000 		.4byte	0
 1850              		.section	.debug_aranges,"",%progbits
 1851 0000 44000000 		.4byte	0x44
 1852 0004 0200     		.2byte	0x2
 1853 0006 00000000 		.4byte	.Ldebug_info0
 1854 000a 04       		.byte	0x4
 1855 000b 00       		.byte	0
 1856 000c 0000     		.2byte	0
 1857 000e 0000     		.2byte	0
 1858 0010 00000000 		.4byte	.LFB7
 1859 0014 1E000000 		.4byte	.LFE7-.LFB7
 1860 0018 00000000 		.4byte	.LFB8
 1861 001c 0C000000 		.4byte	.LFE8-.LFB8
 1862 0020 00000000 		.4byte	.LFB9
 1863 0024 14000000 		.4byte	.LFE9-.LFB9
 1864 0028 00000000 		.4byte	.LFB10
 1865 002c 04000000 		.4byte	.LFE10-.LFB10
 1866 0030 00000000 		.4byte	.LFB11
 1867 0034 08000000 		.4byte	.LFE11-.LFB11
 1868 0038 00000000 		.4byte	.LFB12
 1869 003c 04000000 		.4byte	.LFE12-.LFB12
 1870 0040 00000000 		.4byte	0
 1871 0044 00000000 		.4byte	0
 1872              		.section	.debug_ranges,"",%progbits
ARM GAS  /tmp/ccx0Simk.s 			page 34


 1873              	.Ldebug_ranges0:
 1874 0000 00000000 		.4byte	.LFB7
 1875 0004 1E000000 		.4byte	.LFE7
 1876 0008 00000000 		.4byte	.LFB8
 1877 000c 0C000000 		.4byte	.LFE8
 1878 0010 00000000 		.4byte	.LFB9
 1879 0014 14000000 		.4byte	.LFE9
 1880 0018 00000000 		.4byte	.LFB10
 1881 001c 04000000 		.4byte	.LFE10
 1882 0020 00000000 		.4byte	.LFB11
 1883 0024 08000000 		.4byte	.LFE11
 1884 0028 00000000 		.4byte	.LFB12
 1885 002c 04000000 		.4byte	.LFE12
 1886 0030 00000000 		.4byte	0
 1887 0034 00000000 		.4byte	0
 1888              		.section	.debug_line,"",%progbits
 1889              	.Ldebug_line0:
 1890 0000 51020000 		.section	.debug_str,"MS",%progbits,1
 1890      0200DF01 
 1890      00000201 
 1890      FB0E0D00 
 1890      01010101 
 1891              	.LASF38:
 1892 0000 705F6D73 		.ascii	"p_msg\000"
 1892      6700
 1893              	.LASF2:
 1894 0006 73697A65 		.ascii	"size_t\000"
 1894      5F7400
 1895              	.LASF67:
 1896 000d 7264796D 		.ascii	"rdymsg\000"
 1896      736700
 1897              	.LASF12:
 1898 0014 75696E74 		.ascii	"uint64_t\000"
 1898      36345F74 
 1898      00
 1899              	.LASF57:
 1900 001d 6D656D67 		.ascii	"memgetfunc_t\000"
 1900      65746675 
 1900      6E635F74 
 1900      00
 1901              	.LASF13:
 1902 002a 6C6F6E67 		.ascii	"long long unsigned int\000"
 1902      206C6F6E 
 1902      6720756E 
 1902      7369676E 
 1902      65642069 
 1903              	.LASF68:
 1904 0041 65786974 		.ascii	"exitcode\000"
 1904      636F6465 
 1904      00
 1905              	.LASF61:
 1906 004a 685F6672 		.ascii	"h_free\000"
 1906      656500
 1907              	.LASF63:
 1908 0051 6E657874 		.ascii	"next\000"
 1908      00
 1909              	.LASF26:
ARM GAS  /tmp/ccx0Simk.s 			page 35


 1910 0056 705F7072 		.ascii	"p_prio\000"
 1910      696F00
 1911              	.LASF11:
 1912 005d 6C6F6E67 		.ascii	"long long int\000"
 1912      206C6F6E 
 1912      6720696E 
 1912      7400
 1913              	.LASF1:
 1914 006b 7369676E 		.ascii	"signed char\000"
 1914      65642063 
 1914      68617200 
 1915              	.LASF62:
 1916 0077 685F6D74 		.ascii	"h_mtx\000"
 1916      7800
 1917              	.LASF74:
 1918 007d 736F626A 		.ascii	"sobj\000"
 1918      00
 1919              	.LASF42:
 1920 0082 705F6D70 		.ascii	"p_mpool\000"
 1920      6F6F6C00 
 1921              	.LASF54:
 1922 008a 6D5F7175 		.ascii	"m_queue\000"
 1922      65756500 
 1923              	.LASF89:
 1924 0092 2E2E2F2E 		.ascii	"../../os/various/fatfs_bindings/fatfs_syscall.c\000"
 1924      2E2F6F73 
 1924      2F766172 
 1924      696F7573 
 1924      2F666174 
 1925              	.LASF92:
 1926 00c2 63684865 		.ascii	"chHeapFree\000"
 1926      61704672 
 1926      656500
 1927              	.LASF78:
 1928 00cd 66665F6D 		.ascii	"ff_memalloc\000"
 1928      656D616C 
 1928      6C6F6300 
 1929              	.LASF17:
 1930 00d9 74736C69 		.ascii	"tslices_t\000"
 1930      6365735F 
 1930      7400
 1931              	.LASF8:
 1932 00e3 6C6F6E67 		.ascii	"long int\000"
 1932      20696E74 
 1932      00
 1933              	.LASF75:
 1934 00ec 66665F63 		.ascii	"ff_cre_syncobj\000"
 1934      72655F73 
 1934      796E636F 
 1934      626A00
 1935              	.LASF15:
 1936 00fb 74737461 		.ascii	"tstate_t\000"
 1936      74655F74 
 1936      00
 1937              	.LASF85:
 1938 0104 63685365 		.ascii	"chSemSignal\000"
 1938      6D536967 
ARM GAS  /tmp/ccx0Simk.s 			page 36


 1938      6E616C00 
 1939              	.LASF28:
 1940 0110 705F6E65 		.ascii	"p_newer\000"
 1940      77657200 
 1941              	.LASF51:
 1942 0118 735F7175 		.ascii	"s_queue\000"
 1942      65756500 
 1943              	.LASF45:
 1944 0120 72656761 		.ascii	"regarm_t\000"
 1944      726D5F74 
 1944      00
 1945              	.LASF73:
 1946 0129 42595445 		.ascii	"BYTE\000"
 1946      00
 1947              	.LASF65:
 1948 012e 616C6967 		.ascii	"align\000"
 1948      6E00
 1949              	.LASF22:
 1950 0134 636E745F 		.ascii	"cnt_t\000"
 1950      7400
 1951              	.LASF0:
 1952 013a 756E7369 		.ascii	"unsigned int\000"
 1952      676E6564 
 1952      20696E74 
 1952      00
 1953              	.LASF86:
 1954 0147 63685365 		.ascii	"chSemWaitTimeout\000"
 1954      6D576169 
 1954      7454696D 
 1954      656F7574 
 1954      00
 1955              	.LASF80:
 1956 0158 66665F6D 		.ascii	"ff_memfree\000"
 1956      656D6672 
 1956      656500
 1957              	.LASF72:
 1958 0163 55494E54 		.ascii	"UINT\000"
 1958      00
 1959              	.LASF10:
 1960 0168 6C6F6E67 		.ascii	"long unsigned int\000"
 1960      20756E73 
 1960      69676E65 
 1960      6420696E 
 1960      7400
 1961              	.LASF52:
 1962 017a 735F636E 		.ascii	"s_cnt\000"
 1962      7400
 1963              	.LASF48:
 1964 0180 636F6E74 		.ascii	"context\000"
 1964      65787400 
 1965              	.LASF66:
 1966 0188 73697A65 		.ascii	"size\000"
 1966      00
 1967              	.LASF6:
 1968 018d 73686F72 		.ascii	"short unsigned int\000"
 1968      7420756E 
 1968      7369676E 
ARM GAS  /tmp/ccx0Simk.s 			page 37


 1968      65642069 
 1968      6E7400
 1969              	.LASF84:
 1970 01a0 63685365 		.ascii	"chSemReset\000"
 1970      6D526573 
 1970      657400
 1971              	.LASF19:
 1972 01ab 6D73675F 		.ascii	"msg_t\000"
 1972      7400
 1973              	.LASF14:
 1974 01b1 746D6F64 		.ascii	"tmode_t\000"
 1974      655F7400 
 1975              	.LASF44:
 1976 01b9 54687265 		.ascii	"ThreadsList\000"
 1976      6164734C 
 1976      69737400 
 1977              	.LASF20:
 1978 01c5 6576656E 		.ascii	"eventmask_t\000"
 1978      746D6173 
 1978      6B5F7400 
 1979              	.LASF90:
 1980 01d1 2F686F6D 		.ascii	"/home/kwilson/Sandbox/ChibiOS_2.5.1/demos/ARMCM4-ST"
 1980      652F6B77 
 1980      696C736F 
 1980      6E2F5361 
 1980      6E64626F 
 1981 0204 4D333246 		.ascii	"M32F407-LWIP-FATFS-USB\000"
 1981      3430372D 
 1981      4C574950 
 1981      2D464154 
 1981      46532D55 
 1982              	.LASF53:
 1983 021b 4D757465 		.ascii	"Mutex\000"
 1983      7800
 1984              	.LASF46:
 1985 0221 73746B61 		.ascii	"stkalign_t\000"
 1985      6C69676E 
 1985      5F7400
 1986              	.LASF49:
 1987 022c 73697A65 		.ascii	"sizetype\000"
 1987      74797065 
 1987      00
 1988              	.LASF81:
 1989 0235 6D626C6F 		.ascii	"mblock\000"
 1989      636B00
 1990              	.LASF29:
 1991 023c 705F6F6C 		.ascii	"p_older\000"
 1991      64657200 
 1992              	.LASF43:
 1993 0244 54687265 		.ascii	"ThreadsQueue\000"
 1993      61647351 
 1993      75657565 
 1993      00
 1994              	.LASF77:
 1995 0251 66665F72 		.ascii	"ff_req_grant\000"
 1995      65715F67 
 1995      72616E74 
ARM GAS  /tmp/ccx0Simk.s 			page 38


 1995      00
 1996              	.LASF82:
 1997 025e 66665F73 		.ascii	"ff_sem\000"
 1997      656D00
 1998              	.LASF88:
 1999 0265 474E5520 		.ascii	"GNU C 4.7.2\000"
 1999      4320342E 
 1999      372E3200 
 2000              	.LASF58:
 2001 0271 4D656D6F 		.ascii	"MemoryHeap\000"
 2001      72794865 
 2001      617000
 2002              	.LASF16:
 2003 027c 74726566 		.ascii	"trefs_t\000"
 2003      735F7400 
 2004              	.LASF25:
 2005 0284 705F7072 		.ascii	"p_prev\000"
 2005      657600
 2006              	.LASF18:
 2007 028b 74707269 		.ascii	"tprio_t\000"
 2007      6F5F7400 
 2008              	.LASF7:
 2009 0293 696E7433 		.ascii	"int32_t\000"
 2009      325F7400 
 2010              	.LASF4:
 2011 029b 756E7369 		.ascii	"unsigned char\000"
 2011      676E6564 
 2011      20636861 
 2011      7200
 2012              	.LASF60:
 2013 02a9 685F7072 		.ascii	"h_provider\000"
 2013      6F766964 
 2013      657200
 2014              	.LASF40:
 2015 02b4 705F6D74 		.ascii	"p_mtxlist\000"
 2015      786C6973 
 2015      7400
 2016              	.LASF5:
 2017 02be 73686F72 		.ascii	"short int\000"
 2017      7420696E 
 2017      7400
 2018              	.LASF31:
 2019 02c8 705F7374 		.ascii	"p_state\000"
 2019      61746500 
 2020              	.LASF34:
 2021 02d0 705F7072 		.ascii	"p_preempt\000"
 2021      65656D70 
 2021      7400
 2022              	.LASF91:
 2023 02da 68656170 		.ascii	"heap_header\000"
 2023      5F686561 
 2023      64657200 
 2024              	.LASF79:
 2025 02e6 66665F72 		.ascii	"ff_rel_grant\000"
 2025      656C5F67 
 2025      72616E74 
 2025      00
ARM GAS  /tmp/ccx0Simk.s 			page 39


 2026              	.LASF70:
 2027 02f3 65776D61 		.ascii	"ewmask\000"
 2027      736B00
 2028              	.LASF24:
 2029 02fa 705F6E65 		.ascii	"p_next\000"
 2029      787400
 2030              	.LASF32:
 2031 0301 705F666C 		.ascii	"p_flags\000"
 2031      61677300 
 2032              	.LASF23:
 2033 0309 54687265 		.ascii	"Thread\000"
 2033      616400
 2034              	.LASF87:
 2035 0310 63684865 		.ascii	"chHeapAlloc\000"
 2035      6170416C 
 2035      6C6F6300 
 2036              	.LASF39:
 2037 031c 705F6570 		.ascii	"p_epending\000"
 2037      656E6469 
 2037      6E6700
 2038              	.LASF9:
 2039 0327 75696E74 		.ascii	"uint32_t\000"
 2039      33325F74 
 2039      00
 2040              	.LASF64:
 2041 0330 68656170 		.ascii	"heap\000"
 2041      00
 2042              	.LASF71:
 2043 0335 63686172 		.ascii	"char\000"
 2043      00
 2044              	.LASF56:
 2045 033a 6D5F6E65 		.ascii	"m_next\000"
 2045      787400
 2046              	.LASF21:
 2047 0341 73797374 		.ascii	"systime_t\000"
 2047      696D655F 
 2047      7400
 2048              	.LASF41:
 2049 034b 705F7265 		.ascii	"p_realprio\000"
 2049      616C7072 
 2049      696F00
 2050              	.LASF35:
 2051 0356 705F7469 		.ascii	"p_time\000"
 2051      6D6500
 2052              	.LASF47:
 2053 035d 696E7463 		.ascii	"intctx\000"
 2053      747800
 2054              	.LASF37:
 2055 0364 705F6D73 		.ascii	"p_msgqueue\000"
 2055      67717565 
 2055      756500
 2056              	.LASF50:
 2057 036f 53656D61 		.ascii	"Semaphore\000"
 2057      70686F72 
 2057      6500
 2058              	.LASF33:
 2059 0379 705F7265 		.ascii	"p_refs\000"
ARM GAS  /tmp/ccx0Simk.s 			page 40


 2059      667300
 2060              	.LASF3:
 2061 0380 75696E74 		.ascii	"uint8_t\000"
 2061      385F7400 
 2062              	.LASF69:
 2063 0388 77746F62 		.ascii	"wtobjp\000"
 2063      6A7000
 2064              	.LASF30:
 2065 038f 705F6E61 		.ascii	"p_name\000"
 2065      6D6500
 2066              	.LASF76:
 2067 0396 66665F64 		.ascii	"ff_del_syncobj\000"
 2067      656C5F73 
 2067      796E636F 
 2067      626A00
 2068              	.LASF55:
 2069 03a5 6D5F6F77 		.ascii	"m_owner\000"
 2069      6E657200 
 2070              	.LASF27:
 2071 03ad 705F6374 		.ascii	"p_ctx\000"
 2071      7800
 2072              	.LASF36:
 2073 03b3 705F7761 		.ascii	"p_waiting\000"
 2073      6974696E 
 2073      6700
 2074              	.LASF83:
 2075 03bd 63685365 		.ascii	"chSemInit\000"
 2075      6D496E69 
 2075      7400
 2076              	.LASF59:
 2077 03c7 6D656D6F 		.ascii	"memory_heap\000"
 2077      72795F68 
 2077      65617000 
 2078              		.ident	"GCC: (crosstool-NG 1.17.0 - PSAS ST32F4 GFE) 4.7.2"
ARM GAS  /tmp/ccx0Simk.s 			page 41


DEFINED SYMBOLS
                            *ABS*:0000000000000000 fatfs_syscall.c
     /tmp/ccx0Simk.s:21     .text.ff_cre_syncobj:0000000000000000 $t
     /tmp/ccx0Simk.s:27     .text.ff_cre_syncobj:0000000000000000 ff_cre_syncobj
     /tmp/ccx0Simk.s:192    .bss.ff_sem:0000000000000000 .LANCHOR0
     /tmp/ccx0Simk.s:59     .text.ff_del_syncobj:0000000000000000 $t
     /tmp/ccx0Simk.s:65     .text.ff_del_syncobj:0000000000000000 ff_del_syncobj
     /tmp/ccx0Simk.s:88     .text.ff_req_grant:0000000000000000 $t
     /tmp/ccx0Simk.s:94     .text.ff_req_grant:0000000000000000 ff_req_grant
     /tmp/ccx0Simk.s:120    .text.ff_rel_grant:0000000000000000 $t
     /tmp/ccx0Simk.s:126    .text.ff_rel_grant:0000000000000000 ff_rel_grant
     /tmp/ccx0Simk.s:142    .text.ff_memalloc:0000000000000000 $t
     /tmp/ccx0Simk.s:148    .text.ff_memalloc:0000000000000000 ff_memalloc
     /tmp/ccx0Simk.s:169    .text.ff_memfree:0000000000000000 $t
     /tmp/ccx0Simk.s:175    .text.ff_memfree:0000000000000000 ff_memfree
     /tmp/ccx0Simk.s:191    .bss.ff_sem:0000000000000000 $d
     /tmp/ccx0Simk.s:195    .bss.ff_sem:0000000000000000 ff_sem
                     .debug_frame:0000000000000010 $d

UNDEFINED SYMBOLS
chSemInit
chSemReset
chSemWaitTimeout
chSemSignal
chHeapAlloc
chHeapFree
