ARM GAS  /tmp/ccLY7hyD.s 			page 1


   1              		.syntax unified
   2              		.cpu cortex-m4
   3              		.eabi_attribute 27, 3
   4              		.eabi_attribute 28, 1
   5              		.fpu fpv4-sp-d16
   6              		.eabi_attribute 20, 1
   7              		.eabi_attribute 21, 1
   8              		.eabi_attribute 23, 3
   9              		.eabi_attribute 24, 1
  10              		.eabi_attribute 25, 1
  11              		.eabi_attribute 26, 1
  12              		.eabi_attribute 30, 2
  13              		.eabi_attribute 34, 1
  14              		.eabi_attribute 18, 4
  15              		.thumb
  16              		.file	"hal.c"
  17              		.text
  18              	.Ltext0:
  19              		.cfi_sections	.debug_frame
  20              		.section	.text.halInit,"ax",%progbits
  21              		.align	2
  22              		.p2align 4,,15
  23              		.global	halInit
  24              		.thumb
  25              		.thumb_func
  26              		.type	halInit, %function
  27              	halInit:
  28              	.LFB118:
  29              		.file 1 "../../os/hal/src/hal.c"
  30              		.loc 1 61 0
  31              		.cfi_startproc
  32              		@ args = 0, pretend = 0, frame = 0
  33              		@ frame_needed = 0, uses_anonymous_args = 0
  34 0000 08B5     		push	{r3, lr}
  35              	.LCFI0:
  36              		.cfi_def_cfa_offset 8
  37              		.cfi_offset 3, -8
  38              		.cfi_offset 14, -4
  39              		.loc 1 63 0
  40 0002 FFF7FEFF 		bl	hal_lld_init
  41              	.LVL0:
  42              		.loc 1 66 0
  43 0006 FFF7FEFF 		bl	tmInit
  44              	.LVL1:
  45              		.loc 1 69 0
  46 000a 40F20000 		movw	r0, #:lower16:pal_default_config
  47 000e C0F20000 		movt	r0, #:upper16:pal_default_config
  48 0012 FFF7FEFF 		bl	_pal_lld_init
  49              	.LVL2:
  50              		.loc 1 90 0
  51 0016 FFF7FEFF 		bl	macInit
  52              	.LVL3:
  53              		.loc 1 96 0
  54 001a FFF7FEFF 		bl	sdInit
  55              	.LVL4:
  56              		.loc 1 99 0
  57 001e FFF7FEFF 		bl	sdcInit
ARM GAS  /tmp/ccLY7hyD.s 			page 2


  58              	.LVL5:
  59              		.loc 1 108 0
  60 0022 FFF7FEFF 		bl	usbInit
  61              	.LVL6:
  62              		.loc 1 114 0
  63 0026 FFF7FEFF 		bl	sduInit
  64              	.LVL7:
  65              		.loc 1 121 0
  66 002a BDE80840 		pop	{r3, lr}
  67              		.loc 1 120 0
  68 002e FFF7FEBF 		b	boardInit
  69              	.LVL8:
  70              		.cfi_endproc
  71              	.LFE118:
  72              		.size	halInit, .-halInit
  73 0032 00BFAFF3 		.section	.text.halIsCounterWithin,"ax",%progbits
  73      0080AFF3 
  73      0080AFF3 
  73      0080
  74              		.align	2
  75              		.p2align 4,,15
  76              		.global	halIsCounterWithin
  77              		.thumb
  78              		.thumb_func
  79              		.type	halIsCounterWithin, %function
  80              	halIsCounterWithin:
  81              	.LFB119:
  82              		.loc 1 167 0
  83              		.cfi_startproc
  84              		@ args = 0, pretend = 0, frame = 0
  85              		@ frame_needed = 0, uses_anonymous_args = 0
  86              		@ link register save eliminated.
  87              	.LVL9:
  88              		.loc 1 168 0
  89 0000 4FF48053 		mov	r3, #4096
  90 0004 CEF20003 		movt	r3, 57344
  91              		.loc 1 170 0
  92 0008 8142     		cmp	r1, r0
  93              		.loc 1 167 0
  94 000a 0246     		mov	r2, r0
  95              		.loc 1 168 0
  96 000c 5B68     		ldr	r3, [r3, #4]
  97              	.LVL10:
  98              		.loc 1 170 0
  99 000e 09D8     		bhi	.L6
 100              		.loc 1 171 0 discriminator 2
 101 0010 8342     		cmp	r3, r0
 102 0012 34BF     		ite	cc
 103 0014 0022     		movcc	r2, #0
 104 0016 0122     		movcs	r2, #1
 105              		.loc 1 170 0 discriminator 2
 106 0018 8B42     		cmp	r3, r1
 107 001a 2CBF     		ite	cs
 108 001c 1046     		movcs	r0, r2
 109 001e 42F00100 		orrcc	r0, r2, #1
 110              	.LVL11:
 111              		.loc 1 172 0 discriminator 2
ARM GAS  /tmp/ccLY7hyD.s 			page 3


 112 0022 7047     		bx	lr
 113              	.LVL12:
 114              	.L6:
 115              		.loc 1 170 0 discriminator 1
 116 0024 8B42     		cmp	r3, r1
 117 0026 2CBF     		ite	cs
 118 0028 0020     		movcs	r0, #0
 119              	.LVL13:
 120 002a 0120     		movcc	r0, #1
 121 002c 9342     		cmp	r3, r2
 122 002e 38BF     		it	cc
 123 0030 0020     		movcc	r0, #0
 124 0032 7047     		bx	lr
 125              		.cfi_endproc
 126              	.LFE119:
 127              		.size	halIsCounterWithin, .-halIsCounterWithin
 128 0034 AFF30080 		.section	.text.halPolledDelay,"ax",%progbits
 128      AFF30080 
 128      AFF30080 
 129              		.align	2
 130              		.p2align 4,,15
 131              		.global	halPolledDelay
 132              		.thumb
 133              		.thumb_func
 134              		.type	halPolledDelay, %function
 135              	halPolledDelay:
 136              	.LFB120:
 137              		.loc 1 186 0
 138              		.cfi_startproc
 139              		@ args = 0, pretend = 0, frame = 0
 140              		@ frame_needed = 0, uses_anonymous_args = 0
 141              		@ link register save eliminated.
 142              	.LVL14:
 143              		.loc 1 187 0
 144 0000 4FF48053 		mov	r3, #4096
 145 0004 CEF20003 		movt	r3, 57344
 146              		.loc 1 186 0
 147 0008 10B4     		push	{r4}
 148              	.LCFI1:
 149              		.cfi_def_cfa_offset 4
 150              		.cfi_offset 4, -4
 151              		.loc 1 187 0
 152 000a 5A68     		ldr	r2, [r3, #4]
 153              	.LVL15:
 154              	.LBB4:
 155              	.LBB5:
 156              		.loc 1 168 0
 157 000c 1C46     		mov	r4, r3
 158              	.LBE5:
 159              	.LBE4:
 160              		.loc 1 188 0
 161 000e 8018     		adds	r0, r0, r2
 162              	.LVL16:
 163              	.L10:
 164              	.LBB8:
 165              	.LBB6:
 166              		.loc 1 170 0 discriminator 1
ARM GAS  /tmp/ccLY7hyD.s 			page 4


 167 0010 8242     		cmp	r2, r0
 168              		.loc 1 168 0 discriminator 1
 169 0012 6368     		ldr	r3, [r4, #4]
 170              	.LVL17:
 171              		.loc 1 170 0 discriminator 1
 172 0014 0AD2     		bcs	.L8
 173              		.loc 1 170 0 is_stmt 0
 174 0016 9842     		cmp	r0, r3
 175 0018 94BF     		ite	ls
 176 001a 0021     		movls	r1, #0
 177 001c 0121     		movhi	r1, #1
 178 001e 9A42     		cmp	r2, r3
 179 0020 88BF     		it	hi
 180 0022 0021     		movhi	r1, #0
 181              	.LBE6:
 182              	.LBE8:
 183              		.loc 1 189 0 is_stmt 1
 184 0024 0029     		cmp	r1, #0
 185 0026 F3D1     		bne	.L10
 186              	.L12:
 187              		.loc 1 191 0
 188 0028 10BC     		pop	{r4}
 189 002a 7047     		bx	lr
 190              	.L8:
 191              	.LBB9:
 192              	.LBB7:
 193              		.loc 1 171 0
 194 002c 9A42     		cmp	r2, r3
 195 002e 8CBF     		ite	hi
 196 0030 0021     		movhi	r1, #0
 197 0032 0121     		movls	r1, #1
 198              		.loc 1 170 0
 199 0034 9842     		cmp	r0, r3
 200 0036 88BF     		it	hi
 201 0038 41F00101 		orrhi	r1, r1, #1
 202              	.LBE7:
 203              	.LBE9:
 204              		.loc 1 189 0
 205 003c 0029     		cmp	r1, #0
 206 003e E7D1     		bne	.L10
 207 0040 F2E7     		b	.L12
 208              		.cfi_endproc
 209              	.LFE120:
 210              		.size	halPolledDelay, .-halPolledDelay
 211 0042 00BFAFF3 		.text
 211      0080AFF3 
 211      0080AFF3 
 211      0080
 212              	.Letext0:
 213              		.file 2 "/opt/psas/x-tools/stm32f407/arm-psas-eabi/bin/../lib/gcc/arm-psas-eabi/4.7.2/../../../../
 214              		.file 3 "../../os/ports/GCC/ARMCMx/chtypes.h"
 215              		.file 4 "../../os/ports/common/ARMCMx/nvic.h"
 216              		.file 5 "../../os/hal/platforms/STM32F4xx/hal_lld.h"
 217              		.file 6 "../../os/hal/platforms/STM32/GPIOv2/pal_lld.h"
 218              		.file 7 "../../os/ports/common/ARMCMx/CMSIS/include/core_cm4.h"
 219              		.file 8 "../../os/hal/include/tm.h"
 220              		.file 9 "../../os/hal/include/mac.h"
ARM GAS  /tmp/ccLY7hyD.s 			page 5


 221              		.file 10 "../../os/hal/include/serial.h"
 222              		.file 11 "../../os/hal/include/sdc.h"
 223              		.file 12 "../../os/hal/include/usb.h"
 224              		.file 13 "../../os/hal/include/serial_usb.h"
 225              		.file 14 "../../boards/OLIMEX_STM32_E407/board.h"