ARM GAS  /tmp/cceEXTDv.s 			page 1


   1              		.syntax unified
   2              		.cpu cortex-m4
   3              		.eabi_attribute 27, 3
   4              		.eabi_attribute 28, 1
   5              		.fpu fpv4-sp-d16
   6              		.eabi_attribute 20, 1
   7              		.eabi_attribute 21, 1
   8              		.eabi_attribute 23, 3
   9              		.eabi_attribute 24, 1
  10              		.eabi_attribute 25, 1
  11              		.eabi_attribute 26, 1
  12              		.eabi_attribute 30, 2
  13              		.eabi_attribute 34, 1
  14              		.eabi_attribute 18, 4
  15              		.thumb
  16              		.file	"hal_lld.c"
  17              		.text
  18              	.Ltext0:
  19              		.cfi_sections	.debug_frame
  20              		.section	.text.hal_lld_init,"ax",%progbits
  21              		.align	2
  22              		.p2align 4,,15
  23              		.global	hal_lld_init
  24              		.thumb
  25              		.thumb_func
  26              		.type	hal_lld_init, %function
  27              	hal_lld_init:
  28              	.LFB119:
  29              		.file 1 "../../os/hal/platforms/STM32F4xx/hal_lld.c"
  30              		.loc 1 94 0
  31              		.cfi_startproc
  32              		@ args = 0, pretend = 0, frame = 0
  33              		@ frame_needed = 0, uses_anonymous_args = 0
  34              		@ link register save eliminated.
  35              		.loc 1 98 0
  36 0000 4FF46053 		mov	r3, #14336
  37 0004 C4F20203 		movt	r3, 16386
  38 0008 0022     		movs	r2, #0
  39 000a 1969     		ldr	r1, [r3, #16]
  40 000c 41F00101 		orr	r1, r1, #1
  41              		.loc 1 94 0
  42 0010 30B4     		push	{r4, r5}
  43              	.LCFI0:
  44              		.cfi_def_cfa_offset 8
  45              		.cfi_offset 4, -8
  46              		.cfi_offset 5, -4
  47              		.loc 1 98 0
  48 0012 1961     		str	r1, [r3, #16]
  49 0014 1A61     		str	r2, [r3, #16]
  50              		.loc 1 99 0
  51 0016 5969     		ldr	r1, [r3, #20]
  52 0018 41F00101 		orr	r1, r1, #1
  53 001c 5961     		str	r1, [r3, #20]
  54 001e 5A61     		str	r2, [r3, #20]
  55              		.loc 1 100 0
  56 0020 9969     		ldr	r1, [r3, #24]
  57 0022 41F00101 		orr	r1, r1, #1
ARM GAS  /tmp/cceEXTDv.s 			page 2


  58 0026 9961     		str	r1, [r3, #24]
  59 0028 9A61     		str	r2, [r3, #24]
  60              		.loc 1 101 0
  61 002a 196A     		ldr	r1, [r3, #32]
  62 002c 1962     		str	r1, [r3, #32]
  63 002e 1A62     		str	r2, [r3, #32]
  64              		.loc 1 102 0
  65 0030 5D6A     		ldr	r5, [r3, #36]
  66              		.loc 1 105 0
  67 0032 4EF21001 		movw	r1, #57360
  68 0036 CEF20001 		movt	r1, 57344
  69 003a 49F23F04 		movw	r4, #36927
  70 003e C0F20204 		movt	r4, 2
  71              		.loc 1 112 0
  72 0042 4EF6F050 		movw	r0, #60912
  73              		.loc 1 102 0
  74 0046 45F00105 		orr	r5, r5, #1
  75 004a 5D62     		str	r5, [r3, #36]
  76              		.loc 1 112 0
  77 004c CEF20000 		movt	r0, 57344
  78              		.loc 1 102 0
  79 0050 5A62     		str	r2, [r3, #36]
  80              		.loc 1 105 0
  81 0052 4C60     		str	r4, [r1, #4]
  82              		.loc 1 107 0
  83 0054 0724     		movs	r4, #7
  84              		.loc 1 106 0
  85 0056 8A60     		str	r2, [r1, #8]
  86              		.loc 1 107 0
  87 0058 0C60     		str	r4, [r1, #0]
  88              		.loc 1 112 0
  89 005a C468     		ldr	r4, [r0, #12]
  90              		.loc 1 113 0
  91 005c 4FF48051 		mov	r1, #4096
  92 0060 CEF20001 		movt	r1, 57344
  93              		.loc 1 112 0
  94 0064 44F08074 		orr	r4, r4, #16777216
  95 0068 C460     		str	r4, [r0, #12]
  96              		.loc 1 113 0
  97 006a 0868     		ldr	r0, [r1, #0]
  98 006c 40F00100 		orr	r0, r0, #1
  99 0070 0860     		str	r0, [r1, #0]
 100              		.loc 1 116 0
 101 0072 186C     		ldr	r0, [r3, #64]
 102              	.LBB4:
 103              	.LBB5:
 104              		.loc 1 52 0
 105 0074 4FF4E041 		mov	r1, #28672
 106 0078 C4F20001 		movt	r1, 16384
 107              	.LBE5:
 108              	.LBE4:
 109              		.loc 1 116 0
 110 007c 40F08050 		orr	r0, r0, #268435456
 111 0080 1864     		str	r0, [r3, #64]
 112              	.LBB7:
 113              	.LBB6:
 114              		.loc 1 52 0
ARM GAS  /tmp/cceEXTDv.s 			page 3


 115 0082 0868     		ldr	r0, [r1, #0]
 116 0084 40F48070 		orr	r0, r0, #256
 117 0088 0860     		str	r0, [r1, #0]
 118              		.loc 1 55 0
 119 008a 196F     		ldr	r1, [r3, #112]
 120 008c 01F44071 		and	r1, r1, #768
 121 0090 B1F5007F 		cmp	r1, #512
 122              		.loc 1 57 0
 123 0094 1EBF     		ittt	ne
 124 0096 4FF48031 		movne	r1, #65536
 125 009a 1967     		strne	r1, [r3, #112]
 126              		.loc 1 58 0
 127 009c 1A67     		strne	r2, [r3, #112]
 128              		.loc 1 71 0
 129 009e 4FF46053 		mov	r3, #14336
 130 00a2 C4F20203 		movt	r3, 16386
 131 00a6 1A6F     		ldr	r2, [r3, #112]
 132 00a8 1204     		lsls	r2, r2, #16
 133 00aa 07D4     		bmi	.L3
 134              		.loc 1 73 0
 135 00ac 1A6F     		ldr	r2, [r3, #112]
 136 00ae 42F40072 		orr	r2, r2, #512
 137 00b2 1A67     		str	r2, [r3, #112]
 138              		.loc 1 76 0
 139 00b4 1A6F     		ldr	r2, [r3, #112]
 140 00b6 42F40042 		orr	r2, r2, #32768
 141 00ba 1A67     		str	r2, [r3, #112]
 142              	.L3:
 143              	.LBE6:
 144              	.LBE7:
 145              		.loc 1 129 0
 146 00bc 30BC     		pop	{r4, r5}
 147              		.loc 1 122 0
 148 00be FFF7FEBF 		b	dmaInit
 149              	.LVL0:
 150              		.cfi_endproc
 151              	.LFE119:
 152              		.size	hal_lld_init, .-hal_lld_init
 153 00c2 00BFAFF3 		.section	.text.stm32_clock_init,"ax",%progbits
 153      0080AFF3 
 153      0080AFF3 
 153      0080
 154              		.align	2
 155              		.p2align 4,,15
 156              		.global	stm32_clock_init
 157              		.thumb
 158              		.thumb_func
 159              		.type	stm32_clock_init, %function
 160              	stm32_clock_init:
 161              	.LFB120:
 162              		.loc 1 138 0
 163              		.cfi_startproc
 164              		@ args = 0, pretend = 0, frame = 0
 165              		@ frame_needed = 0, uses_anonymous_args = 0
 166              		@ link register save eliminated.
 167              		.loc 1 142 0
 168 0000 4FF46052 		mov	r2, #14336
ARM GAS  /tmp/cceEXTDv.s 			page 4


 169 0004 C4F20202 		movt	r2, 16386
 170              		.loc 1 146 0
 171 0008 4FF4E043 		mov	r3, #28672
 172 000c C4F20003 		movt	r3, 16384
 173              		.loc 1 142 0
 174 0010 4FF08051 		mov	r1, #268435456
 175 0014 1164     		str	r1, [r2, #64]
 176              		.loc 1 146 0
 177 0016 4FF48041 		mov	r1, #16384
 178              		.loc 1 147 0
 179 001a 1A46     		mov	r2, r3
 180              		.loc 1 146 0
 181 001c 1960     		str	r1, [r3, #0]
 182              	.L9:
 183              		.loc 1 147 0 discriminator 1
 184 001e 5368     		ldr	r3, [r2, #4]
 185 0020 5B04     		lsls	r3, r3, #17
 186 0022 FCD5     		bpl	.L9
 187              		.loc 1 155 0
 188 0024 4FF46053 		mov	r3, #14336
 189 0028 C4F20203 		movt	r3, 16386
 190              		.loc 1 156 0
 191 002c 1946     		mov	r1, r3
 192              		.loc 1 155 0
 193 002e 1A68     		ldr	r2, [r3, #0]
 194 0030 42F00102 		orr	r2, r2, #1
 195 0034 1A60     		str	r2, [r3, #0]
 196              	.L10:
 197              		.loc 1 156 0 discriminator 1
 198 0036 0A68     		ldr	r2, [r1, #0]
 199 0038 4FF46053 		mov	r3, #14336
 200 003c 9007     		lsls	r0, r2, #30
 201 003e C4F20203 		movt	r3, 16386
 202 0042 F8D5     		bpl	.L10
 203              		.loc 1 166 0
 204 0044 1A68     		ldr	r2, [r3, #0]
 205 0046 42F48032 		orr	r2, r2, #65536
 206 004a 1A60     		str	r2, [r3, #0]
 207              		.loc 1 168 0
 208 004c 1946     		mov	r1, r3
 209              	.L11:
 210              		.loc 1 168 0 is_stmt 0 discriminator 1
 211 004e 0A68     		ldr	r2, [r1, #0]
 212 0050 4FF46053 		mov	r3, #14336
 213 0054 9203     		lsls	r2, r2, #14
 214 0056 C4F20203 		movt	r3, 16386
 215 005a F8D5     		bpl	.L11
 216              		.loc 1 174 0 is_stmt 1
 217 005c 5A6F     		ldr	r2, [r3, #116]
 218 005e 42F00102 		orr	r2, r2, #1
 219 0062 5A67     		str	r2, [r3, #116]
 220              		.loc 1 175 0
 221 0064 1946     		mov	r1, r3
 222              	.L12:
 223              		.loc 1 175 0 is_stmt 0 discriminator 1
 224 0066 4A6F     		ldr	r2, [r1, #116]
 225 0068 4FF46053 		mov	r3, #14336
ARM GAS  /tmp/cceEXTDv.s 			page 5


 226 006c 9007     		lsls	r0, r2, #30
 227 006e C4F20203 		movt	r3, 16386
 228 0072 F8D5     		bpl	.L12
 229              		.loc 1 192 0 is_stmt 1
 230 0074 45F20C42 		movw	r2, #21516
 231 0078 C0F24072 		movt	r2, 1856
 232 007c 5A60     		str	r2, [r3, #4]
 233              		.loc 1 194 0
 234 007e 1A68     		ldr	r2, [r3, #0]
 235 0080 42F08072 		orr	r2, r2, #16777216
 236 0084 1A60     		str	r2, [r3, #0]
 237              	.L13:
 238              		.loc 1 195 0 discriminator 1
 239 0086 1968     		ldr	r1, [r3, #0]
 240 0088 4FF46052 		mov	r2, #14336
 241 008c 8901     		lsls	r1, r1, #6
 242 008e C4F20202 		movt	r2, 16386
 243 0092 F8D5     		bpl	.L13
 244              		.loc 1 208 0
 245 0094 9068     		ldr	r0, [r2, #8]
 246 0096 4FF41443 		mov	r3, #37888
 247 009a C3F60803 		movt	r3, 14344
 248              		.loc 1 214 0
 249 009e 4FF40051 		mov	r1, #8192
 250              		.loc 1 208 0
 251 00a2 0343     		orrs	r3, r3, r0
 252              		.loc 1 214 0
 253 00a4 CEF20401 		movt	r1, 57348
 254              		.loc 1 208 0
 255 00a8 9360     		str	r3, [r2, #8]
 256              		.loc 1 214 0
 257 00aa 0A68     		ldr	r2, [r1, #0]
 258 00ac 46F21143 		movw	r3, #25617
 259 00b0 C2F20003 		movt	r3, 8192
 260 00b4 9A42     		cmp	r2, r3
 261 00b6 21D0     		beq	.L38
 262              	.L14:
 263              		.loc 1 217 0
 264 00b8 4FF47053 		mov	r3, #15360
 265 00bc C4F20203 		movt	r3, 16386
 266 00c0 40F20572 		movw	r2, #1797
 267 00c4 1A60     		str	r2, [r3, #0]
 268              	.L15:
 269              		.loc 1 222 0
 270 00c6 4FF46053 		mov	r3, #14336
 271 00ca C4F20203 		movt	r3, 16386
 272              		.loc 1 223 0
 273 00ce 1946     		mov	r1, r3
 274              		.loc 1 222 0
 275 00d0 9A68     		ldr	r2, [r3, #8]
 276 00d2 42F00202 		orr	r2, r2, #2
 277 00d6 9A60     		str	r2, [r3, #8]
 278              	.L16:
 279              		.loc 1 223 0 discriminator 1
 280 00d8 8A68     		ldr	r2, [r1, #8]
 281 00da 02F00C02 		and	r2, r2, #12
 282 00de 4FF46053 		mov	r3, #14336
ARM GAS  /tmp/cceEXTDv.s 			page 6


 283 00e2 082A     		cmp	r2, #8
 284 00e4 C4F20203 		movt	r3, 16386
 285 00e8 F6D1     		bne	.L16
 286              		.loc 1 230 0
 287 00ea 5A6C     		ldr	r2, [r3, #68]
 288 00ec 42F48042 		orr	r2, r2, #16384
 289 00f0 5A64     		str	r2, [r3, #68]
 290 00f2 5A6E     		ldr	r2, [r3, #100]
 291 00f4 42F48042 		orr	r2, r2, #16384
 292 00f8 5A66     		str	r2, [r3, #100]
 293 00fa 7047     		bx	lr
 294              	.L38:
 295              		.loc 1 214 0 discriminator 1
 296 00fc 4FF46D42 		mov	r2, #60672
 297 0100 CEF20002 		movt	r2, 57344
 298 0104 4CF24123 		movw	r3, #49729
 299 0108 1268     		ldr	r2, [r2, #0]
 300 010a C4F20F13 		movt	r3, 16655
 301 010e 9A42     		cmp	r2, r3
 302 0110 D2D1     		bne	.L14
 303              		.loc 1 215 0
 304 0112 4FF47053 		mov	r3, #15360
 305 0116 C4F20203 		movt	r3, 16386
 306 011a 40F20512 		movw	r2, #261
 307 011e 1A60     		str	r2, [r3, #0]
 308 0120 D1E7     		b	.L15
 309              		.cfi_endproc
 310              	.LFE120:
 311              		.size	stm32_clock_init, .-stm32_clock_init
 312 0122 00BFAFF3 		.text
 312      0080AFF3 
 312      0080AFF3 
 312      0080
 313              	.Letext0:
 314              		.file 2 "/opt/psas/x-tools/stm32f407/arm-psas-eabi/bin/../lib/gcc/arm-psas-eabi/4.7.2/../../../../
 315              		.file 3 "../../os/ports/common/ARMCMx/nvic.h"
 316              		.file 4 "../../os/ports/common/ARMCMx/CMSIS/include/core_cm4.h"
 317              		.file 5 "../../os/hal/platforms/STM32F4xx/stm32f4xx.h"
 318              		.file 6 "../../os/hal/platforms/STM32F4xx/stm32_dma.h"
 319              		.section	.debug_info,"",%progbits
 320              	.Ldebug_info0:
 321 0000 D6060000 		.4byte	0x6d6
 322 0004 0200     		.2byte	0x2
 323 0006 00000000 		.4byte	.Ldebug_abbrev0
 324 000a 04       		.byte	0x4
 325 000b 01       		.uleb128 0x1
 326 000c 47020000 		.4byte	.LASF85
 327 0010 01       		.byte	0x1
 328 0011 D5010000 		.4byte	.LASF86
 329 0015 0C010000 		.4byte	.LASF87
 330 0019 18000000 		.4byte	.Ldebug_ranges0+0x18
 331 001d 00000000 		.4byte	0
 332 0021 00000000 		.4byte	0
 333 0025 00000000 		.4byte	.Ldebug_line0
 334 0029 02       		.uleb128 0x2
 335 002a 04       		.byte	0x4
 336 002b 05       		.byte	0x5
ARM GAS  /tmp/cceEXTDv.s 			page 7


 337 002c 696E7400 		.ascii	"int\000"
 338 0030 03       		.uleb128 0x3
 339 0031 04       		.byte	0x4
 340 0032 07       		.byte	0x7
 341 0033 31020000 		.4byte	.LASF0
 342 0037 03       		.uleb128 0x3
 343 0038 01       		.byte	0x1
 344 0039 06       		.byte	0x6
 345 003a 08020000 		.4byte	.LASF1
 346 003e 04       		.uleb128 0x4
 347 003f 8C000000 		.4byte	.LASF4
 348 0043 02       		.byte	0x2
 349 0044 2A       		.byte	0x2a
 350 0045 49000000 		.4byte	0x49
 351 0049 03       		.uleb128 0x3
 352 004a 01       		.byte	0x1
 353 004b 08       		.byte	0x8
 354 004c C7010000 		.4byte	.LASF2
 355 0050 03       		.uleb128 0x3
 356 0051 02       		.byte	0x2
 357 0052 05       		.byte	0x5
 358 0053 21000000 		.4byte	.LASF3
 359 0057 04       		.uleb128 0x4
 360 0058 3E020000 		.4byte	.LASF5
 361 005c 02       		.byte	0x2
 362 005d 36       		.byte	0x36
 363 005e 62000000 		.4byte	0x62
 364 0062 03       		.uleb128 0x3
 365 0063 02       		.byte	0x2
 366 0064 07       		.byte	0x7
 367 0065 8D020000 		.4byte	.LASF6
 368 0069 04       		.uleb128 0x4
 369 006a BC020000 		.4byte	.LASF7
 370 006e 02       		.byte	0x2
 371 006f 4F       		.byte	0x4f
 372 0070 74000000 		.4byte	0x74
 373 0074 03       		.uleb128 0x3
 374 0075 04       		.byte	0x4
 375 0076 05       		.byte	0x5
 376 0077 61010000 		.4byte	.LASF8
 377 007b 04       		.uleb128 0x4
 378 007c B3000000 		.4byte	.LASF9
 379 0080 02       		.byte	0x2
 380 0081 50       		.byte	0x50
 381 0082 86000000 		.4byte	0x86
 382 0086 03       		.uleb128 0x3
 383 0087 04       		.byte	0x4
 384 0088 07       		.byte	0x7
 385 0089 53020000 		.4byte	.LASF10
 386 008d 03       		.uleb128 0x3
 387 008e 08       		.byte	0x8
 388 008f 05       		.byte	0x5
 389 0090 F1000000 		.4byte	.LASF11
 390 0094 03       		.uleb128 0x3
 391 0095 08       		.byte	0x8
 392 0096 07       		.byte	0x7
 393 0097 14020000 		.4byte	.LASF12
ARM GAS  /tmp/cceEXTDv.s 			page 8


 394 009b 04       		.uleb128 0x4
 395 009c A5010000 		.4byte	.LASF13
 396 00a0 03       		.byte	0x3
 397 00a1 33       		.byte	0x33
 398 00a2 A6000000 		.4byte	0xa6
 399 00a6 05       		.uleb128 0x5
 400 00a7 7B000000 		.4byte	0x7b
 401 00ab 03       		.uleb128 0x3
 402 00ac 04       		.byte	0x4
 403 00ad 07       		.byte	0x7
 404 00ae 2B000000 		.4byte	.LASF14
 405 00b2 06       		.uleb128 0x6
 406 00b3 10       		.byte	0x10
 407 00b4 03       		.byte	0x3
 408 00b5 EA       		.byte	0xea
 409 00b6 F3000000 		.4byte	0xf3
 410 00ba 07       		.uleb128 0x7
 411 00bb 5B010000 		.4byte	.LASF15
 412 00bf 03       		.byte	0x3
 413 00c0 EB       		.byte	0xeb
 414 00c1 9B000000 		.4byte	0x9b
 415 00c5 02       		.byte	0x2
 416 00c6 23       		.byte	0x23
 417 00c7 00       		.uleb128 0
 418 00c8 07       		.uleb128 0x7
 419 00c9 A5000000 		.4byte	.LASF16
 420 00cd 03       		.byte	0x3
 421 00ce EC       		.byte	0xec
 422 00cf 9B000000 		.4byte	0x9b
 423 00d3 02       		.byte	0x2
 424 00d4 23       		.byte	0x23
 425 00d5 04       		.uleb128 0x4
 426 00d6 07       		.uleb128 0x7
 427 00d7 DE000000 		.4byte	.LASF17
 428 00db 03       		.byte	0x3
 429 00dc ED       		.byte	0xed
 430 00dd 9B000000 		.4byte	0x9b
 431 00e1 02       		.byte	0x2
 432 00e2 23       		.byte	0x23
 433 00e3 08       		.uleb128 0x8
 434 00e4 07       		.uleb128 0x7
 435 00e5 1B000000 		.4byte	.LASF18
 436 00e9 03       		.byte	0x3
 437 00ea EE       		.byte	0xee
 438 00eb 9B000000 		.4byte	0x9b
 439 00ef 02       		.byte	0x2
 440 00f0 23       		.byte	0x23
 441 00f1 0C       		.uleb128 0xc
 442 00f2 00       		.byte	0
 443 00f3 04       		.uleb128 0x4
 444 00f4 AF020000 		.4byte	.LASF19
 445 00f8 03       		.byte	0x3
 446 00f9 EF       		.byte	0xef
 447 00fa B2000000 		.4byte	0xb2
 448 00fe 06       		.uleb128 0x6
 449 00ff 20       		.byte	0x20
 450 0100 03       		.byte	0x3
ARM GAS  /tmp/cceEXTDv.s 			page 9


 451 0101 FF       		.byte	0xff
 452 0102 7F010000 		.4byte	0x17f
 453 0106 08       		.uleb128 0x8
 454 0107 71000000 		.4byte	.LASF20
 455 010b 03       		.byte	0x3
 456 010c 0001     		.2byte	0x100
 457 010e 9B000000 		.4byte	0x9b
 458 0112 02       		.byte	0x2
 459 0113 23       		.byte	0x23
 460 0114 00       		.uleb128 0
 461 0115 08       		.uleb128 0x8
 462 0116 FF000000 		.4byte	.LASF21
 463 011a 03       		.byte	0x3
 464 011b 0101     		.2byte	0x101
 465 011d 9B000000 		.4byte	0x9b
 466 0121 02       		.byte	0x2
 467 0122 23       		.byte	0x23
 468 0123 04       		.uleb128 0x4
 469 0124 08       		.uleb128 0x8
 470 0125 85000000 		.4byte	.LASF22
 471 0129 03       		.byte	0x3
 472 012a 0201     		.2byte	0x102
 473 012c 9B000000 		.4byte	0x9b
 474 0130 02       		.byte	0x2
 475 0131 23       		.byte	0x23
 476 0132 08       		.uleb128 0x8
 477 0133 08       		.uleb128 0x8
 478 0134 BA010000 		.4byte	.LASF23
 479 0138 03       		.byte	0x3
 480 0139 0301     		.2byte	0x103
 481 013b 9B000000 		.4byte	0x9b
 482 013f 02       		.byte	0x2
 483 0140 23       		.byte	0x23
 484 0141 0C       		.uleb128 0xc
 485 0142 08       		.uleb128 0x8
 486 0143 3F030000 		.4byte	.LASF24
 487 0147 03       		.byte	0x3
 488 0148 0401     		.2byte	0x104
 489 014a 9B000000 		.4byte	0x9b
 490 014e 02       		.byte	0x2
 491 014f 23       		.byte	0x23
 492 0150 10       		.uleb128 0x10
 493 0151 08       		.uleb128 0x8
 494 0152 4F030000 		.4byte	.LASF25
 495 0156 03       		.byte	0x3
 496 0157 0501     		.2byte	0x105
 497 0159 9B000000 		.4byte	0x9b
 498 015d 02       		.byte	0x2
 499 015e 23       		.byte	0x23
 500 015f 14       		.uleb128 0x14
 501 0160 08       		.uleb128 0x8
 502 0161 3E000000 		.4byte	.LASF26
 503 0165 03       		.byte	0x3
 504 0166 0601     		.2byte	0x106
 505 0168 9B000000 		.4byte	0x9b
 506 016c 02       		.byte	0x2
 507 016d 23       		.byte	0x23
ARM GAS  /tmp/cceEXTDv.s 			page 10


 508 016e 18       		.uleb128 0x18
 509 016f 08       		.uleb128 0x8
 510 0170 39000000 		.4byte	.LASF27
 511 0174 03       		.byte	0x3
 512 0175 0701     		.2byte	0x107
 513 0177 9B000000 		.4byte	0x9b
 514 017b 02       		.byte	0x2
 515 017c 23       		.byte	0x23
 516 017d 1C       		.uleb128 0x1c
 517 017e 00       		.byte	0
 518 017f 09       		.uleb128 0x9
 519 0180 5D000000 		.4byte	.LASF28
 520 0184 03       		.byte	0x3
 521 0185 0801     		.2byte	0x108
 522 0187 FE000000 		.4byte	0xfe
 523 018b 03       		.uleb128 0x3
 524 018c 01       		.byte	0x1
 525 018d 08       		.byte	0x8
 526 018e AA020000 		.4byte	.LASF29
 527 0192 0A       		.uleb128 0xa
 528 0193 8C       		.byte	0x8c
 529 0194 04       		.byte	0x4
 530 0195 6101     		.2byte	0x161
 531 0197 D8020000 		.4byte	0x2d8
 532 019b 08       		.uleb128 0x8
 533 019c 6B000000 		.4byte	.LASF30
 534 01a0 04       		.byte	0x4
 535 01a1 6301     		.2byte	0x163
 536 01a3 D8020000 		.4byte	0x2d8
 537 01a7 02       		.byte	0x2
 538 01a8 23       		.byte	0x23
 539 01a9 00       		.uleb128 0
 540 01aa 08       		.uleb128 0x8
 541 01ab E4000000 		.4byte	.LASF31
 542 01af 04       		.byte	0x4
 543 01b0 6401     		.2byte	0x164
 544 01b2 A6000000 		.4byte	0xa6
 545 01b6 02       		.byte	0x2
 546 01b7 23       		.byte	0x23
 547 01b8 04       		.uleb128 0x4
 548 01b9 08       		.uleb128 0x8
 549 01ba B7020000 		.4byte	.LASF32
 550 01be 04       		.byte	0x4
 551 01bf 6501     		.2byte	0x165
 552 01c1 A6000000 		.4byte	0xa6
 553 01c5 02       		.byte	0x2
 554 01c6 23       		.byte	0x23
 555 01c7 08       		.uleb128 0x8
 556 01c8 08       		.uleb128 0x8
 557 01c9 C1010000 		.4byte	.LASF33
 558 01cd 04       		.byte	0x4
 559 01ce 6601     		.2byte	0x166
 560 01d0 A6000000 		.4byte	0xa6
 561 01d4 02       		.byte	0x2
 562 01d5 23       		.byte	0x23
 563 01d6 0C       		.uleb128 0xc
 564 01d7 0B       		.uleb128 0xb
ARM GAS  /tmp/cceEXTDv.s 			page 11


 565 01d8 53435200 		.ascii	"SCR\000"
 566 01dc 04       		.byte	0x4
 567 01dd 6701     		.2byte	0x167
 568 01df A6000000 		.4byte	0xa6
 569 01e3 02       		.byte	0x2
 570 01e4 23       		.byte	0x23
 571 01e5 10       		.uleb128 0x10
 572 01e6 0B       		.uleb128 0xb
 573 01e7 43435200 		.ascii	"CCR\000"
 574 01eb 04       		.byte	0x4
 575 01ec 6801     		.2byte	0x168
 576 01ee A6000000 		.4byte	0xa6
 577 01f2 02       		.byte	0x2
 578 01f3 23       		.byte	0x23
 579 01f4 14       		.uleb128 0x14
 580 01f5 0B       		.uleb128 0xb
 581 01f6 53485000 		.ascii	"SHP\000"
 582 01fa 04       		.byte	0x4
 583 01fb 6901     		.2byte	0x169
 584 01fd ED020000 		.4byte	0x2ed
 585 0201 02       		.byte	0x2
 586 0202 23       		.byte	0x23
 587 0203 18       		.uleb128 0x18
 588 0204 08       		.uleb128 0x8
 589 0205 2B020000 		.4byte	.LASF34
 590 0209 04       		.byte	0x4
 591 020a 6A01     		.2byte	0x16a
 592 020c A6000000 		.4byte	0xa6
 593 0210 02       		.byte	0x2
 594 0211 23       		.byte	0x23
 595 0212 24       		.uleb128 0x24
 596 0213 08       		.uleb128 0x8
 597 0214 97010000 		.4byte	.LASF35
 598 0218 04       		.byte	0x4
 599 0219 6B01     		.2byte	0x16b
 600 021b A6000000 		.4byte	0xa6
 601 021f 02       		.byte	0x2
 602 0220 23       		.byte	0x23
 603 0221 28       		.uleb128 0x28
 604 0222 08       		.uleb128 0x8
 605 0223 DD020000 		.4byte	.LASF36
 606 0227 04       		.byte	0x4
 607 0228 6C01     		.2byte	0x16c
 608 022a A6000000 		.4byte	0xa6
 609 022e 02       		.byte	0x2
 610 022f 23       		.byte	0x23
 611 0230 2C       		.uleb128 0x2c
 612 0231 08       		.uleb128 0x8
 613 0232 D8020000 		.4byte	.LASF37
 614 0236 04       		.byte	0x4
 615 0237 6D01     		.2byte	0x16d
 616 0239 A6000000 		.4byte	0xa6
 617 023d 02       		.byte	0x2
 618 023e 23       		.byte	0x23
 619 023f 30       		.uleb128 0x30
 620 0240 08       		.uleb128 0x8
 621 0241 65020000 		.4byte	.LASF38
ARM GAS  /tmp/cceEXTDv.s 			page 12


 622 0245 04       		.byte	0x4
 623 0246 6E01     		.2byte	0x16e
 624 0248 A6000000 		.4byte	0xa6
 625 024c 02       		.byte	0x2
 626 024d 23       		.byte	0x23
 627 024e 34       		.uleb128 0x34
 628 024f 08       		.uleb128 0x8
 629 0250 56010000 		.4byte	.LASF39
 630 0254 04       		.byte	0x4
 631 0255 6F01     		.2byte	0x16f
 632 0257 A6000000 		.4byte	0xa6
 633 025b 02       		.byte	0x2
 634 025c 23       		.byte	0x23
 635 025d 38       		.uleb128 0x38
 636 025e 08       		.uleb128 0x8
 637 025f 64030000 		.4byte	.LASF40
 638 0263 04       		.byte	0x4
 639 0264 7001     		.2byte	0x170
 640 0266 A6000000 		.4byte	0xa6
 641 026a 02       		.byte	0x2
 642 026b 23       		.byte	0x23
 643 026c 3C       		.uleb128 0x3c
 644 026d 0B       		.uleb128 0xb
 645 026e 50465200 		.ascii	"PFR\000"
 646 0272 04       		.byte	0x4
 647 0273 7101     		.2byte	0x171
 648 0275 02030000 		.4byte	0x302
 649 0279 02       		.byte	0x2
 650 027a 23       		.byte	0x23
 651 027b 40       		.uleb128 0x40
 652 027c 0B       		.uleb128 0xb
 653 027d 44465200 		.ascii	"DFR\000"
 654 0281 04       		.byte	0x4
 655 0282 7201     		.2byte	0x172
 656 0284 D8020000 		.4byte	0x2d8
 657 0288 02       		.byte	0x2
 658 0289 23       		.byte	0x23
 659 028a 48       		.uleb128 0x48
 660 028b 0B       		.uleb128 0xb
 661 028c 41445200 		.ascii	"ADR\000"
 662 0290 04       		.byte	0x4
 663 0291 7301     		.2byte	0x173
 664 0293 D8020000 		.4byte	0x2d8
 665 0297 02       		.byte	0x2
 666 0298 23       		.byte	0x23
 667 0299 4C       		.uleb128 0x4c
 668 029a 08       		.uleb128 0x8
 669 029b F4020000 		.4byte	.LASF41
 670 029f 04       		.byte	0x4
 671 02a0 7401     		.2byte	0x174
 672 02a2 1C030000 		.4byte	0x31c
 673 02a6 02       		.byte	0x2
 674 02a7 23       		.byte	0x23
 675 02a8 50       		.uleb128 0x50
 676 02a9 08       		.uleb128 0x8
 677 02aa C4020000 		.4byte	.LASF42
 678 02ae 04       		.byte	0x4
ARM GAS  /tmp/cceEXTDv.s 			page 13


 679 02af 7501     		.2byte	0x175
 680 02b1 36030000 		.4byte	0x336
 681 02b5 02       		.byte	0x2
 682 02b6 23       		.byte	0x23
 683 02b7 60       		.uleb128 0x60
 684 02b8 08       		.uleb128 0x8
 685 02b9 F9020000 		.4byte	.LASF43
 686 02bd 04       		.byte	0x4
 687 02be 7601     		.2byte	0x176
 688 02c0 26030000 		.4byte	0x326
 689 02c4 02       		.byte	0x2
 690 02c5 23       		.byte	0x23
 691 02c6 74       		.uleb128 0x74
 692 02c7 08       		.uleb128 0x8
 693 02c8 8D030000 		.4byte	.LASF44
 694 02cc 04       		.byte	0x4
 695 02cd 7701     		.2byte	0x177
 696 02cf A6000000 		.4byte	0xa6
 697 02d3 03       		.byte	0x3
 698 02d4 23       		.byte	0x23
 699 02d5 8801     		.uleb128 0x88
 700 02d7 00       		.byte	0
 701 02d8 0C       		.uleb128 0xc
 702 02d9 A6000000 		.4byte	0xa6
 703 02dd 0D       		.uleb128 0xd
 704 02de 3E000000 		.4byte	0x3e
 705 02e2 ED020000 		.4byte	0x2ed
 706 02e6 0E       		.uleb128 0xe
 707 02e7 AB000000 		.4byte	0xab
 708 02eb 0B       		.byte	0xb
 709 02ec 00       		.byte	0
 710 02ed 05       		.uleb128 0x5
 711 02ee DD020000 		.4byte	0x2dd
 712 02f2 0D       		.uleb128 0xd
 713 02f3 7B000000 		.4byte	0x7b
 714 02f7 02030000 		.4byte	0x302
 715 02fb 0E       		.uleb128 0xe
 716 02fc AB000000 		.4byte	0xab
 717 0300 01       		.byte	0x1
 718 0301 00       		.byte	0
 719 0302 0C       		.uleb128 0xc
 720 0303 07030000 		.4byte	0x307
 721 0307 05       		.uleb128 0x5
 722 0308 F2020000 		.4byte	0x2f2
 723 030c 0D       		.uleb128 0xd
 724 030d 7B000000 		.4byte	0x7b
 725 0311 1C030000 		.4byte	0x31c
 726 0315 0E       		.uleb128 0xe
 727 0316 AB000000 		.4byte	0xab
 728 031a 03       		.byte	0x3
 729 031b 00       		.byte	0
 730 031c 0C       		.uleb128 0xc
 731 031d 21030000 		.4byte	0x321
 732 0321 05       		.uleb128 0x5
 733 0322 0C030000 		.4byte	0x30c
 734 0326 0D       		.uleb128 0xd
 735 0327 7B000000 		.4byte	0x7b
ARM GAS  /tmp/cceEXTDv.s 			page 14


 736 032b 36030000 		.4byte	0x336
 737 032f 0E       		.uleb128 0xe
 738 0330 AB000000 		.4byte	0xab
 739 0334 04       		.byte	0x4
 740 0335 00       		.byte	0
 741 0336 0C       		.uleb128 0xc
 742 0337 3B030000 		.4byte	0x33b
 743 033b 05       		.uleb128 0x5
 744 033c 26030000 		.4byte	0x326
 745 0340 09       		.uleb128 0x9
 746 0341 94000000 		.4byte	.LASF45
 747 0345 04       		.byte	0x4
 748 0346 7801     		.2byte	0x178
 749 0348 92010000 		.4byte	0x192
 750 034c 0A       		.uleb128 0xa
 751 034d 10       		.byte	0x10
 752 034e 04       		.byte	0x4
 753 034f 6002     		.2byte	0x260
 754 0351 92030000 		.4byte	0x392
 755 0355 08       		.uleb128 0x8
 756 0356 71000000 		.4byte	.LASF20
 757 035a 04       		.byte	0x4
 758 035b 6202     		.2byte	0x262
 759 035d A6000000 		.4byte	0xa6
 760 0361 02       		.byte	0x2
 761 0362 23       		.byte	0x23
 762 0363 00       		.uleb128 0
 763 0364 08       		.uleb128 0x8
 764 0365 56030000 		.4byte	.LASF46
 765 0369 04       		.byte	0x4
 766 036a 6302     		.2byte	0x263
 767 036c A6000000 		.4byte	0xa6
 768 0370 02       		.byte	0x2
 769 0371 23       		.byte	0x23
 770 0372 04       		.uleb128 0x4
 771 0373 0B       		.uleb128 0xb
 772 0374 56414C00 		.ascii	"VAL\000"
 773 0378 04       		.byte	0x4
 774 0379 6402     		.2byte	0x264
 775 037b A6000000 		.4byte	0xa6
 776 037f 02       		.byte	0x2
 777 0380 23       		.byte	0x23
 778 0381 08       		.uleb128 0x8
 779 0382 08       		.uleb128 0x8
 780 0383 06010000 		.4byte	.LASF47
 781 0387 04       		.byte	0x4
 782 0388 6502     		.2byte	0x265
 783 038a D8020000 		.4byte	0x2d8
 784 038e 02       		.byte	0x2
 785 038f 23       		.byte	0x23
 786 0390 0C       		.uleb128 0xc
 787 0391 00       		.byte	0
 788 0392 09       		.uleb128 0x9
 789 0393 80020000 		.4byte	.LASF48
 790 0397 04       		.byte	0x4
 791 0398 6602     		.2byte	0x266
 792 039a 4C030000 		.4byte	0x34c
ARM GAS  /tmp/cceEXTDv.s 			page 15


 793 039e 05       		.uleb128 0x5
 794 039f 69000000 		.4byte	0x69
 795 03a3 0A       		.uleb128 0xa
 796 03a4 10       		.byte	0x10
 797 03a5 05       		.byte	0x5
 798 03a6 B401     		.2byte	0x1b4
 799 03a8 E8030000 		.4byte	0x3e8
 800 03ac 08       		.uleb128 0x8
 801 03ad 48030000 		.4byte	.LASF49
 802 03b1 05       		.byte	0x5
 803 03b2 B601     		.2byte	0x1b6
 804 03b4 A6000000 		.4byte	0xa6
 805 03b8 02       		.byte	0x2
 806 03b9 23       		.byte	0x23
 807 03ba 00       		.uleb128 0
 808 03bb 0B       		.uleb128 0xb
 809 03bc 435200   		.ascii	"CR\000"
 810 03bf 05       		.byte	0x5
 811 03c0 B701     		.2byte	0x1b7
 812 03c2 A6000000 		.4byte	0xa6
 813 03c6 02       		.byte	0x2
 814 03c7 23       		.byte	0x23
 815 03c8 04       		.uleb128 0x4
 816 03c9 08       		.uleb128 0x8
 817 03ca 7F010000 		.4byte	.LASF50
 818 03ce 05       		.byte	0x5
 819 03cf B801     		.2byte	0x1b8
 820 03d1 A6000000 		.4byte	0xa6
 821 03d5 02       		.byte	0x2
 822 03d6 23       		.byte	0x23
 823 03d7 08       		.uleb128 0x8
 824 03d8 08       		.uleb128 0x8
 825 03d9 D7000000 		.4byte	.LASF51
 826 03dd 05       		.byte	0x5
 827 03de B901     		.2byte	0x1b9
 828 03e0 A6000000 		.4byte	0xa6
 829 03e4 02       		.byte	0x2
 830 03e5 23       		.byte	0x23
 831 03e6 0C       		.uleb128 0xc
 832 03e7 00       		.byte	0
 833 03e8 09       		.uleb128 0x9
 834 03e9 C9020000 		.4byte	.LASF52
 835 03ed 05       		.byte	0x5
 836 03ee BA01     		.2byte	0x1ba
 837 03f0 A3030000 		.4byte	0x3a3
 838 03f4 0A       		.uleb128 0xa
 839 03f5 18       		.byte	0x18
 840 03f6 05       		.byte	0x5
 841 03f7 4102     		.2byte	0x241
 842 03f9 56040000 		.4byte	0x456
 843 03fd 0B       		.uleb128 0xb
 844 03fe 41435200 		.ascii	"ACR\000"
 845 0402 05       		.byte	0x5
 846 0403 4302     		.2byte	0x243
 847 0405 A6000000 		.4byte	0xa6
 848 0409 02       		.byte	0x2
 849 040a 23       		.byte	0x23
ARM GAS  /tmp/cceEXTDv.s 			page 16


 850 040b 00       		.uleb128 0
 851 040c 08       		.uleb128 0x8
 852 040d B5010000 		.4byte	.LASF53
 853 0411 05       		.byte	0x5
 854 0412 4402     		.2byte	0x244
 855 0414 A6000000 		.4byte	0xa6
 856 0418 02       		.byte	0x2
 857 0419 23       		.byte	0x23
 858 041a 04       		.uleb128 0x4
 859 041b 08       		.uleb128 0x8
 860 041c E9000000 		.4byte	.LASF54
 861 0420 05       		.byte	0x5
 862 0421 4502     		.2byte	0x245
 863 0423 A6000000 		.4byte	0xa6
 864 0427 02       		.byte	0x2
 865 0428 23       		.byte	0x23
 866 0429 08       		.uleb128 0x8
 867 042a 0B       		.uleb128 0xb
 868 042b 535200   		.ascii	"SR\000"
 869 042e 05       		.byte	0x5
 870 042f 4602     		.2byte	0x246
 871 0431 A6000000 		.4byte	0xa6
 872 0435 02       		.byte	0x2
 873 0436 23       		.byte	0x23
 874 0437 0C       		.uleb128 0xc
 875 0438 0B       		.uleb128 0xb
 876 0439 435200   		.ascii	"CR\000"
 877 043c 05       		.byte	0x5
 878 043d 4702     		.2byte	0x247
 879 043f A6000000 		.4byte	0xa6
 880 0443 02       		.byte	0x2
 881 0444 23       		.byte	0x23
 882 0445 10       		.uleb128 0x10
 883 0446 08       		.uleb128 0x8
 884 0447 9D030000 		.4byte	.LASF55
 885 044b 05       		.byte	0x5
 886 044c 4802     		.2byte	0x248
 887 044e A6000000 		.4byte	0xa6
 888 0452 02       		.byte	0x2
 889 0453 23       		.byte	0x23
 890 0454 14       		.uleb128 0x14
 891 0455 00       		.byte	0
 892 0456 09       		.uleb128 0x9
 893 0457 72030000 		.4byte	.LASF56
 894 045b 05       		.byte	0x5
 895 045c 4902     		.2byte	0x249
 896 045e F4030000 		.4byte	0x3f4
 897 0462 0A       		.uleb128 0xa
 898 0463 08       		.byte	0x8
 899 0464 05       		.byte	0x5
 900 0465 D102     		.2byte	0x2d1
 901 0467 89040000 		.4byte	0x489
 902 046b 0B       		.uleb128 0xb
 903 046c 435200   		.ascii	"CR\000"
 904 046f 05       		.byte	0x5
 905 0470 D302     		.2byte	0x2d3
 906 0472 A6000000 		.4byte	0xa6
ARM GAS  /tmp/cceEXTDv.s 			page 17


 907 0476 02       		.byte	0x2
 908 0477 23       		.byte	0x23
 909 0478 00       		.uleb128 0
 910 0479 0B       		.uleb128 0xb
 911 047a 43535200 		.ascii	"CSR\000"
 912 047e 05       		.byte	0x5
 913 047f D402     		.2byte	0x2d4
 914 0481 A6000000 		.4byte	0xa6
 915 0485 02       		.byte	0x2
 916 0486 23       		.byte	0x23
 917 0487 04       		.uleb128 0x4
 918 0488 00       		.byte	0
 919 0489 09       		.uleb128 0x9
 920 048a 51000000 		.4byte	.LASF57
 921 048e 05       		.byte	0x5
 922 048f D502     		.2byte	0x2d5
 923 0491 62040000 		.4byte	0x462
 924 0495 0A       		.uleb128 0xa
 925 0496 88       		.byte	0x88
 926 0497 05       		.byte	0x5
 927 0498 DB02     		.2byte	0x2db
 928 049a 62060000 		.4byte	0x662
 929 049e 0B       		.uleb128 0xb
 930 049f 435200   		.ascii	"CR\000"
 931 04a2 05       		.byte	0x5
 932 04a3 DD02     		.2byte	0x2dd
 933 04a5 A6000000 		.4byte	0xa6
 934 04a9 02       		.byte	0x2
 935 04aa 23       		.byte	0x23
 936 04ab 00       		.uleb128 0
 937 04ac 08       		.uleb128 0x8
 938 04ad 78020000 		.4byte	.LASF58
 939 04b1 05       		.byte	0x5
 940 04b2 DE02     		.2byte	0x2de
 941 04b4 A6000000 		.4byte	0xa6
 942 04b8 02       		.byte	0x2
 943 04b9 23       		.byte	0x23
 944 04ba 04       		.uleb128 0x4
 945 04bb 08       		.uleb128 0x8
 946 04bc 80000000 		.4byte	.LASF59
 947 04c0 05       		.byte	0x5
 948 04c1 DF02     		.2byte	0x2df
 949 04c3 A6000000 		.4byte	0xa6
 950 04c7 02       		.byte	0x2
 951 04c8 23       		.byte	0x23
 952 04c9 08       		.uleb128 0x8
 953 04ca 0B       		.uleb128 0xb
 954 04cb 43495200 		.ascii	"CIR\000"
 955 04cf 05       		.byte	0x5
 956 04d0 E002     		.2byte	0x2e0
 957 04d2 A6000000 		.4byte	0xa6
 958 04d6 02       		.byte	0x2
 959 04d7 23       		.byte	0x23
 960 04d8 0C       		.uleb128 0xc
 961 04d9 08       		.uleb128 0x8
 962 04da 5B030000 		.4byte	.LASF60
 963 04de 05       		.byte	0x5
ARM GAS  /tmp/cceEXTDv.s 			page 18


 964 04df E102     		.2byte	0x2e1
 965 04e1 A6000000 		.4byte	0xa6
 966 04e5 02       		.byte	0x2
 967 04e6 23       		.byte	0x23
 968 04e7 10       		.uleb128 0x10
 969 04e8 08       		.uleb128 0x8
 970 04e9 9C010000 		.4byte	.LASF61
 971 04ed 05       		.byte	0x5
 972 04ee E202     		.2byte	0x2e2
 973 04f0 A6000000 		.4byte	0xa6
 974 04f4 02       		.byte	0x2
 975 04f5 23       		.byte	0x23
 976 04f6 14       		.uleb128 0x14
 977 04f7 08       		.uleb128 0x8
 978 04f8 69030000 		.4byte	.LASF62
 979 04fc 05       		.byte	0x5
 980 04fd E302     		.2byte	0x2e3
 981 04ff A6000000 		.4byte	0xa6
 982 0503 02       		.byte	0x2
 983 0504 23       		.byte	0x23
 984 0505 18       		.uleb128 0x18
 985 0506 08       		.uleb128 0x8
 986 0507 F9020000 		.4byte	.LASF43
 987 050b 05       		.byte	0x5
 988 050c E402     		.2byte	0x2e4
 989 050e 7B000000 		.4byte	0x7b
 990 0512 02       		.byte	0x2
 991 0513 23       		.byte	0x23
 992 0514 1C       		.uleb128 0x1c
 993 0515 08       		.uleb128 0x8
 994 0516 0A000000 		.4byte	.LASF63
 995 051a 05       		.byte	0x5
 996 051b E502     		.2byte	0x2e5
 997 051d A6000000 		.4byte	0xa6
 998 0521 02       		.byte	0x2
 999 0522 23       		.byte	0x23
 1000 0523 20       		.uleb128 0x20
 1001 0524 08       		.uleb128 0x8
 1002 0525 76010000 		.4byte	.LASF64
 1003 0529 05       		.byte	0x5
 1004 052a E602     		.2byte	0x2e6
 1005 052c A6000000 		.4byte	0xa6
 1006 0530 02       		.byte	0x2
 1007 0531 23       		.byte	0x23
 1008 0532 24       		.uleb128 0x24
 1009 0533 08       		.uleb128 0x8
 1010 0534 03030000 		.4byte	.LASF65
 1011 0538 05       		.byte	0x5
 1012 0539 E702     		.2byte	0x2e7
 1013 053b F2020000 		.4byte	0x2f2
 1014 053f 02       		.byte	0x2
 1015 0540 23       		.byte	0x23
 1016 0541 28       		.uleb128 0x28
 1017 0542 08       		.uleb128 0x8
 1018 0543 AB000000 		.4byte	.LASF66
 1019 0547 05       		.byte	0x5
 1020 0548 E802     		.2byte	0x2e8
ARM GAS  /tmp/cceEXTDv.s 			page 19


 1021 054a A6000000 		.4byte	0xa6
 1022 054e 02       		.byte	0x2
 1023 054f 23       		.byte	0x23
 1024 0550 30       		.uleb128 0x30
 1025 0551 08       		.uleb128 0x8
 1026 0552 13000000 		.4byte	.LASF67
 1027 0556 05       		.byte	0x5
 1028 0557 E902     		.2byte	0x2e9
 1029 0559 A6000000 		.4byte	0xa6
 1030 055d 02       		.byte	0x2
 1031 055e 23       		.byte	0x23
 1032 055f 34       		.uleb128 0x34
 1033 0560 08       		.uleb128 0x8
 1034 0561 AD010000 		.4byte	.LASF68
 1035 0565 05       		.byte	0x5
 1036 0566 EA02     		.2byte	0x2ea
 1037 0568 A6000000 		.4byte	0xa6
 1038 056c 02       		.byte	0x2
 1039 056d 23       		.byte	0x23
 1040 056e 38       		.uleb128 0x38
 1041 056f 08       		.uleb128 0x8
 1042 0570 0D030000 		.4byte	.LASF69
 1043 0574 05       		.byte	0x5
 1044 0575 EB02     		.2byte	0x2eb
 1045 0577 7B000000 		.4byte	0x7b
 1046 057b 02       		.byte	0x2
 1047 057c 23       		.byte	0x23
 1048 057d 3C       		.uleb128 0x3c
 1049 057e 08       		.uleb128 0x8
 1050 057f 9D000000 		.4byte	.LASF70
 1051 0583 05       		.byte	0x5
 1052 0584 EC02     		.2byte	0x2ec
 1053 0586 A6000000 		.4byte	0xa6
 1054 058a 02       		.byte	0x2
 1055 058b 23       		.byte	0x23
 1056 058c 40       		.uleb128 0x40
 1057 058d 08       		.uleb128 0x8
 1058 058e 00020000 		.4byte	.LASF71
 1059 0592 05       		.byte	0x5
 1060 0593 ED02     		.2byte	0x2ed
 1061 0595 A6000000 		.4byte	0xa6
 1062 0599 02       		.byte	0x2
 1063 059a 23       		.byte	0x23
 1064 059b 44       		.uleb128 0x44
 1065 059c 08       		.uleb128 0x8
 1066 059d 17030000 		.4byte	.LASF72
 1067 05a1 05       		.byte	0x5
 1068 05a2 EE02     		.2byte	0x2ee
 1069 05a4 F2020000 		.4byte	0x2f2
 1070 05a8 02       		.byte	0x2
 1071 05a9 23       		.byte	0x23
 1072 05aa 48       		.uleb128 0x48
 1073 05ab 08       		.uleb128 0x8
 1074 05ac 00000000 		.4byte	.LASF73
 1075 05b0 05       		.byte	0x5
 1076 05b1 EF02     		.2byte	0x2ef
 1077 05b3 A6000000 		.4byte	0xa6
ARM GAS  /tmp/cceEXTDv.s 			page 20


 1078 05b7 02       		.byte	0x2
 1079 05b8 23       		.byte	0x23
 1080 05b9 50       		.uleb128 0x50
 1081 05ba 08       		.uleb128 0x8
 1082 05bb E2020000 		.4byte	.LASF74
 1083 05bf 05       		.byte	0x5
 1084 05c0 F002     		.2byte	0x2f0
 1085 05c2 A6000000 		.4byte	0xa6
 1086 05c6 02       		.byte	0x2
 1087 05c7 23       		.byte	0x23
 1088 05c8 54       		.uleb128 0x54
 1089 05c9 08       		.uleb128 0x8
 1090 05ca 76000000 		.4byte	.LASF75
 1091 05ce 05       		.byte	0x5
 1092 05cf F102     		.2byte	0x2f1
 1093 05d1 A6000000 		.4byte	0xa6
 1094 05d5 02       		.byte	0x2
 1095 05d6 23       		.byte	0x23
 1096 05d7 58       		.uleb128 0x58
 1097 05d8 08       		.uleb128 0x8
 1098 05d9 21030000 		.4byte	.LASF76
 1099 05dd 05       		.byte	0x5
 1100 05de F202     		.2byte	0x2f2
 1101 05e0 7B000000 		.4byte	0x7b
 1102 05e4 02       		.byte	0x2
 1103 05e5 23       		.byte	0x23
 1104 05e6 5C       		.uleb128 0x5c
 1105 05e7 08       		.uleb128 0x8
 1106 05e8 A0020000 		.4byte	.LASF77
 1107 05ec 05       		.byte	0x5
 1108 05ed F302     		.2byte	0x2f3
 1109 05ef A6000000 		.4byte	0xa6
 1110 05f3 02       		.byte	0x2
 1111 05f4 23       		.byte	0x23
 1112 05f5 60       		.uleb128 0x60
 1113 05f6 08       		.uleb128 0x8
 1114 05f7 93030000 		.4byte	.LASF78
 1115 05fb 05       		.byte	0x5
 1116 05fc F402     		.2byte	0x2f4
 1117 05fe A6000000 		.4byte	0xa6
 1118 0602 02       		.byte	0x2
 1119 0603 23       		.byte	0x23
 1120 0604 64       		.uleb128 0x64
 1121 0605 08       		.uleb128 0x8
 1122 0606 2B030000 		.4byte	.LASF79
 1123 060a 05       		.byte	0x5
 1124 060b F502     		.2byte	0x2f5
 1125 060d F2020000 		.4byte	0x2f2
 1126 0611 02       		.byte	0x2
 1127 0612 23       		.byte	0x23
 1128 0613 68       		.uleb128 0x68
 1129 0614 08       		.uleb128 0x8
 1130 0615 34000000 		.4byte	.LASF80
 1131 0619 05       		.byte	0x5
 1132 061a F602     		.2byte	0x2f6
 1133 061c A6000000 		.4byte	0xa6
 1134 0620 02       		.byte	0x2
ARM GAS  /tmp/cceEXTDv.s 			page 21


 1135 0621 23       		.byte	0x23
 1136 0622 70       		.uleb128 0x70
 1137 0623 0B       		.uleb128 0xb
 1138 0624 43535200 		.ascii	"CSR\000"
 1139 0628 05       		.byte	0x5
 1140 0629 F702     		.2byte	0x2f7
 1141 062b A6000000 		.4byte	0xa6
 1142 062f 02       		.byte	0x2
 1143 0630 23       		.byte	0x23
 1144 0631 74       		.uleb128 0x74
 1145 0632 08       		.uleb128 0x8
 1146 0633 35030000 		.4byte	.LASF81
 1147 0637 05       		.byte	0x5
 1148 0638 F802     		.2byte	0x2f8
 1149 063a F2020000 		.4byte	0x2f2
 1150 063e 02       		.byte	0x2
 1151 063f 23       		.byte	0x23
 1152 0640 78       		.uleb128 0x78
 1153 0641 08       		.uleb128 0x8
 1154 0642 65000000 		.4byte	.LASF82
 1155 0646 05       		.byte	0x5
 1156 0647 F902     		.2byte	0x2f9
 1157 0649 A6000000 		.4byte	0xa6
 1158 064d 03       		.byte	0x3
 1159 064e 23       		.byte	0x23
 1160 064f 8001     		.uleb128 0x80
 1161 0651 08       		.uleb128 0x8
 1162 0652 46000000 		.4byte	.LASF83
 1163 0656 05       		.byte	0x5
 1164 0657 FA02     		.2byte	0x2fa
 1165 0659 A6000000 		.4byte	0xa6
 1166 065d 03       		.byte	0x3
 1167 065e 23       		.byte	0x23
 1168 065f 8401     		.uleb128 0x84
 1169 0661 00       		.byte	0
 1170 0662 09       		.uleb128 0x9
 1171 0663 6A010000 		.4byte	.LASF84
 1172 0667 05       		.byte	0x5
 1173 0668 FB02     		.2byte	0x2fb
 1174 066a 95040000 		.4byte	0x495
 1175 066e 0F       		.uleb128 0xf
 1176 066f BC000000 		.4byte	.LASF88
 1177 0673 01       		.byte	0x1
 1178 0674 31       		.byte	0x31
 1179 0675 01       		.byte	0x1
 1180 0676 01       		.byte	0x1
 1181 0677 10       		.uleb128 0x10
 1182 0678 01       		.byte	0x1
 1183 0679 6B020000 		.4byte	.LASF89
 1184 067d 01       		.byte	0x1
 1185 067e 5E       		.byte	0x5e
 1186 067f 01       		.byte	0x1
 1187 0680 00000000 		.4byte	.LFB119
 1188 0684 C2000000 		.4byte	.LFE119
 1189 0688 00000000 		.4byte	.LLST0
 1190 068c 01       		.byte	0x1
 1191 068d AB060000 		.4byte	0x6ab
ARM GAS  /tmp/cceEXTDv.s 			page 22


 1192 0691 11       		.uleb128 0x11
 1193 0692 6E060000 		.4byte	0x66e
 1194 0696 74000000 		.4byte	.LBB4
 1195 069a 00000000 		.4byte	.Ldebug_ranges0+0
 1196 069e 01       		.byte	0x1
 1197 069f 77       		.byte	0x77
 1198 06a0 12       		.uleb128 0x12
 1199 06a1 C2000000 		.4byte	.LVL0
 1200 06a5 01       		.byte	0x1
 1201 06a6 CE060000 		.4byte	0x6ce
 1202 06aa 00       		.byte	0
 1203 06ab 13       		.uleb128 0x13
 1204 06ac 01       		.byte	0x1
 1205 06ad 86010000 		.4byte	.LASF90
 1206 06b1 01       		.byte	0x1
 1207 06b2 8A       		.byte	0x8a
 1208 06b3 01       		.byte	0x1
 1209 06b4 00000000 		.4byte	.LFB120
 1210 06b8 22010000 		.4byte	.LFE120
 1211 06bc 02       		.byte	0x2
 1212 06bd 7D       		.byte	0x7d
 1213 06be 00       		.sleb128 0
 1214 06bf 01       		.byte	0x1
 1215 06c0 14       		.uleb128 0x14
 1216 06c1 80030000 		.4byte	.LASF91
 1217 06c5 04       		.byte	0x4
 1218 06c6 9806     		.2byte	0x698
 1219 06c8 9E030000 		.4byte	0x39e
 1220 06cc 01       		.byte	0x1
 1221 06cd 01       		.byte	0x1
 1222 06ce 15       		.uleb128 0x15
 1223 06cf 01       		.byte	0x1
 1224 06d0 EC020000 		.4byte	.LASF92
 1225 06d4 06       		.byte	0x6
 1226 06d5 C101     		.2byte	0x1c1
 1227 06d7 01       		.byte	0x1
 1228 06d8 01       		.byte	0x1
 1229 06d9 00       		.byte	0
 1230              		.section	.debug_abbrev,"",%progbits
 1231              	.Ldebug_abbrev0:
 1232 0000 01       		.uleb128 0x1
 1233 0001 11       		.uleb128 0x11
 1234 0002 01       		.byte	0x1
 1235 0003 25       		.uleb128 0x25
 1236 0004 0E       		.uleb128 0xe
 1237 0005 13       		.uleb128 0x13
 1238 0006 0B       		.uleb128 0xb
 1239 0007 03       		.uleb128 0x3
 1240 0008 0E       		.uleb128 0xe
 1241 0009 1B       		.uleb128 0x1b
 1242 000a 0E       		.uleb128 0xe
 1243 000b 55       		.uleb128 0x55
 1244 000c 06       		.uleb128 0x6
 1245 000d 11       		.uleb128 0x11
 1246 000e 01       		.uleb128 0x1
 1247 000f 52       		.uleb128 0x52
 1248 0010 01       		.uleb128 0x1
ARM GAS  /tmp/cceEXTDv.s 			page 23


 1249 0011 10       		.uleb128 0x10
 1250 0012 06       		.uleb128 0x6
 1251 0013 00       		.byte	0
 1252 0014 00       		.byte	0
 1253 0015 02       		.uleb128 0x2
 1254 0016 24       		.uleb128 0x24
 1255 0017 00       		.byte	0
 1256 0018 0B       		.uleb128 0xb
 1257 0019 0B       		.uleb128 0xb
 1258 001a 3E       		.uleb128 0x3e
 1259 001b 0B       		.uleb128 0xb
 1260 001c 03       		.uleb128 0x3
 1261 001d 08       		.uleb128 0x8
 1262 001e 00       		.byte	0
 1263 001f 00       		.byte	0
 1264 0020 03       		.uleb128 0x3
 1265 0021 24       		.uleb128 0x24
 1266 0022 00       		.byte	0
 1267 0023 0B       		.uleb128 0xb
 1268 0024 0B       		.uleb128 0xb
 1269 0025 3E       		.uleb128 0x3e
 1270 0026 0B       		.uleb128 0xb
 1271 0027 03       		.uleb128 0x3
 1272 0028 0E       		.uleb128 0xe
 1273 0029 00       		.byte	0
 1274 002a 00       		.byte	0
 1275 002b 04       		.uleb128 0x4
 1276 002c 16       		.uleb128 0x16
 1277 002d 00       		.byte	0
 1278 002e 03       		.uleb128 0x3
 1279 002f 0E       		.uleb128 0xe
 1280 0030 3A       		.uleb128 0x3a
 1281 0031 0B       		.uleb128 0xb
 1282 0032 3B       		.uleb128 0x3b
 1283 0033 0B       		.uleb128 0xb
 1284 0034 49       		.uleb128 0x49
 1285 0035 13       		.uleb128 0x13
 1286 0036 00       		.byte	0
 1287 0037 00       		.byte	0
 1288 0038 05       		.uleb128 0x5
 1289 0039 35       		.uleb128 0x35
 1290 003a 00       		.byte	0
 1291 003b 49       		.uleb128 0x49
 1292 003c 13       		.uleb128 0x13
 1293 003d 00       		.byte	0
 1294 003e 00       		.byte	0
 1295 003f 06       		.uleb128 0x6
 1296 0040 13       		.uleb128 0x13
 1297 0041 01       		.byte	0x1
 1298 0042 0B       		.uleb128 0xb
 1299 0043 0B       		.uleb128 0xb
 1300 0044 3A       		.uleb128 0x3a
 1301 0045 0B       		.uleb128 0xb
 1302 0046 3B       		.uleb128 0x3b
 1303 0047 0B       		.uleb128 0xb
 1304 0048 01       		.uleb128 0x1
 1305 0049 13       		.uleb128 0x13
ARM GAS  /tmp/cceEXTDv.s 			page 24


 1306 004a 00       		.byte	0
 1307 004b 00       		.byte	0
 1308 004c 07       		.uleb128 0x7
 1309 004d 0D       		.uleb128 0xd
 1310 004e 00       		.byte	0
 1311 004f 03       		.uleb128 0x3
 1312 0050 0E       		.uleb128 0xe
 1313 0051 3A       		.uleb128 0x3a
 1314 0052 0B       		.uleb128 0xb
 1315 0053 3B       		.uleb128 0x3b
 1316 0054 0B       		.uleb128 0xb
 1317 0055 49       		.uleb128 0x49
 1318 0056 13       		.uleb128 0x13
 1319 0057 38       		.uleb128 0x38
 1320 0058 0A       		.uleb128 0xa
 1321 0059 00       		.byte	0
 1322 005a 00       		.byte	0
 1323 005b 08       		.uleb128 0x8
 1324 005c 0D       		.uleb128 0xd
 1325 005d 00       		.byte	0
 1326 005e 03       		.uleb128 0x3
 1327 005f 0E       		.uleb128 0xe
 1328 0060 3A       		.uleb128 0x3a
 1329 0061 0B       		.uleb128 0xb
 1330 0062 3B       		.uleb128 0x3b
 1331 0063 05       		.uleb128 0x5
 1332 0064 49       		.uleb128 0x49
 1333 0065 13       		.uleb128 0x13
 1334 0066 38       		.uleb128 0x38
 1335 0067 0A       		.uleb128 0xa
 1336 0068 00       		.byte	0
 1337 0069 00       		.byte	0
 1338 006a 09       		.uleb128 0x9
 1339 006b 16       		.uleb128 0x16
 1340 006c 00       		.byte	0
 1341 006d 03       		.uleb128 0x3
 1342 006e 0E       		.uleb128 0xe
 1343 006f 3A       		.uleb128 0x3a
 1344 0070 0B       		.uleb128 0xb
 1345 0071 3B       		.uleb128 0x3b
 1346 0072 05       		.uleb128 0x5
 1347 0073 49       		.uleb128 0x49
 1348 0074 13       		.uleb128 0x13
 1349 0075 00       		.byte	0
 1350 0076 00       		.byte	0
 1351 0077 0A       		.uleb128 0xa
 1352 0078 13       		.uleb128 0x13
 1353 0079 01       		.byte	0x1
 1354 007a 0B       		.uleb128 0xb
 1355 007b 0B       		.uleb128 0xb
 1356 007c 3A       		.uleb128 0x3a
 1357 007d 0B       		.uleb128 0xb
 1358 007e 3B       		.uleb128 0x3b
 1359 007f 05       		.uleb128 0x5
 1360 0080 01       		.uleb128 0x1
 1361 0081 13       		.uleb128 0x13
 1362 0082 00       		.byte	0
ARM GAS  /tmp/cceEXTDv.s 			page 25


 1363 0083 00       		.byte	0
 1364 0084 0B       		.uleb128 0xb
 1365 0085 0D       		.uleb128 0xd
 1366 0086 00       		.byte	0
 1367 0087 03       		.uleb128 0x3
 1368 0088 08       		.uleb128 0x8
 1369 0089 3A       		.uleb128 0x3a
 1370 008a 0B       		.uleb128 0xb
 1371 008b 3B       		.uleb128 0x3b
 1372 008c 05       		.uleb128 0x5
 1373 008d 49       		.uleb128 0x49
 1374 008e 13       		.uleb128 0x13
 1375 008f 38       		.uleb128 0x38
 1376 0090 0A       		.uleb128 0xa
 1377 0091 00       		.byte	0
 1378 0092 00       		.byte	0
 1379 0093 0C       		.uleb128 0xc
 1380 0094 26       		.uleb128 0x26
 1381 0095 00       		.byte	0
 1382 0096 49       		.uleb128 0x49
 1383 0097 13       		.uleb128 0x13
 1384 0098 00       		.byte	0
 1385 0099 00       		.byte	0
 1386 009a 0D       		.uleb128 0xd
 1387 009b 01       		.uleb128 0x1
 1388 009c 01       		.byte	0x1
 1389 009d 49       		.uleb128 0x49
 1390 009e 13       		.uleb128 0x13
 1391 009f 01       		.uleb128 0x1
 1392 00a0 13       		.uleb128 0x13
 1393 00a1 00       		.byte	0
 1394 00a2 00       		.byte	0
 1395 00a3 0E       		.uleb128 0xe
 1396 00a4 21       		.uleb128 0x21
 1397 00a5 00       		.byte	0
 1398 00a6 49       		.uleb128 0x49
 1399 00a7 13       		.uleb128 0x13
 1400 00a8 2F       		.uleb128 0x2f
 1401 00a9 0B       		.uleb128 0xb
 1402 00aa 00       		.byte	0
 1403 00ab 00       		.byte	0
 1404 00ac 0F       		.uleb128 0xf
 1405 00ad 2E       		.uleb128 0x2e
 1406 00ae 00       		.byte	0
 1407 00af 03       		.uleb128 0x3
 1408 00b0 0E       		.uleb128 0xe
 1409 00b1 3A       		.uleb128 0x3a
 1410 00b2 0B       		.uleb128 0xb
 1411 00b3 3B       		.uleb128 0x3b
 1412 00b4 0B       		.uleb128 0xb
 1413 00b5 27       		.uleb128 0x27
 1414 00b6 0C       		.uleb128 0xc
 1415 00b7 20       		.uleb128 0x20
 1416 00b8 0B       		.uleb128 0xb
 1417 00b9 00       		.byte	0
 1418 00ba 00       		.byte	0
 1419 00bb 10       		.uleb128 0x10
ARM GAS  /tmp/cceEXTDv.s 			page 26


 1420 00bc 2E       		.uleb128 0x2e
 1421 00bd 01       		.byte	0x1
 1422 00be 3F       		.uleb128 0x3f
 1423 00bf 0C       		.uleb128 0xc
 1424 00c0 03       		.uleb128 0x3
 1425 00c1 0E       		.uleb128 0xe
 1426 00c2 3A       		.uleb128 0x3a
 1427 00c3 0B       		.uleb128 0xb
 1428 00c4 3B       		.uleb128 0x3b
 1429 00c5 0B       		.uleb128 0xb
 1430 00c6 27       		.uleb128 0x27
 1431 00c7 0C       		.uleb128 0xc
 1432 00c8 11       		.uleb128 0x11
 1433 00c9 01       		.uleb128 0x1
 1434 00ca 12       		.uleb128 0x12
 1435 00cb 01       		.uleb128 0x1
 1436 00cc 40       		.uleb128 0x40
 1437 00cd 06       		.uleb128 0x6
 1438 00ce 9742     		.uleb128 0x2117
 1439 00d0 0C       		.uleb128 0xc
 1440 00d1 01       		.uleb128 0x1
 1441 00d2 13       		.uleb128 0x13
 1442 00d3 00       		.byte	0
 1443 00d4 00       		.byte	0
 1444 00d5 11       		.uleb128 0x11
 1445 00d6 1D       		.uleb128 0x1d
 1446 00d7 00       		.byte	0
 1447 00d8 31       		.uleb128 0x31
 1448 00d9 13       		.uleb128 0x13
 1449 00da 52       		.uleb128 0x52
 1450 00db 01       		.uleb128 0x1
 1451 00dc 55       		.uleb128 0x55
 1452 00dd 06       		.uleb128 0x6
 1453 00de 58       		.uleb128 0x58
 1454 00df 0B       		.uleb128 0xb
 1455 00e0 59       		.uleb128 0x59
 1456 00e1 0B       		.uleb128 0xb
 1457 00e2 00       		.byte	0
 1458 00e3 00       		.byte	0
 1459 00e4 12       		.uleb128 0x12
 1460 00e5 898201   		.uleb128 0x4109
 1461 00e8 00       		.byte	0
 1462 00e9 11       		.uleb128 0x11
 1463 00ea 01       		.uleb128 0x1
 1464 00eb 9542     		.uleb128 0x2115
 1465 00ed 0C       		.uleb128 0xc
 1466 00ee 31       		.uleb128 0x31
 1467 00ef 13       		.uleb128 0x13
 1468 00f0 00       		.byte	0
 1469 00f1 00       		.byte	0
 1470 00f2 13       		.uleb128 0x13
 1471 00f3 2E       		.uleb128 0x2e
 1472 00f4 00       		.byte	0
 1473 00f5 3F       		.uleb128 0x3f
 1474 00f6 0C       		.uleb128 0xc
 1475 00f7 03       		.uleb128 0x3
 1476 00f8 0E       		.uleb128 0xe
ARM GAS  /tmp/cceEXTDv.s 			page 27


 1477 00f9 3A       		.uleb128 0x3a
 1478 00fa 0B       		.uleb128 0xb
 1479 00fb 3B       		.uleb128 0x3b
 1480 00fc 0B       		.uleb128 0xb
 1481 00fd 27       		.uleb128 0x27
 1482 00fe 0C       		.uleb128 0xc
 1483 00ff 11       		.uleb128 0x11
 1484 0100 01       		.uleb128 0x1
 1485 0101 12       		.uleb128 0x12
 1486 0102 01       		.uleb128 0x1
 1487 0103 40       		.uleb128 0x40
 1488 0104 0A       		.uleb128 0xa
 1489 0105 9742     		.uleb128 0x2117
 1490 0107 0C       		.uleb128 0xc
 1491 0108 00       		.byte	0
 1492 0109 00       		.byte	0
 1493 010a 14       		.uleb128 0x14
 1494 010b 34       		.uleb128 0x34
 1495 010c 00       		.byte	0
 1496 010d 03       		.uleb128 0x3
 1497 010e 0E       		.uleb128 0xe
 1498 010f 3A       		.uleb128 0x3a
 1499 0110 0B       		.uleb128 0xb
 1500 0111 3B       		.uleb128 0x3b
 1501 0112 05       		.uleb128 0x5
 1502 0113 49       		.uleb128 0x49
 1503 0114 13       		.uleb128 0x13
 1504 0115 3F       		.uleb128 0x3f
 1505 0116 0C       		.uleb128 0xc
 1506 0117 3C       		.uleb128 0x3c
 1507 0118 0C       		.uleb128 0xc
 1508 0119 00       		.byte	0
 1509 011a 00       		.byte	0
 1510 011b 15       		.uleb128 0x15
 1511 011c 2E       		.uleb128 0x2e
 1512 011d 00       		.byte	0
 1513 011e 3F       		.uleb128 0x3f
 1514 011f 0C       		.uleb128 0xc
 1515 0120 03       		.uleb128 0x3
 1516 0121 0E       		.uleb128 0xe
 1517 0122 3A       		.uleb128 0x3a
 1518 0123 0B       		.uleb128 0xb
 1519 0124 3B       		.uleb128 0x3b
 1520 0125 05       		.uleb128 0x5
 1521 0126 27       		.uleb128 0x27
 1522 0127 0C       		.uleb128 0xc
 1523 0128 3C       		.uleb128 0x3c
 1524 0129 0C       		.uleb128 0xc
 1525 012a 00       		.byte	0
 1526 012b 00       		.byte	0
 1527 012c 00       		.byte	0
 1528              		.section	.debug_loc,"",%progbits
 1529              	.Ldebug_loc0:
 1530              	.LLST0:
 1531 0000 00000000 		.4byte	.LFB119
 1532 0004 12000000 		.4byte	.LCFI0
 1533 0008 0200     		.2byte	0x2
ARM GAS  /tmp/cceEXTDv.s 			page 28


 1534 000a 7D       		.byte	0x7d
 1535 000b 00       		.sleb128 0
 1536 000c 12000000 		.4byte	.LCFI0
 1537 0010 C2000000 		.4byte	.LFE119
 1538 0014 0200     		.2byte	0x2
 1539 0016 7D       		.byte	0x7d
 1540 0017 08       		.sleb128 8
 1541 0018 00000000 		.4byte	0
 1542 001c 00000000 		.4byte	0
 1543              		.section	.debug_aranges,"",%progbits
 1544 0000 24000000 		.4byte	0x24
 1545 0004 0200     		.2byte	0x2
 1546 0006 00000000 		.4byte	.Ldebug_info0
 1547 000a 04       		.byte	0x4
 1548 000b 00       		.byte	0
 1549 000c 0000     		.2byte	0
 1550 000e 0000     		.2byte	0
 1551 0010 00000000 		.4byte	.LFB119
 1552 0014 C2000000 		.4byte	.LFE119-.LFB119
 1553 0018 00000000 		.4byte	.LFB120
 1554 001c 22010000 		.4byte	.LFE120-.LFB120
 1555 0020 00000000 		.4byte	0
 1556 0024 00000000 		.4byte	0
 1557              		.section	.debug_ranges,"",%progbits
 1558              	.Ldebug_ranges0:
 1559 0000 74000000 		.4byte	.LBB4
 1560 0004 7C000000 		.4byte	.LBE4
 1561 0008 82000000 		.4byte	.LBB7
 1562 000c BC000000 		.4byte	.LBE7
 1563 0010 00000000 		.4byte	0
 1564 0014 00000000 		.4byte	0
 1565 0018 00000000 		.4byte	.LFB119
 1566 001c C2000000 		.4byte	.LFE119
 1567 0020 00000000 		.4byte	.LFB120
 1568 0024 22010000 		.4byte	.LFE120
 1569 0028 00000000 		.4byte	0
 1570 002c 00000000 		.4byte	0
 1571              		.section	.debug_line,"",%progbits
 1572              	.Ldebug_line0:
 1573 0000 E1010000 		.section	.debug_str,"MS",%progbits,1
 1573      02003A01 
 1573      00000201 
 1573      FB0E0D00 
 1573      01010101 
 1574              	.LASF73:
 1575 0000 41484231 		.ascii	"AHB1LPENR\000"
 1575      4C50454E 
 1575      5200
 1576              	.LASF63:
 1577 000a 41504231 		.ascii	"APB1RSTR\000"
 1577      52535452 
 1577      00
 1578              	.LASF67:
 1579 0013 41484232 		.ascii	"AHB2ENR\000"
 1579      454E5200 
 1580              	.LASF18:
 1581 001b 44454D43 		.ascii	"DEMCR\000"
ARM GAS  /tmp/cceEXTDv.s 			page 29


 1581      5200
 1582              	.LASF3:
 1583 0021 73686F72 		.ascii	"short int\000"
 1583      7420696E 
 1583      7400
 1584              	.LASF14:
 1585 002b 73697A65 		.ascii	"sizetype\000"
 1585      74797065 
 1585      00
 1586              	.LASF80:
 1587 0034 42444352 		.ascii	"BDCR\000"
 1587      00
 1588              	.LASF27:
 1589 0039 50435352 		.ascii	"PCSR\000"
 1589      00
 1590              	.LASF26:
 1591 003e 464F4C44 		.ascii	"FOLDCNT\000"
 1591      434E5400 
 1592              	.LASF83:
 1593 0046 504C4C49 		.ascii	"PLLI2SCFGR\000"
 1593      32534346 
 1593      475200
 1594              	.LASF57:
 1595 0051 5057525F 		.ascii	"PWR_TypeDef\000"
 1595      54797065 
 1595      44656600 
 1596              	.LASF28:
 1597 005d 434D785F 		.ascii	"CMx_DWT\000"
 1597      44575400 
 1598              	.LASF82:
 1599 0065 53534347 		.ascii	"SSCGR\000"
 1599      5200
 1600              	.LASF30:
 1601 006b 43505549 		.ascii	"CPUID\000"
 1601      4400
 1602              	.LASF20:
 1603 0071 4354524C 		.ascii	"CTRL\000"
 1603      00
 1604              	.LASF75:
 1605 0076 41484233 		.ascii	"AHB3LPENR\000"
 1605      4C50454E 
 1605      5200
 1606              	.LASF59:
 1607 0080 43464752 		.ascii	"CFGR\000"
 1607      00
 1608              	.LASF22:
 1609 0085 43504943 		.ascii	"CPICNT\000"
 1609      4E5400
 1610              	.LASF4:
 1611 008c 75696E74 		.ascii	"uint8_t\000"
 1611      385F7400 
 1612              	.LASF45:
 1613 0094 5343425F 		.ascii	"SCB_Type\000"
 1613      54797065 
 1613      00
 1614              	.LASF70:
 1615 009d 41504231 		.ascii	"APB1ENR\000"
ARM GAS  /tmp/cceEXTDv.s 			page 30


 1615      454E5200 
 1616              	.LASF16:
 1617 00a5 44435253 		.ascii	"DCRSR\000"
 1617      5200
 1618              	.LASF66:
 1619 00ab 41484231 		.ascii	"AHB1ENR\000"
 1619      454E5200 
 1620              	.LASF9:
 1621 00b3 75696E74 		.ascii	"uint32_t\000"
 1621      33325F74 
 1621      00
 1622              	.LASF88:
 1623 00bc 68616C5F 		.ascii	"hal_lld_backup_domain_init\000"
 1623      6C6C645F 
 1623      6261636B 
 1623      75705F64 
 1623      6F6D6169 
 1624              	.LASF51:
 1625 00d7 41504232 		.ascii	"APB2FZ\000"
 1625      465A00
 1626              	.LASF17:
 1627 00de 44435244 		.ascii	"DCRDR\000"
 1627      5200
 1628              	.LASF31:
 1629 00e4 49435352 		.ascii	"ICSR\000"
 1629      00
 1630              	.LASF54:
 1631 00e9 4F50544B 		.ascii	"OPTKEYR\000"
 1631      45595200 
 1632              	.LASF11:
 1633 00f1 6C6F6E67 		.ascii	"long long int\000"
 1633      206C6F6E 
 1633      6720696E 
 1633      7400
 1634              	.LASF21:
 1635 00ff 43594343 		.ascii	"CYCCNT\000"
 1635      4E5400
 1636              	.LASF47:
 1637 0106 43414C49 		.ascii	"CALIB\000"
 1637      4200
 1638              	.LASF87:
 1639 010c 2F686F6D 		.ascii	"/home/kwilson/Sandbox/ChibiOS_2.5.1/demos/ARMCM4-ST"
 1639      652F6B77 
 1639      696C736F 
 1639      6E2F5361 
 1639      6E64626F 
 1640 013f 4D333246 		.ascii	"M32F407-LWIP-FATFS-USB\000"
 1640      3430372D 
 1640      4C574950 
 1640      2D464154 
 1640      46532D55 
 1641              	.LASF39:
 1642 0156 42464152 		.ascii	"BFAR\000"
 1642      00
 1643              	.LASF15:
 1644 015b 44484353 		.ascii	"DHCSR\000"
 1644      5200
ARM GAS  /tmp/cceEXTDv.s 			page 31


 1645              	.LASF8:
 1646 0161 6C6F6E67 		.ascii	"long int\000"
 1646      20696E74 
 1646      00
 1647              	.LASF84:
 1648 016a 5243435F 		.ascii	"RCC_TypeDef\000"
 1648      54797065 
 1648      44656600 
 1649              	.LASF64:
 1650 0176 41504232 		.ascii	"APB2RSTR\000"
 1650      52535452 
 1650      00
 1651              	.LASF50:
 1652 017f 41504231 		.ascii	"APB1FZ\000"
 1652      465A00
 1653              	.LASF90:
 1654 0186 73746D33 		.ascii	"stm32_clock_init\000"
 1654      325F636C 
 1654      6F636B5F 
 1654      696E6974 
 1654      00
 1655              	.LASF35:
 1656 0197 43465352 		.ascii	"CFSR\000"
 1656      00
 1657              	.LASF61:
 1658 019c 41484232 		.ascii	"AHB2RSTR\000"
 1658      52535452 
 1658      00
 1659              	.LASF13:
 1660 01a5 494F5245 		.ascii	"IOREG32\000"
 1660      47333200 
 1661              	.LASF68:
 1662 01ad 41484233 		.ascii	"AHB3ENR\000"
 1662      454E5200 
 1663              	.LASF53:
 1664 01b5 4B455952 		.ascii	"KEYR\000"
 1664      00
 1665              	.LASF23:
 1666 01ba 45584343 		.ascii	"EXCCNT\000"
 1666      4E5400
 1667              	.LASF33:
 1668 01c1 41495243 		.ascii	"AIRCR\000"
 1668      5200
 1669              	.LASF2:
 1670 01c7 756E7369 		.ascii	"unsigned char\000"
 1670      676E6564 
 1670      20636861 
 1670      7200
 1671              	.LASF86:
 1672 01d5 2E2E2F2E 		.ascii	"../../os/hal/platforms/STM32F4xx/hal_lld.c\000"
 1672      2E2F6F73 
 1672      2F68616C 
 1672      2F706C61 
 1672      74666F72 
 1673              	.LASF71:
 1674 0200 41504232 		.ascii	"APB2ENR\000"
 1674      454E5200 
ARM GAS  /tmp/cceEXTDv.s 			page 32


 1675              	.LASF1:
 1676 0208 7369676E 		.ascii	"signed char\000"
 1676      65642063 
 1676      68617200 
 1677              	.LASF12:
 1678 0214 6C6F6E67 		.ascii	"long long unsigned int\000"
 1678      206C6F6E 
 1678      6720756E 
 1678      7369676E 
 1678      65642069 
 1679              	.LASF34:
 1680 022b 53484353 		.ascii	"SHCSR\000"
 1680      5200
 1681              	.LASF0:
 1682 0231 756E7369 		.ascii	"unsigned int\000"
 1682      676E6564 
 1682      20696E74 
 1682      00
 1683              	.LASF5:
 1684 023e 75696E74 		.ascii	"uint16_t\000"
 1684      31365F74 
 1684      00
 1685              	.LASF85:
 1686 0247 474E5520 		.ascii	"GNU C 4.7.2\000"
 1686      4320342E 
 1686      372E3200 
 1687              	.LASF10:
 1688 0253 6C6F6E67 		.ascii	"long unsigned int\000"
 1688      20756E73 
 1688      69676E65 
 1688      6420696E 
 1688      7400
 1689              	.LASF38:
 1690 0265 4D4D4641 		.ascii	"MMFAR\000"
 1690      5200
 1691              	.LASF89:
 1692 026b 68616C5F 		.ascii	"hal_lld_init\000"
 1692      6C6C645F 
 1692      696E6974 
 1692      00
 1693              	.LASF58:
 1694 0278 504C4C43 		.ascii	"PLLCFGR\000"
 1694      46475200 
 1695              	.LASF48:
 1696 0280 53797354 		.ascii	"SysTick_Type\000"
 1696      69636B5F 
 1696      54797065 
 1696      00
 1697              	.LASF6:
 1698 028d 73686F72 		.ascii	"short unsigned int\000"
 1698      7420756E 
 1698      7369676E 
 1698      65642069 
 1698      6E7400
 1699              	.LASF77:
 1700 02a0 41504231 		.ascii	"APB1LPENR\000"
 1700      4C50454E 
ARM GAS  /tmp/cceEXTDv.s 			page 33


 1700      5200
 1701              	.LASF29:
 1702 02aa 63686172 		.ascii	"char\000"
 1702      00
 1703              	.LASF19:
 1704 02af 434D785F 		.ascii	"CMx_SCS\000"
 1704      53435300 
 1705              	.LASF32:
 1706 02b7 56544F52 		.ascii	"VTOR\000"
 1706      00
 1707              	.LASF7:
 1708 02bc 696E7433 		.ascii	"int32_t\000"
 1708      325F7400 
 1709              	.LASF42:
 1710 02c4 49534152 		.ascii	"ISAR\000"
 1710      00
 1711              	.LASF52:
 1712 02c9 4442474D 		.ascii	"DBGMCU_TypeDef\000"
 1712      43555F54 
 1712      79706544 
 1712      656600
 1713              	.LASF37:
 1714 02d8 44465352 		.ascii	"DFSR\000"
 1714      00
 1715              	.LASF36:
 1716 02dd 48465352 		.ascii	"HFSR\000"
 1716      00
 1717              	.LASF74:
 1718 02e2 41484232 		.ascii	"AHB2LPENR\000"
 1718      4C50454E 
 1718      5200
 1719              	.LASF92:
 1720 02ec 646D6149 		.ascii	"dmaInit\000"
 1720      6E697400 
 1721              	.LASF41:
 1722 02f4 4D4D4652 		.ascii	"MMFR\000"
 1722      00
 1723              	.LASF43:
 1724 02f9 52455345 		.ascii	"RESERVED0\000"
 1724      52564544 
 1724      3000
 1725              	.LASF65:
 1726 0303 52455345 		.ascii	"RESERVED1\000"
 1726      52564544 
 1726      3100
 1727              	.LASF69:
 1728 030d 52455345 		.ascii	"RESERVED2\000"
 1728      52564544 
 1728      3200
 1729              	.LASF72:
 1730 0317 52455345 		.ascii	"RESERVED3\000"
 1730      52564544 
 1730      3300
 1731              	.LASF76:
 1732 0321 52455345 		.ascii	"RESERVED4\000"
 1732      52564544 
 1732      3400
ARM GAS  /tmp/cceEXTDv.s 			page 34


 1733              	.LASF79:
 1734 032b 52455345 		.ascii	"RESERVED5\000"
 1734      52564544 
 1734      3500
 1735              	.LASF81:
 1736 0335 52455345 		.ascii	"RESERVED6\000"
 1736      52564544 
 1736      3600
 1737              	.LASF24:
 1738 033f 534C4545 		.ascii	"SLEEPCNT\000"
 1738      50434E54 
 1738      00
 1739              	.LASF49:
 1740 0348 4944434F 		.ascii	"IDCODE\000"
 1740      444500
 1741              	.LASF25:
 1742 034f 4C535543 		.ascii	"LSUCNT\000"
 1742      4E5400
 1743              	.LASF46:
 1744 0356 4C4F4144 		.ascii	"LOAD\000"
 1744      00
 1745              	.LASF60:
 1746 035b 41484231 		.ascii	"AHB1RSTR\000"
 1746      52535452 
 1746      00
 1747              	.LASF40:
 1748 0364 41465352 		.ascii	"AFSR\000"
 1748      00
 1749              	.LASF62:
 1750 0369 41484233 		.ascii	"AHB3RSTR\000"
 1750      52535452 
 1750      00
 1751              	.LASF56:
 1752 0372 464C4153 		.ascii	"FLASH_TypeDef\000"
 1752      485F5479 
 1752      70654465 
 1752      6600
 1753              	.LASF91:
 1754 0380 49544D5F 		.ascii	"ITM_RxBuffer\000"
 1754      52784275 
 1754      66666572 
 1754      00
 1755              	.LASF44:
 1756 038d 43504143 		.ascii	"CPACR\000"
 1756      5200
 1757              	.LASF78:
 1758 0393 41504232 		.ascii	"APB2LPENR\000"
 1758      4C50454E 
 1758      5200
 1759              	.LASF55:
 1760 039d 4F505443 		.ascii	"OPTCR\000"
 1760      5200
 1761              		.ident	"GCC: (crosstool-NG 1.17.0 - PSAS ST32F4 GFE) 4.7.2"
ARM GAS  /tmp/cceEXTDv.s 			page 35


DEFINED SYMBOLS
                            *ABS*:0000000000000000 hal_lld.c
     /tmp/cceEXTDv.s:21     .text.hal_lld_init:0000000000000000 $t
     /tmp/cceEXTDv.s:27     .text.hal_lld_init:0000000000000000 hal_lld_init
     /tmp/cceEXTDv.s:154    .text.stm32_clock_init:0000000000000000 $t
     /tmp/cceEXTDv.s:160    .text.stm32_clock_init:0000000000000000 stm32_clock_init
                     .debug_frame:0000000000000010 $d

UNDEFINED SYMBOLS
dmaInit
