ARM GAS  /tmp/cc4vLAE3.s 			page 1


   1              		.syntax unified
   2              		.cpu cortex-m4
   3              		.eabi_attribute 27, 3
   4              		.eabi_attribute 28, 1
   5              		.fpu fpv4-sp-d16
   6              		.eabi_attribute 20, 1
   7              		.eabi_attribute 21, 1
   8              		.eabi_attribute 23, 3
   9              		.eabi_attribute 24, 1
  10              		.eabi_attribute 25, 1
  11              		.eabi_attribute 26, 1
  12              		.eabi_attribute 30, 2
  13              		.eabi_attribute 34, 1
  14              		.eabi_attribute 18, 4
  15              		.thumb
  16              		.file	"inet_chksum.c"
  17              		.text
  18              	.Ltext0:
  19              		.cfi_sections	.debug_frame
  20              		.section	.text.lwip_standard_chksum,"ax",%progbits
  21              		.align	2
  22              		.p2align 4,,15
  23              		.thumb
  24              		.thumb_func
  25              		.type	lwip_standard_chksum, %function
  26              	lwip_standard_chksum:
  27              	.LFB7:
  28              		.file 1 "../../ext/lwip/src/core/ipv4/inet_chksum.c"
  29              		.loc 1 136 0
  30              		.cfi_startproc
  31              		@ args = 0, pretend = 0, frame = 8
  32              		@ frame_needed = 0, uses_anonymous_args = 0
  33              		@ link register save eliminated.
  34              	.LVL0:
  35 0000 70B4     		push	{r4, r5, r6}
  36              	.LCFI0:
  37              		.cfi_def_cfa_offset 12
  38              		.cfi_offset 4, -12
  39              		.cfi_offset 5, -8
  40              		.cfi_offset 6, -4
  41              		.loc 1 140 0
  42 0002 00F00106 		and	r6, r0, #1
  43              		.loc 1 136 0
  44 0006 83B0     		sub	sp, sp, #12
  45              	.LCFI1:
  46              		.cfi_def_cfa_offset 24
  47              		.loc 1 138 0
  48 0008 0022     		movs	r2, #0
  49              		.loc 1 143 0
  50 000a 0029     		cmp	r1, #0
  51 000c D4BF     		ite	le
  52 000e 0023     		movle	r3, #0
  53 0010 06F00103 		andgt	r3, r6, #1
  54              		.loc 1 138 0
  55 0014 ADF80620 		strh	r2, [sp, #6]	@ movhi
  56              	.LVL1:
  57              		.loc 1 143 0
ARM GAS  /tmp/cc4vLAE3.s 			page 2


  58 0018 23B1     		cbz	r3, .L2
  59              		.loc 1 144 0
  60 001a 10F8013B 		ldrb	r3, [r0], #1	@ zero_extendqisi2
  61              	.LVL2:
  62              		.loc 1 145 0
  63 001e 0139     		subs	r1, r1, #1
  64              	.LVL3:
  65              		.loc 1 144 0
  66 0020 8DF80730 		strb	r3, [sp, #7]
  67              	.LVL4:
  68              	.L2:
  69              		.loc 1 150 0
  70 0024 0129     		cmp	r1, #1
  71 0026 27DD     		ble	.L8
  72 0028 0446     		mov	r4, r0
  73 002a 0B46     		mov	r3, r1
  74 002c 0022     		movs	r2, #0
  75              	.LVL5:
  76              	.L4:
  77              		.loc 1 151 0
  78 002e 34F8025B 		ldrh	r5, [r4], #2
  79              	.LVL6:
  80              		.loc 1 152 0
  81 0032 023B     		subs	r3, r3, #2
  82              	.LVL7:
  83              		.loc 1 150 0
  84 0034 012B     		cmp	r3, #1
  85              		.loc 1 151 0
  86 0036 2A44     		add	r2, r2, r5
  87              	.LVL8:
  88              		.loc 1 150 0
  89 0038 F9DC     		bgt	.L4
  90              		.loc 1 135 0
  91 003a 0239     		subs	r1, r1, #2
  92 003c 4B08     		lsrs	r3, r1, #1
  93              	.LVL9:
  94 003e 5C1C     		adds	r4, r3, #1
  95              	.LVL10:
  96 0040 00EB4400 		add	r0, r0, r4, lsl #1
  97              	.LVL11:
  98 0044 A1EB4301 		sub	r1, r1, r3, lsl #1
  99              	.LVL12:
 100              	.L3:
 101              		.loc 1 156 0
 102 0048 0129     		cmp	r1, #1
 103              		.loc 1 157 0
 104 004a 04BF     		itt	eq
 105 004c 0378     		ldrbeq	r3, [r0, #0]	@ zero_extendqisi2
 106 004e 8DF80630 		strbeq	r3, [sp, #6]
 107              		.loc 1 161 0
 108 0052 BDF80600 		ldrh	r0, [sp, #6]
 109              	.LVL13:
 110 0056 1218     		adds	r2, r2, r0
 111              	.LVL14:
 112              		.loc 1 165 0
 113 0058 90B2     		uxth	r0, r2
 114              	.LVL15:
ARM GAS  /tmp/cc4vLAE3.s 			page 3


 115 005a 00EB1242 		add	r2, r0, r2, lsr #16
 116              	.LVL16:
 117              		.loc 1 166 0
 118 005e 90B2     		uxth	r0, r2
 119 0060 00EB1240 		add	r0, r0, r2, lsr #16
 120              	.LVL17:
 121              		.loc 1 169 0
 122 0064 26B1     		cbz	r6, .L6
 123              		.loc 1 170 0
 124 0066 0306     		lsls	r3, r0, #24
 125 0068 C0F30720 		ubfx	r0, r0, #8, #8
 126              	.LVL18:
 127 006c 40EA1340 		orr	r0, r0, r3, lsr #16
 128              	.LVL19:
 129              	.L6:
 130              		.loc 1 174 0
 131 0070 80B2     		uxth	r0, r0
 132              	.LVL20:
 133 0072 03B0     		add	sp, sp, #12
 134 0074 70BC     		pop	{r4, r5, r6}
 135 0076 7047     		bx	lr
 136              	.LVL21:
 137              	.L8:
 138              		.loc 1 139 0
 139 0078 0022     		movs	r2, #0
 140 007a E5E7     		b	.L3
 141              		.cfi_endproc
 142              	.LFE7:
 143              		.size	lwip_standard_chksum, .-lwip_standard_chksum
 144 007c AFF30080 		.section	.text.inet_chksum_pseudo,"ax",%progbits
 145              		.align	2
 146              		.p2align 4,,15
 147              		.global	inet_chksum_pseudo
 148              		.thumb
 149              		.thumb_func
 150              		.type	inet_chksum_pseudo, %function
 151              	inet_chksum_pseudo:
 152              	.LFB8:
 153              		.loc 1 275 0
 154              		.cfi_startproc
 155              		@ args = 4, pretend = 0, frame = 0
 156              		@ frame_needed = 0, uses_anonymous_args = 0
 157              	.LVL22:
 158 0000 2DE9F047 		push	{r4, r5, r6, r7, r8, r9, sl, lr}
 159              	.LCFI2:
 160              		.cfi_def_cfa_offset 32
 161              		.cfi_offset 4, -32
 162              		.cfi_offset 5, -28
 163              		.cfi_offset 6, -24
 164              		.cfi_offset 7, -20
 165              		.cfi_offset 8, -16
 166              		.cfi_offset 9, -12
 167              		.cfi_offset 10, -8
 168              		.cfi_offset 14, -4
 169              		.loc 1 275 0
 170 0004 8A46     		mov	sl, r1
 171 0006 9146     		mov	r9, r2
ARM GAS  /tmp/cc4vLAE3.s 			page 4


 172 0008 9846     		mov	r8, r3
 173              		.loc 1 284 0
 174 000a 0028     		cmp	r0, #0
 175 000c 3DD0     		beq	.L18
 176 000e 0027     		movs	r7, #0
 177 0010 0446     		mov	r4, r0
 178 0012 3D46     		mov	r5, r7
 179              	.LVL23:
 180              	.L17:
 181              		.loc 1 287 0
 182 0014 6068     		ldr	r0, [r4, #4]
 183 0016 6189     		ldrh	r1, [r4, #10]
 184 0018 FFF7FEFF 		bl	lwip_standard_chksum
 185              	.LVL24:
 186              		.loc 1 292 0
 187 001c 6689     		ldrh	r6, [r4, #10]
 188              		.loc 1 287 0
 189 001e 2818     		adds	r0, r5, r0
 190              	.LVL25:
 191              		.loc 1 291 0
 192 0020 83B2     		uxth	r3, r0
 193 0022 03EB1045 		add	r5, r3, r0, lsr #16
 194              	.LVL26:
 195              		.loc 1 292 0
 196 0026 F307     		lsls	r3, r6, #31
 197 0028 07D5     		bpl	.L16
 198              		.loc 1 294 0
 199 002a 2B06     		lsls	r3, r5, #24
 200              		.loc 1 293 0
 201 002c C7F10107 		rsb	r7, r7, #1
 202              		.loc 1 294 0
 203 0030 C5F30725 		ubfx	r5, r5, #8, #8
 204              	.LVL27:
 205              		.loc 1 293 0
 206 0034 FFB2     		uxtb	r7, r7
 207              	.LVL28:
 208              		.loc 1 294 0
 209 0036 45EA1345 		orr	r5, r5, r3, lsr #16
 210              	.LVL29:
 211              	.L16:
 212              		.loc 1 284 0
 213 003a 2468     		ldr	r4, [r4, #0]
 214              	.LVL30:
 215 003c 002C     		cmp	r4, #0
 216 003e E9D1     		bne	.L17
 217              		.loc 1 299 0
 218 0040 27B1     		cbz	r7, .L15
 219              		.loc 1 300 0
 220 0042 2B06     		lsls	r3, r5, #24
 221 0044 C5F30725 		ubfx	r5, r5, #8, #8
 222              	.LVL31:
 223 0048 45EA1345 		orr	r5, r5, r3, lsr #16
 224              	.LVL32:
 225              	.L15:
 226              		.loc 1 302 0
 227 004c DAF80020 		ldr	r2, [sl, #0]
 228              	.LVL33:
ARM GAS  /tmp/cc4vLAE3.s 			page 5


 229              		.loc 1 305 0
 230 0050 D9F80030 		ldr	r3, [r9, #0]
 231              	.LVL34:
 232              		.loc 1 303 0
 233 0054 91B2     		uxth	r1, r2
 234 0056 01EB1242 		add	r2, r1, r2, lsr #16
 235              	.LVL35:
 236              		.loc 1 304 0
 237 005a 12FA83F2 		uxtah	r2, r2, r3
 238              		.loc 1 306 0
 239 005e 02EB1343 		add	r3, r2, r3, lsr #16
 240              	.LVL36:
 241              		.loc 1 308 0
 242 0062 4046     		mov	r0, r8
 243              		.loc 1 307 0
 244 0064 5D19     		adds	r5, r3, r5
 245              	.LVL37:
 246              		.loc 1 308 0
 247 0066 FFF7FEFF 		bl	lwip_htons
 248              	.LVL38:
 249 006a 2D18     		adds	r5, r5, r0
 250              	.LVL39:
 251              		.loc 1 309 0
 252 006c BDF82000 		ldrh	r0, [sp, #32]
 253 0070 FFF7FEFF 		bl	lwip_htons
 254              	.LVL40:
 255 0074 2818     		adds	r0, r5, r0
 256              	.LVL41:
 257              		.loc 1 313 0
 258 0076 83B2     		uxth	r3, r0
 259 0078 03EB1043 		add	r3, r3, r0, lsr #16
 260              	.LVL42:
 261              		.loc 1 314 0
 262 007c 98B2     		uxth	r0, r3
 263              	.LVL43:
 264 007e 00EB1343 		add	r3, r0, r3, lsr #16
 265              	.LVL44:
 266              		.loc 1 316 0
 267 0082 D843     		mvns	r0, r3
 268              		.loc 1 317 0
 269 0084 80B2     		uxth	r0, r0
 270 0086 BDE8F087 		pop	{r4, r5, r6, r7, r8, r9, sl, pc}
 271              	.LVL45:
 272              	.L18:
 273              		.loc 1 281 0
 274 008a 0546     		mov	r5, r0
 275 008c DEE7     		b	.L15
 276              		.cfi_endproc
 277              	.LFE8:
 278              		.size	inet_chksum_pseudo, .-inet_chksum_pseudo
 279 008e 00BF     		.section	.text.inet_chksum_pseudo_partial,"ax",%progbits
 280              		.align	2
 281              		.p2align 4,,15
 282              		.global	inet_chksum_pseudo_partial
 283              		.thumb
 284              		.thumb_func
 285              		.type	inet_chksum_pseudo_partial, %function
ARM GAS  /tmp/cc4vLAE3.s 			page 6


 286              	inet_chksum_pseudo_partial:
 287              	.LFB9:
 288              		.loc 1 335 0
 289              		.cfi_startproc
 290              		@ args = 8, pretend = 0, frame = 8
 291              		@ frame_needed = 0, uses_anonymous_args = 0
 292              	.LVL46:
 293 0000 2DE9F04F 		push	{r4, r5, r6, r7, r8, r9, sl, fp, lr}
 294              	.LCFI3:
 295              		.cfi_def_cfa_offset 36
 296              		.cfi_offset 4, -36
 297              		.cfi_offset 5, -32
 298              		.cfi_offset 6, -28
 299              		.cfi_offset 7, -24
 300              		.cfi_offset 8, -20
 301              		.cfi_offset 9, -16
 302              		.cfi_offset 10, -12
 303              		.cfi_offset 11, -8
 304              		.cfi_offset 14, -4
 305 0004 83B0     		sub	sp, sp, #12
 306              	.LCFI4:
 307              		.cfi_def_cfa_offset 48
 308              		.loc 1 335 0
 309 0006 8B46     		mov	fp, r1
 310 0008 BDF83450 		ldrh	r5, [sp, #52]
 311 000c 0193     		str	r3, [sp, #4]
 312              		.loc 1 345 0
 313 000e 002D     		cmp	r5, #0
 314 0010 18BF     		it	ne
 315 0012 0028     		cmpne	r0, #0
 316              		.loc 1 335 0
 317 0014 9246     		mov	sl, r2
 318              		.loc 1 345 0
 319 0016 0CBF     		ite	eq
 320 0018 0026     		moveq	r6, #0
 321 001a 0126     		movne	r6, #1
 322 001c 30D0     		beq	.L27
 323 001e 0027     		movs	r7, #0
 324 0020 0446     		mov	r4, r0
 325 0022 3E46     		mov	r6, r7
 326              		.loc 1 354 0
 327 0024 47F6FE78 		movw	r8, #32766
 328 0028 12E0     		b	.L30
 329              	.LVL47:
 330              	.L28:
 331              		.loc 1 358 0
 332 002a 6389     		ldrh	r3, [r4, #10]
 333              		.loc 1 357 0
 334 002c B2B2     		uxth	r2, r6
 335 002e 02EB1646 		add	r6, r2, r6, lsr #16
 336              	.LVL48:
 337              		.loc 1 358 0
 338 0032 DA07     		lsls	r2, r3, #31
 339 0034 07D5     		bpl	.L29
 340              		.loc 1 360 0
 341 0036 3306     		lsls	r3, r6, #24
 342              		.loc 1 359 0
ARM GAS  /tmp/cc4vLAE3.s 			page 7


 343 0038 C7F10107 		rsb	r7, r7, #1
 344              		.loc 1 360 0
 345 003c C6F30726 		ubfx	r6, r6, #8, #8
 346              	.LVL49:
 347              		.loc 1 359 0
 348 0040 FFB2     		uxtb	r7, r7
 349              	.LVL50:
 350              		.loc 1 360 0
 351 0042 46EA1346 		orr	r6, r6, r3, lsr #16
 352              	.LVL51:
 353              	.L29:
 354              		.loc 1 345 0
 355 0046 2468     		ldr	r4, [r4, #0]
 356              	.LVL52:
 357 0048 002D     		cmp	r5, #0
 358 004a 18BF     		it	ne
 359 004c 002C     		cmpne	r4, #0
 360 004e 11D0     		beq	.L39
 361              	.LVL53:
 362              	.L30:
 363              		.loc 1 348 0
 364 0050 6389     		ldrh	r3, [r4, #10]
 365              	.LVL54:
 366              		.loc 1 352 0
 367 0052 6068     		ldr	r0, [r4, #4]
 368 0054 9D42     		cmp	r5, r3
 369 0056 34BF     		ite	cc
 370 0058 A946     		movcc	r9, r5
 371 005a 9946     		movcs	r9, r3
 372              	.LVL55:
 373 005c 4946     		mov	r1, r9
 374 005e FFF7FEFF 		bl	lwip_standard_chksum
 375              	.LVL56:
 376              		.loc 1 353 0
 377 0062 C9EB0505 		rsb	r5, r9, r5
 378 0066 ADB2     		uxth	r5, r5
 379              		.loc 1 354 0
 380 0068 4545     		cmp	r5, r8
 381              		.loc 1 352 0
 382 006a 0644     		add	r6, r6, r0
 383              	.LVL57:
 384              		.loc 1 354 0
 385 006c DDD9     		bls	.L28
 386              		.loc 1 354 0 is_stmt 0 discriminator 1
 387 006e FFF7FEFF 		bl	port_halt
 388              	.LVL58:
 389 0072 DAE7     		b	.L28
 390              	.LVL59:
 391              	.L39:
 392              		.loc 1 365 0 is_stmt 1
 393 0074 27B1     		cbz	r7, .L27
 394              		.loc 1 366 0
 395 0076 3306     		lsls	r3, r6, #24
 396 0078 C6F30726 		ubfx	r6, r6, #8, #8
 397              	.LVL60:
 398 007c 46EA1346 		orr	r6, r6, r3, lsr #16
 399              	.LVL61:
ARM GAS  /tmp/cc4vLAE3.s 			page 8


 400              	.L27:
 401              		.loc 1 368 0
 402 0080 DBF80020 		ldr	r2, [fp, #0]
 403              	.LVL62:
 404              		.loc 1 371 0
 405 0084 DAF80030 		ldr	r3, [sl, #0]
 406              	.LVL63:
 407              		.loc 1 374 0
 408 0088 0198     		ldr	r0, [sp, #4]
 409              		.loc 1 369 0
 410 008a 91B2     		uxth	r1, r2
 411 008c 01EB1242 		add	r2, r1, r2, lsr #16
 412              	.LVL64:
 413              		.loc 1 370 0
 414 0090 12FA83F2 		uxtah	r2, r2, r3
 415              		.loc 1 372 0
 416 0094 02EB1343 		add	r3, r2, r3, lsr #16
 417              	.LVL65:
 418              		.loc 1 373 0
 419 0098 9E19     		adds	r6, r3, r6
 420              	.LVL66:
 421              		.loc 1 374 0
 422 009a FFF7FEFF 		bl	lwip_htons
 423              	.LVL67:
 424 009e 3618     		adds	r6, r6, r0
 425              	.LVL68:
 426              		.loc 1 375 0
 427 00a0 BDF83000 		ldrh	r0, [sp, #48]
 428 00a4 FFF7FEFF 		bl	lwip_htons
 429              	.LVL69:
 430 00a8 3018     		adds	r0, r6, r0
 431              	.LVL70:
 432              		.loc 1 379 0
 433 00aa 83B2     		uxth	r3, r0
 434 00ac 03EB1043 		add	r3, r3, r0, lsr #16
 435              	.LVL71:
 436              		.loc 1 380 0
 437 00b0 98B2     		uxth	r0, r3
 438              	.LVL72:
 439 00b2 00EB1343 		add	r3, r0, r3, lsr #16
 440              	.LVL73:
 441              		.loc 1 382 0
 442 00b6 D843     		mvns	r0, r3
 443              		.loc 1 383 0
 444 00b8 80B2     		uxth	r0, r0
 445 00ba 03B0     		add	sp, sp, #12
 446 00bc BDE8F08F 		pop	{r4, r5, r6, r7, r8, r9, sl, fp, pc}
 447              		.cfi_endproc
 448              	.LFE9:
 449              		.size	inet_chksum_pseudo_partial, .-inet_chksum_pseudo_partial
 450              		.section	.text.inet_chksum,"ax",%progbits
 451              		.align	2
 452              		.p2align 4,,15
 453              		.global	inet_chksum
 454              		.thumb
 455              		.thumb_func
 456              		.type	inet_chksum, %function
ARM GAS  /tmp/cc4vLAE3.s 			page 9


 457              	inet_chksum:
 458              	.LFB10:
 459              		.loc 1 397 0
 460              		.cfi_startproc
 461              		@ args = 0, pretend = 0, frame = 0
 462              		@ frame_needed = 0, uses_anonymous_args = 0
 463              	.LVL74:
 464 0000 08B5     		push	{r3, lr}
 465              	.LCFI5:
 466              		.cfi_def_cfa_offset 8
 467              		.cfi_offset 3, -8
 468              		.cfi_offset 14, -4
 469              		.loc 1 398 0
 470 0002 FFF7FEFF 		bl	lwip_standard_chksum
 471              	.LVL75:
 472 0006 C043     		mvns	r0, r0
 473              		.loc 1 399 0
 474 0008 80B2     		uxth	r0, r0
 475 000a 08BD     		pop	{r3, pc}
 476              		.cfi_endproc
 477              	.LFE10:
 478              		.size	inet_chksum, .-inet_chksum
 479 000c AFF30080 		.section	.text.inet_chksum_pbuf,"ax",%progbits
 480              		.align	2
 481              		.p2align 4,,15
 482              		.global	inet_chksum_pbuf
 483              		.thumb
 484              		.thumb_func
 485              		.type	inet_chksum_pbuf, %function
 486              	inet_chksum_pbuf:
 487              	.LFB11:
 488              		.loc 1 410 0
 489              		.cfi_startproc
 490              		@ args = 0, pretend = 0, frame = 0
 491              		@ frame_needed = 0, uses_anonymous_args = 0
 492              	.LVL76:
 493 0000 70B5     		push	{r4, r5, r6, lr}
 494              	.LCFI6:
 495              		.cfi_def_cfa_offset 16
 496              		.cfi_offset 4, -16
 497              		.cfi_offset 5, -12
 498              		.cfi_offset 6, -8
 499              		.cfi_offset 14, -4
 500              		.loc 1 417 0
 501 0002 20B3     		cbz	r0, .L46
 502 0004 0026     		movs	r6, #0
 503 0006 0446     		mov	r4, r0
 504 0008 3546     		mov	r5, r6
 505              	.LVL77:
 506              	.L44:
 507              		.loc 1 418 0
 508 000a 6189     		ldrh	r1, [r4, #10]
 509 000c 6068     		ldr	r0, [r4, #4]
 510 000e FFF7FEFF 		bl	lwip_standard_chksum
 511              	.LVL78:
 512              		.loc 1 420 0
 513 0012 6389     		ldrh	r3, [r4, #10]
ARM GAS  /tmp/cc4vLAE3.s 			page 10


 514              		.loc 1 418 0
 515 0014 2818     		adds	r0, r5, r0
 516              	.LVL79:
 517              		.loc 1 419 0
 518 0016 85B2     		uxth	r5, r0
 519              		.loc 1 420 0
 520 0018 D907     		lsls	r1, r3, #31
 521              		.loc 1 419 0
 522 001a 05EB1045 		add	r5, r5, r0, lsr #16
 523              	.LVL80:
 524              		.loc 1 420 0
 525 001e 07D5     		bpl	.L43
 526              		.loc 1 422 0
 527 0020 2B06     		lsls	r3, r5, #24
 528              		.loc 1 421 0
 529 0022 C6F10106 		rsb	r6, r6, #1
 530              		.loc 1 422 0
 531 0026 C5F30725 		ubfx	r5, r5, #8, #8
 532              	.LVL81:
 533              		.loc 1 421 0
 534 002a F6B2     		uxtb	r6, r6
 535              	.LVL82:
 536              		.loc 1 422 0
 537 002c 45EA1345 		orr	r5, r5, r3, lsr #16
 538              	.LVL83:
 539              	.L43:
 540              		.loc 1 417 0
 541 0030 2468     		ldr	r4, [r4, #0]
 542              	.LVL84:
 543 0032 002C     		cmp	r4, #0
 544 0034 E9D1     		bne	.L44
 545              		.loc 1 426 0
 546 0036 3EB1     		cbz	r6, .L51
 547              		.loc 1 427 0
 548 0038 2806     		lsls	r0, r5, #24
 549 003a C5F30725 		ubfx	r5, r5, #8, #8
 550              	.LVL85:
 551 003e 45EA1040 		orr	r0, r5, r0, lsr #16
 552              	.LVL86:
 553 0042 C043     		mvns	r0, r0
 554              	.LVL87:
 555 0044 80B2     		uxth	r0, r0
 556              	.LVL88:
 557 0046 70BD     		pop	{r4, r5, r6, pc}
 558              	.LVL89:
 559              	.L51:
 560 0048 E843     		mvns	r0, r5
 561 004a 80B2     		uxth	r0, r0
 562 004c 70BD     		pop	{r4, r5, r6, pc}
 563              	.LVL90:
 564              	.L46:
 565              		.loc 1 417 0
 566 004e 4FF6FF70 		movw	r0, #65535
 567              	.LVL91:
 568              		.loc 1 430 0
 569 0052 70BD     		pop	{r4, r5, r6, pc}
 570              		.cfi_endproc
ARM GAS  /tmp/cc4vLAE3.s 			page 11


 571              	.LFE11:
 572              		.size	inet_chksum_pbuf, .-inet_chksum_pbuf
 573 0054 AFF30080 		.text
 573      AFF30080 
 573      AFF30080 
 574              	.Letext0:
 575              		.file 2 "/opt/psas/x-tools/stm32f407/arm-psas-eabi/bin/../lib/gcc/arm-psas-eabi/4.7.2/../../../../
 576              		.file 3 "../../os/various/lwip_bindings/arch/cc.h"
 577              		.file 4 "../../ext/lwip/src/include/lwip/pbuf.h"
 578              		.file 5 "../../ext/lwip/src/include/ipv4/lwip/ip_addr.h"
 579              		.file 6 "../../ext/lwip/src/include/lwip/def.h"
 580              		.file 7 "../../os/ports/GCC/ARMCMx/chcore_v7m.h"
 581              		.section	.debug_info,"",%progbits
 582              	.Ldebug_info0:
 583 0000 BA040000 		.4byte	0x4ba
 584 0004 0200     		.2byte	0x2
 585 0006 00000000 		.4byte	.Ldebug_abbrev0
 586 000a 04       		.byte	0x4
 587 000b 01       		.uleb128 0x1
 588 000c E0010000 		.4byte	.LASF38
 589 0010 01       		.byte	0x1
 590 0011 3B000000 		.4byte	.LASF39
 591 0015 8E000000 		.4byte	.LASF40
 592 0019 00000000 		.4byte	.Ldebug_ranges0+0
 593 001d 00000000 		.4byte	0
 594 0021 00000000 		.4byte	0
 595 0025 00000000 		.4byte	.Ldebug_line0
 596 0029 02       		.uleb128 0x2
 597 002a 04       		.byte	0x4
 598 002b 05       		.byte	0x5
 599 002c 696E7400 		.ascii	"int\000"
 600 0030 03       		.uleb128 0x3
 601 0031 04       		.byte	0x4
 602 0032 07       		.byte	0x7
 603 0033 4D010000 		.4byte	.LASF0
 604 0037 03       		.uleb128 0x3
 605 0038 01       		.byte	0x1
 606 0039 06       		.byte	0x6
 607 003a EE000000 		.4byte	.LASF1
 608 003e 04       		.uleb128 0x4
 609 003f 92010000 		.4byte	.LASF4
 610 0043 02       		.byte	0x2
 611 0044 2A       		.byte	0x2a
 612 0045 49000000 		.4byte	0x49
 613 0049 03       		.uleb128 0x3
 614 004a 01       		.byte	0x1
 615 004b 08       		.byte	0x8
 616 004c 02010000 		.4byte	.LASF2
 617 0050 03       		.uleb128 0x3
 618 0051 02       		.byte	0x2
 619 0052 05       		.byte	0x5
 620 0053 F1010000 		.4byte	.LASF3
 621 0057 04       		.uleb128 0x4
 622 0058 FB010000 		.4byte	.LASF5
 623 005c 02       		.byte	0x2
 624 005d 36       		.byte	0x36
 625 005e 62000000 		.4byte	0x62
ARM GAS  /tmp/cc4vLAE3.s 			page 12


 626 0062 03       		.uleb128 0x3
 627 0063 02       		.byte	0x2
 628 0064 07       		.byte	0x7
 629 0065 66000000 		.4byte	.LASF6
 630 0069 03       		.uleb128 0x3
 631 006a 04       		.byte	0x4
 632 006b 05       		.byte	0x5
 633 006c 0D020000 		.4byte	.LASF7
 634 0070 04       		.uleb128 0x4
 635 0071 04020000 		.4byte	.LASF8
 636 0075 02       		.byte	0x2
 637 0076 50       		.byte	0x50
 638 0077 7B000000 		.4byte	0x7b
 639 007b 03       		.uleb128 0x3
 640 007c 04       		.byte	0x4
 641 007d 07       		.byte	0x7
 642 007e 10010000 		.4byte	.LASF9
 643 0082 03       		.uleb128 0x3
 644 0083 08       		.byte	0x8
 645 0084 05       		.byte	0x5
 646 0085 CD010000 		.4byte	.LASF10
 647 0089 03       		.uleb128 0x3
 648 008a 08       		.byte	0x8
 649 008b 07       		.byte	0x7
 650 008c 7B010000 		.4byte	.LASF11
 651 0090 05       		.uleb128 0x5
 652 0091 04       		.byte	0x4
 653 0092 03       		.uleb128 0x3
 654 0093 04       		.byte	0x4
 655 0094 07       		.byte	0x7
 656 0095 C4010000 		.4byte	.LASF12
 657 0099 03       		.uleb128 0x3
 658 009a 01       		.byte	0x1
 659 009b 08       		.byte	0x8
 660 009c 16020000 		.4byte	.LASF13
 661 00a0 04       		.uleb128 0x4
 662 00a1 9A010000 		.4byte	.LASF14
 663 00a5 03       		.byte	0x3
 664 00a6 3C       		.byte	0x3c
 665 00a7 3E000000 		.4byte	0x3e
 666 00ab 04       		.uleb128 0x4
 667 00ac 2F010000 		.4byte	.LASF15
 668 00b0 03       		.byte	0x3
 669 00b1 3E       		.byte	0x3e
 670 00b2 57000000 		.4byte	0x57
 671 00b6 04       		.uleb128 0x4
 672 00b7 35010000 		.4byte	.LASF16
 673 00bb 03       		.byte	0x3
 674 00bc 40       		.byte	0x40
 675 00bd 70000000 		.4byte	0x70
 676 00c1 04       		.uleb128 0x4
 677 00c2 16000000 		.4byte	.LASF17
 678 00c6 03       		.byte	0x3
 679 00c7 42       		.byte	0x42
 680 00c8 70000000 		.4byte	0x70
 681 00cc 06       		.uleb128 0x6
 682 00cd DB010000 		.4byte	.LASF23
ARM GAS  /tmp/cc4vLAE3.s 			page 13


 683 00d1 10       		.byte	0x10
 684 00d2 04       		.byte	0x4
 685 00d3 49       		.byte	0x49
 686 00d4 3B010000 		.4byte	0x13b
 687 00d8 07       		.uleb128 0x7
 688 00d9 11000000 		.4byte	.LASF18
 689 00dd 04       		.byte	0x4
 690 00de 4B       		.byte	0x4b
 691 00df 3B010000 		.4byte	0x13b
 692 00e3 02       		.byte	0x2
 693 00e4 23       		.byte	0x23
 694 00e5 00       		.uleb128 0
 695 00e6 07       		.uleb128 0x7
 696 00e7 B2010000 		.4byte	.LASF19
 697 00eb 04       		.byte	0x4
 698 00ec 4E       		.byte	0x4e
 699 00ed 90000000 		.4byte	0x90
 700 00f1 02       		.byte	0x2
 701 00f2 23       		.byte	0x23
 702 00f3 04       		.uleb128 0x4
 703 00f4 07       		.uleb128 0x7
 704 00f5 3B010000 		.4byte	.LASF20
 705 00f9 04       		.byte	0x4
 706 00fa 57       		.byte	0x57
 707 00fb AB000000 		.4byte	0xab
 708 00ff 02       		.byte	0x2
 709 0100 23       		.byte	0x23
 710 0101 08       		.uleb128 0x8
 711 0102 08       		.uleb128 0x8
 712 0103 6C656E00 		.ascii	"len\000"
 713 0107 04       		.byte	0x4
 714 0108 5A       		.byte	0x5a
 715 0109 AB000000 		.4byte	0xab
 716 010d 02       		.byte	0x2
 717 010e 23       		.byte	0x23
 718 010f 0A       		.uleb128 0xa
 719 0110 07       		.uleb128 0x7
 720 0111 EC010000 		.4byte	.LASF21
 721 0115 04       		.byte	0x4
 722 0116 5D       		.byte	0x5d
 723 0117 A0000000 		.4byte	0xa0
 724 011b 02       		.byte	0x2
 725 011c 23       		.byte	0x23
 726 011d 0C       		.uleb128 0xc
 727 011e 07       		.uleb128 0x7
 728 011f 5A010000 		.4byte	.LASF22
 729 0123 04       		.byte	0x4
 730 0124 60       		.byte	0x60
 731 0125 A0000000 		.4byte	0xa0
 732 0129 02       		.byte	0x2
 733 012a 23       		.byte	0x23
 734 012b 0D       		.uleb128 0xd
 735 012c 08       		.uleb128 0x8
 736 012d 72656600 		.ascii	"ref\000"
 737 0131 04       		.byte	0x4
 738 0132 67       		.byte	0x67
 739 0133 AB000000 		.4byte	0xab
ARM GAS  /tmp/cc4vLAE3.s 			page 14


 740 0137 02       		.byte	0x2
 741 0138 23       		.byte	0x23
 742 0139 0E       		.uleb128 0xe
 743 013a 00       		.byte	0
 744 013b 09       		.uleb128 0x9
 745 013c 04       		.byte	0x4
 746 013d CC000000 		.4byte	0xcc
 747 0141 06       		.uleb128 0x6
 748 0142 2C000000 		.4byte	.LASF24
 749 0146 04       		.byte	0x4
 750 0147 05       		.byte	0x5
 751 0148 2C       		.byte	0x2c
 752 0149 5C010000 		.4byte	0x15c
 753 014d 07       		.uleb128 0x7
 754 014e 22010000 		.4byte	.LASF25
 755 0152 05       		.byte	0x5
 756 0153 2D       		.byte	0x2d
 757 0154 B6000000 		.4byte	0xb6
 758 0158 02       		.byte	0x2
 759 0159 23       		.byte	0x23
 760 015a 00       		.uleb128 0
 761 015b 00       		.byte	0
 762 015c 04       		.uleb128 0x4
 763 015d 43010000 		.4byte	.LASF26
 764 0161 05       		.byte	0x5
 765 0162 40       		.byte	0x40
 766 0163 41010000 		.4byte	0x141
 767 0167 0A       		.uleb128 0xa
 768 0168 79000000 		.4byte	.LASF41
 769 016c 01       		.byte	0x1
 770 016d 87       		.byte	0x87
 771 016e 01       		.byte	0x1
 772 016f AB000000 		.4byte	0xab
 773 0173 00000000 		.4byte	.LFB7
 774 0177 7C000000 		.4byte	.LFE7
 775 017b 00000000 		.4byte	.LLST0
 776 017f 01       		.byte	0x1
 777 0180 E8010000 		.4byte	0x1e8
 778 0184 0B       		.uleb128 0xb
 779 0185 27010000 		.4byte	.LASF27
 780 0189 01       		.byte	0x1
 781 018a 87       		.byte	0x87
 782 018b 90000000 		.4byte	0x90
 783 018f 2C000000 		.4byte	.LLST1
 784 0193 0C       		.uleb128 0xc
 785 0194 6C656E00 		.ascii	"len\000"
 786 0198 01       		.byte	0x1
 787 0199 87       		.byte	0x87
 788 019a 29000000 		.4byte	0x29
 789 019e 5A000000 		.4byte	.LLST2
 790 01a2 0D       		.uleb128 0xd
 791 01a3 706200   		.ascii	"pb\000"
 792 01a6 01       		.byte	0x1
 793 01a7 89       		.byte	0x89
 794 01a8 E8010000 		.4byte	0x1e8
 795 01ac B3000000 		.4byte	.LLST3
 796 01b0 0D       		.uleb128 0xd
ARM GAS  /tmp/cc4vLAE3.s 			page 15


 797 01b1 707300   		.ascii	"ps\000"
 798 01b4 01       		.byte	0x1
 799 01b5 8A       		.byte	0x8a
 800 01b6 EE010000 		.4byte	0x1ee
 801 01ba E9000000 		.4byte	.LLST4
 802 01be 0D       		.uleb128 0xd
 803 01bf 7400     		.ascii	"t\000"
 804 01c1 01       		.byte	0x1
 805 01c2 8A       		.byte	0x8a
 806 01c3 AB000000 		.4byte	0xab
 807 01c7 2A010000 		.4byte	.LLST5
 808 01cb 0D       		.uleb128 0xd
 809 01cc 73756D00 		.ascii	"sum\000"
 810 01d0 01       		.byte	0x1
 811 01d1 8B       		.byte	0x8b
 812 01d2 B6000000 		.4byte	0xb6
 813 01d6 55010000 		.4byte	.LLST6
 814 01da 0E       		.uleb128 0xe
 815 01db 6F646400 		.ascii	"odd\000"
 816 01df 01       		.byte	0x1
 817 01e0 8C       		.byte	0x8c
 818 01e1 29000000 		.4byte	0x29
 819 01e5 01       		.byte	0x1
 820 01e6 56       		.byte	0x56
 821 01e7 00       		.byte	0
 822 01e8 09       		.uleb128 0x9
 823 01e9 04       		.byte	0x4
 824 01ea A0000000 		.4byte	0xa0
 825 01ee 09       		.uleb128 0x9
 826 01ef 04       		.byte	0x4
 827 01f0 AB000000 		.4byte	0xab
 828 01f4 0F       		.uleb128 0xf
 829 01f5 01       		.byte	0x1
 830 01f6 9F010000 		.4byte	.LASF32
 831 01fa 01       		.byte	0x1
 832 01fb 1001     		.2byte	0x110
 833 01fd 01       		.byte	0x1
 834 01fe AB000000 		.4byte	0xab
 835 0202 00000000 		.4byte	.LFB8
 836 0206 8E000000 		.4byte	.LFE8
 837 020a B7010000 		.4byte	.LLST7
 838 020e 01       		.byte	0x1
 839 020f CE020000 		.4byte	0x2ce
 840 0213 10       		.uleb128 0x10
 841 0214 7000     		.ascii	"p\000"
 842 0216 01       		.byte	0x1
 843 0217 1001     		.2byte	0x110
 844 0219 3B010000 		.4byte	0x13b
 845 021d D7010000 		.4byte	.LLST8
 846 0221 10       		.uleb128 0x10
 847 0222 73726300 		.ascii	"src\000"
 848 0226 01       		.byte	0x1
 849 0227 1101     		.2byte	0x111
 850 0229 CE020000 		.4byte	0x2ce
 851 022d 03020000 		.4byte	.LLST9
 852 0231 11       		.uleb128 0x11
 853 0232 2B020000 		.4byte	.LASF28
ARM GAS  /tmp/cc4vLAE3.s 			page 16


 854 0236 01       		.byte	0x1
 855 0237 1101     		.2byte	0x111
 856 0239 CE020000 		.4byte	0x2ce
 857 023d 2C020000 		.4byte	.LLST10
 858 0241 11       		.uleb128 0x11
 859 0242 25020000 		.4byte	.LASF29
 860 0246 01       		.byte	0x1
 861 0247 1201     		.2byte	0x112
 862 0249 A0000000 		.4byte	0xa0
 863 024d 55020000 		.4byte	.LLST11
 864 0251 12       		.uleb128 0x12
 865 0252 1B020000 		.4byte	.LASF30
 866 0256 01       		.byte	0x1
 867 0257 1201     		.2byte	0x112
 868 0259 AB000000 		.4byte	0xab
 869 025d 02       		.byte	0x2
 870 025e 91       		.byte	0x91
 871 025f 00       		.sleb128 0
 872 0260 13       		.uleb128 0x13
 873 0261 61636300 		.ascii	"acc\000"
 874 0265 01       		.byte	0x1
 875 0266 1401     		.2byte	0x114
 876 0268 B6000000 		.4byte	0xb6
 877 026c 81020000 		.4byte	.LLST12
 878 0270 14       		.uleb128 0x14
 879 0271 22010000 		.4byte	.LASF25
 880 0275 01       		.byte	0x1
 881 0276 1501     		.2byte	0x115
 882 0278 B6000000 		.4byte	0xb6
 883 027c 9F030000 		.4byte	.LLST13
 884 0280 13       		.uleb128 0x13
 885 0281 7100     		.ascii	"q\000"
 886 0283 01       		.byte	0x1
 887 0284 1601     		.2byte	0x116
 888 0286 3B010000 		.4byte	0x13b
 889 028a C9030000 		.4byte	.LLST14
 890 028e 14       		.uleb128 0x14
 891 028f FA000000 		.4byte	.LASF31
 892 0293 01       		.byte	0x1
 893 0294 1701     		.2byte	0x117
 894 0296 A0000000 		.4byte	0xa0
 895 029a F2030000 		.4byte	.LLST15
 896 029e 15       		.uleb128 0x15
 897 029f 1C000000 		.4byte	.LVL24
 898 02a3 67010000 		.4byte	0x167
 899 02a7 16       		.uleb128 0x16
 900 02a8 6A000000 		.4byte	.LVL38
 901 02ac 9A040000 		.4byte	0x49a
 902 02b0 BB020000 		.4byte	0x2bb
 903 02b4 17       		.uleb128 0x17
 904 02b5 01       		.byte	0x1
 905 02b6 50       		.byte	0x50
 906 02b7 02       		.byte	0x2
 907 02b8 78       		.byte	0x78
 908 02b9 00       		.sleb128 0
 909 02ba 00       		.byte	0
 910 02bb 18       		.uleb128 0x18
ARM GAS  /tmp/cc4vLAE3.s 			page 17


 911 02bc 74000000 		.4byte	.LVL40
 912 02c0 9A040000 		.4byte	0x49a
 913 02c4 17       		.uleb128 0x17
 914 02c5 01       		.byte	0x1
 915 02c6 50       		.byte	0x50
 916 02c7 04       		.byte	0x4
 917 02c8 91       		.byte	0x91
 918 02c9 00       		.sleb128 0
 919 02ca 94       		.byte	0x94
 920 02cb 02       		.byte	0x2
 921 02cc 00       		.byte	0
 922 02cd 00       		.byte	0
 923 02ce 09       		.uleb128 0x9
 924 02cf 04       		.byte	0x4
 925 02d0 5C010000 		.4byte	0x15c
 926 02d4 0F       		.uleb128 0xf
 927 02d5 01       		.byte	0x1
 928 02d6 60010000 		.4byte	.LASF33
 929 02da 01       		.byte	0x1
 930 02db 4C01     		.2byte	0x14c
 931 02dd 01       		.byte	0x1
 932 02de AB000000 		.4byte	0xab
 933 02e2 00000000 		.4byte	.LFB9
 934 02e6 C0000000 		.4byte	.LFE9
 935 02ea 1D040000 		.4byte	.LLST16
 936 02ee 01       		.byte	0x1
 937 02ef E4030000 		.4byte	0x3e4
 938 02f3 10       		.uleb128 0x10
 939 02f4 7000     		.ascii	"p\000"
 940 02f6 01       		.byte	0x1
 941 02f7 4C01     		.2byte	0x14c
 942 02f9 3B010000 		.4byte	0x13b
 943 02fd 49040000 		.4byte	.LLST17
 944 0301 10       		.uleb128 0x10
 945 0302 73726300 		.ascii	"src\000"
 946 0306 01       		.byte	0x1
 947 0307 4D01     		.2byte	0x14d
 948 0309 CE020000 		.4byte	0x2ce
 949 030d 6A040000 		.4byte	.LLST18
 950 0311 11       		.uleb128 0x11
 951 0312 2B020000 		.4byte	.LASF28
 952 0316 01       		.byte	0x1
 953 0317 4D01     		.2byte	0x14d
 954 0319 CE020000 		.4byte	0x2ce
 955 031d 88040000 		.4byte	.LLST19
 956 0321 11       		.uleb128 0x11
 957 0322 25020000 		.4byte	.LASF29
 958 0326 01       		.byte	0x1
 959 0327 4E01     		.2byte	0x14e
 960 0329 A0000000 		.4byte	0xa0
 961 032d A6040000 		.4byte	.LLST20
 962 0331 12       		.uleb128 0x12
 963 0332 1B020000 		.4byte	.LASF30
 964 0336 01       		.byte	0x1
 965 0337 4E01     		.2byte	0x14e
 966 0339 AB000000 		.4byte	0xab
 967 033d 02       		.byte	0x2
ARM GAS  /tmp/cc4vLAE3.s 			page 18


 968 033e 91       		.byte	0x91
 969 033f 00       		.sleb128 0
 970 0340 11       		.uleb128 0x11
 971 0341 E3000000 		.4byte	.LASF34
 972 0345 01       		.byte	0x1
 973 0346 4E01     		.2byte	0x14e
 974 0348 AB000000 		.4byte	0xab
 975 034c C7040000 		.4byte	.LLST21
 976 0350 13       		.uleb128 0x13
 977 0351 61636300 		.ascii	"acc\000"
 978 0355 01       		.byte	0x1
 979 0356 5001     		.2byte	0x150
 980 0358 B6000000 		.4byte	0xb6
 981 035c F1040000 		.4byte	.LLST22
 982 0360 14       		.uleb128 0x14
 983 0361 22010000 		.4byte	.LASF25
 984 0365 01       		.byte	0x1
 985 0366 5101     		.2byte	0x151
 986 0368 B6000000 		.4byte	0xb6
 987 036c ED050000 		.4byte	.LLST23
 988 0370 13       		.uleb128 0x13
 989 0371 7100     		.ascii	"q\000"
 990 0373 01       		.byte	0x1
 991 0374 5201     		.2byte	0x152
 992 0376 3B010000 		.4byte	0x13b
 993 037a 17060000 		.4byte	.LLST24
 994 037e 14       		.uleb128 0x14
 995 037f FA000000 		.4byte	.LASF31
 996 0383 01       		.byte	0x1
 997 0384 5301     		.2byte	0x153
 998 0386 A0000000 		.4byte	0xa0
 999 038a 35060000 		.4byte	.LLST25
 1000 038e 14       		.uleb128 0x14
 1001 038f 34000000 		.4byte	.LASF35
 1002 0393 01       		.byte	0x1
 1003 0394 5401     		.2byte	0x154
 1004 0396 AB000000 		.4byte	0xab
 1005 039a 5F060000 		.4byte	.LLST26
 1006 039e 16       		.uleb128 0x16
 1007 039f 62000000 		.4byte	.LVL56
 1008 03a3 67010000 		.4byte	0x167
 1009 03a7 B2030000 		.4byte	0x3b2
 1010 03ab 17       		.uleb128 0x17
 1011 03ac 01       		.byte	0x1
 1012 03ad 51       		.byte	0x51
 1013 03ae 02       		.byte	0x2
 1014 03af 79       		.byte	0x79
 1015 03b0 00       		.sleb128 0
 1016 03b1 00       		.byte	0
 1017 03b2 15       		.uleb128 0x15
 1018 03b3 72000000 		.4byte	.LVL58
 1019 03b7 B2040000 		.4byte	0x4b2
 1020 03bb 16       		.uleb128 0x16
 1021 03bc 9E000000 		.4byte	.LVL67
 1022 03c0 9A040000 		.4byte	0x49a
 1023 03c4 D1030000 		.4byte	0x3d1
 1024 03c8 17       		.uleb128 0x17
ARM GAS  /tmp/cc4vLAE3.s 			page 19


 1025 03c9 01       		.byte	0x1
 1026 03ca 50       		.byte	0x50
 1027 03cb 04       		.byte	0x4
 1028 03cc 91       		.byte	0x91
 1029 03cd 54       		.sleb128 -44
 1030 03ce 94       		.byte	0x94
 1031 03cf 02       		.byte	0x2
 1032 03d0 00       		.byte	0
 1033 03d1 18       		.uleb128 0x18
 1034 03d2 A8000000 		.4byte	.LVL69
 1035 03d6 9A040000 		.4byte	0x49a
 1036 03da 17       		.uleb128 0x17
 1037 03db 01       		.byte	0x1
 1038 03dc 50       		.byte	0x50
 1039 03dd 04       		.byte	0x4
 1040 03de 91       		.byte	0x91
 1041 03df 00       		.sleb128 0
 1042 03e0 94       		.byte	0x94
 1043 03e1 02       		.byte	0x2
 1044 03e2 00       		.byte	0
 1045 03e3 00       		.byte	0
 1046 03e4 0F       		.uleb128 0xf
 1047 03e5 01       		.byte	0x1
 1048 03e6 20000000 		.4byte	.LASF36
 1049 03ea 01       		.byte	0x1
 1050 03eb 8C01     		.2byte	0x18c
 1051 03ed 01       		.byte	0x1
 1052 03ee AB000000 		.4byte	0xab
 1053 03f2 00000000 		.4byte	.LFB10
 1054 03f6 0C000000 		.4byte	.LFE10
 1055 03fa 89060000 		.4byte	.LLST27
 1056 03fe 01       		.byte	0x1
 1057 03ff 35040000 		.4byte	0x435
 1058 0403 11       		.uleb128 0x11
 1059 0404 27010000 		.4byte	.LASF27
 1060 0408 01       		.byte	0x1
 1061 0409 8C01     		.2byte	0x18c
 1062 040b 90000000 		.4byte	0x90
 1063 040f A9060000 		.4byte	.LLST28
 1064 0413 10       		.uleb128 0x10
 1065 0414 6C656E00 		.ascii	"len\000"
 1066 0418 01       		.byte	0x1
 1067 0419 8C01     		.2byte	0x18c
 1068 041b AB000000 		.4byte	0xab
 1069 041f CA060000 		.4byte	.LLST29
 1070 0423 18       		.uleb128 0x18
 1071 0424 06000000 		.4byte	.LVL75
 1072 0428 67010000 		.4byte	0x167
 1073 042c 17       		.uleb128 0x17
 1074 042d 01       		.byte	0x1
 1075 042e 50       		.byte	0x50
 1076 042f 03       		.byte	0x3
 1077 0430 F3       		.byte	0xf3
 1078 0431 01       		.uleb128 0x1
 1079 0432 50       		.byte	0x50
 1080 0433 00       		.byte	0
 1081 0434 00       		.byte	0
ARM GAS  /tmp/cc4vLAE3.s 			page 20


 1082 0435 0F       		.uleb128 0xf
 1083 0436 01       		.byte	0x1
 1084 0437 00000000 		.4byte	.LASF37
 1085 043b 01       		.byte	0x1
 1086 043c 9901     		.2byte	0x199
 1087 043e 01       		.byte	0x1
 1088 043f AB000000 		.4byte	0xab
 1089 0443 00000000 		.4byte	.LFB11
 1090 0447 54000000 		.4byte	.LFE11
 1091 044b EB060000 		.4byte	.LLST30
 1092 044f 01       		.byte	0x1
 1093 0450 9A040000 		.4byte	0x49a
 1094 0454 10       		.uleb128 0x10
 1095 0455 7000     		.ascii	"p\000"
 1096 0457 01       		.byte	0x1
 1097 0458 9901     		.2byte	0x199
 1098 045a 3B010000 		.4byte	0x13b
 1099 045e 0B070000 		.4byte	.LLST31
 1100 0462 13       		.uleb128 0x13
 1101 0463 61636300 		.ascii	"acc\000"
 1102 0467 01       		.byte	0x1
 1103 0468 9B01     		.2byte	0x19b
 1104 046a B6000000 		.4byte	0xb6
 1105 046e 45070000 		.4byte	.LLST32
 1106 0472 13       		.uleb128 0x13
 1107 0473 7100     		.ascii	"q\000"
 1108 0475 01       		.byte	0x1
 1109 0476 9C01     		.2byte	0x19c
 1110 0478 3B010000 		.4byte	0x13b
 1111 047c D2070000 		.4byte	.LLST33
 1112 0480 14       		.uleb128 0x14
 1113 0481 FA000000 		.4byte	.LASF31
 1114 0485 01       		.byte	0x1
 1115 0486 9D01     		.2byte	0x19d
 1116 0488 A0000000 		.4byte	0xa0
 1117 048c 09080000 		.4byte	.LLST34
 1118 0490 15       		.uleb128 0x15
 1119 0491 12000000 		.4byte	.LVL78
 1120 0495 67010000 		.4byte	0x167
 1121 0499 00       		.byte	0
 1122 049a 19       		.uleb128 0x19
 1123 049b 01       		.byte	0x1
 1124 049c D8000000 		.4byte	.LASF42
 1125 04a0 06       		.byte	0x6
 1126 04a1 67       		.byte	0x67
 1127 04a2 01       		.byte	0x1
 1128 04a3 AB000000 		.4byte	0xab
 1129 04a7 01       		.byte	0x1
 1130 04a8 B2040000 		.4byte	0x4b2
 1131 04ac 1A       		.uleb128 0x1a
 1132 04ad AB000000 		.4byte	0xab
 1133 04b1 00       		.byte	0
 1134 04b2 1B       		.uleb128 0x1b
 1135 04b3 01       		.byte	0x1
 1136 04b4 BA010000 		.4byte	.LASF43
 1137 04b8 07       		.byte	0x7
 1138 04b9 FA01     		.2byte	0x1fa
ARM GAS  /tmp/cc4vLAE3.s 			page 21


 1139 04bb 01       		.byte	0x1
 1140 04bc 01       		.byte	0x1
 1141 04bd 00       		.byte	0
 1142              		.section	.debug_abbrev,"",%progbits
 1143              	.Ldebug_abbrev0:
 1144 0000 01       		.uleb128 0x1
 1145 0001 11       		.uleb128 0x11
 1146 0002 01       		.byte	0x1
 1147 0003 25       		.uleb128 0x25
 1148 0004 0E       		.uleb128 0xe
 1149 0005 13       		.uleb128 0x13
 1150 0006 0B       		.uleb128 0xb
 1151 0007 03       		.uleb128 0x3
 1152 0008 0E       		.uleb128 0xe
 1153 0009 1B       		.uleb128 0x1b
 1154 000a 0E       		.uleb128 0xe
 1155 000b 55       		.uleb128 0x55
 1156 000c 06       		.uleb128 0x6
 1157 000d 11       		.uleb128 0x11
 1158 000e 01       		.uleb128 0x1
 1159 000f 52       		.uleb128 0x52
 1160 0010 01       		.uleb128 0x1
 1161 0011 10       		.uleb128 0x10
 1162 0012 06       		.uleb128 0x6
 1163 0013 00       		.byte	0
 1164 0014 00       		.byte	0
 1165 0015 02       		.uleb128 0x2
 1166 0016 24       		.uleb128 0x24
 1167 0017 00       		.byte	0
 1168 0018 0B       		.uleb128 0xb
 1169 0019 0B       		.uleb128 0xb
 1170 001a 3E       		.uleb128 0x3e
 1171 001b 0B       		.uleb128 0xb
 1172 001c 03       		.uleb128 0x3
 1173 001d 08       		.uleb128 0x8
 1174 001e 00       		.byte	0
 1175 001f 00       		.byte	0
 1176 0020 03       		.uleb128 0x3
 1177 0021 24       		.uleb128 0x24
 1178 0022 00       		.byte	0
 1179 0023 0B       		.uleb128 0xb
 1180 0024 0B       		.uleb128 0xb
 1181 0025 3E       		.uleb128 0x3e
 1182 0026 0B       		.uleb128 0xb
 1183 0027 03       		.uleb128 0x3
 1184 0028 0E       		.uleb128 0xe
 1185 0029 00       		.byte	0
 1186 002a 00       		.byte	0
 1187 002b 04       		.uleb128 0x4
 1188 002c 16       		.uleb128 0x16
 1189 002d 00       		.byte	0
 1190 002e 03       		.uleb128 0x3
 1191 002f 0E       		.uleb128 0xe
 1192 0030 3A       		.uleb128 0x3a
 1193 0031 0B       		.uleb128 0xb
 1194 0032 3B       		.uleb128 0x3b
 1195 0033 0B       		.uleb128 0xb
ARM GAS  /tmp/cc4vLAE3.s 			page 22


 1196 0034 49       		.uleb128 0x49
 1197 0035 13       		.uleb128 0x13
 1198 0036 00       		.byte	0
 1199 0037 00       		.byte	0
 1200 0038 05       		.uleb128 0x5
 1201 0039 0F       		.uleb128 0xf
 1202 003a 00       		.byte	0
 1203 003b 0B       		.uleb128 0xb
 1204 003c 0B       		.uleb128 0xb
 1205 003d 00       		.byte	0
 1206 003e 00       		.byte	0
 1207 003f 06       		.uleb128 0x6
 1208 0040 13       		.uleb128 0x13
 1209 0041 01       		.byte	0x1
 1210 0042 03       		.uleb128 0x3
 1211 0043 0E       		.uleb128 0xe
 1212 0044 0B       		.uleb128 0xb
 1213 0045 0B       		.uleb128 0xb
 1214 0046 3A       		.uleb128 0x3a
 1215 0047 0B       		.uleb128 0xb
 1216 0048 3B       		.uleb128 0x3b
 1217 0049 0B       		.uleb128 0xb
 1218 004a 01       		.uleb128 0x1
 1219 004b 13       		.uleb128 0x13
 1220 004c 00       		.byte	0
 1221 004d 00       		.byte	0
 1222 004e 07       		.uleb128 0x7
 1223 004f 0D       		.uleb128 0xd
 1224 0050 00       		.byte	0
 1225 0051 03       		.uleb128 0x3
 1226 0052 0E       		.uleb128 0xe
 1227 0053 3A       		.uleb128 0x3a
 1228 0054 0B       		.uleb128 0xb
 1229 0055 3B       		.uleb128 0x3b
 1230 0056 0B       		.uleb128 0xb
 1231 0057 49       		.uleb128 0x49
 1232 0058 13       		.uleb128 0x13
 1233 0059 38       		.uleb128 0x38
 1234 005a 0A       		.uleb128 0xa
 1235 005b 00       		.byte	0
 1236 005c 00       		.byte	0
 1237 005d 08       		.uleb128 0x8
 1238 005e 0D       		.uleb128 0xd
 1239 005f 00       		.byte	0
 1240 0060 03       		.uleb128 0x3
 1241 0061 08       		.uleb128 0x8
 1242 0062 3A       		.uleb128 0x3a
 1243 0063 0B       		.uleb128 0xb
 1244 0064 3B       		.uleb128 0x3b
 1245 0065 0B       		.uleb128 0xb
 1246 0066 49       		.uleb128 0x49
 1247 0067 13       		.uleb128 0x13
 1248 0068 38       		.uleb128 0x38
 1249 0069 0A       		.uleb128 0xa
 1250 006a 00       		.byte	0
 1251 006b 00       		.byte	0
 1252 006c 09       		.uleb128 0x9
ARM GAS  /tmp/cc4vLAE3.s 			page 23


 1253 006d 0F       		.uleb128 0xf
 1254 006e 00       		.byte	0
 1255 006f 0B       		.uleb128 0xb
 1256 0070 0B       		.uleb128 0xb
 1257 0071 49       		.uleb128 0x49
 1258 0072 13       		.uleb128 0x13
 1259 0073 00       		.byte	0
 1260 0074 00       		.byte	0
 1261 0075 0A       		.uleb128 0xa
 1262 0076 2E       		.uleb128 0x2e
 1263 0077 01       		.byte	0x1
 1264 0078 03       		.uleb128 0x3
 1265 0079 0E       		.uleb128 0xe
 1266 007a 3A       		.uleb128 0x3a
 1267 007b 0B       		.uleb128 0xb
 1268 007c 3B       		.uleb128 0x3b
 1269 007d 0B       		.uleb128 0xb
 1270 007e 27       		.uleb128 0x27
 1271 007f 0C       		.uleb128 0xc
 1272 0080 49       		.uleb128 0x49
 1273 0081 13       		.uleb128 0x13
 1274 0082 11       		.uleb128 0x11
 1275 0083 01       		.uleb128 0x1
 1276 0084 12       		.uleb128 0x12
 1277 0085 01       		.uleb128 0x1
 1278 0086 40       		.uleb128 0x40
 1279 0087 06       		.uleb128 0x6
 1280 0088 9742     		.uleb128 0x2117
 1281 008a 0C       		.uleb128 0xc
 1282 008b 01       		.uleb128 0x1
 1283 008c 13       		.uleb128 0x13
 1284 008d 00       		.byte	0
 1285 008e 00       		.byte	0
 1286 008f 0B       		.uleb128 0xb
 1287 0090 05       		.uleb128 0x5
 1288 0091 00       		.byte	0
 1289 0092 03       		.uleb128 0x3
 1290 0093 0E       		.uleb128 0xe
 1291 0094 3A       		.uleb128 0x3a
 1292 0095 0B       		.uleb128 0xb
 1293 0096 3B       		.uleb128 0x3b
 1294 0097 0B       		.uleb128 0xb
 1295 0098 49       		.uleb128 0x49
 1296 0099 13       		.uleb128 0x13
 1297 009a 02       		.uleb128 0x2
 1298 009b 06       		.uleb128 0x6
 1299 009c 00       		.byte	0
 1300 009d 00       		.byte	0
 1301 009e 0C       		.uleb128 0xc
 1302 009f 05       		.uleb128 0x5
 1303 00a0 00       		.byte	0
 1304 00a1 03       		.uleb128 0x3
 1305 00a2 08       		.uleb128 0x8
 1306 00a3 3A       		.uleb128 0x3a
 1307 00a4 0B       		.uleb128 0xb
 1308 00a5 3B       		.uleb128 0x3b
 1309 00a6 0B       		.uleb128 0xb
ARM GAS  /tmp/cc4vLAE3.s 			page 24


 1310 00a7 49       		.uleb128 0x49
 1311 00a8 13       		.uleb128 0x13
 1312 00a9 02       		.uleb128 0x2
 1313 00aa 06       		.uleb128 0x6
 1314 00ab 00       		.byte	0
 1315 00ac 00       		.byte	0
 1316 00ad 0D       		.uleb128 0xd
 1317 00ae 34       		.uleb128 0x34
 1318 00af 00       		.byte	0
 1319 00b0 03       		.uleb128 0x3
 1320 00b1 08       		.uleb128 0x8
 1321 00b2 3A       		.uleb128 0x3a
 1322 00b3 0B       		.uleb128 0xb
 1323 00b4 3B       		.uleb128 0x3b
 1324 00b5 0B       		.uleb128 0xb
 1325 00b6 49       		.uleb128 0x49
 1326 00b7 13       		.uleb128 0x13
 1327 00b8 02       		.uleb128 0x2
 1328 00b9 06       		.uleb128 0x6
 1329 00ba 00       		.byte	0
 1330 00bb 00       		.byte	0
 1331 00bc 0E       		.uleb128 0xe
 1332 00bd 34       		.uleb128 0x34
 1333 00be 00       		.byte	0
 1334 00bf 03       		.uleb128 0x3
 1335 00c0 08       		.uleb128 0x8
 1336 00c1 3A       		.uleb128 0x3a
 1337 00c2 0B       		.uleb128 0xb
 1338 00c3 3B       		.uleb128 0x3b
 1339 00c4 0B       		.uleb128 0xb
 1340 00c5 49       		.uleb128 0x49
 1341 00c6 13       		.uleb128 0x13
 1342 00c7 02       		.uleb128 0x2
 1343 00c8 0A       		.uleb128 0xa
 1344 00c9 00       		.byte	0
 1345 00ca 00       		.byte	0
 1346 00cb 0F       		.uleb128 0xf
 1347 00cc 2E       		.uleb128 0x2e
 1348 00cd 01       		.byte	0x1
 1349 00ce 3F       		.uleb128 0x3f
 1350 00cf 0C       		.uleb128 0xc
 1351 00d0 03       		.uleb128 0x3
 1352 00d1 0E       		.uleb128 0xe
 1353 00d2 3A       		.uleb128 0x3a
 1354 00d3 0B       		.uleb128 0xb
 1355 00d4 3B       		.uleb128 0x3b
 1356 00d5 05       		.uleb128 0x5
 1357 00d6 27       		.uleb128 0x27
 1358 00d7 0C       		.uleb128 0xc
 1359 00d8 49       		.uleb128 0x49
 1360 00d9 13       		.uleb128 0x13
 1361 00da 11       		.uleb128 0x11
 1362 00db 01       		.uleb128 0x1
 1363 00dc 12       		.uleb128 0x12
 1364 00dd 01       		.uleb128 0x1
 1365 00de 40       		.uleb128 0x40
 1366 00df 06       		.uleb128 0x6
ARM GAS  /tmp/cc4vLAE3.s 			page 25


 1367 00e0 9742     		.uleb128 0x2117
 1368 00e2 0C       		.uleb128 0xc
 1369 00e3 01       		.uleb128 0x1
 1370 00e4 13       		.uleb128 0x13
 1371 00e5 00       		.byte	0
 1372 00e6 00       		.byte	0
 1373 00e7 10       		.uleb128 0x10
 1374 00e8 05       		.uleb128 0x5
 1375 00e9 00       		.byte	0
 1376 00ea 03       		.uleb128 0x3
 1377 00eb 08       		.uleb128 0x8
 1378 00ec 3A       		.uleb128 0x3a
 1379 00ed 0B       		.uleb128 0xb
 1380 00ee 3B       		.uleb128 0x3b
 1381 00ef 05       		.uleb128 0x5
 1382 00f0 49       		.uleb128 0x49
 1383 00f1 13       		.uleb128 0x13
 1384 00f2 02       		.uleb128 0x2
 1385 00f3 06       		.uleb128 0x6
 1386 00f4 00       		.byte	0
 1387 00f5 00       		.byte	0
 1388 00f6 11       		.uleb128 0x11
 1389 00f7 05       		.uleb128 0x5
 1390 00f8 00       		.byte	0
 1391 00f9 03       		.uleb128 0x3
 1392 00fa 0E       		.uleb128 0xe
 1393 00fb 3A       		.uleb128 0x3a
 1394 00fc 0B       		.uleb128 0xb
 1395 00fd 3B       		.uleb128 0x3b
 1396 00fe 05       		.uleb128 0x5
 1397 00ff 49       		.uleb128 0x49
 1398 0100 13       		.uleb128 0x13
 1399 0101 02       		.uleb128 0x2
 1400 0102 06       		.uleb128 0x6
 1401 0103 00       		.byte	0
 1402 0104 00       		.byte	0
 1403 0105 12       		.uleb128 0x12
 1404 0106 05       		.uleb128 0x5
 1405 0107 00       		.byte	0
 1406 0108 03       		.uleb128 0x3
 1407 0109 0E       		.uleb128 0xe
 1408 010a 3A       		.uleb128 0x3a
 1409 010b 0B       		.uleb128 0xb
 1410 010c 3B       		.uleb128 0x3b
 1411 010d 05       		.uleb128 0x5
 1412 010e 49       		.uleb128 0x49
 1413 010f 13       		.uleb128 0x13
 1414 0110 02       		.uleb128 0x2
 1415 0111 0A       		.uleb128 0xa
 1416 0112 00       		.byte	0
 1417 0113 00       		.byte	0
 1418 0114 13       		.uleb128 0x13
 1419 0115 34       		.uleb128 0x34
 1420 0116 00       		.byte	0
 1421 0117 03       		.uleb128 0x3
 1422 0118 08       		.uleb128 0x8
 1423 0119 3A       		.uleb128 0x3a
ARM GAS  /tmp/cc4vLAE3.s 			page 26


 1424 011a 0B       		.uleb128 0xb
 1425 011b 3B       		.uleb128 0x3b
 1426 011c 05       		.uleb128 0x5
 1427 011d 49       		.uleb128 0x49
 1428 011e 13       		.uleb128 0x13
 1429 011f 02       		.uleb128 0x2
 1430 0120 06       		.uleb128 0x6
 1431 0121 00       		.byte	0
 1432 0122 00       		.byte	0
 1433 0123 14       		.uleb128 0x14
 1434 0124 34       		.uleb128 0x34
 1435 0125 00       		.byte	0
 1436 0126 03       		.uleb128 0x3
 1437 0127 0E       		.uleb128 0xe
 1438 0128 3A       		.uleb128 0x3a
 1439 0129 0B       		.uleb128 0xb
 1440 012a 3B       		.uleb128 0x3b
 1441 012b 05       		.uleb128 0x5
 1442 012c 49       		.uleb128 0x49
 1443 012d 13       		.uleb128 0x13
 1444 012e 02       		.uleb128 0x2
 1445 012f 06       		.uleb128 0x6
 1446 0130 00       		.byte	0
 1447 0131 00       		.byte	0
 1448 0132 15       		.uleb128 0x15
 1449 0133 898201   		.uleb128 0x4109
 1450 0136 00       		.byte	0
 1451 0137 11       		.uleb128 0x11
 1452 0138 01       		.uleb128 0x1
 1453 0139 31       		.uleb128 0x31
 1454 013a 13       		.uleb128 0x13
 1455 013b 00       		.byte	0
 1456 013c 00       		.byte	0
 1457 013d 16       		.uleb128 0x16
 1458 013e 898201   		.uleb128 0x4109
 1459 0141 01       		.byte	0x1
 1460 0142 11       		.uleb128 0x11
 1461 0143 01       		.uleb128 0x1
 1462 0144 31       		.uleb128 0x31
 1463 0145 13       		.uleb128 0x13
 1464 0146 01       		.uleb128 0x1
 1465 0147 13       		.uleb128 0x13
 1466 0148 00       		.byte	0
 1467 0149 00       		.byte	0
 1468 014a 17       		.uleb128 0x17
 1469 014b 8A8201   		.uleb128 0x410a
 1470 014e 00       		.byte	0
 1471 014f 02       		.uleb128 0x2
 1472 0150 0A       		.uleb128 0xa
 1473 0151 9142     		.uleb128 0x2111
 1474 0153 0A       		.uleb128 0xa
 1475 0154 00       		.byte	0
 1476 0155 00       		.byte	0
 1477 0156 18       		.uleb128 0x18
 1478 0157 898201   		.uleb128 0x4109
 1479 015a 01       		.byte	0x1
 1480 015b 11       		.uleb128 0x11
ARM GAS  /tmp/cc4vLAE3.s 			page 27


 1481 015c 01       		.uleb128 0x1
 1482 015d 31       		.uleb128 0x31
 1483 015e 13       		.uleb128 0x13
 1484 015f 00       		.byte	0
 1485 0160 00       		.byte	0
 1486 0161 19       		.uleb128 0x19
 1487 0162 2E       		.uleb128 0x2e
 1488 0163 01       		.byte	0x1
 1489 0164 3F       		.uleb128 0x3f
 1490 0165 0C       		.uleb128 0xc
 1491 0166 03       		.uleb128 0x3
 1492 0167 0E       		.uleb128 0xe
 1493 0168 3A       		.uleb128 0x3a
 1494 0169 0B       		.uleb128 0xb
 1495 016a 3B       		.uleb128 0x3b
 1496 016b 0B       		.uleb128 0xb
 1497 016c 27       		.uleb128 0x27
 1498 016d 0C       		.uleb128 0xc
 1499 016e 49       		.uleb128 0x49
 1500 016f 13       		.uleb128 0x13
 1501 0170 3C       		.uleb128 0x3c
 1502 0171 0C       		.uleb128 0xc
 1503 0172 01       		.uleb128 0x1
 1504 0173 13       		.uleb128 0x13
 1505 0174 00       		.byte	0
 1506 0175 00       		.byte	0
 1507 0176 1A       		.uleb128 0x1a
 1508 0177 05       		.uleb128 0x5
 1509 0178 00       		.byte	0
 1510 0179 49       		.uleb128 0x49
 1511 017a 13       		.uleb128 0x13
 1512 017b 00       		.byte	0
 1513 017c 00       		.byte	0
 1514 017d 1B       		.uleb128 0x1b
 1515 017e 2E       		.uleb128 0x2e
 1516 017f 00       		.byte	0
 1517 0180 3F       		.uleb128 0x3f
 1518 0181 0C       		.uleb128 0xc
 1519 0182 03       		.uleb128 0x3
 1520 0183 0E       		.uleb128 0xe
 1521 0184 3A       		.uleb128 0x3a
 1522 0185 0B       		.uleb128 0xb
 1523 0186 3B       		.uleb128 0x3b
 1524 0187 05       		.uleb128 0x5
 1525 0188 27       		.uleb128 0x27
 1526 0189 0C       		.uleb128 0xc
 1527 018a 3C       		.uleb128 0x3c
 1528 018b 0C       		.uleb128 0xc
 1529 018c 00       		.byte	0
 1530 018d 00       		.byte	0
 1531 018e 00       		.byte	0
 1532              		.section	.debug_loc,"",%progbits
 1533              	.Ldebug_loc0:
 1534              	.LLST0:
 1535 0000 00000000 		.4byte	.LFB7
 1536 0004 02000000 		.4byte	.LCFI0
 1537 0008 0200     		.2byte	0x2
ARM GAS  /tmp/cc4vLAE3.s 			page 28


 1538 000a 7D       		.byte	0x7d
 1539 000b 00       		.sleb128 0
 1540 000c 02000000 		.4byte	.LCFI0
 1541 0010 08000000 		.4byte	.LCFI1
 1542 0014 0200     		.2byte	0x2
 1543 0016 7D       		.byte	0x7d
 1544 0017 0C       		.sleb128 12
 1545 0018 08000000 		.4byte	.LCFI1
 1546 001c 7C000000 		.4byte	.LFE7
 1547 0020 0200     		.2byte	0x2
 1548 0022 7D       		.byte	0x7d
 1549 0023 18       		.sleb128 24
 1550 0024 00000000 		.4byte	0
 1551 0028 00000000 		.4byte	0
 1552              	.LLST1:
 1553 002c 00000000 		.4byte	.LVL0
 1554 0030 1E000000 		.4byte	.LVL2
 1555 0034 0100     		.2byte	0x1
 1556 0036 50       		.byte	0x50
 1557 0037 1E000000 		.4byte	.LVL2
 1558 003b 24000000 		.4byte	.LVL4
 1559 003f 0300     		.2byte	0x3
 1560 0041 70       		.byte	0x70
 1561 0042 7F       		.sleb128 -1
 1562 0043 9F       		.byte	0x9f
 1563 0044 24000000 		.4byte	.LVL4
 1564 0048 7C000000 		.4byte	.LFE7
 1565 004c 0400     		.2byte	0x4
 1566 004e F3       		.byte	0xf3
 1567 004f 01       		.uleb128 0x1
 1568 0050 50       		.byte	0x50
 1569 0051 9F       		.byte	0x9f
 1570 0052 00000000 		.4byte	0
 1571 0056 00000000 		.4byte	0
 1572              	.LLST2:
 1573 005a 00000000 		.4byte	.LVL0
 1574 005e 20000000 		.4byte	.LVL3
 1575 0062 0100     		.2byte	0x1
 1576 0064 51       		.byte	0x51
 1577 0065 20000000 		.4byte	.LVL3
 1578 0069 24000000 		.4byte	.LVL4
 1579 006d 0300     		.2byte	0x3
 1580 006f 71       		.byte	0x71
 1581 0070 01       		.sleb128 1
 1582 0071 9F       		.byte	0x9f
 1583 0072 24000000 		.4byte	.LVL4
 1584 0076 2E000000 		.4byte	.LVL5
 1585 007a 0100     		.2byte	0x1
 1586 007c 51       		.byte	0x51
 1587 007d 2E000000 		.4byte	.LVL5
 1588 0081 34000000 		.4byte	.LVL7
 1589 0085 0100     		.2byte	0x1
 1590 0087 53       		.byte	0x53
 1591 0088 34000000 		.4byte	.LVL7
 1592 008c 38000000 		.4byte	.LVL8
 1593 0090 0300     		.2byte	0x3
 1594 0092 73       		.byte	0x73
ARM GAS  /tmp/cc4vLAE3.s 			page 29


 1595 0093 02       		.sleb128 2
 1596 0094 9F       		.byte	0x9f
 1597 0095 38000000 		.4byte	.LVL8
 1598 0099 3E000000 		.4byte	.LVL9
 1599 009d 0100     		.2byte	0x1
 1600 009f 53       		.byte	0x53
 1601 00a0 78000000 		.4byte	.LVL21
 1602 00a4 7C000000 		.4byte	.LFE7
 1603 00a8 0100     		.2byte	0x1
 1604 00aa 51       		.byte	0x51
 1605 00ab 00000000 		.4byte	0
 1606 00af 00000000 		.4byte	0
 1607              	.LLST3:
 1608 00b3 00000000 		.4byte	.LVL0
 1609 00b7 1E000000 		.4byte	.LVL2
 1610 00bb 0100     		.2byte	0x1
 1611 00bd 50       		.byte	0x50
 1612 00be 1E000000 		.4byte	.LVL2
 1613 00c2 24000000 		.4byte	.LVL4
 1614 00c6 0300     		.2byte	0x3
 1615 00c8 70       		.byte	0x70
 1616 00c9 7F       		.sleb128 -1
 1617 00ca 9F       		.byte	0x9f
 1618 00cb 24000000 		.4byte	.LVL4
 1619 00cf 44000000 		.4byte	.LVL11
 1620 00d3 0100     		.2byte	0x1
 1621 00d5 50       		.byte	0x50
 1622 00d6 78000000 		.4byte	.LVL21
 1623 00da 7C000000 		.4byte	.LFE7
 1624 00de 0100     		.2byte	0x1
 1625 00e0 50       		.byte	0x50
 1626 00e1 00000000 		.4byte	0
 1627 00e5 00000000 		.4byte	0
 1628              	.LLST4:
 1629 00e9 24000000 		.4byte	.LVL4
 1630 00ed 2E000000 		.4byte	.LVL5
 1631 00f1 0100     		.2byte	0x1
 1632 00f3 50       		.byte	0x50
 1633 00f4 2E000000 		.4byte	.LVL5
 1634 00f8 32000000 		.4byte	.LVL6
 1635 00fc 0100     		.2byte	0x1
 1636 00fe 54       		.byte	0x54
 1637 00ff 32000000 		.4byte	.LVL6
 1638 0103 38000000 		.4byte	.LVL8
 1639 0107 0300     		.2byte	0x3
 1640 0109 74       		.byte	0x74
 1641 010a 7E       		.sleb128 -2
 1642 010b 9F       		.byte	0x9f
 1643 010c 38000000 		.4byte	.LVL8
 1644 0110 40000000 		.4byte	.LVL10
 1645 0114 0100     		.2byte	0x1
 1646 0116 54       		.byte	0x54
 1647 0117 78000000 		.4byte	.LVL21
 1648 011b 7C000000 		.4byte	.LFE7
 1649 011f 0100     		.2byte	0x1
 1650 0121 50       		.byte	0x50
 1651 0122 00000000 		.4byte	0
ARM GAS  /tmp/cc4vLAE3.s 			page 30


 1652 0126 00000000 		.4byte	0
 1653              	.LLST5:
 1654 012a 18000000 		.4byte	.LVL1
 1655 012e 56000000 		.4byte	.LVL13
 1656 0132 0200     		.2byte	0x2
 1657 0134 91       		.byte	0x91
 1658 0135 6E       		.sleb128 -18
 1659 0136 58000000 		.4byte	.LVL14
 1660 013a 5A000000 		.4byte	.LVL15
 1661 013e 0100     		.2byte	0x1
 1662 0140 50       		.byte	0x50
 1663 0141 78000000 		.4byte	.LVL21
 1664 0145 7C000000 		.4byte	.LFE7
 1665 0149 0200     		.2byte	0x2
 1666 014b 91       		.byte	0x91
 1667 014c 6E       		.sleb128 -18
 1668 014d 00000000 		.4byte	0
 1669 0151 00000000 		.4byte	0
 1670              	.LLST6:
 1671 0155 18000000 		.4byte	.LVL1
 1672 0159 2E000000 		.4byte	.LVL5
 1673 015d 0200     		.2byte	0x2
 1674 015f 30       		.byte	0x30
 1675 0160 9F       		.byte	0x9f
 1676 0161 38000000 		.4byte	.LVL8
 1677 0165 48000000 		.4byte	.LVL12
 1678 0169 0100     		.2byte	0x1
 1679 016b 52       		.byte	0x52
 1680 016c 58000000 		.4byte	.LVL14
 1681 0170 64000000 		.4byte	.LVL17
 1682 0174 0100     		.2byte	0x1
 1683 0176 52       		.byte	0x52
 1684 0177 64000000 		.4byte	.LVL17
 1685 017b 6C000000 		.4byte	.LVL18
 1686 017f 0100     		.2byte	0x1
 1687 0181 50       		.byte	0x50
 1688 0182 6C000000 		.4byte	.LVL18
 1689 0186 70000000 		.4byte	.LVL19
 1690 018a 0C00     		.2byte	0xc
 1691 018c 72       		.byte	0x72
 1692 018d 00       		.sleb128 0
 1693 018e 40       		.byte	0x40
 1694 018f 25       		.byte	0x25
 1695 0190 72       		.byte	0x72
 1696 0191 00       		.sleb128 0
 1697 0192 0A       		.byte	0xa
 1698 0193 FFFF     		.2byte	0xffff
 1699 0195 1A       		.byte	0x1a
 1700 0196 22       		.byte	0x22
 1701 0197 9F       		.byte	0x9f
 1702 0198 70000000 		.4byte	.LVL19
 1703 019c 72000000 		.4byte	.LVL20
 1704 01a0 0100     		.2byte	0x1
 1705 01a2 50       		.byte	0x50
 1706 01a3 78000000 		.4byte	.LVL21
 1707 01a7 7C000000 		.4byte	.LFE7
 1708 01ab 0200     		.2byte	0x2
ARM GAS  /tmp/cc4vLAE3.s 			page 31


 1709 01ad 30       		.byte	0x30
 1710 01ae 9F       		.byte	0x9f
 1711 01af 00000000 		.4byte	0
 1712 01b3 00000000 		.4byte	0
 1713              	.LLST7:
 1714 01b7 00000000 		.4byte	.LFB8
 1715 01bb 04000000 		.4byte	.LCFI2
 1716 01bf 0200     		.2byte	0x2
 1717 01c1 7D       		.byte	0x7d
 1718 01c2 00       		.sleb128 0
 1719 01c3 04000000 		.4byte	.LCFI2
 1720 01c7 8E000000 		.4byte	.LFE8
 1721 01cb 0200     		.2byte	0x2
 1722 01cd 7D       		.byte	0x7d
 1723 01ce 20       		.sleb128 32
 1724 01cf 00000000 		.4byte	0
 1725 01d3 00000000 		.4byte	0
 1726              	.LLST8:
 1727 01d7 00000000 		.4byte	.LVL22
 1728 01db 14000000 		.4byte	.LVL23
 1729 01df 0100     		.2byte	0x1
 1730 01e1 50       		.byte	0x50
 1731 01e2 14000000 		.4byte	.LVL23
 1732 01e6 8A000000 		.4byte	.LVL45
 1733 01ea 0400     		.2byte	0x4
 1734 01ec F3       		.byte	0xf3
 1735 01ed 01       		.uleb128 0x1
 1736 01ee 50       		.byte	0x50
 1737 01ef 9F       		.byte	0x9f
 1738 01f0 8A000000 		.4byte	.LVL45
 1739 01f4 8E000000 		.4byte	.LFE8
 1740 01f8 0100     		.2byte	0x1
 1741 01fa 50       		.byte	0x50
 1742 01fb 00000000 		.4byte	0
 1743 01ff 00000000 		.4byte	0
 1744              	.LLST9:
 1745 0203 00000000 		.4byte	.LVL22
 1746 0207 14000000 		.4byte	.LVL23
 1747 020b 0100     		.2byte	0x1
 1748 020d 51       		.byte	0x51
 1749 020e 14000000 		.4byte	.LVL23
 1750 0212 8A000000 		.4byte	.LVL45
 1751 0216 0100     		.2byte	0x1
 1752 0218 5A       		.byte	0x5a
 1753 0219 8A000000 		.4byte	.LVL45
 1754 021d 8E000000 		.4byte	.LFE8
 1755 0221 0100     		.2byte	0x1
 1756 0223 51       		.byte	0x51
 1757 0224 00000000 		.4byte	0
 1758 0228 00000000 		.4byte	0
 1759              	.LLST10:
 1760 022c 00000000 		.4byte	.LVL22
 1761 0230 14000000 		.4byte	.LVL23
 1762 0234 0100     		.2byte	0x1
 1763 0236 52       		.byte	0x52
 1764 0237 14000000 		.4byte	.LVL23
 1765 023b 8A000000 		.4byte	.LVL45
ARM GAS  /tmp/cc4vLAE3.s 			page 32


 1766 023f 0100     		.2byte	0x1
 1767 0241 59       		.byte	0x59
 1768 0242 8A000000 		.4byte	.LVL45
 1769 0246 8E000000 		.4byte	.LFE8
 1770 024a 0100     		.2byte	0x1
 1771 024c 52       		.byte	0x52
 1772 024d 00000000 		.4byte	0
 1773 0251 00000000 		.4byte	0
 1774              	.LLST11:
 1775 0255 00000000 		.4byte	.LVL22
 1776 0259 14000000 		.4byte	.LVL23
 1777 025d 0100     		.2byte	0x1
 1778 025f 53       		.byte	0x53
 1779 0260 14000000 		.4byte	.LVL23
 1780 0264 8A000000 		.4byte	.LVL45
 1781 0268 0400     		.2byte	0x4
 1782 026a F3       		.byte	0xf3
 1783 026b 01       		.uleb128 0x1
 1784 026c 53       		.byte	0x53
 1785 026d 9F       		.byte	0x9f
 1786 026e 8A000000 		.4byte	.LVL45
 1787 0272 8E000000 		.4byte	.LFE8
 1788 0276 0100     		.2byte	0x1
 1789 0278 53       		.byte	0x53
 1790 0279 00000000 		.4byte	0
 1791 027d 00000000 		.4byte	0
 1792              	.LLST12:
 1793 0281 00000000 		.4byte	.LVL22
 1794 0285 14000000 		.4byte	.LVL23
 1795 0289 0200     		.2byte	0x2
 1796 028b 30       		.byte	0x30
 1797 028c 9F       		.byte	0x9f
 1798 028d 20000000 		.4byte	.LVL25
 1799 0291 26000000 		.4byte	.LVL26
 1800 0295 0100     		.2byte	0x1
 1801 0297 50       		.byte	0x50
 1802 0298 26000000 		.4byte	.LVL26
 1803 029c 34000000 		.4byte	.LVL27
 1804 02a0 0100     		.2byte	0x1
 1805 02a2 55       		.byte	0x55
 1806 02a3 34000000 		.4byte	.LVL27
 1807 02a7 3A000000 		.4byte	.LVL29
 1808 02ab 0C00     		.2byte	0xc
 1809 02ad 70       		.byte	0x70
 1810 02ae 00       		.sleb128 0
 1811 02af 40       		.byte	0x40
 1812 02b0 25       		.byte	0x25
 1813 02b1 70       		.byte	0x70
 1814 02b2 00       		.sleb128 0
 1815 02b3 0A       		.byte	0xa
 1816 02b4 FFFF     		.2byte	0xffff
 1817 02b6 1A       		.byte	0x1a
 1818 02b7 22       		.byte	0x22
 1819 02b8 9F       		.byte	0x9f
 1820 02b9 3A000000 		.4byte	.LVL29
 1821 02bd 48000000 		.4byte	.LVL31
 1822 02c1 0100     		.2byte	0x1
ARM GAS  /tmp/cc4vLAE3.s 			page 33


 1823 02c3 55       		.byte	0x55
 1824 02c4 4C000000 		.4byte	.LVL32
 1825 02c8 50000000 		.4byte	.LVL33
 1826 02cc 0100     		.2byte	0x1
 1827 02ce 55       		.byte	0x55
 1828 02cf 50000000 		.4byte	.LVL33
 1829 02d3 54000000 		.4byte	.LVL34
 1830 02d7 0F00     		.2byte	0xf
 1831 02d9 72       		.byte	0x72
 1832 02da 00       		.sleb128 0
 1833 02db 0A       		.byte	0xa
 1834 02dc FFFF     		.2byte	0xffff
 1835 02de 1A       		.byte	0x1a
 1836 02df 75       		.byte	0x75
 1837 02e0 00       		.sleb128 0
 1838 02e1 22       		.byte	0x22
 1839 02e2 72       		.byte	0x72
 1840 02e3 00       		.sleb128 0
 1841 02e4 40       		.byte	0x40
 1842 02e5 25       		.byte	0x25
 1843 02e6 22       		.byte	0x22
 1844 02e7 9F       		.byte	0x9f
 1845 02e8 54000000 		.4byte	.LVL34
 1846 02ec 5A000000 		.4byte	.LVL35
 1847 02f0 1600     		.2byte	0x16
 1848 02f2 73       		.byte	0x73
 1849 02f3 00       		.sleb128 0
 1850 02f4 0A       		.byte	0xa
 1851 02f5 FFFF     		.2byte	0xffff
 1852 02f7 1A       		.byte	0x1a
 1853 02f8 72       		.byte	0x72
 1854 02f9 00       		.sleb128 0
 1855 02fa 0A       		.byte	0xa
 1856 02fb FFFF     		.2byte	0xffff
 1857 02fd 1A       		.byte	0x1a
 1858 02fe 75       		.byte	0x75
 1859 02ff 00       		.sleb128 0
 1860 0300 22       		.byte	0x22
 1861 0301 72       		.byte	0x72
 1862 0302 00       		.sleb128 0
 1863 0303 40       		.byte	0x40
 1864 0304 25       		.byte	0x25
 1865 0305 22       		.byte	0x22
 1866 0306 22       		.byte	0x22
 1867 0307 9F       		.byte	0x9f
 1868 0308 5A000000 		.4byte	.LVL35
 1869 030c 62000000 		.4byte	.LVL36
 1870 0310 1800     		.2byte	0x18
 1871 0312 73       		.byte	0x73
 1872 0313 00       		.sleb128 0
 1873 0314 0A       		.byte	0xa
 1874 0315 FFFF     		.2byte	0xffff
 1875 0317 1A       		.byte	0x1a
 1876 0318 7A       		.byte	0x7a
 1877 0319 00       		.sleb128 0
 1878 031a 06       		.byte	0x6
 1879 031b 0A       		.byte	0xa
ARM GAS  /tmp/cc4vLAE3.s 			page 34


 1880 031c FFFF     		.2byte	0xffff
 1881 031e 1A       		.byte	0x1a
 1882 031f 75       		.byte	0x75
 1883 0320 00       		.sleb128 0
 1884 0321 22       		.byte	0x22
 1885 0322 7A       		.byte	0x7a
 1886 0323 00       		.sleb128 0
 1887 0324 06       		.byte	0x6
 1888 0325 40       		.byte	0x40
 1889 0326 25       		.byte	0x25
 1890 0327 22       		.byte	0x22
 1891 0328 22       		.byte	0x22
 1892 0329 9F       		.byte	0x9f
 1893 032a 62000000 		.4byte	.LVL36
 1894 032e 66000000 		.4byte	.LVL37
 1895 0332 1900     		.2byte	0x19
 1896 0334 79       		.byte	0x79
 1897 0335 00       		.sleb128 0
 1898 0336 06       		.byte	0x6
 1899 0337 0A       		.byte	0xa
 1900 0338 FFFF     		.2byte	0xffff
 1901 033a 1A       		.byte	0x1a
 1902 033b 7A       		.byte	0x7a
 1903 033c 00       		.sleb128 0
 1904 033d 06       		.byte	0x6
 1905 033e 0A       		.byte	0xa
 1906 033f FFFF     		.2byte	0xffff
 1907 0341 1A       		.byte	0x1a
 1908 0342 75       		.byte	0x75
 1909 0343 00       		.sleb128 0
 1910 0344 22       		.byte	0x22
 1911 0345 7A       		.byte	0x7a
 1912 0346 00       		.sleb128 0
 1913 0347 06       		.byte	0x6
 1914 0348 40       		.byte	0x40
 1915 0349 25       		.byte	0x25
 1916 034a 22       		.byte	0x22
 1917 034b 22       		.byte	0x22
 1918 034c 9F       		.byte	0x9f
 1919 034d 66000000 		.4byte	.LVL37
 1920 0351 76000000 		.4byte	.LVL41
 1921 0355 0100     		.2byte	0x1
 1922 0357 55       		.byte	0x55
 1923 0358 76000000 		.4byte	.LVL41
 1924 035c 7C000000 		.4byte	.LVL42
 1925 0360 0100     		.2byte	0x1
 1926 0362 50       		.byte	0x50
 1927 0363 7C000000 		.4byte	.LVL42
 1928 0367 7E000000 		.4byte	.LVL43
 1929 036b 0100     		.2byte	0x1
 1930 036d 53       		.byte	0x53
 1931 036e 7E000000 		.4byte	.LVL43
 1932 0372 82000000 		.4byte	.LVL44
 1933 0376 0800     		.2byte	0x8
 1934 0378 73       		.byte	0x73
 1935 0379 00       		.sleb128 0
 1936 037a 40       		.byte	0x40
ARM GAS  /tmp/cc4vLAE3.s 			page 35


 1937 037b 25       		.byte	0x25
 1938 037c 70       		.byte	0x70
 1939 037d 00       		.sleb128 0
 1940 037e 22       		.byte	0x22
 1941 037f 9F       		.byte	0x9f
 1942 0380 82000000 		.4byte	.LVL44
 1943 0384 8A000000 		.4byte	.LVL45
 1944 0388 0100     		.2byte	0x1
 1945 038a 53       		.byte	0x53
 1946 038b 8A000000 		.4byte	.LVL45
 1947 038f 8E000000 		.4byte	.LFE8
 1948 0393 0200     		.2byte	0x2
 1949 0395 30       		.byte	0x30
 1950 0396 9F       		.byte	0x9f
 1951 0397 00000000 		.4byte	0
 1952 039b 00000000 		.4byte	0
 1953              	.LLST13:
 1954 039f 50000000 		.4byte	.LVL33
 1955 03a3 54000000 		.4byte	.LVL34
 1956 03a7 0100     		.2byte	0x1
 1957 03a9 52       		.byte	0x52
 1958 03aa 54000000 		.4byte	.LVL34
 1959 03ae 62000000 		.4byte	.LVL36
 1960 03b2 0100     		.2byte	0x1
 1961 03b4 53       		.byte	0x53
 1962 03b5 62000000 		.4byte	.LVL36
 1963 03b9 69000000 		.4byte	.LVL38-1
 1964 03bd 0200     		.2byte	0x2
 1965 03bf 79       		.byte	0x79
 1966 03c0 00       		.sleb128 0
 1967 03c1 00000000 		.4byte	0
 1968 03c5 00000000 		.4byte	0
 1969              	.LLST14:
 1970 03c9 00000000 		.4byte	.LVL22
 1971 03cd 14000000 		.4byte	.LVL23
 1972 03d1 0100     		.2byte	0x1
 1973 03d3 50       		.byte	0x50
 1974 03d4 14000000 		.4byte	.LVL23
 1975 03d8 4C000000 		.4byte	.LVL32
 1976 03dc 0100     		.2byte	0x1
 1977 03de 54       		.byte	0x54
 1978 03df 8A000000 		.4byte	.LVL45
 1979 03e3 8E000000 		.4byte	.LFE8
 1980 03e7 0100     		.2byte	0x1
 1981 03e9 50       		.byte	0x50
 1982 03ea 00000000 		.4byte	0
 1983 03ee 00000000 		.4byte	0
 1984              	.LLST15:
 1985 03f2 00000000 		.4byte	.LVL22
 1986 03f6 14000000 		.4byte	.LVL23
 1987 03fa 0200     		.2byte	0x2
 1988 03fc 30       		.byte	0x30
 1989 03fd 9F       		.byte	0x9f
 1990 03fe 36000000 		.4byte	.LVL28
 1991 0402 4C000000 		.4byte	.LVL32
 1992 0406 0100     		.2byte	0x1
 1993 0408 57       		.byte	0x57
ARM GAS  /tmp/cc4vLAE3.s 			page 36


 1994 0409 8A000000 		.4byte	.LVL45
 1995 040d 8E000000 		.4byte	.LFE8
 1996 0411 0200     		.2byte	0x2
 1997 0413 30       		.byte	0x30
 1998 0414 9F       		.byte	0x9f
 1999 0415 00000000 		.4byte	0
 2000 0419 00000000 		.4byte	0
 2001              	.LLST16:
 2002 041d 00000000 		.4byte	.LFB9
 2003 0421 04000000 		.4byte	.LCFI3
 2004 0425 0200     		.2byte	0x2
 2005 0427 7D       		.byte	0x7d
 2006 0428 00       		.sleb128 0
 2007 0429 04000000 		.4byte	.LCFI3
 2008 042d 06000000 		.4byte	.LCFI4
 2009 0431 0200     		.2byte	0x2
 2010 0433 7D       		.byte	0x7d
 2011 0434 24       		.sleb128 36
 2012 0435 06000000 		.4byte	.LCFI4
 2013 0439 C0000000 		.4byte	.LFE9
 2014 043d 0200     		.2byte	0x2
 2015 043f 7D       		.byte	0x7d
 2016 0440 30       		.sleb128 48
 2017 0441 00000000 		.4byte	0
 2018 0445 00000000 		.4byte	0
 2019              	.LLST17:
 2020 0449 00000000 		.4byte	.LVL46
 2021 044d 2A000000 		.4byte	.LVL47
 2022 0451 0100     		.2byte	0x1
 2023 0453 50       		.byte	0x50
 2024 0454 2A000000 		.4byte	.LVL47
 2025 0458 C0000000 		.4byte	.LFE9
 2026 045c 0400     		.2byte	0x4
 2027 045e F3       		.byte	0xf3
 2028 045f 01       		.uleb128 0x1
 2029 0460 50       		.byte	0x50
 2030 0461 9F       		.byte	0x9f
 2031 0462 00000000 		.4byte	0
 2032 0466 00000000 		.4byte	0
 2033              	.LLST18:
 2034 046a 00000000 		.4byte	.LVL46
 2035 046e 2A000000 		.4byte	.LVL47
 2036 0472 0100     		.2byte	0x1
 2037 0474 51       		.byte	0x51
 2038 0475 2A000000 		.4byte	.LVL47
 2039 0479 C0000000 		.4byte	.LFE9
 2040 047d 0100     		.2byte	0x1
 2041 047f 5B       		.byte	0x5b
 2042 0480 00000000 		.4byte	0
 2043 0484 00000000 		.4byte	0
 2044              	.LLST19:
 2045 0488 00000000 		.4byte	.LVL46
 2046 048c 2A000000 		.4byte	.LVL47
 2047 0490 0100     		.2byte	0x1
 2048 0492 52       		.byte	0x52
 2049 0493 2A000000 		.4byte	.LVL47
 2050 0497 C0000000 		.4byte	.LFE9
ARM GAS  /tmp/cc4vLAE3.s 			page 37


 2051 049b 0100     		.2byte	0x1
 2052 049d 5A       		.byte	0x5a
 2053 049e 00000000 		.4byte	0
 2054 04a2 00000000 		.4byte	0
 2055              	.LLST20:
 2056 04a6 00000000 		.4byte	.LVL46
 2057 04aa 2A000000 		.4byte	.LVL47
 2058 04ae 0100     		.2byte	0x1
 2059 04b0 53       		.byte	0x53
 2060 04b1 2A000000 		.4byte	.LVL47
 2061 04b5 C0000000 		.4byte	.LFE9
 2062 04b9 0400     		.2byte	0x4
 2063 04bb F3       		.byte	0xf3
 2064 04bc 01       		.uleb128 0x1
 2065 04bd 53       		.byte	0x53
 2066 04be 9F       		.byte	0x9f
 2067 04bf 00000000 		.4byte	0
 2068 04c3 00000000 		.4byte	0
 2069              	.LLST21:
 2070 04c7 00000000 		.4byte	.LVL46
 2071 04cb 2A000000 		.4byte	.LVL47
 2072 04cf 0200     		.2byte	0x2
 2073 04d1 91       		.byte	0x91
 2074 04d2 04       		.sleb128 4
 2075 04d3 2A000000 		.4byte	.LVL47
 2076 04d7 50000000 		.4byte	.LVL53
 2077 04db 0100     		.2byte	0x1
 2078 04dd 55       		.byte	0x55
 2079 04de 6C000000 		.4byte	.LVL57
 2080 04e2 80000000 		.4byte	.LVL61
 2081 04e6 0100     		.2byte	0x1
 2082 04e8 55       		.byte	0x55
 2083 04e9 00000000 		.4byte	0
 2084 04ed 00000000 		.4byte	0
 2085              	.LLST22:
 2086 04f1 00000000 		.4byte	.LVL46
 2087 04f5 2A000000 		.4byte	.LVL47
 2088 04f9 0200     		.2byte	0x2
 2089 04fb 30       		.byte	0x30
 2090 04fc 9F       		.byte	0x9f
 2091 04fd 2A000000 		.4byte	.LVL47
 2092 0501 40000000 		.4byte	.LVL49
 2093 0505 0100     		.2byte	0x1
 2094 0507 56       		.byte	0x56
 2095 0508 46000000 		.4byte	.LVL51
 2096 050c 50000000 		.4byte	.LVL53
 2097 0510 0100     		.2byte	0x1
 2098 0512 56       		.byte	0x56
 2099 0513 6C000000 		.4byte	.LVL57
 2100 0517 7C000000 		.4byte	.LVL60
 2101 051b 0100     		.2byte	0x1
 2102 051d 56       		.byte	0x56
 2103 051e 80000000 		.4byte	.LVL61
 2104 0522 84000000 		.4byte	.LVL62
 2105 0526 0100     		.2byte	0x1
 2106 0528 56       		.byte	0x56
 2107 0529 84000000 		.4byte	.LVL62
ARM GAS  /tmp/cc4vLAE3.s 			page 38


 2108 052d 88000000 		.4byte	.LVL63
 2109 0531 0F00     		.2byte	0xf
 2110 0533 72       		.byte	0x72
 2111 0534 00       		.sleb128 0
 2112 0535 0A       		.byte	0xa
 2113 0536 FFFF     		.2byte	0xffff
 2114 0538 1A       		.byte	0x1a
 2115 0539 76       		.byte	0x76
 2116 053a 00       		.sleb128 0
 2117 053b 22       		.byte	0x22
 2118 053c 72       		.byte	0x72
 2119 053d 00       		.sleb128 0
 2120 053e 40       		.byte	0x40
 2121 053f 25       		.byte	0x25
 2122 0540 22       		.byte	0x22
 2123 0541 9F       		.byte	0x9f
 2124 0542 88000000 		.4byte	.LVL63
 2125 0546 90000000 		.4byte	.LVL64
 2126 054a 1600     		.2byte	0x16
 2127 054c 73       		.byte	0x73
 2128 054d 00       		.sleb128 0
 2129 054e 0A       		.byte	0xa
 2130 054f FFFF     		.2byte	0xffff
 2131 0551 1A       		.byte	0x1a
 2132 0552 72       		.byte	0x72
 2133 0553 00       		.sleb128 0
 2134 0554 0A       		.byte	0xa
 2135 0555 FFFF     		.2byte	0xffff
 2136 0557 1A       		.byte	0x1a
 2137 0558 76       		.byte	0x76
 2138 0559 00       		.sleb128 0
 2139 055a 22       		.byte	0x22
 2140 055b 72       		.byte	0x72
 2141 055c 00       		.sleb128 0
 2142 055d 40       		.byte	0x40
 2143 055e 25       		.byte	0x25
 2144 055f 22       		.byte	0x22
 2145 0560 22       		.byte	0x22
 2146 0561 9F       		.byte	0x9f
 2147 0562 90000000 		.4byte	.LVL64
 2148 0566 98000000 		.4byte	.LVL65
 2149 056a 1800     		.2byte	0x18
 2150 056c 73       		.byte	0x73
 2151 056d 00       		.sleb128 0
 2152 056e 0A       		.byte	0xa
 2153 056f FFFF     		.2byte	0xffff
 2154 0571 1A       		.byte	0x1a
 2155 0572 7B       		.byte	0x7b
 2156 0573 00       		.sleb128 0
 2157 0574 06       		.byte	0x6
 2158 0575 0A       		.byte	0xa
 2159 0576 FFFF     		.2byte	0xffff
 2160 0578 1A       		.byte	0x1a
 2161 0579 76       		.byte	0x76
 2162 057a 00       		.sleb128 0
 2163 057b 22       		.byte	0x22
 2164 057c 7B       		.byte	0x7b
ARM GAS  /tmp/cc4vLAE3.s 			page 39


 2165 057d 00       		.sleb128 0
 2166 057e 06       		.byte	0x6
 2167 057f 40       		.byte	0x40
 2168 0580 25       		.byte	0x25
 2169 0581 22       		.byte	0x22
 2170 0582 22       		.byte	0x22
 2171 0583 9F       		.byte	0x9f
 2172 0584 98000000 		.4byte	.LVL65
 2173 0588 9A000000 		.4byte	.LVL66
 2174 058c 1900     		.2byte	0x19
 2175 058e 7A       		.byte	0x7a
 2176 058f 00       		.sleb128 0
 2177 0590 06       		.byte	0x6
 2178 0591 0A       		.byte	0xa
 2179 0592 FFFF     		.2byte	0xffff
 2180 0594 1A       		.byte	0x1a
 2181 0595 7B       		.byte	0x7b
 2182 0596 00       		.sleb128 0
 2183 0597 06       		.byte	0x6
 2184 0598 0A       		.byte	0xa
 2185 0599 FFFF     		.2byte	0xffff
 2186 059b 1A       		.byte	0x1a
 2187 059c 76       		.byte	0x76
 2188 059d 00       		.sleb128 0
 2189 059e 22       		.byte	0x22
 2190 059f 7B       		.byte	0x7b
 2191 05a0 00       		.sleb128 0
 2192 05a1 06       		.byte	0x6
 2193 05a2 40       		.byte	0x40
 2194 05a3 25       		.byte	0x25
 2195 05a4 22       		.byte	0x22
 2196 05a5 22       		.byte	0x22
 2197 05a6 9F       		.byte	0x9f
 2198 05a7 9A000000 		.4byte	.LVL66
 2199 05ab AA000000 		.4byte	.LVL70
 2200 05af 0100     		.2byte	0x1
 2201 05b1 56       		.byte	0x56
 2202 05b2 AA000000 		.4byte	.LVL70
 2203 05b6 B0000000 		.4byte	.LVL71
 2204 05ba 0100     		.2byte	0x1
 2205 05bc 50       		.byte	0x50
 2206 05bd B0000000 		.4byte	.LVL71
 2207 05c1 B2000000 		.4byte	.LVL72
 2208 05c5 0100     		.2byte	0x1
 2209 05c7 53       		.byte	0x53
 2210 05c8 B2000000 		.4byte	.LVL72
 2211 05cc B6000000 		.4byte	.LVL73
 2212 05d0 0800     		.2byte	0x8
 2213 05d2 73       		.byte	0x73
 2214 05d3 00       		.sleb128 0
 2215 05d4 40       		.byte	0x40
 2216 05d5 25       		.byte	0x25
 2217 05d6 70       		.byte	0x70
 2218 05d7 00       		.sleb128 0
 2219 05d8 22       		.byte	0x22
 2220 05d9 9F       		.byte	0x9f
 2221 05da B6000000 		.4byte	.LVL73
ARM GAS  /tmp/cc4vLAE3.s 			page 40


 2222 05de C0000000 		.4byte	.LFE9
 2223 05e2 0100     		.2byte	0x1
 2224 05e4 53       		.byte	0x53
 2225 05e5 00000000 		.4byte	0
 2226 05e9 00000000 		.4byte	0
 2227              	.LLST23:
 2228 05ed 84000000 		.4byte	.LVL62
 2229 05f1 88000000 		.4byte	.LVL63
 2230 05f5 0100     		.2byte	0x1
 2231 05f7 52       		.byte	0x52
 2232 05f8 88000000 		.4byte	.LVL63
 2233 05fc 98000000 		.4byte	.LVL65
 2234 0600 0100     		.2byte	0x1
 2235 0602 53       		.byte	0x53
 2236 0603 98000000 		.4byte	.LVL65
 2237 0607 9D000000 		.4byte	.LVL67-1
 2238 060b 0200     		.2byte	0x2
 2239 060d 7A       		.byte	0x7a
 2240 060e 00       		.sleb128 0
 2241 060f 00000000 		.4byte	0
 2242 0613 00000000 		.4byte	0
 2243              	.LLST24:
 2244 0617 00000000 		.4byte	.LVL46
 2245 061b 2A000000 		.4byte	.LVL47
 2246 061f 0100     		.2byte	0x1
 2247 0621 50       		.byte	0x50
 2248 0622 2A000000 		.4byte	.LVL47
 2249 0626 80000000 		.4byte	.LVL61
 2250 062a 0100     		.2byte	0x1
 2251 062c 54       		.byte	0x54
 2252 062d 00000000 		.4byte	0
 2253 0631 00000000 		.4byte	0
 2254              	.LLST25:
 2255 0635 00000000 		.4byte	.LVL46
 2256 0639 2A000000 		.4byte	.LVL47
 2257 063d 0200     		.2byte	0x2
 2258 063f 30       		.byte	0x30
 2259 0640 9F       		.byte	0x9f
 2260 0641 42000000 		.4byte	.LVL50
 2261 0645 50000000 		.4byte	.LVL53
 2262 0649 0100     		.2byte	0x1
 2263 064b 57       		.byte	0x57
 2264 064c 74000000 		.4byte	.LVL59
 2265 0650 80000000 		.4byte	.LVL61
 2266 0654 0100     		.2byte	0x1
 2267 0656 57       		.byte	0x57
 2268 0657 00000000 		.4byte	0
 2269 065b 00000000 		.4byte	0
 2270              	.LLST26:
 2271 065f 2A000000 		.4byte	.LVL47
 2272 0663 50000000 		.4byte	.LVL53
 2273 0667 0100     		.2byte	0x1
 2274 0669 59       		.byte	0x59
 2275 066a 52000000 		.4byte	.LVL54
 2276 066e 5C000000 		.4byte	.LVL55
 2277 0672 0200     		.2byte	0x2
 2278 0674 74       		.byte	0x74
ARM GAS  /tmp/cc4vLAE3.s 			page 41


 2279 0675 0A       		.sleb128 10
 2280 0676 5C000000 		.4byte	.LVL55
 2281 067a 80000000 		.4byte	.LVL61
 2282 067e 0100     		.2byte	0x1
 2283 0680 59       		.byte	0x59
 2284 0681 00000000 		.4byte	0
 2285 0685 00000000 		.4byte	0
 2286              	.LLST27:
 2287 0689 00000000 		.4byte	.LFB10
 2288 068d 02000000 		.4byte	.LCFI5
 2289 0691 0200     		.2byte	0x2
 2290 0693 7D       		.byte	0x7d
 2291 0694 00       		.sleb128 0
 2292 0695 02000000 		.4byte	.LCFI5
 2293 0699 0C000000 		.4byte	.LFE10
 2294 069d 0200     		.2byte	0x2
 2295 069f 7D       		.byte	0x7d
 2296 06a0 08       		.sleb128 8
 2297 06a1 00000000 		.4byte	0
 2298 06a5 00000000 		.4byte	0
 2299              	.LLST28:
 2300 06a9 00000000 		.4byte	.LVL74
 2301 06ad 05000000 		.4byte	.LVL75-1
 2302 06b1 0100     		.2byte	0x1
 2303 06b3 50       		.byte	0x50
 2304 06b4 05000000 		.4byte	.LVL75-1
 2305 06b8 0C000000 		.4byte	.LFE10
 2306 06bc 0400     		.2byte	0x4
 2307 06be F3       		.byte	0xf3
 2308 06bf 01       		.uleb128 0x1
 2309 06c0 50       		.byte	0x50
 2310 06c1 9F       		.byte	0x9f
 2311 06c2 00000000 		.4byte	0
 2312 06c6 00000000 		.4byte	0
 2313              	.LLST29:
 2314 06ca 00000000 		.4byte	.LVL74
 2315 06ce 05000000 		.4byte	.LVL75-1
 2316 06d2 0100     		.2byte	0x1
 2317 06d4 51       		.byte	0x51
 2318 06d5 05000000 		.4byte	.LVL75-1
 2319 06d9 0C000000 		.4byte	.LFE10
 2320 06dd 0400     		.2byte	0x4
 2321 06df F3       		.byte	0xf3
 2322 06e0 01       		.uleb128 0x1
 2323 06e1 51       		.byte	0x51
 2324 06e2 9F       		.byte	0x9f
 2325 06e3 00000000 		.4byte	0
 2326 06e7 00000000 		.4byte	0
 2327              	.LLST30:
 2328 06eb 00000000 		.4byte	.LFB11
 2329 06ef 02000000 		.4byte	.LCFI6
 2330 06f3 0200     		.2byte	0x2
 2331 06f5 7D       		.byte	0x7d
 2332 06f6 00       		.sleb128 0
 2333 06f7 02000000 		.4byte	.LCFI6
 2334 06fb 54000000 		.4byte	.LFE11
 2335 06ff 0200     		.2byte	0x2
ARM GAS  /tmp/cc4vLAE3.s 			page 42


 2336 0701 7D       		.byte	0x7d
 2337 0702 10       		.sleb128 16
 2338 0703 00000000 		.4byte	0
 2339 0707 00000000 		.4byte	0
 2340              	.LLST31:
 2341 070b 00000000 		.4byte	.LVL76
 2342 070f 0A000000 		.4byte	.LVL77
 2343 0713 0100     		.2byte	0x1
 2344 0715 50       		.byte	0x50
 2345 0716 0A000000 		.4byte	.LVL77
 2346 071a 4E000000 		.4byte	.LVL90
 2347 071e 0400     		.2byte	0x4
 2348 0720 F3       		.byte	0xf3
 2349 0721 01       		.uleb128 0x1
 2350 0722 50       		.byte	0x50
 2351 0723 9F       		.byte	0x9f
 2352 0724 4E000000 		.4byte	.LVL90
 2353 0728 52000000 		.4byte	.LVL91
 2354 072c 0100     		.2byte	0x1
 2355 072e 50       		.byte	0x50
 2356 072f 52000000 		.4byte	.LVL91
 2357 0733 54000000 		.4byte	.LFE11
 2358 0737 0400     		.2byte	0x4
 2359 0739 F3       		.byte	0xf3
 2360 073a 01       		.uleb128 0x1
 2361 073b 50       		.byte	0x50
 2362 073c 9F       		.byte	0x9f
 2363 073d 00000000 		.4byte	0
 2364 0741 00000000 		.4byte	0
 2365              	.LLST32:
 2366 0745 00000000 		.4byte	.LVL76
 2367 0749 0A000000 		.4byte	.LVL77
 2368 074d 0200     		.2byte	0x2
 2369 074f 30       		.byte	0x30
 2370 0750 9F       		.byte	0x9f
 2371 0751 16000000 		.4byte	.LVL79
 2372 0755 1E000000 		.4byte	.LVL80
 2373 0759 0100     		.2byte	0x1
 2374 075b 50       		.byte	0x50
 2375 075c 1E000000 		.4byte	.LVL80
 2376 0760 2A000000 		.4byte	.LVL81
 2377 0764 0100     		.2byte	0x1
 2378 0766 55       		.byte	0x55
 2379 0767 2A000000 		.4byte	.LVL81
 2380 076b 30000000 		.4byte	.LVL83
 2381 076f 0C00     		.2byte	0xc
 2382 0771 70       		.byte	0x70
 2383 0772 00       		.sleb128 0
 2384 0773 40       		.byte	0x40
 2385 0774 25       		.byte	0x25
 2386 0775 70       		.byte	0x70
 2387 0776 00       		.sleb128 0
 2388 0777 0A       		.byte	0xa
 2389 0778 FFFF     		.2byte	0xffff
 2390 077a 1A       		.byte	0x1a
 2391 077b 22       		.byte	0x22
 2392 077c 9F       		.byte	0x9f
ARM GAS  /tmp/cc4vLAE3.s 			page 43


 2393 077d 30000000 		.4byte	.LVL83
 2394 0781 3E000000 		.4byte	.LVL85
 2395 0785 0100     		.2byte	0x1
 2396 0787 55       		.byte	0x55
 2397 0788 3E000000 		.4byte	.LVL85
 2398 078c 42000000 		.4byte	.LVL86
 2399 0790 0800     		.2byte	0x8
 2400 0792 70       		.byte	0x70
 2401 0793 00       		.sleb128 0
 2402 0794 40       		.byte	0x40
 2403 0795 25       		.byte	0x25
 2404 0796 75       		.byte	0x75
 2405 0797 00       		.sleb128 0
 2406 0798 21       		.byte	0x21
 2407 0799 9F       		.byte	0x9f
 2408 079a 42000000 		.4byte	.LVL86
 2409 079e 44000000 		.4byte	.LVL87
 2410 07a2 0100     		.2byte	0x1
 2411 07a4 50       		.byte	0x50
 2412 07a5 44000000 		.4byte	.LVL87
 2413 07a9 46000000 		.4byte	.LVL88
 2414 07ad 0400     		.2byte	0x4
 2415 07af 70       		.byte	0x70
 2416 07b0 00       		.sleb128 0
 2417 07b1 20       		.byte	0x20
 2418 07b2 9F       		.byte	0x9f
 2419 07b3 48000000 		.4byte	.LVL89
 2420 07b7 4E000000 		.4byte	.LVL90
 2421 07bb 0100     		.2byte	0x1
 2422 07bd 55       		.byte	0x55
 2423 07be 4E000000 		.4byte	.LVL90
 2424 07c2 52000000 		.4byte	.LVL91
 2425 07c6 0200     		.2byte	0x2
 2426 07c8 30       		.byte	0x30
 2427 07c9 9F       		.byte	0x9f
 2428 07ca 00000000 		.4byte	0
 2429 07ce 00000000 		.4byte	0
 2430              	.LLST33:
 2431 07d2 00000000 		.4byte	.LVL76
 2432 07d6 0A000000 		.4byte	.LVL77
 2433 07da 0100     		.2byte	0x1
 2434 07dc 50       		.byte	0x50
 2435 07dd 0A000000 		.4byte	.LVL77
 2436 07e1 4E000000 		.4byte	.LVL90
 2437 07e5 0100     		.2byte	0x1
 2438 07e7 54       		.byte	0x54
 2439 07e8 4E000000 		.4byte	.LVL90
 2440 07ec 52000000 		.4byte	.LVL91
 2441 07f0 0100     		.2byte	0x1
 2442 07f2 50       		.byte	0x50
 2443 07f3 52000000 		.4byte	.LVL91
 2444 07f7 54000000 		.4byte	.LFE11
 2445 07fb 0400     		.2byte	0x4
 2446 07fd F3       		.byte	0xf3
 2447 07fe 01       		.uleb128 0x1
 2448 07ff 50       		.byte	0x50
 2449 0800 9F       		.byte	0x9f
ARM GAS  /tmp/cc4vLAE3.s 			page 44


 2450 0801 00000000 		.4byte	0
 2451 0805 00000000 		.4byte	0
 2452              	.LLST34:
 2453 0809 00000000 		.4byte	.LVL76
 2454 080d 0A000000 		.4byte	.LVL77
 2455 0811 0200     		.2byte	0x2
 2456 0813 30       		.byte	0x30
 2457 0814 9F       		.byte	0x9f
 2458 0815 2C000000 		.4byte	.LVL82
 2459 0819 4E000000 		.4byte	.LVL90
 2460 081d 0100     		.2byte	0x1
 2461 081f 56       		.byte	0x56
 2462 0820 4E000000 		.4byte	.LVL90
 2463 0824 54000000 		.4byte	.LFE11
 2464 0828 0200     		.2byte	0x2
 2465 082a 30       		.byte	0x30
 2466 082b 9F       		.byte	0x9f
 2467 082c 00000000 		.4byte	0
 2468 0830 00000000 		.4byte	0
 2469              		.section	.debug_aranges,"",%progbits
 2470 0000 3C000000 		.4byte	0x3c
 2471 0004 0200     		.2byte	0x2
 2472 0006 00000000 		.4byte	.Ldebug_info0
 2473 000a 04       		.byte	0x4
 2474 000b 00       		.byte	0
 2475 000c 0000     		.2byte	0
 2476 000e 0000     		.2byte	0
 2477 0010 00000000 		.4byte	.LFB7
 2478 0014 7C000000 		.4byte	.LFE7-.LFB7
 2479 0018 00000000 		.4byte	.LFB8
 2480 001c 8E000000 		.4byte	.LFE8-.LFB8
 2481 0020 00000000 		.4byte	.LFB9
 2482 0024 C0000000 		.4byte	.LFE9-.LFB9
 2483 0028 00000000 		.4byte	.LFB10
 2484 002c 0C000000 		.4byte	.LFE10-.LFB10
 2485 0030 00000000 		.4byte	.LFB11
 2486 0034 54000000 		.4byte	.LFE11-.LFB11
 2487 0038 00000000 		.4byte	0
 2488 003c 00000000 		.4byte	0
 2489              		.section	.debug_ranges,"",%progbits
 2490              	.Ldebug_ranges0:
 2491 0000 00000000 		.4byte	.LFB7
 2492 0004 7C000000 		.4byte	.LFE7
 2493 0008 00000000 		.4byte	.LFB8
 2494 000c 8E000000 		.4byte	.LFE8
 2495 0010 00000000 		.4byte	.LFB9
 2496 0014 C0000000 		.4byte	.LFE9
 2497 0018 00000000 		.4byte	.LFB10
 2498 001c 0C000000 		.4byte	.LFE10
 2499 0020 00000000 		.4byte	.LFB11
 2500 0024 54000000 		.4byte	.LFE11
 2501 0028 00000000 		.4byte	0
 2502 002c 00000000 		.4byte	0
 2503              		.section	.debug_line,"",%progbits
 2504              	.Ldebug_line0:
 2505 0000 61020000 		.section	.debug_str,"MS",%progbits,1
 2505      02007701 
ARM GAS  /tmp/cc4vLAE3.s 			page 45


 2505      00000201 
 2505      FB0E0D00 
 2505      01010101 
 2506              	.LASF37:
 2507 0000 696E6574 		.ascii	"inet_chksum_pbuf\000"
 2507      5F63686B 
 2507      73756D5F 
 2507      70627566 
 2507      00
 2508              	.LASF18:
 2509 0011 6E657874 		.ascii	"next\000"
 2509      00
 2510              	.LASF17:
 2511 0016 6D656D5F 		.ascii	"mem_ptr_t\000"
 2511      7074725F 
 2511      7400
 2512              	.LASF36:
 2513 0020 696E6574 		.ascii	"inet_chksum\000"
 2513      5F63686B 
 2513      73756D00 
 2514              	.LASF24:
 2515 002c 69705F61 		.ascii	"ip_addr\000"
 2515      64647200 
 2516              	.LASF35:
 2517 0034 63686B6C 		.ascii	"chklen\000"
 2517      656E00
 2518              	.LASF39:
 2519 003b 2E2E2F2E 		.ascii	"../../ext/lwip/src/core/ipv4/inet_chksum.c\000"
 2519      2E2F6578 
 2519      742F6C77 
 2519      69702F73 
 2519      72632F63 
 2520              	.LASF6:
 2521 0066 73686F72 		.ascii	"short unsigned int\000"
 2521      7420756E 
 2521      7369676E 
 2521      65642069 
 2521      6E7400
 2522              	.LASF41:
 2523 0079 6C776970 		.ascii	"lwip_standard_chksum\000"
 2523      5F737461 
 2523      6E646172 
 2523      645F6368 
 2523      6B73756D 
 2524              	.LASF40:
 2525 008e 2F686F6D 		.ascii	"/home/kwilson/Sandbox/ChibiOS_2.5.1/demos/ARMCM4-ST"
 2525      652F6B77 
 2525      696C736F 
 2525      6E2F5361 
 2525      6E64626F 
 2526 00c1 4D333246 		.ascii	"M32F407-LWIP-FATFS-USB\000"
 2526      3430372D 
 2526      4C574950 
 2526      2D464154 
 2526      46532D55 
 2527              	.LASF42:
 2528 00d8 6C776970 		.ascii	"lwip_htons\000"
ARM GAS  /tmp/cc4vLAE3.s 			page 46


 2528      5F68746F 
 2528      6E7300
 2529              	.LASF34:
 2530 00e3 63686B73 		.ascii	"chksum_len\000"
 2530      756D5F6C 
 2530      656E00
 2531              	.LASF1:
 2532 00ee 7369676E 		.ascii	"signed char\000"
 2532      65642063 
 2532      68617200 
 2533              	.LASF31:
 2534 00fa 73776170 		.ascii	"swapped\000"
 2534      70656400 
 2535              	.LASF2:
 2536 0102 756E7369 		.ascii	"unsigned char\000"
 2536      676E6564 
 2536      20636861 
 2536      7200
 2537              	.LASF9:
 2538 0110 6C6F6E67 		.ascii	"long unsigned int\000"
 2538      20756E73 
 2538      69676E65 
 2538      6420696E 
 2538      7400
 2539              	.LASF25:
 2540 0122 61646472 		.ascii	"addr\000"
 2540      00
 2541              	.LASF27:
 2542 0127 64617461 		.ascii	"dataptr\000"
 2542      70747200 
 2543              	.LASF15:
 2544 012f 7531365F 		.ascii	"u16_t\000"
 2544      7400
 2545              	.LASF16:
 2546 0135 7533325F 		.ascii	"u32_t\000"
 2546      7400
 2547              	.LASF20:
 2548 013b 746F745F 		.ascii	"tot_len\000"
 2548      6C656E00 
 2549              	.LASF26:
 2550 0143 69705F61 		.ascii	"ip_addr_t\000"
 2550      6464725F 
 2550      7400
 2551              	.LASF0:
 2552 014d 756E7369 		.ascii	"unsigned int\000"
 2552      676E6564 
 2552      20696E74 
 2552      00
 2553              	.LASF22:
 2554 015a 666C6167 		.ascii	"flags\000"
 2554      7300
 2555              	.LASF33:
 2556 0160 696E6574 		.ascii	"inet_chksum_pseudo_partial\000"
 2556      5F63686B 
 2556      73756D5F 
 2556      70736575 
 2556      646F5F70 
ARM GAS  /tmp/cc4vLAE3.s 			page 47


 2557              	.LASF11:
 2558 017b 6C6F6E67 		.ascii	"long long unsigned int\000"
 2558      206C6F6E 
 2558      6720756E 
 2558      7369676E 
 2558      65642069 
 2559              	.LASF4:
 2560 0192 75696E74 		.ascii	"uint8_t\000"
 2560      385F7400 
 2561              	.LASF14:
 2562 019a 75385F74 		.ascii	"u8_t\000"
 2562      00
 2563              	.LASF32:
 2564 019f 696E6574 		.ascii	"inet_chksum_pseudo\000"
 2564      5F63686B 
 2564      73756D5F 
 2564      70736575 
 2564      646F00
 2565              	.LASF19:
 2566 01b2 7061796C 		.ascii	"payload\000"
 2566      6F616400 
 2567              	.LASF43:
 2568 01ba 706F7274 		.ascii	"port_halt\000"
 2568      5F68616C 
 2568      7400
 2569              	.LASF12:
 2570 01c4 73697A65 		.ascii	"sizetype\000"
 2570      74797065 
 2570      00
 2571              	.LASF10:
 2572 01cd 6C6F6E67 		.ascii	"long long int\000"
 2572      206C6F6E 
 2572      6720696E 
 2572      7400
 2573              	.LASF23:
 2574 01db 70627566 		.ascii	"pbuf\000"
 2574      00
 2575              	.LASF38:
 2576 01e0 474E5520 		.ascii	"GNU C 4.7.2\000"
 2576      4320342E 
 2576      372E3200 
 2577              	.LASF21:
 2578 01ec 74797065 		.ascii	"type\000"
 2578      00
 2579              	.LASF3:
 2580 01f1 73686F72 		.ascii	"short int\000"
 2580      7420696E 
 2580      7400
 2581              	.LASF5:
 2582 01fb 75696E74 		.ascii	"uint16_t\000"
 2582      31365F74 
 2582      00
 2583              	.LASF8:
 2584 0204 75696E74 		.ascii	"uint32_t\000"
 2584      33325F74 
 2584      00
 2585              	.LASF7:
ARM GAS  /tmp/cc4vLAE3.s 			page 48


 2586 020d 6C6F6E67 		.ascii	"long int\000"
 2586      20696E74 
 2586      00
 2587              	.LASF13:
 2588 0216 63686172 		.ascii	"char\000"
 2588      00
 2589              	.LASF30:
 2590 021b 70726F74 		.ascii	"proto_len\000"
 2590      6F5F6C65 
 2590      6E00
 2591              	.LASF29:
 2592 0225 70726F74 		.ascii	"proto\000"
 2592      6F00
 2593              	.LASF28:
 2594 022b 64657374 		.ascii	"dest\000"
 2594      00
 2595              		.ident	"GCC: (crosstool-NG 1.17.0 - PSAS ST32F4 GFE) 4.7.2"
ARM GAS  /tmp/cc4vLAE3.s 			page 49


DEFINED SYMBOLS
                            *ABS*:0000000000000000 inet_chksum.c
     /tmp/cc4vLAE3.s:21     .text.lwip_standard_chksum:0000000000000000 $t
     /tmp/cc4vLAE3.s:26     .text.lwip_standard_chksum:0000000000000000 lwip_standard_chksum
     /tmp/cc4vLAE3.s:145    .text.inet_chksum_pseudo:0000000000000000 $t
     /tmp/cc4vLAE3.s:151    .text.inet_chksum_pseudo:0000000000000000 inet_chksum_pseudo
     /tmp/cc4vLAE3.s:280    .text.inet_chksum_pseudo_partial:0000000000000000 $t
     /tmp/cc4vLAE3.s:286    .text.inet_chksum_pseudo_partial:0000000000000000 inet_chksum_pseudo_partial
     /tmp/cc4vLAE3.s:451    .text.inet_chksum:0000000000000000 $t
     /tmp/cc4vLAE3.s:457    .text.inet_chksum:0000000000000000 inet_chksum
     /tmp/cc4vLAE3.s:480    .text.inet_chksum_pbuf:0000000000000000 $t
     /tmp/cc4vLAE3.s:486    .text.inet_chksum_pbuf:0000000000000000 inet_chksum_pbuf
                     .debug_frame:0000000000000010 $d

UNDEFINED SYMBOLS
lwip_htons
port_halt
