ARM GAS  /tmp/cc4vLAE3.s 			page 1


   1              		.syntax unified
   2              		.cpu cortex-m4
   3              		.eabi_attribute 27, 3
   4              		.eabi_attribute 28, 1
   5              		.fpu fpv4-sp-d16
   6              		.eabi_attribute 20, 1
   7              		.eabi_attribute 21, 1
   8              		.eabi_attribute 23, 3
   9              		.eabi_attribute 24, 1
  10              		.eabi_attribute 25, 1
  11              		.eabi_attribute 26, 1
  12              		.eabi_attribute 30, 2
  13              		.eabi_attribute 34, 1
  14              		.eabi_attribute 18, 4
  15              		.thumb
  16              		.file	"inet_chksum.c"
  17              		.text
  18              	.Ltext0:
  19              		.cfi_sections	.debug_frame
  20              		.section	.text.lwip_standard_chksum,"ax",%progbits
  21              		.align	2
  22              		.p2align 4,,15
  23              		.thumb
  24              		.thumb_func
  25              		.type	lwip_standard_chksum, %function
  26              	lwip_standard_chksum:
  27              	.LFB7:
  28              		.file 1 "../../ext/lwip/src/core/ipv4/inet_chksum.c"
  29              		.loc 1 136 0
  30              		.cfi_startproc
  31              		@ args = 0, pretend = 0, frame = 8
  32              		@ frame_needed = 0, uses_anonymous_args = 0
  33              		@ link register save eliminated.
  34              	.LVL0:
  35 0000 70B4     		push	{r4, r5, r6}
  36              	.LCFI0:
  37              		.cfi_def_cfa_offset 12
  38              		.cfi_offset 4, -12
  39              		.cfi_offset 5, -8
  40              		.cfi_offset 6, -4
  41              		.loc 1 140 0
  42 0002 00F00106 		and	r6, r0, #1
  43              		.loc 1 136 0
  44 0006 83B0     		sub	sp, sp, #12
  45              	.LCFI1:
  46              		.cfi_def_cfa_offset 24
  47              		.loc 1 138 0
  48 0008 0022     		movs	r2, #0
  49              		.loc 1 143 0
  50 000a 0029     		cmp	r1, #0
  51 000c D4BF     		ite	le
  52 000e 0023     		movle	r3, #0
  53 0010 06F00103 		andgt	r3, r6, #1
  54              		.loc 1 138 0
  55 0014 ADF80620 		strh	r2, [sp, #6]	@ movhi
  56              	.LVL1:
  57              		.loc 1 143 0
ARM GAS  /tmp/cc4vLAE3.s 			page 2


  58 0018 23B1     		cbz	r3, .L2
  59              		.loc 1 144 0
  60 001a 10F8013B 		ldrb	r3, [r0], #1	@ zero_extendqisi2
  61              	.LVL2:
  62              		.loc 1 145 0
  63 001e 0139     		subs	r1, r1, #1
  64              	.LVL3:
  65              		.loc 1 144 0
  66 0020 8DF80730 		strb	r3, [sp, #7]
  67              	.LVL4:
  68              	.L2:
  69              		.loc 1 150 0
  70 0024 0129     		cmp	r1, #1
  71 0026 27DD     		ble	.L8
  72 0028 0446     		mov	r4, r0
  73 002a 0B46     		mov	r3, r1
  74 002c 0022     		movs	r2, #0
  75              	.LVL5:
  76              	.L4:
  77              		.loc 1 151 0
  78 002e 34F8025B 		ldrh	r5, [r4], #2
  79              	.LVL6:
  80              		.loc 1 152 0
  81 0032 023B     		subs	r3, r3, #2
  82              	.LVL7:
  83              		.loc 1 150 0
  84 0034 012B     		cmp	r3, #1
  85              		.loc 1 151 0
  86 0036 2A44     		add	r2, r2, r5
  87              	.LVL8:
  88              		.loc 1 150 0
  89 0038 F9DC     		bgt	.L4
  90              		.loc 1 135 0
  91 003a 0239     		subs	r1, r1, #2
  92 003c 4B08     		lsrs	r3, r1, #1
  93              	.LVL9:
  94 003e 5C1C     		adds	r4, r3, #1
  95              	.LVL10:
  96 0040 00EB4400 		add	r0, r0, r4, lsl #1
  97              	.LVL11:
  98 0044 A1EB4301 		sub	r1, r1, r3, lsl #1
  99              	.LVL12:
 100              	.L3:
 101              		.loc 1 156 0
 102 0048 0129     		cmp	r1, #1
 103              		.loc 1 157 0
 104 004a 04BF     		itt	eq
 105 004c 0378     		ldrbeq	r3, [r0, #0]	@ zero_extendqisi2
 106 004e 8DF80630 		strbeq	r3, [sp, #6]
 107              		.loc 1 161 0
 108 0052 BDF80600 		ldrh	r0, [sp, #6]
 109              	.LVL13:
 110 0056 1218     		adds	r2, r2, r0
 111              	.LVL14:
 112              		.loc 1 165 0
 113 0058 90B2     		uxth	r0, r2
 114              	.LVL15:
ARM GAS  /tmp/cc4vLAE3.s 			page 3


 115 005a 00EB1242 		add	r2, r0, r2, lsr #16
 116              	.LVL16:
 117              		.loc 1 166 0
 118 005e 90B2     		uxth	r0, r2
 119 0060 00EB1240 		add	r0, r0, r2, lsr #16
 120              	.LVL17:
 121              		.loc 1 169 0
 122 0064 26B1     		cbz	r6, .L6
 123              		.loc 1 170 0
 124 0066 0306     		lsls	r3, r0, #24
 125 0068 C0F30720 		ubfx	r0, r0, #8, #8
 126              	.LVL18:
 127 006c 40EA1340 		orr	r0, r0, r3, lsr #16
 128              	.LVL19:
 129              	.L6:
 130              		.loc 1 174 0
 131 0070 80B2     		uxth	r0, r0
 132              	.LVL20:
 133 0072 03B0     		add	sp, sp, #12
 134 0074 70BC     		pop	{r4, r5, r6}
 135 0076 7047     		bx	lr
 136              	.LVL21:
 137              	.L8:
 138              		.loc 1 139 0
 139 0078 0022     		movs	r2, #0
 140 007a E5E7     		b	.L3
 141              		.cfi_endproc
 142              	.LFE7:
 143              		.size	lwip_standard_chksum, .-lwip_standard_chksum
 144 007c AFF30080 		.section	.text.inet_chksum_pseudo,"ax",%progbits
 145              		.align	2
 146              		.p2align 4,,15
 147              		.global	inet_chksum_pseudo
 148              		.thumb
 149              		.thumb_func
 150              		.type	inet_chksum_pseudo, %function
 151              	inet_chksum_pseudo:
 152              	.LFB8:
 153              		.loc 1 275 0
 154              		.cfi_startproc
 155              		@ args = 4, pretend = 0, frame = 0
 156              		@ frame_needed = 0, uses_anonymous_args = 0
 157              	.LVL22:
 158 0000 2DE9F047 		push	{r4, r5, r6, r7, r8, r9, sl, lr}
 159              	.LCFI2:
 160              		.cfi_def_cfa_offset 32
 161              		.cfi_offset 4, -32
 162              		.cfi_offset 5, -28
 163              		.cfi_offset 6, -24
 164              		.cfi_offset 7, -20
 165              		.cfi_offset 8, -16
 166              		.cfi_offset 9, -12
 167              		.cfi_offset 10, -8
 168              		.cfi_offset 14, -4
 169              		.loc 1 275 0
 170 0004 8A46     		mov	sl, r1
 171 0006 9146     		mov	r9, r2
ARM GAS  /tmp/cc4vLAE3.s 			page 4


 172 0008 9846     		mov	r8, r3
 173              		.loc 1 284 0
 174 000a 0028     		cmp	r0, #0
 175 000c 3DD0     		beq	.L18
 176 000e 0027     		movs	r7, #0
 177 0010 0446     		mov	r4, r0
 178 0012 3D46     		mov	r5, r7
 179              	.LVL23:
 180              	.L17:
 181              		.loc 1 287 0
 182 0014 6068     		ldr	r0, [r4, #4]
 183 0016 6189     		ldrh	r1, [r4, #10]
 184 0018 FFF7FEFF 		bl	lwip_standard_chksum
 185              	.LVL24:
 186              		.loc 1 292 0
 187 001c 6689     		ldrh	r6, [r4, #10]
 188              		.loc 1 287 0
 189 001e 2818     		adds	r0, r5, r0
 190              	.LVL25:
 191              		.loc 1 291 0
 192 0020 83B2     		uxth	r3, r0
 193 0022 03EB1045 		add	r5, r3, r0, lsr #16
 194              	.LVL26:
 195              		.loc 1 292 0
 196 0026 F307     		lsls	r3, r6, #31
 197 0028 07D5     		bpl	.L16
 198              		.loc 1 294 0
 199 002a 2B06     		lsls	r3, r5, #24
 200              		.loc 1 293 0
 201 002c C7F10107 		rsb	r7, r7, #1
 202              		.loc 1 294 0
 203 0030 C5F30725 		ubfx	r5, r5, #8, #8
 204              	.LVL27:
 205              		.loc 1 293 0
 206 0034 FFB2     		uxtb	r7, r7
 207              	.LVL28:
 208              		.loc 1 294 0
 209 0036 45EA1345 		orr	r5, r5, r3, lsr #16
 210              	.LVL29:
 211              	.L16:
 212              		.loc 1 284 0
 213 003a 2468     		ldr	r4, [r4, #0]
 214              	.LVL30:
 215 003c 002C     		cmp	r4, #0
 216 003e E9D1     		bne	.L17
 217              		.loc 1 299 0
 218 0040 27B1     		cbz	r7, .L15
 219              		.loc 1 300 0
 220 0042 2B06     		lsls	r3, r5, #24
 221 0044 C5F30725 		ubfx	r5, r5, #8, #8
 222              	.LVL31:
 223 0048 45EA1345 		orr	r5, r5, r3, lsr #16
 224              	.LVL32:
 225              	.L15:
 226              		.loc 1 302 0
 227 004c DAF80020 		ldr	r2, [sl, #0]
 228              	.LVL33:
ARM GAS  /tmp/cc4vLAE3.s 			page 5


 229              		.loc 1 305 0
 230 0050 D9F80030 		ldr	r3, [r9, #0]
 231              	.LVL34:
 232              		.loc 1 303 0
 233 0054 91B2     		uxth	r1, r2
 234 0056 01EB1242 		add	r2, r1, r2, lsr #16
 235              	.LVL35:
 236              		.loc 1 304 0
 237 005a 12FA83F2 		uxtah	r2, r2, r3
 238              		.loc 1 306 0
 239 005e 02EB1343 		add	r3, r2, r3, lsr #16
 240              	.LVL36:
 241              		.loc 1 308 0
 242 0062 4046     		mov	r0, r8
 243              		.loc 1 307 0
 244 0064 5D19     		adds	r5, r3, r5
 245              	.LVL37:
 246              		.loc 1 308 0
 247 0066 FFF7FEFF 		bl	lwip_htons
 248              	.LVL38:
 249 006a 2D18     		adds	r5, r5, r0
 250              	.LVL39:
 251              		.loc 1 309 0
 252 006c BDF82000 		ldrh	r0, [sp, #32]
 253 0070 FFF7FEFF 		bl	lwip_htons
 254              	.LVL40:
 255 0074 2818     		adds	r0, r5, r0
 256              	.LVL41:
 257              		.loc 1 313 0
 258 0076 83B2     		uxth	r3, r0
 259 0078 03EB1043 		add	r3, r3, r0, lsr #16
 260              	.LVL42:
 261              		.loc 1 314 0
 262 007c 98B2     		uxth	r0, r3
 263              	.LVL43:
 264 007e 00EB1343 		add	r3, r0, r3, lsr #16
 265              	.LVL44:
 266              		.loc 1 316 0
 267 0082 D843     		mvns	r0, r3
 268              		.loc 1 317 0
 269 0084 80B2     		uxth	r0, r0
 270 0086 BDE8F087 		pop	{r4, r5, r6, r7, r8, r9, sl, pc}
 271              	.LVL45:
 272              	.L18:
 273              		.loc 1 281 0
 274 008a 0546     		mov	r5, r0
 275 008c DEE7     		b	.L15
 276              		.cfi_endproc
 277              	.LFE8:
 278              		.size	inet_chksum_pseudo, .-inet_chksum_pseudo
 279 008e 00BF     		.section	.text.inet_chksum_pseudo_partial,"ax",%progbits
 280              		.align	2
 281              		.p2align 4,,15
 282              		.global	inet_chksum_pseudo_partial
 283              		.thumb
 284              		.thumb_func
 285              		.type	inet_chksum_pseudo_partial, %function
ARM GAS  /tmp/cc4vLAE3.s 			page 6


 286              	inet_chksum_pseudo_partial:
 287              	.LFB9:
 288              		.loc 1 335 0
 289              		.cfi_startproc
 290              		@ args = 8, pretend = 0, frame = 8
 291              		@ frame_needed = 0, uses_anonymous_args = 0
 292              	.LVL46:
 293 0000 2DE9F04F 		push	{r4, r5, r6, r7, r8, r9, sl, fp, lr}
 294              	.LCFI3:
 295              		.cfi_def_cfa_offset 36
 296              		.cfi_offset 4, -36
 297              		.cfi_offset 5, -32
 298              		.cfi_offset 6, -28
 299              		.cfi_offset 7, -24
 300              		.cfi_offset 8, -20
 301              		.cfi_offset 9, -16
 302              		.cfi_offset 10, -12
 303              		.cfi_offset 11, -8
 304              		.cfi_offset 14, -4
 305 0004 83B0     		sub	sp, sp, #12
 306              	.LCFI4:
 307              		.cfi_def_cfa_offset 48
 308              		.loc 1 335 0
 309 0006 8B46     		mov	fp, r1
 310 0008 BDF83450 		ldrh	r5, [sp, #52]
 311 000c 0193     		str	r3, [sp, #4]
 312              		.loc 1 345 0
 313 000e 002D     		cmp	r5, #0
 314 0010 18BF     		it	ne
 315 0012 0028     		cmpne	r0, #0
 316              		.loc 1 335 0
 317 0014 9246     		mov	sl, r2
 318              		.loc 1 345 0
 319 0016 0CBF     		ite	eq
 320 0018 0026     		moveq	r6, #0
 321 001a 0126     		movne	r6, #1
 322 001c 30D0     		beq	.L27
 323 001e 0027     		movs	r7, #0
 324 0020 0446     		mov	r4, r0
 325 0022 3E46     		mov	r6, r7
 326              		.loc 1 354 0
 327 0024 47F6FE78 		movw	r8, #32766
 328 0028 12E0     		b	.L30
 329              	.LVL47:
 330              	.L28:
 331              		.loc 1 358 0
 332 002a 6389     		ldrh	r3, [r4, #10]
 333              		.loc 1 357 0
 334 002c B2B2     		uxth	r2, r6
 335 002e 02EB1646 		add	r6, r2, r6, lsr #16
 336              	.LVL48:
 337              		.loc 1 358 0
 338 0032 DA07     		lsls	r2, r3, #31
 339 0034 07D5     		bpl	.L29
 340              		.loc 1 360 0
 341 0036 3306     		lsls	r3, r6, #24
 342              		.loc 1 359 0
ARM GAS  /tmp/cc4vLAE3.s 			page 7


 343 0038 C7F10107 		rsb	r7, r7, #1
 344              		.loc 1 360 0
 345 003c C6F30726 		ubfx	r6, r6, #8, #8
 346              	.LVL49:
 347              		.loc 1 359 0
 348 0040 FFB2     		uxtb	r7, r7
 349              	.LVL50:
 350              		.loc 1 360 0
 351 0042 46EA1346 		orr	r6, r6, r3, lsr #16
 352              	.LVL51:
 353              	.L29:
 354              		.loc 1 345 0
 355 0046 2468     		ldr	r4, [r4, #0]
 356              	.LVL52:
 357 0048 002D     		cmp	r5, #0
 358 004a 18BF     		it	ne
 359 004c 002C     		cmpne	r4, #0
 360 004e 11D0     		beq	.L39
 361              	.LVL53:
 362              	.L30:
 363              		.loc 1 348 0
 364 0050 6389     		ldrh	r3, [r4, #10]
 365              	.LVL54:
 366              		.loc 1 352 0
 367 0052 6068     		ldr	r0, [r4, #4]
 368 0054 9D42     		cmp	r5, r3
 369 0056 34BF     		ite	cc
 370 0058 A946     		movcc	r9, r5
 371 005a 9946     		movcs	r9, r3
 372              	.LVL55:
 373 005c 4946     		mov	r1, r9
 374 005e FFF7FEFF 		bl	lwip_standard_chksum
 375              	.LVL56:
 376              		.loc 1 353 0
 377 0062 C9EB0505 		rsb	r5, r9, r5
 378 0066 ADB2     		uxth	r5, r5
 379              		.loc 1 354 0
 380 0068 4545     		cmp	r5, r8
 381              		.loc 1 352 0
 382 006a 0644     		add	r6, r6, r0
 383              	.LVL57:
 384              		.loc 1 354 0
 385 006c DDD9     		bls	.L28
 386              		.loc 1 354 0 is_stmt 0 discriminator 1
 387 006e FFF7FEFF 		bl	port_halt
 388              	.LVL58:
 389 0072 DAE7     		b	.L28
 390              	.LVL59:
 391              	.L39:
 392              		.loc 1 365 0 is_stmt 1
 393 0074 27B1     		cbz	r7, .L27
 394              		.loc 1 366 0
 395 0076 3306     		lsls	r3, r6, #24
 396 0078 C6F30726 		ubfx	r6, r6, #8, #8
 397              	.LVL60:
 398 007c 46EA1346 		orr	r6, r6, r3, lsr #16
 399              	.LVL61:
ARM GAS  /tmp/cc4vLAE3.s 			page 8


 400              	.L27:
 401              		.loc 1 368 0
 402 0080 DBF80020 		ldr	r2, [fp, #0]
 403              	.LVL62:
 404              		.loc 1 371 0
 405 0084 DAF80030 		ldr	r3, [sl, #0]
 406              	.LVL63:
 407              		.loc 1 374 0
 408 0088 0198     		ldr	r0, [sp, #4]
 409              		.loc 1 369 0
 410 008a 91B2     		uxth	r1, r2
 411 008c 01EB1242 		add	r2, r1, r2, lsr #16
 412              	.LVL64:
 413              		.loc 1 370 0
 414 0090 12FA83F2 		uxtah	r2, r2, r3
 415              		.loc 1 372 0
 416 0094 02EB1343 		add	r3, r2, r3, lsr #16
 417              	.LVL65:
 418              		.loc 1 373 0
 419 0098 9E19     		adds	r6, r3, r6
 420              	.LVL66:
 421              		.loc 1 374 0
 422 009a FFF7FEFF 		bl	lwip_htons
 423              	.LVL67:
 424 009e 3618     		adds	r6, r6, r0
 425              	.LVL68:
 426              		.loc 1 375 0
 427 00a0 BDF83000 		ldrh	r0, [sp, #48]
 428 00a4 FFF7FEFF 		bl	lwip_htons
 429              	.LVL69:
 430 00a8 3018     		adds	r0, r6, r0
 431              	.LVL70:
 432              		.loc 1 379 0
 433 00aa 83B2     		uxth	r3, r0
 434 00ac 03EB1043 		add	r3, r3, r0, lsr #16
 435              	.LVL71:
 436              		.loc 1 380 0
 437 00b0 98B2     		uxth	r0, r3
 438              	.LVL72:
 439 00b2 00EB1343 		add	r3, r0, r3, lsr #16
 440              	.LVL73:
 441              		.loc 1 382 0
 442 00b6 D843     		mvns	r0, r3
 443              		.loc 1 383 0
 444 00b8 80B2     		uxth	r0, r0
 445 00ba 03B0     		add	sp, sp, #12
 446 00bc BDE8F08F 		pop	{r4, r5, r6, r7, r8, r9, sl, fp, pc}
 447              		.cfi_endproc
 448              	.LFE9:
 449              		.size	inet_chksum_pseudo_partial, .-inet_chksum_pseudo_partial
 450              		.section	.text.inet_chksum,"ax",%progbits
 451              		.align	2
 452              		.p2align 4,,15
 453              		.global	inet_chksum
 454              		.thumb
 455              		.thumb_func
 456              		.type	inet_chksum, %function
ARM GAS  /tmp/cc4vLAE3.s 			page 9


 457              	inet_chksum:
 458              	.LFB10:
 459              		.loc 1 397 0
 460              		.cfi_startproc
 461              		@ args = 0, pretend = 0, frame = 0
 462              		@ frame_needed = 0, uses_anonymous_args = 0
 463              	.LVL74:
 464 0000 08B5     		push	{r3, lr}
 465              	.LCFI5:
 466              		.cfi_def_cfa_offset 8
 467              		.cfi_offset 3, -8
 468              		.cfi_offset 14, -4
 469              		.loc 1 398 0
 470 0002 FFF7FEFF 		bl	lwip_standard_chksum
 471              	.LVL75:
 472 0006 C043     		mvns	r0, r0
 473              		.loc 1 399 0
 474 0008 80B2     		uxth	r0, r0
 475 000a 08BD     		pop	{r3, pc}
 476              		.cfi_endproc
 477              	.LFE10:
 478              		.size	inet_chksum, .-inet_chksum
 479 000c AFF30080 		.section	.text.inet_chksum_pbuf,"ax",%progbits
 480              		.align	2
 481              		.p2align 4,,15
 482              		.global	inet_chksum_pbuf
 483              		.thumb
 484              		.thumb_func
 485              		.type	inet_chksum_pbuf, %function
 486              	inet_chksum_pbuf:
 487              	.LFB11:
 488              		.loc 1 410 0
 489              		.cfi_startproc
 490              		@ args = 0, pretend = 0, frame = 0
 491              		@ frame_needed = 0, uses_anonymous_args = 0
 492              	.LVL76:
 493 0000 70B5     		push	{r4, r5, r6, lr}
 494              	.LCFI6:
 495              		.cfi_def_cfa_offset 16
 496              		.cfi_offset 4, -16
 497              		.cfi_offset 5, -12
 498              		.cfi_offset 6, -8
 499              		.cfi_offset 14, -4
 500              		.loc 1 417 0
 501 0002 20B3     		cbz	r0, .L46
 502 0004 0026     		movs	r6, #0
 503 0006 0446     		mov	r4, r0
 504 0008 3546     		mov	r5, r6
 505              	.LVL77:
 506              	.L44:
 507              		.loc 1 418 0
 508 000a 6189     		ldrh	r1, [r4, #10]
 509 000c 6068     		ldr	r0, [r4, #4]
 510 000e FFF7FEFF 		bl	lwip_standard_chksum
 511              	.LVL78:
 512              		.loc 1 420 0
 513 0012 6389     		ldrh	r3, [r4, #10]
ARM GAS  /tmp/cc4vLAE3.s 			page 10


 514              		.loc 1 418 0
 515 0014 2818     		adds	r0, r5, r0
 516              	.LVL79:
 517              		.loc 1 419 0
 518 0016 85B2     		uxth	r5, r0
 519              		.loc 1 420 0
 520 0018 D907     		lsls	r1, r3, #31
 521              		.loc 1 419 0
 522 001a 05EB1045 		add	r5, r5, r0, lsr #16
 523              	.LVL80:
 524              		.loc 1 420 0
 525 001e 07D5     		bpl	.L43
 526              		.loc 1 422 0
 527 0020 2B06     		lsls	r3, r5, #24
 528              		.loc 1 421 0
 529 0022 C6F10106 		rsb	r6, r6, #1
 530              		.loc 1 422 0
 531 0026 C5F30725 		ubfx	r5, r5, #8, #8
 532              	.LVL81:
 533              		.loc 1 421 0
 534 002a F6B2     		uxtb	r6, r6
 535              	.LVL82:
 536              		.loc 1 422 0
 537 002c 45EA1345 		orr	r5, r5, r3, lsr #16
 538              	.LVL83:
 539              	.L43:
 540              		.loc 1 417 0
 541 0030 2468     		ldr	r4, [r4, #0]
 542              	.LVL84:
 543 0032 002C     		cmp	r4, #0
 544 0034 E9D1     		bne	.L44
 545              		.loc 1 426 0
 546 0036 3EB1     		cbz	r6, .L51
 547              		.loc 1 427 0
 548 0038 2806     		lsls	r0, r5, #24
 549 003a C5F30725 		ubfx	r5, r5, #8, #8
 550              	.LVL85:
 551 003e 45EA1040 		orr	r0, r5, r0, lsr #16
 552              	.LVL86:
 553 0042 C043     		mvns	r0, r0
 554              	.LVL87:
 555 0044 80B2     		uxth	r0, r0
 556              	.LVL88:
 557 0046 70BD     		pop	{r4, r5, r6, pc}
 558              	.LVL89:
 559              	.L51:
 560 0048 E843     		mvns	r0, r5
 561 004a 80B2     		uxth	r0, r0
 562 004c 70BD     		pop	{r4, r5, r6, pc}
 563              	.LVL90:
 564              	.L46:
 565              		.loc 1 417 0
 566 004e 4FF6FF70 		movw	r0, #65535
 567              	.LVL91:
 568              		.loc 1 430 0
 569 0052 70BD     		pop	{r4, r5, r6, pc}
 570              		.cfi_endproc
ARM GAS  /tmp/cc4vLAE3.s 			page 11


 571              	.LFE11:
 572              		.size	inet_chksum_pbuf, .-inet_chksum_pbuf
 573 0054 AFF30080 		.text
 573      AFF30080 
 573      AFF30080 
 574              	.Letext0:
 575              		.file 2 "/opt/psas/x-tools/stm32f407/arm-psas-eabi/bin/../lib/gcc/arm-psas-eabi/4.7.2/../../../../
 576              		.file 3 "../../os/various/lwip_bindings/arch/cc.h"
 577              		.file 4 "../../ext/lwip/src/include/lwip/pbuf.h"
 578              		.file 5 "../../ext/lwip/src/include/ipv4/lwip/ip_addr.h"
 579              		.file 6 "../../ext/lwip/src/include/lwip/def.h"
 580              		.file 7 "../../os/ports/GCC/ARMCMx/chcore_v7m.h"