ARM GAS  /tmp/cclCTimi.s 			page 1


   1              		.syntax unified
   2              		.cpu cortex-m4
   3              		.eabi_attribute 27, 3
   4              		.eabi_attribute 28, 1
   5              		.fpu fpv4-sp-d16
   6              		.eabi_attribute 20, 1
   7              		.eabi_attribute 21, 1
   8              		.eabi_attribute 23, 3
   9              		.eabi_attribute 24, 1
  10              		.eabi_attribute 25, 1
  11              		.eabi_attribute 26, 1
  12              		.eabi_attribute 30, 2
  13              		.eabi_attribute 34, 1
  14              		.eabi_attribute 18, 4
  15              		.thumb
  16              		.file	"ip_addr.c"
  17              		.text
  18              	.Ltext0:
  19              		.cfi_sections	.debug_frame
  20              		.section	.text.ip4_addr_isbroadcast,"ax",%progbits
  21              		.align	2
  22              		.p2align 4,,15
  23              		.global	ip4_addr_isbroadcast
  24              		.thumb
  25              		.thumb_func
  26              		.type	ip4_addr_isbroadcast, %function
  27              	ip4_addr_isbroadcast:
  28              	.LFB7:
  29              		.file 1 "../../ext/lwip/src/core/ipv4/ip_addr.c"
  30              		.loc 1 56 0
  31              		.cfi_startproc
  32              		@ args = 0, pretend = 0, frame = 0
  33              		@ frame_needed = 0, uses_anonymous_args = 0
  34              		@ link register save eliminated.
  35              	.LVL0:
  36              		.loc 1 61 0
  37 0000 431E     		subs	r3, r0, #1
  38 0002 0333     		adds	r3, r3, #3
  39 0004 12D8     		bhi	.L5
  40              		.loc 1 65 0
  41 0006 91F82930 		ldrb	r3, [r1, #41]	@ zero_extendqisi2
  42 000a 03F00203 		and	r3, r3, #2
  43 000e DBB2     		uxtb	r3, r3
  44 0010 53B1     		cbz	r3, .L7
  45              		.loc 1 70 0
  46 0012 4B68     		ldr	r3, [r1, #4]
  47 0014 8342     		cmp	r3, r0
  48 0016 07D0     		beq	.L7
  49              		.loc 1 73 0
  50 0018 8A68     		ldr	r2, [r1, #8]
  51 001a 4340     		eors	r3, r3, r0
  52 001c 1342     		tst	r3, r2
  53 001e 03D1     		bne	.L7
  54              		.loc 1 75 0
  55 0020 D243     		mvns	r2, r2
  56 0022 1040     		ands	r0, r0, r2
  57              	.LVL1:
ARM GAS  /tmp/cclCTimi.s 			page 2


  58 0024 8242     		cmp	r2, r0
  59 0026 01D0     		beq	.L5
  60              	.L7:
  61              		.loc 1 68 0
  62 0028 0020     		movs	r0, #0
  63              		.loc 1 82 0
  64 002a 7047     		bx	lr
  65              	.L5:
  66              		.loc 1 63 0
  67 002c 0120     		movs	r0, #1
  68 002e 7047     		bx	lr
  69              		.cfi_endproc
  70              	.LFE7:
  71              		.size	ip4_addr_isbroadcast, .-ip4_addr_isbroadcast
  72              		.section	.text.ip4_addr_netmask_valid,"ax",%progbits
  73              		.align	2
  74              		.p2align 4,,15
  75              		.global	ip4_addr_netmask_valid
  76              		.thumb
  77              		.thumb_func
  78              		.type	ip4_addr_netmask_valid, %function
  79              	ip4_addr_netmask_valid:
  80              	.LFB8:
  81              		.loc 1 91 0
  82              		.cfi_startproc
  83              		@ args = 0, pretend = 0, frame = 0
  84              		@ frame_needed = 0, uses_anonymous_args = 0
  85              	.LVL2:
  86 0000 08B5     		push	{r3, lr}
  87              	.LCFI0:
  88              		.cfi_def_cfa_offset 8
  89              		.cfi_offset 3, -8
  90              		.cfi_offset 14, -4
  91              		.loc 1 93 0
  92 0002 FFF7FEFF 		bl	lwip_htonl
  93              	.LVL3:
  94 0006 2022     		movs	r2, #32
  95              		.loc 1 96 0
  96 0008 4FF00043 		mov	r3, #-2147483648
  97 000c 02E0     		b	.L13
  98              	.LVL4:
  99              	.L10:
 100 000e 5B08     		lsrs	r3, r3, #1
 101              	.LVL5:
 102 0010 013A     		subs	r2, r2, #1
 103 0012 07D0     		beq	.L19
 104              	.LVL6:
 105              	.L13:
 106              		.loc 1 97 0
 107 0014 0342     		tst	r3, r0
 108 0016 FAD1     		bne	.L10
 109              	.LVL7:
 110              		.loc 1 102 0 discriminator 1
 111 0018 13B9     		cbnz	r3, .L18
 112 001a 03E0     		b	.L19
 113              	.L15:
 114              		.loc 1 103 0
ARM GAS  /tmp/cclCTimi.s 			page 3


 115 001c 1842     		tst	r0, r3
 116 001e 03D1     		bne	.L16
 117              	.L18:
 118              	.LVL8:
 119              		.loc 1 102 0
 120 0020 5B08     		lsrs	r3, r3, #1
 121              	.LVL9:
 122 0022 FBD1     		bne	.L15
 123              	.L19:
 124              		.loc 1 109 0
 125 0024 0120     		movs	r0, #1
 126              	.LVL10:
 127 0026 08BD     		pop	{r3, pc}
 128              	.LVL11:
 129              	.L16:
 130              		.loc 1 105 0
 131 0028 0020     		movs	r0, #0
 132              	.LVL12:
 133              		.loc 1 110 0
 134 002a 08BD     		pop	{r3, pc}
 135              		.cfi_endproc
 136              	.LFE8:
 137              		.size	ip4_addr_netmask_valid, .-ip4_addr_netmask_valid
 138 002c AFF30080 		.section	.text.ipaddr_aton,"ax",%progbits
 139              		.align	2
 140              		.p2align 4,,15
 141              		.global	ipaddr_aton
 142              		.thumb
 143              		.thumb_func
 144              		.type	ipaddr_aton, %function
 145              	ipaddr_aton:
 146              	.LFB10:
 147              		.loc 1 153 0
 148              		.cfi_startproc
 149              		@ args = 0, pretend = 0, frame = 24
 150              		@ frame_needed = 0, uses_anonymous_args = 0
 151              	.LVL13:
 152 0000 2DE9F041 		push	{r4, r5, r6, r7, r8, lr}
 153              	.LCFI1:
 154              		.cfi_def_cfa_offset 24
 155              		.cfi_offset 4, -24
 156              		.cfi_offset 5, -20
 157              		.cfi_offset 6, -16
 158              		.cfi_offset 7, -12
 159              		.cfi_offset 8, -8
 160              		.cfi_offset 14, -4
 161              		.loc 1 160 0
 162 0004 0378     		ldrb	r3, [r0, #0]	@ zero_extendqisi2
 163              		.loc 1 167 0
 164 0006 A3F13004 		sub	r4, r3, #48
 165              		.loc 1 153 0
 166 000a 0246     		mov	r2, r0
 167              		.loc 1 167 0
 168 000c E0B2     		uxtb	r0, r4
 169              	.LVL14:
 170 000e 0928     		cmp	r0, #9
 171              		.loc 1 153 0
ARM GAS  /tmp/cclCTimi.s 			page 4


 172 0010 86B0     		sub	sp, sp, #24
 173              	.LCFI2:
 174              		.cfi_def_cfa_offset 48
 175              	.LVL15:
 176              		.loc 1 158 0
 177 0012 9EBF     		ittt	ls
 178 0014 0DF10808 		addls	r8, sp, #8
 179 0018 4746     		movls	r7, r8
 180              		.loc 1 152 0
 181 001a 0DF1140C 		addls	ip, sp, #20
 182              		.loc 1 167 0
 183 001e 3ED8     		bhi	.L46
 184              	.LVL16:
 185              	.L21:
 186              		.loc 1 170 0
 187 0020 0A26     		movs	r6, #10
 188              		.loc 1 171 0
 189 0022 302B     		cmp	r3, #48
 190 0024 1FD0     		beq	.L59
 191              	.LVL17:
 192              	.L23:
 193              		.loc 1 174 0
 194 0026 0025     		movs	r5, #0
 195 0028 06E0     		b	.L25
 196              	.LVL18:
 197              	.L60:
 198              		.loc 1 181 0
 199 002a 06FB0535 		mla	r5, r6, r5, r3
 200              	.LVL19:
 201              		.loc 1 182 0
 202 002e 5378     		ldrb	r3, [r2, #1]	@ zero_extendqisi2
 203              	.LVL20:
 204              		.loc 1 181 0
 205 0030 303D     		subs	r5, r5, #48
 206              	.LVL21:
 207              	.L27:
 208 0032 0132     		adds	r2, r2, #1
 209 0034 A3F13004 		sub	r4, r3, #48
 210              	.LVL22:
 211              	.L25:
 212              		.loc 1 180 0
 213 0038 E4B2     		uxtb	r4, r4
 214 003a 092C     		cmp	r4, #9
 215 003c F5D9     		bls	.L60
 216              		.loc 1 183 0
 217 003e 102E     		cmp	r6, #16
 218 0040 20D1     		bne	.L28
 219              		.loc 1 183 0 is_stmt 0 discriminator 1
 220 0042 A3F16100 		sub	r0, r3, #97
 221 0046 C0B2     		uxtb	r0, r0
 222 0048 0528     		cmp	r0, #5
 223 004a 17D9     		bls	.L29
 224 004c A3F14104 		sub	r4, r3, #65
 225 0050 052C     		cmp	r4, #5
 226 0052 17D8     		bhi	.L28
 227              		.loc 1 184 0 is_stmt 1
 228 0054 2D01     		lsls	r5, r5, #4
ARM GAS  /tmp/cclCTimi.s 			page 5


 229              	.LVL23:
 230 0056 0A33     		adds	r3, r3, #10
 231              	.LVL24:
 232 0058 1928     		cmp	r0, #25
 233 005a 11D9     		bls	.L40
 234 005c 4120     		movs	r0, #65
 235              	.LVL25:
 236              	.L30:
 237              		.loc 1 184 0 is_stmt 0 discriminator 3
 238 005e 1B1A     		subs	r3, r3, r0
 239 0060 1D43     		orrs	r5, r5, r3
 240              	.LVL26:
 241              		.loc 1 185 0 is_stmt 1 discriminator 3
 242 0062 5378     		ldrb	r3, [r2, #1]	@ zero_extendqisi2
 243              	.LVL27:
 244 0064 E5E7     		b	.L27
 245              	.LVL28:
 246              	.L59:
 247              		.loc 1 172 0
 248 0066 5378     		ldrb	r3, [r2, #1]	@ zero_extendqisi2
 249              	.LVL29:
 250              		.loc 1 173 0
 251 0068 03F0DF00 		and	r0, r3, #223
 252 006c 5828     		cmp	r0, #88
 253 006e 1BD1     		bne	.L61
 254              	.LVL30:
 255              		.loc 1 175 0
 256 0070 9378     		ldrb	r3, [r2, #2]	@ zero_extendqisi2
 257              	.LVL31:
 258              		.loc 1 174 0
 259 0072 1026     		movs	r6, #16
 260              		.loc 1 175 0
 261 0074 0232     		adds	r2, r2, #2
 262              	.LVL32:
 263 0076 A3F13004 		sub	r4, r3, #48
 264 007a D4E7     		b	.L23
 265              	.LVL33:
 266              	.L29:
 267              		.loc 1 184 0
 268 007c 2D01     		lsls	r5, r5, #4
 269              	.LVL34:
 270 007e 0A33     		adds	r3, r3, #10
 271              	.LVL35:
 272              	.L40:
 273 0080 6120     		movs	r0, #97
 274 0082 ECE7     		b	.L30
 275              	.LVL36:
 276              	.L28:
 277              		.loc 1 189 0
 278 0084 2E2B     		cmp	r3, #46
 279 0086 14D1     		bne	.L31
 280              		.loc 1 196 0
 281 0088 6745     		cmp	r7, ip
 282 008a 08D0     		beq	.L46
 283              		.loc 1 200 0
 284 008c 5378     		ldrb	r3, [r2, #1]	@ zero_extendqisi2
 285              	.LVL37:
ARM GAS  /tmp/cclCTimi.s 			page 6


 286              		.loc 1 199 0
 287 008e 47F8045B 		str	r5, [r7], #4
 288              	.LVL38:
 289              		.loc 1 167 0
 290 0092 A3F13004 		sub	r4, r3, #48
 291 0096 E0B2     		uxtb	r0, r4
 292              		.loc 1 200 0
 293 0098 0132     		adds	r2, r2, #1
 294              	.LVL39:
 295              		.loc 1 167 0
 296 009a 0928     		cmp	r0, #9
 297 009c C0D9     		bls	.L21
 298              	.LVL40:
 299              	.L46:
 300              		.loc 1 217 0
 301 009e 0023     		movs	r3, #0
 302              	.LVL41:
 303              	.L58:
 304              		.loc 1 250 0
 305 00a0 1846     		mov	r0, r3
 306 00a2 06B0     		add	sp, sp, #24
 307 00a4 BDE8F081 		pop	{r4, r5, r6, r7, r8, pc}
 308              	.LVL42:
 309              	.L61:
 310              		.loc 1 172 0
 311 00a8 0132     		adds	r2, r2, #1
 312              	.LVL43:
 313              		.loc 1 177 0
 314 00aa 0826     		movs	r6, #8
 315 00ac A3F13004 		sub	r4, r3, #48
 316 00b0 B9E7     		b	.L23
 317              	.LVL44:
 318              	.L31:
 319              		.loc 1 207 0
 320 00b2 5BB1     		cbz	r3, .L33
 321              		.loc 1 207 0 is_stmt 0 discriminator 1
 322 00b4 0C2B     		cmp	r3, #12
 323 00b6 18BF     		it	ne
 324 00b8 202B     		cmpne	r3, #32
 325 00ba 07D0     		beq	.L33
 326 00bc 0D2B     		cmp	r3, #13
 327 00be 18BF     		it	ne
 328 00c0 0A2B     		cmpne	r3, #10
 329 00c2 03D0     		beq	.L33
 330 00c4 03F0FD03 		and	r3, r3, #253
 331              	.LVL45:
 332 00c8 092B     		cmp	r3, #9
 333 00ca E8D1     		bne	.L46
 334              	.L33:
 335              		.loc 1 214 0 is_stmt 1
 336 00cc C8EB0703 		rsb	r3, r8, r7
 337 00d0 9B10     		asrs	r3, r3, #2
 338 00d2 0133     		adds	r3, r3, #1
 339 00d4 042B     		cmp	r3, #4
 340 00d6 34D8     		bhi	.L34
 341 00d8 01A2     		adr	r2, .L39
 342 00da 52F823F0 		ldr	pc, [r2, r3, lsl #2]
ARM GAS  /tmp/cclCTimi.s 			page 7


 343              	.LVL46:
 344 00de 00BF     		.align	2
 345              	.L39:
 346 00e0 9F000000 		.word	.L46+1
 347 00e4 01010000 		.word	.L35+1
 348 00e8 F5000000 		.word	.L36+1
 349 00ec 2F010000 		.word	.L37+1
 350 00f0 17010000 		.word	.L38+1
 351              	.L36:
 352              		.loc 1 223 0
 353 00f4 B5F1807F 		cmp	r5, #16777216
 354 00f8 D1D2     		bcs	.L46
 355              		.loc 1 226 0
 356 00fa 029B     		ldr	r3, [sp, #8]
 357 00fc 45EA0365 		orr	r5, r5, r3, lsl #24
 358              	.LVL47:
 359              	.L35:
 360              		.loc 1 249 0
 361 0100 0123     		movs	r3, #1
 362              		.loc 1 246 0
 363 0102 0029     		cmp	r1, #0
 364 0104 CCD0     		beq	.L58
 365              		.loc 1 247 0
 366 0106 2846     		mov	r0, r5
 367 0108 0191     		str	r1, [sp, #4]
 368 010a FFF7FEFF 		bl	lwip_htonl
 369              	.LVL48:
 370 010e 0199     		ldr	r1, [sp, #4]
 371              		.loc 1 249 0
 372 0110 0123     		movs	r3, #1
 373              		.loc 1 247 0
 374 0112 0860     		str	r0, [r1, #0]
 375 0114 C4E7     		b	.L58
 376              	.LVL49:
 377              	.L38:
 378              		.loc 1 237 0
 379 0116 FF2D     		cmp	r5, #255
 380 0118 C1D8     		bhi	.L46
 381              		.loc 1 240 0
 382 011a 029B     		ldr	r3, [sp, #8]
 383 011c 1A06     		lsls	r2, r3, #24
 384 011e 039B     		ldr	r3, [sp, #12]
 385 0120 42EA0342 		orr	r2, r2, r3, lsl #16
 386 0124 049B     		ldr	r3, [sp, #16]
 387 0126 42EA0323 		orr	r3, r2, r3, lsl #8
 388 012a 1D43     		orrs	r5, r5, r3
 389              	.LVL50:
 390              		.loc 1 241 0
 391 012c E8E7     		b	.L35
 392              	.L37:
 393              		.loc 1 230 0
 394 012e B5F5803F 		cmp	r5, #65536
 395 0132 B4D2     		bcs	.L46
 396              		.loc 1 233 0
 397 0134 029B     		ldr	r3, [sp, #8]
 398 0136 1A06     		lsls	r2, r3, #24
 399 0138 039B     		ldr	r3, [sp, #12]
ARM GAS  /tmp/cclCTimi.s 			page 8


 400 013a 42EA0343 		orr	r3, r2, r3, lsl #16
 401 013e 1D43     		orrs	r5, r5, r3
 402              	.LVL51:
 403              		.loc 1 234 0
 404 0140 DEE7     		b	.L35
 405              	.L34:
 406              		.loc 1 243 0 discriminator 1
 407 0142 0191     		str	r1, [sp, #4]
 408 0144 FFF7FEFF 		bl	port_halt
 409              	.LVL52:
 410 0148 0199     		ldr	r1, [sp, #4]
 411              		.loc 1 244 0 discriminator 1
 412 014a D9E7     		b	.L35
 413              		.cfi_endproc
 414              	.LFE10:
 415              		.size	ipaddr_aton, .-ipaddr_aton
 416 014c AFF30080 		.section	.text.ipaddr_addr,"ax",%progbits
 417              		.align	2
 418              		.p2align 4,,15
 419              		.global	ipaddr_addr
 420              		.thumb
 421              		.thumb_func
 422              		.type	ipaddr_addr, %function
 423              	ipaddr_addr:
 424              	.LFB9:
 425              		.loc 1 131 0
 426              		.cfi_startproc
 427              		@ args = 0, pretend = 0, frame = 8
 428              		@ frame_needed = 0, uses_anonymous_args = 0
 429              	.LVL53:
 430 0000 00B5     		push	{lr}
 431              	.LCFI3:
 432              		.cfi_def_cfa_offset 4
 433              		.cfi_offset 14, -4
 434 0002 83B0     		sub	sp, sp, #12
 435              	.LCFI4:
 436              		.cfi_def_cfa_offset 16
 437              		.loc 1 134 0
 438 0004 01A9     		add	r1, sp, #4
 439 0006 FFF7FEFF 		bl	ipaddr_aton
 440              	.LVL54:
 441 000a 18B9     		cbnz	r0, .L65
 442              		.loc 1 137 0
 443 000c 4FF0FF30 		mov	r0, #-1
 444              	.L63:
 445              		.loc 1 138 0
 446 0010 03B0     		add	sp, sp, #12
 447 0012 00BD     		pop	{pc}
 448              	.L65:
 449              		.loc 1 135 0
 450 0014 0198     		ldr	r0, [sp, #4]
 451 0016 FBE7     		b	.L63
 452              		.cfi_endproc
 453              	.LFE9:
 454              		.size	ipaddr_addr, .-ipaddr_addr
 455 0018 AFF30080 		.section	.text.ipaddr_ntoa_r,"ax",%progbits
 455      AFF30080 
ARM GAS  /tmp/cclCTimi.s 			page 9


 456              		.align	2
 457              		.p2align 4,,15
 458              		.global	ipaddr_ntoa_r
 459              		.thumb
 460              		.thumb_func
 461              		.type	ipaddr_ntoa_r, %function
 462              	ipaddr_ntoa_r:
 463              	.LFB12:
 464              		.loc 1 277 0
 465              		.cfi_startproc
 466              		@ args = 0, pretend = 0, frame = 8
 467              		@ frame_needed = 0, uses_anonymous_args = 0
 468              		@ link register save eliminated.
 469              	.LVL55:
 470 0000 2DE9F00F 		push	{r4, r5, r6, r7, r8, r9, sl, fp}
 471              	.LCFI5:
 472              		.cfi_def_cfa_offset 32
 473              		.cfi_offset 4, -32
 474              		.cfi_offset 5, -28
 475              		.cfi_offset 6, -24
 476              		.cfi_offset 7, -20
 477              		.cfi_offset 8, -16
 478              		.cfi_offset 9, -12
 479              		.cfi_offset 10, -8
 480              		.cfi_offset 11, -4
 481              		.loc 1 287 0
 482 0004 0368     		ldr	r3, [r0, #0]
 483              		.loc 1 277 0
 484 0006 82B0     		sub	sp, sp, #8
 485              	.LCFI6:
 486              		.cfi_def_cfa_offset 40
 487              		.loc 1 294 0
 488 0008 4CF6CD49 		movw	r9, #52429
 489              		.loc 1 287 0
 490 000c 0193     		str	r3, [sp, #4]
 491              	.LVL56:
 492              		.loc 1 276 0
 493 000e 0DF1030A 		add	sl, sp, #3
 494 0012 0DF10700 		add	r0, sp, #7
 495              	.LVL57:
 496              		.loc 1 289 0
 497 0016 8C46     		mov	ip, r1
 498              		.loc 1 285 0
 499 0018 4FF0000B 		mov	fp, #0
 500              		.loc 1 294 0
 501 001c CCF6CC49 		movt	r9, 52428
 502              		.loc 1 276 0
 503 0020 02F10108 		add	r8, r2, #1
 504              	.LVL58:
 505              	.L73:
 506 0024 9AF80160 		ldrb	r6, [sl, #1]	@ zero_extendqisi2
 507              		.loc 1 276 0 is_stmt 0 discriminator 1
 508 0028 0023     		movs	r3, #0
 509 002a 00E0     		b	.L67
 510              	.LVL59:
 511              	.L74:
 512              		.loc 1 296 0 is_stmt 1
ARM GAS  /tmp/cclCTimi.s 			page 10


 513 002c 3B46     		mov	r3, r7
 514              	.LVL60:
 515              	.L67:
 516              		.loc 1 294 0 discriminator 1
 517 002e A9FB0654 		umull	r5, r4, r9, r6
 518 0032 E408     		lsrs	r4, r4, #3
 519 0034 04EB8405 		add	r5, r4, r4, lsl #2
 520 0038 A6EB4505 		sub	r5, r6, r5, lsl #1
 521              	.LVL61:
 522              		.loc 1 296 0 discriminator 1
 523 003c 02AF     		add	r7, sp, #8
 524 003e FE18     		adds	r6, r7, r3
 525 0040 3035     		adds	r5, r5, #48
 526              	.LVL62:
 527 0042 5F1C     		adds	r7, r3, #1
 528 0044 05F0FF05 		and	r5, r5, #255
 529              	.LVL63:
 530 0048 06F8085C 		strb	r5, [r6, #-8]
 531 004c FFB2     		uxtb	r7, r7
 532              	.LVL64:
 533              		.loc 1 297 0 discriminator 1
 534 004e 04F0FF06 		and	r6, r4, #255
 535 0052 002C     		cmp	r4, #0
 536 0054 EAD1     		bne	.L74
 537 0056 0AF8016F 		strb	r6, [sl, #1]!
 538              	.LVL65:
 539              		.loc 1 298 0
 540 005a 002F     		cmp	r7, #0
 541 005c 2AD0     		beq	.L75
 542              		.loc 1 299 0
 543 005e 5A45     		cmp	r2, fp
 544 0060 0BF10106 		add	r6, fp, #1
 545              	.LVL66:
 546 0064 20DD     		ble	.L69
 547 0066 013B     		subs	r3, r3, #1
 548              	.LVL67:
 549 0068 DBB2     		uxtb	r3, r3
 550              	.LVL68:
 551 006a 6446     		mov	r4, ip
 552 006c 2F46     		mov	r7, r5
 553 006e 05E0     		b	.L70
 554              	.LVL69:
 555              	.L72:
 556 0070 0136     		adds	r6, r6, #1
 557              	.LVL70:
 558 0072 4645     		cmp	r6, r8
 559 0074 18D0     		beq	.L69
 560 0076 13F8087C 		ldrb	r7, [r3, #-8]	@ zero_extendqisi2
 561 007a 2B46     		mov	r3, r5
 562              	.L70:
 563              		.loc 1 302 0
 564 007c 04F8017B 		strb	r7, [r4], #1
 565              	.LVL71:
 566 0080 5D1E     		subs	r5, r3, #1
 567 0082 02AF     		add	r7, sp, #8
 568              		.loc 1 298 0
 569 0084 FF2B     		cmp	r3, #255
ARM GAS  /tmp/cclCTimi.s 			page 11


 570              		.loc 1 302 0
 571 0086 A446     		mov	ip, r4
 572              	.LVL72:
 573 0088 EDB2     		uxtb	r5, r5
 574 008a 3B44     		add	r3, r7, r3
 575              	.LVL73:
 576              		.loc 1 298 0
 577 008c F0D1     		bne	.L72
 578              	.LVL74:
 579              	.L68:
 580              		.loc 1 304 0
 581 008e B242     		cmp	r2, r6
 582 0090 06F1010B 		add	fp, r6, #1
 583              	.LVL75:
 584 0094 08DD     		ble	.L69
 585              		.loc 1 307 0
 586 0096 2E23     		movs	r3, #46
 587              		.loc 1 291 0
 588 0098 8245     		cmp	sl, r0
 589              		.loc 1 307 0
 590 009a 0CF8013B 		strb	r3, [ip], #1
 591              	.LVL76:
 592              		.loc 1 291 0
 593 009e C1D1     		bne	.L73
 594              	.LVL77:
 595              		.loc 1 310 0
 596 00a0 0023     		movs	r3, #0
 597 00a2 0CF8013C 		strb	r3, [ip, #-1]
 598 00a6 00E0     		b	.L71
 599              	.LVL78:
 600              	.L69:
 601              		.loc 1 300 0
 602 00a8 0021     		movs	r1, #0
 603              	.LVL79:
 604              	.L71:
 605              		.loc 1 312 0
 606 00aa 0846     		mov	r0, r1
 607 00ac 02B0     		add	sp, sp, #8
 608 00ae BDE8F00F 		pop	{r4, r5, r6, r7, r8, r9, sl, fp}
 609 00b2 7047     		bx	lr
 610              	.LVL80:
 611              	.L75:
 612              		.loc 1 298 0
 613 00b4 5E46     		mov	r6, fp
 614 00b6 EAE7     		b	.L68
 615              		.cfi_endproc
 616              	.LFE12:
 617              		.size	ipaddr_ntoa_r, .-ipaddr_ntoa_r
 618 00b8 AFF30080 		.section	.text.ipaddr_ntoa,"ax",%progbits
 618      AFF30080 
 619              		.align	2
 620              		.p2align 4,,15
 621              		.global	ipaddr_ntoa
 622              		.thumb
 623              		.thumb_func
 624              		.type	ipaddr_ntoa, %function
 625              	ipaddr_ntoa:
ARM GAS  /tmp/cclCTimi.s 			page 12


 626              	.LFB11:
 627              		.loc 1 262 0
 628              		.cfi_startproc
 629              		@ args = 0, pretend = 0, frame = 0
 630              		@ frame_needed = 0, uses_anonymous_args = 0
 631              		@ link register save eliminated.
 632              	.LVL81:
 633              		.loc 1 264 0
 634 0000 40F20001 		movw	r1, #:lower16:.LANCHOR0
 635 0004 C0F20001 		movt	r1, #:upper16:.LANCHOR0
 636 0008 1022     		movs	r2, #16
 637              		.loc 1 265 0
 638              		.loc 1 264 0
 639 000a FFF7FEBF 		b	ipaddr_ntoa_r
 640              	.LVL82:
 641              		.cfi_endproc
 642              	.LFE11:
 643              		.size	ipaddr_ntoa, .-ipaddr_ntoa
 644              		.global	ip_addr_broadcast
 645              		.global	ip_addr_any
 646 000e 00BF     		.section	.rodata.ip_addr_broadcast,"a",%progbits
 647              		.align	2
 648              		.type	ip_addr_broadcast, %object
 649              		.size	ip_addr_broadcast, 4
 650              	ip_addr_broadcast:
 651 0000 FFFFFFFF 		.word	-1
 652              		.section	.rodata.ip_addr_any,"a",%progbits
 653              		.align	2
 654              		.type	ip_addr_any, %object
 655              		.size	ip_addr_any, 4
 656              	ip_addr_any:
 657 0000 00000000 		.space	4
 658              		.section	.bss.str.5011,"aw",%nobits
 659              		.align	2
 660              		.set	.LANCHOR0,. + 0
 661              		.type	str.5011, %object
 662              		.size	str.5011, 16
 663              	str.5011:
 664 0000 00000000 		.space	16
 664      00000000 
 664      00000000 
 664      00000000 
 665              		.text
 666              	.Letext0:
 667              		.file 2 "/opt/psas/x-tools/stm32f407/arm-psas-eabi/bin/../lib/gcc/arm-psas-eabi/4.7.2/../../../../
 668              		.file 3 "../../os/various/lwip_bindings/arch/cc.h"
 669              		.file 4 "../../ext/lwip/src/include/ipv4/lwip/ip_addr.h"
 670              		.file 5 "../../ext/lwip/src/include/lwip/err.h"
 671              		.file 6 "../../ext/lwip/src/include/lwip/pbuf.h"
 672              		.file 7 "../../ext/lwip/src/include/lwip/netif.h"
 673              		.file 8 "../../ext/lwip/src/include/lwip/def.h"
 674              		.file 9 "../../os/ports/GCC/ARMCMx/chcore_v7m.h"