ARM GAS  /tmp/ccjGCxKu.s 			page 1


   1              		.syntax unified
   2              		.cpu cortex-m4
   3              		.eabi_attribute 27, 3
   4              		.eabi_attribute 28, 1
   5              		.fpu fpv4-sp-d16
   6              		.eabi_attribute 20, 1
   7              		.eabi_attribute 21, 1
   8              		.eabi_attribute 23, 3
   9              		.eabi_attribute 24, 1
  10              		.eabi_attribute 25, 1
  11              		.eabi_attribute 26, 1
  12              		.eabi_attribute 30, 2
  13              		.eabi_attribute 34, 1
  14              		.eabi_attribute 18, 4
  15              		.thumb
  16              		.file	"ip_frag.c"
  17              		.text
  18              	.Ltext0:
  19              		.cfi_sections	.debug_frame
  20              		.section	.text.ip_reass_dequeue_datagram,"ax",%progbits
  21              		.align	2
  22              		.p2align 4,,15
  23              		.thumb
  24              		.thumb_func
  25              		.type	ip_reass_dequeue_datagram, %function
  26              	ip_reass_dequeue_datagram:
  27              	.LFB11:
  28              		.file 1 "../../ext/lwip/src/core/ipv4/ip_frag.c"
  29              		.loc 1 305 0
  30              		.cfi_startproc
  31              		@ args = 0, pretend = 0, frame = 8
  32              		@ frame_needed = 0, uses_anonymous_args = 0
  33              	.LVL0:
  34              		.loc 1 308 0
  35 0000 0C4B     		ldr	r3, .L7
  36              		.loc 1 305 0
  37 0002 10B5     		push	{r4, lr}
  38              	.LCFI0:
  39              		.cfi_def_cfa_offset 8
  40              		.cfi_offset 4, -8
  41              		.cfi_offset 14, -4
  42              		.loc 1 308 0
  43 0004 1A68     		ldr	r2, [r3, #0]
  44 0006 8242     		cmp	r2, r0
  45              		.loc 1 310 0
  46 0008 08BF     		it	eq
  47 000a 0268     		ldreq	r2, [r0, #0]
  48              		.loc 1 305 0
  49 000c 82B0     		sub	sp, sp, #8
  50              	.LCFI1:
  51              		.cfi_def_cfa_offset 16
  52              		.loc 1 305 0
  53 000e 0446     		mov	r4, r0
  54              		.loc 1 310 0
  55 0010 08BF     		it	eq
  56 0012 1A60     		streq	r2, [r3, #0]
  57              		.loc 1 308 0
ARM GAS  /tmp/ccjGCxKu.s 			page 2


  58 0014 02D0     		beq	.L3
  59              		.loc 1 313 0
  60 0016 41B1     		cbz	r1, .L6
  61              	.LVL1:
  62              	.L4:
  63              		.loc 1 314 0
  64 0018 2368     		ldr	r3, [r4, #0]
  65 001a 0B60     		str	r3, [r1, #0]
  66              	.L3:
  67              		.loc 1 318 0
  68 001c 0520     		movs	r0, #5
  69 001e 2146     		mov	r1, r4
  70              		.loc 1 319 0
  71 0020 02B0     		add	sp, sp, #8
  72 0022 BDE81040 		pop	{r4, lr}
  73              		.loc 1 318 0
  74 0026 FFF7FEBF 		b	memp_free
  75              	.LVL2:
  76              	.L6:
  77              		.loc 1 313 0 discriminator 1
  78 002a 0191     		str	r1, [sp, #4]
  79 002c FFF7FEFF 		bl	port_halt
  80              	.LVL3:
  81 0030 0199     		ldr	r1, [sp, #4]
  82 0032 F1E7     		b	.L4
  83              	.L8:
  84              		.align	2
  85              	.L7:
  86 0034 00000000 		.word	.LANCHOR0
  87              		.cfi_endproc
  88              	.LFE11:
  89              		.size	ip_reass_dequeue_datagram, .-ip_reass_dequeue_datagram
  90 0038 AFF30080 		.section	.text.ip_reass_free_complete_datagram,"ax",%progbits
  90      AFF30080 
  91              		.align	2
  92              		.p2align 4,,15
  93              		.thumb
  94              		.thumb_func
  95              		.type	ip_reass_free_complete_datagram, %function
  96              	ip_reass_free_complete_datagram:
  97              	.LFB8:
  98              		.loc 1 159 0
  99              		.cfi_startproc
 100              		@ args = 0, pretend = 0, frame = 0
 101              		@ frame_needed = 0, uses_anonymous_args = 0
 102              	.LVL4:
 103              		.loc 1 165 0
 104 0000 8142     		cmp	r1, r0
 105              		.loc 1 159 0
 106 0002 2DE9F843 		push	{r3, r4, r5, r6, r7, r8, r9, lr}
 107              	.LCFI2:
 108              		.cfi_def_cfa_offset 32
 109              		.cfi_offset 3, -32
 110              		.cfi_offset 4, -28
 111              		.cfi_offset 5, -24
 112              		.cfi_offset 6, -20
 113              		.cfi_offset 7, -16
ARM GAS  /tmp/ccjGCxKu.s 			page 3


 114              		.cfi_offset 8, -12
 115              		.cfi_offset 9, -8
 116              		.cfi_offset 14, -4
 117              		.loc 1 159 0
 118 0006 8046     		mov	r8, r0
 119 0008 8946     		mov	r9, r1
 120              		.loc 1 165 0
 121 000a 50D0     		beq	.L26
 122              	.LVL5:
 123              	.L10:
 124              		.loc 1 166 0
 125 000c B9F1000F 		cmp	r9, #0
 126 0010 05D0     		beq	.L11
 127              		.loc 1 167 0
 128 0012 D9F80030 		ldr	r3, [r9, #0]
 129 0016 4345     		cmp	r3, r8
 130 0018 01D0     		beq	.L11
 131              		.loc 1 167 0 is_stmt 0 discriminator 1
 132 001a FFF7FEFF 		bl	port_halt
 133              	.LVL6:
 134              	.L11:
 135              		.loc 1 172 0 is_stmt 1
 136 001e D8F80440 		ldr	r4, [r8, #4]
 137 0022 6368     		ldr	r3, [r4, #4]
 138              	.LVL7:
 139              		.loc 1 173 0
 140 0024 9A88     		ldrh	r2, [r3, #4]	@ unaligned
 141              		.loc 1 160 0
 142 0026 0025     		movs	r5, #0
 143              		.loc 1 173 0
 144 0028 9AB1     		cbz	r2, .L27
 145              	.LVL8:
 146              	.L15:
 147              	.LBB2:
 148              		.loc 1 198 0
 149 002a 4FF6FF77 		movw	r7, #65535
 150 002e 05E0     		b	.L22
 151              	.LVL9:
 152              	.L14:
 153              		.loc 1 200 0
 154 0030 2046     		mov	r0, r4
 155              		.loc 1 199 0
 156 0032 ADB2     		uxth	r5, r5
 157              	.LVL10:
 158              		.loc 1 196 0
 159 0034 3446     		mov	r4, r6
 160              	.LVL11:
 161              		.loc 1 200 0
 162 0036 FFF7FEFF 		bl	pbuf_free
 163              	.LVL12:
 164              	.LBE2:
 165              		.loc 1 191 0
 166 003a 46B3     		cbz	r6, .L13
 167              	.LVL13:
 168              	.L22:
 169              	.LBB3:
 170              		.loc 1 193 0
ARM GAS  /tmp/ccjGCxKu.s 			page 4


 171 003c 6368     		ldr	r3, [r4, #4]
 172              	.LVL14:
 173              		.loc 1 197 0
 174 003e 2046     		mov	r0, r4
 175              		.loc 1 196 0
 176 0040 1E68     		ldr	r6, [r3, #0]	@ unaligned
 177              	.LVL15:
 178              		.loc 1 197 0
 179 0042 FFF7FEFF 		bl	pbuf_clen
 180              	.LVL16:
 181              		.loc 1 198 0
 182 0046 2D18     		adds	r5, r5, r0
 183 0048 BD42     		cmp	r5, r7
 184 004a F1DD     		ble	.L14
 185              		.loc 1 198 0 is_stmt 0 discriminator 1
 186 004c FFF7FEFF 		bl	port_halt
 187              	.LVL17:
 188 0050 EEE7     		b	.L14
 189              	.LVL18:
 190              	.L27:
 191              	.LBE3:
 192              		.loc 1 179 0 is_stmt 1
 193 0052 4246     		mov	r2, r8
 194              		.loc 1 177 0
 195 0054 1968     		ldr	r1, [r3, #0]	@ unaligned
 196              		.loc 1 179 0
 197 0056 52F8085F 		ldr	r5, [r2, #8]!	@ unaligned
 198              		.loc 1 177 0
 199 005a C8F80410 		str	r1, [r8, #4]
 200              		.loc 1 179 0
 201 005e 9068     		ldr	r0, [r2, #8]	@ unaligned
 202 0060 D168     		ldr	r1, [r2, #12]	@ unaligned
 203 0062 5668     		ldr	r6, [r2, #4]	@ unaligned
 204 0064 9860     		str	r0, [r3, #8]	@ unaligned
 205 0066 D960     		str	r1, [r3, #12]	@ unaligned
 206 0068 1D60     		str	r5, [r3, #0]	@ unaligned
 207 006a 5E60     		str	r6, [r3, #4]	@ unaligned
 208 006c 1569     		ldr	r5, [r2, #16]	@ unaligned
 209              		.loc 1 180 0
 210 006e 0121     		movs	r1, #1
 211              		.loc 1 179 0
 212 0070 1D61     		str	r5, [r3, #16]	@ unaligned
 213              		.loc 1 180 0
 214 0072 2046     		mov	r0, r4
 215 0074 FFF7FEFF 		bl	icmp_time_exceeded
 216              	.LVL19:
 217              		.loc 1 181 0
 218 0078 2046     		mov	r0, r4
 219 007a FFF7FEFF 		bl	pbuf_clen
 220              	.LVL20:
 221 007e 0546     		mov	r5, r0
 222              	.LVL21:
 223              		.loc 1 184 0
 224 0080 2046     		mov	r0, r4
 225              	.LVL22:
 226 0082 FFF7FEFF 		bl	pbuf_free
 227              	.LVL23:
ARM GAS  /tmp/ccjGCxKu.s 			page 5


 228 0086 D8F80440 		ldr	r4, [r8, #4]
 229              	.LVL24:
 230              		.loc 1 191 0
 231 008a 002C     		cmp	r4, #0
 232 008c CDD1     		bne	.L15
 233              	.LVL25:
 234              	.L13:
 235              		.loc 1 204 0
 236 008e 094C     		ldr	r4, .L28
 237              		.loc 1 203 0
 238 0090 4046     		mov	r0, r8
 239 0092 4946     		mov	r1, r9
 240 0094 FFF7FEFF 		bl	ip_reass_dequeue_datagram
 241              	.LVL26:
 242              		.loc 1 204 0
 243 0098 2388     		ldrh	r3, [r4, #0]
 244 009a 9D42     		cmp	r5, r3
 245 009c 02D9     		bls	.L16
 246              		.loc 1 204 0 is_stmt 0 discriminator 1
 247 009e FFF7FEFF 		bl	port_halt
 248              	.LVL27:
 249 00a2 2388     		ldrh	r3, [r4, #0]
 250              	.L16:
 251              		.loc 1 205 0 is_stmt 1
 252 00a4 5B1B     		subs	r3, r3, r5
 253 00a6 2380     		strh	r3, [r4, #0]	@ movhi
 254              		.loc 1 208 0
 255 00a8 2846     		mov	r0, r5
 256 00aa BDE8F883 		pop	{r3, r4, r5, r6, r7, r8, r9, pc}
 257              	.LVL28:
 258              	.L26:
 259              		.loc 1 165 0 discriminator 1
 260 00ae FFF7FEFF 		bl	port_halt
 261              	.LVL29:
 262 00b2 ABE7     		b	.L10
 263              	.L29:
 264              		.align	2
 265              	.L28:
 266 00b4 00000000 		.word	.LANCHOR1
 267              		.cfi_endproc
 268              	.LFE8:
 269              		.size	ip_reass_free_complete_datagram, .-ip_reass_free_complete_datagram
 270 00b8 AFF30080 		.section	.text.ip_reass_remove_oldest_datagram,"ax",%progbits
 270      AFF30080 
 271              		.align	2
 272              		.p2align 4,,15
 273              		.thumb
 274              		.thumb_func
 275              		.type	ip_reass_remove_oldest_datagram, %function
 276              	ip_reass_remove_oldest_datagram:
 277              	.LFB9:
 278              		.loc 1 222 0
 279              		.cfi_startproc
 280              		@ args = 0, pretend = 0, frame = 0
 281              		@ frame_needed = 0, uses_anonymous_args = 0
 282              	.LVL30:
 283 0000 2DE9F843 		push	{r3, r4, r5, r6, r7, r8, r9, lr}
ARM GAS  /tmp/ccjGCxKu.s 			page 6


 284              	.LCFI3:
 285              		.cfi_def_cfa_offset 32
 286              		.cfi_offset 3, -32
 287              		.cfi_offset 4, -28
 288              		.cfi_offset 5, -24
 289              		.cfi_offset 6, -20
 290              		.cfi_offset 7, -16
 291              		.cfi_offset 8, -12
 292              		.cfi_offset 9, -8
 293              		.cfi_offset 14, -4
 294 0004 234D     		ldr	r5, .L48
 295              		.loc 1 222 0
 296 0006 0746     		mov	r7, r0
 297 0008 0E46     		mov	r6, r1
 298              		.loc 1 227 0
 299 000a 4FF00008 		mov	r8, #0
 300              	.LVL31:
 301              	.L37:
 302              		.loc 1 236 0
 303 000e 2B68     		ldr	r3, [r5, #0]
 304              	.LVL32:
 305              		.loc 1 237 0
 306 0010 002B     		cmp	r3, #0
 307 0012 32D0     		beq	.L31
 308              		.loc 1 235 0
 309 0014 0024     		movs	r4, #0
 310 0016 D7F80CC0 		ldr	ip, [r7, #12]	@ unaligned
 311              		.loc 1 234 0
 312 001a 2146     		mov	r1, r4
 313              		.loc 1 233 0
 314 001c 2046     		mov	r0, r4
 315 001e 0BE0     		b	.L34
 316              	.LVL33:
 317              	.L32:
 318              		.loc 1 240 0
 319 0020 0134     		adds	r4, r4, #1
 320              	.LVL34:
 321              		.loc 1 241 0
 322 0022 C8B1     		cbz	r0, .L38
 323              	.L46:
 324              		.loc 1 243 0
 325 0024 93F81F90 		ldrb	r9, [r3, #31]	@ zero_extendqisi2
 326 0028 C27F     		ldrb	r2, [r0, #31]	@ zero_extendqisi2
 327 002a 9145     		cmp	r9, r2
 328 002c 98BF     		it	ls
 329 002e 1846     		movls	r0, r3
 330              	.LVL35:
 331              	.L33:
 332              		.loc 1 248 0
 333 0030 1A68     		ldr	r2, [r3, #0]
 334 0032 AAB1     		cbz	r2, .L45
 335              	.L40:
 336 0034 1946     		mov	r1, r3
 337 0036 1346     		mov	r3, r2
 338              	.LVL36:
 339              	.L34:
 340              		.loc 1 238 0
ARM GAS  /tmp/ccjGCxKu.s 			page 7


 341 0038 5A69     		ldr	r2, [r3, #20]
 342 003a 6245     		cmp	r2, ip
 343 003c F0D1     		bne	.L32
 344              		.loc 1 238 0 is_stmt 0 discriminator 1
 345 003e 9A69     		ldr	r2, [r3, #24]
 346 0040 D7F81090 		ldr	r9, [r7, #16]	@ unaligned
 347 0044 4A45     		cmp	r2, r9
 348 0046 EBD1     		bne	.L32
 349 0048 B3F80C90 		ldrh	r9, [r3, #12]
 350 004c BA88     		ldrh	r2, [r7, #4]	@ unaligned
 351 004e 9145     		cmp	r9, r2
 352 0050 EED0     		beq	.L33
 353              		.loc 1 240 0 is_stmt 1
 354 0052 0134     		adds	r4, r4, #1
 355              	.LVL37:
 356              		.loc 1 241 0
 357 0054 0028     		cmp	r0, #0
 358 0056 E5D1     		bne	.L46
 359              	.L38:
 360              		.loc 1 248 0
 361 0058 1A68     		ldr	r2, [r3, #0]
 362              		.loc 1 241 0
 363 005a 1846     		mov	r0, r3
 364              	.LVL38:
 365              		.loc 1 248 0
 366 005c 002A     		cmp	r2, #0
 367 005e E9D1     		bne	.L40
 368              	.L45:
 369              	.LVL39:
 370              		.loc 1 253 0
 371 0060 70B1     		cbz	r0, .L47
 372              		.loc 1 254 0
 373 0062 FFF7FEFF 		bl	ip_reass_free_complete_datagram
 374              	.LVL40:
 375              		.loc 1 255 0
 376 0066 8044     		add	r8, r8, r0
 377              	.LVL41:
 378 0068 B045     		cmp	r8, r6
 379 006a ACBF     		ite	ge
 380 006c 0023     		movge	r3, #0
 381 006e 0123     		movlt	r3, #1
 382 0070 012C     		cmp	r4, #1
 383 0072 D8BF     		it	le
 384 0074 0023     		movle	r3, #0
 385              		.loc 1 257 0
 386 0076 002B     		cmp	r3, #0
 387 0078 C9D1     		bne	.L37
 388              	.LVL42:
 389              	.L31:
 390              		.loc 1 259 0
 391 007a 4046     		mov	r0, r8
 392 007c BDE8F883 		pop	{r3, r4, r5, r6, r7, r8, r9, pc}
 393              	.LVL43:
 394              	.L47:
 395 0080 012C     		cmp	r4, #1
 396 0082 D4BF     		ite	le
 397 0084 0023     		movle	r3, #0
ARM GAS  /tmp/ccjGCxKu.s 			page 8


 398 0086 0123     		movgt	r3, #1
 399 0088 B045     		cmp	r8, r6
 400 008a A8BF     		it	ge
 401 008c 0023     		movge	r3, #0
 402              		.loc 1 257 0
 403 008e 002B     		cmp	r3, #0
 404 0090 BDD1     		bne	.L37
 405 0092 F2E7     		b	.L31
 406              	.L49:
 407              		.align	2
 408              	.L48:
 409 0094 00000000 		.word	.LANCHOR0
 410              		.cfi_endproc
 411              	.LFE9:
 412              		.size	ip_reass_remove_oldest_datagram, .-ip_reass_remove_oldest_datagram
 413 0098 AFF30080 		.section	.text.ipfrag_free_pbuf_custom,"ax",%progbits
 413      AFF30080 
 414              		.align	2
 415              		.p2align 4,,15
 416              		.thumb
 417              		.thumb_func
 418              		.type	ipfrag_free_pbuf_custom, %function
 419              	ipfrag_free_pbuf_custom:
 420              	.LFB16:
 421              		.loc 1 641 0
 422              		.cfi_startproc
 423              		@ args = 0, pretend = 0, frame = 0
 424              		@ frame_needed = 0, uses_anonymous_args = 0
 425              	.LVL44:
 426 0000 10B5     		push	{r4, lr}
 427              	.LCFI4:
 428              		.cfi_def_cfa_offset 8
 429              		.cfi_offset 4, -8
 430              		.cfi_offset 14, -4
 431              		.loc 1 643 0
 432 0002 0446     		mov	r4, r0
 433 0004 48B1     		cbz	r0, .L56
 434              	.LVL45:
 435              	.L51:
 436              		.loc 1 645 0
 437 0006 6069     		ldr	r0, [r4, #20]
 438 0008 08B1     		cbz	r0, .L52
 439              		.loc 1 646 0
 440 000a FFF7FEFF 		bl	pbuf_free
 441              	.LVL46:
 442              	.L52:
 443              	.LBB6:
 444              	.LBB7:
 445              		.loc 1 634 0
 446 000e 0620     		movs	r0, #6
 447 0010 2146     		mov	r1, r4
 448              	.LBE7:
 449              	.LBE6:
 450              		.loc 1 649 0
 451 0012 BDE81040 		pop	{r4, lr}
 452              	.LBB9:
 453              	.LBB8:
ARM GAS  /tmp/ccjGCxKu.s 			page 9


 454              		.loc 1 634 0
 455 0016 FFF7FEBF 		b	memp_free
 456              	.LVL47:
 457              	.L56:
 458              	.LBE8:
 459              	.LBE9:
 460              		.loc 1 643 0 discriminator 1
 461 001a FFF7FEFF 		bl	port_halt
 462              	.LVL48:
 463 001e F2E7     		b	.L51
 464              		.cfi_endproc
 465              	.LFE16:
 466              		.size	ipfrag_free_pbuf_custom, .-ipfrag_free_pbuf_custom
 467              		.section	.text.ip_reass_tmr,"ax",%progbits
 468              		.align	2
 469              		.p2align 4,,15
 470              		.global	ip_reass_tmr
 471              		.thumb
 472              		.thumb_func
 473              		.type	ip_reass_tmr, %function
 474              	ip_reass_tmr:
 475              	.LFB7:
 476              		.loc 1 123 0
 477              		.cfi_startproc
 478              		@ args = 0, pretend = 0, frame = 0
 479              		@ frame_needed = 0, uses_anonymous_args = 0
 480              	.LVL49:
 481 0000 38B5     		push	{r3, r4, r5, lr}
 482              	.LCFI5:
 483              		.cfi_def_cfa_offset 16
 484              		.cfi_offset 3, -16
 485              		.cfi_offset 4, -12
 486              		.cfi_offset 5, -8
 487              		.cfi_offset 14, -4
 488              		.loc 1 126 0
 489 0002 0A4B     		ldr	r3, .L64
 490 0004 1868     		ldr	r0, [r3, #0]
 491              	.LVL50:
 492              		.loc 1 127 0
 493 0006 40B1     		cbz	r0, .L57
 494 0008 0024     		movs	r4, #0
 495              	.LVL51:
 496              	.L58:
 497              		.loc 1 130 0
 498 000a C37F     		ldrb	r3, [r0, #31]	@ zero_extendqisi2
 499              		.loc 1 131 0
 500 000c 5A1E     		subs	r2, r3, #1
 501              		.loc 1 130 0
 502 000e 2BB1     		cbz	r3, .L59
 503              		.loc 1 131 0
 504 0010 C277     		strb	r2, [r0, #31]
 505              	.LVL52:
 506              		.loc 1 134 0
 507 0012 0446     		mov	r4, r0
 508 0014 0068     		ldr	r0, [r0, #0]
 509              	.LVL53:
 510              		.loc 1 127 0
ARM GAS  /tmp/ccjGCxKu.s 			page 10


 511 0016 0028     		cmp	r0, #0
 512 0018 F7D1     		bne	.L58
 513              	.LVL54:
 514              	.L57:
 515 001a 38BD     		pop	{r3, r4, r5, pc}
 516              	.L59:
 517              	.LVL55:
 518              	.LBB10:
 519              		.loc 1 141 0
 520 001c 0568     		ldr	r5, [r0, #0]
 521              	.LVL56:
 522              		.loc 1 143 0
 523 001e 2146     		mov	r1, r4
 524 0020 FFF7FEFF 		bl	ip_reass_free_complete_datagram
 525              	.LVL57:
 526              		.loc 1 141 0
 527 0024 2846     		mov	r0, r5
 528              	.LVL58:
 529              	.LBE10:
 530              		.loc 1 127 0
 531 0026 0028     		cmp	r0, #0
 532 0028 EFD1     		bne	.L58
 533 002a F6E7     		b	.L57
 534              	.L65:
 535              		.align	2
 536              	.L64:
 537 002c 00000000 		.word	.LANCHOR0
 538              		.cfi_endproc
 539              	.LFE7:
 540              		.size	ip_reass_tmr, .-ip_reass_tmr
 541              		.section	.text.ip_reass,"ax",%progbits
 542              		.align	2
 543              		.p2align 4,,15
 544              		.global	ip_reass
 545              		.thumb
 546              		.thumb_func
 547              		.type	ip_reass, %function
 548              	ip_reass:
 549              	.LFB13:
 550              		.loc 1 477 0
 551              		.cfi_startproc
 552              		@ args = 0, pretend = 0, frame = 16
 553              		@ frame_needed = 0, uses_anonymous_args = 0
 554              	.LVL59:
 555 0000 2DE9F04F 		push	{r4, r5, r6, r7, r8, r9, sl, fp, lr}
 556              	.LCFI6:
 557              		.cfi_def_cfa_offset 36
 558              		.cfi_offset 4, -36
 559              		.cfi_offset 5, -32
 560              		.cfi_offset 6, -28
 561              		.cfi_offset 7, -24
 562              		.cfi_offset 8, -20
 563              		.cfi_offset 9, -16
 564              		.cfi_offset 10, -12
 565              		.cfi_offset 11, -8
 566              		.cfi_offset 14, -4
 567              		.loc 1 486 0
ARM GAS  /tmp/ccjGCxKu.s 			page 11


 568 0004 DFF874A3 		ldr	sl, .L140
 569              		.loc 1 489 0
 570 0008 4668     		ldr	r6, [r0, #4]
 571              	.LVL60:
 572              		.loc 1 486 0
 573 000a BAF83230 		ldrh	r3, [sl, #50]
 574 000e 0133     		adds	r3, r3, #1
 575 0010 AAF83230 		strh	r3, [sl, #50]	@ movhi
 576              		.loc 1 477 0
 577 0014 85B0     		sub	sp, sp, #20
 578              	.LCFI7:
 579              		.cfi_def_cfa_offset 56
 580              		.loc 1 477 0
 581 0016 0746     		mov	r7, r0
 582              		.loc 1 491 0
 583 0018 3088     		ldrh	r0, [r6, #0]	@ unaligned
 584              	.LVL61:
 585 001a FFF7FEFF 		bl	lwip_ntohs
 586              	.LVL62:
 587 001e C0F30320 		ubfx	r0, r0, #8, #4
 588 0022 0528     		cmp	r0, #5
 589 0024 40F0D980 		bne	.L133
 590              		.loc 1 497 0
 591 0028 F088     		ldrh	r0, [r6, #6]	@ unaligned
 592              		.loc 1 502 0
 593 002a DFF85483 		ldr	r8, .L140+4
 594              		.loc 1 497 0
 595 002e FFF7FEFF 		bl	lwip_ntohs
 596              	.LVL63:
 597 0032 0190     		str	r0, [sp, #4]
 598              	.LVL64:
 599              		.loc 1 498 0
 600 0034 7088     		ldrh	r0, [r6, #2]	@ unaligned
 601 0036 FFF7FEFF 		bl	lwip_ntohs
 602              	.LVL65:
 603 003a 0290     		str	r0, [sp, #8]
 604 003c 3088     		ldrh	r0, [r6, #0]	@ unaligned
 605 003e FFF7FEFF 		bl	lwip_ntohs
 606              	.LVL66:
 607 0042 0390     		str	r0, [sp, #12]
 608              	.LVL67:
 609              		.loc 1 501 0
 610 0044 3846     		mov	r0, r7
 611 0046 FFF7FEFF 		bl	pbuf_clen
 612              	.LVL68:
 613              		.loc 1 502 0
 614 004a B8F80030 		ldrh	r3, [r8, #0]
 615 004e 1B18     		adds	r3, r3, r0
 616 0050 0A2B     		cmp	r3, #10
 617              		.loc 1 501 0
 618 0052 8146     		mov	r9, r0
 619              	.LVL69:
 620              		.loc 1 502 0
 621 0054 00F3D480 		bgt	.L134
 622              	.LVL70:
 623              	.L69:
 624              		.loc 1 520 0
ARM GAS  /tmp/ccjGCxKu.s 			page 12


 625 0058 DFF828B3 		ldr	fp, .L140+8
 626 005c DBF80040 		ldr	r4, [fp, #0]
 627              	.LVL71:
 628 0060 2CB3     		cbz	r4, .L107
 629 0062 F068     		ldr	r0, [r6, #12]	@ unaligned
 630              		.loc 1 484 0
 631 0064 0025     		movs	r5, #0
 632 0066 03E0     		b	.L75
 633              	.LVL72:
 634              	.L72:
 635              		.loc 1 520 0
 636 0068 2168     		ldr	r1, [r4, #0]
 637              	.LVL73:
 638 006a 2546     		mov	r5, r4
 639 006c 01B3     		cbz	r1, .L71
 640 006e 0C46     		mov	r4, r1
 641              	.LVL74:
 642              	.L75:
 643              		.loc 1 524 0
 644 0070 6169     		ldr	r1, [r4, #20]
 645 0072 8142     		cmp	r1, r0
 646 0074 F8D1     		bne	.L72
 647              		.loc 1 524 0 is_stmt 0 discriminator 1
 648 0076 A169     		ldr	r1, [r4, #24]
 649 0078 D6F810E0 		ldr	lr, [r6, #16]	@ unaligned
 650 007c 7145     		cmp	r1, lr
 651 007e F3D1     		bne	.L72
 652 0080 B4F80CE0 		ldrh	lr, [r4, #12]
 653 0084 B188     		ldrh	r1, [r6, #4]	@ unaligned
 654 0086 8E45     		cmp	lr, r1
 655 0088 EED1     		bne	.L72
 656              		.loc 1 527 0 is_stmt 1
 657 008a BAF84630 		ldrh	r3, [sl, #70]
 658 008e 0133     		adds	r3, r3, #1
 659 0090 AAF84630 		strh	r3, [sl, #70]	@ movhi
 660              		.loc 1 541 0
 661 0094 F088     		ldrh	r0, [r6, #6]	@ unaligned
 662 0096 FFF7FEFF 		bl	lwip_ntohs
 663              	.LVL75:
 664 009a C004     		lsls	r0, r0, #19
 665 009c C00C     		lsrs	r0, r0, #19
 666 009e 30BB     		cbnz	r0, .L74
 667              		.loc 1 542 0 discriminator 1
 668 00a0 E089     		ldrh	r0, [r4, #14]
 669 00a2 FFF7FEFF 		bl	lwip_ntohs
 670              	.LVL76:
 671              		.loc 1 541 0 discriminator 1
 672 00a6 C004     		lsls	r0, r0, #19
 673 00a8 C00C     		lsrs	r0, r0, #19
 674 00aa 00B3     		cbz	r0, .L74
 675 00ac 13E0     		b	.L132
 676              	.LVL77:
 677              	.L107:
 678              		.loc 1 484 0
 679 00ae 2546     		mov	r5, r4
 680              	.LVL78:
 681              	.L71:
ARM GAS  /tmp/ccjGCxKu.s 			page 13


 682              	.LBB15:
 683              	.LBB16:
 684              		.loc 1 273 0
 685 00b0 0520     		movs	r0, #5
 686 00b2 FFF7FEFF 		bl	memp_malloc
 687              	.LVL79:
 688              		.loc 1 274 0
 689 00b6 0446     		mov	r4, r0
 690 00b8 0028     		cmp	r0, #0
 691 00ba 00F03781 		beq	.L135
 692              	.L77:
 693              		.loc 1 287 0
 694 00be 2022     		movs	r2, #32
 695 00c0 2046     		mov	r0, r4
 696 00c2 0021     		movs	r1, #0
 697 00c4 FFF7FEFF 		bl	memset
 698              	.LVL80:
 699              		.loc 1 291 0
 700 00c8 DBF80020 		ldr	r2, [fp, #0]
 701              		.loc 1 292 0
 702 00cc CBF80040 		str	r4, [fp, #0]
 703              		.loc 1 288 0
 704 00d0 0323     		movs	r3, #3
 705 00d2 E377     		strb	r3, [r4, #31]
 706              		.loc 1 291 0
 707 00d4 2260     		str	r2, [r4, #0]
 708              	.LVL81:
 709              	.L132:
 710              	.LBE16:
 711              	.LBE15:
 712              		.loc 1 547 0
 713 00d6 3268     		ldr	r2, [r6, #0]	@ unaligned
 714 00d8 D6F804E0 		ldr	lr, [r6, #4]	@ unaligned
 715 00dc B068     		ldr	r0, [r6, #8]	@ unaligned
 716 00de F168     		ldr	r1, [r6, #12]	@ unaligned
 717 00e0 A260     		str	r2, [r4, #8]	@ unaligned
 718 00e2 C4F80CE0 		str	lr, [r4, #12]	@ unaligned
 719 00e6 2061     		str	r0, [r4, #16]	@ unaligned
 720 00e8 6161     		str	r1, [r4, #20]	@ unaligned
 721 00ea 3269     		ldr	r2, [r6, #16]	@ unaligned
 722 00ec A261     		str	r2, [r4, #24]	@ unaligned
 723              	.L74:
 724              	.LVL82:
 725              		.loc 1 552 0
 726 00ee B8F80030 		ldrh	r3, [r8, #0]
 727 00f2 09EB030C 		add	ip, r9, r3
 728 00f6 A8F800C0 		strh	ip, [r8, #0]	@ movhi
 729              		.loc 1 558 0
 730 00fa F388     		ldrh	r3, [r6, #6]	@ unaligned
 731 00fc 03F02003 		and	r3, r3, #32
 732 0100 9BB2     		uxth	r3, r3
 733 0102 A3B9     		cbnz	r3, .L78
 734              		.loc 1 497 0
 735 0104 019B     		ldr	r3, [sp, #4]
 736              		.loc 1 498 0
 737 0106 039A     		ldr	r2, [sp, #12]
 738              		.loc 1 497 0
ARM GAS  /tmp/ccjGCxKu.s 			page 14


 739 0108 4FEAC349 		lsl	r9, r3, #19
 740              	.LVL83:
 741              		.loc 1 498 0
 742 010c C2F3032B 		ubfx	fp, r2, #8, #4
 743 0110 029A     		ldr	r2, [sp, #8]
 744              		.loc 1 559 0
 745 0112 A37F     		ldrb	r3, [r4, #30]	@ zero_extendqisi2
 746              		.loc 1 497 0
 747 0114 4FEAD949 		lsr	r9, r9, #19
 748              		.loc 1 498 0
 749 0118 02EBC909 		add	r9, r2, r9, lsl #3
 750 011c CBEB8B3B 		rsb	fp, fp, fp, lsl #14
 751              		.loc 1 559 0
 752 0120 43F00103 		orr	r3, r3, #1
 753              		.loc 1 560 0
 754 0124 09EB8B09 		add	r9, r9, fp, lsl #2
 755              		.loc 1 559 0
 756 0128 A377     		strb	r3, [r4, #30]
 757              		.loc 1 560 0
 758 012a A4F81C90 		strh	r9, [r4, #28]	@ movhi
 759              	.L78:
 760              	.LVL84:
 761              	.LBB19:
 762              	.LBB20:
 763              		.loc 1 340 0
 764 012e 7E68     		ldr	r6, [r7, #4]
 765              	.LVL85:
 766              		.loc 1 341 0
 767 0130 7088     		ldrh	r0, [r6, #2]	@ unaligned
 768 0132 FFF7FEFF 		bl	lwip_ntohs
 769              	.LVL86:
 770 0136 8146     		mov	r9, r0
 771 0138 3088     		ldrh	r0, [r6, #0]	@ unaligned
 772 013a FFF7FEFF 		bl	lwip_ntohs
 773              	.LVL87:
 774 013e 8246     		mov	sl, r0
 775              	.LVL88:
 776              		.loc 1 342 0
 777 0140 F088     		ldrh	r0, [r6, #6]	@ unaligned
 778              	.LVL89:
 779 0142 FFF7FEFF 		bl	lwip_ntohs
 780              	.LVL90:
 781 0146 C004     		lsls	r0, r0, #19
 782 0148 C00C     		lsrs	r0, r0, #19
 783 014a 4FEAC00C 		lsl	ip, r0, #3
 784              	.LVL91:
 785              		.loc 1 341 0
 786 014e CAF30323 		ubfx	r3, sl, #8, #4
 787 0152 0CEB0902 		add	r2, ip, r9
 788 0156 C3EB8333 		rsb	r3, r3, r3, lsl #14
 789              		.loc 1 349 0
 790 015a D7F80490 		ldr	r9, [r7, #4]
 791              	.LVL92:
 792              		.loc 1 352 0
 793 015e 02EB830A 		add	sl, r2, r3, lsl #2
 794 0162 1FFA8AFA 		uxth	sl, sl
 795              		.loc 1 350 0
ARM GAS  /tmp/ccjGCxKu.s 			page 15


 796 0166 0023     		movs	r3, #0
 797 0168 89F80030 		strb	r3, [r9, #0]
 798 016c 89F80130 		strb	r3, [r9, #1]
 799 0170 89F80230 		strb	r3, [r9, #2]
 800 0174 89F80330 		strb	r3, [r9, #3]
 801              		.loc 1 351 0
 802 0178 A9F804C0 		strh	ip, [r9, #4]	@ unaligned
 803              		.loc 1 352 0
 804 017c A9F806A0 		strh	sl, [r9, #6]	@ unaligned
 805              		.loc 1 356 0
 806 0180 6368     		ldr	r3, [r4, #4]
 807              	.LVL93:
 808 0182 002B     		cmp	r3, #0
 809 0184 00F0DE80 		beq	.L79
 810              		.loc 1 357 0
 811 0188 5E68     		ldr	r6, [r3, #4]
 812              	.LVL94:
 813              		.loc 1 358 0
 814 018a B288     		ldrh	r2, [r6, #4]	@ unaligned
 815 018c 9445     		cmp	ip, r2
 816 018e 45D3     		bcc	.L80
 817              		.loc 1 375 0
 818 0190 00F0BE80 		beq	.L81
 819              		.loc 1 379 0
 820 0194 F388     		ldrh	r3, [r6, #6]	@ unaligned
 821              	.LVL95:
 822 0196 6345     		cmp	r3, ip
 823 0198 00F2BA80 		bhi	.L81
 824 019c 0120     		movs	r0, #1
 825 019e 0FE0     		b	.L82
 826              	.LVL96:
 827              	.L86:
 828              		.loc 1 357 0
 829 01a0 5368     		ldr	r3, [r2, #4]
 830              	.LVL97:
 831              		.loc 1 358 0
 832 01a2 9988     		ldrh	r1, [r3, #4]	@ unaligned
 833 01a4 8C45     		cmp	ip, r1
 834 01a6 C0F0AA80 		bcc	.L136
 835              		.loc 1 375 0
 836 01aa 00F0B180 		beq	.L81
 837              		.loc 1 379 0
 838 01ae DA88     		ldrh	r2, [r3, #6]	@ unaligned
 839              	.LVL98:
 840 01b0 6245     		cmp	r2, ip
 841 01b2 00F2AD80 		bhi	.L81
 842              		.loc 1 386 0
 843 01b6 F288     		ldrh	r2, [r6, #6]	@ unaligned
 844              		.loc 1 379 0
 845 01b8 1E46     		mov	r6, r3
 846              	.LVL99:
 847              		.loc 1 389 0
 848 01ba 8A42     		cmp	r2, r1
 849 01bc 18BF     		it	ne
 850 01be 0020     		movne	r0, #0
 851              	.LVL100:
 852              	.L82:
ARM GAS  /tmp/ccjGCxKu.s 			page 16


 853              		.loc 1 393 0
 854 01c0 3268     		ldr	r2, [r6, #0]	@ unaligned
 855              	.LVL101:
 856              		.loc 1 356 0
 857 01c2 002A     		cmp	r2, #0
 858 01c4 ECD1     		bne	.L86
 859              		.loc 1 403 0
 860 01c6 F388     		ldrh	r3, [r6, #6]	@ unaligned
 861 01c8 9C45     		cmp	ip, r3
 862 01ca C0F0C180 		bcc	.L137
 863              	.LVL102:
 864              	.L100:
 865              		.loc 1 406 0
 866 01ce 9C45     		cmp	ip, r3
 867              		.loc 1 405 0
 868 01d0 3760     		str	r7, [r6, #0]	@ unaligned
 869              		.loc 1 406 0
 870 01d2 27D0     		beq	.L101
 871              	.LVL103:
 872              	.L89:
 873              	.LBE20:
 874              	.LBE19:
 875              		.loc 1 606 0
 876 01d4 4FF00009 		mov	r9, #0
 877 01d8 0EE0     		b	.L131
 878              	.LVL104:
 879              	.L133:
 880              		.loc 1 493 0
 881 01da BAF84430 		ldrh	r3, [sl, #68]
 882 01de 0133     		adds	r3, r3, #1
 883 01e0 AAF84430 		strh	r3, [sl, #68]	@ movhi
 884              	.LVL105:
 885              	.L68:
 886              		.loc 1 610 0
 887 01e4 BAF83630 		ldrh	r3, [sl, #54]
 888              		.loc 1 611 0
 889 01e8 3846     		mov	r0, r7
 890              		.loc 1 610 0
 891 01ea 0133     		adds	r3, r3, #1
 892 01ec AAF83630 		strh	r3, [sl, #54]	@ movhi
 893              		.loc 1 612 0
 894 01f0 4FF00009 		mov	r9, #0
 895              		.loc 1 611 0
 896 01f4 FFF7FEFF 		bl	pbuf_free
 897              	.LVL106:
 898              	.L131:
 899              		.loc 1 613 0
 900 01f8 4846     		mov	r0, r9
 901 01fa 05B0     		add	sp, sp, #20
 902 01fc BDE8F08F 		pop	{r4, r5, r6, r7, r8, r9, sl, fp, pc}
 903              	.LVL107:
 904              	.L134:
 905              		.loc 1 504 0
 906 0200 3046     		mov	r0, r6
 907              	.LVL108:
 908 0202 4946     		mov	r1, r9
 909 0204 FFF7FEFF 		bl	ip_reass_remove_oldest_datagram
ARM GAS  /tmp/ccjGCxKu.s 			page 17


 910              	.LVL109:
 911 0208 0028     		cmp	r0, #0
 912 020a 00F09580 		beq	.L76
 913              		.loc 1 505 0 discriminator 1
 914 020e B8F80030 		ldrh	r3, [r8, #0]
 915 0212 4B44     		add	r3, r9, r3
 916              		.loc 1 504 0 discriminator 1
 917 0214 0A2B     		cmp	r3, #10
 918 0216 7FF71FAF 		ble	.L69
 919 021a 8DE0     		b	.L76
 920              	.LVL110:
 921              	.L80:
 922              	.LBB27:
 923              	.LBB21:
 924              		.loc 1 360 0
 925 021c C9F80030 		str	r3, [r9, #0]	@ unaligned
 926              		.loc 1 372 0
 927 0220 0120     		movs	r0, #1
 928 0222 6760     		str	r7, [r4, #4]
 929              	.LVL111:
 930              	.L101:
 931              	.LBE21:
 932              		.loc 1 421 0
 933 0224 A37F     		ldrb	r3, [r4, #30]	@ zero_extendqisi2
 934              	.LBB22:
 935 0226 DA07     		lsls	r2, r3, #31
 936 0228 D4D5     		bpl	.L89
 937              		.loc 1 423 0
 938 022a 0028     		cmp	r0, #0
 939 022c D2D0     		beq	.L89
 940              	.LVL112:
 941              	.L106:
 942              		.loc 1 426 0
 943 022e 6368     		ldr	r3, [r4, #4]
 944 0230 5868     		ldr	r0, [r3, #4]
 945 0232 8388     		ldrh	r3, [r0, #4]	@ unaligned
 946 0234 002B     		cmp	r3, #0
 947 0236 CDD1     		bne	.L89
 948              	.LVL113:
 949              		.loc 1 431 0
 950 0238 D9F80030 		ldr	r3, [r9, #0]	@ unaligned
 951              	.LVL114:
 952              		.loc 1 432 0
 953 023c 002B     		cmp	r3, #0
 954 023e 00F09780 		beq	.L110
 955              		.loc 1 433 0
 956 0242 5E68     		ldr	r6, [r3, #4]
 957              	.LVL115:
 958              		.loc 1 434 0
 959 0244 B9F80620 		ldrh	r2, [r9, #6]	@ unaligned
 960 0248 B388     		ldrh	r3, [r6, #4]	@ unaligned
 961              	.LVL116:
 962 024a 9A42     		cmp	r2, r3
 963 024c 06D0     		beq	.L130
 964 024e C1E7     		b	.L89
 965              	.LVL117:
 966              	.L93:
ARM GAS  /tmp/ccjGCxKu.s 			page 18


 967              		.loc 1 433 0
 968 0250 5B68     		ldr	r3, [r3, #4]
 969              	.LVL118:
 970              		.loc 1 434 0
 971 0252 F188     		ldrh	r1, [r6, #6]	@ unaligned
 972 0254 9A88     		ldrh	r2, [r3, #4]	@ unaligned
 973 0256 9142     		cmp	r1, r2
 974 0258 BCD1     		bne	.L89
 975 025a 1E46     		mov	r6, r3
 976              	.LVL119:
 977              	.L130:
 978              		.loc 1 439 0
 979 025c 3368     		ldr	r3, [r6, #0]	@ unaligned
 980              	.LVL120:
 981              		.loc 1 432 0
 982 025e 002B     		cmp	r3, #0
 983 0260 F6D1     		bne	.L93
 984              	.L90:
 985              		.loc 1 445 0
 986 0262 B042     		cmp	r0, r6
 987 0264 00F08680 		beq	.L138
 988              	.LVL121:
 989              	.L103:
 990              		.loc 1 447 0
 991 0268 3368     		ldr	r3, [r6, #0]	@ unaligned
 992 026a 0BB1     		cbz	r3, .L94
 993 026c FFF7FEFF 		bl	port_halt
 994              	.LVL122:
 995              	.L94:
 996              		.loc 1 449 0
 997 0270 A18B     		ldrh	r1, [r4, #28]
 998 0272 F388     		ldrh	r3, [r6, #6]	@ unaligned
 999 0274 8B42     		cmp	r3, r1
 1000 0276 02D0     		beq	.L95
 1001 0278 FFF7FEFF 		bl	port_halt
 1002              	.LVL123:
 1003 027c A18B     		ldrh	r1, [r4, #28]
 1004              	.L95:
 1005              	.LBE22:
 1006              	.LBE27:
 1007              		.loc 1 577 0
 1008 027e 2346     		mov	r3, r4
 1009              		.loc 1 573 0
 1010 0280 6068     		ldr	r0, [r4, #4]
 1011              		.loc 1 577 0
 1012 0282 53F8082F 		ldr	r2, [r3, #8]!	@ unaligned
 1013              		.loc 1 573 0
 1014 0286 4768     		ldr	r7, [r0, #4]
 1015              	.LVL124:
 1016              		.loc 1 577 0
 1017 0288 D3F804C0 		ldr	ip, [r3, #4]	@ unaligned
 1018 028c D3F808E0 		ldr	lr, [r3, #8]	@ unaligned
 1019 0290 D868     		ldr	r0, [r3, #12]	@ unaligned
 1020              		.loc 1 570 0
 1021 0292 1431     		adds	r1, r1, #20
 1022 0294 A183     		strh	r1, [r4, #28]	@ movhi
 1023              		.loc 1 573 0
ARM GAS  /tmp/ccjGCxKu.s 			page 19


 1024 0296 3E68     		ldr	r6, [r7, #0]	@ unaligned
 1025              	.LVL125:
 1026              		.loc 1 577 0
 1027 0298 C7F804C0 		str	ip, [r7, #4]	@ unaligned
 1028 029c C7F808E0 		str	lr, [r7, #8]	@ unaligned
 1029 02a0 3A60     		str	r2, [r7, #0]	@ unaligned
 1030 02a2 F860     		str	r0, [r7, #12]	@ unaligned
 1031 02a4 1A69     		ldr	r2, [r3, #16]	@ unaligned
 1032 02a6 3A61     		str	r2, [r7, #16]	@ unaligned
 1033              		.loc 1 578 0
 1034 02a8 A08B     		ldrh	r0, [r4, #28]
 1035 02aa FFF7FEFF 		bl	lwip_htons
 1036              	.LVL126:
 1037              		.loc 1 579 0
 1038 02ae 0023     		movs	r3, #0
 1039              		.loc 1 578 0
 1040 02b0 7880     		strh	r0, [r7, #2]	@ unaligned
 1041              		.loc 1 579 0
 1042 02b2 BB71     		strb	r3, [r7, #6]
 1043 02b4 FB71     		strb	r3, [r7, #7]
 1044              		.loc 1 580 0
 1045 02b6 BB72     		strb	r3, [r7, #10]
 1046 02b8 FB72     		strb	r3, [r7, #11]
 1047              		.loc 1 582 0
 1048 02ba 3846     		mov	r0, r7
 1049 02bc 1421     		movs	r1, #20
 1050 02be FFF7FEFF 		bl	inet_chksum
 1051              	.LVL127:
 1052 02c2 7881     		strh	r0, [r7, #10]	@ unaligned
 1053              		.loc 1 584 0
 1054 02c4 D4F80490 		ldr	r9, [r4, #4]
 1055              	.LVL128:
 1056              		.loc 1 587 0
 1057 02c8 66B1     		cbz	r6, .L105
 1058              	.LVL129:
 1059              	.L122:
 1060              		.loc 1 588 0
 1061 02ca 7768     		ldr	r7, [r6, #4]
 1062              	.LVL130:
 1063              		.loc 1 591 0
 1064 02cc 3046     		mov	r0, r6
 1065 02ce 6FF01301 		mvn	r1, #19
 1066 02d2 FFF7FEFF 		bl	pbuf_header
 1067              	.LVL131:
 1068              		.loc 1 592 0
 1069 02d6 3146     		mov	r1, r6
 1070 02d8 4846     		mov	r0, r9
 1071 02da FFF7FEFF 		bl	pbuf_cat
 1072              	.LVL132:
 1073              		.loc 1 593 0
 1074 02de 3E68     		ldr	r6, [r7, #0]	@ unaligned
 1075              	.LVL133:
 1076              		.loc 1 587 0
 1077 02e0 002E     		cmp	r6, #0
 1078 02e2 F2D1     		bne	.L122
 1079              	.LVL134:
 1080              	.L105:
ARM GAS  /tmp/ccjGCxKu.s 			page 20


 1081              		.loc 1 596 0
 1082 02e4 2046     		mov	r0, r4
 1083 02e6 2946     		mov	r1, r5
 1084 02e8 FFF7FEFF 		bl	ip_reass_dequeue_datagram
 1085              	.LVL135:
 1086              		.loc 1 599 0
 1087 02ec 4846     		mov	r0, r9
 1088 02ee B8F80040 		ldrh	r4, [r8, #0]
 1089              	.LVL136:
 1090 02f2 FFF7FEFF 		bl	pbuf_clen
 1091              	.LVL137:
 1092 02f6 201A     		subs	r0, r4, r0
 1093 02f8 A8F80000 		strh	r0, [r8, #0]	@ movhi
 1094              		.loc 1 602 0
 1095 02fc 7CE7     		b	.L131
 1096              	.LVL138:
 1097              	.L136:
 1098              	.LBB28:
 1099              	.LBB23:
 1100              		.loc 1 360 0
 1101 02fe C9F80020 		str	r2, [r9, #0]	@ unaligned
 1102              		.loc 1 364 0
 1103 0302 F388     		ldrh	r3, [r6, #6]	@ unaligned
 1104              	.LVL139:
 1105 0304 6345     		cmp	r3, ip
 1106 0306 03D8     		bhi	.L81
 1107 0308 8A45     		cmp	sl, r1
 1108              		.loc 1 369 0
 1109 030a 98BF     		it	ls
 1110 030c 3760     		strls	r7, [r6, #0]	@ unaligned
 1111              		.loc 1 364 0
 1112 030e 89D9     		bls	.L101
 1113              	.LVL140:
 1114              	.L81:
 1115              		.loc 1 463 0
 1116 0310 3846     		mov	r0, r7
 1117 0312 B8F80040 		ldrh	r4, [r8, #0]
 1118              	.LVL141:
 1119 0316 FFF7FEFF 		bl	pbuf_clen
 1120              	.LVL142:
 1121 031a 241A     		subs	r4, r4, r0
 1122              		.loc 1 464 0
 1123 031c 3846     		mov	r0, r7
 1124              		.loc 1 463 0
 1125 031e A8F80040 		strh	r4, [r8, #0]	@ movhi
 1126              	.LBE23:
 1127              	.LBE28:
 1128              		.loc 1 606 0
 1129 0322 4FF00009 		mov	r9, #0
 1130              	.LVL143:
 1131              	.LBB29:
 1132              	.LBB24:
 1133              		.loc 1 464 0
 1134 0326 FFF7FEFF 		bl	pbuf_free
 1135              	.LVL144:
 1136 032a 65E7     		b	.L131
 1137              	.LVL145:
ARM GAS  /tmp/ccjGCxKu.s 			page 21


 1138              	.L135:
 1139              	.LBE24:
 1140              	.LBE29:
 1141              	.LBB30:
 1142              	.LBB17:
 1143              		.loc 1 276 0
 1144 032c 3046     		mov	r0, r6
 1145              	.LVL146:
 1146 032e 4946     		mov	r1, r9
 1147 0330 FFF7FEFF 		bl	ip_reass_remove_oldest_datagram
 1148              	.LVL147:
 1149 0334 8145     		cmp	r9, r0
 1150 0336 13DD     		ble	.L139
 1151              	.LVL148:
 1152              	.L76:
 1153              		.loc 1 282 0
 1154 0338 BAF83C30 		ldrh	r3, [sl, #60]
 1155 033c 0133     		adds	r3, r3, #1
 1156 033e AAF83C30 		strh	r3, [sl, #60]	@ movhi
 1157 0342 4FE7     		b	.L68
 1158              	.LVL149:
 1159              	.L79:
 1160              	.LBE17:
 1161              	.LBE30:
 1162              	.LBB31:
 1163              		.loc 1 421 0
 1164 0344 A37F     		ldrb	r3, [r4, #30]	@ zero_extendqisi2
 1165              	.LVL150:
 1166              	.LBB25:
 1167              		.loc 1 415 0
 1168 0346 6760     		str	r7, [r4, #4]
 1169              		.loc 1 421 0
 1170 0348 DB07     		lsls	r3, r3, #31
 1171 034a 3FF570AF 		bmi	.L106
 1172 034e 41E7     		b	.L89
 1173              	.LVL151:
 1174              	.L137:
 1175              		.loc 1 403 0
 1176 0350 0090     		str	r0, [sp, #0]
 1177 0352 FFF7FEFF 		bl	port_halt
 1178              	.LVL152:
 1179 0356 F388     		ldrh	r3, [r6, #6]	@ unaligned
 1180 0358 B9F804C0 		ldrh	ip, [r9, #4]	@ unaligned
 1181 035c 0098     		ldr	r0, [sp, #0]
 1182 035e 36E7     		b	.L100
 1183              	.LVL153:
 1184              	.L139:
 1185              	.LBE25:
 1186              	.LBE31:
 1187              	.LBB32:
 1188              	.LBB18:
 1189              		.loc 1 277 0
 1190 0360 0520     		movs	r0, #5
 1191 0362 FFF7FEFF 		bl	memp_malloc
 1192              	.LVL154:
 1193              		.loc 1 279 0
 1194 0366 0446     		mov	r4, r0
ARM GAS  /tmp/ccjGCxKu.s 			page 22


 1195 0368 0028     		cmp	r0, #0
 1196 036a 7FF4A8AE 		bne	.L77
 1197 036e E3E7     		b	.L76
 1198              	.LVL155:
 1199              	.L110:
 1200              	.LBE18:
 1201              	.LBE32:
 1202              	.LBB33:
 1203              	.LBB26:
 1204              		.loc 1 432 0
 1205 0370 4E46     		mov	r6, r9
 1206 0372 76E7     		b	.L90
 1207              	.LVL156:
 1208              	.L138:
 1209              		.loc 1 445 0
 1210 0374 FFF7FEFF 		bl	port_halt
 1211              	.LVL157:
 1212 0378 76E7     		b	.L103
 1213              	.L141:
 1214 037a 00BF     		.align	2
 1215              	.L140:
 1216 037c 00000000 		.word	lwip_stats
 1217 0380 00000000 		.word	.LANCHOR1
 1218 0384 00000000 		.word	.LANCHOR0
 1219              	.LBE26:
 1220              	.LBE33:
 1221              		.cfi_endproc
 1222              	.LFE13:
 1223              		.size	ip_reass, .-ip_reass
 1224 0388 AFF30080 		.section	.text.ip_frag,"ax",%progbits
 1224      AFF30080 
 1225              		.align	2
 1226              		.p2align 4,,15
 1227              		.global	ip_frag
 1228              		.thumb
 1229              		.thumb_func
 1230              		.type	ip_frag, %function
 1231              	ip_frag:
 1232              	.LFB17:
 1233              		.loc 1 668 0
 1234              		.cfi_startproc
 1235              		@ args = 0, pretend = 0, frame = 48
 1236              		@ frame_needed = 0, uses_anonymous_args = 0
 1237              	.LVL158:
 1238 0000 2DE9F04F 		push	{r4, r5, r6, r7, r8, r9, sl, fp, lr}
 1239              	.LCFI8:
 1240              		.cfi_def_cfa_offset 36
 1241              		.cfi_offset 4, -36
 1242              		.cfi_offset 5, -32
 1243              		.cfi_offset 6, -28
 1244              		.cfi_offset 7, -24
 1245              		.cfi_offset 8, -20
 1246              		.cfi_offset 9, -16
 1247              		.cfi_offset 10, -12
 1248              		.cfi_offset 11, -8
 1249              		.cfi_offset 14, -4
 1250 0004 8FB0     		sub	sp, sp, #60
ARM GAS  /tmp/ccjGCxKu.s 			page 23


 1251              	.LCFI9:
 1252              		.cfi_def_cfa_offset 96
 1253              		.loc 1 709 0
 1254 0006 D0F80490 		ldr	r9, [r0, #4]
 1255              		.loc 1 668 0
 1256 000a 0891     		str	r1, [sp, #32]
 1257 000c 0446     		mov	r4, r0
 1258              		.loc 1 714 0
 1259 000e B9F80600 		ldrh	r0, [r9, #6]	@ unaligned
 1260              	.LVL159:
 1261              		.loc 1 681 0
 1262 0012 0E8C     		ldrh	r6, [r1, #32]
 1263              	.LVL160:
 1264              		.loc 1 668 0
 1265 0014 0C92     		str	r2, [sp, #48]
 1266              		.loc 1 714 0
 1267 0016 FFF7FEFF 		bl	lwip_ntohs
 1268              	.LVL161:
 1269              		.loc 1 718 0
 1270 001a 2289     		ldrh	r2, [r4, #8]
 1271              		.loc 1 720 0
 1272 001c A6F10D01 		sub	r1, r6, #13
 1273              		.loc 1 718 0
 1274 0020 143A     		subs	r2, r2, #20
 1275              		.loc 1 720 0
 1276 0022 B6F11403 		subs	r3, r6, #20
 1277              		.loc 1 715 0
 1278 0026 4FEAC045 		lsl	r5, r0, #19
 1279              		.loc 1 720 0
 1280 002a 48BF     		it	mi
 1281 002c 0B46     		movmi	r3, r1
 1282              		.loc 1 716 0
 1283 002e 00F40050 		and	r0, r0, #8192
 1284              	.LVL162:
 1285              		.loc 1 718 0
 1286 0032 92B2     		uxth	r2, r2
 1287              		.loc 1 715 0
 1288 0034 ED0C     		lsrs	r5, r5, #19
 1289              		.loc 1 716 0
 1290 0036 80B2     		uxth	r0, r0
 1291              		.loc 1 720 0
 1292 0038 C3F3CF03 		ubfx	r3, r3, #3, #16
 1293              		.loc 1 718 0
 1294 003c 0592     		str	r2, [sp, #20]
 1295              		.loc 1 715 0
 1296 003e 0695     		str	r5, [sp, #24]
 1297              	.LVL163:
 1298              		.loc 1 716 0
 1299 0040 0A90     		str	r0, [sp, #40]
 1300              	.LVL164:
 1301              		.loc 1 720 0
 1302 0042 0993     		str	r3, [sp, #36]
 1303              	.LVL165:
 1304              		.loc 1 722 0
 1305 0044 002A     		cmp	r2, #0
 1306 0046 00F0A980 		beq	.L154
 1307              		.loc 1 732 0
ARM GAS  /tmp/ccjGCxKu.s 			page 24


 1308 004a 099F     		ldr	r7, [sp, #36]
 1309              	.LBB39:
 1310              		.loc 1 795 0
 1311 004c DFF88081 		ldr	r8, .L169
 1312              	.LBE39:
 1313              		.loc 1 732 0
 1314 0050 FB00     		lsls	r3, r7, #3
 1315 0052 133E     		subs	r6, r6, #19
 1316              	.LVL166:
 1317 0054 9BB2     		uxth	r3, r3
 1318 0056 0B96     		str	r6, [sp, #44]
 1319              		.loc 1 687 0
 1320 0058 0025     		movs	r5, #0
 1321              		.loc 1 732 0
 1322 005a 0D93     		str	r3, [sp, #52]
 1323              		.loc 1 684 0
 1324 005c 1426     		movs	r6, #20
 1325              	.LVL167:
 1326              	.L153:
 1327              		.loc 1 726 0
 1328 005e 069F     		ldr	r7, [sp, #24]
 1329              		.loc 1 727 0
 1330 0060 0B98     		ldr	r0, [sp, #44]
 1331              		.loc 1 726 0
 1332 0062 FB04     		lsls	r3, r7, #19
 1333 0064 0A9F     		ldr	r7, [sp, #40]
 1334 0066 DB0C     		lsrs	r3, r3, #19
 1335 0068 3B43     		orrs	r3, r3, r7
 1336              		.loc 1 727 0
 1337 006a 059F     		ldr	r7, [sp, #20]
 1338              		.loc 1 726 0
 1339 006c 0793     		str	r3, [sp, #28]
 1340              	.LVL168:
 1341              		.loc 1 727 0
 1342 006e 8742     		cmp	r7, r0
 1343              		.loc 1 732 0
 1344 0070 A9BF     		itett	ge
 1345 0072 0D9F     		ldrge	r7, [sp, #52]
 1346              		.loc 1 727 0
 1347 0074 059F     		ldrlt	r7, [sp, #20]
 1348              		.loc 1 728 0
 1349 0076 43F40053 		orrge	r3, r3, #8192
 1350 007a 0793     		strge	r3, [sp, #28]
 1351              	.LVL169:
 1352              		.loc 1 759 0
 1353 007c 0220     		movs	r0, #2
 1354 007e 1421     		movs	r1, #20
 1355 0080 0022     		movs	r2, #0
 1356              		.loc 1 727 0
 1357 0082 0497     		str	r7, [sp, #16]
 1358              		.loc 1 759 0
 1359 0084 FFF7FEFF 		bl	pbuf_alloc
 1360              	.LVL170:
 1361              		.loc 1 760 0
 1362 0088 0746     		mov	r7, r0
 1363 008a 0028     		cmp	r0, #0
 1364 008c 00F09E80 		beq	.L156
ARM GAS  /tmp/ccjGCxKu.s 			page 25


 1365              		.loc 1 763 0
 1366 0090 6389     		ldrh	r3, [r4, #10]
 1367 0092 132B     		cmp	r3, #19
 1368 0094 40F28480 		bls	.L166
 1369              	.LVL171:
 1370              	.L146:
 1371              		.loc 1 765 0
 1372 0098 D9F80020 		ldr	r2, [r9, #0]	@ unaligned
 1373 009c D9F80800 		ldr	r0, [r9, #8]	@ unaligned
 1374 00a0 D9F80C10 		ldr	r1, [r9, #12]	@ unaligned
 1375 00a4 D9F804E0 		ldr	lr, [r9, #4]	@ unaligned
 1376 00a8 7B68     		ldr	r3, [r7, #4]
 1377 00aa 1A60     		str	r2, [r3, #0]	@ unaligned
 1378 00ac C3F804E0 		str	lr, [r3, #4]	@ unaligned
 1379 00b0 9860     		str	r0, [r3, #8]	@ unaligned
 1380 00b2 D960     		str	r1, [r3, #12]	@ unaligned
 1381 00b4 D9F81020 		ldr	r2, [r9, #16]	@ unaligned
 1382 00b8 1A61     		str	r2, [r3, #16]	@ unaligned
 1383              		.loc 1 770 0
 1384 00ba 6389     		ldrh	r3, [r4, #10]
 1385              		.loc 1 769 0
 1386 00bc 6268     		ldr	r2, [r4, #4]
 1387              		.loc 1 766 0
 1388 00be 7868     		ldr	r0, [r7, #4]
 1389              		.loc 1 773 0
 1390 00c0 0499     		ldr	r1, [sp, #16]
 1391              		.loc 1 766 0
 1392 00c2 0390     		str	r0, [sp, #12]
 1393              	.LVL172:
 1394              		.loc 1 770 0
 1395 00c4 9B1B     		subs	r3, r3, r6
 1396              		.loc 1 769 0
 1397 00c6 9219     		adds	r2, r2, r6
 1398              		.loc 1 770 0
 1399 00c8 9BB2     		uxth	r3, r3
 1400              		.loc 1 769 0
 1401 00ca 6260     		str	r2, [r4, #4]
 1402              		.loc 1 770 0
 1403 00cc 6381     		strh	r3, [r4, #10]	@ movhi
 1404              	.LVL173:
 1405              		.loc 1 773 0
 1406 00ce 0029     		cmp	r1, #0
 1407 00d0 2FD0     		beq	.L147
 1408 00d2 0E46     		mov	r6, r1
 1409 00d4 1D46     		mov	r5, r3
 1410              	.LVL174:
 1411 00d6 0297     		str	r7, [sp, #8]
 1412 00d8 01E0     		b	.L148
 1413              	.LVL175:
 1414              	.L165:
 1415              	.LBB44:
 1416              		.loc 1 803 0
 1417 00da 2468     		ldr	r4, [r4, #0]
 1418              	.LVL176:
 1419 00dc 6589     		ldrh	r5, [r4, #10]
 1420              	.LVL177:
 1421              	.L148:
ARM GAS  /tmp/ccjGCxKu.s 			page 26


 1422              		.loc 1 775 0
 1423 00de B542     		cmp	r5, r6
 1424 00e0 28BF     		it	cs
 1425 00e2 3546     		movcs	r5, r6
 1426 00e4 ADB2     		uxth	r5, r5
 1427              	.LVL178:
 1428              		.loc 1 777 0
 1429 00e6 002D     		cmp	r5, #0
 1430 00e8 F7D0     		beq	.L165
 1431              	.LBB40:
 1432              	.LBB41:
 1433              		.loc 1 626 0
 1434 00ea 0620     		movs	r0, #6
 1435 00ec FFF7FEFF 		bl	memp_malloc
 1436              	.LVL179:
 1437              	.LBE41:
 1438              	.LBE40:
 1439              		.loc 1 782 0
 1440 00f0 8346     		mov	fp, r0
 1441              		.loc 1 787 0
 1442 00f2 0346     		mov	r3, r0
 1443 00f4 2946     		mov	r1, r5
 1444 00f6 0222     		movs	r2, #2
 1445 00f8 0320     		movs	r0, #3
 1446              		.loc 1 782 0
 1447 00fa BBF1000F 		cmp	fp, #0
 1448 00fe 52D0     		beq	.L167
 1449              		.loc 1 787 0
 1450 0100 6768     		ldr	r7, [r4, #4]
 1451 0102 0195     		str	r5, [sp, #4]
 1452 0104 0097     		str	r7, [sp, #0]
 1453 0106 FFF7FEFF 		bl	pbuf_alloced_custom
 1454              	.LVL180:
 1455              		.loc 1 788 0
 1456 010a 8246     		mov	sl, r0
 1457              		.loc 1 793 0
 1458 010c 2046     		mov	r0, r4
 1459              	.LVL181:
 1460              		.loc 1 788 0
 1461 010e BAF1000F 		cmp	sl, #0
 1462 0112 51D0     		beq	.L168
 1463              	.LVL182:
 1464              		.loc 1 801 0
 1465 0114 761B     		subs	r6, r6, r5
 1466              		.loc 1 793 0
 1467 0116 FFF7FEFF 		bl	pbuf_ref
 1468              	.LVL183:
 1469              		.loc 1 801 0
 1470 011a B6B2     		uxth	r6, r6
 1471              		.loc 1 794 0
 1472 011c CBF81440 		str	r4, [fp, #20]
 1473              		.loc 1 795 0
 1474 0120 CBF81080 		str	r8, [fp, #16]
 1475              		.loc 1 800 0
 1476 0124 0298     		ldr	r0, [sp, #8]
 1477 0126 5146     		mov	r1, sl
 1478 0128 FFF7FEFF 		bl	pbuf_cat
ARM GAS  /tmp/ccjGCxKu.s 			page 27


 1479              	.LVL184:
 1480              		.loc 1 802 0
 1481 012c 002E     		cmp	r6, #0
 1482 012e D4D1     		bne	.L165
 1483 0130 029F     		ldr	r7, [sp, #8]
 1484              	.LVL185:
 1485              	.L147:
 1486              	.LBE44:
 1487              		.loc 1 811 0
 1488 0132 0798     		ldr	r0, [sp, #28]
 1489 0134 FFF7FEFF 		bl	lwip_htons
 1490              	.LVL186:
 1491              		.loc 1 812 0
 1492 0138 0499     		ldr	r1, [sp, #16]
 1493              		.loc 1 811 0
 1494 013a 039A     		ldr	r2, [sp, #12]
 1495              		.loc 1 812 0
 1496 013c 01F11403 		add	r3, r1, #20
 1497              		.loc 1 811 0
 1498 0140 D080     		strh	r0, [r2, #6]	@ unaligned
 1499              		.loc 1 812 0
 1500 0142 98B2     		uxth	r0, r3
 1501 0144 FFF7FEFF 		bl	lwip_htons
 1502              	.LVL187:
 1503 0148 039B     		ldr	r3, [sp, #12]
 1504 014a 5880     		strh	r0, [r3, #2]	@ unaligned
 1505              		.loc 1 813 0
 1506 014c 0020     		movs	r0, #0
 1507 014e 9872     		strb	r0, [r3, #10]
 1508 0150 D872     		strb	r0, [r3, #11]
 1509              		.loc 1 814 0
 1510 0152 1421     		movs	r1, #20
 1511 0154 0398     		ldr	r0, [sp, #12]
 1512 0156 FFF7FEFF 		bl	inet_chksum
 1513              	.LVL188:
 1514 015a 0399     		ldr	r1, [sp, #12]
 1515 015c 4881     		strh	r0, [r1, #10]	@ unaligned
 1516              		.loc 1 842 0
 1517 015e 0898     		ldr	r0, [sp, #32]
 1518 0160 0C9A     		ldr	r2, [sp, #48]
 1519 0162 4369     		ldr	r3, [r0, #20]
 1520 0164 3946     		mov	r1, r7
 1521 0166 9847     		blx	r3
 1522              	.LVL189:
 1523              		.loc 1 843 0
 1524 0168 40F20001 		movw	r1, #:lower16:lwip_stats
 1525 016c C0F20001 		movt	r1, #:upper16:lwip_stats
 1526              		.loc 1 852 0
 1527 0170 3846     		mov	r0, r7
 1528              		.loc 1 843 0
 1529 0172 0B8E     		ldrh	r3, [r1, #48]
 1530 0174 0133     		adds	r3, r3, #1
 1531 0176 0B86     		strh	r3, [r1, #48]	@ movhi
 1532              		.loc 1 852 0
 1533 0178 FFF7FEFF 		bl	pbuf_free
 1534              	.LVL190:
 1535              		.loc 1 854 0
ARM GAS  /tmp/ccjGCxKu.s 			page 28


 1536 017c 059F     		ldr	r7, [sp, #20]
 1537 017e 0498     		ldr	r0, [sp, #16]
 1538 0180 C0EB070B 		rsb	fp, r0, r7
 1539              		.loc 1 855 0
 1540 0184 069F     		ldr	r7, [sp, #24]
 1541 0186 0998     		ldr	r0, [sp, #36]
 1542 0188 3B18     		adds	r3, r7, r0
 1543 018a 9BB2     		uxth	r3, r3
 1544              		.loc 1 854 0
 1545 018c 1FFA8BF7 		uxth	r7, fp
 1546 0190 0597     		str	r7, [sp, #20]
 1547              		.loc 1 855 0
 1548 0192 0693     		str	r3, [sp, #24]
 1549              	.LVL191:
 1550 0194 2E46     		mov	r6, r5
 1551              		.loc 1 722 0
 1552 0196 002F     		cmp	r7, #0
 1553 0198 7FF461AF 		bne	.L153
 1554              	.LVL192:
 1555              	.L154:
 1556              	.LBB45:
 1557              		.loc 1 861 0
 1558 019c 0020     		movs	r0, #0
 1559 019e 07E0     		b	.L144
 1560              	.LVL193:
 1561              	.L166:
 1562              	.LBE45:
 1563              		.loc 1 763 0 discriminator 1
 1564 01a0 FFF7FEFF 		bl	port_halt
 1565              	.LVL194:
 1566 01a4 78E7     		b	.L146
 1567              	.LVL195:
 1568              	.L167:
 1569 01a6 029F     		ldr	r7, [sp, #8]
 1570              	.LBB46:
 1571              		.loc 1 783 0
 1572 01a8 3846     		mov	r0, r7
 1573 01aa FFF7FEFF 		bl	pbuf_free
 1574              	.LVL196:
 1575              		.loc 1 784 0
 1576 01ae FF20     		movs	r0, #255
 1577              	.LVL197:
 1578              	.L144:
 1579              	.LBE46:
 1580              		.loc 1 862 0
 1581 01b0 40B2     		sxtb	r0, r0
 1582 01b2 0FB0     		add	sp, sp, #60
 1583 01b4 BDE8F08F 		pop	{r4, r5, r6, r7, r8, r9, sl, fp, pc}
 1584              	.LVL198:
 1585              	.L168:
 1586 01b8 029F     		ldr	r7, [sp, #8]
 1587              	.LVL199:
 1588              	.LBB47:
 1589              	.LBB42:
 1590              	.LBB43:
 1591              		.loc 1 634 0
 1592 01ba 5946     		mov	r1, fp
ARM GAS  /tmp/ccjGCxKu.s 			page 29


 1593 01bc 0620     		movs	r0, #6
 1594              	.LVL200:
 1595 01be FFF7FEFF 		bl	memp_free
 1596              	.LVL201:
 1597              	.LBE43:
 1598              	.LBE42:
 1599              		.loc 1 790 0
 1600 01c2 3846     		mov	r0, r7
 1601 01c4 FFF7FEFF 		bl	pbuf_free
 1602              	.LVL202:
 1603              		.loc 1 791 0
 1604 01c8 FF20     		movs	r0, #255
 1605 01ca F1E7     		b	.L144
 1606              	.LVL203:
 1607              	.L156:
 1608              	.LBE47:
 1609              		.loc 1 761 0
 1610 01cc FF20     		movs	r0, #255
 1611              	.LVL204:
 1612 01ce EFE7     		b	.L144
 1613              	.L170:
 1614              		.align	2
 1615              	.L169:
 1616 01d0 00000000 		.word	ipfrag_free_pbuf_custom
 1617              		.cfi_endproc
 1618              	.LFE17:
 1619              		.size	ip_frag, .-ip_frag
 1620 01d4 AFF30080 		.section	.bss.reassdatagrams,"aw",%nobits
 1620      AFF30080 
 1620      AFF30080 
 1621              		.align	2
 1622              		.set	.LANCHOR0,. + 0
 1623              		.type	reassdatagrams, %object
 1624              		.size	reassdatagrams, 4
 1625              	reassdatagrams:
 1626 0000 00000000 		.space	4
 1627              		.section	.bss.ip_reass_pbufcount,"aw",%nobits
 1628              		.align	1
 1629              		.set	.LANCHOR1,. + 0
 1630              		.type	ip_reass_pbufcount, %object
 1631              		.size	ip_reass_pbufcount, 2
 1632              	ip_reass_pbufcount:
 1633 0000 0000     		.space	2
 1634              		.text
 1635              	.Letext0:
 1636              		.file 2 "/opt/psas/x-tools/stm32f407/arm-psas-eabi/bin/../lib/gcc/arm-psas-eabi/4.7.2/../../../../
 1637              		.file 3 "../../os/various/lwip_bindings/arch/cc.h"
 1638              		.file 4 "../../ext/lwip/src/include/lwip/err.h"
 1639              		.file 5 "../../ext/lwip/src/include/lwip/pbuf.h"
 1640              		.file 6 "../../ext/lwip/src/include/ipv4/lwip/ip_addr.h"
 1641              		.file 7 "../../ext/lwip/src/include/lwip/netif.h"
 1642              		.file 8 "../../ext/lwip/src/include/ipv4/lwip/ip.h"
 1643              		.file 9 "../../ext/lwip/src/include/ipv4/lwip/ip_frag.h"
 1644              		.file 10 "../../ext/lwip/src/include/lwip/mem.h"
 1645              		.file 11 "../../ext/lwip/src/include/lwip/memp.h"
 1646              		.file 12 "../../ext/lwip/src/include/lwip/stats.h"
 1647              		.file 13 "../../ext/lwip/src/include/ipv4/lwip/icmp.h"
ARM GAS  /tmp/ccjGCxKu.s 			page 30


 1648              		.file 14 "../../ext/lwip/src/include/lwip/def.h"
 1649              		.file 15 "../../ext/lwip/src/include/ipv4/lwip/inet_chksum.h"
 1650              		.file 16 "../../os/ports/GCC/ARMCMx/chcore_v7m.h"