ARM GAS  /tmp/ccBwbhRg.s 			page 1


   1              		.syntax unified
   2              		.cpu cortex-m4
   3              		.eabi_attribute 27, 3
   4              		.eabi_attribute 28, 1
   5              		.fpu fpv4-sp-d16
   6              		.eabi_attribute 20, 1
   7              		.eabi_attribute 21, 1
   8              		.eabi_attribute 23, 3
   9              		.eabi_attribute 24, 1
  10              		.eabi_attribute 25, 1
  11              		.eabi_attribute 26, 1
  12              		.eabi_attribute 30, 2
  13              		.eabi_attribute 34, 1
  14              		.eabi_attribute 18, 4
  15              		.thumb
  16              		.file	"lwipthread.c"
  17              		.text
  18              	.Ltext0:
  19              		.cfi_sections	.debug_frame
  20              		.section	.text.ethernetif_init,"ax",%progbits
  21              		.align	2
  22              		.p2align 4,,15
  23              		.thumb
  24              		.thumb_func
  25              		.type	ethernetif_init, %function
  26              	ethernetif_init:
  27              	.LFB121:
  28              		.file 1 "../../os/various/lwip_bindings/lwipthread.c"
  29              		.loc 1 183 0
  30              		.cfi_startproc
  31              		@ args = 0, pretend = 0, frame = 0
  32              		@ frame_needed = 0, uses_anonymous_args = 0
  33              		@ link register save eliminated.
  34              	.LVL0:
  35              		.loc 1 183 0
  36 0000 0346     		mov	r3, r0
  37              		.loc 1 197 0
  38 0002 6D22     		movs	r2, #109
  39 0004 83F82A20 		strb	r2, [r3, #42]
  40              		.loc 1 198 0
  41 0008 7322     		movs	r2, #115
  42 000a 83F82B20 		strb	r2, [r3, #43]
  43              		.loc 1 203 0
  44 000e 40F20002 		movw	r2, #:lower16:etharp_output
  45 0012 C0F20002 		movt	r2, #:upper16:etharp_output
  46 0016 5A61     		str	r2, [r3, #20]
  47              		.loc 1 204 0
  48 0018 40F20002 		movw	r2, #:lower16:low_level_output
  49 001c C0F20002 		movt	r2, #:upper16:low_level_output
  50 0020 9A61     		str	r2, [r3, #24]
  51              	.LVL1:
  52              	.LBB4:
  53              	.LBB5:
  54              		.loc 1 93 0
  55 0022 0622     		movs	r2, #6
  56 0024 83F82220 		strb	r2, [r3, #34]
  57              		.loc 1 96 0
ARM GAS  /tmp/ccBwbhRg.s 			page 2


  58 0028 40F2DC52 		movw	r2, #1500
  59              	.LBE5:
  60              	.LBE4:
  61              		.loc 1 196 0
  62 002c 0020     		movs	r0, #0
  63              	.LVL2:
  64              	.LBB8:
  65              	.LBB6:
  66              		.loc 1 96 0
  67 002e 1A84     		strh	r2, [r3, #32]	@ movhi
  68              		.loc 1 100 0
  69 0030 3222     		movs	r2, #50
  70              	.LBE6:
  71              	.LBE8:
  72              		.loc 1 196 0
  73 0032 D861     		str	r0, [r3, #28]
  74              	.LBB9:
  75              	.LBB7:
  76              		.loc 1 100 0
  77 0034 83F82920 		strb	r2, [r3, #41]
  78              	.LBE7:
  79              	.LBE9:
  80              		.loc 1 210 0
  81 0038 7047     		bx	lr
  82              		.cfi_endproc
  83              	.LFE121:
  84              		.size	ethernetif_init, .-ethernetif_init
  85 003a 00BFAFF3 		.section	.text.low_level_output,"ax",%progbits
  85      0080
  86              		.align	2
  87              		.p2align 4,,15
  88              		.thumb
  89              		.thumb_func
  90              		.type	low_level_output, %function
  91              	low_level_output:
  92              	.LFB119:
  93              		.loc 1 108 0
  94              		.cfi_startproc
  95              		@ args = 0, pretend = 0, frame = 16
  96              		@ frame_needed = 0, uses_anonymous_args = 0
  97              	.LVL3:
  98 0000 10B5     		push	{r4, lr}
  99              	.LCFI0:
 100              		.cfi_def_cfa_offset 8
 101              		.cfi_offset 4, -8
 102              		.cfi_offset 14, -4
 103 0002 84B0     		sub	sp, sp, #16
 104              	.LCFI1:
 105              		.cfi_def_cfa_offset 24
 106              		.loc 1 108 0
 107 0004 0C46     		mov	r4, r1
 108              		.loc 1 113 0
 109 0006 0E48     		ldr	r0, .L12
 110              	.LVL4:
 111 0008 01A9     		add	r1, sp, #4
 112              	.LVL5:
 113 000a 3222     		movs	r2, #50
ARM GAS  /tmp/ccBwbhRg.s 			page 3


 114 000c FFF7FEFF 		bl	macWaitTransmitDescriptor
 115              	.LVL6:
 116 0010 98B9     		cbnz	r0, .L7
 117              	.LVL7:
 118              		.loc 1 121 0 discriminator 2
 119 0012 3CB1     		cbz	r4, .L11
 120              	.LVL8:
 121              	.L5:
 122              		.loc 1 122 0 discriminator 2
 123 0014 6168     		ldr	r1, [r4, #4]
 124 0016 6289     		ldrh	r2, [r4, #10]
 125 0018 01A8     		add	r0, sp, #4
 126 001a FFF7FEFF 		bl	mac_lld_write_transmit_descriptor
 127              	.LVL9:
 128              		.loc 1 121 0 discriminator 2
 129 001e 2468     		ldr	r4, [r4, #0]
 130              	.LVL10:
 131 0020 002C     		cmp	r4, #0
 132 0022 F7D1     		bne	.L5
 133              	.L11:
 134              		.loc 1 123 0
 135 0024 01A8     		add	r0, sp, #4
 136 0026 FFF7FEFF 		bl	macReleaseTransmitDescriptor
 137              	.LVL11:
 138              		.loc 1 129 0
 139 002a 064B     		ldr	r3, .L12+4
 140 002c 1A88     		ldrh	r2, [r3, #0]
 141 002e 0132     		adds	r2, r2, #1
 142 0030 1A80     		strh	r2, [r3, #0]	@ movhi
 143              		.loc 1 131 0
 144 0032 0020     		movs	r0, #0
 145              	.LVL12:
 146              	.L3:
 147              		.loc 1 132 0
 148 0034 40B2     		sxtb	r0, r0
 149 0036 04B0     		add	sp, sp, #16
 150 0038 10BD     		pop	{r4, pc}
 151              	.LVL13:
 152              	.L7:
 153              		.loc 1 114 0
 154 003a FD20     		movs	r0, #253
 155 003c FAE7     		b	.L3
 156              	.L13:
 157 003e 00BF     		.align	2
 158              	.L12:
 159 0040 00000000 		.word	ETHD1
 160 0044 00000000 		.word	lwip_stats
 161              		.cfi_endproc
 162              	.LFE119:
 163              		.size	low_level_output, .-low_level_output
 164 0048 AFF30080 		.section	.text.lwip_thread,"ax",%progbits
 164      AFF30080 
 165              		.align	2
 166              		.p2align 4,,15
 167              		.global	lwip_thread
 168              		.thumb
 169              		.thumb_func
ARM GAS  /tmp/ccBwbhRg.s 			page 4


 170              		.type	lwip_thread, %function
 171              	lwip_thread:
 172              	.LFB122:
 173              		.loc 1 218 0
 174              		.cfi_startproc
 175              		@ args = 0, pretend = 0, frame = 88
 176              		@ frame_needed = 0, uses_anonymous_args = 0
 177              	.LVL14:
 178 0000 2DE9F041 		push	{r4, r5, r6, r7, r8, lr}
 179              	.LCFI2:
 180              		.cfi_def_cfa_offset 24
 181              		.cfi_offset 4, -24
 182              		.cfi_offset 5, -20
 183              		.cfi_offset 6, -16
 184              		.cfi_offset 7, -12
 185              		.cfi_offset 8, -8
 186              		.cfi_offset 14, -4
 187              		.loc 1 225 0
 188 0004 684B     		ldr	r3, .L47
 189 0006 694A     		ldr	r2, .L47+4
 190 0008 9B69     		ldr	r3, [r3, #24]
 191 000a 694E     		ldr	r6, .L47+8
 192 000c 9A61     		str	r2, [r3, #24]
 193              		.loc 1 218 0
 194 000e 9AB0     		sub	sp, sp, #104
 195              	.LCFI3:
 196              		.cfi_def_cfa_offset 128
 197              		.loc 1 218 0
 198 0010 0446     		mov	r4, r0
 199              		.loc 1 228 0
 200 0012 FFF7FEFF 		bl	sys_init
 201              	.LVL15:
 202              		.loc 1 229 0
 203 0016 FFF7FEFF 		bl	mem_init
 204              	.LVL16:
 205              		.loc 1 230 0
 206 001a FFF7FEFF 		bl	memp_init
 207              	.LVL17:
 208              		.loc 1 232 0
 209 001e FFF7FEFF 		bl	netif_init
 210              	.LVL18:
 211              		.loc 1 234 0
 212 0022 0020     		movs	r0, #0
 213 0024 0146     		mov	r1, r0
 214 0026 FFF7FEFF 		bl	tcpip_init
 215              	.LVL19:
 216              		.loc 1 237 0
 217 002a 7CB1     		cbz	r4, .L15
 218 002c 0023     		movs	r3, #0
 219              	.L16:
 220              	.LBB17:
 221              		.loc 1 242 0 discriminator 2
 222 002e 2268     		ldr	r2, [r4, #0]
 223              		.loc 1 218 0 discriminator 2
 224 0030 F118     		adds	r1, r6, r3
 225              		.loc 1 242 0 discriminator 2
 226 0032 D25C     		ldrb	r2, [r2, r3]	@ zero_extendqisi2
ARM GAS  /tmp/ccBwbhRg.s 			page 5


 227              		.loc 1 241 0 discriminator 2
 228 0034 0133     		adds	r3, r3, #1
 229              	.LVL20:
 230 0036 062B     		cmp	r3, #6
 231              		.loc 1 242 0 discriminator 2
 232 0038 81F82320 		strb	r2, [r1, #35]
 233              		.loc 1 241 0 discriminator 2
 234 003c F7D1     		bne	.L16
 235              		.loc 1 243 0
 236 003e 6168     		ldr	r1, [r4, #4]
 237              		.loc 1 244 0
 238 0040 E268     		ldr	r2, [r4, #12]
 239              		.loc 1 245 0
 240 0042 A368     		ldr	r3, [r4, #8]
 241              	.LVL21:
 242              		.loc 1 243 0
 243 0044 0591     		str	r1, [sp, #20]
 244              		.loc 1 244 0
 245 0046 0692     		str	r2, [sp, #24]
 246              		.loc 1 245 0
 247 0048 0793     		str	r3, [sp, #28]
 248 004a 1DE0     		b	.L17
 249              	.L15:
 250              	.LBE17:
 251              		.loc 1 248 0
 252 004c C221     		movs	r1, #194
 253 004e 86F82310 		strb	r1, [r6, #35]
 254              		.loc 1 249 0
 255 0052 AF21     		movs	r1, #175
 256              		.loc 1 254 0
 257 0054 4AF6C002 		movw	r2, #43200
 258              		.loc 1 249 0
 259 0058 86F82410 		strb	r1, [r6, #36]
 260              		.loc 1 250 0
 261 005c 5121     		movs	r1, #81
 262              		.loc 1 255 0
 263 005e 1346     		mov	r3, r2
 264              		.loc 1 250 0
 265 0060 86F82510 		strb	r1, [r6, #37]
 266              		.loc 1 251 0
 267 0064 0321     		movs	r1, #3
 268              		.loc 1 255 0
 269 0066 C0F20113 		movt	r3, 257
 270              		.loc 1 251 0
 271 006a 86F82610 		strb	r1, [r6, #38]
 272              		.loc 1 252 0
 273 006e CF21     		movs	r1, #207
 274              		.loc 1 254 0
 275 0070 C1F20142 		movt	r2, 5121
 276              		.loc 1 252 0
 277 0074 86F82710 		strb	r1, [r6, #39]
 278              		.loc 1 255 0
 279 0078 0693     		str	r3, [sp, #24]
 280              		.loc 1 253 0
 281 007a 4621     		movs	r1, #70
 282              		.loc 1 256 0
 283 007c 6FF07F43 		mvn	r3, #-16777216
ARM GAS  /tmp/ccBwbhRg.s 			page 6


 284              		.loc 1 253 0
 285 0080 86F82810 		strb	r1, [r6, #40]
 286              		.loc 1 254 0
 287 0084 0592     		str	r2, [sp, #20]
 288              		.loc 1 256 0
 289 0086 0793     		str	r3, [sp, #28]
 290              	.L17:
 291              		.loc 1 258 0
 292 0088 4A48     		ldr	r0, .L47+12
 293 008a 4B49     		ldr	r1, .L47+16
 294 008c 4B4F     		ldr	r7, .L47+20
 295 008e FFF7FEFF 		bl	macStart
 296              	.LVL22:
 297              		.loc 1 259 0
 298 0092 4B4B     		ldr	r3, .L47+24
 299 0094 4B48     		ldr	r0, .L47+28
 300 0096 0193     		str	r3, [sp, #4]
 301 0098 0024     		movs	r4, #0
 302              	.LVL23:
 303 009a 05A9     		add	r1, sp, #20
 304 009c 07AA     		add	r2, sp, #28
 305 009e 06AB     		add	r3, sp, #24
 306 00a0 0290     		str	r0, [sp, #8]
 307 00a2 0094     		str	r4, [sp, #0]
 308 00a4 4248     		ldr	r0, .L47+8
 309 00a6 FFF7FEFF 		bl	netif_add
 310              	.LVL24:
 311              		.loc 1 261 0
 312 00aa 4148     		ldr	r0, .L47+8
 313 00ac FFF7FEFF 		bl	netif_set_default
 314              	.LVL25:
 315              		.loc 1 262 0
 316 00b0 3F48     		ldr	r0, .L47+8
 317 00b2 FFF7FEFF 		bl	netif_set_up
 318              	.LVL26:
 319              		.loc 1 265 0
 320 00b6 18AD     		add	r5, sp, #96
 321 00b8 41F28833 		movw	r3, #5000
 322              		.loc 1 266 0
 323 00bc 13A8     		add	r0, sp, #76
 324              		.loc 1 265 0
 325 00be 1993     		str	r3, [sp, #100]
 326 00c0 1895     		str	r5, [sp, #96]
 327 00c2 1694     		str	r4, [sp, #88]
 328              		.loc 1 266 0
 329 00c4 FFF7FEFF 		bl	evtStart
 330              	.LVL27:
 331              		.loc 1 267 0
 332 00c8 2846     		mov	r0, r5
 333 00ca 0BA9     		add	r1, sp, #44
 334 00cc 0122     		movs	r2, #1
 335 00ce FFF7FEFF 		bl	chEvtRegisterMask
 336              	.LVL28:
 337              		.loc 1 268 0
 338 00d2 0FA9     		add	r1, sp, #60
 339 00d4 0222     		movs	r2, #2
 340 00d6 3C48     		ldr	r0, .L47+32
ARM GAS  /tmp/ccBwbhRg.s 			page 7


 341 00d8 FFF7FEFF 		bl	chEvtRegisterMask
 342              	.LVL29:
 343              		.loc 1 269 0
 344 00dc 0320     		movs	r0, #3
 345 00de FFF7FEFF 		bl	chEvtAddEvents
 346              	.LVL30:
 347              		.loc 1 272 0
 348 00e2 0220     		movs	r0, #2
 349 00e4 FFF7FEFF 		bl	chThdSetPriority
 350              	.LVL31:
 351 00e8 01E0     		b	.L45
 352              	.LVL32:
 353              	.L19:
 354              	.LBB18:
 355              		.loc 1 287 0
 356 00ea A307     		lsls	r3, r4, #30
 357 00ec 19D4     		bmi	.L46
 358              	.LVL33:
 359              	.L45:
 360              		.loc 1 275 0
 361 00ee 4FF0FF30 		mov	r0, #-1
 362 00f2 FFF7FEFF 		bl	chEvtWaitAny
 363              	.LVL34:
 364              		.loc 1 276 0
 365 00f6 C207     		lsls	r2, r0, #31
 366              		.loc 1 275 0
 367 00f8 0446     		mov	r4, r0
 368              	.LVL35:
 369              		.loc 1 276 0
 370 00fa F6D5     		bpl	.L19
 371              	.LBB19:
 372              		.loc 1 277 0
 373 00fc 2D48     		ldr	r0, .L47+12
 374              	.LVL36:
 375 00fe FFF7FEFF 		bl	macPollLinkStatus
 376              	.LVL37:
 377              		.loc 1 278 0
 378 0102 96F82930 		ldrb	r3, [r6, #41]	@ zero_extendqisi2
 379 0106 C3F30013 		ubfx	r3, r3, #4, #1
 380 010a 9842     		cmp	r0, r3
 381              		.loc 1 277 0
 382 010c 0246     		mov	r2, r0
 383              	.LVL38:
 384              		.loc 1 278 0
 385 010e ECD0     		beq	.L19
 386              		.loc 1 279 0
 387 0110 0028     		cmp	r0, #0
 388 0112 33D0     		beq	.L21
 389              		.loc 1 280 0
 390 0114 0022     		movs	r2, #0
 391 0116 2649     		ldr	r1, .L47+8
 392 0118 2C48     		ldr	r0, .L47+36
 393              	.LVL39:
 394 011a FFF7FEFF 		bl	tcpip_callback_with_block
 395              	.LVL40:
 396              	.LBE19:
 397              		.loc 1 287 0
ARM GAS  /tmp/ccBwbhRg.s 			page 8


 398 011e A307     		lsls	r3, r4, #30
 399 0120 E5D5     		bpl	.L45
 400              	.L46:
 401              	.LBB20:
 402              	.LBB21:
 403              		.loc 1 291 0 discriminator 1
 404 0122 40F60608 		movw	r8, #2054
 405              	.LVL41:
 406              	.L44:
 407              	.LBE21:
 408              	.LBB22:
 409              	.LBB23:
 410              		.loc 1 143 0 discriminator 1
 411 0126 2348     		ldr	r0, .L47+12
 412 0128 08A9     		add	r1, sp, #32
 413 012a 0022     		movs	r2, #0
 414 012c FFF7FEFF 		bl	macWaitReceiveDescriptor
 415              	.LVL42:
 416 0130 0028     		cmp	r0, #0
 417 0132 DCD1     		bne	.L45
 418              	.LVL43:
 419              		.loc 1 151 0
 420 0134 0320     		movs	r0, #3
 421 0136 BDF82410 		ldrh	r1, [sp, #36]
 422 013a 0246     		mov	r2, r0
 423 013c FFF7FEFF 		bl	pbuf_alloc
 424              	.LVL44:
 425              		.loc 1 153 0
 426 0140 0546     		mov	r5, r0
 427 0142 38B3     		cbz	r0, .L28
 428 0144 0446     		mov	r4, r0
 429              	.LVL45:
 430              	.L29:
 431              		.loc 1 161 0
 432 0146 6168     		ldr	r1, [r4, #4]
 433 0148 6289     		ldrh	r2, [r4, #10]
 434 014a 08A8     		add	r0, sp, #32
 435 014c FFF7FEFF 		bl	mac_lld_read_receive_descriptor
 436              	.LVL46:
 437              		.loc 1 160 0
 438 0150 2468     		ldr	r4, [r4, #0]
 439              	.LVL47:
 440 0152 002C     		cmp	r4, #0
 441 0154 F7D1     		bne	.L29
 442              		.loc 1 162 0
 443 0156 08A8     		add	r0, sp, #32
 444 0158 FFF7FEFF 		bl	macReleaseReceiveDescriptor
 445              	.LVL48:
 446              		.loc 1 168 0
 447 015c 7A88     		ldrh	r2, [r7, #2]
 448              	.LBE23:
 449              	.LBE22:
 450              	.LBB26:
 451              		.loc 1 291 0
 452 015e 6B68     		ldr	r3, [r5, #4]
 453              	.LBE26:
 454              	.LBB27:
ARM GAS  /tmp/ccBwbhRg.s 			page 9


 455              	.LBB24:
 456              		.loc 1 168 0
 457 0160 0132     		adds	r2, r2, #1
 458 0162 7A80     		strh	r2, [r7, #2]	@ movhi
 459              	.LVL49:
 460              	.LBE24:
 461              	.LBE27:
 462              	.LBB28:
 463              		.loc 1 291 0
 464 0164 9889     		ldrh	r0, [r3, #12]	@ unaligned
 465 0166 FFF7FEFF 		bl	lwip_htons
 466              	.LVL50:
 467 016a B0F5006F 		cmp	r0, #2048
 468 016e 0AD0     		beq	.L24
 469 0170 4045     		cmp	r0, r8
 470 0172 08D0     		beq	.L24
 471              	.L26:
 472              		.loc 1 305 0
 473 0174 2846     		mov	r0, r5
 474 0176 FFF7FEFF 		bl	pbuf_free
 475              	.LVL51:
 476 017a D4E7     		b	.L44
 477              	.LVL52:
 478              	.L21:
 479              	.LBE28:
 480              	.LBE20:
 481              	.LBB31:
 482              		.loc 1 283 0
 483 017c 0C49     		ldr	r1, .L47+8
 484 017e 1448     		ldr	r0, .L47+40
 485              	.LVL53:
 486 0180 FFF7FEFF 		bl	tcpip_callback_with_block
 487              	.LVL54:
 488 0184 B1E7     		b	.L19
 489              	.LVL55:
 490              	.L24:
 491              	.LBE31:
 492              	.LBB32:
 493              	.LBB29:
 494              		.loc 1 301 0
 495 0186 3369     		ldr	r3, [r6, #16]
 496 0188 0949     		ldr	r1, .L47+8
 497 018a 2846     		mov	r0, r5
 498 018c 9847     		blx	r3
 499              	.LVL56:
 500 018e 0028     		cmp	r0, #0
 501 0190 C9D0     		beq	.L44
 502 0192 EFE7     		b	.L26
 503              	.LVL57:
 504              	.L28:
 505              	.LBE29:
 506              	.LBB30:
 507              	.LBB25:
 508              		.loc 1 171 0
 509 0194 08A8     		add	r0, sp, #32
 510              	.LVL58:
 511 0196 FFF7FEFF 		bl	macReleaseReceiveDescriptor
ARM GAS  /tmp/ccBwbhRg.s 			page 10


 512              	.LVL59:
 513              		.loc 1 172 0
 514 019a BA89     		ldrh	r2, [r7, #12]
 515              		.loc 1 173 0
 516 019c FB88     		ldrh	r3, [r7, #6]
 517              		.loc 1 172 0
 518 019e 0132     		adds	r2, r2, #1
 519              		.loc 1 173 0
 520 01a0 0133     		adds	r3, r3, #1
 521              		.loc 1 172 0
 522 01a2 BA81     		strh	r2, [r7, #12]	@ movhi
 523              		.loc 1 173 0
 524 01a4 FB80     		strh	r3, [r7, #6]	@ movhi
 525 01a6 A2E7     		b	.L45
 526              	.L48:
 527              		.align	2
 528              	.L47:
 529 01a8 00000000 		.word	rlist
 530 01ac 00000000 		.word	.LC0
 531 01b0 00000000 		.word	.LANCHOR0
 532 01b4 00000000 		.word	ETHD1
 533 01b8 00000000 		.word	.LANCHOR1
 534 01bc 00000000 		.word	lwip_stats
 535 01c0 00000000 		.word	ethernetif_init
 536 01c4 00000000 		.word	tcpip_input
 537 01c8 20000000 		.word	ETHD1+32
 538 01cc 00000000 		.word	netif_set_link_up
 539 01d0 00000000 		.word	netif_set_link_down
 540              	.LBE25:
 541              	.LBE30:
 542              	.LBE32:
 543              	.LBE18:
 544              		.cfi_endproc
 545              	.LFE122:
 546              		.size	lwip_thread, .-lwip_thread
 547              		.global	wa_lwip_thread
 548 01d4 AFF30080 		.section	.rodata.mac_config.7837,"a",%progbits
 548      AFF30080 
 548      AFF30080 
 549              		.align	2
 550              		.set	.LANCHOR1,. + 0
 551              		.type	mac_config.7837, %object
 552              		.size	mac_config.7837, 4
 553              	mac_config.7837:
 554 0000 23000000 		.word	thisif.7836+35
 555              		.section	.rodata.str1.4,"aMS",%progbits,1
 556              		.align	2
 557              	.LC0:
 558 0000 6C776970 		.ascii	"lwipthread\000"
 558      74687265 
 558      616400
 559 000b 00       		.section	.bss.thisif.7836,"aw",%nobits
 560              		.align	2
 561              		.set	.LANCHOR0,. + 0
 562              		.type	thisif.7836, %object
 563              		.size	thisif.7836, 48
 564              	thisif.7836:
ARM GAS  /tmp/ccBwbhRg.s 			page 11


 565 0000 00000000 		.space	48
 565      00000000 
 565      00000000 
 565      00000000 
 565      00000000 
 566              		.section	.bss.wa_lwip_thread,"aw",%nobits
 567              		.align	3
 568              		.type	wa_lwip_thread, %object
 569              		.size	wa_lwip_thread, 688
 570              	wa_lwip_thread:
 571 0000 00000000 		.space	688
 571      00000000 
 571      00000000 
 571      00000000 
 571      00000000 
 572              		.text
 573              	.Letext0:
 574              		.file 2 "/opt/psas/x-tools/stm32f407/arm-psas-eabi/bin/../lib/gcc/arm-psas-eabi/4.7.2/include/stdd
 575              		.file 3 "/opt/psas/x-tools/stm32f407/arm-psas-eabi/bin/../lib/gcc/arm-psas-eabi/4.7.2/../../../../
 576              		.file 4 "../../os/ports/GCC/ARMCMx/chtypes.h"
 577              		.file 5 "../../os/kernel/include/chlists.h"
 578              		.file 6 "../../os/kernel/include/chthreads.h"
 579              		.file 7 "../../os/ports/GCC/ARMCMx/chcore_v7m.h"
 580              		.file 8 "../../os/kernel/include/chvt.h"
 581              		.file 9 "../../os/kernel/include/chschd.h"
 582              		.file 10 "../../os/kernel/include/chsem.h"
 583              		.file 11 "../../os/kernel/include/chmtx.h"
 584              		.file 12 "../../os/kernel/include/chevents.h"
 585              		.file 13 "../../os/hal/include/mac.h"
 586              		.file 14 "../../os/hal/platforms/STM32/mac_lld.h"
 587              		.file 15 "../../os/various/evtimer.h"
 588              		.file 16 "../../os/various/lwip_bindings/arch/cc.h"
 589              		.file 17 "../../ext/lwip/src/include/lwip/mem.h"
 590              		.file 18 "../../ext/lwip/src/include/lwip/err.h"
 591              		.file 19 "../../ext/lwip/src/include/lwip/pbuf.h"
 592              		.file 20 "../../ext/lwip/src/include/lwip/memp.h"
 593              		.file 21 "../../ext/lwip/src/include/lwip/stats.h"
 594              		.file 22 "../../ext/lwip/src/include/ipv4/lwip/ip_addr.h"
 595              		.file 23 "../../ext/lwip/src/include/lwip/netif.h"
 596              		.file 24 "../../ext/lwip/src/include/lwip/tcpip.h"
 597              		.file 25 "../../ext/lwip/src/include/netif/etharp.h"
 598              		.file 26 "../../os/various/lwip_bindings/lwipthread.h"
 599              		.file 27 "../../os/ports/common/ARMCMx/CMSIS/include/core_cm4.h"
 600              		.file 28 "../../ext/lwip/src/include/lwip/def.h"
 601              		.file 29 "../../ext/lwip/src/include/lwip/sys.h"