ARM GAS  /tmp/ccBwbhRg.s 			page 1


   1              		.syntax unified
   2              		.cpu cortex-m4
   3              		.eabi_attribute 27, 3
   4              		.eabi_attribute 28, 1
   5              		.fpu fpv4-sp-d16
   6              		.eabi_attribute 20, 1
   7              		.eabi_attribute 21, 1
   8              		.eabi_attribute 23, 3
   9              		.eabi_attribute 24, 1
  10              		.eabi_attribute 25, 1
  11              		.eabi_attribute 26, 1
  12              		.eabi_attribute 30, 2
  13              		.eabi_attribute 34, 1
  14              		.eabi_attribute 18, 4
  15              		.thumb
  16              		.file	"lwipthread.c"
  17              		.text
  18              	.Ltext0:
  19              		.cfi_sections	.debug_frame
  20              		.section	.text.ethernetif_init,"ax",%progbits
  21              		.align	2
  22              		.p2align 4,,15
  23              		.thumb
  24              		.thumb_func
  25              		.type	ethernetif_init, %function
  26              	ethernetif_init:
  27              	.LFB121:
  28              		.file 1 "../../os/various/lwip_bindings/lwipthread.c"
  29              		.loc 1 183 0
  30              		.cfi_startproc
  31              		@ args = 0, pretend = 0, frame = 0
  32              		@ frame_needed = 0, uses_anonymous_args = 0
  33              		@ link register save eliminated.
  34              	.LVL0:
  35              		.loc 1 183 0
  36 0000 0346     		mov	r3, r0
  37              		.loc 1 197 0
  38 0002 6D22     		movs	r2, #109
  39 0004 83F82A20 		strb	r2, [r3, #42]
  40              		.loc 1 198 0
  41 0008 7322     		movs	r2, #115
  42 000a 83F82B20 		strb	r2, [r3, #43]
  43              		.loc 1 203 0
  44 000e 40F20002 		movw	r2, #:lower16:etharp_output
  45 0012 C0F20002 		movt	r2, #:upper16:etharp_output
  46 0016 5A61     		str	r2, [r3, #20]
  47              		.loc 1 204 0
  48 0018 40F20002 		movw	r2, #:lower16:low_level_output
  49 001c C0F20002 		movt	r2, #:upper16:low_level_output
  50 0020 9A61     		str	r2, [r3, #24]
  51              	.LVL1:
  52              	.LBB4:
  53              	.LBB5:
  54              		.loc 1 93 0
  55 0022 0622     		movs	r2, #6
  56 0024 83F82220 		strb	r2, [r3, #34]
  57              		.loc 1 96 0
ARM GAS  /tmp/ccBwbhRg.s 			page 2


  58 0028 40F2DC52 		movw	r2, #1500
  59              	.LBE5:
  60              	.LBE4:
  61              		.loc 1 196 0
  62 002c 0020     		movs	r0, #0
  63              	.LVL2:
  64              	.LBB8:
  65              	.LBB6:
  66              		.loc 1 96 0
  67 002e 1A84     		strh	r2, [r3, #32]	@ movhi
  68              		.loc 1 100 0
  69 0030 3222     		movs	r2, #50
  70              	.LBE6:
  71              	.LBE8:
  72              		.loc 1 196 0
  73 0032 D861     		str	r0, [r3, #28]
  74              	.LBB9:
  75              	.LBB7:
  76              		.loc 1 100 0
  77 0034 83F82920 		strb	r2, [r3, #41]
  78              	.LBE7:
  79              	.LBE9:
  80              		.loc 1 210 0
  81 0038 7047     		bx	lr
  82              		.cfi_endproc
  83              	.LFE121:
  84              		.size	ethernetif_init, .-ethernetif_init
  85 003a 00BFAFF3 		.section	.text.low_level_output,"ax",%progbits
  85      0080
  86              		.align	2
  87              		.p2align 4,,15
  88              		.thumb
  89              		.thumb_func
  90              		.type	low_level_output, %function
  91              	low_level_output:
  92              	.LFB119:
  93              		.loc 1 108 0
  94              		.cfi_startproc
  95              		@ args = 0, pretend = 0, frame = 16
  96              		@ frame_needed = 0, uses_anonymous_args = 0
  97              	.LVL3:
  98 0000 10B5     		push	{r4, lr}
  99              	.LCFI0:
 100              		.cfi_def_cfa_offset 8
 101              		.cfi_offset 4, -8
 102              		.cfi_offset 14, -4
 103 0002 84B0     		sub	sp, sp, #16
 104              	.LCFI1:
 105              		.cfi_def_cfa_offset 24
 106              		.loc 1 108 0
 107 0004 0C46     		mov	r4, r1
 108              		.loc 1 113 0
 109 0006 0E48     		ldr	r0, .L12
 110              	.LVL4:
 111 0008 01A9     		add	r1, sp, #4
 112              	.LVL5:
 113 000a 3222     		movs	r2, #50
ARM GAS  /tmp/ccBwbhRg.s 			page 3


 114 000c FFF7FEFF 		bl	macWaitTransmitDescriptor
 115              	.LVL6:
 116 0010 98B9     		cbnz	r0, .L7
 117              	.LVL7:
 118              		.loc 1 121 0 discriminator 2
 119 0012 3CB1     		cbz	r4, .L11
 120              	.LVL8:
 121              	.L5:
 122              		.loc 1 122 0 discriminator 2
 123 0014 6168     		ldr	r1, [r4, #4]
 124 0016 6289     		ldrh	r2, [r4, #10]
 125 0018 01A8     		add	r0, sp, #4
 126 001a FFF7FEFF 		bl	mac_lld_write_transmit_descriptor
 127              	.LVL9:
 128              		.loc 1 121 0 discriminator 2
 129 001e 2468     		ldr	r4, [r4, #0]
 130              	.LVL10:
 131 0020 002C     		cmp	r4, #0
 132 0022 F7D1     		bne	.L5
 133              	.L11:
 134              		.loc 1 123 0
 135 0024 01A8     		add	r0, sp, #4
 136 0026 FFF7FEFF 		bl	macReleaseTransmitDescriptor
 137              	.LVL11:
 138              		.loc 1 129 0
 139 002a 064B     		ldr	r3, .L12+4
 140 002c 1A88     		ldrh	r2, [r3, #0]
 141 002e 0132     		adds	r2, r2, #1
 142 0030 1A80     		strh	r2, [r3, #0]	@ movhi
 143              		.loc 1 131 0
 144 0032 0020     		movs	r0, #0
 145              	.LVL12:
 146              	.L3:
 147              		.loc 1 132 0
 148 0034 40B2     		sxtb	r0, r0
 149 0036 04B0     		add	sp, sp, #16
 150 0038 10BD     		pop	{r4, pc}
 151              	.LVL13:
 152              	.L7:
 153              		.loc 1 114 0
 154 003a FD20     		movs	r0, #253
 155 003c FAE7     		b	.L3
 156              	.L13:
 157 003e 00BF     		.align	2
 158              	.L12:
 159 0040 00000000 		.word	ETHD1
 160 0044 00000000 		.word	lwip_stats
 161              		.cfi_endproc
 162              	.LFE119:
 163              		.size	low_level_output, .-low_level_output
 164 0048 AFF30080 		.section	.text.lwip_thread,"ax",%progbits
 164      AFF30080 
 165              		.align	2
 166              		.p2align 4,,15
 167              		.global	lwip_thread
 168              		.thumb
 169              		.thumb_func
ARM GAS  /tmp/ccBwbhRg.s 			page 4


 170              		.type	lwip_thread, %function
 171              	lwip_thread:
 172              	.LFB122:
 173              		.loc 1 218 0
 174              		.cfi_startproc
 175              		@ args = 0, pretend = 0, frame = 88
 176              		@ frame_needed = 0, uses_anonymous_args = 0
 177              	.LVL14:
 178 0000 2DE9F041 		push	{r4, r5, r6, r7, r8, lr}
 179              	.LCFI2:
 180              		.cfi_def_cfa_offset 24
 181              		.cfi_offset 4, -24
 182              		.cfi_offset 5, -20
 183              		.cfi_offset 6, -16
 184              		.cfi_offset 7, -12
 185              		.cfi_offset 8, -8
 186              		.cfi_offset 14, -4
 187              		.loc 1 225 0
 188 0004 684B     		ldr	r3, .L47
 189 0006 694A     		ldr	r2, .L47+4
 190 0008 9B69     		ldr	r3, [r3, #24]
 191 000a 694E     		ldr	r6, .L47+8
 192 000c 9A61     		str	r2, [r3, #24]
 193              		.loc 1 218 0
 194 000e 9AB0     		sub	sp, sp, #104
 195              	.LCFI3:
 196              		.cfi_def_cfa_offset 128
 197              		.loc 1 218 0
 198 0010 0446     		mov	r4, r0
 199              		.loc 1 228 0
 200 0012 FFF7FEFF 		bl	sys_init
 201              	.LVL15:
 202              		.loc 1 229 0
 203 0016 FFF7FEFF 		bl	mem_init
 204              	.LVL16:
 205              		.loc 1 230 0
 206 001a FFF7FEFF 		bl	memp_init
 207              	.LVL17:
 208              		.loc 1 232 0
 209 001e FFF7FEFF 		bl	netif_init
 210              	.LVL18:
 211              		.loc 1 234 0
 212 0022 0020     		movs	r0, #0
 213 0024 0146     		mov	r1, r0
 214 0026 FFF7FEFF 		bl	tcpip_init
 215              	.LVL19:
 216              		.loc 1 237 0
 217 002a 7CB1     		cbz	r4, .L15
 218 002c 0023     		movs	r3, #0
 219              	.L16:
 220              	.LBB17:
 221              		.loc 1 242 0 discriminator 2
 222 002e 2268     		ldr	r2, [r4, #0]
 223              		.loc 1 218 0 discriminator 2
 224 0030 F118     		adds	r1, r6, r3
 225              		.loc 1 242 0 discriminator 2
 226 0032 D25C     		ldrb	r2, [r2, r3]	@ zero_extendqisi2
ARM GAS  /tmp/ccBwbhRg.s 			page 5


 227              		.loc 1 241 0 discriminator 2
 228 0034 0133     		adds	r3, r3, #1
 229              	.LVL20:
 230 0036 062B     		cmp	r3, #6
 231              		.loc 1 242 0 discriminator 2
 232 0038 81F82320 		strb	r2, [r1, #35]
 233              		.loc 1 241 0 discriminator 2
 234 003c F7D1     		bne	.L16
 235              		.loc 1 243 0
 236 003e 6168     		ldr	r1, [r4, #4]
 237              		.loc 1 244 0
 238 0040 E268     		ldr	r2, [r4, #12]
 239              		.loc 1 245 0
 240 0042 A368     		ldr	r3, [r4, #8]
 241              	.LVL21:
 242              		.loc 1 243 0
 243 0044 0591     		str	r1, [sp, #20]
 244              		.loc 1 244 0
 245 0046 0692     		str	r2, [sp, #24]
 246              		.loc 1 245 0
 247 0048 0793     		str	r3, [sp, #28]
 248 004a 1DE0     		b	.L17
 249              	.L15:
 250              	.LBE17:
 251              		.loc 1 248 0
 252 004c C221     		movs	r1, #194
 253 004e 86F82310 		strb	r1, [r6, #35]
 254              		.loc 1 249 0
 255 0052 AF21     		movs	r1, #175
 256              		.loc 1 254 0
 257 0054 4AF6C002 		movw	r2, #43200
 258              		.loc 1 249 0
 259 0058 86F82410 		strb	r1, [r6, #36]
 260              		.loc 1 250 0
 261 005c 5121     		movs	r1, #81
 262              		.loc 1 255 0
 263 005e 1346     		mov	r3, r2
 264              		.loc 1 250 0
 265 0060 86F82510 		strb	r1, [r6, #37]
 266              		.loc 1 251 0
 267 0064 0321     		movs	r1, #3
 268              		.loc 1 255 0
 269 0066 C0F20113 		movt	r3, 257
 270              		.loc 1 251 0
 271 006a 86F82610 		strb	r1, [r6, #38]
 272              		.loc 1 252 0
 273 006e CF21     		movs	r1, #207
 274              		.loc 1 254 0
 275 0070 C1F20142 		movt	r2, 5121
 276              		.loc 1 252 0
 277 0074 86F82710 		strb	r1, [r6, #39]
 278              		.loc 1 255 0
 279 0078 0693     		str	r3, [sp, #24]
 280              		.loc 1 253 0
 281 007a 4621     		movs	r1, #70
 282              		.loc 1 256 0
 283 007c 6FF07F43 		mvn	r3, #-16777216
ARM GAS  /tmp/ccBwbhRg.s 			page 6


 284              		.loc 1 253 0
 285 0080 86F82810 		strb	r1, [r6, #40]
 286              		.loc 1 254 0
 287 0084 0592     		str	r2, [sp, #20]
 288              		.loc 1 256 0
 289 0086 0793     		str	r3, [sp, #28]
 290              	.L17:
 291              		.loc 1 258 0
 292 0088 4A48     		ldr	r0, .L47+12
 293 008a 4B49     		ldr	r1, .L47+16
 294 008c 4B4F     		ldr	r7, .L47+20
 295 008e FFF7FEFF 		bl	macStart
 296              	.LVL22:
 297              		.loc 1 259 0
 298 0092 4B4B     		ldr	r3, .L47+24
 299 0094 4B48     		ldr	r0, .L47+28
 300 0096 0193     		str	r3, [sp, #4]
 301 0098 0024     		movs	r4, #0
 302              	.LVL23:
 303 009a 05A9     		add	r1, sp, #20
 304 009c 07AA     		add	r2, sp, #28
 305 009e 06AB     		add	r3, sp, #24
 306 00a0 0290     		str	r0, [sp, #8]
 307 00a2 0094     		str	r4, [sp, #0]
 308 00a4 4248     		ldr	r0, .L47+8
 309 00a6 FFF7FEFF 		bl	netif_add
 310              	.LVL24:
 311              		.loc 1 261 0
 312 00aa 4148     		ldr	r0, .L47+8
 313 00ac FFF7FEFF 		bl	netif_set_default
 314              	.LVL25:
 315              		.loc 1 262 0
 316 00b0 3F48     		ldr	r0, .L47+8
 317 00b2 FFF7FEFF 		bl	netif_set_up
 318              	.LVL26:
 319              		.loc 1 265 0
 320 00b6 18AD     		add	r5, sp, #96
 321 00b8 41F28833 		movw	r3, #5000
 322              		.loc 1 266 0
 323 00bc 13A8     		add	r0, sp, #76
 324              		.loc 1 265 0
 325 00be 1993     		str	r3, [sp, #100]
 326 00c0 1895     		str	r5, [sp, #96]
 327 00c2 1694     		str	r4, [sp, #88]
 328              		.loc 1 266 0
 329 00c4 FFF7FEFF 		bl	evtStart
 330              	.LVL27:
 331              		.loc 1 267 0
 332 00c8 2846     		mov	r0, r5
 333 00ca 0BA9     		add	r1, sp, #44
 334 00cc 0122     		movs	r2, #1
 335 00ce FFF7FEFF 		bl	chEvtRegisterMask
 336              	.LVL28:
 337              		.loc 1 268 0
 338 00d2 0FA9     		add	r1, sp, #60
 339 00d4 0222     		movs	r2, #2
 340 00d6 3C48     		ldr	r0, .L47+32
ARM GAS  /tmp/ccBwbhRg.s 			page 7


 341 00d8 FFF7FEFF 		bl	chEvtRegisterMask
 342              	.LVL29:
 343              		.loc 1 269 0
 344 00dc 0320     		movs	r0, #3
 345 00de FFF7FEFF 		bl	chEvtAddEvents
 346              	.LVL30:
 347              		.loc 1 272 0
 348 00e2 0220     		movs	r0, #2
 349 00e4 FFF7FEFF 		bl	chThdSetPriority
 350              	.LVL31:
 351 00e8 01E0     		b	.L45
 352              	.LVL32:
 353              	.L19:
 354              	.LBB18:
 355              		.loc 1 287 0
 356 00ea A307     		lsls	r3, r4, #30
 357 00ec 19D4     		bmi	.L46
 358              	.LVL33:
 359              	.L45:
 360              		.loc 1 275 0
 361 00ee 4FF0FF30 		mov	r0, #-1
 362 00f2 FFF7FEFF 		bl	chEvtWaitAny
 363              	.LVL34:
 364              		.loc 1 276 0
 365 00f6 C207     		lsls	r2, r0, #31
 366              		.loc 1 275 0
 367 00f8 0446     		mov	r4, r0
 368              	.LVL35:
 369              		.loc 1 276 0
 370 00fa F6D5     		bpl	.L19
 371              	.LBB19:
 372              		.loc 1 277 0
 373 00fc 2D48     		ldr	r0, .L47+12
 374              	.LVL36:
 375 00fe FFF7FEFF 		bl	macPollLinkStatus
 376              	.LVL37:
 377              		.loc 1 278 0
 378 0102 96F82930 		ldrb	r3, [r6, #41]	@ zero_extendqisi2
 379 0106 C3F30013 		ubfx	r3, r3, #4, #1
 380 010a 9842     		cmp	r0, r3
 381              		.loc 1 277 0
 382 010c 0246     		mov	r2, r0
 383              	.LVL38:
 384              		.loc 1 278 0
 385 010e ECD0     		beq	.L19
 386              		.loc 1 279 0
 387 0110 0028     		cmp	r0, #0
 388 0112 33D0     		beq	.L21
 389              		.loc 1 280 0
 390 0114 0022     		movs	r2, #0
 391 0116 2649     		ldr	r1, .L47+8
 392 0118 2C48     		ldr	r0, .L47+36
 393              	.LVL39:
 394 011a FFF7FEFF 		bl	tcpip_callback_with_block
 395              	.LVL40:
 396              	.LBE19:
 397              		.loc 1 287 0
ARM GAS  /tmp/ccBwbhRg.s 			page 8


 398 011e A307     		lsls	r3, r4, #30
 399 0120 E5D5     		bpl	.L45
 400              	.L46:
 401              	.LBB20:
 402              	.LBB21:
 403              		.loc 1 291 0 discriminator 1
 404 0122 40F60608 		movw	r8, #2054
 405              	.LVL41:
 406              	.L44:
 407              	.LBE21:
 408              	.LBB22:
 409              	.LBB23:
 410              		.loc 1 143 0 discriminator 1
 411 0126 2348     		ldr	r0, .L47+12
 412 0128 08A9     		add	r1, sp, #32
 413 012a 0022     		movs	r2, #0
 414 012c FFF7FEFF 		bl	macWaitReceiveDescriptor
 415              	.LVL42:
 416 0130 0028     		cmp	r0, #0
 417 0132 DCD1     		bne	.L45
 418              	.LVL43:
 419              		.loc 1 151 0
 420 0134 0320     		movs	r0, #3
 421 0136 BDF82410 		ldrh	r1, [sp, #36]
 422 013a 0246     		mov	r2, r0
 423 013c FFF7FEFF 		bl	pbuf_alloc
 424              	.LVL44:
 425              		.loc 1 153 0
 426 0140 0546     		mov	r5, r0
 427 0142 38B3     		cbz	r0, .L28
 428 0144 0446     		mov	r4, r0
 429              	.LVL45:
 430              	.L29:
 431              		.loc 1 161 0
 432 0146 6168     		ldr	r1, [r4, #4]
 433 0148 6289     		ldrh	r2, [r4, #10]
 434 014a 08A8     		add	r0, sp, #32
 435 014c FFF7FEFF 		bl	mac_lld_read_receive_descriptor
 436              	.LVL46:
 437              		.loc 1 160 0
 438 0150 2468     		ldr	r4, [r4, #0]
 439              	.LVL47:
 440 0152 002C     		cmp	r4, #0
 441 0154 F7D1     		bne	.L29
 442              		.loc 1 162 0
 443 0156 08A8     		add	r0, sp, #32
 444 0158 FFF7FEFF 		bl	macReleaseReceiveDescriptor
 445              	.LVL48:
 446              		.loc 1 168 0
 447 015c 7A88     		ldrh	r2, [r7, #2]
 448              	.LBE23:
 449              	.LBE22:
 450              	.LBB26:
 451              		.loc 1 291 0
 452 015e 6B68     		ldr	r3, [r5, #4]
 453              	.LBE26:
 454              	.LBB27:
ARM GAS  /tmp/ccBwbhRg.s 			page 9


 455              	.LBB24:
 456              		.loc 1 168 0
 457 0160 0132     		adds	r2, r2, #1
 458 0162 7A80     		strh	r2, [r7, #2]	@ movhi
 459              	.LVL49:
 460              	.LBE24:
 461              	.LBE27:
 462              	.LBB28:
 463              		.loc 1 291 0
 464 0164 9889     		ldrh	r0, [r3, #12]	@ unaligned
 465 0166 FFF7FEFF 		bl	lwip_htons
 466              	.LVL50:
 467 016a B0F5006F 		cmp	r0, #2048
 468 016e 0AD0     		beq	.L24
 469 0170 4045     		cmp	r0, r8
 470 0172 08D0     		beq	.L24
 471              	.L26:
 472              		.loc 1 305 0
 473 0174 2846     		mov	r0, r5
 474 0176 FFF7FEFF 		bl	pbuf_free
 475              	.LVL51:
 476 017a D4E7     		b	.L44
 477              	.LVL52:
 478              	.L21:
 479              	.LBE28:
 480              	.LBE20:
 481              	.LBB31:
 482              		.loc 1 283 0
 483 017c 0C49     		ldr	r1, .L47+8
 484 017e 1448     		ldr	r0, .L47+40
 485              	.LVL53:
 486 0180 FFF7FEFF 		bl	tcpip_callback_with_block
 487              	.LVL54:
 488 0184 B1E7     		b	.L19
 489              	.LVL55:
 490              	.L24:
 491              	.LBE31:
 492              	.LBB32:
 493              	.LBB29:
 494              		.loc 1 301 0
 495 0186 3369     		ldr	r3, [r6, #16]
 496 0188 0949     		ldr	r1, .L47+8
 497 018a 2846     		mov	r0, r5
 498 018c 9847     		blx	r3
 499              	.LVL56:
 500 018e 0028     		cmp	r0, #0
 501 0190 C9D0     		beq	.L44
 502 0192 EFE7     		b	.L26
 503              	.LVL57:
 504              	.L28:
 505              	.LBE29:
 506              	.LBB30:
 507              	.LBB25:
 508              		.loc 1 171 0
 509 0194 08A8     		add	r0, sp, #32
 510              	.LVL58:
 511 0196 FFF7FEFF 		bl	macReleaseReceiveDescriptor
ARM GAS  /tmp/ccBwbhRg.s 			page 10


 512              	.LVL59:
 513              		.loc 1 172 0
 514 019a BA89     		ldrh	r2, [r7, #12]
 515              		.loc 1 173 0
 516 019c FB88     		ldrh	r3, [r7, #6]
 517              		.loc 1 172 0
 518 019e 0132     		adds	r2, r2, #1
 519              		.loc 1 173 0
 520 01a0 0133     		adds	r3, r3, #1
 521              		.loc 1 172 0
 522 01a2 BA81     		strh	r2, [r7, #12]	@ movhi
 523              		.loc 1 173 0
 524 01a4 FB80     		strh	r3, [r7, #6]	@ movhi
 525 01a6 A2E7     		b	.L45
 526              	.L48:
 527              		.align	2
 528              	.L47:
 529 01a8 00000000 		.word	rlist
 530 01ac 00000000 		.word	.LC0
 531 01b0 00000000 		.word	.LANCHOR0
 532 01b4 00000000 		.word	ETHD1
 533 01b8 00000000 		.word	.LANCHOR1
 534 01bc 00000000 		.word	lwip_stats
 535 01c0 00000000 		.word	ethernetif_init
 536 01c4 00000000 		.word	tcpip_input
 537 01c8 20000000 		.word	ETHD1+32
 538 01cc 00000000 		.word	netif_set_link_up
 539 01d0 00000000 		.word	netif_set_link_down
 540              	.LBE25:
 541              	.LBE30:
 542              	.LBE32:
 543              	.LBE18:
 544              		.cfi_endproc
 545              	.LFE122:
 546              		.size	lwip_thread, .-lwip_thread
 547              		.global	wa_lwip_thread
 548 01d4 AFF30080 		.section	.rodata.mac_config.7837,"a",%progbits
 548      AFF30080 
 548      AFF30080 
 549              		.align	2
 550              		.set	.LANCHOR1,. + 0
 551              		.type	mac_config.7837, %object
 552              		.size	mac_config.7837, 4
 553              	mac_config.7837:
 554 0000 23000000 		.word	thisif.7836+35
 555              		.section	.rodata.str1.4,"aMS",%progbits,1
 556              		.align	2
 557              	.LC0:
 558 0000 6C776970 		.ascii	"lwipthread\000"
 558      74687265 
 558      616400
 559 000b 00       		.section	.bss.thisif.7836,"aw",%nobits
 560              		.align	2
 561              		.set	.LANCHOR0,. + 0
 562              		.type	thisif.7836, %object
 563              		.size	thisif.7836, 48
 564              	thisif.7836:
ARM GAS  /tmp/ccBwbhRg.s 			page 11


 565 0000 00000000 		.space	48
 565      00000000 
 565      00000000 
 565      00000000 
 565      00000000 
 566              		.section	.bss.wa_lwip_thread,"aw",%nobits
 567              		.align	3
 568              		.type	wa_lwip_thread, %object
 569              		.size	wa_lwip_thread, 688
 570              	wa_lwip_thread:
 571 0000 00000000 		.space	688
 571      00000000 
 571      00000000 
 571      00000000 
 571      00000000 
 572              		.text
 573              	.Letext0:
 574              		.file 2 "/opt/psas/x-tools/stm32f407/arm-psas-eabi/bin/../lib/gcc/arm-psas-eabi/4.7.2/include/stdd
 575              		.file 3 "/opt/psas/x-tools/stm32f407/arm-psas-eabi/bin/../lib/gcc/arm-psas-eabi/4.7.2/../../../../
 576              		.file 4 "../../os/ports/GCC/ARMCMx/chtypes.h"
 577              		.file 5 "../../os/kernel/include/chlists.h"
 578              		.file 6 "../../os/kernel/include/chthreads.h"
 579              		.file 7 "../../os/ports/GCC/ARMCMx/chcore_v7m.h"
 580              		.file 8 "../../os/kernel/include/chvt.h"
 581              		.file 9 "../../os/kernel/include/chschd.h"
 582              		.file 10 "../../os/kernel/include/chsem.h"
 583              		.file 11 "../../os/kernel/include/chmtx.h"
 584              		.file 12 "../../os/kernel/include/chevents.h"
 585              		.file 13 "../../os/hal/include/mac.h"
 586              		.file 14 "../../os/hal/platforms/STM32/mac_lld.h"
 587              		.file 15 "../../os/various/evtimer.h"
 588              		.file 16 "../../os/various/lwip_bindings/arch/cc.h"
 589              		.file 17 "../../ext/lwip/src/include/lwip/mem.h"
 590              		.file 18 "../../ext/lwip/src/include/lwip/err.h"
 591              		.file 19 "../../ext/lwip/src/include/lwip/pbuf.h"
 592              		.file 20 "../../ext/lwip/src/include/lwip/memp.h"
 593              		.file 21 "../../ext/lwip/src/include/lwip/stats.h"
 594              		.file 22 "../../ext/lwip/src/include/ipv4/lwip/ip_addr.h"
 595              		.file 23 "../../ext/lwip/src/include/lwip/netif.h"
 596              		.file 24 "../../ext/lwip/src/include/lwip/tcpip.h"
 597              		.file 25 "../../ext/lwip/src/include/netif/etharp.h"
 598              		.file 26 "../../os/various/lwip_bindings/lwipthread.h"
 599              		.file 27 "../../os/ports/common/ARMCMx/CMSIS/include/core_cm4.h"
 600              		.file 28 "../../ext/lwip/src/include/lwip/def.h"
 601              		.file 29 "../../ext/lwip/src/include/lwip/sys.h"
 602              		.section	.debug_info,"",%progbits
 603              	.Ldebug_info0:
 604 0000 B8150000 		.4byte	0x15b8
 605 0004 0200     		.2byte	0x2
 606 0006 00000000 		.4byte	.Ldebug_abbrev0
 607 000a 04       		.byte	0x4
 608 000b 01       		.uleb128 0x1
 609 000c 16010000 		.4byte	.LASF246
 610 0010 01       		.byte	0x1
 611 0011 7D020000 		.4byte	.LASF247
 612 0015 00000000 		.4byte	.LASF248
 613 0019 B8000000 		.4byte	.Ldebug_ranges0+0xb8
ARM GAS  /tmp/ccBwbhRg.s 			page 12


 614 001d 00000000 		.4byte	0
 615 0021 00000000 		.4byte	0
 616 0025 00000000 		.4byte	.Ldebug_line0
 617 0029 02       		.uleb128 0x2
 618 002a 04       		.byte	0x4
 619 002b 05       		.byte	0x5
 620 002c 696E7400 		.ascii	"int\000"
 621 0030 03       		.uleb128 0x3
 622 0031 59000000 		.4byte	.LASF1
 623 0035 02       		.byte	0x2
 624 0036 D5       		.byte	0xd5
 625 0037 3B000000 		.4byte	0x3b
 626 003b 04       		.uleb128 0x4
 627 003c 04       		.byte	0x4
 628 003d 07       		.byte	0x7
 629 003e DD050000 		.4byte	.LASF0
 630 0042 03       		.uleb128 0x3
 631 0043 4A000000 		.4byte	.LASF2
 632 0047 03       		.byte	0x3
 633 0048 29       		.byte	0x29
 634 0049 4D000000 		.4byte	0x4d
 635 004d 04       		.uleb128 0x4
 636 004e 01       		.byte	0x1
 637 004f 06       		.byte	0x6
 638 0050 FE010000 		.4byte	.LASF3
 639 0054 03       		.uleb128 0x3
 640 0055 14020000 		.4byte	.LASF4
 641 0059 03       		.byte	0x3
 642 005a 2A       		.byte	0x2a
 643 005b 5F000000 		.4byte	0x5f
 644 005f 04       		.uleb128 0x4
 645 0060 01       		.byte	0x1
 646 0061 08       		.byte	0x8
 647 0062 A9020000 		.4byte	.LASF5
 648 0066 04       		.uleb128 0x4
 649 0067 02       		.byte	0x2
 650 0068 05       		.byte	0x5
 651 0069 6F080000 		.4byte	.LASF6
 652 006d 03       		.uleb128 0x3
 653 006e 79070000 		.4byte	.LASF7
 654 0072 03       		.byte	0x3
 655 0073 36       		.byte	0x36
 656 0074 78000000 		.4byte	0x78
 657 0078 04       		.uleb128 0x4
 658 0079 02       		.byte	0x2
 659 007a 07       		.byte	0x7
 660 007b 91090000 		.4byte	.LASF8
 661 007f 03       		.uleb128 0x3
 662 0080 BE000000 		.4byte	.LASF9
 663 0084 03       		.byte	0x3
 664 0085 4F       		.byte	0x4f
 665 0086 8A000000 		.4byte	0x8a
 666 008a 04       		.uleb128 0x4
 667 008b 04       		.byte	0x4
 668 008c 05       		.byte	0x5
 669 008d 72010000 		.4byte	.LASF10
 670 0091 03       		.uleb128 0x3
ARM GAS  /tmp/ccBwbhRg.s 			page 13


 671 0092 0A090000 		.4byte	.LASF11
 672 0096 03       		.byte	0x3
 673 0097 50       		.byte	0x50
 674 0098 9C000000 		.4byte	0x9c
 675 009c 04       		.uleb128 0x4
 676 009d 04       		.byte	0x4
 677 009e 07       		.byte	0x7
 678 009f B3040000 		.4byte	.LASF12
 679 00a3 04       		.uleb128 0x4
 680 00a4 08       		.byte	0x8
 681 00a5 05       		.byte	0x5
 682 00a6 28050000 		.4byte	.LASF13
 683 00aa 03       		.uleb128 0x3
 684 00ab 79080000 		.4byte	.LASF14
 685 00af 03       		.byte	0x3
 686 00b0 78       		.byte	0x78
 687 00b1 B5000000 		.4byte	0xb5
 688 00b5 04       		.uleb128 0x4
 689 00b6 08       		.byte	0x8
 690 00b7 07       		.byte	0x7
 691 00b8 2A070000 		.4byte	.LASF15
 692 00bc 03       		.uleb128 0x3
 693 00bd 94080000 		.4byte	.LASF16
 694 00c1 04       		.byte	0x4
 695 00c2 27       		.byte	0x27
 696 00c3 7F000000 		.4byte	0x7f
 697 00c7 03       		.uleb128 0x3
 698 00c8 35080000 		.4byte	.LASF17
 699 00cc 04       		.byte	0x4
 700 00cd 28       		.byte	0x28
 701 00ce 54000000 		.4byte	0x54
 702 00d2 03       		.uleb128 0x3
 703 00d3 A5010000 		.4byte	.LASF18
 704 00d7 04       		.byte	0x4
 705 00d8 29       		.byte	0x29
 706 00d9 54000000 		.4byte	0x54
 707 00dd 03       		.uleb128 0x3
 708 00de D1080000 		.4byte	.LASF19
 709 00e2 04       		.byte	0x4
 710 00e3 2A       		.byte	0x2a
 711 00e4 54000000 		.4byte	0x54
 712 00e8 03       		.uleb128 0x3
 713 00e9 A8070000 		.4byte	.LASF20
 714 00ed 04       		.byte	0x4
 715 00ee 2B       		.byte	0x2b
 716 00ef 54000000 		.4byte	0x54
 717 00f3 03       		.uleb128 0x3
 718 00f4 82000000 		.4byte	.LASF21
 719 00f8 04       		.byte	0x4
 720 00f9 2C       		.byte	0x2c
 721 00fa 91000000 		.4byte	0x91
 722 00fe 03       		.uleb128 0x3
 723 00ff 82070000 		.4byte	.LASF22
 724 0103 04       		.byte	0x4
 725 0104 2D       		.byte	0x2d
 726 0105 7F000000 		.4byte	0x7f
 727 0109 03       		.uleb128 0x3
ARM GAS  /tmp/ccBwbhRg.s 			page 14


 728 010a 69020000 		.4byte	.LASF23
 729 010e 04       		.byte	0x4
 730 010f 2F       		.byte	0x2f
 731 0110 91000000 		.4byte	0x91
 732 0114 03       		.uleb128 0x3
 733 0115 81060000 		.4byte	.LASF24
 734 0119 04       		.byte	0x4
 735 011a 30       		.byte	0x30
 736 011b 91000000 		.4byte	0x91
 737 011f 03       		.uleb128 0x3
 738 0120 69000000 		.4byte	.LASF25
 739 0124 04       		.byte	0x4
 740 0125 31       		.byte	0x31
 741 0126 91000000 		.4byte	0x91
 742 012a 03       		.uleb128 0x3
 743 012b EE030000 		.4byte	.LASF26
 744 012f 04       		.byte	0x4
 745 0130 32       		.byte	0x32
 746 0131 7F000000 		.4byte	0x7f
 747 0135 03       		.uleb128 0x3
 748 0136 9B080000 		.4byte	.LASF27
 749 013a 05       		.byte	0x5
 750 013b 23       		.byte	0x23
 751 013c 40010000 		.4byte	0x140
 752 0140 05       		.uleb128 0x5
 753 0141 9B080000 		.4byte	.LASF27
 754 0145 48       		.byte	0x48
 755 0146 06       		.byte	0x6
 756 0147 57       		.byte	0x57
 757 0148 65020000 		.4byte	0x265
 758 014c 06       		.uleb128 0x6
 759 014d 7B010000 		.4byte	.LASF28
 760 0151 06       		.byte	0x6
 761 0152 58       		.byte	0x58
 762 0153 8A020000 		.4byte	0x28a
 763 0157 02       		.byte	0x2
 764 0158 23       		.byte	0x23
 765 0159 00       		.uleb128 0
 766 015a 06       		.uleb128 0x6
 767 015b 8D010000 		.4byte	.LASF29
 768 015f 06       		.byte	0x6
 769 0160 5A       		.byte	0x5a
 770 0161 8A020000 		.4byte	0x28a
 771 0165 02       		.byte	0x2
 772 0166 23       		.byte	0x23
 773 0167 04       		.uleb128 0x4
 774 0168 06       		.uleb128 0x6
 775 0169 44030000 		.4byte	.LASF30
 776 016d 06       		.byte	0x6
 777 016e 5C       		.byte	0x5c
 778 016f F3000000 		.4byte	0xf3
 779 0173 02       		.byte	0x2
 780 0174 23       		.byte	0x23
 781 0175 08       		.uleb128 0x8
 782 0176 06       		.uleb128 0x6
 783 0177 7C000000 		.4byte	.LASF31
 784 017b 06       		.byte	0x6
ARM GAS  /tmp/ccBwbhRg.s 			page 15


 785 017c 5D       		.byte	0x5d
 786 017d 63030000 		.4byte	0x363
 787 0181 02       		.byte	0x2
 788 0182 23       		.byte	0x23
 789 0183 0C       		.uleb128 0xc
 790 0184 06       		.uleb128 0x6
 791 0185 6A010000 		.4byte	.LASF32
 792 0189 06       		.byte	0x6
 793 018a 5F       		.byte	0x5f
 794 018b 8A020000 		.4byte	0x28a
 795 018f 02       		.byte	0x2
 796 0190 23       		.byte	0x23
 797 0191 10       		.uleb128 0x10
 798 0192 06       		.uleb128 0x6
 799 0193 64070000 		.4byte	.LASF33
 800 0197 06       		.byte	0x6
 801 0198 60       		.byte	0x60
 802 0199 8A020000 		.4byte	0x28a
 803 019d 02       		.byte	0x2
 804 019e 23       		.byte	0x23
 805 019f 14       		.uleb128 0x14
 806 01a0 06       		.uleb128 0x6
 807 01a1 1F0A0000 		.4byte	.LASF34
 808 01a5 06       		.byte	0x6
 809 01a6 67       		.byte	0x67
 810 01a7 AD050000 		.4byte	0x5ad
 811 01ab 02       		.byte	0x2
 812 01ac 23       		.byte	0x23
 813 01ad 18       		.uleb128 0x18
 814 01ae 06       		.uleb128 0x6
 815 01af 740A0000 		.4byte	.LASF35
 816 01b3 06       		.byte	0x6
 817 01b4 72       		.byte	0x72
 818 01b5 D2000000 		.4byte	0xd2
 819 01b9 02       		.byte	0x2
 820 01ba 23       		.byte	0x23
 821 01bb 1C       		.uleb128 0x1c
 822 01bc 06       		.uleb128 0x6
 823 01bd C9050000 		.4byte	.LASF36
 824 01c1 06       		.byte	0x6
 825 01c2 76       		.byte	0x76
 826 01c3 C7000000 		.4byte	0xc7
 827 01c7 02       		.byte	0x2
 828 01c8 23       		.byte	0x23
 829 01c9 1D       		.uleb128 0x1d
 830 01ca 06       		.uleb128 0x6
 831 01cb 12060000 		.4byte	.LASF37
 832 01cf 06       		.byte	0x6
 833 01d0 7B       		.byte	0x7b
 834 01d1 DD000000 		.4byte	0xdd
 835 01d5 02       		.byte	0x2
 836 01d6 23       		.byte	0x23
 837 01d7 1E       		.uleb128 0x1e
 838 01d8 06       		.uleb128 0x6
 839 01d9 0A020000 		.4byte	.LASF38
 840 01dd 06       		.byte	0x6
 841 01de 81       		.byte	0x81
ARM GAS  /tmp/ccBwbhRg.s 			page 16


 842 01df E8000000 		.4byte	0xe8
 843 01e3 02       		.byte	0x2
 844 01e4 23       		.byte	0x23
 845 01e5 1F       		.uleb128 0x1f
 846 01e6 06       		.uleb128 0x6
 847 01e7 9F060000 		.4byte	.LASF39
 848 01eb 06       		.byte	0x6
 849 01ec 88       		.byte	0x88
 850 01ed 13040000 		.4byte	0x413
 851 01f1 02       		.byte	0x2
 852 01f2 23       		.byte	0x23
 853 01f3 20       		.uleb128 0x20
 854 01f4 07       		.uleb128 0x7
 855 01f5 705F7500 		.ascii	"p_u\000"
 856 01f9 06       		.byte	0x6
 857 01fa AD       		.byte	0xad
 858 01fb 78050000 		.4byte	0x578
 859 01ff 02       		.byte	0x2
 860 0200 23       		.byte	0x23
 861 0201 24       		.uleb128 0x24
 862 0202 06       		.uleb128 0x6
 863 0203 BA050000 		.4byte	.LASF40
 864 0207 06       		.byte	0x6
 865 0208 B2       		.byte	0xb2
 866 0209 B2020000 		.4byte	0x2b2
 867 020d 02       		.byte	0x2
 868 020e 23       		.byte	0x23
 869 020f 28       		.uleb128 0x28
 870 0210 06       		.uleb128 0x6
 871 0211 AD000000 		.4byte	.LASF41
 872 0215 06       		.byte	0x6
 873 0216 B8       		.byte	0xb8
 874 0217 90020000 		.4byte	0x290
 875 021b 02       		.byte	0x2
 876 021c 23       		.byte	0x23
 877 021d 2C       		.uleb128 0x2c
 878 021e 06       		.uleb128 0x6
 879 021f 620A0000 		.4byte	.LASF42
 880 0223 06       		.byte	0x6
 881 0224 BC       		.byte	0xbc
 882 0225 FE000000 		.4byte	0xfe
 883 0229 02       		.byte	0x2
 884 022a 23       		.byte	0x23
 885 022b 34       		.uleb128 0x34
 886 022c 06       		.uleb128 0x6
 887 022d 4D040000 		.4byte	.LASF43
 888 0231 06       		.byte	0x6
 889 0232 C2       		.byte	0xc2
 890 0233 09010000 		.4byte	0x109
 891 0237 02       		.byte	0x2
 892 0238 23       		.byte	0x23
 893 0239 38       		.uleb128 0x38
 894 023a 06       		.uleb128 0x6
 895 023b B4010000 		.4byte	.LASF44
 896 023f 06       		.byte	0x6
 897 0240 C9       		.byte	0xc9
 898 0241 BF050000 		.4byte	0x5bf
ARM GAS  /tmp/ccBwbhRg.s 			page 17


 899 0245 02       		.byte	0x2
 900 0246 23       		.byte	0x23
 901 0247 3C       		.uleb128 0x3c
 902 0248 06       		.uleb128 0x6
 903 0249 E1060000 		.4byte	.LASF45
 904 024d 06       		.byte	0x6
 905 024e CD       		.byte	0xcd
 906 024f F3000000 		.4byte	0xf3
 907 0253 02       		.byte	0x2
 908 0254 23       		.byte	0x23
 909 0255 40       		.uleb128 0x40
 910 0256 06       		.uleb128 0x6
 911 0257 FD050000 		.4byte	.LASF46
 912 025b 06       		.byte	0x6
 913 025c D3       		.byte	0xd3
 914 025d C8020000 		.4byte	0x2c8
 915 0261 02       		.byte	0x2
 916 0262 23       		.byte	0x23
 917 0263 44       		.uleb128 0x44
 918 0264 00       		.byte	0
 919 0265 08       		.uleb128 0x8
 920 0266 08       		.byte	0x8
 921 0267 05       		.byte	0x5
 922 0268 5A       		.byte	0x5a
 923 0269 8A020000 		.4byte	0x28a
 924 026d 06       		.uleb128 0x6
 925 026e 7B010000 		.4byte	.LASF28
 926 0272 05       		.byte	0x5
 927 0273 5B       		.byte	0x5b
 928 0274 8A020000 		.4byte	0x28a
 929 0278 02       		.byte	0x2
 930 0279 23       		.byte	0x23
 931 027a 00       		.uleb128 0
 932 027b 06       		.uleb128 0x6
 933 027c 8D010000 		.4byte	.LASF29
 934 0280 05       		.byte	0x5
 935 0281 5D       		.byte	0x5d
 936 0282 8A020000 		.4byte	0x28a
 937 0286 02       		.byte	0x2
 938 0287 23       		.byte	0x23
 939 0288 04       		.uleb128 0x4
 940 0289 00       		.byte	0
 941 028a 09       		.uleb128 0x9
 942 028b 04       		.byte	0x4
 943 028c 35010000 		.4byte	0x135
 944 0290 03       		.uleb128 0x3
 945 0291 3A090000 		.4byte	.LASF47
 946 0295 05       		.byte	0x5
 947 0296 5F       		.byte	0x5f
 948 0297 65020000 		.4byte	0x265
 949 029b 08       		.uleb128 0x8
 950 029c 04       		.byte	0x4
 951 029d 05       		.byte	0x5
 952 029e 64       		.byte	0x64
 953 029f B2020000 		.4byte	0x2b2
 954 02a3 06       		.uleb128 0x6
 955 02a4 7B010000 		.4byte	.LASF28
ARM GAS  /tmp/ccBwbhRg.s 			page 18


 956 02a8 05       		.byte	0x5
 957 02a9 66       		.byte	0x66
 958 02aa 8A020000 		.4byte	0x28a
 959 02ae 02       		.byte	0x2
 960 02af 23       		.byte	0x23
 961 02b0 00       		.uleb128 0
 962 02b1 00       		.byte	0
 963 02b2 03       		.uleb128 0x3
 964 02b3 50060000 		.4byte	.LASF48
 965 02b7 05       		.byte	0x5
 966 02b8 69       		.byte	0x69
 967 02b9 9B020000 		.4byte	0x29b
 968 02bd 03       		.uleb128 0x3
 969 02be BE010000 		.4byte	.LASF49
 970 02c2 07       		.byte	0x7
 971 02c3 DE       		.byte	0xde
 972 02c4 C8020000 		.4byte	0x2c8
 973 02c8 0A       		.uleb128 0xa
 974 02c9 04       		.byte	0x4
 975 02ca 03       		.uleb128 0x3
 976 02cb A4030000 		.4byte	.LASF50
 977 02cf 07       		.byte	0x7
 978 02d0 E4       		.byte	0xe4
 979 02d1 AA000000 		.4byte	0xaa
 980 02d5 0B       		.uleb128 0xb
 981 02d6 46040000 		.4byte	.LASF51
 982 02da 24       		.byte	0x24
 983 02db 07       		.byte	0x7
 984 02dc 0501     		.2byte	0x105
 985 02de 63030000 		.4byte	0x363
 986 02e2 0C       		.uleb128 0xc
 987 02e3 723400   		.ascii	"r4\000"
 988 02e6 07       		.byte	0x7
 989 02e7 1801     		.2byte	0x118
 990 02e9 BD020000 		.4byte	0x2bd
 991 02ed 02       		.byte	0x2
 992 02ee 23       		.byte	0x23
 993 02ef 00       		.uleb128 0
 994 02f0 0C       		.uleb128 0xc
 995 02f1 723500   		.ascii	"r5\000"
 996 02f4 07       		.byte	0x7
 997 02f5 1901     		.2byte	0x119
 998 02f7 BD020000 		.4byte	0x2bd
 999 02fb 02       		.byte	0x2
 1000 02fc 23       		.byte	0x23
 1001 02fd 04       		.uleb128 0x4
 1002 02fe 0C       		.uleb128 0xc
 1003 02ff 723600   		.ascii	"r6\000"
 1004 0302 07       		.byte	0x7
 1005 0303 1A01     		.2byte	0x11a
 1006 0305 BD020000 		.4byte	0x2bd
 1007 0309 02       		.byte	0x2
 1008 030a 23       		.byte	0x23
 1009 030b 08       		.uleb128 0x8
 1010 030c 0C       		.uleb128 0xc
 1011 030d 723700   		.ascii	"r7\000"
 1012 0310 07       		.byte	0x7
ARM GAS  /tmp/ccBwbhRg.s 			page 19


 1013 0311 1B01     		.2byte	0x11b
 1014 0313 BD020000 		.4byte	0x2bd
 1015 0317 02       		.byte	0x2
 1016 0318 23       		.byte	0x23
 1017 0319 0C       		.uleb128 0xc
 1018 031a 0C       		.uleb128 0xc
 1019 031b 723800   		.ascii	"r8\000"
 1020 031e 07       		.byte	0x7
 1021 031f 1C01     		.2byte	0x11c
 1022 0321 BD020000 		.4byte	0x2bd
 1023 0325 02       		.byte	0x2
 1024 0326 23       		.byte	0x23
 1025 0327 10       		.uleb128 0x10
 1026 0328 0C       		.uleb128 0xc
 1027 0329 723900   		.ascii	"r9\000"
 1028 032c 07       		.byte	0x7
 1029 032d 1D01     		.2byte	0x11d
 1030 032f BD020000 		.4byte	0x2bd
 1031 0333 02       		.byte	0x2
 1032 0334 23       		.byte	0x23
 1033 0335 14       		.uleb128 0x14
 1034 0336 0C       		.uleb128 0xc
 1035 0337 72313000 		.ascii	"r10\000"
 1036 033b 07       		.byte	0x7
 1037 033c 1E01     		.2byte	0x11e
 1038 033e BD020000 		.4byte	0x2bd
 1039 0342 02       		.byte	0x2
 1040 0343 23       		.byte	0x23
 1041 0344 18       		.uleb128 0x18
 1042 0345 0C       		.uleb128 0xc
 1043 0346 72313100 		.ascii	"r11\000"
 1044 034a 07       		.byte	0x7
 1045 034b 1F01     		.2byte	0x11f
 1046 034d BD020000 		.4byte	0x2bd
 1047 0351 02       		.byte	0x2
 1048 0352 23       		.byte	0x23
 1049 0353 1C       		.uleb128 0x1c
 1050 0354 0C       		.uleb128 0xc
 1051 0355 6C7200   		.ascii	"lr\000"
 1052 0358 07       		.byte	0x7
 1053 0359 2001     		.2byte	0x120
 1054 035b BD020000 		.4byte	0x2bd
 1055 035f 02       		.byte	0x2
 1056 0360 23       		.byte	0x23
 1057 0361 20       		.uleb128 0x20
 1058 0362 00       		.byte	0
 1059 0363 0B       		.uleb128 0xb
 1060 0364 75020000 		.4byte	.LASF52
 1061 0368 04       		.byte	0x4
 1062 0369 07       		.byte	0x7
 1063 036a 2A01     		.2byte	0x12a
 1064 036c 80030000 		.4byte	0x380
 1065 0370 0C       		.uleb128 0xc
 1066 0371 72313300 		.ascii	"r13\000"
 1067 0375 07       		.byte	0x7
 1068 0376 2B01     		.2byte	0x12b
 1069 0378 80030000 		.4byte	0x380
ARM GAS  /tmp/ccBwbhRg.s 			page 20


 1070 037c 02       		.byte	0x2
 1071 037d 23       		.byte	0x23
 1072 037e 00       		.uleb128 0
 1073 037f 00       		.byte	0
 1074 0380 09       		.uleb128 0x9
 1075 0381 04       		.byte	0x4
 1076 0382 D5020000 		.4byte	0x2d5
 1077 0386 0D       		.uleb128 0xd
 1078 0387 91000000 		.4byte	0x91
 1079 038b 04       		.uleb128 0x4
 1080 038c 04       		.byte	0x4
 1081 038d 07       		.byte	0x7
 1082 038e 60000000 		.4byte	.LASF53
 1083 0392 03       		.uleb128 0x3
 1084 0393 C6000000 		.4byte	.LASF54
 1085 0397 08       		.byte	0x8
 1086 0398 4E       		.byte	0x4e
 1087 0399 9D030000 		.4byte	0x39d
 1088 039d 09       		.uleb128 0x9
 1089 039e 04       		.byte	0x4
 1090 039f A3030000 		.4byte	0x3a3
 1091 03a3 0E       		.uleb128 0xe
 1092 03a4 01       		.byte	0x1
 1093 03a5 AF030000 		.4byte	0x3af
 1094 03a9 0F       		.uleb128 0xf
 1095 03aa C8020000 		.4byte	0x2c8
 1096 03ae 00       		.byte	0
 1097 03af 03       		.uleb128 0x3
 1098 03b0 13090000 		.4byte	.LASF55
 1099 03b4 08       		.byte	0x8
 1100 03b5 53       		.byte	0x53
 1101 03b6 BA030000 		.4byte	0x3ba
 1102 03ba 05       		.uleb128 0x5
 1103 03bb 13090000 		.4byte	.LASF55
 1104 03bf 14       		.byte	0x14
 1105 03c0 08       		.byte	0x8
 1106 03c1 5A       		.byte	0x5a
 1107 03c2 0D040000 		.4byte	0x40d
 1108 03c6 06       		.uleb128 0x6
 1109 03c7 3E050000 		.4byte	.LASF56
 1110 03cb 08       		.byte	0x8
 1111 03cc 5B       		.byte	0x5b
 1112 03cd 0D040000 		.4byte	0x40d
 1113 03d1 02       		.byte	0x2
 1114 03d2 23       		.byte	0x23
 1115 03d3 00       		.uleb128 0
 1116 03d4 06       		.uleb128 0x6
 1117 03d5 D1020000 		.4byte	.LASF57
 1118 03d9 08       		.byte	0x8
 1119 03da 5D       		.byte	0x5d
 1120 03db 0D040000 		.4byte	0x40d
 1121 03df 02       		.byte	0x2
 1122 03e0 23       		.byte	0x23
 1123 03e1 04       		.uleb128 0x4
 1124 03e2 06       		.uleb128 0x6
 1125 03e3 2C0A0000 		.4byte	.LASF58
 1126 03e7 08       		.byte	0x8
ARM GAS  /tmp/ccBwbhRg.s 			page 21


 1127 03e8 5F       		.byte	0x5f
 1128 03e9 1F010000 		.4byte	0x11f
 1129 03ed 02       		.byte	0x2
 1130 03ee 23       		.byte	0x23
 1131 03ef 08       		.uleb128 0x8
 1132 03f0 06       		.uleb128 0x6
 1133 03f1 1E040000 		.4byte	.LASF59
 1134 03f5 08       		.byte	0x8
 1135 03f6 60       		.byte	0x60
 1136 03f7 92030000 		.4byte	0x392
 1137 03fb 02       		.byte	0x2
 1138 03fc 23       		.byte	0x23
 1139 03fd 0C       		.uleb128 0xc
 1140 03fe 06       		.uleb128 0x6
 1141 03ff 53010000 		.4byte	.LASF60
 1142 0403 08       		.byte	0x8
 1143 0404 62       		.byte	0x62
 1144 0405 C8020000 		.4byte	0x2c8
 1145 0409 02       		.byte	0x2
 1146 040a 23       		.byte	0x23
 1147 040b 10       		.uleb128 0x10
 1148 040c 00       		.byte	0
 1149 040d 09       		.uleb128 0x9
 1150 040e 04       		.byte	0x4
 1151 040f AF030000 		.4byte	0x3af
 1152 0413 0D       		.uleb128 0xd
 1153 0414 1F010000 		.4byte	0x11f
 1154 0418 08       		.uleb128 0x8
 1155 0419 1C       		.byte	0x1c
 1156 041a 09       		.byte	0x9
 1157 041b 57       		.byte	0x57
 1158 041c 75040000 		.4byte	0x475
 1159 0420 06       		.uleb128 0x6
 1160 0421 09080000 		.4byte	.LASF61
 1161 0425 09       		.byte	0x9
 1162 0426 58       		.byte	0x58
 1163 0427 90020000 		.4byte	0x290
 1164 042b 02       		.byte	0x2
 1165 042c 23       		.byte	0x23
 1166 042d 00       		.uleb128 0
 1167 042e 06       		.uleb128 0x6
 1168 042f 8D080000 		.4byte	.LASF62
 1169 0433 09       		.byte	0x9
 1170 0434 59       		.byte	0x59
 1171 0435 F3000000 		.4byte	0xf3
 1172 0439 02       		.byte	0x2
 1173 043a 23       		.byte	0x23
 1174 043b 08       		.uleb128 0x8
 1175 043c 06       		.uleb128 0x6
 1176 043d B8000000 		.4byte	.LASF63
 1177 0441 09       		.byte	0x9
 1178 0442 5B       		.byte	0x5b
 1179 0443 63030000 		.4byte	0x363
 1180 0447 02       		.byte	0x2
 1181 0448 23       		.byte	0x23
 1182 0449 0C       		.uleb128 0xc
 1183 044a 06       		.uleb128 0x6
ARM GAS  /tmp/ccBwbhRg.s 			page 22


 1184 044b E0020000 		.4byte	.LASF64
 1185 044f 09       		.byte	0x9
 1186 0450 5E       		.byte	0x5e
 1187 0451 8A020000 		.4byte	0x28a
 1188 0455 02       		.byte	0x2
 1189 0456 23       		.byte	0x23
 1190 0457 10       		.uleb128 0x10
 1191 0458 06       		.uleb128 0x6
 1192 0459 45080000 		.4byte	.LASF65
 1193 045d 09       		.byte	0x9
 1194 045e 5F       		.byte	0x5f
 1195 045f 8A020000 		.4byte	0x28a
 1196 0463 02       		.byte	0x2
 1197 0464 23       		.byte	0x23
 1198 0465 14       		.uleb128 0x14
 1199 0466 06       		.uleb128 0x6
 1200 0467 BC070000 		.4byte	.LASF66
 1201 046b 09       		.byte	0x9
 1202 046c 62       		.byte	0x62
 1203 046d 8A020000 		.4byte	0x28a
 1204 0471 02       		.byte	0x2
 1205 0472 23       		.byte	0x23
 1206 0473 18       		.uleb128 0x18
 1207 0474 00       		.byte	0
 1208 0475 03       		.uleb128 0x3
 1209 0476 FD090000 		.4byte	.LASF67
 1210 047a 09       		.byte	0x9
 1211 047b 64       		.byte	0x64
 1212 047c 18040000 		.4byte	0x418
 1213 0480 05       		.uleb128 0x5
 1214 0481 D7060000 		.4byte	.LASF68
 1215 0485 0C       		.byte	0xc
 1216 0486 0A       		.byte	0xa
 1217 0487 25       		.byte	0x25
 1218 0488 A9040000 		.4byte	0x4a9
 1219 048c 06       		.uleb128 0x6
 1220 048d 5D080000 		.4byte	.LASF69
 1221 0491 0A       		.byte	0xa
 1222 0492 26       		.byte	0x26
 1223 0493 90020000 		.4byte	0x290
 1224 0497 02       		.byte	0x2
 1225 0498 23       		.byte	0x23
 1226 0499 00       		.uleb128 0
 1227 049a 06       		.uleb128 0x6
 1228 049b 0B070000 		.4byte	.LASF70
 1229 049f 0A       		.byte	0xa
 1230 04a0 28       		.byte	0x28
 1231 04a1 2A010000 		.4byte	0x12a
 1232 04a5 02       		.byte	0x2
 1233 04a6 23       		.byte	0x23
 1234 04a7 08       		.uleb128 0x8
 1235 04a8 00       		.byte	0
 1236 04a9 03       		.uleb128 0x3
 1237 04aa D7060000 		.4byte	.LASF68
 1238 04ae 0A       		.byte	0xa
 1239 04af 29       		.byte	0x29
 1240 04b0 80040000 		.4byte	0x480
ARM GAS  /tmp/ccBwbhRg.s 			page 23


 1241 04b4 05       		.uleb128 0x5
 1242 04b5 22050000 		.4byte	.LASF71
 1243 04b9 10       		.byte	0x10
 1244 04ba 0B       		.byte	0xb
 1245 04bb 25       		.byte	0x25
 1246 04bc EB040000 		.4byte	0x4eb
 1247 04c0 06       		.uleb128 0x6
 1248 04c1 36050000 		.4byte	.LASF72
 1249 04c5 0B       		.byte	0xb
 1250 04c6 26       		.byte	0x26
 1251 04c7 90020000 		.4byte	0x290
 1252 04cb 02       		.byte	0x2
 1253 04cc 23       		.byte	0x23
 1254 04cd 00       		.uleb128 0
 1255 04ce 06       		.uleb128 0x6
 1256 04cf 4B010000 		.4byte	.LASF73
 1257 04d3 0B       		.byte	0xb
 1258 04d4 28       		.byte	0x28
 1259 04d5 8A020000 		.4byte	0x28a
 1260 04d9 02       		.byte	0x2
 1261 04da 23       		.byte	0x23
 1262 04db 08       		.uleb128 0x8
 1263 04dc 06       		.uleb128 0x6
 1264 04dd 340A0000 		.4byte	.LASF74
 1265 04e1 0B       		.byte	0xb
 1266 04e2 2A       		.byte	0x2a
 1267 04e3 EB040000 		.4byte	0x4eb
 1268 04e7 02       		.byte	0x2
 1269 04e8 23       		.byte	0x23
 1270 04e9 0C       		.uleb128 0xc
 1271 04ea 00       		.byte	0
 1272 04eb 09       		.uleb128 0x9
 1273 04ec 04       		.byte	0x4
 1274 04ed B4040000 		.4byte	0x4b4
 1275 04f1 03       		.uleb128 0x3
 1276 04f2 22050000 		.4byte	.LASF71
 1277 04f6 0B       		.byte	0xb
 1278 04f7 2C       		.byte	0x2c
 1279 04f8 B4040000 		.4byte	0x4b4
 1280 04fc 03       		.uleb128 0x3
 1281 04fd E4080000 		.4byte	.LASF75
 1282 0501 0C       		.byte	0xc
 1283 0502 25       		.byte	0x25
 1284 0503 07050000 		.4byte	0x507
 1285 0507 05       		.uleb128 0x5
 1286 0508 E4080000 		.4byte	.LASF75
 1287 050c 10       		.byte	0x10
 1288 050d 0C       		.byte	0xc
 1289 050e 2A       		.byte	0x2a
 1290 050f 4C050000 		.4byte	0x54c
 1291 0513 06       		.uleb128 0x6
 1292 0514 E8040000 		.4byte	.LASF76
 1293 0518 0C       		.byte	0xc
 1294 0519 2B       		.byte	0x2b
 1295 051a 4C050000 		.4byte	0x54c
 1296 051e 02       		.byte	0x2
 1297 051f 23       		.byte	0x23
ARM GAS  /tmp/ccBwbhRg.s 			page 24


 1298 0520 00       		.uleb128 0
 1299 0521 06       		.uleb128 0x6
 1300 0522 680A0000 		.4byte	.LASF77
 1301 0526 0C       		.byte	0xc
 1302 0527 2E       		.byte	0x2e
 1303 0528 8A020000 		.4byte	0x28a
 1304 052c 02       		.byte	0x2
 1305 052d 23       		.byte	0x23
 1306 052e 04       		.uleb128 0x4
 1307 052f 06       		.uleb128 0x6
 1308 0530 F5090000 		.4byte	.LASF78
 1309 0534 0C       		.byte	0xc
 1310 0535 30       		.byte	0x30
 1311 0536 09010000 		.4byte	0x109
 1312 053a 02       		.byte	0x2
 1313 053b 23       		.byte	0x23
 1314 053c 08       		.uleb128 0x8
 1315 053d 06       		.uleb128 0x6
 1316 053e F5000000 		.4byte	.LASF79
 1317 0542 0C       		.byte	0xc
 1318 0543 33       		.byte	0x33
 1319 0544 14010000 		.4byte	0x114
 1320 0548 02       		.byte	0x2
 1321 0549 23       		.byte	0x23
 1322 054a 0C       		.uleb128 0xc
 1323 054b 00       		.byte	0
 1324 054c 09       		.uleb128 0x9
 1325 054d 04       		.byte	0x4
 1326 054e FC040000 		.4byte	0x4fc
 1327 0552 05       		.uleb128 0x5
 1328 0553 A7040000 		.4byte	.LASF80
 1329 0557 04       		.byte	0x4
 1330 0558 0C       		.byte	0xc
 1331 0559 3A       		.byte	0x3a
 1332 055a 6D050000 		.4byte	0x56d
 1333 055e 06       		.uleb128 0x6
 1334 055f 8D040000 		.4byte	.LASF81
 1335 0563 0C       		.byte	0xc
 1336 0564 3B       		.byte	0x3b
 1337 0565 4C050000 		.4byte	0x54c
 1338 0569 02       		.byte	0x2
 1339 056a 23       		.byte	0x23
 1340 056b 00       		.uleb128 0
 1341 056c 00       		.byte	0
 1342 056d 03       		.uleb128 0x3
 1343 056e A7040000 		.4byte	.LASF80
 1344 0572 0C       		.byte	0xc
 1345 0573 3E       		.byte	0x3e
 1346 0574 52050000 		.4byte	0x552
 1347 0578 10       		.uleb128 0x10
 1348 0579 04       		.byte	0x4
 1349 057a 06       		.byte	0x6
 1350 057b 8F       		.byte	0x8f
 1351 057c AD050000 		.4byte	0x5ad
 1352 0580 11       		.uleb128 0x11
 1353 0581 6F090000 		.4byte	.LASF82
 1354 0585 06       		.byte	0x6
ARM GAS  /tmp/ccBwbhRg.s 			page 25


 1355 0586 96       		.byte	0x96
 1356 0587 FE000000 		.4byte	0xfe
 1357 058b 11       		.uleb128 0x11
 1358 058c 5A010000 		.4byte	.LASF83
 1359 0590 06       		.byte	0x6
 1360 0591 9D       		.byte	0x9d
 1361 0592 FE000000 		.4byte	0xfe
 1362 0596 11       		.uleb128 0x11
 1363 0597 5E030000 		.4byte	.LASF84
 1364 059b 06       		.byte	0x6
 1365 059c A4       		.byte	0xa4
 1366 059d C8020000 		.4byte	0x2c8
 1367 05a1 11       		.uleb128 0x11
 1368 05a2 63010000 		.4byte	.LASF85
 1369 05a6 06       		.byte	0x6
 1370 05a7 AB       		.byte	0xab
 1371 05a8 09010000 		.4byte	0x109
 1372 05ac 00       		.byte	0
 1373 05ad 09       		.uleb128 0x9
 1374 05ae 04       		.byte	0x4
 1375 05af B3050000 		.4byte	0x5b3
 1376 05b3 12       		.uleb128 0x12
 1377 05b4 B8050000 		.4byte	0x5b8
 1378 05b8 04       		.uleb128 0x4
 1379 05b9 01       		.byte	0x1
 1380 05ba 08       		.byte	0x8
 1381 05bb 2D030000 		.4byte	.LASF86
 1382 05bf 09       		.uleb128 0x9
 1383 05c0 04       		.byte	0x4
 1384 05c1 F1040000 		.4byte	0x4f1
 1385 05c5 09       		.uleb128 0x9
 1386 05c6 04       		.byte	0x4
 1387 05c7 54000000 		.4byte	0x54
 1388 05cb 0D       		.uleb128 0xd
 1389 05cc 7F000000 		.4byte	0x7f
 1390 05d0 13       		.uleb128 0x13
 1391 05d1 01       		.byte	0x1
 1392 05d2 0D       		.byte	0xd
 1393 05d3 48       		.byte	0x48
 1394 05d4 EB050000 		.4byte	0x5eb
 1395 05d8 14       		.uleb128 0x14
 1396 05d9 22010000 		.4byte	.LASF87
 1397 05dd 00       		.sleb128 0
 1398 05de 14       		.uleb128 0x14
 1399 05df 54090000 		.4byte	.LASF88
 1400 05e3 01       		.sleb128 1
 1401 05e4 14       		.uleb128 0x14
 1402 05e5 46050000 		.4byte	.LASF89
 1403 05e9 02       		.sleb128 2
 1404 05ea 00       		.byte	0
 1405 05eb 03       		.uleb128 0x3
 1406 05ec D9080000 		.4byte	.LASF90
 1407 05f0 0D       		.byte	0xd
 1408 05f1 4C       		.byte	0x4c
 1409 05f2 D0050000 		.4byte	0x5d0
 1410 05f6 03       		.uleb128 0x3
 1411 05f7 0B050000 		.4byte	.LASF91
ARM GAS  /tmp/ccBwbhRg.s 			page 26


 1412 05fb 0D       		.byte	0xd
 1413 05fc 51       		.byte	0x51
 1414 05fd 01060000 		.4byte	0x601
 1415 0601 05       		.uleb128 0x5
 1416 0602 0B050000 		.4byte	.LASF91
 1417 0606 34       		.byte	0x34
 1418 0607 0E       		.byte	0xe
 1419 0608 EB       		.byte	0xeb
 1420 0609 91060000 		.4byte	0x691
 1421 060d 06       		.uleb128 0x6
 1422 060e 05010000 		.4byte	.LASF92
 1423 0612 0E       		.byte	0xe
 1424 0613 EF       		.byte	0xef
 1425 0614 EB050000 		.4byte	0x5eb
 1426 0618 02       		.byte	0x2
 1427 0619 23       		.byte	0x23
 1428 061a 00       		.uleb128 0
 1429 061b 06       		.uleb128 0x6
 1430 061c FE000000 		.4byte	.LASF93
 1431 0620 0E       		.byte	0xe
 1432 0621 F3       		.byte	0xf3
 1433 0622 4B070000 		.4byte	0x74b
 1434 0626 02       		.byte	0x2
 1435 0627 23       		.byte	0x23
 1436 0628 04       		.uleb128 0x4
 1437 0629 06       		.uleb128 0x6
 1438 062a 260A0000 		.4byte	.LASF94
 1439 062e 0E       		.byte	0xe
 1440 062f F7       		.byte	0xf7
 1441 0630 A9040000 		.4byte	0x4a9
 1442 0634 02       		.byte	0x2
 1443 0635 23       		.byte	0x23
 1444 0636 08       		.uleb128 0x8
 1445 0637 06       		.uleb128 0x6
 1446 0638 4B030000 		.4byte	.LASF95
 1447 063c 0E       		.byte	0xe
 1448 063d FB       		.byte	0xfb
 1449 063e A9040000 		.4byte	0x4a9
 1450 0642 02       		.byte	0x2
 1451 0643 23       		.byte	0x23
 1452 0644 14       		.uleb128 0x14
 1453 0645 15       		.uleb128 0x15
 1454 0646 7E030000 		.4byte	.LASF96
 1455 064a 0E       		.byte	0xe
 1456 064b 0001     		.2byte	0x100
 1457 064d 6D050000 		.4byte	0x56d
 1458 0651 02       		.byte	0x2
 1459 0652 23       		.byte	0x23
 1460 0653 20       		.uleb128 0x20
 1461 0654 15       		.uleb128 0x15
 1462 0655 3D080000 		.4byte	.LASF97
 1463 0659 0E       		.byte	0xe
 1464 065a 0601     		.2byte	0x106
 1465 065c BC000000 		.4byte	0xbc
 1466 0660 02       		.byte	0x2
 1467 0661 23       		.byte	0x23
 1468 0662 24       		.uleb128 0x24
ARM GAS  /tmp/ccBwbhRg.s 			page 27


 1469 0663 15       		.uleb128 0x15
 1470 0664 ED000000 		.4byte	.LASF98
 1471 0668 0E       		.byte	0xe
 1472 0669 0A01     		.2byte	0x10a
 1473 066b 91000000 		.4byte	0x91
 1474 066f 02       		.byte	0x2
 1475 0670 23       		.byte	0x23
 1476 0671 28       		.uleb128 0x28
 1477 0672 15       		.uleb128 0x15
 1478 0673 3E030000 		.4byte	.LASF99
 1479 0677 0E       		.byte	0xe
 1480 0678 0E01     		.2byte	0x10e
 1481 067a 56070000 		.4byte	0x756
 1482 067e 02       		.byte	0x2
 1483 067f 23       		.byte	0x23
 1484 0680 2C       		.uleb128 0x2c
 1485 0681 15       		.uleb128 0x15
 1486 0682 100A0000 		.4byte	.LASF100
 1487 0686 0E       		.byte	0xe
 1488 0687 1201     		.2byte	0x112
 1489 0689 5C070000 		.4byte	0x75c
 1490 068d 02       		.byte	0x2
 1491 068e 23       		.byte	0x23
 1492 068f 30       		.uleb128 0x30
 1493 0690 00       		.byte	0
 1494 0691 08       		.uleb128 0x8
 1495 0692 10       		.byte	0x10
 1496 0693 0E       		.byte	0xe
 1497 0694 CC       		.byte	0xcc
 1498 0695 D2060000 		.4byte	0x6d2
 1499 0699 06       		.uleb128 0x6
 1500 069a F2080000 		.4byte	.LASF101
 1501 069e 0E       		.byte	0xe
 1502 069f CD       		.byte	0xcd
 1503 06a0 86030000 		.4byte	0x386
 1504 06a4 02       		.byte	0x2
 1505 06a5 23       		.byte	0x23
 1506 06a6 00       		.uleb128 0
 1507 06a7 06       		.uleb128 0x6
 1508 06a8 F8080000 		.4byte	.LASF102
 1509 06ac 0E       		.byte	0xe
 1510 06ad CE       		.byte	0xce
 1511 06ae 86030000 		.4byte	0x386
 1512 06b2 02       		.byte	0x2
 1513 06b3 23       		.byte	0x23
 1514 06b4 04       		.uleb128 0x4
 1515 06b5 06       		.uleb128 0x6
 1516 06b6 FE080000 		.4byte	.LASF103
 1517 06ba 0E       		.byte	0xe
 1518 06bb CF       		.byte	0xcf
 1519 06bc 86030000 		.4byte	0x386
 1520 06c0 02       		.byte	0x2
 1521 06c1 23       		.byte	0x23
 1522 06c2 08       		.uleb128 0x8
 1523 06c3 06       		.uleb128 0x6
 1524 06c4 04090000 		.4byte	.LASF104
 1525 06c8 0E       		.byte	0xe
ARM GAS  /tmp/ccBwbhRg.s 			page 28


 1526 06c9 D0       		.byte	0xd0
 1527 06ca 86030000 		.4byte	0x386
 1528 06ce 02       		.byte	0x2
 1529 06cf 23       		.byte	0x23
 1530 06d0 0C       		.uleb128 0xc
 1531 06d1 00       		.byte	0
 1532 06d2 03       		.uleb128 0x3
 1533 06d3 B7020000 		.4byte	.LASF105
 1534 06d7 0E       		.byte	0xe
 1535 06d8 D1       		.byte	0xd1
 1536 06d9 91060000 		.4byte	0x691
 1537 06dd 08       		.uleb128 0x8
 1538 06de 10       		.byte	0x10
 1539 06df 0E       		.byte	0xe
 1540 06e0 D6       		.byte	0xd6
 1541 06e1 1E070000 		.4byte	0x71e
 1542 06e5 06       		.uleb128 0x6
 1543 06e6 23060000 		.4byte	.LASF106
 1544 06ea 0E       		.byte	0xe
 1545 06eb D7       		.byte	0xd7
 1546 06ec 86030000 		.4byte	0x386
 1547 06f0 02       		.byte	0x2
 1548 06f1 23       		.byte	0x23
 1549 06f2 00       		.uleb128 0
 1550 06f3 06       		.uleb128 0x6
 1551 06f4 29060000 		.4byte	.LASF107
 1552 06f8 0E       		.byte	0xe
 1553 06f9 D8       		.byte	0xd8
 1554 06fa 86030000 		.4byte	0x386
 1555 06fe 02       		.byte	0x2
 1556 06ff 23       		.byte	0x23
 1557 0700 04       		.uleb128 0x4
 1558 0701 06       		.uleb128 0x6
 1559 0702 2F060000 		.4byte	.LASF108
 1560 0706 0E       		.byte	0xe
 1561 0707 D9       		.byte	0xd9
 1562 0708 86030000 		.4byte	0x386
 1563 070c 02       		.byte	0x2
 1564 070d 23       		.byte	0x23
 1565 070e 08       		.uleb128 0x8
 1566 070f 06       		.uleb128 0x6
 1567 0710 35060000 		.4byte	.LASF109
 1568 0714 0E       		.byte	0xe
 1569 0715 DA       		.byte	0xda
 1570 0716 86030000 		.4byte	0x386
 1571 071a 02       		.byte	0x2
 1572 071b 23       		.byte	0x23
 1573 071c 0C       		.uleb128 0xc
 1574 071d 00       		.byte	0
 1575 071e 03       		.uleb128 0x3
 1576 071f A4090000 		.4byte	.LASF110
 1577 0723 0E       		.byte	0xe
 1578 0724 DB       		.byte	0xdb
 1579 0725 DD060000 		.4byte	0x6dd
 1580 0729 08       		.uleb128 0x8
 1581 072a 04       		.byte	0x4
 1582 072b 0E       		.byte	0xe
ARM GAS  /tmp/ccBwbhRg.s 			page 29


 1583 072c E0       		.byte	0xe0
 1584 072d 40070000 		.4byte	0x740
 1585 0731 06       		.uleb128 0x6
 1586 0732 CD010000 		.4byte	.LASF111
 1587 0736 0E       		.byte	0xe
 1588 0737 E4       		.byte	0xe4
 1589 0738 C5050000 		.4byte	0x5c5
 1590 073c 02       		.byte	0x2
 1591 073d 23       		.byte	0x23
 1592 073e 00       		.uleb128 0
 1593 073f 00       		.byte	0
 1594 0740 03       		.uleb128 0x3
 1595 0741 EB070000 		.4byte	.LASF112
 1596 0745 0E       		.byte	0xe
 1597 0746 E6       		.byte	0xe6
 1598 0747 29070000 		.4byte	0x729
 1599 074b 09       		.uleb128 0x9
 1600 074c 04       		.byte	0x4
 1601 074d 51070000 		.4byte	0x751
 1602 0751 12       		.uleb128 0x12
 1603 0752 40070000 		.4byte	0x740
 1604 0756 09       		.uleb128 0x9
 1605 0757 04       		.byte	0x4
 1606 0758 D2060000 		.4byte	0x6d2
 1607 075c 09       		.uleb128 0x9
 1608 075d 04       		.byte	0x4
 1609 075e 1E070000 		.4byte	0x71e
 1610 0762 16       		.uleb128 0x16
 1611 0763 0C       		.byte	0xc
 1612 0764 0E       		.byte	0xe
 1613 0765 1801     		.2byte	0x118
 1614 0767 99070000 		.4byte	0x799
 1615 076b 15       		.uleb128 0x15
 1616 076c 66060000 		.4byte	.LASF113
 1617 0770 0E       		.byte	0xe
 1618 0771 1C01     		.2byte	0x11c
 1619 0773 30000000 		.4byte	0x30
 1620 0777 02       		.byte	0x2
 1621 0778 23       		.byte	0x23
 1622 0779 00       		.uleb128 0
 1623 077a 15       		.uleb128 0x15
 1624 077b 25070000 		.4byte	.LASF114
 1625 077f 0E       		.byte	0xe
 1626 0780 2001     		.2byte	0x120
 1627 0782 30000000 		.4byte	0x30
 1628 0786 02       		.byte	0x2
 1629 0787 23       		.byte	0x23
 1630 0788 04       		.uleb128 0x4
 1631 0789 15       		.uleb128 0x15
 1632 078a 88090000 		.4byte	.LASF115
 1633 078e 0E       		.byte	0xe
 1634 078f 2501     		.2byte	0x125
 1635 0791 5C070000 		.4byte	0x75c
 1636 0795 02       		.byte	0x2
 1637 0796 23       		.byte	0x23
 1638 0797 08       		.uleb128 0x8
 1639 0798 00       		.byte	0
ARM GAS  /tmp/ccBwbhRg.s 			page 30


 1640 0799 17       		.uleb128 0x17
 1641 079a 41070000 		.4byte	.LASF116
 1642 079e 0E       		.byte	0xe
 1643 079f 2601     		.2byte	0x126
 1644 07a1 62070000 		.4byte	0x762
 1645 07a5 16       		.uleb128 0x16
 1646 07a6 0C       		.byte	0xc
 1647 07a7 0E       		.byte	0xe
 1648 07a8 2B01     		.2byte	0x12b
 1649 07aa DC070000 		.4byte	0x7dc
 1650 07ae 15       		.uleb128 0x15
 1651 07af 66060000 		.4byte	.LASF113
 1652 07b3 0E       		.byte	0xe
 1653 07b4 2F01     		.2byte	0x12f
 1654 07b6 30000000 		.4byte	0x30
 1655 07ba 02       		.byte	0x2
 1656 07bb 23       		.byte	0x23
 1657 07bc 00       		.uleb128 0
 1658 07bd 15       		.uleb128 0x15
 1659 07be 25070000 		.4byte	.LASF114
 1660 07c2 0E       		.byte	0xe
 1661 07c3 3301     		.2byte	0x133
 1662 07c5 30000000 		.4byte	0x30
 1663 07c9 02       		.byte	0x2
 1664 07ca 23       		.byte	0x23
 1665 07cb 04       		.uleb128 0x4
 1666 07cc 15       		.uleb128 0x15
 1667 07cd 88090000 		.4byte	.LASF115
 1668 07d1 0E       		.byte	0xe
 1669 07d2 3801     		.2byte	0x138
 1670 07d4 56070000 		.4byte	0x756
 1671 07d8 02       		.byte	0x2
 1672 07d9 23       		.byte	0x23
 1673 07da 08       		.uleb128 0x8
 1674 07db 00       		.byte	0
 1675 07dc 17       		.uleb128 0x17
 1676 07dd E0090000 		.4byte	.LASF117
 1677 07e1 0E       		.byte	0xe
 1678 07e2 3901     		.2byte	0x139
 1679 07e4 A5070000 		.4byte	0x7a5
 1680 07e8 08       		.uleb128 0x8
 1681 07e9 1C       		.byte	0x1c
 1682 07ea 0F       		.byte	0xf
 1683 07eb 2B       		.byte	0x2b
 1684 07ec 1B080000 		.4byte	0x81b
 1685 07f0 06       		.uleb128 0x6
 1686 07f1 4A060000 		.4byte	.LASF118
 1687 07f5 0F       		.byte	0xf
 1688 07f6 2C       		.byte	0x2c
 1689 07f7 AF030000 		.4byte	0x3af
 1690 07fb 02       		.byte	0x2
 1691 07fc 23       		.byte	0x23
 1692 07fd 00       		.uleb128 0
 1693 07fe 06       		.uleb128 0x6
 1694 07ff AE010000 		.4byte	.LASF119
 1695 0803 0F       		.byte	0xf
 1696 0804 2D       		.byte	0x2d
ARM GAS  /tmp/ccBwbhRg.s 			page 31


 1697 0805 6D050000 		.4byte	0x56d
 1698 0809 02       		.byte	0x2
 1699 080a 23       		.byte	0x23
 1700 080b 14       		.uleb128 0x14
 1701 080c 06       		.uleb128 0x6
 1702 080d D1050000 		.4byte	.LASF120
 1703 0811 0F       		.byte	0xf
 1704 0812 2E       		.byte	0x2e
 1705 0813 1F010000 		.4byte	0x11f
 1706 0817 02       		.byte	0x2
 1707 0818 23       		.byte	0x23
 1708 0819 18       		.uleb128 0x18
 1709 081a 00       		.byte	0
 1710 081b 03       		.uleb128 0x3
 1711 081c 1A050000 		.4byte	.LASF121
 1712 0820 0F       		.byte	0xf
 1713 0821 2F       		.byte	0x2f
 1714 0822 E8070000 		.4byte	0x7e8
 1715 0826 03       		.uleb128 0x3
 1716 0827 CE090000 		.4byte	.LASF122
 1717 082b 10       		.byte	0x10
 1718 082c 3C       		.byte	0x3c
 1719 082d 54000000 		.4byte	0x54
 1720 0831 03       		.uleb128 0x3
 1721 0832 A8000000 		.4byte	.LASF123
 1722 0836 10       		.byte	0x10
 1723 0837 3D       		.byte	0x3d
 1724 0838 42000000 		.4byte	0x42
 1725 083c 03       		.uleb128 0x3
 1726 083d F7050000 		.4byte	.LASF124
 1727 0841 10       		.byte	0x10
 1728 0842 3E       		.byte	0x3e
 1729 0843 6D000000 		.4byte	0x6d
 1730 0847 03       		.uleb128 0x3
 1731 0848 29080000 		.4byte	.LASF125
 1732 084c 10       		.byte	0x10
 1733 084d 40       		.byte	0x40
 1734 084e 91000000 		.4byte	0x91
 1735 0852 03       		.uleb128 0x3
 1736 0853 AF030000 		.4byte	.LASF126
 1737 0857 11       		.byte	0x11
 1738 0858 4B       		.byte	0x4b
 1739 0859 3C080000 		.4byte	0x83c
 1740 085d 03       		.uleb128 0x3
 1741 085e EC060000 		.4byte	.LASF127
 1742 0862 12       		.byte	0x12
 1743 0863 2F       		.byte	0x2f
 1744 0864 31080000 		.4byte	0x831
 1745 0868 13       		.uleb128 0x13
 1746 0869 01       		.byte	0x1
 1747 086a 13       		.byte	0x13
 1748 086b 32       		.byte	0x32
 1749 086c 89080000 		.4byte	0x889
 1750 0870 14       		.uleb128 0x14
 1751 0871 2B090000 		.4byte	.LASF128
 1752 0875 00       		.sleb128 0
 1753 0876 14       		.uleb128 0x14
ARM GAS  /tmp/ccBwbhRg.s 			page 32


 1754 0877 0A060000 		.4byte	.LASF129
 1755 087b 01       		.sleb128 1
 1756 087c 14       		.uleb128 0x14
 1757 087d 580A0000 		.4byte	.LASF130
 1758 0881 02       		.sleb128 2
 1759 0882 14       		.uleb128 0x14
 1760 0883 160A0000 		.4byte	.LASF131
 1761 0887 03       		.sleb128 3
 1762 0888 00       		.byte	0
 1763 0889 03       		.uleb128 0x3
 1764 088a F5070000 		.4byte	.LASF132
 1765 088e 13       		.byte	0x13
 1766 088f 37       		.byte	0x37
 1767 0890 68080000 		.4byte	0x868
 1768 0894 13       		.uleb128 0x13
 1769 0895 01       		.byte	0x1
 1770 0896 13       		.byte	0x13
 1771 0897 39       		.byte	0x39
 1772 0898 B5080000 		.4byte	0x8b5
 1773 089c 14       		.uleb128 0x14
 1774 089d 070A0000 		.4byte	.LASF133
 1775 08a1 00       		.sleb128 0
 1776 08a2 14       		.uleb128 0x14
 1777 08a3 D3040000 		.4byte	.LASF134
 1778 08a7 01       		.sleb128 1
 1779 08a8 14       		.uleb128 0x14
 1780 08a9 2D010000 		.4byte	.LASF135
 1781 08ad 02       		.sleb128 2
 1782 08ae 14       		.uleb128 0x14
 1783 08af 07030000 		.4byte	.LASF136
 1784 08b3 03       		.sleb128 3
 1785 08b4 00       		.byte	0
 1786 08b5 03       		.uleb128 0x3
 1787 08b6 5C060000 		.4byte	.LASF137
 1788 08ba 13       		.byte	0x13
 1789 08bb 3E       		.byte	0x3e
 1790 08bc 94080000 		.4byte	0x894
 1791 08c0 05       		.uleb128 0x5
 1792 08c1 39030000 		.4byte	.LASF138
 1793 08c5 10       		.byte	0x10
 1794 08c6 13       		.byte	0x13
 1795 08c7 49       		.byte	0x49
 1796 08c8 2F090000 		.4byte	0x92f
 1797 08cc 06       		.uleb128 0x6
 1798 08cd C8060000 		.4byte	.LASF139
 1799 08d1 13       		.byte	0x13
 1800 08d2 4B       		.byte	0x4b
 1801 08d3 2F090000 		.4byte	0x92f
 1802 08d7 02       		.byte	0x2
 1803 08d8 23       		.byte	0x23
 1804 08d9 00       		.uleb128 0
 1805 08da 06       		.uleb128 0x6
 1806 08db F0040000 		.4byte	.LASF140
 1807 08df 13       		.byte	0x13
 1808 08e0 4E       		.byte	0x4e
 1809 08e1 C8020000 		.4byte	0x2c8
 1810 08e5 02       		.byte	0x2
ARM GAS  /tmp/ccBwbhRg.s 			page 33


 1811 08e6 23       		.byte	0x23
 1812 08e7 04       		.uleb128 0x4
 1813 08e8 06       		.uleb128 0x6
 1814 08e9 C0060000 		.4byte	.LASF141
 1815 08ed 13       		.byte	0x13
 1816 08ee 57       		.byte	0x57
 1817 08ef 3C080000 		.4byte	0x83c
 1818 08f3 02       		.byte	0x2
 1819 08f4 23       		.byte	0x23
 1820 08f5 08       		.uleb128 0x8
 1821 08f6 07       		.uleb128 0x7
 1822 08f7 6C656E00 		.ascii	"len\000"
 1823 08fb 13       		.byte	0x13
 1824 08fc 5A       		.byte	0x5a
 1825 08fd 3C080000 		.4byte	0x83c
 1826 0901 02       		.byte	0x2
 1827 0902 23       		.byte	0x23
 1828 0903 0A       		.uleb128 0xa
 1829 0904 06       		.uleb128 0x6
 1830 0905 11010000 		.4byte	.LASF142
 1831 0909 13       		.byte	0x13
 1832 090a 5D       		.byte	0x5d
 1833 090b 26080000 		.4byte	0x826
 1834 090f 02       		.byte	0x2
 1835 0910 23       		.byte	0x23
 1836 0911 0C       		.uleb128 0xc
 1837 0912 06       		.uleb128 0x6
 1838 0913 86030000 		.4byte	.LASF143
 1839 0917 13       		.byte	0x13
 1840 0918 60       		.byte	0x60
 1841 0919 26080000 		.4byte	0x826
 1842 091d 02       		.byte	0x2
 1843 091e 23       		.byte	0x23
 1844 091f 0D       		.uleb128 0xd
 1845 0920 07       		.uleb128 0x7
 1846 0921 72656600 		.ascii	"ref\000"
 1847 0925 13       		.byte	0x13
 1848 0926 67       		.byte	0x67
 1849 0927 3C080000 		.4byte	0x83c
 1850 092b 02       		.byte	0x2
 1851 092c 23       		.byte	0x23
 1852 092d 0E       		.uleb128 0xe
 1853 092e 00       		.byte	0
 1854 092f 09       		.uleb128 0x9
 1855 0930 04       		.byte	0x4
 1856 0931 C0080000 		.4byte	0x8c0
 1857 0935 13       		.uleb128 0x13
 1858 0936 01       		.byte	0x1
 1859 0937 14       		.byte	0x14
 1860 0938 2B       		.byte	0x2b
 1861 0939 98090000 		.4byte	0x998
 1862 093d 14       		.uleb128 0x14
 1863 093e 51030000 		.4byte	.LASF144
 1864 0942 00       		.sleb128 0
 1865 0943 14       		.uleb128 0x14
 1866 0944 57070000 		.4byte	.LASF145
 1867 0948 01       		.sleb128 1
ARM GAS  /tmp/ccBwbhRg.s 			page 34


 1868 0949 14       		.uleb128 0x14
 1869 094a 8A000000 		.4byte	.LASF146
 1870 094e 02       		.sleb128 2
 1871 094f 14       		.uleb128 0x14
 1872 0950 440A0000 		.4byte	.LASF147
 1873 0954 03       		.sleb128 3
 1874 0955 14       		.uleb128 0x14
 1875 0956 6C070000 		.4byte	.LASF148
 1876 095a 04       		.sleb128 4
 1877 095b 14       		.uleb128 0x14
 1878 095c FC060000 		.4byte	.LASF149
 1879 0960 05       		.sleb128 5
 1880 0961 14       		.uleb128 0x14
 1881 0962 16070000 		.4byte	.LASF150
 1882 0966 06       		.sleb128 6
 1883 0967 14       		.uleb128 0x14
 1884 0968 E8020000 		.4byte	.LASF151
 1885 096c 07       		.sleb128 7
 1886 096d 14       		.uleb128 0x14
 1887 096e 39040000 		.4byte	.LASF152
 1888 0972 08       		.sleb128 8
 1889 0973 14       		.uleb128 0x14
 1890 0974 26040000 		.4byte	.LASF153
 1891 0978 09       		.sleb128 9
 1892 0979 14       		.uleb128 0x14
 1893 097a 88070000 		.4byte	.LASF154
 1894 097e 0A       		.sleb128 10
 1895 097f 14       		.uleb128 0x14
 1896 0980 CF000000 		.4byte	.LASF155
 1897 0984 0B       		.sleb128 11
 1898 0985 14       		.uleb128 0x14
 1899 0986 65080000 		.4byte	.LASF156
 1900 098a 0C       		.sleb128 12
 1901 098b 14       		.uleb128 0x14
 1902 098c EF010000 		.4byte	.LASF157
 1903 0990 0D       		.sleb128 13
 1904 0991 14       		.uleb128 0x14
 1905 0992 20080000 		.4byte	.LASF158
 1906 0996 0E       		.sleb128 14
 1907 0997 00       		.byte	0
 1908 0998 05       		.uleb128 0x5
 1909 0999 7F050000 		.4byte	.LASF159
 1910 099d 18       		.byte	0x18
 1911 099e 15       		.byte	0x15
 1912 099f 3A       		.byte	0x3a
 1913 09a0 4C0A0000 		.4byte	0xa4c
 1914 09a4 06       		.uleb128 0x6
 1915 09a5 15050000 		.4byte	.LASF160
 1916 09a9 15       		.byte	0x15
 1917 09aa 3B       		.byte	0x3b
 1918 09ab 3C080000 		.4byte	0x83c
 1919 09af 02       		.byte	0x2
 1920 09b0 23       		.byte	0x23
 1921 09b1 00       		.uleb128 0
 1922 09b2 06       		.uleb128 0x6
 1923 09b3 B6060000 		.4byte	.LASF161
 1924 09b7 15       		.byte	0x15
ARM GAS  /tmp/ccBwbhRg.s 			page 35


 1925 09b8 3C       		.byte	0x3c
 1926 09b9 3C080000 		.4byte	0x83c
 1927 09bd 02       		.byte	0x2
 1928 09be 23       		.byte	0x23
 1929 09bf 02       		.uleb128 0x2
 1930 09c0 07       		.uleb128 0x7
 1931 09c1 667700   		.ascii	"fw\000"
 1932 09c4 15       		.byte	0x15
 1933 09c5 3D       		.byte	0x3d
 1934 09c6 3C080000 		.4byte	0x83c
 1935 09ca 02       		.byte	0x2
 1936 09cb 23       		.byte	0x23
 1937 09cc 04       		.uleb128 0x4
 1938 09cd 06       		.uleb128 0x6
 1939 09ce F4020000 		.4byte	.LASF162
 1940 09d2 15       		.byte	0x15
 1941 09d3 3E       		.byte	0x3e
 1942 09d4 3C080000 		.4byte	0x83c
 1943 09d8 02       		.byte	0x2
 1944 09d9 23       		.byte	0x23
 1945 09da 06       		.uleb128 0x6
 1946 09db 06       		.uleb128 0x6
 1947 09dc E4070000 		.4byte	.LASF163
 1948 09e0 15       		.byte	0x15
 1949 09e1 3F       		.byte	0x3f
 1950 09e2 3C080000 		.4byte	0x83c
 1951 09e6 02       		.byte	0x2
 1952 09e7 23       		.byte	0x23
 1953 09e8 08       		.uleb128 0x8
 1954 09e9 06       		.uleb128 0x6
 1955 09ea D9020000 		.4byte	.LASF164
 1956 09ee 15       		.byte	0x15
 1957 09ef 40       		.byte	0x40
 1958 09f0 3C080000 		.4byte	0x83c
 1959 09f4 02       		.byte	0x2
 1960 09f5 23       		.byte	0x23
 1961 09f6 0A       		.uleb128 0xa
 1962 09f7 06       		.uleb128 0x6
 1963 09f8 E0030000 		.4byte	.LASF165
 1964 09fc 15       		.byte	0x15
 1965 09fd 41       		.byte	0x41
 1966 09fe 3C080000 		.4byte	0x83c
 1967 0a02 02       		.byte	0x2
 1968 0a03 23       		.byte	0x23
 1969 0a04 0C       		.uleb128 0xc
 1970 0a05 06       		.uleb128 0x6
 1971 0a06 E0000000 		.4byte	.LASF166
 1972 0a0a 15       		.byte	0x15
 1973 0a0b 42       		.byte	0x42
 1974 0a0c 3C080000 		.4byte	0x83c
 1975 0a10 02       		.byte	0x2
 1976 0a11 23       		.byte	0x23
 1977 0a12 0E       		.uleb128 0xe
 1978 0a13 06       		.uleb128 0x6
 1979 0a14 51000000 		.4byte	.LASF167
 1980 0a18 15       		.byte	0x15
 1981 0a19 43       		.byte	0x43
ARM GAS  /tmp/ccBwbhRg.s 			page 36


 1982 0a1a 3C080000 		.4byte	0x83c
 1983 0a1e 02       		.byte	0x2
 1984 0a1f 23       		.byte	0x23
 1985 0a20 10       		.uleb128 0x10
 1986 0a21 06       		.uleb128 0x6
 1987 0a22 CE070000 		.4byte	.LASF168
 1988 0a26 15       		.byte	0x15
 1989 0a27 44       		.byte	0x44
 1990 0a28 3C080000 		.4byte	0x83c
 1991 0a2c 02       		.byte	0x2
 1992 0a2d 23       		.byte	0x23
 1993 0a2e 12       		.uleb128 0x12
 1994 0a2f 07       		.uleb128 0x7
 1995 0a30 65727200 		.ascii	"err\000"
 1996 0a34 15       		.byte	0x15
 1997 0a35 45       		.byte	0x45
 1998 0a36 3C080000 		.4byte	0x83c
 1999 0a3a 02       		.byte	0x2
 2000 0a3b 23       		.byte	0x23
 2001 0a3c 14       		.uleb128 0x14
 2002 0a3d 06       		.uleb128 0x6
 2003 0a3e D7030000 		.4byte	.LASF169
 2004 0a42 15       		.byte	0x15
 2005 0a43 46       		.byte	0x46
 2006 0a44 3C080000 		.4byte	0x83c
 2007 0a48 02       		.byte	0x2
 2008 0a49 23       		.byte	0x23
 2009 0a4a 16       		.uleb128 0x16
 2010 0a4b 00       		.byte	0
 2011 0a4c 05       		.uleb128 0x5
 2012 0a4d B2070000 		.4byte	.LASF170
 2013 0a51 0A       		.byte	0xa
 2014 0a52 15       		.byte	0x15
 2015 0a53 5A       		.byte	0x5a
 2016 0a54 9F0A0000 		.4byte	0xa9f
 2017 0a58 06       		.uleb128 0x6
 2018 0a59 C7010000 		.4byte	.LASF171
 2019 0a5d 15       		.byte	0x15
 2020 0a5e 5E       		.byte	0x5e
 2021 0a5f 52080000 		.4byte	0x852
 2022 0a63 02       		.byte	0x2
 2023 0a64 23       		.byte	0x23
 2024 0a65 00       		.uleb128 0
 2025 0a66 06       		.uleb128 0x6
 2026 0a67 BB060000 		.4byte	.LASF172
 2027 0a6b 15       		.byte	0x15
 2028 0a6c 5F       		.byte	0x5f
 2029 0a6d 52080000 		.4byte	0x852
 2030 0a71 02       		.byte	0x2
 2031 0a72 23       		.byte	0x23
 2032 0a73 02       		.uleb128 0x2
 2033 0a74 07       		.uleb128 0x7
 2034 0a75 6D617800 		.ascii	"max\000"
 2035 0a79 15       		.byte	0x15
 2036 0a7a 60       		.byte	0x60
 2037 0a7b 52080000 		.4byte	0x852
 2038 0a7f 02       		.byte	0x2
ARM GAS  /tmp/ccBwbhRg.s 			page 37


 2039 0a80 23       		.byte	0x23
 2040 0a81 04       		.uleb128 0x4
 2041 0a82 07       		.uleb128 0x7
 2042 0a83 65727200 		.ascii	"err\000"
 2043 0a87 15       		.byte	0x15
 2044 0a88 61       		.byte	0x61
 2045 0a89 3C080000 		.4byte	0x83c
 2046 0a8d 02       		.byte	0x2
 2047 0a8e 23       		.byte	0x23
 2048 0a8f 06       		.uleb128 0x6
 2049 0a90 06       		.uleb128 0x6
 2050 0a91 C6070000 		.4byte	.LASF173
 2051 0a95 15       		.byte	0x15
 2052 0a96 62       		.byte	0x62
 2053 0a97 3C080000 		.4byte	0x83c
 2054 0a9b 02       		.byte	0x2
 2055 0a9c 23       		.byte	0x23
 2056 0a9d 08       		.uleb128 0x8
 2057 0a9e 00       		.byte	0
 2058 0a9f 05       		.uleb128 0x5
 2059 0aa0 71050000 		.4byte	.LASF174
 2060 0aa4 06       		.byte	0x6
 2061 0aa5 15       		.byte	0x15
 2062 0aa6 65       		.byte	0x65
 2063 0aa7 D60A0000 		.4byte	0xad6
 2064 0aab 06       		.uleb128 0x6
 2065 0aac BB060000 		.4byte	.LASF172
 2066 0ab0 15       		.byte	0x15
 2067 0ab1 66       		.byte	0x66
 2068 0ab2 3C080000 		.4byte	0x83c
 2069 0ab6 02       		.byte	0x2
 2070 0ab7 23       		.byte	0x23
 2071 0ab8 00       		.uleb128 0
 2072 0ab9 07       		.uleb128 0x7
 2073 0aba 6D617800 		.ascii	"max\000"
 2074 0abe 15       		.byte	0x15
 2075 0abf 67       		.byte	0x67
 2076 0ac0 3C080000 		.4byte	0x83c
 2077 0ac4 02       		.byte	0x2
 2078 0ac5 23       		.byte	0x23
 2079 0ac6 02       		.uleb128 0x2
 2080 0ac7 07       		.uleb128 0x7
 2081 0ac8 65727200 		.ascii	"err\000"
 2082 0acc 15       		.byte	0x15
 2083 0acd 68       		.byte	0x68
 2084 0ace 3C080000 		.4byte	0x83c
 2085 0ad2 02       		.byte	0x2
 2086 0ad3 23       		.byte	0x23
 2087 0ad4 04       		.uleb128 0x4
 2088 0ad5 00       		.byte	0
 2089 0ad6 05       		.uleb128 0x5
 2090 0ad7 F2060000 		.4byte	.LASF175
 2091 0adb 12       		.byte	0x12
 2092 0adc 15       		.byte	0x15
 2093 0add 6B       		.byte	0x6b
 2094 0ade 0D0B0000 		.4byte	0xb0d
 2095 0ae2 07       		.uleb128 0x7
ARM GAS  /tmp/ccBwbhRg.s 			page 38


 2096 0ae3 73656D00 		.ascii	"sem\000"
 2097 0ae7 15       		.byte	0x15
 2098 0ae8 6C       		.byte	0x6c
 2099 0ae9 9F0A0000 		.4byte	0xa9f
 2100 0aed 02       		.byte	0x2
 2101 0aee 23       		.byte	0x23
 2102 0aef 00       		.uleb128 0
 2103 0af0 06       		.uleb128 0x6
 2104 0af1 5E050000 		.4byte	.LASF176
 2105 0af5 15       		.byte	0x15
 2106 0af6 6D       		.byte	0x6d
 2107 0af7 9F0A0000 		.4byte	0xa9f
 2108 0afb 02       		.byte	0x2
 2109 0afc 23       		.byte	0x23
 2110 0afd 06       		.uleb128 0x6
 2111 0afe 06       		.uleb128 0x6
 2112 0aff 05060000 		.4byte	.LASF177
 2113 0b03 15       		.byte	0x15
 2114 0b04 6E       		.byte	0x6e
 2115 0b05 9F0A0000 		.4byte	0xa9f
 2116 0b09 02       		.byte	0x2
 2117 0b0a 23       		.byte	0x23
 2118 0b0b 0C       		.uleb128 0xc
 2119 0b0c 00       		.byte	0
 2120 0b0d 18       		.uleb128 0x18
 2121 0b0e E7030000 		.4byte	.LASF178
 2122 0b12 5001     		.2byte	0x150
 2123 0b14 15       		.byte	0x15
 2124 0b15 71       		.byte	0x71
 2125 0b16 AA0B0000 		.4byte	0xbaa
 2126 0b1a 06       		.uleb128 0x6
 2127 0b1b E3040000 		.4byte	.LASF179
 2128 0b1f 15       		.byte	0x15
 2129 0b20 73       		.byte	0x73
 2130 0b21 98090000 		.4byte	0x998
 2131 0b25 02       		.byte	0x2
 2132 0b26 23       		.byte	0x23
 2133 0b27 00       		.uleb128 0
 2134 0b28 06       		.uleb128 0x6
 2135 0b29 44010000 		.4byte	.LASF180
 2136 0b2d 15       		.byte	0x15
 2137 0b2e 76       		.byte	0x76
 2138 0b2f 98090000 		.4byte	0x998
 2139 0b33 02       		.byte	0x2
 2140 0b34 23       		.byte	0x23
 2141 0b35 18       		.uleb128 0x18
 2142 0b36 06       		.uleb128 0x6
 2143 0b37 EA050000 		.4byte	.LASF181
 2144 0b3b 15       		.byte	0x15
 2145 0b3c 79       		.byte	0x79
 2146 0b3d 98090000 		.4byte	0x998
 2147 0b41 02       		.byte	0x2
 2148 0b42 23       		.byte	0x23
 2149 0b43 30       		.uleb128 0x30
 2150 0b44 07       		.uleb128 0x7
 2151 0b45 697000   		.ascii	"ip\000"
 2152 0b48 15       		.byte	0x15
ARM GAS  /tmp/ccBwbhRg.s 			page 39


 2153 0b49 7C       		.byte	0x7c
 2154 0b4a 98090000 		.4byte	0x998
 2155 0b4e 02       		.byte	0x2
 2156 0b4f 23       		.byte	0x23
 2157 0b50 48       		.uleb128 0x48
 2158 0b51 06       		.uleb128 0x6
 2159 0b52 11070000 		.4byte	.LASF182
 2160 0b56 15       		.byte	0x15
 2161 0b57 7F       		.byte	0x7f
 2162 0b58 98090000 		.4byte	0x998
 2163 0b5c 02       		.byte	0x2
 2164 0b5d 23       		.byte	0x23
 2165 0b5e 60       		.uleb128 0x60
 2166 0b5f 07       		.uleb128 0x7
 2167 0b60 75647000 		.ascii	"udp\000"
 2168 0b64 15       		.byte	0x15
 2169 0b65 85       		.byte	0x85
 2170 0b66 98090000 		.4byte	0x998
 2171 0b6a 02       		.byte	0x2
 2172 0b6b 23       		.byte	0x23
 2173 0b6c 78       		.uleb128 0x78
 2174 0b6d 07       		.uleb128 0x7
 2175 0b6e 74637000 		.ascii	"tcp\000"
 2176 0b72 15       		.byte	0x15
 2177 0b73 88       		.byte	0x88
 2178 0b74 98090000 		.4byte	0x998
 2179 0b78 03       		.byte	0x3
 2180 0b79 23       		.byte	0x23
 2181 0b7a 9001     		.uleb128 0x90
 2182 0b7c 07       		.uleb128 0x7
 2183 0b7d 6D656D00 		.ascii	"mem\000"
 2184 0b81 15       		.byte	0x15
 2185 0b82 8B       		.byte	0x8b
 2186 0b83 4C0A0000 		.4byte	0xa4c
 2187 0b87 03       		.byte	0x3
 2188 0b88 23       		.byte	0x23
 2189 0b89 A801     		.uleb128 0xa8
 2190 0b8b 06       		.uleb128 0x6
 2191 0b8c 36010000 		.4byte	.LASF183
 2192 0b90 15       		.byte	0x15
 2193 0b91 8E       		.byte	0x8e
 2194 0b92 AA0B0000 		.4byte	0xbaa
 2195 0b96 03       		.byte	0x3
 2196 0b97 23       		.byte	0x23
 2197 0b98 B201     		.uleb128 0xb2
 2198 0b9a 07       		.uleb128 0x7
 2199 0b9b 73797300 		.ascii	"sys\000"
 2200 0b9f 15       		.byte	0x15
 2201 0ba0 91       		.byte	0x91
 2202 0ba1 D60A0000 		.4byte	0xad6
 2203 0ba5 03       		.byte	0x3
 2204 0ba6 23       		.byte	0x23
 2205 0ba7 BE02     		.uleb128 0x13e
 2206 0ba9 00       		.byte	0
 2207 0baa 19       		.uleb128 0x19
 2208 0bab 4C0A0000 		.4byte	0xa4c
 2209 0baf BA0B0000 		.4byte	0xbba
ARM GAS  /tmp/ccBwbhRg.s 			page 40


 2210 0bb3 1A       		.uleb128 0x1a
 2211 0bb4 8B030000 		.4byte	0x38b
 2212 0bb8 0D       		.byte	0xd
 2213 0bb9 00       		.byte	0
 2214 0bba 05       		.uleb128 0x5
 2215 0bbb C2030000 		.4byte	.LASF184
 2216 0bbf 04       		.byte	0x4
 2217 0bc0 16       		.byte	0x16
 2218 0bc1 2C       		.byte	0x2c
 2219 0bc2 D50B0000 		.4byte	0xbd5
 2220 0bc6 06       		.uleb128 0x6
 2221 0bc7 C4050000 		.4byte	.LASF185
 2222 0bcb 16       		.byte	0x16
 2223 0bcc 2D       		.byte	0x2d
 2224 0bcd 47080000 		.4byte	0x847
 2225 0bd1 02       		.byte	0x2
 2226 0bd2 23       		.byte	0x23
 2227 0bd3 00       		.uleb128 0
 2228 0bd4 00       		.byte	0
 2229 0bd5 03       		.uleb128 0x3
 2230 0bd6 CD060000 		.4byte	.LASF186
 2231 0bda 16       		.byte	0x16
 2232 0bdb 40       		.byte	0x40
 2233 0bdc BA0B0000 		.4byte	0xbba
 2234 0be0 03       		.uleb128 0x3
 2235 0be1 F9020000 		.4byte	.LASF187
 2236 0be5 17       		.byte	0x17
 2237 0be6 66       		.byte	0x66
 2238 0be7 EB0B0000 		.4byte	0xbeb
 2239 0beb 09       		.uleb128 0x9
 2240 0bec 04       		.byte	0x4
 2241 0bed F10B0000 		.4byte	0xbf1
 2242 0bf1 1B       		.uleb128 0x1b
 2243 0bf2 01       		.byte	0x1
 2244 0bf3 5D080000 		.4byte	0x85d
 2245 0bf7 010C0000 		.4byte	0xc01
 2246 0bfb 0F       		.uleb128 0xf
 2247 0bfc 010C0000 		.4byte	0xc01
 2248 0c00 00       		.byte	0
 2249 0c01 09       		.uleb128 0x9
 2250 0c02 04       		.byte	0x4
 2251 0c03 070C0000 		.4byte	0xc07
 2252 0c07 05       		.uleb128 0x5
 2253 0c08 C5040000 		.4byte	.LASF188
 2254 0c0c 30       		.byte	0x30
 2255 0c0d 17       		.byte	0x17
 2256 0c0e 88       		.byte	0x88
 2257 0c0f D70C0000 		.4byte	0xcd7
 2258 0c13 06       		.uleb128 0x6
 2259 0c14 C8060000 		.4byte	.LASF139
 2260 0c18 17       		.byte	0x17
 2261 0c19 8A       		.byte	0x8a
 2262 0c1a 010C0000 		.4byte	0xc01
 2263 0c1e 02       		.byte	0x2
 2264 0c1f 23       		.byte	0x23
 2265 0c20 00       		.uleb128 0
 2266 0c21 06       		.uleb128 0x6
ARM GAS  /tmp/ccBwbhRg.s 			page 41


 2267 0c22 C2030000 		.4byte	.LASF184
 2268 0c26 17       		.byte	0x17
 2269 0c27 8D       		.byte	0x8d
 2270 0c28 D50B0000 		.4byte	0xbd5
 2271 0c2c 02       		.byte	0x2
 2272 0c2d 23       		.byte	0x23
 2273 0c2e 04       		.uleb128 0x4
 2274 0c2f 06       		.uleb128 0x6
 2275 0c30 51050000 		.4byte	.LASF189
 2276 0c34 17       		.byte	0x17
 2277 0c35 8E       		.byte	0x8e
 2278 0c36 D50B0000 		.4byte	0xbd5
 2279 0c3a 02       		.byte	0x2
 2280 0c3b 23       		.byte	0x23
 2281 0c3c 08       		.uleb128 0x8
 2282 0c3d 07       		.uleb128 0x7
 2283 0c3e 677700   		.ascii	"gw\000"
 2284 0c41 17       		.byte	0x17
 2285 0c42 8F       		.byte	0x8f
 2286 0c43 D50B0000 		.4byte	0xbd5
 2287 0c47 02       		.byte	0x2
 2288 0c48 23       		.byte	0x23
 2289 0c49 0C       		.uleb128 0xc
 2290 0c4a 06       		.uleb128 0x6
 2291 0c4b CA030000 		.4byte	.LASF190
 2292 0c4f 17       		.byte	0x17
 2293 0c50 93       		.byte	0x93
 2294 0c51 D70C0000 		.4byte	0xcd7
 2295 0c55 02       		.byte	0x2
 2296 0c56 23       		.byte	0x23
 2297 0c57 10       		.uleb128 0x10
 2298 0c58 06       		.uleb128 0x6
 2299 0c59 32030000 		.4byte	.LASF191
 2300 0c5d 17       		.byte	0x17
 2301 0c5e 97       		.byte	0x97
 2302 0c5f FD0C0000 		.4byte	0xcfd
 2303 0c63 02       		.byte	0x2
 2304 0c64 23       		.byte	0x23
 2305 0c65 14       		.uleb128 0x14
 2306 0c66 06       		.uleb128 0x6
 2307 0c67 D9010000 		.4byte	.LASF192
 2308 0c6b 17       		.byte	0x17
 2309 0c6c 9B       		.byte	0x9b
 2310 0c6d 2E0D0000 		.4byte	0xd2e
 2311 0c71 02       		.byte	0x2
 2312 0c72 23       		.byte	0x23
 2313 0c73 18       		.uleb128 0x18
 2314 0c74 06       		.uleb128 0x6
 2315 0c75 05010000 		.4byte	.LASF92
 2316 0c79 17       		.byte	0x17
 2317 0c7a A8       		.byte	0xa8
 2318 0c7b C8020000 		.4byte	0x2c8
 2319 0c7f 02       		.byte	0x2
 2320 0c80 23       		.byte	0x23
 2321 0c81 1C       		.uleb128 0x1c
 2322 0c82 07       		.uleb128 0x7
 2323 0c83 6D747500 		.ascii	"mtu\000"
ARM GAS  /tmp/ccBwbhRg.s 			page 42


 2324 0c87 17       		.byte	0x17
 2325 0c88 B6       		.byte	0xb6
 2326 0c89 3C080000 		.4byte	0x83c
 2327 0c8d 02       		.byte	0x2
 2328 0c8e 23       		.byte	0x23
 2329 0c8f 20       		.uleb128 0x20
 2330 0c90 06       		.uleb128 0x6
 2331 0c91 E4010000 		.4byte	.LASF193
 2332 0c95 17       		.byte	0x17
 2333 0c96 B8       		.byte	0xb8
 2334 0c97 26080000 		.4byte	0x826
 2335 0c9b 02       		.byte	0x2
 2336 0c9c 23       		.byte	0x23
 2337 0c9d 22       		.uleb128 0x22
 2338 0c9e 06       		.uleb128 0x6
 2339 0c9f DC040000 		.4byte	.LASF194
 2340 0ca3 17       		.byte	0x17
 2341 0ca4 BA       		.byte	0xba
 2342 0ca5 540D0000 		.4byte	0xd54
 2343 0ca9 02       		.byte	0x2
 2344 0caa 23       		.byte	0x23
 2345 0cab 23       		.uleb128 0x23
 2346 0cac 06       		.uleb128 0x6
 2347 0cad 86030000 		.4byte	.LASF143
 2348 0cb1 17       		.byte	0x17
 2349 0cb2 BC       		.byte	0xbc
 2350 0cb3 26080000 		.4byte	0x826
 2351 0cb7 02       		.byte	0x2
 2352 0cb8 23       		.byte	0x23
 2353 0cb9 29       		.uleb128 0x29
 2354 0cba 06       		.uleb128 0x6
 2355 0cbb 58080000 		.4byte	.LASF195
 2356 0cbf 17       		.byte	0x17
 2357 0cc0 BE       		.byte	0xbe
 2358 0cc1 640D0000 		.4byte	0xd64
 2359 0cc5 02       		.byte	0x2
 2360 0cc6 23       		.byte	0x23
 2361 0cc7 2A       		.uleb128 0x2a
 2362 0cc8 07       		.uleb128 0x7
 2363 0cc9 6E756D00 		.ascii	"num\000"
 2364 0ccd 17       		.byte	0x17
 2365 0cce C0       		.byte	0xc0
 2366 0ccf 26080000 		.4byte	0x826
 2367 0cd3 02       		.byte	0x2
 2368 0cd4 23       		.byte	0x23
 2369 0cd5 2C       		.uleb128 0x2c
 2370 0cd6 00       		.byte	0
 2371 0cd7 03       		.uleb128 0x3
 2372 0cd8 3B060000 		.4byte	.LASF196
 2373 0cdc 17       		.byte	0x17
 2374 0cdd 6D       		.byte	0x6d
 2375 0cde E20C0000 		.4byte	0xce2
 2376 0ce2 09       		.uleb128 0x9
 2377 0ce3 04       		.byte	0x4
 2378 0ce4 E80C0000 		.4byte	0xce8
 2379 0ce8 1B       		.uleb128 0x1b
 2380 0ce9 01       		.byte	0x1
ARM GAS  /tmp/ccBwbhRg.s 			page 43


 2381 0cea 5D080000 		.4byte	0x85d
 2382 0cee FD0C0000 		.4byte	0xcfd
 2383 0cf2 0F       		.uleb128 0xf
 2384 0cf3 2F090000 		.4byte	0x92f
 2385 0cf7 0F       		.uleb128 0xf
 2386 0cf8 010C0000 		.4byte	0xc01
 2387 0cfc 00       		.byte	0
 2388 0cfd 03       		.uleb128 0x3
 2389 0cfe A6060000 		.4byte	.LASF197
 2390 0d02 17       		.byte	0x17
 2391 0d03 76       		.byte	0x76
 2392 0d04 080D0000 		.4byte	0xd08
 2393 0d08 09       		.uleb128 0x9
 2394 0d09 04       		.byte	0x4
 2395 0d0a 0E0D0000 		.4byte	0xd0e
 2396 0d0e 1B       		.uleb128 0x1b
 2397 0d0f 01       		.byte	0x1
 2398 0d10 5D080000 		.4byte	0x85d
 2399 0d14 280D0000 		.4byte	0xd28
 2400 0d18 0F       		.uleb128 0xf
 2401 0d19 010C0000 		.4byte	0xc01
 2402 0d1d 0F       		.uleb128 0xf
 2403 0d1e 2F090000 		.4byte	0x92f
 2404 0d22 0F       		.uleb128 0xf
 2405 0d23 280D0000 		.4byte	0xd28
 2406 0d27 00       		.byte	0
 2407 0d28 09       		.uleb128 0x9
 2408 0d29 04       		.byte	0x4
 2409 0d2a D50B0000 		.4byte	0xbd5
 2410 0d2e 03       		.uleb128 0x3
 2411 0d2f 6D060000 		.4byte	.LASF198
 2412 0d33 17       		.byte	0x17
 2413 0d34 7E       		.byte	0x7e
 2414 0d35 390D0000 		.4byte	0xd39
 2415 0d39 09       		.uleb128 0x9
 2416 0d3a 04       		.byte	0x4
 2417 0d3b 3F0D0000 		.4byte	0xd3f
 2418 0d3f 1B       		.uleb128 0x1b
 2419 0d40 01       		.byte	0x1
 2420 0d41 5D080000 		.4byte	0x85d
 2421 0d45 540D0000 		.4byte	0xd54
 2422 0d49 0F       		.uleb128 0xf
 2423 0d4a 010C0000 		.4byte	0xc01
 2424 0d4e 0F       		.uleb128 0xf
 2425 0d4f 2F090000 		.4byte	0x92f
 2426 0d53 00       		.byte	0
 2427 0d54 19       		.uleb128 0x19
 2428 0d55 26080000 		.4byte	0x826
 2429 0d59 640D0000 		.4byte	0xd64
 2430 0d5d 1A       		.uleb128 0x1a
 2431 0d5e 8B030000 		.4byte	0x38b
 2432 0d62 05       		.byte	0x5
 2433 0d63 00       		.byte	0
 2434 0d64 19       		.uleb128 0x19
 2435 0d65 B8050000 		.4byte	0x5b8
 2436 0d69 740D0000 		.4byte	0xd74
 2437 0d6d 1A       		.uleb128 0x1a
ARM GAS  /tmp/ccBwbhRg.s 			page 44


 2438 0d6e 8B030000 		.4byte	0x38b
 2439 0d72 01       		.byte	0x1
 2440 0d73 00       		.byte	0
 2441 0d74 03       		.uleb128 0x3
 2442 0d75 F8040000 		.4byte	.LASF199
 2443 0d79 18       		.byte	0x18
 2444 0d7a 4C       		.byte	0x4c
 2445 0d7b 9D030000 		.4byte	0x39d
 2446 0d7f 03       		.uleb128 0x3
 2447 0d80 8D060000 		.4byte	.LASF200
 2448 0d84 18       		.byte	0x18
 2449 0d85 4E       		.byte	0x4e
 2450 0d86 9D030000 		.4byte	0x39d
 2451 0d8a 05       		.uleb128 0x5
 2452 0d8b 73000000 		.4byte	.LASF201
 2453 0d8f 06       		.byte	0x6
 2454 0d90 19       		.byte	0x19
 2455 0d91 3B       		.byte	0x3b
 2456 0d92 A50D0000 		.4byte	0xda5
 2457 0d96 06       		.uleb128 0x6
 2458 0d97 C4050000 		.4byte	.LASF185
 2459 0d9b 19       		.byte	0x19
 2460 0d9c 3C       		.byte	0x3c
 2461 0d9d 540D0000 		.4byte	0xd54
 2462 0da1 02       		.byte	0x2
 2463 0da2 23       		.byte	0x23
 2464 0da3 00       		.uleb128 0
 2465 0da4 00       		.byte	0
 2466 0da5 05       		.uleb128 0x5
 2467 0da6 BA030000 		.4byte	.LASF202
 2468 0daa 0E       		.byte	0xe
 2469 0dab 19       		.byte	0x19
 2470 0dac 48       		.byte	0x48
 2471 0dad DC0D0000 		.4byte	0xddc
 2472 0db1 06       		.uleb128 0x6
 2473 0db2 1B080000 		.4byte	.LASF203
 2474 0db6 19       		.byte	0x19
 2475 0db7 4C       		.byte	0x4c
 2476 0db8 8A0D0000 		.4byte	0xd8a
 2477 0dbc 02       		.byte	0x2
 2478 0dbd 23       		.byte	0x23
 2479 0dbe 00       		.uleb128 0
 2480 0dbf 07       		.uleb128 0x7
 2481 0dc0 73726300 		.ascii	"src\000"
 2482 0dc4 19       		.byte	0x19
 2483 0dc5 4D       		.byte	0x4d
 2484 0dc6 8A0D0000 		.4byte	0xd8a
 2485 0dca 02       		.byte	0x2
 2486 0dcb 23       		.byte	0x23
 2487 0dcc 06       		.uleb128 0x6
 2488 0dcd 06       		.uleb128 0x6
 2489 0dce 11010000 		.4byte	.LASF142
 2490 0dd2 19       		.byte	0x19
 2491 0dd3 4E       		.byte	0x4e
 2492 0dd4 3C080000 		.4byte	0x83c
 2493 0dd8 02       		.byte	0x2
 2494 0dd9 23       		.byte	0x23
ARM GAS  /tmp/ccBwbhRg.s 			page 45


 2495 0dda 0C       		.uleb128 0xc
 2496 0ddb 00       		.byte	0
 2497 0ddc 05       		.uleb128 0x5
 2498 0ddd 58040000 		.4byte	.LASF204
 2499 0de1 10       		.byte	0x10
 2500 0de2 1A       		.byte	0x1a
 2501 0de3 6D       		.byte	0x6d
 2502 0de4 210E0000 		.4byte	0xe21
 2503 0de8 06       		.uleb128 0x6
 2504 0de9 82040000 		.4byte	.LASF205
 2505 0ded 1A       		.byte	0x1a
 2506 0dee 6E       		.byte	0x6e
 2507 0def C5050000 		.4byte	0x5c5
 2508 0df3 02       		.byte	0x2
 2509 0df4 23       		.byte	0x23
 2510 0df5 00       		.uleb128 0
 2511 0df6 06       		.uleb128 0x6
 2512 0df7 CB040000 		.4byte	.LASF206
 2513 0dfb 1A       		.byte	0x1a
 2514 0dfc 6F       		.byte	0x6f
 2515 0dfd 91000000 		.4byte	0x91
 2516 0e01 02       		.byte	0x2
 2517 0e02 23       		.byte	0x23
 2518 0e03 04       		.uleb128 0x4
 2519 0e04 06       		.uleb128 0x6
 2520 0e05 51050000 		.4byte	.LASF189
 2521 0e09 1A       		.byte	0x1a
 2522 0e0a 70       		.byte	0x70
 2523 0e0b 91000000 		.4byte	0x91
 2524 0e0f 02       		.byte	0x2
 2525 0e10 23       		.byte	0x23
 2526 0e11 08       		.uleb128 0x8
 2527 0e12 06       		.uleb128 0x6
 2528 0e13 A2080000 		.4byte	.LASF207
 2529 0e17 1A       		.byte	0x1a
 2530 0e18 71       		.byte	0x71
 2531 0e19 91000000 		.4byte	0x91
 2532 0e1d 02       		.byte	0x2
 2533 0e1e 23       		.byte	0x23
 2534 0e1f 0C       		.uleb128 0xc
 2535 0e20 00       		.byte	0
 2536 0e21 1C       		.uleb128 0x1c
 2537 0e22 95030000 		.4byte	.LASF249
 2538 0e26 01       		.byte	0x1
 2539 0e27 5B       		.byte	0x5b
 2540 0e28 01       		.byte	0x1
 2541 0e29 01       		.byte	0x1
 2542 0e2a 3A0E0000 		.4byte	0xe3a
 2543 0e2e 1D       		.uleb128 0x1d
 2544 0e2f C5040000 		.4byte	.LASF188
 2545 0e33 01       		.byte	0x1
 2546 0e34 5B       		.byte	0x5b
 2547 0e35 010C0000 		.4byte	0xc01
 2548 0e39 00       		.byte	0
 2549 0e3a 1E       		.uleb128 0x1e
 2550 0e3b BE090000 		.4byte	.LASF250
 2551 0e3f 01       		.byte	0x1
ARM GAS  /tmp/ccBwbhRg.s 			page 46


 2552 0e40 89       		.byte	0x89
 2553 0e41 01       		.byte	0x1
 2554 0e42 2F090000 		.4byte	0x92f
 2555 0e46 01       		.byte	0x1
 2556 0e47 7E0E0000 		.4byte	0xe7e
 2557 0e4b 1D       		.uleb128 0x1d
 2558 0e4c C5040000 		.4byte	.LASF188
 2559 0e50 01       		.byte	0x1
 2560 0e51 89       		.byte	0x89
 2561 0e52 010C0000 		.4byte	0xc01
 2562 0e56 1F       		.uleb128 0x1f
 2563 0e57 726400   		.ascii	"rd\000"
 2564 0e5a 01       		.byte	0x1
 2565 0e5b 8A       		.byte	0x8a
 2566 0e5c DC070000 		.4byte	0x7dc
 2567 0e60 1F       		.uleb128 0x1f
 2568 0e61 7000     		.ascii	"p\000"
 2569 0e63 01       		.byte	0x1
 2570 0e64 8B       		.byte	0x8b
 2571 0e65 2F090000 		.4byte	0x92f
 2572 0e69 1F       		.uleb128 0x1f
 2573 0e6a 7100     		.ascii	"q\000"
 2574 0e6c 01       		.byte	0x1
 2575 0e6d 8B       		.byte	0x8b
 2576 0e6e 2F090000 		.4byte	0x92f
 2577 0e72 1F       		.uleb128 0x1f
 2578 0e73 6C656E00 		.ascii	"len\000"
 2579 0e77 01       		.byte	0x1
 2580 0e78 8C       		.byte	0x8c
 2581 0e79 3C080000 		.4byte	0x83c
 2582 0e7d 00       		.byte	0
 2583 0e7e 20       		.uleb128 0x20
 2584 0e7f F4030000 		.4byte	.LASF208
 2585 0e83 01       		.byte	0x1
 2586 0e84 B7       		.byte	0xb7
 2587 0e85 01       		.byte	0x1
 2588 0e86 5D080000 		.4byte	0x85d
 2589 0e8a 00000000 		.4byte	.LFB121
 2590 0e8e 3A000000 		.4byte	.LFE121
 2591 0e92 02       		.byte	0x2
 2592 0e93 7D       		.byte	0x7d
 2593 0e94 00       		.sleb128 0
 2594 0e95 01       		.byte	0x1
 2595 0e96 C30E0000 		.4byte	0xec3
 2596 0e9a 21       		.uleb128 0x21
 2597 0e9b C5040000 		.4byte	.LASF188
 2598 0e9f 01       		.byte	0x1
 2599 0ea0 B7       		.byte	0xb7
 2600 0ea1 010C0000 		.4byte	0xc01
 2601 0ea5 00000000 		.4byte	.LLST0
 2602 0ea9 22       		.uleb128 0x22
 2603 0eaa 210E0000 		.4byte	0xe21
 2604 0eae 22000000 		.4byte	.LBB4
 2605 0eb2 00000000 		.4byte	.Ldebug_ranges0+0
 2606 0eb6 01       		.byte	0x1
 2607 0eb7 CF       		.byte	0xcf
 2608 0eb8 23       		.uleb128 0x23
ARM GAS  /tmp/ccBwbhRg.s 			page 47


 2609 0eb9 2E0E0000 		.4byte	0xe2e
 2610 0ebd 1E000000 		.4byte	.LLST1
 2611 0ec1 00       		.byte	0
 2612 0ec2 00       		.byte	0
 2613 0ec3 24       		.uleb128 0x24
 2614 0ec4 94010000 		.4byte	.LASF209
 2615 0ec8 01       		.byte	0x1
 2616 0ec9 6C       		.byte	0x6c
 2617 0eca 01       		.byte	0x1
 2618 0ecb 5D080000 		.4byte	0x85d
 2619 0ecf 00000000 		.4byte	.LFB119
 2620 0ed3 48000000 		.4byte	.LFE119
 2621 0ed7 3C000000 		.4byte	.LLST2
 2622 0edb 01       		.byte	0x1
 2623 0edc 550F0000 		.4byte	0xf55
 2624 0ee0 21       		.uleb128 0x21
 2625 0ee1 C5040000 		.4byte	.LASF188
 2626 0ee5 01       		.byte	0x1
 2627 0ee6 6C       		.byte	0x6c
 2628 0ee7 010C0000 		.4byte	0xc01
 2629 0eeb 68000000 		.4byte	.LLST3
 2630 0eef 25       		.uleb128 0x25
 2631 0ef0 7000     		.ascii	"p\000"
 2632 0ef2 01       		.byte	0x1
 2633 0ef3 6C       		.byte	0x6c
 2634 0ef4 2F090000 		.4byte	0x92f
 2635 0ef8 89000000 		.4byte	.LLST4
 2636 0efc 26       		.uleb128 0x26
 2637 0efd 7100     		.ascii	"q\000"
 2638 0eff 01       		.byte	0x1
 2639 0f00 6D       		.byte	0x6d
 2640 0f01 2F090000 		.4byte	0x92f
 2641 0f05 C0000000 		.4byte	.LLST5
 2642 0f09 27       		.uleb128 0x27
 2643 0f0a 746400   		.ascii	"td\000"
 2644 0f0d 01       		.byte	0x1
 2645 0f0e 6E       		.byte	0x6e
 2646 0f0f 99070000 		.4byte	0x799
 2647 0f13 02       		.byte	0x2
 2648 0f14 91       		.byte	0x91
 2649 0f15 6C       		.sleb128 -20
 2650 0f16 28       		.uleb128 0x28
 2651 0f17 10000000 		.4byte	.LVL6
 2652 0f1b 2E130000 		.4byte	0x132e
 2653 0f1f 300F0000 		.4byte	0xf30
 2654 0f23 29       		.uleb128 0x29
 2655 0f24 01       		.byte	0x1
 2656 0f25 52       		.byte	0x52
 2657 0f26 02       		.byte	0x2
 2658 0f27 08       		.byte	0x8
 2659 0f28 32       		.byte	0x32
 2660 0f29 29       		.uleb128 0x29
 2661 0f2a 01       		.byte	0x1
 2662 0f2b 51       		.byte	0x51
 2663 0f2c 02       		.byte	0x2
 2664 0f2d 91       		.byte	0x91
 2665 0f2e 6C       		.sleb128 -20
ARM GAS  /tmp/ccBwbhRg.s 			page 48


 2666 0f2f 00       		.byte	0
 2667 0f30 28       		.uleb128 0x28
 2668 0f31 1E000000 		.4byte	.LVL9
 2669 0f35 5C130000 		.4byte	0x135c
 2670 0f39 440F0000 		.4byte	0xf44
 2671 0f3d 29       		.uleb128 0x29
 2672 0f3e 01       		.byte	0x1
 2673 0f3f 50       		.byte	0x50
 2674 0f40 02       		.byte	0x2
 2675 0f41 91       		.byte	0x91
 2676 0f42 6C       		.sleb128 -20
 2677 0f43 00       		.byte	0
 2678 0f44 2A       		.uleb128 0x2a
 2679 0f45 2A000000 		.4byte	.LVL11
 2680 0f49 7F130000 		.4byte	0x137f
 2681 0f4d 29       		.uleb128 0x29
 2682 0f4e 01       		.byte	0x1
 2683 0f4f 50       		.byte	0x50
 2684 0f50 02       		.byte	0x2
 2685 0f51 91       		.byte	0x91
 2686 0f52 6C       		.sleb128 -20
 2687 0f53 00       		.byte	0
 2688 0f54 00       		.byte	0
 2689 0f55 2B       		.uleb128 0x2b
 2690 0f56 01       		.byte	0x1
 2691 0f57 9A050000 		.4byte	.LASF251
 2692 0f5b 01       		.byte	0x1
 2693 0f5c DA       		.byte	0xda
 2694 0f5d 01       		.byte	0x1
 2695 0f5e FE000000 		.4byte	0xfe
 2696 0f62 00000000 		.4byte	.LFB122
 2697 0f66 D4010000 		.4byte	.LFE122
 2698 0f6a D3000000 		.4byte	.LLST6
 2699 0f6e 01       		.byte	0x1
 2700 0f6f CA120000 		.4byte	0x12ca
 2701 0f73 25       		.uleb128 0x25
 2702 0f74 7000     		.ascii	"p\000"
 2703 0f76 01       		.byte	0x1
 2704 0f77 DA       		.byte	0xda
 2705 0f78 C8020000 		.4byte	0x2c8
 2706 0f7c 00010000 		.4byte	.LLST7
 2707 0f80 27       		.uleb128 0x27
 2708 0f81 65767400 		.ascii	"evt\000"
 2709 0f85 01       		.byte	0x1
 2710 0f86 DB       		.byte	0xdb
 2711 0f87 1B080000 		.4byte	0x81b
 2712 0f8b 02       		.byte	0x2
 2713 0f8c 91       		.byte	0x91
 2714 0f8d 4C       		.sleb128 -52
 2715 0f8e 27       		.uleb128 0x27
 2716 0f8f 656C3000 		.ascii	"el0\000"
 2717 0f93 01       		.byte	0x1
 2718 0f94 DC       		.byte	0xdc
 2719 0f95 FC040000 		.4byte	0x4fc
 2720 0f99 03       		.byte	0x3
 2721 0f9a 91       		.byte	0x91
 2722 0f9b AC7F     		.sleb128 -84
ARM GAS  /tmp/ccBwbhRg.s 			page 49


 2723 0f9d 27       		.uleb128 0x27
 2724 0f9e 656C3100 		.ascii	"el1\000"
 2725 0fa2 01       		.byte	0x1
 2726 0fa3 DC       		.byte	0xdc
 2727 0fa4 FC040000 		.4byte	0x4fc
 2728 0fa8 03       		.byte	0x3
 2729 0fa9 91       		.byte	0x91
 2730 0faa BC7F     		.sleb128 -68
 2731 0fac 27       		.uleb128 0x27
 2732 0fad 697000   		.ascii	"ip\000"
 2733 0fb0 01       		.byte	0x1
 2734 0fb1 DD       		.byte	0xdd
 2735 0fb2 BA0B0000 		.4byte	0xbba
 2736 0fb6 03       		.byte	0x3
 2737 0fb7 91       		.byte	0x91
 2738 0fb8 947F     		.sleb128 -108
 2739 0fba 2C       		.uleb128 0x2c
 2740 0fbb A2080000 		.4byte	.LASF207
 2741 0fbf 01       		.byte	0x1
 2742 0fc0 DD       		.byte	0xdd
 2743 0fc1 BA0B0000 		.4byte	0xbba
 2744 0fc5 03       		.byte	0x3
 2745 0fc6 91       		.byte	0x91
 2746 0fc7 987F     		.sleb128 -104
 2747 0fc9 2C       		.uleb128 0x2c
 2748 0fca 51050000 		.4byte	.LASF189
 2749 0fce 01       		.byte	0x1
 2750 0fcf DD       		.byte	0xdd
 2751 0fd0 BA0B0000 		.4byte	0xbba
 2752 0fd4 03       		.byte	0x3
 2753 0fd5 91       		.byte	0x91
 2754 0fd6 9C7F     		.sleb128 -100
 2755 0fd8 2C       		.uleb128 0x2c
 2756 0fd9 D0030000 		.4byte	.LASF210
 2757 0fdd 01       		.byte	0x1
 2758 0fde DE       		.byte	0xde
 2759 0fdf 070C0000 		.4byte	0xc07
 2760 0fe3 05       		.byte	0x5
 2761 0fe4 03       		.byte	0x3
 2762 0fe5 00000000 		.4byte	thisif.7836
 2763 0fe9 2C       		.uleb128 0x2c
 2764 0fea 4D080000 		.4byte	.LASF211
 2765 0fee 01       		.byte	0x1
 2766 0fef DF       		.byte	0xdf
 2767 0ff0 51070000 		.4byte	0x751
 2768 0ff4 05       		.byte	0x5
 2769 0ff5 03       		.byte	0x3
 2770 0ff6 00000000 		.4byte	mac_config.7837
 2771 0ffa 2D       		.uleb128 0x2d
 2772 0ffb 2E000000 		.4byte	.LBB17
 2773 0fff 4C000000 		.4byte	.LBE17
 2774 1003 20100000 		.4byte	0x1020
 2775 1007 2E       		.uleb128 0x2e
 2776 1008 F2050000 		.4byte	.LASF212
 2777 100c 01       		.byte	0x1
 2778 100d EE       		.byte	0xee
 2779 100e CA120000 		.4byte	0x12ca
ARM GAS  /tmp/ccBwbhRg.s 			page 50


 2780 1012 26       		.uleb128 0x26
 2781 1013 6900     		.ascii	"i\000"
 2782 1015 01       		.byte	0x1
 2783 1016 EF       		.byte	0xef
 2784 1017 3B000000 		.4byte	0x3b
 2785 101b 2C010000 		.4byte	.LLST8
 2786 101f 00       		.byte	0
 2787 1020 2D       		.uleb128 0x2d
 2788 1021 EA000000 		.4byte	.LBB18
 2789 1025 D4010000 		.4byte	.LBE18
 2790 1029 A4110000 		.4byte	0x11a4
 2791 102d 2F       		.uleb128 0x2f
 2792 102e 59050000 		.4byte	.LASF213
 2793 1032 01       		.byte	0x1
 2794 1033 1301     		.2byte	0x113
 2795 1035 09010000 		.4byte	0x109
 2796 1039 3F010000 		.4byte	.LLST9
 2797 103d 30       		.uleb128 0x30
 2798 103e 20000000 		.4byte	.Ldebug_ranges0+0x20
 2799 1042 89100000 		.4byte	0x1089
 2800 1046 2F       		.uleb128 0x2f
 2801 1047 A6050000 		.4byte	.LASF214
 2802 104b 01       		.byte	0x1
 2803 104c 1501     		.2byte	0x115
 2804 104e BC000000 		.4byte	0xbc
 2805 1052 73010000 		.4byte	.LLST10
 2806 1056 31       		.uleb128 0x31
 2807 1057 02010000 		.4byte	.LVL37
 2808 105b 93130000 		.4byte	0x1393
 2809 105f 28       		.uleb128 0x28
 2810 1060 1E010000 		.4byte	.LVL40
 2811 1064 AB130000 		.4byte	0x13ab
 2812 1068 78100000 		.4byte	0x1078
 2813 106c 29       		.uleb128 0x29
 2814 106d 01       		.byte	0x1
 2815 106e 52       		.byte	0x52
 2816 106f 01       		.byte	0x1
 2817 1070 30       		.byte	0x30
 2818 1071 29       		.uleb128 0x29
 2819 1072 01       		.byte	0x1
 2820 1073 51       		.byte	0x51
 2821 1074 02       		.byte	0x2
 2822 1075 76       		.byte	0x76
 2823 1076 00       		.sleb128 0
 2824 1077 00       		.byte	0
 2825 1078 2A       		.uleb128 0x2a
 2826 1079 84010000 		.4byte	.LVL54
 2827 107d AB130000 		.4byte	0x13ab
 2828 1081 29       		.uleb128 0x29
 2829 1082 01       		.byte	0x1
 2830 1083 51       		.byte	0x51
 2831 1084 02       		.byte	0x2
 2832 1085 76       		.byte	0x76
 2833 1086 00       		.sleb128 0
 2834 1087 00       		.byte	0
 2835 1088 00       		.byte	0
 2836 1089 30       		.uleb128 0x30
ARM GAS  /tmp/ccBwbhRg.s 			page 51


 2837 108a 38000000 		.4byte	.Ldebug_ranges0+0x38
 2838 108e 93110000 		.4byte	0x1193
 2839 1092 32       		.uleb128 0x32
 2840 1093 7000     		.ascii	"p\000"
 2841 1095 01       		.byte	0x1
 2842 1096 2001     		.2byte	0x120
 2843 1098 2F090000 		.4byte	0x92f
 2844 109c 30       		.uleb128 0x30
 2845 109d 50000000 		.4byte	.Ldebug_ranges0+0x50
 2846 10a1 E5100000 		.4byte	0x10e5
 2847 10a5 2F       		.uleb128 0x2f
 2848 10a6 E6000000 		.4byte	.LASF215
 2849 10aa 01       		.byte	0x1
 2850 10ab 2201     		.2byte	0x122
 2851 10ad D0120000 		.4byte	0x12d0
 2852 10b1 9C010000 		.4byte	.LLST11
 2853 10b5 31       		.uleb128 0x31
 2854 10b6 6A010000 		.4byte	.LVL50
 2855 10ba CD130000 		.4byte	0x13cd
 2856 10be 28       		.uleb128 0x28
 2857 10bf 7A010000 		.4byte	.LVL51
 2858 10c3 E5130000 		.4byte	0x13e5
 2859 10c7 D2100000 		.4byte	0x10d2
 2860 10cb 29       		.uleb128 0x29
 2861 10cc 01       		.byte	0x1
 2862 10cd 50       		.byte	0x50
 2863 10ce 02       		.byte	0x2
 2864 10cf 75       		.byte	0x75
 2865 10d0 00       		.sleb128 0
 2866 10d1 00       		.byte	0
 2867 10d2 33       		.uleb128 0x33
 2868 10d3 8E010000 		.4byte	.LVL56
 2869 10d7 29       		.uleb128 0x29
 2870 10d8 01       		.byte	0x1
 2871 10d9 51       		.byte	0x51
 2872 10da 02       		.byte	0x2
 2873 10db 76       		.byte	0x76
 2874 10dc 00       		.sleb128 0
 2875 10dd 29       		.uleb128 0x29
 2876 10de 01       		.byte	0x1
 2877 10df 50       		.byte	0x50
 2878 10e0 02       		.byte	0x2
 2879 10e1 75       		.byte	0x75
 2880 10e2 00       		.sleb128 0
 2881 10e3 00       		.byte	0
 2882 10e4 00       		.byte	0
 2883 10e5 34       		.uleb128 0x34
 2884 10e6 3A0E0000 		.4byte	0xe3a
 2885 10ea 26010000 		.4byte	.LBB22
 2886 10ee 78000000 		.4byte	.Ldebug_ranges0+0x78
 2887 10f2 01       		.byte	0x1
 2888 10f3 2101     		.2byte	0x121
 2889 10f5 35       		.uleb128 0x35
 2890 10f6 98000000 		.4byte	.Ldebug_ranges0+0x98
 2891 10fa 36       		.uleb128 0x36
 2892 10fb 4B0E0000 		.4byte	0xe4b
 2893 10ff 37       		.uleb128 0x37
ARM GAS  /tmp/ccBwbhRg.s 			page 52


 2894 1100 560E0000 		.4byte	0xe56
 2895 1104 03       		.byte	0x3
 2896 1105 91       		.byte	0x91
 2897 1106 A07F     		.sleb128 -96
 2898 1108 38       		.uleb128 0x38
 2899 1109 600E0000 		.4byte	0xe60
 2900 110d AF010000 		.4byte	.LLST12
 2901 1111 38       		.uleb128 0x38
 2902 1112 690E0000 		.4byte	0xe69
 2903 1116 EE010000 		.4byte	.LLST13
 2904 111a 38       		.uleb128 0x38
 2905 111b 720E0000 		.4byte	0xe72
 2906 111f 0C020000 		.4byte	.LLST14
 2907 1123 28       		.uleb128 0x28
 2908 1124 30010000 		.4byte	.LVL42
 2909 1128 FD130000 		.4byte	0x13fd
 2910 112c 3D110000 		.4byte	0x113d
 2911 1130 29       		.uleb128 0x29
 2912 1131 01       		.byte	0x1
 2913 1132 52       		.byte	0x52
 2914 1133 01       		.byte	0x1
 2915 1134 30       		.byte	0x30
 2916 1135 29       		.uleb128 0x29
 2917 1136 01       		.byte	0x1
 2918 1137 51       		.byte	0x51
 2919 1138 03       		.byte	0x3
 2920 1139 91       		.byte	0x91
 2921 113a A07F     		.sleb128 -96
 2922 113c 00       		.byte	0
 2923 113d 28       		.uleb128 0x28
 2924 113e 40010000 		.4byte	.LVL44
 2925 1142 25140000 		.4byte	0x1425
 2926 1146 55110000 		.4byte	0x1155
 2927 114a 29       		.uleb128 0x29
 2928 114b 01       		.byte	0x1
 2929 114c 52       		.byte	0x52
 2930 114d 01       		.byte	0x1
 2931 114e 33       		.byte	0x33
 2932 114f 29       		.uleb128 0x29
 2933 1150 01       		.byte	0x1
 2934 1151 50       		.byte	0x50
 2935 1152 01       		.byte	0x1
 2936 1153 33       		.byte	0x33
 2937 1154 00       		.byte	0
 2938 1155 28       		.uleb128 0x28
 2939 1156 50010000 		.4byte	.LVL46
 2940 115a 47140000 		.4byte	0x1447
 2941 115e 6A110000 		.4byte	0x116a
 2942 1162 29       		.uleb128 0x29
 2943 1163 01       		.byte	0x1
 2944 1164 50       		.byte	0x50
 2945 1165 03       		.byte	0x3
 2946 1166 91       		.byte	0x91
 2947 1167 A07F     		.sleb128 -96
 2948 1169 00       		.byte	0
 2949 116a 28       		.uleb128 0x28
 2950 116b 5C010000 		.4byte	.LVL48
ARM GAS  /tmp/ccBwbhRg.s 			page 53


 2951 116f 6A140000 		.4byte	0x146a
 2952 1173 7F110000 		.4byte	0x117f
 2953 1177 29       		.uleb128 0x29
 2954 1178 01       		.byte	0x1
 2955 1179 50       		.byte	0x50
 2956 117a 03       		.byte	0x3
 2957 117b 91       		.byte	0x91
 2958 117c A07F     		.sleb128 -96
 2959 117e 00       		.byte	0
 2960 117f 2A       		.uleb128 0x2a
 2961 1180 9A010000 		.4byte	.LVL59
 2962 1184 6A140000 		.4byte	0x146a
 2963 1188 29       		.uleb128 0x29
 2964 1189 01       		.byte	0x1
 2965 118a 50       		.byte	0x50
 2966 118b 03       		.byte	0x3
 2967 118c 91       		.byte	0x91
 2968 118d A07F     		.sleb128 -96
 2969 118f 00       		.byte	0
 2970 1190 00       		.byte	0
 2971 1191 00       		.byte	0
 2972 1192 00       		.byte	0
 2973 1193 2A       		.uleb128 0x2a
 2974 1194 F6000000 		.4byte	.LVL34
 2975 1198 7E140000 		.4byte	0x147e
 2976 119c 29       		.uleb128 0x29
 2977 119d 01       		.byte	0x1
 2978 119e 50       		.byte	0x50
 2979 119f 02       		.byte	0x2
 2980 11a0 09       		.byte	0x9
 2981 11a1 FF       		.byte	0xff
 2982 11a2 00       		.byte	0
 2983 11a3 00       		.byte	0
 2984 11a4 31       		.uleb128 0x31
 2985 11a5 16000000 		.4byte	.LVL15
 2986 11a9 96140000 		.4byte	0x1496
 2987 11ad 31       		.uleb128 0x31
 2988 11ae 1A000000 		.4byte	.LVL16
 2989 11b2 A0140000 		.4byte	0x14a0
 2990 11b6 31       		.uleb128 0x31
 2991 11b7 1E000000 		.4byte	.LVL17
 2992 11bb AA140000 		.4byte	0x14aa
 2993 11bf 31       		.uleb128 0x31
 2994 11c0 22000000 		.4byte	.LVL18
 2995 11c4 B4140000 		.4byte	0x14b4
 2996 11c8 28       		.uleb128 0x28
 2997 11c9 2A000000 		.4byte	.LVL19
 2998 11cd BE140000 		.4byte	0x14be
 2999 11d1 E0110000 		.4byte	0x11e0
 3000 11d5 29       		.uleb128 0x29
 3001 11d6 01       		.byte	0x1
 3002 11d7 51       		.byte	0x51
 3003 11d8 01       		.byte	0x1
 3004 11d9 30       		.byte	0x30
 3005 11da 29       		.uleb128 0x29
 3006 11db 01       		.byte	0x1
 3007 11dc 50       		.byte	0x50
ARM GAS  /tmp/ccBwbhRg.s 			page 54


 3008 11dd 01       		.byte	0x1
 3009 11de 30       		.byte	0x30
 3010 11df 00       		.byte	0
 3011 11e0 28       		.uleb128 0x28
 3012 11e1 92000000 		.4byte	.LVL22
 3013 11e5 D7140000 		.4byte	0x14d7
 3014 11e9 F7110000 		.4byte	0x11f7
 3015 11ed 29       		.uleb128 0x29
 3016 11ee 01       		.byte	0x1
 3017 11ef 51       		.byte	0x51
 3018 11f0 05       		.byte	0x5
 3019 11f1 03       		.byte	0x3
 3020 11f2 00000000 		.4byte	.LANCHOR1
 3021 11f6 00       		.byte	0
 3022 11f7 28       		.uleb128 0x28
 3023 11f8 AA000000 		.4byte	.LVL24
 3024 11fc F0140000 		.4byte	0x14f0
 3025 1200 31120000 		.4byte	0x1231
 3026 1204 29       		.uleb128 0x29
 3027 1205 01       		.byte	0x1
 3028 1206 53       		.byte	0x53
 3029 1207 03       		.byte	0x3
 3030 1208 91       		.byte	0x91
 3031 1209 987F     		.sleb128 -104
 3032 120b 29       		.uleb128 0x29
 3033 120c 01       		.byte	0x1
 3034 120d 52       		.byte	0x52
 3035 120e 03       		.byte	0x3
 3036 120f 91       		.byte	0x91
 3037 1210 9C7F     		.sleb128 -100
 3038 1212 29       		.uleb128 0x29
 3039 1213 01       		.byte	0x1
 3040 1214 51       		.byte	0x51
 3041 1215 03       		.byte	0x3
 3042 1216 91       		.byte	0x91
 3043 1217 947F     		.sleb128 -108
 3044 1219 29       		.uleb128 0x29
 3045 121a 01       		.byte	0x1
 3046 121b 50       		.byte	0x50
 3047 121c 02       		.byte	0x2
 3048 121d 76       		.byte	0x76
 3049 121e 00       		.sleb128 0
 3050 121f 29       		.uleb128 0x29
 3051 1220 02       		.byte	0x2
 3052 1221 7D       		.byte	0x7d
 3053 1222 04       		.sleb128 4
 3054 1223 05       		.byte	0x5
 3055 1224 03       		.byte	0x3
 3056 1225 00000000 		.4byte	ethernetif_init
 3057 1229 29       		.uleb128 0x29
 3058 122a 02       		.byte	0x2
 3059 122b 7D       		.byte	0x7d
 3060 122c 00       		.sleb128 0
 3061 122d 02       		.byte	0x2
 3062 122e 74       		.byte	0x74
 3063 122f 00       		.sleb128 0
 3064 1230 00       		.byte	0
ARM GAS  /tmp/ccBwbhRg.s 			page 55


 3065 1231 28       		.uleb128 0x28
 3066 1232 B0000000 		.4byte	.LVL25
 3067 1236 26150000 		.4byte	0x1526
 3068 123a 45120000 		.4byte	0x1245
 3069 123e 29       		.uleb128 0x29
 3070 123f 01       		.byte	0x1
 3071 1240 50       		.byte	0x50
 3072 1241 02       		.byte	0x2
 3073 1242 76       		.byte	0x76
 3074 1243 00       		.sleb128 0
 3075 1244 00       		.byte	0
 3076 1245 28       		.uleb128 0x28
 3077 1246 B6000000 		.4byte	.LVL26
 3078 124a 3B150000 		.4byte	0x153b
 3079 124e 59120000 		.4byte	0x1259
 3080 1252 29       		.uleb128 0x29
 3081 1253 01       		.byte	0x1
 3082 1254 50       		.byte	0x50
 3083 1255 02       		.byte	0x2
 3084 1256 76       		.byte	0x76
 3085 1257 00       		.sleb128 0
 3086 1258 00       		.byte	0
 3087 1259 28       		.uleb128 0x28
 3088 125a C8000000 		.4byte	.LVL27
 3089 125e 50150000 		.4byte	0x1550
 3090 1262 6D120000 		.4byte	0x126d
 3091 1266 29       		.uleb128 0x29
 3092 1267 01       		.byte	0x1
 3093 1268 50       		.byte	0x50
 3094 1269 02       		.byte	0x2
 3095 126a 91       		.byte	0x91
 3096 126b 4C       		.sleb128 -52
 3097 126c 00       		.byte	0
 3098 126d 28       		.uleb128 0x28
 3099 126e D2000000 		.4byte	.LVL28
 3100 1272 6A150000 		.4byte	0x156a
 3101 1276 8D120000 		.4byte	0x128d
 3102 127a 29       		.uleb128 0x29
 3103 127b 01       		.byte	0x1
 3104 127c 52       		.byte	0x52
 3105 127d 01       		.byte	0x1
 3106 127e 31       		.byte	0x31
 3107 127f 29       		.uleb128 0x29
 3108 1280 01       		.byte	0x1
 3109 1281 51       		.byte	0x51
 3110 1282 03       		.byte	0x3
 3111 1283 91       		.byte	0x91
 3112 1284 AC7F     		.sleb128 -84
 3113 1286 29       		.uleb128 0x29
 3114 1287 01       		.byte	0x1
 3115 1288 50       		.byte	0x50
 3116 1289 02       		.byte	0x2
 3117 128a 75       		.byte	0x75
 3118 128b 00       		.sleb128 0
 3119 128c 00       		.byte	0
 3120 128d 28       		.uleb128 0x28
 3121 128e DC000000 		.4byte	.LVL29
ARM GAS  /tmp/ccBwbhRg.s 			page 56


 3122 1292 6A150000 		.4byte	0x156a
 3123 1296 A7120000 		.4byte	0x12a7
 3124 129a 29       		.uleb128 0x29
 3125 129b 01       		.byte	0x1
 3126 129c 52       		.byte	0x52
 3127 129d 01       		.byte	0x1
 3128 129e 32       		.byte	0x32
 3129 129f 29       		.uleb128 0x29
 3130 12a0 01       		.byte	0x1
 3131 12a1 51       		.byte	0x51
 3132 12a2 03       		.byte	0x3
 3133 12a3 91       		.byte	0x91
 3134 12a4 BC7F     		.sleb128 -68
 3135 12a6 00       		.byte	0
 3136 12a7 28       		.uleb128 0x28
 3137 12a8 E2000000 		.4byte	.LVL30
 3138 12ac 8E150000 		.4byte	0x158e
 3139 12b0 BA120000 		.4byte	0x12ba
 3140 12b4 29       		.uleb128 0x29
 3141 12b5 01       		.byte	0x1
 3142 12b6 50       		.byte	0x50
 3143 12b7 01       		.byte	0x1
 3144 12b8 33       		.byte	0x33
 3145 12b9 00       		.byte	0
 3146 12ba 2A       		.uleb128 0x2a
 3147 12bb E8000000 		.4byte	.LVL31
 3148 12bf A6150000 		.4byte	0x15a6
 3149 12c3 29       		.uleb128 0x29
 3150 12c4 01       		.byte	0x1
 3151 12c5 50       		.byte	0x50
 3152 12c6 01       		.byte	0x1
 3153 12c7 32       		.byte	0x32
 3154 12c8 00       		.byte	0
 3155 12c9 00       		.byte	0
 3156 12ca 09       		.uleb128 0x9
 3157 12cb 04       		.byte	0x4
 3158 12cc DC0D0000 		.4byte	0xddc
 3159 12d0 09       		.uleb128 0x9
 3160 12d1 04       		.byte	0x4
 3161 12d2 A50D0000 		.4byte	0xda5
 3162 12d6 39       		.uleb128 0x39
 3163 12d7 2F080000 		.4byte	.LASF216
 3164 12db 09       		.byte	0x9
 3165 12dc 68       		.byte	0x68
 3166 12dd 75040000 		.4byte	0x475
 3167 12e1 01       		.byte	0x1
 3168 12e2 01       		.byte	0x1
 3169 12e3 3A       		.uleb128 0x3a
 3170 12e4 64050000 		.4byte	.LASF217
 3171 12e8 1B       		.byte	0x1b
 3172 12e9 9806     		.2byte	0x698
 3173 12eb CB050000 		.4byte	0x5cb
 3174 12ef 01       		.byte	0x1
 3175 12f0 01       		.byte	0x1
 3176 12f1 3A       		.uleb128 0x3a
 3177 12f2 0B010000 		.4byte	.LASF218
 3178 12f6 0E       		.byte	0xe
ARM GAS  /tmp/ccBwbhRg.s 			page 57


 3179 12f7 4401     		.2byte	0x144
 3180 12f9 F6050000 		.4byte	0x5f6
 3181 12fd 01       		.byte	0x1
 3182 12fe 01       		.byte	0x1
 3183 12ff 39       		.uleb128 0x39
 3184 1300 82080000 		.4byte	.LASF219
 3185 1304 15       		.byte	0x15
 3186 1305 95       		.byte	0x95
 3187 1306 0D0B0000 		.4byte	0xb0d
 3188 130a 01       		.byte	0x1
 3189 130b 01       		.byte	0x1
 3190 130c 19       		.uleb128 0x19
 3191 130d CA020000 		.4byte	0x2ca
 3192 1311 1C130000 		.4byte	0x131c
 3193 1315 1A       		.uleb128 0x1a
 3194 1316 8B030000 		.4byte	0x38b
 3195 131a 55       		.byte	0x55
 3196 131b 00       		.byte	0
 3197 131c 3B       		.uleb128 0x3b
 3198 131d D5070000 		.4byte	.LASF220
 3199 1321 01       		.byte	0x1
 3200 1322 56       		.byte	0x56
 3201 1323 0C130000 		.4byte	0x130c
 3202 1327 01       		.byte	0x1
 3203 1328 05       		.byte	0x5
 3204 1329 03       		.byte	0x3
 3205 132a 00000000 		.4byte	wa_lwip_thread
 3206 132e 3C       		.uleb128 0x3c
 3207 132f 01       		.byte	0x1
 3208 1330 68040000 		.4byte	.LASF221
 3209 1334 0D       		.byte	0xd
 3210 1335 95       		.byte	0x95
 3211 1336 01       		.byte	0x1
 3212 1337 FE000000 		.4byte	0xfe
 3213 133b 01       		.byte	0x1
 3214 133c 50130000 		.4byte	0x1350
 3215 1340 0F       		.uleb128 0xf
 3216 1341 50130000 		.4byte	0x1350
 3217 1345 0F       		.uleb128 0xf
 3218 1346 56130000 		.4byte	0x1356
 3219 134a 0F       		.uleb128 0xf
 3220 134b 1F010000 		.4byte	0x11f
 3221 134f 00       		.byte	0
 3222 1350 09       		.uleb128 0x9
 3223 1351 04       		.byte	0x4
 3224 1352 F6050000 		.4byte	0x5f6
 3225 1356 09       		.uleb128 0x9
 3226 1357 04       		.byte	0x4
 3227 1358 99070000 		.4byte	0x799
 3228 135c 3D       		.uleb128 0x3d
 3229 135d 01       		.byte	0x1
 3230 135e 1C020000 		.4byte	.LASF222
 3231 1362 0E       		.byte	0xe
 3232 1363 4F01     		.2byte	0x14f
 3233 1365 01       		.byte	0x1
 3234 1366 30000000 		.4byte	0x30
 3235 136a 01       		.byte	0x1
ARM GAS  /tmp/ccBwbhRg.s 			page 58


 3236 136b 7F130000 		.4byte	0x137f
 3237 136f 0F       		.uleb128 0xf
 3238 1370 56130000 		.4byte	0x1356
 3239 1374 0F       		.uleb128 0xf
 3240 1375 C5050000 		.4byte	0x5c5
 3241 1379 0F       		.uleb128 0xf
 3242 137a 30000000 		.4byte	0x30
 3243 137e 00       		.byte	0
 3244 137f 3E       		.uleb128 0x3e
 3245 1380 01       		.byte	0x1
 3246 1381 AA080000 		.4byte	.LASF230
 3247 1385 0D       		.byte	0xd
 3248 1386 98       		.byte	0x98
 3249 1387 01       		.byte	0x1
 3250 1388 01       		.byte	0x1
 3251 1389 93130000 		.4byte	0x1393
 3252 138d 0F       		.uleb128 0xf
 3253 138e 56130000 		.4byte	0x1356
 3254 1392 00       		.byte	0
 3255 1393 3C       		.uleb128 0x3c
 3256 1394 01       		.byte	0x1
 3257 1395 5D090000 		.4byte	.LASF223
 3258 1399 0D       		.byte	0xd
 3259 139a 9D       		.byte	0x9d
 3260 139b 01       		.byte	0x1
 3261 139c BC000000 		.4byte	0xbc
 3262 13a0 01       		.byte	0x1
 3263 13a1 AB130000 		.4byte	0x13ab
 3264 13a5 0F       		.uleb128 0xf
 3265 13a6 50130000 		.4byte	0x1350
 3266 13aa 00       		.byte	0
 3267 13ab 3C       		.uleb128 0x3c
 3268 13ac 01       		.byte	0x1
 3269 13ad 04040000 		.4byte	.LASF224
 3270 13b1 18       		.byte	0x18
 3271 13b2 62       		.byte	0x62
 3272 13b3 01       		.byte	0x1
 3273 13b4 5D080000 		.4byte	0x85d
 3274 13b8 01       		.byte	0x1
 3275 13b9 CD130000 		.4byte	0x13cd
 3276 13bd 0F       		.uleb128 0xf
 3277 13be 7F0D0000 		.4byte	0xd7f
 3278 13c2 0F       		.uleb128 0xf
 3279 13c3 C8020000 		.4byte	0x2c8
 3280 13c7 0F       		.uleb128 0xf
 3281 13c8 26080000 		.4byte	0x826
 3282 13cc 00       		.byte	0
 3283 13cd 3C       		.uleb128 0x3c
 3284 13ce 01       		.byte	0x1
 3285 13cf 82010000 		.4byte	.LASF225
 3286 13d3 1C       		.byte	0x1c
 3287 13d4 67       		.byte	0x67
 3288 13d5 01       		.byte	0x1
 3289 13d6 3C080000 		.4byte	0x83c
 3290 13da 01       		.byte	0x1
 3291 13db E5130000 		.4byte	0x13e5
 3292 13df 0F       		.uleb128 0xf
ARM GAS  /tmp/ccBwbhRg.s 			page 59


 3293 13e0 3C080000 		.4byte	0x83c
 3294 13e4 00       		.byte	0
 3295 13e5 3C       		.uleb128 0x3c
 3296 13e6 01       		.byte	0x1
 3297 13e7 11080000 		.4byte	.LASF226
 3298 13eb 13       		.byte	0x13
 3299 13ec 83       		.byte	0x83
 3300 13ed 01       		.byte	0x1
 3301 13ee 26080000 		.4byte	0x826
 3302 13f2 01       		.byte	0x1
 3303 13f3 FD130000 		.4byte	0x13fd
 3304 13f7 0F       		.uleb128 0xf
 3305 13f8 2F090000 		.4byte	0x92f
 3306 13fc 00       		.byte	0
 3307 13fd 3C       		.uleb128 0x3c
 3308 13fe 01       		.byte	0x1
 3309 13ff 65030000 		.4byte	.LASF227
 3310 1403 0D       		.byte	0xd
 3311 1404 99       		.byte	0x99
 3312 1405 01       		.byte	0x1
 3313 1406 FE000000 		.4byte	0xfe
 3314 140a 01       		.byte	0x1
 3315 140b 1F140000 		.4byte	0x141f
 3316 140f 0F       		.uleb128 0xf
 3317 1410 50130000 		.4byte	0x1350
 3318 1414 0F       		.uleb128 0xf
 3319 1415 1F140000 		.4byte	0x141f
 3320 1419 0F       		.uleb128 0xf
 3321 141a 1F010000 		.4byte	0x11f
 3322 141e 00       		.byte	0
 3323 141f 09       		.uleb128 0x9
 3324 1420 04       		.byte	0x4
 3325 1421 DC070000 		.4byte	0x7dc
 3326 1425 3C       		.uleb128 0x3c
 3327 1426 01       		.byte	0x1
 3328 1427 9D070000 		.4byte	.LASF228
 3329 142b 13       		.byte	0x13
 3330 142c 7A       		.byte	0x7a
 3331 142d 01       		.byte	0x1
 3332 142e 2F090000 		.4byte	0x92f
 3333 1432 01       		.byte	0x1
 3334 1433 47140000 		.4byte	0x1447
 3335 1437 0F       		.uleb128 0xf
 3336 1438 89080000 		.4byte	0x889
 3337 143c 0F       		.uleb128 0xf
 3338 143d 3C080000 		.4byte	0x83c
 3339 1441 0F       		.uleb128 0xf
 3340 1442 B5080000 		.4byte	0x8b5
 3341 1446 00       		.byte	0
 3342 1447 3D       		.uleb128 0x3d
 3343 1448 01       		.byte	0x1
 3344 1449 3E020000 		.4byte	.LASF229
 3345 144d 0E       		.byte	0xe
 3346 144e 5501     		.2byte	0x155
 3347 1450 01       		.byte	0x1
 3348 1451 30000000 		.4byte	0x30
 3349 1455 01       		.byte	0x1
ARM GAS  /tmp/ccBwbhRg.s 			page 60


 3350 1456 6A140000 		.4byte	0x146a
 3351 145a 0F       		.uleb128 0xf
 3352 145b 1F140000 		.4byte	0x141f
 3353 145f 0F       		.uleb128 0xf
 3354 1460 C5050000 		.4byte	0x5c5
 3355 1464 0F       		.uleb128 0xf
 3356 1465 30000000 		.4byte	0x30
 3357 1469 00       		.byte	0
 3358 146a 3E       		.uleb128 0x3e
 3359 146b 01       		.byte	0x1
 3360 146c 11030000 		.4byte	.LASF231
 3361 1470 0D       		.byte	0xd
 3362 1471 9C       		.byte	0x9c
 3363 1472 01       		.byte	0x1
 3364 1473 01       		.byte	0x1
 3365 1474 7E140000 		.4byte	0x147e
 3366 1478 0F       		.uleb128 0xf
 3367 1479 1F140000 		.4byte	0x141f
 3368 147d 00       		.byte	0
 3369 147e 3C       		.uleb128 0x3c
 3370 147f 01       		.byte	0x1
 3371 1480 D3090000 		.4byte	.LASF232
 3372 1484 0C       		.byte	0xc
 3373 1485 B7       		.byte	0xb7
 3374 1486 01       		.byte	0x1
 3375 1487 09010000 		.4byte	0x109
 3376 148b 01       		.byte	0x1
 3377 148c 96140000 		.4byte	0x1496
 3378 1490 0F       		.uleb128 0xf
 3379 1491 09010000 		.4byte	0x109
 3380 1495 00       		.byte	0
 3381 1496 3F       		.uleb128 0x3f
 3382 1497 01       		.byte	0x1
 3383 1498 3B010000 		.4byte	.LASF233
 3384 149c 1D       		.byte	0x1d
 3385 149d DF       		.byte	0xdf
 3386 149e 01       		.byte	0x1
 3387 149f 01       		.byte	0x1
 3388 14a0 3F       		.uleb128 0x3f
 3389 14a1 01       		.byte	0x1
 3390 14a2 8C030000 		.4byte	.LASF234
 3391 14a6 11       		.byte	0x11
 3392 14a7 57       		.byte	0x57
 3393 14a8 01       		.byte	0x1
 3394 14a9 01       		.byte	0x1
 3395 14aa 3F       		.uleb128 0x3f
 3396 14ab 01       		.byte	0x1
 3397 14ac 19060000 		.4byte	.LASF235
 3398 14b0 14       		.byte	0x14
 3399 14b1 64       		.byte	0x64
 3400 14b2 01       		.byte	0x1
 3401 14b3 01       		.byte	0x1
 3402 14b4 3F       		.uleb128 0x3f
 3403 14b5 01       		.byte	0x1
 3404 14b6 5E020000 		.4byte	.LASF236
 3405 14ba 17       		.byte	0x17
 3406 14bb FD       		.byte	0xfd
ARM GAS  /tmp/ccBwbhRg.s 			page 61


 3407 14bc 01       		.byte	0x1
 3408 14bd 01       		.byte	0x1
 3409 14be 3E       		.uleb128 0x3e
 3410 14bf 01       		.byte	0x1
 3411 14c0 20090000 		.4byte	.LASF237
 3412 14c4 18       		.byte	0x18
 3413 14c5 50       		.byte	0x50
 3414 14c6 01       		.byte	0x1
 3415 14c7 01       		.byte	0x1
 3416 14c8 D7140000 		.4byte	0x14d7
 3417 14cc 0F       		.uleb128 0xf
 3418 14cd 740D0000 		.4byte	0xd74
 3419 14d1 0F       		.uleb128 0xf
 3420 14d2 C8020000 		.4byte	0x2c8
 3421 14d6 00       		.byte	0
 3422 14d7 3E       		.uleb128 0x3e
 3423 14d8 01       		.byte	0x1
 3424 14d9 00080000 		.4byte	.LASF238
 3425 14dd 0D       		.byte	0xd
 3426 14de 92       		.byte	0x92
 3427 14df 01       		.byte	0x1
 3428 14e0 01       		.byte	0x1
 3429 14e1 F0140000 		.4byte	0x14f0
 3430 14e5 0F       		.uleb128 0xf
 3431 14e6 50130000 		.4byte	0x1350
 3432 14ea 0F       		.uleb128 0xf
 3433 14eb 4B070000 		.4byte	0x74b
 3434 14ef 00       		.byte	0
 3435 14f0 3C       		.uleb128 0x3c
 3436 14f1 01       		.byte	0x1
 3437 14f2 C7080000 		.4byte	.LASF239
 3438 14f6 17       		.byte	0x17
 3439 14f7 FF       		.byte	0xff
 3440 14f8 01       		.byte	0x1
 3441 14f9 010C0000 		.4byte	0xc01
 3442 14fd 01       		.byte	0x1
 3443 14fe 26150000 		.4byte	0x1526
 3444 1502 0F       		.uleb128 0xf
 3445 1503 010C0000 		.4byte	0xc01
 3446 1507 0F       		.uleb128 0xf
 3447 1508 280D0000 		.4byte	0xd28
 3448 150c 0F       		.uleb128 0xf
 3449 150d 280D0000 		.4byte	0xd28
 3450 1511 0F       		.uleb128 0xf
 3451 1512 280D0000 		.4byte	0xd28
 3452 1516 0F       		.uleb128 0xf
 3453 1517 C8020000 		.4byte	0x2c8
 3454 151b 0F       		.uleb128 0xf
 3455 151c E00B0000 		.4byte	0xbe0
 3456 1520 0F       		.uleb128 0xf
 3457 1521 D70C0000 		.4byte	0xcd7
 3458 1525 00       		.byte	0
 3459 1526 40       		.uleb128 0x40
 3460 1527 01       		.byte	0x1
 3461 1528 95040000 		.4byte	.LASF240
 3462 152c 17       		.byte	0x17
 3463 152d 0D01     		.2byte	0x10d
ARM GAS  /tmp/ccBwbhRg.s 			page 62


 3464 152f 01       		.byte	0x1
 3465 1530 01       		.byte	0x1
 3466 1531 3B150000 		.4byte	0x153b
 3467 1535 0F       		.uleb128 0xf
 3468 1536 010C0000 		.4byte	0xc01
 3469 153a 00       		.byte	0
 3470 153b 40       		.uleb128 0x40
 3471 153c 01       		.byte	0x1
 3472 153d 47090000 		.4byte	.LASF241
 3473 1541 17       		.byte	0x17
 3474 1542 1301     		.2byte	0x113
 3475 1544 01       		.byte	0x1
 3476 1545 01       		.byte	0x1
 3477 1546 50150000 		.4byte	0x1550
 3478 154a 0F       		.uleb128 0xf
 3479 154b 010C0000 		.4byte	0xc01
 3480 154f 00       		.byte	0
 3481 1550 3E       		.uleb128 0x3e
 3482 1551 01       		.byte	0x1
 3483 1552 3B0A0000 		.4byte	.LASF242
 3484 1556 0F       		.byte	0xf
 3485 1557 34       		.byte	0x34
 3486 1558 01       		.byte	0x1
 3487 1559 01       		.byte	0x1
 3488 155a 64150000 		.4byte	0x1564
 3489 155e 0F       		.uleb128 0xf
 3490 155f 64150000 		.4byte	0x1564
 3491 1563 00       		.byte	0
 3492 1564 09       		.uleb128 0x9
 3493 1565 04       		.byte	0x4
 3494 1566 1B080000 		.4byte	0x81b
 3495 156a 3E       		.uleb128 0x3e
 3496 156b 01       		.byte	0x1
 3497 156c 76090000 		.4byte	.LASF243
 3498 1570 0C       		.byte	0xc
 3499 1571 A8       		.byte	0xa8
 3500 1572 01       		.byte	0x1
 3501 1573 01       		.byte	0x1
 3502 1574 88150000 		.4byte	0x1588
 3503 1578 0F       		.uleb128 0xf
 3504 1579 88150000 		.4byte	0x1588
 3505 157d 0F       		.uleb128 0xf
 3506 157e 4C050000 		.4byte	0x54c
 3507 1582 0F       		.uleb128 0xf
 3508 1583 09010000 		.4byte	0x109
 3509 1587 00       		.byte	0
 3510 1588 09       		.uleb128 0x9
 3511 1589 04       		.byte	0x4
 3512 158a 6D050000 		.4byte	0x56d
 3513 158e 3C       		.uleb128 0x3c
 3514 158f 01       		.byte	0x1
 3515 1590 8B050000 		.4byte	.LASF244
 3516 1594 0C       		.byte	0xc
 3517 1595 AD       		.byte	0xad
 3518 1596 01       		.byte	0x1
 3519 1597 09010000 		.4byte	0x109
 3520 159b 01       		.byte	0x1
ARM GAS  /tmp/ccBwbhRg.s 			page 63


 3521 159c A6150000 		.4byte	0x15a6
 3522 15a0 0F       		.uleb128 0xf
 3523 15a1 09010000 		.4byte	0x109
 3524 15a5 00       		.byte	0
 3525 15a6 41       		.uleb128 0x41
 3526 15a7 01       		.byte	0x1
 3527 15a8 97000000 		.4byte	.LASF245
 3528 15ac 06       		.byte	0x6
 3529 15ad 6B01     		.2byte	0x16b
 3530 15af 01       		.byte	0x1
 3531 15b0 F3000000 		.4byte	0xf3
 3532 15b4 01       		.byte	0x1
 3533 15b5 0F       		.uleb128 0xf
 3534 15b6 F3000000 		.4byte	0xf3
 3535 15ba 00       		.byte	0
 3536 15bb 00       		.byte	0
 3537              		.section	.debug_abbrev,"",%progbits
 3538              	.Ldebug_abbrev0:
 3539 0000 01       		.uleb128 0x1
 3540 0001 11       		.uleb128 0x11
 3541 0002 01       		.byte	0x1
 3542 0003 25       		.uleb128 0x25
 3543 0004 0E       		.uleb128 0xe
 3544 0005 13       		.uleb128 0x13
 3545 0006 0B       		.uleb128 0xb
 3546 0007 03       		.uleb128 0x3
 3547 0008 0E       		.uleb128 0xe
 3548 0009 1B       		.uleb128 0x1b
 3549 000a 0E       		.uleb128 0xe
 3550 000b 55       		.uleb128 0x55
 3551 000c 06       		.uleb128 0x6
 3552 000d 11       		.uleb128 0x11
 3553 000e 01       		.uleb128 0x1
 3554 000f 52       		.uleb128 0x52
 3555 0010 01       		.uleb128 0x1
 3556 0011 10       		.uleb128 0x10
 3557 0012 06       		.uleb128 0x6
 3558 0013 00       		.byte	0
 3559 0014 00       		.byte	0
 3560 0015 02       		.uleb128 0x2
 3561 0016 24       		.uleb128 0x24
 3562 0017 00       		.byte	0
 3563 0018 0B       		.uleb128 0xb
 3564 0019 0B       		.uleb128 0xb
 3565 001a 3E       		.uleb128 0x3e
 3566 001b 0B       		.uleb128 0xb
 3567 001c 03       		.uleb128 0x3
 3568 001d 08       		.uleb128 0x8
 3569 001e 00       		.byte	0
 3570 001f 00       		.byte	0
 3571 0020 03       		.uleb128 0x3
 3572 0021 16       		.uleb128 0x16
 3573 0022 00       		.byte	0
 3574 0023 03       		.uleb128 0x3
 3575 0024 0E       		.uleb128 0xe
 3576 0025 3A       		.uleb128 0x3a
 3577 0026 0B       		.uleb128 0xb
ARM GAS  /tmp/ccBwbhRg.s 			page 64


 3578 0027 3B       		.uleb128 0x3b
 3579 0028 0B       		.uleb128 0xb
 3580 0029 49       		.uleb128 0x49
 3581 002a 13       		.uleb128 0x13
 3582 002b 00       		.byte	0
 3583 002c 00       		.byte	0
 3584 002d 04       		.uleb128 0x4
 3585 002e 24       		.uleb128 0x24
 3586 002f 00       		.byte	0
 3587 0030 0B       		.uleb128 0xb
 3588 0031 0B       		.uleb128 0xb
 3589 0032 3E       		.uleb128 0x3e
 3590 0033 0B       		.uleb128 0xb
 3591 0034 03       		.uleb128 0x3
 3592 0035 0E       		.uleb128 0xe
 3593 0036 00       		.byte	0
 3594 0037 00       		.byte	0
 3595 0038 05       		.uleb128 0x5
 3596 0039 13       		.uleb128 0x13
 3597 003a 01       		.byte	0x1
 3598 003b 03       		.uleb128 0x3
 3599 003c 0E       		.uleb128 0xe
 3600 003d 0B       		.uleb128 0xb
 3601 003e 0B       		.uleb128 0xb
 3602 003f 3A       		.uleb128 0x3a
 3603 0040 0B       		.uleb128 0xb
 3604 0041 3B       		.uleb128 0x3b
 3605 0042 0B       		.uleb128 0xb
 3606 0043 01       		.uleb128 0x1
 3607 0044 13       		.uleb128 0x13
 3608 0045 00       		.byte	0
 3609 0046 00       		.byte	0
 3610 0047 06       		.uleb128 0x6
 3611 0048 0D       		.uleb128 0xd
 3612 0049 00       		.byte	0
 3613 004a 03       		.uleb128 0x3
 3614 004b 0E       		.uleb128 0xe
 3615 004c 3A       		.uleb128 0x3a
 3616 004d 0B       		.uleb128 0xb
 3617 004e 3B       		.uleb128 0x3b
 3618 004f 0B       		.uleb128 0xb
 3619 0050 49       		.uleb128 0x49
 3620 0051 13       		.uleb128 0x13
 3621 0052 38       		.uleb128 0x38
 3622 0053 0A       		.uleb128 0xa
 3623 0054 00       		.byte	0
 3624 0055 00       		.byte	0
 3625 0056 07       		.uleb128 0x7
 3626 0057 0D       		.uleb128 0xd
 3627 0058 00       		.byte	0
 3628 0059 03       		.uleb128 0x3
 3629 005a 08       		.uleb128 0x8
 3630 005b 3A       		.uleb128 0x3a
 3631 005c 0B       		.uleb128 0xb
 3632 005d 3B       		.uleb128 0x3b
 3633 005e 0B       		.uleb128 0xb
 3634 005f 49       		.uleb128 0x49
ARM GAS  /tmp/ccBwbhRg.s 			page 65


 3635 0060 13       		.uleb128 0x13
 3636 0061 38       		.uleb128 0x38
 3637 0062 0A       		.uleb128 0xa
 3638 0063 00       		.byte	0
 3639 0064 00       		.byte	0
 3640 0065 08       		.uleb128 0x8
 3641 0066 13       		.uleb128 0x13
 3642 0067 01       		.byte	0x1
 3643 0068 0B       		.uleb128 0xb
 3644 0069 0B       		.uleb128 0xb
 3645 006a 3A       		.uleb128 0x3a
 3646 006b 0B       		.uleb128 0xb
 3647 006c 3B       		.uleb128 0x3b
 3648 006d 0B       		.uleb128 0xb
 3649 006e 01       		.uleb128 0x1
 3650 006f 13       		.uleb128 0x13
 3651 0070 00       		.byte	0
 3652 0071 00       		.byte	0
 3653 0072 09       		.uleb128 0x9
 3654 0073 0F       		.uleb128 0xf
 3655 0074 00       		.byte	0
 3656 0075 0B       		.uleb128 0xb
 3657 0076 0B       		.uleb128 0xb
 3658 0077 49       		.uleb128 0x49
 3659 0078 13       		.uleb128 0x13
 3660 0079 00       		.byte	0
 3661 007a 00       		.byte	0
 3662 007b 0A       		.uleb128 0xa
 3663 007c 0F       		.uleb128 0xf
 3664 007d 00       		.byte	0
 3665 007e 0B       		.uleb128 0xb
 3666 007f 0B       		.uleb128 0xb
 3667 0080 00       		.byte	0
 3668 0081 00       		.byte	0
 3669 0082 0B       		.uleb128 0xb
 3670 0083 13       		.uleb128 0x13
 3671 0084 01       		.byte	0x1
 3672 0085 03       		.uleb128 0x3
 3673 0086 0E       		.uleb128 0xe
 3674 0087 0B       		.uleb128 0xb
 3675 0088 0B       		.uleb128 0xb
 3676 0089 3A       		.uleb128 0x3a
 3677 008a 0B       		.uleb128 0xb
 3678 008b 3B       		.uleb128 0x3b
 3679 008c 05       		.uleb128 0x5
 3680 008d 01       		.uleb128 0x1
 3681 008e 13       		.uleb128 0x13
 3682 008f 00       		.byte	0
 3683 0090 00       		.byte	0
 3684 0091 0C       		.uleb128 0xc
 3685 0092 0D       		.uleb128 0xd
 3686 0093 00       		.byte	0
 3687 0094 03       		.uleb128 0x3
 3688 0095 08       		.uleb128 0x8
 3689 0096 3A       		.uleb128 0x3a
 3690 0097 0B       		.uleb128 0xb
 3691 0098 3B       		.uleb128 0x3b
ARM GAS  /tmp/ccBwbhRg.s 			page 66


 3692 0099 05       		.uleb128 0x5
 3693 009a 49       		.uleb128 0x49
 3694 009b 13       		.uleb128 0x13
 3695 009c 38       		.uleb128 0x38
 3696 009d 0A       		.uleb128 0xa
 3697 009e 00       		.byte	0
 3698 009f 00       		.byte	0
 3699 00a0 0D       		.uleb128 0xd
 3700 00a1 35       		.uleb128 0x35
 3701 00a2 00       		.byte	0
 3702 00a3 49       		.uleb128 0x49
 3703 00a4 13       		.uleb128 0x13
 3704 00a5 00       		.byte	0
 3705 00a6 00       		.byte	0
 3706 00a7 0E       		.uleb128 0xe
 3707 00a8 15       		.uleb128 0x15
 3708 00a9 01       		.byte	0x1
 3709 00aa 27       		.uleb128 0x27
 3710 00ab 0C       		.uleb128 0xc
 3711 00ac 01       		.uleb128 0x1
 3712 00ad 13       		.uleb128 0x13
 3713 00ae 00       		.byte	0
 3714 00af 00       		.byte	0
 3715 00b0 0F       		.uleb128 0xf
 3716 00b1 05       		.uleb128 0x5
 3717 00b2 00       		.byte	0
 3718 00b3 49       		.uleb128 0x49
 3719 00b4 13       		.uleb128 0x13
 3720 00b5 00       		.byte	0
 3721 00b6 00       		.byte	0
 3722 00b7 10       		.uleb128 0x10
 3723 00b8 17       		.uleb128 0x17
 3724 00b9 01       		.byte	0x1
 3725 00ba 0B       		.uleb128 0xb
 3726 00bb 0B       		.uleb128 0xb
 3727 00bc 3A       		.uleb128 0x3a
 3728 00bd 0B       		.uleb128 0xb
 3729 00be 3B       		.uleb128 0x3b
 3730 00bf 0B       		.uleb128 0xb
 3731 00c0 01       		.uleb128 0x1
 3732 00c1 13       		.uleb128 0x13
 3733 00c2 00       		.byte	0
 3734 00c3 00       		.byte	0
 3735 00c4 11       		.uleb128 0x11
 3736 00c5 0D       		.uleb128 0xd
 3737 00c6 00       		.byte	0
 3738 00c7 03       		.uleb128 0x3
 3739 00c8 0E       		.uleb128 0xe
 3740 00c9 3A       		.uleb128 0x3a
 3741 00ca 0B       		.uleb128 0xb
 3742 00cb 3B       		.uleb128 0x3b
 3743 00cc 0B       		.uleb128 0xb
 3744 00cd 49       		.uleb128 0x49
 3745 00ce 13       		.uleb128 0x13
 3746 00cf 00       		.byte	0
 3747 00d0 00       		.byte	0
 3748 00d1 12       		.uleb128 0x12
ARM GAS  /tmp/ccBwbhRg.s 			page 67


 3749 00d2 26       		.uleb128 0x26
 3750 00d3 00       		.byte	0
 3751 00d4 49       		.uleb128 0x49
 3752 00d5 13       		.uleb128 0x13
 3753 00d6 00       		.byte	0
 3754 00d7 00       		.byte	0
 3755 00d8 13       		.uleb128 0x13
 3756 00d9 04       		.uleb128 0x4
 3757 00da 01       		.byte	0x1
 3758 00db 0B       		.uleb128 0xb
 3759 00dc 0B       		.uleb128 0xb
 3760 00dd 3A       		.uleb128 0x3a
 3761 00de 0B       		.uleb128 0xb
 3762 00df 3B       		.uleb128 0x3b
 3763 00e0 0B       		.uleb128 0xb
 3764 00e1 01       		.uleb128 0x1
 3765 00e2 13       		.uleb128 0x13
 3766 00e3 00       		.byte	0
 3767 00e4 00       		.byte	0
 3768 00e5 14       		.uleb128 0x14
 3769 00e6 28       		.uleb128 0x28
 3770 00e7 00       		.byte	0
 3771 00e8 03       		.uleb128 0x3
 3772 00e9 0E       		.uleb128 0xe
 3773 00ea 1C       		.uleb128 0x1c
 3774 00eb 0D       		.uleb128 0xd
 3775 00ec 00       		.byte	0
 3776 00ed 00       		.byte	0
 3777 00ee 15       		.uleb128 0x15
 3778 00ef 0D       		.uleb128 0xd
 3779 00f0 00       		.byte	0
 3780 00f1 03       		.uleb128 0x3
 3781 00f2 0E       		.uleb128 0xe
 3782 00f3 3A       		.uleb128 0x3a
 3783 00f4 0B       		.uleb128 0xb
 3784 00f5 3B       		.uleb128 0x3b
 3785 00f6 05       		.uleb128 0x5
 3786 00f7 49       		.uleb128 0x49
 3787 00f8 13       		.uleb128 0x13
 3788 00f9 38       		.uleb128 0x38
 3789 00fa 0A       		.uleb128 0xa
 3790 00fb 00       		.byte	0
 3791 00fc 00       		.byte	0
 3792 00fd 16       		.uleb128 0x16
 3793 00fe 13       		.uleb128 0x13
 3794 00ff 01       		.byte	0x1
 3795 0100 0B       		.uleb128 0xb
 3796 0101 0B       		.uleb128 0xb
 3797 0102 3A       		.uleb128 0x3a
 3798 0103 0B       		.uleb128 0xb
 3799 0104 3B       		.uleb128 0x3b
 3800 0105 05       		.uleb128 0x5
 3801 0106 01       		.uleb128 0x1
 3802 0107 13       		.uleb128 0x13
 3803 0108 00       		.byte	0
 3804 0109 00       		.byte	0
 3805 010a 17       		.uleb128 0x17
ARM GAS  /tmp/ccBwbhRg.s 			page 68


 3806 010b 16       		.uleb128 0x16
 3807 010c 00       		.byte	0
 3808 010d 03       		.uleb128 0x3
 3809 010e 0E       		.uleb128 0xe
 3810 010f 3A       		.uleb128 0x3a
 3811 0110 0B       		.uleb128 0xb
 3812 0111 3B       		.uleb128 0x3b
 3813 0112 05       		.uleb128 0x5
 3814 0113 49       		.uleb128 0x49
 3815 0114 13       		.uleb128 0x13
 3816 0115 00       		.byte	0
 3817 0116 00       		.byte	0
 3818 0117 18       		.uleb128 0x18
 3819 0118 13       		.uleb128 0x13
 3820 0119 01       		.byte	0x1
 3821 011a 03       		.uleb128 0x3
 3822 011b 0E       		.uleb128 0xe
 3823 011c 0B       		.uleb128 0xb
 3824 011d 05       		.uleb128 0x5
 3825 011e 3A       		.uleb128 0x3a
 3826 011f 0B       		.uleb128 0xb
 3827 0120 3B       		.uleb128 0x3b
 3828 0121 0B       		.uleb128 0xb
 3829 0122 01       		.uleb128 0x1
 3830 0123 13       		.uleb128 0x13
 3831 0124 00       		.byte	0
 3832 0125 00       		.byte	0
 3833 0126 19       		.uleb128 0x19
 3834 0127 01       		.uleb128 0x1
 3835 0128 01       		.byte	0x1
 3836 0129 49       		.uleb128 0x49
 3837 012a 13       		.uleb128 0x13
 3838 012b 01       		.uleb128 0x1
 3839 012c 13       		.uleb128 0x13
 3840 012d 00       		.byte	0
 3841 012e 00       		.byte	0
 3842 012f 1A       		.uleb128 0x1a
 3843 0130 21       		.uleb128 0x21
 3844 0131 00       		.byte	0
 3845 0132 49       		.uleb128 0x49
 3846 0133 13       		.uleb128 0x13
 3847 0134 2F       		.uleb128 0x2f
 3848 0135 0B       		.uleb128 0xb
 3849 0136 00       		.byte	0
 3850 0137 00       		.byte	0
 3851 0138 1B       		.uleb128 0x1b
 3852 0139 15       		.uleb128 0x15
 3853 013a 01       		.byte	0x1
 3854 013b 27       		.uleb128 0x27
 3855 013c 0C       		.uleb128 0xc
 3856 013d 49       		.uleb128 0x49
 3857 013e 13       		.uleb128 0x13
 3858 013f 01       		.uleb128 0x1
 3859 0140 13       		.uleb128 0x13
 3860 0141 00       		.byte	0
 3861 0142 00       		.byte	0
 3862 0143 1C       		.uleb128 0x1c
ARM GAS  /tmp/ccBwbhRg.s 			page 69


 3863 0144 2E       		.uleb128 0x2e
 3864 0145 01       		.byte	0x1
 3865 0146 03       		.uleb128 0x3
 3866 0147 0E       		.uleb128 0xe
 3867 0148 3A       		.uleb128 0x3a
 3868 0149 0B       		.uleb128 0xb
 3869 014a 3B       		.uleb128 0x3b
 3870 014b 0B       		.uleb128 0xb
 3871 014c 27       		.uleb128 0x27
 3872 014d 0C       		.uleb128 0xc
 3873 014e 20       		.uleb128 0x20
 3874 014f 0B       		.uleb128 0xb
 3875 0150 01       		.uleb128 0x1
 3876 0151 13       		.uleb128 0x13
 3877 0152 00       		.byte	0
 3878 0153 00       		.byte	0
 3879 0154 1D       		.uleb128 0x1d
 3880 0155 05       		.uleb128 0x5
 3881 0156 00       		.byte	0
 3882 0157 03       		.uleb128 0x3
 3883 0158 0E       		.uleb128 0xe
 3884 0159 3A       		.uleb128 0x3a
 3885 015a 0B       		.uleb128 0xb
 3886 015b 3B       		.uleb128 0x3b
 3887 015c 0B       		.uleb128 0xb
 3888 015d 49       		.uleb128 0x49
 3889 015e 13       		.uleb128 0x13
 3890 015f 00       		.byte	0
 3891 0160 00       		.byte	0
 3892 0161 1E       		.uleb128 0x1e
 3893 0162 2E       		.uleb128 0x2e
 3894 0163 01       		.byte	0x1
 3895 0164 03       		.uleb128 0x3
 3896 0165 0E       		.uleb128 0xe
 3897 0166 3A       		.uleb128 0x3a
 3898 0167 0B       		.uleb128 0xb
 3899 0168 3B       		.uleb128 0x3b
 3900 0169 0B       		.uleb128 0xb
 3901 016a 27       		.uleb128 0x27
 3902 016b 0C       		.uleb128 0xc
 3903 016c 49       		.uleb128 0x49
 3904 016d 13       		.uleb128 0x13
 3905 016e 20       		.uleb128 0x20
 3906 016f 0B       		.uleb128 0xb
 3907 0170 01       		.uleb128 0x1
 3908 0171 13       		.uleb128 0x13
 3909 0172 00       		.byte	0
 3910 0173 00       		.byte	0
 3911 0174 1F       		.uleb128 0x1f
 3912 0175 34       		.uleb128 0x34
 3913 0176 00       		.byte	0
 3914 0177 03       		.uleb128 0x3
 3915 0178 08       		.uleb128 0x8
 3916 0179 3A       		.uleb128 0x3a
 3917 017a 0B       		.uleb128 0xb
 3918 017b 3B       		.uleb128 0x3b
 3919 017c 0B       		.uleb128 0xb
ARM GAS  /tmp/ccBwbhRg.s 			page 70


 3920 017d 49       		.uleb128 0x49
 3921 017e 13       		.uleb128 0x13
 3922 017f 00       		.byte	0
 3923 0180 00       		.byte	0
 3924 0181 20       		.uleb128 0x20
 3925 0182 2E       		.uleb128 0x2e
 3926 0183 01       		.byte	0x1
 3927 0184 03       		.uleb128 0x3
 3928 0185 0E       		.uleb128 0xe
 3929 0186 3A       		.uleb128 0x3a
 3930 0187 0B       		.uleb128 0xb
 3931 0188 3B       		.uleb128 0x3b
 3932 0189 0B       		.uleb128 0xb
 3933 018a 27       		.uleb128 0x27
 3934 018b 0C       		.uleb128 0xc
 3935 018c 49       		.uleb128 0x49
 3936 018d 13       		.uleb128 0x13
 3937 018e 11       		.uleb128 0x11
 3938 018f 01       		.uleb128 0x1
 3939 0190 12       		.uleb128 0x12
 3940 0191 01       		.uleb128 0x1
 3941 0192 40       		.uleb128 0x40
 3942 0193 0A       		.uleb128 0xa
 3943 0194 9742     		.uleb128 0x2117
 3944 0196 0C       		.uleb128 0xc
 3945 0197 01       		.uleb128 0x1
 3946 0198 13       		.uleb128 0x13
 3947 0199 00       		.byte	0
 3948 019a 00       		.byte	0
 3949 019b 21       		.uleb128 0x21
 3950 019c 05       		.uleb128 0x5
 3951 019d 00       		.byte	0
 3952 019e 03       		.uleb128 0x3
 3953 019f 0E       		.uleb128 0xe
 3954 01a0 3A       		.uleb128 0x3a
 3955 01a1 0B       		.uleb128 0xb
 3956 01a2 3B       		.uleb128 0x3b
 3957 01a3 0B       		.uleb128 0xb
 3958 01a4 49       		.uleb128 0x49
 3959 01a5 13       		.uleb128 0x13
 3960 01a6 02       		.uleb128 0x2
 3961 01a7 06       		.uleb128 0x6
 3962 01a8 00       		.byte	0
 3963 01a9 00       		.byte	0
 3964 01aa 22       		.uleb128 0x22
 3965 01ab 1D       		.uleb128 0x1d
 3966 01ac 01       		.byte	0x1
 3967 01ad 31       		.uleb128 0x31
 3968 01ae 13       		.uleb128 0x13
 3969 01af 52       		.uleb128 0x52
 3970 01b0 01       		.uleb128 0x1
 3971 01b1 55       		.uleb128 0x55
 3972 01b2 06       		.uleb128 0x6
 3973 01b3 58       		.uleb128 0x58
 3974 01b4 0B       		.uleb128 0xb
 3975 01b5 59       		.uleb128 0x59
 3976 01b6 0B       		.uleb128 0xb
ARM GAS  /tmp/ccBwbhRg.s 			page 71


 3977 01b7 00       		.byte	0
 3978 01b8 00       		.byte	0
 3979 01b9 23       		.uleb128 0x23
 3980 01ba 05       		.uleb128 0x5
 3981 01bb 00       		.byte	0
 3982 01bc 31       		.uleb128 0x31
 3983 01bd 13       		.uleb128 0x13
 3984 01be 02       		.uleb128 0x2
 3985 01bf 06       		.uleb128 0x6
 3986 01c0 00       		.byte	0
 3987 01c1 00       		.byte	0
 3988 01c2 24       		.uleb128 0x24
 3989 01c3 2E       		.uleb128 0x2e
 3990 01c4 01       		.byte	0x1
 3991 01c5 03       		.uleb128 0x3
 3992 01c6 0E       		.uleb128 0xe
 3993 01c7 3A       		.uleb128 0x3a
 3994 01c8 0B       		.uleb128 0xb
 3995 01c9 3B       		.uleb128 0x3b
 3996 01ca 0B       		.uleb128 0xb
 3997 01cb 27       		.uleb128 0x27
 3998 01cc 0C       		.uleb128 0xc
 3999 01cd 49       		.uleb128 0x49
 4000 01ce 13       		.uleb128 0x13
 4001 01cf 11       		.uleb128 0x11
 4002 01d0 01       		.uleb128 0x1
 4003 01d1 12       		.uleb128 0x12
 4004 01d2 01       		.uleb128 0x1
 4005 01d3 40       		.uleb128 0x40
 4006 01d4 06       		.uleb128 0x6
 4007 01d5 9742     		.uleb128 0x2117
 4008 01d7 0C       		.uleb128 0xc
 4009 01d8 01       		.uleb128 0x1
 4010 01d9 13       		.uleb128 0x13
 4011 01da 00       		.byte	0
 4012 01db 00       		.byte	0
 4013 01dc 25       		.uleb128 0x25
 4014 01dd 05       		.uleb128 0x5
 4015 01de 00       		.byte	0
 4016 01df 03       		.uleb128 0x3
 4017 01e0 08       		.uleb128 0x8
 4018 01e1 3A       		.uleb128 0x3a
 4019 01e2 0B       		.uleb128 0xb
 4020 01e3 3B       		.uleb128 0x3b
 4021 01e4 0B       		.uleb128 0xb
 4022 01e5 49       		.uleb128 0x49
 4023 01e6 13       		.uleb128 0x13
 4024 01e7 02       		.uleb128 0x2
 4025 01e8 06       		.uleb128 0x6
 4026 01e9 00       		.byte	0
 4027 01ea 00       		.byte	0
 4028 01eb 26       		.uleb128 0x26
 4029 01ec 34       		.uleb128 0x34
 4030 01ed 00       		.byte	0
 4031 01ee 03       		.uleb128 0x3
 4032 01ef 08       		.uleb128 0x8
 4033 01f0 3A       		.uleb128 0x3a
ARM GAS  /tmp/ccBwbhRg.s 			page 72


 4034 01f1 0B       		.uleb128 0xb
 4035 01f2 3B       		.uleb128 0x3b
 4036 01f3 0B       		.uleb128 0xb
 4037 01f4 49       		.uleb128 0x49
 4038 01f5 13       		.uleb128 0x13
 4039 01f6 02       		.uleb128 0x2
 4040 01f7 06       		.uleb128 0x6
 4041 01f8 00       		.byte	0
 4042 01f9 00       		.byte	0
 4043 01fa 27       		.uleb128 0x27
 4044 01fb 34       		.uleb128 0x34
 4045 01fc 00       		.byte	0
 4046 01fd 03       		.uleb128 0x3
 4047 01fe 08       		.uleb128 0x8
 4048 01ff 3A       		.uleb128 0x3a
 4049 0200 0B       		.uleb128 0xb
 4050 0201 3B       		.uleb128 0x3b
 4051 0202 0B       		.uleb128 0xb
 4052 0203 49       		.uleb128 0x49
 4053 0204 13       		.uleb128 0x13
 4054 0205 02       		.uleb128 0x2
 4055 0206 0A       		.uleb128 0xa
 4056 0207 00       		.byte	0
 4057 0208 00       		.byte	0
 4058 0209 28       		.uleb128 0x28
 4059 020a 898201   		.uleb128 0x4109
 4060 020d 01       		.byte	0x1
 4061 020e 11       		.uleb128 0x11
 4062 020f 01       		.uleb128 0x1
 4063 0210 31       		.uleb128 0x31
 4064 0211 13       		.uleb128 0x13
 4065 0212 01       		.uleb128 0x1
 4066 0213 13       		.uleb128 0x13
 4067 0214 00       		.byte	0
 4068 0215 00       		.byte	0
 4069 0216 29       		.uleb128 0x29
 4070 0217 8A8201   		.uleb128 0x410a
 4071 021a 00       		.byte	0
 4072 021b 02       		.uleb128 0x2
 4073 021c 0A       		.uleb128 0xa
 4074 021d 9142     		.uleb128 0x2111
 4075 021f 0A       		.uleb128 0xa
 4076 0220 00       		.byte	0
 4077 0221 00       		.byte	0
 4078 0222 2A       		.uleb128 0x2a
 4079 0223 898201   		.uleb128 0x4109
 4080 0226 01       		.byte	0x1
 4081 0227 11       		.uleb128 0x11
 4082 0228 01       		.uleb128 0x1
 4083 0229 31       		.uleb128 0x31
 4084 022a 13       		.uleb128 0x13
 4085 022b 00       		.byte	0
 4086 022c 00       		.byte	0
 4087 022d 2B       		.uleb128 0x2b
 4088 022e 2E       		.uleb128 0x2e
 4089 022f 01       		.byte	0x1
 4090 0230 3F       		.uleb128 0x3f
ARM GAS  /tmp/ccBwbhRg.s 			page 73


 4091 0231 0C       		.uleb128 0xc
 4092 0232 03       		.uleb128 0x3
 4093 0233 0E       		.uleb128 0xe
 4094 0234 3A       		.uleb128 0x3a
 4095 0235 0B       		.uleb128 0xb
 4096 0236 3B       		.uleb128 0x3b
 4097 0237 0B       		.uleb128 0xb
 4098 0238 27       		.uleb128 0x27
 4099 0239 0C       		.uleb128 0xc
 4100 023a 49       		.uleb128 0x49
 4101 023b 13       		.uleb128 0x13
 4102 023c 11       		.uleb128 0x11
 4103 023d 01       		.uleb128 0x1
 4104 023e 12       		.uleb128 0x12
 4105 023f 01       		.uleb128 0x1
 4106 0240 40       		.uleb128 0x40
 4107 0241 06       		.uleb128 0x6
 4108 0242 9742     		.uleb128 0x2117
 4109 0244 0C       		.uleb128 0xc
 4110 0245 01       		.uleb128 0x1
 4111 0246 13       		.uleb128 0x13
 4112 0247 00       		.byte	0
 4113 0248 00       		.byte	0
 4114 0249 2C       		.uleb128 0x2c
 4115 024a 34       		.uleb128 0x34
 4116 024b 00       		.byte	0
 4117 024c 03       		.uleb128 0x3
 4118 024d 0E       		.uleb128 0xe
 4119 024e 3A       		.uleb128 0x3a
 4120 024f 0B       		.uleb128 0xb
 4121 0250 3B       		.uleb128 0x3b
 4122 0251 0B       		.uleb128 0xb
 4123 0252 49       		.uleb128 0x49
 4124 0253 13       		.uleb128 0x13
 4125 0254 02       		.uleb128 0x2
 4126 0255 0A       		.uleb128 0xa
 4127 0256 00       		.byte	0
 4128 0257 00       		.byte	0
 4129 0258 2D       		.uleb128 0x2d
 4130 0259 0B       		.uleb128 0xb
 4131 025a 01       		.byte	0x1
 4132 025b 11       		.uleb128 0x11
 4133 025c 01       		.uleb128 0x1
 4134 025d 12       		.uleb128 0x12
 4135 025e 01       		.uleb128 0x1
 4136 025f 01       		.uleb128 0x1
 4137 0260 13       		.uleb128 0x13
 4138 0261 00       		.byte	0
 4139 0262 00       		.byte	0
 4140 0263 2E       		.uleb128 0x2e
 4141 0264 34       		.uleb128 0x34
 4142 0265 00       		.byte	0
 4143 0266 03       		.uleb128 0x3
 4144 0267 0E       		.uleb128 0xe
 4145 0268 3A       		.uleb128 0x3a
 4146 0269 0B       		.uleb128 0xb
 4147 026a 3B       		.uleb128 0x3b
ARM GAS  /tmp/ccBwbhRg.s 			page 74


 4148 026b 0B       		.uleb128 0xb
 4149 026c 49       		.uleb128 0x49
 4150 026d 13       		.uleb128 0x13
 4151 026e 00       		.byte	0
 4152 026f 00       		.byte	0
 4153 0270 2F       		.uleb128 0x2f
 4154 0271 34       		.uleb128 0x34
 4155 0272 00       		.byte	0
 4156 0273 03       		.uleb128 0x3
 4157 0274 0E       		.uleb128 0xe
 4158 0275 3A       		.uleb128 0x3a
 4159 0276 0B       		.uleb128 0xb
 4160 0277 3B       		.uleb128 0x3b
 4161 0278 05       		.uleb128 0x5
 4162 0279 49       		.uleb128 0x49
 4163 027a 13       		.uleb128 0x13
 4164 027b 02       		.uleb128 0x2
 4165 027c 06       		.uleb128 0x6
 4166 027d 00       		.byte	0
 4167 027e 00       		.byte	0
 4168 027f 30       		.uleb128 0x30
 4169 0280 0B       		.uleb128 0xb
 4170 0281 01       		.byte	0x1
 4171 0282 55       		.uleb128 0x55
 4172 0283 06       		.uleb128 0x6
 4173 0284 01       		.uleb128 0x1
 4174 0285 13       		.uleb128 0x13
 4175 0286 00       		.byte	0
 4176 0287 00       		.byte	0
 4177 0288 31       		.uleb128 0x31
 4178 0289 898201   		.uleb128 0x4109
 4179 028c 00       		.byte	0
 4180 028d 11       		.uleb128 0x11
 4181 028e 01       		.uleb128 0x1
 4182 028f 31       		.uleb128 0x31
 4183 0290 13       		.uleb128 0x13
 4184 0291 00       		.byte	0
 4185 0292 00       		.byte	0
 4186 0293 32       		.uleb128 0x32
 4187 0294 34       		.uleb128 0x34
 4188 0295 00       		.byte	0
 4189 0296 03       		.uleb128 0x3
 4190 0297 08       		.uleb128 0x8
 4191 0298 3A       		.uleb128 0x3a
 4192 0299 0B       		.uleb128 0xb
 4193 029a 3B       		.uleb128 0x3b
 4194 029b 05       		.uleb128 0x5
 4195 029c 49       		.uleb128 0x49
 4196 029d 13       		.uleb128 0x13
 4197 029e 00       		.byte	0
 4198 029f 00       		.byte	0
 4199 02a0 33       		.uleb128 0x33
 4200 02a1 898201   		.uleb128 0x4109
 4201 02a4 01       		.byte	0x1
 4202 02a5 11       		.uleb128 0x11
 4203 02a6 01       		.uleb128 0x1
 4204 02a7 00       		.byte	0
ARM GAS  /tmp/ccBwbhRg.s 			page 75


 4205 02a8 00       		.byte	0
 4206 02a9 34       		.uleb128 0x34
 4207 02aa 1D       		.uleb128 0x1d
 4208 02ab 01       		.byte	0x1
 4209 02ac 31       		.uleb128 0x31
 4210 02ad 13       		.uleb128 0x13
 4211 02ae 52       		.uleb128 0x52
 4212 02af 01       		.uleb128 0x1
 4213 02b0 55       		.uleb128 0x55
 4214 02b1 06       		.uleb128 0x6
 4215 02b2 58       		.uleb128 0x58
 4216 02b3 0B       		.uleb128 0xb
 4217 02b4 59       		.uleb128 0x59
 4218 02b5 05       		.uleb128 0x5
 4219 02b6 00       		.byte	0
 4220 02b7 00       		.byte	0
 4221 02b8 35       		.uleb128 0x35
 4222 02b9 0B       		.uleb128 0xb
 4223 02ba 01       		.byte	0x1
 4224 02bb 55       		.uleb128 0x55
 4225 02bc 06       		.uleb128 0x6
 4226 02bd 00       		.byte	0
 4227 02be 00       		.byte	0
 4228 02bf 36       		.uleb128 0x36
 4229 02c0 05       		.uleb128 0x5
 4230 02c1 00       		.byte	0
 4231 02c2 31       		.uleb128 0x31
 4232 02c3 13       		.uleb128 0x13
 4233 02c4 00       		.byte	0
 4234 02c5 00       		.byte	0
 4235 02c6 37       		.uleb128 0x37
 4236 02c7 34       		.uleb128 0x34
 4237 02c8 00       		.byte	0
 4238 02c9 31       		.uleb128 0x31
 4239 02ca 13       		.uleb128 0x13
 4240 02cb 02       		.uleb128 0x2
 4241 02cc 0A       		.uleb128 0xa
 4242 02cd 00       		.byte	0
 4243 02ce 00       		.byte	0
 4244 02cf 38       		.uleb128 0x38
 4245 02d0 34       		.uleb128 0x34
 4246 02d1 00       		.byte	0
 4247 02d2 31       		.uleb128 0x31
 4248 02d3 13       		.uleb128 0x13
 4249 02d4 02       		.uleb128 0x2
 4250 02d5 06       		.uleb128 0x6
 4251 02d6 00       		.byte	0
 4252 02d7 00       		.byte	0
 4253 02d8 39       		.uleb128 0x39
 4254 02d9 34       		.uleb128 0x34
 4255 02da 00       		.byte	0
 4256 02db 03       		.uleb128 0x3
 4257 02dc 0E       		.uleb128 0xe
 4258 02dd 3A       		.uleb128 0x3a
 4259 02de 0B       		.uleb128 0xb
 4260 02df 3B       		.uleb128 0x3b
 4261 02e0 0B       		.uleb128 0xb
ARM GAS  /tmp/ccBwbhRg.s 			page 76


 4262 02e1 49       		.uleb128 0x49
 4263 02e2 13       		.uleb128 0x13
 4264 02e3 3F       		.uleb128 0x3f
 4265 02e4 0C       		.uleb128 0xc
 4266 02e5 3C       		.uleb128 0x3c
 4267 02e6 0C       		.uleb128 0xc
 4268 02e7 00       		.byte	0
 4269 02e8 00       		.byte	0
 4270 02e9 3A       		.uleb128 0x3a
 4271 02ea 34       		.uleb128 0x34
 4272 02eb 00       		.byte	0
 4273 02ec 03       		.uleb128 0x3
 4274 02ed 0E       		.uleb128 0xe
 4275 02ee 3A       		.uleb128 0x3a
 4276 02ef 0B       		.uleb128 0xb
 4277 02f0 3B       		.uleb128 0x3b
 4278 02f1 05       		.uleb128 0x5
 4279 02f2 49       		.uleb128 0x49
 4280 02f3 13       		.uleb128 0x13
 4281 02f4 3F       		.uleb128 0x3f
 4282 02f5 0C       		.uleb128 0xc
 4283 02f6 3C       		.uleb128 0x3c
 4284 02f7 0C       		.uleb128 0xc
 4285 02f8 00       		.byte	0
 4286 02f9 00       		.byte	0
 4287 02fa 3B       		.uleb128 0x3b
 4288 02fb 34       		.uleb128 0x34
 4289 02fc 00       		.byte	0
 4290 02fd 03       		.uleb128 0x3
 4291 02fe 0E       		.uleb128 0xe
 4292 02ff 3A       		.uleb128 0x3a
 4293 0300 0B       		.uleb128 0xb
 4294 0301 3B       		.uleb128 0x3b
 4295 0302 0B       		.uleb128 0xb
 4296 0303 49       		.uleb128 0x49
 4297 0304 13       		.uleb128 0x13
 4298 0305 3F       		.uleb128 0x3f
 4299 0306 0C       		.uleb128 0xc
 4300 0307 02       		.uleb128 0x2
 4301 0308 0A       		.uleb128 0xa
 4302 0309 00       		.byte	0
 4303 030a 00       		.byte	0
 4304 030b 3C       		.uleb128 0x3c
 4305 030c 2E       		.uleb128 0x2e
 4306 030d 01       		.byte	0x1
 4307 030e 3F       		.uleb128 0x3f
 4308 030f 0C       		.uleb128 0xc
 4309 0310 03       		.uleb128 0x3
 4310 0311 0E       		.uleb128 0xe
 4311 0312 3A       		.uleb128 0x3a
 4312 0313 0B       		.uleb128 0xb
 4313 0314 3B       		.uleb128 0x3b
 4314 0315 0B       		.uleb128 0xb
 4315 0316 27       		.uleb128 0x27
 4316 0317 0C       		.uleb128 0xc
 4317 0318 49       		.uleb128 0x49
 4318 0319 13       		.uleb128 0x13
ARM GAS  /tmp/ccBwbhRg.s 			page 77


 4319 031a 3C       		.uleb128 0x3c
 4320 031b 0C       		.uleb128 0xc
 4321 031c 01       		.uleb128 0x1
 4322 031d 13       		.uleb128 0x13
 4323 031e 00       		.byte	0
 4324 031f 00       		.byte	0
 4325 0320 3D       		.uleb128 0x3d
 4326 0321 2E       		.uleb128 0x2e
 4327 0322 01       		.byte	0x1
 4328 0323 3F       		.uleb128 0x3f
 4329 0324 0C       		.uleb128 0xc
 4330 0325 03       		.uleb128 0x3
 4331 0326 0E       		.uleb128 0xe
 4332 0327 3A       		.uleb128 0x3a
 4333 0328 0B       		.uleb128 0xb
 4334 0329 3B       		.uleb128 0x3b
 4335 032a 05       		.uleb128 0x5
 4336 032b 27       		.uleb128 0x27
 4337 032c 0C       		.uleb128 0xc
 4338 032d 49       		.uleb128 0x49
 4339 032e 13       		.uleb128 0x13
 4340 032f 3C       		.uleb128 0x3c
 4341 0330 0C       		.uleb128 0xc
 4342 0331 01       		.uleb128 0x1
 4343 0332 13       		.uleb128 0x13
 4344 0333 00       		.byte	0
 4345 0334 00       		.byte	0
 4346 0335 3E       		.uleb128 0x3e
 4347 0336 2E       		.uleb128 0x2e
 4348 0337 01       		.byte	0x1
 4349 0338 3F       		.uleb128 0x3f
 4350 0339 0C       		.uleb128 0xc
 4351 033a 03       		.uleb128 0x3
 4352 033b 0E       		.uleb128 0xe
 4353 033c 3A       		.uleb128 0x3a
 4354 033d 0B       		.uleb128 0xb
 4355 033e 3B       		.uleb128 0x3b
 4356 033f 0B       		.uleb128 0xb
 4357 0340 27       		.uleb128 0x27
 4358 0341 0C       		.uleb128 0xc
 4359 0342 3C       		.uleb128 0x3c
 4360 0343 0C       		.uleb128 0xc
 4361 0344 01       		.uleb128 0x1
 4362 0345 13       		.uleb128 0x13
 4363 0346 00       		.byte	0
 4364 0347 00       		.byte	0
 4365 0348 3F       		.uleb128 0x3f
 4366 0349 2E       		.uleb128 0x2e
 4367 034a 00       		.byte	0
 4368 034b 3F       		.uleb128 0x3f
 4369 034c 0C       		.uleb128 0xc
 4370 034d 03       		.uleb128 0x3
 4371 034e 0E       		.uleb128 0xe
 4372 034f 3A       		.uleb128 0x3a
 4373 0350 0B       		.uleb128 0xb
 4374 0351 3B       		.uleb128 0x3b
 4375 0352 0B       		.uleb128 0xb
ARM GAS  /tmp/ccBwbhRg.s 			page 78


 4376 0353 27       		.uleb128 0x27
 4377 0354 0C       		.uleb128 0xc
 4378 0355 3C       		.uleb128 0x3c
 4379 0356 0C       		.uleb128 0xc
 4380 0357 00       		.byte	0
 4381 0358 00       		.byte	0
 4382 0359 40       		.uleb128 0x40
 4383 035a 2E       		.uleb128 0x2e
 4384 035b 01       		.byte	0x1
 4385 035c 3F       		.uleb128 0x3f
 4386 035d 0C       		.uleb128 0xc
 4387 035e 03       		.uleb128 0x3
 4388 035f 0E       		.uleb128 0xe
 4389 0360 3A       		.uleb128 0x3a
 4390 0361 0B       		.uleb128 0xb
 4391 0362 3B       		.uleb128 0x3b
 4392 0363 05       		.uleb128 0x5
 4393 0364 27       		.uleb128 0x27
 4394 0365 0C       		.uleb128 0xc
 4395 0366 3C       		.uleb128 0x3c
 4396 0367 0C       		.uleb128 0xc
 4397 0368 01       		.uleb128 0x1
 4398 0369 13       		.uleb128 0x13
 4399 036a 00       		.byte	0
 4400 036b 00       		.byte	0
 4401 036c 41       		.uleb128 0x41
 4402 036d 2E       		.uleb128 0x2e
 4403 036e 01       		.byte	0x1
 4404 036f 3F       		.uleb128 0x3f
 4405 0370 0C       		.uleb128 0xc
 4406 0371 03       		.uleb128 0x3
 4407 0372 0E       		.uleb128 0xe
 4408 0373 3A       		.uleb128 0x3a
 4409 0374 0B       		.uleb128 0xb
 4410 0375 3B       		.uleb128 0x3b
 4411 0376 05       		.uleb128 0x5
 4412 0377 27       		.uleb128 0x27
 4413 0378 0C       		.uleb128 0xc
 4414 0379 49       		.uleb128 0x49
 4415 037a 13       		.uleb128 0x13
 4416 037b 3C       		.uleb128 0x3c
 4417 037c 0C       		.uleb128 0xc
 4418 037d 00       		.byte	0
 4419 037e 00       		.byte	0
 4420 037f 00       		.byte	0
 4421              		.section	.debug_loc,"",%progbits
 4422              	.Ldebug_loc0:
 4423              	.LLST0:
 4424 0000 00000000 		.4byte	.LVL0
 4425 0004 2E000000 		.4byte	.LVL2
 4426 0008 0100     		.2byte	0x1
 4427 000a 50       		.byte	0x50
 4428 000b 2E000000 		.4byte	.LVL2
 4429 000f 3A000000 		.4byte	.LFE121
 4430 0013 0100     		.2byte	0x1
 4431 0015 53       		.byte	0x53
 4432 0016 00000000 		.4byte	0
ARM GAS  /tmp/ccBwbhRg.s 			page 79


 4433 001a 00000000 		.4byte	0
 4434              	.LLST1:
 4435 001e 22000000 		.4byte	.LVL1
 4436 0022 2E000000 		.4byte	.LVL2
 4437 0026 0100     		.2byte	0x1
 4438 0028 50       		.byte	0x50
 4439 0029 2E000000 		.4byte	.LVL2
 4440 002d 3A000000 		.4byte	.LFE121
 4441 0031 0100     		.2byte	0x1
 4442 0033 53       		.byte	0x53
 4443 0034 00000000 		.4byte	0
 4444 0038 00000000 		.4byte	0
 4445              	.LLST2:
 4446 003c 00000000 		.4byte	.LFB119
 4447 0040 02000000 		.4byte	.LCFI0
 4448 0044 0200     		.2byte	0x2
 4449 0046 7D       		.byte	0x7d
 4450 0047 00       		.sleb128 0
 4451 0048 02000000 		.4byte	.LCFI0
 4452 004c 04000000 		.4byte	.LCFI1
 4453 0050 0200     		.2byte	0x2
 4454 0052 7D       		.byte	0x7d
 4455 0053 08       		.sleb128 8
 4456 0054 04000000 		.4byte	.LCFI1
 4457 0058 48000000 		.4byte	.LFE119
 4458 005c 0200     		.2byte	0x2
 4459 005e 7D       		.byte	0x7d
 4460 005f 18       		.sleb128 24
 4461 0060 00000000 		.4byte	0
 4462 0064 00000000 		.4byte	0
 4463              	.LLST3:
 4464 0068 00000000 		.4byte	.LVL3
 4465 006c 08000000 		.4byte	.LVL4
 4466 0070 0100     		.2byte	0x1
 4467 0072 50       		.byte	0x50
 4468 0073 08000000 		.4byte	.LVL4
 4469 0077 48000000 		.4byte	.LFE119
 4470 007b 0400     		.2byte	0x4
 4471 007d F3       		.byte	0xf3
 4472 007e 01       		.uleb128 0x1
 4473 007f 50       		.byte	0x50
 4474 0080 9F       		.byte	0x9f
 4475 0081 00000000 		.4byte	0
 4476 0085 00000000 		.4byte	0
 4477              	.LLST4:
 4478 0089 00000000 		.4byte	.LVL3
 4479 008d 0A000000 		.4byte	.LVL5
 4480 0091 0100     		.2byte	0x1
 4481 0093 51       		.byte	0x51
 4482 0094 0A000000 		.4byte	.LVL5
 4483 0098 14000000 		.4byte	.LVL8
 4484 009c 0100     		.2byte	0x1
 4485 009e 54       		.byte	0x54
 4486 009f 14000000 		.4byte	.LVL8
 4487 00a3 3A000000 		.4byte	.LVL13
 4488 00a7 0400     		.2byte	0x4
 4489 00a9 F3       		.byte	0xf3
ARM GAS  /tmp/ccBwbhRg.s 			page 80


 4490 00aa 01       		.uleb128 0x1
 4491 00ab 51       		.byte	0x51
 4492 00ac 9F       		.byte	0x9f
 4493 00ad 3A000000 		.4byte	.LVL13
 4494 00b1 48000000 		.4byte	.LFE119
 4495 00b5 0100     		.2byte	0x1
 4496 00b7 54       		.byte	0x54
 4497 00b8 00000000 		.4byte	0
 4498 00bc 00000000 		.4byte	0
 4499              	.LLST5:
 4500 00c0 12000000 		.4byte	.LVL7
 4501 00c4 34000000 		.4byte	.LVL12
 4502 00c8 0100     		.2byte	0x1
 4503 00ca 54       		.byte	0x54
 4504 00cb 00000000 		.4byte	0
 4505 00cf 00000000 		.4byte	0
 4506              	.LLST6:
 4507 00d3 00000000 		.4byte	.LFB122
 4508 00d7 04000000 		.4byte	.LCFI2
 4509 00db 0200     		.2byte	0x2
 4510 00dd 7D       		.byte	0x7d
 4511 00de 00       		.sleb128 0
 4512 00df 04000000 		.4byte	.LCFI2
 4513 00e3 10000000 		.4byte	.LCFI3
 4514 00e7 0200     		.2byte	0x2
 4515 00e9 7D       		.byte	0x7d
 4516 00ea 18       		.sleb128 24
 4517 00eb 10000000 		.4byte	.LCFI3
 4518 00ef D4010000 		.4byte	.LFE122
 4519 00f3 0300     		.2byte	0x3
 4520 00f5 7D       		.byte	0x7d
 4521 00f6 8001     		.sleb128 128
 4522 00f8 00000000 		.4byte	0
 4523 00fc 00000000 		.4byte	0
 4524              	.LLST7:
 4525 0100 00000000 		.4byte	.LVL14
 4526 0104 15000000 		.4byte	.LVL15-1
 4527 0108 0100     		.2byte	0x1
 4528 010a 50       		.byte	0x50
 4529 010b 15000000 		.4byte	.LVL15-1
 4530 010f 9A000000 		.4byte	.LVL23
 4531 0113 0100     		.2byte	0x1
 4532 0115 54       		.byte	0x54
 4533 0116 9A000000 		.4byte	.LVL23
 4534 011a D4010000 		.4byte	.LFE122
 4535 011e 0400     		.2byte	0x4
 4536 0120 F3       		.byte	0xf3
 4537 0121 01       		.uleb128 0x1
 4538 0122 50       		.byte	0x50
 4539 0123 9F       		.byte	0x9f
 4540 0124 00000000 		.4byte	0
 4541 0128 00000000 		.4byte	0
 4542              	.LLST8:
 4543 012c 36000000 		.4byte	.LVL20
 4544 0130 44000000 		.4byte	.LVL21
 4545 0134 0100     		.2byte	0x1
 4546 0136 53       		.byte	0x53
ARM GAS  /tmp/ccBwbhRg.s 			page 81


 4547 0137 00000000 		.4byte	0
 4548 013b 00000000 		.4byte	0
 4549              	.LLST9:
 4550 013f EA000000 		.4byte	.LVL32
 4551 0143 EE000000 		.4byte	.LVL33
 4552 0147 0100     		.2byte	0x1
 4553 0149 54       		.byte	0x54
 4554 014a FA000000 		.4byte	.LVL35
 4555 014e FE000000 		.4byte	.LVL36
 4556 0152 0100     		.2byte	0x1
 4557 0154 50       		.byte	0x50
 4558 0155 FE000000 		.4byte	.LVL36
 4559 0159 26010000 		.4byte	.LVL41
 4560 015d 0100     		.2byte	0x1
 4561 015f 54       		.byte	0x54
 4562 0160 7C010000 		.4byte	.LVL52
 4563 0164 86010000 		.4byte	.LVL55
 4564 0168 0100     		.2byte	0x1
 4565 016a 54       		.byte	0x54
 4566 016b 00000000 		.4byte	0
 4567 016f 00000000 		.4byte	0
 4568              	.LLST10:
 4569 0173 0E010000 		.4byte	.LVL38
 4570 0177 1A010000 		.4byte	.LVL39
 4571 017b 0100     		.2byte	0x1
 4572 017d 50       		.byte	0x50
 4573 017e 7C010000 		.4byte	.LVL52
 4574 0182 80010000 		.4byte	.LVL53
 4575 0186 0100     		.2byte	0x1
 4576 0188 50       		.byte	0x50
 4577 0189 80010000 		.4byte	.LVL53
 4578 018d 83010000 		.4byte	.LVL54-1
 4579 0191 0100     		.2byte	0x1
 4580 0193 52       		.byte	0x52
 4581 0194 00000000 		.4byte	0
 4582 0198 00000000 		.4byte	0
 4583              	.LLST11:
 4584 019c 64010000 		.4byte	.LVL49
 4585 01a0 69010000 		.4byte	.LVL50-1
 4586 01a4 0100     		.2byte	0x1
 4587 01a6 53       		.byte	0x53
 4588 01a7 00000000 		.4byte	0
 4589 01ab 00000000 		.4byte	0
 4590              	.LLST12:
 4591 01af 40010000 		.4byte	.LVL44
 4592 01b3 46010000 		.4byte	.LVL45
 4593 01b7 0100     		.2byte	0x1
 4594 01b9 50       		.byte	0x50
 4595 01ba 46010000 		.4byte	.LVL45
 4596 01be 7C010000 		.4byte	.LVL52
 4597 01c2 0100     		.2byte	0x1
 4598 01c4 55       		.byte	0x55
 4599 01c5 86010000 		.4byte	.LVL55
 4600 01c9 94010000 		.4byte	.LVL57
 4601 01cd 0100     		.2byte	0x1
 4602 01cf 55       		.byte	0x55
 4603 01d0 94010000 		.4byte	.LVL57
ARM GAS  /tmp/ccBwbhRg.s 			page 82


 4604 01d4 96010000 		.4byte	.LVL58
 4605 01d8 0100     		.2byte	0x1
 4606 01da 50       		.byte	0x50
 4607 01db 96010000 		.4byte	.LVL58
 4608 01df D4010000 		.4byte	.LFE122
 4609 01e3 0100     		.2byte	0x1
 4610 01e5 55       		.byte	0x55
 4611 01e6 00000000 		.4byte	0
 4612 01ea 00000000 		.4byte	0
 4613              	.LLST13:
 4614 01ee 52010000 		.4byte	.LVL47
 4615 01f2 7C010000 		.4byte	.LVL52
 4616 01f6 0100     		.2byte	0x1
 4617 01f8 54       		.byte	0x54
 4618 01f9 86010000 		.4byte	.LVL55
 4619 01fd 94010000 		.4byte	.LVL57
 4620 0201 0100     		.2byte	0x1
 4621 0203 54       		.byte	0x54
 4622 0204 00000000 		.4byte	0
 4623 0208 00000000 		.4byte	0
 4624              	.LLST14:
 4625 020c 34010000 		.4byte	.LVL43
 4626 0210 3F010000 		.4byte	.LVL44-1
 4627 0214 0300     		.2byte	0x3
 4628 0216 91       		.byte	0x91
 4629 0217 A47F     		.sleb128 -92
 4630 0219 00000000 		.4byte	0
 4631 021d 00000000 		.4byte	0
 4632              		.section	.debug_aranges,"",%progbits
 4633 0000 2C000000 		.4byte	0x2c
 4634 0004 0200     		.2byte	0x2
 4635 0006 00000000 		.4byte	.Ldebug_info0
 4636 000a 04       		.byte	0x4
 4637 000b 00       		.byte	0
 4638 000c 0000     		.2byte	0
 4639 000e 0000     		.2byte	0
 4640 0010 00000000 		.4byte	.LFB121
 4641 0014 3A000000 		.4byte	.LFE121-.LFB121
 4642 0018 00000000 		.4byte	.LFB119
 4643 001c 48000000 		.4byte	.LFE119-.LFB119
 4644 0020 00000000 		.4byte	.LFB122
 4645 0024 D4010000 		.4byte	.LFE122-.LFB122
 4646 0028 00000000 		.4byte	0
 4647 002c 00000000 		.4byte	0
 4648              		.section	.debug_ranges,"",%progbits
 4649              	.Ldebug_ranges0:
 4650 0000 22000000 		.4byte	.LBB4
 4651 0004 2C000000 		.4byte	.LBE4
 4652 0008 2E000000 		.4byte	.LBB8
 4653 000c 32000000 		.4byte	.LBE8
 4654 0010 34000000 		.4byte	.LBB9
 4655 0014 38000000 		.4byte	.LBE9
 4656 0018 00000000 		.4byte	0
 4657 001c 00000000 		.4byte	0
 4658 0020 FC000000 		.4byte	.LBB19
 4659 0024 1E010000 		.4byte	.LBE19
 4660 0028 7C010000 		.4byte	.LBB31
ARM GAS  /tmp/ccBwbhRg.s 			page 83


 4661 002c 86010000 		.4byte	.LBE31
 4662 0030 00000000 		.4byte	0
 4663 0034 00000000 		.4byte	0
 4664 0038 22010000 		.4byte	.LBB20
 4665 003c 7C010000 		.4byte	.LBE20
 4666 0040 86010000 		.4byte	.LBB32
 4667 0044 D4010000 		.4byte	.LBE32
 4668 0048 00000000 		.4byte	0
 4669 004c 00000000 		.4byte	0
 4670 0050 22010000 		.4byte	.LBB21
 4671 0054 26010000 		.4byte	.LBE21
 4672 0058 5E010000 		.4byte	.LBB26
 4673 005c 60010000 		.4byte	.LBE26
 4674 0060 64010000 		.4byte	.LBB28
 4675 0064 7C010000 		.4byte	.LBE28
 4676 0068 86010000 		.4byte	.LBB29
 4677 006c 94010000 		.4byte	.LBE29
 4678 0070 00000000 		.4byte	0
 4679 0074 00000000 		.4byte	0
 4680 0078 26010000 		.4byte	.LBB22
 4681 007c 5E010000 		.4byte	.LBE22
 4682 0080 60010000 		.4byte	.LBB27
 4683 0084 64010000 		.4byte	.LBE27
 4684 0088 94010000 		.4byte	.LBB30
 4685 008c D4010000 		.4byte	.LBE30
 4686 0090 00000000 		.4byte	0
 4687 0094 00000000 		.4byte	0
 4688 0098 26010000 		.4byte	.LBB23
 4689 009c 5E010000 		.4byte	.LBE23
 4690 00a0 60010000 		.4byte	.LBB24
 4691 00a4 64010000 		.4byte	.LBE24
 4692 00a8 94010000 		.4byte	.LBB25
 4693 00ac D4010000 		.4byte	.LBE25
 4694 00b0 00000000 		.4byte	0
 4695 00b4 00000000 		.4byte	0
 4696 00b8 00000000 		.4byte	.LFB121
 4697 00bc 3A000000 		.4byte	.LFE121
 4698 00c0 00000000 		.4byte	.LFB119
 4699 00c4 48000000 		.4byte	.LFE119
 4700 00c8 00000000 		.4byte	.LFB122
 4701 00cc D4010000 		.4byte	.LFE122
 4702 00d0 00000000 		.4byte	0
 4703 00d4 00000000 		.4byte	0
 4704              		.section	.debug_line,"",%progbits
 4705              	.Ldebug_line0:
 4706 0000 7B040000 		.section	.debug_str,"MS",%progbits,1
 4706      02007603 
 4706      00000201 
 4706      FB0E0D00 
 4706      01010101 
 4707              	.LASF248:
 4708 0000 2F686F6D 		.ascii	"/home/kwilson/Sandbox/ChibiOS_2.5.1/demos/ARMCM4-ST"
 4708      652F6B77 
 4708      696C736F 
 4708      6E2F5361 
 4708      6E64626F 
 4709 0033 4D333246 		.ascii	"M32F407-LWIP-FATFS-USB\000"
ARM GAS  /tmp/ccBwbhRg.s 			page 84


 4709      3430372D 
 4709      4C574950 
 4709      2D464154 
 4709      46532D55 
 4710              	.LASF2:
 4711 004a 696E7438 		.ascii	"int8_t\000"
 4711      5F7400
 4712              	.LASF167:
 4713 0051 70726F74 		.ascii	"proterr\000"
 4713      65727200 
 4714              	.LASF1:
 4715 0059 73697A65 		.ascii	"size_t\000"
 4715      5F7400
 4716              	.LASF53:
 4717 0060 73697A65 		.ascii	"sizetype\000"
 4717      74797065 
 4717      00
 4718              	.LASF25:
 4719 0069 73797374 		.ascii	"systime_t\000"
 4719      696D655F 
 4719      7400
 4720              	.LASF201:
 4721 0073 6574685F 		.ascii	"eth_addr\000"
 4721      61646472 
 4721      00
 4722              	.LASF31:
 4723 007c 705F6374 		.ascii	"p_ctx\000"
 4723      7800
 4724              	.LASF21:
 4725 0082 74707269 		.ascii	"tprio_t\000"
 4725      6F5F7400 
 4726              	.LASF146:
 4727 008a 4D454D50 		.ascii	"MEMP_TCP_PCB\000"
 4727      5F544350 
 4727      5F504342 
 4727      00
 4728              	.LASF245:
 4729 0097 63685468 		.ascii	"chThdSetPriority\000"
 4729      64536574 
 4729      5072696F 
 4729      72697479 
 4729      00
 4730              	.LASF123:
 4731 00a8 73385F74 		.ascii	"s8_t\000"
 4731      00
 4732              	.LASF41:
 4733 00ad 705F6D73 		.ascii	"p_msgqueue\000"
 4733      67717565 
 4733      756500
 4734              	.LASF63:
 4735 00b8 725F6374 		.ascii	"r_ctx\000"
 4735      7800
 4736              	.LASF9:
 4737 00be 696E7433 		.ascii	"int32_t\000"
 4737      325F7400 
 4738              	.LASF54:
 4739 00c6 76746675 		.ascii	"vtfunc_t\000"
ARM GAS  /tmp/ccBwbhRg.s 			page 85


 4739      6E635F74 
 4739      00
 4740              	.LASF155:
 4741 00cf 4D454D50 		.ascii	"MEMP_SYS_TIMEOUT\000"
 4741      5F535953 
 4741      5F54494D 
 4741      454F5554 
 4741      00
 4742              	.LASF166:
 4743 00e0 72746572 		.ascii	"rterr\000"
 4743      7200
 4744              	.LASF215:
 4745 00e6 65746868 		.ascii	"ethhdr\000"
 4745      647200
 4746              	.LASF98:
 4747 00ed 70687961 		.ascii	"phyaddr\000"
 4747      64647200 
 4748              	.LASF79:
 4749 00f5 656C5F66 		.ascii	"el_flags\000"
 4749      6C616773 
 4749      00
 4750              	.LASF93:
 4751 00fe 636F6E66 		.ascii	"config\000"
 4751      696700
 4752              	.LASF92:
 4753 0105 73746174 		.ascii	"state\000"
 4753      6500
 4754              	.LASF218:
 4755 010b 45544844 		.ascii	"ETHD1\000"
 4755      3100
 4756              	.LASF142:
 4757 0111 74797065 		.ascii	"type\000"
 4757      00
 4758              	.LASF246:
 4759 0116 474E5520 		.ascii	"GNU C 4.7.2\000"
 4759      4320342E 
 4759      372E3200 
 4760              	.LASF87:
 4761 0122 4D41435F 		.ascii	"MAC_UNINIT\000"
 4761      554E494E 
 4761      495400
 4762              	.LASF135:
 4763 012d 50425546 		.ascii	"PBUF_REF\000"
 4763      5F524546 
 4763      00
 4764              	.LASF183:
 4765 0136 6D656D70 		.ascii	"memp\000"
 4765      00
 4766              	.LASF233:
 4767 013b 7379735F 		.ascii	"sys_init\000"
 4767      696E6974 
 4767      00
 4768              	.LASF180:
 4769 0144 65746861 		.ascii	"etharp\000"
 4769      727000
 4770              	.LASF73:
 4771 014b 6D5F6F77 		.ascii	"m_owner\000"
ARM GAS  /tmp/ccBwbhRg.s 			page 86


 4771      6E657200 
 4772              	.LASF60:
 4773 0153 76745F70 		.ascii	"vt_par\000"
 4773      617200
 4774              	.LASF83:
 4775 015a 65786974 		.ascii	"exitcode\000"
 4775      636F6465 
 4775      00
 4776              	.LASF85:
 4777 0163 65776D61 		.ascii	"ewmask\000"
 4777      736B00
 4778              	.LASF32:
 4779 016a 705F6E65 		.ascii	"p_newer\000"
 4779      77657200 
 4780              	.LASF10:
 4781 0172 6C6F6E67 		.ascii	"long int\000"
 4781      20696E74 
 4781      00
 4782              	.LASF28:
 4783 017b 705F6E65 		.ascii	"p_next\000"
 4783      787400
 4784              	.LASF225:
 4785 0182 6C776970 		.ascii	"lwip_htons\000"
 4785      5F68746F 
 4785      6E7300
 4786              	.LASF29:
 4787 018d 705F7072 		.ascii	"p_prev\000"
 4787      657600
 4788              	.LASF209:
 4789 0194 6C6F775F 		.ascii	"low_level_output\000"
 4789      6C657665 
 4789      6C5F6F75 
 4789      74707574 
 4789      00
 4790              	.LASF18:
 4791 01a5 74737461 		.ascii	"tstate_t\000"
 4791      74655F74 
 4791      00
 4792              	.LASF119:
 4793 01ae 65745F65 		.ascii	"et_es\000"
 4793      7300
 4794              	.LASF44:
 4795 01b4 705F6D74 		.ascii	"p_mtxlist\000"
 4795      786C6973 
 4795      7400
 4796              	.LASF49:
 4797 01be 72656761 		.ascii	"regarm_t\000"
 4797      726D5F74 
 4797      00
 4798              	.LASF171:
 4799 01c7 61766169 		.ascii	"avail\000"
 4799      6C00
 4800              	.LASF111:
 4801 01cd 6D61635F 		.ascii	"mac_address\000"
 4801      61646472 
 4801      65737300 
 4802              	.LASF192:
ARM GAS  /tmp/ccBwbhRg.s 			page 87


 4803 01d9 6C696E6B 		.ascii	"linkoutput\000"
 4803      6F757470 
 4803      757400
 4804              	.LASF193:
 4805 01e4 68776164 		.ascii	"hwaddr_len\000"
 4805      64725F6C 
 4805      656E00
 4806              	.LASF157:
 4807 01ef 4D454D50 		.ascii	"MEMP_PBUF_POOL\000"
 4807      5F504255 
 4807      465F504F 
 4807      4F4C00
 4808              	.LASF3:
 4809 01fe 7369676E 		.ascii	"signed char\000"
 4809      65642063 
 4809      68617200 
 4810              	.LASF38:
 4811 020a 705F7072 		.ascii	"p_preempt\000"
 4811      65656D70 
 4811      7400
 4812              	.LASF4:
 4813 0214 75696E74 		.ascii	"uint8_t\000"
 4813      385F7400 
 4814              	.LASF222:
 4815 021c 6D61635F 		.ascii	"mac_lld_write_transmit_descriptor\000"
 4815      6C6C645F 
 4815      77726974 
 4815      655F7472 
 4815      616E736D 
 4816              	.LASF229:
 4817 023e 6D61635F 		.ascii	"mac_lld_read_receive_descriptor\000"
 4817      6C6C645F 
 4817      72656164 
 4817      5F726563 
 4817      65697665 
 4818              	.LASF236:
 4819 025e 6E657469 		.ascii	"netif_init\000"
 4819      665F696E 
 4819      697400
 4820              	.LASF23:
 4821 0269 6576656E 		.ascii	"eventmask_t\000"
 4821      746D6173 
 4821      6B5F7400 
 4822              	.LASF52:
 4823 0275 636F6E74 		.ascii	"context\000"
 4823      65787400 
 4824              	.LASF247:
 4825 027d 2E2E2F2E 		.ascii	"../../os/various/lwip_bindings/lwipthread.c\000"
 4825      2E2F6F73 
 4825      2F766172 
 4825      696F7573 
 4825      2F6C7769 
 4826              	.LASF5:
 4827 02a9 756E7369 		.ascii	"unsigned char\000"
 4827      676E6564 
 4827      20636861 
 4827      7200
ARM GAS  /tmp/ccBwbhRg.s 			page 88


 4828              	.LASF105:
 4829 02b7 73746D33 		.ascii	"stm32_eth_rx_descriptor_t\000"
 4829      325F6574 
 4829      685F7278 
 4829      5F646573 
 4829      63726970 
 4830              	.LASF57:
 4831 02d1 76745F70 		.ascii	"vt_prev\000"
 4831      72657600 
 4832              	.LASF164:
 4833 02d9 6C656E65 		.ascii	"lenerr\000"
 4833      727200
 4834              	.LASF64:
 4835 02e0 725F6E65 		.ascii	"r_newer\000"
 4835      77657200 
 4836              	.LASF151:
 4837 02e8 4D454D50 		.ascii	"MEMP_NETBUF\000"
 4837      5F4E4554 
 4837      42554600 
 4838              	.LASF162:
 4839 02f4 64726F70 		.ascii	"drop\000"
 4839      00
 4840              	.LASF187:
 4841 02f9 6E657469 		.ascii	"netif_init_fn\000"
 4841      665F696E 
 4841      69745F66 
 4841      6E00
 4842              	.LASF136:
 4843 0307 50425546 		.ascii	"PBUF_POOL\000"
 4843      5F504F4F 
 4843      4C00
 4844              	.LASF231:
 4845 0311 6D616352 		.ascii	"macReleaseReceiveDescriptor\000"
 4845      656C6561 
 4845      73655265 
 4845      63656976 
 4845      65446573 
 4846              	.LASF86:
 4847 032d 63686172 		.ascii	"char\000"
 4847      00
 4848              	.LASF191:
 4849 0332 6F757470 		.ascii	"output\000"
 4849      757400
 4850              	.LASF138:
 4851 0339 70627566 		.ascii	"pbuf\000"
 4851      00
 4852              	.LASF99:
 4853 033e 72787074 		.ascii	"rxptr\000"
 4853      7200
 4854              	.LASF30:
 4855 0344 705F7072 		.ascii	"p_prio\000"
 4855      696F00
 4856              	.LASF95:
 4857 034b 72647365 		.ascii	"rdsem\000"
 4857      6D00
 4858              	.LASF144:
 4859 0351 4D454D50 		.ascii	"MEMP_RAW_PCB\000"
ARM GAS  /tmp/ccBwbhRg.s 			page 89


 4859      5F524157 
 4859      5F504342 
 4859      00
 4860              	.LASF84:
 4861 035e 77746F62 		.ascii	"wtobjp\000"
 4861      6A7000
 4862              	.LASF227:
 4863 0365 6D616357 		.ascii	"macWaitReceiveDescriptor\000"
 4863      61697452 
 4863      65636569 
 4863      76654465 
 4863      73637269 
 4864              	.LASF96:
 4865 037e 72646576 		.ascii	"rdevent\000"
 4865      656E7400 
 4866              	.LASF143:
 4867 0386 666C6167 		.ascii	"flags\000"
 4867      7300
 4868              	.LASF234:
 4869 038c 6D656D5F 		.ascii	"mem_init\000"
 4869      696E6974 
 4869      00
 4870              	.LASF249:
 4871 0395 6C6F775F 		.ascii	"low_level_init\000"
 4871      6C657665 
 4871      6C5F696E 
 4871      697400
 4872              	.LASF50:
 4873 03a4 73746B61 		.ascii	"stkalign_t\000"
 4873      6C69676E 
 4873      5F7400
 4874              	.LASF126:
 4875 03af 6D656D5F 		.ascii	"mem_size_t\000"
 4875      73697A65 
 4875      5F7400
 4876              	.LASF202:
 4877 03ba 6574685F 		.ascii	"eth_hdr\000"
 4877      68647200 
 4878              	.LASF184:
 4879 03c2 69705F61 		.ascii	"ip_addr\000"
 4879      64647200 
 4880              	.LASF190:
 4881 03ca 696E7075 		.ascii	"input\000"
 4881      7400
 4882              	.LASF210:
 4883 03d0 74686973 		.ascii	"thisif\000"
 4883      696600
 4884              	.LASF169:
 4885 03d7 63616368 		.ascii	"cachehit\000"
 4885      65686974 
 4885      00
 4886              	.LASF165:
 4887 03e0 6D656D65 		.ascii	"memerr\000"
 4887      727200
 4888              	.LASF178:
 4889 03e7 73746174 		.ascii	"stats_\000"
 4889      735F00
ARM GAS  /tmp/ccBwbhRg.s 			page 90


 4890              	.LASF26:
 4891 03ee 636E745F 		.ascii	"cnt_t\000"
 4891      7400
 4892              	.LASF208:
 4893 03f4 65746865 		.ascii	"ethernetif_init\000"
 4893      726E6574 
 4893      69665F69 
 4893      6E697400 
 4894              	.LASF224:
 4895 0404 74637069 		.ascii	"tcpip_callback_with_block\000"
 4895      705F6361 
 4895      6C6C6261 
 4895      636B5F77 
 4895      6974685F 
 4896              	.LASF59:
 4897 041e 76745F66 		.ascii	"vt_func\000"
 4897      756E6300 
 4898              	.LASF153:
 4899 0426 4D454D50 		.ascii	"MEMP_TCPIP_MSG_API\000"
 4899      5F544350 
 4899      49505F4D 
 4899      53475F41 
 4899      504900
 4900              	.LASF152:
 4901 0439 4D454D50 		.ascii	"MEMP_NETCONN\000"
 4901      5F4E4554 
 4901      434F4E4E 
 4901      00
 4902              	.LASF51:
 4903 0446 696E7463 		.ascii	"intctx\000"
 4903      747800
 4904              	.LASF43:
 4905 044d 705F6570 		.ascii	"p_epending\000"
 4905      656E6469 
 4905      6E6700
 4906              	.LASF204:
 4907 0458 6C776970 		.ascii	"lwipthread_opts\000"
 4907      74687265 
 4907      61645F6F 
 4907      70747300 
 4908              	.LASF221:
 4909 0468 6D616357 		.ascii	"macWaitTransmitDescriptor\000"
 4909      61697454 
 4909      72616E73 
 4909      6D697444 
 4909      65736372 
 4910              	.LASF205:
 4911 0482 6D616361 		.ascii	"macaddress\000"
 4911      64647265 
 4911      737300
 4912              	.LASF81:
 4913 048d 65735F6E 		.ascii	"es_next\000"
 4913      65787400 
 4914              	.LASF240:
 4915 0495 6E657469 		.ascii	"netif_set_default\000"
 4915      665F7365 
 4915      745F6465 
ARM GAS  /tmp/ccBwbhRg.s 			page 91


 4915      6661756C 
 4915      7400
 4916              	.LASF80:
 4917 04a7 4576656E 		.ascii	"EventSource\000"
 4917      74536F75 
 4917      72636500 
 4918              	.LASF12:
 4919 04b3 6C6F6E67 		.ascii	"long unsigned int\000"
 4919      20756E73 
 4919      69676E65 
 4919      6420696E 
 4919      7400
 4920              	.LASF188:
 4921 04c5 6E657469 		.ascii	"netif\000"
 4921      6600
 4922              	.LASF206:
 4923 04cb 61646472 		.ascii	"address\000"
 4923      65737300 
 4924              	.LASF134:
 4925 04d3 50425546 		.ascii	"PBUF_ROM\000"
 4925      5F524F4D 
 4925      00
 4926              	.LASF194:
 4927 04dc 68776164 		.ascii	"hwaddr\000"
 4927      647200
 4928              	.LASF179:
 4929 04e3 6C696E6B 		.ascii	"link\000"
 4929      00
 4930              	.LASF76:
 4931 04e8 656C5F6E 		.ascii	"el_next\000"
 4931      65787400 
 4932              	.LASF140:
 4933 04f0 7061796C 		.ascii	"payload\000"
 4933      6F616400 
 4934              	.LASF199:
 4935 04f8 74637069 		.ascii	"tcpip_init_done_fn\000"
 4935      705F696E 
 4935      69745F64 
 4935      6F6E655F 
 4935      666E00
 4936              	.LASF91:
 4937 050b 4D414344 		.ascii	"MACDriver\000"
 4937      72697665 
 4937      7200
 4938              	.LASF160:
 4939 0515 786D6974 		.ascii	"xmit\000"
 4939      00
 4940              	.LASF121:
 4941 051a 45765469 		.ascii	"EvTimer\000"
 4941      6D657200 
 4942              	.LASF71:
 4943 0522 4D757465 		.ascii	"Mutex\000"
 4943      7800
 4944              	.LASF13:
 4945 0528 6C6F6E67 		.ascii	"long long int\000"
 4945      206C6F6E 
 4945      6720696E 
ARM GAS  /tmp/ccBwbhRg.s 			page 92


 4945      7400
 4946              	.LASF72:
 4947 0536 6D5F7175 		.ascii	"m_queue\000"
 4947      65756500 
 4948              	.LASF56:
 4949 053e 76745F6E 		.ascii	"vt_next\000"
 4949      65787400 
 4950              	.LASF89:
 4951 0546 4D41435F 		.ascii	"MAC_ACTIVE\000"
 4951      41435449 
 4951      564500
 4952              	.LASF189:
 4953 0551 6E65746D 		.ascii	"netmask\000"
 4953      61736B00 
 4954              	.LASF213:
 4955 0559 6D61736B 		.ascii	"mask\000"
 4955      00
 4956              	.LASF176:
 4957 055e 6D757465 		.ascii	"mutex\000"
 4957      7800
 4958              	.LASF217:
 4959 0564 49544D5F 		.ascii	"ITM_RxBuffer\000"
 4959      52784275 
 4959      66666572 
 4959      00
 4960              	.LASF174:
 4961 0571 73746174 		.ascii	"stats_syselem\000"
 4961      735F7379 
 4961      73656C65 
 4961      6D00
 4962              	.LASF159:
 4963 057f 73746174 		.ascii	"stats_proto\000"
 4963      735F7072 
 4963      6F746F00 
 4964              	.LASF244:
 4965 058b 63684576 		.ascii	"chEvtAddEvents\000"
 4965      74416464 
 4965      4576656E 
 4965      747300
 4966              	.LASF251:
 4967 059a 6C776970 		.ascii	"lwip_thread\000"
 4967      5F746872 
 4967      65616400 
 4968              	.LASF214:
 4969 05a6 63757272 		.ascii	"current_link_status\000"
 4969      656E745F 
 4969      6C696E6B 
 4969      5F737461 
 4969      74757300 
 4970              	.LASF40:
 4971 05ba 705F7761 		.ascii	"p_waiting\000"
 4971      6974696E 
 4971      6700
 4972              	.LASF185:
 4973 05c4 61646472 		.ascii	"addr\000"
 4973      00
 4974              	.LASF36:
ARM GAS  /tmp/ccBwbhRg.s 			page 93


 4975 05c9 705F666C 		.ascii	"p_flags\000"
 4975      61677300 
 4976              	.LASF120:
 4977 05d1 65745F69 		.ascii	"et_interval\000"
 4977      6E746572 
 4977      76616C00 
 4978              	.LASF0:
 4979 05dd 756E7369 		.ascii	"unsigned int\000"
 4979      676E6564 
 4979      20696E74 
 4979      00
 4980              	.LASF181:
 4981 05ea 69705F66 		.ascii	"ip_frag\000"
 4981      72616700 
 4982              	.LASF212:
 4983 05f2 6F707473 		.ascii	"opts\000"
 4983      00
 4984              	.LASF124:
 4985 05f7 7531365F 		.ascii	"u16_t\000"
 4985      7400
 4986              	.LASF46:
 4987 05fd 705F6D70 		.ascii	"p_mpool\000"
 4987      6F6F6C00 
 4988              	.LASF177:
 4989 0605 6D626F78 		.ascii	"mbox\000"
 4989      00
 4990              	.LASF129:
 4991 060a 50425546 		.ascii	"PBUF_IP\000"
 4991      5F495000 
 4992              	.LASF37:
 4993 0612 705F7265 		.ascii	"p_refs\000"
 4993      667300
 4994              	.LASF235:
 4995 0619 6D656D70 		.ascii	"memp_init\000"
 4995      5F696E69 
 4995      7400
 4996              	.LASF106:
 4997 0623 74646573 		.ascii	"tdes0\000"
 4997      3000
 4998              	.LASF107:
 4999 0629 74646573 		.ascii	"tdes1\000"
 4999      3100
 5000              	.LASF108:
 5001 062f 74646573 		.ascii	"tdes2\000"
 5001      3200
 5002              	.LASF109:
 5003 0635 74646573 		.ascii	"tdes3\000"
 5003      3300
 5004              	.LASF196:
 5005 063b 6E657469 		.ascii	"netif_input_fn\000"
 5005      665F696E 
 5005      7075745F 
 5005      666E00
 5006              	.LASF118:
 5007 064a 65745F76 		.ascii	"et_vt\000"
 5007      7400
 5008              	.LASF48:
ARM GAS  /tmp/ccBwbhRg.s 			page 94


 5009 0650 54687265 		.ascii	"ThreadsList\000"
 5009      6164734C 
 5009      69737400 
 5010              	.LASF137:
 5011 065c 70627566 		.ascii	"pbuf_type\000"
 5011      5F747970 
 5011      6500
 5012              	.LASF113:
 5013 0666 6F666673 		.ascii	"offset\000"
 5013      657400
 5014              	.LASF198:
 5015 066d 6E657469 		.ascii	"netif_linkoutput_fn\000"
 5015      665F6C69 
 5015      6E6B6F75 
 5015      74707574 
 5015      5F666E00 
 5016              	.LASF24:
 5017 0681 666C6167 		.ascii	"flagsmask_t\000"
 5017      736D6173 
 5017      6B5F7400 
 5018              	.LASF200:
 5019 068d 74637069 		.ascii	"tcpip_callback_fn\000"
 5019      705F6361 
 5019      6C6C6261 
 5019      636B5F66 
 5019      6E00
 5020              	.LASF39:
 5021 069f 705F7469 		.ascii	"p_time\000"
 5021      6D6500
 5022              	.LASF197:
 5023 06a6 6E657469 		.ascii	"netif_output_fn\000"
 5023      665F6F75 
 5023      74707574 
 5023      5F666E00 
 5024              	.LASF161:
 5025 06b6 72656376 		.ascii	"recv\000"
 5025      00
 5026              	.LASF172:
 5027 06bb 75736564 		.ascii	"used\000"
 5027      00
 5028              	.LASF141:
 5029 06c0 746F745F 		.ascii	"tot_len\000"
 5029      6C656E00 
 5030              	.LASF139:
 5031 06c8 6E657874 		.ascii	"next\000"
 5031      00
 5032              	.LASF186:
 5033 06cd 69705F61 		.ascii	"ip_addr_t\000"
 5033      6464725F 
 5033      7400
 5034              	.LASF68:
 5035 06d7 53656D61 		.ascii	"Semaphore\000"
 5035      70686F72 
 5035      6500
 5036              	.LASF45:
 5037 06e1 705F7265 		.ascii	"p_realprio\000"
 5037      616C7072 
ARM GAS  /tmp/ccBwbhRg.s 			page 95


 5037      696F00
 5038              	.LASF127:
 5039 06ec 6572725F 		.ascii	"err_t\000"
 5039      7400
 5040              	.LASF175:
 5041 06f2 73746174 		.ascii	"stats_sys\000"
 5041      735F7379 
 5041      7300
 5042              	.LASF149:
 5043 06fc 4D454D50 		.ascii	"MEMP_REASSDATA\000"
 5043      5F524541 
 5043      53534441 
 5043      544100
 5044              	.LASF70:
 5045 070b 735F636E 		.ascii	"s_cnt\000"
 5045      7400
 5046              	.LASF182:
 5047 0711 69636D70 		.ascii	"icmp\000"
 5047      00
 5048              	.LASF150:
 5049 0716 4D454D50 		.ascii	"MEMP_FRAG_PBUF\000"
 5049      5F465241 
 5049      475F5042 
 5049      554600
 5050              	.LASF114:
 5051 0725 73697A65 		.ascii	"size\000"
 5051      00
 5052              	.LASF15:
 5053 072a 6C6F6E67 		.ascii	"long long unsigned int\000"
 5053      206C6F6E 
 5053      6720756E 
 5053      7369676E 
 5053      65642069 
 5054              	.LASF116:
 5055 0741 4D414354 		.ascii	"MACTransmitDescriptor\000"
 5055      72616E73 
 5055      6D697444 
 5055      65736372 
 5055      6970746F 
 5056              	.LASF145:
 5057 0757 4D454D50 		.ascii	"MEMP_UDP_PCB\000"
 5057      5F554450 
 5057      5F504342 
 5057      00
 5058              	.LASF33:
 5059 0764 705F6F6C 		.ascii	"p_older\000"
 5059      64657200 
 5060              	.LASF148:
 5061 076c 4D454D50 		.ascii	"MEMP_TCP_SEG\000"
 5061      5F544350 
 5061      5F534547 
 5061      00
 5062              	.LASF7:
 5063 0779 75696E74 		.ascii	"uint16_t\000"
 5063      31365F74 
 5063      00
 5064              	.LASF22:
ARM GAS  /tmp/ccBwbhRg.s 			page 96


 5065 0782 6D73675F 		.ascii	"msg_t\000"
 5065      7400
 5066              	.LASF154:
 5067 0788 4D454D50 		.ascii	"MEMP_TCPIP_MSG_INPKT\000"
 5067      5F544350 
 5067      49505F4D 
 5067      53475F49 
 5067      4E504B54 
 5068              	.LASF228:
 5069 079d 70627566 		.ascii	"pbuf_alloc\000"
 5069      5F616C6C 
 5069      6F6300
 5070              	.LASF20:
 5071 07a8 74736C69 		.ascii	"tslices_t\000"
 5071      6365735F 
 5071      7400
 5072              	.LASF170:
 5073 07b2 73746174 		.ascii	"stats_mem\000"
 5073      735F6D65 
 5073      6D00
 5074              	.LASF66:
 5075 07bc 725F6375 		.ascii	"r_current\000"
 5075      7272656E 
 5075      7400
 5076              	.LASF173:
 5077 07c6 696C6C65 		.ascii	"illegal\000"
 5077      67616C00 
 5078              	.LASF168:
 5079 07ce 6F707465 		.ascii	"opterr\000"
 5079      727200
 5080              	.LASF220:
 5081 07d5 77615F6C 		.ascii	"wa_lwip_thread\000"
 5081      7769705F 
 5081      74687265 
 5081      616400
 5082              	.LASF163:
 5083 07e4 63686B65 		.ascii	"chkerr\000"
 5083      727200
 5084              	.LASF112:
 5085 07eb 4D414343 		.ascii	"MACConfig\000"
 5085      6F6E6669 
 5085      6700
 5086              	.LASF132:
 5087 07f5 70627566 		.ascii	"pbuf_layer\000"
 5087      5F6C6179 
 5087      657200
 5088              	.LASF238:
 5089 0800 6D616353 		.ascii	"macStart\000"
 5089      74617274 
 5089      00
 5090              	.LASF61:
 5091 0809 725F7175 		.ascii	"r_queue\000"
 5091      65756500 
 5092              	.LASF226:
 5093 0811 70627566 		.ascii	"pbuf_free\000"
 5093      5F667265 
 5093      6500
ARM GAS  /tmp/ccBwbhRg.s 			page 97


 5094              	.LASF203:
 5095 081b 64657374 		.ascii	"dest\000"
 5095      00
 5096              	.LASF158:
 5097 0820 4D454D50 		.ascii	"MEMP_MAX\000"
 5097      5F4D4158 
 5097      00
 5098              	.LASF125:
 5099 0829 7533325F 		.ascii	"u32_t\000"
 5099      7400
 5100              	.LASF216:
 5101 082f 726C6973 		.ascii	"rlist\000"
 5101      7400
 5102              	.LASF17:
 5103 0835 746D6F64 		.ascii	"tmode_t\000"
 5103      655F7400 
 5104              	.LASF97:
 5105 083d 6C696E6B 		.ascii	"link_up\000"
 5105      5F757000 
 5106              	.LASF65:
 5107 0845 725F6F6C 		.ascii	"r_older\000"
 5107      64657200 
 5108              	.LASF211:
 5109 084d 6D61635F 		.ascii	"mac_config\000"
 5109      636F6E66 
 5109      696700
 5110              	.LASF195:
 5111 0858 6E616D65 		.ascii	"name\000"
 5111      00
 5112              	.LASF69:
 5113 085d 735F7175 		.ascii	"s_queue\000"
 5113      65756500 
 5114              	.LASF156:
 5115 0865 4D454D50 		.ascii	"MEMP_PBUF\000"
 5115      5F504255 
 5115      4600
 5116              	.LASF6:
 5117 086f 73686F72 		.ascii	"short int\000"
 5117      7420696E 
 5117      7400
 5118              	.LASF14:
 5119 0879 75696E74 		.ascii	"uint64_t\000"
 5119      36345F74 
 5119      00
 5120              	.LASF219:
 5121 0882 6C776970 		.ascii	"lwip_stats\000"
 5121      5F737461 
 5121      747300
 5122              	.LASF62:
 5123 088d 725F7072 		.ascii	"r_prio\000"
 5123      696F00
 5124              	.LASF16:
 5125 0894 626F6F6C 		.ascii	"bool_t\000"
 5125      5F7400
 5126              	.LASF27:
 5127 089b 54687265 		.ascii	"Thread\000"
 5127      616400
ARM GAS  /tmp/ccBwbhRg.s 			page 98


 5128              	.LASF207:
 5129 08a2 67617465 		.ascii	"gateway\000"
 5129      77617900 
 5130              	.LASF230:
 5131 08aa 6D616352 		.ascii	"macReleaseTransmitDescriptor\000"
 5131      656C6561 
 5131      73655472 
 5131      616E736D 
 5131      69744465 
 5132              	.LASF239:
 5133 08c7 6E657469 		.ascii	"netif_add\000"
 5133      665F6164 
 5133      6400
 5134              	.LASF19:
 5135 08d1 74726566 		.ascii	"trefs_t\000"
 5135      735F7400 
 5136              	.LASF90:
 5137 08d9 6D616373 		.ascii	"macstate_t\000"
 5137      74617465 
 5137      5F7400
 5138              	.LASF75:
 5139 08e4 4576656E 		.ascii	"EventListener\000"
 5139      744C6973 
 5139      74656E65 
 5139      7200
 5140              	.LASF101:
 5141 08f2 72646573 		.ascii	"rdes0\000"
 5141      3000
 5142              	.LASF102:
 5143 08f8 72646573 		.ascii	"rdes1\000"
 5143      3100
 5144              	.LASF103:
 5145 08fe 72646573 		.ascii	"rdes2\000"
 5145      3200
 5146              	.LASF104:
 5147 0904 72646573 		.ascii	"rdes3\000"
 5147      3300
 5148              	.LASF11:
 5149 090a 75696E74 		.ascii	"uint32_t\000"
 5149      33325F74 
 5149      00
 5150              	.LASF55:
 5151 0913 56697274 		.ascii	"VirtualTimer\000"
 5151      75616C54 
 5151      696D6572 
 5151      00
 5152              	.LASF237:
 5153 0920 74637069 		.ascii	"tcpip_init\000"
 5153      705F696E 
 5153      697400
 5154              	.LASF128:
 5155 092b 50425546 		.ascii	"PBUF_TRANSPORT\000"
 5155      5F545241 
 5155      4E53504F 
 5155      525400
 5156              	.LASF47:
 5157 093a 54687265 		.ascii	"ThreadsQueue\000"
ARM GAS  /tmp/ccBwbhRg.s 			page 99


 5157      61647351 
 5157      75657565 
 5157      00
 5158              	.LASF241:
 5159 0947 6E657469 		.ascii	"netif_set_up\000"
 5159      665F7365 
 5159      745F7570 
 5159      00
 5160              	.LASF88:
 5161 0954 4D41435F 		.ascii	"MAC_STOP\000"
 5161      53544F50 
 5161      00
 5162              	.LASF223:
 5163 095d 6D616350 		.ascii	"macPollLinkStatus\000"
 5163      6F6C6C4C 
 5163      696E6B53 
 5163      74617475 
 5163      7300
 5164              	.LASF82:
 5165 096f 7264796D 		.ascii	"rdymsg\000"
 5165      736700
 5166              	.LASF243:
 5167 0976 63684576 		.ascii	"chEvtRegisterMask\000"
 5167      74526567 
 5167      69737465 
 5167      724D6173 
 5167      6B00
 5168              	.LASF115:
 5169 0988 70687973 		.ascii	"physdesc\000"
 5169      64657363 
 5169      00
 5170              	.LASF8:
 5171 0991 73686F72 		.ascii	"short unsigned int\000"
 5171      7420756E 
 5171      7369676E 
 5171      65642069 
 5171      6E7400
 5172              	.LASF110:
 5173 09a4 73746D33 		.ascii	"stm32_eth_tx_descriptor_t\000"
 5173      325F6574 
 5173      685F7478 
 5173      5F646573 
 5173      63726970 
 5174              	.LASF250:
 5175 09be 6C6F775F 		.ascii	"low_level_input\000"
 5175      6C657665 
 5175      6C5F696E 
 5175      70757400 
 5176              	.LASF122:
 5177 09ce 75385F74 		.ascii	"u8_t\000"
 5177      00
 5178              	.LASF232:
 5179 09d3 63684576 		.ascii	"chEvtWaitAny\000"
 5179      74576169 
 5179      74416E79 
 5179      00
 5180              	.LASF117:
ARM GAS  /tmp/ccBwbhRg.s 			page 100


 5181 09e0 4D414352 		.ascii	"MACReceiveDescriptor\000"
 5181      65636569 
 5181      76654465 
 5181      73637269 
 5181      70746F72 
 5182              	.LASF78:
 5183 09f5 656C5F6D 		.ascii	"el_mask\000"
 5183      61736B00 
 5184              	.LASF67:
 5185 09fd 52656164 		.ascii	"ReadyList\000"
 5185      794C6973 
 5185      7400
 5186              	.LASF133:
 5187 0a07 50425546 		.ascii	"PBUF_RAM\000"
 5187      5F52414D 
 5187      00
 5188              	.LASF100:
 5189 0a10 74787074 		.ascii	"txptr\000"
 5189      7200
 5190              	.LASF131:
 5191 0a16 50425546 		.ascii	"PBUF_RAW\000"
 5191      5F524157 
 5191      00
 5192              	.LASF34:
 5193 0a1f 705F6E61 		.ascii	"p_name\000"
 5193      6D6500
 5194              	.LASF94:
 5195 0a26 74647365 		.ascii	"tdsem\000"
 5195      6D00
 5196              	.LASF58:
 5197 0a2c 76745F74 		.ascii	"vt_time\000"
 5197      696D6500 
 5198              	.LASF74:
 5199 0a34 6D5F6E65 		.ascii	"m_next\000"
 5199      787400
 5200              	.LASF242:
 5201 0a3b 65767453 		.ascii	"evtStart\000"
 5201      74617274 
 5201      00
 5202              	.LASF147:
 5203 0a44 4D454D50 		.ascii	"MEMP_TCP_PCB_LISTEN\000"
 5203      5F544350 
 5203      5F504342 
 5203      5F4C4953 
 5203      54454E00 
 5204              	.LASF130:
 5205 0a58 50425546 		.ascii	"PBUF_LINK\000"
 5205      5F4C494E 
 5205      4B00
 5206              	.LASF42:
 5207 0a62 705F6D73 		.ascii	"p_msg\000"
 5207      6700
 5208              	.LASF77:
 5209 0a68 656C5F6C 		.ascii	"el_listener\000"
 5209      69737465 
 5209      6E657200 
 5210              	.LASF35:
ARM GAS  /tmp/ccBwbhRg.s 			page 101


 5211 0a74 705F7374 		.ascii	"p_state\000"
 5211      61746500 
 5212              		.ident	"GCC: (crosstool-NG 1.17.0 - PSAS ST32F4 GFE) 4.7.2"
ARM GAS  /tmp/ccBwbhRg.s 			page 102


DEFINED SYMBOLS
                            *ABS*:0000000000000000 lwipthread.c
     /tmp/ccBwbhRg.s:21     .text.ethernetif_init:0000000000000000 $t
     /tmp/ccBwbhRg.s:26     .text.ethernetif_init:0000000000000000 ethernetif_init
     /tmp/ccBwbhRg.s:91     .text.low_level_output:0000000000000000 low_level_output
     /tmp/ccBwbhRg.s:86     .text.low_level_output:0000000000000000 $t
     /tmp/ccBwbhRg.s:159    .text.low_level_output:0000000000000040 $d
     /tmp/ccBwbhRg.s:165    .text.lwip_thread:0000000000000000 $t
     /tmp/ccBwbhRg.s:171    .text.lwip_thread:0000000000000000 lwip_thread
     /tmp/ccBwbhRg.s:529    .text.lwip_thread:00000000000001a8 $d
     /tmp/ccBwbhRg.s:570    .bss.wa_lwip_thread:0000000000000000 wa_lwip_thread
     /tmp/ccBwbhRg.s:549    .rodata.mac_config.7837:0000000000000000 $d
     /tmp/ccBwbhRg.s:553    .rodata.mac_config.7837:0000000000000000 mac_config.7837
     /tmp/ccBwbhRg.s:564    .bss.thisif.7836:0000000000000000 thisif.7836
     /tmp/ccBwbhRg.s:556    .rodata.str1.4:0000000000000000 $d
     /tmp/ccBwbhRg.s:560    .bss.thisif.7836:0000000000000000 $d
     /tmp/ccBwbhRg.s:567    .bss.wa_lwip_thread:0000000000000000 $d
                     .debug_frame:0000000000000010 $d
     /tmp/ccBwbhRg.s:164    .text.low_level_output:0000000000000048 $t
     /tmp/ccBwbhRg.s:548    .text.lwip_thread:00000000000001d4 $t

UNDEFINED SYMBOLS
etharp_output
macWaitTransmitDescriptor
mac_lld_write_transmit_descriptor
macReleaseTransmitDescriptor
ETHD1
lwip_stats
sys_init
mem_init
memp_init
netif_init
tcpip_init
macStart
netif_add
netif_set_default
netif_set_up
evtStart
chEvtRegisterMask
chEvtAddEvents
chThdSetPriority
chEvtWaitAny
macPollLinkStatus
tcpip_callback_with_block
macWaitReceiveDescriptor
pbuf_alloc
mac_lld_read_receive_descriptor
macReleaseReceiveDescriptor
lwip_htons
pbuf_free
rlist
tcpip_input
netif_set_link_up
netif_set_link_down
