ARM GAS  /tmp/ccRsDWco.s 			page 1


   1              		.syntax unified
   2              		.cpu cortex-m4
   3              		.eabi_attribute 27, 3
   4              		.eabi_attribute 28, 1
   5              		.fpu fpv4-sp-d16
   6              		.eabi_attribute 20, 1
   7              		.eabi_attribute 21, 1
   8              		.eabi_attribute 23, 3
   9              		.eabi_attribute 24, 1
  10              		.eabi_attribute 25, 1
  11              		.eabi_attribute 26, 1
  12              		.eabi_attribute 30, 2
  13              		.eabi_attribute 34, 1
  14              		.eabi_attribute 18, 4
  15              		.thumb
  16              		.file	"mac.c"
  17              		.text
  18              	.Ltext0:
  19              		.cfi_sections	.debug_frame
  20              		.section	.text.macInit,"ax",%progbits
  21              		.align	2
  22              		.p2align 4,,15
  23              		.global	macInit
  24              		.thumb
  25              		.thumb_func
  26              		.type	macInit, %function
  27              	macInit:
  28              	.LFB118:
  29              		.file 1 "../../os/hal/src/mac.c"
  30              		.loc 1 65 0
  31              		.cfi_startproc
  32              		@ args = 0, pretend = 0, frame = 0
  33              		@ frame_needed = 0, uses_anonymous_args = 0
  34              		@ link register save eliminated.
  35              		.loc 1 68 0
  36              		.loc 1 67 0
  37 0000 FFF7FEBF 		b	mac_lld_init
  38              	.LVL0:
  39              		.cfi_endproc
  40              	.LFE118:
  41              		.size	macInit, .-macInit
  42 0004 AFF30080 		.section	.text.macObjectInit,"ax",%progbits
  42      AFF30080 
  42      AFF30080 
  43              		.align	2
  44              		.p2align 4,,15
  45              		.global	macObjectInit
  46              		.thumb
  47              		.thumb_func
  48              		.type	macObjectInit, %function
  49              	macObjectInit:
  50              	.LFB119:
  51              		.loc 1 77 0
  52              		.cfi_startproc
  53              		@ args = 0, pretend = 0, frame = 0
  54              		@ frame_needed = 0, uses_anonymous_args = 0
  55              	.LVL1:
ARM GAS  /tmp/ccRsDWco.s 			page 2


  56 0000 38B5     		push	{r3, r4, r5, lr}
  57              	.LCFI0:
  58              		.cfi_def_cfa_offset 16
  59              		.cfi_offset 3, -16
  60              		.cfi_offset 4, -12
  61              		.cfi_offset 5, -8
  62              		.cfi_offset 14, -4
  63              		.loc 1 77 0
  64 0002 0446     		mov	r4, r0
  65              		.loc 1 79 0
  66 0004 0123     		movs	r3, #1
  67              		.loc 1 80 0
  68 0006 0025     		movs	r5, #0
  69              		.loc 1 79 0
  70 0008 2370     		strb	r3, [r4, #0]
  71              		.loc 1 81 0
  72 000a 00F10800 		add	r0, r0, #8
  73              	.LVL2:
  74 000e 2946     		mov	r1, r5
  75              		.loc 1 80 0
  76 0010 6560     		str	r5, [r4, #4]
  77              		.loc 1 81 0
  78 0012 FFF7FEFF 		bl	chSemInit
  79              	.LVL3:
  80              		.loc 1 82 0
  81 0016 04F11400 		add	r0, r4, #20
  82 001a 2946     		mov	r1, r5
  83 001c FFF7FEFF 		bl	chSemInit
  84              	.LVL4:
  85              		.loc 1 84 0
  86 0020 04F12003 		add	r3, r4, #32
  87 0024 2362     		str	r3, [r4, #32]
  88 0026 38BD     		pop	{r3, r4, r5, pc}
  89              		.cfi_endproc
  90              	.LFE119:
  91              		.size	macObjectInit, .-macObjectInit
  92 0028 AFF30080 		.section	.text.macStart,"ax",%progbits
  92      AFF30080 
  93              		.align	2
  94              		.p2align 4,,15
  95              		.global	macStart
  96              		.thumb
  97              		.thumb_func
  98              		.type	macStart, %function
  99              	macStart:
 100              	.LFB120:
 101              		.loc 1 96 0
 102              		.cfi_startproc
 103              		@ args = 0, pretend = 0, frame = 0
 104              		@ frame_needed = 0, uses_anonymous_args = 0
 105              	.LVL5:
 106 0000 10B5     		push	{r4, lr}
 107              	.LCFI1:
 108              		.cfi_def_cfa_offset 8
 109              		.cfi_offset 4, -8
 110              		.cfi_offset 14, -4
 111              	.LBB2:
ARM GAS  /tmp/ccRsDWco.s 			page 3


 112              		.loc 1 100 0
 113 0002 2023     		movs	r3, #32
 114              	.LVL6:
 115              	.LBE2:
 116              		.loc 1 96 0
 117 0004 0446     		mov	r4, r0
 118              	.LBB3:
 119              		.loc 1 100 0
 120              	@ 100 "../../os/hal/src/mac.c" 1
 121 0006 83F31188 		msr     BASEPRI, r3
 122              	@ 0 "" 2
 123              	.LVL7:
 124              		.thumb
 125              	.LBE3:
 126              		.loc 1 103 0
 127 000a 4160     		str	r1, [r0, #4]
 128              		.loc 1 104 0
 129 000c FFF7FEFF 		bl	mac_lld_start
 130              	.LVL8:
 131              		.loc 1 105 0
 132 0010 0223     		movs	r3, #2
 133 0012 2370     		strb	r3, [r4, #0]
 134              	.LBB4:
 135              		.loc 1 106 0
 136 0014 0023     		movs	r3, #0
 137              	.LVL9:
 138              	@ 106 "../../os/hal/src/mac.c" 1
 139 0016 83F31188 		msr     BASEPRI, r3
 140              	@ 0 "" 2
 141              	.LVL10:
 142              		.thumb
 143 001a 10BD     		pop	{r4, pc}
 144              	.LBE4:
 145              		.cfi_endproc
 146              	.LFE120:
 147              		.size	macStart, .-macStart
 148 001c AFF30080 		.section	.text.macStop,"ax",%progbits
 149              		.align	2
 150              		.p2align 4,,15
 151              		.global	macStop
 152              		.thumb
 153              		.thumb_func
 154              		.type	macStop, %function
 155              	macStop:
 156              	.LFB121:
 157              		.loc 1 116 0
 158              		.cfi_startproc
 159              		@ args = 0, pretend = 0, frame = 0
 160              		@ frame_needed = 0, uses_anonymous_args = 0
 161              	.LVL11:
 162 0000 10B5     		push	{r4, lr}
 163              	.LCFI2:
 164              		.cfi_def_cfa_offset 8
 165              		.cfi_offset 4, -8
 166              		.cfi_offset 14, -4
 167              	.LBB5:
 168              		.loc 1 120 0
ARM GAS  /tmp/ccRsDWco.s 			page 4


 169 0002 2023     		movs	r3, #32
 170              	.LVL12:
 171              	.LBE5:
 172              		.loc 1 116 0
 173 0004 0446     		mov	r4, r0
 174              	.LBB6:
 175              		.loc 1 120 0
 176              	@ 120 "../../os/hal/src/mac.c" 1
 177 0006 83F31188 		msr     BASEPRI, r3
 178              	@ 0 "" 2
 179              	.LVL13:
 180              		.thumb
 181              	.LBE6:
 182              		.loc 1 123 0
 183 000a FFF7FEFF 		bl	mac_lld_stop
 184              	.LVL14:
 185              		.loc 1 124 0
 186 000e 0123     		movs	r3, #1
 187 0010 2370     		strb	r3, [r4, #0]
 188              	.LBB7:
 189              		.loc 1 125 0
 190 0012 0023     		movs	r3, #0
 191              	.LVL15:
 192              	@ 125 "../../os/hal/src/mac.c" 1
 193 0014 83F31188 		msr     BASEPRI, r3
 194              	@ 0 "" 2
 195              	.LVL16:
 196              		.thumb
 197 0018 10BD     		pop	{r4, pc}
 198              	.LBE7:
 199              		.cfi_endproc
 200              	.LFE121:
 201              		.size	macStop, .-macStop
 202 001a 00BFAFF3 		.section	.text.macWaitTransmitDescriptor,"ax",%progbits
 202      0080
 203              		.align	2
 204              		.p2align 4,,15
 205              		.global	macWaitTransmitDescriptor
 206              		.thumb
 207              		.thumb_func
 208              		.type	macWaitTransmitDescriptor, %function
 209              	macWaitTransmitDescriptor:
 210              	.LFB122:
 211              		.loc 1 149 0
 212              		.cfi_startproc
 213              		@ args = 0, pretend = 0, frame = 0
 214              		@ frame_needed = 0, uses_anonymous_args = 0
 215              	.LVL17:
 216 0000 2DE9F843 		push	{r3, r4, r5, r6, r7, r8, r9, lr}
 217              	.LCFI3:
 218              		.cfi_def_cfa_offset 32
 219              		.cfi_offset 3, -32
 220              		.cfi_offset 4, -28
 221              		.cfi_offset 5, -24
 222              		.cfi_offset 6, -20
 223              		.cfi_offset 7, -16
 224              		.cfi_offset 8, -12
ARM GAS  /tmp/ccRsDWco.s 			page 5


 225              		.cfi_offset 9, -8
 226              		.cfi_offset 14, -4
 227              		.loc 1 149 0
 228 0004 0746     		mov	r7, r0
 229 0006 8846     		mov	r8, r1
 230 0008 1446     		mov	r4, r2
 231              		.loc 1 160 0
 232 000a 124D     		ldr	r5, .L20
 233              		.loc 1 161 0
 234 000c 00F10809 		add	r9, r0, #8
 235 0010 12E0     		b	.L6
 236              	.LVL18:
 237              	.L19:
 238              		.loc 1 157 0 discriminator 2
 239 0012 C4B1     		cbz	r4, .L8
 240              	.LBB8:
 241              		.loc 1 159 0
 242              	@ 159 "../../os/hal/src/mac.c" 1
 243 0014 83F31188 		msr     BASEPRI, r3
 244              	@ 0 "" 2
 245              	.LVL19:
 246              		.thumb
 247              	.LBE8:
 248              		.loc 1 161 0
 249 0018 2146     		mov	r1, r4
 250 001a 4846     		mov	r0, r9
 251              	.LVL20:
 252              		.loc 1 160 0
 253 001c EE68     		ldr	r6, [r5, #12]
 254              	.LVL21:
 255              		.loc 1 161 0
 256 001e FFF7FEFF 		bl	chSemWaitTimeoutS
 257              	.LVL22:
 258 0022 421C     		adds	r2, r0, #1
 259 0024 11D0     		beq	.L18
 260              		.loc 1 165 0
 261 0026 631C     		adds	r3, r4, #1
 262              		.loc 1 166 0
 263 0028 1EBF     		ittt	ne
 264 002a EB68     		ldrne	r3, [r5, #12]
 265 002c C3EB0606 		rsbne	r6, r3, r6
 266              	.LVL23:
 267 0030 A419     		addne	r4, r4, r6
 268              	.LVL24:
 269              	.LBB9:
 270              		.loc 1 167 0
 271 0032 0023     		movs	r3, #0
 272              	.LVL25:
 273              	@ 167 "../../os/hal/src/mac.c" 1
 274 0034 83F31188 		msr     BASEPRI, r3
 275              	@ 0 "" 2
 276              	.LVL26:
 277              		.thumb
 278              	.L6:
 279              	.LBE9:
 280              		.loc 1 157 0 discriminator 1
 281 0038 3846     		mov	r0, r7
ARM GAS  /tmp/ccRsDWco.s 			page 6


 282 003a 4146     		mov	r1, r8
 283 003c FFF7FEFF 		bl	mac_lld_get_transmit_descriptor
 284              	.LVL27:
 285              	.LBB10:
 286              		.loc 1 159 0 discriminator 1
 287 0040 2023     		movs	r3, #32
 288              	.LBE10:
 289              		.loc 1 157 0 discriminator 1
 290 0042 0028     		cmp	r0, #0
 291 0044 E5D1     		bne	.L19
 292              	.L8:
 293              		.loc 1 170 0
 294 0046 BDE8F883 		pop	{r3, r4, r5, r6, r7, r8, r9, pc}
 295              	.LVL28:
 296              	.L18:
 297              	.LBB11:
 298              		.loc 1 162 0
 299 004a 0023     		movs	r3, #0
 300              	.LVL29:
 301              	@ 162 "../../os/hal/src/mac.c" 1
 302 004c 83F31188 		msr     BASEPRI, r3
 303              	@ 0 "" 2
 304              	.LVL30:
 305              		.thumb
 306              	.LBE11:
 307              		.loc 1 163 0
 308 0050 BDE8F883 		pop	{r3, r4, r5, r6, r7, r8, r9, pc}
 309              	.L21:
 310              		.align	2
 311              	.L20:
 312 0054 00000000 		.word	vtlist
 313              		.cfi_endproc
 314              	.LFE122:
 315              		.size	macWaitTransmitDescriptor, .-macWaitTransmitDescriptor
 316 0058 AFF30080 		.section	.text.macReleaseTransmitDescriptor,"ax",%progbits
 316      AFF30080 
 317              		.align	2
 318              		.p2align 4,,15
 319              		.global	macReleaseTransmitDescriptor
 320              		.thumb
 321              		.thumb_func
 322              		.type	macReleaseTransmitDescriptor, %function
 323              	macReleaseTransmitDescriptor:
 324              	.LFB123:
 325              		.loc 1 180 0
 326              		.cfi_startproc
 327              		@ args = 0, pretend = 0, frame = 0
 328              		@ frame_needed = 0, uses_anonymous_args = 0
 329              		@ link register save eliminated.
 330              	.LVL31:
 331              		.loc 1 185 0
 332              		.loc 1 184 0
 333 0000 FFF7FEBF 		b	mac_lld_release_transmit_descriptor
 334              	.LVL32:
 335              		.cfi_endproc
 336              	.LFE123:
 337              		.size	macReleaseTransmitDescriptor, .-macReleaseTransmitDescriptor
ARM GAS  /tmp/ccRsDWco.s 			page 7


 338 0004 AFF30080 		.section	.text.macWaitReceiveDescriptor,"ax",%progbits
 338      AFF30080 
 338      AFF30080 
 339              		.align	2
 340              		.p2align 4,,15
 341              		.global	macWaitReceiveDescriptor
 342              		.thumb
 343              		.thumb_func
 344              		.type	macWaitReceiveDescriptor, %function
 345              	macWaitReceiveDescriptor:
 346              	.LFB124:
 347              		.loc 1 208 0
 348              		.cfi_startproc
 349              		@ args = 0, pretend = 0, frame = 0
 350              		@ frame_needed = 0, uses_anonymous_args = 0
 351              	.LVL33:
 352 0000 2DE9F843 		push	{r3, r4, r5, r6, r7, r8, r9, lr}
 353              	.LCFI4:
 354              		.cfi_def_cfa_offset 32
 355              		.cfi_offset 3, -32
 356              		.cfi_offset 4, -28
 357              		.cfi_offset 5, -24
 358              		.cfi_offset 6, -20
 359              		.cfi_offset 7, -16
 360              		.cfi_offset 8, -12
 361              		.cfi_offset 9, -8
 362              		.cfi_offset 14, -4
 363              		.loc 1 208 0
 364 0004 0746     		mov	r7, r0
 365 0006 8846     		mov	r8, r1
 366 0008 1446     		mov	r4, r2
 367              		.loc 1 219 0
 368 000a 124D     		ldr	r5, .L37
 369              		.loc 1 220 0
 370 000c 00F11409 		add	r9, r0, #20
 371 0010 12E0     		b	.L24
 372              	.LVL34:
 373              	.L36:
 374              		.loc 1 216 0 discriminator 2
 375 0012 C4B1     		cbz	r4, .L26
 376              	.LBB12:
 377              		.loc 1 218 0
 378              	@ 218 "../../os/hal/src/mac.c" 1
 379 0014 83F31188 		msr     BASEPRI, r3
 380              	@ 0 "" 2
 381              	.LVL35:
 382              		.thumb
 383              	.LBE12:
 384              		.loc 1 220 0
 385 0018 2146     		mov	r1, r4
 386 001a 4846     		mov	r0, r9
 387              	.LVL36:
 388              		.loc 1 219 0
 389 001c EE68     		ldr	r6, [r5, #12]
 390              	.LVL37:
 391              		.loc 1 220 0
 392 001e FFF7FEFF 		bl	chSemWaitTimeoutS
ARM GAS  /tmp/ccRsDWco.s 			page 8


 393              	.LVL38:
 394 0022 431C     		adds	r3, r0, #1
 395 0024 11D0     		beq	.L35
 396              		.loc 1 224 0
 397 0026 611C     		adds	r1, r4, #1
 398              		.loc 1 225 0
 399 0028 1EBF     		ittt	ne
 400 002a EB68     		ldrne	r3, [r5, #12]
 401 002c C3EB0606 		rsbne	r6, r3, r6
 402              	.LVL39:
 403 0030 A419     		addne	r4, r4, r6
 404              	.LVL40:
 405              	.LBB13:
 406              		.loc 1 226 0
 407 0032 0023     		movs	r3, #0
 408              	.LVL41:
 409              	@ 226 "../../os/hal/src/mac.c" 1
 410 0034 83F31188 		msr     BASEPRI, r3
 411              	@ 0 "" 2
 412              	.LVL42:
 413              		.thumb
 414              	.L24:
 415              	.LBE13:
 416              		.loc 1 216 0 discriminator 1
 417 0038 3846     		mov	r0, r7
 418 003a 4146     		mov	r1, r8
 419 003c FFF7FEFF 		bl	mac_lld_get_receive_descriptor
 420              	.LVL43:
 421              	.LBB14:
 422              		.loc 1 218 0 discriminator 1
 423 0040 2023     		movs	r3, #32
 424              	.LBE14:
 425              		.loc 1 216 0 discriminator 1
 426 0042 0028     		cmp	r0, #0
 427 0044 E5D1     		bne	.L36
 428              	.L26:
 429              		.loc 1 229 0
 430 0046 BDE8F883 		pop	{r3, r4, r5, r6, r7, r8, r9, pc}
 431              	.LVL44:
 432              	.L35:
 433              	.LBB15:
 434              		.loc 1 221 0
 435 004a 0023     		movs	r3, #0
 436              	.LVL45:
 437              	@ 221 "../../os/hal/src/mac.c" 1
 438 004c 83F31188 		msr     BASEPRI, r3
 439              	@ 0 "" 2
 440              	.LVL46:
 441              		.thumb
 442              	.LBE15:
 443              		.loc 1 222 0
 444 0050 BDE8F883 		pop	{r3, r4, r5, r6, r7, r8, r9, pc}
 445              	.L38:
 446              		.align	2
 447              	.L37:
 448 0054 00000000 		.word	vtlist
 449              		.cfi_endproc
ARM GAS  /tmp/ccRsDWco.s 			page 9


 450              	.LFE124:
 451              		.size	macWaitReceiveDescriptor, .-macWaitReceiveDescriptor
 452 0058 AFF30080 		.section	.text.macReleaseReceiveDescriptor,"ax",%progbits
 452      AFF30080 
 453              		.align	2
 454              		.p2align 4,,15
 455              		.global	macReleaseReceiveDescriptor
 456              		.thumb
 457              		.thumb_func
 458              		.type	macReleaseReceiveDescriptor, %function
 459              	macReleaseReceiveDescriptor:
 460              	.LFB125:
 461              		.loc 1 240 0
 462              		.cfi_startproc
 463              		@ args = 0, pretend = 0, frame = 0
 464              		@ frame_needed = 0, uses_anonymous_args = 0
 465              		@ link register save eliminated.
 466              	.LVL47:
 467              		.loc 1 245 0
 468              		.loc 1 244 0
 469 0000 FFF7FEBF 		b	mac_lld_release_receive_descriptor
 470              	.LVL48:
 471              		.cfi_endproc
 472              	.LFE125:
 473              		.size	macReleaseReceiveDescriptor, .-macReleaseReceiveDescriptor
 474 0004 AFF30080 		.section	.text.macPollLinkStatus,"ax",%progbits
 474      AFF30080 
 474      AFF30080 
 475              		.align	2
 476              		.p2align 4,,15
 477              		.global	macPollLinkStatus
 478              		.thumb
 479              		.thumb_func
 480              		.type	macPollLinkStatus, %function
 481              	macPollLinkStatus:
 482              	.LFB126:
 483              		.loc 1 257 0
 484              		.cfi_startproc
 485              		@ args = 0, pretend = 0, frame = 0
 486              		@ frame_needed = 0, uses_anonymous_args = 0
 487              		@ link register save eliminated.
 488              	.LVL49:
 489              		.loc 1 264 0
 490              		.loc 1 263 0
 491 0000 FFF7FEBF 		b	mac_lld_poll_link_status
 492              	.LVL50:
 493              		.cfi_endproc
 494              	.LFE126:
 495              		.size	macPollLinkStatus, .-macPollLinkStatus
 496 0004 AFF30080 		.text
 496      AFF30080 
 496      AFF30080 
 497              	.Letext0:
 498              		.file 2 "/opt/psas/x-tools/stm32f407/arm-psas-eabi/bin/../lib/gcc/arm-psas-eabi/4.7.2/include/stdd
 499              		.file 3 "/opt/psas/x-tools/stm32f407/arm-psas-eabi/bin/../lib/gcc/arm-psas-eabi/4.7.2/../../../../
 500              		.file 4 "../../os/ports/GCC/ARMCMx/chtypes.h"
 501              		.file 5 "../../os/kernel/include/chlists.h"
ARM GAS  /tmp/ccRsDWco.s 			page 10


 502              		.file 6 "../../os/kernel/include/chthreads.h"
 503              		.file 7 "../../os/ports/GCC/ARMCMx/chcore_v7m.h"
 504              		.file 8 "../../os/kernel/include/chvt.h"
 505              		.file 9 "../../os/kernel/include/chsem.h"
 506              		.file 10 "../../os/kernel/include/chmtx.h"
 507              		.file 11 "../../os/kernel/include/chevents.h"
 508              		.file 12 "../../os/hal/include/mac.h"
 509              		.file 13 "../../os/hal/platforms/STM32/mac_lld.h"
 510              		.file 14 "../../os/ports/common/ARMCMx/CMSIS/include/core_cm4.h"