ARM GAS  /tmp/ccdTphR7.s 			page 1


   1              		.syntax unified
   2              		.cpu cortex-m4
   3              		.eabi_attribute 27, 3
   4              		.eabi_attribute 28, 1
   5              		.fpu fpv4-sp-d16
   6              		.eabi_attribute 20, 1
   7              		.eabi_attribute 21, 1
   8              		.eabi_attribute 23, 3
   9              		.eabi_attribute 24, 1
  10              		.eabi_attribute 25, 1
  11              		.eabi_attribute 26, 1
  12              		.eabi_attribute 30, 2
  13              		.eabi_attribute 34, 1
  14              		.eabi_attribute 18, 4
  15              		.thumb
  16              		.file	"mac_lld.c"
  17              		.text
  18              	.Ltext0:
  19              		.cfi_sections	.debug_frame
  20              		.section	.text.mac_lld_set_address,"ax",%progbits
  21              		.align	2
  22              		.p2align 4,,15
  23              		.thumb
  24              		.thumb_func
  25              		.type	mac_lld_set_address, %function
  26              	mac_lld_set_address:
  27              	.LFB121:
  28              		.file 1 "../../os/hal/platforms/STM32/mac_lld.c"
  29              		.loc 1 152 0
  30              		.cfi_startproc
  31              		@ args = 0, pretend = 0, frame = 0
  32              		@ frame_needed = 0, uses_anonymous_args = 0
  33              		@ link register save eliminated.
  34              	.LVL0:
  35 0000 30B4     		push	{r4, r5}
  36              	.LCFI0:
  37              		.cfi_def_cfa_offset 8
  38              		.cfi_offset 4, -8
  39              		.cfi_offset 5, -4
  40              		.loc 1 156 0
  41 0002 4FF40043 		mov	r3, #32768
  42 0006 4179     		ldrb	r1, [r0, #5]	@ zero_extendqisi2
  43              		.loc 1 157 0
  44 0008 0279     		ldrb	r2, [r0, #4]	@ zero_extendqisi2
  45              		.loc 1 156 0
  46 000a C4F20203 		movt	r3, 16386
  47 000e 42EA0122 		orr	r2, r2, r1, lsl #8
  48 0012 1A64     		str	r2, [r3, #64]
  49              		.loc 1 159 0
  50 0014 8478     		ldrb	r4, [r0, #2]	@ zero_extendqisi2
  51              		.loc 1 158 0
  52 0016 C178     		ldrb	r1, [r0, #3]	@ zero_extendqisi2
  53              		.loc 1 161 0
  54 0018 0278     		ldrb	r2, [r0, #0]	@ zero_extendqisi2
  55              		.loc 1 160 0
  56 001a 4578     		ldrb	r5, [r0, #1]	@ zero_extendqisi2
  57              		.loc 1 159 0
ARM GAS  /tmp/ccdTphR7.s 			page 2


  58 001c 2404     		lsls	r4, r4, #16
  59              		.loc 1 158 0
  60 001e 44EA0164 		orr	r4, r4, r1, lsl #24
  61              		.loc 1 159 0
  62 0022 1443     		orrs	r4, r4, r2
  63              		.loc 1 162 0
  64 0024 4FF6FF71 		movw	r1, #65535
  65              		.loc 1 163 0
  66 0028 4FF0FF32 		mov	r2, #-1
  67              		.loc 1 168 0
  68 002c 0020     		movs	r0, #0
  69              	.LVL1:
  70              		.loc 1 160 0
  71 002e 44EA0524 		orr	r4, r4, r5, lsl #8
  72              		.loc 1 158 0
  73 0032 5C64     		str	r4, [r3, #68]
  74              		.loc 1 162 0
  75 0034 9964     		str	r1, [r3, #72]
  76              		.loc 1 163 0
  77 0036 DA64     		str	r2, [r3, #76]
  78              		.loc 1 164 0
  79 0038 1965     		str	r1, [r3, #80]
  80              		.loc 1 165 0
  81 003a 5A65     		str	r2, [r3, #84]
  82              		.loc 1 166 0
  83 003c 9965     		str	r1, [r3, #88]
  84              		.loc 1 167 0
  85 003e DA65     		str	r2, [r3, #92]
  86              		.loc 1 168 0
  87 0040 9860     		str	r0, [r3, #8]
  88              		.loc 1 169 0
  89 0042 D860     		str	r0, [r3, #12]
  90              		.loc 1 170 0
  91 0044 30BC     		pop	{r4, r5}
  92 0046 7047     		bx	lr
  93              		.cfi_endproc
  94              	.LFE121:
  95              		.size	mac_lld_set_address, .-mac_lld_set_address
  96 0048 AFF30080 		.section	.text.Vector134,"ax",%progbits
  96      AFF30080 
  97              		.align	2
  98              		.p2align 4,,15
  99              		.global	Vector134
 100              		.thumb
 101              		.thumb_func
 102              		.type	Vector134, %function
 103              	Vector134:
 104              	.LFB122:
 105              		.loc 1 176 0
 106              		.cfi_startproc
 107              		@ args = 0, pretend = 0, frame = 0
 108              		@ frame_needed = 0, uses_anonymous_args = 0
 109              		.loc 1 181 0
 110 0000 4FF41043 		mov	r3, #36864
 111 0004 C4F20203 		movt	r3, 16386
 112              		.loc 1 176 0
 113 0008 10B5     		push	{r4, lr}
ARM GAS  /tmp/ccdTphR7.s 			page 3


 114              	.LCFI1:
 115              		.cfi_def_cfa_offset 8
 116              		.cfi_offset 4, -8
 117              		.cfi_offset 14, -4
 118              		.loc 1 181 0
 119 000a 5C69     		ldr	r4, [r3, #20]
 120              	.LVL2:
 121              		.loc 1 184 0
 122 000c 6206     		lsls	r2, r4, #25
 123              		.loc 1 182 0
 124 000e 5C61     		str	r4, [r3, #20]
 125              		.loc 1 184 0
 126 0010 0FD4     		bmi	.L12
 127              	.LVL3:
 128              	.L3:
 129              		.loc 1 194 0
 130 0012 E307     		lsls	r3, r4, #31
 131              	.LVL4:
 132 0014 09D5     		bpl	.L4
 133              	.LBB35:
 134              		.loc 1 196 0
 135 0016 2023     		movs	r3, #32
 136              	.LVL5:
 137              	@ 196 "../../os/hal/platforms/STM32/mac_lld.c" 1
 138 0018 83F31188 		msr     BASEPRI, r3
 139              	@ 0 "" 2
 140              	.LVL6:
 141              		.thumb
 142              	.LBE35:
 143              		.loc 1 197 0
 144 001c 0C48     		ldr	r0, .L13
 145 001e 0021     		movs	r1, #0
 146 0020 FFF7FEFF 		bl	chSemResetI
 147              	.LVL7:
 148              	.LBB36:
 149              		.loc 1 198 0
 150 0024 0023     		movs	r3, #0
 151              	.LVL8:
 152              	@ 198 "../../os/hal/platforms/STM32/mac_lld.c" 1
 153 0026 83F31188 		msr     BASEPRI, r3
 154              	@ 0 "" 2
 155              	.LVL9:
 156              		.thumb
 157              	.L4:
 158              	.LBE36:
 159              		.loc 1 202 0
 160 002a BDE81040 		pop	{r4, lr}
 161              		.loc 1 201 0
 162 002e FFF7FEBF 		b	_port_irq_epilogue
 163              	.LVL10:
 164              	.L12:
 165              	.LBB37:
 166              		.loc 1 186 0
 167 0032 2023     		movs	r3, #32
 168              	.LVL11:
 169              	@ 186 "../../os/hal/platforms/STM32/mac_lld.c" 1
 170 0034 83F31188 		msr     BASEPRI, r3
ARM GAS  /tmp/ccdTphR7.s 			page 4


 171              	@ 0 "" 2
 172              	.LVL12:
 173              		.thumb
 174              	.LBE37:
 175              		.loc 1 187 0
 176 0038 0021     		movs	r1, #0
 177 003a 0648     		ldr	r0, .L13+4
 178 003c FFF7FEFF 		bl	chSemResetI
 179              	.LVL13:
 180              		.loc 1 189 0
 181 0040 0548     		ldr	r0, .L13+8
 182 0042 0021     		movs	r1, #0
 183 0044 FFF7FEFF 		bl	chEvtBroadcastFlagsI
 184              	.LVL14:
 185              	.LBB38:
 186              		.loc 1 191 0
 187 0048 0023     		movs	r3, #0
 188              	@ 191 "../../os/hal/platforms/STM32/mac_lld.c" 1
 189 004a 83F31188 		msr     BASEPRI, r3
 190              	@ 0 "" 2
 191              	.LVL15:
 192              		.thumb
 193 004e E0E7     		b	.L3
 194              	.L14:
 195              		.align	2
 196              	.L13:
 197 0050 08000000 		.word	.LANCHOR0+8
 198 0054 14000000 		.word	.LANCHOR0+20
 199 0058 20000000 		.word	.LANCHOR0+32
 200              	.LBE38:
 201              		.cfi_endproc
 202              	.LFE122:
 203              		.size	Vector134, .-Vector134
 204 005c AFF30080 		.section	.text.mac_lld_init,"ax",%progbits
 205              		.align	2
 206              		.p2align 4,,15
 207              		.global	mac_lld_init
 208              		.thumb
 209              		.thumb_func
 210              		.type	mac_lld_init, %function
 211              	mac_lld_init:
 212              	.LFB123:
 213              		.loc 1 213 0
 214              		.cfi_startproc
 215              		@ args = 0, pretend = 0, frame = 0
 216              		@ frame_needed = 0, uses_anonymous_args = 0
 217 0000 2DE9F843 		push	{r3, r4, r5, r6, r7, r8, r9, lr}
 218              	.LCFI2:
 219              		.cfi_def_cfa_offset 32
 220              		.cfi_offset 3, -32
 221              		.cfi_offset 4, -28
 222              		.cfi_offset 5, -24
 223              		.cfi_offset 6, -20
 224              		.cfi_offset 7, -16
 225              		.cfi_offset 8, -12
 226              		.cfi_offset 9, -8
 227              		.cfi_offset 14, -4
ARM GAS  /tmp/ccdTphR7.s 			page 5


 228              		.loc 1 216 0
 229 0004 5F4E     		ldr	r6, .L42
 230 0006 DFF88C81 		ldr	r8, .L42+16
 231 000a 3046     		mov	r0, r6
 232 000c FFF7FEFF 		bl	macObjectInit
 233              	.LVL16:
 234              		.loc 1 217 0
 235 0010 0023     		movs	r3, #0
 236 0012 5D48     		ldr	r0, .L42+4
 237 0014 7362     		str	r3, [r6, #36]
 238              	.LVL17:
 239              		.loc 1 222 0
 240 0016 44F2F25C 		movw	ip, #17906
 241              		.loc 1 223 0
 242 001a 40F2F45E 		movw	lr, #1524
 243              	.LVL18:
 244              	.L16:
 245              		.loc 1 224 0 discriminator 2
 246 001e 591C     		adds	r1, r3, #1
 247              		.loc 1 222 0 discriminator 2
 248 0020 00EB0312 		add	r2, r0, r3, lsl #4
 249              		.loc 1 224 0 discriminator 2
 250 0024 01F00305 		and	r5, r1, #3
 251              		.loc 1 223 0 discriminator 2
 252 0028 0EFB0387 		mla	r7, lr, r3, r8
 253              		.loc 1 224 0 discriminator 2
 254 002c 00EB0515 		add	r5, r0, r5, lsl #4
 255              		.loc 1 221 0 discriminator 2
 256 0030 0429     		cmp	r1, #4
 257              		.loc 1 222 0 discriminator 2
 258 0032 C2F804C0 		str	ip, [r2, #4]
 259              		.loc 1 221 0 discriminator 2
 260 0036 0B46     		mov	r3, r1
 261              		.loc 1 223 0 discriminator 2
 262 0038 9760     		str	r7, [r2, #8]
 263              		.loc 1 224 0 discriminator 2
 264 003a D560     		str	r5, [r2, #12]
 265              	.LVL19:
 266              		.loc 1 221 0 discriminator 2
 267 003c EFD1     		bne	.L16
 268              	.LVL20:
 269              		.loc 1 227 0 discriminator 1
 270 003e 534B     		ldr	r3, .L42+8
 271              		.loc 1 228 0 discriminator 1
 272 0040 5348     		ldr	r0, .L42+12
 273              		.loc 1 241 0 discriminator 1
 274 0042 4FF46051 		mov	r1, #14336
 275              		.loc 1 227 0 discriminator 1
 276 0046 0022     		movs	r2, #0
 277              		.loc 1 241 0 discriminator 1
 278 0048 C4F20101 		movt	r1, 16385
 279              		.loc 1 228 0 discriminator 1
 280 004c 00F2F454 		addw	r4, r0, #1524
 281              		.loc 1 229 0 discriminator 1
 282 0050 03F11005 		add	r5, r3, #16
 283              		.loc 1 227 0 discriminator 1
 284 0054 5A60     		str	r2, [r3, #4]
ARM GAS  /tmp/ccdTphR7.s 			page 6


 285              		.loc 1 228 0 discriminator 1
 286 0056 9860     		str	r0, [r3, #8]
 287              		.loc 1 229 0 discriminator 1
 288 0058 DD60     		str	r5, [r3, #12]
 289              	.LVL21:
 290              		.loc 1 227 0 discriminator 1
 291 005a 5A61     		str	r2, [r3, #20]
 292              		.loc 1 228 0 discriminator 1
 293 005c 9C61     		str	r4, [r3, #24]
 294              		.loc 1 229 0 discriminator 1
 295 005e DB61     		str	r3, [r3, #28]
 296              	.LVL22:
 297              		.loc 1 241 0 discriminator 1
 298 0060 4868     		ldr	r0, [r1, #4]
 299              		.loc 1 250 0 discriminator 1
 300 0062 4FF46053 		mov	r3, #14336
 301 0066 C4F20203 		movt	r3, 16386
 302              		.loc 1 241 0 discriminator 1
 303 006a 40F40000 		orr	r0, r0, #8388608
 304 006e 4860     		str	r0, [r1, #4]
 305              		.loc 1 250 0 discriminator 1
 306 0070 1969     		ldr	r1, [r3, #16]
 307 0072 41F00071 		orr	r1, r1, #33554432
 308 0076 1961     		str	r1, [r3, #16]
 309 0078 1A61     		str	r2, [r3, #16]
 310              		.loc 1 253 0 discriminator 1
 311 007a 196B     		ldr	r1, [r3, #48]
 312              	.LBB53:
 313              	.LBB54:
 314              		.loc 1 126 0 discriminator 1
 315 007c 4FF48052 		mov	r2, #4096
 316              	.LBE54:
 317              	.LBE53:
 318              		.loc 1 253 0 discriminator 1
 319 0080 41F06061 		orr	r1, r1, #234881024
 320              	.LBB63:
 321              	.LBB61:
 322              		.loc 1 126 0 discriminator 1
 323 0084 CEF20002 		movt	r2, 57344
 324              	.LBE61:
 325              	.LBE63:
 326              		.loc 1 253 0 discriminator 1
 327 0088 1963     		str	r1, [r3, #48]
 328              	.LVL23:
 329              	.LBB64:
 330              	.LBB62:
 331              		.loc 1 126 0 discriminator 1
 332 008a 5768     		ldr	r7, [r2, #4]
 333              	.LVL24:
 334              		.loc 1 127 0 discriminator 1
 335 008c 07F18078 		add	r8, r7, #16777216
 336 0090 08F5B248 		add	r8, r8, #22784
 337              	.LVL25:
 338              		.loc 1 132 0 discriminator 1
 339 0094 4FF40044 		mov	r4, #32768
 340              		.loc 1 128 0 discriminator 1
 341 0098 3846     		mov	r0, r7
ARM GAS  /tmp/ccdTphR7.s 			page 7


 342 009a 4146     		mov	r1, r8
 343              		.loc 1 132 0 discriminator 1
 344 009c C4F20204 		movt	r4, 16386
 345              		.loc 1 133 0 discriminator 1
 346 00a0 41F21069 		movw	r9, #5648
 347              		.loc 1 128 0 discriminator 1
 348 00a4 FFF7FEFF 		bl	halIsCounterWithin
 349              	.LVL26:
 350 00a8 E0B1     		cbz	r0, .L41
 351              	.L30:
 352              		.loc 1 128 0 is_stmt 0
 353 00aa 0025     		movs	r5, #0
 354              	.L20:
 355              		.loc 1 131 0 is_stmt 1
 356 00ac E902     		lsls	r1, r5, #11
 357              		.loc 1 132 0
 358 00ae AA01     		lsls	r2, r5, #6
 359 00b0 42F01002 		orr	r2, r2, #16
 360              	.LBB55:
 361              	.LBB56:
 362              		.loc 1 110 0
 363 00b4 41F09103 		orr	r3, r1, #145
 364              	.LBE56:
 365              	.LBE55:
 366              		.loc 1 132 0
 367 00b8 6261     		str	r2, [r4, #20]
 368              	.LVL27:
 369              	.LBB58:
 370              	.LBB57:
 371              		.loc 1 110 0
 372 00ba 2361     		str	r3, [r4, #16]
 373              	.L18:
 374              		.loc 1 111 0
 375 00bc 2269     		ldr	r2, [r4, #16]
 376 00be 4FF40043 		mov	r3, #32768
 377 00c2 D007     		lsls	r0, r2, #31
 378 00c4 C4F20203 		movt	r3, 16386
 379 00c8 F8D4     		bmi	.L18
 380              		.loc 1 113 0
 381 00ca 5A69     		ldr	r2, [r3, #20]
 382              	.LBE57:
 383              	.LBE58:
 384              		.loc 1 133 0
 385 00cc 222A     		cmp	r2, #34
 386 00ce 0DD0     		beq	.L19
 387              	.L23:
 388              		.loc 1 130 0
 389 00d0 0135     		adds	r5, r5, #1
 390              	.LVL28:
 391 00d2 1F2D     		cmp	r5, #31
 392 00d4 EAD1     		bne	.L20
 393 00d6 B162     		str	r1, [r6, #40]
 394              		.loc 1 128 0
 395 00d8 3846     		mov	r0, r7
 396 00da 4146     		mov	r1, r8
 397 00dc FFF7FEFF 		bl	halIsCounterWithin
 398              	.LVL29:
ARM GAS  /tmp/ccdTphR7.s 			page 8


 399 00e0 0028     		cmp	r0, #0
 400 00e2 E2D1     		bne	.L30
 401              	.LVL30:
 402              	.L41:
 403              		.loc 1 142 0
 404 00e4 FFF7FEFF 		bl	port_halt
 405              	.LVL31:
 406 00e8 B16A     		ldr	r1, [r6, #40]
 407 00ea 10E0     		b	.L24
 408              	.LVL32:
 409              	.L19:
 410              	.LBB59:
 411              	.LBB60:
 412              		.loc 1 110 0
 413 00ec 41F0D102 		orr	r2, r1, #209
 414 00f0 1A61     		str	r2, [r3, #16]
 415              	.L22:
 416              		.loc 1 111 0
 417 00f2 2269     		ldr	r2, [r4, #16]
 418 00f4 4FF40043 		mov	r3, #32768
 419 00f8 D207     		lsls	r2, r2, #31
 420 00fa C4F20203 		movt	r3, 16386
 421 00fe F8D4     		bmi	.L22
 422              		.loc 1 113 0
 423 0100 5A69     		ldr	r2, [r3, #20]
 424              	.LBE60:
 425              	.LBE59:
 426              		.loc 1 134 0
 427 0102 4FF6F073 		movw	r3, #65520
 428 0106 1340     		ands	r3, r3, r2
 429              		.loc 1 133 0
 430 0108 4B45     		cmp	r3, r9
 431 010a E1D1     		bne	.L23
 432 010c B162     		str	r1, [r6, #40]
 433              	.LVL33:
 434              	.L24:
 435              	.LBE62:
 436              	.LBE64:
 437              	.LBB65:
 438              	.LBB66:
 439              		.loc 1 93 0
 440 010e 4FF40043 		mov	r3, #32768
 441 0112 C4F20203 		movt	r3, 16386
 442 0116 4FF40042 		mov	r2, #32768
 443              		.loc 1 95 0
 444 011a 41F01304 		orr	r4, r1, #19
 445              		.loc 1 93 0
 446 011e 5A61     		str	r2, [r3, #20]
 447              		.loc 1 96 0
 448 0120 1A46     		mov	r2, r3
 449              		.loc 1 94 0
 450 0122 1C61     		str	r4, [r3, #16]
 451              	.L25:
 452              		.loc 1 96 0
 453 0124 1369     		ldr	r3, [r2, #16]
 454 0126 D807     		lsls	r0, r3, #31
 455 0128 FCD4     		bmi	.L25
ARM GAS  /tmp/ccdTphR7.s 			page 9


 456              	.LBE66:
 457              	.LBE65:
 458              	.LBB67:
 459              	.LBB68:
 460              		.loc 1 110 0
 461 012a 4FF40040 		mov	r0, #32768
 462 012e 41F01101 		orr	r1, r1, #17
 463 0132 C4F20200 		movt	r0, 16386
 464              	.L27:
 465              	.LVL34:
 466              		.loc 1 110 0 is_stmt 0 discriminator 1
 467 0136 0161     		str	r1, [r0, #16]
 468              	.L26:
 469              		.loc 1 111 0 is_stmt 1
 470 0138 0269     		ldr	r2, [r0, #16]
 471 013a 4FF40043 		mov	r3, #32768
 472 013e D207     		lsls	r2, r2, #31
 473 0140 C4F20203 		movt	r3, 16386
 474 0144 F8D4     		bmi	.L26
 475              		.loc 1 113 0
 476 0146 5A69     		ldr	r2, [r3, #20]
 477              	.LBE68:
 478              	.LBE67:
 479              		.loc 1 271 0
 480 0148 1204     		lsls	r2, r2, #16
 481 014a F4D4     		bmi	.L27
 482              	.LVL35:
 483              	.LBB69:
 484              	.LBB70:
 485              		.loc 1 110 0
 486 014c 1961     		str	r1, [r3, #16]
 487              	.L28:
 488              		.loc 1 111 0
 489 014e 1969     		ldr	r1, [r3, #16]
 490 0150 4FF40042 		mov	r2, #32768
 491 0154 C907     		lsls	r1, r1, #31
 492 0156 C4F20202 		movt	r2, 16386
 493 015a F8D4     		bmi	.L28
 494              		.loc 1 113 0
 495 015c 5369     		ldr	r3, [r2, #20]
 496              	.LBE70:
 497              	.LBE69:
 498              		.loc 1 276 0
 499 015e 43F40063 		orr	r3, r3, #2048
 500              	.LVL36:
 501              	.LBB71:
 502              	.LBB72:
 503              		.loc 1 93 0
 504 0162 5361     		str	r3, [r2, #20]
 505              		.loc 1 96 0
 506 0164 1146     		mov	r1, r2
 507              		.loc 1 94 0
 508 0166 1461     		str	r4, [r2, #16]
 509              	.LVL37:
 510              	.L29:
 511              		.loc 1 96 0
 512 0168 0B69     		ldr	r3, [r1, #16]
ARM GAS  /tmp/ccdTphR7.s 			page 10


 513 016a D807     		lsls	r0, r3, #31
 514 016c FCD4     		bmi	.L29
 515              	.LBE72:
 516              	.LBE71:
 517              		.loc 1 279 0
 518 016e 4FF46053 		mov	r3, #14336
 519 0172 C4F20203 		movt	r3, 16386
 520 0176 1A6B     		ldr	r2, [r3, #48]
 521 0178 22F06062 		bic	r2, r2, #234881024
 522 017c 1A63     		str	r2, [r3, #48]
 523 017e BDE8F883 		pop	{r3, r4, r5, r6, r7, r8, r9, pc}
 524              	.L43:
 525 0182 00BF     		.align	2
 526              	.L42:
 527 0184 00000000 		.word	.LANCHOR0
 528 0188 00000000 		.word	.LANCHOR1
 529 018c 00000000 		.word	.LANCHOR3
 530 0190 00000000 		.word	.LANCHOR4
 531 0194 00000000 		.word	.LANCHOR2
 532              		.cfi_endproc
 533              	.LFE123:
 534              		.size	mac_lld_init, .-mac_lld_init
 535 0198 AFF30080 		.section	.text.mac_lld_start,"ax",%progbits
 535      AFF30080 
 536              		.align	2
 537              		.p2align 4,,15
 538              		.global	mac_lld_start
 539              		.thumb
 540              		.thumb_func
 541              		.type	mac_lld_start, %function
 542              	mac_lld_start:
 543              	.LFB124:
 544              		.loc 1 289 0
 545              		.cfi_startproc
 546              		@ args = 0, pretend = 0, frame = 0
 547              		@ frame_needed = 0, uses_anonymous_args = 0
 548              	.LVL38:
 549 0000 F8B5     		push	{r3, r4, r5, r6, r7, lr}
 550              	.LCFI3:
 551              		.cfi_def_cfa_offset 24
 552              		.cfi_offset 3, -24
 553              		.cfi_offset 4, -20
 554              		.cfi_offset 5, -16
 555              		.cfi_offset 6, -12
 556              		.cfi_offset 7, -8
 557              		.cfi_offset 14, -4
 558              		.loc 1 301 0
 559 0002 4FF46051 		mov	r1, #14336
 560              		.loc 1 294 0
 561 0006 3D4D     		ldr	r5, .L56
 562              		.loc 1 297 0
 563 0008 3D4E     		ldr	r6, .L56+4
 564              		.loc 1 294 0
 565 000a 4FF00043 		mov	r3, #-2147483648
 566              		.loc 1 297 0
 567 000e 4FF48012 		mov	r2, #1048576
 568              		.loc 1 301 0
ARM GAS  /tmp/ccdTphR7.s 			page 11


 569 0012 C4F20201 		movt	r1, 16386
 570              		.loc 1 294 0
 571 0016 2B60     		str	r3, [r5, #0]
 572              	.LVL39:
 573 0018 2B61     		str	r3, [r5, #16]
 574              	.LVL40:
 575 001a 2B62     		str	r3, [r5, #32]
 576              	.LVL41:
 577 001c 2B63     		str	r3, [r5, #48]
 578              	.LVL42:
 579              		.loc 1 297 0
 580 001e 3260     		str	r2, [r6, #0]
 581 0020 3261     		str	r2, [r6, #16]
 582              		.loc 1 301 0
 583 0022 0B6B     		ldr	r3, [r1, #48]
 584              		.loc 1 295 0
 585 0024 C562     		str	r5, [r0, #44]
 586              	.LVL43:
 587              		.loc 1 302 0
 588 0026 4FF41042 		mov	r2, #36864
 589 002a C4F20202 		movt	r2, 16386
 590              		.loc 1 301 0
 591 002e 43F06063 		orr	r3, r3, #234881024
 592              		.loc 1 298 0
 593 0032 0663     		str	r6, [r0, #48]
 594              		.loc 1 301 0
 595 0034 0B63     		str	r3, [r1, #48]
 596              		.loc 1 302 0
 597 0036 1368     		ldr	r3, [r2, #0]
 598 0038 43F00103 		orr	r3, r3, #1
 599              		.loc 1 289 0
 600 003c 0746     		mov	r7, r0
 601              		.loc 1 302 0
 602 003e 1360     		str	r3, [r2, #0]
 603              	.L45:
 604              		.loc 1 303 0 discriminator 1
 605 0040 1368     		ldr	r3, [r2, #0]
 606 0042 4FF40044 		mov	r4, #32768
 607 0046 DB07     		lsls	r3, r3, #31
 608 0048 C4F20204 		movt	r4, 16386
 609 004c F8D4     		bmi	.L45
 610              		.loc 1 307 0
 611 004e D021     		movs	r1, #208
 612 0050 3D20     		movs	r0, #61
 613              	.LVL44:
 614 0052 FFF7FEFF 		bl	nvicEnableVector
 615              	.LVL45:
 616              	.LBB73:
 617              	.LBB74:
 618              		.loc 1 110 0
 619 0056 B96A     		ldr	r1, [r7, #40]
 620 0058 41F01103 		orr	r3, r1, #17
 621 005c 2361     		str	r3, [r4, #16]
 622              	.L46:
 623              		.loc 1 111 0
 624 005e 2269     		ldr	r2, [r4, #16]
 625 0060 4FF40043 		mov	r3, #32768
ARM GAS  /tmp/ccdTphR7.s 			page 12


 626 0064 D007     		lsls	r0, r2, #31
 627 0066 C4F20203 		movt	r3, 16386
 628 006a F8D4     		bmi	.L46
 629              		.loc 1 113 0
 630 006c 5869     		ldr	r0, [r3, #20]
 631              	.LBE74:
 632              	.LBE73:
 633              	.LBB75:
 634              	.LBB76:
 635              		.loc 1 95 0
 636 006e 41F01302 		orr	r2, r1, #19
 637              	.LBE76:
 638              	.LBE75:
 639              		.loc 1 311 0
 640 0072 20F40061 		bic	r1, r0, #2048
 641              	.LVL46:
 642              	.LBB78:
 643              	.LBB77:
 644              		.loc 1 93 0
 645 0076 5961     		str	r1, [r3, #20]
 646              		.loc 1 96 0
 647 0078 1946     		mov	r1, r3
 648              	.LVL47:
 649              		.loc 1 94 0
 650 007a 1A61     		str	r2, [r3, #16]
 651              	.L47:
 652              		.loc 1 96 0
 653 007c 0B69     		ldr	r3, [r1, #16]
 654 007e 4FF40042 		mov	r2, #32768
 655 0082 13F00103 		ands	r3, r3, #1
 656 0086 C4F20202 		movt	r2, 16386
 657 008a F7D1     		bne	.L47
 658              	.LBE77:
 659              	.LBE78:
 660              		.loc 1 320 0
 661 008c 7968     		ldr	r1, [r7, #4]
 662              	.LVL48:
 663              		.loc 1 315 0
 664 008e 5360     		str	r3, [r2, #4]
 665              		.loc 1 320 0
 666 0090 0868     		ldr	r0, [r1, #0]
 667              	.LVL49:
 668              		.loc 1 316 0
 669 0092 9361     		str	r3, [r2, #24]
 670              		.loc 1 317 0
 671 0094 D361     		str	r3, [r2, #28]
 672              		.loc 1 320 0
 673 0096 60B3     		cbz	r0, .L55
 674              		.loc 1 323 0
 675 0098 FFF7FEFF 		bl	mac_lld_set_address
 676              	.LVL50:
 677              	.L49:
 678              		.loc 1 331 0
 679 009c 4FF40042 		mov	r2, #32768
 680              		.loc 1 336 0
 681 00a0 4FF41043 		mov	r3, #36864
 682 00a4 C4F20203 		movt	r3, 16386
ARM GAS  /tmp/ccdTphR7.s 			page 13


 683              		.loc 1 331 0
 684 00a8 C4F20202 		movt	r2, 16386
 685 00ac 0C21     		movs	r1, #12
 686 00ae 1160     		str	r1, [r2, #0]
 687              		.loc 1 336 0
 688 00b0 DD60     		str	r5, [r3, #12]
 689              		.loc 1 337 0
 690 00b2 1E61     		str	r6, [r3, #16]
 691              		.loc 1 340 0
 692 00b4 5C69     		ldr	r4, [r3, #20]
 693              		.loc 1 341 0
 694 00b6 4120     		movs	r0, #65
 695              		.loc 1 344 0
 696 00b8 4FF48072 		mov	r2, #256
 697 00bc C0F20222 		movt	r2, 514
 698              		.loc 1 341 0
 699 00c0 C0F20100 		movt	r0, 1
 700              		.loc 1 340 0
 701 00c4 5C61     		str	r4, [r3, #20]
 702              		.loc 1 348 0
 703 00c6 49F21801 		movw	r1, #36888
 704              		.loc 1 341 0
 705 00ca D861     		str	r0, [r3, #28]
 706              		.loc 1 344 0
 707 00cc 1A60     		str	r2, [r3, #0]
 708              		.loc 1 347 0
 709 00ce 4FF48012 		mov	r2, #1048576
 710              		.loc 1 348 0
 711 00d2 C4F20201 		movt	r1, 16386
 712              		.loc 1 347 0
 713 00d6 9A61     		str	r2, [r3, #24]
 714              	.L50:
 715              		.loc 1 348 0 discriminator 1
 716 00d8 0A68     		ldr	r2, [r1, #0]
 717 00da 49F21803 		movw	r3, #36888
 718 00de D202     		lsls	r2, r2, #11
 719 00e0 C4F20203 		movt	r3, 16386
 720 00e4 F8D4     		bmi	.L50
 721              		.loc 1 352 0
 722 00e6 42F20202 		movw	r2, #8194
 723 00ea C0F22062 		movt	r2, 1568
 724 00ee 1A60     		str	r2, [r3, #0]
 725 00f0 F8BD     		pop	{r3, r4, r5, r6, r7, pc}
 726              	.L55:
 727              		.loc 1 321 0
 728 00f2 0448     		ldr	r0, .L56+8
 729 00f4 FFF7FEFF 		bl	mac_lld_set_address
 730              	.LVL51:
 731 00f8 D0E7     		b	.L49
 732              	.L57:
 733 00fa 00BF     		.align	2
 734              	.L56:
 735 00fc 00000000 		.word	.LANCHOR1
 736 0100 00000000 		.word	.LANCHOR3
 737 0104 00000000 		.word	.LANCHOR5
 738              		.cfi_endproc
 739              	.LFE124:
ARM GAS  /tmp/ccdTphR7.s 			page 14


 740              		.size	mac_lld_start, .-mac_lld_start
 741 0108 AFF30080 		.section	.text.mac_lld_stop,"ax",%progbits
 741      AFF30080 
 742              		.align	2
 743              		.p2align 4,,15
 744              		.global	mac_lld_stop
 745              		.thumb
 746              		.thumb_func
 747              		.type	mac_lld_stop, %function
 748              	mac_lld_stop:
 749              	.LFB125:
 750              		.loc 1 363 0
 751              		.cfi_startproc
 752              		@ args = 0, pretend = 0, frame = 0
 753              		@ frame_needed = 0, uses_anonymous_args = 0
 754              		@ link register save eliminated.
 755              	.LVL52:
 756              		.loc 1 365 0
 757 0000 0378     		ldrb	r3, [r0, #0]	@ zero_extendqisi2
 758 0002 012B     		cmp	r3, #1
 759 0004 32D0     		beq	.L58
 760              	.LVL53:
 761              	.LBB79:
 762              	.LBB80:
 763              		.loc 1 110 0
 764 0006 806A     		ldr	r0, [r0, #40]
 765              	.LVL54:
 766 0008 4FF40041 		mov	r1, #32768
 767 000c C4F20201 		movt	r1, 16386
 768 0010 40F01103 		orr	r3, r0, #17
 769 0014 0B61     		str	r3, [r1, #16]
 770              	.L60:
 771              		.loc 1 111 0
 772 0016 0A69     		ldr	r2, [r1, #16]
 773 0018 4FF40043 		mov	r3, #32768
 774 001c D207     		lsls	r2, r2, #31
 775 001e C4F20203 		movt	r3, 16386
 776 0022 F8D4     		bmi	.L60
 777              		.loc 1 113 0
 778 0024 5A69     		ldr	r2, [r3, #20]
 779              	.LBE80:
 780              	.LBE79:
 781              	.LBB81:
 782              	.LBB82:
 783              		.loc 1 95 0
 784 0026 40F01300 		orr	r0, r0, #19
 785              	.LBE82:
 786              	.LBE81:
 787              		.loc 1 368 0
 788 002a 42F40062 		orr	r2, r2, #2048
 789              	.LVL55:
 790              	.LBB84:
 791              	.LBB83:
 792              		.loc 1 93 0
 793 002e 5A61     		str	r2, [r3, #20]
 794              		.loc 1 96 0
 795 0030 1946     		mov	r1, r3
ARM GAS  /tmp/ccdTphR7.s 			page 15


 796              		.loc 1 94 0
 797 0032 1861     		str	r0, [r3, #16]
 798              	.LVL56:
 799              	.L61:
 800              		.loc 1 96 0
 801 0034 0B69     		ldr	r3, [r1, #16]
 802 0036 4FF40042 		mov	r2, #32768
 803 003a 13F00103 		ands	r3, r3, #1
 804 003e C4F20202 		movt	r2, 16386
 805 0042 F7D1     		bne	.L61
 806              	.LBE83:
 807              	.LBE84:
 808              		.loc 1 373 0
 809 0044 4FF41041 		mov	r1, #36864
 810              	.LVL57:
 811 0048 C4F20201 		movt	r1, 16386
 812              		.loc 1 372 0
 813 004c 1360     		str	r3, [r2, #0]
 814              		.loc 1 373 0
 815 004e 8B61     		str	r3, [r1, #24]
 816              		.loc 1 374 0
 817 0050 CB61     		str	r3, [r1, #28]
 818              		.loc 1 375 0
 819 0052 4A69     		ldr	r2, [r1, #20]
 820              		.loc 1 378 0
 821 0054 4FF46053 		mov	r3, #14336
 822 0058 C4F20203 		movt	r3, 16386
 823              		.loc 1 375 0
 824 005c 4A61     		str	r2, [r1, #20]
 825              		.loc 1 378 0
 826 005e 1A6B     		ldr	r2, [r3, #48]
 827              		.loc 1 381 0
 828 0060 3D20     		movs	r0, #61
 829              		.loc 1 378 0
 830 0062 22F06062 		bic	r2, r2, #234881024
 831 0066 1A63     		str	r2, [r3, #48]
 832              		.loc 1 383 0
 833              		.loc 1 381 0
 834 0068 FFF7FEBF 		b	nvicDisableVector
 835              	.LVL58:
 836              	.L58:
 837 006c 7047     		bx	lr
 838              		.cfi_endproc
 839              	.LFE125:
 840              		.size	mac_lld_stop, .-mac_lld_stop
 841 006e 00BF     		.section	.text.mac_lld_get_transmit_descriptor,"ax",%progbits
 842              		.align	2
 843              		.p2align 4,,15
 844              		.global	mac_lld_get_transmit_descriptor
 845              		.thumb
 846              		.thumb_func
 847              		.type	mac_lld_get_transmit_descriptor, %function
 848              	mac_lld_get_transmit_descriptor:
 849              	.LFB126:
 850              		.loc 1 399 0
 851              		.cfi_startproc
 852              		@ args = 0, pretend = 0, frame = 0
ARM GAS  /tmp/ccdTphR7.s 			page 16


 853              		@ frame_needed = 0, uses_anonymous_args = 0
 854              		@ link register save eliminated.
 855              	.LVL59:
 856              		.loc 1 402 0
 857 0000 436A     		ldr	r3, [r0, #36]
 858              		.loc 1 399 0
 859 0002 10B4     		push	{r4}
 860              	.LCFI4:
 861              		.cfi_def_cfa_offset 4
 862              		.cfi_offset 4, -4
 863              		.loc 1 402 0
 864 0004 BBB1     		cbz	r3, .L67
 865              	.LBB85:
 866              		.loc 1 405 0
 867 0006 2023     		movs	r3, #32
 868              	.LVL60:
 869              	@ 405 "../../os/hal/platforms/STM32/mac_lld.c" 1
 870 0008 83F31188 		msr     BASEPRI, r3
 871              	@ 0 "" 2
 872              	.LVL61:
 873              		.thumb
 874              	.LBE85:
 875              		.loc 1 408 0
 876 000c 026B     		ldr	r2, [r0, #48]
 877              	.LVL62:
 878              		.loc 1 412 0
 879 000e 1368     		ldr	r3, [r2, #0]
 880              	.LVL63:
 881 0010 13F00143 		ands	r3, r3, #-2130706432
 882 0014 12D1     		bne	.L68
 883              		.loc 1 418 0
 884 0016 1468     		ldr	r4, [r2, #0]
 885 0018 44F08074 		orr	r4, r4, #16777216
 886 001c 1460     		str	r4, [r2, #0]
 887              		.loc 1 421 0
 888 001e D468     		ldr	r4, [r2, #12]
 889 0020 0463     		str	r4, [r0, #48]
 890              	.LBB86:
 891              		.loc 1 423 0
 892              	@ 423 "../../os/hal/platforms/STM32/mac_lld.c" 1
 893 0022 83F31188 		msr     BASEPRI, r3
 894              	@ 0 "" 2
 895              	.LVL64:
 896              		.thumb
 897              	.LBE86:
 898              		.loc 1 427 0
 899 0026 40F2F250 		movw	r0, #1522
 900              	.LVL65:
 901 002a 4860     		str	r0, [r1, #4]
 902              		.loc 1 426 0
 903 002c 0B60     		str	r3, [r1, #0]
 904              		.loc 1 428 0
 905 002e 8A60     		str	r2, [r1, #8]
 906              		.loc 1 430 0
 907 0030 1846     		mov	r0, r3
 908              	.LVL66:
 909              	.L65:
ARM GAS  /tmp/ccdTphR7.s 			page 17


 910              		.loc 1 431 0
 911 0032 10BC     		pop	{r4}
 912 0034 7047     		bx	lr
 913              	.LVL67:
 914              	.L67:
 915              		.loc 1 403 0
 916 0036 4FF0FF30 		mov	r0, #-1
 917              	.LVL68:
 918 003a FAE7     		b	.L65
 919              	.LVL69:
 920              	.L68:
 921              	.LBB87:
 922              		.loc 1 413 0
 923 003c 0023     		movs	r3, #0
 924              	@ 413 "../../os/hal/platforms/STM32/mac_lld.c" 1
 925 003e 83F31188 		msr     BASEPRI, r3
 926              	@ 0 "" 2
 927              	.LVL70:
 928              		.thumb
 929              	.LBE87:
 930              		.loc 1 414 0
 931 0042 4FF0FF30 		mov	r0, #-1
 932              	.LVL71:
 933 0046 F4E7     		b	.L65
 934              		.cfi_endproc
 935              	.LFE126:
 936              		.size	mac_lld_get_transmit_descriptor, .-mac_lld_get_transmit_descriptor
 937 0048 AFF30080 		.section	.text.mac_lld_write_transmit_descriptor,"ax",%progbits
 937      AFF30080 
 938              		.align	2
 939              		.p2align 4,,15
 940              		.global	mac_lld_write_transmit_descriptor
 941              		.thumb
 942              		.thumb_func
 943              		.type	mac_lld_write_transmit_descriptor, %function
 944              	mac_lld_write_transmit_descriptor:
 945              	.LFB127:
 946              		.loc 1 449 0
 947              		.cfi_startproc
 948              		@ args = 0, pretend = 0, frame = 0
 949              		@ frame_needed = 0, uses_anonymous_args = 0
 950              	.LVL72:
 951 0000 38B5     		push	{r3, r4, r5, lr}
 952              	.LCFI5:
 953              		.cfi_def_cfa_offset 16
 954              		.cfi_offset 3, -16
 955              		.cfi_offset 4, -12
 956              		.cfi_offset 5, -8
 957              		.cfi_offset 14, -4
 958              		.loc 1 455 0
 959 0002 90E82800 		ldmia	r0, {r3, r5}
 960              		.loc 1 449 0
 961 0006 0446     		mov	r4, r0
 962              		.loc 1 455 0
 963 0008 ED1A     		subs	r5, r5, r3
 964              		.loc 1 451 0
 965 000a 8068     		ldr	r0, [r0, #8]
ARM GAS  /tmp/ccdTphR7.s 			page 18


 966              	.LVL73:
 967 000c AA42     		cmp	r2, r5
 968 000e 38BF     		it	cc
 969 0010 1546     		movcc	r5, r2
 970              	.LVL74:
 971 0012 0268     		ldr	r2, [r0, #0]
 972              		.loc 1 458 0
 973 0014 3DB1     		cbz	r5, .L70
 974              		.loc 1 459 0
 975 0016 8068     		ldr	r0, [r0, #8]
 976 0018 2A46     		mov	r2, r5
 977 001a C018     		adds	r0, r0, r3
 978 001c FFF7FEFF 		bl	memcpy
 979              	.LVL75:
 980              		.loc 1 460 0
 981 0020 2368     		ldr	r3, [r4, #0]
 982 0022 5B19     		adds	r3, r3, r5
 983 0024 2360     		str	r3, [r4, #0]
 984              	.L70:
 985              		.loc 1 463 0
 986 0026 2846     		mov	r0, r5
 987 0028 38BD     		pop	{r3, r4, r5, pc}
 988              		.cfi_endproc
 989              	.LFE127:
 990              		.size	mac_lld_write_transmit_descriptor, .-mac_lld_write_transmit_descriptor
 991 002a 00BFAFF3 		.section	.text.mac_lld_release_transmit_descriptor,"ax",%progbits
 991      0080
 992              		.align	2
 993              		.p2align 4,,15
 994              		.global	mac_lld_release_transmit_descriptor
 995              		.thumb
 996              		.thumb_func
 997              		.type	mac_lld_release_transmit_descriptor, %function
 998              	mac_lld_release_transmit_descriptor:
 999              	.LFB128:
 1000              		.loc 1 473 0
 1001              		.cfi_startproc
 1002              		@ args = 0, pretend = 0, frame = 0
 1003              		@ frame_needed = 0, uses_anonymous_args = 0
 1004              		@ link register save eliminated.
 1005              	.LVL76:
 1006              		.loc 1 475 0
 1007 0000 8268     		ldr	r2, [r0, #8]
 1008              	.LBB88:
 1009              		.loc 1 479 0
 1010 0002 2023     		movs	r3, #32
 1011              	.LVL77:
 1012              	.LBE88:
 1013              		.loc 1 475 0
 1014 0004 1268     		ldr	r2, [r2, #0]
 1015              	.LBB89:
 1016              		.loc 1 479 0
 1017              	@ 479 "../../os/hal/platforms/STM32/mac_lld.c" 1
 1018 0006 83F31188 		msr     BASEPRI, r3
 1019              	@ 0 "" 2
 1020              	.LVL78:
 1021              		.thumb
ARM GAS  /tmp/ccdTphR7.s 			page 19


 1022              	.LBE89:
 1023              		.loc 1 483 0
 1024 000a 0021     		movs	r1, #0
 1025              		.loc 1 482 0
 1026 000c 8268     		ldr	r2, [r0, #8]
 1027 000e 0068     		ldr	r0, [r0, #0]
 1028              	.LVL79:
 1029              		.loc 1 488 0
 1030 0010 4FF41043 		mov	r3, #36864
 1031              	.LVL80:
 1032              		.loc 1 483 0
 1033 0014 CFF21001 		movt	r1, 61456
 1034              		.loc 1 488 0
 1035 0018 C4F20203 		movt	r3, 16386
 1036              		.loc 1 482 0
 1037 001c 5060     		str	r0, [r2, #4]
 1038              		.loc 1 483 0
 1039 001e 1160     		str	r1, [r2, #0]
 1040              		.loc 1 488 0
 1041 0020 5A69     		ldr	r2, [r3, #20]
 1042 0022 02F4E002 		and	r2, r2, #7340032
 1043 0026 B2F5C00F 		cmp	r2, #6291456
 1044 002a 02D1     		bne	.L75
 1045              		.loc 1 489 0
 1046 002c 0422     		movs	r2, #4
 1047 002e 5A61     		str	r2, [r3, #20]
 1048              		.loc 1 490 0
 1049 0030 5A60     		str	r2, [r3, #4]
 1050              	.L75:
 1051              	.LBB90:
 1052              		.loc 1 493 0
 1053 0032 0023     		movs	r3, #0
 1054              	.LVL81:
 1055              	@ 493 "../../os/hal/platforms/STM32/mac_lld.c" 1
 1056 0034 83F31188 		msr     BASEPRI, r3
 1057              	@ 0 "" 2
 1058              	.LVL82:
 1059              		.thumb
 1060 0038 7047     		bx	lr
 1061              	.LBE90:
 1062              		.cfi_endproc
 1063              	.LFE128:
 1064              		.size	mac_lld_release_transmit_descriptor, .-mac_lld_release_transmit_descriptor
 1065 003a 00BFAFF3 		.section	.text.mac_lld_get_receive_descriptor,"ax",%progbits
 1065      0080
 1066              		.align	2
 1067              		.p2align 4,,15
 1068              		.global	mac_lld_get_receive_descriptor
 1069              		.thumb
 1070              		.thumb_func
 1071              		.type	mac_lld_get_receive_descriptor, %function
 1072              	mac_lld_get_receive_descriptor:
 1073              	.LFB129:
 1074              		.loc 1 508 0
 1075              		.cfi_startproc
 1076              		@ args = 0, pretend = 0, frame = 0
 1077              		@ frame_needed = 0, uses_anonymous_args = 0
ARM GAS  /tmp/ccdTphR7.s 			page 20


 1078              		@ link register save eliminated.
 1079              	.LVL83:
 1080 0000 30B4     		push	{r4, r5}
 1081              	.LCFI6:
 1082              		.cfi_def_cfa_offset 8
 1083              		.cfi_offset 4, -8
 1084              		.cfi_offset 5, -4
 1085              	.LBB91:
 1086              		.loc 1 511 0
 1087 0002 2023     		movs	r3, #32
 1088              	.LVL84:
 1089              	@ 511 "../../os/hal/platforms/STM32/mac_lld.c" 1
 1090 0004 83F31188 		msr     BASEPRI, r3
 1091              	@ 0 "" 2
 1092              	.LVL85:
 1093              		.thumb
 1094              	.LBE91:
 1095              		.loc 1 514 0
 1096 0008 C26A     		ldr	r2, [r0, #44]
 1097              	.LVL86:
 1098              		.loc 1 518 0
 1099 000a 1368     		ldr	r3, [r2, #0]
 1100              	.LVL87:
 1101 000c 002B     		cmp	r3, #0
 1102              		.loc 1 535 0
 1103 000e A8BF     		it	ge
 1104 0010 4FF00045 		movge	r5, #-2147483648
 1105              		.loc 1 518 0
 1106 0014 12DB     		blt	.L80
 1107              	.L85:
 1108              		.loc 1 519 0
 1109 0016 1468     		ldr	r4, [r2, #0]
 1110 0018 4FF40043 		mov	r3, #32768
 1111 001c C4F20003 		movt	r3, 16384
 1112 0020 2340     		ands	r3, r3, r4
 1113 0022 2BB9     		cbnz	r3, .L79
 1114              		.loc 1 524 0
 1115 0024 1468     		ldr	r4, [r2, #0]
 1116 0026 A405     		lsls	r4, r4, #22
 1117 0028 02D5     		bpl	.L79
 1118              		.loc 1 524 0 is_stmt 0 discriminator 1
 1119 002a 1468     		ldr	r4, [r2, #0]
 1120 002c E405     		lsls	r4, r4, #23
 1121 002e 0CD4     		bmi	.L89
 1122              	.L79:
 1123              		.loc 1 535 0 is_stmt 1
 1124 0030 1560     		str	r5, [r2, #0]
 1125              		.loc 1 536 0
 1126 0032 D368     		ldr	r3, [r2, #12]
 1127              		.loc 1 518 0
 1128 0034 1468     		ldr	r4, [r2, #0]
 1129              		.loc 1 536 0
 1130 0036 C362     		str	r3, [r0, #44]
 1131              		.loc 1 518 0
 1132 0038 002C     		cmp	r4, #0
 1133 003a ECDA     		bge	.L85
 1134              	.L80:
ARM GAS  /tmp/ccdTphR7.s 			page 21


 1135              	.LBB92:
 1136              		.loc 1 539 0
 1137 003c 0023     		movs	r3, #0
 1138              	.LVL88:
 1139              	@ 539 "../../os/hal/platforms/STM32/mac_lld.c" 1
 1140 003e 83F31188 		msr     BASEPRI, r3
 1141              	@ 0 "" 2
 1142              	.LVL89:
 1143              		.thumb
 1144              	.LBE92:
 1145              		.loc 1 540 0
 1146 0042 4FF0FF30 		mov	r0, #-1
 1147              	.LVL90:
 1148              	.L78:
 1149              		.loc 1 541 0
 1150 0046 30BC     		pop	{r4, r5}
 1151 0048 7047     		bx	lr
 1152              	.LVL91:
 1153              	.L89:
 1154              		.loc 1 527 0
 1155 004a 1568     		ldr	r5, [r2, #0]
 1156              		.loc 1 529 0
 1157 004c D468     		ldr	r4, [r2, #12]
 1158              		.loc 1 526 0
 1159 004e 0B60     		str	r3, [r1, #0]
 1160              		.loc 1 527 0
 1161 0050 C5F30D45 		ubfx	r5, r5, #16, #14
 1162 0054 043D     		subs	r5, r5, #4
 1163 0056 4D60     		str	r5, [r1, #4]
 1164              		.loc 1 528 0
 1165 0058 8A60     		str	r2, [r1, #8]
 1166              		.loc 1 529 0
 1167 005a C462     		str	r4, [r0, #44]
 1168              	.LBB93:
 1169              		.loc 1 531 0
 1170              	@ 531 "../../os/hal/platforms/STM32/mac_lld.c" 1
 1171 005c 83F31188 		msr     BASEPRI, r3
 1172              	@ 0 "" 2
 1173              	.LVL92:
 1174              		.thumb
 1175              	.LBE93:
 1176              		.loc 1 532 0
 1177 0060 1846     		mov	r0, r3
 1178              	.LVL93:
 1179 0062 F0E7     		b	.L78
 1180              		.cfi_endproc
 1181              	.LFE129:
 1182              		.size	mac_lld_get_receive_descriptor, .-mac_lld_get_receive_descriptor
 1183 0064 AFF30080 		.section	.text.mac_lld_read_receive_descriptor,"ax",%progbits
 1183      AFF30080 
 1183      AFF30080 
 1184              		.align	2
 1185              		.p2align 4,,15
 1186              		.global	mac_lld_read_receive_descriptor
 1187              		.thumb
 1188              		.thumb_func
 1189              		.type	mac_lld_read_receive_descriptor, %function
ARM GAS  /tmp/ccdTphR7.s 			page 22


 1190              	mac_lld_read_receive_descriptor:
 1191              	.LFB130:
 1192              		.loc 1 558 0
 1193              		.cfi_startproc
 1194              		@ args = 0, pretend = 0, frame = 0
 1195              		@ frame_needed = 0, uses_anonymous_args = 0
 1196              	.LVL94:
 1197 0000 70B5     		push	{r4, r5, r6, lr}
 1198              	.LCFI7:
 1199              		.cfi_def_cfa_offset 16
 1200              		.cfi_offset 4, -16
 1201              		.cfi_offset 5, -12
 1202              		.cfi_offset 6, -8
 1203              		.cfi_offset 14, -4
 1204              		.loc 1 560 0
 1205 0002 90E86800 		ldmia	r0, {r3, r5, r6}
 1206              		.loc 1 564 0
 1207 0006 ED1A     		subs	r5, r5, r3
 1208 0008 AA42     		cmp	r2, r5
 1209 000a 38BF     		it	cc
 1210 000c 1546     		movcc	r5, r2
 1211              	.LVL95:
 1212              		.loc 1 558 0
 1213 000e 0446     		mov	r4, r0
 1214              		.loc 1 560 0
 1215 0010 3268     		ldr	r2, [r6, #0]
 1216              		.loc 1 567 0
 1217 0012 45B1     		cbz	r5, .L91
 1218              		.loc 1 568 0
 1219 0014 B268     		ldr	r2, [r6, #8]
 1220 0016 0846     		mov	r0, r1
 1221              	.LVL96:
 1222 0018 D118     		adds	r1, r2, r3
 1223              	.LVL97:
 1224 001a 2A46     		mov	r2, r5
 1225 001c FFF7FEFF 		bl	memcpy
 1226              	.LVL98:
 1227              		.loc 1 569 0
 1228 0020 2368     		ldr	r3, [r4, #0]
 1229 0022 5B19     		adds	r3, r3, r5
 1230 0024 2360     		str	r3, [r4, #0]
 1231              	.L91:
 1232              		.loc 1 572 0
 1233 0026 2846     		mov	r0, r5
 1234 0028 70BD     		pop	{r4, r5, r6, pc}
 1235              		.cfi_endproc
 1236              	.LFE130:
 1237              		.size	mac_lld_read_receive_descriptor, .-mac_lld_read_receive_descriptor
 1238 002a 00BFAFF3 		.section	.text.mac_lld_release_receive_descriptor,"ax",%progbits
 1238      0080
 1239              		.align	2
 1240              		.p2align 4,,15
 1241              		.global	mac_lld_release_receive_descriptor
 1242              		.thumb
 1243              		.thumb_func
 1244              		.type	mac_lld_release_receive_descriptor, %function
 1245              	mac_lld_release_receive_descriptor:
ARM GAS  /tmp/ccdTphR7.s 			page 23


 1246              	.LFB131:
 1247              		.loc 1 583 0
 1248              		.cfi_startproc
 1249              		@ args = 0, pretend = 0, frame = 0
 1250              		@ frame_needed = 0, uses_anonymous_args = 0
 1251              		@ link register save eliminated.
 1252              	.LVL99:
 1253              		.loc 1 585 0
 1254 0000 8268     		ldr	r2, [r0, #8]
 1255              	.LBB94:
 1256              		.loc 1 589 0
 1257 0002 2023     		movs	r3, #32
 1258              	.LVL100:
 1259              	.LBE94:
 1260              		.loc 1 585 0
 1261 0004 1268     		ldr	r2, [r2, #0]
 1262              	.LBB95:
 1263              		.loc 1 589 0
 1264              	@ 589 "../../os/hal/platforms/STM32/mac_lld.c" 1
 1265 0006 83F31188 		msr     BASEPRI, r3
 1266              	@ 0 "" 2
 1267              	.LVL101:
 1268              		.thumb
 1269              	.LBE95:
 1270              		.loc 1 595 0
 1271 000a 4FF41043 		mov	r3, #36864
 1272              	.LVL102:
 1273              		.loc 1 592 0
 1274 000e 8268     		ldr	r2, [r0, #8]
 1275              		.loc 1 595 0
 1276 0010 C4F20203 		movt	r3, 16386
 1277              		.loc 1 592 0
 1278 0014 4FF00041 		mov	r1, #-2147483648
 1279 0018 1160     		str	r1, [r2, #0]
 1280              		.loc 1 595 0
 1281 001a 5A69     		ldr	r2, [r3, #20]
 1282 001c 02F46022 		and	r2, r2, #917504
 1283 0020 B2F5002F 		cmp	r2, #524288
 1284 0024 02D1     		bne	.L96
 1285              		.loc 1 596 0
 1286 0026 8022     		movs	r2, #128
 1287 0028 5A61     		str	r2, [r3, #20]
 1288              		.loc 1 597 0
 1289 002a 9A60     		str	r2, [r3, #8]
 1290              	.L96:
 1291              	.LBB96:
 1292              		.loc 1 600 0
 1293 002c 0023     		movs	r3, #0
 1294              	.LVL103:
 1295              	@ 600 "../../os/hal/platforms/STM32/mac_lld.c" 1
 1296 002e 83F31188 		msr     BASEPRI, r3
 1297              	@ 0 "" 2
 1298              	.LVL104:
 1299              		.thumb
 1300 0032 7047     		bx	lr
 1301              	.LBE96:
 1302              		.cfi_endproc
ARM GAS  /tmp/ccdTphR7.s 			page 24


 1303              	.LFE131:
 1304              		.size	mac_lld_release_receive_descriptor, .-mac_lld_release_receive_descriptor
 1305 0034 AFF30080 		.section	.text.mac_lld_poll_link_status,"ax",%progbits
 1305      AFF30080 
 1305      AFF30080 
 1306              		.align	2
 1307              		.p2align 4,,15
 1308              		.global	mac_lld_poll_link_status
 1309              		.thumb
 1310              		.thumb_func
 1311              		.type	mac_lld_poll_link_status, %function
 1312              	mac_lld_poll_link_status:
 1313              	.LFB132:
 1314              		.loc 1 613 0
 1315              		.cfi_startproc
 1316              		@ args = 0, pretend = 0, frame = 0
 1317              		@ frame_needed = 0, uses_anonymous_args = 0
 1318              		@ link register save eliminated.
 1319              	.LVL105:
 1320 0000 70B4     		push	{r4, r5, r6}
 1321              	.LCFI8:
 1322              		.cfi_def_cfa_offset 12
 1323              		.cfi_offset 4, -12
 1324              		.cfi_offset 5, -8
 1325              		.cfi_offset 6, -4
 1326              		.loc 1 616 0
 1327 0002 4FF40041 		mov	r1, #32768
 1328              	.LBB97:
 1329              	.LBB98:
 1330              		.loc 1 110 0
 1331 0006 846A     		ldr	r4, [r0, #40]
 1332              	.LBE98:
 1333              	.LBE97:
 1334              		.loc 1 616 0
 1335 0008 C4F20201 		movt	r1, 16386
 1336              		.loc 1 613 0
 1337 000c 0546     		mov	r5, r0
 1338              	.LBB101:
 1339              	.LBB99:
 1340              		.loc 1 110 0
 1341 000e 44F05100 		orr	r0, r4, #81
 1342              	.LVL106:
 1343              	.LBE99:
 1344              	.LBE101:
 1345              		.loc 1 616 0
 1346 0012 0E68     		ldr	r6, [r1, #0]
 1347              	.LVL107:
 1348              	.LBB102:
 1349              	.LBB100:
 1350              		.loc 1 110 0
 1351 0014 0861     		str	r0, [r1, #16]
 1352              	.L98:
 1353              		.loc 1 111 0
 1354 0016 0A69     		ldr	r2, [r1, #16]
 1355 0018 4FF40043 		mov	r3, #32768
 1356 001c D207     		lsls	r2, r2, #31
 1357 001e C4F20203 		movt	r3, 16386
ARM GAS  /tmp/ccdTphR7.s 			page 25


 1358 0022 F8D4     		bmi	.L98
 1359              		.loc 1 113 0
 1360 0024 5A69     		ldr	r2, [r3, #20]
 1361              	.LVL108:
 1362              	.LBE100:
 1363              	.LBE102:
 1364              	.LBB103:
 1365              	.LBB104:
 1366              		.loc 1 110 0
 1367 0026 1861     		str	r0, [r3, #16]
 1368              		.loc 1 111 0
 1369 0028 1946     		mov	r1, r3
 1370              	.L99:
 1371 002a 0A69     		ldr	r2, [r1, #16]
 1372 002c 4FF40043 		mov	r3, #32768
 1373 0030 D207     		lsls	r2, r2, #31
 1374 0032 C4F20203 		movt	r3, 16386
 1375 0036 F8D4     		bmi	.L99
 1376              	.LBE104:
 1377              	.LBE103:
 1378              	.LBB106:
 1379              	.LBB107:
 1380              		.loc 1 110 0
 1381 0038 44F01102 		orr	r2, r4, #17
 1382              	.LBE107:
 1383              	.LBE106:
 1384              	.LBB109:
 1385              	.LBB105:
 1386              		.loc 1 113 0
 1387 003c 5869     		ldr	r0, [r3, #20]
 1388              	.LVL109:
 1389              	.LBE105:
 1390              	.LBE109:
 1391              	.LBB110:
 1392              	.LBB108:
 1393              		.loc 1 110 0
 1394 003e 1A61     		str	r2, [r3, #16]
 1395              		.loc 1 111 0
 1396 0040 1946     		mov	r1, r3
 1397              	.L100:
 1398 0042 0B69     		ldr	r3, [r1, #16]
 1399 0044 4FF40042 		mov	r2, #32768
 1400 0048 13F00103 		ands	r3, r3, #1
 1401 004c C4F20202 		movt	r2, 16386
 1402 0050 F7D1     		bne	.L100
 1403              		.loc 1 113 0
 1404 0052 5169     		ldr	r1, [r2, #20]
 1405              	.LBE108:
 1406              	.LBE110:
 1407              		.loc 1 624 0
 1408 0054 11F4805F 		tst	r1, #4096
 1409 0058 08D0     		beq	.L101
 1410              	.LBB111:
 1411              		.loc 1 628 0
 1412 005a 00F03400 		and	r0, r0, #52
 1413 005e 2428     		cmp	r0, #36
 1414              		.loc 1 630 0
ARM GAS  /tmp/ccdTphR7.s 			page 26


 1415 0060 1CBF     		itt	ne
 1416 0062 6B62     		strne	r3, [r5, #36]
 1417 0064 1846     		movne	r0, r3
 1418              		.loc 1 628 0
 1419 0066 19D0     		beq	.L118
 1420              	.L103:
 1421              	.LBE111:
 1422              		.loc 1 670 0
 1423 0068 70BC     		pop	{r4, r5, r6}
 1424 006a 7047     		bx	lr
 1425              	.L101:
 1426              		.loc 1 649 0
 1427 006c 10F00400 		ands	r0, r0, #4
 1428              		.loc 1 650 0
 1429 0070 08BF     		it	eq
 1430 0072 6862     		streq	r0, [r5, #36]
 1431              		.loc 1 649 0
 1432 0074 F8D0     		beq	.L103
 1433              		.loc 1 653 0
 1434 0076 8A04     		lsls	r2, r1, #18
 1435              		.loc 1 654 0
 1436 0078 4CBF     		ite	mi
 1437 007a 46F48046 		orrmi	r6, r6, #16384
 1438              	.LVL110:
 1439              		.loc 1 656 0
 1440 007e 26F48046 		bicpl	r6, r6, #16384
 1441              	.LVL111:
 1442              		.loc 1 659 0
 1443 0082 CB05     		lsls	r3, r1, #23
 1444 0084 21D4     		bmi	.L117
 1445              	.L112:
 1446              		.loc 1 662 0
 1447 0086 26F40066 		bic	r6, r6, #2048
 1448              	.LVL112:
 1449              	.L108:
 1450              		.loc 1 666 0
 1451 008a 4FF40042 		mov	r2, #32768
 1452 008e C4F20202 		movt	r2, 16386
 1453              		.loc 1 669 0
 1454 0092 0123     		movs	r3, #1
 1455              		.loc 1 666 0
 1456 0094 1660     		str	r6, [r2, #0]
 1457              		.loc 1 669 0
 1458 0096 1846     		mov	r0, r3
 1459 0098 6B62     		str	r3, [r5, #36]
 1460 009a E5E7     		b	.L103
 1461              	.L118:
 1462              	.LVL113:
 1463              	.LBB114:
 1464              	.LBB112:
 1465              	.LBB113:
 1466              		.loc 1 110 0
 1467 009c 44F4A874 		orr	r4, r4, #336
 1468 00a0 44F00104 		orr	r4, r4, #1
 1469 00a4 1461     		str	r4, [r2, #16]
 1470              	.L104:
 1471              		.loc 1 111 0
ARM GAS  /tmp/ccdTphR7.s 			page 27


 1472 00a6 1169     		ldr	r1, [r2, #16]
 1473 00a8 4FF40043 		mov	r3, #32768
 1474 00ac C907     		lsls	r1, r1, #31
 1475 00ae C4F20203 		movt	r3, 16386
 1476 00b2 F8D4     		bmi	.L104
 1477              		.loc 1 113 0
 1478 00b4 5B69     		ldr	r3, [r3, #20]
 1479              	.LBE113:
 1480              	.LBE112:
 1481              		.loc 1 636 0
 1482 00b6 13F4607F 		tst	r3, #896
 1483              		.loc 1 637 0
 1484 00ba 14BF     		ite	ne
 1485 00bc 46F48046 		orrne	r6, r6, #16384
 1486              	.LVL114:
 1487              		.loc 1 639 0
 1488 00c0 26F48046 		biceq	r6, r6, #16384
 1489              	.LVL115:
 1490              		.loc 1 642 0
 1491 00c4 13F4A07F 		tst	r3, #320
 1492 00c8 DDD0     		beq	.L112
 1493              	.LVL116:
 1494              	.L117:
 1495              	.LBE114:
 1496              		.loc 1 660 0
 1497 00ca 46F40066 		orr	r6, r6, #2048
 1498              	.LVL117:
 1499 00ce DCE7     		b	.L108
 1500              		.cfi_endproc
 1501              	.LFE132:
 1502              		.size	mac_lld_poll_link_status, .-mac_lld_poll_link_status
 1503              		.global	ETHD1
 1504              		.section	.rodata.default_mac_address,"a",%progbits
 1505              		.align	2
 1506              		.set	.LANCHOR5,. + 0
 1507              		.type	default_mac_address, %object
 1508              		.size	default_mac_address, 6
 1509              	default_mac_address:
 1510 0000 AA       		.byte	-86
 1511 0001 55       		.byte	85
 1512 0002 13       		.byte	19
 1513 0003 37       		.byte	55
 1514 0004 01       		.byte	1
 1515 0005 10       		.byte	16
 1516 0006 0000     		.section	.bss.ETHD1,"aw",%nobits
 1517              		.align	2
 1518              		.set	.LANCHOR0,. + 0
 1519              		.type	ETHD1, %object
 1520              		.size	ETHD1, 52
 1521              	ETHD1:
 1522 0000 00000000 		.space	52
 1522      00000000 
 1522      00000000 
 1522      00000000 
 1522      00000000 
 1523              		.section	.bss.rb,"aw",%nobits
 1524              		.align	2
ARM GAS  /tmp/ccdTphR7.s 			page 28


 1525              		.set	.LANCHOR2,. + 0
 1526              		.type	rb, %object
 1527              		.size	rb, 6096
 1528              	rb:
 1529 0000 00000000 		.space	6096
 1529      00000000 
 1529      00000000 
 1529      00000000 
 1529      00000000 
 1530              		.section	.bss.rd,"aw",%nobits
 1531              		.align	2
 1532              		.set	.LANCHOR1,. + 0
 1533              		.type	rd, %object
 1534              		.size	rd, 64
 1535              	rd:
 1536 0000 00000000 		.space	64
 1536      00000000 
 1536      00000000 
 1536      00000000 
 1536      00000000 
 1537              		.section	.bss.tb,"aw",%nobits
 1538              		.align	2
 1539              		.set	.LANCHOR4,. + 0
 1540              		.type	tb, %object
 1541              		.size	tb, 3048
 1542              	tb:
 1543 0000 00000000 		.space	3048
 1543      00000000 
 1543      00000000 
 1543      00000000 
 1543      00000000 
 1544              		.section	.bss.td,"aw",%nobits
 1545              		.align	2
 1546              		.set	.LANCHOR3,. + 0
 1547              		.type	td, %object
 1548              		.size	td, 32
 1549              	td:
 1550 0000 00000000 		.space	32
 1550      00000000 
 1550      00000000 
 1550      00000000 
 1550      00000000 
 1551              		.text
 1552              	.Letext0:
 1553              		.file 2 "/opt/psas/x-tools/stm32f407/arm-psas-eabi/bin/../lib/gcc/arm-psas-eabi/4.7.2/include/stdd
 1554              		.file 3 "/opt/psas/x-tools/stm32f407/arm-psas-eabi/bin/../lib/gcc/arm-psas-eabi/4.7.2/../../../../
 1555              		.file 4 "../../os/ports/GCC/ARMCMx/chtypes.h"
 1556              		.file 5 "../../os/kernel/include/chlists.h"
 1557              		.file 6 "../../os/kernel/include/chthreads.h"
 1558              		.file 7 "../../os/ports/GCC/ARMCMx/chcore_v7m.h"
 1559              		.file 8 "../../os/ports/common/ARMCMx/nvic.h"
 1560              		.file 9 "../../os/kernel/include/chsem.h"
 1561              		.file 10 "../../os/kernel/include/chmtx.h"
 1562              		.file 11 "../../os/kernel/include/chevents.h"
 1563              		.file 12 "../../os/hal/platforms/STM32F4xx/stm32f4xx.h"
 1564              		.file 13 "../../os/hal/platforms/STM32F4xx/hal_lld.h"
 1565              		.file 14 "../../os/hal/include/mac.h"
ARM GAS  /tmp/ccdTphR7.s 			page 29


 1566              		.file 15 "../../os/hal/platforms/STM32/mac_lld.h"
 1567              		.file 16 "../../os/ports/common/ARMCMx/CMSIS/include/core_cm4.h"
 1568              		.file 17 "../../os/hal/include/hal.h"