ARM GAS  /tmp/ccyAfSkT.s 			page 1


   1              		.syntax unified
   2              		.cpu cortex-m4
   3              		.eabi_attribute 27, 3
   4              		.eabi_attribute 28, 1
   5              		.fpu fpv4-sp-d16
   6              		.eabi_attribute 20, 1
   7              		.eabi_attribute 21, 1
   8              		.eabi_attribute 23, 3
   9              		.eabi_attribute 24, 1
  10              		.eabi_attribute 25, 1
  11              		.eabi_attribute 26, 1
  12              		.eabi_attribute 30, 2
  13              		.eabi_attribute 34, 1
  14              		.eabi_attribute 18, 4
  15              		.thumb
  16              		.file	"main.c"
  17              		.text
  18              	.Ltext0:
  19              		.cfi_sections	.debug_frame
  20              		.section	.text.get_descriptor,"ax",%progbits
  21              		.align	2
  22              		.p2align 4,,15
  23              		.thumb
  24              		.thumb_func
  25              		.type	get_descriptor, %function
  26              	get_descriptor:
  27              	.LFB121:
  28              		.file 1 "main.c"
  29              		.loc 1 338 0
  30              		.cfi_startproc
  31              		@ args = 0, pretend = 0, frame = 0
  32              		@ frame_needed = 0, uses_anonymous_args = 0
  33              		@ link register save eliminated.
  34              	.LVL0:
  35              		.loc 1 342 0
  36 0000 0229     		cmp	r1, #2
  37 0002 06D0     		beq	.L6
  38 0004 0329     		cmp	r1, #3
  39 0006 06D0     		beq	.L5
  40              		.loc 1 351 0
  41 0008 0748     		ldr	r0, .L9
  42              	.LVL1:
  43 000a 0129     		cmp	r1, #1
  44 000c 18BF     		it	ne
  45 000e 0020     		movne	r0, #0
  46 0010 7047     		bx	lr
  47              	.LVL2:
  48              	.L6:
  49              		.loc 1 346 0
  50 0012 0648     		ldr	r0, .L9+4
  51              	.LVL3:
  52 0014 7047     		bx	lr
  53              	.LVL4:
  54              	.L5:
  55              		.loc 1 348 0
  56 0016 032A     		cmp	r2, #3
  57 0018 03D8     		bhi	.L7
ARM GAS  /tmp/ccyAfSkT.s 			page 2


  58              		.loc 1 349 0
  59 001a 0548     		ldr	r0, .L9+8
  60              	.LVL5:
  61 001c 00EBC200 		add	r0, r0, r2, lsl #3
  62 0020 7047     		bx	lr
  63              	.LVL6:
  64              	.L7:
  65              		.loc 1 351 0
  66 0022 0020     		movs	r0, #0
  67              	.LVL7:
  68              		.loc 1 352 0
  69 0024 7047     		bx	lr
  70              	.L10:
  71 0026 00BF     		.align	2
  72              	.L9:
  73 0028 00000000 		.word	.LANCHOR0
  74 002c 00000000 		.word	.LANCHOR1
  75 0030 00000000 		.word	.LANCHOR2
  76              		.cfi_endproc
  77              	.LFE121:
  78              		.size	get_descriptor, .-get_descriptor
  79 0034 AFF30080 		.section	.text.Thread1,"ax",%progbits
  79      AFF30080 
  79      AFF30080 
  80              		.align	2
  81              		.p2align 4,,15
  82              		.thumb
  83              		.thumb_func
  84              		.type	Thread1, %function
  85              	Thread1:
  86              	.LFB129:
  87              		.loc 1 589 0
  88              		.cfi_startproc
  89              		@ args = 0, pretend = 0, frame = 0
  90              		@ frame_needed = 0, uses_anonymous_args = 0
  91              	.LVL8:
  92 0000 38B5     		push	{r3, r4, r5, lr}
  93              	.LCFI0:
  94              		.cfi_def_cfa_offset 16
  95              		.cfi_offset 3, -16
  96              		.cfi_offset 4, -12
  97              		.cfi_offset 5, -8
  98              		.cfi_offset 14, -4
  99              		.loc 1 592 0
 100 0002 0B4B     		ldr	r3, .L15
 101 0004 0B4A     		ldr	r2, .L15+4
 102 0006 9B69     		ldr	r3, [r3, #24]
 103 0008 0B4D     		ldr	r5, .L15+8
 104 000a 9A61     		str	r2, [r3, #24]
 105              		.loc 1 594 0
 106 000c 4FF40064 		mov	r4, #2048
 107 0010 C4F20204 		movt	r4, 16386
 108              	.LVL9:
 109              	.L13:
 110 0014 6369     		ldr	r3, [r4, #20]
 111 0016 83F40053 		eor	r3, r3, #8192
 112 001a 6361     		str	r3, [r4, #20]
ARM GAS  /tmp/ccyAfSkT.s 			page 3


 113              		.loc 1 595 0
 114 001c 2868     		ldr	r0, [r5, #0]
 115 001e 0028     		cmp	r0, #0
 116 0020 0CBF     		ite	eq
 117 0022 4FF4FA70 		moveq	r0, #500
 118 0026 7D20     		movne	r0, #125
 119 0028 FFF7FEFF 		bl	chThdSleep
 120              	.LVL10:
 121              		.loc 1 596 0
 122 002c F2E7     		b	.L13
 123              	.L16:
 124 002e 00BF     		.align	2
 125              	.L15:
 126 0030 00000000 		.word	rlist
 127 0034 00000000 		.word	.LC0
 128 0038 00000000 		.word	.LANCHOR3
 129              		.cfi_endproc
 130              	.LFE129:
 131              		.size	Thread1, .-Thread1
 132 003c AFF30080 		.section	.text.RemoveHandler,"ax",%progbits
 133              		.align	2
 134              		.p2align 4,,15
 135              		.thumb
 136              		.thumb_func
 137              		.type	RemoveHandler, %function
 138              	RemoveHandler:
 139              	.LFB128:
 140              		.loc 1 578 0
 141              		.cfi_startproc
 142              		@ args = 0, pretend = 0, frame = 0
 143              		@ frame_needed = 0, uses_anonymous_args = 0
 144              	.LVL11:
 145              		.loc 1 581 0
 146 0000 40F20000 		movw	r0, #:lower16:SDCD1
 147              	.LVL12:
 148              		.loc 1 578 0
 149 0004 08B5     		push	{r3, lr}
 150              	.LCFI1:
 151              		.cfi_def_cfa_offset 8
 152              		.cfi_offset 3, -8
 153              		.cfi_offset 14, -4
 154              		.loc 1 581 0
 155 0006 C0F20000 		movt	r0, #:upper16:SDCD1
 156 000a FFF7FEFF 		bl	sdcDisconnect
 157              	.LVL13:
 158              		.loc 1 582 0
 159 000e 40F20003 		movw	r3, #:lower16:.LANCHOR3
 160 0012 C0F20003 		movt	r3, #:upper16:.LANCHOR3
 161 0016 0022     		movs	r2, #0
 162 0018 1A60     		str	r2, [r3, #0]
 163 001a 08BD     		pop	{r3, pc}
 164              		.cfi_endproc
 165              	.LFE128:
 166              		.size	RemoveHandler, .-RemoveHandler
 167 001c AFF30080 		.section	.text.tmrfunc,"ax",%progbits
 168              		.align	2
 169              		.p2align 4,,15
ARM GAS  /tmp/ccyAfSkT.s 			page 4


 170              		.thumb
 171              		.thumb_func
 172              		.type	tmrfunc, %function
 173              	tmrfunc:
 174              	.LFB118:
 175              		.loc 1 66 0
 176              		.cfi_startproc
 177              		@ args = 0, pretend = 0, frame = 0
 178              		@ frame_needed = 0, uses_anonymous_args = 0
 179              	.LVL14:
 180 0000 38B5     		push	{r3, r4, r5, lr}
 181              	.LCFI2:
 182              		.cfi_def_cfa_offset 16
 183              		.cfi_offset 3, -16
 184              		.cfi_offset 4, -12
 185              		.cfi_offset 5, -8
 186              		.cfi_offset 14, -4
 187              		.loc 1 66 0
 188 0002 0446     		mov	r4, r0
 189              	.LVL15:
 190              	.LBB6:
 191              		.loc 1 69 0
 192 0004 2023     		movs	r3, #32
 193              	.LVL16:
 194              	@ 69 "main.c" 1
 195 0006 83F31188 		msr     BASEPRI, r3
 196              	@ 0 "" 2
 197              	.LVL17:
 198              		.thumb
 199              	.LBE6:
 200              		.loc 1 70 0
 201 000a 144D     		ldr	r5, .L25
 202 000c 2B68     		ldr	r3, [r5, #0]
 203              	.LVL18:
 204 000e 8BB1     		cbz	r3, .L19
 205              		.loc 1 71 0
 206 0010 0368     		ldr	r3, [r0, #0]
 207 0012 1B68     		ldr	r3, [r3, #0]
 208 0014 9847     		blx	r3
 209              	.LVL19:
 210 0016 C8B1     		cbz	r0, .L20
 211              		.loc 1 72 0
 212 0018 2968     		ldr	r1, [r5, #0]
 213 001a 0139     		subs	r1, r1, #1
 214 001c 2960     		str	r1, [r5, #0]
 215 001e C1B1     		cbz	r1, .L24
 216              	.L22:
 217              		.loc 1 85 0
 218 0020 2346     		mov	r3, r4
 219 0022 0F48     		ldr	r0, .L25+4
 220 0024 0F4A     		ldr	r2, .L25+8
 221 0026 0A21     		movs	r1, #10
 222 0028 FFF7FEFF 		bl	chVTSetI
 223              	.LVL20:
 224              	.LBB7:
 225              		.loc 1 86 0
 226 002c 0023     		movs	r3, #0
ARM GAS  /tmp/ccyAfSkT.s 			page 5


 227              	.LVL21:
 228              	@ 86 "main.c" 1
 229 002e 83F31188 		msr     BASEPRI, r3
 230              	@ 0 "" 2
 231              	.LVL22:
 232              		.thumb
 233 0032 38BD     		pop	{r3, r4, r5, pc}
 234              	.LVL23:
 235              	.L19:
 236              	.LBE7:
 237              		.loc 1 80 0
 238 0034 0368     		ldr	r3, [r0, #0]
 239 0036 1B68     		ldr	r3, [r3, #0]
 240 0038 9847     		blx	r3
 241              	.LVL24:
 242 003a 0146     		mov	r1, r0
 243 003c 0028     		cmp	r0, #0
 244 003e EFD1     		bne	.L22
 245              		.loc 1 81 0
 246 0040 0A23     		movs	r3, #10
 247              		.loc 1 82 0
 248 0042 0948     		ldr	r0, .L25+12
 249              		.loc 1 81 0
 250 0044 2B60     		str	r3, [r5, #0]
 251              		.loc 1 82 0
 252 0046 FFF7FEFF 		bl	chEvtBroadcastFlagsI
 253              	.LVL25:
 254 004a E9E7     		b	.L22
 255              	.L20:
 256              		.loc 1 77 0
 257 004c 0A23     		movs	r3, #10
 258 004e 2B60     		str	r3, [r5, #0]
 259 0050 E6E7     		b	.L22
 260              	.L24:
 261              		.loc 1 73 0
 262 0052 0648     		ldr	r0, .L25+16
 263 0054 FFF7FEFF 		bl	chEvtBroadcastFlagsI
 264              	.LVL26:
 265 0058 E2E7     		b	.L22
 266              	.L26:
 267 005a 00BF     		.align	2
 268              	.L25:
 269 005c 00000000 		.word	.LANCHOR4
 270 0060 00000000 		.word	.LANCHOR7
 271 0064 00000000 		.word	tmrfunc
 272 0068 00000000 		.word	.LANCHOR6
 273 006c 00000000 		.word	.LANCHOR5
 274              		.cfi_endproc
 275              	.LFE118:
 276              		.size	tmrfunc, .-tmrfunc
 277              		.section	.text.cmd_test,"ax",%progbits
 278              		.align	2
 279              		.p2align 4,,15
 280              		.thumb
 281              		.thumb_func
 282              		.type	cmd_test, %function
 283              	cmd_test:
ARM GAS  /tmp/ccyAfSkT.s 			page 6


 284              	.LFB125:
 285              		.loc 1 493 0
 286              		.cfi_startproc
 287              		@ args = 0, pretend = 0, frame = 0
 288              		@ frame_needed = 0, uses_anonymous_args = 0
 289              	.LVL27:
 290 0000 10B5     		push	{r4, lr}
 291              	.LCFI3:
 292              		.cfi_def_cfa_offset 8
 293              		.cfi_offset 4, -8
 294              		.cfi_offset 14, -4
 295              		.loc 1 497 0
 296 0002 0029     		cmp	r1, #0
 297              		.loc 1 493 0
 298 0004 82B0     		sub	sp, sp, #8
 299              	.LCFI4:
 300              		.cfi_def_cfa_offset 16
 301              		.loc 1 493 0
 302 0006 0446     		mov	r4, r0
 303              		.loc 1 497 0
 304 0008 05DD     		ble	.L28
 305              		.loc 1 498 0
 306 000a 0E49     		ldr	r1, .L31
 307              	.LVL28:
 308              		.loc 1 508 0
 309 000c 02B0     		add	sp, sp, #8
 310 000e BDE81040 		pop	{r4, lr}
 311              		.loc 1 498 0
 312 0012 FFF7FEBF 		b	chprintf
 313              	.LVL29:
 314              	.L28:
 315              	.LBB10:
 316              	.LBB11:
 317              		.loc 1 501 0
 318 0016 0C4A     		ldr	r2, .L31+4
 319              	.LVL30:
 320 0018 0C4B     		ldr	r3, .L31+8
 321 001a 9269     		ldr	r2, [r2, #24]
 322 001c 4FF4D871 		mov	r1, #432
 323              	.LVL31:
 324 0020 9268     		ldr	r2, [r2, #8]
 325 0022 0090     		str	r0, [sp, #0]
 326 0024 0020     		movs	r0, #0
 327              	.LVL32:
 328 0026 FFF7FEFF 		bl	chThdCreateFromHeap
 329              	.LVL33:
 330              		.loc 1 503 0
 331 002a 20B1     		cbz	r0, .L30
 332              	.LBE11:
 333              	.LBE10:
 334              		.loc 1 508 0
 335 002c 02B0     		add	sp, sp, #8
 336 002e BDE81040 		pop	{r4, lr}
 337              	.LBB14:
 338              	.LBB12:
 339              		.loc 1 507 0
 340 0032 FFF7FEBF 		b	chThdWait
ARM GAS  /tmp/ccyAfSkT.s 			page 7


 341              	.LVL34:
 342              	.L30:
 343              		.loc 1 504 0
 344 0036 0649     		ldr	r1, .L31+12
 345 0038 2046     		mov	r0, r4
 346              	.LVL35:
 347              	.LBE12:
 348              	.LBE14:
 349              		.loc 1 508 0
 350 003a 02B0     		add	sp, sp, #8
 351 003c BDE81040 		pop	{r4, lr}
 352              	.LBB15:
 353              	.LBB13:
 354              		.loc 1 504 0
 355 0040 FFF7FEBF 		b	chprintf
 356              	.LVL36:
 357              	.L32:
 358              		.align	2
 359              	.L31:
 360 0044 08000000 		.word	.LC1
 361 0048 00000000 		.word	rlist
 362 004c 00000000 		.word	TestThread
 363 0050 18000000 		.word	.LC2
 364              	.LBE13:
 365              	.LBE15:
 366              		.cfi_endproc
 367              	.LFE125:
 368              		.size	cmd_test, .-cmd_test
 369 0054 AFF30080 		.section	.text.cmd_threads,"ax",%progbits
 369      AFF30080 
 369      AFF30080 
 370              		.align	2
 371              		.p2align 4,,15
 372              		.thumb
 373              		.thumb_func
 374              		.type	cmd_threads, %function
 375              	cmd_threads:
 376              	.LFB124:
 377              		.loc 1 473 0
 378              		.cfi_startproc
 379              		@ args = 0, pretend = 0, frame = 0
 380              		@ frame_needed = 0, uses_anonymous_args = 0
 381              	.LVL37:
 382 0000 F0B5     		push	{r4, r5, r6, r7, lr}
 383              	.LCFI5:
 384              		.cfi_def_cfa_offset 20
 385              		.cfi_offset 4, -20
 386              		.cfi_offset 5, -16
 387              		.cfi_offset 6, -12
 388              		.cfi_offset 7, -8
 389              		.cfi_offset 14, -4
 390              		.loc 1 478 0
 391 0002 0029     		cmp	r1, #0
 392              		.loc 1 473 0
 393 0004 85B0     		sub	sp, sp, #20
 394              	.LCFI6:
 395              		.cfi_def_cfa_offset 40
ARM GAS  /tmp/ccyAfSkT.s 			page 8


 396              		.loc 1 473 0
 397 0006 0646     		mov	r6, r0
 398              		.loc 1 478 0
 399 0008 05DD     		ble	.L34
 400              		.loc 1 479 0
 401 000a 1349     		ldr	r1, .L37
 402              	.LVL38:
 403              		.loc 1 491 0
 404 000c 05B0     		add	sp, sp, #20
 405 000e BDE8F040 		pop	{r4, r5, r6, r7, lr}
 406              		.loc 1 479 0
 407 0012 FFF7FEBF 		b	chprintf
 408              	.LVL39:
 409              	.L34:
 410              	.LBB18:
 411              	.LBB19:
 412              		.loc 1 482 0
 413 0016 1149     		ldr	r1, .L37+4
 414              	.LVL40:
 415 0018 114F     		ldr	r7, .L37+8
 416 001a FFF7FEFF 		bl	chprintf
 417              	.LVL41:
 418              		.loc 1 483 0
 419 001e FFF7FEFF 		bl	chRegFirstThread
 420              	.LVL42:
 421 0022 0446     		mov	r4, r0
 422              	.LVL43:
 423              	.L35:
 424              		.loc 1 485 0
 425 0024 A268     		ldr	r2, [r4, #8]
 426 0026 E368     		ldr	r3, [r4, #12]
 427 0028 256A     		ldr	r5, [r4, #32]
 428 002a 0092     		str	r2, [sp, #0]
 429              		.loc 1 487 0
 430 002c A27F     		ldrb	r2, [r4, #30]	@ zero_extendqisi2
 431              		.loc 1 485 0
 432 002e 0D49     		ldr	r1, .L37+12
 433              		.loc 1 487 0
 434 0030 013A     		subs	r2, r2, #1
 435              		.loc 1 485 0
 436 0032 0192     		str	r2, [sp, #4]
 437 0034 227F     		ldrb	r2, [r4, #28]	@ zero_extendqisi2
 438 0036 0395     		str	r5, [sp, #12]
 439 0038 57F82250 		ldr	r5, [r7, r2, lsl #2]
 440 003c 3046     		mov	r0, r6
 441              	.LVL44:
 442 003e 2246     		mov	r2, r4
 443 0040 0295     		str	r5, [sp, #8]
 444 0042 FFF7FEFF 		bl	chprintf
 445              	.LVL45:
 446              		.loc 1 489 0
 447 0046 2046     		mov	r0, r4
 448 0048 FFF7FEFF 		bl	chRegNextThread
 449              	.LVL46:
 450              		.loc 1 490 0
 451 004c 0446     		mov	r4, r0
 452 004e 0028     		cmp	r0, #0
ARM GAS  /tmp/ccyAfSkT.s 			page 9


 453 0050 E8D1     		bne	.L35
 454              	.LBE19:
 455              	.LBE18:
 456              		.loc 1 491 0
 457 0052 05B0     		add	sp, sp, #20
 458 0054 F0BD     		pop	{r4, r5, r6, r7, pc}
 459              	.L38:
 460 0056 00BF     		.align	2
 461              	.L37:
 462 0058 28000000 		.word	.LC3
 463 005c 3C000000 		.word	.LC4
 464 0060 00000000 		.word	.LANCHOR8
 465 0064 6C000000 		.word	.LC5
 466              		.cfi_endproc
 467              	.LFE124:
 468              		.size	cmd_threads, .-cmd_threads
 469 0068 AFF30080 		.section	.text.cmd_mem,"ax",%progbits
 469      AFF30080 
 470              		.align	2
 471              		.p2align 4,,15
 472              		.thumb
 473              		.thumb_func
 474              		.type	cmd_mem, %function
 475              	cmd_mem:
 476              	.LFB123:
 477              		.loc 1 459 0
 478              		.cfi_startproc
 479              		@ args = 0, pretend = 0, frame = 8
 480              		@ frame_needed = 0, uses_anonymous_args = 0
 481              	.LVL47:
 482 0000 30B5     		push	{r4, r5, lr}
 483              	.LCFI7:
 484              		.cfi_def_cfa_offset 12
 485              		.cfi_offset 4, -12
 486              		.cfi_offset 5, -8
 487              		.cfi_offset 14, -4
 488              		.loc 1 463 0
 489 0002 0029     		cmp	r1, #0
 490              		.loc 1 459 0
 491 0004 83B0     		sub	sp, sp, #12
 492              	.LCFI8:
 493              		.cfi_def_cfa_offset 24
 494              		.loc 1 459 0
 495 0006 0446     		mov	r4, r0
 496              		.loc 1 463 0
 497 0008 04DD     		ble	.L40
 498              		.loc 1 464 0
 499 000a 0E49     		ldr	r1, .L42
 500              	.LVL48:
 501 000c FFF7FEFF 		bl	chprintf
 502              	.LVL49:
 503              	.L39:
 504              		.loc 1 471 0
 505 0010 03B0     		add	sp, sp, #12
 506 0012 30BD     		pop	{r4, r5, pc}
 507              	.LVL50:
 508              	.L40:
ARM GAS  /tmp/ccyAfSkT.s 			page 10


 509              	.LBB22:
 510              	.LBB23:
 511              		.loc 1 467 0
 512 0014 01A9     		add	r1, sp, #4
 513              	.LVL51:
 514 0016 0020     		movs	r0, #0
 515              	.LVL52:
 516 0018 FFF7FEFF 		bl	chHeapStatus
 517              	.LVL53:
 518 001c 0546     		mov	r5, r0
 519              	.LVL54:
 520              		.loc 1 468 0
 521 001e FFF7FEFF 		bl	chCoreStatus
 522              	.LVL55:
 523 0022 0949     		ldr	r1, .L42+4
 524 0024 0246     		mov	r2, r0
 525 0026 2046     		mov	r0, r4
 526 0028 FFF7FEFF 		bl	chprintf
 527              	.LVL56:
 528              		.loc 1 469 0
 529 002c 2046     		mov	r0, r4
 530 002e 2A46     		mov	r2, r5
 531 0030 0649     		ldr	r1, .L42+8
 532 0032 FFF7FEFF 		bl	chprintf
 533              	.LVL57:
 534              		.loc 1 470 0
 535 0036 2046     		mov	r0, r4
 536 0038 0549     		ldr	r1, .L42+12
 537              	.LVL58:
 538 003a 019A     		ldr	r2, [sp, #4]
 539 003c FFF7FEFF 		bl	chprintf
 540              	.LVL59:
 541 0040 E6E7     		b	.L39
 542              	.L43:
 543 0042 00BF     		.align	2
 544              	.L42:
 545 0044 8C000000 		.word	.LC6
 546 0048 9C000000 		.word	.LC7
 547 004c BC000000 		.word	.LC8
 548 0050 D4000000 		.word	.LC9
 549              	.LBE23:
 550              	.LBE22:
 551              		.cfi_endproc
 552              	.LFE123:
 553              		.size	cmd_mem, .-cmd_mem
 554 0054 AFF30080 		.section	.text.InsertHandler,"ax",%progbits
 554      AFF30080 
 554      AFF30080 
 555              		.align	2
 556              		.p2align 4,,15
 557              		.thumb
 558              		.thumb_func
 559              		.type	InsertHandler, %function
 560              	InsertHandler:
 561              	.LFB127:
 562              		.loc 1 557 0
 563              		.cfi_startproc
ARM GAS  /tmp/ccyAfSkT.s 			page 11


 564              		@ args = 0, pretend = 0, frame = 0
 565              		@ frame_needed = 0, uses_anonymous_args = 0
 566              	.LVL60:
 567 0000 08B5     		push	{r3, lr}
 568              	.LCFI9:
 569              		.cfi_def_cfa_offset 8
 570              		.cfi_offset 3, -8
 571              		.cfi_offset 14, -4
 572              		.loc 1 564 0
 573 0002 0948     		ldr	r0, .L49
 574              	.LVL61:
 575 0004 FFF7FEFF 		bl	sdcConnect
 576              	.LVL62:
 577 0008 00B1     		cbz	r0, .L47
 578 000a 08BD     		pop	{r3, pc}
 579              	.L47:
 580              	.LBB26:
 581              	.LBB27:
 582              		.loc 1 567 0
 583 000c 0749     		ldr	r1, .L49+4
 584 000e FFF7FEFF 		bl	f_mount
 585              	.LVL63:
 586              		.loc 1 568 0
 587 0012 18B9     		cbnz	r0, .L48
 588              		.loc 1 572 0
 589 0014 064B     		ldr	r3, .L49+8
 590 0016 0122     		movs	r2, #1
 591 0018 1A60     		str	r2, [r3, #0]
 592 001a 08BD     		pop	{r3, pc}
 593              	.L48:
 594              		.loc 1 569 0
 595 001c 0248     		ldr	r0, .L49
 596              	.LVL64:
 597              	.LBE27:
 598              	.LBE26:
 599              		.loc 1 573 0
 600 001e BDE80840 		pop	{r3, lr}
 601              	.LBB29:
 602              	.LBB28:
 603              		.loc 1 569 0
 604 0022 FFF7FEBF 		b	sdcDisconnect
 605              	.LVL65:
 606              	.L50:
 607 0026 00BF     		.align	2
 608              	.L49:
 609 0028 00000000 		.word	SDCD1
 610 002c 00000000 		.word	.LANCHOR9
 611 0030 00000000 		.word	.LANCHOR3
 612              	.LBE28:
 613              	.LBE29:
 614              		.cfi_endproc
 615              	.LFE127:
 616              		.size	InsertHandler, .-InsertHandler
 617 0034 AFF30080 		.section	.text.usb_event,"ax",%progbits
 617      AFF30080 
 617      AFF30080 
 618              		.align	2
ARM GAS  /tmp/ccyAfSkT.s 			page 12


 619              		.p2align 4,,15
 620              		.thumb
 621              		.thumb_func
 622              		.type	usb_event, %function
 623              	usb_event:
 624              	.LFB122:
 625              		.loc 1 404 0
 626              		.cfi_startproc
 627              		@ args = 0, pretend = 0, frame = 0
 628              		@ frame_needed = 0, uses_anonymous_args = 0
 629              	.LVL66:
 630              		.loc 1 406 0
 631 0000 0229     		cmp	r1, #2
 632              		.loc 1 404 0
 633 0002 38B5     		push	{r3, r4, r5, lr}
 634              	.LCFI10:
 635              		.cfi_def_cfa_offset 16
 636              		.cfi_offset 3, -16
 637              		.cfi_offset 4, -12
 638              		.cfi_offset 5, -8
 639              		.cfi_offset 14, -4
 640              		.loc 1 404 0
 641 0004 0C46     		mov	r4, r1
 642 0006 0546     		mov	r5, r0
 643              		.loc 1 406 0
 644 0008 11D1     		bne	.L51
 645              	.LVL67:
 646              	.LBB34:
 647              	.LBB35:
 648              	.LBB36:
 649              		.loc 1 412 0
 650 000a 2023     		movs	r3, #32
 651              	.LVL68:
 652              	@ 412 "main.c" 1
 653 000c 83F31188 		msr     BASEPRI, r3
 654              	@ 0 "" 2
 655              	.LVL69:
 656              		.thumb
 657              	.LBE36:
 658              		.loc 1 417 0
 659 0010 0121     		movs	r1, #1
 660              	.LVL70:
 661 0012 074A     		ldr	r2, .L54
 662 0014 FFF7FEFF 		bl	usbInitEndpointI
 663              	.LVL71:
 664              		.loc 1 418 0
 665 0018 2846     		mov	r0, r5
 666 001a 2146     		mov	r1, r4
 667 001c 054A     		ldr	r2, .L54+4
 668 001e FFF7FEFF 		bl	usbInitEndpointI
 669              	.LVL72:
 670              		.loc 1 421 0
 671 0022 2846     		mov	r0, r5
 672 0024 FFF7FEFF 		bl	sduConfigureHookI
 673              	.LVL73:
 674              	.LBB37:
 675              		.loc 1 423 0
ARM GAS  /tmp/ccyAfSkT.s 			page 13


 676 0028 0023     		movs	r3, #0
 677              	.LVL74:
 678              	@ 423 "main.c" 1
 679 002a 83F31188 		msr     BASEPRI, r3
 680              	@ 0 "" 2
 681              	.LVL75:
 682              		.thumb
 683              	.L51:
 684 002e 38BD     		pop	{r3, r4, r5, pc}
 685              	.L55:
 686              		.align	2
 687              	.L54:
 688 0030 00000000 		.word	.LANCHOR10
 689 0034 00000000 		.word	.LANCHOR11
 690              	.LBE37:
 691              	.LBE35:
 692              	.LBE34:
 693              		.cfi_endproc
 694              	.LFE122:
 695              		.size	usb_event, .-usb_event
 696 0038 AFF30080 		.section	.text.scan_files.constprop.5,"ax",%progbits
 696      AFF30080 
 697              		.align	2
 698              		.p2align 4,,15
 699              		.thumb
 700              		.thumb_func
 701              		.type	scan_files.constprop.5, %function
 702              	scan_files.constprop.5:
 703              	.LFB137:
 704              		.loc 1 121 0
 705              		.cfi_startproc
 706              		@ args = 0, pretend = 0, frame = 72
 707              		@ frame_needed = 0, uses_anonymous_args = 0
 708              	.LVL76:
 709 0000 F0B5     		push	{r4, r5, r6, r7, lr}
 710              	.LCFI11:
 711              		.cfi_def_cfa_offset 20
 712              		.cfi_offset 4, -20
 713              		.cfi_offset 5, -16
 714              		.cfi_offset 6, -12
 715              		.cfi_offset 7, -8
 716              		.cfi_offset 14, -4
 717              		.loc 1 534 0
 718 0002 1E4C     		ldr	r4, .L72
 719              		.loc 1 121 0
 720 0004 93B0     		sub	sp, sp, #76
 721              	.LCFI12:
 722              		.cfi_def_cfa_offset 96
 723              		.loc 1 129 0
 724 0006 0023     		movs	r3, #0
 725              		.loc 1 121 0
 726 0008 0546     		mov	r5, r0
 727              		.loc 1 132 0
 728 000a 2146     		mov	r1, r4
 729 000c 09A8     		add	r0, sp, #36
 730              	.LVL77:
 731              		.loc 1 129 0
ARM GAS  /tmp/ccyAfSkT.s 			page 14


 732 000e 0793     		str	r3, [sp, #28]
 733              		.loc 1 130 0
 734 0010 0893     		str	r3, [sp, #32]
 735              		.loc 1 132 0
 736 0012 FFF7FEFF 		bl	f_opendir
 737              	.LVL78:
 738              		.loc 1 133 0
 739 0016 58BB     		cbnz	r0, .L57
 740              		.loc 1 134 0
 741 0018 2046     		mov	r0, r4
 742              	.LVL79:
 743 001a FFF7FEFF 		bl	strlen
 744              	.LVL80:
 745              		.loc 1 143 0
 746 001e 461C     		adds	r6, r0, #1
 747 0020 2718     		adds	r7, r4, r0
 748              		.loc 1 144 0
 749 0022 A619     		adds	r6, r4, r6
 750              	.LVL81:
 751              	.L70:
 752              		.loc 1 136 0
 753 0024 01A9     		add	r1, sp, #4
 754 0026 09A8     		add	r0, sp, #36
 755 0028 FFF7FEFF 		bl	f_readdir
 756              	.LVL82:
 757              		.loc 1 137 0
 758 002c 00BB     		cbnz	r0, .L57
 759              	.L71:
 760 002e 9DF80D30 		ldrb	r3, [sp, #13]	@ zero_extendqisi2
 761 0032 EBB1     		cbz	r3, .L57
 762              		.loc 1 139 0
 763 0034 2E2B     		cmp	r3, #46
 764 0036 F5D0     		beq	.L70
 765              		.loc 1 142 0
 766 0038 9DF80C40 		ldrb	r4, [sp, #12]	@ zero_extendqisi2
 767              		.loc 1 151 0
 768 003c 1049     		ldr	r1, .L72+4
 769 003e 0F4A     		ldr	r2, .L72
 770              		.loc 1 142 0
 771 0040 04F01004 		and	r4, r4, #16
 772 0044 E4B2     		uxtb	r4, r4
 773              		.loc 1 144 0
 774 0046 3046     		mov	r0, r6
 775              	.LVL83:
 776              		.loc 1 151 0
 777 0048 0DF10D03 		add	r3, sp, #13
 778              	.LVL84:
 779              		.loc 1 142 0
 780 004c 94B1     		cbz	r4, .L60
 781              		.loc 1 144 0
 782 004e 1946     		mov	r1, r3
 783              		.loc 1 143 0
 784 0050 2F23     		movs	r3, #47
 785              	.LVL85:
 786 0052 3B70     		strb	r3, [r7, #0]
 787              		.loc 1 144 0
 788 0054 FFF7FEFF 		bl	strcpy
ARM GAS  /tmp/ccyAfSkT.s 			page 15


 789              	.LVL86:
 790              		.loc 1 145 0
 791 0058 2846     		mov	r0, r5
 792 005a FFF7D1FF 		bl	scan_files.constprop.5
 793              	.LVL87:
 794 005e 0346     		mov	r3, r0
 795              	.LVL88:
 796              		.loc 1 146 0
 797 0060 33B9     		cbnz	r3, .L57
 798              		.loc 1 148 0
 799 0062 3B70     		strb	r3, [r7, #0]
 800              		.loc 1 136 0
 801 0064 01A9     		add	r1, sp, #4
 802 0066 09A8     		add	r0, sp, #36
 803              	.LVL89:
 804 0068 FFF7FEFF 		bl	f_readdir
 805              	.LVL90:
 806              		.loc 1 137 0
 807 006c 0028     		cmp	r0, #0
 808 006e DED0     		beq	.L71
 809              	.LVL91:
 810              	.L57:
 811              		.loc 1 156 0
 812 0070 13B0     		add	sp, sp, #76
 813 0072 F0BD     		pop	{r4, r5, r6, r7, pc}
 814              	.LVL92:
 815              	.L60:
 816              		.loc 1 151 0
 817 0074 2846     		mov	r0, r5
 818 0076 FFF7FEFF 		bl	chprintf
 819              	.LVL93:
 820 007a D3E7     		b	.L70
 821              	.L73:
 822              		.align	2
 823              	.L72:
 824 007c 00000000 		.word	.LANCHOR12
 825 0080 F4000000 		.word	.LC10
 826              		.cfi_endproc
 827              	.LFE137:
 828              		.size	scan_files.constprop.5, .-scan_files.constprop.5
 829 0084 AFF30080 		.section	.text.cmd_tree,"ax",%progbits
 829      AFF30080 
 829      AFF30080 
 830              		.align	2
 831              		.p2align 4,,15
 832              		.thumb
 833              		.thumb_func
 834              		.type	cmd_tree, %function
 835              	cmd_tree:
 836              	.LFB126:
 837              		.loc 1 510 0
 838              		.cfi_startproc
 839              		@ args = 0, pretend = 0, frame = 8
 840              		@ frame_needed = 0, uses_anonymous_args = 0
 841              	.LVL94:
 842 0000 70B5     		push	{r4, r5, r6, lr}
 843              	.LCFI13:
ARM GAS  /tmp/ccyAfSkT.s 			page 16


 844              		.cfi_def_cfa_offset 16
 845              		.cfi_offset 4, -16
 846              		.cfi_offset 5, -12
 847              		.cfi_offset 6, -8
 848              		.cfi_offset 14, -4
 849              		.loc 1 516 0
 850 0002 0029     		cmp	r1, #0
 851              		.loc 1 510 0
 852 0004 84B0     		sub	sp, sp, #16
 853              	.LCFI14:
 854              		.cfi_def_cfa_offset 32
 855              		.loc 1 510 0
 856 0006 0446     		mov	r4, r0
 857              		.loc 1 516 0
 858 0008 04DD     		ble	.L75
 859              		.loc 1 517 0
 860 000a 1449     		ldr	r1, .L80
 861              	.LVL95:
 862 000c FFF7FEFF 		bl	chprintf
 863              	.LVL96:
 864              	.L74:
 865              		.loc 1 535 0
 866 0010 04B0     		add	sp, sp, #16
 867 0012 70BD     		pop	{r4, r5, r6, pc}
 868              	.LVL97:
 869              	.L75:
 870              		.loc 1 520 0
 871 0014 124B     		ldr	r3, .L80+4
 872 0016 1B68     		ldr	r3, [r3, #0]
 873 0018 1BB9     		cbnz	r3, .L77
 874              		.loc 1 521 0
 875 001a 1249     		ldr	r1, .L80+8
 876              	.LVL98:
 877 001c FFF7FEFF 		bl	chprintf
 878              	.LVL99:
 879 0020 F6E7     		b	.L74
 880              	.LVL100:
 881              	.L77:
 882              		.loc 1 524 0
 883 0022 1148     		ldr	r0, .L80+12
 884              	.LVL101:
 885 0024 02A9     		add	r1, sp, #8
 886              	.LVL102:
 887 0026 03AA     		add	r2, sp, #12
 888              	.LVL103:
 889 0028 FFF7FEFF 		bl	f_getfree
 890              	.LVL104:
 891              		.loc 1 525 0
 892 002c 0546     		mov	r5, r0
 893 002e 20B1     		cbz	r0, .L78
 894              		.loc 1 526 0
 895 0030 2046     		mov	r0, r4
 896              	.LVL105:
 897 0032 0E49     		ldr	r1, .L80+16
 898 0034 FFF7FEFF 		bl	chprintf
 899              	.LVL106:
 900 0038 EAE7     		b	.L74
ARM GAS  /tmp/ccyAfSkT.s 			page 17


 901              	.LVL107:
 902              	.L78:
 903              		.loc 1 532 0
 904 003a 0D4B     		ldr	r3, .L80+20
 905              	.LVL108:
 906 003c 029A     		ldr	r2, [sp, #8]
 907 003e 9B78     		ldrb	r3, [r3, #2]	@ zero_extendqisi2
 908              		.loc 1 529 0
 909 0040 0C49     		ldr	r1, .L80+24
 910              		.loc 1 532 0
 911 0042 5602     		lsls	r6, r2, #9
 912              		.loc 1 529 0
 913 0044 03FB06F6 		mul	r6, r3, r6
 914 0048 2046     		mov	r0, r4
 915              	.LVL109:
 916 004a 0096     		str	r6, [sp, #0]
 917 004c FFF7FEFF 		bl	chprintf
 918              	.LVL110:
 919              		.loc 1 533 0
 920 0050 094B     		ldr	r3, .L80+28
 921              		.loc 1 534 0
 922 0052 2046     		mov	r0, r4
 923              		.loc 1 533 0
 924 0054 1D70     		strb	r5, [r3, #0]
 925              		.loc 1 534 0
 926 0056 FFF7FEFF 		bl	scan_files.constprop.5
 927              	.LVL111:
 928 005a D9E7     		b	.L74
 929              	.L81:
 930              		.align	2
 931              	.L80:
 932 005c FC000000 		.word	.LC11
 933 0060 00000000 		.word	.LANCHOR3
 934 0064 0C010000 		.word	.LC12
 935 0068 28010000 		.word	.LC13
 936 006c 2C010000 		.word	.LC14
 937 0070 00000000 		.word	.LANCHOR9
 938 0074 48010000 		.word	.LC15
 939 0078 00000000 		.word	.LANCHOR12
 940              		.cfi_endproc
 941              	.LFE126:
 942              		.size	cmd_tree, .-cmd_tree
 943 007c AFF30080 		.section	.text.startup.main,"ax",%progbits
 944              		.align	2
 945              		.p2align 4,,15
 946              		.global	main
 947              		.thumb
 948              		.thumb_func
 949              		.type	main, %function
 950              	main:
 951              	.LFB130:
 952              		.loc 1 602 0
 953              		.cfi_startproc
 954              		@ args = 0, pretend = 0, frame = 32
 955              		@ frame_needed = 0, uses_anonymous_args = 0
 956 0000 2DE9F041 		push	{r4, r5, r6, r7, r8, lr}
 957              	.LCFI15:
ARM GAS  /tmp/ccyAfSkT.s 			page 18


 958              		.cfi_def_cfa_offset 24
 959              		.cfi_offset 4, -24
 960              		.cfi_offset 5, -20
 961              		.cfi_offset 6, -16
 962              		.cfi_offset 7, -12
 963              		.cfi_offset 8, -8
 964              		.cfi_offset 14, -4
 965 0004 8AB0     		sub	sp, sp, #40
 966              	.LCFI16:
 967              		.cfi_def_cfa_offset 64
 968              		.loc 1 617 0
 969 0006 FFF7FEFF 		bl	halInit
 970              	.LVL112:
 971              		.loc 1 631 0
 972 000a 444C     		ldr	r4, .L87
 973              	.LBB42:
 974              	.LBB43:
 975              		.loc 1 98 0
 976 000c DFF85881 		ldr	r8, .L87+76
 977              		.loc 1 99 0
 978 0010 434D     		ldr	r5, .L87+4
 979              	.LBE43:
 980              	.LBE42:
 981              		.loc 1 618 0
 982 0012 FFF7FEFF 		bl	chSysInit
 983              	.LVL113:
 984              		.loc 1 623 0
 985 0016 4348     		ldr	r0, .L87+8
 986 0018 FFF7FEFF 		bl	sduObjectInit
 987              	.LVL114:
 988              		.loc 1 624 0
 989 001c 4249     		ldr	r1, .L87+12
 990 001e 4148     		ldr	r0, .L87+8
 991 0020 FFF7FEFF 		bl	sduStart
 992              	.LVL115:
 993              		.loc 1 631 0
 994 0024 E36B     		ldr	r3, [r4, #60]
 995 0026 9A6B     		ldr	r2, [r3, #56]
 996 0028 22F40022 		bic	r2, r2, #524288
 997 002c 9A63     		str	r2, [r3, #56]
 998              		.loc 1 632 0
 999 002e 4FF47A70 		mov	r0, #1000
 1000 0032 FFF7FEFF 		bl	chThdSleep
 1001              	.LVL116:
 1002              		.loc 1 633 0
 1003 0036 2046     		mov	r0, r4
 1004 0038 3C49     		ldr	r1, .L87+16
 1005 003a FFF7FEFF 		bl	usbStart
 1006              	.LVL117:
 1007              		.loc 1 634 0
 1008 003e E36B     		ldr	r3, [r4, #60]
 1009 0040 9A6B     		ldr	r2, [r3, #56]
 1010 0042 42F40022 		orr	r2, r2, #524288
 1011 0046 9A63     		str	r2, [r3, #56]
 1012              		.loc 1 639 0
 1013 0048 FFF7FEFF 		bl	shellInit
 1014              	.LVL118:
ARM GAS  /tmp/ccyAfSkT.s 			page 19


 1015              		.loc 1 645 0
 1016 004c 0021     		movs	r1, #0
 1017 004e 3848     		ldr	r0, .L87+20
 1018 0050 FFF7FEFF 		bl	sdStart
 1019              	.LVL119:
 1020              		.loc 1 646 0
 1021 0054 3748     		ldr	r0, .L87+24
 1022 0056 0021     		movs	r1, #0
 1023 0058 FFF7FEFF 		bl	sdcStart
 1024              	.LVL120:
 1025              	.LBB47:
 1026              	.LBB46:
 1027              		.loc 1 98 0
 1028 005c C8F80080 		str	r8, [r8, #0]
 1029              		.loc 1 99 0
 1030 0060 2D60     		str	r5, [r5, #0]
 1031              	.LBB44:
 1032              		.loc 1 100 0
 1033 0062 2023     		movs	r3, #32
 1034              	.LVL121:
 1035              	@ 100 "main.c" 1
 1036 0064 83F31188 		msr     BASEPRI, r3
 1037              	@ 0 "" 2
 1038              	.LVL122:
 1039              		.thumb
 1040              	.LBE44:
 1041              		.loc 1 101 0
 1042 0068 334C     		ldr	r4, .L87+28
 1043              		.loc 1 102 0
 1044 006a 3448     		ldr	r0, .L87+32
 1045 006c 344A     		ldr	r2, .L87+36
 1046 006e 314B     		ldr	r3, .L87+24
 1047              	.LVL123:
 1048              		.loc 1 101 0
 1049 0070 0A21     		movs	r1, #10
 1050 0072 2160     		str	r1, [r4, #0]
 1051              		.loc 1 102 0
 1052 0074 FFF7FEFF 		bl	chVTSetI
 1053              	.LVL124:
 1054              	.LBB45:
 1055              		.loc 1 103 0
 1056 0078 0023     		movs	r3, #0
 1057              	.LVL125:
 1058              	@ 103 "main.c" 1
 1059 007a 83F31188 		msr     BASEPRI, r3
 1060              	@ 0 "" 2
 1061              	.LVL126:
 1062              		.thumb
 1063              	.LBE45:
 1064              	.LBE46:
 1065              	.LBE47:
 1066              		.loc 1 656 0
 1067 007e 1F46     		mov	r7, r3
 1068 0080 4FF49871 		mov	r1, #304
 1069 0084 4022     		movs	r2, #64
 1070 0086 2F4B     		ldr	r3, .L87+40
 1071              	.LVL127:
ARM GAS  /tmp/ccyAfSkT.s 			page 20


 1072 0088 0097     		str	r7, [sp, #0]
 1073 008a 2F48     		ldr	r0, .L87+44
 1074 008c 2F4C     		ldr	r4, .L87+48
 1075 008e 254E     		ldr	r6, .L87+8
 1076 0090 FFF7FEFF 		bl	chThdCreateStatic
 1077              	.LVL128:
 1078              		.loc 1 661 0
 1079 0094 4FF40071 		mov	r1, #512
 1080 0098 4222     		movs	r2, #66
 1081 009a 2D4B     		ldr	r3, .L87+52
 1082 009c 0097     		str	r7, [sp, #0]
 1083 009e 2D48     		ldr	r0, .L87+56
 1084 00a0 FFF7FEFF 		bl	chThdCreateStatic
 1085              	.LVL129:
 1086              		.loc 1 667 0
 1087 00a4 2C4B     		ldr	r3, .L87+60
 1088 00a6 0097     		str	r7, [sp, #0]
 1089 00a8 4FF49661 		mov	r1, #1200
 1090 00ac 4122     		movs	r2, #65
 1091 00ae 2B48     		ldr	r0, .L87+64
 1092 00b0 FFF7FEFF 		bl	chThdCreateStatic
 1093              	.LVL130:
 1094              		.loc 1 674 0
 1095 00b4 4046     		mov	r0, r8
 1096 00b6 02A9     		add	r1, sp, #8
 1097 00b8 0122     		movs	r2, #1
 1098 00ba FFF7FEFF 		bl	chEvtRegisterMask
 1099              	.LVL131:
 1100              		.loc 1 675 0
 1101 00be 2846     		mov	r0, r5
 1102 00c0 06A9     		add	r1, sp, #24
 1103 00c2 0222     		movs	r2, #2
 1104              		.loc 1 683 0
 1105 00c4 3D46     		mov	r5, r7
 1106              		.loc 1 675 0
 1107 00c6 FFF7FEFF 		bl	chEvtRegisterMask
 1108              	.LVL132:
 1109              		.loc 1 677 0
 1110 00ca A046     		mov	r8, r4
 1111              		.loc 1 683 0
 1112 00cc C4F20205 		movt	r5, 16386
 1113 00d0 0DE0     		b	.L85
 1114              	.L83:
 1115              		.loc 1 679 0
 1116 00d2 037F     		ldrb	r3, [r0, #28]	@ zero_extendqisi2
 1117 00d4 0E2B     		cmp	r3, #14
 1118 00d6 1CD0     		beq	.L86
 1119              	.L84:
 1120              		.loc 1 685 0
 1121 00d8 4FF4FA71 		mov	r1, #500
 1122 00dc 4FF0FF30 		mov	r0, #-1
 1123              		.loc 1 683 0
 1124 00e0 2B69     		ldr	r3, [r5, #16]
 1125              		.loc 1 685 0
 1126 00e2 FFF7FEFF 		bl	chEvtWaitOneTimeout
 1127              	.LVL133:
 1128 00e6 0146     		mov	r1, r0
ARM GAS  /tmp/ccyAfSkT.s 			page 21


 1129 00e8 1D48     		ldr	r0, .L87+68
 1130 00ea FFF7FEFF 		bl	chEvtDispatch
 1131              	.LVL134:
 1132              	.L85:
 1133              		.loc 1 677 0
 1134 00ee 2068     		ldr	r0, [r4, #0]
 1135 00f0 0028     		cmp	r0, #0
 1136 00f2 EED1     		bne	.L83
 1137              		.loc 1 677 0 is_stmt 0 discriminator 1
 1138 00f4 D6F85432 		ldr	r3, [r6, #596]
 1139 00f8 1B68     		ldr	r3, [r3, #0]
 1140 00fa 1B78     		ldrb	r3, [r3, #0]	@ zero_extendqisi2
 1141 00fc 042B     		cmp	r3, #4
 1142 00fe E8D1     		bne	.L83
 1143              		.loc 1 678 0 is_stmt 1
 1144 0100 1848     		ldr	r0, .L87+72
 1145 0102 4FF40B61 		mov	r1, #2224
 1146 0106 4022     		movs	r2, #64
 1147 0108 FFF7FEFF 		bl	shellCreate
 1148              	.LVL135:
 1149 010c C8F80000 		str	r0, [r8, #0]
 1150 0110 E2E7     		b	.L84
 1151              	.L86:
 1152              		.loc 1 680 0
 1153 0112 FFF7FEFF 		bl	chThdRelease
 1154              	.LVL136:
 1155              		.loc 1 681 0
 1156 0116 2760     		str	r7, [r4, #0]
 1157 0118 DEE7     		b	.L84
 1158              	.L88:
 1159 011a 00BF     		.align	2
 1160              	.L87:
 1161 011c 00000000 		.word	USBD1
 1162 0120 00000000 		.word	.LANCHOR6
 1163 0124 00000000 		.word	.LANCHOR13
 1164 0128 00000000 		.word	.LANCHOR14
 1165 012c 00000000 		.word	.LANCHOR15
 1166 0130 00000000 		.word	SD6
 1167 0134 00000000 		.word	SDCD1
 1168 0138 00000000 		.word	.LANCHOR4
 1169 013c 00000000 		.word	.LANCHOR7
 1170 0140 00000000 		.word	tmrfunc
 1171 0144 00000000 		.word	Thread1
 1172 0148 00000000 		.word	.LANCHOR16
 1173 014c 00000000 		.word	.LANCHOR17
 1174 0150 00000000 		.word	lwip_thread
 1175 0154 00000000 		.word	wa_lwip_thread
 1176 0158 00000000 		.word	http_server
 1177 015c 00000000 		.word	wa_http_server
 1178 0160 00000000 		.word	.LANCHOR19
 1179 0164 00000000 		.word	.LANCHOR18
 1180 0168 00000000 		.word	.LANCHOR5
 1181              		.cfi_endproc
 1182              	.LFE130:
 1183              		.size	main, .-main
 1184 016c AFF30080 		.section	.rodata.vcom_configuration_descriptor_data,"a",%progbits
 1185              		.align	2
ARM GAS  /tmp/ccyAfSkT.s 			page 22


 1186              		.type	vcom_configuration_descriptor_data, %object
 1187              		.size	vcom_configuration_descriptor_data, 67
 1188              	vcom_configuration_descriptor_data:
 1189 0000 09       		.byte	9
 1190 0001 02       		.byte	2
 1191 0002 43       		.byte	67
 1192 0003 00       		.byte	0
 1193 0004 02       		.byte	2
 1194 0005 01       		.byte	1
 1195 0006 00       		.byte	0
 1196 0007 C0       		.byte	-64
 1197 0008 32       		.byte	50
 1198 0009 09       		.byte	9
 1199 000a 04       		.byte	4
 1200 000b 00       		.byte	0
 1201 000c 00       		.byte	0
 1202 000d 01       		.byte	1
 1203 000e 02       		.byte	2
 1204 000f 02       		.byte	2
 1205 0010 01       		.byte	1
 1206 0011 00       		.byte	0
 1207 0012 05       		.byte	5
 1208 0013 24       		.byte	36
 1209 0014 00       		.byte	0
 1210 0015 10       		.byte	16
 1211 0016 01       		.byte	1
 1212 0017 05       		.byte	5
 1213 0018 24       		.byte	36
 1214 0019 01       		.byte	1
 1215 001a 00       		.byte	0
 1216 001b 01       		.byte	1
 1217 001c 04       		.byte	4
 1218 001d 24       		.byte	36
 1219 001e 02       		.byte	2
 1220 001f 02       		.byte	2
 1221 0020 05       		.byte	5
 1222 0021 24       		.byte	36
 1223 0022 06       		.byte	6
 1224 0023 00       		.byte	0
 1225 0024 01       		.byte	1
 1226 0025 07       		.byte	7
 1227 0026 05       		.byte	5
 1228 0027 82       		.byte	-126
 1229 0028 03       		.byte	3
 1230 0029 08       		.byte	8
 1231 002a 00       		.byte	0
 1232 002b FF       		.byte	-1
 1233 002c 09       		.byte	9
 1234 002d 04       		.byte	4
 1235 002e 01       		.byte	1
 1236 002f 00       		.byte	0
 1237 0030 02       		.byte	2
 1238 0031 0A       		.byte	10
 1239 0032 00       		.byte	0
 1240 0033 00       		.byte	0
 1241 0034 00       		.byte	0
 1242 0035 07       		.byte	7
ARM GAS  /tmp/ccyAfSkT.s 			page 23


 1243 0036 05       		.byte	5
 1244 0037 01       		.byte	1
 1245 0038 02       		.byte	2
 1246 0039 40       		.byte	64
 1247 003a 00       		.byte	0
 1248 003b 00       		.byte	0
 1249 003c 07       		.byte	7
 1250 003d 05       		.byte	5
 1251 003e 81       		.byte	-127
 1252 003f 02       		.byte	2
 1253 0040 40       		.byte	64
 1254 0041 00       		.byte	0
 1255 0042 00       		.byte	0
 1256 0043 00       		.section	.rodata.usbcfg,"a",%progbits
 1257              		.align	2
 1258              		.set	.LANCHOR15,. + 0
 1259              		.type	usbcfg, %object
 1260              		.size	usbcfg, 16
 1261              	usbcfg:
 1262 0000 00000000 		.word	usb_event
 1263 0004 00000000 		.word	get_descriptor
 1264 0008 00000000 		.word	sduRequestsHook
 1265 000c 00000000 		.word	0
 1266              		.section	.rodata.ep2config,"a",%progbits
 1267              		.align	2
 1268              		.set	.LANCHOR11,. + 0
 1269              		.type	ep2config, %object
 1270              		.size	ep2config, 36
 1271              	ep2config:
 1272 0000 03000000 		.word	3
 1273 0004 00000000 		.word	0
 1274 0008 00000000 		.word	sduInterruptTransmitted
 1275 000c 00000000 		.word	0
 1276 0010 1000     		.short	16
 1277 0012 0000     		.short	0
 1278 0014 00000000 		.word	ep2instate
 1279 0018 00000000 		.word	0
 1280 001c 0100     		.short	1
 1281 001e 0000     		.space	2
 1282 0020 00000000 		.word	0
 1283              		.section	.rodata.vcom_string0,"a",%progbits
 1284              		.align	2
 1285              		.type	vcom_string0, %object
 1286              		.size	vcom_string0, 4
 1287              	vcom_string0:
 1288 0000 04       		.byte	4
 1289 0001 03       		.byte	3
 1290 0002 09       		.byte	9
 1291 0003 04       		.byte	4
 1292              		.section	.rodata.vcom_string3,"a",%progbits
 1293              		.align	2
 1294              		.type	vcom_string3, %object
 1295              		.size	vcom_string3, 8
 1296              	vcom_string3:
 1297 0000 08       		.byte	8
 1298 0001 03       		.byte	3
 1299 0002 32       		.byte	50
ARM GAS  /tmp/ccyAfSkT.s 			page 24


 1300 0003 00       		.byte	0
 1301 0004 35       		.byte	53
 1302 0005 00       		.byte	0
 1303 0006 31       		.byte	49
 1304 0007 00       		.byte	0
 1305              		.section	.rodata.vcom_string1,"a",%progbits
 1306              		.align	2
 1307              		.type	vcom_string1, %object
 1308              		.size	vcom_string1, 38
 1309              	vcom_string1:
 1310 0000 26       		.byte	38
 1311 0001 03       		.byte	3
 1312 0002 53       		.byte	83
 1313 0003 00       		.byte	0
 1314 0004 54       		.byte	84
 1315 0005 00       		.byte	0
 1316 0006 4D       		.byte	77
 1317 0007 00       		.byte	0
 1318 0008 69       		.byte	105
 1319 0009 00       		.byte	0
 1320 000a 63       		.byte	99
 1321 000b 00       		.byte	0
 1322 000c 72       		.byte	114
 1323 000d 00       		.byte	0
 1324 000e 6F       		.byte	111
 1325 000f 00       		.byte	0
 1326 0010 65       		.byte	101
 1327 0011 00       		.byte	0
 1328 0012 6C       		.byte	108
 1329 0013 00       		.byte	0
 1330 0014 65       		.byte	101
 1331 0015 00       		.byte	0
 1332 0016 63       		.byte	99
 1333 0017 00       		.byte	0
 1334 0018 74       		.byte	116
 1335 0019 00       		.byte	0
 1336 001a 72       		.byte	114
 1337 001b 00       		.byte	0
 1338 001c 6F       		.byte	111
 1339 001d 00       		.byte	0
 1340 001e 6E       		.byte	110
 1341 001f 00       		.byte	0
 1342 0020 69       		.byte	105
 1343 0021 00       		.byte	0
 1344 0022 63       		.byte	99
 1345 0023 00       		.byte	0
 1346 0024 73       		.byte	115
 1347 0025 00       		.byte	0
 1348 0026 0000     		.section	.rodata.vcom_strings,"a",%progbits
 1349              		.align	2
 1350              		.set	.LANCHOR2,. + 0
 1351              		.type	vcom_strings, %object
 1352              		.size	vcom_strings, 32
 1353              	vcom_strings:
 1354 0000 04000000 		.word	4
 1355 0004 00000000 		.word	vcom_string0
 1356 0008 26000000 		.word	38
ARM GAS  /tmp/ccyAfSkT.s 			page 25


 1357 000c 00000000 		.word	vcom_string1
 1358 0010 38000000 		.word	56
 1359 0014 00000000 		.word	vcom_string2
 1360 0018 08000000 		.word	8
 1361 001c 00000000 		.word	vcom_string3
 1362              		.section	.bss.fs_ready,"aw",%nobits
 1363              		.align	2
 1364              		.set	.LANCHOR3,. + 0
 1365              		.type	fs_ready, %object
 1366              		.size	fs_ready, 4
 1367              	fs_ready:
 1368 0000 00000000 		.space	4
 1369              		.section	.rodata.vcom_device_descriptor,"a",%progbits
 1370              		.align	2
 1371              		.set	.LANCHOR0,. + 0
 1372              		.type	vcom_device_descriptor, %object
 1373              		.size	vcom_device_descriptor, 8
 1374              	vcom_device_descriptor:
 1375 0000 12000000 		.word	18
 1376 0004 00000000 		.word	vcom_device_descriptor_data
 1377              		.section	.bss.shelltp.8535,"aw",%nobits
 1378              		.align	2
 1379              		.set	.LANCHOR17,. + 0
 1380              		.type	shelltp.8535, %object
 1381              		.size	shelltp.8535, 4
 1382              	shelltp.8535:
 1383 0000 00000000 		.space	4
 1384              		.section	.rodata.vcom_string2,"a",%progbits
 1385              		.align	2
 1386              		.type	vcom_string2, %object
 1387              		.size	vcom_string2, 56
 1388              	vcom_string2:
 1389 0000 38       		.byte	56
 1390 0001 03       		.byte	3
 1391 0002 43       		.byte	67
 1392 0003 00       		.byte	0
 1393 0004 68       		.byte	104
 1394 0005 00       		.byte	0
 1395 0006 69       		.byte	105
 1396 0007 00       		.byte	0
 1397 0008 62       		.byte	98
 1398 0009 00       		.byte	0
 1399 000a 69       		.byte	105
 1400 000b 00       		.byte	0
 1401 000c 4F       		.byte	79
 1402 000d 00       		.byte	0
 1403 000e 53       		.byte	83
 1404 000f 00       		.byte	0
 1405 0010 2F       		.byte	47
 1406 0011 00       		.byte	0
 1407 0012 52       		.byte	82
 1408 0013 00       		.byte	0
 1409 0014 54       		.byte	84
 1410 0015 00       		.byte	0
 1411 0016 20       		.byte	32
 1412 0017 00       		.byte	0
 1413 0018 56       		.byte	86
ARM GAS  /tmp/ccyAfSkT.s 			page 26


 1414 0019 00       		.byte	0
 1415 001a 69       		.byte	105
 1416 001b 00       		.byte	0
 1417 001c 72       		.byte	114
 1418 001d 00       		.byte	0
 1419 001e 74       		.byte	116
 1420 001f 00       		.byte	0
 1421 0020 75       		.byte	117
 1422 0021 00       		.byte	0
 1423 0022 61       		.byte	97
 1424 0023 00       		.byte	0
 1425 0024 6C       		.byte	108
 1426 0025 00       		.byte	0
 1427 0026 20       		.byte	32
 1428 0027 00       		.byte	0
 1429 0028 43       		.byte	67
 1430 0029 00       		.byte	0
 1431 002a 4F       		.byte	79
 1432 002b 00       		.byte	0
 1433 002c 4D       		.byte	77
 1434 002d 00       		.byte	0
 1435 002e 20       		.byte	32
 1436 002f 00       		.byte	0
 1437 0030 50       		.byte	80
 1438 0031 00       		.byte	0
 1439 0032 6F       		.byte	111
 1440 0033 00       		.byte	0
 1441 0034 72       		.byte	114
 1442 0035 00       		.byte	0
 1443 0036 74       		.byte	116
 1444 0037 00       		.byte	0
 1445              		.section	.bss.removed_event,"aw",%nobits
 1446              		.align	2
 1447              		.set	.LANCHOR6,. + 0
 1448              		.type	removed_event, %object
 1449              		.size	removed_event, 4
 1450              	removed_event:
 1451 0000 00000000 		.space	4
 1452              		.section	.rodata.states.8500,"a",%progbits
 1453              		.align	2
 1454              		.set	.LANCHOR8,. + 0
 1455              		.type	states.8500, %object
 1456              		.size	states.8500, 60
 1457              	states.8500:
 1458 0000 8C010000 		.word	.LC16
 1459 0004 94010000 		.word	.LC17
 1460 0008 9C010000 		.word	.LC18
 1461 000c A8010000 		.word	.LC19
 1462 0010 B0010000 		.word	.LC20
 1463 0014 B8010000 		.word	.LC21
 1464 0018 C0010000 		.word	.LC22
 1465 001c CC010000 		.word	.LC23
 1466 0020 D4010000 		.word	.LC24
 1467 0024 DC010000 		.word	.LC25
 1468 0028 E8010000 		.word	.LC26
 1469 002c F0010000 		.word	.LC27
 1470 0030 F8010000 		.word	.LC28
ARM GAS  /tmp/ccyAfSkT.s 			page 27


 1471 0034 00020000 		.word	.LC29
 1472 0038 08020000 		.word	.LC30
 1473              		.section	.rodata.serusbcfg,"a",%progbits
 1474              		.align	2
 1475              		.set	.LANCHOR14,. + 0
 1476              		.type	serusbcfg, %object
 1477              		.size	serusbcfg, 4
 1478              	serusbcfg:
 1479 0000 00000000 		.word	USBD1
 1480              		.section	.rodata.evhndl.8536,"a",%progbits
 1481              		.align	2
 1482              		.set	.LANCHOR19,. + 0
 1483              		.type	evhndl.8536, %object
 1484              		.size	evhndl.8536, 8
 1485              	evhndl.8536:
 1486 0000 00000000 		.word	InsertHandler
 1487 0004 00000000 		.word	RemoveHandler
 1488              		.section	.rodata.vcom_device_descriptor_data,"a",%progbits
 1489              		.align	2
 1490              		.type	vcom_device_descriptor_data, %object
 1491              		.size	vcom_device_descriptor_data, 18
 1492              	vcom_device_descriptor_data:
 1493 0000 12       		.byte	18
 1494 0001 01       		.byte	1
 1495 0002 10       		.byte	16
 1496 0003 01       		.byte	1
 1497 0004 02       		.byte	2
 1498 0005 00       		.byte	0
 1499 0006 00       		.byte	0
 1500 0007 40       		.byte	64
 1501 0008 83       		.byte	-125
 1502 0009 04       		.byte	4
 1503 000a 40       		.byte	64
 1504 000b 57       		.byte	87
 1505 000c 00       		.byte	0
 1506 000d 02       		.byte	2
 1507 000e 01       		.byte	1
 1508 000f 02       		.byte	2
 1509 0010 03       		.byte	3
 1510 0011 01       		.byte	1
 1511 0012 0000     		.section	.bss.SDU1,"aw",%nobits
 1512              		.align	2
 1513              		.set	.LANCHOR13,. + 0
 1514              		.type	SDU1, %object
 1515              		.size	SDU1, 600
 1516              	SDU1:
 1517 0000 00000000 		.space	600
 1517      00000000 
 1517      00000000 
 1517      00000000 
 1517      00000000 
 1518              		.section	.rodata.vcom_configuration_descriptor,"a",%progbits
 1519              		.align	2
 1520              		.set	.LANCHOR1,. + 0
 1521              		.type	vcom_configuration_descriptor, %object
 1522              		.size	vcom_configuration_descriptor, 8
 1523              	vcom_configuration_descriptor:
ARM GAS  /tmp/ccyAfSkT.s 			page 28


 1524 0000 43000000 		.word	67
 1525 0004 00000000 		.word	vcom_configuration_descriptor_data
 1526              		.section	.bss.inserted_event,"aw",%nobits
 1527              		.align	2
 1528              		.set	.LANCHOR5,. + 0
 1529              		.type	inserted_event, %object
 1530              		.size	inserted_event, 4
 1531              	inserted_event:
 1532 0000 00000000 		.space	4
 1533              		.section	.bss.ep2instate,"aw",%nobits
 1534              		.align	2
 1535              		.type	ep2instate, %object
 1536              		.size	ep2instate, 16
 1537              	ep2instate:
 1538 0000 00000000 		.space	16
 1538      00000000 
 1538      00000000 
 1538      00000000 
 1539              		.section	.bss.fbuff,"aw",%nobits
 1540              		.align	2
 1541              		.set	.LANCHOR12,. + 0
 1542              		.type	fbuff, %object
 1543              		.size	fbuff, 1024
 1544              	fbuff:
 1545 0000 00000000 		.space	1024
 1545      00000000 
 1545      00000000 
 1545      00000000 
 1545      00000000 
 1546              		.section	.bss.tmr,"aw",%nobits
 1547              		.align	2
 1548              		.set	.LANCHOR7,. + 0
 1549              		.type	tmr, %object
 1550              		.size	tmr, 20
 1551              	tmr:
 1552 0000 00000000 		.space	20
 1552      00000000 
 1552      00000000 
 1552      00000000 
 1552      00000000 
 1553              		.section	.rodata.commands,"a",%progbits
 1554              		.align	2
 1555              		.type	commands, %object
 1556              		.size	commands, 40
 1557              	commands:
 1558 0000 10020000 		.word	.LC31
 1559 0004 00000000 		.word	cmd_mem
 1560 0008 14020000 		.word	.LC32
 1561 000c 00000000 		.word	cmd_threads
 1562 0010 1C020000 		.word	.LC33
 1563 0014 00000000 		.word	cmd_test
 1564 0018 24020000 		.word	.LC34
 1565 001c 00000000 		.word	cmd_tree
 1566 0020 00000000 		.word	0
 1567 0024 00000000 		.word	0
 1568              		.section	.bss.ep1outstate,"aw",%nobits
 1569              		.align	2
ARM GAS  /tmp/ccyAfSkT.s 			page 29


 1570              		.type	ep1outstate, %object
 1571              		.size	ep1outstate, 16
 1572              	ep1outstate:
 1573 0000 00000000 		.space	16
 1573      00000000 
 1573      00000000 
 1573      00000000 
 1574              		.section	.bss.cnt,"aw",%nobits
 1575              		.align	2
 1576              		.set	.LANCHOR4,. + 0
 1577              		.type	cnt, %object
 1578              		.size	cnt, 4
 1579              	cnt:
 1580 0000 00000000 		.space	4
 1581              		.section	.bss.SDC_FS,"aw",%nobits
 1582              		.align	2
 1583              		.set	.LANCHOR9,. + 0
 1584              		.type	SDC_FS, %object
 1585              		.size	SDC_FS, 564
 1586              	SDC_FS:
 1587 0000 00000000 		.space	564
 1587      00000000 
 1587      00000000 
 1587      00000000 
 1587      00000000 
 1588              		.section	.rodata.shell_cfg1,"a",%progbits
 1589              		.align	2
 1590              		.set	.LANCHOR18,. + 0
 1591              		.type	shell_cfg1, %object
 1592              		.size	shell_cfg1, 8
 1593              	shell_cfg1:
 1594 0000 00000000 		.word	SDU1
 1595 0004 00000000 		.word	commands
 1596              		.section	.rodata.ep1config,"a",%progbits
 1597              		.align	2
 1598              		.set	.LANCHOR10,. + 0
 1599              		.type	ep1config, %object
 1600              		.size	ep1config, 36
 1601              	ep1config:
 1602 0000 02000000 		.word	2
 1603 0004 00000000 		.word	0
 1604 0008 00000000 		.word	sduDataTransmitted
 1605 000c 00000000 		.word	sduDataReceived
 1606 0010 4000     		.short	64
 1607 0012 4000     		.short	64
 1608 0014 00000000 		.word	ep1instate
 1609 0018 00000000 		.word	ep1outstate
 1610 001c 0200     		.short	2
 1611 001e 0000     		.space	2
 1612 0020 00000000 		.word	0
 1613              		.section	.bss.ep1instate,"aw",%nobits
 1614              		.align	2
 1615              		.type	ep1instate, %object
 1616              		.size	ep1instate, 16
 1617              	ep1instate:
 1618 0000 00000000 		.space	16
 1618      00000000 
ARM GAS  /tmp/ccyAfSkT.s 			page 30


 1618      00000000 
 1618      00000000 
 1619              		.section	.bss.waThread1,"aw",%nobits
 1620              		.align	3
 1621              		.set	.LANCHOR16,. + 0
 1622              		.type	waThread1, %object
 1623              		.size	waThread1, 304
 1624              	waThread1:
 1625 0000 00000000 		.space	304
 1625      00000000 
 1625      00000000 
 1625      00000000 
 1625      00000000 
 1626              		.section	.rodata.str1.4,"aMS",%progbits,1
 1627              		.align	2
 1628              	.LC0:
 1629 0000 626C696E 		.ascii	"blinker\000"
 1629      6B657200 
 1630              	.LC1:
 1631 0008 55736167 		.ascii	"Usage: test\015\012\000"
 1631      653A2074 
 1631      6573740D 
 1631      0A00
 1632 0016 0000     		.space	2
 1633              	.LC2:
 1634 0018 6F757420 		.ascii	"out of memory\015\012\000"
 1634      6F66206D 
 1634      656D6F72 
 1634      790D0A00 
 1635              	.LC3:
 1636 0028 55736167 		.ascii	"Usage: threads\015\012\000"
 1636      653A2074 
 1636      68726561 
 1636      64730D0A 
 1636      00
 1637 0039 000000   		.space	3
 1638              	.LC4:
 1639 003c 20202020 		.ascii	"    addr    stack prio refs     state time\015\012\000"
 1639      61646472 
 1639      20202020 
 1639      73746163 
 1639      6B207072 
 1640 0069 000000   		.space	3
 1641              	.LC5:
 1642 006c 252E386C 		.ascii	"%.8lx %.8lx %4lu %4lu %9s %lu\015\012\000"
 1642      7820252E 
 1642      386C7820 
 1642      25346C75 
 1642      2025346C 
 1643              	.LC6:
 1644 008c 55736167 		.ascii	"Usage: mem\015\012\000"
 1644      653A206D 
 1644      656D0D0A 
 1644      00
 1645 0099 000000   		.space	3
 1646              	.LC7:
 1647 009c 636F7265 		.ascii	"core free memory : %u bytes\015\012\000"
ARM GAS  /tmp/ccyAfSkT.s 			page 31


 1647      20667265 
 1647      65206D65 
 1647      6D6F7279 
 1647      203A2025 
 1648 00ba 0000     		.space	2
 1649              	.LC8:
 1650 00bc 68656170 		.ascii	"heap fragments   : %u\015\012\000"
 1650      20667261 
 1650      676D656E 
 1650      74732020 
 1650      203A2025 
 1651              	.LC9:
 1652 00d4 68656170 		.ascii	"heap free total  : %u bytes\015\012\000"
 1652      20667265 
 1652      6520746F 
 1652      74616C20 
 1652      203A2025 
 1653 00f2 0000     		.space	2
 1654              	.LC10:
 1655 00f4 25732F25 		.ascii	"%s/%s\015\012\000"
 1655      730D0A00 
 1656              	.LC11:
 1657 00fc 55736167 		.ascii	"Usage: tree\015\012\000"
 1657      653A2074 
 1657      7265650D 
 1657      0A00
 1658 010a 0000     		.space	2
 1659              	.LC12:
 1660 010c 46696C65 		.ascii	"File System not mounted\015\012\000"
 1660      20537973 
 1660      74656D20 
 1660      6E6F7420 
 1660      6D6F756E 
 1661 0126 0000     		.space	2
 1662              	.LC13:
 1663 0128 2F00     		.ascii	"/\000"
 1664 012a 0000     		.space	2
 1665              	.LC14:
 1666 012c 46533A20 		.ascii	"FS: f_getfree() failed\015\012\000"
 1666      665F6765 
 1666      74667265 
 1666      65282920 
 1666      6661696C 
 1667 0145 000000   		.space	3
 1668              	.LC15:
 1669 0148 46533A20 		.ascii	"FS: %lu free clusters, %lu sectors per cluster, %lu"
 1669      256C7520 
 1669      66726565 
 1669      20636C75 
 1669      73746572 
 1670 017b 20627974 		.ascii	" bytes free\015\012\000"
 1670      65732066 
 1670      7265650D 
 1670      0A00
 1671 0189 000000   		.space	3
 1672              	.LC16:
 1673 018c 52454144 		.ascii	"READY\000"
ARM GAS  /tmp/ccyAfSkT.s 			page 32


 1673      5900
 1674 0192 0000     		.space	2
 1675              	.LC17:
 1676 0194 43555252 		.ascii	"CURRENT\000"
 1676      454E5400 
 1677              	.LC18:
 1678 019c 53555350 		.ascii	"SUSPENDED\000"
 1678      454E4445 
 1678      4400
 1679 01a6 0000     		.space	2
 1680              	.LC19:
 1681 01a8 57545345 		.ascii	"WTSEM\000"
 1681      4D00
 1682 01ae 0000     		.space	2
 1683              	.LC20:
 1684 01b0 57544D54 		.ascii	"WTMTX\000"
 1684      5800
 1685 01b6 0000     		.space	2
 1686              	.LC21:
 1687 01b8 5754434F 		.ascii	"WTCOND\000"
 1687      4E4400
 1688 01bf 00       		.space	1
 1689              	.LC22:
 1690 01c0 534C4545 		.ascii	"SLEEPING\000"
 1690      50494E47 
 1690      00
 1691 01c9 000000   		.space	3
 1692              	.LC23:
 1693 01cc 57544558 		.ascii	"WTEXIT\000"
 1693      495400
 1694 01d3 00       		.space	1
 1695              	.LC24:
 1696 01d4 57544F52 		.ascii	"WTOREVT\000"
 1696      45565400 
 1697              	.LC25:
 1698 01dc 5754414E 		.ascii	"WTANDEVT\000"
 1698      44455654 
 1698      00
 1699 01e5 000000   		.space	3
 1700              	.LC26:
 1701 01e8 534E444D 		.ascii	"SNDMSGQ\000"
 1701      53475100 
 1702              	.LC27:
 1703 01f0 534E444D 		.ascii	"SNDMSG\000"
 1703      534700
 1704 01f7 00       		.space	1
 1705              	.LC28:
 1706 01f8 57544D53 		.ascii	"WTMSG\000"
 1706      4700
 1707 01fe 0000     		.space	2
 1708              	.LC29:
 1709 0200 57545155 		.ascii	"WTQUEUE\000"
 1709      45554500 
 1710              	.LC30:
 1711 0208 46494E41 		.ascii	"FINAL\000"
 1711      4C00
 1712 020e 0000     		.space	2
ARM GAS  /tmp/ccyAfSkT.s 			page 33


 1713              	.LC31:
 1714 0210 6D656D00 		.ascii	"mem\000"
 1715              	.LC32:
 1716 0214 74687265 		.ascii	"threads\000"
 1716      61647300 
 1717              	.LC33:
 1718 021c 74657374 		.ascii	"test\000"
 1718      00
 1719 0221 000000   		.space	3
 1720              	.LC34:
 1721 0224 74726565 		.ascii	"tree\000"
 1721      00
 1722 0229 000000   		.text
 1723              	.Letext0:
 1724              		.file 2 "/opt/psas/x-tools/stm32f407/arm-psas-eabi/bin/../lib/gcc/arm-psas-eabi/4.7.2/include/stdd
 1725              		.file 3 "/opt/psas/x-tools/stm32f407/arm-psas-eabi/bin/../lib/gcc/arm-psas-eabi/4.7.2/../../../../
 1726              		.file 4 "../../os/ports/GCC/ARMCMx/chtypes.h"
 1727              		.file 5 "../../os/kernel/include/chlists.h"
 1728              		.file 6 "../../os/kernel/include/chthreads.h"
 1729              		.file 7 "../../os/ports/GCC/ARMCMx/chcore_v7m.h"
 1730              		.file 8 "../../os/kernel/include/chvt.h"
 1731              		.file 9 "../../os/kernel/include/chschd.h"
 1732              		.file 10 "../../os/kernel/include/chsem.h"
 1733              		.file 11 "../../os/kernel/include/chmtx.h"
 1734              		.file 12 "../../os/kernel/include/chevents.h"
 1735              		.file 13 "../../os/kernel/include/chmemcore.h"
 1736              		.file 14 "../../os/kernel/include/chheap.h"
 1737              		.file 15 "../../os/kernel/include/chqueues.h"
 1738              		.file 16 "../../os/kernel/include/chstreams.h"
 1739              		.file 17 "../../os/hal/platforms/STM32F4xx/stm32f4xx.h"
 1740              		.file 18 "../../os/hal/platforms/STM32F4xx/stm32_dma.h"
 1741              		.file 19 "../../os/hal/include/io_block.h"
 1742              		.file 20 "../../os/hal/platforms/STM32/GPIOv2/pal_lld.h"
 1743              		.file 21 "../../os/hal/include/serial.h"
 1744              		.file 22 "../../os/hal/platforms/STM32/USARTv1/serial_lld.h"
 1745              		.file 23 "../../os/hal/platforms/STM32/sdc_lld.h"
 1746              		.file 24 "../../os/hal/include/usb.h"
 1747              		.file 25 "../../os/hal/platforms/STM32/OTGv1/usb_lld.h"
 1748              		.file 26 "../../os/hal/platforms/STM32/OTGv1/stm32_otg.h"
 1749              		.file 27 "../../os/hal/include/serial_usb.h"
 1750              		.file 28 "../../os/various/shell.h"
 1751              		.file 29 "../../ext/fatfs/src/integer.h"
 1752              		.file 30 "../../ext/fatfs/src/ff.h"
 1753              		.file 31 "../../os/ports/common/ARMCMx/CMSIS/include/core_cm4.h"
 1754              		.file 32 "../../os/various/lwip_bindings/lwipthread.h"
 1755              		.file 33 "web/web.h"
 1756              		.file 34 "../../os/hal/include/sdc.h"
 1757              		.file 35 "../../os/kernel/include/chdynamic.h"
 1758              		.file 36 "../../os/various/chprintf.h"
 1759              		.file 37 "../../os/kernel/include/chregistry.h"
 1760              		.file 38 "/opt/psas/x-tools/stm32f407/arm-psas-eabi/bin/../lib/gcc/arm-psas-eabi/4.7.2/../../../..
 1761              		.file 39 "../../os/hal/include/hal.h"
 1762              		.file 40 "../../os/kernel/include/chsys.h"