ARM GAS  /tmp/cc3s1bE4.s 			page 1


   1              		.syntax unified
   2              		.cpu cortex-m4
   3              		.eabi_attribute 27, 3
   4              		.eabi_attribute 28, 1
   5              		.fpu fpv4-sp-d16
   6              		.eabi_attribute 20, 1
   7              		.eabi_attribute 21, 1
   8              		.eabi_attribute 23, 3
   9              		.eabi_attribute 24, 1
  10              		.eabi_attribute 25, 1
  11              		.eabi_attribute 26, 1
  12              		.eabi_attribute 30, 2
  13              		.eabi_attribute 34, 1
  14              		.eabi_attribute 18, 4
  15              		.thumb
  16              		.file	"mem.c"
  17              		.text
  18              	.Ltext0:
  19              		.cfi_sections	.debug_frame
  20              		.section	.text.mem_init,"ax",%progbits
  21              		.align	2
  22              		.p2align 4,,15
  23              		.global	mem_init
  24              		.thumb
  25              		.thumb_func
  26              		.type	mem_init, %function
  27              	mem_init:
  28              	.LFB8:
  29              		.file 1 "../../ext/lwip/src/core/mem.c"
  30              		.loc 1 272 0
  31              		.cfi_startproc
  32              		@ args = 0, pretend = 0, frame = 0
  33              		@ frame_needed = 0, uses_anonymous_args = 0
  34 0000 F8B5     		push	{r3, r4, r5, r6, r7, lr}
  35              	.LCFI0:
  36              		.cfi_def_cfa_offset 24
  37              		.cfi_offset 3, -24
  38              		.cfi_offset 4, -20
  39              		.cfi_offset 5, -16
  40              		.cfi_offset 6, -12
  41              		.cfi_offset 7, -8
  42              		.cfi_offset 14, -4
  43              		.loc 1 279 0
  44 0002 134B     		ldr	r3, .L5
  45 0004 DFF85CE0 		ldr	lr, .L5+20
  46              		.loc 1 296 0
  47 0008 1248     		ldr	r0, .L5+4
  48              		.loc 1 279 0
  49 000a 23F00303 		bic	r3, r3, #3
  50              		.loc 1 287 0
  51 000e 0124     		movs	r4, #1
  52 0010 83F84446 		strb	r4, [r3, #1604]
  53              		.loc 1 296 0
  54 0014 2146     		mov	r1, r4
  55              		.loc 1 292 0
  56 0016 104C     		ldr	r4, .L5+8
  57              		.loc 1 279 0
ARM GAS  /tmp/cc3s1bE4.s 			page 2


  58 0018 CEF80030 		str	r3, [lr, #0]
  59              	.LVL0:
  60              		.loc 1 282 0
  61 001c 4FF4C862 		mov	r2, #1600
  62              		.loc 1 283 0
  63 0020 0025     		movs	r5, #0
  64              		.loc 1 286 0
  65 0022 9E18     		adds	r6, r3, r2
  66              		.loc 1 283 0
  67 0024 5D80     		strh	r5, [r3, #2]	@ movhi
  68              		.loc 1 284 0
  69 0026 1D71     		strb	r5, [r3, #4]
  70              		.loc 1 283 0
  71 0028 2F46     		mov	r7, r5	@ movhi
  72              		.loc 1 282 0
  73 002a 1A80     		strh	r2, [r3, #0]	@ movhi
  74              		.loc 1 286 0
  75 002c 0B4D     		ldr	r5, .L5+12
  76              		.loc 1 288 0
  77 002e A3F84026 		strh	r2, [r3, #1600]	@ movhi
  78              		.loc 1 289 0
  79 0032 A3F84226 		strh	r2, [r3, #1602]	@ movhi
  80              		.loc 1 292 0
  81 0036 2360     		str	r3, [r4, #0]
  82              		.loc 1 294 0
  83 0038 094B     		ldr	r3, .L5+16
  84              	.LVL1:
  85              		.loc 1 286 0
  86 003a 2E60     		str	r6, [r5, #0]
  87              		.loc 1 294 0
  88 003c A3F8A820 		strh	r2, [r3, #168]	@ movhi
  89              		.loc 1 296 0
  90 0040 FFF7FEFF 		bl	sys_sem_new
  91              	.LVL2:
  92 0044 00B9     		cbnz	r0, .L4
  93 0046 F8BD     		pop	{r3, r4, r5, r6, r7, pc}
  94              	.L4:
  95              		.loc 1 299 0 discriminator 1
  96 0048 BDE8F840 		pop	{r3, r4, r5, r6, r7, lr}
  97              		.loc 1 297 0 discriminator 1
  98 004c FFF7FEBF 		b	port_halt
  99              	.LVL3:
 100              	.L6:
 101              		.align	2
 102              	.L5:
 103 0050 03000000 		.word	.LANCHOR0+3
 104 0054 00000000 		.word	.LANCHOR4
 105 0058 00000000 		.word	.LANCHOR3
 106 005c 00000000 		.word	.LANCHOR2
 107 0060 00000000 		.word	lwip_stats
 108 0064 00000000 		.word	.LANCHOR1
 109              		.cfi_endproc
 110              	.LFE8:
 111              		.size	mem_init, .-mem_init
 112 0068 AFF30080 		.section	.text.mem_free,"ax",%progbits
 112      AFF30080 
 113              		.align	2
ARM GAS  /tmp/cc3s1bE4.s 			page 3


 114              		.p2align 4,,15
 115              		.global	mem_free
 116              		.thumb
 117              		.thumb_func
 118              		.type	mem_free, %function
 119              	mem_free:
 120              	.LFB9:
 121              		.loc 1 309 0
 122              		.cfi_startproc
 123              		@ args = 0, pretend = 0, frame = 0
 124              		@ frame_needed = 0, uses_anonymous_args = 0
 125              	.LVL4:
 126 0000 2DE9F041 		push	{r4, r5, r6, r7, r8, lr}
 127              	.LCFI1:
 128              		.cfi_def_cfa_offset 24
 129              		.cfi_offset 4, -24
 130              		.cfi_offset 5, -20
 131              		.cfi_offset 6, -16
 132              		.cfi_offset 7, -12
 133              		.cfi_offset 8, -8
 134              		.cfi_offset 14, -4
 135              		.loc 1 313 0
 136 0004 0446     		mov	r4, r0
 137 0006 B0B1     		cbz	r0, .L7
 138              		.loc 1 317 0
 139 0008 8307     		lsls	r3, r0, #30
 140 000a 78D1     		bne	.L33
 141              	.LVL5:
 142              	.L9:
 143              		.loc 1 319 0
 144 000c 464D     		ldr	r5, .L39
 145 000e 2B68     		ldr	r3, [r5, #0]
 146 0010 9C42     		cmp	r4, r3
 147 0012 03D3     		bcc	.L10
 148              		.loc 1 319 0 is_stmt 0 discriminator 2
 149 0014 454E     		ldr	r6, .L39+4
 150 0016 3368     		ldr	r3, [r6, #0]
 151 0018 9C42     		cmp	r4, r3
 152 001a 12D3     		bcc	.L11
 153              	.L10:
 154              		.loc 1 319 0 discriminator 1
 155 001c FFF7FEFF 		bl	port_halt
 156              	.LVL6:
 157              		.loc 1 322 0 is_stmt 1 discriminator 1
 158 0020 2B68     		ldr	r3, [r5, #0]
 159 0022 9C42     		cmp	r4, r3
 160 0024 09D2     		bcs	.L12
 161              	.L13:
 162              		.loc 1 327 0
 163 0026 424B     		ldr	r3, .L39+8
 164 0028 B3F8B020 		ldrh	r2, [r3, #176]
 165 002c 0132     		adds	r2, r2, #1
 166 002e A3F8B020 		strh	r2, [r3, #176]	@ movhi
 167              		.loc 1 329 0
 168 0032 BDE8F081 		pop	{r4, r5, r6, r7, r8, pc}
 169              	.LVL7:
 170              	.L7:
ARM GAS  /tmp/cc3s1bE4.s 			page 4


 171 0036 BDE8F081 		pop	{r4, r5, r6, r7, r8, pc}
 172              	.LVL8:
 173              	.L12:
 174              		.loc 1 322 0
 175 003a 3C4E     		ldr	r6, .L39+4
 176 003c 3368     		ldr	r3, [r6, #0]
 177 003e 9C42     		cmp	r4, r3
 178 0040 F1D2     		bcs	.L13
 179              	.L11:
 180              		.loc 1 332 0
 181 0042 3C48     		ldr	r0, .L39+12
 182 0044 0021     		movs	r1, #0
 183 0046 FFF7FEFF 		bl	sys_arch_sem_wait
 184              	.LVL9:
 185              		.loc 1 336 0
 186 004a 14F8043C 		ldrb	r3, [r4, #-4]	@ zero_extendqisi2
 187              		.loc 1 334 0
 188 004e A4F10807 		sub	r7, r4, #8
 189              	.LVL10:
 190              		.loc 1 336 0
 191 0052 002B     		cmp	r3, #0
 192 0054 64D0     		beq	.L34
 193              	.L14:
 194              		.loc 1 340 0
 195 0056 DFF8E080 		ldr	r8, .L39+16
 196              		.loc 1 345 0
 197 005a 34F8081C 		ldrh	r1, [r4, #-8]
 198              		.loc 1 340 0
 199 005e D8F80030 		ldr	r3, [r8, #0]
 200              		.loc 1 338 0
 201 0062 0022     		movs	r2, #0
 202 0064 04F8042C 		strb	r2, [r4, #-4]
 203              		.loc 1 345 0
 204 0068 314A     		ldr	r2, .L39+8
 205              		.loc 1 340 0
 206 006a 9F42     		cmp	r7, r3
 207              		.loc 1 345 0
 208 006c B2F8AA00 		ldrh	r0, [r2, #170]
 209 0070 2B68     		ldr	r3, [r5, #0]
 210              		.loc 1 342 0
 211 0072 38BF     		it	cc
 212 0074 C8F80070 		strcc	r7, [r8, #0]
 213              		.loc 1 345 0
 214 0078 411A     		subs	r1, r0, r1
 215 007a F81A     		subs	r0, r7, r3
 216 007c 0918     		adds	r1, r1, r0
 217              	.LBB4:
 218              	.LBB5:
 219              		.loc 1 238 0
 220 007e 9F42     		cmp	r7, r3
 221              	.LBE5:
 222              	.LBE4:
 223              		.loc 1 345 0
 224 0080 A2F8AA10 		strh	r1, [r2, #170]	@ movhi
 225              	.LVL11:
 226              	.LBB8:
 227              	.LBB6:
ARM GAS  /tmp/cc3s1bE4.s 			page 5


 228              		.loc 1 238 0
 229 0084 49D3     		bcc	.L35
 230              	.L16:
 231              		.loc 1 239 0
 232 0086 3368     		ldr	r3, [r6, #0]
 233 0088 9F42     		cmp	r7, r3
 234 008a 43D2     		bcs	.L36
 235              	.L17:
 236              		.loc 1 240 0
 237 008c 14F8043C 		ldrb	r3, [r4, #-4]	@ zero_extendqisi2
 238 0090 002B     		cmp	r3, #0
 239 0092 3CD1     		bne	.L37
 240              	.L18:
 241              		.loc 1 243 0
 242 0094 34F8082C 		ldrh	r2, [r4, #-8]
 243 0098 B2F5C86F 		cmp	r2, #1600
 244 009c 32D8     		bhi	.L38
 245              	.L19:
 246              		.loc 1 245 0
 247 009e 2B68     		ldr	r3, [r5, #0]
 248 00a0 9A18     		adds	r2, r3, r2
 249              	.LVL12:
 250              		.loc 1 246 0
 251 00a2 9742     		cmp	r7, r2
 252 00a4 11D0     		beq	.L20
 253 00a6 1179     		ldrb	r1, [r2, #4]	@ zero_extendqisi2
 254 00a8 79B9     		cbnz	r1, .L20
 255 00aa 3168     		ldr	r1, [r6, #0]
 256 00ac 8A42     		cmp	r2, r1
 257 00ae 0CD0     		beq	.L20
 258              		.loc 1 248 0
 259 00b0 D8F80010 		ldr	r1, [r8, #0]
 260 00b4 8A42     		cmp	r2, r1
 261              		.loc 1 249 0
 262 00b6 04BF     		itt	eq
 263 00b8 1F49     		ldreq	r1, .L39+16
 264 00ba 0F60     		streq	r7, [r1, #0]
 265              		.loc 1 251 0
 266 00bc 1188     		ldrh	r1, [r2, #0]
 267 00be 24F8081C 		strh	r1, [r4, #-8]	@ movhi
 268              		.loc 1 252 0
 269 00c2 1288     		ldrh	r2, [r2, #0]
 270              	.LVL13:
 271 00c4 9A18     		adds	r2, r3, r2
 272 00c6 F91A     		subs	r1, r7, r3
 273 00c8 5180     		strh	r1, [r2, #2]	@ movhi
 274              	.L20:
 275              		.loc 1 256 0
 276 00ca 34F8061C 		ldrh	r1, [r4, #-6]
 277 00ce 5A18     		adds	r2, r3, r1
 278              	.LVL14:
 279              		.loc 1 257 0
 280 00d0 9742     		cmp	r7, r2
 281 00d2 0FD0     		beq	.L22
 282 00d4 1079     		ldrb	r0, [r2, #4]	@ zero_extendqisi2
 283 00d6 68B9     		cbnz	r0, .L22
 284              		.loc 1 259 0
ARM GAS  /tmp/cc3s1bE4.s 			page 6


 285 00d8 D8F80000 		ldr	r0, [r8, #0]
 286 00dc 8742     		cmp	r7, r0
 287              		.loc 1 260 0
 288 00de 04BF     		itt	eq
 289 00e0 1548     		ldreq	r0, .L39+16
 290 00e2 0260     		streq	r2, [r0, #0]
 291              		.loc 1 262 0
 292 00e4 34F8080C 		ldrh	r0, [r4, #-8]
 293 00e8 5852     		strh	r0, [r3, r1]	@ movhi
 294              		.loc 1 263 0
 295 00ea 34F8081C 		ldrh	r1, [r4, #-8]
 296 00ee 5918     		adds	r1, r3, r1
 297 00f0 D31A     		subs	r3, r2, r3
 298 00f2 4B80     		strh	r3, [r1, #2]	@ movhi
 299              	.L22:
 300              	.LBE6:
 301              	.LBE8:
 302              		.loc 1 352 0
 303 00f4 0F48     		ldr	r0, .L39+12
 304              		.loc 1 353 0
 305 00f6 BDE8F041 		pop	{r4, r5, r6, r7, r8, lr}
 306              		.loc 1 352 0
 307 00fa FFF7FEBF 		b	sys_sem_signal
 308              	.LVL15:
 309              	.L33:
 310              		.loc 1 317 0 discriminator 1
 311 00fe FFF7FEFF 		bl	port_halt
 312              	.LVL16:
 313 0102 83E7     		b	.L9
 314              	.LVL17:
 315              	.L38:
 316              	.LBB9:
 317              	.LBB7:
 318              		.loc 1 243 0
 319 0104 FFF7FEFF 		bl	port_halt
 320              	.LVL18:
 321 0108 34F8082C 		ldrh	r2, [r4, #-8]
 322 010c C7E7     		b	.L19
 323              	.L37:
 324              		.loc 1 240 0
 325 010e FFF7FEFF 		bl	port_halt
 326              	.LVL19:
 327 0112 BFE7     		b	.L18
 328              	.L36:
 329              		.loc 1 239 0
 330 0114 FFF7FEFF 		bl	port_halt
 331              	.LVL20:
 332 0118 B8E7     		b	.L17
 333              	.L35:
 334              		.loc 1 238 0
 335 011a FFF7FEFF 		bl	port_halt
 336              	.LVL21:
 337 011e B2E7     		b	.L16
 338              	.LVL22:
 339              	.L34:
 340              	.LBE7:
 341              	.LBE9:
ARM GAS  /tmp/cc3s1bE4.s 			page 7


 342              		.loc 1 336 0 discriminator 1
 343 0120 FFF7FEFF 		bl	port_halt
 344              	.LVL23:
 345 0124 97E7     		b	.L14
 346              	.L40:
 347 0126 00BF     		.align	2
 348              	.L39:
 349 0128 00000000 		.word	.LANCHOR1
 350 012c 00000000 		.word	.LANCHOR2
 351 0130 00000000 		.word	lwip_stats
 352 0134 00000000 		.word	.LANCHOR4
 353 0138 00000000 		.word	.LANCHOR3
 354              		.cfi_endproc
 355              	.LFE9:
 356              		.size	mem_free, .-mem_free
 357 013c AFF30080 		.section	.text.mem_trim,"ax",%progbits
 358              		.align	2
 359              		.p2align 4,,15
 360              		.global	mem_trim
 361              		.thumb
 362              		.thumb_func
 363              		.type	mem_trim, %function
 364              	mem_trim:
 365              	.LFB10:
 366              		.loc 1 367 0
 367              		.cfi_startproc
 368              		@ args = 0, pretend = 0, frame = 0
 369              		@ frame_needed = 0, uses_anonymous_args = 0
 370              	.LVL24:
 371 0000 2DE9F041 		push	{r4, r5, r6, r7, r8, lr}
 372              	.LCFI2:
 373              		.cfi_def_cfa_offset 24
 374              		.cfi_offset 4, -24
 375              		.cfi_offset 5, -20
 376              		.cfi_offset 6, -16
 377              		.cfi_offset 7, -12
 378              		.cfi_offset 8, -8
 379              		.cfi_offset 14, -4
 380              		.loc 1 376 0
 381 0004 0331     		adds	r1, r1, #3
 382              	.LVL25:
 383 0006 4FF6FC75 		movw	r5, #65532
 384 000a 0D40     		ands	r5, r5, r1
 385              	.LVL26:
 386              		.loc 1 378 0
 387 000c 0B2D     		cmp	r5, #11
 388              		.loc 1 367 0
 389 000e 0446     		mov	r4, r0
 390              		.loc 1 378 0
 391 0010 5BD9     		bls	.L57
 392              		.loc 1 383 0
 393 0012 B5F5C86F 		cmp	r5, #1600
 394 0016 5FD8     		bhi	.L67
 395              	.LVL27:
 396              	.L42:
 397              		.loc 1 387 0
 398 0018 434E     		ldr	r6, .L69
ARM GAS  /tmp/cc3s1bE4.s 			page 8


 399 001a 3368     		ldr	r3, [r6, #0]
 400 001c A342     		cmp	r3, r4
 401 001e 46D8     		bhi	.L44
 402              		.loc 1 387 0 is_stmt 0 discriminator 2
 403 0020 424A     		ldr	r2, .L69+4
 404 0022 1268     		ldr	r2, [r2, #0]
 405 0024 9442     		cmp	r4, r2
 406 0026 42D2     		bcs	.L44
 407              	.LVL28:
 408              	.L45:
 409              		.loc 1 400 0 is_stmt 1
 410 0028 A4F10808 		sub	r8, r4, #8
 411              	.LVL29:
 412              		.loc 1 404 0
 413 002c 34F8087C 		ldrh	r7, [r4, #-8]
 414              		.loc 1 402 0
 415 0030 C3EB0803 		rsb	r3, r3, r8
 416              		.loc 1 404 0
 417 0034 083F     		subs	r7, r7, #8
 418              		.loc 1 402 0
 419 0036 1FFA83F8 		uxth	r8, r3
 420              	.LVL30:
 421              		.loc 1 404 0
 422 003a C8EB0707 		rsb	r7, r8, r7
 423 003e BFB2     		uxth	r7, r7
 424              	.LVL31:
 425              		.loc 1 405 0
 426 0040 AF42     		cmp	r7, r5
 427 0042 4DD3     		bcc	.L68
 428              		.loc 1 410 0
 429 0044 BD42     		cmp	r5, r7
 430 0046 3DD0     		beq	.L61
 431              		.loc 1 416 0
 432 0048 0021     		movs	r1, #0
 433 004a 3948     		ldr	r0, .L69+8
 434 004c FFF7FEFF 		bl	sys_arch_sem_wait
 435              	.LVL32:
 436              		.loc 1 418 0
 437 0050 3368     		ldr	r3, [r6, #0]
 438 0052 34F8082C 		ldrh	r2, [r4, #-8]
 439 0056 9918     		adds	r1, r3, r2
 440              	.LVL33:
 441              		.loc 1 419 0
 442 0058 0879     		ldrb	r0, [r1, #4]	@ zero_extendqisi2
 443 005a 0028     		cmp	r0, #0
 444 005c 44D1     		bne	.L49
 445              	.LBB10:
 446              		.loc 1 426 0
 447 005e 354E     		ldr	r6, .L69+12
 448              		.loc 1 423 0
 449 0060 33F802E0 		ldrh	lr, [r3, r2]
 450              	.LVL34:
 451              		.loc 1 426 0
 452 0064 3268     		ldr	r2, [r6, #0]
 453              		.loc 1 425 0
 454 0066 05F10800 		add	r0, r5, #8
 455 006a 4044     		add	r0, r8, r0
ARM GAS  /tmp/cc3s1bE4.s 			page 9


 456 006c 80B2     		uxth	r0, r0
 457              	.LVL35:
 458              		.loc 1 426 0
 459 006e 8A42     		cmp	r2, r1
 460              		.loc 1 427 0
 461 0070 03EB0002 		add	r2, r3, r0
 462 0074 08BF     		it	eq
 463 0076 3260     		streq	r2, [r6, #0]
 464              	.LVL36:
 465              		.loc 1 432 0
 466 0078 A2F800E0 		strh	lr, [r2, #0]	@ movhi
 467              		.loc 1 436 0
 468 007c 24F8080C 		strh	r0, [r4, #-8]	@ movhi
 469              		.loc 1 440 0
 470 0080 1188     		ldrh	r1, [r2, #0]
 471              	.LVL37:
 472              		.loc 1 434 0
 473 0082 A2F80280 		strh	r8, [r2, #2]	@ movhi
 474              		.loc 1 430 0
 475 0086 0026     		movs	r6, #0
 476              		.loc 1 440 0
 477 0088 B1F5C86F 		cmp	r1, #1600
 478              		.loc 1 430 0
 479 008c 1671     		strb	r6, [r2, #4]
 480              		.loc 1 440 0
 481 008e 01D0     		beq	.L55
 482              		.loc 1 441 0
 483 0090 5B18     		adds	r3, r3, r1
 484              	.LVL38:
 485 0092 5880     		strh	r0, [r3, #2]	@ movhi
 486              	.LVL39:
 487              	.L55:
 488              	.LBE10:
 489              		.loc 1 465 0
 490 0094 284B     		ldr	r3, .L69+16
 491 0096 B3F8AA20 		ldrh	r2, [r3, #170]
 492 009a AD18     		adds	r5, r5, r2
 493 009c EF1B     		subs	r7, r5, r7
 494              	.LVL40:
 495 009e A3F8AA70 		strh	r7, [r3, #170]	@ movhi
 496              	.L53:
 497              		.loc 1 477 0
 498 00a2 2348     		ldr	r0, .L69+8
 499 00a4 FFF7FEFF 		bl	sys_sem_signal
 500              	.LVL41:
 501              		.loc 1 479 0
 502 00a8 2046     		mov	r0, r4
 503 00aa BDE8F081 		pop	{r4, r5, r6, r7, r8, pc}
 504              	.LVL42:
 505              	.L44:
 506              		.loc 1 387 0 discriminator 1
 507 00ae FFF7FEFF 		bl	port_halt
 508              	.LVL43:
 509              		.loc 1 390 0 discriminator 1
 510 00b2 3368     		ldr	r3, [r6, #0]
 511 00b4 9C42     		cmp	r4, r3
 512 00b6 0AD2     		bcs	.L46
ARM GAS  /tmp/cc3s1bE4.s 			page 10


 513              	.L47:
 514              		.loc 1 395 0
 515 00b8 1F4B     		ldr	r3, .L69+16
 516 00ba B3F8B020 		ldrh	r2, [r3, #176]
 517 00be 0132     		adds	r2, r2, #1
 518 00c0 A3F8B020 		strh	r2, [r3, #176]	@ movhi
 519              	.LVL44:
 520              	.L61:
 521              		.loc 1 479 0
 522 00c4 2046     		mov	r0, r4
 523 00c6 BDE8F081 		pop	{r4, r5, r6, r7, r8, pc}
 524              	.LVL45:
 525              	.L57:
 526              		.loc 1 380 0
 527 00ca 0C25     		movs	r5, #12
 528              	.LVL46:
 529 00cc A4E7     		b	.L42
 530              	.LVL47:
 531              	.L46:
 532              		.loc 1 390 0
 533 00ce 174A     		ldr	r2, .L69+4
 534 00d0 1268     		ldr	r2, [r2, #0]
 535 00d2 9442     		cmp	r4, r2
 536 00d4 F0D2     		bcs	.L47
 537 00d6 A7E7     		b	.L45
 538              	.LVL48:
 539              	.L67:
 540              		.loc 1 384 0
 541 00d8 0024     		movs	r4, #0
 542              		.loc 1 479 0
 543 00da 2046     		mov	r0, r4
 544              	.LVL49:
 545 00dc BDE8F081 		pop	{r4, r5, r6, r7, r8, pc}
 546              	.LVL50:
 547              	.L68:
 548              		.loc 1 405 0 discriminator 1
 549 00e0 FFF7FEFF 		bl	port_halt
 550              	.LVL51:
 551              		.loc 1 408 0 discriminator 1
 552 00e4 0024     		movs	r4, #0
 553              	.LVL52:
 554 00e6 EDE7     		b	.L61
 555              	.LVL53:
 556              	.L49:
 557              		.loc 1 445 0
 558 00e8 05F11401 		add	r1, r5, #20
 559              	.LVL54:
 560 00ec B942     		cmp	r1, r7
 561 00ee D8D8     		bhi	.L53
 562              		.loc 1 453 0
 563 00f0 05F10801 		add	r1, r5, #8
 564 00f4 4144     		add	r1, r8, r1
 565 00f6 89B2     		uxth	r1, r1
 566              	.LVL55:
 567              		.loc 1 455 0
 568 00f8 DFF838E0 		ldr	lr, .L69+12
 569              		.loc 1 459 0
ARM GAS  /tmp/cc3s1bE4.s 			page 11


 570 00fc 5A52     		strh	r2, [r3, r1]	@ movhi
 571              		.loc 1 455 0
 572 00fe DEF80000 		ldr	r0, [lr, #0]
 573              		.loc 1 461 0
 574 0102 24F8081C 		strh	r1, [r4, #-8]	@ movhi
 575              		.loc 1 454 0
 576 0106 5E18     		adds	r6, r3, r1
 577              	.LVL56:
 578              		.loc 1 462 0
 579 0108 5A5A     		ldrh	r2, [r3, r1]
 580              		.loc 1 460 0
 581 010a A6F80280 		strh	r8, [r6, #2]	@ movhi
 582              		.loc 1 455 0
 583 010e 8642     		cmp	r6, r0
 584              		.loc 1 456 0
 585 0110 38BF     		it	cc
 586 0112 CEF80060 		strcc	r6, [lr, #0]
 587              		.loc 1 458 0
 588 0116 0020     		movs	r0, #0
 589              		.loc 1 462 0
 590 0118 B2F5C86F 		cmp	r2, #1600
 591              		.loc 1 463 0
 592 011c 18BF     		it	ne
 593 011e 9B18     		addne	r3, r3, r2
 594              		.loc 1 458 0
 595 0120 3071     		strb	r0, [r6, #4]
 596              		.loc 1 463 0
 597 0122 18BF     		it	ne
 598 0124 5980     		strhne	r1, [r3, #2]	@ movhi
 599 0126 B5E7     		b	.L55
 600              	.L70:
 601              		.align	2
 602              	.L69:
 603 0128 00000000 		.word	.LANCHOR1
 604 012c 00000000 		.word	.LANCHOR2
 605 0130 00000000 		.word	.LANCHOR4
 606 0134 00000000 		.word	.LANCHOR3
 607 0138 00000000 		.word	lwip_stats
 608              		.cfi_endproc
 609              	.LFE10:
 610              		.size	mem_trim, .-mem_trim
 611 013c AFF30080 		.section	.text.mem_malloc,"ax",%progbits
 612              		.align	2
 613              		.p2align 4,,15
 614              		.global	mem_malloc
 615              		.thumb
 616              		.thumb_func
 617              		.type	mem_malloc, %function
 618              	mem_malloc:
 619              	.LFB11:
 620              		.loc 1 492 0
 621              		.cfi_startproc
 622              		@ args = 0, pretend = 0, frame = 0
 623              		@ frame_needed = 0, uses_anonymous_args = 0
 624              	.LVL57:
 625 0000 2DE9F843 		push	{r3, r4, r5, r6, r7, r8, r9, lr}
 626              	.LCFI3:
ARM GAS  /tmp/cc3s1bE4.s 			page 12


 627              		.cfi_def_cfa_offset 32
 628              		.cfi_offset 3, -32
 629              		.cfi_offset 4, -28
 630              		.cfi_offset 5, -24
 631              		.cfi_offset 6, -20
 632              		.cfi_offset 7, -16
 633              		.cfi_offset 8, -12
 634              		.cfi_offset 9, -8
 635              		.cfi_offset 14, -4
 636              		.loc 1 500 0
 637 0004 0028     		cmp	r0, #0
 638 0006 3BD0     		beq	.L72
 639              		.loc 1 506 0
 640 0008 0330     		adds	r0, r0, #3
 641              	.LVL58:
 642 000a 4FF6FC77 		movw	r7, #65532
 643 000e 0740     		ands	r7, r7, r0
 644              	.LVL59:
 645              		.loc 1 508 0
 646 0010 0B2F     		cmp	r7, #11
 647 0012 37D9     		bls	.L87
 648              		.loc 1 513 0
 649 0014 B7F5C86F 		cmp	r7, #1600
 650 0018 98BF     		it	ls
 651 001a C7F5C865 		rsbls	r5, r7, #1600
 652 001e 2ED8     		bhi	.L108
 653              	.LVL60:
 654              	.L73:
 655              		.loc 1 518 0
 656 0020 0021     		movs	r1, #0
 657 0022 4F48     		ldr	r0, .L114
 658              	.LVL61:
 659              		.loc 1 529 0
 660 0024 DFF84481 		ldr	r8, .L114+12
 661              		.loc 1 518 0
 662 0028 FFF7FEFF 		bl	sys_arch_sem_wait
 663              	.LVL62:
 664              		.loc 1 529 0
 665 002c DFF840C1 		ldr	ip, .L114+16
 666 0030 D8F800E0 		ldr	lr, [r8, #0]
 667 0034 DCF80020 		ldr	r2, [ip, #0]
 668 0038 C2EB0E03 		rsb	r3, r2, lr
 669 003c 99B2     		uxth	r1, r3
 670 003e A942     		cmp	r1, r5
 671 0040 0B46     		mov	r3, r1
 672              	.LVL63:
 673 0042 09DB     		blt	.L98
 674 0044 0FE0     		b	.L74
 675              	.LVL64:
 676              	.L110:
 677              		.loc 1 544 0 discriminator 1
 678 0046 D05A     		ldrh	r0, [r2, r3]
 679 0048 A0F10806 		sub	r6, r0, #8
 680 004c F61A     		subs	r6, r6, r3
 681              		.loc 1 543 0 discriminator 1
 682 004e BE42     		cmp	r6, r7
 683 0050 1CD2     		bcs	.L109
ARM GAS  /tmp/cc3s1bE4.s 			page 13


 684              		.loc 1 544 0
 685 0052 0346     		mov	r3, r0
 686              	.LVL65:
 687              		.loc 1 529 0
 688 0054 AB42     		cmp	r3, r5
 689 0056 06DA     		bge	.L74
 690              	.LVL66:
 691              	.L98:
 692              		.loc 1 531 0
 693 0058 D418     		adds	r4, r2, r3
 694              	.LVL67:
 695              		.loc 1 543 0
 696 005a 2179     		ldrb	r1, [r4, #4]	@ zero_extendqisi2
 697 005c 0029     		cmp	r1, #0
 698 005e F2D0     		beq	.L110
 699 0060 D35A     		ldrh	r3, [r2, r3]
 700              	.LVL68:
 701              		.loc 1 529 0
 702 0062 AB42     		cmp	r3, r5
 703 0064 F8DB     		blt	.L98
 704              	.LVL69:
 705              	.L74:
 706              		.loc 1 612 0
 707 0066 3F4B     		ldr	r3, .L114+4
 708              		.loc 1 614 0
 709 0068 3D48     		ldr	r0, .L114
 710              		.loc 1 612 0
 711 006a B3F8AE20 		ldrh	r2, [r3, #174]
 712 006e 0132     		adds	r2, r2, #1
 713 0070 A3F8AE20 		strh	r2, [r3, #174]	@ movhi
 714              		.loc 1 614 0
 715 0074 FFF7FEFF 		bl	sys_sem_signal
 716              	.LVL70:
 717              		.loc 1 615 0
 718 0078 0020     		movs	r0, #0
 719 007a BDE8F883 		pop	{r3, r4, r5, r6, r7, r8, r9, pc}
 720              	.LVL71:
 721              	.L108:
 722              		.loc 1 514 0
 723 007e 0020     		movs	r0, #0
 724              	.LVL72:
 725              	.L72:
 726              		.loc 1 616 0
 727 0080 BDE8F883 		pop	{r3, r4, r5, r6, r7, r8, r9, pc}
 728              	.LVL73:
 729              	.L87:
 730              		.loc 1 508 0
 731 0084 40F23465 		movw	r5, #1588
 732              		.loc 1 510 0
 733 0088 0C27     		movs	r7, #12
 734              	.LVL74:
 735 008a C9E7     		b	.L73
 736              	.LVL75:
 737              	.L109:
 738              		.loc 1 548 0
 739 008c 07F11405 		add	r5, r7, #20
 740 0090 B542     		cmp	r5, r6
ARM GAS  /tmp/cc3s1bE4.s 			page 14


 741 0092 22D9     		bls	.L111
 742              		.loc 1 582 0
 743 0094 334B     		ldr	r3, .L114+4
 744              		.loc 1 581 0
 745 0096 0121     		movs	r1, #1
 746 0098 2171     		strb	r1, [r4, #4]
 747              		.loc 1 582 0
 748 009a B3F8AA50 		ldrh	r5, [r3, #170]
 749 009e B3F8AC10 		ldrh	r1, [r3, #172]
 750 00a2 4019     		adds	r0, r0, r5
 751 00a4 A21A     		subs	r2, r4, r2
 752 00a6 821A     		subs	r2, r0, r2
 753 00a8 92B2     		uxth	r2, r2
 754 00aa 9142     		cmp	r1, r2
 755 00ac A3F8AA20 		strh	r2, [r3, #170]	@ movhi
 756 00b0 38BF     		it	cc
 757 00b2 A3F8AC20 		strhcc	r2, [r3, #172]	@ movhi
 758 00b6 07F10805 		add	r5, r7, #8
 759              	.L79:
 760              		.loc 1 585 0
 761 00ba A645     		cmp	lr, r4
 762 00bc 39D0     		beq	.L104
 763 00be 2A4E     		ldr	r6, .L114+8
 764              	.L80:
 765              		.loc 1 596 0
 766 00c0 2748     		ldr	r0, .L114
 767 00c2 FFF7FEFF 		bl	sys_sem_signal
 768              	.LVL76:
 769              		.loc 1 597 0
 770 00c6 3368     		ldr	r3, [r6, #0]
 771 00c8 6519     		adds	r5, r4, r5
 772 00ca AB42     		cmp	r3, r5
 773 00cc 2ED3     		bcc	.L112
 774              	.L83:
 775              		.loc 1 599 0
 776 00ce A207     		lsls	r2, r4, #30
 777 00d0 27D1     		bne	.L113
 778              	.L84:
 779              		.loc 1 604 0
 780 00d2 04F10800 		add	r0, r4, #8
 781 00d6 BDE8F883 		pop	{r3, r4, r5, r6, r7, r8, r9, pc}
 782              	.L111:
 783              		.loc 1 559 0
 784 00da 07F10805 		add	r5, r7, #8
 785 00de 5E19     		adds	r6, r3, r5
 786 00e0 B6B2     		uxth	r6, r6
 787              	.LVL77:
 788              		.loc 1 561 0
 789 00e2 02EB0609 		add	r9, r2, r6
 790              	.LVL78:
 791              		.loc 1 563 0
 792 00e6 9053     		strh	r0, [r2, r6]	@ movhi
 793              		.loc 1 566 0
 794 00e8 2680     		strh	r6, [r4, #0]	@ movhi
 795              		.loc 1 569 0
 796 00ea 905B     		ldrh	r0, [r2, r6]
 797              		.loc 1 564 0
ARM GAS  /tmp/cc3s1bE4.s 			page 15


 798 00ec A9F80230 		strh	r3, [r9, #2]	@ movhi
 799              		.loc 1 567 0
 800 00f0 0123     		movs	r3, #1
 801              		.loc 1 569 0
 802 00f2 B0F5C86F 		cmp	r0, #1600
 803              		.loc 1 562 0
 804 00f6 89F80410 		strb	r1, [r9, #4]
 805              		.loc 1 570 0
 806 00fa 18BF     		it	ne
 807 00fc 1218     		addne	r2, r2, r0
 808              		.loc 1 567 0
 809 00fe 2371     		strb	r3, [r4, #4]
 810              		.loc 1 572 0
 811 0100 184B     		ldr	r3, .L114+4
 812              		.loc 1 570 0
 813 0102 18BF     		it	ne
 814 0104 5680     		strhne	r6, [r2, #2]	@ movhi
 815              		.loc 1 572 0
 816 0106 B3F8AA20 		ldrh	r2, [r3, #170]
 817 010a B3F8AC10 		ldrh	r1, [r3, #172]
 818 010e 0832     		adds	r2, r2, #8
 819 0110 BA18     		adds	r2, r7, r2
 820 0112 92B2     		uxth	r2, r2
 821 0114 9142     		cmp	r1, r2
 822 0116 A3F8AA20 		strh	r2, [r3, #170]	@ movhi
 823 011a 38BF     		it	cc
 824 011c A3F8AC20 		strhcc	r2, [r3, #172]	@ movhi
 825 0120 CBE7     		b	.L79
 826              	.LVL79:
 827              	.L113:
 828              		.loc 1 599 0 discriminator 1
 829 0122 FFF7FEFF 		bl	port_halt
 830              	.LVL80:
 831              		.loc 1 601 0 discriminator 1
 832 0126 FFF7FEFF 		bl	port_halt
 833              	.LVL81:
 834 012a D2E7     		b	.L84
 835              	.L112:
 836              		.loc 1 597 0 discriminator 1
 837 012c FFF7FEFF 		bl	port_halt
 838              	.LVL82:
 839 0130 CDE7     		b	.L83
 840              	.L104:
 841              		.loc 1 587 0 discriminator 1
 842 0132 9EF80430 		ldrb	r3, [lr, #4]	@ zero_extendqisi2
 843 0136 0C4E     		ldr	r6, .L114+8
 844 0138 002B     		cmp	r3, #0
 845 013a C1D0     		beq	.L80
 846              		.loc 1 587 0 is_stmt 0
 847 013c 3268     		ldr	r2, [r6, #0]
 848 013e 9645     		cmp	lr, r2
 849 0140 BED0     		beq	.L80
 850 0142 DCF80010 		ldr	r1, [ip, #0]
 851 0146 01E0     		b	.L82
 852              	.L81:
 853              		.loc 1 587 0 discriminator 2
 854 0148 9645     		cmp	lr, r2
ARM GAS  /tmp/cc3s1bE4.s 			page 16


 855 014a 06D0     		beq	.L107
 856              	.L82:
 857              		.loc 1 591 0 is_stmt 1
 858 014c BEF800E0 		ldrh	lr, [lr, #0]
 859 0150 8E44     		add	lr, r1, lr
 860              		.loc 1 587 0
 861 0152 9EF80430 		ldrb	r3, [lr, #4]	@ zero_extendqisi2
 862 0156 002B     		cmp	r3, #0
 863 0158 F6D1     		bne	.L81
 864              	.L107:
 865 015a C8F800E0 		str	lr, [r8, #0]
 866 015e AFE7     		b	.L80
 867              	.L115:
 868              		.align	2
 869              	.L114:
 870 0160 00000000 		.word	.LANCHOR4
 871 0164 00000000 		.word	lwip_stats
 872 0168 00000000 		.word	.LANCHOR2
 873 016c 00000000 		.word	.LANCHOR3
 874 0170 00000000 		.word	.LANCHOR1
 875              		.cfi_endproc
 876              	.LFE11:
 877              		.size	mem_malloc, .-mem_malloc
 878 0174 AFF30080 		.section	.text.mem_calloc,"ax",%progbits
 878      AFF30080 
 878      AFF30080 
 879              		.align	2
 880              		.p2align 4,,15
 881              		.global	mem_calloc
 882              		.thumb
 883              		.thumb_func
 884              		.type	mem_calloc, %function
 885              	mem_calloc:
 886              	.LFB12:
 887              		.loc 1 630 0
 888              		.cfi_startproc
 889              		@ args = 0, pretend = 0, frame = 0
 890              		@ frame_needed = 0, uses_anonymous_args = 0
 891              	.LVL83:
 892 0000 38B5     		push	{r3, r4, r5, lr}
 893              	.LCFI4:
 894              		.cfi_def_cfa_offset 16
 895              		.cfi_offset 3, -16
 896              		.cfi_offset 4, -12
 897              		.cfi_offset 5, -8
 898              		.cfi_offset 14, -4
 899              		.loc 1 634 0
 900 0002 00FB01F4 		mul	r4, r0, r1
 901 0006 A0B2     		uxth	r0, r4
 902              	.LVL84:
 903 0008 FFF7FEFF 		bl	mem_malloc
 904              	.LVL85:
 905              		.loc 1 635 0
 906 000c 0546     		mov	r5, r0
 907 000e 18B1     		cbz	r0, .L117
 908              		.loc 1 637 0
 909 0010 0021     		movs	r1, #0
ARM GAS  /tmp/cc3s1bE4.s 			page 17


 910 0012 2246     		mov	r2, r4
 911 0014 FFF7FEFF 		bl	memset
 912              	.LVL86:
 913              	.L117:
 914              		.loc 1 640 0
 915 0018 2846     		mov	r0, r5
 916 001a 38BD     		pop	{r3, r4, r5, pc}
 917              		.cfi_endproc
 918              	.LFE12:
 919              		.size	mem_calloc, .-mem_calloc
 920              		.global	ram_heap
 921 001c AFF30080 		.section	.bss.ram_heap,"aw",%nobits
 922              		.align	2
 923              		.set	.LANCHOR0,. + 0
 924              		.type	ram_heap, %object
 925              		.size	ram_heap, 1620
 926              	ram_heap:
 927 0000 00000000 		.space	1620
 927      00000000 
 927      00000000 
 927      00000000 
 927      00000000 
 928              		.section	.bss.lfree,"aw",%nobits
 929              		.align	2
 930              		.set	.LANCHOR3,. + 0
 931              		.type	lfree, %object
 932              		.size	lfree, 4
 933              	lfree:
 934 0000 00000000 		.space	4
 935              		.section	.bss.ram_end,"aw",%nobits
 936              		.align	2
 937              		.set	.LANCHOR2,. + 0
 938              		.type	ram_end, %object
 939              		.size	ram_end, 4
 940              	ram_end:
 941 0000 00000000 		.space	4
 942              		.section	.bss.mem_mutex,"aw",%nobits
 943              		.align	2
 944              		.set	.LANCHOR4,. + 0
 945              		.type	mem_mutex, %object
 946              		.size	mem_mutex, 4
 947              	mem_mutex:
 948 0000 00000000 		.space	4
 949              		.section	.bss.ram,"aw",%nobits
 950              		.align	2
 951              		.set	.LANCHOR1,. + 0
 952              		.type	ram, %object
 953              		.size	ram, 4
 954              	ram:
 955 0000 00000000 		.space	4
 956              		.text
 957              	.Letext0:
 958              		.file 2 "/opt/psas/x-tools/stm32f407/arm-psas-eabi/bin/../lib/gcc/arm-psas-eabi/4.7.2/../../../../
 959              		.file 3 "../../os/ports/GCC/ARMCMx/chtypes.h"
 960              		.file 4 "../../os/kernel/include/chlists.h"
 961              		.file 5 "../../os/kernel/include/chthreads.h"
 962              		.file 6 "../../os/ports/GCC/ARMCMx/chcore_v7m.h"
ARM GAS  /tmp/cc3s1bE4.s 			page 18


 963              		.file 7 "../../os/kernel/include/chsem.h"
 964              		.file 8 "../../os/kernel/include/chmtx.h"
 965              		.file 9 "../../os/various/lwip_bindings/arch/cc.h"
 966              		.file 10 "../../ext/lwip/src/include/lwip/mem.h"
 967              		.file 11 "../../ext/lwip/src/include/lwip/err.h"
 968              		.file 12 "../../os/various/lwip_bindings/arch/sys_arch.h"
 969              		.file 13 "../../ext/lwip/src/include/lwip/stats.h"
 970              		.file 14 "../../ext/lwip/src/include/lwip/sys.h"
 971              		.file 15 "../../ext/lwip/src/include/lwip/memp.h"
 972              		.section	.debug_info,"",%progbits
 973              	.Ldebug_info0:
 974 0000 E20B0000 		.4byte	0xbe2
 975 0004 0200     		.2byte	0x2
 976 0006 00000000 		.4byte	.Ldebug_abbrev0
 977 000a 04       		.byte	0x4
 978 000b 01       		.uleb128 0x1
 979 000c 04010000 		.4byte	.LASF131
 980 0010 01       		.byte	0x1
 981 0011 CB020000 		.4byte	.LASF132
 982 0015 0B030000 		.4byte	.LASF133
 983 0019 40000000 		.4byte	.Ldebug_ranges0+0x40
 984 001d 00000000 		.4byte	0
 985 0021 00000000 		.4byte	0
 986 0025 00000000 		.4byte	.Ldebug_line0
 987 0029 02       		.uleb128 0x2
 988 002a 04       		.byte	0x4
 989 002b 05       		.byte	0x5
 990 002c 696E7400 		.ascii	"int\000"
 991 0030 03       		.uleb128 0x3
 992 0031 04       		.byte	0x4
 993 0032 07       		.byte	0x7
 994 0033 6F000000 		.4byte	.LASF0
 995 0037 04       		.uleb128 0x4
 996 0038 EC000000 		.4byte	.LASF2
 997 003c 02       		.byte	0x2
 998 003d 29       		.byte	0x29
 999 003e 42000000 		.4byte	0x42
 1000 0042 03       		.uleb128 0x3
 1001 0043 01       		.byte	0x1
 1002 0044 06       		.byte	0x6
 1003 0045 16050000 		.4byte	.LASF1
 1004 0049 04       		.uleb128 0x4
 1005 004a 5C020000 		.4byte	.LASF3
 1006 004e 02       		.byte	0x2
 1007 004f 2A       		.byte	0x2a
 1008 0050 54000000 		.4byte	0x54
 1009 0054 03       		.uleb128 0x3
 1010 0055 01       		.byte	0x1
 1011 0056 08       		.byte	0x8
 1012 0057 BF040000 		.4byte	.LASF4
 1013 005b 03       		.uleb128 0x3
 1014 005c 02       		.byte	0x2
 1015 005d 05       		.byte	0x5
 1016 005e BF030000 		.4byte	.LASF5
 1017 0062 04       		.uleb128 0x4
 1018 0063 8A030000 		.4byte	.LASF6
 1019 0067 02       		.byte	0x2
ARM GAS  /tmp/cc3s1bE4.s 			page 19


 1020 0068 36       		.byte	0x36
 1021 0069 6D000000 		.4byte	0x6d
 1022 006d 03       		.uleb128 0x3
 1023 006e 02       		.byte	0x2
 1024 006f 07       		.byte	0x7
 1025 0070 22050000 		.4byte	.LASF7
 1026 0074 04       		.uleb128 0x4
 1027 0075 A5040000 		.4byte	.LASF8
 1028 0079 02       		.byte	0x2
 1029 007a 4F       		.byte	0x4f
 1030 007b 7F000000 		.4byte	0x7f
 1031 007f 03       		.uleb128 0x3
 1032 0080 04       		.byte	0x4
 1033 0081 05       		.byte	0x5
 1034 0082 E1030000 		.4byte	.LASF9
 1035 0086 04       		.uleb128 0x4
 1036 0087 E3000000 		.4byte	.LASF10
 1037 008b 02       		.byte	0x2
 1038 008c 50       		.byte	0x50
 1039 008d 91000000 		.4byte	0x91
 1040 0091 03       		.uleb128 0x3
 1041 0092 04       		.byte	0x4
 1042 0093 07       		.byte	0x7
 1043 0094 93040000 		.4byte	.LASF11
 1044 0098 03       		.uleb128 0x3
 1045 0099 08       		.byte	0x8
 1046 009a 05       		.byte	0x5
 1047 009b 82020000 		.4byte	.LASF12
 1048 009f 03       		.uleb128 0x3
 1049 00a0 08       		.byte	0x8
 1050 00a1 07       		.byte	0x7
 1051 00a2 55010000 		.4byte	.LASF13
 1052 00a6 04       		.uleb128 0x4
 1053 00a7 82030000 		.4byte	.LASF14
 1054 00ab 03       		.byte	0x3
 1055 00ac 28       		.byte	0x28
 1056 00ad 49000000 		.4byte	0x49
 1057 00b1 04       		.uleb128 0x4
 1058 00b2 3A020000 		.4byte	.LASF15
 1059 00b6 03       		.byte	0x3
 1060 00b7 29       		.byte	0x29
 1061 00b8 49000000 		.4byte	0x49
 1062 00bc 04       		.uleb128 0x4
 1063 00bd 8B040000 		.4byte	.LASF16
 1064 00c1 03       		.byte	0x3
 1065 00c2 2A       		.byte	0x2a
 1066 00c3 49000000 		.4byte	0x49
 1067 00c7 04       		.uleb128 0x4
 1068 00c8 5C030000 		.4byte	.LASF17
 1069 00cc 03       		.byte	0x3
 1070 00cd 2B       		.byte	0x2b
 1071 00ce 49000000 		.4byte	0x49
 1072 00d2 04       		.uleb128 0x4
 1073 00d3 38010000 		.4byte	.LASF18
 1074 00d7 03       		.byte	0x3
 1075 00d8 2C       		.byte	0x2c
 1076 00d9 86000000 		.4byte	0x86
ARM GAS  /tmp/cc3s1bE4.s 			page 20


 1077 00dd 04       		.uleb128 0x4
 1078 00de 9C020000 		.4byte	.LASF19
 1079 00e2 03       		.byte	0x3
 1080 00e3 2D       		.byte	0x2d
 1081 00e4 74000000 		.4byte	0x74
 1082 00e8 04       		.uleb128 0x4
 1083 00e9 F8000000 		.4byte	.LASF20
 1084 00ed 03       		.byte	0x3
 1085 00ee 2F       		.byte	0x2f
 1086 00ef 86000000 		.4byte	0x86
 1087 00f3 04       		.uleb128 0x4
 1088 00f4 4A000000 		.4byte	.LASF21
 1089 00f8 03       		.byte	0x3
 1090 00f9 31       		.byte	0x31
 1091 00fa 86000000 		.4byte	0x86
 1092 00fe 04       		.uleb128 0x4
 1093 00ff 77010000 		.4byte	.LASF22
 1094 0103 03       		.byte	0x3
 1095 0104 32       		.byte	0x32
 1096 0105 74000000 		.4byte	0x74
 1097 0109 04       		.uleb128 0x4
 1098 010a 33020000 		.4byte	.LASF23
 1099 010e 04       		.byte	0x4
 1100 010f 23       		.byte	0x23
 1101 0110 14010000 		.4byte	0x114
 1102 0114 05       		.uleb128 0x5
 1103 0115 33020000 		.4byte	.LASF23
 1104 0119 48       		.byte	0x48
 1105 011a 05       		.byte	0x5
 1106 011b 57       		.byte	0x57
 1107 011c 39020000 		.4byte	0x239
 1108 0120 06       		.uleb128 0x6
 1109 0121 0C040000 		.4byte	.LASF24
 1110 0125 05       		.byte	0x5
 1111 0126 58       		.byte	0x58
 1112 0127 5E020000 		.4byte	0x25e
 1113 012b 02       		.byte	0x2
 1114 012c 23       		.byte	0x23
 1115 012d 00       		.uleb128 0
 1116 012e 06       		.uleb128 0x6
 1117 012f 7B040000 		.4byte	.LASF25
 1118 0133 05       		.byte	0x5
 1119 0134 5A       		.byte	0x5a
 1120 0135 5E020000 		.4byte	0x25e
 1121 0139 02       		.byte	0x2
 1122 013a 23       		.byte	0x23
 1123 013b 04       		.uleb128 0x4
 1124 013c 06       		.uleb128 0x6
 1125 013d 43000000 		.4byte	.LASF26
 1126 0141 05       		.byte	0x5
 1127 0142 5C       		.byte	0x5c
 1128 0143 D2000000 		.4byte	0xd2
 1129 0147 02       		.byte	0x2
 1130 0148 23       		.byte	0x23
 1131 0149 08       		.uleb128 0x8
 1132 014a 06       		.uleb128 0x6
 1133 014b 20040000 		.4byte	.LASF27
ARM GAS  /tmp/cc3s1bE4.s 			page 21


 1134 014f 05       		.byte	0x5
 1135 0150 5D       		.byte	0x5d
 1136 0151 2C030000 		.4byte	0x32c
 1137 0155 02       		.byte	0x2
 1138 0156 23       		.byte	0x23
 1139 0157 0C       		.uleb128 0xc
 1140 0158 06       		.uleb128 0x6
 1141 0159 7D010000 		.4byte	.LASF28
 1142 015d 05       		.byte	0x5
 1143 015e 5F       		.byte	0x5f
 1144 015f 5E020000 		.4byte	0x25e
 1145 0163 02       		.byte	0x2
 1146 0164 23       		.byte	0x23
 1147 0165 10       		.uleb128 0x10
 1148 0166 06       		.uleb128 0x6
 1149 0167 4C020000 		.4byte	.LASF29
 1150 016b 05       		.byte	0x5
 1151 016c 60       		.byte	0x60
 1152 016d 5E020000 		.4byte	0x25e
 1153 0171 02       		.byte	0x2
 1154 0172 23       		.byte	0x23
 1155 0173 14       		.uleb128 0x14
 1156 0174 06       		.uleb128 0x6
 1157 0175 F9010000 		.4byte	.LASF30
 1158 0179 05       		.byte	0x5
 1159 017a 67       		.byte	0x67
 1160 017b 0C040000 		.4byte	0x40c
 1161 017f 02       		.byte	0x2
 1162 0180 23       		.byte	0x23
 1163 0181 18       		.uleb128 0x18
 1164 0182 06       		.uleb128 0x6
 1165 0183 54020000 		.4byte	.LASF31
 1166 0187 05       		.byte	0x5
 1167 0188 72       		.byte	0x72
 1168 0189 B1000000 		.4byte	0xb1
 1169 018d 02       		.byte	0x2
 1170 018e 23       		.byte	0x23
 1171 018f 1C       		.uleb128 0x1c
 1172 0190 06       		.uleb128 0x6
 1173 0191 B4020000 		.4byte	.LASF32
 1174 0195 05       		.byte	0x5
 1175 0196 76       		.byte	0x76
 1176 0197 A6000000 		.4byte	0xa6
 1177 019b 02       		.byte	0x2
 1178 019c 23       		.byte	0x23
 1179 019d 1D       		.uleb128 0x1d
 1180 019e 06       		.uleb128 0x6
 1181 019f D8040000 		.4byte	.LASF33
 1182 01a3 05       		.byte	0x5
 1183 01a4 7B       		.byte	0x7b
 1184 01a5 BC000000 		.4byte	0xbc
 1185 01a9 02       		.byte	0x2
 1186 01aa 23       		.byte	0x23
 1187 01ab 1E       		.uleb128 0x1e
 1188 01ac 06       		.uleb128 0x6
 1189 01ad FB040000 		.4byte	.LASF34
 1190 01b1 05       		.byte	0x5
ARM GAS  /tmp/cc3s1bE4.s 			page 22


 1191 01b2 81       		.byte	0x81
 1192 01b3 C7000000 		.4byte	0xc7
 1193 01b7 02       		.byte	0x2
 1194 01b8 23       		.byte	0x23
 1195 01b9 1F       		.uleb128 0x1f
 1196 01ba 06       		.uleb128 0x6
 1197 01bb 33000000 		.4byte	.LASF35
 1198 01bf 05       		.byte	0x5
 1199 01c0 88       		.byte	0x88
 1200 01c1 56030000 		.4byte	0x356
 1201 01c5 02       		.byte	0x2
 1202 01c6 23       		.byte	0x23
 1203 01c7 20       		.uleb128 0x20
 1204 01c8 07       		.uleb128 0x7
 1205 01c9 705F7500 		.ascii	"p_u\000"
 1206 01cd 05       		.byte	0x5
 1207 01ce AD       		.byte	0xad
 1208 01cf D7030000 		.4byte	0x3d7
 1209 01d3 02       		.byte	0x2
 1210 01d4 23       		.byte	0x23
 1211 01d5 24       		.uleb128 0x24
 1212 01d6 06       		.uleb128 0x6
 1213 01d7 0C000000 		.4byte	.LASF36
 1214 01db 05       		.byte	0x5
 1215 01dc B2       		.byte	0xb2
 1216 01dd 86020000 		.4byte	0x286
 1217 01e1 02       		.byte	0x2
 1218 01e2 23       		.byte	0x23
 1219 01e3 28       		.uleb128 0x28
 1220 01e4 06       		.uleb128 0x6
 1221 01e5 64000000 		.4byte	.LASF37
 1222 01e9 05       		.byte	0x5
 1223 01ea B8       		.byte	0xb8
 1224 01eb 64020000 		.4byte	0x264
 1225 01ef 02       		.byte	0x2
 1226 01f0 23       		.byte	0x23
 1227 01f1 2C       		.uleb128 0x2c
 1228 01f2 06       		.uleb128 0x6
 1229 01f3 7C030000 		.4byte	.LASF38
 1230 01f7 05       		.byte	0x5
 1231 01f8 BC       		.byte	0xbc
 1232 01f9 DD000000 		.4byte	0xdd
 1233 01fd 02       		.byte	0x2
 1234 01fe 23       		.byte	0x23
 1235 01ff 34       		.uleb128 0x34
 1236 0200 06       		.uleb128 0x6
 1237 0201 CE030000 		.4byte	.LASF39
 1238 0205 05       		.byte	0x5
 1239 0206 C2       		.byte	0xc2
 1240 0207 E8000000 		.4byte	0xe8
 1241 020b 02       		.byte	0x2
 1242 020c 23       		.byte	0x23
 1243 020d 38       		.uleb128 0x38
 1244 020e 06       		.uleb128 0x6
 1245 020f 6C020000 		.4byte	.LASF40
 1246 0213 05       		.byte	0x5
 1247 0214 C9       		.byte	0xc9
ARM GAS  /tmp/cc3s1bE4.s 			page 23


 1248 0215 1E040000 		.4byte	0x41e
 1249 0219 02       		.byte	0x2
 1250 021a 23       		.byte	0x23
 1251 021b 3C       		.uleb128 0x3c
 1252 021c 06       		.uleb128 0x6
 1253 021d AE030000 		.4byte	.LASF41
 1254 0221 05       		.byte	0x5
 1255 0222 CD       		.byte	0xcd
 1256 0223 D2000000 		.4byte	0xd2
 1257 0227 02       		.byte	0x2
 1258 0228 23       		.byte	0x23
 1259 0229 40       		.uleb128 0x40
 1260 022a 06       		.uleb128 0x6
 1261 022b 64020000 		.4byte	.LASF42
 1262 022f 05       		.byte	0x5
 1263 0230 D3       		.byte	0xd3
 1264 0231 9C020000 		.4byte	0x29c
 1265 0235 02       		.byte	0x2
 1266 0236 23       		.byte	0x23
 1267 0237 44       		.uleb128 0x44
 1268 0238 00       		.byte	0
 1269 0239 08       		.uleb128 0x8
 1270 023a 08       		.byte	0x8
 1271 023b 04       		.byte	0x4
 1272 023c 5A       		.byte	0x5a
 1273 023d 5E020000 		.4byte	0x25e
 1274 0241 06       		.uleb128 0x6
 1275 0242 0C040000 		.4byte	.LASF24
 1276 0246 04       		.byte	0x4
 1277 0247 5B       		.byte	0x5b
 1278 0248 5E020000 		.4byte	0x25e
 1279 024c 02       		.byte	0x2
 1280 024d 23       		.byte	0x23
 1281 024e 00       		.uleb128 0
 1282 024f 06       		.uleb128 0x6
 1283 0250 7B040000 		.4byte	.LASF25
 1284 0254 04       		.byte	0x4
 1285 0255 5D       		.byte	0x5d
 1286 0256 5E020000 		.4byte	0x25e
 1287 025a 02       		.byte	0x2
 1288 025b 23       		.byte	0x23
 1289 025c 04       		.uleb128 0x4
 1290 025d 00       		.byte	0
 1291 025e 09       		.uleb128 0x9
 1292 025f 04       		.byte	0x4
 1293 0260 09010000 		.4byte	0x109
 1294 0264 04       		.uleb128 0x4
 1295 0265 0A020000 		.4byte	.LASF43
 1296 0269 04       		.byte	0x4
 1297 026a 5F       		.byte	0x5f
 1298 026b 39020000 		.4byte	0x239
 1299 026f 08       		.uleb128 0x8
 1300 0270 04       		.byte	0x4
 1301 0271 04       		.byte	0x4
 1302 0272 64       		.byte	0x64
 1303 0273 86020000 		.4byte	0x286
 1304 0277 06       		.uleb128 0x6
ARM GAS  /tmp/cc3s1bE4.s 			page 24


 1305 0278 0C040000 		.4byte	.LASF24
 1306 027c 04       		.byte	0x4
 1307 027d 66       		.byte	0x66
 1308 027e 5E020000 		.4byte	0x25e
 1309 0282 02       		.byte	0x2
 1310 0283 23       		.byte	0x23
 1311 0284 00       		.uleb128 0
 1312 0285 00       		.byte	0
 1313 0286 04       		.uleb128 0x4
 1314 0287 00000000 		.4byte	.LASF44
 1315 028b 04       		.byte	0x4
 1316 028c 69       		.byte	0x69
 1317 028d 6F020000 		.4byte	0x26f
 1318 0291 04       		.uleb128 0x4
 1319 0292 3A000000 		.4byte	.LASF45
 1320 0296 06       		.byte	0x6
 1321 0297 DE       		.byte	0xde
 1322 0298 9C020000 		.4byte	0x29c
 1323 029c 0A       		.uleb128 0xa
 1324 029d 04       		.byte	0x4
 1325 029e 0B       		.uleb128 0xb
 1326 029f 93030000 		.4byte	.LASF46
 1327 02a3 24       		.byte	0x24
 1328 02a4 06       		.byte	0x6
 1329 02a5 0501     		.2byte	0x105
 1330 02a7 2C030000 		.4byte	0x32c
 1331 02ab 0C       		.uleb128 0xc
 1332 02ac 723400   		.ascii	"r4\000"
 1333 02af 06       		.byte	0x6
 1334 02b0 1801     		.2byte	0x118
 1335 02b2 91020000 		.4byte	0x291
 1336 02b6 02       		.byte	0x2
 1337 02b7 23       		.byte	0x23
 1338 02b8 00       		.uleb128 0
 1339 02b9 0C       		.uleb128 0xc
 1340 02ba 723500   		.ascii	"r5\000"
 1341 02bd 06       		.byte	0x6
 1342 02be 1901     		.2byte	0x119
 1343 02c0 91020000 		.4byte	0x291
 1344 02c4 02       		.byte	0x2
 1345 02c5 23       		.byte	0x23
 1346 02c6 04       		.uleb128 0x4
 1347 02c7 0C       		.uleb128 0xc
 1348 02c8 723600   		.ascii	"r6\000"
 1349 02cb 06       		.byte	0x6
 1350 02cc 1A01     		.2byte	0x11a
 1351 02ce 91020000 		.4byte	0x291
 1352 02d2 02       		.byte	0x2
 1353 02d3 23       		.byte	0x23
 1354 02d4 08       		.uleb128 0x8
 1355 02d5 0C       		.uleb128 0xc
 1356 02d6 723700   		.ascii	"r7\000"
 1357 02d9 06       		.byte	0x6
 1358 02da 1B01     		.2byte	0x11b
 1359 02dc 91020000 		.4byte	0x291
 1360 02e0 02       		.byte	0x2
 1361 02e1 23       		.byte	0x23
ARM GAS  /tmp/cc3s1bE4.s 			page 25


 1362 02e2 0C       		.uleb128 0xc
 1363 02e3 0C       		.uleb128 0xc
 1364 02e4 723800   		.ascii	"r8\000"
 1365 02e7 06       		.byte	0x6
 1366 02e8 1C01     		.2byte	0x11c
 1367 02ea 91020000 		.4byte	0x291
 1368 02ee 02       		.byte	0x2
 1369 02ef 23       		.byte	0x23
 1370 02f0 10       		.uleb128 0x10
 1371 02f1 0C       		.uleb128 0xc
 1372 02f2 723900   		.ascii	"r9\000"
 1373 02f5 06       		.byte	0x6
 1374 02f6 1D01     		.2byte	0x11d
 1375 02f8 91020000 		.4byte	0x291
 1376 02fc 02       		.byte	0x2
 1377 02fd 23       		.byte	0x23
 1378 02fe 14       		.uleb128 0x14
 1379 02ff 0C       		.uleb128 0xc
 1380 0300 72313000 		.ascii	"r10\000"
 1381 0304 06       		.byte	0x6
 1382 0305 1E01     		.2byte	0x11e
 1383 0307 91020000 		.4byte	0x291
 1384 030b 02       		.byte	0x2
 1385 030c 23       		.byte	0x23
 1386 030d 18       		.uleb128 0x18
 1387 030e 0C       		.uleb128 0xc
 1388 030f 72313100 		.ascii	"r11\000"
 1389 0313 06       		.byte	0x6
 1390 0314 1F01     		.2byte	0x11f
 1391 0316 91020000 		.4byte	0x291
 1392 031a 02       		.byte	0x2
 1393 031b 23       		.byte	0x23
 1394 031c 1C       		.uleb128 0x1c
 1395 031d 0C       		.uleb128 0xc
 1396 031e 6C7200   		.ascii	"lr\000"
 1397 0321 06       		.byte	0x6
 1398 0322 2001     		.2byte	0x120
 1399 0324 91020000 		.4byte	0x291
 1400 0328 02       		.byte	0x2
 1401 0329 23       		.byte	0x23
 1402 032a 20       		.uleb128 0x20
 1403 032b 00       		.byte	0
 1404 032c 0B       		.uleb128 0xb
 1405 032d A2020000 		.4byte	.LASF47
 1406 0331 04       		.byte	0x4
 1407 0332 06       		.byte	0x6
 1408 0333 2A01     		.2byte	0x12a
 1409 0335 49030000 		.4byte	0x349
 1410 0339 0C       		.uleb128 0xc
 1411 033a 72313300 		.ascii	"r13\000"
 1412 033e 06       		.byte	0x6
 1413 033f 2B01     		.2byte	0x12b
 1414 0341 49030000 		.4byte	0x349
 1415 0345 02       		.byte	0x2
 1416 0346 23       		.byte	0x23
 1417 0347 00       		.uleb128 0
 1418 0348 00       		.byte	0
ARM GAS  /tmp/cc3s1bE4.s 			page 26


 1419 0349 09       		.uleb128 0x9
 1420 034a 04       		.byte	0x4
 1421 034b 9E020000 		.4byte	0x29e
 1422 034f 03       		.uleb128 0x3
 1423 0350 04       		.byte	0x4
 1424 0351 07       		.byte	0x7
 1425 0352 82040000 		.4byte	.LASF48
 1426 0356 0D       		.uleb128 0xd
 1427 0357 F3000000 		.4byte	0xf3
 1428 035b 05       		.uleb128 0x5
 1429 035c 55040000 		.4byte	.LASF49
 1430 0360 0C       		.byte	0xc
 1431 0361 07       		.byte	0x7
 1432 0362 25       		.byte	0x25
 1433 0363 84030000 		.4byte	0x384
 1434 0367 06       		.uleb128 0x6
 1435 0368 5C000000 		.4byte	.LASF50
 1436 036c 07       		.byte	0x7
 1437 036d 26       		.byte	0x26
 1438 036e 64020000 		.4byte	0x264
 1439 0372 02       		.byte	0x2
 1440 0373 23       		.byte	0x23
 1441 0374 00       		.uleb128 0
 1442 0375 06       		.uleb128 0x6
 1443 0376 CF000000 		.4byte	.LASF51
 1444 037a 07       		.byte	0x7
 1445 037b 28       		.byte	0x28
 1446 037c FE000000 		.4byte	0xfe
 1447 0380 02       		.byte	0x2
 1448 0381 23       		.byte	0x23
 1449 0382 08       		.uleb128 0x8
 1450 0383 00       		.byte	0
 1451 0384 04       		.uleb128 0x4
 1452 0385 55040000 		.4byte	.LASF49
 1453 0389 07       		.byte	0x7
 1454 038a 29       		.byte	0x29
 1455 038b 5B030000 		.4byte	0x35b
 1456 038f 05       		.uleb128 0x5
 1457 0390 DD010000 		.4byte	.LASF52
 1458 0394 10       		.byte	0x10
 1459 0395 08       		.byte	0x8
 1460 0396 25       		.byte	0x25
 1461 0397 C6030000 		.4byte	0x3c6
 1462 039b 06       		.uleb128 0x6
 1463 039c D9030000 		.4byte	.LASF53
 1464 03a0 08       		.byte	0x8
 1465 03a1 26       		.byte	0x26
 1466 03a2 64020000 		.4byte	0x264
 1467 03a6 02       		.byte	0x2
 1468 03a7 23       		.byte	0x23
 1469 03a8 00       		.uleb128 0
 1470 03a9 06       		.uleb128 0x6
 1471 03aa 54000000 		.4byte	.LASF54
 1472 03ae 08       		.byte	0x8
 1473 03af 28       		.byte	0x28
 1474 03b0 5E020000 		.4byte	0x25e
 1475 03b4 02       		.byte	0x2
ARM GAS  /tmp/cc3s1bE4.s 			page 27


 1476 03b5 23       		.byte	0x23
 1477 03b6 08       		.uleb128 0x8
 1478 03b7 06       		.uleb128 0x6
 1479 03b8 0F050000 		.4byte	.LASF55
 1480 03bc 08       		.byte	0x8
 1481 03bd 2A       		.byte	0x2a
 1482 03be C6030000 		.4byte	0x3c6
 1483 03c2 02       		.byte	0x2
 1484 03c3 23       		.byte	0x23
 1485 03c4 0C       		.uleb128 0xc
 1486 03c5 00       		.byte	0
 1487 03c6 09       		.uleb128 0x9
 1488 03c7 04       		.byte	0x4
 1489 03c8 8F030000 		.4byte	0x38f
 1490 03cc 04       		.uleb128 0x4
 1491 03cd DD010000 		.4byte	.LASF52
 1492 03d1 08       		.byte	0x8
 1493 03d2 2C       		.byte	0x2c
 1494 03d3 8F030000 		.4byte	0x38f
 1495 03d7 0E       		.uleb128 0xe
 1496 03d8 04       		.byte	0x4
 1497 03d9 05       		.byte	0x5
 1498 03da 8F       		.byte	0x8f
 1499 03db 0C040000 		.4byte	0x40c
 1500 03df 0F       		.uleb128 0xf
 1501 03e0 B5010000 		.4byte	.LASF56
 1502 03e4 05       		.byte	0x5
 1503 03e5 96       		.byte	0x96
 1504 03e6 DD000000 		.4byte	0xdd
 1505 03ea 0F       		.uleb128 0xf
 1506 03eb 3A050000 		.4byte	.LASF57
 1507 03ef 05       		.byte	0x5
 1508 03f0 9D       		.byte	0x9d
 1509 03f1 DD000000 		.4byte	0xdd
 1510 03f5 0F       		.uleb128 0xf
 1511 03f6 93000000 		.4byte	.LASF58
 1512 03fa 05       		.byte	0x5
 1513 03fb A4       		.byte	0xa4
 1514 03fc 9C020000 		.4byte	0x29c
 1515 0400 0F       		.uleb128 0xf
 1516 0401 A4000000 		.4byte	.LASF59
 1517 0405 05       		.byte	0x5
 1518 0406 AB       		.byte	0xab
 1519 0407 E8000000 		.4byte	0xe8
 1520 040b 00       		.byte	0
 1521 040c 09       		.uleb128 0x9
 1522 040d 04       		.byte	0x4
 1523 040e 12040000 		.4byte	0x412
 1524 0412 10       		.uleb128 0x10
 1525 0413 17040000 		.4byte	0x417
 1526 0417 03       		.uleb128 0x3
 1527 0418 01       		.byte	0x1
 1528 0419 08       		.byte	0x8
 1529 041a 17020000 		.4byte	.LASF60
 1530 041e 09       		.uleb128 0x9
 1531 041f 04       		.byte	0x4
 1532 0420 CC030000 		.4byte	0x3cc
ARM GAS  /tmp/cc3s1bE4.s 			page 28


 1533 0424 04       		.uleb128 0x4
 1534 0425 AF020000 		.4byte	.LASF61
 1535 0429 09       		.byte	0x9
 1536 042a 3C       		.byte	0x3c
 1537 042b 49000000 		.4byte	0x49
 1538 042f 04       		.uleb128 0x4
 1539 0430 CF010000 		.4byte	.LASF62
 1540 0434 09       		.byte	0x9
 1541 0435 3D       		.byte	0x3d
 1542 0436 37000000 		.4byte	0x37
 1543 043a 04       		.uleb128 0x4
 1544 043b 8D000000 		.4byte	.LASF63
 1545 043f 09       		.byte	0x9
 1546 0440 3E       		.byte	0x3e
 1547 0441 62000000 		.4byte	0x62
 1548 0445 04       		.uleb128 0x4
 1549 0446 B9030000 		.4byte	.LASF64
 1550 044a 09       		.byte	0x9
 1551 044b 40       		.byte	0x40
 1552 044c 86000000 		.4byte	0x86
 1553 0450 04       		.uleb128 0x4
 1554 0451 4B040000 		.4byte	.LASF65
 1555 0455 09       		.byte	0x9
 1556 0456 42       		.byte	0x42
 1557 0457 86000000 		.4byte	0x86
 1558 045b 04       		.uleb128 0x4
 1559 045c 1C020000 		.4byte	.LASF66
 1560 0460 0A       		.byte	0xa
 1561 0461 4B       		.byte	0x4b
 1562 0462 3A040000 		.4byte	0x43a
 1563 0466 04       		.uleb128 0x4
 1564 0467 81000000 		.4byte	.LASF67
 1565 046b 0B       		.byte	0xb
 1566 046c 2F       		.byte	0x2f
 1567 046d 2F040000 		.4byte	0x42f
 1568 0471 04       		.uleb128 0x4
 1569 0472 BC010000 		.4byte	.LASF68
 1570 0476 0C       		.byte	0xc
 1571 0477 3C       		.byte	0x3c
 1572 0478 7C040000 		.4byte	0x47c
 1573 047c 09       		.uleb128 0x9
 1574 047d 04       		.byte	0x4
 1575 047e 84030000 		.4byte	0x384
 1576 0482 11       		.uleb128 0x11
 1577 0483 01       		.byte	0x1
 1578 0484 0F       		.byte	0xf
 1579 0485 2B       		.byte	0x2b
 1580 0486 E5040000 		.4byte	0x4e5
 1581 048a 12       		.uleb128 0x12
 1582 048b 6E040000 		.4byte	.LASF69
 1583 048f 00       		.sleb128 0
 1584 0490 12       		.uleb128 0x12
 1585 0491 13040000 		.4byte	.LASF70
 1586 0495 01       		.sleb128 1
 1587 0496 12       		.uleb128 0x12
 1588 0497 A1030000 		.4byte	.LASF71
 1589 049b 02       		.sleb128 2
ARM GAS  /tmp/cc3s1bE4.s 			page 29


 1590 049c 12       		.uleb128 0x12
 1591 049d 1F000000 		.4byte	.LASF72
 1592 04a1 03       		.sleb128 3
 1593 04a2 12       		.uleb128 0x12
 1594 04a3 DF040000 		.4byte	.LASF73
 1595 04a7 04       		.sleb128 4
 1596 04a8 12       		.uleb128 0x12
 1597 04a9 66030000 		.4byte	.LASF74
 1598 04ad 05       		.sleb128 5
 1599 04ae 12       		.uleb128 0x12
 1600 04af 5F040000 		.4byte	.LASF75
 1601 04b3 06       		.sleb128 6
 1602 04b4 12       		.uleb128 0x12
 1603 04b5 76020000 		.4byte	.LASF76
 1604 04b9 07       		.sleb128 7
 1605 04ba 12       		.uleb128 0x12
 1606 04bb E3010000 		.4byte	.LASF77
 1607 04bf 08       		.sleb128 8
 1608 04c0 12       		.uleb128 0x12
 1609 04c1 10010000 		.4byte	.LASF78
 1610 04c5 09       		.sleb128 9
 1611 04c6 12       		.uleb128 0x12
 1612 04c7 94010000 		.4byte	.LASF79
 1613 04cb 0A       		.sleb128 10
 1614 04cc 12       		.uleb128 0x12
 1615 04cd F6030000 		.4byte	.LASF80
 1616 04d1 0B       		.sleb128 11
 1617 04d2 12       		.uleb128 0x12
 1618 04d3 00020000 		.4byte	.LASF81
 1619 04d7 0C       		.sleb128 12
 1620 04d8 12       		.uleb128 0x12
 1621 04d9 B0000000 		.4byte	.LASF82
 1622 04dd 0D       		.sleb128 13
 1623 04de 12       		.uleb128 0x12
 1624 04df C6010000 		.4byte	.LASF83
 1625 04e3 0E       		.sleb128 14
 1626 04e4 00       		.byte	0
 1627 04e5 05       		.uleb128 0x5
 1628 04e6 27020000 		.4byte	.LASF84
 1629 04ea 18       		.byte	0x18
 1630 04eb 0D       		.byte	0xd
 1631 04ec 3A       		.byte	0x3a
 1632 04ed 99050000 		.4byte	0x599
 1633 04f1 06       		.uleb128 0x6
 1634 04f2 35050000 		.4byte	.LASF85
 1635 04f6 0D       		.byte	0xd
 1636 04f7 3B       		.byte	0x3b
 1637 04f8 3A040000 		.4byte	0x43a
 1638 04fc 02       		.byte	0x2
 1639 04fd 23       		.byte	0x23
 1640 04fe 00       		.uleb128 0
 1641 04ff 06       		.uleb128 0x6
 1642 0500 0A050000 		.4byte	.LASF86
 1643 0504 0D       		.byte	0xd
 1644 0505 3C       		.byte	0x3c
 1645 0506 3A040000 		.4byte	0x43a
 1646 050a 02       		.byte	0x2
ARM GAS  /tmp/cc3s1bE4.s 			page 30


 1647 050b 23       		.byte	0x23
 1648 050c 02       		.uleb128 0x2
 1649 050d 07       		.uleb128 0x7
 1650 050e 667700   		.ascii	"fw\000"
 1651 0511 0D       		.byte	0xd
 1652 0512 3D       		.byte	0x3d
 1653 0513 3A040000 		.4byte	0x43a
 1654 0517 02       		.byte	0x2
 1655 0518 23       		.byte	0x23
 1656 0519 04       		.uleb128 0x4
 1657 051a 06       		.uleb128 0x6
 1658 051b 05050000 		.4byte	.LASF87
 1659 051f 0D       		.byte	0xd
 1660 0520 3E       		.byte	0x3e
 1661 0521 3A040000 		.4byte	0x43a
 1662 0525 02       		.byte	0x2
 1663 0526 23       		.byte	0x23
 1664 0527 06       		.uleb128 0x6
 1665 0528 06       		.uleb128 0x6
 1666 0529 55030000 		.4byte	.LASF88
 1667 052d 0D       		.byte	0xd
 1668 052e 3F       		.byte	0x3f
 1669 052f 3A040000 		.4byte	0x43a
 1670 0533 02       		.byte	0x2
 1671 0534 23       		.byte	0x23
 1672 0535 08       		.uleb128 0x8
 1673 0536 06       		.uleb128 0x6
 1674 0537 9A030000 		.4byte	.LASF89
 1675 053b 0D       		.byte	0xd
 1676 053c 40       		.byte	0x40
 1677 053d 3A040000 		.4byte	0x43a
 1678 0541 02       		.byte	0x2
 1679 0542 23       		.byte	0x23
 1680 0543 0A       		.uleb128 0xa
 1681 0544 06       		.uleb128 0x6
 1682 0545 75030000 		.4byte	.LASF90
 1683 0549 0D       		.byte	0xd
 1684 054a 41       		.byte	0x41
 1685 054b 3A040000 		.4byte	0x43a
 1686 054f 02       		.byte	0x2
 1687 0550 23       		.byte	0x23
 1688 0551 0C       		.uleb128 0xc
 1689 0552 06       		.uleb128 0x6
 1690 0553 EA030000 		.4byte	.LASF91
 1691 0557 0D       		.byte	0xd
 1692 0558 42       		.byte	0x42
 1693 0559 3A040000 		.4byte	0x43a
 1694 055d 02       		.byte	0x2
 1695 055e 23       		.byte	0x23
 1696 055f 0E       		.uleb128 0xe
 1697 0560 06       		.uleb128 0x6
 1698 0561 AD040000 		.4byte	.LASF92
 1699 0565 0D       		.byte	0xd
 1700 0566 43       		.byte	0x43
 1701 0567 3A040000 		.4byte	0x43a
 1702 056b 02       		.byte	0x2
 1703 056c 23       		.byte	0x23
ARM GAS  /tmp/cc3s1bE4.s 			page 31


 1704 056d 10       		.uleb128 0x10
 1705 056e 06       		.uleb128 0x6
 1706 056f 23010000 		.4byte	.LASF93
 1707 0573 0D       		.byte	0xd
 1708 0574 44       		.byte	0x44
 1709 0575 3A040000 		.4byte	0x43a
 1710 0579 02       		.byte	0x2
 1711 057a 23       		.byte	0x23
 1712 057b 12       		.uleb128 0x12
 1713 057c 07       		.uleb128 0x7
 1714 057d 65727200 		.ascii	"err\000"
 1715 0581 0D       		.byte	0xd
 1716 0582 45       		.byte	0x45
 1717 0583 3A040000 		.4byte	0x43a
 1718 0587 02       		.byte	0x2
 1719 0588 23       		.byte	0x23
 1720 0589 14       		.uleb128 0x14
 1721 058a 06       		.uleb128 0x6
 1722 058b 42040000 		.4byte	.LASF94
 1723 058f 0D       		.byte	0xd
 1724 0590 46       		.byte	0x46
 1725 0591 3A040000 		.4byte	0x43a
 1726 0595 02       		.byte	0x2
 1727 0596 23       		.byte	0x23
 1728 0597 16       		.uleb128 0x16
 1729 0598 00       		.byte	0
 1730 0599 05       		.uleb128 0x5
 1731 059a 9A000000 		.4byte	.LASF95
 1732 059e 0A       		.byte	0xa
 1733 059f 0D       		.byte	0xd
 1734 05a0 5A       		.byte	0x5a
 1735 05a1 EC050000 		.4byte	0x5ec
 1736 05a5 06       		.uleb128 0x6
 1737 05a6 F0030000 		.4byte	.LASF96
 1738 05aa 0D       		.byte	0xd
 1739 05ab 5E       		.byte	0x5e
 1740 05ac 5B040000 		.4byte	0x45b
 1741 05b0 02       		.byte	0x2
 1742 05b1 23       		.byte	0x23
 1743 05b2 00       		.uleb128 0
 1744 05b3 06       		.uleb128 0x6
 1745 05b4 A9010000 		.4byte	.LASF97
 1746 05b8 0D       		.byte	0xd
 1747 05b9 5F       		.byte	0x5f
 1748 05ba 5B040000 		.4byte	0x45b
 1749 05be 02       		.byte	0x2
 1750 05bf 23       		.byte	0x23
 1751 05c0 02       		.uleb128 0x2
 1752 05c1 07       		.uleb128 0x7
 1753 05c2 6D617800 		.ascii	"max\000"
 1754 05c6 0D       		.byte	0xd
 1755 05c7 60       		.byte	0x60
 1756 05c8 5B040000 		.4byte	0x45b
 1757 05cc 02       		.byte	0x2
 1758 05cd 23       		.byte	0x23
 1759 05ce 04       		.uleb128 0x4
 1760 05cf 07       		.uleb128 0x7
ARM GAS  /tmp/cc3s1bE4.s 			page 32


 1761 05d0 65727200 		.ascii	"err\000"
 1762 05d4 0D       		.byte	0xd
 1763 05d5 61       		.byte	0x61
 1764 05d6 3A040000 		.4byte	0x43a
 1765 05da 02       		.byte	0x2
 1766 05db 23       		.byte	0x23
 1767 05dc 06       		.uleb128 0x6
 1768 05dd 06       		.uleb128 0x6
 1769 05de 46010000 		.4byte	.LASF98
 1770 05e2 0D       		.byte	0xd
 1771 05e3 62       		.byte	0x62
 1772 05e4 3A040000 		.4byte	0x43a
 1773 05e8 02       		.byte	0x2
 1774 05e9 23       		.byte	0x23
 1775 05ea 08       		.uleb128 0x8
 1776 05eb 00       		.byte	0
 1777 05ec 05       		.uleb128 0x5
 1778 05ed D5000000 		.4byte	.LASF99
 1779 05f1 06       		.byte	0x6
 1780 05f2 0D       		.byte	0xd
 1781 05f3 65       		.byte	0x65
 1782 05f4 23060000 		.4byte	0x623
 1783 05f8 06       		.uleb128 0x6
 1784 05f9 A9010000 		.4byte	.LASF97
 1785 05fd 0D       		.byte	0xd
 1786 05fe 66       		.byte	0x66
 1787 05ff 3A040000 		.4byte	0x43a
 1788 0603 02       		.byte	0x2
 1789 0604 23       		.byte	0x23
 1790 0605 00       		.uleb128 0
 1791 0606 07       		.uleb128 0x7
 1792 0607 6D617800 		.ascii	"max\000"
 1793 060b 0D       		.byte	0xd
 1794 060c 67       		.byte	0x67
 1795 060d 3A040000 		.4byte	0x43a
 1796 0611 02       		.byte	0x2
 1797 0612 23       		.byte	0x23
 1798 0613 02       		.uleb128 0x2
 1799 0614 07       		.uleb128 0x7
 1800 0615 65727200 		.ascii	"err\000"
 1801 0619 0D       		.byte	0xd
 1802 061a 68       		.byte	0x68
 1803 061b 3A040000 		.4byte	0x43a
 1804 061f 02       		.byte	0x2
 1805 0620 23       		.byte	0x23
 1806 0621 04       		.uleb128 0x4
 1807 0622 00       		.byte	0
 1808 0623 05       		.uleb128 0x5
 1809 0624 B5040000 		.4byte	.LASF100
 1810 0628 12       		.byte	0x12
 1811 0629 0D       		.byte	0xd
 1812 062a 6B       		.byte	0x6b
 1813 062b 5A060000 		.4byte	0x65a
 1814 062f 07       		.uleb128 0x7
 1815 0630 73656D00 		.ascii	"sem\000"
 1816 0634 0D       		.byte	0xd
 1817 0635 6C       		.byte	0x6c
ARM GAS  /tmp/cc3s1bE4.s 			page 33


 1818 0636 EC050000 		.4byte	0x5ec
 1819 063a 02       		.byte	0x2
 1820 063b 23       		.byte	0x23
 1821 063c 00       		.uleb128 0
 1822 063d 06       		.uleb128 0x6
 1823 063e 2A010000 		.4byte	.LASF101
 1824 0642 0D       		.byte	0xd
 1825 0643 6D       		.byte	0x6d
 1826 0644 EC050000 		.4byte	0x5ec
 1827 0648 02       		.byte	0x2
 1828 0649 23       		.byte	0x23
 1829 064a 06       		.uleb128 0x6
 1830 064b 06       		.uleb128 0x6
 1831 064c 2B040000 		.4byte	.LASF102
 1832 0650 0D       		.byte	0xd
 1833 0651 6E       		.byte	0x6e
 1834 0652 EC050000 		.4byte	0x5ec
 1835 0656 02       		.byte	0x2
 1836 0657 23       		.byte	0x23
 1837 0658 0C       		.uleb128 0xc
 1838 0659 00       		.byte	0
 1839 065a 13       		.uleb128 0x13
 1840 065b AE010000 		.4byte	.LASF103
 1841 065f 5001     		.2byte	0x150
 1842 0661 0D       		.byte	0xd
 1843 0662 71       		.byte	0x71
 1844 0663 F7060000 		.4byte	0x6f7
 1845 0667 06       		.uleb128 0x6
 1846 0668 EC040000 		.4byte	.LASF104
 1847 066c 0D       		.byte	0xd
 1848 066d 73       		.byte	0x73
 1849 066e E5040000 		.4byte	0x4e5
 1850 0672 02       		.byte	0x2
 1851 0673 23       		.byte	0x23
 1852 0674 00       		.uleb128 0
 1853 0675 06       		.uleb128 0x6
 1854 0676 4E010000 		.4byte	.LASF105
 1855 067a 0D       		.byte	0xd
 1856 067b 76       		.byte	0x76
 1857 067c E5040000 		.4byte	0x4e5
 1858 0680 02       		.byte	0x2
 1859 0681 23       		.byte	0x23
 1860 0682 18       		.uleb128 0x18
 1861 0683 06       		.uleb128 0x6
 1862 0684 30010000 		.4byte	.LASF106
 1863 0688 0D       		.byte	0xd
 1864 0689 79       		.byte	0x79
 1865 068a E5040000 		.4byte	0x4e5
 1866 068e 02       		.byte	0x2
 1867 068f 23       		.byte	0x23
 1868 0690 30       		.uleb128 0x30
 1869 0691 07       		.uleb128 0x7
 1870 0692 697000   		.ascii	"ip\000"
 1871 0695 0D       		.byte	0xd
 1872 0696 7C       		.byte	0x7c
 1873 0697 E5040000 		.4byte	0x4e5
 1874 069b 02       		.byte	0x2
ARM GAS  /tmp/cc3s1bE4.s 			page 34


 1875 069c 23       		.byte	0x23
 1876 069d 48       		.uleb128 0x48
 1877 069e 06       		.uleb128 0x6
 1878 069f C9030000 		.4byte	.LASF107
 1879 06a3 0D       		.byte	0xd
 1880 06a4 7F       		.byte	0x7f
 1881 06a5 E5040000 		.4byte	0x4e5
 1882 06a9 02       		.byte	0x2
 1883 06aa 23       		.byte	0x23
 1884 06ab 60       		.uleb128 0x60
 1885 06ac 07       		.uleb128 0x7
 1886 06ad 75647000 		.ascii	"udp\000"
 1887 06b1 0D       		.byte	0xd
 1888 06b2 85       		.byte	0x85
 1889 06b3 E5040000 		.4byte	0x4e5
 1890 06b7 02       		.byte	0x2
 1891 06b8 23       		.byte	0x23
 1892 06b9 78       		.uleb128 0x78
 1893 06ba 07       		.uleb128 0x7
 1894 06bb 74637000 		.ascii	"tcp\000"
 1895 06bf 0D       		.byte	0xd
 1896 06c0 88       		.byte	0x88
 1897 06c1 E5040000 		.4byte	0x4e5
 1898 06c5 03       		.byte	0x3
 1899 06c6 23       		.byte	0x23
 1900 06c7 9001     		.uleb128 0x90
 1901 06c9 07       		.uleb128 0x7
 1902 06ca 6D656D00 		.ascii	"mem\000"
 1903 06ce 0D       		.byte	0xd
 1904 06cf 8B       		.byte	0x8b
 1905 06d0 99050000 		.4byte	0x599
 1906 06d4 03       		.byte	0x3
 1907 06d5 23       		.byte	0x23
 1908 06d6 A801     		.uleb128 0xa8
 1909 06d8 06       		.uleb128 0x6
 1910 06d9 AA020000 		.4byte	.LASF108
 1911 06dd 0D       		.byte	0xd
 1912 06de 8E       		.byte	0x8e
 1913 06df F7060000 		.4byte	0x6f7
 1914 06e3 03       		.byte	0x3
 1915 06e4 23       		.byte	0x23
 1916 06e5 B201     		.uleb128 0xb2
 1917 06e7 07       		.uleb128 0x7
 1918 06e8 73797300 		.ascii	"sys\000"
 1919 06ec 0D       		.byte	0xd
 1920 06ed 91       		.byte	0x91
 1921 06ee 23060000 		.4byte	0x623
 1922 06f2 03       		.byte	0x3
 1923 06f3 23       		.byte	0x23
 1924 06f4 BE02     		.uleb128 0x13e
 1925 06f6 00       		.byte	0
 1926 06f7 14       		.uleb128 0x14
 1927 06f8 99050000 		.4byte	0x599
 1928 06fc 07070000 		.4byte	0x707
 1929 0700 15       		.uleb128 0x15
 1930 0701 4F030000 		.4byte	0x34f
 1931 0705 0D       		.byte	0xd
ARM GAS  /tmp/cc3s1bE4.s 			page 35


 1932 0706 00       		.byte	0
 1933 0707 16       		.uleb128 0x16
 1934 0708 6D656D00 		.ascii	"mem\000"
 1935 070c 06       		.byte	0x6
 1936 070d 01       		.byte	0x1
 1937 070e 9B       		.byte	0x9b
 1938 070f 3E070000 		.4byte	0x73e
 1939 0713 06       		.uleb128 0x6
 1940 0714 7C000000 		.4byte	.LASF109
 1941 0718 01       		.byte	0x1
 1942 0719 9D       		.byte	0x9d
 1943 071a 5B040000 		.4byte	0x45b
 1944 071e 02       		.byte	0x2
 1945 071f 23       		.byte	0x23
 1946 0720 00       		.uleb128 0
 1947 0721 06       		.uleb128 0x6
 1948 0722 AB000000 		.4byte	.LASF110
 1949 0726 01       		.byte	0x1
 1950 0727 9F       		.byte	0x9f
 1951 0728 5B040000 		.4byte	0x45b
 1952 072c 02       		.byte	0x2
 1953 072d 23       		.byte	0x23
 1954 072e 02       		.uleb128 0x2
 1955 072f 06       		.uleb128 0x6
 1956 0730 A9010000 		.4byte	.LASF97
 1957 0734 01       		.byte	0x1
 1958 0735 A1       		.byte	0xa1
 1959 0736 24040000 		.4byte	0x424
 1960 073a 02       		.byte	0x2
 1961 073b 23       		.byte	0x23
 1962 073c 04       		.uleb128 0x4
 1963 073d 00       		.byte	0
 1964 073e 17       		.uleb128 0x17
 1965 073f 01       		.byte	0x1
 1966 0740 43020000 		.4byte	.LASF113
 1967 0744 01       		.byte	0x1
 1968 0745 0F01     		.2byte	0x10f
 1969 0747 01       		.byte	0x1
 1970 0748 00000000 		.4byte	.LFB8
 1971 074c 68000000 		.4byte	.LFE8
 1972 0750 00000000 		.4byte	.LLST0
 1973 0754 01       		.byte	0x1
 1974 0755 90070000 		.4byte	0x790
 1975 0759 18       		.uleb128 0x18
 1976 075a 6D656D00 		.ascii	"mem\000"
 1977 075e 01       		.byte	0x1
 1978 075f 1101     		.2byte	0x111
 1979 0761 90070000 		.4byte	0x790
 1980 0765 20000000 		.4byte	.LLST1
 1981 0769 19       		.uleb128 0x19
 1982 076a 44000000 		.4byte	.LVL2
 1983 076e 690B0000 		.4byte	0xb69
 1984 0772 85070000 		.4byte	0x785
 1985 0776 1A       		.uleb128 0x1a
 1986 0777 01       		.byte	0x1
 1987 0778 51       		.byte	0x51
 1988 0779 01       		.byte	0x1
ARM GAS  /tmp/cc3s1bE4.s 			page 36


 1989 077a 31       		.byte	0x31
 1990 077b 1A       		.uleb128 0x1a
 1991 077c 01       		.byte	0x1
 1992 077d 50       		.byte	0x50
 1993 077e 05       		.byte	0x5
 1994 077f 03       		.byte	0x3
 1995 0780 00000000 		.4byte	.LANCHOR4
 1996 0784 00       		.byte	0
 1997 0785 1B       		.uleb128 0x1b
 1998 0786 50000000 		.4byte	.LVL3
 1999 078a 01       		.byte	0x1
 2000 078b 8C0B0000 		.4byte	0xb8c
 2001 078f 00       		.byte	0
 2002 0790 09       		.uleb128 0x9
 2003 0791 04       		.byte	0x4
 2004 0792 07070000 		.4byte	0x707
 2005 0796 1C       		.uleb128 0x1c
 2006 0797 F1020000 		.4byte	.LASF134
 2007 079b 01       		.byte	0x1
 2008 079c E9       		.byte	0xe9
 2009 079d 01       		.byte	0x1
 2010 079e 01       		.byte	0x1
 2011 079f C5070000 		.4byte	0x7c5
 2012 07a3 1D       		.uleb128 0x1d
 2013 07a4 6D656D00 		.ascii	"mem\000"
 2014 07a8 01       		.byte	0x1
 2015 07a9 E9       		.byte	0xe9
 2016 07aa 90070000 		.4byte	0x790
 2017 07ae 1E       		.uleb128 0x1e
 2018 07af 43050000 		.4byte	.LASF111
 2019 07b3 01       		.byte	0x1
 2020 07b4 EB       		.byte	0xeb
 2021 07b5 90070000 		.4byte	0x790
 2022 07b9 1E       		.uleb128 0x1e
 2023 07ba BF000000 		.4byte	.LASF112
 2024 07be 01       		.byte	0x1
 2025 07bf EC       		.byte	0xec
 2026 07c0 90070000 		.4byte	0x790
 2027 07c4 00       		.byte	0
 2028 07c5 17       		.uleb128 0x17
 2029 07c6 01       		.byte	0x1
 2030 07c7 16000000 		.4byte	.LASF114
 2031 07cb 01       		.byte	0x1
 2032 07cc 3401     		.2byte	0x134
 2033 07ce 01       		.byte	0x1
 2034 07cf 00000000 		.4byte	.LFB9
 2035 07d3 3C010000 		.4byte	.LFE9
 2036 07d7 50000000 		.4byte	.LLST2
 2037 07db 01       		.byte	0x1
 2038 07dc AA080000 		.4byte	0x8aa
 2039 07e0 1F       		.uleb128 0x1f
 2040 07e1 F3000000 		.4byte	.LASF115
 2041 07e5 01       		.byte	0x1
 2042 07e6 3401     		.2byte	0x134
 2043 07e8 9C020000 		.4byte	0x29c
 2044 07ec 70000000 		.4byte	.LLST3
 2045 07f0 18       		.uleb128 0x18
ARM GAS  /tmp/cc3s1bE4.s 			page 37


 2046 07f1 6D656D00 		.ascii	"mem\000"
 2047 07f5 01       		.byte	0x1
 2048 07f6 3601     		.2byte	0x136
 2049 07f8 90070000 		.4byte	0x790
 2050 07fc BA000000 		.4byte	.LLST4
 2051 0800 20       		.uleb128 0x20
 2052 0801 96070000 		.4byte	0x796
 2053 0805 7E000000 		.4byte	.LBB4
 2054 0809 00000000 		.4byte	.Ldebug_ranges0+0
 2055 080d 01       		.byte	0x1
 2056 080e 5C01     		.2byte	0x15c
 2057 0810 5A080000 		.4byte	0x85a
 2058 0814 21       		.uleb128 0x21
 2059 0815 A3070000 		.4byte	0x7a3
 2060 0819 D8000000 		.4byte	.LLST5
 2061 081d 22       		.uleb128 0x22
 2062 081e 20000000 		.4byte	.Ldebug_ranges0+0x20
 2063 0822 23       		.uleb128 0x23
 2064 0823 AE070000 		.4byte	0x7ae
 2065 0827 F6000000 		.4byte	.LLST6
 2066 082b 23       		.uleb128 0x23
 2067 082c B9070000 		.4byte	0x7b9
 2068 0830 09010000 		.4byte	.LLST7
 2069 0834 24       		.uleb128 0x24
 2070 0835 08010000 		.4byte	.LVL18
 2071 0839 8C0B0000 		.4byte	0xb8c
 2072 083d 24       		.uleb128 0x24
 2073 083e 12010000 		.4byte	.LVL19
 2074 0842 8C0B0000 		.4byte	0xb8c
 2075 0846 24       		.uleb128 0x24
 2076 0847 18010000 		.4byte	.LVL20
 2077 084b 8C0B0000 		.4byte	0xb8c
 2078 084f 24       		.uleb128 0x24
 2079 0850 1E010000 		.4byte	.LVL21
 2080 0854 8C0B0000 		.4byte	0xb8c
 2081 0858 00       		.byte	0
 2082 0859 00       		.byte	0
 2083 085a 24       		.uleb128 0x24
 2084 085b 20000000 		.4byte	.LVL6
 2085 085f 8C0B0000 		.4byte	0xb8c
 2086 0863 19       		.uleb128 0x19
 2087 0864 4A000000 		.4byte	.LVL9
 2088 0868 970B0000 		.4byte	0xb97
 2089 086c 7F080000 		.4byte	0x87f
 2090 0870 1A       		.uleb128 0x1a
 2091 0871 01       		.byte	0x1
 2092 0872 51       		.byte	0x51
 2093 0873 01       		.byte	0x1
 2094 0874 30       		.byte	0x30
 2095 0875 1A       		.uleb128 0x1a
 2096 0876 01       		.byte	0x1
 2097 0877 50       		.byte	0x50
 2098 0878 05       		.byte	0x5
 2099 0879 03       		.byte	0x3
 2100 087a 00000000 		.4byte	.LANCHOR4
 2101 087e 00       		.byte	0
 2102 087f 25       		.uleb128 0x25
ARM GAS  /tmp/cc3s1bE4.s 			page 38


 2103 0880 FE000000 		.4byte	.LVL15
 2104 0884 01       		.byte	0x1
 2105 0885 B40B0000 		.4byte	0xbb4
 2106 0889 97080000 		.4byte	0x897
 2107 088d 1A       		.uleb128 0x1a
 2108 088e 01       		.byte	0x1
 2109 088f 50       		.byte	0x50
 2110 0890 05       		.byte	0x5
 2111 0891 03       		.byte	0x3
 2112 0892 00000000 		.4byte	.LANCHOR4
 2113 0896 00       		.byte	0
 2114 0897 24       		.uleb128 0x24
 2115 0898 02010000 		.4byte	.LVL16
 2116 089c 8C0B0000 		.4byte	0xb8c
 2117 08a0 24       		.uleb128 0x24
 2118 08a1 24010000 		.4byte	.LVL23
 2119 08a5 8C0B0000 		.4byte	0xb8c
 2120 08a9 00       		.byte	0
 2121 08aa 26       		.uleb128 0x26
 2122 08ab 01       		.byte	0x1
 2123 08ac D4010000 		.4byte	.LASF120
 2124 08b0 01       		.byte	0x1
 2125 08b1 6E01     		.2byte	0x16e
 2126 08b3 01       		.byte	0x1
 2127 08b4 9C020000 		.4byte	0x29c
 2128 08b8 00000000 		.4byte	.LFB10
 2129 08bc 3C010000 		.4byte	.LFE10
 2130 08c0 1C010000 		.4byte	.LLST8
 2131 08c4 01       		.byte	0x1
 2132 08c5 9D090000 		.4byte	0x99d
 2133 08c9 1F       		.uleb128 0x1f
 2134 08ca F3000000 		.4byte	.LASF115
 2135 08ce 01       		.byte	0x1
 2136 08cf 6E01     		.2byte	0x16e
 2137 08d1 9C020000 		.4byte	0x29c
 2138 08d5 3C010000 		.4byte	.LLST9
 2139 08d9 1F       		.uleb128 0x1f
 2140 08da BC020000 		.4byte	.LASF116
 2141 08de 01       		.byte	0x1
 2142 08df 6E01     		.2byte	0x16e
 2143 08e1 5B040000 		.4byte	0x45b
 2144 08e5 D1010000 		.4byte	.LLST10
 2145 08e9 27       		.uleb128 0x27
 2146 08ea 06030000 		.4byte	.LASF117
 2147 08ee 01       		.byte	0x1
 2148 08ef 7001     		.2byte	0x170
 2149 08f1 5B040000 		.4byte	0x45b
 2150 08f5 46020000 		.4byte	.LLST11
 2151 08f9 18       		.uleb128 0x18
 2152 08fa 70747200 		.ascii	"ptr\000"
 2153 08fe 01       		.byte	0x1
 2154 08ff 7101     		.2byte	0x171
 2155 0901 5B040000 		.4byte	0x45b
 2156 0905 64020000 		.4byte	.LLST12
 2157 0909 27       		.uleb128 0x27
 2158 090a 26040000 		.4byte	.LASF118
 2159 090e 01       		.byte	0x1
ARM GAS  /tmp/cc3s1bE4.s 			page 39


 2160 090f 7101     		.2byte	0x171
 2161 0911 5B040000 		.4byte	0x45b
 2162 0915 98020000 		.4byte	.LLST13
 2163 0919 18       		.uleb128 0x18
 2164 091a 6D656D00 		.ascii	"mem\000"
 2165 091e 01       		.byte	0x1
 2166 091f 7201     		.2byte	0x172
 2167 0921 90070000 		.4byte	0x790
 2168 0925 B6020000 		.4byte	.LLST14
 2169 0929 27       		.uleb128 0x27
 2170 092a 07040000 		.4byte	.LASF119
 2171 092e 01       		.byte	0x1
 2172 092f 7201     		.2byte	0x172
 2173 0931 90070000 		.4byte	0x790
 2174 0935 0D030000 		.4byte	.LLST15
 2175 0939 28       		.uleb128 0x28
 2176 093a 5E000000 		.4byte	.LBB10
 2177 093e 94000000 		.4byte	.LBE10
 2178 0942 57090000 		.4byte	0x957
 2179 0946 27       		.uleb128 0x27
 2180 0947 7C000000 		.4byte	.LASF109
 2181 094b 01       		.byte	0x1
 2182 094c A501     		.2byte	0x1a5
 2183 094e 5B040000 		.4byte	0x45b
 2184 0952 51030000 		.4byte	.LLST16
 2185 0956 00       		.byte	0
 2186 0957 19       		.uleb128 0x19
 2187 0958 50000000 		.4byte	.LVL32
 2188 095c 970B0000 		.4byte	0xb97
 2189 0960 73090000 		.4byte	0x973
 2190 0964 1A       		.uleb128 0x1a
 2191 0965 01       		.byte	0x1
 2192 0966 51       		.byte	0x51
 2193 0967 01       		.byte	0x1
 2194 0968 30       		.byte	0x30
 2195 0969 1A       		.uleb128 0x1a
 2196 096a 01       		.byte	0x1
 2197 096b 50       		.byte	0x50
 2198 096c 05       		.byte	0x5
 2199 096d 03       		.byte	0x3
 2200 096e 00000000 		.4byte	.LANCHOR4
 2201 0972 00       		.byte	0
 2202 0973 19       		.uleb128 0x19
 2203 0974 A8000000 		.4byte	.LVL41
 2204 0978 B40B0000 		.4byte	0xbb4
 2205 097c 8A090000 		.4byte	0x98a
 2206 0980 1A       		.uleb128 0x1a
 2207 0981 01       		.byte	0x1
 2208 0982 50       		.byte	0x50
 2209 0983 05       		.byte	0x5
 2210 0984 03       		.byte	0x3
 2211 0985 00000000 		.4byte	.LANCHOR4
 2212 0989 00       		.byte	0
 2213 098a 24       		.uleb128 0x24
 2214 098b B2000000 		.4byte	.LVL43
 2215 098f 8C0B0000 		.4byte	0xb8c
 2216 0993 24       		.uleb128 0x24
ARM GAS  /tmp/cc3s1bE4.s 			page 40


 2217 0994 E4000000 		.4byte	.LVL51
 2218 0998 8C0B0000 		.4byte	0xb8c
 2219 099c 00       		.byte	0
 2220 099d 26       		.uleb128 0x26
 2221 099e 01       		.byte	0x1
 2222 099f CD040000 		.4byte	.LASF121
 2223 09a3 01       		.byte	0x1
 2224 09a4 EB01     		.2byte	0x1eb
 2225 09a6 01       		.byte	0x1
 2226 09a7 9C020000 		.4byte	0x29c
 2227 09ab 00000000 		.4byte	.LFB11
 2228 09af 74010000 		.4byte	.LFE11
 2229 09b3 93030000 		.4byte	.LLST17
 2230 09b7 01       		.byte	0x1
 2231 09b8 720A0000 		.4byte	0xa72
 2232 09bc 1F       		.uleb128 0x1f
 2233 09bd 06030000 		.4byte	.LASF117
 2234 09c1 01       		.byte	0x1
 2235 09c2 EB01     		.2byte	0x1eb
 2236 09c4 5B040000 		.4byte	0x45b
 2237 09c8 B3030000 		.4byte	.LLST18
 2238 09cc 18       		.uleb128 0x18
 2239 09cd 70747200 		.ascii	"ptr\000"
 2240 09d1 01       		.byte	0x1
 2241 09d2 ED01     		.2byte	0x1ed
 2242 09d4 5B040000 		.4byte	0x45b
 2243 09d8 17040000 		.4byte	.LLST19
 2244 09dc 27       		.uleb128 0x27
 2245 09dd 26040000 		.4byte	.LASF118
 2246 09e1 01       		.byte	0x1
 2247 09e2 ED01     		.2byte	0x1ed
 2248 09e4 5B040000 		.4byte	0x45b
 2249 09e8 41040000 		.4byte	.LLST20
 2250 09ec 18       		.uleb128 0x18
 2251 09ed 6D656D00 		.ascii	"mem\000"
 2252 09f1 01       		.byte	0x1
 2253 09f2 EE01     		.2byte	0x1ee
 2254 09f4 90070000 		.4byte	0x790
 2255 09f8 54040000 		.4byte	.LLST21
 2256 09fc 27       		.uleb128 0x27
 2257 09fd 07040000 		.4byte	.LASF119
 2258 0a01 01       		.byte	0x1
 2259 0a02 EE01     		.2byte	0x1ee
 2260 0a04 90070000 		.4byte	0x790
 2261 0a08 7D040000 		.4byte	.LLST22
 2262 0a0c 19       		.uleb128 0x19
 2263 0a0d 2C000000 		.4byte	.LVL62
 2264 0a11 970B0000 		.4byte	0xb97
 2265 0a15 280A0000 		.4byte	0xa28
 2266 0a19 1A       		.uleb128 0x1a
 2267 0a1a 01       		.byte	0x1
 2268 0a1b 51       		.byte	0x51
 2269 0a1c 01       		.byte	0x1
 2270 0a1d 30       		.byte	0x30
 2271 0a1e 1A       		.uleb128 0x1a
 2272 0a1f 01       		.byte	0x1
 2273 0a20 50       		.byte	0x50
ARM GAS  /tmp/cc3s1bE4.s 			page 41


 2274 0a21 05       		.byte	0x5
 2275 0a22 03       		.byte	0x3
 2276 0a23 00000000 		.4byte	.LANCHOR4
 2277 0a27 00       		.byte	0
 2278 0a28 19       		.uleb128 0x19
 2279 0a29 78000000 		.4byte	.LVL70
 2280 0a2d B40B0000 		.4byte	0xbb4
 2281 0a31 3F0A0000 		.4byte	0xa3f
 2282 0a35 1A       		.uleb128 0x1a
 2283 0a36 01       		.byte	0x1
 2284 0a37 50       		.byte	0x50
 2285 0a38 05       		.byte	0x5
 2286 0a39 03       		.byte	0x3
 2287 0a3a 00000000 		.4byte	.LANCHOR4
 2288 0a3e 00       		.byte	0
 2289 0a3f 19       		.uleb128 0x19
 2290 0a40 C6000000 		.4byte	.LVL76
 2291 0a44 B40B0000 		.4byte	0xbb4
 2292 0a48 560A0000 		.4byte	0xa56
 2293 0a4c 1A       		.uleb128 0x1a
 2294 0a4d 01       		.byte	0x1
 2295 0a4e 50       		.byte	0x50
 2296 0a4f 05       		.byte	0x5
 2297 0a50 03       		.byte	0x3
 2298 0a51 00000000 		.4byte	.LANCHOR4
 2299 0a55 00       		.byte	0
 2300 0a56 24       		.uleb128 0x24
 2301 0a57 26010000 		.4byte	.LVL80
 2302 0a5b 8C0B0000 		.4byte	0xb8c
 2303 0a5f 24       		.uleb128 0x24
 2304 0a60 2A010000 		.4byte	.LVL81
 2305 0a64 8C0B0000 		.4byte	0xb8c
 2306 0a68 24       		.uleb128 0x24
 2307 0a69 30010000 		.4byte	.LVL82
 2308 0a6d 8C0B0000 		.4byte	0xb8c
 2309 0a71 00       		.byte	0
 2310 0a72 26       		.uleb128 0x26
 2311 0a73 01       		.byte	0x1
 2312 0a74 6C010000 		.4byte	.LASF122
 2313 0a78 01       		.byte	0x1
 2314 0a79 7502     		.2byte	0x275
 2315 0a7b 01       		.byte	0x1
 2316 0a7c 9C020000 		.4byte	0x29c
 2317 0a80 00000000 		.4byte	.LFB12
 2318 0a84 1C000000 		.4byte	.LFE12
 2319 0a88 90040000 		.4byte	.LLST23
 2320 0a8c 01       		.byte	0x1
 2321 0a8d EF0A0000 		.4byte	0xaef
 2322 0a91 1F       		.uleb128 0x1f
 2323 0a92 40010000 		.4byte	.LASF123
 2324 0a96 01       		.byte	0x1
 2325 0a97 7502     		.2byte	0x275
 2326 0a99 5B040000 		.4byte	0x45b
 2327 0a9d B0040000 		.4byte	.LLST24
 2328 0aa1 1F       		.uleb128 0x1f
 2329 0aa2 06030000 		.4byte	.LASF117
 2330 0aa6 01       		.byte	0x1
ARM GAS  /tmp/cc3s1bE4.s 			page 42


 2331 0aa7 7502     		.2byte	0x275
 2332 0aa9 5B040000 		.4byte	0x45b
 2333 0aad D1040000 		.4byte	.LLST25
 2334 0ab1 18       		.uleb128 0x18
 2335 0ab2 7000     		.ascii	"p\000"
 2336 0ab4 01       		.byte	0x1
 2337 0ab5 7702     		.2byte	0x277
 2338 0ab7 9C020000 		.4byte	0x29c
 2339 0abb F2040000 		.4byte	.LLST26
 2340 0abf 19       		.uleb128 0x19
 2341 0ac0 0C000000 		.4byte	.LVL85
 2342 0ac4 9D090000 		.4byte	0x99d
 2343 0ac8 D30A0000 		.4byte	0xad3
 2344 0acc 1A       		.uleb128 0x1a
 2345 0acd 01       		.byte	0x1
 2346 0ace 50       		.byte	0x50
 2347 0acf 02       		.byte	0x2
 2348 0ad0 74       		.byte	0x74
 2349 0ad1 00       		.sleb128 0
 2350 0ad2 00       		.byte	0
 2351 0ad3 29       		.uleb128 0x29
 2352 0ad4 18000000 		.4byte	.LVL86
 2353 0ad8 C80B0000 		.4byte	0xbc8
 2354 0adc 1A       		.uleb128 0x1a
 2355 0add 01       		.byte	0x1
 2356 0ade 52       		.byte	0x52
 2357 0adf 02       		.byte	0x2
 2358 0ae0 74       		.byte	0x74
 2359 0ae1 00       		.sleb128 0
 2360 0ae2 1A       		.uleb128 0x1a
 2361 0ae3 01       		.byte	0x1
 2362 0ae4 51       		.byte	0x51
 2363 0ae5 01       		.byte	0x1
 2364 0ae6 30       		.byte	0x30
 2365 0ae7 1A       		.uleb128 0x1a
 2366 0ae8 01       		.byte	0x1
 2367 0ae9 50       		.byte	0x50
 2368 0aea 02       		.byte	0x2
 2369 0aeb 75       		.byte	0x75
 2370 0aec 00       		.sleb128 0
 2371 0aed 00       		.byte	0
 2372 0aee 00       		.byte	0
 2373 0aef 2A       		.uleb128 0x2a
 2374 0af0 72616D00 		.ascii	"ram\000"
 2375 0af4 01       		.byte	0x1
 2376 0af5 BA       		.byte	0xba
 2377 0af6 000B0000 		.4byte	0xb00
 2378 0afa 05       		.byte	0x5
 2379 0afb 03       		.byte	0x3
 2380 0afc 00000000 		.4byte	ram
 2381 0b00 09       		.uleb128 0x9
 2382 0b01 04       		.byte	0x4
 2383 0b02 24040000 		.4byte	0x424
 2384 0b06 2B       		.uleb128 0x2b
 2385 0b07 E9020000 		.4byte	.LASF124
 2386 0b0b 01       		.byte	0x1
 2387 0b0c BC       		.byte	0xbc
ARM GAS  /tmp/cc3s1bE4.s 			page 43


 2388 0b0d 90070000 		.4byte	0x790
 2389 0b11 05       		.byte	0x5
 2390 0b12 03       		.byte	0x3
 2391 0b13 00000000 		.4byte	ram_end
 2392 0b17 2B       		.uleb128 0x2b
 2393 0b18 87000000 		.4byte	.LASF125
 2394 0b1c 01       		.byte	0x1
 2395 0b1d BE       		.byte	0xbe
 2396 0b1e 90070000 		.4byte	0x790
 2397 0b22 05       		.byte	0x5
 2398 0b23 03       		.byte	0x3
 2399 0b24 00000000 		.4byte	lfree
 2400 0b28 2B       		.uleb128 0x2b
 2401 0b29 FC020000 		.4byte	.LASF126
 2402 0b2d 01       		.byte	0x1
 2403 0b2e C1       		.byte	0xc1
 2404 0b2f 71040000 		.4byte	0x471
 2405 0b33 05       		.byte	0x5
 2406 0b34 03       		.byte	0x3
 2407 0b35 00000000 		.4byte	mem_mutex
 2408 0b39 2C       		.uleb128 0x2c
 2409 0b3a C4000000 		.4byte	.LASF127
 2410 0b3e 0D       		.byte	0xd
 2411 0b3f 95       		.byte	0x95
 2412 0b40 5A060000 		.4byte	0x65a
 2413 0b44 01       		.byte	0x1
 2414 0b45 01       		.byte	0x1
 2415 0b46 14       		.uleb128 0x14
 2416 0b47 24040000 		.4byte	0x424
 2417 0b4b 570B0000 		.4byte	0xb57
 2418 0b4f 2D       		.uleb128 0x2d
 2419 0b50 4F030000 		.4byte	0x34f
 2420 0b54 5306     		.2byte	0x653
 2421 0b56 00       		.byte	0
 2422 0b57 2E       		.uleb128 0x2e
 2423 0b58 F0010000 		.4byte	.LASF128
 2424 0b5c 01       		.byte	0x1
 2425 0b5d B5       		.byte	0xb5
 2426 0b5e 460B0000 		.4byte	0xb46
 2427 0b62 01       		.byte	0x1
 2428 0b63 05       		.byte	0x5
 2429 0b64 03       		.byte	0x3
 2430 0b65 00000000 		.4byte	ram_heap
 2431 0b69 2F       		.uleb128 0x2f
 2432 0b6a 01       		.byte	0x1
 2433 0b6b 90020000 		.4byte	.LASF129
 2434 0b6f 0E       		.byte	0xe
 2435 0b70 85       		.byte	0x85
 2436 0b71 01       		.byte	0x1
 2437 0b72 66040000 		.4byte	0x466
 2438 0b76 01       		.byte	0x1
 2439 0b77 860B0000 		.4byte	0xb86
 2440 0b7b 30       		.uleb128 0x30
 2441 0b7c 860B0000 		.4byte	0xb86
 2442 0b80 30       		.uleb128 0x30
 2443 0b81 24040000 		.4byte	0x424
 2444 0b85 00       		.byte	0
ARM GAS  /tmp/cc3s1bE4.s 			page 44


 2445 0b86 09       		.uleb128 0x9
 2446 0b87 04       		.byte	0x4
 2447 0b88 71040000 		.4byte	0x471
 2448 0b8c 31       		.uleb128 0x31
 2449 0b8d 01       		.byte	0x1
 2450 0b8e F1040000 		.4byte	.LASF135
 2451 0b92 06       		.byte	0x6
 2452 0b93 FA01     		.2byte	0x1fa
 2453 0b95 01       		.byte	0x1
 2454 0b96 01       		.byte	0x1
 2455 0b97 2F       		.uleb128 0x2f
 2456 0b98 01       		.byte	0x1
 2457 0b99 30040000 		.4byte	.LASF130
 2458 0b9d 0E       		.byte	0xe
 2459 0b9e 8E       		.byte	0x8e
 2460 0b9f 01       		.byte	0x1
 2461 0ba0 45040000 		.4byte	0x445
 2462 0ba4 01       		.byte	0x1
 2463 0ba5 B40B0000 		.4byte	0xbb4
 2464 0ba9 30       		.uleb128 0x30
 2465 0baa 860B0000 		.4byte	0xb86
 2466 0bae 30       		.uleb128 0x30
 2467 0baf 45040000 		.4byte	0x445
 2468 0bb3 00       		.byte	0
 2469 0bb4 32       		.uleb128 0x32
 2470 0bb5 01       		.byte	0x1
 2471 0bb6 85010000 		.4byte	.LASF136
 2472 0bba 0E       		.byte	0xe
 2473 0bbb 88       		.byte	0x88
 2474 0bbc 01       		.byte	0x1
 2475 0bbd 01       		.byte	0x1
 2476 0bbe C80B0000 		.4byte	0xbc8
 2477 0bc2 30       		.uleb128 0x30
 2478 0bc3 860B0000 		.4byte	0xb86
 2479 0bc7 00       		.byte	0
 2480 0bc8 33       		.uleb128 0x33
 2481 0bc9 01       		.byte	0x1
 2482 0bca C4020000 		.4byte	.LASF137
 2483 0bce 01       		.byte	0x1
 2484 0bcf 9C020000 		.4byte	0x29c
 2485 0bd3 01       		.byte	0x1
 2486 0bd4 01       		.byte	0x1
 2487 0bd5 30       		.uleb128 0x30
 2488 0bd6 9C020000 		.4byte	0x29c
 2489 0bda 30       		.uleb128 0x30
 2490 0bdb 29000000 		.4byte	0x29
 2491 0bdf 30       		.uleb128 0x30
 2492 0be0 4F030000 		.4byte	0x34f
 2493 0be4 00       		.byte	0
 2494 0be5 00       		.byte	0
 2495              		.section	.debug_abbrev,"",%progbits
 2496              	.Ldebug_abbrev0:
 2497 0000 01       		.uleb128 0x1
 2498 0001 11       		.uleb128 0x11
 2499 0002 01       		.byte	0x1
 2500 0003 25       		.uleb128 0x25
 2501 0004 0E       		.uleb128 0xe
ARM GAS  /tmp/cc3s1bE4.s 			page 45


 2502 0005 13       		.uleb128 0x13
 2503 0006 0B       		.uleb128 0xb
 2504 0007 03       		.uleb128 0x3
 2505 0008 0E       		.uleb128 0xe
 2506 0009 1B       		.uleb128 0x1b
 2507 000a 0E       		.uleb128 0xe
 2508 000b 55       		.uleb128 0x55
 2509 000c 06       		.uleb128 0x6
 2510 000d 11       		.uleb128 0x11
 2511 000e 01       		.uleb128 0x1
 2512 000f 52       		.uleb128 0x52
 2513 0010 01       		.uleb128 0x1
 2514 0011 10       		.uleb128 0x10
 2515 0012 06       		.uleb128 0x6
 2516 0013 00       		.byte	0
 2517 0014 00       		.byte	0
 2518 0015 02       		.uleb128 0x2
 2519 0016 24       		.uleb128 0x24
 2520 0017 00       		.byte	0
 2521 0018 0B       		.uleb128 0xb
 2522 0019 0B       		.uleb128 0xb
 2523 001a 3E       		.uleb128 0x3e
 2524 001b 0B       		.uleb128 0xb
 2525 001c 03       		.uleb128 0x3
 2526 001d 08       		.uleb128 0x8
 2527 001e 00       		.byte	0
 2528 001f 00       		.byte	0
 2529 0020 03       		.uleb128 0x3
 2530 0021 24       		.uleb128 0x24
 2531 0022 00       		.byte	0
 2532 0023 0B       		.uleb128 0xb
 2533 0024 0B       		.uleb128 0xb
 2534 0025 3E       		.uleb128 0x3e
 2535 0026 0B       		.uleb128 0xb
 2536 0027 03       		.uleb128 0x3
 2537 0028 0E       		.uleb128 0xe
 2538 0029 00       		.byte	0
 2539 002a 00       		.byte	0
 2540 002b 04       		.uleb128 0x4
 2541 002c 16       		.uleb128 0x16
 2542 002d 00       		.byte	0
 2543 002e 03       		.uleb128 0x3
 2544 002f 0E       		.uleb128 0xe
 2545 0030 3A       		.uleb128 0x3a
 2546 0031 0B       		.uleb128 0xb
 2547 0032 3B       		.uleb128 0x3b
 2548 0033 0B       		.uleb128 0xb
 2549 0034 49       		.uleb128 0x49
 2550 0035 13       		.uleb128 0x13
 2551 0036 00       		.byte	0
 2552 0037 00       		.byte	0
 2553 0038 05       		.uleb128 0x5
 2554 0039 13       		.uleb128 0x13
 2555 003a 01       		.byte	0x1
 2556 003b 03       		.uleb128 0x3
 2557 003c 0E       		.uleb128 0xe
 2558 003d 0B       		.uleb128 0xb
ARM GAS  /tmp/cc3s1bE4.s 			page 46


 2559 003e 0B       		.uleb128 0xb
 2560 003f 3A       		.uleb128 0x3a
 2561 0040 0B       		.uleb128 0xb
 2562 0041 3B       		.uleb128 0x3b
 2563 0042 0B       		.uleb128 0xb
 2564 0043 01       		.uleb128 0x1
 2565 0044 13       		.uleb128 0x13
 2566 0045 00       		.byte	0
 2567 0046 00       		.byte	0
 2568 0047 06       		.uleb128 0x6
 2569 0048 0D       		.uleb128 0xd
 2570 0049 00       		.byte	0
 2571 004a 03       		.uleb128 0x3
 2572 004b 0E       		.uleb128 0xe
 2573 004c 3A       		.uleb128 0x3a
 2574 004d 0B       		.uleb128 0xb
 2575 004e 3B       		.uleb128 0x3b
 2576 004f 0B       		.uleb128 0xb
 2577 0050 49       		.uleb128 0x49
 2578 0051 13       		.uleb128 0x13
 2579 0052 38       		.uleb128 0x38
 2580 0053 0A       		.uleb128 0xa
 2581 0054 00       		.byte	0
 2582 0055 00       		.byte	0
 2583 0056 07       		.uleb128 0x7
 2584 0057 0D       		.uleb128 0xd
 2585 0058 00       		.byte	0
 2586 0059 03       		.uleb128 0x3
 2587 005a 08       		.uleb128 0x8
 2588 005b 3A       		.uleb128 0x3a
 2589 005c 0B       		.uleb128 0xb
 2590 005d 3B       		.uleb128 0x3b
 2591 005e 0B       		.uleb128 0xb
 2592 005f 49       		.uleb128 0x49
 2593 0060 13       		.uleb128 0x13
 2594 0061 38       		.uleb128 0x38
 2595 0062 0A       		.uleb128 0xa
 2596 0063 00       		.byte	0
 2597 0064 00       		.byte	0
 2598 0065 08       		.uleb128 0x8
 2599 0066 13       		.uleb128 0x13
 2600 0067 01       		.byte	0x1
 2601 0068 0B       		.uleb128 0xb
 2602 0069 0B       		.uleb128 0xb
 2603 006a 3A       		.uleb128 0x3a
 2604 006b 0B       		.uleb128 0xb
 2605 006c 3B       		.uleb128 0x3b
 2606 006d 0B       		.uleb128 0xb
 2607 006e 01       		.uleb128 0x1
 2608 006f 13       		.uleb128 0x13
 2609 0070 00       		.byte	0
 2610 0071 00       		.byte	0
 2611 0072 09       		.uleb128 0x9
 2612 0073 0F       		.uleb128 0xf
 2613 0074 00       		.byte	0
 2614 0075 0B       		.uleb128 0xb
 2615 0076 0B       		.uleb128 0xb
ARM GAS  /tmp/cc3s1bE4.s 			page 47


 2616 0077 49       		.uleb128 0x49
 2617 0078 13       		.uleb128 0x13
 2618 0079 00       		.byte	0
 2619 007a 00       		.byte	0
 2620 007b 0A       		.uleb128 0xa
 2621 007c 0F       		.uleb128 0xf
 2622 007d 00       		.byte	0
 2623 007e 0B       		.uleb128 0xb
 2624 007f 0B       		.uleb128 0xb
 2625 0080 00       		.byte	0
 2626 0081 00       		.byte	0
 2627 0082 0B       		.uleb128 0xb
 2628 0083 13       		.uleb128 0x13
 2629 0084 01       		.byte	0x1
 2630 0085 03       		.uleb128 0x3
 2631 0086 0E       		.uleb128 0xe
 2632 0087 0B       		.uleb128 0xb
 2633 0088 0B       		.uleb128 0xb
 2634 0089 3A       		.uleb128 0x3a
 2635 008a 0B       		.uleb128 0xb
 2636 008b 3B       		.uleb128 0x3b
 2637 008c 05       		.uleb128 0x5
 2638 008d 01       		.uleb128 0x1
 2639 008e 13       		.uleb128 0x13
 2640 008f 00       		.byte	0
 2641 0090 00       		.byte	0
 2642 0091 0C       		.uleb128 0xc
 2643 0092 0D       		.uleb128 0xd
 2644 0093 00       		.byte	0
 2645 0094 03       		.uleb128 0x3
 2646 0095 08       		.uleb128 0x8
 2647 0096 3A       		.uleb128 0x3a
 2648 0097 0B       		.uleb128 0xb
 2649 0098 3B       		.uleb128 0x3b
 2650 0099 05       		.uleb128 0x5
 2651 009a 49       		.uleb128 0x49
 2652 009b 13       		.uleb128 0x13
 2653 009c 38       		.uleb128 0x38
 2654 009d 0A       		.uleb128 0xa
 2655 009e 00       		.byte	0
 2656 009f 00       		.byte	0
 2657 00a0 0D       		.uleb128 0xd
 2658 00a1 35       		.uleb128 0x35
 2659 00a2 00       		.byte	0
 2660 00a3 49       		.uleb128 0x49
 2661 00a4 13       		.uleb128 0x13
 2662 00a5 00       		.byte	0
 2663 00a6 00       		.byte	0
 2664 00a7 0E       		.uleb128 0xe
 2665 00a8 17       		.uleb128 0x17
 2666 00a9 01       		.byte	0x1
 2667 00aa 0B       		.uleb128 0xb
 2668 00ab 0B       		.uleb128 0xb
 2669 00ac 3A       		.uleb128 0x3a
 2670 00ad 0B       		.uleb128 0xb
 2671 00ae 3B       		.uleb128 0x3b
 2672 00af 0B       		.uleb128 0xb
ARM GAS  /tmp/cc3s1bE4.s 			page 48


 2673 00b0 01       		.uleb128 0x1
 2674 00b1 13       		.uleb128 0x13
 2675 00b2 00       		.byte	0
 2676 00b3 00       		.byte	0
 2677 00b4 0F       		.uleb128 0xf
 2678 00b5 0D       		.uleb128 0xd
 2679 00b6 00       		.byte	0
 2680 00b7 03       		.uleb128 0x3
 2681 00b8 0E       		.uleb128 0xe
 2682 00b9 3A       		.uleb128 0x3a
 2683 00ba 0B       		.uleb128 0xb
 2684 00bb 3B       		.uleb128 0x3b
 2685 00bc 0B       		.uleb128 0xb
 2686 00bd 49       		.uleb128 0x49
 2687 00be 13       		.uleb128 0x13
 2688 00bf 00       		.byte	0
 2689 00c0 00       		.byte	0
 2690 00c1 10       		.uleb128 0x10
 2691 00c2 26       		.uleb128 0x26
 2692 00c3 00       		.byte	0
 2693 00c4 49       		.uleb128 0x49
 2694 00c5 13       		.uleb128 0x13
 2695 00c6 00       		.byte	0
 2696 00c7 00       		.byte	0
 2697 00c8 11       		.uleb128 0x11
 2698 00c9 04       		.uleb128 0x4
 2699 00ca 01       		.byte	0x1
 2700 00cb 0B       		.uleb128 0xb
 2701 00cc 0B       		.uleb128 0xb
 2702 00cd 3A       		.uleb128 0x3a
 2703 00ce 0B       		.uleb128 0xb
 2704 00cf 3B       		.uleb128 0x3b
 2705 00d0 0B       		.uleb128 0xb
 2706 00d1 01       		.uleb128 0x1
 2707 00d2 13       		.uleb128 0x13
 2708 00d3 00       		.byte	0
 2709 00d4 00       		.byte	0
 2710 00d5 12       		.uleb128 0x12
 2711 00d6 28       		.uleb128 0x28
 2712 00d7 00       		.byte	0
 2713 00d8 03       		.uleb128 0x3
 2714 00d9 0E       		.uleb128 0xe
 2715 00da 1C       		.uleb128 0x1c
 2716 00db 0D       		.uleb128 0xd
 2717 00dc 00       		.byte	0
 2718 00dd 00       		.byte	0
 2719 00de 13       		.uleb128 0x13
 2720 00df 13       		.uleb128 0x13
 2721 00e0 01       		.byte	0x1
 2722 00e1 03       		.uleb128 0x3
 2723 00e2 0E       		.uleb128 0xe
 2724 00e3 0B       		.uleb128 0xb
 2725 00e4 05       		.uleb128 0x5
 2726 00e5 3A       		.uleb128 0x3a
 2727 00e6 0B       		.uleb128 0xb
 2728 00e7 3B       		.uleb128 0x3b
 2729 00e8 0B       		.uleb128 0xb
ARM GAS  /tmp/cc3s1bE4.s 			page 49


 2730 00e9 01       		.uleb128 0x1
 2731 00ea 13       		.uleb128 0x13
 2732 00eb 00       		.byte	0
 2733 00ec 00       		.byte	0
 2734 00ed 14       		.uleb128 0x14
 2735 00ee 01       		.uleb128 0x1
 2736 00ef 01       		.byte	0x1
 2737 00f0 49       		.uleb128 0x49
 2738 00f1 13       		.uleb128 0x13
 2739 00f2 01       		.uleb128 0x1
 2740 00f3 13       		.uleb128 0x13
 2741 00f4 00       		.byte	0
 2742 00f5 00       		.byte	0
 2743 00f6 15       		.uleb128 0x15
 2744 00f7 21       		.uleb128 0x21
 2745 00f8 00       		.byte	0
 2746 00f9 49       		.uleb128 0x49
 2747 00fa 13       		.uleb128 0x13
 2748 00fb 2F       		.uleb128 0x2f
 2749 00fc 0B       		.uleb128 0xb
 2750 00fd 00       		.byte	0
 2751 00fe 00       		.byte	0
 2752 00ff 16       		.uleb128 0x16
 2753 0100 13       		.uleb128 0x13
 2754 0101 01       		.byte	0x1
 2755 0102 03       		.uleb128 0x3
 2756 0103 08       		.uleb128 0x8
 2757 0104 0B       		.uleb128 0xb
 2758 0105 0B       		.uleb128 0xb
 2759 0106 3A       		.uleb128 0x3a
 2760 0107 0B       		.uleb128 0xb
 2761 0108 3B       		.uleb128 0x3b
 2762 0109 0B       		.uleb128 0xb
 2763 010a 01       		.uleb128 0x1
 2764 010b 13       		.uleb128 0x13
 2765 010c 00       		.byte	0
 2766 010d 00       		.byte	0
 2767 010e 17       		.uleb128 0x17
 2768 010f 2E       		.uleb128 0x2e
 2769 0110 01       		.byte	0x1
 2770 0111 3F       		.uleb128 0x3f
 2771 0112 0C       		.uleb128 0xc
 2772 0113 03       		.uleb128 0x3
 2773 0114 0E       		.uleb128 0xe
 2774 0115 3A       		.uleb128 0x3a
 2775 0116 0B       		.uleb128 0xb
 2776 0117 3B       		.uleb128 0x3b
 2777 0118 05       		.uleb128 0x5
 2778 0119 27       		.uleb128 0x27
 2779 011a 0C       		.uleb128 0xc
 2780 011b 11       		.uleb128 0x11
 2781 011c 01       		.uleb128 0x1
 2782 011d 12       		.uleb128 0x12
 2783 011e 01       		.uleb128 0x1
 2784 011f 40       		.uleb128 0x40
 2785 0120 06       		.uleb128 0x6
 2786 0121 9742     		.uleb128 0x2117
ARM GAS  /tmp/cc3s1bE4.s 			page 50


 2787 0123 0C       		.uleb128 0xc
 2788 0124 01       		.uleb128 0x1
 2789 0125 13       		.uleb128 0x13
 2790 0126 00       		.byte	0
 2791 0127 00       		.byte	0
 2792 0128 18       		.uleb128 0x18
 2793 0129 34       		.uleb128 0x34
 2794 012a 00       		.byte	0
 2795 012b 03       		.uleb128 0x3
 2796 012c 08       		.uleb128 0x8
 2797 012d 3A       		.uleb128 0x3a
 2798 012e 0B       		.uleb128 0xb
 2799 012f 3B       		.uleb128 0x3b
 2800 0130 05       		.uleb128 0x5
 2801 0131 49       		.uleb128 0x49
 2802 0132 13       		.uleb128 0x13
 2803 0133 02       		.uleb128 0x2
 2804 0134 06       		.uleb128 0x6
 2805 0135 00       		.byte	0
 2806 0136 00       		.byte	0
 2807 0137 19       		.uleb128 0x19
 2808 0138 898201   		.uleb128 0x4109
 2809 013b 01       		.byte	0x1
 2810 013c 11       		.uleb128 0x11
 2811 013d 01       		.uleb128 0x1
 2812 013e 31       		.uleb128 0x31
 2813 013f 13       		.uleb128 0x13
 2814 0140 01       		.uleb128 0x1
 2815 0141 13       		.uleb128 0x13
 2816 0142 00       		.byte	0
 2817 0143 00       		.byte	0
 2818 0144 1A       		.uleb128 0x1a
 2819 0145 8A8201   		.uleb128 0x410a
 2820 0148 00       		.byte	0
 2821 0149 02       		.uleb128 0x2
 2822 014a 0A       		.uleb128 0xa
 2823 014b 9142     		.uleb128 0x2111
 2824 014d 0A       		.uleb128 0xa
 2825 014e 00       		.byte	0
 2826 014f 00       		.byte	0
 2827 0150 1B       		.uleb128 0x1b
 2828 0151 898201   		.uleb128 0x4109
 2829 0154 00       		.byte	0
 2830 0155 11       		.uleb128 0x11
 2831 0156 01       		.uleb128 0x1
 2832 0157 9542     		.uleb128 0x2115
 2833 0159 0C       		.uleb128 0xc
 2834 015a 31       		.uleb128 0x31
 2835 015b 13       		.uleb128 0x13
 2836 015c 00       		.byte	0
 2837 015d 00       		.byte	0
 2838 015e 1C       		.uleb128 0x1c
 2839 015f 2E       		.uleb128 0x2e
 2840 0160 01       		.byte	0x1
 2841 0161 03       		.uleb128 0x3
 2842 0162 0E       		.uleb128 0xe
 2843 0163 3A       		.uleb128 0x3a
ARM GAS  /tmp/cc3s1bE4.s 			page 51


 2844 0164 0B       		.uleb128 0xb
 2845 0165 3B       		.uleb128 0x3b
 2846 0166 0B       		.uleb128 0xb
 2847 0167 27       		.uleb128 0x27
 2848 0168 0C       		.uleb128 0xc
 2849 0169 20       		.uleb128 0x20
 2850 016a 0B       		.uleb128 0xb
 2851 016b 01       		.uleb128 0x1
 2852 016c 13       		.uleb128 0x13
 2853 016d 00       		.byte	0
 2854 016e 00       		.byte	0
 2855 016f 1D       		.uleb128 0x1d
 2856 0170 05       		.uleb128 0x5
 2857 0171 00       		.byte	0
 2858 0172 03       		.uleb128 0x3
 2859 0173 08       		.uleb128 0x8
 2860 0174 3A       		.uleb128 0x3a
 2861 0175 0B       		.uleb128 0xb
 2862 0176 3B       		.uleb128 0x3b
 2863 0177 0B       		.uleb128 0xb
 2864 0178 49       		.uleb128 0x49
 2865 0179 13       		.uleb128 0x13
 2866 017a 00       		.byte	0
 2867 017b 00       		.byte	0
 2868 017c 1E       		.uleb128 0x1e
 2869 017d 34       		.uleb128 0x34
 2870 017e 00       		.byte	0
 2871 017f 03       		.uleb128 0x3
 2872 0180 0E       		.uleb128 0xe
 2873 0181 3A       		.uleb128 0x3a
 2874 0182 0B       		.uleb128 0xb
 2875 0183 3B       		.uleb128 0x3b
 2876 0184 0B       		.uleb128 0xb
 2877 0185 49       		.uleb128 0x49
 2878 0186 13       		.uleb128 0x13
 2879 0187 00       		.byte	0
 2880 0188 00       		.byte	0
 2881 0189 1F       		.uleb128 0x1f
 2882 018a 05       		.uleb128 0x5
 2883 018b 00       		.byte	0
 2884 018c 03       		.uleb128 0x3
 2885 018d 0E       		.uleb128 0xe
 2886 018e 3A       		.uleb128 0x3a
 2887 018f 0B       		.uleb128 0xb
 2888 0190 3B       		.uleb128 0x3b
 2889 0191 05       		.uleb128 0x5
 2890 0192 49       		.uleb128 0x49
 2891 0193 13       		.uleb128 0x13
 2892 0194 02       		.uleb128 0x2
 2893 0195 06       		.uleb128 0x6
 2894 0196 00       		.byte	0
 2895 0197 00       		.byte	0
 2896 0198 20       		.uleb128 0x20
 2897 0199 1D       		.uleb128 0x1d
 2898 019a 01       		.byte	0x1
 2899 019b 31       		.uleb128 0x31
 2900 019c 13       		.uleb128 0x13
ARM GAS  /tmp/cc3s1bE4.s 			page 52


 2901 019d 52       		.uleb128 0x52
 2902 019e 01       		.uleb128 0x1
 2903 019f 55       		.uleb128 0x55
 2904 01a0 06       		.uleb128 0x6
 2905 01a1 58       		.uleb128 0x58
 2906 01a2 0B       		.uleb128 0xb
 2907 01a3 59       		.uleb128 0x59
 2908 01a4 05       		.uleb128 0x5
 2909 01a5 01       		.uleb128 0x1
 2910 01a6 13       		.uleb128 0x13
 2911 01a7 00       		.byte	0
 2912 01a8 00       		.byte	0
 2913 01a9 21       		.uleb128 0x21
 2914 01aa 05       		.uleb128 0x5
 2915 01ab 00       		.byte	0
 2916 01ac 31       		.uleb128 0x31
 2917 01ad 13       		.uleb128 0x13
 2918 01ae 02       		.uleb128 0x2
 2919 01af 06       		.uleb128 0x6
 2920 01b0 00       		.byte	0
 2921 01b1 00       		.byte	0
 2922 01b2 22       		.uleb128 0x22
 2923 01b3 0B       		.uleb128 0xb
 2924 01b4 01       		.byte	0x1
 2925 01b5 55       		.uleb128 0x55
 2926 01b6 06       		.uleb128 0x6
 2927 01b7 00       		.byte	0
 2928 01b8 00       		.byte	0
 2929 01b9 23       		.uleb128 0x23
 2930 01ba 34       		.uleb128 0x34
 2931 01bb 00       		.byte	0
 2932 01bc 31       		.uleb128 0x31
 2933 01bd 13       		.uleb128 0x13
 2934 01be 02       		.uleb128 0x2
 2935 01bf 06       		.uleb128 0x6
 2936 01c0 00       		.byte	0
 2937 01c1 00       		.byte	0
 2938 01c2 24       		.uleb128 0x24
 2939 01c3 898201   		.uleb128 0x4109
 2940 01c6 00       		.byte	0
 2941 01c7 11       		.uleb128 0x11
 2942 01c8 01       		.uleb128 0x1
 2943 01c9 31       		.uleb128 0x31
 2944 01ca 13       		.uleb128 0x13
 2945 01cb 00       		.byte	0
 2946 01cc 00       		.byte	0
 2947 01cd 25       		.uleb128 0x25
 2948 01ce 898201   		.uleb128 0x4109
 2949 01d1 01       		.byte	0x1
 2950 01d2 11       		.uleb128 0x11
 2951 01d3 01       		.uleb128 0x1
 2952 01d4 9542     		.uleb128 0x2115
 2953 01d6 0C       		.uleb128 0xc
 2954 01d7 31       		.uleb128 0x31
 2955 01d8 13       		.uleb128 0x13
 2956 01d9 01       		.uleb128 0x1
 2957 01da 13       		.uleb128 0x13
ARM GAS  /tmp/cc3s1bE4.s 			page 53


 2958 01db 00       		.byte	0
 2959 01dc 00       		.byte	0
 2960 01dd 26       		.uleb128 0x26
 2961 01de 2E       		.uleb128 0x2e
 2962 01df 01       		.byte	0x1
 2963 01e0 3F       		.uleb128 0x3f
 2964 01e1 0C       		.uleb128 0xc
 2965 01e2 03       		.uleb128 0x3
 2966 01e3 0E       		.uleb128 0xe
 2967 01e4 3A       		.uleb128 0x3a
 2968 01e5 0B       		.uleb128 0xb
 2969 01e6 3B       		.uleb128 0x3b
 2970 01e7 05       		.uleb128 0x5
 2971 01e8 27       		.uleb128 0x27
 2972 01e9 0C       		.uleb128 0xc
 2973 01ea 49       		.uleb128 0x49
 2974 01eb 13       		.uleb128 0x13
 2975 01ec 11       		.uleb128 0x11
 2976 01ed 01       		.uleb128 0x1
 2977 01ee 12       		.uleb128 0x12
 2978 01ef 01       		.uleb128 0x1
 2979 01f0 40       		.uleb128 0x40
 2980 01f1 06       		.uleb128 0x6
 2981 01f2 9742     		.uleb128 0x2117
 2982 01f4 0C       		.uleb128 0xc
 2983 01f5 01       		.uleb128 0x1
 2984 01f6 13       		.uleb128 0x13
 2985 01f7 00       		.byte	0
 2986 01f8 00       		.byte	0
 2987 01f9 27       		.uleb128 0x27
 2988 01fa 34       		.uleb128 0x34
 2989 01fb 00       		.byte	0
 2990 01fc 03       		.uleb128 0x3
 2991 01fd 0E       		.uleb128 0xe
 2992 01fe 3A       		.uleb128 0x3a
 2993 01ff 0B       		.uleb128 0xb
 2994 0200 3B       		.uleb128 0x3b
 2995 0201 05       		.uleb128 0x5
 2996 0202 49       		.uleb128 0x49
 2997 0203 13       		.uleb128 0x13
 2998 0204 02       		.uleb128 0x2
 2999 0205 06       		.uleb128 0x6
 3000 0206 00       		.byte	0
 3001 0207 00       		.byte	0
 3002 0208 28       		.uleb128 0x28
 3003 0209 0B       		.uleb128 0xb
 3004 020a 01       		.byte	0x1
 3005 020b 11       		.uleb128 0x11
 3006 020c 01       		.uleb128 0x1
 3007 020d 12       		.uleb128 0x12
 3008 020e 01       		.uleb128 0x1
 3009 020f 01       		.uleb128 0x1
 3010 0210 13       		.uleb128 0x13
 3011 0211 00       		.byte	0
 3012 0212 00       		.byte	0
 3013 0213 29       		.uleb128 0x29
 3014 0214 898201   		.uleb128 0x4109
ARM GAS  /tmp/cc3s1bE4.s 			page 54


 3015 0217 01       		.byte	0x1
 3016 0218 11       		.uleb128 0x11
 3017 0219 01       		.uleb128 0x1
 3018 021a 31       		.uleb128 0x31
 3019 021b 13       		.uleb128 0x13
 3020 021c 00       		.byte	0
 3021 021d 00       		.byte	0
 3022 021e 2A       		.uleb128 0x2a
 3023 021f 34       		.uleb128 0x34
 3024 0220 00       		.byte	0
 3025 0221 03       		.uleb128 0x3
 3026 0222 08       		.uleb128 0x8
 3027 0223 3A       		.uleb128 0x3a
 3028 0224 0B       		.uleb128 0xb
 3029 0225 3B       		.uleb128 0x3b
 3030 0226 0B       		.uleb128 0xb
 3031 0227 49       		.uleb128 0x49
 3032 0228 13       		.uleb128 0x13
 3033 0229 02       		.uleb128 0x2
 3034 022a 0A       		.uleb128 0xa
 3035 022b 00       		.byte	0
 3036 022c 00       		.byte	0
 3037 022d 2B       		.uleb128 0x2b
 3038 022e 34       		.uleb128 0x34
 3039 022f 00       		.byte	0
 3040 0230 03       		.uleb128 0x3
 3041 0231 0E       		.uleb128 0xe
 3042 0232 3A       		.uleb128 0x3a
 3043 0233 0B       		.uleb128 0xb
 3044 0234 3B       		.uleb128 0x3b
 3045 0235 0B       		.uleb128 0xb
 3046 0236 49       		.uleb128 0x49
 3047 0237 13       		.uleb128 0x13
 3048 0238 02       		.uleb128 0x2
 3049 0239 0A       		.uleb128 0xa
 3050 023a 00       		.byte	0
 3051 023b 00       		.byte	0
 3052 023c 2C       		.uleb128 0x2c
 3053 023d 34       		.uleb128 0x34
 3054 023e 00       		.byte	0
 3055 023f 03       		.uleb128 0x3
 3056 0240 0E       		.uleb128 0xe
 3057 0241 3A       		.uleb128 0x3a
 3058 0242 0B       		.uleb128 0xb
 3059 0243 3B       		.uleb128 0x3b
 3060 0244 0B       		.uleb128 0xb
 3061 0245 49       		.uleb128 0x49
 3062 0246 13       		.uleb128 0x13
 3063 0247 3F       		.uleb128 0x3f
 3064 0248 0C       		.uleb128 0xc
 3065 0249 3C       		.uleb128 0x3c
 3066 024a 0C       		.uleb128 0xc
 3067 024b 00       		.byte	0
 3068 024c 00       		.byte	0
 3069 024d 2D       		.uleb128 0x2d
 3070 024e 21       		.uleb128 0x21
 3071 024f 00       		.byte	0
ARM GAS  /tmp/cc3s1bE4.s 			page 55


 3072 0250 49       		.uleb128 0x49
 3073 0251 13       		.uleb128 0x13
 3074 0252 2F       		.uleb128 0x2f
 3075 0253 05       		.uleb128 0x5
 3076 0254 00       		.byte	0
 3077 0255 00       		.byte	0
 3078 0256 2E       		.uleb128 0x2e
 3079 0257 34       		.uleb128 0x34
 3080 0258 00       		.byte	0
 3081 0259 03       		.uleb128 0x3
 3082 025a 0E       		.uleb128 0xe
 3083 025b 3A       		.uleb128 0x3a
 3084 025c 0B       		.uleb128 0xb
 3085 025d 3B       		.uleb128 0x3b
 3086 025e 0B       		.uleb128 0xb
 3087 025f 49       		.uleb128 0x49
 3088 0260 13       		.uleb128 0x13
 3089 0261 3F       		.uleb128 0x3f
 3090 0262 0C       		.uleb128 0xc
 3091 0263 02       		.uleb128 0x2
 3092 0264 0A       		.uleb128 0xa
 3093 0265 00       		.byte	0
 3094 0266 00       		.byte	0
 3095 0267 2F       		.uleb128 0x2f
 3096 0268 2E       		.uleb128 0x2e
 3097 0269 01       		.byte	0x1
 3098 026a 3F       		.uleb128 0x3f
 3099 026b 0C       		.uleb128 0xc
 3100 026c 03       		.uleb128 0x3
 3101 026d 0E       		.uleb128 0xe
 3102 026e 3A       		.uleb128 0x3a
 3103 026f 0B       		.uleb128 0xb
 3104 0270 3B       		.uleb128 0x3b
 3105 0271 0B       		.uleb128 0xb
 3106 0272 27       		.uleb128 0x27
 3107 0273 0C       		.uleb128 0xc
 3108 0274 49       		.uleb128 0x49
 3109 0275 13       		.uleb128 0x13
 3110 0276 3C       		.uleb128 0x3c
 3111 0277 0C       		.uleb128 0xc
 3112 0278 01       		.uleb128 0x1
 3113 0279 13       		.uleb128 0x13
 3114 027a 00       		.byte	0
 3115 027b 00       		.byte	0
 3116 027c 30       		.uleb128 0x30
 3117 027d 05       		.uleb128 0x5
 3118 027e 00       		.byte	0
 3119 027f 49       		.uleb128 0x49
 3120 0280 13       		.uleb128 0x13
 3121 0281 00       		.byte	0
 3122 0282 00       		.byte	0
 3123 0283 31       		.uleb128 0x31
 3124 0284 2E       		.uleb128 0x2e
 3125 0285 00       		.byte	0
 3126 0286 3F       		.uleb128 0x3f
 3127 0287 0C       		.uleb128 0xc
 3128 0288 03       		.uleb128 0x3
ARM GAS  /tmp/cc3s1bE4.s 			page 56


 3129 0289 0E       		.uleb128 0xe
 3130 028a 3A       		.uleb128 0x3a
 3131 028b 0B       		.uleb128 0xb
 3132 028c 3B       		.uleb128 0x3b
 3133 028d 05       		.uleb128 0x5
 3134 028e 27       		.uleb128 0x27
 3135 028f 0C       		.uleb128 0xc
 3136 0290 3C       		.uleb128 0x3c
 3137 0291 0C       		.uleb128 0xc
 3138 0292 00       		.byte	0
 3139 0293 00       		.byte	0
 3140 0294 32       		.uleb128 0x32
 3141 0295 2E       		.uleb128 0x2e
 3142 0296 01       		.byte	0x1
 3143 0297 3F       		.uleb128 0x3f
 3144 0298 0C       		.uleb128 0xc
 3145 0299 03       		.uleb128 0x3
 3146 029a 0E       		.uleb128 0xe
 3147 029b 3A       		.uleb128 0x3a
 3148 029c 0B       		.uleb128 0xb
 3149 029d 3B       		.uleb128 0x3b
 3150 029e 0B       		.uleb128 0xb
 3151 029f 27       		.uleb128 0x27
 3152 02a0 0C       		.uleb128 0xc
 3153 02a1 3C       		.uleb128 0x3c
 3154 02a2 0C       		.uleb128 0xc
 3155 02a3 01       		.uleb128 0x1
 3156 02a4 13       		.uleb128 0x13
 3157 02a5 00       		.byte	0
 3158 02a6 00       		.byte	0
 3159 02a7 33       		.uleb128 0x33
 3160 02a8 2E       		.uleb128 0x2e
 3161 02a9 01       		.byte	0x1
 3162 02aa 3F       		.uleb128 0x3f
 3163 02ab 0C       		.uleb128 0xc
 3164 02ac 03       		.uleb128 0x3
 3165 02ad 0E       		.uleb128 0xe
 3166 02ae 27       		.uleb128 0x27
 3167 02af 0C       		.uleb128 0xc
 3168 02b0 49       		.uleb128 0x49
 3169 02b1 13       		.uleb128 0x13
 3170 02b2 34       		.uleb128 0x34
 3171 02b3 0C       		.uleb128 0xc
 3172 02b4 3C       		.uleb128 0x3c
 3173 02b5 0C       		.uleb128 0xc
 3174 02b6 00       		.byte	0
 3175 02b7 00       		.byte	0
 3176 02b8 00       		.byte	0
 3177              		.section	.debug_loc,"",%progbits
 3178              	.Ldebug_loc0:
 3179              	.LLST0:
 3180 0000 00000000 		.4byte	.LFB8
 3181 0004 02000000 		.4byte	.LCFI0
 3182 0008 0200     		.2byte	0x2
 3183 000a 7D       		.byte	0x7d
 3184 000b 00       		.sleb128 0
 3185 000c 02000000 		.4byte	.LCFI0
ARM GAS  /tmp/cc3s1bE4.s 			page 57


 3186 0010 68000000 		.4byte	.LFE8
 3187 0014 0200     		.2byte	0x2
 3188 0016 7D       		.byte	0x7d
 3189 0017 18       		.sleb128 24
 3190 0018 00000000 		.4byte	0
 3191 001c 00000000 		.4byte	0
 3192              	.LLST1:
 3193 0020 1C000000 		.4byte	.LVL0
 3194 0024 3A000000 		.4byte	.LVL1
 3195 0028 0100     		.2byte	0x1
 3196 002a 53       		.byte	0x53
 3197 002b 3A000000 		.4byte	.LVL1
 3198 002f 43000000 		.4byte	.LVL2-1
 3199 0033 0500     		.2byte	0x5
 3200 0035 03       		.byte	0x3
 3201 0036 00000000 		.4byte	ram
 3202 003a 43000000 		.4byte	.LVL2-1
 3203 003e 68000000 		.4byte	.LFE8
 3204 0042 0400     		.2byte	0x4
 3205 0044 76       		.byte	0x76
 3206 0045 C073     		.sleb128 -1600
 3207 0047 9F       		.byte	0x9f
 3208 0048 00000000 		.4byte	0
 3209 004c 00000000 		.4byte	0
 3210              	.LLST2:
 3211 0050 00000000 		.4byte	.LFB9
 3212 0054 04000000 		.4byte	.LCFI1
 3213 0058 0200     		.2byte	0x2
 3214 005a 7D       		.byte	0x7d
 3215 005b 00       		.sleb128 0
 3216 005c 04000000 		.4byte	.LCFI1
 3217 0060 3C010000 		.4byte	.LFE9
 3218 0064 0200     		.2byte	0x2
 3219 0066 7D       		.byte	0x7d
 3220 0067 18       		.sleb128 24
 3221 0068 00000000 		.4byte	0
 3222 006c 00000000 		.4byte	0
 3223              	.LLST3:
 3224 0070 00000000 		.4byte	.LVL4
 3225 0074 0C000000 		.4byte	.LVL5
 3226 0078 0100     		.2byte	0x1
 3227 007a 50       		.byte	0x50
 3228 007b 0C000000 		.4byte	.LVL5
 3229 007f 36000000 		.4byte	.LVL7
 3230 0083 0100     		.2byte	0x1
 3231 0085 54       		.byte	0x54
 3232 0086 36000000 		.4byte	.LVL7
 3233 008a 3A000000 		.4byte	.LVL8
 3234 008e 0100     		.2byte	0x1
 3235 0090 50       		.byte	0x50
 3236 0091 3A000000 		.4byte	.LVL8
 3237 0095 FE000000 		.4byte	.LVL15
 3238 0099 0100     		.2byte	0x1
 3239 009b 54       		.byte	0x54
 3240 009c FE000000 		.4byte	.LVL15
 3241 00a0 01010000 		.4byte	.LVL16-1
 3242 00a4 0100     		.2byte	0x1
ARM GAS  /tmp/cc3s1bE4.s 			page 58


 3243 00a6 50       		.byte	0x50
 3244 00a7 01010000 		.4byte	.LVL16-1
 3245 00ab 3C010000 		.4byte	.LFE9
 3246 00af 0100     		.2byte	0x1
 3247 00b1 54       		.byte	0x54
 3248 00b2 00000000 		.4byte	0
 3249 00b6 00000000 		.4byte	0
 3250              	.LLST4:
 3251 00ba 52000000 		.4byte	.LVL10
 3252 00be FE000000 		.4byte	.LVL15
 3253 00c2 0100     		.2byte	0x1
 3254 00c4 57       		.byte	0x57
 3255 00c5 04010000 		.4byte	.LVL17
 3256 00c9 3C010000 		.4byte	.LFE9
 3257 00cd 0100     		.2byte	0x1
 3258 00cf 57       		.byte	0x57
 3259 00d0 00000000 		.4byte	0
 3260 00d4 00000000 		.4byte	0
 3261              	.LLST5:
 3262 00d8 84000000 		.4byte	.LVL11
 3263 00dc FE000000 		.4byte	.LVL15
 3264 00e0 0100     		.2byte	0x1
 3265 00e2 57       		.byte	0x57
 3266 00e3 04010000 		.4byte	.LVL17
 3267 00e7 20010000 		.4byte	.LVL22
 3268 00eb 0100     		.2byte	0x1
 3269 00ed 57       		.byte	0x57
 3270 00ee 00000000 		.4byte	0
 3271 00f2 00000000 		.4byte	0
 3272              	.LLST6:
 3273 00f6 A2000000 		.4byte	.LVL12
 3274 00fa C4000000 		.4byte	.LVL13
 3275 00fe 0100     		.2byte	0x1
 3276 0100 52       		.byte	0x52
 3277 0101 00000000 		.4byte	0
 3278 0105 00000000 		.4byte	0
 3279              	.LLST7:
 3280 0109 D0000000 		.4byte	.LVL14
 3281 010d FD000000 		.4byte	.LVL15-1
 3282 0111 0100     		.2byte	0x1
 3283 0113 52       		.byte	0x52
 3284 0114 00000000 		.4byte	0
 3285 0118 00000000 		.4byte	0
 3286              	.LLST8:
 3287 011c 00000000 		.4byte	.LFB10
 3288 0120 04000000 		.4byte	.LCFI2
 3289 0124 0200     		.2byte	0x2
 3290 0126 7D       		.byte	0x7d
 3291 0127 00       		.sleb128 0
 3292 0128 04000000 		.4byte	.LCFI2
 3293 012c 3C010000 		.4byte	.LFE10
 3294 0130 0200     		.2byte	0x2
 3295 0132 7D       		.byte	0x7d
 3296 0133 18       		.sleb128 24
 3297 0134 00000000 		.4byte	0
 3298 0138 00000000 		.4byte	0
 3299              	.LLST9:
ARM GAS  /tmp/cc3s1bE4.s 			page 59


 3300 013c 00000000 		.4byte	.LVL24
 3301 0140 28000000 		.4byte	.LVL28
 3302 0144 0100     		.2byte	0x1
 3303 0146 50       		.byte	0x50
 3304 0147 28000000 		.4byte	.LVL28
 3305 014b AE000000 		.4byte	.LVL42
 3306 014f 0100     		.2byte	0x1
 3307 0151 54       		.byte	0x54
 3308 0152 AE000000 		.4byte	.LVL42
 3309 0156 B1000000 		.4byte	.LVL43-1
 3310 015a 0100     		.2byte	0x1
 3311 015c 50       		.byte	0x50
 3312 015d B1000000 		.4byte	.LVL43-1
 3313 0161 C4000000 		.4byte	.LVL44
 3314 0165 0100     		.2byte	0x1
 3315 0167 54       		.byte	0x54
 3316 0168 C4000000 		.4byte	.LVL44
 3317 016c CA000000 		.4byte	.LVL45
 3318 0170 0400     		.2byte	0x4
 3319 0172 F3       		.byte	0xf3
 3320 0173 01       		.uleb128 0x1
 3321 0174 50       		.byte	0x50
 3322 0175 9F       		.byte	0x9f
 3323 0176 CA000000 		.4byte	.LVL45
 3324 017a CE000000 		.4byte	.LVL47
 3325 017e 0100     		.2byte	0x1
 3326 0180 50       		.byte	0x50
 3327 0181 CE000000 		.4byte	.LVL47
 3328 0185 D8000000 		.4byte	.LVL48
 3329 0189 0100     		.2byte	0x1
 3330 018b 54       		.byte	0x54
 3331 018c D8000000 		.4byte	.LVL48
 3332 0190 DC000000 		.4byte	.LVL49
 3333 0194 0100     		.2byte	0x1
 3334 0196 50       		.byte	0x50
 3335 0197 DC000000 		.4byte	.LVL49
 3336 019b E0000000 		.4byte	.LVL50
 3337 019f 0400     		.2byte	0x4
 3338 01a1 F3       		.byte	0xf3
 3339 01a2 01       		.uleb128 0x1
 3340 01a3 50       		.byte	0x50
 3341 01a4 9F       		.byte	0x9f
 3342 01a5 E0000000 		.4byte	.LVL50
 3343 01a9 E6000000 		.4byte	.LVL52
 3344 01ad 0100     		.2byte	0x1
 3345 01af 54       		.byte	0x54
 3346 01b0 E6000000 		.4byte	.LVL52
 3347 01b4 E8000000 		.4byte	.LVL53
 3348 01b8 0400     		.2byte	0x4
 3349 01ba F3       		.byte	0xf3
 3350 01bb 01       		.uleb128 0x1
 3351 01bc 50       		.byte	0x50
 3352 01bd 9F       		.byte	0x9f
 3353 01be E8000000 		.4byte	.LVL53
 3354 01c2 3C010000 		.4byte	.LFE10
 3355 01c6 0100     		.2byte	0x1
 3356 01c8 54       		.byte	0x54
ARM GAS  /tmp/cc3s1bE4.s 			page 60


 3357 01c9 00000000 		.4byte	0
 3358 01cd 00000000 		.4byte	0
 3359              	.LLST10:
 3360 01d1 00000000 		.4byte	.LVL24
 3361 01d5 06000000 		.4byte	.LVL25
 3362 01d9 0100     		.2byte	0x1
 3363 01db 51       		.byte	0x51
 3364 01dc 06000000 		.4byte	.LVL25
 3365 01e0 0C000000 		.4byte	.LVL26
 3366 01e4 0400     		.2byte	0x4
 3367 01e6 F3       		.byte	0xf3
 3368 01e7 01       		.uleb128 0x1
 3369 01e8 51       		.byte	0x51
 3370 01e9 9F       		.byte	0x9f
 3371 01ea 0C000000 		.4byte	.LVL26
 3372 01ee 18000000 		.4byte	.LVL27
 3373 01f2 0100     		.2byte	0x1
 3374 01f4 55       		.byte	0x55
 3375 01f5 18000000 		.4byte	.LVL27
 3376 01f9 28000000 		.4byte	.LVL28
 3377 01fd 0700     		.2byte	0x7
 3378 01ff 71       		.byte	0x71
 3379 0200 00       		.sleb128 0
 3380 0201 0A       		.byte	0xa
 3381 0202 FCFF     		.2byte	0xfffc
 3382 0204 1A       		.byte	0x1a
 3383 0205 9F       		.byte	0x9f
 3384 0206 AE000000 		.4byte	.LVL42
 3385 020a B1000000 		.4byte	.LVL43-1
 3386 020e 0700     		.2byte	0x7
 3387 0210 71       		.byte	0x71
 3388 0211 00       		.sleb128 0
 3389 0212 0A       		.byte	0xa
 3390 0213 FCFF     		.2byte	0xfffc
 3391 0215 1A       		.byte	0x1a
 3392 0216 9F       		.byte	0x9f
 3393 0217 CA000000 		.4byte	.LVL45
 3394 021b CC000000 		.4byte	.LVL46
 3395 021f 0100     		.2byte	0x1
 3396 0221 55       		.byte	0x55
 3397 0222 CC000000 		.4byte	.LVL46
 3398 0226 CE000000 		.4byte	.LVL47
 3399 022a 0700     		.2byte	0x7
 3400 022c 71       		.byte	0x71
 3401 022d 00       		.sleb128 0
 3402 022e 0A       		.byte	0xa
 3403 022f FCFF     		.2byte	0xfffc
 3404 0231 1A       		.byte	0x1a
 3405 0232 9F       		.byte	0x9f
 3406 0233 D8000000 		.4byte	.LVL48
 3407 0237 E0000000 		.4byte	.LVL50
 3408 023b 0100     		.2byte	0x1
 3409 023d 55       		.byte	0x55
 3410 023e 00000000 		.4byte	0
 3411 0242 00000000 		.4byte	0
 3412              	.LLST11:
 3413 0246 40000000 		.4byte	.LVL31
ARM GAS  /tmp/cc3s1bE4.s 			page 61


 3414 024a 9E000000 		.4byte	.LVL40
 3415 024e 0100     		.2byte	0x1
 3416 0250 57       		.byte	0x57
 3417 0251 E0000000 		.4byte	.LVL50
 3418 0255 3C010000 		.4byte	.LFE10
 3419 0259 0100     		.2byte	0x1
 3420 025b 57       		.byte	0x57
 3421 025c 00000000 		.4byte	0
 3422 0260 00000000 		.4byte	0
 3423              	.LLST12:
 3424 0264 3A000000 		.4byte	.LVL30
 3425 0268 4F000000 		.4byte	.LVL32-1
 3426 026c 0100     		.2byte	0x1
 3427 026e 53       		.byte	0x53
 3428 026f 4F000000 		.4byte	.LVL32-1
 3429 0273 AE000000 		.4byte	.LVL42
 3430 0277 0100     		.2byte	0x1
 3431 0279 58       		.byte	0x58
 3432 027a E0000000 		.4byte	.LVL50
 3433 027e E3000000 		.4byte	.LVL51-1
 3434 0282 0100     		.2byte	0x1
 3435 0284 53       		.byte	0x53
 3436 0285 E3000000 		.4byte	.LVL51-1
 3437 0289 3C010000 		.4byte	.LFE10
 3438 028d 0100     		.2byte	0x1
 3439 028f 58       		.byte	0x58
 3440 0290 00000000 		.4byte	0
 3441 0294 00000000 		.4byte	0
 3442              	.LLST13:
 3443 0298 6E000000 		.4byte	.LVL35
 3444 029c 94000000 		.4byte	.LVL39
 3445 02a0 0100     		.2byte	0x1
 3446 02a2 50       		.byte	0x50
 3447 02a3 F8000000 		.4byte	.LVL55
 3448 02a7 3C010000 		.4byte	.LFE10
 3449 02ab 0100     		.2byte	0x1
 3450 02ad 51       		.byte	0x51
 3451 02ae 00000000 		.4byte	0
 3452 02b2 00000000 		.4byte	0
 3453              	.LLST14:
 3454 02b6 28000000 		.4byte	.LVL28
 3455 02ba 2C000000 		.4byte	.LVL29
 3456 02be 0300     		.2byte	0x3
 3457 02c0 74       		.byte	0x74
 3458 02c1 78       		.sleb128 -8
 3459 02c2 9F       		.byte	0x9f
 3460 02c3 2C000000 		.4byte	.LVL29
 3461 02c7 3A000000 		.4byte	.LVL30
 3462 02cb 0100     		.2byte	0x1
 3463 02cd 58       		.byte	0x58
 3464 02ce 3A000000 		.4byte	.LVL30
 3465 02d2 AE000000 		.4byte	.LVL42
 3466 02d6 0300     		.2byte	0x3
 3467 02d8 74       		.byte	0x74
 3468 02d9 78       		.sleb128 -8
 3469 02da 9F       		.byte	0x9f
 3470 02db E0000000 		.4byte	.LVL50
ARM GAS  /tmp/cc3s1bE4.s 			page 62


 3471 02df E6000000 		.4byte	.LVL52
 3472 02e3 0300     		.2byte	0x3
 3473 02e5 74       		.byte	0x74
 3474 02e6 78       		.sleb128 -8
 3475 02e7 9F       		.byte	0x9f
 3476 02e8 E6000000 		.4byte	.LVL52
 3477 02ec E8000000 		.4byte	.LVL53
 3478 02f0 0600     		.2byte	0x6
 3479 02f2 F3       		.byte	0xf3
 3480 02f3 01       		.uleb128 0x1
 3481 02f4 50       		.byte	0x50
 3482 02f5 38       		.byte	0x38
 3483 02f6 1C       		.byte	0x1c
 3484 02f7 9F       		.byte	0x9f
 3485 02f8 E8000000 		.4byte	.LVL53
 3486 02fc 3C010000 		.4byte	.LFE10
 3487 0300 0300     		.2byte	0x3
 3488 0302 74       		.byte	0x74
 3489 0303 78       		.sleb128 -8
 3490 0304 9F       		.byte	0x9f
 3491 0305 00000000 		.4byte	0
 3492 0309 00000000 		.4byte	0
 3493              	.LLST15:
 3494 030d 58000000 		.4byte	.LVL33
 3495 0311 78000000 		.4byte	.LVL36
 3496 0315 0100     		.2byte	0x1
 3497 0317 51       		.byte	0x51
 3498 0318 78000000 		.4byte	.LVL36
 3499 031c 94000000 		.4byte	.LVL39
 3500 0320 0100     		.2byte	0x1
 3501 0322 52       		.byte	0x52
 3502 0323 E8000000 		.4byte	.LVL53
 3503 0327 EC000000 		.4byte	.LVL54
 3504 032b 0100     		.2byte	0x1
 3505 032d 51       		.byte	0x51
 3506 032e EC000000 		.4byte	.LVL54
 3507 0332 08010000 		.4byte	.LVL56
 3508 0336 0600     		.2byte	0x6
 3509 0338 73       		.byte	0x73
 3510 0339 00       		.sleb128 0
 3511 033a 72       		.byte	0x72
 3512 033b 00       		.sleb128 0
 3513 033c 22       		.byte	0x22
 3514 033d 9F       		.byte	0x9f
 3515 033e 08010000 		.4byte	.LVL56
 3516 0342 3C010000 		.4byte	.LFE10
 3517 0346 0100     		.2byte	0x1
 3518 0348 56       		.byte	0x56
 3519 0349 00000000 		.4byte	0
 3520 034d 00000000 		.4byte	0
 3521              	.LLST16:
 3522 0351 64000000 		.4byte	.LVL34
 3523 0355 82000000 		.4byte	.LVL37
 3524 0359 0200     		.2byte	0x2
 3525 035b 71       		.byte	0x71
 3526 035c 00       		.sleb128 0
 3527 035d 82000000 		.4byte	.LVL37
ARM GAS  /tmp/cc3s1bE4.s 			page 63


 3528 0361 92000000 		.4byte	.LVL38
 3529 0365 0B00     		.2byte	0xb
 3530 0367 74       		.byte	0x74
 3531 0368 78       		.sleb128 -8
 3532 0369 94       		.byte	0x94
 3533 036a 02       		.byte	0x2
 3534 036b 0A       		.byte	0xa
 3535 036c FFFF     		.2byte	0xffff
 3536 036e 1A       		.byte	0x1a
 3537 036f 73       		.byte	0x73
 3538 0370 00       		.sleb128 0
 3539 0371 22       		.byte	0x22
 3540 0372 92000000 		.4byte	.LVL38
 3541 0376 94000000 		.4byte	.LVL39
 3542 037a 0F00     		.2byte	0xf
 3543 037c 74       		.byte	0x74
 3544 037d 78       		.sleb128 -8
 3545 037e 94       		.byte	0x94
 3546 037f 02       		.byte	0x2
 3547 0380 0A       		.byte	0xa
 3548 0381 FFFF     		.2byte	0xffff
 3549 0383 1A       		.byte	0x1a
 3550 0384 03       		.byte	0x3
 3551 0385 00000000 		.4byte	ram
 3552 0389 06       		.byte	0x6
 3553 038a 22       		.byte	0x22
 3554 038b 00000000 		.4byte	0
 3555 038f 00000000 		.4byte	0
 3556              	.LLST17:
 3557 0393 00000000 		.4byte	.LFB11
 3558 0397 04000000 		.4byte	.LCFI3
 3559 039b 0200     		.2byte	0x2
 3560 039d 7D       		.byte	0x7d
 3561 039e 00       		.sleb128 0
 3562 039f 04000000 		.4byte	.LCFI3
 3563 03a3 74010000 		.4byte	.LFE11
 3564 03a7 0200     		.2byte	0x2
 3565 03a9 7D       		.byte	0x7d
 3566 03aa 20       		.sleb128 32
 3567 03ab 00000000 		.4byte	0
 3568 03af 00000000 		.4byte	0
 3569              	.LLST18:
 3570 03b3 00000000 		.4byte	.LVL57
 3571 03b7 0A000000 		.4byte	.LVL58
 3572 03bb 0100     		.2byte	0x1
 3573 03bd 50       		.byte	0x50
 3574 03be 0A000000 		.4byte	.LVL58
 3575 03c2 10000000 		.4byte	.LVL59
 3576 03c6 0400     		.2byte	0x4
 3577 03c8 F3       		.byte	0xf3
 3578 03c9 01       		.uleb128 0x1
 3579 03ca 50       		.byte	0x50
 3580 03cb 9F       		.byte	0x9f
 3581 03cc 10000000 		.4byte	.LVL59
 3582 03d0 20000000 		.4byte	.LVL60
 3583 03d4 0100     		.2byte	0x1
 3584 03d6 57       		.byte	0x57
ARM GAS  /tmp/cc3s1bE4.s 			page 64


 3585 03d7 20000000 		.4byte	.LVL60
 3586 03db 24000000 		.4byte	.LVL61
 3587 03df 0700     		.2byte	0x7
 3588 03e1 70       		.byte	0x70
 3589 03e2 00       		.sleb128 0
 3590 03e3 0A       		.byte	0xa
 3591 03e4 FCFF     		.2byte	0xfffc
 3592 03e6 1A       		.byte	0x1a
 3593 03e7 9F       		.byte	0x9f
 3594 03e8 7E000000 		.4byte	.LVL71
 3595 03ec 80000000 		.4byte	.LVL72
 3596 03f0 0100     		.2byte	0x1
 3597 03f2 57       		.byte	0x57
 3598 03f3 84000000 		.4byte	.LVL73
 3599 03f7 8A000000 		.4byte	.LVL74
 3600 03fb 0100     		.2byte	0x1
 3601 03fd 57       		.byte	0x57
 3602 03fe 8A000000 		.4byte	.LVL74
 3603 0402 8C000000 		.4byte	.LVL75
 3604 0406 0700     		.2byte	0x7
 3605 0408 70       		.byte	0x70
 3606 0409 00       		.sleb128 0
 3607 040a 0A       		.byte	0xa
 3608 040b FCFF     		.2byte	0xfffc
 3609 040d 1A       		.byte	0x1a
 3610 040e 9F       		.byte	0x9f
 3611 040f 00000000 		.4byte	0
 3612 0413 00000000 		.4byte	0
 3613              	.LLST19:
 3614 0417 42000000 		.4byte	.LVL63
 3615 041b 46000000 		.4byte	.LVL64
 3616 041f 0100     		.2byte	0x1
 3617 0421 51       		.byte	0x51
 3618 0422 54000000 		.4byte	.LVL65
 3619 0426 58000000 		.4byte	.LVL66
 3620 042a 0100     		.2byte	0x1
 3621 042c 50       		.byte	0x50
 3622 042d 62000000 		.4byte	.LVL68
 3623 0431 66000000 		.4byte	.LVL69
 3624 0435 0200     		.2byte	0x2
 3625 0437 74       		.byte	0x74
 3626 0438 00       		.sleb128 0
 3627 0439 00000000 		.4byte	0
 3628 043d 00000000 		.4byte	0
 3629              	.LLST20:
 3630 0441 E2000000 		.4byte	.LVL77
 3631 0445 22010000 		.4byte	.LVL79
 3632 0449 0100     		.2byte	0x1
 3633 044b 56       		.byte	0x56
 3634 044c 00000000 		.4byte	0
 3635 0450 00000000 		.4byte	0
 3636              	.LLST21:
 3637 0454 46000000 		.4byte	.LVL64
 3638 0458 58000000 		.4byte	.LVL66
 3639 045c 0100     		.2byte	0x1
 3640 045e 54       		.byte	0x54
 3641 045f 5A000000 		.4byte	.LVL67
ARM GAS  /tmp/cc3s1bE4.s 			page 65


 3642 0463 66000000 		.4byte	.LVL69
 3643 0467 0100     		.2byte	0x1
 3644 0469 54       		.byte	0x54
 3645 046a 8C000000 		.4byte	.LVL75
 3646 046e 74010000 		.4byte	.LFE11
 3647 0472 0100     		.2byte	0x1
 3648 0474 54       		.byte	0x54
 3649 0475 00000000 		.4byte	0
 3650 0479 00000000 		.4byte	0
 3651              	.LLST22:
 3652 047d E6000000 		.4byte	.LVL78
 3653 0481 22010000 		.4byte	.LVL79
 3654 0485 0100     		.2byte	0x1
 3655 0487 59       		.byte	0x59
 3656 0488 00000000 		.4byte	0
 3657 048c 00000000 		.4byte	0
 3658              	.LLST23:
 3659 0490 00000000 		.4byte	.LFB12
 3660 0494 02000000 		.4byte	.LCFI4
 3661 0498 0200     		.2byte	0x2
 3662 049a 7D       		.byte	0x7d
 3663 049b 00       		.sleb128 0
 3664 049c 02000000 		.4byte	.LCFI4
 3665 04a0 1C000000 		.4byte	.LFE12
 3666 04a4 0200     		.2byte	0x2
 3667 04a6 7D       		.byte	0x7d
 3668 04a7 10       		.sleb128 16
 3669 04a8 00000000 		.4byte	0
 3670 04ac 00000000 		.4byte	0
 3671              	.LLST24:
 3672 04b0 00000000 		.4byte	.LVL83
 3673 04b4 08000000 		.4byte	.LVL84
 3674 04b8 0100     		.2byte	0x1
 3675 04ba 50       		.byte	0x50
 3676 04bb 08000000 		.4byte	.LVL84
 3677 04bf 1C000000 		.4byte	.LFE12
 3678 04c3 0400     		.2byte	0x4
 3679 04c5 F3       		.byte	0xf3
 3680 04c6 01       		.uleb128 0x1
 3681 04c7 50       		.byte	0x50
 3682 04c8 9F       		.byte	0x9f
 3683 04c9 00000000 		.4byte	0
 3684 04cd 00000000 		.4byte	0
 3685              	.LLST25:
 3686 04d1 00000000 		.4byte	.LVL83
 3687 04d5 0B000000 		.4byte	.LVL85-1
 3688 04d9 0100     		.2byte	0x1
 3689 04db 51       		.byte	0x51
 3690 04dc 0B000000 		.4byte	.LVL85-1
 3691 04e0 1C000000 		.4byte	.LFE12
 3692 04e4 0400     		.2byte	0x4
 3693 04e6 F3       		.byte	0xf3
 3694 04e7 01       		.uleb128 0x1
 3695 04e8 51       		.byte	0x51
 3696 04e9 9F       		.byte	0x9f
 3697 04ea 00000000 		.4byte	0
 3698 04ee 00000000 		.4byte	0
ARM GAS  /tmp/cc3s1bE4.s 			page 66


 3699              	.LLST26:
 3700 04f2 0C000000 		.4byte	.LVL85
 3701 04f6 17000000 		.4byte	.LVL86-1
 3702 04fa 0100     		.2byte	0x1
 3703 04fc 50       		.byte	0x50
 3704 04fd 17000000 		.4byte	.LVL86-1
 3705 0501 1C000000 		.4byte	.LFE12
 3706 0505 0100     		.2byte	0x1
 3707 0507 55       		.byte	0x55
 3708 0508 00000000 		.4byte	0
 3709 050c 00000000 		.4byte	0
 3710              		.section	.debug_aranges,"",%progbits
 3711 0000 3C000000 		.4byte	0x3c
 3712 0004 0200     		.2byte	0x2
 3713 0006 00000000 		.4byte	.Ldebug_info0
 3714 000a 04       		.byte	0x4
 3715 000b 00       		.byte	0
 3716 000c 0000     		.2byte	0
 3717 000e 0000     		.2byte	0
 3718 0010 00000000 		.4byte	.LFB8
 3719 0014 68000000 		.4byte	.LFE8-.LFB8
 3720 0018 00000000 		.4byte	.LFB9
 3721 001c 3C010000 		.4byte	.LFE9-.LFB9
 3722 0020 00000000 		.4byte	.LFB10
 3723 0024 3C010000 		.4byte	.LFE10-.LFB10
 3724 0028 00000000 		.4byte	.LFB11
 3725 002c 74010000 		.4byte	.LFE11-.LFB11
 3726 0030 00000000 		.4byte	.LFB12
 3727 0034 1C000000 		.4byte	.LFE12-.LFB12
 3728 0038 00000000 		.4byte	0
 3729 003c 00000000 		.4byte	0
 3730              		.section	.debug_ranges,"",%progbits
 3731              	.Ldebug_ranges0:
 3732 0000 7E000000 		.4byte	.LBB4
 3733 0004 80000000 		.4byte	.LBE4
 3734 0008 84000000 		.4byte	.LBB8
 3735 000c F4000000 		.4byte	.LBE8
 3736 0010 04010000 		.4byte	.LBB9
 3737 0014 20010000 		.4byte	.LBE9
 3738 0018 00000000 		.4byte	0
 3739 001c 00000000 		.4byte	0
 3740 0020 7E000000 		.4byte	.LBB5
 3741 0024 80000000 		.4byte	.LBE5
 3742 0028 84000000 		.4byte	.LBB6
 3743 002c F4000000 		.4byte	.LBE6
 3744 0030 04010000 		.4byte	.LBB7
 3745 0034 20010000 		.4byte	.LBE7
 3746 0038 00000000 		.4byte	0
 3747 003c 00000000 		.4byte	0
 3748 0040 00000000 		.4byte	.LFB8
 3749 0044 68000000 		.4byte	.LFE8
 3750 0048 00000000 		.4byte	.LFB9
 3751 004c 3C010000 		.4byte	.LFE9
 3752 0050 00000000 		.4byte	.LFB10
 3753 0054 3C010000 		.4byte	.LFE10
 3754 0058 00000000 		.4byte	.LFB11
 3755 005c 74010000 		.4byte	.LFE11
ARM GAS  /tmp/cc3s1bE4.s 			page 67


 3756 0060 00000000 		.4byte	.LFB12
 3757 0064 1C000000 		.4byte	.LFE12
 3758 0068 00000000 		.4byte	0
 3759 006c 00000000 		.4byte	0
 3760              		.section	.debug_line,"",%progbits
 3761              	.Ldebug_line0:
 3762 0000 98030000 		.section	.debug_str,"MS",%progbits,1
 3762      0200BA01 
 3762      00000201 
 3762      FB0E0D00 
 3762      01010101 
 3763              	.LASF44:
 3764 0000 54687265 		.ascii	"ThreadsList\000"
 3764      6164734C 
 3764      69737400 
 3765              	.LASF36:
 3766 000c 705F7761 		.ascii	"p_waiting\000"
 3766      6974696E 
 3766      6700
 3767              	.LASF114:
 3768 0016 6D656D5F 		.ascii	"mem_free\000"
 3768      66726565 
 3768      00
 3769              	.LASF72:
 3770 001f 4D454D50 		.ascii	"MEMP_TCP_PCB_LISTEN\000"
 3770      5F544350 
 3770      5F504342 
 3770      5F4C4953 
 3770      54454E00 
 3771              	.LASF35:
 3772 0033 705F7469 		.ascii	"p_time\000"
 3772      6D6500
 3773              	.LASF45:
 3774 003a 72656761 		.ascii	"regarm_t\000"
 3774      726D5F74 
 3774      00
 3775              	.LASF26:
 3776 0043 705F7072 		.ascii	"p_prio\000"
 3776      696F00
 3777              	.LASF21:
 3778 004a 73797374 		.ascii	"systime_t\000"
 3778      696D655F 
 3778      7400
 3779              	.LASF54:
 3780 0054 6D5F6F77 		.ascii	"m_owner\000"
 3780      6E657200 
 3781              	.LASF50:
 3782 005c 735F7175 		.ascii	"s_queue\000"
 3782      65756500 
 3783              	.LASF37:
 3784 0064 705F6D73 		.ascii	"p_msgqueue\000"
 3784      67717565 
 3784      756500
 3785              	.LASF0:
 3786 006f 756E7369 		.ascii	"unsigned int\000"
 3786      676E6564 
 3786      20696E74 
ARM GAS  /tmp/cc3s1bE4.s 			page 68


 3786      00
 3787              	.LASF109:
 3788 007c 6E657874 		.ascii	"next\000"
 3788      00
 3789              	.LASF67:
 3790 0081 6572725F 		.ascii	"err_t\000"
 3790      7400
 3791              	.LASF125:
 3792 0087 6C667265 		.ascii	"lfree\000"
 3792      6500
 3793              	.LASF63:
 3794 008d 7531365F 		.ascii	"u16_t\000"
 3794      7400
 3795              	.LASF58:
 3796 0093 77746F62 		.ascii	"wtobjp\000"
 3796      6A7000
 3797              	.LASF95:
 3798 009a 73746174 		.ascii	"stats_mem\000"
 3798      735F6D65 
 3798      6D00
 3799              	.LASF59:
 3800 00a4 65776D61 		.ascii	"ewmask\000"
 3800      736B00
 3801              	.LASF110:
 3802 00ab 70726576 		.ascii	"prev\000"
 3802      00
 3803              	.LASF82:
 3804 00b0 4D454D50 		.ascii	"MEMP_PBUF_POOL\000"
 3804      5F504255 
 3804      465F504F 
 3804      4F4C00
 3805              	.LASF112:
 3806 00bf 706D656D 		.ascii	"pmem\000"
 3806      00
 3807              	.LASF127:
 3808 00c4 6C776970 		.ascii	"lwip_stats\000"
 3808      5F737461 
 3808      747300
 3809              	.LASF51:
 3810 00cf 735F636E 		.ascii	"s_cnt\000"
 3810      7400
 3811              	.LASF99:
 3812 00d5 73746174 		.ascii	"stats_syselem\000"
 3812      735F7379 
 3812      73656C65 
 3812      6D00
 3813              	.LASF10:
 3814 00e3 75696E74 		.ascii	"uint32_t\000"
 3814      33325F74 
 3814      00
 3815              	.LASF2:
 3816 00ec 696E7438 		.ascii	"int8_t\000"
 3816      5F7400
 3817              	.LASF115:
 3818 00f3 726D656D 		.ascii	"rmem\000"
 3818      00
 3819              	.LASF20:
ARM GAS  /tmp/cc3s1bE4.s 			page 69


 3820 00f8 6576656E 		.ascii	"eventmask_t\000"
 3820      746D6173 
 3820      6B5F7400 
 3821              	.LASF131:
 3822 0104 474E5520 		.ascii	"GNU C 4.7.2\000"
 3822      4320342E 
 3822      372E3200 
 3823              	.LASF78:
 3824 0110 4D454D50 		.ascii	"MEMP_TCPIP_MSG_API\000"
 3824      5F544350 
 3824      49505F4D 
 3824      53475F41 
 3824      504900
 3825              	.LASF93:
 3826 0123 6F707465 		.ascii	"opterr\000"
 3826      727200
 3827              	.LASF101:
 3828 012a 6D757465 		.ascii	"mutex\000"
 3828      7800
 3829              	.LASF106:
 3830 0130 69705F66 		.ascii	"ip_frag\000"
 3830      72616700 
 3831              	.LASF18:
 3832 0138 74707269 		.ascii	"tprio_t\000"
 3832      6F5F7400 
 3833              	.LASF123:
 3834 0140 636F756E 		.ascii	"count\000"
 3834      7400
 3835              	.LASF98:
 3836 0146 696C6C65 		.ascii	"illegal\000"
 3836      67616C00 
 3837              	.LASF105:
 3838 014e 65746861 		.ascii	"etharp\000"
 3838      727000
 3839              	.LASF13:
 3840 0155 6C6F6E67 		.ascii	"long long unsigned int\000"
 3840      206C6F6E 
 3840      6720756E 
 3840      7369676E 
 3840      65642069 
 3841              	.LASF122:
 3842 016c 6D656D5F 		.ascii	"mem_calloc\000"
 3842      63616C6C 
 3842      6F6300
 3843              	.LASF22:
 3844 0177 636E745F 		.ascii	"cnt_t\000"
 3844      7400
 3845              	.LASF28:
 3846 017d 705F6E65 		.ascii	"p_newer\000"
 3846      77657200 
 3847              	.LASF136:
 3848 0185 7379735F 		.ascii	"sys_sem_signal\000"
 3848      73656D5F 
 3848      7369676E 
 3848      616C00
 3849              	.LASF79:
 3850 0194 4D454D50 		.ascii	"MEMP_TCPIP_MSG_INPKT\000"
ARM GAS  /tmp/cc3s1bE4.s 			page 70


 3850      5F544350 
 3850      49505F4D 
 3850      53475F49 
 3850      4E504B54 
 3851              	.LASF97:
 3852 01a9 75736564 		.ascii	"used\000"
 3852      00
 3853              	.LASF103:
 3854 01ae 73746174 		.ascii	"stats_\000"
 3854      735F00
 3855              	.LASF56:
 3856 01b5 7264796D 		.ascii	"rdymsg\000"
 3856      736700
 3857              	.LASF68:
 3858 01bc 7379735F 		.ascii	"sys_sem_t\000"
 3858      73656D5F 
 3858      7400
 3859              	.LASF83:
 3860 01c6 4D454D50 		.ascii	"MEMP_MAX\000"
 3860      5F4D4158 
 3860      00
 3861              	.LASF62:
 3862 01cf 73385F74 		.ascii	"s8_t\000"
 3862      00
 3863              	.LASF120:
 3864 01d4 6D656D5F 		.ascii	"mem_trim\000"
 3864      7472696D 
 3864      00
 3865              	.LASF52:
 3866 01dd 4D757465 		.ascii	"Mutex\000"
 3866      7800
 3867              	.LASF77:
 3868 01e3 4D454D50 		.ascii	"MEMP_NETCONN\000"
 3868      5F4E4554 
 3868      434F4E4E 
 3868      00
 3869              	.LASF128:
 3870 01f0 72616D5F 		.ascii	"ram_heap\000"
 3870      68656170 
 3870      00
 3871              	.LASF30:
 3872 01f9 705F6E61 		.ascii	"p_name\000"
 3872      6D6500
 3873              	.LASF81:
 3874 0200 4D454D50 		.ascii	"MEMP_PBUF\000"
 3874      5F504255 
 3874      4600
 3875              	.LASF43:
 3876 020a 54687265 		.ascii	"ThreadsQueue\000"
 3876      61647351 
 3876      75657565 
 3876      00
 3877              	.LASF60:
 3878 0217 63686172 		.ascii	"char\000"
 3878      00
 3879              	.LASF66:
 3880 021c 6D656D5F 		.ascii	"mem_size_t\000"
ARM GAS  /tmp/cc3s1bE4.s 			page 71


 3880      73697A65 
 3880      5F7400
 3881              	.LASF84:
 3882 0227 73746174 		.ascii	"stats_proto\000"
 3882      735F7072 
 3882      6F746F00 
 3883              	.LASF23:
 3884 0233 54687265 		.ascii	"Thread\000"
 3884      616400
 3885              	.LASF15:
 3886 023a 74737461 		.ascii	"tstate_t\000"
 3886      74655F74 
 3886      00
 3887              	.LASF113:
 3888 0243 6D656D5F 		.ascii	"mem_init\000"
 3888      696E6974 
 3888      00
 3889              	.LASF29:
 3890 024c 705F6F6C 		.ascii	"p_older\000"
 3890      64657200 
 3891              	.LASF31:
 3892 0254 705F7374 		.ascii	"p_state\000"
 3892      61746500 
 3893              	.LASF3:
 3894 025c 75696E74 		.ascii	"uint8_t\000"
 3894      385F7400 
 3895              	.LASF42:
 3896 0264 705F6D70 		.ascii	"p_mpool\000"
 3896      6F6F6C00 
 3897              	.LASF40:
 3898 026c 705F6D74 		.ascii	"p_mtxlist\000"
 3898      786C6973 
 3898      7400
 3899              	.LASF76:
 3900 0276 4D454D50 		.ascii	"MEMP_NETBUF\000"
 3900      5F4E4554 
 3900      42554600 
 3901              	.LASF12:
 3902 0282 6C6F6E67 		.ascii	"long long int\000"
 3902      206C6F6E 
 3902      6720696E 
 3902      7400
 3903              	.LASF129:
 3904 0290 7379735F 		.ascii	"sys_sem_new\000"
 3904      73656D5F 
 3904      6E657700 
 3905              	.LASF19:
 3906 029c 6D73675F 		.ascii	"msg_t\000"
 3906      7400
 3907              	.LASF47:
 3908 02a2 636F6E74 		.ascii	"context\000"
 3908      65787400 
 3909              	.LASF108:
 3910 02aa 6D656D70 		.ascii	"memp\000"
 3910      00
 3911              	.LASF61:
 3912 02af 75385F74 		.ascii	"u8_t\000"
ARM GAS  /tmp/cc3s1bE4.s 			page 72


 3912      00
 3913              	.LASF32:
 3914 02b4 705F666C 		.ascii	"p_flags\000"
 3914      61677300 
 3915              	.LASF116:
 3916 02bc 6E657773 		.ascii	"newsize\000"
 3916      697A6500 
 3917              	.LASF137:
 3918 02c4 6D656D73 		.ascii	"memset\000"
 3918      657400
 3919              	.LASF132:
 3920 02cb 2E2E2F2E 		.ascii	"../../ext/lwip/src/core/mem.c\000"
 3920      2E2F6578 
 3920      742F6C77 
 3920      69702F73 
 3920      72632F63 
 3921              	.LASF124:
 3922 02e9 72616D5F 		.ascii	"ram_end\000"
 3922      656E6400 
 3923              	.LASF134:
 3924 02f1 706C7567 		.ascii	"plug_holes\000"
 3924      5F686F6C 
 3924      657300
 3925              	.LASF126:
 3926 02fc 6D656D5F 		.ascii	"mem_mutex\000"
 3926      6D757465 
 3926      7800
 3927              	.LASF117:
 3928 0306 73697A65 		.ascii	"size\000"
 3928      00
 3929              	.LASF133:
 3930 030b 2F686F6D 		.ascii	"/home/kwilson/Sandbox/ChibiOS_2.5.1/demos/ARMCM4-ST"
 3930      652F6B77 
 3930      696C736F 
 3930      6E2F5361 
 3930      6E64626F 
 3931 033e 4D333246 		.ascii	"M32F407-LWIP-FATFS-USB\000"
 3931      3430372D 
 3931      4C574950 
 3931      2D464154 
 3931      46532D55 
 3932              	.LASF88:
 3933 0355 63686B65 		.ascii	"chkerr\000"
 3933      727200
 3934              	.LASF17:
 3935 035c 74736C69 		.ascii	"tslices_t\000"
 3935      6365735F 
 3935      7400
 3936              	.LASF74:
 3937 0366 4D454D50 		.ascii	"MEMP_REASSDATA\000"
 3937      5F524541 
 3937      53534441 
 3937      544100
 3938              	.LASF90:
 3939 0375 6D656D65 		.ascii	"memerr\000"
 3939      727200
 3940              	.LASF38:
ARM GAS  /tmp/cc3s1bE4.s 			page 73


 3941 037c 705F6D73 		.ascii	"p_msg\000"
 3941      6700
 3942              	.LASF14:
 3943 0382 746D6F64 		.ascii	"tmode_t\000"
 3943      655F7400 
 3944              	.LASF6:
 3945 038a 75696E74 		.ascii	"uint16_t\000"
 3945      31365F74 
 3945      00
 3946              	.LASF46:
 3947 0393 696E7463 		.ascii	"intctx\000"
 3947      747800
 3948              	.LASF89:
 3949 039a 6C656E65 		.ascii	"lenerr\000"
 3949      727200
 3950              	.LASF71:
 3951 03a1 4D454D50 		.ascii	"MEMP_TCP_PCB\000"
 3951      5F544350 
 3951      5F504342 
 3951      00
 3952              	.LASF41:
 3953 03ae 705F7265 		.ascii	"p_realprio\000"
 3953      616C7072 
 3953      696F00
 3954              	.LASF64:
 3955 03b9 7533325F 		.ascii	"u32_t\000"
 3955      7400
 3956              	.LASF5:
 3957 03bf 73686F72 		.ascii	"short int\000"
 3957      7420696E 
 3957      7400
 3958              	.LASF107:
 3959 03c9 69636D70 		.ascii	"icmp\000"
 3959      00
 3960              	.LASF39:
 3961 03ce 705F6570 		.ascii	"p_epending\000"
 3961      656E6469 
 3961      6E6700
 3962              	.LASF53:
 3963 03d9 6D5F7175 		.ascii	"m_queue\000"
 3963      65756500 
 3964              	.LASF9:
 3965 03e1 6C6F6E67 		.ascii	"long int\000"
 3965      20696E74 
 3965      00
 3966              	.LASF91:
 3967 03ea 72746572 		.ascii	"rterr\000"
 3967      7200
 3968              	.LASF96:
 3969 03f0 61766169 		.ascii	"avail\000"
 3969      6C00
 3970              	.LASF80:
 3971 03f6 4D454D50 		.ascii	"MEMP_SYS_TIMEOUT\000"
 3971      5F535953 
 3971      5F54494D 
 3971      454F5554 
 3971      00
ARM GAS  /tmp/cc3s1bE4.s 			page 74


 3972              	.LASF119:
 3973 0407 6D656D32 		.ascii	"mem2\000"
 3973      00
 3974              	.LASF24:
 3975 040c 705F6E65 		.ascii	"p_next\000"
 3975      787400
 3976              	.LASF70:
 3977 0413 4D454D50 		.ascii	"MEMP_UDP_PCB\000"
 3977      5F554450 
 3977      5F504342 
 3977      00
 3978              	.LASF27:
 3979 0420 705F6374 		.ascii	"p_ctx\000"
 3979      7800
 3980              	.LASF118:
 3981 0426 70747232 		.ascii	"ptr2\000"
 3981      00
 3982              	.LASF102:
 3983 042b 6D626F78 		.ascii	"mbox\000"
 3983      00
 3984              	.LASF130:
 3985 0430 7379735F 		.ascii	"sys_arch_sem_wait\000"
 3985      61726368 
 3985      5F73656D 
 3985      5F776169 
 3985      7400
 3986              	.LASF94:
 3987 0442 63616368 		.ascii	"cachehit\000"
 3987      65686974 
 3987      00
 3988              	.LASF65:
 3989 044b 6D656D5F 		.ascii	"mem_ptr_t\000"
 3989      7074725F 
 3989      7400
 3990              	.LASF49:
 3991 0455 53656D61 		.ascii	"Semaphore\000"
 3991      70686F72 
 3991      6500
 3992              	.LASF75:
 3993 045f 4D454D50 		.ascii	"MEMP_FRAG_PBUF\000"
 3993      5F465241 
 3993      475F5042 
 3993      554600
 3994              	.LASF69:
 3995 046e 4D454D50 		.ascii	"MEMP_RAW_PCB\000"
 3995      5F524157 
 3995      5F504342 
 3995      00
 3996              	.LASF25:
 3997 047b 705F7072 		.ascii	"p_prev\000"
 3997      657600
 3998              	.LASF48:
 3999 0482 73697A65 		.ascii	"sizetype\000"
 3999      74797065 
 3999      00
 4000              	.LASF16:
 4001 048b 74726566 		.ascii	"trefs_t\000"
ARM GAS  /tmp/cc3s1bE4.s 			page 75


 4001      735F7400 
 4002              	.LASF11:
 4003 0493 6C6F6E67 		.ascii	"long unsigned int\000"
 4003      20756E73 
 4003      69676E65 
 4003      6420696E 
 4003      7400
 4004              	.LASF8:
 4005 04a5 696E7433 		.ascii	"int32_t\000"
 4005      325F7400 
 4006              	.LASF92:
 4007 04ad 70726F74 		.ascii	"proterr\000"
 4007      65727200 
 4008              	.LASF100:
 4009 04b5 73746174 		.ascii	"stats_sys\000"
 4009      735F7379 
 4009      7300
 4010              	.LASF4:
 4011 04bf 756E7369 		.ascii	"unsigned char\000"
 4011      676E6564 
 4011      20636861 
 4011      7200
 4012              	.LASF121:
 4013 04cd 6D656D5F 		.ascii	"mem_malloc\000"
 4013      6D616C6C 
 4013      6F6300
 4014              	.LASF33:
 4015 04d8 705F7265 		.ascii	"p_refs\000"
 4015      667300
 4016              	.LASF73:
 4017 04df 4D454D50 		.ascii	"MEMP_TCP_SEG\000"
 4017      5F544350 
 4017      5F534547 
 4017      00
 4018              	.LASF104:
 4019 04ec 6C696E6B 		.ascii	"link\000"
 4019      00
 4020              	.LASF135:
 4021 04f1 706F7274 		.ascii	"port_halt\000"
 4021      5F68616C 
 4021      7400
 4022              	.LASF34:
 4023 04fb 705F7072 		.ascii	"p_preempt\000"
 4023      65656D70 
 4023      7400
 4024              	.LASF87:
 4025 0505 64726F70 		.ascii	"drop\000"
 4025      00
 4026              	.LASF86:
 4027 050a 72656376 		.ascii	"recv\000"
 4027      00
 4028              	.LASF55:
 4029 050f 6D5F6E65 		.ascii	"m_next\000"
 4029      787400
 4030              	.LASF1:
 4031 0516 7369676E 		.ascii	"signed char\000"
 4031      65642063 
ARM GAS  /tmp/cc3s1bE4.s 			page 76


 4031      68617200 
 4032              	.LASF7:
 4033 0522 73686F72 		.ascii	"short unsigned int\000"
 4033      7420756E 
 4033      7369676E 
 4033      65642069 
 4033      6E7400
 4034              	.LASF85:
 4035 0535 786D6974 		.ascii	"xmit\000"
 4035      00
 4036              	.LASF57:
 4037 053a 65786974 		.ascii	"exitcode\000"
 4037      636F6465 
 4037      00
 4038              	.LASF111:
 4039 0543 6E6D656D 		.ascii	"nmem\000"
 4039      00
 4040              		.ident	"GCC: (crosstool-NG 1.17.0 - PSAS ST32F4 GFE) 4.7.2"
ARM GAS  /tmp/cc3s1bE4.s 			page 77


DEFINED SYMBOLS
                            *ABS*:0000000000000000 mem.c
     /tmp/cc3s1bE4.s:21     .text.mem_init:0000000000000000 $t
     /tmp/cc3s1bE4.s:27     .text.mem_init:0000000000000000 mem_init
     /tmp/cc3s1bE4.s:103    .text.mem_init:0000000000000050 $d
     /tmp/cc3s1bE4.s:113    .text.mem_free:0000000000000000 $t
     /tmp/cc3s1bE4.s:119    .text.mem_free:0000000000000000 mem_free
     /tmp/cc3s1bE4.s:349    .text.mem_free:0000000000000128 $d
     /tmp/cc3s1bE4.s:358    .text.mem_trim:0000000000000000 $t
     /tmp/cc3s1bE4.s:364    .text.mem_trim:0000000000000000 mem_trim
     /tmp/cc3s1bE4.s:603    .text.mem_trim:0000000000000128 $d
     /tmp/cc3s1bE4.s:612    .text.mem_malloc:0000000000000000 $t
     /tmp/cc3s1bE4.s:618    .text.mem_malloc:0000000000000000 mem_malloc
     /tmp/cc3s1bE4.s:870    .text.mem_malloc:0000000000000160 $d
     /tmp/cc3s1bE4.s:879    .text.mem_calloc:0000000000000000 $t
     /tmp/cc3s1bE4.s:885    .text.mem_calloc:0000000000000000 mem_calloc
     /tmp/cc3s1bE4.s:926    .bss.ram_heap:0000000000000000 ram_heap
     /tmp/cc3s1bE4.s:922    .bss.ram_heap:0000000000000000 $d
     /tmp/cc3s1bE4.s:929    .bss.lfree:0000000000000000 $d
     /tmp/cc3s1bE4.s:933    .bss.lfree:0000000000000000 lfree
     /tmp/cc3s1bE4.s:936    .bss.ram_end:0000000000000000 $d
     /tmp/cc3s1bE4.s:940    .bss.ram_end:0000000000000000 ram_end
     /tmp/cc3s1bE4.s:943    .bss.mem_mutex:0000000000000000 $d
     /tmp/cc3s1bE4.s:947    .bss.mem_mutex:0000000000000000 mem_mutex
     /tmp/cc3s1bE4.s:950    .bss.ram:0000000000000000 $d
     /tmp/cc3s1bE4.s:954    .bss.ram:0000000000000000 ram
                     .debug_frame:0000000000000010 $d
     /tmp/cc3s1bE4.s:112    .text.mem_init:0000000000000068 $t
     /tmp/cc3s1bE4.s:357    .text.mem_free:000000000000013c $t
     /tmp/cc3s1bE4.s:611    .text.mem_trim:000000000000013c $t
     /tmp/cc3s1bE4.s:878    .text.mem_malloc:0000000000000174 $t

UNDEFINED SYMBOLS
sys_sem_new
port_halt
lwip_stats
sys_arch_sem_wait
sys_sem_signal
memset
