ARM GAS  /tmp/cc3s1bE4.s 			page 1


   1              		.syntax unified
   2              		.cpu cortex-m4
   3              		.eabi_attribute 27, 3
   4              		.eabi_attribute 28, 1
   5              		.fpu fpv4-sp-d16
   6              		.eabi_attribute 20, 1
   7              		.eabi_attribute 21, 1
   8              		.eabi_attribute 23, 3
   9              		.eabi_attribute 24, 1
  10              		.eabi_attribute 25, 1
  11              		.eabi_attribute 26, 1
  12              		.eabi_attribute 30, 2
  13              		.eabi_attribute 34, 1
  14              		.eabi_attribute 18, 4
  15              		.thumb
  16              		.file	"mem.c"
  17              		.text
  18              	.Ltext0:
  19              		.cfi_sections	.debug_frame
  20              		.section	.text.mem_init,"ax",%progbits
  21              		.align	2
  22              		.p2align 4,,15
  23              		.global	mem_init
  24              		.thumb
  25              		.thumb_func
  26              		.type	mem_init, %function
  27              	mem_init:
  28              	.LFB8:
  29              		.file 1 "../../ext/lwip/src/core/mem.c"
  30              		.loc 1 272 0
  31              		.cfi_startproc
  32              		@ args = 0, pretend = 0, frame = 0
  33              		@ frame_needed = 0, uses_anonymous_args = 0
  34 0000 F8B5     		push	{r3, r4, r5, r6, r7, lr}
  35              	.LCFI0:
  36              		.cfi_def_cfa_offset 24
  37              		.cfi_offset 3, -24
  38              		.cfi_offset 4, -20
  39              		.cfi_offset 5, -16
  40              		.cfi_offset 6, -12
  41              		.cfi_offset 7, -8
  42              		.cfi_offset 14, -4
  43              		.loc 1 279 0
  44 0002 134B     		ldr	r3, .L5
  45 0004 DFF85CE0 		ldr	lr, .L5+20
  46              		.loc 1 296 0
  47 0008 1248     		ldr	r0, .L5+4
  48              		.loc 1 279 0
  49 000a 23F00303 		bic	r3, r3, #3
  50              		.loc 1 287 0
  51 000e 0124     		movs	r4, #1
  52 0010 83F84446 		strb	r4, [r3, #1604]
  53              		.loc 1 296 0
  54 0014 2146     		mov	r1, r4
  55              		.loc 1 292 0
  56 0016 104C     		ldr	r4, .L5+8
  57              		.loc 1 279 0
ARM GAS  /tmp/cc3s1bE4.s 			page 2


  58 0018 CEF80030 		str	r3, [lr, #0]
  59              	.LVL0:
  60              		.loc 1 282 0
  61 001c 4FF4C862 		mov	r2, #1600
  62              		.loc 1 283 0
  63 0020 0025     		movs	r5, #0
  64              		.loc 1 286 0
  65 0022 9E18     		adds	r6, r3, r2
  66              		.loc 1 283 0
  67 0024 5D80     		strh	r5, [r3, #2]	@ movhi
  68              		.loc 1 284 0
  69 0026 1D71     		strb	r5, [r3, #4]
  70              		.loc 1 283 0
  71 0028 2F46     		mov	r7, r5	@ movhi
  72              		.loc 1 282 0
  73 002a 1A80     		strh	r2, [r3, #0]	@ movhi
  74              		.loc 1 286 0
  75 002c 0B4D     		ldr	r5, .L5+12
  76              		.loc 1 288 0
  77 002e A3F84026 		strh	r2, [r3, #1600]	@ movhi
  78              		.loc 1 289 0
  79 0032 A3F84226 		strh	r2, [r3, #1602]	@ movhi
  80              		.loc 1 292 0
  81 0036 2360     		str	r3, [r4, #0]
  82              		.loc 1 294 0
  83 0038 094B     		ldr	r3, .L5+16
  84              	.LVL1:
  85              		.loc 1 286 0
  86 003a 2E60     		str	r6, [r5, #0]
  87              		.loc 1 294 0
  88 003c A3F8A820 		strh	r2, [r3, #168]	@ movhi
  89              		.loc 1 296 0
  90 0040 FFF7FEFF 		bl	sys_sem_new
  91              	.LVL2:
  92 0044 00B9     		cbnz	r0, .L4
  93 0046 F8BD     		pop	{r3, r4, r5, r6, r7, pc}
  94              	.L4:
  95              		.loc 1 299 0 discriminator 1
  96 0048 BDE8F840 		pop	{r3, r4, r5, r6, r7, lr}
  97              		.loc 1 297 0 discriminator 1
  98 004c FFF7FEBF 		b	port_halt
  99              	.LVL3:
 100              	.L6:
 101              		.align	2
 102              	.L5:
 103 0050 03000000 		.word	.LANCHOR0+3
 104 0054 00000000 		.word	.LANCHOR4
 105 0058 00000000 		.word	.LANCHOR3
 106 005c 00000000 		.word	.LANCHOR2
 107 0060 00000000 		.word	lwip_stats
 108 0064 00000000 		.word	.LANCHOR1
 109              		.cfi_endproc
 110              	.LFE8:
 111              		.size	mem_init, .-mem_init
 112 0068 AFF30080 		.section	.text.mem_free,"ax",%progbits
 112      AFF30080 
 113              		.align	2
ARM GAS  /tmp/cc3s1bE4.s 			page 3


 114              		.p2align 4,,15
 115              		.global	mem_free
 116              		.thumb
 117              		.thumb_func
 118              		.type	mem_free, %function
 119              	mem_free:
 120              	.LFB9:
 121              		.loc 1 309 0
 122              		.cfi_startproc
 123              		@ args = 0, pretend = 0, frame = 0
 124              		@ frame_needed = 0, uses_anonymous_args = 0
 125              	.LVL4:
 126 0000 2DE9F041 		push	{r4, r5, r6, r7, r8, lr}
 127              	.LCFI1:
 128              		.cfi_def_cfa_offset 24
 129              		.cfi_offset 4, -24
 130              		.cfi_offset 5, -20
 131              		.cfi_offset 6, -16
 132              		.cfi_offset 7, -12
 133              		.cfi_offset 8, -8
 134              		.cfi_offset 14, -4
 135              		.loc 1 313 0
 136 0004 0446     		mov	r4, r0
 137 0006 B0B1     		cbz	r0, .L7
 138              		.loc 1 317 0
 139 0008 8307     		lsls	r3, r0, #30
 140 000a 78D1     		bne	.L33
 141              	.LVL5:
 142              	.L9:
 143              		.loc 1 319 0
 144 000c 464D     		ldr	r5, .L39
 145 000e 2B68     		ldr	r3, [r5, #0]
 146 0010 9C42     		cmp	r4, r3
 147 0012 03D3     		bcc	.L10
 148              		.loc 1 319 0 is_stmt 0 discriminator 2
 149 0014 454E     		ldr	r6, .L39+4
 150 0016 3368     		ldr	r3, [r6, #0]
 151 0018 9C42     		cmp	r4, r3
 152 001a 12D3     		bcc	.L11
 153              	.L10:
 154              		.loc 1 319 0 discriminator 1
 155 001c FFF7FEFF 		bl	port_halt
 156              	.LVL6:
 157              		.loc 1 322 0 is_stmt 1 discriminator 1
 158 0020 2B68     		ldr	r3, [r5, #0]
 159 0022 9C42     		cmp	r4, r3
 160 0024 09D2     		bcs	.L12
 161              	.L13:
 162              		.loc 1 327 0
 163 0026 424B     		ldr	r3, .L39+8
 164 0028 B3F8B020 		ldrh	r2, [r3, #176]
 165 002c 0132     		adds	r2, r2, #1
 166 002e A3F8B020 		strh	r2, [r3, #176]	@ movhi
 167              		.loc 1 329 0
 168 0032 BDE8F081 		pop	{r4, r5, r6, r7, r8, pc}
 169              	.LVL7:
 170              	.L7:
ARM GAS  /tmp/cc3s1bE4.s 			page 4


 171 0036 BDE8F081 		pop	{r4, r5, r6, r7, r8, pc}
 172              	.LVL8:
 173              	.L12:
 174              		.loc 1 322 0
 175 003a 3C4E     		ldr	r6, .L39+4
 176 003c 3368     		ldr	r3, [r6, #0]
 177 003e 9C42     		cmp	r4, r3
 178 0040 F1D2     		bcs	.L13
 179              	.L11:
 180              		.loc 1 332 0
 181 0042 3C48     		ldr	r0, .L39+12
 182 0044 0021     		movs	r1, #0
 183 0046 FFF7FEFF 		bl	sys_arch_sem_wait
 184              	.LVL9:
 185              		.loc 1 336 0
 186 004a 14F8043C 		ldrb	r3, [r4, #-4]	@ zero_extendqisi2
 187              		.loc 1 334 0
 188 004e A4F10807 		sub	r7, r4, #8
 189              	.LVL10:
 190              		.loc 1 336 0
 191 0052 002B     		cmp	r3, #0
 192 0054 64D0     		beq	.L34
 193              	.L14:
 194              		.loc 1 340 0
 195 0056 DFF8E080 		ldr	r8, .L39+16
 196              		.loc 1 345 0
 197 005a 34F8081C 		ldrh	r1, [r4, #-8]
 198              		.loc 1 340 0
 199 005e D8F80030 		ldr	r3, [r8, #0]
 200              		.loc 1 338 0
 201 0062 0022     		movs	r2, #0
 202 0064 04F8042C 		strb	r2, [r4, #-4]
 203              		.loc 1 345 0
 204 0068 314A     		ldr	r2, .L39+8
 205              		.loc 1 340 0
 206 006a 9F42     		cmp	r7, r3
 207              		.loc 1 345 0
 208 006c B2F8AA00 		ldrh	r0, [r2, #170]
 209 0070 2B68     		ldr	r3, [r5, #0]
 210              		.loc 1 342 0
 211 0072 38BF     		it	cc
 212 0074 C8F80070 		strcc	r7, [r8, #0]
 213              		.loc 1 345 0
 214 0078 411A     		subs	r1, r0, r1
 215 007a F81A     		subs	r0, r7, r3
 216 007c 0918     		adds	r1, r1, r0
 217              	.LBB4:
 218              	.LBB5:
 219              		.loc 1 238 0
 220 007e 9F42     		cmp	r7, r3
 221              	.LBE5:
 222              	.LBE4:
 223              		.loc 1 345 0
 224 0080 A2F8AA10 		strh	r1, [r2, #170]	@ movhi
 225              	.LVL11:
 226              	.LBB8:
 227              	.LBB6:
ARM GAS  /tmp/cc3s1bE4.s 			page 5


 228              		.loc 1 238 0
 229 0084 49D3     		bcc	.L35
 230              	.L16:
 231              		.loc 1 239 0
 232 0086 3368     		ldr	r3, [r6, #0]
 233 0088 9F42     		cmp	r7, r3
 234 008a 43D2     		bcs	.L36
 235              	.L17:
 236              		.loc 1 240 0
 237 008c 14F8043C 		ldrb	r3, [r4, #-4]	@ zero_extendqisi2
 238 0090 002B     		cmp	r3, #0
 239 0092 3CD1     		bne	.L37
 240              	.L18:
 241              		.loc 1 243 0
 242 0094 34F8082C 		ldrh	r2, [r4, #-8]
 243 0098 B2F5C86F 		cmp	r2, #1600
 244 009c 32D8     		bhi	.L38
 245              	.L19:
 246              		.loc 1 245 0
 247 009e 2B68     		ldr	r3, [r5, #0]
 248 00a0 9A18     		adds	r2, r3, r2
 249              	.LVL12:
 250              		.loc 1 246 0
 251 00a2 9742     		cmp	r7, r2
 252 00a4 11D0     		beq	.L20
 253 00a6 1179     		ldrb	r1, [r2, #4]	@ zero_extendqisi2
 254 00a8 79B9     		cbnz	r1, .L20
 255 00aa 3168     		ldr	r1, [r6, #0]
 256 00ac 8A42     		cmp	r2, r1
 257 00ae 0CD0     		beq	.L20
 258              		.loc 1 248 0
 259 00b0 D8F80010 		ldr	r1, [r8, #0]
 260 00b4 8A42     		cmp	r2, r1
 261              		.loc 1 249 0
 262 00b6 04BF     		itt	eq
 263 00b8 1F49     		ldreq	r1, .L39+16
 264 00ba 0F60     		streq	r7, [r1, #0]
 265              		.loc 1 251 0
 266 00bc 1188     		ldrh	r1, [r2, #0]
 267 00be 24F8081C 		strh	r1, [r4, #-8]	@ movhi
 268              		.loc 1 252 0
 269 00c2 1288     		ldrh	r2, [r2, #0]
 270              	.LVL13:
 271 00c4 9A18     		adds	r2, r3, r2
 272 00c6 F91A     		subs	r1, r7, r3
 273 00c8 5180     		strh	r1, [r2, #2]	@ movhi
 274              	.L20:
 275              		.loc 1 256 0
 276 00ca 34F8061C 		ldrh	r1, [r4, #-6]
 277 00ce 5A18     		adds	r2, r3, r1
 278              	.LVL14:
 279              		.loc 1 257 0
 280 00d0 9742     		cmp	r7, r2
 281 00d2 0FD0     		beq	.L22
 282 00d4 1079     		ldrb	r0, [r2, #4]	@ zero_extendqisi2
 283 00d6 68B9     		cbnz	r0, .L22
 284              		.loc 1 259 0
ARM GAS  /tmp/cc3s1bE4.s 			page 6


 285 00d8 D8F80000 		ldr	r0, [r8, #0]
 286 00dc 8742     		cmp	r7, r0
 287              		.loc 1 260 0
 288 00de 04BF     		itt	eq
 289 00e0 1548     		ldreq	r0, .L39+16
 290 00e2 0260     		streq	r2, [r0, #0]
 291              		.loc 1 262 0
 292 00e4 34F8080C 		ldrh	r0, [r4, #-8]
 293 00e8 5852     		strh	r0, [r3, r1]	@ movhi
 294              		.loc 1 263 0
 295 00ea 34F8081C 		ldrh	r1, [r4, #-8]
 296 00ee 5918     		adds	r1, r3, r1
 297 00f0 D31A     		subs	r3, r2, r3
 298 00f2 4B80     		strh	r3, [r1, #2]	@ movhi
 299              	.L22:
 300              	.LBE6:
 301              	.LBE8:
 302              		.loc 1 352 0
 303 00f4 0F48     		ldr	r0, .L39+12
 304              		.loc 1 353 0
 305 00f6 BDE8F041 		pop	{r4, r5, r6, r7, r8, lr}
 306              		.loc 1 352 0
 307 00fa FFF7FEBF 		b	sys_sem_signal
 308              	.LVL15:
 309              	.L33:
 310              		.loc 1 317 0 discriminator 1
 311 00fe FFF7FEFF 		bl	port_halt
 312              	.LVL16:
 313 0102 83E7     		b	.L9
 314              	.LVL17:
 315              	.L38:
 316              	.LBB9:
 317              	.LBB7:
 318              		.loc 1 243 0
 319 0104 FFF7FEFF 		bl	port_halt
 320              	.LVL18:
 321 0108 34F8082C 		ldrh	r2, [r4, #-8]
 322 010c C7E7     		b	.L19
 323              	.L37:
 324              		.loc 1 240 0
 325 010e FFF7FEFF 		bl	port_halt
 326              	.LVL19:
 327 0112 BFE7     		b	.L18
 328              	.L36:
 329              		.loc 1 239 0
 330 0114 FFF7FEFF 		bl	port_halt
 331              	.LVL20:
 332 0118 B8E7     		b	.L17
 333              	.L35:
 334              		.loc 1 238 0
 335 011a FFF7FEFF 		bl	port_halt
 336              	.LVL21:
 337 011e B2E7     		b	.L16
 338              	.LVL22:
 339              	.L34:
 340              	.LBE7:
 341              	.LBE9:
ARM GAS  /tmp/cc3s1bE4.s 			page 7


 342              		.loc 1 336 0 discriminator 1
 343 0120 FFF7FEFF 		bl	port_halt
 344              	.LVL23:
 345 0124 97E7     		b	.L14
 346              	.L40:
 347 0126 00BF     		.align	2
 348              	.L39:
 349 0128 00000000 		.word	.LANCHOR1
 350 012c 00000000 		.word	.LANCHOR2
 351 0130 00000000 		.word	lwip_stats
 352 0134 00000000 		.word	.LANCHOR4
 353 0138 00000000 		.word	.LANCHOR3
 354              		.cfi_endproc
 355              	.LFE9:
 356              		.size	mem_free, .-mem_free
 357 013c AFF30080 		.section	.text.mem_trim,"ax",%progbits
 358              		.align	2
 359              		.p2align 4,,15
 360              		.global	mem_trim
 361              		.thumb
 362              		.thumb_func
 363              		.type	mem_trim, %function
 364              	mem_trim:
 365              	.LFB10:
 366              		.loc 1 367 0
 367              		.cfi_startproc
 368              		@ args = 0, pretend = 0, frame = 0
 369              		@ frame_needed = 0, uses_anonymous_args = 0
 370              	.LVL24:
 371 0000 2DE9F041 		push	{r4, r5, r6, r7, r8, lr}
 372              	.LCFI2:
 373              		.cfi_def_cfa_offset 24
 374              		.cfi_offset 4, -24
 375              		.cfi_offset 5, -20
 376              		.cfi_offset 6, -16
 377              		.cfi_offset 7, -12
 378              		.cfi_offset 8, -8
 379              		.cfi_offset 14, -4
 380              		.loc 1 376 0
 381 0004 0331     		adds	r1, r1, #3
 382              	.LVL25:
 383 0006 4FF6FC75 		movw	r5, #65532
 384 000a 0D40     		ands	r5, r5, r1
 385              	.LVL26:
 386              		.loc 1 378 0
 387 000c 0B2D     		cmp	r5, #11
 388              		.loc 1 367 0
 389 000e 0446     		mov	r4, r0
 390              		.loc 1 378 0
 391 0010 5BD9     		bls	.L57
 392              		.loc 1 383 0
 393 0012 B5F5C86F 		cmp	r5, #1600
 394 0016 5FD8     		bhi	.L67
 395              	.LVL27:
 396              	.L42:
 397              		.loc 1 387 0
 398 0018 434E     		ldr	r6, .L69
ARM GAS  /tmp/cc3s1bE4.s 			page 8


 399 001a 3368     		ldr	r3, [r6, #0]
 400 001c A342     		cmp	r3, r4
 401 001e 46D8     		bhi	.L44
 402              		.loc 1 387 0 is_stmt 0 discriminator 2
 403 0020 424A     		ldr	r2, .L69+4
 404 0022 1268     		ldr	r2, [r2, #0]
 405 0024 9442     		cmp	r4, r2
 406 0026 42D2     		bcs	.L44
 407              	.LVL28:
 408              	.L45:
 409              		.loc 1 400 0 is_stmt 1
 410 0028 A4F10808 		sub	r8, r4, #8
 411              	.LVL29:
 412              		.loc 1 404 0
 413 002c 34F8087C 		ldrh	r7, [r4, #-8]
 414              		.loc 1 402 0
 415 0030 C3EB0803 		rsb	r3, r3, r8
 416              		.loc 1 404 0
 417 0034 083F     		subs	r7, r7, #8
 418              		.loc 1 402 0
 419 0036 1FFA83F8 		uxth	r8, r3
 420              	.LVL30:
 421              		.loc 1 404 0
 422 003a C8EB0707 		rsb	r7, r8, r7
 423 003e BFB2     		uxth	r7, r7
 424              	.LVL31:
 425              		.loc 1 405 0
 426 0040 AF42     		cmp	r7, r5
 427 0042 4DD3     		bcc	.L68
 428              		.loc 1 410 0
 429 0044 BD42     		cmp	r5, r7
 430 0046 3DD0     		beq	.L61
 431              		.loc 1 416 0
 432 0048 0021     		movs	r1, #0
 433 004a 3948     		ldr	r0, .L69+8
 434 004c FFF7FEFF 		bl	sys_arch_sem_wait
 435              	.LVL32:
 436              		.loc 1 418 0
 437 0050 3368     		ldr	r3, [r6, #0]
 438 0052 34F8082C 		ldrh	r2, [r4, #-8]
 439 0056 9918     		adds	r1, r3, r2
 440              	.LVL33:
 441              		.loc 1 419 0
 442 0058 0879     		ldrb	r0, [r1, #4]	@ zero_extendqisi2
 443 005a 0028     		cmp	r0, #0
 444 005c 44D1     		bne	.L49
 445              	.LBB10:
 446              		.loc 1 426 0
 447 005e 354E     		ldr	r6, .L69+12
 448              		.loc 1 423 0
 449 0060 33F802E0 		ldrh	lr, [r3, r2]
 450              	.LVL34:
 451              		.loc 1 426 0
 452 0064 3268     		ldr	r2, [r6, #0]
 453              		.loc 1 425 0
 454 0066 05F10800 		add	r0, r5, #8
 455 006a 4044     		add	r0, r8, r0
ARM GAS  /tmp/cc3s1bE4.s 			page 9


 456 006c 80B2     		uxth	r0, r0
 457              	.LVL35:
 458              		.loc 1 426 0
 459 006e 8A42     		cmp	r2, r1
 460              		.loc 1 427 0
 461 0070 03EB0002 		add	r2, r3, r0
 462 0074 08BF     		it	eq
 463 0076 3260     		streq	r2, [r6, #0]
 464              	.LVL36:
 465              		.loc 1 432 0
 466 0078 A2F800E0 		strh	lr, [r2, #0]	@ movhi
 467              		.loc 1 436 0
 468 007c 24F8080C 		strh	r0, [r4, #-8]	@ movhi
 469              		.loc 1 440 0
 470 0080 1188     		ldrh	r1, [r2, #0]
 471              	.LVL37:
 472              		.loc 1 434 0
 473 0082 A2F80280 		strh	r8, [r2, #2]	@ movhi
 474              		.loc 1 430 0
 475 0086 0026     		movs	r6, #0
 476              		.loc 1 440 0
 477 0088 B1F5C86F 		cmp	r1, #1600
 478              		.loc 1 430 0
 479 008c 1671     		strb	r6, [r2, #4]
 480              		.loc 1 440 0
 481 008e 01D0     		beq	.L55
 482              		.loc 1 441 0
 483 0090 5B18     		adds	r3, r3, r1
 484              	.LVL38:
 485 0092 5880     		strh	r0, [r3, #2]	@ movhi
 486              	.LVL39:
 487              	.L55:
 488              	.LBE10:
 489              		.loc 1 465 0
 490 0094 284B     		ldr	r3, .L69+16
 491 0096 B3F8AA20 		ldrh	r2, [r3, #170]
 492 009a AD18     		adds	r5, r5, r2
 493 009c EF1B     		subs	r7, r5, r7
 494              	.LVL40:
 495 009e A3F8AA70 		strh	r7, [r3, #170]	@ movhi
 496              	.L53:
 497              		.loc 1 477 0
 498 00a2 2348     		ldr	r0, .L69+8
 499 00a4 FFF7FEFF 		bl	sys_sem_signal
 500              	.LVL41:
 501              		.loc 1 479 0
 502 00a8 2046     		mov	r0, r4
 503 00aa BDE8F081 		pop	{r4, r5, r6, r7, r8, pc}
 504              	.LVL42:
 505              	.L44:
 506              		.loc 1 387 0 discriminator 1
 507 00ae FFF7FEFF 		bl	port_halt
 508              	.LVL43:
 509              		.loc 1 390 0 discriminator 1
 510 00b2 3368     		ldr	r3, [r6, #0]
 511 00b4 9C42     		cmp	r4, r3
 512 00b6 0AD2     		bcs	.L46
ARM GAS  /tmp/cc3s1bE4.s 			page 10


 513              	.L47:
 514              		.loc 1 395 0
 515 00b8 1F4B     		ldr	r3, .L69+16
 516 00ba B3F8B020 		ldrh	r2, [r3, #176]
 517 00be 0132     		adds	r2, r2, #1
 518 00c0 A3F8B020 		strh	r2, [r3, #176]	@ movhi
 519              	.LVL44:
 520              	.L61:
 521              		.loc 1 479 0
 522 00c4 2046     		mov	r0, r4
 523 00c6 BDE8F081 		pop	{r4, r5, r6, r7, r8, pc}
 524              	.LVL45:
 525              	.L57:
 526              		.loc 1 380 0
 527 00ca 0C25     		movs	r5, #12
 528              	.LVL46:
 529 00cc A4E7     		b	.L42
 530              	.LVL47:
 531              	.L46:
 532              		.loc 1 390 0
 533 00ce 174A     		ldr	r2, .L69+4
 534 00d0 1268     		ldr	r2, [r2, #0]
 535 00d2 9442     		cmp	r4, r2
 536 00d4 F0D2     		bcs	.L47
 537 00d6 A7E7     		b	.L45
 538              	.LVL48:
 539              	.L67:
 540              		.loc 1 384 0
 541 00d8 0024     		movs	r4, #0
 542              		.loc 1 479 0
 543 00da 2046     		mov	r0, r4
 544              	.LVL49:
 545 00dc BDE8F081 		pop	{r4, r5, r6, r7, r8, pc}
 546              	.LVL50:
 547              	.L68:
 548              		.loc 1 405 0 discriminator 1
 549 00e0 FFF7FEFF 		bl	port_halt
 550              	.LVL51:
 551              		.loc 1 408 0 discriminator 1
 552 00e4 0024     		movs	r4, #0
 553              	.LVL52:
 554 00e6 EDE7     		b	.L61
 555              	.LVL53:
 556              	.L49:
 557              		.loc 1 445 0
 558 00e8 05F11401 		add	r1, r5, #20
 559              	.LVL54:
 560 00ec B942     		cmp	r1, r7
 561 00ee D8D8     		bhi	.L53
 562              		.loc 1 453 0
 563 00f0 05F10801 		add	r1, r5, #8
 564 00f4 4144     		add	r1, r8, r1
 565 00f6 89B2     		uxth	r1, r1
 566              	.LVL55:
 567              		.loc 1 455 0
 568 00f8 DFF838E0 		ldr	lr, .L69+12
 569              		.loc 1 459 0
ARM GAS  /tmp/cc3s1bE4.s 			page 11


 570 00fc 5A52     		strh	r2, [r3, r1]	@ movhi
 571              		.loc 1 455 0
 572 00fe DEF80000 		ldr	r0, [lr, #0]
 573              		.loc 1 461 0
 574 0102 24F8081C 		strh	r1, [r4, #-8]	@ movhi
 575              		.loc 1 454 0
 576 0106 5E18     		adds	r6, r3, r1
 577              	.LVL56:
 578              		.loc 1 462 0
 579 0108 5A5A     		ldrh	r2, [r3, r1]
 580              		.loc 1 460 0
 581 010a A6F80280 		strh	r8, [r6, #2]	@ movhi
 582              		.loc 1 455 0
 583 010e 8642     		cmp	r6, r0
 584              		.loc 1 456 0
 585 0110 38BF     		it	cc
 586 0112 CEF80060 		strcc	r6, [lr, #0]
 587              		.loc 1 458 0
 588 0116 0020     		movs	r0, #0
 589              		.loc 1 462 0
 590 0118 B2F5C86F 		cmp	r2, #1600
 591              		.loc 1 463 0
 592 011c 18BF     		it	ne
 593 011e 9B18     		addne	r3, r3, r2
 594              		.loc 1 458 0
 595 0120 3071     		strb	r0, [r6, #4]
 596              		.loc 1 463 0
 597 0122 18BF     		it	ne
 598 0124 5980     		strhne	r1, [r3, #2]	@ movhi
 599 0126 B5E7     		b	.L55
 600              	.L70:
 601              		.align	2
 602              	.L69:
 603 0128 00000000 		.word	.LANCHOR1
 604 012c 00000000 		.word	.LANCHOR2
 605 0130 00000000 		.word	.LANCHOR4
 606 0134 00000000 		.word	.LANCHOR3
 607 0138 00000000 		.word	lwip_stats
 608              		.cfi_endproc
 609              	.LFE10:
 610              		.size	mem_trim, .-mem_trim
 611 013c AFF30080 		.section	.text.mem_malloc,"ax",%progbits
 612              		.align	2
 613              		.p2align 4,,15
 614              		.global	mem_malloc
 615              		.thumb
 616              		.thumb_func
 617              		.type	mem_malloc, %function
 618              	mem_malloc:
 619              	.LFB11:
 620              		.loc 1 492 0
 621              		.cfi_startproc
 622              		@ args = 0, pretend = 0, frame = 0
 623              		@ frame_needed = 0, uses_anonymous_args = 0
 624              	.LVL57:
 625 0000 2DE9F843 		push	{r3, r4, r5, r6, r7, r8, r9, lr}
 626              	.LCFI3:
ARM GAS  /tmp/cc3s1bE4.s 			page 12


 627              		.cfi_def_cfa_offset 32
 628              		.cfi_offset 3, -32
 629              		.cfi_offset 4, -28
 630              		.cfi_offset 5, -24
 631              		.cfi_offset 6, -20
 632              		.cfi_offset 7, -16
 633              		.cfi_offset 8, -12
 634              		.cfi_offset 9, -8
 635              		.cfi_offset 14, -4
 636              		.loc 1 500 0
 637 0004 0028     		cmp	r0, #0
 638 0006 3BD0     		beq	.L72
 639              		.loc 1 506 0
 640 0008 0330     		adds	r0, r0, #3
 641              	.LVL58:
 642 000a 4FF6FC77 		movw	r7, #65532
 643 000e 0740     		ands	r7, r7, r0
 644              	.LVL59:
 645              		.loc 1 508 0
 646 0010 0B2F     		cmp	r7, #11
 647 0012 37D9     		bls	.L87
 648              		.loc 1 513 0
 649 0014 B7F5C86F 		cmp	r7, #1600
 650 0018 98BF     		it	ls
 651 001a C7F5C865 		rsbls	r5, r7, #1600
 652 001e 2ED8     		bhi	.L108
 653              	.LVL60:
 654              	.L73:
 655              		.loc 1 518 0
 656 0020 0021     		movs	r1, #0
 657 0022 4F48     		ldr	r0, .L114
 658              	.LVL61:
 659              		.loc 1 529 0
 660 0024 DFF84481 		ldr	r8, .L114+12
 661              		.loc 1 518 0
 662 0028 FFF7FEFF 		bl	sys_arch_sem_wait
 663              	.LVL62:
 664              		.loc 1 529 0
 665 002c DFF840C1 		ldr	ip, .L114+16
 666 0030 D8F800E0 		ldr	lr, [r8, #0]
 667 0034 DCF80020 		ldr	r2, [ip, #0]
 668 0038 C2EB0E03 		rsb	r3, r2, lr
 669 003c 99B2     		uxth	r1, r3
 670 003e A942     		cmp	r1, r5
 671 0040 0B46     		mov	r3, r1
 672              	.LVL63:
 673 0042 09DB     		blt	.L98
 674 0044 0FE0     		b	.L74
 675              	.LVL64:
 676              	.L110:
 677              		.loc 1 544 0 discriminator 1
 678 0046 D05A     		ldrh	r0, [r2, r3]
 679 0048 A0F10806 		sub	r6, r0, #8
 680 004c F61A     		subs	r6, r6, r3
 681              		.loc 1 543 0 discriminator 1
 682 004e BE42     		cmp	r6, r7
 683 0050 1CD2     		bcs	.L109
ARM GAS  /tmp/cc3s1bE4.s 			page 13


 684              		.loc 1 544 0
 685 0052 0346     		mov	r3, r0
 686              	.LVL65:
 687              		.loc 1 529 0
 688 0054 AB42     		cmp	r3, r5
 689 0056 06DA     		bge	.L74
 690              	.LVL66:
 691              	.L98:
 692              		.loc 1 531 0
 693 0058 D418     		adds	r4, r2, r3
 694              	.LVL67:
 695              		.loc 1 543 0
 696 005a 2179     		ldrb	r1, [r4, #4]	@ zero_extendqisi2
 697 005c 0029     		cmp	r1, #0
 698 005e F2D0     		beq	.L110
 699 0060 D35A     		ldrh	r3, [r2, r3]
 700              	.LVL68:
 701              		.loc 1 529 0
 702 0062 AB42     		cmp	r3, r5
 703 0064 F8DB     		blt	.L98
 704              	.LVL69:
 705              	.L74:
 706              		.loc 1 612 0
 707 0066 3F4B     		ldr	r3, .L114+4
 708              		.loc 1 614 0
 709 0068 3D48     		ldr	r0, .L114
 710              		.loc 1 612 0
 711 006a B3F8AE20 		ldrh	r2, [r3, #174]
 712 006e 0132     		adds	r2, r2, #1
 713 0070 A3F8AE20 		strh	r2, [r3, #174]	@ movhi
 714              		.loc 1 614 0
 715 0074 FFF7FEFF 		bl	sys_sem_signal
 716              	.LVL70:
 717              		.loc 1 615 0
 718 0078 0020     		movs	r0, #0
 719 007a BDE8F883 		pop	{r3, r4, r5, r6, r7, r8, r9, pc}
 720              	.LVL71:
 721              	.L108:
 722              		.loc 1 514 0
 723 007e 0020     		movs	r0, #0
 724              	.LVL72:
 725              	.L72:
 726              		.loc 1 616 0
 727 0080 BDE8F883 		pop	{r3, r4, r5, r6, r7, r8, r9, pc}
 728              	.LVL73:
 729              	.L87:
 730              		.loc 1 508 0
 731 0084 40F23465 		movw	r5, #1588
 732              		.loc 1 510 0
 733 0088 0C27     		movs	r7, #12
 734              	.LVL74:
 735 008a C9E7     		b	.L73
 736              	.LVL75:
 737              	.L109:
 738              		.loc 1 548 0
 739 008c 07F11405 		add	r5, r7, #20
 740 0090 B542     		cmp	r5, r6
ARM GAS  /tmp/cc3s1bE4.s 			page 14


 741 0092 22D9     		bls	.L111
 742              		.loc 1 582 0
 743 0094 334B     		ldr	r3, .L114+4
 744              		.loc 1 581 0
 745 0096 0121     		movs	r1, #1
 746 0098 2171     		strb	r1, [r4, #4]
 747              		.loc 1 582 0
 748 009a B3F8AA50 		ldrh	r5, [r3, #170]
 749 009e B3F8AC10 		ldrh	r1, [r3, #172]
 750 00a2 4019     		adds	r0, r0, r5
 751 00a4 A21A     		subs	r2, r4, r2
 752 00a6 821A     		subs	r2, r0, r2
 753 00a8 92B2     		uxth	r2, r2
 754 00aa 9142     		cmp	r1, r2
 755 00ac A3F8AA20 		strh	r2, [r3, #170]	@ movhi
 756 00b0 38BF     		it	cc
 757 00b2 A3F8AC20 		strhcc	r2, [r3, #172]	@ movhi
 758 00b6 07F10805 		add	r5, r7, #8
 759              	.L79:
 760              		.loc 1 585 0
 761 00ba A645     		cmp	lr, r4
 762 00bc 39D0     		beq	.L104
 763 00be 2A4E     		ldr	r6, .L114+8
 764              	.L80:
 765              		.loc 1 596 0
 766 00c0 2748     		ldr	r0, .L114
 767 00c2 FFF7FEFF 		bl	sys_sem_signal
 768              	.LVL76:
 769              		.loc 1 597 0
 770 00c6 3368     		ldr	r3, [r6, #0]
 771 00c8 6519     		adds	r5, r4, r5
 772 00ca AB42     		cmp	r3, r5
 773 00cc 2ED3     		bcc	.L112
 774              	.L83:
 775              		.loc 1 599 0
 776 00ce A207     		lsls	r2, r4, #30
 777 00d0 27D1     		bne	.L113
 778              	.L84:
 779              		.loc 1 604 0
 780 00d2 04F10800 		add	r0, r4, #8
 781 00d6 BDE8F883 		pop	{r3, r4, r5, r6, r7, r8, r9, pc}
 782              	.L111:
 783              		.loc 1 559 0
 784 00da 07F10805 		add	r5, r7, #8
 785 00de 5E19     		adds	r6, r3, r5
 786 00e0 B6B2     		uxth	r6, r6
 787              	.LVL77:
 788              		.loc 1 561 0
 789 00e2 02EB0609 		add	r9, r2, r6
 790              	.LVL78:
 791              		.loc 1 563 0
 792 00e6 9053     		strh	r0, [r2, r6]	@ movhi
 793              		.loc 1 566 0
 794 00e8 2680     		strh	r6, [r4, #0]	@ movhi
 795              		.loc 1 569 0
 796 00ea 905B     		ldrh	r0, [r2, r6]
 797              		.loc 1 564 0
ARM GAS  /tmp/cc3s1bE4.s 			page 15


 798 00ec A9F80230 		strh	r3, [r9, #2]	@ movhi
 799              		.loc 1 567 0
 800 00f0 0123     		movs	r3, #1
 801              		.loc 1 569 0
 802 00f2 B0F5C86F 		cmp	r0, #1600
 803              		.loc 1 562 0
 804 00f6 89F80410 		strb	r1, [r9, #4]
 805              		.loc 1 570 0
 806 00fa 18BF     		it	ne
 807 00fc 1218     		addne	r2, r2, r0
 808              		.loc 1 567 0
 809 00fe 2371     		strb	r3, [r4, #4]
 810              		.loc 1 572 0
 811 0100 184B     		ldr	r3, .L114+4
 812              		.loc 1 570 0
 813 0102 18BF     		it	ne
 814 0104 5680     		strhne	r6, [r2, #2]	@ movhi
 815              		.loc 1 572 0
 816 0106 B3F8AA20 		ldrh	r2, [r3, #170]
 817 010a B3F8AC10 		ldrh	r1, [r3, #172]
 818 010e 0832     		adds	r2, r2, #8
 819 0110 BA18     		adds	r2, r7, r2
 820 0112 92B2     		uxth	r2, r2
 821 0114 9142     		cmp	r1, r2
 822 0116 A3F8AA20 		strh	r2, [r3, #170]	@ movhi
 823 011a 38BF     		it	cc
 824 011c A3F8AC20 		strhcc	r2, [r3, #172]	@ movhi
 825 0120 CBE7     		b	.L79
 826              	.LVL79:
 827              	.L113:
 828              		.loc 1 599 0 discriminator 1
 829 0122 FFF7FEFF 		bl	port_halt
 830              	.LVL80:
 831              		.loc 1 601 0 discriminator 1
 832 0126 FFF7FEFF 		bl	port_halt
 833              	.LVL81:
 834 012a D2E7     		b	.L84
 835              	.L112:
 836              		.loc 1 597 0 discriminator 1
 837 012c FFF7FEFF 		bl	port_halt
 838              	.LVL82:
 839 0130 CDE7     		b	.L83
 840              	.L104:
 841              		.loc 1 587 0 discriminator 1
 842 0132 9EF80430 		ldrb	r3, [lr, #4]	@ zero_extendqisi2
 843 0136 0C4E     		ldr	r6, .L114+8
 844 0138 002B     		cmp	r3, #0
 845 013a C1D0     		beq	.L80
 846              		.loc 1 587 0 is_stmt 0
 847 013c 3268     		ldr	r2, [r6, #0]
 848 013e 9645     		cmp	lr, r2
 849 0140 BED0     		beq	.L80
 850 0142 DCF80010 		ldr	r1, [ip, #0]
 851 0146 01E0     		b	.L82
 852              	.L81:
 853              		.loc 1 587 0 discriminator 2
 854 0148 9645     		cmp	lr, r2
ARM GAS  /tmp/cc3s1bE4.s 			page 16


 855 014a 06D0     		beq	.L107
 856              	.L82:
 857              		.loc 1 591 0 is_stmt 1
 858 014c BEF800E0 		ldrh	lr, [lr, #0]
 859 0150 8E44     		add	lr, r1, lr
 860              		.loc 1 587 0
 861 0152 9EF80430 		ldrb	r3, [lr, #4]	@ zero_extendqisi2
 862 0156 002B     		cmp	r3, #0
 863 0158 F6D1     		bne	.L81
 864              	.L107:
 865 015a C8F800E0 		str	lr, [r8, #0]
 866 015e AFE7     		b	.L80
 867              	.L115:
 868              		.align	2
 869              	.L114:
 870 0160 00000000 		.word	.LANCHOR4
 871 0164 00000000 		.word	lwip_stats
 872 0168 00000000 		.word	.LANCHOR2
 873 016c 00000000 		.word	.LANCHOR3
 874 0170 00000000 		.word	.LANCHOR1
 875              		.cfi_endproc
 876              	.LFE11:
 877              		.size	mem_malloc, .-mem_malloc
 878 0174 AFF30080 		.section	.text.mem_calloc,"ax",%progbits
 878      AFF30080 
 878      AFF30080 
 879              		.align	2
 880              		.p2align 4,,15
 881              		.global	mem_calloc
 882              		.thumb
 883              		.thumb_func
 884              		.type	mem_calloc, %function
 885              	mem_calloc:
 886              	.LFB12:
 887              		.loc 1 630 0
 888              		.cfi_startproc
 889              		@ args = 0, pretend = 0, frame = 0
 890              		@ frame_needed = 0, uses_anonymous_args = 0
 891              	.LVL83:
 892 0000 38B5     		push	{r3, r4, r5, lr}
 893              	.LCFI4:
 894              		.cfi_def_cfa_offset 16
 895              		.cfi_offset 3, -16
 896              		.cfi_offset 4, -12
 897              		.cfi_offset 5, -8
 898              		.cfi_offset 14, -4
 899              		.loc 1 634 0
 900 0002 00FB01F4 		mul	r4, r0, r1
 901 0006 A0B2     		uxth	r0, r4
 902              	.LVL84:
 903 0008 FFF7FEFF 		bl	mem_malloc
 904              	.LVL85:
 905              		.loc 1 635 0
 906 000c 0546     		mov	r5, r0
 907 000e 18B1     		cbz	r0, .L117
 908              		.loc 1 637 0
 909 0010 0021     		movs	r1, #0
ARM GAS  /tmp/cc3s1bE4.s 			page 17


 910 0012 2246     		mov	r2, r4
 911 0014 FFF7FEFF 		bl	memset
 912              	.LVL86:
 913              	.L117:
 914              		.loc 1 640 0
 915 0018 2846     		mov	r0, r5
 916 001a 38BD     		pop	{r3, r4, r5, pc}
 917              		.cfi_endproc
 918              	.LFE12:
 919              		.size	mem_calloc, .-mem_calloc
 920              		.global	ram_heap
 921 001c AFF30080 		.section	.bss.ram_heap,"aw",%nobits
 922              		.align	2
 923              		.set	.LANCHOR0,. + 0
 924              		.type	ram_heap, %object
 925              		.size	ram_heap, 1620
 926              	ram_heap:
 927 0000 00000000 		.space	1620
 927      00000000 
 927      00000000 
 927      00000000 
 927      00000000 
 928              		.section	.bss.lfree,"aw",%nobits
 929              		.align	2
 930              		.set	.LANCHOR3,. + 0
 931              		.type	lfree, %object
 932              		.size	lfree, 4
 933              	lfree:
 934 0000 00000000 		.space	4
 935              		.section	.bss.ram_end,"aw",%nobits
 936              		.align	2
 937              		.set	.LANCHOR2,. + 0
 938              		.type	ram_end, %object
 939              		.size	ram_end, 4
 940              	ram_end:
 941 0000 00000000 		.space	4
 942              		.section	.bss.mem_mutex,"aw",%nobits
 943              		.align	2
 944              		.set	.LANCHOR4,. + 0
 945              		.type	mem_mutex, %object
 946              		.size	mem_mutex, 4
 947              	mem_mutex:
 948 0000 00000000 		.space	4
 949              		.section	.bss.ram,"aw",%nobits
 950              		.align	2
 951              		.set	.LANCHOR1,. + 0
 952              		.type	ram, %object
 953              		.size	ram, 4
 954              	ram:
 955 0000 00000000 		.space	4
 956              		.text
 957              	.Letext0:
 958              		.file 2 "/opt/psas/x-tools/stm32f407/arm-psas-eabi/bin/../lib/gcc/arm-psas-eabi/4.7.2/../../../../
 959              		.file 3 "../../os/ports/GCC/ARMCMx/chtypes.h"
 960              		.file 4 "../../os/kernel/include/chlists.h"
 961              		.file 5 "../../os/kernel/include/chthreads.h"
 962              		.file 6 "../../os/ports/GCC/ARMCMx/chcore_v7m.h"
ARM GAS  /tmp/cc3s1bE4.s 			page 18


 963              		.file 7 "../../os/kernel/include/chsem.h"
 964              		.file 8 "../../os/kernel/include/chmtx.h"
 965              		.file 9 "../../os/various/lwip_bindings/arch/cc.h"
 966              		.file 10 "../../ext/lwip/src/include/lwip/mem.h"
 967              		.file 11 "../../ext/lwip/src/include/lwip/err.h"
 968              		.file 12 "../../os/various/lwip_bindings/arch/sys_arch.h"
 969              		.file 13 "../../ext/lwip/src/include/lwip/stats.h"
 970              		.file 14 "../../ext/lwip/src/include/lwip/sys.h"
 971              		.file 15 "../../ext/lwip/src/include/lwip/memp.h"