ARM GAS  /tmp/ccWNkc5E.s 			page 1


   1              		.syntax unified
   2              		.cpu cortex-m4
   3              		.eabi_attribute 27, 3
   4              		.eabi_attribute 28, 1
   5              		.fpu fpv4-sp-d16
   6              		.eabi_attribute 20, 1
   7              		.eabi_attribute 21, 1
   8              		.eabi_attribute 23, 3
   9              		.eabi_attribute 24, 1
  10              		.eabi_attribute 25, 1
  11              		.eabi_attribute 26, 1
  12              		.eabi_attribute 30, 2
  13              		.eabi_attribute 34, 1
  14              		.eabi_attribute 18, 4
  15              		.thumb
  16              		.file	"mmcsd.c"
  17              		.text
  18              	.Ltext0:
  19              		.cfi_sections	.debug_frame
  20              		.section	.text.mmcsdGetCapacity,"ax",%progbits
  21              		.align	2
  22              		.p2align 4,,15
  23              		.global	mmcsdGetCapacity
  24              		.thumb
  25              		.thumb_func
  26              		.type	mmcsdGetCapacity, %function
  27              	mmcsdGetCapacity:
  28              	.LFB119:
  29              		.file 1 "../../os/hal/src/mmcsd.c"
  30              		.loc 1 93 0
  31              		.cfi_startproc
  32              		@ args = 0, pretend = 0, frame = 0
  33              		@ frame_needed = 0, uses_anonymous_args = 0
  34              		@ link register save eliminated.
  35              	.LVL0:
  36              		.loc 1 95 0
  37 0000 C368     		ldr	r3, [r0, #12]
  38 0002 9B0F     		lsrs	r3, r3, #30
  39 0004 12D1     		bne	.L8
  40              	.LVL1:
  41              	.LBB11:
  42              	.LBB12:
  43              	.LBB13:
  44              		.loc 1 76 0
  45 0006 8268     		ldr	r2, [r0, #8]
  46              		.loc 1 75 0
  47 0008 4168     		ldr	r1, [r0, #4]
  48              	.LVL2:
  49              		.loc 1 76 0
  50 000a 9305     		lsls	r3, r2, #22
  51              		.loc 1 75 0
  52 000c 880F     		lsrs	r0, r1, #30
  53              	.LVL3:
  54              		.loc 1 76 0
  55 000e 9B0D     		lsrs	r3, r3, #22
  56              		.loc 1 75 0
  57 0010 40EA8300 		orr	r0, r0, r3, lsl #2
ARM GAS  /tmp/ccWNkc5E.s 			page 2


  58              	.LBE13:
  59              	.LBE12:
  60              	.LBB14:
  61              	.LBB15:
  62              		.loc 1 77 0
  63 0014 C1F3C231 		ubfx	r1, r1, #15, #3
  64              	.LBE15:
  65              	.LBE14:
  66              		.loc 1 102 0
  67 0018 0130     		adds	r0, r0, #1
  68 001a 0231     		adds	r1, r1, #2
  69              	.LBB16:
  70              	.LBB17:
  71              		.loc 1 77 0
  72 001c C2F30342 		ubfx	r2, r2, #16, #4
  73              	.LBE17:
  74              	.LBE16:
  75              		.loc 1 102 0
  76 0020 00FA01F0 		lsl	r0, r0, r1
  77 0024 093A     		subs	r2, r2, #9
  78 0026 00FA02F0 		lsl	r0, r0, r2
  79 002a 7047     		bx	lr
  80              	.LVL4:
  81              	.L8:
  82              	.LBE11:
  83              		.loc 1 95 0
  84 002c 012B     		cmp	r3, #1
  85 002e 01D0     		beq	.L9
  86              		.loc 1 108 0
  87 0030 0020     		movs	r0, #0
  88              	.LVL5:
  89              		.loc 1 110 0
  90 0032 7047     		bx	lr
  91              	.LVL6:
  92              	.L9:
  93              	.LBB20:
  94              	.LBB18:
  95              	.LBB19:
  96              		.loc 1 76 0
  97 0034 8268     		ldr	r2, [r0, #8]
  98              		.loc 1 75 0
  99 0036 C388     		ldrh	r3, [r0, #6]
 100              		.loc 1 76 0
 101 0038 02F03F00 		and	r0, r2, #63
 102              	.LVL7:
 103              		.loc 1 75 0
 104 003c 43EA0040 		orr	r0, r3, r0, lsl #16
 105              	.LBE19:
 106              	.LBE18:
 107              		.loc 1 105 0
 108 0040 0130     		adds	r0, r0, #1
 109 0042 8002     		lsls	r0, r0, #10
 110 0044 7047     		bx	lr
 111              	.LBE20:
 112              		.cfi_endproc
 113              	.LFE119:
 114              		.size	mmcsdGetCapacity, .-mmcsdGetCapacity
ARM GAS  /tmp/ccWNkc5E.s 			page 3


 115 0046 00BFAFF3 		.text
 115      0080AFF3 
 115      0080
 116              	.Letext0:
 117              		.file 2 "/opt/psas/x-tools/stm32f407/arm-psas-eabi/bin/../lib/gcc/arm-psas-eabi/4.7.2/../../../../
 118              		.file 3 "../../os/ports/common/ARMCMx/CMSIS/include/core_cm4.h"
 119              		.section	.debug_info,"",%progbits
 120              	.Ldebug_info0:
 121 0000 B4020000 		.4byte	0x2b4
 122 0004 0200     		.2byte	0x2
 123 0006 00000000 		.4byte	.Ldebug_abbrev0
 124 000a 04       		.byte	0x4
 125 000b 01       		.uleb128 0x1
 126 000c 10010000 		.4byte	.LASF19
 127 0010 01       		.byte	0x1
 128 0011 B1000000 		.4byte	.LASF20
 129 0015 0D000000 		.4byte	.LASF21
 130 0019 18000000 		.4byte	.Ldebug_ranges0+0x18
 131 001d 00000000 		.4byte	0
 132 0021 00000000 		.4byte	0
 133 0025 00000000 		.4byte	.Ldebug_line0
 134 0029 02       		.uleb128 0x2
 135 002a 04       		.byte	0x4
 136 002b 05       		.byte	0x5
 137 002c 696E7400 		.ascii	"int\000"
 138 0030 03       		.uleb128 0x3
 139 0031 04       		.byte	0x4
 140 0032 07       		.byte	0x7
 141 0033 DF000000 		.4byte	.LASF0
 142 0037 03       		.uleb128 0x3
 143 0038 01       		.byte	0x1
 144 0039 06       		.byte	0x6
 145 003a 49010000 		.4byte	.LASF1
 146 003e 03       		.uleb128 0x3
 147 003f 01       		.byte	0x1
 148 0040 08       		.byte	0x8
 149 0041 75000000 		.4byte	.LASF2
 150 0045 03       		.uleb128 0x3
 151 0046 02       		.byte	0x2
 152 0047 05       		.byte	0x5
 153 0048 1C010000 		.4byte	.LASF3
 154 004c 03       		.uleb128 0x3
 155 004d 02       		.byte	0x2
 156 004e 07       		.byte	0x7
 157 004f 9E000000 		.4byte	.LASF4
 158 0053 04       		.uleb128 0x4
 159 0054 F1000000 		.4byte	.LASF6
 160 0058 02       		.byte	0x2
 161 0059 4F       		.byte	0x4f
 162 005a 5E000000 		.4byte	0x5e
 163 005e 03       		.uleb128 0x3
 164 005f 04       		.byte	0x4
 165 0060 05       		.byte	0x5
 166 0061 2F010000 		.4byte	.LASF5
 167 0065 04       		.uleb128 0x4
 168 0066 26010000 		.4byte	.LASF7
 169 006a 02       		.byte	0x2
ARM GAS  /tmp/ccWNkc5E.s 			page 4


 170 006b 50       		.byte	0x50
 171 006c 70000000 		.4byte	0x70
 172 0070 03       		.uleb128 0x3
 173 0071 04       		.byte	0x4
 174 0072 07       		.byte	0x7
 175 0073 83000000 		.4byte	.LASF8
 176 0077 03       		.uleb128 0x3
 177 0078 08       		.byte	0x8
 178 0079 05       		.byte	0x5
 179 007a 02010000 		.4byte	.LASF9
 180 007e 03       		.uleb128 0x3
 181 007f 08       		.byte	0x8
 182 0080 07       		.byte	0x7
 183 0081 55010000 		.4byte	.LASF10
 184 0085 03       		.uleb128 0x3
 185 0086 04       		.byte	0x4
 186 0087 07       		.byte	0x7
 187 0088 F9000000 		.4byte	.LASF11
 188 008c 03       		.uleb128 0x3
 189 008d 01       		.byte	0x1
 190 008e 08       		.byte	0x8
 191 008f EC000000 		.4byte	.LASF12
 192 0093 05       		.uleb128 0x5
 193 0094 53000000 		.4byte	0x53
 194 0098 06       		.uleb128 0x6
 195 0099 60000000 		.4byte	.LASF22
 196 009d 01       		.byte	0x1
 197 009e 3E       		.byte	0x3e
 198 009f 01       		.byte	0x1
 199 00a0 65000000 		.4byte	0x65
 200 00a4 01       		.byte	0x1
 201 00a5 F7000000 		.4byte	0xf7
 202 00a9 07       		.uleb128 0x7
 203 00aa 70000000 		.4byte	.LASF13
 204 00ae 01       		.byte	0x1
 205 00af 3E       		.byte	0x3e
 206 00b0 F7000000 		.4byte	0xf7
 207 00b4 08       		.uleb128 0x8
 208 00b5 656E6400 		.ascii	"end\000"
 209 00b9 01       		.byte	0x1
 210 00ba 3E       		.byte	0x3e
 211 00bb 65000000 		.4byte	0x65
 212 00bf 07       		.uleb128 0x7
 213 00c0 00000000 		.4byte	.LASF14
 214 00c4 01       		.byte	0x1
 215 00c5 3E       		.byte	0x3e
 216 00c6 65000000 		.4byte	0x65
 217 00ca 09       		.uleb128 0x9
 218 00cb 57000000 		.4byte	.LASF15
 219 00cf 01       		.byte	0x1
 220 00d0 3F       		.byte	0x3f
 221 00d1 30000000 		.4byte	0x30
 222 00d5 09       		.uleb128 0x9
 223 00d6 06000000 		.4byte	.LASF16
 224 00da 01       		.byte	0x1
 225 00db 3F       		.byte	0x3f
 226 00dc 30000000 		.4byte	0x30
ARM GAS  /tmp/ccWNkc5E.s 			page 5


 227 00e0 09       		.uleb128 0x9
 228 00e1 95000000 		.4byte	.LASF17
 229 00e5 01       		.byte	0x1
 230 00e6 3F       		.byte	0x3f
 231 00e7 30000000 		.4byte	0x30
 232 00eb 09       		.uleb128 0x9
 233 00ec D7000000 		.4byte	.LASF18
 234 00f0 01       		.byte	0x1
 235 00f1 40       		.byte	0x40
 236 00f2 65000000 		.4byte	0x65
 237 00f6 00       		.byte	0
 238 00f7 0A       		.uleb128 0xa
 239 00f8 04       		.byte	0x4
 240 00f9 65000000 		.4byte	0x65
 241 00fd 0B       		.uleb128 0xb
 242 00fe 01       		.byte	0x1
 243 00ff 38010000 		.4byte	.LASF23
 244 0103 01       		.byte	0x1
 245 0104 5D       		.byte	0x5d
 246 0105 01       		.byte	0x1
 247 0106 65000000 		.4byte	0x65
 248 010a 00000000 		.4byte	.LFB119
 249 010e 46000000 		.4byte	.LFE119
 250 0112 02       		.byte	0x2
 251 0113 7D       		.byte	0x7d
 252 0114 00       		.sleb128 0
 253 0115 01       		.byte	0x1
 254 0116 A9020000 		.4byte	0x2a9
 255 011a 0C       		.uleb128 0xc
 256 011b 63736400 		.ascii	"csd\000"
 257 011f 01       		.byte	0x1
 258 0120 5D       		.byte	0x5d
 259 0121 F7000000 		.4byte	0xf7
 260 0125 00000000 		.4byte	.LLST0
 261 0129 0D       		.uleb128 0xd
 262 012a 00000000 		.4byte	.Ldebug_ranges0+0
 263 012e 0E       		.uleb128 0xe
 264 012f 6100     		.ascii	"a\000"
 265 0131 01       		.byte	0x1
 266 0132 60       		.byte	0x60
 267 0133 65000000 		.4byte	0x65
 268 0137 0E       		.uleb128 0xe
 269 0138 6200     		.ascii	"b\000"
 270 013a 01       		.byte	0x1
 271 013b 60       		.byte	0x60
 272 013c 65000000 		.4byte	0x65
 273 0140 0E       		.uleb128 0xe
 274 0141 6300     		.ascii	"c\000"
 275 0143 01       		.byte	0x1
 276 0144 60       		.byte	0x60
 277 0145 65000000 		.4byte	0x65
 278 0149 0F       		.uleb128 0xf
 279 014a 98000000 		.4byte	0x98
 280 014e 06000000 		.4byte	.LBB12
 281 0152 14000000 		.4byte	.LBE12
 282 0156 01       		.byte	0x1
 283 0157 63       		.byte	0x63
ARM GAS  /tmp/ccWNkc5E.s 			page 6


 284 0158 A6010000 		.4byte	0x1a6
 285 015c 10       		.uleb128 0x10
 286 015d BF000000 		.4byte	0xbf
 287 0161 53000000 		.4byte	.LLST1
 288 0165 10       		.uleb128 0x10
 289 0166 B4000000 		.4byte	0xb4
 290 016a 68000000 		.4byte	.LLST2
 291 016e 10       		.uleb128 0x10
 292 016f A9000000 		.4byte	0xa9
 293 0173 7D000000 		.4byte	.LLST3
 294 0177 11       		.uleb128 0x11
 295 0178 06000000 		.4byte	.LBB13
 296 017c 14000000 		.4byte	.LBE13
 297 0180 12       		.uleb128 0x12
 298 0181 CA000000 		.4byte	0xca
 299 0185 9E000000 		.4byte	.LLST4
 300 0189 12       		.uleb128 0x12
 301 018a D5000000 		.4byte	0xd5
 302 018e B2000000 		.4byte	.LLST5
 303 0192 12       		.uleb128 0x12
 304 0193 E0000000 		.4byte	0xe0
 305 0197 C6000000 		.4byte	.LLST6
 306 019b 12       		.uleb128 0x12
 307 019c EB000000 		.4byte	0xeb
 308 01a0 DA000000 		.4byte	.LLST7
 309 01a4 00       		.byte	0
 310 01a5 00       		.byte	0
 311 01a6 0F       		.uleb128 0xf
 312 01a7 98000000 		.4byte	0x98
 313 01ab 14000000 		.4byte	.LBB14
 314 01af 18000000 		.4byte	.LBE14
 315 01b3 01       		.byte	0x1
 316 01b4 64       		.byte	0x64
 317 01b5 03020000 		.4byte	0x203
 318 01b9 10       		.uleb128 0x10
 319 01ba BF000000 		.4byte	0xbf
 320 01be F0000000 		.4byte	.LLST8
 321 01c2 10       		.uleb128 0x10
 322 01c3 B4000000 		.4byte	0xb4
 323 01c7 05010000 		.4byte	.LLST9
 324 01cb 10       		.uleb128 0x10
 325 01cc A9000000 		.4byte	0xa9
 326 01d0 1A010000 		.4byte	.LLST10
 327 01d4 11       		.uleb128 0x11
 328 01d5 14000000 		.4byte	.LBB15
 329 01d9 18000000 		.4byte	.LBE15
 330 01dd 12       		.uleb128 0x12
 331 01de CA000000 		.4byte	0xca
 332 01e2 3B010000 		.4byte	.LLST11
 333 01e6 12       		.uleb128 0x12
 334 01e7 D5000000 		.4byte	0xd5
 335 01eb 3B010000 		.4byte	.LLST11
 336 01ef 12       		.uleb128 0x12
 337 01f0 E0000000 		.4byte	0xe0
 338 01f4 4F010000 		.4byte	.LLST13
 339 01f8 12       		.uleb128 0x12
 340 01f9 EB000000 		.4byte	0xeb
ARM GAS  /tmp/ccWNkc5E.s 			page 7


 341 01fd 63010000 		.4byte	.LLST14
 342 0201 00       		.byte	0
 343 0202 00       		.byte	0
 344 0203 0F       		.uleb128 0xf
 345 0204 98000000 		.4byte	0x98
 346 0208 1C000000 		.4byte	.LBB16
 347 020c 20000000 		.4byte	.LBE16
 348 0210 01       		.byte	0x1
 349 0211 65       		.byte	0x65
 350 0212 60020000 		.4byte	0x260
 351 0216 10       		.uleb128 0x10
 352 0217 BF000000 		.4byte	0xbf
 353 021b 7B010000 		.4byte	.LLST15
 354 021f 10       		.uleb128 0x10
 355 0220 B4000000 		.4byte	0xb4
 356 0224 90010000 		.4byte	.LLST16
 357 0228 10       		.uleb128 0x10
 358 0229 A9000000 		.4byte	0xa9
 359 022d 1A010000 		.4byte	.LLST10
 360 0231 11       		.uleb128 0x11
 361 0232 1C000000 		.4byte	.LBB17
 362 0236 20000000 		.4byte	.LBE17
 363 023a 12       		.uleb128 0x12
 364 023b CA000000 		.4byte	0xca
 365 023f A5010000 		.4byte	.LLST18
 366 0243 12       		.uleb128 0x12
 367 0244 D5000000 		.4byte	0xd5
 368 0248 A5010000 		.4byte	.LLST18
 369 024c 12       		.uleb128 0x12
 370 024d E0000000 		.4byte	0xe0
 371 0251 B9010000 		.4byte	.LLST20
 372 0255 12       		.uleb128 0x12
 373 0256 EB000000 		.4byte	0xeb
 374 025a CD010000 		.4byte	.LLST21
 375 025e 00       		.byte	0
 376 025f 00       		.byte	0
 377 0260 13       		.uleb128 0x13
 378 0261 98000000 		.4byte	0x98
 379 0265 34000000 		.4byte	.LBB18
 380 0269 40000000 		.4byte	.LBE18
 381 026d 01       		.byte	0x1
 382 026e 69       		.byte	0x69
 383 026f 14       		.uleb128 0x14
 384 0270 BF000000 		.4byte	0xbf
 385 0274 30       		.byte	0x30
 386 0275 14       		.uleb128 0x14
 387 0276 B4000000 		.4byte	0xb4
 388 027a 45       		.byte	0x45
 389 027b 10       		.uleb128 0x10
 390 027c A9000000 		.4byte	0xa9
 391 0280 E5010000 		.4byte	.LLST22
 392 0284 11       		.uleb128 0x11
 393 0285 34000000 		.4byte	.LBB19
 394 0289 40000000 		.4byte	.LBE19
 395 028d 15       		.uleb128 0x15
 396 028e CA000000 		.4byte	0xca
 397 0292 01       		.byte	0x1
ARM GAS  /tmp/ccWNkc5E.s 			page 8


 398 0293 15       		.uleb128 0x15
 399 0294 D5000000 		.4byte	0xd5
 400 0298 02       		.byte	0x2
 401 0299 15       		.uleb128 0x15
 402 029a E0000000 		.4byte	0xe0
 403 029e 10       		.byte	0x10
 404 029f 15       		.uleb128 0x15
 405 02a0 EB000000 		.4byte	0xeb
 406 02a4 3F       		.byte	0x3f
 407 02a5 00       		.byte	0
 408 02a6 00       		.byte	0
 409 02a7 00       		.byte	0
 410 02a8 00       		.byte	0
 411 02a9 16       		.uleb128 0x16
 412 02aa CA000000 		.4byte	.LASF24
 413 02ae 03       		.byte	0x3
 414 02af 9806     		.2byte	0x698
 415 02b1 93000000 		.4byte	0x93
 416 02b5 01       		.byte	0x1
 417 02b6 01       		.byte	0x1
 418 02b7 00       		.byte	0
 419              		.section	.debug_abbrev,"",%progbits
 420              	.Ldebug_abbrev0:
 421 0000 01       		.uleb128 0x1
 422 0001 11       		.uleb128 0x11
 423 0002 01       		.byte	0x1
 424 0003 25       		.uleb128 0x25
 425 0004 0E       		.uleb128 0xe
 426 0005 13       		.uleb128 0x13
 427 0006 0B       		.uleb128 0xb
 428 0007 03       		.uleb128 0x3
 429 0008 0E       		.uleb128 0xe
 430 0009 1B       		.uleb128 0x1b
 431 000a 0E       		.uleb128 0xe
 432 000b 55       		.uleb128 0x55
 433 000c 06       		.uleb128 0x6
 434 000d 11       		.uleb128 0x11
 435 000e 01       		.uleb128 0x1
 436 000f 52       		.uleb128 0x52
 437 0010 01       		.uleb128 0x1
 438 0011 10       		.uleb128 0x10
 439 0012 06       		.uleb128 0x6
 440 0013 00       		.byte	0
 441 0014 00       		.byte	0
 442 0015 02       		.uleb128 0x2
 443 0016 24       		.uleb128 0x24
 444 0017 00       		.byte	0
 445 0018 0B       		.uleb128 0xb
 446 0019 0B       		.uleb128 0xb
 447 001a 3E       		.uleb128 0x3e
 448 001b 0B       		.uleb128 0xb
 449 001c 03       		.uleb128 0x3
 450 001d 08       		.uleb128 0x8
 451 001e 00       		.byte	0
 452 001f 00       		.byte	0
 453 0020 03       		.uleb128 0x3
 454 0021 24       		.uleb128 0x24
ARM GAS  /tmp/ccWNkc5E.s 			page 9


 455 0022 00       		.byte	0
 456 0023 0B       		.uleb128 0xb
 457 0024 0B       		.uleb128 0xb
 458 0025 3E       		.uleb128 0x3e
 459 0026 0B       		.uleb128 0xb
 460 0027 03       		.uleb128 0x3
 461 0028 0E       		.uleb128 0xe
 462 0029 00       		.byte	0
 463 002a 00       		.byte	0
 464 002b 04       		.uleb128 0x4
 465 002c 16       		.uleb128 0x16
 466 002d 00       		.byte	0
 467 002e 03       		.uleb128 0x3
 468 002f 0E       		.uleb128 0xe
 469 0030 3A       		.uleb128 0x3a
 470 0031 0B       		.uleb128 0xb
 471 0032 3B       		.uleb128 0x3b
 472 0033 0B       		.uleb128 0xb
 473 0034 49       		.uleb128 0x49
 474 0035 13       		.uleb128 0x13
 475 0036 00       		.byte	0
 476 0037 00       		.byte	0
 477 0038 05       		.uleb128 0x5
 478 0039 35       		.uleb128 0x35
 479 003a 00       		.byte	0
 480 003b 49       		.uleb128 0x49
 481 003c 13       		.uleb128 0x13
 482 003d 00       		.byte	0
 483 003e 00       		.byte	0
 484 003f 06       		.uleb128 0x6
 485 0040 2E       		.uleb128 0x2e
 486 0041 01       		.byte	0x1
 487 0042 03       		.uleb128 0x3
 488 0043 0E       		.uleb128 0xe
 489 0044 3A       		.uleb128 0x3a
 490 0045 0B       		.uleb128 0xb
 491 0046 3B       		.uleb128 0x3b
 492 0047 0B       		.uleb128 0xb
 493 0048 27       		.uleb128 0x27
 494 0049 0C       		.uleb128 0xc
 495 004a 49       		.uleb128 0x49
 496 004b 13       		.uleb128 0x13
 497 004c 20       		.uleb128 0x20
 498 004d 0B       		.uleb128 0xb
 499 004e 01       		.uleb128 0x1
 500 004f 13       		.uleb128 0x13
 501 0050 00       		.byte	0
 502 0051 00       		.byte	0
 503 0052 07       		.uleb128 0x7
 504 0053 05       		.uleb128 0x5
 505 0054 00       		.byte	0
 506 0055 03       		.uleb128 0x3
 507 0056 0E       		.uleb128 0xe
 508 0057 3A       		.uleb128 0x3a
 509 0058 0B       		.uleb128 0xb
 510 0059 3B       		.uleb128 0x3b
 511 005a 0B       		.uleb128 0xb
ARM GAS  /tmp/ccWNkc5E.s 			page 10


 512 005b 49       		.uleb128 0x49
 513 005c 13       		.uleb128 0x13
 514 005d 00       		.byte	0
 515 005e 00       		.byte	0
 516 005f 08       		.uleb128 0x8
 517 0060 05       		.uleb128 0x5
 518 0061 00       		.byte	0
 519 0062 03       		.uleb128 0x3
 520 0063 08       		.uleb128 0x8
 521 0064 3A       		.uleb128 0x3a
 522 0065 0B       		.uleb128 0xb
 523 0066 3B       		.uleb128 0x3b
 524 0067 0B       		.uleb128 0xb
 525 0068 49       		.uleb128 0x49
 526 0069 13       		.uleb128 0x13
 527 006a 00       		.byte	0
 528 006b 00       		.byte	0
 529 006c 09       		.uleb128 0x9
 530 006d 34       		.uleb128 0x34
 531 006e 00       		.byte	0
 532 006f 03       		.uleb128 0x3
 533 0070 0E       		.uleb128 0xe
 534 0071 3A       		.uleb128 0x3a
 535 0072 0B       		.uleb128 0xb
 536 0073 3B       		.uleb128 0x3b
 537 0074 0B       		.uleb128 0xb
 538 0075 49       		.uleb128 0x49
 539 0076 13       		.uleb128 0x13
 540 0077 00       		.byte	0
 541 0078 00       		.byte	0
 542 0079 0A       		.uleb128 0xa
 543 007a 0F       		.uleb128 0xf
 544 007b 00       		.byte	0
 545 007c 0B       		.uleb128 0xb
 546 007d 0B       		.uleb128 0xb
 547 007e 49       		.uleb128 0x49
 548 007f 13       		.uleb128 0x13
 549 0080 00       		.byte	0
 550 0081 00       		.byte	0
 551 0082 0B       		.uleb128 0xb
 552 0083 2E       		.uleb128 0x2e
 553 0084 01       		.byte	0x1
 554 0085 3F       		.uleb128 0x3f
 555 0086 0C       		.uleb128 0xc
 556 0087 03       		.uleb128 0x3
 557 0088 0E       		.uleb128 0xe
 558 0089 3A       		.uleb128 0x3a
 559 008a 0B       		.uleb128 0xb
 560 008b 3B       		.uleb128 0x3b
 561 008c 0B       		.uleb128 0xb
 562 008d 27       		.uleb128 0x27
 563 008e 0C       		.uleb128 0xc
 564 008f 49       		.uleb128 0x49
 565 0090 13       		.uleb128 0x13
 566 0091 11       		.uleb128 0x11
 567 0092 01       		.uleb128 0x1
 568 0093 12       		.uleb128 0x12
ARM GAS  /tmp/ccWNkc5E.s 			page 11


 569 0094 01       		.uleb128 0x1
 570 0095 40       		.uleb128 0x40
 571 0096 0A       		.uleb128 0xa
 572 0097 9742     		.uleb128 0x2117
 573 0099 0C       		.uleb128 0xc
 574 009a 01       		.uleb128 0x1
 575 009b 13       		.uleb128 0x13
 576 009c 00       		.byte	0
 577 009d 00       		.byte	0
 578 009e 0C       		.uleb128 0xc
 579 009f 05       		.uleb128 0x5
 580 00a0 00       		.byte	0
 581 00a1 03       		.uleb128 0x3
 582 00a2 08       		.uleb128 0x8
 583 00a3 3A       		.uleb128 0x3a
 584 00a4 0B       		.uleb128 0xb
 585 00a5 3B       		.uleb128 0x3b
 586 00a6 0B       		.uleb128 0xb
 587 00a7 49       		.uleb128 0x49
 588 00a8 13       		.uleb128 0x13
 589 00a9 02       		.uleb128 0x2
 590 00aa 06       		.uleb128 0x6
 591 00ab 00       		.byte	0
 592 00ac 00       		.byte	0
 593 00ad 0D       		.uleb128 0xd
 594 00ae 0B       		.uleb128 0xb
 595 00af 01       		.byte	0x1
 596 00b0 55       		.uleb128 0x55
 597 00b1 06       		.uleb128 0x6
 598 00b2 00       		.byte	0
 599 00b3 00       		.byte	0
 600 00b4 0E       		.uleb128 0xe
 601 00b5 34       		.uleb128 0x34
 602 00b6 00       		.byte	0
 603 00b7 03       		.uleb128 0x3
 604 00b8 08       		.uleb128 0x8
 605 00b9 3A       		.uleb128 0x3a
 606 00ba 0B       		.uleb128 0xb
 607 00bb 3B       		.uleb128 0x3b
 608 00bc 0B       		.uleb128 0xb
 609 00bd 49       		.uleb128 0x49
 610 00be 13       		.uleb128 0x13
 611 00bf 00       		.byte	0
 612 00c0 00       		.byte	0
 613 00c1 0F       		.uleb128 0xf
 614 00c2 1D       		.uleb128 0x1d
 615 00c3 01       		.byte	0x1
 616 00c4 31       		.uleb128 0x31
 617 00c5 13       		.uleb128 0x13
 618 00c6 11       		.uleb128 0x11
 619 00c7 01       		.uleb128 0x1
 620 00c8 12       		.uleb128 0x12
 621 00c9 01       		.uleb128 0x1
 622 00ca 58       		.uleb128 0x58
 623 00cb 0B       		.uleb128 0xb
 624 00cc 59       		.uleb128 0x59
 625 00cd 0B       		.uleb128 0xb
ARM GAS  /tmp/ccWNkc5E.s 			page 12


 626 00ce 01       		.uleb128 0x1
 627 00cf 13       		.uleb128 0x13
 628 00d0 00       		.byte	0
 629 00d1 00       		.byte	0
 630 00d2 10       		.uleb128 0x10
 631 00d3 05       		.uleb128 0x5
 632 00d4 00       		.byte	0
 633 00d5 31       		.uleb128 0x31
 634 00d6 13       		.uleb128 0x13
 635 00d7 02       		.uleb128 0x2
 636 00d8 06       		.uleb128 0x6
 637 00d9 00       		.byte	0
 638 00da 00       		.byte	0
 639 00db 11       		.uleb128 0x11
 640 00dc 0B       		.uleb128 0xb
 641 00dd 01       		.byte	0x1
 642 00de 11       		.uleb128 0x11
 643 00df 01       		.uleb128 0x1
 644 00e0 12       		.uleb128 0x12
 645 00e1 01       		.uleb128 0x1
 646 00e2 00       		.byte	0
 647 00e3 00       		.byte	0
 648 00e4 12       		.uleb128 0x12
 649 00e5 34       		.uleb128 0x34
 650 00e6 00       		.byte	0
 651 00e7 31       		.uleb128 0x31
 652 00e8 13       		.uleb128 0x13
 653 00e9 02       		.uleb128 0x2
 654 00ea 06       		.uleb128 0x6
 655 00eb 00       		.byte	0
 656 00ec 00       		.byte	0
 657 00ed 13       		.uleb128 0x13
 658 00ee 1D       		.uleb128 0x1d
 659 00ef 01       		.byte	0x1
 660 00f0 31       		.uleb128 0x31
 661 00f1 13       		.uleb128 0x13
 662 00f2 11       		.uleb128 0x11
 663 00f3 01       		.uleb128 0x1
 664 00f4 12       		.uleb128 0x12
 665 00f5 01       		.uleb128 0x1
 666 00f6 58       		.uleb128 0x58
 667 00f7 0B       		.uleb128 0xb
 668 00f8 59       		.uleb128 0x59
 669 00f9 0B       		.uleb128 0xb
 670 00fa 00       		.byte	0
 671 00fb 00       		.byte	0
 672 00fc 14       		.uleb128 0x14
 673 00fd 05       		.uleb128 0x5
 674 00fe 00       		.byte	0
 675 00ff 31       		.uleb128 0x31
 676 0100 13       		.uleb128 0x13
 677 0101 1C       		.uleb128 0x1c
 678 0102 0B       		.uleb128 0xb
 679 0103 00       		.byte	0
 680 0104 00       		.byte	0
 681 0105 15       		.uleb128 0x15
 682 0106 34       		.uleb128 0x34
ARM GAS  /tmp/ccWNkc5E.s 			page 13


 683 0107 00       		.byte	0
 684 0108 31       		.uleb128 0x31
 685 0109 13       		.uleb128 0x13
 686 010a 1C       		.uleb128 0x1c
 687 010b 0B       		.uleb128 0xb
 688 010c 00       		.byte	0
 689 010d 00       		.byte	0
 690 010e 16       		.uleb128 0x16
 691 010f 34       		.uleb128 0x34
 692 0110 00       		.byte	0
 693 0111 03       		.uleb128 0x3
 694 0112 0E       		.uleb128 0xe
 695 0113 3A       		.uleb128 0x3a
 696 0114 0B       		.uleb128 0xb
 697 0115 3B       		.uleb128 0x3b
 698 0116 05       		.uleb128 0x5
 699 0117 49       		.uleb128 0x49
 700 0118 13       		.uleb128 0x13
 701 0119 3F       		.uleb128 0x3f
 702 011a 0C       		.uleb128 0xc
 703 011b 3C       		.uleb128 0x3c
 704 011c 0C       		.uleb128 0xc
 705 011d 00       		.byte	0
 706 011e 00       		.byte	0
 707 011f 00       		.byte	0
 708              		.section	.debug_loc,"",%progbits
 709              	.Ldebug_loc0:
 710              	.LLST0:
 711 0000 00000000 		.4byte	.LVL0
 712 0004 0E000000 		.4byte	.LVL3
 713 0008 0100     		.2byte	0x1
 714 000a 50       		.byte	0x50
 715 000b 0E000000 		.4byte	.LVL3
 716 000f 2C000000 		.4byte	.LVL4
 717 0013 0400     		.2byte	0x4
 718 0015 F3       		.byte	0xf3
 719 0016 01       		.uleb128 0x1
 720 0017 50       		.byte	0x50
 721 0018 9F       		.byte	0x9f
 722 0019 2C000000 		.4byte	.LVL4
 723 001d 32000000 		.4byte	.LVL5
 724 0021 0100     		.2byte	0x1
 725 0023 50       		.byte	0x50
 726 0024 32000000 		.4byte	.LVL5
 727 0028 34000000 		.4byte	.LVL6
 728 002c 0400     		.2byte	0x4
 729 002e F3       		.byte	0xf3
 730 002f 01       		.uleb128 0x1
 731 0030 50       		.byte	0x50
 732 0031 9F       		.byte	0x9f
 733 0032 34000000 		.4byte	.LVL6
 734 0036 3C000000 		.4byte	.LVL7
 735 003a 0100     		.2byte	0x1
 736 003c 50       		.byte	0x50
 737 003d 3C000000 		.4byte	.LVL7
 738 0041 46000000 		.4byte	.LFE119
 739 0045 0400     		.2byte	0x4
ARM GAS  /tmp/ccWNkc5E.s 			page 14


 740 0047 F3       		.byte	0xf3
 741 0048 01       		.uleb128 0x1
 742 0049 50       		.byte	0x50
 743 004a 9F       		.byte	0x9f
 744 004b 00000000 		.4byte	0
 745 004f 00000000 		.4byte	0
 746              	.LLST1:
 747 0053 06000000 		.4byte	.LVL1
 748 0057 2C000000 		.4byte	.LVL4
 749 005b 0300     		.2byte	0x3
 750 005d 08       		.byte	0x8
 751 005e 3E       		.byte	0x3e
 752 005f 9F       		.byte	0x9f
 753 0060 00000000 		.4byte	0
 754 0064 00000000 		.4byte	0
 755              	.LLST2:
 756 0068 06000000 		.4byte	.LVL1
 757 006c 2C000000 		.4byte	.LVL4
 758 0070 0300     		.2byte	0x3
 759 0072 08       		.byte	0x8
 760 0073 49       		.byte	0x49
 761 0074 9F       		.byte	0x9f
 762 0075 00000000 		.4byte	0
 763 0079 00000000 		.4byte	0
 764              	.LLST3:
 765 007d 06000000 		.4byte	.LVL1
 766 0081 0E000000 		.4byte	.LVL3
 767 0085 0100     		.2byte	0x1
 768 0087 50       		.byte	0x50
 769 0088 0E000000 		.4byte	.LVL3
 770 008c 2C000000 		.4byte	.LVL4
 771 0090 0400     		.2byte	0x4
 772 0092 F3       		.byte	0xf3
 773 0093 01       		.uleb128 0x1
 774 0094 50       		.byte	0x50
 775 0095 9F       		.byte	0x9f
 776 0096 00000000 		.4byte	0
 777 009a 00000000 		.4byte	0
 778              	.LLST4:
 779 009e 06000000 		.4byte	.LVL1
 780 00a2 2C000000 		.4byte	.LVL4
 781 00a6 0200     		.2byte	0x2
 782 00a8 31       		.byte	0x31
 783 00a9 9F       		.byte	0x9f
 784 00aa 00000000 		.4byte	0
 785 00ae 00000000 		.4byte	0
 786              	.LLST5:
 787 00b2 06000000 		.4byte	.LVL1
 788 00b6 2C000000 		.4byte	.LVL4
 789 00ba 0200     		.2byte	0x2
 790 00bc 32       		.byte	0x32
 791 00bd 9F       		.byte	0x9f
 792 00be 00000000 		.4byte	0
 793 00c2 00000000 		.4byte	0
 794              	.LLST6:
 795 00c6 06000000 		.4byte	.LVL1
 796 00ca 2C000000 		.4byte	.LVL4
ARM GAS  /tmp/ccWNkc5E.s 			page 15


 797 00ce 0200     		.2byte	0x2
 798 00d0 4E       		.byte	0x4e
 799 00d1 9F       		.byte	0x9f
 800 00d2 00000000 		.4byte	0
 801 00d6 00000000 		.4byte	0
 802              	.LLST7:
 803 00da 06000000 		.4byte	.LVL1
 804 00de 2C000000 		.4byte	.LVL4
 805 00e2 0400     		.2byte	0x4
 806 00e4 0A       		.byte	0xa
 807 00e5 FF03     		.2byte	0x3ff
 808 00e7 9F       		.byte	0x9f
 809 00e8 00000000 		.4byte	0
 810 00ec 00000000 		.4byte	0
 811              	.LLST8:
 812 00f0 0A000000 		.4byte	.LVL2
 813 00f4 2C000000 		.4byte	.LVL4
 814 00f8 0300     		.2byte	0x3
 815 00fa 08       		.byte	0x8
 816 00fb 2F       		.byte	0x2f
 817 00fc 9F       		.byte	0x9f
 818 00fd 00000000 		.4byte	0
 819 0101 00000000 		.4byte	0
 820              	.LLST9:
 821 0105 0A000000 		.4byte	.LVL2
 822 0109 2C000000 		.4byte	.LVL4
 823 010d 0300     		.2byte	0x3
 824 010f 08       		.byte	0x8
 825 0110 31       		.byte	0x31
 826 0111 9F       		.byte	0x9f
 827 0112 00000000 		.4byte	0
 828 0116 00000000 		.4byte	0
 829              	.LLST10:
 830 011a 0A000000 		.4byte	.LVL2
 831 011e 0E000000 		.4byte	.LVL3
 832 0122 0100     		.2byte	0x1
 833 0124 50       		.byte	0x50
 834 0125 0E000000 		.4byte	.LVL3
 835 0129 2C000000 		.4byte	.LVL4
 836 012d 0400     		.2byte	0x4
 837 012f F3       		.byte	0xf3
 838 0130 01       		.uleb128 0x1
 839 0131 50       		.byte	0x50
 840 0132 9F       		.byte	0x9f
 841 0133 00000000 		.4byte	0
 842 0137 00000000 		.4byte	0
 843              	.LLST11:
 844 013b 0A000000 		.4byte	.LVL2
 845 013f 2C000000 		.4byte	.LVL4
 846 0143 0200     		.2byte	0x2
 847 0145 31       		.byte	0x31
 848 0146 9F       		.byte	0x9f
 849 0147 00000000 		.4byte	0
 850 014b 00000000 		.4byte	0
 851              	.LLST13:
 852 014f 0A000000 		.4byte	.LVL2
 853 0153 2C000000 		.4byte	.LVL4
ARM GAS  /tmp/ccWNkc5E.s 			page 16


 854 0157 0200     		.2byte	0x2
 855 0159 3F       		.byte	0x3f
 856 015a 9F       		.byte	0x9f
 857 015b 00000000 		.4byte	0
 858 015f 00000000 		.4byte	0
 859              	.LLST14:
 860 0163 0A000000 		.4byte	.LVL2
 861 0167 2C000000 		.4byte	.LVL4
 862 016b 0600     		.2byte	0x6
 863 016d 0C       		.byte	0xc
 864 016e FFFF0300 		.4byte	0x3ffff
 865 0172 9F       		.byte	0x9f
 866 0173 00000000 		.4byte	0
 867 0177 00000000 		.4byte	0
 868              	.LLST15:
 869 017b 0A000000 		.4byte	.LVL2
 870 017f 2C000000 		.4byte	.LVL4
 871 0183 0300     		.2byte	0x3
 872 0185 08       		.byte	0x8
 873 0186 50       		.byte	0x50
 874 0187 9F       		.byte	0x9f
 875 0188 00000000 		.4byte	0
 876 018c 00000000 		.4byte	0
 877              	.LLST16:
 878 0190 0A000000 		.4byte	.LVL2
 879 0194 2C000000 		.4byte	.LVL4
 880 0198 0300     		.2byte	0x3
 881 019a 08       		.byte	0x8
 882 019b 53       		.byte	0x53
 883 019c 9F       		.byte	0x9f
 884 019d 00000000 		.4byte	0
 885 01a1 00000000 		.4byte	0
 886              	.LLST18:
 887 01a5 0A000000 		.4byte	.LVL2
 888 01a9 2C000000 		.4byte	.LVL4
 889 01ad 0200     		.2byte	0x2
 890 01af 32       		.byte	0x32
 891 01b0 9F       		.byte	0x9f
 892 01b1 00000000 		.4byte	0
 893 01b5 00000000 		.4byte	0
 894              	.LLST20:
 895 01b9 0A000000 		.4byte	.LVL2
 896 01bd 2C000000 		.4byte	.LVL4
 897 01c1 0200     		.2byte	0x2
 898 01c3 40       		.byte	0x40
 899 01c4 9F       		.byte	0x9f
 900 01c5 00000000 		.4byte	0
 901 01c9 00000000 		.4byte	0
 902              	.LLST21:
 903 01cd 0A000000 		.4byte	.LVL2
 904 01d1 2C000000 		.4byte	.LVL4
 905 01d5 0600     		.2byte	0x6
 906 01d7 0C       		.byte	0xc
 907 01d8 FFFF0F00 		.4byte	0xfffff
 908 01dc 9F       		.byte	0x9f
 909 01dd 00000000 		.4byte	0
 910 01e1 00000000 		.4byte	0
ARM GAS  /tmp/ccWNkc5E.s 			page 17


 911              	.LLST22:
 912 01e5 34000000 		.4byte	.LVL6
 913 01e9 3C000000 		.4byte	.LVL7
 914 01ed 0100     		.2byte	0x1
 915 01ef 50       		.byte	0x50
 916 01f0 3C000000 		.4byte	.LVL7
 917 01f4 46000000 		.4byte	.LFE119
 918 01f8 0400     		.2byte	0x4
 919 01fa F3       		.byte	0xf3
 920 01fb 01       		.uleb128 0x1
 921 01fc 50       		.byte	0x50
 922 01fd 9F       		.byte	0x9f
 923 01fe 00000000 		.4byte	0
 924 0202 00000000 		.4byte	0
 925              		.section	.debug_aranges,"",%progbits
 926 0000 1C000000 		.4byte	0x1c
 927 0004 0200     		.2byte	0x2
 928 0006 00000000 		.4byte	.Ldebug_info0
 929 000a 04       		.byte	0x4
 930 000b 00       		.byte	0
 931 000c 0000     		.2byte	0
 932 000e 0000     		.2byte	0
 933 0010 00000000 		.4byte	.LFB119
 934 0014 46000000 		.4byte	.LFE119-.LFB119
 935 0018 00000000 		.4byte	0
 936 001c 00000000 		.4byte	0
 937              		.section	.debug_ranges,"",%progbits
 938              	.Ldebug_ranges0:
 939 0000 06000000 		.4byte	.LBB11
 940 0004 2C000000 		.4byte	.LBE11
 941 0008 34000000 		.4byte	.LBB20
 942 000c 46000000 		.4byte	.LBE20
 943 0010 00000000 		.4byte	0
 944 0014 00000000 		.4byte	0
 945 0018 00000000 		.4byte	.LFB119
 946 001c 46000000 		.4byte	.LFE119
 947 0020 00000000 		.4byte	0
 948 0024 00000000 		.4byte	0
 949              		.section	.debug_line,"",%progbits
 950              	.Ldebug_line0:
 951 0000 1C010000 		.section	.debug_str,"MS",%progbits,1
 951      0200E300 
 951      00000201 
 951      FB0E0D00 
 951      01010101 
 952              	.LASF14:
 953 0000 73746172 		.ascii	"start\000"
 953      7400
 954              	.LASF16:
 955 0006 656E6469 		.ascii	"endidx\000"
 955      647800
 956              	.LASF21:
 957 000d 2F686F6D 		.ascii	"/home/kwilson/Sandbox/ChibiOS_2.5.1/demos/ARMCM4-ST"
 957      652F6B77 
 957      696C736F 
 957      6E2F5361 
 957      6E64626F 
ARM GAS  /tmp/ccWNkc5E.s 			page 18


 958 0040 4D333246 		.ascii	"M32F407-LWIP-FATFS-USB\000"
 958      3430372D 
 958      4C574950 
 958      2D464154 
 958      46532D55 
 959              	.LASF15:
 960 0057 73746172 		.ascii	"startidx\000"
 960      74696478 
 960      00
 961              	.LASF22:
 962 0060 6D6D6373 		.ascii	"mmcsd_get_slice\000"
 962      645F6765 
 962      745F736C 
 962      69636500 
 963              	.LASF13:
 964 0070 64617461 		.ascii	"data\000"
 964      00
 965              	.LASF2:
 966 0075 756E7369 		.ascii	"unsigned char\000"
 966      676E6564 
 966      20636861 
 966      7200
 967              	.LASF8:
 968 0083 6C6F6E67 		.ascii	"long unsigned int\000"
 968      20756E73 
 968      69676E65 
 968      6420696E 
 968      7400
 969              	.LASF17:
 970 0095 73746172 		.ascii	"startoff\000"
 970      746F6666 
 970      00
 971              	.LASF4:
 972 009e 73686F72 		.ascii	"short unsigned int\000"
 972      7420756E 
 972      7369676E 
 972      65642069 
 972      6E7400
 973              	.LASF20:
 974 00b1 2E2E2F2E 		.ascii	"../../os/hal/src/mmcsd.c\000"
 974      2E2F6F73 
 974      2F68616C 
 974      2F737263 
 974      2F6D6D63 
 975              	.LASF24:
 976 00ca 49544D5F 		.ascii	"ITM_RxBuffer\000"
 976      52784275 
 976      66666572 
 976      00
 977              	.LASF18:
 978 00d7 656E646D 		.ascii	"endmask\000"
 978      61736B00 
 979              	.LASF0:
 980 00df 756E7369 		.ascii	"unsigned int\000"
 980      676E6564 
 980      20696E74 
 980      00
ARM GAS  /tmp/ccWNkc5E.s 			page 19


 981              	.LASF12:
 982 00ec 63686172 		.ascii	"char\000"
 982      00
 983              	.LASF6:
 984 00f1 696E7433 		.ascii	"int32_t\000"
 984      325F7400 
 985              	.LASF11:
 986 00f9 73697A65 		.ascii	"sizetype\000"
 986      74797065 
 986      00
 987              	.LASF9:
 988 0102 6C6F6E67 		.ascii	"long long int\000"
 988      206C6F6E 
 988      6720696E 
 988      7400
 989              	.LASF19:
 990 0110 474E5520 		.ascii	"GNU C 4.7.2\000"
 990      4320342E 
 990      372E3200 
 991              	.LASF3:
 992 011c 73686F72 		.ascii	"short int\000"
 992      7420696E 
 992      7400
 993              	.LASF7:
 994 0126 75696E74 		.ascii	"uint32_t\000"
 994      33325F74 
 994      00
 995              	.LASF5:
 996 012f 6C6F6E67 		.ascii	"long int\000"
 996      20696E74 
 996      00
 997              	.LASF23:
 998 0138 6D6D6373 		.ascii	"mmcsdGetCapacity\000"
 998      64476574 
 998      43617061 
 998      63697479 
 998      00
 999              	.LASF1:
 1000 0149 7369676E 		.ascii	"signed char\000"
 1000      65642063 
 1000      68617200 
 1001              	.LASF10:
 1002 0155 6C6F6E67 		.ascii	"long long unsigned int\000"
 1002      206C6F6E 
 1002      6720756E 
 1002      7369676E 
 1002      65642069 
 1003              		.ident	"GCC: (crosstool-NG 1.17.0 - PSAS ST32F4 GFE) 4.7.2"
ARM GAS  /tmp/ccWNkc5E.s 			page 20


DEFINED SYMBOLS
                            *ABS*:0000000000000000 mmcsd.c
     /tmp/ccWNkc5E.s:21     .text.mmcsdGetCapacity:0000000000000000 $t
     /tmp/ccWNkc5E.s:27     .text.mmcsdGetCapacity:0000000000000000 mmcsdGetCapacity
                     .debug_frame:0000000000000010 $d

NO UNDEFINED SYMBOLS
