ARM GAS  /tmp/ccTLGzYs.s 			page 1


   1              		.syntax unified
   2              		.cpu cortex-m4
   3              		.eabi_attribute 27, 3
   4              		.eabi_attribute 28, 1
   5              		.fpu fpv4-sp-d16
   6              		.eabi_attribute 20, 1
   7              		.eabi_attribute 21, 1
   8              		.eabi_attribute 23, 3
   9              		.eabi_attribute 24, 1
  10              		.eabi_attribute 25, 1
  11              		.eabi_attribute 26, 1
  12              		.eabi_attribute 30, 2
  13              		.eabi_attribute 34, 1
  14              		.eabi_attribute 18, 4
  15              		.thumb
  16              		.file	"netif.c"
  17              		.text
  18              	.Ltext0:
  19              		.cfi_sections	.debug_frame
  20              		.section	.text.netif_init,"ax",%progbits
  21              		.align	2
  22              		.p2align 4,,15
  23              		.global	netif_init
  24              		.thumb
  25              		.thumb_func
  26              		.type	netif_init, %function
  27              	netif_init:
  28              	.LFB7:
  29              		.file 1 "../../ext/lwip/src/core/netif.c"
  30              		.loc 1 105 0
  31              		.cfi_startproc
  32              		@ args = 0, pretend = 0, frame = 0
  33              		@ frame_needed = 0, uses_anonymous_args = 0
  34              		@ link register save eliminated.
  35 0000 7047     		bx	lr
  36              		.cfi_endproc
  37              	.LFE7:
  38              		.size	netif_init, .-netif_init
  39 0002 00BFAFF3 		.section	.text.netif_remove,"ax",%progbits
  39      0080AFF3 
  39      0080AFF3 
  39      0080
  40              		.align	2
  41              		.p2align 4,,15
  42              		.global	netif_remove
  43              		.thumb
  44              		.thumb_func
  45              		.type	netif_remove, %function
  46              	netif_remove:
  47              	.LFB10:
  48              		.loc 1 237 0
  49              		.cfi_startproc
  50              		@ args = 0, pretend = 0, frame = 0
  51              		@ frame_needed = 0, uses_anonymous_args = 0
  52              		@ link register save eliminated.
  53              	.LVL0:
  54              		.loc 1 238 0
ARM GAS  /tmp/ccTLGzYs.s 			page 2


  55 0000 00B3     		cbz	r0, .L2
  56              		.loc 1 248 0
  57 0002 90F82930 		ldrb	r3, [r0, #41]	@ zero_extendqisi2
  58 0006 DA07     		lsls	r2, r3, #31
  59              	.LVL1:
  60              	.LBB11:
  61              	.LBB12:
  62              		.loc 1 489 0
  63 0008 44BF     		itt	mi
  64 000a 23F00103 		bicmi	r3, r3, #1
  65 000e 80F82930 		strbmi	r3, [r0, #41]
  66              	.LBE12:
  67              	.LBE11:
  68              		.loc 1 256 0
  69 0012 0D4B     		ldr	r3, .L24
  70 0014 1A68     		ldr	r2, [r3, #0]
  71 0016 8242     		cmp	r2, r0
  72 0018 0CD0     		beq	.L8
  73              	.LVL2:
  74              	.LBB13:
  75              		.loc 1 261 0 discriminator 1
  76 001a 9AB1     		cbz	r2, .L2
  77              		.loc 1 262 0
  78 001c 1368     		ldr	r3, [r2, #0]
  79 001e 8342     		cmp	r3, r0
  80 0020 07D0     		beq	.L22
  81              	.LVL3:
  82              		.loc 1 261 0
  83 0022 2BB1     		cbz	r3, .L23
  84              	.L10:
  85              		.loc 1 262 0
  86 0024 1A68     		ldr	r2, [r3, #0]
  87 0026 8242     		cmp	r2, r0
  88 0028 04D0     		beq	.L8
  89 002a 1346     		mov	r3, r2
  90              	.LVL4:
  91              		.loc 1 261 0
  92 002c 002B     		cmp	r3, #0
  93 002e F9D1     		bne	.L10
  94              	.LVL5:
  95              	.L23:
  96 0030 7047     		bx	lr
  97              	.LVL6:
  98              	.L22:
  99              		.loc 1 262 0
 100 0032 1346     		mov	r3, r2
 101              	.LVL7:
 102              	.L8:
 103              		.loc 1 263 0
 104 0034 0268     		ldr	r2, [r0, #0]
 105 0036 1A60     		str	r2, [r3, #0]
 106              	.LBE13:
 107              		.loc 1 272 0
 108 0038 044B     		ldr	r3, .L24+4
 109 003a 1A68     		ldr	r2, [r3, #0]
 110 003c 8242     		cmp	r2, r0
 111 003e 01D1     		bne	.L2
ARM GAS  /tmp/ccTLGzYs.s 			page 3


 112              	.LVL8:
 113              	.LBB14:
 114              	.LBB15:
 115              		.loc 1 435 0
 116 0040 0022     		movs	r2, #0
 117 0042 1A60     		str	r2, [r3, #0]
 118              	.LVL9:
 119              	.L2:
 120 0044 7047     		bx	lr
 121              	.L25:
 122 0046 00BF     		.align	2
 123              	.L24:
 124 0048 00000000 		.word	.LANCHOR0
 125 004c 00000000 		.word	.LANCHOR1
 126              	.LBE15:
 127              	.LBE14:
 128              		.cfi_endproc
 129              	.LFE10:
 130              		.size	netif_remove, .-netif_remove
 131              		.section	.text.netif_find,"ax",%progbits
 132              		.align	2
 133              		.p2align 4,,15
 134              		.global	netif_find
 135              		.thumb
 136              		.thumb_func
 137              		.type	netif_find, %function
 138              	netif_find:
 139              	.LFB11:
 140              		.loc 1 287 0
 141              		.cfi_startproc
 142              		@ args = 0, pretend = 0, frame = 0
 143              		@ frame_needed = 0, uses_anonymous_args = 0
 144              		@ link register save eliminated.
 145              	.LVL10:
 146 0000 10B4     		push	{r4}
 147              	.LCFI0:
 148              		.cfi_def_cfa_offset 4
 149              		.cfi_offset 4, -4
 150              		.loc 1 291 0
 151 0002 C8B1     		cbz	r0, .L30
 152              		.loc 1 297 0
 153 0004 0D4B     		ldr	r3, .L36
 154              		.loc 1 295 0
 155 0006 8178     		ldrb	r1, [r0, #2]	@ zero_extendqisi2
 156              		.loc 1 297 0
 157 0008 1B68     		ldr	r3, [r3, #0]
 158              		.loc 1 295 0
 159 000a 3039     		subs	r1, r1, #48
 160 000c C9B2     		uxtb	r1, r1
 161              	.LVL11:
 162              		.loc 1 297 0
 163 000e 13B9     		cbnz	r3, .L33
 164 0010 0FE0     		b	.L27
 165              	.L28:
 166 0012 1B68     		ldr	r3, [r3, #0]
 167              	.LVL12:
 168 0014 6BB1     		cbz	r3, .L27
ARM GAS  /tmp/ccTLGzYs.s 			page 4


 169              	.L33:
 170              		.loc 1 298 0
 171 0016 93F82C20 		ldrb	r2, [r3, #44]	@ zero_extendqisi2
 172 001a 8A42     		cmp	r2, r1
 173 001c F9D1     		bne	.L28
 174              		.loc 1 298 0 is_stmt 0 discriminator 1
 175 001e 93F82A20 		ldrb	r2, [r3, #42]	@ zero_extendqisi2
 176 0022 0478     		ldrb	r4, [r0, #0]	@ zero_extendqisi2
 177 0024 9442     		cmp	r4, r2
 178 0026 F4D1     		bne	.L28
 179              		.loc 1 299 0 is_stmt 1
 180 0028 93F82B20 		ldrb	r2, [r3, #43]	@ zero_extendqisi2
 181 002c 4478     		ldrb	r4, [r0, #1]	@ zero_extendqisi2
 182 002e 9442     		cmp	r4, r2
 183 0030 EFD1     		bne	.L28
 184              	.LVL13:
 185              	.L27:
 186              		.loc 1 307 0
 187 0032 1846     		mov	r0, r3
 188              	.LVL14:
 189 0034 10BC     		pop	{r4}
 190 0036 7047     		bx	lr
 191              	.LVL15:
 192              	.L30:
 193              		.loc 1 292 0
 194 0038 0346     		mov	r3, r0
 195 003a FAE7     		b	.L27
 196              	.L37:
 197              		.align	2
 198              	.L36:
 199 003c 00000000 		.word	.LANCHOR0
 200              		.cfi_endproc
 201              	.LFE11:
 202              		.size	netif_find, .-netif_find
 203              		.section	.text.netif_set_ipaddr,"ax",%progbits
 204              		.align	2
 205              		.p2align 4,,15
 206              		.global	netif_set_ipaddr
 207              		.thumb
 208              		.thumb_func
 209              		.type	netif_set_ipaddr, %function
 210              	netif_set_ipaddr:
 211              	.LFB12:
 212              		.loc 1 320 0
 213              		.cfi_startproc
 214              		@ args = 0, pretend = 0, frame = 0
 215              		@ frame_needed = 0, uses_anonymous_args = 0
 216              	.LVL16:
 217 0000 70B5     		push	{r4, r5, r6, lr}
 218              	.LCFI1:
 219              		.cfi_def_cfa_offset 16
 220              		.cfi_offset 4, -16
 221              		.cfi_offset 5, -12
 222              		.cfi_offset 6, -8
 223              		.cfi_offset 14, -4
 224              		.loc 1 328 0
 225 0002 4268     		ldr	r2, [r0, #4]
ARM GAS  /tmp/ccTLGzYs.s 			page 5


 226 0004 0C68     		ldr	r4, [r1, #0]
 227 0006 9442     		cmp	r4, r2
 228              		.loc 1 320 0
 229 0008 0546     		mov	r5, r0
 230 000a 0E46     		mov	r6, r1
 231              		.loc 1 328 0
 232 000c 22D0     		beq	.L39
 233              		.loc 1 331 0
 234 000e 124B     		ldr	r3, .L61
 235 0010 1868     		ldr	r0, [r3, #0]
 236              	.LVL17:
 237              		.loc 1 332 0
 238 0012 90B1     		cbz	r0, .L40
 239              		.loc 1 334 0
 240 0014 0468     		ldr	r4, [r0, #0]
 241 0016 9442     		cmp	r4, r2
 242              		.loc 1 346 0
 243 0018 18BF     		it	ne
 244 001a C068     		ldrne	r0, [r0, #12]
 245              	.LVL18:
 246              		.loc 1 334 0
 247 001c 06D0     		beq	.L59
 248              	.LVL19:
 249              	.L42:
 250              		.loc 1 332 0 discriminator 1
 251 001e 58B1     		cbz	r0, .L43
 252              	.L60:
 253              		.loc 1 334 0
 254 0020 0468     		ldr	r4, [r0, #0]
 255 0022 6A68     		ldr	r2, [r5, #4]
 256 0024 9442     		cmp	r4, r2
 257              		.loc 1 346 0
 258 0026 18BF     		it	ne
 259 0028 C068     		ldrne	r0, [r0, #12]
 260              	.LVL20:
 261              		.loc 1 334 0
 262 002a F8D1     		bne	.L42
 263              	.L59:
 264              	.LBB16:
 265              		.loc 1 341 0
 266 002c C468     		ldr	r4, [r0, #12]
 267              	.LVL21:
 268              		.loc 1 343 0
 269 002e FFF7FEFF 		bl	tcp_abort
 270              	.LVL22:
 271              		.loc 1 344 0
 272 0032 2046     		mov	r0, r4
 273              	.LBE16:
 274              		.loc 1 332 0
 275 0034 0028     		cmp	r0, #0
 276 0036 F3D1     		bne	.L60
 277              	.LVL23:
 278              	.L43:
 279 0038 3468     		ldr	r4, [r6, #0]
 280              	.L40:
 281              		.loc 1 349 0
 282 003a 084B     		ldr	r3, .L61+4
ARM GAS  /tmp/ccTLGzYs.s 			page 6


 283 003c 1B68     		ldr	r3, [r3, #0]
 284              	.LVL24:
 285 003e 4BB1     		cbz	r3, .L39
 286              	.LVL25:
 287              	.L53:
 288              		.loc 1 351 0
 289 0040 1A68     		ldr	r2, [r3, #0]
 290 0042 22B1     		cbz	r2, .L45
 291              		.loc 1 351 0 is_stmt 0 discriminator 1
 292 0044 6868     		ldr	r0, [r5, #4]
 293 0046 8242     		cmp	r2, r0
 294              		.loc 1 355 0 is_stmt 1 discriminator 1
 295 0048 04BF     		itt	eq
 296 004a 1C60     		streq	r4, [r3, #0]
 297 004c 3468     		ldreq	r4, [r6, #0]
 298              	.L45:
 299              		.loc 1 349 0
 300 004e DB68     		ldr	r3, [r3, #12]
 301              	.LVL26:
 302 0050 002B     		cmp	r3, #0
 303 0052 F5D1     		bne	.L53
 304              	.LVL27:
 305              	.L39:
 306              		.loc 1 363 0
 307 0054 6C60     		str	r4, [r5, #4]
 308 0056 70BD     		pop	{r4, r5, r6, pc}
 309              	.L62:
 310              		.align	2
 311              	.L61:
 312 0058 00000000 		.word	tcp_active_pcbs
 313 005c 00000000 		.word	tcp_listen_pcbs
 314              		.cfi_endproc
 315              	.LFE12:
 316              		.size	netif_set_ipaddr, .-netif_set_ipaddr
 317              		.section	.text.netif_set_addr,"ax",%progbits
 318              		.align	2
 319              		.p2align 4,,15
 320              		.global	netif_set_addr
 321              		.thumb
 322              		.thumb_func
 323              		.type	netif_set_addr, %function
 324              	netif_set_addr:
 325              	.LFB9:
 326              		.loc 1 224 0
 327              		.cfi_startproc
 328              		@ args = 0, pretend = 0, frame = 0
 329              		@ frame_needed = 0, uses_anonymous_args = 0
 330              	.LVL28:
 331 0000 70B5     		push	{r4, r5, r6, lr}
 332              	.LCFI2:
 333              		.cfi_def_cfa_offset 16
 334              		.cfi_offset 4, -16
 335              		.cfi_offset 5, -12
 336              		.cfi_offset 6, -8
 337              		.cfi_offset 14, -4
 338              		.loc 1 224 0
 339 0002 1546     		mov	r5, r2
ARM GAS  /tmp/ccTLGzYs.s 			page 7


 340 0004 0446     		mov	r4, r0
 341 0006 1E46     		mov	r6, r3
 342              		.loc 1 225 0
 343 0008 FFF7FEFF 		bl	netif_set_ipaddr
 344              	.LVL29:
 345              	.LBB17:
 346              	.LBB18:
 347              		.loc 1 409 0
 348 000c 05B1     		cbz	r5, .L64
 349 000e 2D68     		ldr	r5, [r5, #0]
 350              	.LVL30:
 351              	.L64:
 352 0010 A560     		str	r5, [r4, #8]
 353              	.LVL31:
 354              	.LBE18:
 355              	.LBE17:
 356              	.LBB19:
 357              	.LBB20:
 358              		.loc 1 386 0
 359 0012 06B1     		cbz	r6, .L65
 360 0014 3668     		ldr	r6, [r6, #0]
 361              	.LVL32:
 362              	.L65:
 363 0016 E660     		str	r6, [r4, #12]
 364 0018 70BD     		pop	{r4, r5, r6, pc}
 365              	.LBE20:
 366              	.LBE19:
 367              		.cfi_endproc
 368              	.LFE9:
 369              		.size	netif_set_addr, .-netif_set_addr
 370              		.section	.text.netif_add,"ax",%progbits
 371              		.align	2
 372              		.p2align 4,,15
 373              		.global	netif_add
 374              		.thumb
 375              		.thumb_func
 376              		.type	netif_add, %function
 377              	netif_add:
 378              	.LFB8:
 379              		.loc 1 139 0
 380              		.cfi_startproc
 381              		@ args = 12, pretend = 0, frame = 16
 382              		@ frame_needed = 0, uses_anonymous_args = 0
 383              	.LVL33:
 384 0000 F0B5     		push	{r4, r5, r6, r7, lr}
 385              	.LCFI3:
 386              		.cfi_def_cfa_offset 20
 387              		.cfi_offset 4, -20
 388              		.cfi_offset 5, -16
 389              		.cfi_offset 6, -12
 390              		.cfi_offset 7, -8
 391              		.cfi_offset 14, -4
 392 0002 85B0     		sub	sp, sp, #20
 393              	.LCFI4:
 394              		.cfi_def_cfa_offset 40
 395              		.loc 1 139 0
 396 0004 0446     		mov	r4, r0
ARM GAS  /tmp/ccTLGzYs.s 			page 8


 397 0006 0B9E     		ldr	r6, [sp, #44]
 398              		.loc 1 142 0
 399 0008 002E     		cmp	r6, #0
 400 000a 20D0     		beq	.L72
 401              	.LVL34:
 402              	.L69:
 403              		.loc 1 172 0
 404 000c 0A98     		ldr	r0, [sp, #40]
 405              		.loc 1 173 0
 406 000e 144F     		ldr	r7, .L73
 407              		.loc 1 174 0
 408 0010 0C9D     		ldr	r5, [sp, #48]
 409              		.loc 1 172 0
 410 0012 E061     		str	r0, [r4, #28]
 411              		.loc 1 173 0
 412 0014 3878     		ldrb	r0, [r7, #0]	@ zero_extendqisi2
 413              		.loc 1 174 0
 414 0016 2561     		str	r5, [r4, #16]
 415              		.loc 1 145 0
 416 0018 0025     		movs	r5, #0
 417              		.loc 1 173 0
 418 001a 00F1010E 		add	lr, r0, #1
 419 001e 84F82C00 		strb	r0, [r4, #44]
 420              		.loc 1 145 0
 421 0022 6560     		str	r5, [r4, #4]
 422              		.loc 1 182 0
 423 0024 2046     		mov	r0, r4
 424              		.loc 1 146 0
 425 0026 A560     		str	r5, [r4, #8]
 426              		.loc 1 147 0
 427 0028 E560     		str	r5, [r4, #12]
 428              		.loc 1 148 0
 429 002a 84F82950 		strb	r5, [r4, #41]
 430              		.loc 1 173 0
 431 002e 87F800E0 		strb	lr, [r7, #0]
 432              		.loc 1 182 0
 433 0032 FFF7FEFF 		bl	netif_set_addr
 434              	.LVL35:
 435              		.loc 1 185 0
 436 0036 2046     		mov	r0, r4
 437 0038 B047     		blx	r6
 438              	.LVL36:
 439 003a 30B9     		cbnz	r0, .L71
 440              		.loc 1 190 0
 441 003c 094B     		ldr	r3, .L73+4
 442 003e 1A68     		ldr	r2, [r3, #0]
 443 0040 2260     		str	r2, [r4, #0]
 444              		.loc 1 191 0
 445 0042 1C60     		str	r4, [r3, #0]
 446              	.LVL37:
 447              	.L70:
 448              		.loc 1 210 0
 449 0044 2046     		mov	r0, r4
 450 0046 05B0     		add	sp, sp, #20
 451 0048 F0BD     		pop	{r4, r5, r6, r7, pc}
 452              	.LVL38:
 453              	.L71:
ARM GAS  /tmp/ccTLGzYs.s 			page 9


 454              		.loc 1 186 0
 455 004a 2C46     		mov	r4, r5
 456              	.LVL39:
 457 004c FAE7     		b	.L70
 458              	.LVL40:
 459              	.L72:
 460              		.loc 1 142 0 discriminator 1
 461 004e 0391     		str	r1, [sp, #12]
 462 0050 0292     		str	r2, [sp, #8]
 463 0052 0193     		str	r3, [sp, #4]
 464 0054 FFF7FEFF 		bl	port_halt
 465              	.LVL41:
 466 0058 019B     		ldr	r3, [sp, #4]
 467 005a 029A     		ldr	r2, [sp, #8]
 468 005c 0399     		ldr	r1, [sp, #12]
 469 005e D5E7     		b	.L69
 470              	.L74:
 471              		.align	2
 472              	.L73:
 473 0060 00000000 		.word	.LANCHOR2
 474 0064 00000000 		.word	.LANCHOR0
 475              		.cfi_endproc
 476              	.LFE8:
 477              		.size	netif_add, .-netif_add
 478 0068 AFF30080 		.section	.text.netif_set_gw,"ax",%progbits
 478      AFF30080 
 479              		.align	2
 480              		.p2align 4,,15
 481              		.global	netif_set_gw
 482              		.thumb
 483              		.thumb_func
 484              		.type	netif_set_gw, %function
 485              	netif_set_gw:
 486              	.LFB13:
 487              		.loc 1 385 0
 488              		.cfi_startproc
 489              		@ args = 0, pretend = 0, frame = 0
 490              		@ frame_needed = 0, uses_anonymous_args = 0
 491              		@ link register save eliminated.
 492              	.LVL42:
 493              		.loc 1 386 0
 494 0000 01B1     		cbz	r1, .L76
 495              		.loc 1 386 0 is_stmt 0 discriminator 1
 496 0002 0968     		ldr	r1, [r1, #0]
 497              	.LVL43:
 498              	.L76:
 499              		.loc 1 386 0 discriminator 3
 500 0004 C160     		str	r1, [r0, #12]
 501 0006 7047     		bx	lr
 502              		.cfi_endproc
 503              	.LFE13:
 504              		.size	netif_set_gw, .-netif_set_gw
 505 0008 AFF30080 		.section	.text.netif_set_netmask,"ax",%progbits
 505      AFF30080 
 506              		.align	2
 507              		.p2align 4,,15
 508              		.global	netif_set_netmask
ARM GAS  /tmp/ccTLGzYs.s 			page 10


 509              		.thumb
 510              		.thumb_func
 511              		.type	netif_set_netmask, %function
 512              	netif_set_netmask:
 513              	.LFB14:
 514              		.loc 1 406 0 is_stmt 1
 515              		.cfi_startproc
 516              		@ args = 0, pretend = 0, frame = 0
 517              		@ frame_needed = 0, uses_anonymous_args = 0
 518              		@ link register save eliminated.
 519              	.LVL44:
 520              		.loc 1 409 0
 521 0000 01B1     		cbz	r1, .L79
 522              		.loc 1 409 0 is_stmt 0 discriminator 1
 523 0002 0968     		ldr	r1, [r1, #0]
 524              	.LVL45:
 525              	.L79:
 526              		.loc 1 409 0 discriminator 3
 527 0004 8160     		str	r1, [r0, #8]
 528 0006 7047     		bx	lr
 529              		.cfi_endproc
 530              	.LFE14:
 531              		.size	netif_set_netmask, .-netif_set_netmask
 532 0008 AFF30080 		.section	.text.netif_set_default,"ax",%progbits
 532      AFF30080 
 533              		.align	2
 534              		.p2align 4,,15
 535              		.global	netif_set_default
 536              		.thumb
 537              		.thumb_func
 538              		.type	netif_set_default, %function
 539              	netif_set_default:
 540              	.LFB15:
 541              		.loc 1 427 0 is_stmt 1
 542              		.cfi_startproc
 543              		@ args = 0, pretend = 0, frame = 0
 544              		@ frame_needed = 0, uses_anonymous_args = 0
 545              		@ link register save eliminated.
 546              	.LVL46:
 547              		.loc 1 435 0
 548 0000 40F20003 		movw	r3, #:lower16:.LANCHOR1
 549 0004 C0F20003 		movt	r3, #:upper16:.LANCHOR1
 550 0008 1860     		str	r0, [r3, #0]
 551 000a 7047     		bx	lr
 552              		.cfi_endproc
 553              	.LFE15:
 554              		.size	netif_set_default, .-netif_set_default
 555 000c AFF30080 		.section	.text.netif_set_up,"ax",%progbits
 556              		.align	2
 557              		.p2align 4,,15
 558              		.global	netif_set_up
 559              		.thumb
 560              		.thumb_func
 561              		.type	netif_set_up, %function
 562              	netif_set_up:
 563              	.LFB16:
 564              		.loc 1 450 0
ARM GAS  /tmp/ccTLGzYs.s 			page 11


 565              		.cfi_startproc
 566              		@ args = 0, pretend = 0, frame = 0
 567              		@ frame_needed = 0, uses_anonymous_args = 0
 568              		@ link register save eliminated.
 569              	.LVL47:
 570              		.loc 1 451 0
 571 0000 90F82930 		ldrb	r3, [r0, #41]	@ zero_extendqisi2
 572 0004 DA07     		lsls	r2, r3, #31
 573 0006 07D4     		bmi	.L82
 574              		.loc 1 452 0
 575 0008 43F00102 		orr	r2, r3, #1
 576              		.loc 1 463 0
 577 000c 03F03003 		and	r3, r3, #48
 578 0010 302B     		cmp	r3, #48
 579              		.loc 1 452 0
 580 0012 80F82920 		strb	r2, [r0, #41]
 581              		.loc 1 463 0
 582 0016 00D0     		beq	.L86
 583              	.L82:
 584 0018 7047     		bx	lr
 585              	.L86:
 586              		.loc 1 464 0
 587 001a 011D     		adds	r1, r0, #4
 588              		.loc 1 476 0
 589              		.loc 1 464 0
 590 001c FFF7FEBF 		b	etharp_request
 591              	.LVL48:
 592              		.cfi_endproc
 593              	.LFE16:
 594              		.size	netif_set_up, .-netif_set_up
 595              		.section	.text.netif_set_down,"ax",%progbits
 596              		.align	2
 597              		.p2align 4,,15
 598              		.global	netif_set_down
 599              		.thumb
 600              		.thumb_func
 601              		.type	netif_set_down, %function
 602              	netif_set_down:
 603              	.LFB17:
 604              		.loc 1 487 0
 605              		.cfi_startproc
 606              		@ args = 0, pretend = 0, frame = 0
 607              		@ frame_needed = 0, uses_anonymous_args = 0
 608              		@ link register save eliminated.
 609              	.LVL49:
 610              		.loc 1 488 0
 611 0000 90F82930 		ldrb	r3, [r0, #41]	@ zero_extendqisi2
 612 0004 D907     		lsls	r1, r3, #31
 613              		.loc 1 489 0
 614 0006 44BF     		itt	mi
 615 0008 23F00103 		bicmi	r3, r3, #1
 616 000c 80F82930 		strbmi	r3, [r0, #41]
 617 0010 7047     		bx	lr
 618              		.cfi_endproc
 619              	.LFE17:
 620              		.size	netif_set_down, .-netif_set_down
 621 0012 00BFAFF3 		.section	.text.netif_set_link_up,"ax",%progbits
ARM GAS  /tmp/ccTLGzYs.s 			page 12


 621      0080AFF3 
 621      0080AFF3 
 621      0080
 622              		.align	2
 623              		.p2align 4,,15
 624              		.global	netif_set_link_up
 625              		.thumb
 626              		.thumb_func
 627              		.type	netif_set_link_up, %function
 628              	netif_set_link_up:
 629              	.LFB18:
 630              		.loc 1 514 0
 631              		.cfi_startproc
 632              		@ args = 0, pretend = 0, frame = 0
 633              		@ frame_needed = 0, uses_anonymous_args = 0
 634              		@ link register save eliminated.
 635              	.LVL50:
 636              		.loc 1 515 0
 637 0000 90F82930 		ldrb	r3, [r0, #41]	@ zero_extendqisi2
 638 0004 03F01002 		and	r2, r3, #16
 639 0008 D2B2     		uxtb	r2, r2
 640 000a 3AB9     		cbnz	r2, .L92
 641              		.loc 1 516 0
 642 000c 43F01002 		orr	r2, r3, #16
 643              		.loc 1 533 0
 644 0010 03F02103 		and	r3, r3, #33
 645 0014 212B     		cmp	r3, #33
 646              		.loc 1 516 0
 647 0016 80F82920 		strb	r2, [r0, #41]
 648              		.loc 1 533 0
 649 001a 00D0     		beq	.L96
 650              	.L92:
 651 001c 7047     		bx	lr
 652              	.L96:
 653              		.loc 1 534 0
 654 001e 011D     		adds	r1, r0, #4
 655              		.loc 1 547 0
 656              		.loc 1 534 0
 657 0020 FFF7FEBF 		b	etharp_request
 658              	.LVL51:
 659              		.cfi_endproc
 660              	.LFE18:
 661              		.size	netif_set_link_up, .-netif_set_link_up
 662 0024 AFF30080 		.section	.text.netif_set_link_down,"ax",%progbits
 662      AFF30080 
 662      AFF30080 
 663              		.align	2
 664              		.p2align 4,,15
 665              		.global	netif_set_link_down
 666              		.thumb
 667              		.thumb_func
 668              		.type	netif_set_link_down, %function
 669              	netif_set_link_down:
 670              	.LFB19:
 671              		.loc 1 553 0
 672              		.cfi_startproc
 673              		@ args = 0, pretend = 0, frame = 0
ARM GAS  /tmp/ccTLGzYs.s 			page 13


 674              		@ frame_needed = 0, uses_anonymous_args = 0
 675              		@ link register save eliminated.
 676              	.LVL52:
 677              		.loc 1 554 0
 678 0000 90F82930 		ldrb	r3, [r0, #41]	@ zero_extendqisi2
 679 0004 03F01002 		and	r2, r3, #16
 680 0008 D2B2     		uxtb	r2, r2
 681 000a 1AB1     		cbz	r2, .L97
 682              		.loc 1 555 0
 683 000c 23F01003 		bic	r3, r3, #16
 684 0010 80F82930 		strb	r3, [r0, #41]
 685              	.L97:
 686 0014 7047     		bx	lr
 687              		.cfi_endproc
 688              	.LFE19:
 689              		.size	netif_set_link_down, .-netif_set_link_down
 690              		.global	netif_default
 691              		.global	netif_list
 692 0016 00BFAFF3 		.section	.bss.netif_list,"aw",%nobits
 692      0080AFF3 
 692      0080
 693              		.align	2
 694              		.set	.LANCHOR0,. + 0
 695              		.type	netif_list, %object
 696              		.size	netif_list, 4
 697              	netif_list:
 698 0000 00000000 		.space	4
 699              		.section	.bss.netif_default,"aw",%nobits
 700              		.align	2
 701              		.set	.LANCHOR1,. + 0
 702              		.type	netif_default, %object
 703              		.size	netif_default, 4
 704              	netif_default:
 705 0000 00000000 		.space	4
 706              		.section	.bss.netifnum.5518,"aw",%nobits
 707              		.set	.LANCHOR2,. + 0
 708              		.type	netifnum.5518, %object
 709              		.size	netifnum.5518, 1
 710              	netifnum.5518:
 711 0000 00       		.space	1
 712              		.text
 713              	.Letext0:
 714              		.file 2 "/opt/psas/x-tools/stm32f407/arm-psas-eabi/bin/../lib/gcc/arm-psas-eabi/4.7.2/../../../../
 715              		.file 3 "../../os/various/lwip_bindings/arch/cc.h"
 716              		.file 4 "../../ext/lwip/src/include/ipv4/lwip/ip_addr.h"
 717              		.file 5 "../../ext/lwip/src/include/lwip/err.h"
 718              		.file 6 "../../ext/lwip/src/include/lwip/pbuf.h"
 719              		.file 7 "../../ext/lwip/src/include/lwip/netif.h"
 720              		.file 8 "../../ext/lwip/src/include/lwip/tcp.h"
 721              		.file 9 "../../ext/lwip/src/include/lwip/tcp_impl.h"
 722              		.file 10 "../../ext/lwip/src/include/netif/etharp.h"
 723              		.file 11 "../../ext/lwip/src/include/lwip/memp.h"
 724              		.file 12 "../../os/ports/GCC/ARMCMx/chcore_v7m.h"
 725              		.section	.debug_info,"",%progbits
 726              	.Ldebug_info0:
 727 0000 9B0E0000 		.4byte	0xe9b
 728 0004 0200     		.2byte	0x2
ARM GAS  /tmp/ccTLGzYs.s 			page 14


 729 0006 00000000 		.4byte	.Ldebug_abbrev0
 730 000a 04       		.byte	0x4
 731 000b 01       		.uleb128 0x1
 732 000c 3E010000 		.4byte	.LASF156
 733 0010 01       		.byte	0x1
 734 0011 82010000 		.4byte	.LASF157
 735 0015 A7030000 		.4byte	.LASF158
 736 0019 00000000 		.4byte	.Ldebug_ranges0+0
 737 001d 00000000 		.4byte	0
 738 0021 00000000 		.4byte	0
 739 0025 00000000 		.4byte	.Ldebug_line0
 740 0029 02       		.uleb128 0x2
 741 002a 04       		.byte	0x4
 742 002b 05       		.byte	0x5
 743 002c 696E7400 		.ascii	"int\000"
 744 0030 03       		.uleb128 0x3
 745 0031 04       		.byte	0x4
 746 0032 07       		.byte	0x7
 747 0033 5C000000 		.4byte	.LASF0
 748 0037 04       		.uleb128 0x4
 749 0038 32010000 		.4byte	.LASF2
 750 003c 02       		.byte	0x2
 751 003d 29       		.byte	0x29
 752 003e 42000000 		.4byte	0x42
 753 0042 03       		.uleb128 0x3
 754 0043 01       		.byte	0x1
 755 0044 06       		.byte	0x6
 756 0045 95060000 		.4byte	.LASF1
 757 0049 04       		.uleb128 0x4
 758 004a DC020000 		.4byte	.LASF3
 759 004e 02       		.byte	0x2
 760 004f 2A       		.byte	0x2a
 761 0050 54000000 		.4byte	0x54
 762 0054 03       		.uleb128 0x3
 763 0055 01       		.byte	0x1
 764 0056 08       		.byte	0x8
 765 0057 DA050000 		.4byte	.LASF4
 766 005b 04       		.uleb128 0x4
 767 005c 68010000 		.4byte	.LASF5
 768 0060 02       		.byte	0x2
 769 0061 35       		.byte	0x35
 770 0062 66000000 		.4byte	0x66
 771 0066 03       		.uleb128 0x3
 772 0067 02       		.byte	0x2
 773 0068 05       		.byte	0x5
 774 0069 7A040000 		.4byte	.LASF6
 775 006d 04       		.uleb128 0x4
 776 006e 3A040000 		.4byte	.LASF7
 777 0072 02       		.byte	0x2
 778 0073 36       		.byte	0x36
 779 0074 78000000 		.4byte	0x78
 780 0078 03       		.uleb128 0x3
 781 0079 02       		.byte	0x2
 782 007a 07       		.byte	0x7
 783 007b A9060000 		.4byte	.LASF8
 784 007f 03       		.uleb128 0x3
 785 0080 04       		.byte	0x4
ARM GAS  /tmp/ccTLGzYs.s 			page 15


 786 0081 05       		.byte	0x5
 787 0082 84040000 		.4byte	.LASF9
 788 0086 04       		.uleb128 0x4
 789 0087 29010000 		.4byte	.LASF10
 790 008b 02       		.byte	0x2
 791 008c 50       		.byte	0x50
 792 008d 91000000 		.4byte	0x91
 793 0091 03       		.uleb128 0x3
 794 0092 04       		.byte	0x4
 795 0093 07       		.byte	0x7
 796 0094 A1050000 		.4byte	.LASF11
 797 0098 03       		.uleb128 0x3
 798 0099 08       		.byte	0x8
 799 009a 05       		.byte	0x5
 800 009b 3A030000 		.4byte	.LASF12
 801 009f 03       		.uleb128 0x3
 802 00a0 08       		.byte	0x8
 803 00a1 07       		.byte	0x7
 804 00a2 AA010000 		.4byte	.LASF13
 805 00a6 05       		.uleb128 0x5
 806 00a7 04       		.byte	0x4
 807 00a8 03       		.uleb128 0x3
 808 00a9 04       		.byte	0x4
 809 00aa 07       		.byte	0x7
 810 00ab 98050000 		.4byte	.LASF14
 811 00af 03       		.uleb128 0x3
 812 00b0 01       		.byte	0x1
 813 00b1 08       		.byte	0x8
 814 00b2 B6020000 		.4byte	.LASF15
 815 00b6 04       		.uleb128 0x4
 816 00b7 7A030000 		.4byte	.LASF16
 817 00bb 03       		.byte	0x3
 818 00bc 3C       		.byte	0x3c
 819 00bd 49000000 		.4byte	0x49
 820 00c1 04       		.uleb128 0x4
 821 00c2 62020000 		.4byte	.LASF17
 822 00c6 03       		.byte	0x3
 823 00c7 3D       		.byte	0x3d
 824 00c8 37000000 		.4byte	0x37
 825 00cc 04       		.uleb128 0x4
 826 00cd A2000000 		.4byte	.LASF18
 827 00d1 03       		.byte	0x3
 828 00d2 3E       		.byte	0x3e
 829 00d3 6D000000 		.4byte	0x6d
 830 00d7 04       		.uleb128 0x4
 831 00d8 BA050000 		.4byte	.LASF19
 832 00dc 03       		.byte	0x3
 833 00dd 3F       		.byte	0x3f
 834 00de 5B000000 		.4byte	0x5b
 835 00e2 04       		.uleb128 0x4
 836 00e3 74040000 		.4byte	.LASF20
 837 00e7 03       		.byte	0x3
 838 00e8 40       		.byte	0x40
 839 00e9 86000000 		.4byte	0x86
 840 00ed 06       		.uleb128 0x6
 841 00ee EF060000 		.4byte	.LASF23
 842 00f2 04       		.byte	0x4
ARM GAS  /tmp/ccTLGzYs.s 			page 16


 843 00f3 04       		.byte	0x4
 844 00f4 2C       		.byte	0x2c
 845 00f5 08010000 		.4byte	0x108
 846 00f9 07       		.uleb128 0x7
 847 00fa 54060000 		.4byte	.LASF25
 848 00fe 04       		.byte	0x4
 849 00ff 2D       		.byte	0x2d
 850 0100 E2000000 		.4byte	0xe2
 851 0104 02       		.byte	0x2
 852 0105 23       		.byte	0x23
 853 0106 00       		.uleb128 0
 854 0107 00       		.byte	0
 855 0108 04       		.uleb128 0x4
 856 0109 D2060000 		.4byte	.LASF21
 857 010d 04       		.byte	0x4
 858 010e 40       		.byte	0x40
 859 010f ED000000 		.4byte	0xed
 860 0113 04       		.uleb128 0x4
 861 0114 7F000000 		.4byte	.LASF22
 862 0118 05       		.byte	0x5
 863 0119 2F       		.byte	0x2f
 864 011a C1000000 		.4byte	0xc1
 865 011e 06       		.uleb128 0x6
 866 011f 44020000 		.4byte	.LASF24
 867 0123 10       		.byte	0x10
 868 0124 06       		.byte	0x6
 869 0125 49       		.byte	0x49
 870 0126 8D010000 		.4byte	0x18d
 871 012a 07       		.uleb128 0x7
 872 012b 7A000000 		.4byte	.LASF26
 873 012f 06       		.byte	0x6
 874 0130 4B       		.byte	0x4b
 875 0131 8D010000 		.4byte	0x18d
 876 0135 02       		.byte	0x2
 877 0136 23       		.byte	0x23
 878 0137 00       		.uleb128 0
 879 0138 07       		.uleb128 0x7
 880 0139 2B020000 		.4byte	.LASF27
 881 013d 06       		.byte	0x6
 882 013e 4E       		.byte	0x4e
 883 013f A6000000 		.4byte	0xa6
 884 0143 02       		.byte	0x2
 885 0144 23       		.byte	0x23
 886 0145 04       		.uleb128 0x4
 887 0146 07       		.uleb128 0x7
 888 0147 1C020000 		.4byte	.LASF28
 889 014b 06       		.byte	0x6
 890 014c 57       		.byte	0x57
 891 014d CC000000 		.4byte	0xcc
 892 0151 02       		.byte	0x2
 893 0152 23       		.byte	0x23
 894 0153 08       		.uleb128 0x8
 895 0154 08       		.uleb128 0x8
 896 0155 6C656E00 		.ascii	"len\000"
 897 0159 06       		.byte	0x6
 898 015a 5A       		.byte	0x5a
 899 015b CC000000 		.4byte	0xcc
ARM GAS  /tmp/ccTLGzYs.s 			page 17


 900 015f 02       		.byte	0x2
 901 0160 23       		.byte	0x23
 902 0161 0A       		.uleb128 0xa
 903 0162 07       		.uleb128 0x7
 904 0163 D5050000 		.4byte	.LASF29
 905 0167 06       		.byte	0x6
 906 0168 5D       		.byte	0x5d
 907 0169 B6000000 		.4byte	0xb6
 908 016d 02       		.byte	0x2
 909 016e 23       		.byte	0x23
 910 016f 0C       		.uleb128 0xc
 911 0170 07       		.uleb128 0x7
 912 0171 4C000000 		.4byte	.LASF30
 913 0175 06       		.byte	0x6
 914 0176 60       		.byte	0x60
 915 0177 B6000000 		.4byte	0xb6
 916 017b 02       		.byte	0x2
 917 017c 23       		.byte	0x23
 918 017d 0D       		.uleb128 0xd
 919 017e 08       		.uleb128 0x8
 920 017f 72656600 		.ascii	"ref\000"
 921 0183 06       		.byte	0x6
 922 0184 67       		.byte	0x67
 923 0185 CC000000 		.4byte	0xcc
 924 0189 02       		.byte	0x2
 925 018a 23       		.byte	0x23
 926 018b 0E       		.uleb128 0xe
 927 018c 00       		.byte	0
 928 018d 09       		.uleb128 0x9
 929 018e 04       		.byte	0x4
 930 018f 1E010000 		.4byte	0x11e
 931 0193 04       		.uleb128 0x4
 932 0194 59040000 		.4byte	.LASF31
 933 0198 07       		.byte	0x7
 934 0199 66       		.byte	0x66
 935 019a 9E010000 		.4byte	0x19e
 936 019e 09       		.uleb128 0x9
 937 019f 04       		.byte	0x4
 938 01a0 A4010000 		.4byte	0x1a4
 939 01a4 0A       		.uleb128 0xa
 940 01a5 01       		.byte	0x1
 941 01a6 13010000 		.4byte	0x113
 942 01aa B4010000 		.4byte	0x1b4
 943 01ae 0B       		.uleb128 0xb
 944 01af B4010000 		.4byte	0x1b4
 945 01b3 00       		.byte	0
 946 01b4 09       		.uleb128 0x9
 947 01b5 04       		.byte	0x4
 948 01b6 BA010000 		.4byte	0x1ba
 949 01ba 06       		.uleb128 0x6
 950 01bb 5F060000 		.4byte	.LASF32
 951 01bf 30       		.byte	0x30
 952 01c0 07       		.byte	0x7
 953 01c1 88       		.byte	0x88
 954 01c2 8A020000 		.4byte	0x28a
 955 01c6 07       		.uleb128 0x7
 956 01c7 7A000000 		.4byte	.LASF26
ARM GAS  /tmp/ccTLGzYs.s 			page 18


 957 01cb 07       		.byte	0x7
 958 01cc 8A       		.byte	0x8a
 959 01cd B4010000 		.4byte	0x1b4
 960 01d1 02       		.byte	0x2
 961 01d2 23       		.byte	0x23
 962 01d3 00       		.uleb128 0
 963 01d4 07       		.uleb128 0x7
 964 01d5 EF060000 		.4byte	.LASF23
 965 01d9 07       		.byte	0x7
 966 01da 8D       		.byte	0x8d
 967 01db 08010000 		.4byte	0x108
 968 01df 02       		.byte	0x2
 969 01e0 23       		.byte	0x23
 970 01e1 04       		.uleb128 0x4
 971 01e2 07       		.uleb128 0x7
 972 01e3 32030000 		.4byte	.LASF33
 973 01e7 07       		.byte	0x7
 974 01e8 8E       		.byte	0x8e
 975 01e9 08010000 		.4byte	0x108
 976 01ed 02       		.byte	0x2
 977 01ee 23       		.byte	0x23
 978 01ef 08       		.uleb128 0x8
 979 01f0 08       		.uleb128 0x8
 980 01f1 677700   		.ascii	"gw\000"
 981 01f4 07       		.byte	0x7
 982 01f5 8F       		.byte	0x8f
 983 01f6 08010000 		.4byte	0x108
 984 01fa 02       		.byte	0x2
 985 01fb 23       		.byte	0x23
 986 01fc 0C       		.uleb128 0xc
 987 01fd 07       		.uleb128 0x7
 988 01fe 2B000000 		.4byte	.LASF34
 989 0202 07       		.byte	0x7
 990 0203 93       		.byte	0x93
 991 0204 8A020000 		.4byte	0x28a
 992 0208 02       		.byte	0x2
 993 0209 23       		.byte	0x23
 994 020a 10       		.uleb128 0x10
 995 020b 07       		.uleb128 0x7
 996 020c 33020000 		.4byte	.LASF35
 997 0210 07       		.byte	0x7
 998 0211 97       		.byte	0x97
 999 0212 B0020000 		.4byte	0x2b0
 1000 0216 02       		.byte	0x2
 1001 0217 23       		.byte	0x23
 1002 0218 14       		.uleb128 0x14
 1003 0219 07       		.uleb128 0x7
 1004 021a 85000000 		.4byte	.LASF36
 1005 021e 07       		.byte	0x7
 1006 021f 9B       		.byte	0x9b
 1007 0220 E1020000 		.4byte	0x2e1
 1008 0224 02       		.byte	0x2
 1009 0225 23       		.byte	0x23
 1010 0226 18       		.uleb128 0x18
 1011 0227 07       		.uleb128 0x7
 1012 0228 59060000 		.4byte	.LASF37
 1013 022c 07       		.byte	0x7
ARM GAS  /tmp/ccTLGzYs.s 			page 19


 1014 022d A8       		.byte	0xa8
 1015 022e A6000000 		.4byte	0xa6
 1016 0232 02       		.byte	0x2
 1017 0233 23       		.byte	0x23
 1018 0234 1C       		.uleb128 0x1c
 1019 0235 08       		.uleb128 0x8
 1020 0236 6D747500 		.ascii	"mtu\000"
 1021 023a 07       		.byte	0x7
 1022 023b B6       		.byte	0xb6
 1023 023c CC000000 		.4byte	0xcc
 1024 0240 02       		.byte	0x2
 1025 0241 23       		.byte	0x23
 1026 0242 20       		.uleb128 0x20
 1027 0243 07       		.uleb128 0x7
 1028 0244 D1010000 		.4byte	.LASF38
 1029 0248 07       		.byte	0x7
 1030 0249 B8       		.byte	0xb8
 1031 024a B6000000 		.4byte	0xb6
 1032 024e 02       		.byte	0x2
 1033 024f 23       		.byte	0x23
 1034 0250 22       		.uleb128 0x22
 1035 0251 07       		.uleb128 0x7
 1036 0252 7B010000 		.4byte	.LASF39
 1037 0256 07       		.byte	0x7
 1038 0257 BA       		.byte	0xba
 1039 0258 07030000 		.4byte	0x307
 1040 025c 02       		.byte	0x2
 1041 025d 23       		.byte	0x23
 1042 025e 23       		.uleb128 0x23
 1043 025f 07       		.uleb128 0x7
 1044 0260 4C000000 		.4byte	.LASF30
 1045 0264 07       		.byte	0x7
 1046 0265 BC       		.byte	0xbc
 1047 0266 B6000000 		.4byte	0xb6
 1048 026a 02       		.byte	0x2
 1049 026b 23       		.byte	0x23
 1050 026c 29       		.uleb128 0x29
 1051 026d 07       		.uleb128 0x7
 1052 026e 11050000 		.4byte	.LASF40
 1053 0272 07       		.byte	0x7
 1054 0273 BE       		.byte	0xbe
 1055 0274 17030000 		.4byte	0x317
 1056 0278 02       		.byte	0x2
 1057 0279 23       		.byte	0x23
 1058 027a 2A       		.uleb128 0x2a
 1059 027b 08       		.uleb128 0x8
 1060 027c 6E756D00 		.ascii	"num\000"
 1061 0280 07       		.byte	0x7
 1062 0281 C0       		.byte	0xc0
 1063 0282 B6000000 		.4byte	0xb6
 1064 0286 02       		.byte	0x2
 1065 0287 23       		.byte	0x23
 1066 0288 2C       		.uleb128 0x2c
 1067 0289 00       		.byte	0
 1068 028a 04       		.uleb128 0x4
 1069 028b 1A010000 		.4byte	.LASF41
 1070 028f 07       		.byte	0x7
ARM GAS  /tmp/ccTLGzYs.s 			page 20


 1071 0290 6D       		.byte	0x6d
 1072 0291 95020000 		.4byte	0x295
 1073 0295 09       		.uleb128 0x9
 1074 0296 04       		.byte	0x4
 1075 0297 9B020000 		.4byte	0x29b
 1076 029b 0A       		.uleb128 0xa
 1077 029c 01       		.byte	0x1
 1078 029d 13010000 		.4byte	0x113
 1079 02a1 B0020000 		.4byte	0x2b0
 1080 02a5 0B       		.uleb128 0xb
 1081 02a6 8D010000 		.4byte	0x18d
 1082 02aa 0B       		.uleb128 0xb
 1083 02ab B4010000 		.4byte	0x1b4
 1084 02af 00       		.byte	0
 1085 02b0 04       		.uleb128 0x4
 1086 02b1 DB000000 		.4byte	.LASF42
 1087 02b5 07       		.byte	0x7
 1088 02b6 76       		.byte	0x76
 1089 02b7 BB020000 		.4byte	0x2bb
 1090 02bb 09       		.uleb128 0x9
 1091 02bc 04       		.byte	0x4
 1092 02bd C1020000 		.4byte	0x2c1
 1093 02c1 0A       		.uleb128 0xa
 1094 02c2 01       		.byte	0x1
 1095 02c3 13010000 		.4byte	0x113
 1096 02c7 DB020000 		.4byte	0x2db
 1097 02cb 0B       		.uleb128 0xb
 1098 02cc B4010000 		.4byte	0x1b4
 1099 02d0 0B       		.uleb128 0xb
 1100 02d1 8D010000 		.4byte	0x18d
 1101 02d5 0B       		.uleb128 0xb
 1102 02d6 DB020000 		.4byte	0x2db
 1103 02da 00       		.byte	0
 1104 02db 09       		.uleb128 0x9
 1105 02dc 04       		.byte	0x4
 1106 02dd 08010000 		.4byte	0x108
 1107 02e1 04       		.uleb128 0x4
 1108 02e2 23050000 		.4byte	.LASF43
 1109 02e6 07       		.byte	0x7
 1110 02e7 7E       		.byte	0x7e
 1111 02e8 EC020000 		.4byte	0x2ec
 1112 02ec 09       		.uleb128 0x9
 1113 02ed 04       		.byte	0x4
 1114 02ee F2020000 		.4byte	0x2f2
 1115 02f2 0A       		.uleb128 0xa
 1116 02f3 01       		.byte	0x1
 1117 02f4 13010000 		.4byte	0x113
 1118 02f8 07030000 		.4byte	0x307
 1119 02fc 0B       		.uleb128 0xb
 1120 02fd B4010000 		.4byte	0x1b4
 1121 0301 0B       		.uleb128 0xb
 1122 0302 8D010000 		.4byte	0x18d
 1123 0306 00       		.byte	0
 1124 0307 0C       		.uleb128 0xc
 1125 0308 B6000000 		.4byte	0xb6
 1126 030c 17030000 		.4byte	0x317
 1127 0310 0D       		.uleb128 0xd
ARM GAS  /tmp/ccTLGzYs.s 			page 21


 1128 0311 A8000000 		.4byte	0xa8
 1129 0315 05       		.byte	0x5
 1130 0316 00       		.byte	0
 1131 0317 0C       		.uleb128 0xc
 1132 0318 AF000000 		.4byte	0xaf
 1133 031c 27030000 		.4byte	0x327
 1134 0320 0D       		.uleb128 0xd
 1135 0321 A8000000 		.4byte	0xa8
 1136 0325 01       		.byte	0x1
 1137 0326 00       		.byte	0
 1138 0327 04       		.uleb128 0x4
 1139 0328 3E000000 		.4byte	.LASF44
 1140 032c 08       		.byte	0x8
 1141 032d 3D       		.byte	0x3d
 1142 032e 32030000 		.4byte	0x332
 1143 0332 09       		.uleb128 0x9
 1144 0333 04       		.byte	0x4
 1145 0334 38030000 		.4byte	0x338
 1146 0338 0A       		.uleb128 0xa
 1147 0339 01       		.byte	0x1
 1148 033a 13010000 		.4byte	0x113
 1149 033e 52030000 		.4byte	0x352
 1150 0342 0B       		.uleb128 0xb
 1151 0343 A6000000 		.4byte	0xa6
 1152 0347 0B       		.uleb128 0xb
 1153 0348 52030000 		.4byte	0x352
 1154 034c 0B       		.uleb128 0xb
 1155 034d 13010000 		.4byte	0x113
 1156 0351 00       		.byte	0
 1157 0352 09       		.uleb128 0x9
 1158 0353 04       		.byte	0x4
 1159 0354 58030000 		.4byte	0x358
 1160 0358 06       		.uleb128 0x6
 1161 0359 A1060000 		.4byte	.LASF45
 1162 035d A4       		.byte	0xa4
 1163 035e 08       		.byte	0x8
 1164 035f A9       		.byte	0xa9
 1165 0360 67060000 		.4byte	0x667
 1166 0364 07       		.uleb128 0x7
 1167 0365 D5040000 		.4byte	.LASF46
 1168 0369 08       		.byte	0x8
 1169 036a AB       		.byte	0xab
 1170 036b 08010000 		.4byte	0x108
 1171 036f 02       		.byte	0x2
 1172 0370 23       		.byte	0x23
 1173 0371 00       		.uleb128 0
 1174 0372 07       		.uleb128 0x7
 1175 0373 C8060000 		.4byte	.LASF47
 1176 0377 08       		.byte	0x8
 1177 0378 AB       		.byte	0xab
 1178 0379 08010000 		.4byte	0x108
 1179 037d 02       		.byte	0x2
 1180 037e 23       		.byte	0x23
 1181 037f 04       		.uleb128 0x4
 1182 0380 07       		.uleb128 0x7
 1183 0381 20000000 		.4byte	.LASF48
 1184 0385 08       		.byte	0x8
ARM GAS  /tmp/ccTLGzYs.s 			page 22


 1185 0386 AB       		.byte	0xab
 1186 0387 B6000000 		.4byte	0xb6
 1187 038b 02       		.byte	0x2
 1188 038c 23       		.byte	0x23
 1189 038d 08       		.uleb128 0x8
 1190 038e 08       		.uleb128 0x8
 1191 038f 746F7300 		.ascii	"tos\000"
 1192 0393 08       		.byte	0x8
 1193 0394 AB       		.byte	0xab
 1194 0395 B6000000 		.4byte	0xb6
 1195 0399 02       		.byte	0x2
 1196 039a 23       		.byte	0x23
 1197 039b 09       		.uleb128 0x9
 1198 039c 08       		.uleb128 0x8
 1199 039d 74746C00 		.ascii	"ttl\000"
 1200 03a1 08       		.byte	0x8
 1201 03a2 AB       		.byte	0xab
 1202 03a3 B6000000 		.4byte	0xb6
 1203 03a7 02       		.byte	0x2
 1204 03a8 23       		.byte	0x23
 1205 03a9 0A       		.uleb128 0xa
 1206 03aa 07       		.uleb128 0x7
 1207 03ab 7A000000 		.4byte	.LASF26
 1208 03af 08       		.byte	0x8
 1209 03b0 AD       		.byte	0xad
 1210 03b1 52030000 		.4byte	0x352
 1211 03b5 02       		.byte	0x2
 1212 03b6 23       		.byte	0x23
 1213 03b7 0C       		.uleb128 0xc
 1214 03b8 07       		.uleb128 0x7
 1215 03b9 59060000 		.4byte	.LASF37
 1216 03bd 08       		.byte	0x8
 1217 03be AD       		.byte	0xad
 1218 03bf 15070000 		.4byte	0x715
 1219 03c3 02       		.byte	0x2
 1220 03c4 23       		.byte	0x23
 1221 03c5 10       		.uleb128 0x10
 1222 03c6 07       		.uleb128 0x7
 1223 03c7 9B020000 		.4byte	.LASF49
 1224 03cb 08       		.byte	0x8
 1225 03cc AD       		.byte	0xad
 1226 03cd B6000000 		.4byte	0xb6
 1227 03d1 02       		.byte	0x2
 1228 03d2 23       		.byte	0x23
 1229 03d3 11       		.uleb128 0x11
 1230 03d4 07       		.uleb128 0x7
 1231 03d5 2B060000 		.4byte	.LASF50
 1232 03d9 08       		.byte	0x8
 1233 03da AD       		.byte	0xad
 1234 03db A6000000 		.4byte	0xa6
 1235 03df 02       		.byte	0x2
 1236 03e0 23       		.byte	0x23
 1237 03e1 14       		.uleb128 0x14
 1238 03e2 07       		.uleb128 0x7
 1239 03e3 A0020000 		.4byte	.LASF51
 1240 03e7 08       		.byte	0x8
 1241 03e8 AD       		.byte	0xad
ARM GAS  /tmp/ccTLGzYs.s 			page 23


 1242 03e9 27030000 		.4byte	0x327
 1243 03ed 02       		.byte	0x2
 1244 03ee 23       		.byte	0x23
 1245 03ef 18       		.uleb128 0x18
 1246 03f0 07       		.uleb128 0x7
 1247 03f1 5D010000 		.4byte	.LASF52
 1248 03f5 08       		.byte	0x8
 1249 03f6 AD       		.byte	0xad
 1250 03f7 CC000000 		.4byte	0xcc
 1251 03fb 02       		.byte	0x2
 1252 03fc 23       		.byte	0x23
 1253 03fd 1C       		.uleb128 0x1c
 1254 03fe 07       		.uleb128 0x7
 1255 03ff 7F030000 		.4byte	.LASF53
 1256 0403 08       		.byte	0x8
 1257 0404 B0       		.byte	0xb0
 1258 0405 CC000000 		.4byte	0xcc
 1259 0409 02       		.byte	0x2
 1260 040a 23       		.byte	0x23
 1261 040b 1E       		.uleb128 0x1e
 1262 040c 07       		.uleb128 0x7
 1263 040d 4C000000 		.4byte	.LASF30
 1264 0411 08       		.byte	0x8
 1265 0412 B2       		.byte	0xb2
 1266 0413 B6000000 		.4byte	0xb6
 1267 0417 02       		.byte	0x2
 1268 0418 23       		.byte	0x23
 1269 0419 20       		.uleb128 0x20
 1270 041a 07       		.uleb128 0x7
 1271 041b EE010000 		.4byte	.LASF54
 1272 041f 08       		.byte	0x8
 1273 0420 BF       		.byte	0xbf
 1274 0421 E2000000 		.4byte	0xe2
 1275 0425 02       		.byte	0x2
 1276 0426 23       		.byte	0x23
 1277 0427 24       		.uleb128 0x24
 1278 0428 07       		.uleb128 0x7
 1279 0429 94040000 		.4byte	.LASF55
 1280 042d 08       		.byte	0x8
 1281 042e C0       		.byte	0xc0
 1282 042f CC000000 		.4byte	0xcc
 1283 0433 02       		.byte	0x2
 1284 0434 23       		.byte	0x23
 1285 0435 28       		.uleb128 0x28
 1286 0436 07       		.uleb128 0x7
 1287 0437 9B030000 		.4byte	.LASF56
 1288 043b 08       		.byte	0x8
 1289 043c C1       		.byte	0xc1
 1290 043d CC000000 		.4byte	0xcc
 1291 0441 02       		.byte	0x2
 1292 0442 23       		.byte	0x23
 1293 0443 2A       		.uleb128 0x2a
 1294 0444 07       		.uleb128 0x7
 1295 0445 B7000000 		.4byte	.LASF57
 1296 0449 08       		.byte	0x8
 1297 044a C2       		.byte	0xc2
 1298 044b E2000000 		.4byte	0xe2
ARM GAS  /tmp/ccTLGzYs.s 			page 24


 1299 044f 02       		.byte	0x2
 1300 0450 23       		.byte	0x23
 1301 0451 2C       		.uleb128 0x2c
 1302 0452 08       		.uleb128 0x8
 1303 0453 746D7200 		.ascii	"tmr\000"
 1304 0457 08       		.byte	0x8
 1305 0458 C5       		.byte	0xc5
 1306 0459 E2000000 		.4byte	0xe2
 1307 045d 02       		.byte	0x2
 1308 045e 23       		.byte	0x23
 1309 045f 30       		.uleb128 0x30
 1310 0460 07       		.uleb128 0x7
 1311 0461 36000000 		.4byte	.LASF58
 1312 0465 08       		.byte	0x8
 1313 0466 C6       		.byte	0xc6
 1314 0467 B6000000 		.4byte	0xb6
 1315 046b 02       		.byte	0x2
 1316 046c 23       		.byte	0x23
 1317 046d 34       		.uleb128 0x34
 1318 046e 07       		.uleb128 0x7
 1319 046f 66050000 		.4byte	.LASF59
 1320 0473 08       		.byte	0x8
 1321 0474 C6       		.byte	0xc6
 1322 0475 B6000000 		.4byte	0xb6
 1323 0479 02       		.byte	0x2
 1324 047a 23       		.byte	0x23
 1325 047b 35       		.uleb128 0x35
 1326 047c 07       		.uleb128 0x7
 1327 047d CB010000 		.4byte	.LASF60
 1328 0481 08       		.byte	0x8
 1329 0482 C9       		.byte	0xc9
 1330 0483 D7000000 		.4byte	0xd7
 1331 0487 02       		.byte	0x2
 1332 0488 23       		.byte	0x23
 1333 0489 36       		.uleb128 0x36
 1334 048a 08       		.uleb128 0x8
 1335 048b 6D737300 		.ascii	"mss\000"
 1336 048f 08       		.byte	0x8
 1337 0490 CB       		.byte	0xcb
 1338 0491 CC000000 		.4byte	0xcc
 1339 0495 02       		.byte	0x2
 1340 0496 23       		.byte	0x23
 1341 0497 38       		.uleb128 0x38
 1342 0498 07       		.uleb128 0x7
 1343 0499 9C040000 		.4byte	.LASF61
 1344 049d 08       		.byte	0x8
 1345 049e CE       		.byte	0xce
 1346 049f E2000000 		.4byte	0xe2
 1347 04a3 02       		.byte	0x2
 1348 04a4 23       		.byte	0x23
 1349 04a5 3C       		.uleb128 0x3c
 1350 04a6 07       		.uleb128 0x7
 1351 04a7 74020000 		.4byte	.LASF62
 1352 04ab 08       		.byte	0x8
 1353 04ac CF       		.byte	0xcf
 1354 04ad E2000000 		.4byte	0xe2
 1355 04b1 02       		.byte	0x2
ARM GAS  /tmp/ccTLGzYs.s 			page 25


 1356 04b2 23       		.byte	0x23
 1357 04b3 40       		.uleb128 0x40
 1358 04b4 08       		.uleb128 0x8
 1359 04b5 736100   		.ascii	"sa\000"
 1360 04b8 08       		.byte	0x8
 1361 04b9 D0       		.byte	0xd0
 1362 04ba D7000000 		.4byte	0xd7
 1363 04be 02       		.byte	0x2
 1364 04bf 23       		.byte	0x23
 1365 04c0 44       		.uleb128 0x44
 1366 04c1 08       		.uleb128 0x8
 1367 04c2 737600   		.ascii	"sv\000"
 1368 04c5 08       		.byte	0x8
 1369 04c6 D0       		.byte	0xd0
 1370 04c7 D7000000 		.4byte	0xd7
 1371 04cb 02       		.byte	0x2
 1372 04cc 23       		.byte	0x23
 1373 04cd 46       		.uleb128 0x46
 1374 04ce 08       		.uleb128 0x8
 1375 04cf 72746F00 		.ascii	"rto\000"
 1376 04d3 08       		.byte	0x8
 1377 04d4 D2       		.byte	0xd2
 1378 04d5 D7000000 		.4byte	0xd7
 1379 04d9 02       		.byte	0x2
 1380 04da 23       		.byte	0x23
 1381 04db 48       		.uleb128 0x48
 1382 04dc 07       		.uleb128 0x7
 1383 04dd DC060000 		.4byte	.LASF63
 1384 04e1 08       		.byte	0x8
 1385 04e2 D3       		.byte	0xd3
 1386 04e3 B6000000 		.4byte	0xb6
 1387 04e7 02       		.byte	0x2
 1388 04e8 23       		.byte	0x23
 1389 04e9 4A       		.uleb128 0x4a
 1390 04ea 07       		.uleb128 0x7
 1391 04eb 51020000 		.4byte	.LASF64
 1392 04ef 08       		.byte	0x8
 1393 04f0 D6       		.byte	0xd6
 1394 04f1 E2000000 		.4byte	0xe2
 1395 04f5 02       		.byte	0x2
 1396 04f6 23       		.byte	0x23
 1397 04f7 4C       		.uleb128 0x4c
 1398 04f8 07       		.uleb128 0x7
 1399 04f9 8A020000 		.4byte	.LASF65
 1400 04fd 08       		.byte	0x8
 1401 04fe D7       		.byte	0xd7
 1402 04ff B6000000 		.4byte	0xb6
 1403 0503 02       		.byte	0x2
 1404 0504 23       		.byte	0x23
 1405 0505 50       		.uleb128 0x50
 1406 0506 07       		.uleb128 0x7
 1407 0507 39010000 		.4byte	.LASF66
 1408 050b 08       		.byte	0x8
 1409 050c DA       		.byte	0xda
 1410 050d CC000000 		.4byte	0xcc
 1411 0511 02       		.byte	0x2
 1412 0512 23       		.byte	0x23
ARM GAS  /tmp/ccTLGzYs.s 			page 26


 1413 0513 52       		.uleb128 0x52
 1414 0514 07       		.uleb128 0x7
 1415 0515 46050000 		.4byte	.LASF67
 1416 0519 08       		.byte	0x8
 1417 051a DB       		.byte	0xdb
 1418 051b CC000000 		.4byte	0xcc
 1419 051f 02       		.byte	0x2
 1420 0520 23       		.byte	0x23
 1421 0521 54       		.uleb128 0x54
 1422 0522 07       		.uleb128 0x7
 1423 0523 FD040000 		.4byte	.LASF68
 1424 0527 08       		.byte	0x8
 1425 0528 DE       		.byte	0xde
 1426 0529 E2000000 		.4byte	0xe2
 1427 052d 02       		.byte	0x2
 1428 052e 23       		.byte	0x23
 1429 052f 58       		.uleb128 0x58
 1430 0530 07       		.uleb128 0x7
 1431 0531 48040000 		.4byte	.LASF69
 1432 0535 08       		.byte	0x8
 1433 0536 DF       		.byte	0xdf
 1434 0537 CC000000 		.4byte	0xcc
 1435 053b 02       		.byte	0x2
 1436 053c 23       		.byte	0x23
 1437 053d 5C       		.uleb128 0x5c
 1438 053e 07       		.uleb128 0x7
 1439 053f E4020000 		.4byte	.LASF70
 1440 0543 08       		.byte	0x8
 1441 0544 E0       		.byte	0xe0
 1442 0545 E2000000 		.4byte	0xe2
 1443 0549 02       		.byte	0x2
 1444 054a 23       		.byte	0x23
 1445 054b 60       		.uleb128 0x60
 1446 054c 07       		.uleb128 0x7
 1447 054d EC020000 		.4byte	.LASF71
 1448 0551 08       		.byte	0x8
 1449 0552 E0       		.byte	0xe0
 1450 0553 E2000000 		.4byte	0xe2
 1451 0557 02       		.byte	0x2
 1452 0558 23       		.byte	0x23
 1453 0559 64       		.uleb128 0x64
 1454 055a 07       		.uleb128 0x7
 1455 055b 1E030000 		.4byte	.LASF72
 1456 055f 08       		.byte	0x8
 1457 0560 E2       		.byte	0xe2
 1458 0561 E2000000 		.4byte	0xe2
 1459 0565 02       		.byte	0x2
 1460 0566 23       		.byte	0x23
 1461 0567 68       		.uleb128 0x68
 1462 0568 07       		.uleb128 0x7
 1463 0569 BB020000 		.4byte	.LASF73
 1464 056d 08       		.byte	0x8
 1465 056e E4       		.byte	0xe4
 1466 056f CC000000 		.4byte	0xcc
 1467 0573 02       		.byte	0x2
 1468 0574 23       		.byte	0x23
 1469 0575 6C       		.uleb128 0x6c
ARM GAS  /tmp/ccTLGzYs.s 			page 27


 1470 0576 07       		.uleb128 0x7
 1471 0577 4F050000 		.4byte	.LASF74
 1472 057b 08       		.byte	0x8
 1473 057c E6       		.byte	0xe6
 1474 057d CC000000 		.4byte	0xcc
 1475 0581 02       		.byte	0x2
 1476 0582 23       		.byte	0x23
 1477 0583 6E       		.uleb128 0x6e
 1478 0584 07       		.uleb128 0x7
 1479 0585 65060000 		.4byte	.LASF75
 1480 0589 08       		.byte	0x8
 1481 058a E8       		.byte	0xe8
 1482 058b CC000000 		.4byte	0xcc
 1483 058f 02       		.byte	0x2
 1484 0590 23       		.byte	0x23
 1485 0591 70       		.uleb128 0x70
 1486 0592 07       		.uleb128 0x7
 1487 0593 DE040000 		.4byte	.LASF76
 1488 0597 08       		.byte	0x8
 1489 0598 EC       		.byte	0xec
 1490 0599 CC000000 		.4byte	0xcc
 1491 059d 02       		.byte	0x2
 1492 059e 23       		.byte	0x23
 1493 059f 72       		.uleb128 0x72
 1494 05a0 07       		.uleb128 0x7
 1495 05a1 8D040000 		.4byte	.LASF77
 1496 05a5 08       		.byte	0x8
 1497 05a6 F0       		.byte	0xf0
 1498 05a7 BB070000 		.4byte	0x7bb
 1499 05ab 02       		.byte	0x2
 1500 05ac 23       		.byte	0x23
 1501 05ad 74       		.uleb128 0x74
 1502 05ae 07       		.uleb128 0x7
 1503 05af 0B020000 		.4byte	.LASF78
 1504 05b3 08       		.byte	0x8
 1505 05b4 F1       		.byte	0xf1
 1506 05b5 BB070000 		.4byte	0x7bb
 1507 05b9 02       		.byte	0x2
 1508 05ba 23       		.byte	0x23
 1509 05bb 78       		.uleb128 0x78
 1510 05bc 07       		.uleb128 0x7
 1511 05bd 67040000 		.4byte	.LASF79
 1512 05c1 08       		.byte	0x8
 1513 05c2 F3       		.byte	0xf3
 1514 05c3 BB070000 		.4byte	0x7bb
 1515 05c7 02       		.byte	0x2
 1516 05c8 23       		.byte	0x23
 1517 05c9 7C       		.uleb128 0x7c
 1518 05ca 07       		.uleb128 0x7
 1519 05cb C0050000 		.4byte	.LASF80
 1520 05cf 08       		.byte	0x8
 1521 05d0 F6       		.byte	0xf6
 1522 05d1 8D010000 		.4byte	0x18d
 1523 05d5 03       		.byte	0x3
 1524 05d6 23       		.byte	0x23
 1525 05d7 8001     		.uleb128 0x80
 1526 05d9 07       		.uleb128 0x7
ARM GAS  /tmp/ccTLGzYs.s 			page 28


 1527 05da D7020000 		.4byte	.LASF81
 1528 05de 08       		.byte	0x8
 1529 05df FA       		.byte	0xfa
 1530 05e0 97060000 		.4byte	0x697
 1531 05e4 03       		.byte	0x3
 1532 05e5 23       		.byte	0x23
 1533 05e6 8401     		.uleb128 0x84
 1534 05e8 07       		.uleb128 0x7
 1535 05e9 90060000 		.4byte	.LASF82
 1536 05ed 08       		.byte	0x8
 1537 05ee FC       		.byte	0xfc
 1538 05ef 67060000 		.4byte	0x667
 1539 05f3 03       		.byte	0x3
 1540 05f4 23       		.byte	0x23
 1541 05f5 8801     		.uleb128 0x88
 1542 05f7 07       		.uleb128 0x7
 1543 05f8 3A020000 		.4byte	.LASF83
 1544 05fc 08       		.byte	0x8
 1545 05fd FE       		.byte	0xfe
 1546 05fe 0A070000 		.4byte	0x70a
 1547 0602 03       		.byte	0x3
 1548 0603 23       		.byte	0x23
 1549 0604 8C01     		.uleb128 0x8c
 1550 0606 0E       		.uleb128 0xe
 1551 0607 B1020000 		.4byte	.LASF84
 1552 060b 08       		.byte	0x8
 1553 060c 0001     		.2byte	0x100
 1554 060e C2060000 		.4byte	0x6c2
 1555 0612 03       		.byte	0x3
 1556 0613 23       		.byte	0x23
 1557 0614 9001     		.uleb128 0x90
 1558 0616 0E       		.uleb128 0xe
 1559 0617 43040000 		.4byte	.LASF85
 1560 061b 08       		.byte	0x8
 1561 061c 0201     		.2byte	0x102
 1562 061e E8060000 		.4byte	0x6e8
 1563 0622 03       		.byte	0x3
 1564 0623 23       		.byte	0x23
 1565 0624 9401     		.uleb128 0x94
 1566 0626 0E       		.uleb128 0xe
 1567 0627 21060000 		.4byte	.LASF86
 1568 062b 08       		.byte	0x8
 1569 062c 0B01     		.2byte	0x10b
 1570 062e E2000000 		.4byte	0xe2
 1571 0632 03       		.byte	0x3
 1572 0633 23       		.byte	0x23
 1573 0634 9801     		.uleb128 0x98
 1574 0636 0E       		.uleb128 0xe
 1575 0637 BC060000 		.4byte	.LASF87
 1576 063b 08       		.byte	0x8
 1577 063c 1201     		.2byte	0x112
 1578 063e E2000000 		.4byte	0xe2
 1579 0642 03       		.byte	0x3
 1580 0643 23       		.byte	0x23
 1581 0644 9C01     		.uleb128 0x9c
 1582 0646 0E       		.uleb128 0xe
 1583 0647 5D030000 		.4byte	.LASF88
ARM GAS  /tmp/ccTLGzYs.s 			page 29


 1584 064b 08       		.byte	0x8
 1585 064c 1401     		.2byte	0x114
 1586 064e B6000000 		.4byte	0xb6
 1587 0652 03       		.byte	0x3
 1588 0653 23       		.byte	0x23
 1589 0654 A001     		.uleb128 0xa0
 1590 0656 0E       		.uleb128 0xe
 1591 0657 EB000000 		.4byte	.LASF89
 1592 065b 08       		.byte	0x8
 1593 065c 1701     		.2byte	0x117
 1594 065e B6000000 		.4byte	0xb6
 1595 0662 03       		.byte	0x3
 1596 0663 23       		.byte	0x23
 1597 0664 A101     		.uleb128 0xa1
 1598 0666 00       		.byte	0
 1599 0667 04       		.uleb128 0x4
 1600 0668 0A040000 		.4byte	.LASF90
 1601 066c 08       		.byte	0x8
 1602 066d 49       		.byte	0x49
 1603 066e 72060000 		.4byte	0x672
 1604 0672 09       		.uleb128 0x9
 1605 0673 04       		.byte	0x4
 1606 0674 78060000 		.4byte	0x678
 1607 0678 0A       		.uleb128 0xa
 1608 0679 01       		.byte	0x1
 1609 067a 13010000 		.4byte	0x113
 1610 067e 97060000 		.4byte	0x697
 1611 0682 0B       		.uleb128 0xb
 1612 0683 A6000000 		.4byte	0xa6
 1613 0687 0B       		.uleb128 0xb
 1614 0688 52030000 		.4byte	0x352
 1615 068c 0B       		.uleb128 0xb
 1616 068d 8D010000 		.4byte	0x18d
 1617 0691 0B       		.uleb128 0xb
 1618 0692 13010000 		.4byte	0x113
 1619 0696 00       		.byte	0
 1620 0697 04       		.uleb128 0x4
 1621 0698 08010000 		.4byte	.LASF91
 1622 069c 08       		.byte	0x8
 1623 069d 57       		.byte	0x57
 1624 069e A2060000 		.4byte	0x6a2
 1625 06a2 09       		.uleb128 0x9
 1626 06a3 04       		.byte	0x4
 1627 06a4 A8060000 		.4byte	0x6a8
 1628 06a8 0A       		.uleb128 0xa
 1629 06a9 01       		.byte	0x1
 1630 06aa 13010000 		.4byte	0x113
 1631 06ae C2060000 		.4byte	0x6c2
 1632 06b2 0B       		.uleb128 0xb
 1633 06b3 A6000000 		.4byte	0xa6
 1634 06b7 0B       		.uleb128 0xb
 1635 06b8 52030000 		.4byte	0x352
 1636 06bc 0B       		.uleb128 0xb
 1637 06bd CC000000 		.4byte	0xcc
 1638 06c1 00       		.byte	0
 1639 06c2 04       		.uleb128 0x4
 1640 06c3 2E040000 		.4byte	.LASF92
ARM GAS  /tmp/ccTLGzYs.s 			page 30


 1641 06c7 08       		.byte	0x8
 1642 06c8 63       		.byte	0x63
 1643 06c9 CD060000 		.4byte	0x6cd
 1644 06cd 09       		.uleb128 0x9
 1645 06ce 04       		.byte	0x4
 1646 06cf D3060000 		.4byte	0x6d3
 1647 06d3 0A       		.uleb128 0xa
 1648 06d4 01       		.byte	0x1
 1649 06d5 13010000 		.4byte	0x113
 1650 06d9 E8060000 		.4byte	0x6e8
 1651 06dd 0B       		.uleb128 0xb
 1652 06de A6000000 		.4byte	0xa6
 1653 06e2 0B       		.uleb128 0xb
 1654 06e3 52030000 		.4byte	0x352
 1655 06e7 00       		.byte	0
 1656 06e8 04       		.uleb128 0x4
 1657 06e9 F4020000 		.4byte	.LASF93
 1658 06ed 08       		.byte	0x8
 1659 06ee 6F       		.byte	0x6f
 1660 06ef F3060000 		.4byte	0x6f3
 1661 06f3 09       		.uleb128 0x9
 1662 06f4 04       		.byte	0x4
 1663 06f5 F9060000 		.4byte	0x6f9
 1664 06f9 0F       		.uleb128 0xf
 1665 06fa 01       		.byte	0x1
 1666 06fb 0A070000 		.4byte	0x70a
 1667 06ff 0B       		.uleb128 0xb
 1668 0700 A6000000 		.4byte	0xa6
 1669 0704 0B       		.uleb128 0xb
 1670 0705 13010000 		.4byte	0x113
 1671 0709 00       		.byte	0
 1672 070a 04       		.uleb128 0x4
 1673 070b 69000000 		.4byte	.LASF94
 1674 070f 08       		.byte	0x8
 1675 0710 7D       		.byte	0x7d
 1676 0711 32030000 		.4byte	0x332
 1677 0715 10       		.uleb128 0x10
 1678 0716 C1010000 		.4byte	.LASF159
 1679 071a 01       		.byte	0x1
 1680 071b 08       		.byte	0x8
 1681 071c 7F       		.byte	0x7f
 1682 071d 64070000 		.4byte	0x764
 1683 0721 11       		.uleb128 0x11
 1684 0722 6D040000 		.4byte	.LASF95
 1685 0726 00       		.sleb128 0
 1686 0727 11       		.uleb128 0x11
 1687 0728 42060000 		.4byte	.LASF96
 1688 072c 01       		.sleb128 1
 1689 072d 11       		.uleb128 0x11
 1690 072e 0B060000 		.4byte	.LASF97
 1691 0732 02       		.sleb128 2
 1692 0733 11       		.uleb128 0x11
 1693 0734 E6060000 		.4byte	.LASF98
 1694 0738 03       		.sleb128 3
 1695 0739 11       		.uleb128 0x11
 1696 073a 05050000 		.4byte	.LASF99
 1697 073e 04       		.sleb128 4
ARM GAS  /tmp/ccTLGzYs.s 			page 31


 1698 073f 11       		.uleb128 0x11
 1699 0740 E8050000 		.4byte	.LASF100
 1700 0744 05       		.sleb128 5
 1701 0745 11       		.uleb128 0x11
 1702 0746 F3050000 		.4byte	.LASF101
 1703 074a 06       		.sleb128 6
 1704 074b 11       		.uleb128 0x11
 1705 074c C1020000 		.4byte	.LASF102
 1706 0750 07       		.sleb128 7
 1707 0751 11       		.uleb128 0x11
 1708 0752 49020000 		.4byte	.LASF103
 1709 0756 08       		.sleb128 8
 1710 0757 11       		.uleb128 0x11
 1711 0758 13020000 		.4byte	.LASF104
 1712 075c 09       		.sleb128 9
 1713 075d 11       		.uleb128 0x11
 1714 075e 52000000 		.4byte	.LASF105
 1715 0762 0A       		.sleb128 10
 1716 0763 00       		.byte	0
 1717 0764 12       		.uleb128 0x12
 1718 0765 A2010000 		.4byte	.LASF106
 1719 0769 10       		.byte	0x10
 1720 076a 09       		.byte	0x9
 1721 076b 1601     		.2byte	0x116
 1722 076d BB070000 		.4byte	0x7bb
 1723 0771 0E       		.uleb128 0xe
 1724 0772 7A000000 		.4byte	.LASF26
 1725 0776 09       		.byte	0x9
 1726 0777 1701     		.2byte	0x117
 1727 0779 BB070000 		.4byte	0x7bb
 1728 077d 02       		.byte	0x2
 1729 077e 23       		.byte	0x23
 1730 077f 00       		.uleb128 0
 1731 0780 13       		.uleb128 0x13
 1732 0781 7000     		.ascii	"p\000"
 1733 0783 09       		.byte	0x9
 1734 0784 1801     		.2byte	0x118
 1735 0786 8D010000 		.4byte	0x18d
 1736 078a 02       		.byte	0x2
 1737 078b 23       		.byte	0x23
 1738 078c 04       		.uleb128 0x4
 1739 078d 13       		.uleb128 0x13
 1740 078e 6C656E00 		.ascii	"len\000"
 1741 0792 09       		.byte	0x9
 1742 0793 1901     		.2byte	0x119
 1743 0795 CC000000 		.4byte	0xcc
 1744 0799 02       		.byte	0x2
 1745 079a 23       		.byte	0x23
 1746 079b 08       		.uleb128 0x8
 1747 079c 0E       		.uleb128 0xe
 1748 079d 4C000000 		.4byte	.LASF30
 1749 07a1 09       		.byte	0x9
 1750 07a2 2301     		.2byte	0x123
 1751 07a4 B6000000 		.4byte	0xb6
 1752 07a8 02       		.byte	0x2
 1753 07a9 23       		.byte	0x23
 1754 07aa 0A       		.uleb128 0xa
ARM GAS  /tmp/ccTLGzYs.s 			page 32


 1755 07ab 0E       		.uleb128 0xe
 1756 07ac B3050000 		.4byte	.LASF107
 1757 07b0 09       		.byte	0x9
 1758 07b1 2801     		.2byte	0x128
 1759 07b3 F7080000 		.4byte	0x8f7
 1760 07b7 02       		.byte	0x2
 1761 07b8 23       		.byte	0x23
 1762 07b9 0C       		.uleb128 0xc
 1763 07ba 00       		.byte	0
 1764 07bb 09       		.uleb128 0x9
 1765 07bc 04       		.byte	0x4
 1766 07bd 64070000 		.4byte	0x764
 1767 07c1 12       		.uleb128 0x12
 1768 07c2 48030000 		.4byte	.LASF108
 1769 07c6 20       		.byte	0x20
 1770 07c7 08       		.byte	0x8
 1771 07c8 1A01     		.2byte	0x11a
 1772 07ca 74080000 		.4byte	0x874
 1773 07ce 0E       		.uleb128 0xe
 1774 07cf D5040000 		.4byte	.LASF46
 1775 07d3 08       		.byte	0x8
 1776 07d4 1C01     		.2byte	0x11c
 1777 07d6 08010000 		.4byte	0x108
 1778 07da 02       		.byte	0x2
 1779 07db 23       		.byte	0x23
 1780 07dc 00       		.uleb128 0
 1781 07dd 0E       		.uleb128 0xe
 1782 07de C8060000 		.4byte	.LASF47
 1783 07e2 08       		.byte	0x8
 1784 07e3 1C01     		.2byte	0x11c
 1785 07e5 08010000 		.4byte	0x108
 1786 07e9 02       		.byte	0x2
 1787 07ea 23       		.byte	0x23
 1788 07eb 04       		.uleb128 0x4
 1789 07ec 0E       		.uleb128 0xe
 1790 07ed 20000000 		.4byte	.LASF48
 1791 07f1 08       		.byte	0x8
 1792 07f2 1C01     		.2byte	0x11c
 1793 07f4 B6000000 		.4byte	0xb6
 1794 07f8 02       		.byte	0x2
 1795 07f9 23       		.byte	0x23
 1796 07fa 08       		.uleb128 0x8
 1797 07fb 13       		.uleb128 0x13
 1798 07fc 746F7300 		.ascii	"tos\000"
 1799 0800 08       		.byte	0x8
 1800 0801 1C01     		.2byte	0x11c
 1801 0803 B6000000 		.4byte	0xb6
 1802 0807 02       		.byte	0x2
 1803 0808 23       		.byte	0x23
 1804 0809 09       		.uleb128 0x9
 1805 080a 13       		.uleb128 0x13
 1806 080b 74746C00 		.ascii	"ttl\000"
 1807 080f 08       		.byte	0x8
 1808 0810 1C01     		.2byte	0x11c
 1809 0812 B6000000 		.4byte	0xb6
 1810 0816 02       		.byte	0x2
 1811 0817 23       		.byte	0x23
ARM GAS  /tmp/ccTLGzYs.s 			page 33


 1812 0818 0A       		.uleb128 0xa
 1813 0819 0E       		.uleb128 0xe
 1814 081a 7A000000 		.4byte	.LASF26
 1815 081e 08       		.byte	0x8
 1816 081f 1E01     		.2byte	0x11e
 1817 0821 74080000 		.4byte	0x874
 1818 0825 02       		.byte	0x2
 1819 0826 23       		.byte	0x23
 1820 0827 0C       		.uleb128 0xc
 1821 0828 0E       		.uleb128 0xe
 1822 0829 59060000 		.4byte	.LASF37
 1823 082d 08       		.byte	0x8
 1824 082e 1E01     		.2byte	0x11e
 1825 0830 15070000 		.4byte	0x715
 1826 0834 02       		.byte	0x2
 1827 0835 23       		.byte	0x23
 1828 0836 10       		.uleb128 0x10
 1829 0837 0E       		.uleb128 0xe
 1830 0838 9B020000 		.4byte	.LASF49
 1831 083c 08       		.byte	0x8
 1832 083d 1E01     		.2byte	0x11e
 1833 083f B6000000 		.4byte	0xb6
 1834 0843 02       		.byte	0x2
 1835 0844 23       		.byte	0x23
 1836 0845 11       		.uleb128 0x11
 1837 0846 0E       		.uleb128 0xe
 1838 0847 2B060000 		.4byte	.LASF50
 1839 084b 08       		.byte	0x8
 1840 084c 1E01     		.2byte	0x11e
 1841 084e A6000000 		.4byte	0xa6
 1842 0852 02       		.byte	0x2
 1843 0853 23       		.byte	0x23
 1844 0854 14       		.uleb128 0x14
 1845 0855 0E       		.uleb128 0xe
 1846 0856 A0020000 		.4byte	.LASF51
 1847 085a 08       		.byte	0x8
 1848 085b 1E01     		.2byte	0x11e
 1849 085d 27030000 		.4byte	0x327
 1850 0861 02       		.byte	0x2
 1851 0862 23       		.byte	0x23
 1852 0863 18       		.uleb128 0x18
 1853 0864 0E       		.uleb128 0xe
 1854 0865 5D010000 		.4byte	.LASF52
 1855 0869 08       		.byte	0x8
 1856 086a 1E01     		.2byte	0x11e
 1857 086c CC000000 		.4byte	0xcc
 1858 0870 02       		.byte	0x2
 1859 0871 23       		.byte	0x23
 1860 0872 1C       		.uleb128 0x1c
 1861 0873 00       		.byte	0
 1862 0874 09       		.uleb128 0x9
 1863 0875 04       		.byte	0x4
 1864 0876 C1070000 		.4byte	0x7c1
 1865 087a 06       		.uleb128 0x6
 1866 087b CD050000 		.4byte	.LASF109
 1867 087f 14       		.byte	0x14
 1868 0880 09       		.byte	0x9
ARM GAS  /tmp/ccTLGzYs.s 			page 34


 1869 0881 9E       		.byte	0x9e
 1870 0882 F7080000 		.4byte	0x8f7
 1871 0886 08       		.uleb128 0x8
 1872 0887 73726300 		.ascii	"src\000"
 1873 088b 09       		.byte	0x9
 1874 088c 9F       		.byte	0x9f
 1875 088d CC000000 		.4byte	0xcc
 1876 0891 02       		.byte	0x2
 1877 0892 23       		.byte	0x23
 1878 0893 00       		.uleb128 0
 1879 0894 07       		.uleb128 0x7
 1880 0895 E1060000 		.4byte	.LASF110
 1881 0899 09       		.byte	0x9
 1882 089a A0       		.byte	0xa0
 1883 089b CC000000 		.4byte	0xcc
 1884 089f 02       		.byte	0x2
 1885 08a0 23       		.byte	0x23
 1886 08a1 02       		.uleb128 0x2
 1887 08a2 07       		.uleb128 0x7
 1888 08a3 14010000 		.4byte	.LASF111
 1889 08a7 09       		.byte	0x9
 1890 08a8 A1       		.byte	0xa1
 1891 08a9 E2000000 		.4byte	0xe2
 1892 08ad 02       		.byte	0x2
 1893 08ae 23       		.byte	0x23
 1894 08af 04       		.uleb128 0x4
 1895 08b0 07       		.uleb128 0x7
 1896 08b1 57030000 		.4byte	.LASF112
 1897 08b5 09       		.byte	0x9
 1898 08b6 A2       		.byte	0xa2
 1899 08b7 E2000000 		.4byte	0xe2
 1900 08bb 02       		.byte	0x2
 1901 08bc 23       		.byte	0x23
 1902 08bd 08       		.uleb128 0x8
 1903 08be 07       		.uleb128 0x7
 1904 08bf 80050000 		.4byte	.LASF113
 1905 08c3 09       		.byte	0x9
 1906 08c4 A3       		.byte	0xa3
 1907 08c5 CC000000 		.4byte	0xcc
 1908 08c9 02       		.byte	0x2
 1909 08ca 23       		.byte	0x23
 1910 08cb 0C       		.uleb128 0xc
 1911 08cc 08       		.uleb128 0x8
 1912 08cd 776E6400 		.ascii	"wnd\000"
 1913 08d1 09       		.byte	0x9
 1914 08d2 A4       		.byte	0xa4
 1915 08d3 CC000000 		.4byte	0xcc
 1916 08d7 02       		.byte	0x2
 1917 08d8 23       		.byte	0x23
 1918 08d9 0E       		.uleb128 0xe
 1919 08da 07       		.uleb128 0x7
 1920 08db 72060000 		.4byte	.LASF114
 1921 08df 09       		.byte	0x9
 1922 08e0 A5       		.byte	0xa5
 1923 08e1 CC000000 		.4byte	0xcc
 1924 08e5 02       		.byte	0x2
 1925 08e6 23       		.byte	0x23
ARM GAS  /tmp/ccTLGzYs.s 			page 35


 1926 08e7 10       		.uleb128 0x10
 1927 08e8 07       		.uleb128 0x7
 1928 08e9 31000000 		.4byte	.LASF115
 1929 08ed 09       		.byte	0x9
 1930 08ee A6       		.byte	0xa6
 1931 08ef CC000000 		.4byte	0xcc
 1932 08f3 02       		.byte	0x2
 1933 08f4 23       		.byte	0x23
 1934 08f5 12       		.uleb128 0x12
 1935 08f6 00       		.byte	0
 1936 08f7 09       		.uleb128 0x9
 1937 08f8 04       		.byte	0x4
 1938 08f9 7A080000 		.4byte	0x87a
 1939 08fd 14       		.uleb128 0x14
 1940 08fe FF020000 		.4byte	.LASF160
 1941 0902 04       		.byte	0x4
 1942 0903 09       		.byte	0x9
 1943 0904 3A01     		.2byte	0x13a
 1944 0906 23090000 		.4byte	0x923
 1945 090a 15       		.uleb128 0x15
 1946 090b 00000000 		.4byte	.LASF116
 1947 090f 09       		.byte	0x9
 1948 0910 3B01     		.2byte	0x13b
 1949 0912 74080000 		.4byte	0x874
 1950 0916 15       		.uleb128 0x15
 1951 0917 F7060000 		.4byte	.LASF117
 1952 091b 09       		.byte	0x9
 1953 091c 3C01     		.2byte	0x13c
 1954 091e 52030000 		.4byte	0x352
 1955 0922 00       		.byte	0
 1956 0923 16       		.uleb128 0x16
 1957 0924 01       		.byte	0x1
 1958 0925 0B       		.byte	0xb
 1959 0926 2B       		.byte	0x2b
 1960 0927 86090000 		.4byte	0x986
 1961 092b 11       		.uleb128 0x11
 1962 092c 73050000 		.4byte	.LASF118
 1963 0930 00       		.sleb128 0
 1964 0931 11       		.uleb128 0x11
 1965 0932 C8040000 		.4byte	.LASF119
 1966 0936 01       		.sleb128 1
 1967 0937 11       		.uleb128 0x11
 1968 0938 6D030000 		.4byte	.LASF120
 1969 093c 02       		.sleb128 2
 1970 093d 11       		.uleb128 0x11
 1971 093e 0C000000 		.4byte	.LASF121
 1972 0942 03       		.sleb128 3
 1973 0943 11       		.uleb128 0x11
 1974 0944 FE050000 		.4byte	.LASF122
 1975 0948 04       		.sleb128 4
 1976 0949 11       		.uleb128 0x11
 1977 094a FB030000 		.4byte	.LASF123
 1978 094e 05       		.sleb128 5
 1979 094f 11       		.uleb128 0x11
 1980 0950 37050000 		.4byte	.LASF124
 1981 0954 06       		.sleb128 6
 1982 0955 11       		.uleb128 0x11
ARM GAS  /tmp/ccTLGzYs.s 			page 36


 1983 0956 26030000 		.4byte	.LASF125
 1984 095a 07       		.sleb128 7
 1985 095b 11       		.uleb128 0x11
 1986 095c 67020000 		.4byte	.LASF126
 1987 0960 08       		.sleb128 8
 1988 0961 11       		.uleb128 0x11
 1989 0962 4A010000 		.4byte	.LASF127
 1990 0966 09       		.sleb128 9
 1991 0967 11       		.uleb128 0x11
 1992 0968 F6010000 		.4byte	.LASF128
 1993 096c 0A       		.sleb128 10
 1994 096d 11       		.uleb128 0x11
 1995 096e B7040000 		.4byte	.LASF129
 1996 0972 0B       		.sleb128 11
 1997 0973 11       		.uleb128 0x11
 1998 0974 A7020000 		.4byte	.LASF130
 1999 0978 0C       		.sleb128 12
 2000 0979 11       		.uleb128 0x11
 2001 097a F9000000 		.4byte	.LASF131
 2002 097e 0D       		.sleb128 13
 2003 097f 11       		.uleb128 0x11
 2004 0980 59020000 		.4byte	.LASF132
 2005 0984 0E       		.sleb128 14
 2006 0985 00       		.byte	0
 2007 0986 17       		.uleb128 0x17
 2008 0987 01       		.byte	0x1
 2009 0988 DC010000 		.4byte	.LASF133
 2010 098c 01       		.byte	0x1
 2011 098d 9501     		.2byte	0x195
 2012 098f 01       		.byte	0x1
 2013 0990 01       		.byte	0x1
 2014 0991 AE090000 		.4byte	0x9ae
 2015 0995 18       		.uleb128 0x18
 2016 0996 5F060000 		.4byte	.LASF32
 2017 099a 01       		.byte	0x1
 2018 099b 9501     		.2byte	0x195
 2019 099d B4010000 		.4byte	0x1b4
 2020 09a1 18       		.uleb128 0x18
 2021 09a2 32030000 		.4byte	.LASF33
 2022 09a6 01       		.byte	0x1
 2023 09a7 9501     		.2byte	0x195
 2024 09a9 DB020000 		.4byte	0x2db
 2025 09ad 00       		.byte	0
 2026 09ae 17       		.uleb128 0x17
 2027 09af 01       		.byte	0x1
 2028 09b0 14060000 		.4byte	.LASF134
 2029 09b4 01       		.byte	0x1
 2030 09b5 8001     		.2byte	0x180
 2031 09b7 01       		.byte	0x1
 2032 09b8 01       		.byte	0x1
 2033 09b9 D5090000 		.4byte	0x9d5
 2034 09bd 18       		.uleb128 0x18
 2035 09be 5F060000 		.4byte	.LASF32
 2036 09c2 01       		.byte	0x1
 2037 09c3 8001     		.2byte	0x180
 2038 09c5 B4010000 		.4byte	0x1b4
 2039 09c9 19       		.uleb128 0x19
ARM GAS  /tmp/ccTLGzYs.s 			page 37


 2040 09ca 677700   		.ascii	"gw\000"
 2041 09cd 01       		.byte	0x1
 2042 09ce 8001     		.2byte	0x180
 2043 09d0 DB020000 		.4byte	0x2db
 2044 09d4 00       		.byte	0
 2045 09d5 17       		.uleb128 0x17
 2046 09d6 01       		.byte	0x1
 2047 09d7 A8000000 		.4byte	.LASF135
 2048 09db 01       		.byte	0x1
 2049 09dc E601     		.2byte	0x1e6
 2050 09de 01       		.byte	0x1
 2051 09df 01       		.byte	0x1
 2052 09e0 F1090000 		.4byte	0x9f1
 2053 09e4 18       		.uleb128 0x18
 2054 09e5 5F060000 		.4byte	.LASF32
 2055 09e9 01       		.byte	0x1
 2056 09ea E601     		.2byte	0x1e6
 2057 09ec B4010000 		.4byte	0x1b4
 2058 09f0 00       		.byte	0
 2059 09f1 17       		.uleb128 0x17
 2060 09f2 01       		.byte	0x1
 2061 09f3 90000000 		.4byte	.LASF136
 2062 09f7 01       		.byte	0x1
 2063 09f8 AA01     		.2byte	0x1aa
 2064 09fa 01       		.byte	0x1
 2065 09fb 01       		.byte	0x1
 2066 09fc 0D0A0000 		.4byte	0xa0d
 2067 0a00 18       		.uleb128 0x18
 2068 0a01 5F060000 		.4byte	.LASF32
 2069 0a05 01       		.byte	0x1
 2070 0a06 AA01     		.2byte	0x1aa
 2071 0a08 B4010000 		.4byte	0x1b4
 2072 0a0c 00       		.byte	0
 2073 0a0d 1A       		.uleb128 0x1a
 2074 0a0e 01       		.byte	0x1
 2075 0a0f 49060000 		.4byte	.LASF161
 2076 0a13 01       		.byte	0x1
 2077 0a14 68       		.byte	0x68
 2078 0a15 01       		.byte	0x1
 2079 0a16 00000000 		.4byte	.LFB7
 2080 0a1a 02000000 		.4byte	.LFE7
 2081 0a1e 02       		.byte	0x2
 2082 0a1f 7D       		.byte	0x7d
 2083 0a20 00       		.sleb128 0
 2084 0a21 01       		.byte	0x1
 2085 0a22 1B       		.uleb128 0x1b
 2086 0a23 01       		.byte	0x1
 2087 0a24 11030000 		.4byte	.LASF138
 2088 0a28 01       		.byte	0x1
 2089 0a29 EC       		.byte	0xec
 2090 0a2a 01       		.byte	0x1
 2091 0a2b 00000000 		.4byte	.LFB10
 2092 0a2f 50000000 		.4byte	.LFE10
 2093 0a33 02       		.byte	0x2
 2094 0a34 7D       		.byte	0x7d
 2095 0a35 00       		.sleb128 0
 2096 0a36 01       		.byte	0x1
ARM GAS  /tmp/ccTLGzYs.s 			page 38


 2097 0a37 9E0A0000 		.4byte	0xa9e
 2098 0a3b 1C       		.uleb128 0x1c
 2099 0a3c 5F060000 		.4byte	.LASF32
 2100 0a40 01       		.byte	0x1
 2101 0a41 EC       		.byte	0xec
 2102 0a42 B4010000 		.4byte	0x1b4
 2103 0a46 01       		.byte	0x1
 2104 0a47 50       		.byte	0x50
 2105 0a48 1D       		.uleb128 0x1d
 2106 0a49 D5090000 		.4byte	0x9d5
 2107 0a4d 08000000 		.4byte	.LBB11
 2108 0a51 12000000 		.4byte	.LBE11
 2109 0a55 01       		.byte	0x1
 2110 0a56 FA       		.byte	0xfa
 2111 0a57 650A0000 		.4byte	0xa65
 2112 0a5b 1E       		.uleb128 0x1e
 2113 0a5c E4090000 		.4byte	0x9e4
 2114 0a60 00000000 		.4byte	.LLST0
 2115 0a64 00       		.byte	0
 2116 0a65 1F       		.uleb128 0x1f
 2117 0a66 1A000000 		.4byte	.LBB13
 2118 0a6a 38000000 		.4byte	.LBE13
 2119 0a6e 830A0000 		.4byte	0xa83
 2120 0a72 20       		.uleb128 0x20
 2121 0a73 92020000 		.4byte	.LASF137
 2122 0a77 01       		.byte	0x1
 2123 0a78 0401     		.2byte	0x104
 2124 0a7a B4010000 		.4byte	0x1b4
 2125 0a7e 13000000 		.4byte	.LLST1
 2126 0a82 00       		.byte	0
 2127 0a83 21       		.uleb128 0x21
 2128 0a84 F1090000 		.4byte	0x9f1
 2129 0a88 40000000 		.4byte	.LBB14
 2130 0a8c 50000000 		.4byte	.LBE14
 2131 0a90 01       		.byte	0x1
 2132 0a91 1201     		.2byte	0x112
 2133 0a93 1E       		.uleb128 0x1e
 2134 0a94 000A0000 		.4byte	0xa00
 2135 0a98 52000000 		.4byte	.LLST2
 2136 0a9c 00       		.byte	0
 2137 0a9d 00       		.byte	0
 2138 0a9e 22       		.uleb128 0x22
 2139 0a9f 01       		.byte	0x1
 2140 0aa0 CC020000 		.4byte	.LASF143
 2141 0aa4 01       		.byte	0x1
 2142 0aa5 1E01     		.2byte	0x11e
 2143 0aa7 01       		.byte	0x1
 2144 0aa8 B4010000 		.4byte	0x1b4
 2145 0aac 00000000 		.4byte	.LFB11
 2146 0ab0 40000000 		.4byte	.LFE11
 2147 0ab4 66000000 		.4byte	.LLST3
 2148 0ab8 01       		.byte	0x1
 2149 0ab9 EE0A0000 		.4byte	0xaee
 2150 0abd 23       		.uleb128 0x23
 2151 0abe 11050000 		.4byte	.LASF40
 2152 0ac2 01       		.byte	0x1
 2153 0ac3 1E01     		.2byte	0x11e
ARM GAS  /tmp/ccTLGzYs.s 			page 39


 2154 0ac5 EE0A0000 		.4byte	0xaee
 2155 0ac9 86000000 		.4byte	.LLST4
 2156 0acd 20       		.uleb128 0x20
 2157 0ace 5F060000 		.4byte	.LASF32
 2158 0ad2 01       		.byte	0x1
 2159 0ad3 2001     		.2byte	0x120
 2160 0ad5 B4010000 		.4byte	0x1b4
 2161 0ad9 B2000000 		.4byte	.LLST5
 2162 0add 24       		.uleb128 0x24
 2163 0ade 6E756D00 		.ascii	"num\000"
 2164 0ae2 01       		.byte	0x1
 2165 0ae3 2101     		.2byte	0x121
 2166 0ae5 B6000000 		.4byte	0xb6
 2167 0ae9 C5000000 		.4byte	.LLST6
 2168 0aed 00       		.byte	0
 2169 0aee 09       		.uleb128 0x9
 2170 0aef 04       		.byte	0x4
 2171 0af0 AF000000 		.4byte	0xaf
 2172 0af4 25       		.uleb128 0x25
 2173 0af5 01       		.byte	0x1
 2174 0af6 CA000000 		.4byte	.LASF139
 2175 0afa 01       		.byte	0x1
 2176 0afb 3F01     		.2byte	0x13f
 2177 0afd 01       		.byte	0x1
 2178 0afe 00000000 		.4byte	.LFB12
 2179 0b02 60000000 		.4byte	.LFE12
 2180 0b06 D8000000 		.4byte	.LLST7
 2181 0b0a 01       		.byte	0x1
 2182 0b0b 730B0000 		.4byte	0xb73
 2183 0b0f 23       		.uleb128 0x23
 2184 0b10 5F060000 		.4byte	.LASF32
 2185 0b14 01       		.byte	0x1
 2186 0b15 3F01     		.2byte	0x13f
 2187 0b17 B4010000 		.4byte	0x1b4
 2188 0b1b F8000000 		.4byte	.LLST8
 2189 0b1f 23       		.uleb128 0x23
 2190 0b20 24020000 		.4byte	.LASF140
 2191 0b24 01       		.byte	0x1
 2192 0b25 3F01     		.2byte	0x13f
 2193 0b27 DB020000 		.4byte	0x2db
 2194 0b2b 16010000 		.4byte	.LLST9
 2195 0b2f 24       		.uleb128 0x24
 2196 0b30 70636200 		.ascii	"pcb\000"
 2197 0b34 01       		.byte	0x1
 2198 0b35 4401     		.2byte	0x144
 2199 0b37 52030000 		.4byte	0x352
 2200 0b3b 34010000 		.4byte	.LLST10
 2201 0b3f 20       		.uleb128 0x20
 2202 0b40 79060000 		.4byte	.LASF141
 2203 0b44 01       		.byte	0x1
 2204 0b45 4501     		.2byte	0x145
 2205 0b47 74080000 		.4byte	0x874
 2206 0b4b 74010000 		.4byte	.LLST11
 2207 0b4f 26       		.uleb128 0x26
 2208 0b50 2C000000 		.4byte	.LBB16
 2209 0b54 34000000 		.4byte	.LBE16
 2210 0b58 20       		.uleb128 0x20
ARM GAS  /tmp/ccTLGzYs.s 			page 40


 2211 0b59 7A000000 		.4byte	.LASF26
 2212 0b5d 01       		.byte	0x1
 2213 0b5e 5501     		.2byte	0x155
 2214 0b60 52030000 		.4byte	0x352
 2215 0b64 87010000 		.4byte	.LLST12
 2216 0b68 27       		.uleb128 0x27
 2217 0b69 32000000 		.4byte	.LVL22
 2218 0b6d 650E0000 		.4byte	0xe65
 2219 0b71 00       		.byte	0
 2220 0b72 00       		.byte	0
 2221 0b73 28       		.uleb128 0x28
 2222 0b74 01       		.byte	0x1
 2223 0b75 57050000 		.4byte	.LASF142
 2224 0b79 01       		.byte	0x1
 2225 0b7a DE       		.byte	0xde
 2226 0b7b 01       		.byte	0x1
 2227 0b7c 00000000 		.4byte	.LFB9
 2228 0b80 1A000000 		.4byte	.LFE9
 2229 0b84 9A010000 		.4byte	.LLST13
 2230 0b88 01       		.byte	0x1
 2231 0b89 280C0000 		.4byte	0xc28
 2232 0b8d 29       		.uleb128 0x29
 2233 0b8e 5F060000 		.4byte	.LASF32
 2234 0b92 01       		.byte	0x1
 2235 0b93 DE       		.byte	0xde
 2236 0b94 B4010000 		.4byte	0x1b4
 2237 0b98 BA010000 		.4byte	.LLST14
 2238 0b9c 29       		.uleb128 0x29
 2239 0b9d 24020000 		.4byte	.LASF140
 2240 0ba1 01       		.byte	0x1
 2241 0ba2 DE       		.byte	0xde
 2242 0ba3 DB020000 		.4byte	0x2db
 2243 0ba7 D8010000 		.4byte	.LLST15
 2244 0bab 29       		.uleb128 0x29
 2245 0bac 32030000 		.4byte	.LASF33
 2246 0bb0 01       		.byte	0x1
 2247 0bb1 DE       		.byte	0xde
 2248 0bb2 DB020000 		.4byte	0x2db
 2249 0bb6 F9010000 		.4byte	.LLST16
 2250 0bba 2A       		.uleb128 0x2a
 2251 0bbb 677700   		.ascii	"gw\000"
 2252 0bbe 01       		.byte	0x1
 2253 0bbf DF       		.byte	0xdf
 2254 0bc0 DB020000 		.4byte	0x2db
 2255 0bc4 25020000 		.4byte	.LLST17
 2256 0bc8 1D       		.uleb128 0x1d
 2257 0bc9 86090000 		.4byte	0x986
 2258 0bcd 0C000000 		.4byte	.LBB17
 2259 0bd1 12000000 		.4byte	.LBE17
 2260 0bd5 01       		.byte	0x1
 2261 0bd6 E2       		.byte	0xe2
 2262 0bd7 EC0B0000 		.4byte	0xbec
 2263 0bdb 1E       		.uleb128 0x1e
 2264 0bdc A1090000 		.4byte	0x9a1
 2265 0be0 51020000 		.4byte	.LLST18
 2266 0be4 2B       		.uleb128 0x2b
 2267 0be5 95090000 		.4byte	0x995
ARM GAS  /tmp/ccTLGzYs.s 			page 41


 2268 0be9 01       		.byte	0x1
 2269 0bea 54       		.byte	0x54
 2270 0beb 00       		.byte	0
 2271 0bec 1D       		.uleb128 0x1d
 2272 0bed AE090000 		.4byte	0x9ae
 2273 0bf1 12000000 		.4byte	.LBB19
 2274 0bf5 1A000000 		.4byte	.LBE19
 2275 0bf9 01       		.byte	0x1
 2276 0bfa E3       		.byte	0xe3
 2277 0bfb 100C0000 		.4byte	0xc10
 2278 0bff 1E       		.uleb128 0x1e
 2279 0c00 C9090000 		.4byte	0x9c9
 2280 0c04 72020000 		.4byte	.LLST19
 2281 0c08 2B       		.uleb128 0x2b
 2282 0c09 BD090000 		.4byte	0x9bd
 2283 0c0d 01       		.byte	0x1
 2284 0c0e 54       		.byte	0x54
 2285 0c0f 00       		.byte	0
 2286 0c10 2C       		.uleb128 0x2c
 2287 0c11 0C000000 		.4byte	.LVL29
 2288 0c15 F40A0000 		.4byte	0xaf4
 2289 0c19 2D       		.uleb128 0x2d
 2290 0c1a 01       		.byte	0x1
 2291 0c1b 51       		.byte	0x51
 2292 0c1c 03       		.byte	0x3
 2293 0c1d F3       		.byte	0xf3
 2294 0c1e 01       		.uleb128 0x1
 2295 0c1f 51       		.byte	0x51
 2296 0c20 2D       		.uleb128 0x2d
 2297 0c21 01       		.byte	0x1
 2298 0c22 50       		.byte	0x50
 2299 0c23 02       		.byte	0x2
 2300 0c24 74       		.byte	0x74
 2301 0c25 00       		.sleb128 0
 2302 0c26 00       		.byte	0
 2303 0c27 00       		.byte	0
 2304 0c28 2E       		.uleb128 0x2e
 2305 0c29 01       		.byte	0x1
 2306 0c2a F1030000 		.4byte	.LASF144
 2307 0c2e 01       		.byte	0x1
 2308 0c2f 89       		.byte	0x89
 2309 0c30 01       		.byte	0x1
 2310 0c31 B4010000 		.4byte	0x1b4
 2311 0c35 00000000 		.4byte	.LFB8
 2312 0c39 68000000 		.4byte	.LFE8
 2313 0c3d 93020000 		.4byte	.LLST20
 2314 0c41 01       		.byte	0x1
 2315 0c42 EA0C0000 		.4byte	0xcea
 2316 0c46 29       		.uleb128 0x29
 2317 0c47 5F060000 		.4byte	.LASF32
 2318 0c4b 01       		.byte	0x1
 2319 0c4c 89       		.byte	0x89
 2320 0c4d B4010000 		.4byte	0x1b4
 2321 0c51 BF020000 		.4byte	.LLST21
 2322 0c55 29       		.uleb128 0x29
 2323 0c56 24020000 		.4byte	.LASF140
 2324 0c5a 01       		.byte	0x1
ARM GAS  /tmp/ccTLGzYs.s 			page 42


 2325 0c5b 89       		.byte	0x89
 2326 0c5c DB020000 		.4byte	0x2db
 2327 0c60 1A030000 		.4byte	.LLST22
 2328 0c64 29       		.uleb128 0x29
 2329 0c65 32030000 		.4byte	.LASF33
 2330 0c69 01       		.byte	0x1
 2331 0c6a 89       		.byte	0x89
 2332 0c6b DB020000 		.4byte	0x2db
 2333 0c6f 54030000 		.4byte	.LLST23
 2334 0c73 2A       		.uleb128 0x2a
 2335 0c74 677700   		.ascii	"gw\000"
 2336 0c77 01       		.byte	0x1
 2337 0c78 8A       		.byte	0x8a
 2338 0c79 DB020000 		.4byte	0x2db
 2339 0c7d 8E030000 		.4byte	.LLST24
 2340 0c81 1C       		.uleb128 0x1c
 2341 0c82 59060000 		.4byte	.LASF37
 2342 0c86 01       		.byte	0x1
 2343 0c87 8A       		.byte	0x8a
 2344 0c88 A6000000 		.4byte	0xa6
 2345 0c8c 02       		.byte	0x2
 2346 0c8d 91       		.byte	0x91
 2347 0c8e 00       		.sleb128 0
 2348 0c8f 1C       		.uleb128 0x1c
 2349 0c90 93050000 		.4byte	.LASF145
 2350 0c94 01       		.byte	0x1
 2351 0c95 8A       		.byte	0x8a
 2352 0c96 93010000 		.4byte	0x193
 2353 0c9a 02       		.byte	0x2
 2354 0c9b 91       		.byte	0x91
 2355 0c9c 04       		.sleb128 4
 2356 0c9d 1C       		.uleb128 0x1c
 2357 0c9e 2B000000 		.4byte	.LASF34
 2358 0ca2 01       		.byte	0x1
 2359 0ca3 8A       		.byte	0x8a
 2360 0ca4 8A020000 		.4byte	0x28a
 2361 0ca8 02       		.byte	0x2
 2362 0ca9 91       		.byte	0x91
 2363 0caa 08       		.sleb128 8
 2364 0cab 2F       		.uleb128 0x2f
 2365 0cac 50040000 		.4byte	.LASF146
 2366 0cb0 01       		.byte	0x1
 2367 0cb1 8C       		.byte	0x8c
 2368 0cb2 B6000000 		.4byte	0xb6
 2369 0cb6 05       		.byte	0x5
 2370 0cb7 03       		.byte	0x3
 2371 0cb8 00000000 		.4byte	netifnum.5518
 2372 0cbc 30       		.uleb128 0x30
 2373 0cbd 36000000 		.4byte	.LVL35
 2374 0cc1 730B0000 		.4byte	0xb73
 2375 0cc5 D00C0000 		.4byte	0xcd0
 2376 0cc9 2D       		.uleb128 0x2d
 2377 0cca 01       		.byte	0x1
 2378 0ccb 50       		.byte	0x50
 2379 0ccc 02       		.byte	0x2
 2380 0ccd 74       		.byte	0x74
 2381 0cce 00       		.sleb128 0
ARM GAS  /tmp/ccTLGzYs.s 			page 43


 2382 0ccf 00       		.byte	0
 2383 0cd0 31       		.uleb128 0x31
 2384 0cd1 3A000000 		.4byte	.LVL36
 2385 0cd5 E00C0000 		.4byte	0xce0
 2386 0cd9 2D       		.uleb128 0x2d
 2387 0cda 01       		.byte	0x1
 2388 0cdb 50       		.byte	0x50
 2389 0cdc 02       		.byte	0x2
 2390 0cdd 74       		.byte	0x74
 2391 0cde 00       		.sleb128 0
 2392 0cdf 00       		.byte	0
 2393 0ce0 27       		.uleb128 0x27
 2394 0ce1 58000000 		.4byte	.LVL41
 2395 0ce5 7A0E0000 		.4byte	0xe7a
 2396 0ce9 00       		.byte	0
 2397 0cea 32       		.uleb128 0x32
 2398 0ceb AE090000 		.4byte	0x9ae
 2399 0cef 00000000 		.4byte	.LFB13
 2400 0cf3 08000000 		.4byte	.LFE13
 2401 0cf7 02       		.byte	0x2
 2402 0cf8 7D       		.byte	0x7d
 2403 0cf9 00       		.sleb128 0
 2404 0cfa 01       		.byte	0x1
 2405 0cfb 100D0000 		.4byte	0xd10
 2406 0cff 2B       		.uleb128 0x2b
 2407 0d00 BD090000 		.4byte	0x9bd
 2408 0d04 01       		.byte	0x1
 2409 0d05 50       		.byte	0x50
 2410 0d06 1E       		.uleb128 0x1e
 2411 0d07 C9090000 		.4byte	0x9c9
 2412 0d0b C8030000 		.4byte	.LLST25
 2413 0d0f 00       		.byte	0
 2414 0d10 32       		.uleb128 0x32
 2415 0d11 86090000 		.4byte	0x986
 2416 0d15 00000000 		.4byte	.LFB14
 2417 0d19 08000000 		.4byte	.LFE14
 2418 0d1d 02       		.byte	0x2
 2419 0d1e 7D       		.byte	0x7d
 2420 0d1f 00       		.sleb128 0
 2421 0d20 01       		.byte	0x1
 2422 0d21 360D0000 		.4byte	0xd36
 2423 0d25 2B       		.uleb128 0x2b
 2424 0d26 95090000 		.4byte	0x995
 2425 0d2a 01       		.byte	0x1
 2426 0d2b 50       		.byte	0x50
 2427 0d2c 1E       		.uleb128 0x1e
 2428 0d2d A1090000 		.4byte	0x9a1
 2429 0d31 E9030000 		.4byte	.LLST26
 2430 0d35 00       		.byte	0
 2431 0d36 32       		.uleb128 0x32
 2432 0d37 F1090000 		.4byte	0x9f1
 2433 0d3b 00000000 		.4byte	.LFB15
 2434 0d3f 0C000000 		.4byte	.LFE15
 2435 0d43 02       		.byte	0x2
 2436 0d44 7D       		.byte	0x7d
 2437 0d45 00       		.sleb128 0
 2438 0d46 01       		.byte	0x1
ARM GAS  /tmp/ccTLGzYs.s 			page 44


 2439 0d47 530D0000 		.4byte	0xd53
 2440 0d4b 2B       		.uleb128 0x2b
 2441 0d4c 000A0000 		.4byte	0xa00
 2442 0d50 01       		.byte	0x1
 2443 0d51 50       		.byte	0x50
 2444 0d52 00       		.byte	0
 2445 0d53 33       		.uleb128 0x33
 2446 0d54 01       		.byte	0x1
 2447 0d55 16050000 		.4byte	.LASF147
 2448 0d59 01       		.byte	0x1
 2449 0d5a C101     		.2byte	0x1c1
 2450 0d5c 01       		.byte	0x1
 2451 0d5d 00000000 		.4byte	.LFB16
 2452 0d61 20000000 		.4byte	.LFE16
 2453 0d65 02       		.byte	0x2
 2454 0d66 7D       		.byte	0x7d
 2455 0d67 00       		.sleb128 0
 2456 0d68 01       		.byte	0x1
 2457 0d69 990D0000 		.4byte	0xd99
 2458 0d6d 23       		.uleb128 0x23
 2459 0d6e 5F060000 		.4byte	.LASF32
 2460 0d72 01       		.byte	0x1
 2461 0d73 C101     		.2byte	0x1c1
 2462 0d75 B4010000 		.4byte	0x1b4
 2463 0d79 0A040000 		.4byte	.LLST27
 2464 0d7d 34       		.uleb128 0x34
 2465 0d7e 20000000 		.4byte	.LVL48
 2466 0d82 01       		.byte	0x1
 2467 0d83 850E0000 		.4byte	0xe85
 2468 0d87 2D       		.uleb128 0x2d
 2469 0d88 01       		.byte	0x1
 2470 0d89 51       		.byte	0x51
 2471 0d8a 05       		.byte	0x5
 2472 0d8b F3       		.byte	0xf3
 2473 0d8c 01       		.uleb128 0x1
 2474 0d8d 50       		.byte	0x50
 2475 0d8e 23       		.byte	0x23
 2476 0d8f 04       		.uleb128 0x4
 2477 0d90 2D       		.uleb128 0x2d
 2478 0d91 01       		.byte	0x1
 2479 0d92 50       		.byte	0x50
 2480 0d93 03       		.byte	0x3
 2481 0d94 F3       		.byte	0xf3
 2482 0d95 01       		.uleb128 0x1
 2483 0d96 50       		.byte	0x50
 2484 0d97 00       		.byte	0
 2485 0d98 00       		.byte	0
 2486 0d99 32       		.uleb128 0x32
 2487 0d9a D5090000 		.4byte	0x9d5
 2488 0d9e 00000000 		.4byte	.LFB17
 2489 0da2 12000000 		.4byte	.LFE17
 2490 0da6 02       		.byte	0x2
 2491 0da7 7D       		.byte	0x7d
 2492 0da8 00       		.sleb128 0
 2493 0da9 01       		.byte	0x1
 2494 0daa B60D0000 		.4byte	0xdb6
 2495 0dae 2B       		.uleb128 0x2b
ARM GAS  /tmp/ccTLGzYs.s 			page 45


 2496 0daf E4090000 		.4byte	0x9e4
 2497 0db3 01       		.byte	0x1
 2498 0db4 50       		.byte	0x50
 2499 0db5 00       		.byte	0
 2500 0db6 33       		.uleb128 0x33
 2501 0db7 01       		.byte	0x1
 2502 0db8 7E060000 		.4byte	.LASF148
 2503 0dbc 01       		.byte	0x1
 2504 0dbd 0102     		.2byte	0x201
 2505 0dbf 01       		.byte	0x1
 2506 0dc0 00000000 		.4byte	.LFB18
 2507 0dc4 24000000 		.4byte	.LFE18
 2508 0dc8 02       		.byte	0x2
 2509 0dc9 7D       		.byte	0x7d
 2510 0dca 00       		.sleb128 0
 2511 0dcb 01       		.byte	0x1
 2512 0dcc FC0D0000 		.4byte	0xdfc
 2513 0dd0 23       		.uleb128 0x23
 2514 0dd1 5F060000 		.4byte	.LASF32
 2515 0dd5 01       		.byte	0x1
 2516 0dd6 0102     		.2byte	0x201
 2517 0dd8 B4010000 		.4byte	0x1b4
 2518 0ddc 2B040000 		.4byte	.LLST28
 2519 0de0 34       		.uleb128 0x34
 2520 0de1 24000000 		.4byte	.LVL51
 2521 0de5 01       		.byte	0x1
 2522 0de6 850E0000 		.4byte	0xe85
 2523 0dea 2D       		.uleb128 0x2d
 2524 0deb 01       		.byte	0x1
 2525 0dec 51       		.byte	0x51
 2526 0ded 05       		.byte	0x5
 2527 0dee F3       		.byte	0xf3
 2528 0def 01       		.uleb128 0x1
 2529 0df0 50       		.byte	0x50
 2530 0df1 23       		.byte	0x23
 2531 0df2 04       		.uleb128 0x4
 2532 0df3 2D       		.uleb128 0x2d
 2533 0df4 01       		.byte	0x1
 2534 0df5 50       		.byte	0x50
 2535 0df6 03       		.byte	0x3
 2536 0df7 F3       		.byte	0xf3
 2537 0df8 01       		.uleb128 0x1
 2538 0df9 50       		.byte	0x50
 2539 0dfa 00       		.byte	0
 2540 0dfb 00       		.byte	0
 2541 0dfc 33       		.uleb128 0x33
 2542 0dfd 01       		.byte	0x1
 2543 0dfe A3040000 		.4byte	.LASF149
 2544 0e02 01       		.byte	0x1
 2545 0e03 2802     		.2byte	0x228
 2546 0e05 01       		.byte	0x1
 2547 0e06 00000000 		.4byte	.LFB19
 2548 0e0a 16000000 		.4byte	.LFE19
 2549 0e0e 02       		.byte	0x2
 2550 0e0f 7D       		.byte	0x7d
 2551 0e10 00       		.sleb128 0
 2552 0e11 01       		.byte	0x1
ARM GAS  /tmp/ccTLGzYs.s 			page 46


 2553 0e12 250E0000 		.4byte	0xe25
 2554 0e16 35       		.uleb128 0x35
 2555 0e17 5F060000 		.4byte	.LASF32
 2556 0e1b 01       		.byte	0x1
 2557 0e1c 2802     		.2byte	0x228
 2558 0e1e B4010000 		.4byte	0x1b4
 2559 0e22 01       		.byte	0x1
 2560 0e23 50       		.byte	0x50
 2561 0e24 00       		.byte	0
 2562 0e25 36       		.uleb128 0x36
 2563 0e26 70010000 		.4byte	.LASF150
 2564 0e2a 01       		.byte	0x1
 2565 0e2b 4B       		.byte	0x4b
 2566 0e2c B4010000 		.4byte	0x1b4
 2567 0e30 01       		.byte	0x1
 2568 0e31 05       		.byte	0x5
 2569 0e32 03       		.byte	0x3
 2570 0e33 00000000 		.4byte	netif_list
 2571 0e37 36       		.uleb128 0x36
 2572 0e38 20040000 		.4byte	.LASF151
 2573 0e3c 01       		.byte	0x1
 2574 0e3d 4C       		.byte	0x4c
 2575 0e3e B4010000 		.4byte	0x1b4
 2576 0e42 01       		.byte	0x1
 2577 0e43 05       		.byte	0x5
 2578 0e44 03       		.byte	0x3
 2579 0e45 00000000 		.4byte	netif_default
 2580 0e49 37       		.uleb128 0x37
 2581 0e4a 8B030000 		.4byte	.LASF152
 2582 0e4e 09       		.byte	0x9
 2583 0e4f 3F01     		.2byte	0x13f
 2584 0e51 FD080000 		.4byte	0x8fd
 2585 0e55 01       		.byte	0x1
 2586 0e56 01       		.byte	0x1
 2587 0e57 37       		.uleb128 0x37
 2588 0e58 7A020000 		.4byte	.LASF153
 2589 0e5c 09       		.byte	0x9
 2590 0e5d 4001     		.2byte	0x140
 2591 0e5f 52030000 		.4byte	0x352
 2592 0e63 01       		.byte	0x1
 2593 0e64 01       		.byte	0x1
 2594 0e65 38       		.uleb128 0x38
 2595 0e66 01       		.byte	0x1
 2596 0e67 16040000 		.4byte	.LASF154
 2597 0e6b 08       		.byte	0x8
 2598 0e6c 5C01     		.2byte	0x15c
 2599 0e6e 01       		.byte	0x1
 2600 0e6f 01       		.byte	0x1
 2601 0e70 7A0E0000 		.4byte	0xe7a
 2602 0e74 0B       		.uleb128 0xb
 2603 0e75 52030000 		.4byte	0x352
 2604 0e79 00       		.byte	0
 2605 0e7a 39       		.uleb128 0x39
 2606 0e7b 01       		.byte	0x1
 2607 0e7c 38060000 		.4byte	.LASF162
 2608 0e80 0C       		.byte	0xc
 2609 0e81 FA01     		.2byte	0x1fa
ARM GAS  /tmp/ccTLGzYs.s 			page 47


 2610 0e83 01       		.byte	0x1
 2611 0e84 01       		.byte	0x1
 2612 0e85 3A       		.uleb128 0x3a
 2613 0e86 01       		.byte	0x1
 2614 0e87 EE040000 		.4byte	.LASF155
 2615 0e8b 0A       		.byte	0xa
 2616 0e8c BB       		.byte	0xbb
 2617 0e8d 01       		.byte	0x1
 2618 0e8e 13010000 		.4byte	0x113
 2619 0e92 01       		.byte	0x1
 2620 0e93 0B       		.uleb128 0xb
 2621 0e94 B4010000 		.4byte	0x1b4
 2622 0e98 0B       		.uleb128 0xb
 2623 0e99 DB020000 		.4byte	0x2db
 2624 0e9d 00       		.byte	0
 2625 0e9e 00       		.byte	0
 2626              		.section	.debug_abbrev,"",%progbits
 2627              	.Ldebug_abbrev0:
 2628 0000 01       		.uleb128 0x1
 2629 0001 11       		.uleb128 0x11
 2630 0002 01       		.byte	0x1
 2631 0003 25       		.uleb128 0x25
 2632 0004 0E       		.uleb128 0xe
 2633 0005 13       		.uleb128 0x13
 2634 0006 0B       		.uleb128 0xb
 2635 0007 03       		.uleb128 0x3
 2636 0008 0E       		.uleb128 0xe
 2637 0009 1B       		.uleb128 0x1b
 2638 000a 0E       		.uleb128 0xe
 2639 000b 55       		.uleb128 0x55
 2640 000c 06       		.uleb128 0x6
 2641 000d 11       		.uleb128 0x11
 2642 000e 01       		.uleb128 0x1
 2643 000f 52       		.uleb128 0x52
 2644 0010 01       		.uleb128 0x1
 2645 0011 10       		.uleb128 0x10
 2646 0012 06       		.uleb128 0x6
 2647 0013 00       		.byte	0
 2648 0014 00       		.byte	0
 2649 0015 02       		.uleb128 0x2
 2650 0016 24       		.uleb128 0x24
 2651 0017 00       		.byte	0
 2652 0018 0B       		.uleb128 0xb
 2653 0019 0B       		.uleb128 0xb
 2654 001a 3E       		.uleb128 0x3e
 2655 001b 0B       		.uleb128 0xb
 2656 001c 03       		.uleb128 0x3
 2657 001d 08       		.uleb128 0x8
 2658 001e 00       		.byte	0
 2659 001f 00       		.byte	0
 2660 0020 03       		.uleb128 0x3
 2661 0021 24       		.uleb128 0x24
 2662 0022 00       		.byte	0
 2663 0023 0B       		.uleb128 0xb
 2664 0024 0B       		.uleb128 0xb
 2665 0025 3E       		.uleb128 0x3e
 2666 0026 0B       		.uleb128 0xb
ARM GAS  /tmp/ccTLGzYs.s 			page 48


 2667 0027 03       		.uleb128 0x3
 2668 0028 0E       		.uleb128 0xe
 2669 0029 00       		.byte	0
 2670 002a 00       		.byte	0
 2671 002b 04       		.uleb128 0x4
 2672 002c 16       		.uleb128 0x16
 2673 002d 00       		.byte	0
 2674 002e 03       		.uleb128 0x3
 2675 002f 0E       		.uleb128 0xe
 2676 0030 3A       		.uleb128 0x3a
 2677 0031 0B       		.uleb128 0xb
 2678 0032 3B       		.uleb128 0x3b
 2679 0033 0B       		.uleb128 0xb
 2680 0034 49       		.uleb128 0x49
 2681 0035 13       		.uleb128 0x13
 2682 0036 00       		.byte	0
 2683 0037 00       		.byte	0
 2684 0038 05       		.uleb128 0x5
 2685 0039 0F       		.uleb128 0xf
 2686 003a 00       		.byte	0
 2687 003b 0B       		.uleb128 0xb
 2688 003c 0B       		.uleb128 0xb
 2689 003d 00       		.byte	0
 2690 003e 00       		.byte	0
 2691 003f 06       		.uleb128 0x6
 2692 0040 13       		.uleb128 0x13
 2693 0041 01       		.byte	0x1
 2694 0042 03       		.uleb128 0x3
 2695 0043 0E       		.uleb128 0xe
 2696 0044 0B       		.uleb128 0xb
 2697 0045 0B       		.uleb128 0xb
 2698 0046 3A       		.uleb128 0x3a
 2699 0047 0B       		.uleb128 0xb
 2700 0048 3B       		.uleb128 0x3b
 2701 0049 0B       		.uleb128 0xb
 2702 004a 01       		.uleb128 0x1
 2703 004b 13       		.uleb128 0x13
 2704 004c 00       		.byte	0
 2705 004d 00       		.byte	0
 2706 004e 07       		.uleb128 0x7
 2707 004f 0D       		.uleb128 0xd
 2708 0050 00       		.byte	0
 2709 0051 03       		.uleb128 0x3
 2710 0052 0E       		.uleb128 0xe
 2711 0053 3A       		.uleb128 0x3a
 2712 0054 0B       		.uleb128 0xb
 2713 0055 3B       		.uleb128 0x3b
 2714 0056 0B       		.uleb128 0xb
 2715 0057 49       		.uleb128 0x49
 2716 0058 13       		.uleb128 0x13
 2717 0059 38       		.uleb128 0x38
 2718 005a 0A       		.uleb128 0xa
 2719 005b 00       		.byte	0
 2720 005c 00       		.byte	0
 2721 005d 08       		.uleb128 0x8
 2722 005e 0D       		.uleb128 0xd
 2723 005f 00       		.byte	0
ARM GAS  /tmp/ccTLGzYs.s 			page 49


 2724 0060 03       		.uleb128 0x3
 2725 0061 08       		.uleb128 0x8
 2726 0062 3A       		.uleb128 0x3a
 2727 0063 0B       		.uleb128 0xb
 2728 0064 3B       		.uleb128 0x3b
 2729 0065 0B       		.uleb128 0xb
 2730 0066 49       		.uleb128 0x49
 2731 0067 13       		.uleb128 0x13
 2732 0068 38       		.uleb128 0x38
 2733 0069 0A       		.uleb128 0xa
 2734 006a 00       		.byte	0
 2735 006b 00       		.byte	0
 2736 006c 09       		.uleb128 0x9
 2737 006d 0F       		.uleb128 0xf
 2738 006e 00       		.byte	0
 2739 006f 0B       		.uleb128 0xb
 2740 0070 0B       		.uleb128 0xb
 2741 0071 49       		.uleb128 0x49
 2742 0072 13       		.uleb128 0x13
 2743 0073 00       		.byte	0
 2744 0074 00       		.byte	0
 2745 0075 0A       		.uleb128 0xa
 2746 0076 15       		.uleb128 0x15
 2747 0077 01       		.byte	0x1
 2748 0078 27       		.uleb128 0x27
 2749 0079 0C       		.uleb128 0xc
 2750 007a 49       		.uleb128 0x49
 2751 007b 13       		.uleb128 0x13
 2752 007c 01       		.uleb128 0x1
 2753 007d 13       		.uleb128 0x13
 2754 007e 00       		.byte	0
 2755 007f 00       		.byte	0
 2756 0080 0B       		.uleb128 0xb
 2757 0081 05       		.uleb128 0x5
 2758 0082 00       		.byte	0
 2759 0083 49       		.uleb128 0x49
 2760 0084 13       		.uleb128 0x13
 2761 0085 00       		.byte	0
 2762 0086 00       		.byte	0
 2763 0087 0C       		.uleb128 0xc
 2764 0088 01       		.uleb128 0x1
 2765 0089 01       		.byte	0x1
 2766 008a 49       		.uleb128 0x49
 2767 008b 13       		.uleb128 0x13
 2768 008c 01       		.uleb128 0x1
 2769 008d 13       		.uleb128 0x13
 2770 008e 00       		.byte	0
 2771 008f 00       		.byte	0
 2772 0090 0D       		.uleb128 0xd
 2773 0091 21       		.uleb128 0x21
 2774 0092 00       		.byte	0
 2775 0093 49       		.uleb128 0x49
 2776 0094 13       		.uleb128 0x13
 2777 0095 2F       		.uleb128 0x2f
 2778 0096 0B       		.uleb128 0xb
 2779 0097 00       		.byte	0
 2780 0098 00       		.byte	0
ARM GAS  /tmp/ccTLGzYs.s 			page 50


 2781 0099 0E       		.uleb128 0xe
 2782 009a 0D       		.uleb128 0xd
 2783 009b 00       		.byte	0
 2784 009c 03       		.uleb128 0x3
 2785 009d 0E       		.uleb128 0xe
 2786 009e 3A       		.uleb128 0x3a
 2787 009f 0B       		.uleb128 0xb
 2788 00a0 3B       		.uleb128 0x3b
 2789 00a1 05       		.uleb128 0x5
 2790 00a2 49       		.uleb128 0x49
 2791 00a3 13       		.uleb128 0x13
 2792 00a4 38       		.uleb128 0x38
 2793 00a5 0A       		.uleb128 0xa
 2794 00a6 00       		.byte	0
 2795 00a7 00       		.byte	0
 2796 00a8 0F       		.uleb128 0xf
 2797 00a9 15       		.uleb128 0x15
 2798 00aa 01       		.byte	0x1
 2799 00ab 27       		.uleb128 0x27
 2800 00ac 0C       		.uleb128 0xc
 2801 00ad 01       		.uleb128 0x1
 2802 00ae 13       		.uleb128 0x13
 2803 00af 00       		.byte	0
 2804 00b0 00       		.byte	0
 2805 00b1 10       		.uleb128 0x10
 2806 00b2 04       		.uleb128 0x4
 2807 00b3 01       		.byte	0x1
 2808 00b4 03       		.uleb128 0x3
 2809 00b5 0E       		.uleb128 0xe
 2810 00b6 0B       		.uleb128 0xb
 2811 00b7 0B       		.uleb128 0xb
 2812 00b8 3A       		.uleb128 0x3a
 2813 00b9 0B       		.uleb128 0xb
 2814 00ba 3B       		.uleb128 0x3b
 2815 00bb 0B       		.uleb128 0xb
 2816 00bc 01       		.uleb128 0x1
 2817 00bd 13       		.uleb128 0x13
 2818 00be 00       		.byte	0
 2819 00bf 00       		.byte	0
 2820 00c0 11       		.uleb128 0x11
 2821 00c1 28       		.uleb128 0x28
 2822 00c2 00       		.byte	0
 2823 00c3 03       		.uleb128 0x3
 2824 00c4 0E       		.uleb128 0xe
 2825 00c5 1C       		.uleb128 0x1c
 2826 00c6 0D       		.uleb128 0xd
 2827 00c7 00       		.byte	0
 2828 00c8 00       		.byte	0
 2829 00c9 12       		.uleb128 0x12
 2830 00ca 13       		.uleb128 0x13
 2831 00cb 01       		.byte	0x1
 2832 00cc 03       		.uleb128 0x3
 2833 00cd 0E       		.uleb128 0xe
 2834 00ce 0B       		.uleb128 0xb
 2835 00cf 0B       		.uleb128 0xb
 2836 00d0 3A       		.uleb128 0x3a
 2837 00d1 0B       		.uleb128 0xb
ARM GAS  /tmp/ccTLGzYs.s 			page 51


 2838 00d2 3B       		.uleb128 0x3b
 2839 00d3 05       		.uleb128 0x5
 2840 00d4 01       		.uleb128 0x1
 2841 00d5 13       		.uleb128 0x13
 2842 00d6 00       		.byte	0
 2843 00d7 00       		.byte	0
 2844 00d8 13       		.uleb128 0x13
 2845 00d9 0D       		.uleb128 0xd
 2846 00da 00       		.byte	0
 2847 00db 03       		.uleb128 0x3
 2848 00dc 08       		.uleb128 0x8
 2849 00dd 3A       		.uleb128 0x3a
 2850 00de 0B       		.uleb128 0xb
 2851 00df 3B       		.uleb128 0x3b
 2852 00e0 05       		.uleb128 0x5
 2853 00e1 49       		.uleb128 0x49
 2854 00e2 13       		.uleb128 0x13
 2855 00e3 38       		.uleb128 0x38
 2856 00e4 0A       		.uleb128 0xa
 2857 00e5 00       		.byte	0
 2858 00e6 00       		.byte	0
 2859 00e7 14       		.uleb128 0x14
 2860 00e8 17       		.uleb128 0x17
 2861 00e9 01       		.byte	0x1
 2862 00ea 03       		.uleb128 0x3
 2863 00eb 0E       		.uleb128 0xe
 2864 00ec 0B       		.uleb128 0xb
 2865 00ed 0B       		.uleb128 0xb
 2866 00ee 3A       		.uleb128 0x3a
 2867 00ef 0B       		.uleb128 0xb
 2868 00f0 3B       		.uleb128 0x3b
 2869 00f1 05       		.uleb128 0x5
 2870 00f2 01       		.uleb128 0x1
 2871 00f3 13       		.uleb128 0x13
 2872 00f4 00       		.byte	0
 2873 00f5 00       		.byte	0
 2874 00f6 15       		.uleb128 0x15
 2875 00f7 0D       		.uleb128 0xd
 2876 00f8 00       		.byte	0
 2877 00f9 03       		.uleb128 0x3
 2878 00fa 0E       		.uleb128 0xe
 2879 00fb 3A       		.uleb128 0x3a
 2880 00fc 0B       		.uleb128 0xb
 2881 00fd 3B       		.uleb128 0x3b
 2882 00fe 05       		.uleb128 0x5
 2883 00ff 49       		.uleb128 0x49
 2884 0100 13       		.uleb128 0x13
 2885 0101 00       		.byte	0
 2886 0102 00       		.byte	0
 2887 0103 16       		.uleb128 0x16
 2888 0104 04       		.uleb128 0x4
 2889 0105 01       		.byte	0x1
 2890 0106 0B       		.uleb128 0xb
 2891 0107 0B       		.uleb128 0xb
 2892 0108 3A       		.uleb128 0x3a
 2893 0109 0B       		.uleb128 0xb
 2894 010a 3B       		.uleb128 0x3b
ARM GAS  /tmp/ccTLGzYs.s 			page 52


 2895 010b 0B       		.uleb128 0xb
 2896 010c 01       		.uleb128 0x1
 2897 010d 13       		.uleb128 0x13
 2898 010e 00       		.byte	0
 2899 010f 00       		.byte	0
 2900 0110 17       		.uleb128 0x17
 2901 0111 2E       		.uleb128 0x2e
 2902 0112 01       		.byte	0x1
 2903 0113 3F       		.uleb128 0x3f
 2904 0114 0C       		.uleb128 0xc
 2905 0115 03       		.uleb128 0x3
 2906 0116 0E       		.uleb128 0xe
 2907 0117 3A       		.uleb128 0x3a
 2908 0118 0B       		.uleb128 0xb
 2909 0119 3B       		.uleb128 0x3b
 2910 011a 05       		.uleb128 0x5
 2911 011b 27       		.uleb128 0x27
 2912 011c 0C       		.uleb128 0xc
 2913 011d 20       		.uleb128 0x20
 2914 011e 0B       		.uleb128 0xb
 2915 011f 01       		.uleb128 0x1
 2916 0120 13       		.uleb128 0x13
 2917 0121 00       		.byte	0
 2918 0122 00       		.byte	0
 2919 0123 18       		.uleb128 0x18
 2920 0124 05       		.uleb128 0x5
 2921 0125 00       		.byte	0
 2922 0126 03       		.uleb128 0x3
 2923 0127 0E       		.uleb128 0xe
 2924 0128 3A       		.uleb128 0x3a
 2925 0129 0B       		.uleb128 0xb
 2926 012a 3B       		.uleb128 0x3b
 2927 012b 05       		.uleb128 0x5
 2928 012c 49       		.uleb128 0x49
 2929 012d 13       		.uleb128 0x13
 2930 012e 00       		.byte	0
 2931 012f 00       		.byte	0
 2932 0130 19       		.uleb128 0x19
 2933 0131 05       		.uleb128 0x5
 2934 0132 00       		.byte	0
 2935 0133 03       		.uleb128 0x3
 2936 0134 08       		.uleb128 0x8
 2937 0135 3A       		.uleb128 0x3a
 2938 0136 0B       		.uleb128 0xb
 2939 0137 3B       		.uleb128 0x3b
 2940 0138 05       		.uleb128 0x5
 2941 0139 49       		.uleb128 0x49
 2942 013a 13       		.uleb128 0x13
 2943 013b 00       		.byte	0
 2944 013c 00       		.byte	0
 2945 013d 1A       		.uleb128 0x1a
 2946 013e 2E       		.uleb128 0x2e
 2947 013f 00       		.byte	0
 2948 0140 3F       		.uleb128 0x3f
 2949 0141 0C       		.uleb128 0xc
 2950 0142 03       		.uleb128 0x3
 2951 0143 0E       		.uleb128 0xe
ARM GAS  /tmp/ccTLGzYs.s 			page 53


 2952 0144 3A       		.uleb128 0x3a
 2953 0145 0B       		.uleb128 0xb
 2954 0146 3B       		.uleb128 0x3b
 2955 0147 0B       		.uleb128 0xb
 2956 0148 27       		.uleb128 0x27
 2957 0149 0C       		.uleb128 0xc
 2958 014a 11       		.uleb128 0x11
 2959 014b 01       		.uleb128 0x1
 2960 014c 12       		.uleb128 0x12
 2961 014d 01       		.uleb128 0x1
 2962 014e 40       		.uleb128 0x40
 2963 014f 0A       		.uleb128 0xa
 2964 0150 9742     		.uleb128 0x2117
 2965 0152 0C       		.uleb128 0xc
 2966 0153 00       		.byte	0
 2967 0154 00       		.byte	0
 2968 0155 1B       		.uleb128 0x1b
 2969 0156 2E       		.uleb128 0x2e
 2970 0157 01       		.byte	0x1
 2971 0158 3F       		.uleb128 0x3f
 2972 0159 0C       		.uleb128 0xc
 2973 015a 03       		.uleb128 0x3
 2974 015b 0E       		.uleb128 0xe
 2975 015c 3A       		.uleb128 0x3a
 2976 015d 0B       		.uleb128 0xb
 2977 015e 3B       		.uleb128 0x3b
 2978 015f 0B       		.uleb128 0xb
 2979 0160 27       		.uleb128 0x27
 2980 0161 0C       		.uleb128 0xc
 2981 0162 11       		.uleb128 0x11
 2982 0163 01       		.uleb128 0x1
 2983 0164 12       		.uleb128 0x12
 2984 0165 01       		.uleb128 0x1
 2985 0166 40       		.uleb128 0x40
 2986 0167 0A       		.uleb128 0xa
 2987 0168 9742     		.uleb128 0x2117
 2988 016a 0C       		.uleb128 0xc
 2989 016b 01       		.uleb128 0x1
 2990 016c 13       		.uleb128 0x13
 2991 016d 00       		.byte	0
 2992 016e 00       		.byte	0
 2993 016f 1C       		.uleb128 0x1c
 2994 0170 05       		.uleb128 0x5
 2995 0171 00       		.byte	0
 2996 0172 03       		.uleb128 0x3
 2997 0173 0E       		.uleb128 0xe
 2998 0174 3A       		.uleb128 0x3a
 2999 0175 0B       		.uleb128 0xb
 3000 0176 3B       		.uleb128 0x3b
 3001 0177 0B       		.uleb128 0xb
 3002 0178 49       		.uleb128 0x49
 3003 0179 13       		.uleb128 0x13
 3004 017a 02       		.uleb128 0x2
 3005 017b 0A       		.uleb128 0xa
 3006 017c 00       		.byte	0
 3007 017d 00       		.byte	0
 3008 017e 1D       		.uleb128 0x1d
ARM GAS  /tmp/ccTLGzYs.s 			page 54


 3009 017f 1D       		.uleb128 0x1d
 3010 0180 01       		.byte	0x1
 3011 0181 31       		.uleb128 0x31
 3012 0182 13       		.uleb128 0x13
 3013 0183 11       		.uleb128 0x11
 3014 0184 01       		.uleb128 0x1
 3015 0185 12       		.uleb128 0x12
 3016 0186 01       		.uleb128 0x1
 3017 0187 58       		.uleb128 0x58
 3018 0188 0B       		.uleb128 0xb
 3019 0189 59       		.uleb128 0x59
 3020 018a 0B       		.uleb128 0xb
 3021 018b 01       		.uleb128 0x1
 3022 018c 13       		.uleb128 0x13
 3023 018d 00       		.byte	0
 3024 018e 00       		.byte	0
 3025 018f 1E       		.uleb128 0x1e
 3026 0190 05       		.uleb128 0x5
 3027 0191 00       		.byte	0
 3028 0192 31       		.uleb128 0x31
 3029 0193 13       		.uleb128 0x13
 3030 0194 02       		.uleb128 0x2
 3031 0195 06       		.uleb128 0x6
 3032 0196 00       		.byte	0
 3033 0197 00       		.byte	0
 3034 0198 1F       		.uleb128 0x1f
 3035 0199 0B       		.uleb128 0xb
 3036 019a 01       		.byte	0x1
 3037 019b 11       		.uleb128 0x11
 3038 019c 01       		.uleb128 0x1
 3039 019d 12       		.uleb128 0x12
 3040 019e 01       		.uleb128 0x1
 3041 019f 01       		.uleb128 0x1
 3042 01a0 13       		.uleb128 0x13
 3043 01a1 00       		.byte	0
 3044 01a2 00       		.byte	0
 3045 01a3 20       		.uleb128 0x20
 3046 01a4 34       		.uleb128 0x34
 3047 01a5 00       		.byte	0
 3048 01a6 03       		.uleb128 0x3
 3049 01a7 0E       		.uleb128 0xe
 3050 01a8 3A       		.uleb128 0x3a
 3051 01a9 0B       		.uleb128 0xb
 3052 01aa 3B       		.uleb128 0x3b
 3053 01ab 05       		.uleb128 0x5
 3054 01ac 49       		.uleb128 0x49
 3055 01ad 13       		.uleb128 0x13
 3056 01ae 02       		.uleb128 0x2
 3057 01af 06       		.uleb128 0x6
 3058 01b0 00       		.byte	0
 3059 01b1 00       		.byte	0
 3060 01b2 21       		.uleb128 0x21
 3061 01b3 1D       		.uleb128 0x1d
 3062 01b4 01       		.byte	0x1
 3063 01b5 31       		.uleb128 0x31
 3064 01b6 13       		.uleb128 0x13
 3065 01b7 11       		.uleb128 0x11
ARM GAS  /tmp/ccTLGzYs.s 			page 55


 3066 01b8 01       		.uleb128 0x1
 3067 01b9 12       		.uleb128 0x12
 3068 01ba 01       		.uleb128 0x1
 3069 01bb 58       		.uleb128 0x58
 3070 01bc 0B       		.uleb128 0xb
 3071 01bd 59       		.uleb128 0x59
 3072 01be 05       		.uleb128 0x5
 3073 01bf 00       		.byte	0
 3074 01c0 00       		.byte	0
 3075 01c1 22       		.uleb128 0x22
 3076 01c2 2E       		.uleb128 0x2e
 3077 01c3 01       		.byte	0x1
 3078 01c4 3F       		.uleb128 0x3f
 3079 01c5 0C       		.uleb128 0xc
 3080 01c6 03       		.uleb128 0x3
 3081 01c7 0E       		.uleb128 0xe
 3082 01c8 3A       		.uleb128 0x3a
 3083 01c9 0B       		.uleb128 0xb
 3084 01ca 3B       		.uleb128 0x3b
 3085 01cb 05       		.uleb128 0x5
 3086 01cc 27       		.uleb128 0x27
 3087 01cd 0C       		.uleb128 0xc
 3088 01ce 49       		.uleb128 0x49
 3089 01cf 13       		.uleb128 0x13
 3090 01d0 11       		.uleb128 0x11
 3091 01d1 01       		.uleb128 0x1
 3092 01d2 12       		.uleb128 0x12
 3093 01d3 01       		.uleb128 0x1
 3094 01d4 40       		.uleb128 0x40
 3095 01d5 06       		.uleb128 0x6
 3096 01d6 9742     		.uleb128 0x2117
 3097 01d8 0C       		.uleb128 0xc
 3098 01d9 01       		.uleb128 0x1
 3099 01da 13       		.uleb128 0x13
 3100 01db 00       		.byte	0
 3101 01dc 00       		.byte	0
 3102 01dd 23       		.uleb128 0x23
 3103 01de 05       		.uleb128 0x5
 3104 01df 00       		.byte	0
 3105 01e0 03       		.uleb128 0x3
 3106 01e1 0E       		.uleb128 0xe
 3107 01e2 3A       		.uleb128 0x3a
 3108 01e3 0B       		.uleb128 0xb
 3109 01e4 3B       		.uleb128 0x3b
 3110 01e5 05       		.uleb128 0x5
 3111 01e6 49       		.uleb128 0x49
 3112 01e7 13       		.uleb128 0x13
 3113 01e8 02       		.uleb128 0x2
 3114 01e9 06       		.uleb128 0x6
 3115 01ea 00       		.byte	0
 3116 01eb 00       		.byte	0
 3117 01ec 24       		.uleb128 0x24
 3118 01ed 34       		.uleb128 0x34
 3119 01ee 00       		.byte	0
 3120 01ef 03       		.uleb128 0x3
 3121 01f0 08       		.uleb128 0x8
 3122 01f1 3A       		.uleb128 0x3a
ARM GAS  /tmp/ccTLGzYs.s 			page 56


 3123 01f2 0B       		.uleb128 0xb
 3124 01f3 3B       		.uleb128 0x3b
 3125 01f4 05       		.uleb128 0x5
 3126 01f5 49       		.uleb128 0x49
 3127 01f6 13       		.uleb128 0x13
 3128 01f7 02       		.uleb128 0x2
 3129 01f8 06       		.uleb128 0x6
 3130 01f9 00       		.byte	0
 3131 01fa 00       		.byte	0
 3132 01fb 25       		.uleb128 0x25
 3133 01fc 2E       		.uleb128 0x2e
 3134 01fd 01       		.byte	0x1
 3135 01fe 3F       		.uleb128 0x3f
 3136 01ff 0C       		.uleb128 0xc
 3137 0200 03       		.uleb128 0x3
 3138 0201 0E       		.uleb128 0xe
 3139 0202 3A       		.uleb128 0x3a
 3140 0203 0B       		.uleb128 0xb
 3141 0204 3B       		.uleb128 0x3b
 3142 0205 05       		.uleb128 0x5
 3143 0206 27       		.uleb128 0x27
 3144 0207 0C       		.uleb128 0xc
 3145 0208 11       		.uleb128 0x11
 3146 0209 01       		.uleb128 0x1
 3147 020a 12       		.uleb128 0x12
 3148 020b 01       		.uleb128 0x1
 3149 020c 40       		.uleb128 0x40
 3150 020d 06       		.uleb128 0x6
 3151 020e 9742     		.uleb128 0x2117
 3152 0210 0C       		.uleb128 0xc
 3153 0211 01       		.uleb128 0x1
 3154 0212 13       		.uleb128 0x13
 3155 0213 00       		.byte	0
 3156 0214 00       		.byte	0
 3157 0215 26       		.uleb128 0x26
 3158 0216 0B       		.uleb128 0xb
 3159 0217 01       		.byte	0x1
 3160 0218 11       		.uleb128 0x11
 3161 0219 01       		.uleb128 0x1
 3162 021a 12       		.uleb128 0x12
 3163 021b 01       		.uleb128 0x1
 3164 021c 00       		.byte	0
 3165 021d 00       		.byte	0
 3166 021e 27       		.uleb128 0x27
 3167 021f 898201   		.uleb128 0x4109
 3168 0222 00       		.byte	0
 3169 0223 11       		.uleb128 0x11
 3170 0224 01       		.uleb128 0x1
 3171 0225 31       		.uleb128 0x31
 3172 0226 13       		.uleb128 0x13
 3173 0227 00       		.byte	0
 3174 0228 00       		.byte	0
 3175 0229 28       		.uleb128 0x28
 3176 022a 2E       		.uleb128 0x2e
 3177 022b 01       		.byte	0x1
 3178 022c 3F       		.uleb128 0x3f
 3179 022d 0C       		.uleb128 0xc
ARM GAS  /tmp/ccTLGzYs.s 			page 57


 3180 022e 03       		.uleb128 0x3
 3181 022f 0E       		.uleb128 0xe
 3182 0230 3A       		.uleb128 0x3a
 3183 0231 0B       		.uleb128 0xb
 3184 0232 3B       		.uleb128 0x3b
 3185 0233 0B       		.uleb128 0xb
 3186 0234 27       		.uleb128 0x27
 3187 0235 0C       		.uleb128 0xc
 3188 0236 11       		.uleb128 0x11
 3189 0237 01       		.uleb128 0x1
 3190 0238 12       		.uleb128 0x12
 3191 0239 01       		.uleb128 0x1
 3192 023a 40       		.uleb128 0x40
 3193 023b 06       		.uleb128 0x6
 3194 023c 9742     		.uleb128 0x2117
 3195 023e 0C       		.uleb128 0xc
 3196 023f 01       		.uleb128 0x1
 3197 0240 13       		.uleb128 0x13
 3198 0241 00       		.byte	0
 3199 0242 00       		.byte	0
 3200 0243 29       		.uleb128 0x29
 3201 0244 05       		.uleb128 0x5
 3202 0245 00       		.byte	0
 3203 0246 03       		.uleb128 0x3
 3204 0247 0E       		.uleb128 0xe
 3205 0248 3A       		.uleb128 0x3a
 3206 0249 0B       		.uleb128 0xb
 3207 024a 3B       		.uleb128 0x3b
 3208 024b 0B       		.uleb128 0xb
 3209 024c 49       		.uleb128 0x49
 3210 024d 13       		.uleb128 0x13
 3211 024e 02       		.uleb128 0x2
 3212 024f 06       		.uleb128 0x6
 3213 0250 00       		.byte	0
 3214 0251 00       		.byte	0
 3215 0252 2A       		.uleb128 0x2a
 3216 0253 05       		.uleb128 0x5
 3217 0254 00       		.byte	0
 3218 0255 03       		.uleb128 0x3
 3219 0256 08       		.uleb128 0x8
 3220 0257 3A       		.uleb128 0x3a
 3221 0258 0B       		.uleb128 0xb
 3222 0259 3B       		.uleb128 0x3b
 3223 025a 0B       		.uleb128 0xb
 3224 025b 49       		.uleb128 0x49
 3225 025c 13       		.uleb128 0x13
 3226 025d 02       		.uleb128 0x2
 3227 025e 06       		.uleb128 0x6
 3228 025f 00       		.byte	0
 3229 0260 00       		.byte	0
 3230 0261 2B       		.uleb128 0x2b
 3231 0262 05       		.uleb128 0x5
 3232 0263 00       		.byte	0
 3233 0264 31       		.uleb128 0x31
 3234 0265 13       		.uleb128 0x13
 3235 0266 02       		.uleb128 0x2
 3236 0267 0A       		.uleb128 0xa
ARM GAS  /tmp/ccTLGzYs.s 			page 58


 3237 0268 00       		.byte	0
 3238 0269 00       		.byte	0
 3239 026a 2C       		.uleb128 0x2c
 3240 026b 898201   		.uleb128 0x4109
 3241 026e 01       		.byte	0x1
 3242 026f 11       		.uleb128 0x11
 3243 0270 01       		.uleb128 0x1
 3244 0271 31       		.uleb128 0x31
 3245 0272 13       		.uleb128 0x13
 3246 0273 00       		.byte	0
 3247 0274 00       		.byte	0
 3248 0275 2D       		.uleb128 0x2d
 3249 0276 8A8201   		.uleb128 0x410a
 3250 0279 00       		.byte	0
 3251 027a 02       		.uleb128 0x2
 3252 027b 0A       		.uleb128 0xa
 3253 027c 9142     		.uleb128 0x2111
 3254 027e 0A       		.uleb128 0xa
 3255 027f 00       		.byte	0
 3256 0280 00       		.byte	0
 3257 0281 2E       		.uleb128 0x2e
 3258 0282 2E       		.uleb128 0x2e
 3259 0283 01       		.byte	0x1
 3260 0284 3F       		.uleb128 0x3f
 3261 0285 0C       		.uleb128 0xc
 3262 0286 03       		.uleb128 0x3
 3263 0287 0E       		.uleb128 0xe
 3264 0288 3A       		.uleb128 0x3a
 3265 0289 0B       		.uleb128 0xb
 3266 028a 3B       		.uleb128 0x3b
 3267 028b 0B       		.uleb128 0xb
 3268 028c 27       		.uleb128 0x27
 3269 028d 0C       		.uleb128 0xc
 3270 028e 49       		.uleb128 0x49
 3271 028f 13       		.uleb128 0x13
 3272 0290 11       		.uleb128 0x11
 3273 0291 01       		.uleb128 0x1
 3274 0292 12       		.uleb128 0x12
 3275 0293 01       		.uleb128 0x1
 3276 0294 40       		.uleb128 0x40
 3277 0295 06       		.uleb128 0x6
 3278 0296 9742     		.uleb128 0x2117
 3279 0298 0C       		.uleb128 0xc
 3280 0299 01       		.uleb128 0x1
 3281 029a 13       		.uleb128 0x13
 3282 029b 00       		.byte	0
 3283 029c 00       		.byte	0
 3284 029d 2F       		.uleb128 0x2f
 3285 029e 34       		.uleb128 0x34
 3286 029f 00       		.byte	0
 3287 02a0 03       		.uleb128 0x3
 3288 02a1 0E       		.uleb128 0xe
 3289 02a2 3A       		.uleb128 0x3a
 3290 02a3 0B       		.uleb128 0xb
 3291 02a4 3B       		.uleb128 0x3b
 3292 02a5 0B       		.uleb128 0xb
 3293 02a6 49       		.uleb128 0x49
ARM GAS  /tmp/ccTLGzYs.s 			page 59


 3294 02a7 13       		.uleb128 0x13
 3295 02a8 02       		.uleb128 0x2
 3296 02a9 0A       		.uleb128 0xa
 3297 02aa 00       		.byte	0
 3298 02ab 00       		.byte	0
 3299 02ac 30       		.uleb128 0x30
 3300 02ad 898201   		.uleb128 0x4109
 3301 02b0 01       		.byte	0x1
 3302 02b1 11       		.uleb128 0x11
 3303 02b2 01       		.uleb128 0x1
 3304 02b3 31       		.uleb128 0x31
 3305 02b4 13       		.uleb128 0x13
 3306 02b5 01       		.uleb128 0x1
 3307 02b6 13       		.uleb128 0x13
 3308 02b7 00       		.byte	0
 3309 02b8 00       		.byte	0
 3310 02b9 31       		.uleb128 0x31
 3311 02ba 898201   		.uleb128 0x4109
 3312 02bd 01       		.byte	0x1
 3313 02be 11       		.uleb128 0x11
 3314 02bf 01       		.uleb128 0x1
 3315 02c0 01       		.uleb128 0x1
 3316 02c1 13       		.uleb128 0x13
 3317 02c2 00       		.byte	0
 3318 02c3 00       		.byte	0
 3319 02c4 32       		.uleb128 0x32
 3320 02c5 2E       		.uleb128 0x2e
 3321 02c6 01       		.byte	0x1
 3322 02c7 31       		.uleb128 0x31
 3323 02c8 13       		.uleb128 0x13
 3324 02c9 11       		.uleb128 0x11
 3325 02ca 01       		.uleb128 0x1
 3326 02cb 12       		.uleb128 0x12
 3327 02cc 01       		.uleb128 0x1
 3328 02cd 40       		.uleb128 0x40
 3329 02ce 0A       		.uleb128 0xa
 3330 02cf 9742     		.uleb128 0x2117
 3331 02d1 0C       		.uleb128 0xc
 3332 02d2 01       		.uleb128 0x1
 3333 02d3 13       		.uleb128 0x13
 3334 02d4 00       		.byte	0
 3335 02d5 00       		.byte	0
 3336 02d6 33       		.uleb128 0x33
 3337 02d7 2E       		.uleb128 0x2e
 3338 02d8 01       		.byte	0x1
 3339 02d9 3F       		.uleb128 0x3f
 3340 02da 0C       		.uleb128 0xc
 3341 02db 03       		.uleb128 0x3
 3342 02dc 0E       		.uleb128 0xe
 3343 02dd 3A       		.uleb128 0x3a
 3344 02de 0B       		.uleb128 0xb
 3345 02df 3B       		.uleb128 0x3b
 3346 02e0 05       		.uleb128 0x5
 3347 02e1 27       		.uleb128 0x27
 3348 02e2 0C       		.uleb128 0xc
 3349 02e3 11       		.uleb128 0x11
 3350 02e4 01       		.uleb128 0x1
ARM GAS  /tmp/ccTLGzYs.s 			page 60


 3351 02e5 12       		.uleb128 0x12
 3352 02e6 01       		.uleb128 0x1
 3353 02e7 40       		.uleb128 0x40
 3354 02e8 0A       		.uleb128 0xa
 3355 02e9 9742     		.uleb128 0x2117
 3356 02eb 0C       		.uleb128 0xc
 3357 02ec 01       		.uleb128 0x1
 3358 02ed 13       		.uleb128 0x13
 3359 02ee 00       		.byte	0
 3360 02ef 00       		.byte	0
 3361 02f0 34       		.uleb128 0x34
 3362 02f1 898201   		.uleb128 0x4109
 3363 02f4 01       		.byte	0x1
 3364 02f5 11       		.uleb128 0x11
 3365 02f6 01       		.uleb128 0x1
 3366 02f7 9542     		.uleb128 0x2115
 3367 02f9 0C       		.uleb128 0xc
 3368 02fa 31       		.uleb128 0x31
 3369 02fb 13       		.uleb128 0x13
 3370 02fc 00       		.byte	0
 3371 02fd 00       		.byte	0
 3372 02fe 35       		.uleb128 0x35
 3373 02ff 05       		.uleb128 0x5
 3374 0300 00       		.byte	0
 3375 0301 03       		.uleb128 0x3
 3376 0302 0E       		.uleb128 0xe
 3377 0303 3A       		.uleb128 0x3a
 3378 0304 0B       		.uleb128 0xb
 3379 0305 3B       		.uleb128 0x3b
 3380 0306 05       		.uleb128 0x5
 3381 0307 49       		.uleb128 0x49
 3382 0308 13       		.uleb128 0x13
 3383 0309 02       		.uleb128 0x2
 3384 030a 0A       		.uleb128 0xa
 3385 030b 00       		.byte	0
 3386 030c 00       		.byte	0
 3387 030d 36       		.uleb128 0x36
 3388 030e 34       		.uleb128 0x34
 3389 030f 00       		.byte	0
 3390 0310 03       		.uleb128 0x3
 3391 0311 0E       		.uleb128 0xe
 3392 0312 3A       		.uleb128 0x3a
 3393 0313 0B       		.uleb128 0xb
 3394 0314 3B       		.uleb128 0x3b
 3395 0315 0B       		.uleb128 0xb
 3396 0316 49       		.uleb128 0x49
 3397 0317 13       		.uleb128 0x13
 3398 0318 3F       		.uleb128 0x3f
 3399 0319 0C       		.uleb128 0xc
 3400 031a 02       		.uleb128 0x2
 3401 031b 0A       		.uleb128 0xa
 3402 031c 00       		.byte	0
 3403 031d 00       		.byte	0
 3404 031e 37       		.uleb128 0x37
 3405 031f 34       		.uleb128 0x34
 3406 0320 00       		.byte	0
 3407 0321 03       		.uleb128 0x3
ARM GAS  /tmp/ccTLGzYs.s 			page 61


 3408 0322 0E       		.uleb128 0xe
 3409 0323 3A       		.uleb128 0x3a
 3410 0324 0B       		.uleb128 0xb
 3411 0325 3B       		.uleb128 0x3b
 3412 0326 05       		.uleb128 0x5
 3413 0327 49       		.uleb128 0x49
 3414 0328 13       		.uleb128 0x13
 3415 0329 3F       		.uleb128 0x3f
 3416 032a 0C       		.uleb128 0xc
 3417 032b 3C       		.uleb128 0x3c
 3418 032c 0C       		.uleb128 0xc
 3419 032d 00       		.byte	0
 3420 032e 00       		.byte	0
 3421 032f 38       		.uleb128 0x38
 3422 0330 2E       		.uleb128 0x2e
 3423 0331 01       		.byte	0x1
 3424 0332 3F       		.uleb128 0x3f
 3425 0333 0C       		.uleb128 0xc
 3426 0334 03       		.uleb128 0x3
 3427 0335 0E       		.uleb128 0xe
 3428 0336 3A       		.uleb128 0x3a
 3429 0337 0B       		.uleb128 0xb
 3430 0338 3B       		.uleb128 0x3b
 3431 0339 05       		.uleb128 0x5
 3432 033a 27       		.uleb128 0x27
 3433 033b 0C       		.uleb128 0xc
 3434 033c 3C       		.uleb128 0x3c
 3435 033d 0C       		.uleb128 0xc
 3436 033e 01       		.uleb128 0x1
 3437 033f 13       		.uleb128 0x13
 3438 0340 00       		.byte	0
 3439 0341 00       		.byte	0
 3440 0342 39       		.uleb128 0x39
 3441 0343 2E       		.uleb128 0x2e
 3442 0344 00       		.byte	0
 3443 0345 3F       		.uleb128 0x3f
 3444 0346 0C       		.uleb128 0xc
 3445 0347 03       		.uleb128 0x3
 3446 0348 0E       		.uleb128 0xe
 3447 0349 3A       		.uleb128 0x3a
 3448 034a 0B       		.uleb128 0xb
 3449 034b 3B       		.uleb128 0x3b
 3450 034c 05       		.uleb128 0x5
 3451 034d 27       		.uleb128 0x27
 3452 034e 0C       		.uleb128 0xc
 3453 034f 3C       		.uleb128 0x3c
 3454 0350 0C       		.uleb128 0xc
 3455 0351 00       		.byte	0
 3456 0352 00       		.byte	0
 3457 0353 3A       		.uleb128 0x3a
 3458 0354 2E       		.uleb128 0x2e
 3459 0355 01       		.byte	0x1
 3460 0356 3F       		.uleb128 0x3f
 3461 0357 0C       		.uleb128 0xc
 3462 0358 03       		.uleb128 0x3
 3463 0359 0E       		.uleb128 0xe
 3464 035a 3A       		.uleb128 0x3a
ARM GAS  /tmp/ccTLGzYs.s 			page 62


 3465 035b 0B       		.uleb128 0xb
 3466 035c 3B       		.uleb128 0x3b
 3467 035d 0B       		.uleb128 0xb
 3468 035e 27       		.uleb128 0x27
 3469 035f 0C       		.uleb128 0xc
 3470 0360 49       		.uleb128 0x49
 3471 0361 13       		.uleb128 0x13
 3472 0362 3C       		.uleb128 0x3c
 3473 0363 0C       		.uleb128 0xc
 3474 0364 00       		.byte	0
 3475 0365 00       		.byte	0
 3476 0366 00       		.byte	0
 3477              		.section	.debug_loc,"",%progbits
 3478              	.Ldebug_loc0:
 3479              	.LLST0:
 3480 0000 08000000 		.4byte	.LVL1
 3481 0004 44000000 		.4byte	.LVL9
 3482 0008 0100     		.2byte	0x1
 3483 000a 50       		.byte	0x50
 3484 000b 00000000 		.4byte	0
 3485 000f 00000000 		.4byte	0
 3486              	.LLST1:
 3487 0013 1A000000 		.4byte	.LVL2
 3488 0017 22000000 		.4byte	.LVL3
 3489 001b 0100     		.2byte	0x1
 3490 001d 52       		.byte	0x52
 3491 001e 22000000 		.4byte	.LVL3
 3492 0022 2C000000 		.4byte	.LVL4
 3493 0026 0100     		.2byte	0x1
 3494 0028 53       		.byte	0x53
 3495 0029 2C000000 		.4byte	.LVL4
 3496 002d 30000000 		.4byte	.LVL5
 3497 0031 0100     		.2byte	0x1
 3498 0033 52       		.byte	0x52
 3499 0034 30000000 		.4byte	.LVL5
 3500 0038 32000000 		.4byte	.LVL6
 3501 003c 0100     		.2byte	0x1
 3502 003e 53       		.byte	0x53
 3503 003f 32000000 		.4byte	.LVL6
 3504 0043 34000000 		.4byte	.LVL7
 3505 0047 0100     		.2byte	0x1
 3506 0049 52       		.byte	0x52
 3507 004a 00000000 		.4byte	0
 3508 004e 00000000 		.4byte	0
 3509              	.LLST2:
 3510 0052 40000000 		.4byte	.LVL8
 3511 0056 44000000 		.4byte	.LVL9
 3512 005a 0200     		.2byte	0x2
 3513 005c 30       		.byte	0x30
 3514 005d 9F       		.byte	0x9f
 3515 005e 00000000 		.4byte	0
 3516 0062 00000000 		.4byte	0
 3517              	.LLST3:
 3518 0066 00000000 		.4byte	.LFB11
 3519 006a 02000000 		.4byte	.LCFI0
 3520 006e 0200     		.2byte	0x2
 3521 0070 7D       		.byte	0x7d
ARM GAS  /tmp/ccTLGzYs.s 			page 63


 3522 0071 00       		.sleb128 0
 3523 0072 02000000 		.4byte	.LCFI0
 3524 0076 40000000 		.4byte	.LFE11
 3525 007a 0200     		.2byte	0x2
 3526 007c 7D       		.byte	0x7d
 3527 007d 04       		.sleb128 4
 3528 007e 00000000 		.4byte	0
 3529 0082 00000000 		.4byte	0
 3530              	.LLST4:
 3531 0086 00000000 		.4byte	.LVL10
 3532 008a 34000000 		.4byte	.LVL14
 3533 008e 0100     		.2byte	0x1
 3534 0090 50       		.byte	0x50
 3535 0091 34000000 		.4byte	.LVL14
 3536 0095 38000000 		.4byte	.LVL15
 3537 0099 0400     		.2byte	0x4
 3538 009b F3       		.byte	0xf3
 3539 009c 01       		.uleb128 0x1
 3540 009d 50       		.byte	0x50
 3541 009e 9F       		.byte	0x9f
 3542 009f 38000000 		.4byte	.LVL15
 3543 00a3 40000000 		.4byte	.LFE11
 3544 00a7 0100     		.2byte	0x1
 3545 00a9 50       		.byte	0x50
 3546 00aa 00000000 		.4byte	0
 3547 00ae 00000000 		.4byte	0
 3548              	.LLST5:
 3549 00b2 0E000000 		.4byte	.LVL11
 3550 00b6 32000000 		.4byte	.LVL13
 3551 00ba 0100     		.2byte	0x1
 3552 00bc 53       		.byte	0x53
 3553 00bd 00000000 		.4byte	0
 3554 00c1 00000000 		.4byte	0
 3555              	.LLST6:
 3556 00c5 0E000000 		.4byte	.LVL11
 3557 00c9 32000000 		.4byte	.LVL13
 3558 00cd 0100     		.2byte	0x1
 3559 00cf 51       		.byte	0x51
 3560 00d0 00000000 		.4byte	0
 3561 00d4 00000000 		.4byte	0
 3562              	.LLST7:
 3563 00d8 00000000 		.4byte	.LFB12
 3564 00dc 02000000 		.4byte	.LCFI1
 3565 00e0 0200     		.2byte	0x2
 3566 00e2 7D       		.byte	0x7d
 3567 00e3 00       		.sleb128 0
 3568 00e4 02000000 		.4byte	.LCFI1
 3569 00e8 60000000 		.4byte	.LFE12
 3570 00ec 0200     		.2byte	0x2
 3571 00ee 7D       		.byte	0x7d
 3572 00ef 10       		.sleb128 16
 3573 00f0 00000000 		.4byte	0
 3574 00f4 00000000 		.4byte	0
 3575              	.LLST8:
 3576 00f8 00000000 		.4byte	.LVL16
 3577 00fc 12000000 		.4byte	.LVL17
 3578 0100 0100     		.2byte	0x1
ARM GAS  /tmp/ccTLGzYs.s 			page 64


 3579 0102 50       		.byte	0x50
 3580 0103 12000000 		.4byte	.LVL17
 3581 0107 60000000 		.4byte	.LFE12
 3582 010b 0100     		.2byte	0x1
 3583 010d 55       		.byte	0x55
 3584 010e 00000000 		.4byte	0
 3585 0112 00000000 		.4byte	0
 3586              	.LLST9:
 3587 0116 00000000 		.4byte	.LVL16
 3588 011a 1E000000 		.4byte	.LVL19
 3589 011e 0100     		.2byte	0x1
 3590 0120 51       		.byte	0x51
 3591 0121 1E000000 		.4byte	.LVL19
 3592 0125 60000000 		.4byte	.LFE12
 3593 0129 0100     		.2byte	0x1
 3594 012b 56       		.byte	0x56
 3595 012c 00000000 		.4byte	0
 3596 0130 00000000 		.4byte	0
 3597              	.LLST10:
 3598 0134 12000000 		.4byte	.LVL17
 3599 0138 1C000000 		.4byte	.LVL18
 3600 013c 0100     		.2byte	0x1
 3601 013e 50       		.byte	0x50
 3602 013f 1C000000 		.4byte	.LVL18
 3603 0143 1E000000 		.4byte	.LVL19
 3604 0147 0200     		.2byte	0x2
 3605 0149 73       		.byte	0x73
 3606 014a 00       		.sleb128 0
 3607 014b 1E000000 		.4byte	.LVL19
 3608 014f 2A000000 		.4byte	.LVL20
 3609 0153 0100     		.2byte	0x1
 3610 0155 50       		.byte	0x50
 3611 0156 32000000 		.4byte	.LVL22
 3612 015a 38000000 		.4byte	.LVL23
 3613 015e 0100     		.2byte	0x1
 3614 0160 54       		.byte	0x54
 3615 0161 38000000 		.4byte	.LVL23
 3616 0165 40000000 		.4byte	.LVL25
 3617 0169 0100     		.2byte	0x1
 3618 016b 50       		.byte	0x50
 3619 016c 00000000 		.4byte	0
 3620 0170 00000000 		.4byte	0
 3621              	.LLST11:
 3622 0174 3E000000 		.4byte	.LVL24
 3623 0178 54000000 		.4byte	.LVL27
 3624 017c 0100     		.2byte	0x1
 3625 017e 53       		.byte	0x53
 3626 017f 00000000 		.4byte	0
 3627 0183 00000000 		.4byte	0
 3628              	.LLST12:
 3629 0187 2E000000 		.4byte	.LVL21
 3630 018b 38000000 		.4byte	.LVL23
 3631 018f 0100     		.2byte	0x1
 3632 0191 54       		.byte	0x54
 3633 0192 00000000 		.4byte	0
 3634 0196 00000000 		.4byte	0
 3635              	.LLST13:
ARM GAS  /tmp/ccTLGzYs.s 			page 65


 3636 019a 00000000 		.4byte	.LFB9
 3637 019e 02000000 		.4byte	.LCFI2
 3638 01a2 0200     		.2byte	0x2
 3639 01a4 7D       		.byte	0x7d
 3640 01a5 00       		.sleb128 0
 3641 01a6 02000000 		.4byte	.LCFI2
 3642 01aa 1A000000 		.4byte	.LFE9
 3643 01ae 0200     		.2byte	0x2
 3644 01b0 7D       		.byte	0x7d
 3645 01b1 10       		.sleb128 16
 3646 01b2 00000000 		.4byte	0
 3647 01b6 00000000 		.4byte	0
 3648              	.LLST14:
 3649 01ba 00000000 		.4byte	.LVL28
 3650 01be 0B000000 		.4byte	.LVL29-1
 3651 01c2 0100     		.2byte	0x1
 3652 01c4 50       		.byte	0x50
 3653 01c5 0B000000 		.4byte	.LVL29-1
 3654 01c9 1A000000 		.4byte	.LFE9
 3655 01cd 0100     		.2byte	0x1
 3656 01cf 54       		.byte	0x54
 3657 01d0 00000000 		.4byte	0
 3658 01d4 00000000 		.4byte	0
 3659              	.LLST15:
 3660 01d8 00000000 		.4byte	.LVL28
 3661 01dc 0B000000 		.4byte	.LVL29-1
 3662 01e0 0100     		.2byte	0x1
 3663 01e2 51       		.byte	0x51
 3664 01e3 0B000000 		.4byte	.LVL29-1
 3665 01e7 1A000000 		.4byte	.LFE9
 3666 01eb 0400     		.2byte	0x4
 3667 01ed F3       		.byte	0xf3
 3668 01ee 01       		.uleb128 0x1
 3669 01ef 51       		.byte	0x51
 3670 01f0 9F       		.byte	0x9f
 3671 01f1 00000000 		.4byte	0
 3672 01f5 00000000 		.4byte	0
 3673              	.LLST16:
 3674 01f9 00000000 		.4byte	.LVL28
 3675 01fd 0B000000 		.4byte	.LVL29-1
 3676 0201 0100     		.2byte	0x1
 3677 0203 52       		.byte	0x52
 3678 0204 0B000000 		.4byte	.LVL29-1
 3679 0208 10000000 		.4byte	.LVL30
 3680 020c 0100     		.2byte	0x1
 3681 020e 55       		.byte	0x55
 3682 020f 10000000 		.4byte	.LVL30
 3683 0213 1A000000 		.4byte	.LFE9
 3684 0217 0400     		.2byte	0x4
 3685 0219 F3       		.byte	0xf3
 3686 021a 01       		.uleb128 0x1
 3687 021b 52       		.byte	0x52
 3688 021c 9F       		.byte	0x9f
 3689 021d 00000000 		.4byte	0
 3690 0221 00000000 		.4byte	0
 3691              	.LLST17:
 3692 0225 00000000 		.4byte	.LVL28
ARM GAS  /tmp/ccTLGzYs.s 			page 66


 3693 0229 0B000000 		.4byte	.LVL29-1
 3694 022d 0100     		.2byte	0x1
 3695 022f 53       		.byte	0x53
 3696 0230 0B000000 		.4byte	.LVL29-1
 3697 0234 16000000 		.4byte	.LVL32
 3698 0238 0100     		.2byte	0x1
 3699 023a 56       		.byte	0x56
 3700 023b 16000000 		.4byte	.LVL32
 3701 023f 1A000000 		.4byte	.LFE9
 3702 0243 0400     		.2byte	0x4
 3703 0245 F3       		.byte	0xf3
 3704 0246 01       		.uleb128 0x1
 3705 0247 53       		.byte	0x53
 3706 0248 9F       		.byte	0x9f
 3707 0249 00000000 		.4byte	0
 3708 024d 00000000 		.4byte	0
 3709              	.LLST18:
 3710 0251 0C000000 		.4byte	.LVL29
 3711 0255 10000000 		.4byte	.LVL30
 3712 0259 0100     		.2byte	0x1
 3713 025b 55       		.byte	0x55
 3714 025c 10000000 		.4byte	.LVL30
 3715 0260 1A000000 		.4byte	.LFE9
 3716 0264 0400     		.2byte	0x4
 3717 0266 F3       		.byte	0xf3
 3718 0267 01       		.uleb128 0x1
 3719 0268 52       		.byte	0x52
 3720 0269 9F       		.byte	0x9f
 3721 026a 00000000 		.4byte	0
 3722 026e 00000000 		.4byte	0
 3723              	.LLST19:
 3724 0272 12000000 		.4byte	.LVL31
 3725 0276 16000000 		.4byte	.LVL32
 3726 027a 0100     		.2byte	0x1
 3727 027c 56       		.byte	0x56
 3728 027d 16000000 		.4byte	.LVL32
 3729 0281 1A000000 		.4byte	.LFE9
 3730 0285 0400     		.2byte	0x4
 3731 0287 F3       		.byte	0xf3
 3732 0288 01       		.uleb128 0x1
 3733 0289 53       		.byte	0x53
 3734 028a 9F       		.byte	0x9f
 3735 028b 00000000 		.4byte	0
 3736 028f 00000000 		.4byte	0
 3737              	.LLST20:
 3738 0293 00000000 		.4byte	.LFB8
 3739 0297 02000000 		.4byte	.LCFI3
 3740 029b 0200     		.2byte	0x2
 3741 029d 7D       		.byte	0x7d
 3742 029e 00       		.sleb128 0
 3743 029f 02000000 		.4byte	.LCFI3
 3744 02a3 04000000 		.4byte	.LCFI4
 3745 02a7 0200     		.2byte	0x2
 3746 02a9 7D       		.byte	0x7d
 3747 02aa 14       		.sleb128 20
 3748 02ab 04000000 		.4byte	.LCFI4
 3749 02af 68000000 		.4byte	.LFE8
ARM GAS  /tmp/ccTLGzYs.s 			page 67


 3750 02b3 0200     		.2byte	0x2
 3751 02b5 7D       		.byte	0x7d
 3752 02b6 28       		.sleb128 40
 3753 02b7 00000000 		.4byte	0
 3754 02bb 00000000 		.4byte	0
 3755              	.LLST21:
 3756 02bf 00000000 		.4byte	.LVL33
 3757 02c3 0C000000 		.4byte	.LVL34
 3758 02c7 0100     		.2byte	0x1
 3759 02c9 50       		.byte	0x50
 3760 02ca 0C000000 		.4byte	.LVL34
 3761 02ce 44000000 		.4byte	.LVL37
 3762 02d2 0100     		.2byte	0x1
 3763 02d4 54       		.byte	0x54
 3764 02d5 44000000 		.4byte	.LVL37
 3765 02d9 4A000000 		.4byte	.LVL38
 3766 02dd 0400     		.2byte	0x4
 3767 02df F3       		.byte	0xf3
 3768 02e0 01       		.uleb128 0x1
 3769 02e1 50       		.byte	0x50
 3770 02e2 9F       		.byte	0x9f
 3771 02e3 4A000000 		.4byte	.LVL38
 3772 02e7 4C000000 		.4byte	.LVL39
 3773 02eb 0100     		.2byte	0x1
 3774 02ed 54       		.byte	0x54
 3775 02ee 4C000000 		.4byte	.LVL39
 3776 02f2 4E000000 		.4byte	.LVL40
 3777 02f6 0400     		.2byte	0x4
 3778 02f8 F3       		.byte	0xf3
 3779 02f9 01       		.uleb128 0x1
 3780 02fa 50       		.byte	0x50
 3781 02fb 9F       		.byte	0x9f
 3782 02fc 4E000000 		.4byte	.LVL40
 3783 0300 57000000 		.4byte	.LVL41-1
 3784 0304 0100     		.2byte	0x1
 3785 0306 50       		.byte	0x50
 3786 0307 57000000 		.4byte	.LVL41-1
 3787 030b 68000000 		.4byte	.LFE8
 3788 030f 0100     		.2byte	0x1
 3789 0311 54       		.byte	0x54
 3790 0312 00000000 		.4byte	0
 3791 0316 00000000 		.4byte	0
 3792              	.LLST22:
 3793 031a 00000000 		.4byte	.LVL33
 3794 031e 0C000000 		.4byte	.LVL34
 3795 0322 0100     		.2byte	0x1
 3796 0324 51       		.byte	0x51
 3797 0325 0C000000 		.4byte	.LVL34
 3798 0329 4E000000 		.4byte	.LVL40
 3799 032d 0400     		.2byte	0x4
 3800 032f F3       		.byte	0xf3
 3801 0330 01       		.uleb128 0x1
 3802 0331 51       		.byte	0x51
 3803 0332 9F       		.byte	0x9f
 3804 0333 4E000000 		.4byte	.LVL40
 3805 0337 57000000 		.4byte	.LVL41-1
 3806 033b 0100     		.2byte	0x1
ARM GAS  /tmp/ccTLGzYs.s 			page 68


 3807 033d 51       		.byte	0x51
 3808 033e 57000000 		.4byte	.LVL41-1
 3809 0342 68000000 		.4byte	.LFE8
 3810 0346 0400     		.2byte	0x4
 3811 0348 F3       		.byte	0xf3
 3812 0349 01       		.uleb128 0x1
 3813 034a 51       		.byte	0x51
 3814 034b 9F       		.byte	0x9f
 3815 034c 00000000 		.4byte	0
 3816 0350 00000000 		.4byte	0
 3817              	.LLST23:
 3818 0354 00000000 		.4byte	.LVL33
 3819 0358 0C000000 		.4byte	.LVL34
 3820 035c 0100     		.2byte	0x1
 3821 035e 52       		.byte	0x52
 3822 035f 0C000000 		.4byte	.LVL34
 3823 0363 4E000000 		.4byte	.LVL40
 3824 0367 0400     		.2byte	0x4
 3825 0369 F3       		.byte	0xf3
 3826 036a 01       		.uleb128 0x1
 3827 036b 52       		.byte	0x52
 3828 036c 9F       		.byte	0x9f
 3829 036d 4E000000 		.4byte	.LVL40
 3830 0371 57000000 		.4byte	.LVL41-1
 3831 0375 0100     		.2byte	0x1
 3832 0377 52       		.byte	0x52
 3833 0378 57000000 		.4byte	.LVL41-1
 3834 037c 68000000 		.4byte	.LFE8
 3835 0380 0400     		.2byte	0x4
 3836 0382 F3       		.byte	0xf3
 3837 0383 01       		.uleb128 0x1
 3838 0384 52       		.byte	0x52
 3839 0385 9F       		.byte	0x9f
 3840 0386 00000000 		.4byte	0
 3841 038a 00000000 		.4byte	0
 3842              	.LLST24:
 3843 038e 00000000 		.4byte	.LVL33
 3844 0392 0C000000 		.4byte	.LVL34
 3845 0396 0100     		.2byte	0x1
 3846 0398 53       		.byte	0x53
 3847 0399 0C000000 		.4byte	.LVL34
 3848 039d 4E000000 		.4byte	.LVL40
 3849 03a1 0400     		.2byte	0x4
 3850 03a3 F3       		.byte	0xf3
 3851 03a4 01       		.uleb128 0x1
 3852 03a5 53       		.byte	0x53
 3853 03a6 9F       		.byte	0x9f
 3854 03a7 4E000000 		.4byte	.LVL40
 3855 03ab 57000000 		.4byte	.LVL41-1
 3856 03af 0100     		.2byte	0x1
 3857 03b1 53       		.byte	0x53
 3858 03b2 57000000 		.4byte	.LVL41-1
 3859 03b6 68000000 		.4byte	.LFE8
 3860 03ba 0400     		.2byte	0x4
 3861 03bc F3       		.byte	0xf3
 3862 03bd 01       		.uleb128 0x1
 3863 03be 53       		.byte	0x53
ARM GAS  /tmp/ccTLGzYs.s 			page 69


 3864 03bf 9F       		.byte	0x9f
 3865 03c0 00000000 		.4byte	0
 3866 03c4 00000000 		.4byte	0
 3867              	.LLST25:
 3868 03c8 00000000 		.4byte	.LVL42
 3869 03cc 04000000 		.4byte	.LVL43
 3870 03d0 0100     		.2byte	0x1
 3871 03d2 51       		.byte	0x51
 3872 03d3 04000000 		.4byte	.LVL43
 3873 03d7 08000000 		.4byte	.LFE13
 3874 03db 0400     		.2byte	0x4
 3875 03dd F3       		.byte	0xf3
 3876 03de 01       		.uleb128 0x1
 3877 03df 51       		.byte	0x51
 3878 03e0 9F       		.byte	0x9f
 3879 03e1 00000000 		.4byte	0
 3880 03e5 00000000 		.4byte	0
 3881              	.LLST26:
 3882 03e9 00000000 		.4byte	.LVL44
 3883 03ed 04000000 		.4byte	.LVL45
 3884 03f1 0100     		.2byte	0x1
 3885 03f3 51       		.byte	0x51
 3886 03f4 04000000 		.4byte	.LVL45
 3887 03f8 08000000 		.4byte	.LFE14
 3888 03fc 0400     		.2byte	0x4
 3889 03fe F3       		.byte	0xf3
 3890 03ff 01       		.uleb128 0x1
 3891 0400 51       		.byte	0x51
 3892 0401 9F       		.byte	0x9f
 3893 0402 00000000 		.4byte	0
 3894 0406 00000000 		.4byte	0
 3895              	.LLST27:
 3896 040a 00000000 		.4byte	.LVL47
 3897 040e 1F000000 		.4byte	.LVL48-1
 3898 0412 0100     		.2byte	0x1
 3899 0414 50       		.byte	0x50
 3900 0415 1F000000 		.4byte	.LVL48-1
 3901 0419 20000000 		.4byte	.LFE16
 3902 041d 0400     		.2byte	0x4
 3903 041f F3       		.byte	0xf3
 3904 0420 01       		.uleb128 0x1
 3905 0421 50       		.byte	0x50
 3906 0422 9F       		.byte	0x9f
 3907 0423 00000000 		.4byte	0
 3908 0427 00000000 		.4byte	0
 3909              	.LLST28:
 3910 042b 00000000 		.4byte	.LVL50
 3911 042f 23000000 		.4byte	.LVL51-1
 3912 0433 0100     		.2byte	0x1
 3913 0435 50       		.byte	0x50
 3914 0436 23000000 		.4byte	.LVL51-1
 3915 043a 24000000 		.4byte	.LFE18
 3916 043e 0400     		.2byte	0x4
 3917 0440 F3       		.byte	0xf3
 3918 0441 01       		.uleb128 0x1
 3919 0442 50       		.byte	0x50
 3920 0443 9F       		.byte	0x9f
ARM GAS  /tmp/ccTLGzYs.s 			page 70


 3921 0444 00000000 		.4byte	0
 3922 0448 00000000 		.4byte	0
 3923              		.section	.debug_aranges,"",%progbits
 3924 0000 7C000000 		.4byte	0x7c
 3925 0004 0200     		.2byte	0x2
 3926 0006 00000000 		.4byte	.Ldebug_info0
 3927 000a 04       		.byte	0x4
 3928 000b 00       		.byte	0
 3929 000c 0000     		.2byte	0
 3930 000e 0000     		.2byte	0
 3931 0010 00000000 		.4byte	.LFB7
 3932 0014 02000000 		.4byte	.LFE7-.LFB7
 3933 0018 00000000 		.4byte	.LFB10
 3934 001c 50000000 		.4byte	.LFE10-.LFB10
 3935 0020 00000000 		.4byte	.LFB11
 3936 0024 40000000 		.4byte	.LFE11-.LFB11
 3937 0028 00000000 		.4byte	.LFB12
 3938 002c 60000000 		.4byte	.LFE12-.LFB12
 3939 0030 00000000 		.4byte	.LFB9
 3940 0034 1A000000 		.4byte	.LFE9-.LFB9
 3941 0038 00000000 		.4byte	.LFB8
 3942 003c 68000000 		.4byte	.LFE8-.LFB8
 3943 0040 00000000 		.4byte	.LFB13
 3944 0044 08000000 		.4byte	.LFE13-.LFB13
 3945 0048 00000000 		.4byte	.LFB14
 3946 004c 08000000 		.4byte	.LFE14-.LFB14
 3947 0050 00000000 		.4byte	.LFB15
 3948 0054 0C000000 		.4byte	.LFE15-.LFB15
 3949 0058 00000000 		.4byte	.LFB16
 3950 005c 20000000 		.4byte	.LFE16-.LFB16
 3951 0060 00000000 		.4byte	.LFB17
 3952 0064 12000000 		.4byte	.LFE17-.LFB17
 3953 0068 00000000 		.4byte	.LFB18
 3954 006c 24000000 		.4byte	.LFE18-.LFB18
 3955 0070 00000000 		.4byte	.LFB19
 3956 0074 16000000 		.4byte	.LFE19-.LFB19
 3957 0078 00000000 		.4byte	0
 3958 007c 00000000 		.4byte	0
 3959              		.section	.debug_ranges,"",%progbits
 3960              	.Ldebug_ranges0:
 3961 0000 00000000 		.4byte	.LFB7
 3962 0004 02000000 		.4byte	.LFE7
 3963 0008 00000000 		.4byte	.LFB10
 3964 000c 50000000 		.4byte	.LFE10
 3965 0010 00000000 		.4byte	.LFB11
 3966 0014 40000000 		.4byte	.LFE11
 3967 0018 00000000 		.4byte	.LFB12
 3968 001c 60000000 		.4byte	.LFE12
 3969 0020 00000000 		.4byte	.LFB9
 3970 0024 1A000000 		.4byte	.LFE9
 3971 0028 00000000 		.4byte	.LFB8
 3972 002c 68000000 		.4byte	.LFE8
 3973 0030 00000000 		.4byte	.LFB13
 3974 0034 08000000 		.4byte	.LFE13
 3975 0038 00000000 		.4byte	.LFB14
 3976 003c 08000000 		.4byte	.LFE14
 3977 0040 00000000 		.4byte	.LFB15
ARM GAS  /tmp/ccTLGzYs.s 			page 71


 3978 0044 0C000000 		.4byte	.LFE15
 3979 0048 00000000 		.4byte	.LFB16
 3980 004c 20000000 		.4byte	.LFE16
 3981 0050 00000000 		.4byte	.LFB17
 3982 0054 12000000 		.4byte	.LFE17
 3983 0058 00000000 		.4byte	.LFB18
 3984 005c 24000000 		.4byte	.LFE18
 3985 0060 00000000 		.4byte	.LFB19
 3986 0064 16000000 		.4byte	.LFE19
 3987 0068 00000000 		.4byte	0
 3988 006c 00000000 		.4byte	0
 3989              		.section	.debug_line,"",%progbits
 3990              	.Ldebug_line0:
 3991 0000 7D030000 		.section	.debug_str,"MS",%progbits,1
 3991      0200C501 
 3991      00000201 
 3991      FB0E0D00 
 3991      01010101 
 3992              	.LASF116:
 3993 0000 6C697374 		.ascii	"listen_pcbs\000"
 3993      656E5F70 
 3993      63627300 
 3994              	.LASF121:
 3995 000c 4D454D50 		.ascii	"MEMP_TCP_PCB_LISTEN\000"
 3995      5F544350 
 3995      5F504342 
 3995      5F4C4953 
 3995      54454E00 
 3996              	.LASF48:
 3997 0020 736F5F6F 		.ascii	"so_options\000"
 3997      7074696F 
 3997      6E7300
 3998              	.LASF34:
 3999 002b 696E7075 		.ascii	"input\000"
 3999      7400
 4000              	.LASF115:
 4001 0031 75726770 		.ascii	"urgp\000"
 4001      00
 4002              	.LASF58:
 4003 0036 706F6C6C 		.ascii	"polltmr\000"
 4003      746D7200 
 4004              	.LASF44:
 4005 003e 7463705F 		.ascii	"tcp_accept_fn\000"
 4005      61636365 
 4005      70745F66 
 4005      6E00
 4006              	.LASF30:
 4007 004c 666C6167 		.ascii	"flags\000"
 4007      7300
 4008              	.LASF105:
 4009 0052 54494D45 		.ascii	"TIME_WAIT\000"
 4009      5F574149 
 4009      5400
 4010              	.LASF0:
 4011 005c 756E7369 		.ascii	"unsigned int\000"
 4011      676E6564 
 4011      20696E74 
ARM GAS  /tmp/ccTLGzYs.s 			page 72


 4011      00
 4012              	.LASF94:
 4013 0069 7463705F 		.ascii	"tcp_connected_fn\000"
 4013      636F6E6E 
 4013      65637465 
 4013      645F666E 
 4013      00
 4014              	.LASF26:
 4015 007a 6E657874 		.ascii	"next\000"
 4015      00
 4016              	.LASF22:
 4017 007f 6572725F 		.ascii	"err_t\000"
 4017      7400
 4018              	.LASF36:
 4019 0085 6C696E6B 		.ascii	"linkoutput\000"
 4019      6F757470 
 4019      757400
 4020              	.LASF136:
 4021 0090 6E657469 		.ascii	"netif_set_default\000"
 4021      665F7365 
 4021      745F6465 
 4021      6661756C 
 4021      7400
 4022              	.LASF18:
 4023 00a2 7531365F 		.ascii	"u16_t\000"
 4023      7400
 4024              	.LASF135:
 4025 00a8 6E657469 		.ascii	"netif_set_down\000"
 4025      665F7365 
 4025      745F646F 
 4025      776E00
 4026              	.LASF57:
 4027 00b7 7263765F 		.ascii	"rcv_ann_right_edge\000"
 4027      616E6E5F 
 4027      72696768 
 4027      745F6564 
 4027      676500
 4028              	.LASF139:
 4029 00ca 6E657469 		.ascii	"netif_set_ipaddr\000"
 4029      665F7365 
 4029      745F6970 
 4029      61646472 
 4029      00
 4030              	.LASF42:
 4031 00db 6E657469 		.ascii	"netif_output_fn\000"
 4031      665F6F75 
 4031      74707574 
 4031      5F666E00 
 4032              	.LASF89:
 4033 00eb 6B656570 		.ascii	"keep_cnt_sent\000"
 4033      5F636E74 
 4033      5F73656E 
 4033      7400
 4034              	.LASF131:
 4035 00f9 4D454D50 		.ascii	"MEMP_PBUF_POOL\000"
 4035      5F504255 
 4035      465F504F 
ARM GAS  /tmp/ccTLGzYs.s 			page 73


 4035      4F4C00
 4036              	.LASF91:
 4037 0108 7463705F 		.ascii	"tcp_sent_fn\000"
 4037      73656E74 
 4037      5F666E00 
 4038              	.LASF111:
 4039 0114 7365716E 		.ascii	"seqno\000"
 4039      6F00
 4040              	.LASF41:
 4041 011a 6E657469 		.ascii	"netif_input_fn\000"
 4041      665F696E 
 4041      7075745F 
 4041      666E00
 4042              	.LASF10:
 4043 0129 75696E74 		.ascii	"uint32_t\000"
 4043      33325F74 
 4043      00
 4044              	.LASF2:
 4045 0132 696E7438 		.ascii	"int8_t\000"
 4045      5F7400
 4046              	.LASF66:
 4047 0139 63776E64 		.ascii	"cwnd\000"
 4047      00
 4048              	.LASF156:
 4049 013e 474E5520 		.ascii	"GNU C 4.7.2\000"
 4049      4320342E 
 4049      372E3200 
 4050              	.LASF127:
 4051 014a 4D454D50 		.ascii	"MEMP_TCPIP_MSG_API\000"
 4051      5F544350 
 4051      49505F4D 
 4051      53475F41 
 4051      504900
 4052              	.LASF52:
 4053 015d 6C6F6361 		.ascii	"local_port\000"
 4053      6C5F706F 
 4053      727400
 4054              	.LASF5:
 4055 0168 696E7431 		.ascii	"int16_t\000"
 4055      365F7400 
 4056              	.LASF150:
 4057 0170 6E657469 		.ascii	"netif_list\000"
 4057      665F6C69 
 4057      737400
 4058              	.LASF39:
 4059 017b 68776164 		.ascii	"hwaddr\000"
 4059      647200
 4060              	.LASF157:
 4061 0182 2E2E2F2E 		.ascii	"../../ext/lwip/src/core/netif.c\000"
 4061      2E2F6578 
 4061      742F6C77 
 4061      69702F73 
 4061      72632F63 
 4062              	.LASF106:
 4063 01a2 7463705F 		.ascii	"tcp_seg\000"
 4063      73656700 
 4064              	.LASF13:
ARM GAS  /tmp/ccTLGzYs.s 			page 74


 4065 01aa 6C6F6E67 		.ascii	"long long unsigned int\000"
 4065      206C6F6E 
 4065      6720756E 
 4065      7369676E 
 4065      65642069 
 4066              	.LASF159:
 4067 01c1 7463705F 		.ascii	"tcp_state\000"
 4067      73746174 
 4067      6500
 4068              	.LASF60:
 4069 01cb 7274696D 		.ascii	"rtime\000"
 4069      6500
 4070              	.LASF38:
 4071 01d1 68776164 		.ascii	"hwaddr_len\000"
 4071      64725F6C 
 4071      656E00
 4072              	.LASF133:
 4073 01dc 6E657469 		.ascii	"netif_set_netmask\000"
 4073      665F7365 
 4073      745F6E65 
 4073      746D6173 
 4073      6B00
 4074              	.LASF54:
 4075 01ee 7263765F 		.ascii	"rcv_nxt\000"
 4075      6E787400 
 4076              	.LASF128:
 4077 01f6 4D454D50 		.ascii	"MEMP_TCPIP_MSG_INPKT\000"
 4077      5F544350 
 4077      49505F4D 
 4077      53475F49 
 4077      4E504B54 
 4078              	.LASF78:
 4079 020b 756E6163 		.ascii	"unacked\000"
 4079      6B656400 
 4080              	.LASF104:
 4081 0213 4C415354 		.ascii	"LAST_ACK\000"
 4081      5F41434B 
 4081      00
 4082              	.LASF28:
 4083 021c 746F745F 		.ascii	"tot_len\000"
 4083      6C656E00 
 4084              	.LASF140:
 4085 0224 69706164 		.ascii	"ipaddr\000"
 4085      647200
 4086              	.LASF27:
 4087 022b 7061796C 		.ascii	"payload\000"
 4087      6F616400 
 4088              	.LASF35:
 4089 0233 6F757470 		.ascii	"output\000"
 4089      757400
 4090              	.LASF83:
 4091 023a 636F6E6E 		.ascii	"connected\000"
 4091      65637465 
 4091      6400
 4092              	.LASF24:
 4093 0244 70627566 		.ascii	"pbuf\000"
 4093      00
ARM GAS  /tmp/ccTLGzYs.s 			page 75


 4094              	.LASF103:
 4095 0249 434C4F53 		.ascii	"CLOSING\000"
 4095      494E4700 
 4096              	.LASF64:
 4097 0251 6C617374 		.ascii	"lastack\000"
 4097      61636B00 
 4098              	.LASF132:
 4099 0259 4D454D50 		.ascii	"MEMP_MAX\000"
 4099      5F4D4158 
 4099      00
 4100              	.LASF17:
 4101 0262 73385F74 		.ascii	"s8_t\000"
 4101      00
 4102              	.LASF126:
 4103 0267 4D454D50 		.ascii	"MEMP_NETCONN\000"
 4103      5F4E4554 
 4103      434F4E4E 
 4103      00
 4104              	.LASF62:
 4105 0274 72747365 		.ascii	"rtseq\000"
 4105      7100
 4106              	.LASF153:
 4107 027a 7463705F 		.ascii	"tcp_active_pcbs\000"
 4107      61637469 
 4107      76655F70 
 4107      63627300 
 4108              	.LASF65:
 4109 028a 64757061 		.ascii	"dupacks\000"
 4109      636B7300 
 4110              	.LASF137:
 4111 0292 746D704E 		.ascii	"tmpNetif\000"
 4111      65746966 
 4111      00
 4112              	.LASF49:
 4113 029b 7072696F 		.ascii	"prio\000"
 4113      00
 4114              	.LASF51:
 4115 02a0 61636365 		.ascii	"accept\000"
 4115      707400
 4116              	.LASF130:
 4117 02a7 4D454D50 		.ascii	"MEMP_PBUF\000"
 4117      5F504255 
 4117      4600
 4118              	.LASF84:
 4119 02b1 706F6C6C 		.ascii	"poll\000"
 4119      00
 4120              	.LASF15:
 4121 02b6 63686172 		.ascii	"char\000"
 4121      00
 4122              	.LASF73:
 4123 02bb 61636B65 		.ascii	"acked\000"
 4123      6400
 4124              	.LASF102:
 4125 02c1 434C4F53 		.ascii	"CLOSE_WAIT\000"
 4125      455F5741 
 4125      495400
 4126              	.LASF143:
ARM GAS  /tmp/ccTLGzYs.s 			page 76


 4127 02cc 6E657469 		.ascii	"netif_find\000"
 4127      665F6669 
 4127      6E6400
 4128              	.LASF81:
 4129 02d7 73656E74 		.ascii	"sent\000"
 4129      00
 4130              	.LASF3:
 4131 02dc 75696E74 		.ascii	"uint8_t\000"
 4131      385F7400 
 4132              	.LASF70:
 4133 02e4 736E645F 		.ascii	"snd_wl1\000"
 4133      776C3100 
 4134              	.LASF71:
 4135 02ec 736E645F 		.ascii	"snd_wl2\000"
 4135      776C3200 
 4136              	.LASF93:
 4137 02f4 7463705F 		.ascii	"tcp_err_fn\000"
 4137      6572725F 
 4137      666E00
 4138              	.LASF160:
 4139 02ff 7463705F 		.ascii	"tcp_listen_pcbs_t\000"
 4139      6C697374 
 4139      656E5F70 
 4139      6362735F 
 4139      7400
 4140              	.LASF138:
 4141 0311 6E657469 		.ascii	"netif_remove\000"
 4141      665F7265 
 4141      6D6F7665 
 4141      00
 4142              	.LASF72:
 4143 031e 736E645F 		.ascii	"snd_lbb\000"
 4143      6C626200 
 4144              	.LASF125:
 4145 0326 4D454D50 		.ascii	"MEMP_NETBUF\000"
 4145      5F4E4554 
 4145      42554600 
 4146              	.LASF33:
 4147 0332 6E65746D 		.ascii	"netmask\000"
 4147      61736B00 
 4148              	.LASF12:
 4149 033a 6C6F6E67 		.ascii	"long long int\000"
 4149      206C6F6E 
 4149      6720696E 
 4149      7400
 4150              	.LASF108:
 4151 0348 7463705F 		.ascii	"tcp_pcb_listen\000"
 4151      7063625F 
 4151      6C697374 
 4151      656E00
 4152              	.LASF112:
 4153 0357 61636B6E 		.ascii	"ackno\000"
 4153      6F00
 4154              	.LASF88:
 4155 035d 70657273 		.ascii	"persist_backoff\000"
 4155      6973745F 
 4155      6261636B 
ARM GAS  /tmp/ccTLGzYs.s 			page 77


 4155      6F666600 
 4156              	.LASF120:
 4157 036d 4D454D50 		.ascii	"MEMP_TCP_PCB\000"
 4157      5F544350 
 4157      5F504342 
 4157      00
 4158              	.LASF16:
 4159 037a 75385F74 		.ascii	"u8_t\000"
 4159      00
 4160              	.LASF53:
 4161 037f 72656D6F 		.ascii	"remote_port\000"
 4161      74655F70 
 4161      6F727400 
 4162              	.LASF152:
 4163 038b 7463705F 		.ascii	"tcp_listen_pcbs\000"
 4163      6C697374 
 4163      656E5F70 
 4163      63627300 
 4164              	.LASF56:
 4165 039b 7263765F 		.ascii	"rcv_ann_wnd\000"
 4165      616E6E5F 
 4165      776E6400 
 4166              	.LASF158:
 4167 03a7 2F686F6D 		.ascii	"/home/kwilson/Sandbox/ChibiOS_2.5.1/demos/ARMCM4-ST"
 4167      652F6B77 
 4167      696C736F 
 4167      6E2F5361 
 4167      6E64626F 
 4168 03da 4D333246 		.ascii	"M32F407-LWIP-FATFS-USB\000"
 4168      3430372D 
 4168      4C574950 
 4168      2D464154 
 4168      46532D55 
 4169              	.LASF144:
 4170 03f1 6E657469 		.ascii	"netif_add\000"
 4170      665F6164 
 4170      6400
 4171              	.LASF123:
 4172 03fb 4D454D50 		.ascii	"MEMP_REASSDATA\000"
 4172      5F524541 
 4172      53534441 
 4172      544100
 4173              	.LASF90:
 4174 040a 7463705F 		.ascii	"tcp_recv_fn\000"
 4174      72656376 
 4174      5F666E00 
 4175              	.LASF154:
 4176 0416 7463705F 		.ascii	"tcp_abort\000"
 4176      61626F72 
 4176      7400
 4177              	.LASF151:
 4178 0420 6E657469 		.ascii	"netif_default\000"
 4178      665F6465 
 4178      6661756C 
 4178      7400
 4179              	.LASF92:
 4180 042e 7463705F 		.ascii	"tcp_poll_fn\000"
ARM GAS  /tmp/ccTLGzYs.s 			page 78


 4180      706F6C6C 
 4180      5F666E00 
 4181              	.LASF7:
 4182 043a 75696E74 		.ascii	"uint16_t\000"
 4182      31365F74 
 4182      00
 4183              	.LASF85:
 4184 0443 65727266 		.ascii	"errf\000"
 4184      00
 4185              	.LASF69:
 4186 0448 736E645F 		.ascii	"snd_wnd\000"
 4186      776E6400 
 4187              	.LASF146:
 4188 0450 6E657469 		.ascii	"netifnum\000"
 4188      666E756D 
 4188      00
 4189              	.LASF31:
 4190 0459 6E657469 		.ascii	"netif_init_fn\000"
 4190      665F696E 
 4190      69745F66 
 4190      6E00
 4191              	.LASF79:
 4192 0467 6F6F7365 		.ascii	"ooseq\000"
 4192      7100
 4193              	.LASF95:
 4194 046d 434C4F53 		.ascii	"CLOSED\000"
 4194      454400
 4195              	.LASF20:
 4196 0474 7533325F 		.ascii	"u32_t\000"
 4196      7400
 4197              	.LASF6:
 4198 047a 73686F72 		.ascii	"short int\000"
 4198      7420696E 
 4198      7400
 4199              	.LASF9:
 4200 0484 6C6F6E67 		.ascii	"long int\000"
 4200      20696E74 
 4200      00
 4201              	.LASF77:
 4202 048d 756E7365 		.ascii	"unsent\000"
 4202      6E7400
 4203              	.LASF55:
 4204 0494 7263765F 		.ascii	"rcv_wnd\000"
 4204      776E6400 
 4205              	.LASF61:
 4206 049c 72747465 		.ascii	"rttest\000"
 4206      737400
 4207              	.LASF149:
 4208 04a3 6E657469 		.ascii	"netif_set_link_down\000"
 4208      665F7365 
 4208      745F6C69 
 4208      6E6B5F64 
 4208      6F776E00 
 4209              	.LASF129:
 4210 04b7 4D454D50 		.ascii	"MEMP_SYS_TIMEOUT\000"
 4210      5F535953 
 4210      5F54494D 
ARM GAS  /tmp/ccTLGzYs.s 			page 79


 4210      454F5554 
 4210      00
 4211              	.LASF119:
 4212 04c8 4D454D50 		.ascii	"MEMP_UDP_PCB\000"
 4212      5F554450 
 4212      5F504342 
 4212      00
 4213              	.LASF46:
 4214 04d5 6C6F6361 		.ascii	"local_ip\000"
 4214      6C5F6970 
 4214      00
 4215              	.LASF76:
 4216 04de 756E7365 		.ascii	"unsent_oversize\000"
 4216      6E745F6F 
 4216      76657273 
 4216      697A6500 
 4217              	.LASF155:
 4218 04ee 65746861 		.ascii	"etharp_request\000"
 4218      72705F72 
 4218      65717565 
 4218      737400
 4219              	.LASF68:
 4220 04fd 736E645F 		.ascii	"snd_nxt\000"
 4220      6E787400 
 4221              	.LASF99:
 4222 0505 45535441 		.ascii	"ESTABLISHED\000"
 4222      424C4953 
 4222      48454400 
 4223              	.LASF40:
 4224 0511 6E616D65 		.ascii	"name\000"
 4224      00
 4225              	.LASF147:
 4226 0516 6E657469 		.ascii	"netif_set_up\000"
 4226      665F7365 
 4226      745F7570 
 4226      00
 4227              	.LASF43:
 4228 0523 6E657469 		.ascii	"netif_linkoutput_fn\000"
 4228      665F6C69 
 4228      6E6B6F75 
 4228      74707574 
 4228      5F666E00 
 4229              	.LASF124:
 4230 0537 4D454D50 		.ascii	"MEMP_FRAG_PBUF\000"
 4230      5F465241 
 4230      475F5042 
 4230      554600
 4231              	.LASF67:
 4232 0546 73737468 		.ascii	"ssthresh\000"
 4232      72657368 
 4232      00
 4233              	.LASF74:
 4234 054f 736E645F 		.ascii	"snd_buf\000"
 4234      62756600 
 4235              	.LASF142:
 4236 0557 6E657469 		.ascii	"netif_set_addr\000"
 4236      665F7365 
ARM GAS  /tmp/ccTLGzYs.s 			page 80


 4236      745F6164 
 4236      647200
 4237              	.LASF59:
 4238 0566 706F6C6C 		.ascii	"pollinterval\000"
 4238      696E7465 
 4238      7276616C 
 4238      00
 4239              	.LASF118:
 4240 0573 4D454D50 		.ascii	"MEMP_RAW_PCB\000"
 4240      5F524157 
 4240      5F504342 
 4240      00
 4241              	.LASF113:
 4242 0580 5F686472 		.ascii	"_hdrlen_rsvd_flags\000"
 4242      6C656E5F 
 4242      72737664 
 4242      5F666C61 
 4242      677300
 4243              	.LASF145:
 4244 0593 696E6974 		.ascii	"init\000"
 4244      00
 4245              	.LASF14:
 4246 0598 73697A65 		.ascii	"sizetype\000"
 4246      74797065 
 4246      00
 4247              	.LASF11:
 4248 05a1 6C6F6E67 		.ascii	"long unsigned int\000"
 4248      20756E73 
 4248      69676E65 
 4248      6420696E 
 4248      7400
 4249              	.LASF107:
 4250 05b3 74637068 		.ascii	"tcphdr\000"
 4250      647200
 4251              	.LASF19:
 4252 05ba 7331365F 		.ascii	"s16_t\000"
 4252      7400
 4253              	.LASF80:
 4254 05c0 72656675 		.ascii	"refused_data\000"
 4254      7365645F 
 4254      64617461 
 4254      00
 4255              	.LASF109:
 4256 05cd 7463705F 		.ascii	"tcp_hdr\000"
 4256      68647200 
 4257              	.LASF29:
 4258 05d5 74797065 		.ascii	"type\000"
 4258      00
 4259              	.LASF4:
 4260 05da 756E7369 		.ascii	"unsigned char\000"
 4260      676E6564 
 4260      20636861 
 4260      7200
 4261              	.LASF100:
 4262 05e8 46494E5F 		.ascii	"FIN_WAIT_1\000"
 4262      57414954 
 4262      5F3100
ARM GAS  /tmp/ccTLGzYs.s 			page 81


 4263              	.LASF101:
 4264 05f3 46494E5F 		.ascii	"FIN_WAIT_2\000"
 4264      57414954 
 4264      5F3200
 4265              	.LASF122:
 4266 05fe 4D454D50 		.ascii	"MEMP_TCP_SEG\000"
 4266      5F544350 
 4266      5F534547 
 4266      00
 4267              	.LASF97:
 4268 060b 53594E5F 		.ascii	"SYN_SENT\000"
 4268      53454E54 
 4268      00
 4269              	.LASF134:
 4270 0614 6E657469 		.ascii	"netif_set_gw\000"
 4270      665F7365 
 4270      745F6777 
 4270      00
 4271              	.LASF86:
 4272 0621 6B656570 		.ascii	"keep_idle\000"
 4272      5F69646C 
 4272      6500
 4273              	.LASF50:
 4274 062b 63616C6C 		.ascii	"callback_arg\000"
 4274      6261636B 
 4274      5F617267 
 4274      00
 4275              	.LASF162:
 4276 0638 706F7274 		.ascii	"port_halt\000"
 4276      5F68616C 
 4276      7400
 4277              	.LASF96:
 4278 0642 4C495354 		.ascii	"LISTEN\000"
 4278      454E00
 4279              	.LASF161:
 4280 0649 6E657469 		.ascii	"netif_init\000"
 4280      665F696E 
 4280      697400
 4281              	.LASF25:
 4282 0654 61646472 		.ascii	"addr\000"
 4282      00
 4283              	.LASF37:
 4284 0659 73746174 		.ascii	"state\000"
 4284      6500
 4285              	.LASF32:
 4286 065f 6E657469 		.ascii	"netif\000"
 4286      6600
 4287              	.LASF75:
 4288 0665 736E645F 		.ascii	"snd_queuelen\000"
 4288      71756575 
 4288      656C656E 
 4288      00
 4289              	.LASF114:
 4290 0672 63686B73 		.ascii	"chksum\000"
 4290      756D00
 4291              	.LASF141:
 4292 0679 6C706362 		.ascii	"lpcb\000"
ARM GAS  /tmp/ccTLGzYs.s 			page 82


 4292      00
 4293              	.LASF148:
 4294 067e 6E657469 		.ascii	"netif_set_link_up\000"
 4294      665F7365 
 4294      745F6C69 
 4294      6E6B5F75 
 4294      7000
 4295              	.LASF82:
 4296 0690 72656376 		.ascii	"recv\000"
 4296      00
 4297              	.LASF1:
 4298 0695 7369676E 		.ascii	"signed char\000"
 4298      65642063 
 4298      68617200 
 4299              	.LASF45:
 4300 06a1 7463705F 		.ascii	"tcp_pcb\000"
 4300      70636200 
 4301              	.LASF8:
 4302 06a9 73686F72 		.ascii	"short unsigned int\000"
 4302      7420756E 
 4302      7369676E 
 4302      65642069 
 4302      6E7400
 4303              	.LASF87:
 4304 06bc 70657273 		.ascii	"persist_cnt\000"
 4304      6973745F 
 4304      636E7400 
 4305              	.LASF47:
 4306 06c8 72656D6F 		.ascii	"remote_ip\000"
 4306      74655F69 
 4306      7000
 4307              	.LASF21:
 4308 06d2 69705F61 		.ascii	"ip_addr_t\000"
 4308      6464725F 
 4308      7400
 4309              	.LASF63:
 4310 06dc 6E727478 		.ascii	"nrtx\000"
 4310      00
 4311              	.LASF110:
 4312 06e1 64657374 		.ascii	"dest\000"
 4312      00
 4313              	.LASF98:
 4314 06e6 53594E5F 		.ascii	"SYN_RCVD\000"
 4314      52435644 
 4314      00
 4315              	.LASF23:
 4316 06ef 69705F61 		.ascii	"ip_addr\000"
 4316      64647200 
 4317              	.LASF117:
 4318 06f7 70636273 		.ascii	"pcbs\000"
 4318      00
 4319              		.ident	"GCC: (crosstool-NG 1.17.0 - PSAS ST32F4 GFE) 4.7.2"
ARM GAS  /tmp/ccTLGzYs.s 			page 83


DEFINED SYMBOLS
                            *ABS*:0000000000000000 netif.c
     /tmp/ccTLGzYs.s:21     .text.netif_init:0000000000000000 $t
     /tmp/ccTLGzYs.s:27     .text.netif_init:0000000000000000 netif_init
     /tmp/ccTLGzYs.s:40     .text.netif_remove:0000000000000000 $t
     /tmp/ccTLGzYs.s:46     .text.netif_remove:0000000000000000 netif_remove
     /tmp/ccTLGzYs.s:124    .text.netif_remove:0000000000000048 $d
     /tmp/ccTLGzYs.s:132    .text.netif_find:0000000000000000 $t
     /tmp/ccTLGzYs.s:138    .text.netif_find:0000000000000000 netif_find
     /tmp/ccTLGzYs.s:199    .text.netif_find:000000000000003c $d
     /tmp/ccTLGzYs.s:204    .text.netif_set_ipaddr:0000000000000000 $t
     /tmp/ccTLGzYs.s:210    .text.netif_set_ipaddr:0000000000000000 netif_set_ipaddr
     /tmp/ccTLGzYs.s:312    .text.netif_set_ipaddr:0000000000000058 $d
     /tmp/ccTLGzYs.s:318    .text.netif_set_addr:0000000000000000 $t
     /tmp/ccTLGzYs.s:324    .text.netif_set_addr:0000000000000000 netif_set_addr
     /tmp/ccTLGzYs.s:371    .text.netif_add:0000000000000000 $t
     /tmp/ccTLGzYs.s:377    .text.netif_add:0000000000000000 netif_add
     /tmp/ccTLGzYs.s:473    .text.netif_add:0000000000000060 $d
     /tmp/ccTLGzYs.s:479    .text.netif_set_gw:0000000000000000 $t
     /tmp/ccTLGzYs.s:485    .text.netif_set_gw:0000000000000000 netif_set_gw
     /tmp/ccTLGzYs.s:506    .text.netif_set_netmask:0000000000000000 $t
     /tmp/ccTLGzYs.s:512    .text.netif_set_netmask:0000000000000000 netif_set_netmask
     /tmp/ccTLGzYs.s:533    .text.netif_set_default:0000000000000000 $t
     /tmp/ccTLGzYs.s:539    .text.netif_set_default:0000000000000000 netif_set_default
     /tmp/ccTLGzYs.s:701    .bss.netif_default:0000000000000000 .LANCHOR1
     /tmp/ccTLGzYs.s:556    .text.netif_set_up:0000000000000000 $t
     /tmp/ccTLGzYs.s:562    .text.netif_set_up:0000000000000000 netif_set_up
     /tmp/ccTLGzYs.s:596    .text.netif_set_down:0000000000000000 $t
     /tmp/ccTLGzYs.s:602    .text.netif_set_down:0000000000000000 netif_set_down
     /tmp/ccTLGzYs.s:622    .text.netif_set_link_up:0000000000000000 $t
     /tmp/ccTLGzYs.s:628    .text.netif_set_link_up:0000000000000000 netif_set_link_up
     /tmp/ccTLGzYs.s:663    .text.netif_set_link_down:0000000000000000 $t
     /tmp/ccTLGzYs.s:669    .text.netif_set_link_down:0000000000000000 netif_set_link_down
     /tmp/ccTLGzYs.s:704    .bss.netif_default:0000000000000000 netif_default
     /tmp/ccTLGzYs.s:697    .bss.netif_list:0000000000000000 netif_list
     /tmp/ccTLGzYs.s:693    .bss.netif_list:0000000000000000 $d
     /tmp/ccTLGzYs.s:700    .bss.netif_default:0000000000000000 $d
     /tmp/ccTLGzYs.s:710    .bss.netifnum.5518:0000000000000000 netifnum.5518
     /tmp/ccTLGzYs.s:711    .bss.netifnum.5518:0000000000000000 $d
                     .debug_frame:0000000000000010 $d
     /tmp/ccTLGzYs.s:478    .text.netif_add:0000000000000068 $t

UNDEFINED SYMBOLS
tcp_abort
tcp_active_pcbs
tcp_listen_pcbs
port_halt
etharp_request
