ARM GAS  /tmp/ccTLGzYs.s 			page 1


   1              		.syntax unified
   2              		.cpu cortex-m4
   3              		.eabi_attribute 27, 3
   4              		.eabi_attribute 28, 1
   5              		.fpu fpv4-sp-d16
   6              		.eabi_attribute 20, 1
   7              		.eabi_attribute 21, 1
   8              		.eabi_attribute 23, 3
   9              		.eabi_attribute 24, 1
  10              		.eabi_attribute 25, 1
  11              		.eabi_attribute 26, 1
  12              		.eabi_attribute 30, 2
  13              		.eabi_attribute 34, 1
  14              		.eabi_attribute 18, 4
  15              		.thumb
  16              		.file	"netif.c"
  17              		.text
  18              	.Ltext0:
  19              		.cfi_sections	.debug_frame
  20              		.section	.text.netif_init,"ax",%progbits
  21              		.align	2
  22              		.p2align 4,,15
  23              		.global	netif_init
  24              		.thumb
  25              		.thumb_func
  26              		.type	netif_init, %function
  27              	netif_init:
  28              	.LFB7:
  29              		.file 1 "../../ext/lwip/src/core/netif.c"
  30              		.loc 1 105 0
  31              		.cfi_startproc
  32              		@ args = 0, pretend = 0, frame = 0
  33              		@ frame_needed = 0, uses_anonymous_args = 0
  34              		@ link register save eliminated.
  35 0000 7047     		bx	lr
  36              		.cfi_endproc
  37              	.LFE7:
  38              		.size	netif_init, .-netif_init
  39 0002 00BFAFF3 		.section	.text.netif_remove,"ax",%progbits
  39      0080AFF3 
  39      0080AFF3 
  39      0080
  40              		.align	2
  41              		.p2align 4,,15
  42              		.global	netif_remove
  43              		.thumb
  44              		.thumb_func
  45              		.type	netif_remove, %function
  46              	netif_remove:
  47              	.LFB10:
  48              		.loc 1 237 0
  49              		.cfi_startproc
  50              		@ args = 0, pretend = 0, frame = 0
  51              		@ frame_needed = 0, uses_anonymous_args = 0
  52              		@ link register save eliminated.
  53              	.LVL0:
  54              		.loc 1 238 0
ARM GAS  /tmp/ccTLGzYs.s 			page 2


  55 0000 00B3     		cbz	r0, .L2
  56              		.loc 1 248 0
  57 0002 90F82930 		ldrb	r3, [r0, #41]	@ zero_extendqisi2
  58 0006 DA07     		lsls	r2, r3, #31
  59              	.LVL1:
  60              	.LBB11:
  61              	.LBB12:
  62              		.loc 1 489 0
  63 0008 44BF     		itt	mi
  64 000a 23F00103 		bicmi	r3, r3, #1
  65 000e 80F82930 		strbmi	r3, [r0, #41]
  66              	.LBE12:
  67              	.LBE11:
  68              		.loc 1 256 0
  69 0012 0D4B     		ldr	r3, .L24
  70 0014 1A68     		ldr	r2, [r3, #0]
  71 0016 8242     		cmp	r2, r0
  72 0018 0CD0     		beq	.L8
  73              	.LVL2:
  74              	.LBB13:
  75              		.loc 1 261 0 discriminator 1
  76 001a 9AB1     		cbz	r2, .L2
  77              		.loc 1 262 0
  78 001c 1368     		ldr	r3, [r2, #0]
  79 001e 8342     		cmp	r3, r0
  80 0020 07D0     		beq	.L22
  81              	.LVL3:
  82              		.loc 1 261 0
  83 0022 2BB1     		cbz	r3, .L23
  84              	.L10:
  85              		.loc 1 262 0
  86 0024 1A68     		ldr	r2, [r3, #0]
  87 0026 8242     		cmp	r2, r0
  88 0028 04D0     		beq	.L8
  89 002a 1346     		mov	r3, r2
  90              	.LVL4:
  91              		.loc 1 261 0
  92 002c 002B     		cmp	r3, #0
  93 002e F9D1     		bne	.L10
  94              	.LVL5:
  95              	.L23:
  96 0030 7047     		bx	lr
  97              	.LVL6:
  98              	.L22:
  99              		.loc 1 262 0
 100 0032 1346     		mov	r3, r2
 101              	.LVL7:
 102              	.L8:
 103              		.loc 1 263 0
 104 0034 0268     		ldr	r2, [r0, #0]
 105 0036 1A60     		str	r2, [r3, #0]
 106              	.LBE13:
 107              		.loc 1 272 0
 108 0038 044B     		ldr	r3, .L24+4
 109 003a 1A68     		ldr	r2, [r3, #0]
 110 003c 8242     		cmp	r2, r0
 111 003e 01D1     		bne	.L2
ARM GAS  /tmp/ccTLGzYs.s 			page 3


 112              	.LVL8:
 113              	.LBB14:
 114              	.LBB15:
 115              		.loc 1 435 0
 116 0040 0022     		movs	r2, #0
 117 0042 1A60     		str	r2, [r3, #0]
 118              	.LVL9:
 119              	.L2:
 120 0044 7047     		bx	lr
 121              	.L25:
 122 0046 00BF     		.align	2
 123              	.L24:
 124 0048 00000000 		.word	.LANCHOR0
 125 004c 00000000 		.word	.LANCHOR1
 126              	.LBE15:
 127              	.LBE14:
 128              		.cfi_endproc
 129              	.LFE10:
 130              		.size	netif_remove, .-netif_remove
 131              		.section	.text.netif_find,"ax",%progbits
 132              		.align	2
 133              		.p2align 4,,15
 134              		.global	netif_find
 135              		.thumb
 136              		.thumb_func
 137              		.type	netif_find, %function
 138              	netif_find:
 139              	.LFB11:
 140              		.loc 1 287 0
 141              		.cfi_startproc
 142              		@ args = 0, pretend = 0, frame = 0
 143              		@ frame_needed = 0, uses_anonymous_args = 0
 144              		@ link register save eliminated.
 145              	.LVL10:
 146 0000 10B4     		push	{r4}
 147              	.LCFI0:
 148              		.cfi_def_cfa_offset 4
 149              		.cfi_offset 4, -4
 150              		.loc 1 291 0
 151 0002 C8B1     		cbz	r0, .L30
 152              		.loc 1 297 0
 153 0004 0D4B     		ldr	r3, .L36
 154              		.loc 1 295 0
 155 0006 8178     		ldrb	r1, [r0, #2]	@ zero_extendqisi2
 156              		.loc 1 297 0
 157 0008 1B68     		ldr	r3, [r3, #0]
 158              		.loc 1 295 0
 159 000a 3039     		subs	r1, r1, #48
 160 000c C9B2     		uxtb	r1, r1
 161              	.LVL11:
 162              		.loc 1 297 0
 163 000e 13B9     		cbnz	r3, .L33
 164 0010 0FE0     		b	.L27
 165              	.L28:
 166 0012 1B68     		ldr	r3, [r3, #0]
 167              	.LVL12:
 168 0014 6BB1     		cbz	r3, .L27
ARM GAS  /tmp/ccTLGzYs.s 			page 4


 169              	.L33:
 170              		.loc 1 298 0
 171 0016 93F82C20 		ldrb	r2, [r3, #44]	@ zero_extendqisi2
 172 001a 8A42     		cmp	r2, r1
 173 001c F9D1     		bne	.L28
 174              		.loc 1 298 0 is_stmt 0 discriminator 1
 175 001e 93F82A20 		ldrb	r2, [r3, #42]	@ zero_extendqisi2
 176 0022 0478     		ldrb	r4, [r0, #0]	@ zero_extendqisi2
 177 0024 9442     		cmp	r4, r2
 178 0026 F4D1     		bne	.L28
 179              		.loc 1 299 0 is_stmt 1
 180 0028 93F82B20 		ldrb	r2, [r3, #43]	@ zero_extendqisi2
 181 002c 4478     		ldrb	r4, [r0, #1]	@ zero_extendqisi2
 182 002e 9442     		cmp	r4, r2
 183 0030 EFD1     		bne	.L28
 184              	.LVL13:
 185              	.L27:
 186              		.loc 1 307 0
 187 0032 1846     		mov	r0, r3
 188              	.LVL14:
 189 0034 10BC     		pop	{r4}
 190 0036 7047     		bx	lr
 191              	.LVL15:
 192              	.L30:
 193              		.loc 1 292 0
 194 0038 0346     		mov	r3, r0
 195 003a FAE7     		b	.L27
 196              	.L37:
 197              		.align	2
 198              	.L36:
 199 003c 00000000 		.word	.LANCHOR0
 200              		.cfi_endproc
 201              	.LFE11:
 202              		.size	netif_find, .-netif_find
 203              		.section	.text.netif_set_ipaddr,"ax",%progbits
 204              		.align	2
 205              		.p2align 4,,15
 206              		.global	netif_set_ipaddr
 207              		.thumb
 208              		.thumb_func
 209              		.type	netif_set_ipaddr, %function
 210              	netif_set_ipaddr:
 211              	.LFB12:
 212              		.loc 1 320 0
 213              		.cfi_startproc
 214              		@ args = 0, pretend = 0, frame = 0
 215              		@ frame_needed = 0, uses_anonymous_args = 0
 216              	.LVL16:
 217 0000 70B5     		push	{r4, r5, r6, lr}
 218              	.LCFI1:
 219              		.cfi_def_cfa_offset 16
 220              		.cfi_offset 4, -16
 221              		.cfi_offset 5, -12
 222              		.cfi_offset 6, -8
 223              		.cfi_offset 14, -4
 224              		.loc 1 328 0
 225 0002 4268     		ldr	r2, [r0, #4]
ARM GAS  /tmp/ccTLGzYs.s 			page 5


 226 0004 0C68     		ldr	r4, [r1, #0]
 227 0006 9442     		cmp	r4, r2
 228              		.loc 1 320 0
 229 0008 0546     		mov	r5, r0
 230 000a 0E46     		mov	r6, r1
 231              		.loc 1 328 0
 232 000c 22D0     		beq	.L39
 233              		.loc 1 331 0
 234 000e 124B     		ldr	r3, .L61
 235 0010 1868     		ldr	r0, [r3, #0]
 236              	.LVL17:
 237              		.loc 1 332 0
 238 0012 90B1     		cbz	r0, .L40
 239              		.loc 1 334 0
 240 0014 0468     		ldr	r4, [r0, #0]
 241 0016 9442     		cmp	r4, r2
 242              		.loc 1 346 0
 243 0018 18BF     		it	ne
 244 001a C068     		ldrne	r0, [r0, #12]
 245              	.LVL18:
 246              		.loc 1 334 0
 247 001c 06D0     		beq	.L59
 248              	.LVL19:
 249              	.L42:
 250              		.loc 1 332 0 discriminator 1
 251 001e 58B1     		cbz	r0, .L43
 252              	.L60:
 253              		.loc 1 334 0
 254 0020 0468     		ldr	r4, [r0, #0]
 255 0022 6A68     		ldr	r2, [r5, #4]
 256 0024 9442     		cmp	r4, r2
 257              		.loc 1 346 0
 258 0026 18BF     		it	ne
 259 0028 C068     		ldrne	r0, [r0, #12]
 260              	.LVL20:
 261              		.loc 1 334 0
 262 002a F8D1     		bne	.L42
 263              	.L59:
 264              	.LBB16:
 265              		.loc 1 341 0
 266 002c C468     		ldr	r4, [r0, #12]
 267              	.LVL21:
 268              		.loc 1 343 0
 269 002e FFF7FEFF 		bl	tcp_abort
 270              	.LVL22:
 271              		.loc 1 344 0
 272 0032 2046     		mov	r0, r4
 273              	.LBE16:
 274              		.loc 1 332 0
 275 0034 0028     		cmp	r0, #0
 276 0036 F3D1     		bne	.L60
 277              	.LVL23:
 278              	.L43:
 279 0038 3468     		ldr	r4, [r6, #0]
 280              	.L40:
 281              		.loc 1 349 0
 282 003a 084B     		ldr	r3, .L61+4
ARM GAS  /tmp/ccTLGzYs.s 			page 6


 283 003c 1B68     		ldr	r3, [r3, #0]
 284              	.LVL24:
 285 003e 4BB1     		cbz	r3, .L39
 286              	.LVL25:
 287              	.L53:
 288              		.loc 1 351 0
 289 0040 1A68     		ldr	r2, [r3, #0]
 290 0042 22B1     		cbz	r2, .L45
 291              		.loc 1 351 0 is_stmt 0 discriminator 1
 292 0044 6868     		ldr	r0, [r5, #4]
 293 0046 8242     		cmp	r2, r0
 294              		.loc 1 355 0 is_stmt 1 discriminator 1
 295 0048 04BF     		itt	eq
 296 004a 1C60     		streq	r4, [r3, #0]
 297 004c 3468     		ldreq	r4, [r6, #0]
 298              	.L45:
 299              		.loc 1 349 0
 300 004e DB68     		ldr	r3, [r3, #12]
 301              	.LVL26:
 302 0050 002B     		cmp	r3, #0
 303 0052 F5D1     		bne	.L53
 304              	.LVL27:
 305              	.L39:
 306              		.loc 1 363 0
 307 0054 6C60     		str	r4, [r5, #4]
 308 0056 70BD     		pop	{r4, r5, r6, pc}
 309              	.L62:
 310              		.align	2
 311              	.L61:
 312 0058 00000000 		.word	tcp_active_pcbs
 313 005c 00000000 		.word	tcp_listen_pcbs
 314              		.cfi_endproc
 315              	.LFE12:
 316              		.size	netif_set_ipaddr, .-netif_set_ipaddr
 317              		.section	.text.netif_set_addr,"ax",%progbits
 318              		.align	2
 319              		.p2align 4,,15
 320              		.global	netif_set_addr
 321              		.thumb
 322              		.thumb_func
 323              		.type	netif_set_addr, %function
 324              	netif_set_addr:
 325              	.LFB9:
 326              		.loc 1 224 0
 327              		.cfi_startproc
 328              		@ args = 0, pretend = 0, frame = 0
 329              		@ frame_needed = 0, uses_anonymous_args = 0
 330              	.LVL28:
 331 0000 70B5     		push	{r4, r5, r6, lr}
 332              	.LCFI2:
 333              		.cfi_def_cfa_offset 16
 334              		.cfi_offset 4, -16
 335              		.cfi_offset 5, -12
 336              		.cfi_offset 6, -8
 337              		.cfi_offset 14, -4
 338              		.loc 1 224 0
 339 0002 1546     		mov	r5, r2
ARM GAS  /tmp/ccTLGzYs.s 			page 7


 340 0004 0446     		mov	r4, r0
 341 0006 1E46     		mov	r6, r3
 342              		.loc 1 225 0
 343 0008 FFF7FEFF 		bl	netif_set_ipaddr
 344              	.LVL29:
 345              	.LBB17:
 346              	.LBB18:
 347              		.loc 1 409 0
 348 000c 05B1     		cbz	r5, .L64
 349 000e 2D68     		ldr	r5, [r5, #0]
 350              	.LVL30:
 351              	.L64:
 352 0010 A560     		str	r5, [r4, #8]
 353              	.LVL31:
 354              	.LBE18:
 355              	.LBE17:
 356              	.LBB19:
 357              	.LBB20:
 358              		.loc 1 386 0
 359 0012 06B1     		cbz	r6, .L65
 360 0014 3668     		ldr	r6, [r6, #0]
 361              	.LVL32:
 362              	.L65:
 363 0016 E660     		str	r6, [r4, #12]
 364 0018 70BD     		pop	{r4, r5, r6, pc}
 365              	.LBE20:
 366              	.LBE19:
 367              		.cfi_endproc
 368              	.LFE9:
 369              		.size	netif_set_addr, .-netif_set_addr
 370              		.section	.text.netif_add,"ax",%progbits
 371              		.align	2
 372              		.p2align 4,,15
 373              		.global	netif_add
 374              		.thumb
 375              		.thumb_func
 376              		.type	netif_add, %function
 377              	netif_add:
 378              	.LFB8:
 379              		.loc 1 139 0
 380              		.cfi_startproc
 381              		@ args = 12, pretend = 0, frame = 16
 382              		@ frame_needed = 0, uses_anonymous_args = 0
 383              	.LVL33:
 384 0000 F0B5     		push	{r4, r5, r6, r7, lr}
 385              	.LCFI3:
 386              		.cfi_def_cfa_offset 20
 387              		.cfi_offset 4, -20
 388              		.cfi_offset 5, -16
 389              		.cfi_offset 6, -12
 390              		.cfi_offset 7, -8
 391              		.cfi_offset 14, -4
 392 0002 85B0     		sub	sp, sp, #20
 393              	.LCFI4:
 394              		.cfi_def_cfa_offset 40
 395              		.loc 1 139 0
 396 0004 0446     		mov	r4, r0
ARM GAS  /tmp/ccTLGzYs.s 			page 8


 397 0006 0B9E     		ldr	r6, [sp, #44]
 398              		.loc 1 142 0
 399 0008 002E     		cmp	r6, #0
 400 000a 20D0     		beq	.L72
 401              	.LVL34:
 402              	.L69:
 403              		.loc 1 172 0
 404 000c 0A98     		ldr	r0, [sp, #40]
 405              		.loc 1 173 0
 406 000e 144F     		ldr	r7, .L73
 407              		.loc 1 174 0
 408 0010 0C9D     		ldr	r5, [sp, #48]
 409              		.loc 1 172 0
 410 0012 E061     		str	r0, [r4, #28]
 411              		.loc 1 173 0
 412 0014 3878     		ldrb	r0, [r7, #0]	@ zero_extendqisi2
 413              		.loc 1 174 0
 414 0016 2561     		str	r5, [r4, #16]
 415              		.loc 1 145 0
 416 0018 0025     		movs	r5, #0
 417              		.loc 1 173 0
 418 001a 00F1010E 		add	lr, r0, #1
 419 001e 84F82C00 		strb	r0, [r4, #44]
 420              		.loc 1 145 0
 421 0022 6560     		str	r5, [r4, #4]
 422              		.loc 1 182 0
 423 0024 2046     		mov	r0, r4
 424              		.loc 1 146 0
 425 0026 A560     		str	r5, [r4, #8]
 426              		.loc 1 147 0
 427 0028 E560     		str	r5, [r4, #12]
 428              		.loc 1 148 0
 429 002a 84F82950 		strb	r5, [r4, #41]
 430              		.loc 1 173 0
 431 002e 87F800E0 		strb	lr, [r7, #0]
 432              		.loc 1 182 0
 433 0032 FFF7FEFF 		bl	netif_set_addr
 434              	.LVL35:
 435              		.loc 1 185 0
 436 0036 2046     		mov	r0, r4
 437 0038 B047     		blx	r6
 438              	.LVL36:
 439 003a 30B9     		cbnz	r0, .L71
 440              		.loc 1 190 0
 441 003c 094B     		ldr	r3, .L73+4
 442 003e 1A68     		ldr	r2, [r3, #0]
 443 0040 2260     		str	r2, [r4, #0]
 444              		.loc 1 191 0
 445 0042 1C60     		str	r4, [r3, #0]
 446              	.LVL37:
 447              	.L70:
 448              		.loc 1 210 0
 449 0044 2046     		mov	r0, r4
 450 0046 05B0     		add	sp, sp, #20
 451 0048 F0BD     		pop	{r4, r5, r6, r7, pc}
 452              	.LVL38:
 453              	.L71:
ARM GAS  /tmp/ccTLGzYs.s 			page 9


 454              		.loc 1 186 0
 455 004a 2C46     		mov	r4, r5
 456              	.LVL39:
 457 004c FAE7     		b	.L70
 458              	.LVL40:
 459              	.L72:
 460              		.loc 1 142 0 discriminator 1
 461 004e 0391     		str	r1, [sp, #12]
 462 0050 0292     		str	r2, [sp, #8]
 463 0052 0193     		str	r3, [sp, #4]
 464 0054 FFF7FEFF 		bl	port_halt
 465              	.LVL41:
 466 0058 019B     		ldr	r3, [sp, #4]
 467 005a 029A     		ldr	r2, [sp, #8]
 468 005c 0399     		ldr	r1, [sp, #12]
 469 005e D5E7     		b	.L69
 470              	.L74:
 471              		.align	2
 472              	.L73:
 473 0060 00000000 		.word	.LANCHOR2
 474 0064 00000000 		.word	.LANCHOR0
 475              		.cfi_endproc
 476              	.LFE8:
 477              		.size	netif_add, .-netif_add
 478 0068 AFF30080 		.section	.text.netif_set_gw,"ax",%progbits
 478      AFF30080 
 479              		.align	2
 480              		.p2align 4,,15
 481              		.global	netif_set_gw
 482              		.thumb
 483              		.thumb_func
 484              		.type	netif_set_gw, %function
 485              	netif_set_gw:
 486              	.LFB13:
 487              		.loc 1 385 0
 488              		.cfi_startproc
 489              		@ args = 0, pretend = 0, frame = 0
 490              		@ frame_needed = 0, uses_anonymous_args = 0
 491              		@ link register save eliminated.
 492              	.LVL42:
 493              		.loc 1 386 0
 494 0000 01B1     		cbz	r1, .L76
 495              		.loc 1 386 0 is_stmt 0 discriminator 1
 496 0002 0968     		ldr	r1, [r1, #0]
 497              	.LVL43:
 498              	.L76:
 499              		.loc 1 386 0 discriminator 3
 500 0004 C160     		str	r1, [r0, #12]
 501 0006 7047     		bx	lr
 502              		.cfi_endproc
 503              	.LFE13:
 504              		.size	netif_set_gw, .-netif_set_gw
 505 0008 AFF30080 		.section	.text.netif_set_netmask,"ax",%progbits
 505      AFF30080 
 506              		.align	2
 507              		.p2align 4,,15
 508              		.global	netif_set_netmask
ARM GAS  /tmp/ccTLGzYs.s 			page 10


 509              		.thumb
 510              		.thumb_func
 511              		.type	netif_set_netmask, %function
 512              	netif_set_netmask:
 513              	.LFB14:
 514              		.loc 1 406 0 is_stmt 1
 515              		.cfi_startproc
 516              		@ args = 0, pretend = 0, frame = 0
 517              		@ frame_needed = 0, uses_anonymous_args = 0
 518              		@ link register save eliminated.
 519              	.LVL44:
 520              		.loc 1 409 0
 521 0000 01B1     		cbz	r1, .L79
 522              		.loc 1 409 0 is_stmt 0 discriminator 1
 523 0002 0968     		ldr	r1, [r1, #0]
 524              	.LVL45:
 525              	.L79:
 526              		.loc 1 409 0 discriminator 3
 527 0004 8160     		str	r1, [r0, #8]
 528 0006 7047     		bx	lr
 529              		.cfi_endproc
 530              	.LFE14:
 531              		.size	netif_set_netmask, .-netif_set_netmask
 532 0008 AFF30080 		.section	.text.netif_set_default,"ax",%progbits
 532      AFF30080 
 533              		.align	2
 534              		.p2align 4,,15
 535              		.global	netif_set_default
 536              		.thumb
 537              		.thumb_func
 538              		.type	netif_set_default, %function
 539              	netif_set_default:
 540              	.LFB15:
 541              		.loc 1 427 0 is_stmt 1
 542              		.cfi_startproc
 543              		@ args = 0, pretend = 0, frame = 0
 544              		@ frame_needed = 0, uses_anonymous_args = 0
 545              		@ link register save eliminated.
 546              	.LVL46:
 547              		.loc 1 435 0
 548 0000 40F20003 		movw	r3, #:lower16:.LANCHOR1
 549 0004 C0F20003 		movt	r3, #:upper16:.LANCHOR1
 550 0008 1860     		str	r0, [r3, #0]
 551 000a 7047     		bx	lr
 552              		.cfi_endproc
 553              	.LFE15:
 554              		.size	netif_set_default, .-netif_set_default
 555 000c AFF30080 		.section	.text.netif_set_up,"ax",%progbits
 556              		.align	2
 557              		.p2align 4,,15
 558              		.global	netif_set_up
 559              		.thumb
 560              		.thumb_func
 561              		.type	netif_set_up, %function
 562              	netif_set_up:
 563              	.LFB16:
 564              		.loc 1 450 0
ARM GAS  /tmp/ccTLGzYs.s 			page 11


 565              		.cfi_startproc
 566              		@ args = 0, pretend = 0, frame = 0
 567              		@ frame_needed = 0, uses_anonymous_args = 0
 568              		@ link register save eliminated.
 569              	.LVL47:
 570              		.loc 1 451 0
 571 0000 90F82930 		ldrb	r3, [r0, #41]	@ zero_extendqisi2
 572 0004 DA07     		lsls	r2, r3, #31
 573 0006 07D4     		bmi	.L82
 574              		.loc 1 452 0
 575 0008 43F00102 		orr	r2, r3, #1
 576              		.loc 1 463 0
 577 000c 03F03003 		and	r3, r3, #48
 578 0010 302B     		cmp	r3, #48
 579              		.loc 1 452 0
 580 0012 80F82920 		strb	r2, [r0, #41]
 581              		.loc 1 463 0
 582 0016 00D0     		beq	.L86
 583              	.L82:
 584 0018 7047     		bx	lr
 585              	.L86:
 586              		.loc 1 464 0
 587 001a 011D     		adds	r1, r0, #4
 588              		.loc 1 476 0
 589              		.loc 1 464 0
 590 001c FFF7FEBF 		b	etharp_request
 591              	.LVL48:
 592              		.cfi_endproc
 593              	.LFE16:
 594              		.size	netif_set_up, .-netif_set_up
 595              		.section	.text.netif_set_down,"ax",%progbits
 596              		.align	2
 597              		.p2align 4,,15
 598              		.global	netif_set_down
 599              		.thumb
 600              		.thumb_func
 601              		.type	netif_set_down, %function
 602              	netif_set_down:
 603              	.LFB17:
 604              		.loc 1 487 0
 605              		.cfi_startproc
 606              		@ args = 0, pretend = 0, frame = 0
 607              		@ frame_needed = 0, uses_anonymous_args = 0
 608              		@ link register save eliminated.
 609              	.LVL49:
 610              		.loc 1 488 0
 611 0000 90F82930 		ldrb	r3, [r0, #41]	@ zero_extendqisi2
 612 0004 D907     		lsls	r1, r3, #31
 613              		.loc 1 489 0
 614 0006 44BF     		itt	mi
 615 0008 23F00103 		bicmi	r3, r3, #1
 616 000c 80F82930 		strbmi	r3, [r0, #41]
 617 0010 7047     		bx	lr
 618              		.cfi_endproc
 619              	.LFE17:
 620              		.size	netif_set_down, .-netif_set_down
 621 0012 00BFAFF3 		.section	.text.netif_set_link_up,"ax",%progbits
ARM GAS  /tmp/ccTLGzYs.s 			page 12


 621      0080AFF3 
 621      0080AFF3 
 621      0080
 622              		.align	2
 623              		.p2align 4,,15
 624              		.global	netif_set_link_up
 625              		.thumb
 626              		.thumb_func
 627              		.type	netif_set_link_up, %function
 628              	netif_set_link_up:
 629              	.LFB18:
 630              		.loc 1 514 0
 631              		.cfi_startproc
 632              		@ args = 0, pretend = 0, frame = 0
 633              		@ frame_needed = 0, uses_anonymous_args = 0
 634              		@ link register save eliminated.
 635              	.LVL50:
 636              		.loc 1 515 0
 637 0000 90F82930 		ldrb	r3, [r0, #41]	@ zero_extendqisi2
 638 0004 03F01002 		and	r2, r3, #16
 639 0008 D2B2     		uxtb	r2, r2
 640 000a 3AB9     		cbnz	r2, .L92
 641              		.loc 1 516 0
 642 000c 43F01002 		orr	r2, r3, #16
 643              		.loc 1 533 0
 644 0010 03F02103 		and	r3, r3, #33
 645 0014 212B     		cmp	r3, #33
 646              		.loc 1 516 0
 647 0016 80F82920 		strb	r2, [r0, #41]
 648              		.loc 1 533 0
 649 001a 00D0     		beq	.L96
 650              	.L92:
 651 001c 7047     		bx	lr
 652              	.L96:
 653              		.loc 1 534 0
 654 001e 011D     		adds	r1, r0, #4
 655              		.loc 1 547 0
 656              		.loc 1 534 0
 657 0020 FFF7FEBF 		b	etharp_request
 658              	.LVL51:
 659              		.cfi_endproc
 660              	.LFE18:
 661              		.size	netif_set_link_up, .-netif_set_link_up
 662 0024 AFF30080 		.section	.text.netif_set_link_down,"ax",%progbits
 662      AFF30080 
 662      AFF30080 
 663              		.align	2
 664              		.p2align 4,,15
 665              		.global	netif_set_link_down
 666              		.thumb
 667              		.thumb_func
 668              		.type	netif_set_link_down, %function
 669              	netif_set_link_down:
 670              	.LFB19:
 671              		.loc 1 553 0
 672              		.cfi_startproc
 673              		@ args = 0, pretend = 0, frame = 0
ARM GAS  /tmp/ccTLGzYs.s 			page 13


 674              		@ frame_needed = 0, uses_anonymous_args = 0
 675              		@ link register save eliminated.
 676              	.LVL52:
 677              		.loc 1 554 0
 678 0000 90F82930 		ldrb	r3, [r0, #41]	@ zero_extendqisi2
 679 0004 03F01002 		and	r2, r3, #16
 680 0008 D2B2     		uxtb	r2, r2
 681 000a 1AB1     		cbz	r2, .L97
 682              		.loc 1 555 0
 683 000c 23F01003 		bic	r3, r3, #16
 684 0010 80F82930 		strb	r3, [r0, #41]
 685              	.L97:
 686 0014 7047     		bx	lr
 687              		.cfi_endproc
 688              	.LFE19:
 689              		.size	netif_set_link_down, .-netif_set_link_down
 690              		.global	netif_default
 691              		.global	netif_list
 692 0016 00BFAFF3 		.section	.bss.netif_list,"aw",%nobits
 692      0080AFF3 
 692      0080
 693              		.align	2
 694              		.set	.LANCHOR0,. + 0
 695              		.type	netif_list, %object
 696              		.size	netif_list, 4
 697              	netif_list:
 698 0000 00000000 		.space	4
 699              		.section	.bss.netif_default,"aw",%nobits
 700              		.align	2
 701              		.set	.LANCHOR1,. + 0
 702              		.type	netif_default, %object
 703              		.size	netif_default, 4
 704              	netif_default:
 705 0000 00000000 		.space	4
 706              		.section	.bss.netifnum.5518,"aw",%nobits
 707              		.set	.LANCHOR2,. + 0
 708              		.type	netifnum.5518, %object
 709              		.size	netifnum.5518, 1
 710              	netifnum.5518:
 711 0000 00       		.space	1
 712              		.text
 713              	.Letext0:
 714              		.file 2 "/opt/psas/x-tools/stm32f407/arm-psas-eabi/bin/../lib/gcc/arm-psas-eabi/4.7.2/../../../../
 715              		.file 3 "../../os/various/lwip_bindings/arch/cc.h"
 716              		.file 4 "../../ext/lwip/src/include/ipv4/lwip/ip_addr.h"
 717              		.file 5 "../../ext/lwip/src/include/lwip/err.h"
 718              		.file 6 "../../ext/lwip/src/include/lwip/pbuf.h"
 719              		.file 7 "../../ext/lwip/src/include/lwip/netif.h"
 720              		.file 8 "../../ext/lwip/src/include/lwip/tcp.h"
 721              		.file 9 "../../ext/lwip/src/include/lwip/tcp_impl.h"
 722              		.file 10 "../../ext/lwip/src/include/netif/etharp.h"
 723              		.file 11 "../../ext/lwip/src/include/lwip/memp.h"
 724              		.file 12 "../../os/ports/GCC/ARMCMx/chcore_v7m.h"