ARM GAS  /tmp/ccYU8DrE.s 			page 1


   1              		.syntax unified
   2              		.cpu cortex-m4
   3              		.eabi_attribute 27, 3
   4              		.eabi_attribute 28, 1
   5              		.fpu fpv4-sp-d16
   6              		.eabi_attribute 20, 1
   7              		.eabi_attribute 21, 1
   8              		.eabi_attribute 23, 3
   9              		.eabi_attribute 24, 1
  10              		.eabi_attribute 25, 1
  11              		.eabi_attribute 26, 1
  12              		.eabi_attribute 30, 2
  13              		.eabi_attribute 34, 1
  14              		.eabi_attribute 18, 4
  15              		.thumb
  16              		.file	"pbuf.c"
  17              		.text
  18              	.Ltext0:
  19              		.cfi_sections	.debug_frame
  20              		.section	.text.pbuf_free_ooseq,"ax",%progbits
  21              		.align	2
  22              		.p2align 4,,15
  23              		.thumb
  24              		.thumb_func
  25              		.type	pbuf_free_ooseq, %function
  26              	pbuf_free_ooseq:
  27              	.LFB7:
  28              		.file 1 "../../ext/lwip/src/core/pbuf.c"
  29              		.loc 1 109 0
  30              		.cfi_startproc
  31              		@ args = 0, pretend = 0, frame = 0
  32              		@ frame_needed = 0, uses_anonymous_args = 0
  33              	.LVL0:
  34              		.loc 1 118 0
  35 0000 094B     		ldr	r3, .L17
  36              		.loc 1 109 0
  37 0002 10B5     		push	{r4, lr}
  38              	.LCFI0:
  39              		.cfi_def_cfa_offset 8
  40              		.cfi_offset 4, -8
  41              		.cfi_offset 14, -4
  42              		.loc 1 118 0
  43 0004 1C68     		ldr	r4, [r3, #0]
  44              	.LVL1:
  45              		.loc 1 115 0
  46 0006 094B     		ldr	r3, .L17+4
  47 0008 0022     		movs	r2, #0
  48 000a 1A70     		strb	r2, [r3, #0]
  49              		.loc 1 118 0
  50 000c 14B9     		cbnz	r4, .L6
  51 000e 09E0     		b	.L1
  52              	.LVL2:
  53              	.L11:
  54 0010 E468     		ldr	r4, [r4, #12]
  55              	.LVL3:
  56 0012 3CB1     		cbz	r4, .L1
  57              	.L6:
ARM GAS  /tmp/ccYU8DrE.s 			page 2


  58              		.loc 1 119 0
  59 0014 E06F     		ldr	r0, [r4, #124]
  60 0016 0028     		cmp	r0, #0
  61 0018 FAD0     		beq	.L11
  62              		.loc 1 122 0
  63 001a FFF7FEFF 		bl	tcp_segs_free
  64              	.LVL4:
  65              		.loc 1 123 0
  66 001e 0023     		movs	r3, #0
  67 0020 E367     		str	r3, [r4, #124]
  68              		.loc 1 124 0
  69 0022 10BD     		pop	{r4, pc}
  70              	.L1:
  71 0024 10BD     		pop	{r4, pc}
  72              	.L18:
  73 0026 00BF     		.align	2
  74              	.L17:
  75 0028 00000000 		.word	tcp_active_pcbs
  76 002c 00000000 		.word	.LANCHOR0
  77              		.cfi_endproc
  78              	.LFE7:
  79              		.size	pbuf_free_ooseq, .-pbuf_free_ooseq
  80              		.section	.text.pbuf_pool_is_empty,"ax",%progbits
  81              		.align	2
  82              		.p2align 4,,15
  83              		.thumb
  84              		.thumb_func
  85              		.type	pbuf_pool_is_empty, %function
  86              	pbuf_pool_is_empty:
  87              	.LFB8:
  88              		.loc 1 132 0
  89              		.cfi_startproc
  90              		@ args = 0, pretend = 0, frame = 0
  91              		@ frame_needed = 0, uses_anonymous_args = 0
  92 0000 38B5     		push	{r3, r4, r5, lr}
  93              	.LCFI1:
  94              		.cfi_def_cfa_offset 16
  95              		.cfi_offset 3, -16
  96              		.cfi_offset 4, -12
  97              		.cfi_offset 5, -8
  98              		.cfi_offset 14, -4
  99              		.loc 1 137 0
 100 0002 074C     		ldr	r4, .L27
 101 0004 2578     		ldrb	r5, [r4, #0]	@ zero_extendqisi2
 102              	.LVL5:
 103              		.loc 1 138 0
 104 0006 0123     		movs	r3, #1
 105 0008 2370     		strb	r3, [r4, #0]
 106              		.loc 1 141 0
 107 000a 05B1     		cbz	r5, .L26
 108              	.LVL6:
 109              	.L19:
 110 000c 38BD     		pop	{r3, r4, r5, pc}
 111              	.LVL7:
 112              	.L26:
 113              	.LBB10:
 114              	.LBB11:
ARM GAS  /tmp/ccYU8DrE.s 			page 3


 115              		.loc 1 143 0
 116 000e 0548     		ldr	r0, .L27+4
 117 0010 2946     		mov	r1, r5
 118 0012 2A46     		mov	r2, r5
 119 0014 FFF7FEFF 		bl	tcpip_callback_with_block
 120              	.LVL8:
 121 0018 0028     		cmp	r0, #0
 122 001a F7D0     		beq	.L19
 123              		.loc 1 145 0
 124 001c 2570     		strb	r5, [r4, #0]
 125 001e 38BD     		pop	{r3, r4, r5, pc}
 126              	.L28:
 127              		.align	2
 128              	.L27:
 129 0020 00000000 		.word	.LANCHOR0
 130 0024 00000000 		.word	pbuf_free_ooseq
 131              	.LBE11:
 132              	.LBE10:
 133              		.cfi_endproc
 134              	.LFE8:
 135              		.size	pbuf_pool_is_empty, .-pbuf_pool_is_empty
 136 0028 AFF30080 		.section	.text.pbuf_alloced_custom,"ax",%progbits
 136      AFF30080 
 137              		.align	2
 138              		.p2align 4,,15
 139              		.global	pbuf_alloced_custom
 140              		.thumb
 141              		.thumb_func
 142              		.type	pbuf_alloced_custom, %function
 143              	pbuf_alloced_custom:
 144              	.LFB10:
 145              		.loc 1 346 0
 146              		.cfi_startproc
 147              		@ args = 8, pretend = 0, frame = 0
 148              		@ frame_needed = 0, uses_anonymous_args = 0
 149              	.LVL9:
 150 0000 70B5     		push	{r4, r5, r6, lr}
 151              	.LCFI2:
 152              		.cfi_def_cfa_offset 16
 153              		.cfi_offset 4, -16
 154              		.cfi_offset 5, -12
 155              		.cfi_offset 6, -8
 156              		.cfi_offset 14, -4
 157              		.loc 1 346 0
 158 0002 049C     		ldr	r4, [sp, #16]
 159              		.loc 1 352 0
 160 0004 0328     		cmp	r0, #3
 161 0006 25D8     		bhi	.L30
 162 0008 DFE800F0 		tbb	[pc, r0]
 163              	.L35:
 164 000c 21       		.byte	(.L39-.L35)/2
 165 000d 1E       		.byte	(.L32-.L35)/2
 166 000e 1B       		.byte	(.L40-.L35)/2
 167 000f 02       		.byte	(.L41-.L35)/2
 168              		.align	1
 169              	.L41:
 170 0010 0020     		movs	r0, #0
ARM GAS  /tmp/ccYU8DrE.s 			page 4


 171              	.LVL10:
 172              		.loc 1 351 0
 173 0012 0646     		mov	r6, r0
 174              	.LVL11:
 175              	.L34:
 176              		.loc 1 372 0
 177 0014 BDF81450 		ldrh	r5, [sp, #20]
 178 0018 0818     		adds	r0, r1, r0
 179 001a A842     		cmp	r0, r5
 180              		.loc 1 374 0
 181 001c 4FF00000 		mov	r0, #0
 182              		.loc 1 372 0
 183 0020 1EDB     		blt	.L42
 184              		.loc 1 377 0
 185 0022 1860     		str	r0, [r3, #0]
 186              		.loc 1 378 0
 187 0024 D4B1     		cbz	r4, .L37
 188              		.loc 1 379 0
 189 0026 A419     		adds	r4, r4, r6
 190 0028 0334     		adds	r4, r4, #3
 191 002a 24F00304 		bic	r4, r4, #3
 192 002e 5C60     		str	r4, [r3, #4]
 193              	.L38:
 194              		.loc 1 383 0
 195 0030 0220     		movs	r0, #2
 196              		.loc 1 385 0
 197 0032 1A73     		strb	r2, [r3, #12]
 198              		.loc 1 386 0
 199 0034 0122     		movs	r2, #1
 200              	.LVL12:
 201              		.loc 1 383 0
 202 0036 5873     		strb	r0, [r3, #13]
 203              		.loc 1 384 0
 204 0038 1981     		strh	r1, [r3, #8]	@ movhi
 205 003a 5981     		strh	r1, [r3, #10]	@ movhi
 206              		.loc 1 386 0
 207 003c DA81     		strh	r2, [r3, #14]	@ movhi
 208              		.loc 1 387 0
 209 003e 1846     		mov	r0, r3
 210 0040 70BD     		pop	{r4, r5, r6, pc}
 211              	.LVL13:
 212              	.L40:
 213              		.loc 1 352 0
 214 0042 1020     		movs	r0, #16
 215              	.LVL14:
 216 0044 0E26     		movs	r6, #14
 217              	.LVL15:
 218              		.loc 1 364 0
 219 0046 E5E7     		b	.L34
 220              	.LVL16:
 221              	.L32:
 222              		.loc 1 352 0
 223 0048 2420     		movs	r0, #36
 224              	.LVL17:
 225 004a 2226     		movs	r6, #34
 226 004c E2E7     		b	.L34
 227              	.LVL18:
ARM GAS  /tmp/ccYU8DrE.s 			page 5


 228              	.L39:
 229 004e 3820     		movs	r0, #56
 230              	.LVL19:
 231 0050 3626     		movs	r6, #54
 232              	.LVL20:
 233 0052 DFE7     		b	.L34
 234              	.LVL21:
 235              	.L30:
 236              		.loc 1 368 0 discriminator 1
 237 0054 FFF7FEFF 		bl	port_halt
 238              	.LVL22:
 239              		.loc 1 369 0 discriminator 1
 240 0058 0020     		movs	r0, #0
 241 005a 70BD     		pop	{r4, r5, r6, pc}
 242              	.LVL23:
 243              	.L37:
 244              		.loc 1 381 0
 245 005c 5C60     		str	r4, [r3, #4]
 246 005e E7E7     		b	.L38
 247              	.L42:
 248              		.loc 1 388 0
 249 0060 70BD     		pop	{r4, r5, r6, pc}
 250              		.cfi_endproc
 251              	.LFE10:
 252              		.size	pbuf_alloced_custom, .-pbuf_alloced_custom
 253 0062 00BFAFF3 		.section	.text.pbuf_header,"ax",%progbits
 253      0080AFF3 
 253      0080AFF3 
 253      0080
 254              		.align	2
 255              		.p2align 4,,15
 256              		.global	pbuf_header
 257              		.thumb
 258              		.thumb_func
 259              		.type	pbuf_header, %function
 260              	pbuf_header:
 261              	.LFB12:
 262              		.loc 1 489 0
 263              		.cfi_startproc
 264              		@ args = 0, pretend = 0, frame = 8
 265              		@ frame_needed = 0, uses_anonymous_args = 0
 266              	.LVL24:
 267 0000 10B5     		push	{r4, lr}
 268              	.LCFI3:
 269              		.cfi_def_cfa_offset 8
 270              		.cfi_offset 4, -8
 271              		.cfi_offset 14, -4
 272 0002 82B0     		sub	sp, sp, #8
 273              	.LCFI4:
 274              		.cfi_def_cfa_offset 16
 275              		.loc 1 494 0
 276 0004 0028     		cmp	r0, #0
 277 0006 31D0     		beq	.L58
 278              		.loc 1 495 0
 279 0008 0029     		cmp	r1, #0
 280 000a 16D0     		beq	.L57
 281              		.loc 1 504 0
ARM GAS  /tmp/ccYU8DrE.s 			page 6


 282 000c A8BF     		it	ge
 283 000e 8CB2     		uxthge	r4, r1
 284              		.loc 1 499 0
 285 0010 23DB     		blt	.L59
 286              	.L47:
 287              	.LVL25:
 288              		.loc 1 517 0
 289 0012 037B     		ldrb	r3, [r0, #12]	@ zero_extendqisi2
 290              	.LVL26:
 291              		.loc 1 519 0
 292 0014 4268     		ldr	r2, [r0, #4]
 293              	.LVL27:
 294              		.loc 1 522 0
 295 0016 002B     		cmp	r3, #0
 296 0018 18BF     		it	ne
 297 001a 032B     		cmpne	r3, #3
 298 001c 10D1     		bne	.L48
 299              		.loc 1 524 0
 300 001e 521A     		subs	r2, r2, r1
 301              	.LVL28:
 302              		.loc 1 526 0
 303 0020 00F11003 		add	r3, r0, #16
 304 0024 9A42     		cmp	r2, r3
 305              		.loc 1 524 0
 306 0026 28BF     		it	cs
 307 0028 4260     		strcs	r2, [r0, #4]
 308              		.loc 1 526 0
 309 002a 14D3     		bcc	.L55
 310              	.L51:
 311              		.loc 1 552 0
 312 002c 4389     		ldrh	r3, [r0, #10]
 313              		.loc 1 553 0
 314 002e 0289     		ldrh	r2, [r0, #8]
 315              		.loc 1 552 0
 316 0030 89B2     		uxth	r1, r1
 317 0032 CB18     		adds	r3, r1, r3
 318              		.loc 1 553 0
 319 0034 8918     		adds	r1, r1, r2
 320              	.LVL29:
 321              		.loc 1 552 0
 322 0036 4381     		strh	r3, [r0, #10]	@ movhi
 323              		.loc 1 553 0
 324 0038 0181     		strh	r1, [r0, #8]	@ movhi
 325              	.LVL30:
 326              	.L57:
 327              		.loc 1 558 0
 328 003a 0020     		movs	r0, #0
 329              	.LVL31:
 330              	.L45:
 331              		.loc 1 559 0
 332 003c 02B0     		add	sp, sp, #8
 333 003e 10BD     		pop	{r4, pc}
 334              	.LVL32:
 335              	.L48:
 336              		.loc 1 536 0
 337 0040 013B     		subs	r3, r3, #1
 338 0042 012B     		cmp	r3, #1
ARM GAS  /tmp/ccYU8DrE.s 			page 7


 339 0044 0ED8     		bhi	.L50
 340              		.loc 1 538 0
 341 0046 0029     		cmp	r1, #0
 342 0048 05DA     		bge	.L55
 343              		.loc 1 538 0 is_stmt 0 discriminator 1
 344 004a 4389     		ldrh	r3, [r0, #10]
 345 004c A342     		cmp	r3, r4
 346 004e 02D3     		bcc	.L55
 347              		.loc 1 540 0 is_stmt 1
 348 0050 521A     		subs	r2, r2, r1
 349              	.LVL33:
 350 0052 4260     		str	r2, [r0, #4]
 351 0054 EAE7     		b	.L51
 352              	.L55:
 353              		.loc 1 544 0
 354 0056 0120     		movs	r0, #1
 355              	.LVL34:
 356 0058 F0E7     		b	.L45
 357              	.LVL35:
 358              	.L59:
 359              		.loc 1 500 0
 360 005a 4C42     		negs	r4, r1
 361              		.loc 1 502 0
 362 005c 4389     		ldrh	r3, [r0, #10]
 363              		.loc 1 500 0
 364 005e A4B2     		uxth	r4, r4
 365              	.LVL36:
 366              		.loc 1 502 0
 367 0060 A342     		cmp	r3, r4
 368 0062 D6D2     		bcs	.L47
 369              	.LVL37:
 370              	.L50:
 371              		.loc 1 502 0 is_stmt 0 discriminator 1
 372 0064 FFF7FEFF 		bl	port_halt
 373              	.LVL38:
 374 0068 0120     		movs	r0, #1
 375 006a E7E7     		b	.L45
 376              	.LVL39:
 377              	.L58:
 378              		.loc 1 494 0 is_stmt 1 discriminator 1
 379 006c 0190     		str	r0, [sp, #4]
 380 006e FFF7FEFF 		bl	port_halt
 381              	.LVL40:
 382              		.loc 1 496 0 discriminator 1
 383 0072 0198     		ldr	r0, [sp, #4]
 384 0074 E2E7     		b	.L45
 385              		.cfi_endproc
 386              	.LFE12:
 387              		.size	pbuf_header, .-pbuf_header
 388 0076 00BFAFF3 		.section	.text.pbuf_free,"ax",%progbits
 388      0080AFF3 
 388      0080
 389              		.align	2
 390              		.p2align 4,,15
 391              		.global	pbuf_free
 392              		.thumb
 393              		.thumb_func
ARM GAS  /tmp/ccYU8DrE.s 			page 8


 394              		.type	pbuf_free, %function
 395              	pbuf_free:
 396              	.LFB13:
 397              		.loc 1 596 0
 398              		.cfi_startproc
 399              		@ args = 0, pretend = 0, frame = 0
 400              		@ frame_needed = 0, uses_anonymous_args = 0
 401              	.LVL41:
 402 0000 70B5     		push	{r4, r5, r6, lr}
 403              	.LCFI5:
 404              		.cfi_def_cfa_offset 16
 405              		.cfi_offset 4, -16
 406              		.cfi_offset 5, -12
 407              		.cfi_offset 6, -8
 408              		.cfi_offset 14, -4
 409              		.loc 1 601 0
 410 0002 0446     		mov	r4, r0
 411 0004 0028     		cmp	r0, #0
 412 0006 3FD0     		beq	.L72
 413              		.loc 1 612 0
 414 0008 037B     		ldrb	r3, [r0, #12]	@ zero_extendqisi2
 415 000a 032B     		cmp	r3, #3
 416 000c 2BD8     		bhi	.L73
 417              	.LVL42:
 418              	.L63:
 419              		.loc 1 596 0 discriminator 1
 420 000e 0025     		movs	r5, #0
 421              	.LVL43:
 422              	.L70:
 423              	.LBB12:
 424              		.loc 1 627 0
 425 0010 E389     		ldrh	r3, [r4, #14]
 426 0012 2BB1     		cbz	r3, .L74
 427              		.loc 1 629 0
 428 0014 013B     		subs	r3, r3, #1
 429 0016 9BB2     		uxth	r3, r3
 430 0018 E381     		strh	r3, [r4, #14]	@ movhi
 431              	.LVL44:
 432              		.loc 1 632 0
 433 001a 4BB1     		cbz	r3, .L75
 434              	.LVL45:
 435              	.L62:
 436              	.LBE12:
 437              		.loc 1 671 0
 438 001c 2846     		mov	r0, r5
 439 001e 70BD     		pop	{r4, r5, r6, pc}
 440              	.L74:
 441              	.LBB15:
 442              		.loc 1 627 0 discriminator 1
 443 0020 FFF7FEFF 		bl	port_halt
 444              	.LVL46:
 445 0024 E389     		ldrh	r3, [r4, #14]
 446              		.loc 1 629 0 discriminator 1
 447 0026 013B     		subs	r3, r3, #1
 448 0028 9BB2     		uxth	r3, r3
 449 002a E381     		strh	r3, [r4, #14]	@ movhi
 450              	.LVL47:
ARM GAS  /tmp/ccYU8DrE.s 			page 9


 451              		.loc 1 632 0 discriminator 1
 452 002c 002B     		cmp	r3, #0
 453 002e F5D1     		bne	.L62
 454              	.LVL48:
 455              	.L75:
 456              		.loc 1 639 0
 457 0030 637B     		ldrb	r3, [r4, #13]	@ zero_extendqisi2
 458              		.loc 1 634 0
 459 0032 2668     		ldr	r6, [r4, #0]
 460              	.LVL49:
 461              		.loc 1 636 0
 462 0034 227B     		ldrb	r2, [r4, #12]	@ zero_extendqisi2
 463              	.LVL50:
 464              		.loc 1 639 0
 465 0036 03F00203 		and	r3, r3, #2
 466 003a DBB2     		uxtb	r3, r3
 467 003c 53B1     		cbz	r3, .L65
 468              	.LVL51:
 469              	.LBB13:
 470              		.loc 1 641 0
 471 003e 2369     		ldr	r3, [r4, #16]
 472 0040 F3B1     		cbz	r3, .L76
 473              	.LVL52:
 474              	.L66:
 475              		.loc 1 642 0
 476 0042 2046     		mov	r0, r4
 477 0044 9847     		blx	r3
 478              	.LVL53:
 479              	.L67:
 480              	.LBE13:
 481              		.loc 1 657 0
 482 0046 0135     		adds	r5, r5, #1
 483              	.LBE15:
 484              		.loc 1 619 0
 485 0048 3446     		mov	r4, r6
 486              	.LBB16:
 487              		.loc 1 657 0
 488 004a EDB2     		uxtb	r5, r5
 489              	.LVL54:
 490              	.LBE16:
 491              		.loc 1 619 0
 492 004c 002E     		cmp	r6, #0
 493 004e DFD1     		bne	.L70
 494              	.LVL55:
 495              		.loc 1 671 0
 496 0050 2846     		mov	r0, r5
 497 0052 70BD     		pop	{r4, r5, r6, pc}
 498              	.LVL56:
 499              	.L65:
 500              	.LBB17:
 501              		.loc 1 647 0
 502 0054 032A     		cmp	r2, #3
 503 0056 0ED0     		beq	.L77
 504              		.loc 1 650 0
 505 0058 013A     		subs	r2, r2, #1
 506              	.LVL57:
 507 005a 012A     		cmp	r2, #1
ARM GAS  /tmp/ccYU8DrE.s 			page 10


 508 005c 06D9     		bls	.L78
 509              		.loc 1 654 0
 510 005e 2046     		mov	r0, r4
 511 0060 FFF7FEFF 		bl	mem_free
 512              	.LVL58:
 513 0064 EFE7     		b	.L67
 514              	.LVL59:
 515              	.L73:
 516              	.LBE17:
 517              		.loc 1 612 0 discriminator 1
 518 0066 FFF7FEFF 		bl	port_halt
 519              	.LVL60:
 520 006a D0E7     		b	.L63
 521              	.LVL61:
 522              	.L78:
 523              	.LBB18:
 524              		.loc 1 651 0
 525 006c 0C20     		movs	r0, #12
 526 006e 2146     		mov	r1, r4
 527 0070 FFF7FEFF 		bl	memp_free
 528              	.LVL62:
 529 0074 E7E7     		b	.L67
 530              	.LVL63:
 531              	.L77:
 532              		.loc 1 648 0
 533 0076 0D20     		movs	r0, #13
 534 0078 2146     		mov	r1, r4
 535 007a FFF7FEFF 		bl	memp_free
 536              	.LVL64:
 537 007e E2E7     		b	.L67
 538              	.LVL65:
 539              	.L76:
 540              	.LBB14:
 541              		.loc 1 641 0 discriminator 1
 542 0080 FFF7FEFF 		bl	port_halt
 543              	.LVL66:
 544 0084 2369     		ldr	r3, [r4, #16]
 545 0086 DCE7     		b	.L66
 546              	.LVL67:
 547              	.L72:
 548              	.LBE14:
 549              	.LBE18:
 550              		.loc 1 602 0 discriminator 1
 551 0088 FFF7FEFF 		bl	port_halt
 552              	.LVL68:
 553              		.loc 1 606 0 discriminator 1
 554 008c 2546     		mov	r5, r4
 555 008e C5E7     		b	.L62
 556              		.cfi_endproc
 557              	.LFE13:
 558              		.size	pbuf_free, .-pbuf_free
 559              		.section	.text.pbuf_realloc,"ax",%progbits
 560              		.align	2
 561              		.p2align 4,,15
 562              		.global	pbuf_realloc
 563              		.thumb
 564              		.thumb_func
ARM GAS  /tmp/ccYU8DrE.s 			page 11


 565              		.type	pbuf_realloc, %function
 566              	pbuf_realloc:
 567              	.LFB11:
 568              		.loc 1 408 0
 569              		.cfi_startproc
 570              		@ args = 0, pretend = 0, frame = 8
 571              		@ frame_needed = 0, uses_anonymous_args = 0
 572              	.LVL69:
 573 0000 F0B5     		push	{r4, r5, r6, r7, lr}
 574              	.LCFI6:
 575              		.cfi_def_cfa_offset 20
 576              		.cfi_offset 4, -20
 577              		.cfi_offset 5, -16
 578              		.cfi_offset 6, -12
 579              		.cfi_offset 7, -8
 580              		.cfi_offset 14, -4
 581 0002 83B0     		sub	sp, sp, #12
 582              	.LCFI7:
 583              		.cfi_def_cfa_offset 32
 584              		.loc 1 413 0
 585 0004 0028     		cmp	r0, #0
 586 0006 45D0     		beq	.L104
 587              	.LVL70:
 588              	.L80:
 589              		.loc 1 414 0
 590 0008 037B     		ldrb	r3, [r0, #12]	@ zero_extendqisi2
 591 000a 03F0FD02 		and	r2, r3, #253
 592 000e 012A     		cmp	r2, #1
 593 0010 01D0     		beq	.L81
 594              		.loc 1 414 0 is_stmt 0 discriminator 1
 595 0012 002B     		cmp	r3, #0
 596 0014 32D1     		bne	.L105
 597              	.L81:
 598              		.loc 1 420 0 is_stmt 1
 599 0016 0689     		ldrh	r6, [r0, #8]
 600 0018 8E42     		cmp	r6, r1
 601 001a 2DD9     		bls	.L79
 602              		.loc 1 427 0
 603 001c 8E1B     		subs	r6, r1, r6
 604              	.LVL71:
 605              		.loc 1 433 0
 606 001e 0D46     		mov	r5, r1
 607 0020 0446     		mov	r4, r0
 608              		.loc 1 437 0
 609 0022 4FF6FE77 		movw	r7, #65534
 610              		.loc 1 433 0
 611 0026 05E0     		b	.L103
 612              	.LVL72:
 613              	.L84:
 614              		.loc 1 438 0
 615 0028 2389     		ldrh	r3, [r4, #8]
 616 002a F318     		adds	r3, r6, r3
 617 002c 2381     		strh	r3, [r4, #8]	@ movhi
 618              		.loc 1 440 0
 619 002e 2468     		ldr	r4, [r4, #0]
 620              	.LVL73:
 621              		.loc 1 441 0
ARM GAS  /tmp/ccYU8DrE.s 			page 12


 622 0030 002C     		cmp	r4, #0
 623 0032 2CD0     		beq	.L106
 624              	.LVL74:
 625              	.L103:
 626              		.loc 1 433 0 discriminator 1
 627 0034 6389     		ldrh	r3, [r4, #10]
 628 0036 9D42     		cmp	r5, r3
 629              		.loc 1 435 0 discriminator 1
 630 0038 C3EB0502 		rsb	r2, r3, r5
 631              		.loc 1 433 0 discriminator 1
 632 003c 05D9     		bls	.L107
 633              		.loc 1 437 0
 634 003e BE42     		cmp	r6, r7
 635              		.loc 1 435 0
 636 0040 95B2     		uxth	r5, r2
 637              	.LVL75:
 638              		.loc 1 437 0
 639 0042 F1DD     		ble	.L84
 640              		.loc 1 437 0 is_stmt 0 discriminator 1
 641 0044 FFF7FEFF 		bl	port_halt
 642              	.LVL76:
 643 0048 EEE7     		b	.L84
 644              	.L107:
 645              		.loc 1 448 0 is_stmt 1
 646 004a 227B     		ldrb	r2, [r4, #12]	@ zero_extendqisi2
 647 004c 62B9     		cbnz	r2, .L87
 648              		.loc 1 448 0 is_stmt 0 discriminator 1
 649 004e 9D42     		cmp	r5, r3
 650 0050 0AD0     		beq	.L87
 651              		.loc 1 450 0 is_stmt 1
 652 0052 6368     		ldr	r3, [r4, #4]
 653 0054 1B1B     		subs	r3, r3, r4
 654 0056 E918     		adds	r1, r5, r3
 655 0058 2046     		mov	r0, r4
 656 005a 89B2     		uxth	r1, r1
 657 005c FFF7FEFF 		bl	mem_trim
 658              	.LVL77:
 659              		.loc 1 451 0
 660 0060 0446     		mov	r4, r0
 661 0062 08B9     		cbnz	r0, .L87
 662              		.loc 1 451 0 is_stmt 0 discriminator 1
 663 0064 FFF7FEFF 		bl	port_halt
 664              	.LVL78:
 665              	.L87:
 666              		.loc 1 458 0 is_stmt 1
 667 0068 2068     		ldr	r0, [r4, #0]
 668              		.loc 1 454 0
 669 006a 6581     		strh	r5, [r4, #10]	@ movhi
 670              		.loc 1 455 0
 671 006c 2581     		strh	r5, [r4, #8]	@ movhi
 672              		.loc 1 458 0
 673 006e 08B1     		cbz	r0, .L88
 674              		.loc 1 460 0
 675 0070 FFF7FEFF 		bl	pbuf_free
 676              	.LVL79:
 677              	.L88:
 678              		.loc 1 463 0
ARM GAS  /tmp/ccYU8DrE.s 			page 13


 679 0074 0023     		movs	r3, #0
 680 0076 2360     		str	r3, [r4, #0]
 681              	.LVL80:
 682              	.L79:
 683              		.loc 1 465 0
 684 0078 03B0     		add	sp, sp, #12
 685 007a F0BD     		pop	{r4, r5, r6, r7, pc}
 686              	.L105:
 687              		.loc 1 414 0 discriminator 2
 688 007c 022B     		cmp	r3, #2
 689 007e CAD0     		beq	.L81
 690              		.loc 1 414 0 is_stmt 0 discriminator 3
 691 0080 0190     		str	r0, [sp, #4]
 692 0082 0091     		str	r1, [sp, #0]
 693 0084 FFF7FEFF 		bl	port_halt
 694              	.LVL81:
 695 0088 0099     		ldr	r1, [sp, #0]
 696 008a 0198     		ldr	r0, [sp, #4]
 697 008c C3E7     		b	.L81
 698              	.LVL82:
 699              	.L106:
 700              		.loc 1 441 0 is_stmt 1 discriminator 1
 701 008e FFF7FEFF 		bl	port_halt
 702              	.LVL83:
 703 0092 CFE7     		b	.L103
 704              	.LVL84:
 705              	.L104:
 706              		.loc 1 413 0 discriminator 1
 707 0094 0190     		str	r0, [sp, #4]
 708 0096 0091     		str	r1, [sp, #0]
 709 0098 FFF7FEFF 		bl	port_halt
 710              	.LVL85:
 711 009c 0099     		ldr	r1, [sp, #0]
 712 009e 0198     		ldr	r0, [sp, #4]
 713 00a0 B2E7     		b	.L80
 714              		.cfi_endproc
 715              	.LFE11:
 716              		.size	pbuf_realloc, .-pbuf_realloc
 717 00a2 00BFAFF3 		.section	.text.pbuf_alloc,"ax",%progbits
 717      0080AFF3 
 717      0080AFF3 
 717      0080
 718              		.align	2
 719              		.p2align 4,,15
 720              		.global	pbuf_alloc
 721              		.thumb
 722              		.thumb_func
 723              		.type	pbuf_alloc, %function
 724              	pbuf_alloc:
 725              	.LFB9:
 726              		.loc 1 186 0
 727              		.cfi_startproc
 728              		@ args = 0, pretend = 0, frame = 8
 729              		@ frame_needed = 0, uses_anonymous_args = 0
 730              	.LVL86:
 731 0000 2DE9F04F 		push	{r4, r5, r6, r7, r8, r9, sl, fp, lr}
 732              	.LCFI8:
ARM GAS  /tmp/ccYU8DrE.s 			page 14


 733              		.cfi_def_cfa_offset 36
 734              		.cfi_offset 4, -36
 735              		.cfi_offset 5, -32
 736              		.cfi_offset 6, -28
 737              		.cfi_offset 7, -24
 738              		.cfi_offset 8, -20
 739              		.cfi_offset 9, -16
 740              		.cfi_offset 10, -12
 741              		.cfi_offset 11, -8
 742              		.cfi_offset 14, -4
 743 0004 0C46     		mov	r4, r1
 744 0006 83B0     		sub	sp, sp, #12
 745              	.LCFI9:
 746              		.cfi_def_cfa_offset 48
 747              		.loc 1 194 0
 748 0008 0328     		cmp	r0, #3
 749 000a 03D8     		bhi	.L116
 750 000c DFE800F0 		tbb	[pc, r0]
 751              	.L114:
 752 0010 A4       		.byte	(.L132-.L114)/2
 753 0011 A2       		.byte	(.L111-.L114)/2
 754 0012 A0       		.byte	(.L133-.L114)/2
 755 0013 09       		.byte	(.L134-.L114)/2
 756              		.align	1
 757              	.LVL87:
 758              	.L116:
 759              		.loc 1 318 0 discriminator 1
 760 0014 FFF7FEFF 		bl	port_halt
 761              	.LVL88:
 762              	.L143:
 763              		.loc 1 319 0 discriminator 1
 764 0018 0025     		movs	r5, #0
 765              	.L115:
 766              		.loc 1 327 0
 767 001a 2846     		mov	r0, r5
 768 001c 03B0     		add	sp, sp, #12
 769 001e BDE8F08F 		pop	{r4, r5, r6, r7, r8, r9, sl, fp, pc}
 770              	.LVL89:
 771              	.L134:
 772              		.loc 1 193 0
 773 0022 0026     		movs	r6, #0
 774              	.LVL90:
 775              	.L113:
 776              		.loc 1 214 0
 777 0024 032A     		cmp	r2, #3
 778 0026 F5D8     		bhi	.L116
 779 0028 DFE802F0 		tbb	[pc, r2]
 780              	.L120:
 781 002c 72       		.byte	(.L117-.L120)/2
 782 002d 63       		.byte	(.L118-.L120)/2
 783 002e 63       		.byte	(.L118-.L120)/2
 784 002f 02       		.byte	(.L119-.L120)/2
 785              		.align	1
 786              	.L119:
 787              		.loc 1 217 0
 788 0030 0D20     		movs	r0, #13
 789              	.LVL91:
ARM GAS  /tmp/ccYU8DrE.s 			page 15


 790 0032 FFF7FEFF 		bl	memp_malloc
 791              	.LVL92:
 792              		.loc 1 219 0
 793 0036 0546     		mov	r5, r0
 794 0038 0028     		cmp	r0, #0
 795 003a 00F0A080 		beq	.L144
 796              		.loc 1 233 0
 797 003e F31C     		adds	r3, r6, #3
 798 0040 23F00303 		bic	r3, r3, #3
 799              		.loc 1 227 0
 800 0044 8619     		adds	r6, r0, r6
 801              	.LVL93:
 802 0046 1336     		adds	r6, r6, #19
 803              		.loc 1 233 0
 804 0048 C3F51473 		rsb	r3, r3, #592
 805 004c A342     		cmp	r3, r4
 806 004e A8BF     		it	ge
 807 0050 2346     		movge	r3, r4
 808              		.loc 1 227 0
 809 0052 26F00306 		bic	r6, r6, #3
 810              		.loc 1 223 0
 811 0056 0322     		movs	r2, #3
 812              		.loc 1 233 0
 813 0058 99B2     		uxth	r1, r3
 814              		.loc 1 234 0
 815 005a 00F51878 		add	r8, r0, #608
 816 005e F318     		adds	r3, r6, r3
 817              		.loc 1 223 0
 818 0060 0273     		strb	r2, [r0, #12]
 819              		.loc 1 224 0
 820 0062 0022     		movs	r2, #0
 821              		.loc 1 234 0
 822 0064 9845     		cmp	r8, r3
 823              		.loc 1 227 0
 824 0066 80E84400 		stmia	r0, {r2, r6}
 825              		.loc 1 231 0
 826 006a 0481     		strh	r4, [r0, #8]	@ movhi
 827              		.loc 1 233 0
 828 006c 4181     		strh	r1, [r0, #10]	@ movhi
 829              		.loc 1 234 0
 830 006e C0F08280 		bcc	.L145
 831              	.LVL94:
 832              	.L122:
 833              		.loc 1 247 0
 834 0072 C1EB040B 		rsb	fp, r1, r4
 835              		.loc 1 240 0
 836 0076 0123     		movs	r3, #1
 837              		.loc 1 249 0
 838 0078 BBF1000F 		cmp	fp, #0
 839              		.loc 1 240 0
 840 007c EB81     		strh	r3, [r5, #14]	@ movhi
 841              	.LVL95:
 842              		.loc 1 249 0
 843 007e 62DD     		ble	.L123
 844 0080 2F46     		mov	r7, r5
 845              		.loc 1 258 0
 846 0082 4FF0030A 		mov	sl, #3
ARM GAS  /tmp/ccYU8DrE.s 			page 16


 847              		.loc 1 259 0
 848 0086 0026     		movs	r6, #0
 849              		.loc 1 264 0
 850 0088 4FF6FF79 		movw	r9, #65535
 851 008c 1BE0     		b	.L129
 852              	.LVL96:
 853              	.L125:
 854              		.loc 1 267 0
 855 008e 40F24F22 		movw	r2, #591
 856              		.loc 1 265 0
 857 0092 0381     		strh	r3, [r0, #8]	@ movhi
 858              		.loc 1 267 0
 859 0094 9342     		cmp	r3, r2
 860 0096 88BF     		it	hi
 861 0098 4FF41473 		movhi	r3, #592
 862              	.LVL97:
 863              	.L126:
 864              		.loc 1 268 0 discriminator 3
 865 009c 04F11002 		add	r2, r4, #16
 866              		.loc 1 269 0 discriminator 3
 867 00a0 12F0030F 		tst	r2, #3
 868              		.loc 1 267 0 discriminator 3
 869 00a4 6381     		strh	r3, [r4, #10]	@ movhi
 870              		.loc 1 268 0 discriminator 3
 871 00a6 6260     		str	r2, [r4, #4]
 872 00a8 2746     		mov	r7, r4
 873              	.LVL98:
 874              		.loc 1 269 0 discriminator 3
 875 00aa 5AD1     		bne	.L146
 876              	.L127:
 877              		.loc 1 271 0
 878 00ac 6A89     		ldrh	r2, [r5, #10]
 879 00ae 6B68     		ldr	r3, [r5, #4]
 880 00b0 9B18     		adds	r3, r3, r2
 881 00b2 9845     		cmp	r8, r3
 882 00b4 52D3     		bcc	.L147
 883              	.L128:
 884              		.loc 1 276 0
 885 00b6 6389     		ldrh	r3, [r4, #10]
 886 00b8 C3EB0B0B 		rsb	fp, r3, fp
 887              	.LVL99:
 888              		.loc 1 274 0
 889 00bc 0123     		movs	r3, #1
 890              		.loc 1 249 0
 891 00be BBF1000F 		cmp	fp, #0
 892              		.loc 1 274 0
 893 00c2 E381     		strh	r3, [r4, #14]	@ movhi
 894              		.loc 1 249 0
 895 00c4 3FDD     		ble	.L123
 896              	.LVL100:
 897              	.L129:
 898              		.loc 1 250 0
 899 00c6 0D20     		movs	r0, #13
 900 00c8 FFF7FEFF 		bl	memp_malloc
 901              	.LVL101:
 902              		.loc 1 265 0
 903 00cc 1FFA8BF3 		uxth	r3, fp
ARM GAS  /tmp/ccYU8DrE.s 			page 17


 904              		.loc 1 251 0
 905 00d0 0446     		mov	r4, r0
 906 00d2 0028     		cmp	r0, #0
 907 00d4 48D0     		beq	.L148
 908              		.loc 1 264 0
 909 00d6 CB45     		cmp	fp, r9
 910              		.loc 1 260 0
 911 00d8 0660     		str	r6, [r0, #0]
 912              		.loc 1 258 0
 913 00da 80F80CA0 		strb	sl, [r0, #12]
 914              		.loc 1 262 0
 915 00de 3860     		str	r0, [r7, #0]
 916              		.loc 1 259 0
 917 00e0 4673     		strb	r6, [r0, #13]
 918              		.loc 1 264 0
 919 00e2 D4D1     		bne	.L125
 920              		.loc 1 264 0 is_stmt 0 discriminator 1
 921 00e4 FFF7FEFF 		bl	port_halt
 922              	.LVL102:
 923              		.loc 1 265 0 is_stmt 1 discriminator 1
 924 00e8 A4F808B0 		strh	fp, [r4, #8]	@ movhi
 925              		.loc 1 267 0 discriminator 1
 926 00ec 4FF41473 		mov	r3, #592
 927 00f0 D4E7     		b	.L126
 928              	.LVL103:
 929              	.L118:
 930              		.loc 1 304 0
 931 00f2 0C20     		movs	r0, #12
 932              	.LVL104:
 933 00f4 0192     		str	r2, [sp, #4]
 934 00f6 FFF7FEFF 		bl	memp_malloc
 935              	.LVL105:
 936              		.loc 1 305 0
 937 00fa 019A     		ldr	r2, [sp, #4]
 938 00fc 0546     		mov	r5, r0
 939 00fe 0028     		cmp	r0, #0
 940 0100 8AD0     		beq	.L143
 941              		.loc 1 312 0
 942 0102 0023     		movs	r3, #0
 943 0104 4360     		str	r3, [r0, #4]
 944              		.loc 1 313 0
 945 0106 0481     		strh	r4, [r0, #8]	@ movhi
 946 0108 4481     		strh	r4, [r0, #10]	@ movhi
 947              		.loc 1 314 0
 948 010a 0360     		str	r3, [r0, #0]
 949              		.loc 1 315 0
 950 010c 0273     		strb	r2, [r0, #12]
 951              		.loc 1 316 0
 952 010e 1AE0     		b	.L123
 953              	.LVL106:
 954              	.L117:
 955              		.loc 1 286 0
 956 0110 06F11302 		add	r2, r6, #19
 957              	.LVL107:
 958 0114 E31C     		adds	r3, r4, #3
 959 0116 22F00302 		bic	r2, r2, #3
 960 011a 23F00303 		bic	r3, r3, #3
ARM GAS  /tmp/ccYU8DrE.s 			page 18


 961 011e D318     		adds	r3, r2, r3
 962 0120 4FF6FC70 		movw	r0, #65532
 963              	.LVL108:
 964 0124 1840     		ands	r0, r0, r3
 965 0126 FFF7FEFF 		bl	mem_malloc
 966              	.LVL109:
 967              		.loc 1 287 0
 968 012a 0546     		mov	r5, r0
 969 012c 0028     		cmp	r0, #0
 970 012e 3FF473AF 		beq	.L143
 971              		.loc 1 291 0
 972 0132 8619     		adds	r6, r0, r6
 973              	.LVL110:
 974 0134 1336     		adds	r6, r6, #19
 975              		.loc 1 293 0
 976 0136 0023     		movs	r3, #0
 977              		.loc 1 291 0
 978 0138 26F00306 		bic	r6, r6, #3
 979 013c 4660     		str	r6, [r0, #4]
 980              		.loc 1 292 0
 981 013e 0481     		strh	r4, [r0, #8]	@ movhi
 982 0140 4481     		strh	r4, [r0, #10]	@ movhi
 983              		.loc 1 293 0
 984 0142 0360     		str	r3, [r0, #0]
 985              		.loc 1 294 0
 986 0144 0373     		strb	r3, [r0, #12]
 987              	.LVL111:
 988              	.L123:
 989              		.loc 1 322 0
 990 0146 0123     		movs	r3, #1
 991 0148 EB81     		strh	r3, [r5, #14]	@ movhi
 992              		.loc 1 324 0
 993 014a 0023     		movs	r3, #0
 994 014c 6B73     		strb	r3, [r5, #13]
 995              		.loc 1 326 0
 996 014e 64E7     		b	.L115
 997              	.LVL112:
 998              	.L133:
 999              		.loc 1 194 0
 1000 0150 0E26     		movs	r6, #14
 1001              	.LVL113:
 1002              		.loc 1 206 0
 1003 0152 67E7     		b	.L113
 1004              	.LVL114:
 1005              	.L111:
 1006              		.loc 1 194 0
 1007 0154 2226     		movs	r6, #34
 1008 0156 65E7     		b	.L113
 1009              	.L132:
 1010 0158 3626     		movs	r6, #54
 1011              	.LVL115:
 1012 015a 63E7     		b	.L113
 1013              	.LVL116:
 1014              	.L147:
 1015              		.loc 1 271 0 discriminator 1
 1016 015c FFF7FEFF 		bl	port_halt
 1017              	.LVL117:
ARM GAS  /tmp/ccYU8DrE.s 			page 19


 1018 0160 A9E7     		b	.L128
 1019              	.L146:
 1020              		.loc 1 269 0 discriminator 1
 1021 0162 FFF7FEFF 		bl	port_halt
 1022              	.LVL118:
 1023 0166 A1E7     		b	.L127
 1024              	.LVL119:
 1025              	.L148:
 1026              		.loc 1 252 0
 1027 0168 FFF7FEFF 		bl	pbuf_pool_is_empty
 1028              	.LVL120:
 1029              		.loc 1 254 0
 1030 016c 2846     		mov	r0, r5
 1031 016e FFF7FEFF 		bl	pbuf_free
 1032              	.LVL121:
 1033              		.loc 1 256 0
 1034 0172 2546     		mov	r5, r4
 1035              	.LVL122:
 1036 0174 51E7     		b	.L115
 1037              	.LVL123:
 1038              	.L145:
 1039              		.loc 1 234 0 discriminator 1
 1040 0176 FFF7FEFF 		bl	port_halt
 1041              	.LVL124:
 1042 017a 6989     		ldrh	r1, [r5, #10]
 1043 017c 79E7     		b	.L122
 1044              	.LVL125:
 1045              	.L144:
 1046              		.loc 1 220 0
 1047 017e FFF7FEFF 		bl	pbuf_pool_is_empty
 1048              	.LVL126:
 1049              		.loc 1 221 0
 1050 0182 4AE7     		b	.L115
 1051              		.cfi_endproc
 1052              	.LFE9:
 1053              		.size	pbuf_alloc, .-pbuf_alloc
 1054 0184 AFF30080 		.section	.text.pbuf_clen,"ax",%progbits
 1054      AFF30080 
 1054      AFF30080 
 1055              		.align	2
 1056              		.p2align 4,,15
 1057              		.global	pbuf_clen
 1058              		.thumb
 1059              		.thumb_func
 1060              		.type	pbuf_clen, %function
 1061              	pbuf_clen:
 1062              	.LFB14:
 1063              		.loc 1 682 0
 1064              		.cfi_startproc
 1065              		@ args = 0, pretend = 0, frame = 0
 1066              		@ frame_needed = 0, uses_anonymous_args = 0
 1067              		@ link register save eliminated.
 1068              	.LVL127:
 1069              		.loc 1 686 0
 1070 0000 0346     		mov	r3, r0
 1071 0002 30B1     		cbz	r0, .L152
 1072 0004 0020     		movs	r0, #0
ARM GAS  /tmp/ccYU8DrE.s 			page 20


 1073              	.LVL128:
 1074              	.L151:
 1075              		.loc 1 688 0
 1076 0006 1B68     		ldr	r3, [r3, #0]
 1077              	.LVL129:
 1078              		.loc 1 687 0
 1079 0008 0130     		adds	r0, r0, #1
 1080 000a C0B2     		uxtb	r0, r0
 1081              	.LVL130:
 1082              		.loc 1 686 0
 1083 000c 002B     		cmp	r3, #0
 1084 000e FAD1     		bne	.L151
 1085 0010 7047     		bx	lr
 1086              	.LVL131:
 1087              	.L152:
 1088              		.loc 1 691 0
 1089 0012 7047     		bx	lr
 1090              		.cfi_endproc
 1091              	.LFE14:
 1092              		.size	pbuf_clen, .-pbuf_clen
 1093 0014 AFF30080 		.section	.text.pbuf_ref,"ax",%progbits
 1093      AFF30080 
 1093      AFF30080 
 1094              		.align	2
 1095              		.p2align 4,,15
 1096              		.global	pbuf_ref
 1097              		.thumb
 1098              		.thumb_func
 1099              		.type	pbuf_ref, %function
 1100              	pbuf_ref:
 1101              	.LFB15:
 1102              		.loc 1 701 0
 1103              		.cfi_startproc
 1104              		@ args = 0, pretend = 0, frame = 0
 1105              		@ frame_needed = 0, uses_anonymous_args = 0
 1106              		@ link register save eliminated.
 1107              	.LVL132:
 1108              		.loc 1 704 0
 1109 0000 10B1     		cbz	r0, .L154
 1110              		.loc 1 706 0
 1111 0002 C389     		ldrh	r3, [r0, #14]
 1112 0004 0133     		adds	r3, r3, #1
 1113 0006 C381     		strh	r3, [r0, #14]	@ movhi
 1114              	.L154:
 1115 0008 7047     		bx	lr
 1116              		.cfi_endproc
 1117              	.LFE15:
 1118              		.size	pbuf_ref, .-pbuf_ref
 1119 000a 00BFAFF3 		.section	.text.pbuf_cat,"ax",%progbits
 1119      0080
 1120              		.align	2
 1121              		.p2align 4,,15
 1122              		.global	pbuf_cat
 1123              		.thumb
 1124              		.thumb_func
 1125              		.type	pbuf_cat, %function
 1126              	pbuf_cat:
ARM GAS  /tmp/ccYU8DrE.s 			page 21


 1127              	.LFB16:
 1128              		.loc 1 723 0
 1129              		.cfi_startproc
 1130              		@ args = 0, pretend = 0, frame = 0
 1131              		@ frame_needed = 0, uses_anonymous_args = 0
 1132              	.LVL133:
 1133              		.loc 1 726 0
 1134 0000 0028     		cmp	r0, #0
 1135 0002 18BF     		it	ne
 1136 0004 0029     		cmpne	r1, #0
 1137              		.loc 1 723 0
 1138 0006 70B5     		push	{r4, r5, r6, lr}
 1139              	.LCFI10:
 1140              		.cfi_def_cfa_offset 16
 1141              		.cfi_offset 4, -16
 1142              		.cfi_offset 5, -12
 1143              		.cfi_offset 6, -8
 1144              		.cfi_offset 14, -4
 1145              		.loc 1 726 0
 1146 0008 0E46     		mov	r6, r1
 1147 000a 1BD0     		beq	.L160
 1148              	.LVL134:
 1149              		.loc 1 730 0 discriminator 1
 1150 000c 0468     		ldr	r4, [r0, #0]
 1151 000e 0CB9     		cbnz	r4, .L163
 1152 0010 1CE0     		b	.L171
 1153              	.LVL135:
 1154              	.L166:
 1155              		.loc 1 730 0 is_stmt 0
 1156 0012 1C46     		mov	r4, r3
 1157              	.L163:
 1158              		.loc 1 732 0 is_stmt 1 discriminator 2
 1159 0014 0289     		ldrh	r2, [r0, #8]
 1160 0016 3589     		ldrh	r5, [r6, #8]
 1161              		.loc 1 730 0 discriminator 2
 1162 0018 2368     		ldr	r3, [r4, #0]
 1163              		.loc 1 732 0 discriminator 2
 1164 001a AA18     		adds	r2, r5, r2
 1165 001c 0281     		strh	r2, [r0, #8]	@ movhi
 1166              	.LVL136:
 1167 001e 2046     		mov	r0, r4
 1168              		.loc 1 730 0 discriminator 2
 1169 0020 002B     		cmp	r3, #0
 1170 0022 F6D1     		bne	.L166
 1171              	.LVL137:
 1172              	.L162:
 1173              		.loc 1 735 0
 1174 0024 2289     		ldrh	r2, [r4, #8]
 1175 0026 6389     		ldrh	r3, [r4, #10]
 1176 0028 9A42     		cmp	r2, r3
 1177 002a 01D0     		beq	.L164
 1178              		.loc 1 735 0 is_stmt 0 discriminator 1
 1179 002c FFF7FEFF 		bl	port_halt
 1180              	.LVL138:
 1181              	.L164:
 1182              		.loc 1 736 0 is_stmt 1
 1183 0030 2368     		ldr	r3, [r4, #0]
ARM GAS  /tmp/ccYU8DrE.s 			page 22


 1184 0032 0BB1     		cbz	r3, .L165
 1185              		.loc 1 736 0 is_stmt 0 discriminator 1
 1186 0034 FFF7FEFF 		bl	port_halt
 1187              	.LVL139:
 1188              	.L165:
 1189              		.loc 1 738 0 is_stmt 1
 1190 0038 3289     		ldrh	r2, [r6, #8]
 1191 003a 2389     		ldrh	r3, [r4, #8]
 1192              		.loc 1 740 0
 1193 003c 2660     		str	r6, [r4, #0]
 1194              		.loc 1 738 0
 1195 003e D318     		adds	r3, r2, r3
 1196 0040 2381     		strh	r3, [r4, #8]	@ movhi
 1197 0042 70BD     		pop	{r4, r5, r6, pc}
 1198              	.LVL140:
 1199              	.L160:
 1200              		.loc 1 744 0 discriminator 1
 1201 0044 BDE87040 		pop	{r4, r5, r6, lr}
 1202              		.loc 1 726 0 discriminator 1
 1203 0048 FFF7FEBF 		b	port_halt
 1204              	.LVL141:
 1205              	.L171:
 1206              		.loc 1 730 0
 1207 004c 0446     		mov	r4, r0
 1208 004e E9E7     		b	.L162
 1209              		.cfi_endproc
 1210              	.LFE16:
 1211              		.size	pbuf_cat, .-pbuf_cat
 1212              		.section	.text.pbuf_chain,"ax",%progbits
 1213              		.align	2
 1214              		.p2align 4,,15
 1215              		.global	pbuf_chain
 1216              		.thumb
 1217              		.thumb_func
 1218              		.type	pbuf_chain, %function
 1219              	pbuf_chain:
 1220              	.LFB17:
 1221              		.loc 1 764 0
 1222              		.cfi_startproc
 1223              		@ args = 0, pretend = 0, frame = 0
 1224              		@ frame_needed = 0, uses_anonymous_args = 0
 1225              	.LVL142:
 1226 0000 10B5     		push	{r4, lr}
 1227              	.LCFI11:
 1228              		.cfi_def_cfa_offset 8
 1229              		.cfi_offset 4, -8
 1230              		.cfi_offset 14, -4
 1231              		.loc 1 764 0
 1232 0002 0C46     		mov	r4, r1
 1233              		.loc 1 765 0
 1234 0004 FFF7FEFF 		bl	pbuf_cat
 1235              	.LVL143:
 1236              	.LBB19:
 1237              	.LBB20:
 1238              		.loc 1 704 0
 1239 0008 14B1     		cbz	r4, .L172
 1240              		.loc 1 706 0
ARM GAS  /tmp/ccYU8DrE.s 			page 23


 1241 000a E389     		ldrh	r3, [r4, #14]
 1242 000c 0133     		adds	r3, r3, #1
 1243 000e E381     		strh	r3, [r4, #14]	@ movhi
 1244              	.L172:
 1245 0010 10BD     		pop	{r4, pc}
 1246              	.LBE20:
 1247              	.LBE19:
 1248              		.cfi_endproc
 1249              	.LFE17:
 1250              		.size	pbuf_chain, .-pbuf_chain
 1251 0012 00BFAFF3 		.section	.text.pbuf_dechain,"ax",%progbits
 1251      0080AFF3 
 1251      0080AFF3 
 1251      0080
 1252              		.align	2
 1253              		.p2align 4,,15
 1254              		.global	pbuf_dechain
 1255              		.thumb
 1256              		.thumb_func
 1257              		.type	pbuf_dechain, %function
 1258              	pbuf_dechain:
 1259              	.LFB18:
 1260              		.loc 1 781 0
 1261              		.cfi_startproc
 1262              		@ args = 0, pretend = 0, frame = 0
 1263              		@ frame_needed = 0, uses_anonymous_args = 0
 1264              	.LVL144:
 1265 0000 70B5     		push	{r4, r5, r6, lr}
 1266              	.LCFI12:
 1267              		.cfi_def_cfa_offset 16
 1268              		.cfi_offset 4, -16
 1269              		.cfi_offset 5, -12
 1270              		.cfi_offset 6, -8
 1271              		.cfi_offset 14, -4
 1272              		.loc 1 785 0
 1273 0002 0568     		ldr	r5, [r0, #0]
 1274              	.LVL145:
 1275              		.loc 1 781 0
 1276 0004 0446     		mov	r4, r0
 1277              		.loc 1 783 0
 1278 0006 0126     		movs	r6, #1
 1279              		.loc 1 787 0
 1280 0008 95B1     		cbz	r5, .L178
 1281              		.loc 1 789 0
 1282 000a 0289     		ldrh	r2, [r0, #8]
 1283 000c 4389     		ldrh	r3, [r0, #10]
 1284 000e 2989     		ldrh	r1, [r5, #8]
 1285 0010 D21A     		subs	r2, r2, r3
 1286 0012 9142     		cmp	r1, r2
 1287 0014 04D0     		beq	.L179
 1288              		.loc 1 789 0 is_stmt 0 discriminator 1
 1289 0016 FFF7FEFF 		bl	port_halt
 1290              	.LVL146:
 1291 001a 2289     		ldrh	r2, [r4, #8]
 1292 001c 6389     		ldrh	r3, [r4, #10]
 1293 001e D21A     		subs	r2, r2, r3
 1294              	.L179:
ARM GAS  /tmp/ccYU8DrE.s 			page 24


 1295              		.loc 1 791 0 is_stmt 1
 1296 0020 2A81     		strh	r2, [r5, #8]	@ movhi
 1297              		.loc 1 793 0
 1298 0022 0022     		movs	r2, #0
 1299 0024 2260     		str	r2, [r4, #0]
 1300              		.loc 1 795 0
 1301 0026 2381     		strh	r3, [r4, #8]	@ movhi
 1302              		.loc 1 798 0
 1303 0028 2846     		mov	r0, r5
 1304 002a FFF7FEFF 		bl	pbuf_free
 1305              	.LVL147:
 1306 002e 0646     		mov	r6, r0
 1307              	.LVL148:
 1308              	.L178:
 1309              		.loc 1 806 0
 1310 0030 2289     		ldrh	r2, [r4, #8]
 1311 0032 6389     		ldrh	r3, [r4, #10]
 1312 0034 9A42     		cmp	r2, r3
 1313 0036 01D0     		beq	.L180
 1314              		.loc 1 806 0 is_stmt 0 discriminator 1
 1315 0038 FFF7FEFF 		bl	port_halt
 1316              	.LVL149:
 1317              	.L180:
 1318              		.loc 1 808 0 is_stmt 1
 1319 003c 002E     		cmp	r6, #0
 1320 003e 0CBF     		ite	eq
 1321 0040 2846     		moveq	r0, r5
 1322 0042 0020     		movne	r0, #0
 1323 0044 70BD     		pop	{r4, r5, r6, pc}
 1324              		.cfi_endproc
 1325              	.LFE18:
 1326              		.size	pbuf_dechain, .-pbuf_dechain
 1327 0046 00BFAFF3 		.section	.text.pbuf_copy,"ax",%progbits
 1327      0080AFF3 
 1327      0080
 1328              		.align	2
 1329              		.p2align 4,,15
 1330              		.global	pbuf_copy
 1331              		.thumb
 1332              		.thumb_func
 1333              		.type	pbuf_copy, %function
 1334              	pbuf_copy:
 1335              	.LFB19:
 1336              		.loc 1 830 0
 1337              		.cfi_startproc
 1338              		@ args = 0, pretend = 0, frame = 0
 1339              		@ frame_needed = 0, uses_anonymous_args = 0
 1340              	.LVL150:
 1341              		.loc 1 837 0
 1342 0000 0028     		cmp	r0, #0
 1343 0002 18BF     		it	ne
 1344 0004 0029     		cmpne	r1, #0
 1345              		.loc 1 830 0
 1346 0006 2DE9F041 		push	{r4, r5, r6, r7, r8, lr}
 1347              	.LCFI13:
 1348              		.cfi_def_cfa_offset 24
 1349              		.cfi_offset 4, -24
ARM GAS  /tmp/ccYU8DrE.s 			page 25


 1350              		.cfi_offset 5, -20
 1351              		.cfi_offset 6, -16
 1352              		.cfi_offset 7, -12
 1353              		.cfi_offset 8, -8
 1354              		.cfi_offset 14, -4
 1355              		.loc 1 837 0
 1356 000a 0D46     		mov	r5, r1
 1357 000c 0446     		mov	r4, r0
 1358 000e 14BF     		ite	ne
 1359 0010 0026     		movne	r6, #0
 1360 0012 0126     		moveq	r6, #1
 1361 0014 56D0     		beq	.L186
 1362              		.loc 1 837 0 is_stmt 0 discriminator 2
 1363 0016 0289     		ldrh	r2, [r0, #8]
 1364 0018 0B89     		ldrh	r3, [r1, #8]
 1365 001a 9A42     		cmp	r2, r3
 1366 001c 28BF     		it	cs
 1367 001e 3746     		movcs	r7, r6
 1368 0020 50D3     		bcc	.L186
 1369              	.LVL151:
 1370              	.L187:
 1371              		.loc 1 843 0 is_stmt 1
 1372 0022 002C     		cmp	r4, #0
 1373 0024 4BD0     		beq	.L208
 1374              	.L189:
 1375              		.loc 1 845 0
 1376 0026 6389     		ldrh	r3, [r4, #10]
 1377 0028 B5F80A80 		ldrh	r8, [r5, #10]
 1378              		.loc 1 852 0
 1379 002c 6068     		ldr	r0, [r4, #4]
 1380 002e 6968     		ldr	r1, [r5, #4]
 1381              		.loc 1 845 0
 1382 0030 C6EB0808 		rsb	r8, r6, r8
 1383 0034 DB1B     		subs	r3, r3, r7
 1384 0036 4345     		cmp	r3, r8
 1385              		.loc 1 850 0
 1386 0038 B4BF     		ite	lt
 1387 003a 1FFA83F8 		uxthlt	r8, r3
 1388              		.loc 1 847 0
 1389 003e 1FFA88F8 		uxthge	r8, r8
 1390              	.LVL152:
 1391              		.loc 1 852 0
 1392 0042 C019     		adds	r0, r0, r7
 1393 0044 8919     		adds	r1, r1, r6
 1394 0046 4246     		mov	r2, r8
 1395 0048 FFF7FEFF 		bl	memcpy
 1396              	.LVL153:
 1397              		.loc 1 853 0
 1398 004c 4744     		add	r7, r8, r7
 1399              	.LVL154:
 1400              		.loc 1 855 0
 1401 004e 6389     		ldrh	r3, [r4, #10]
 1402              		.loc 1 853 0
 1403 0050 BFB2     		uxth	r7, r7
 1404              	.LVL155:
 1405              		.loc 1 854 0
 1406 0052 4644     		add	r6, r8, r6
ARM GAS  /tmp/ccYU8DrE.s 			page 26


 1407              	.LVL156:
 1408              		.loc 1 855 0
 1409 0054 9F42     		cmp	r7, r3
 1410              		.loc 1 854 0
 1411 0056 B6B2     		uxth	r6, r6
 1412              	.LVL157:
 1413              		.loc 1 855 0
 1414 0058 2BD8     		bhi	.L209
 1415              	.L192:
 1416              		.loc 1 856 0
 1417 005a 9F42     		cmp	r7, r3
 1418              	.LVL158:
 1419              		.loc 1 861 0
 1420 005c 6B89     		ldrh	r3, [r5, #10]
 1421              		.loc 1 859 0
 1422 005e 04BF     		itt	eq
 1423 0060 2468     		ldreq	r4, [r4, #0]
 1424              	.LVL159:
 1425              		.loc 1 858 0
 1426 0062 0027     		moveq	r7, #0
 1427              	.LVL160:
 1428              		.loc 1 861 0
 1429 0064 9E42     		cmp	r6, r3
 1430 0066 20D8     		bhi	.L210
 1431              	.L194:
 1432              		.loc 1 862 0
 1433 0068 9E42     		cmp	r6, r3
 1434 006a 03D3     		bcc	.L195
 1435              	.LVL161:
 1436              		.loc 1 865 0
 1437 006c 2D68     		ldr	r5, [r5, #0]
 1438              	.LVL162:
 1439              		.loc 1 868 0
 1440 006e 25B3     		cbz	r5, .L200
 1441 0070 6B89     		ldrh	r3, [r5, #10]
 1442              		.loc 1 864 0
 1443 0072 0026     		movs	r6, #0
 1444              	.LVL163:
 1445              	.L195:
 1446              		.loc 1 868 0 discriminator 1
 1447 0074 2A89     		ldrh	r2, [r5, #8]
 1448 0076 9A42     		cmp	r2, r3
 1449 0078 0AD0     		beq	.L211
 1450              	.L196:
 1451              		.loc 1 873 0
 1452 007a 1CB1     		cbz	r4, .L197
 1453              		.loc 1 873 0 is_stmt 0 discriminator 1
 1454 007c 6289     		ldrh	r2, [r4, #10]
 1455 007e 2389     		ldrh	r3, [r4, #8]
 1456 0080 9A42     		cmp	r2, r3
 1457 0082 0CD0     		beq	.L212
 1458              	.L197:
 1459              		.loc 1 878 0 is_stmt 1
 1460 0084 002D     		cmp	r5, #0
 1461 0086 CCD1     		bne	.L187
 1462              	.L213:
 1463              		.loc 1 880 0
ARM GAS  /tmp/ccYU8DrE.s 			page 27


 1464 0088 2846     		mov	r0, r5
 1465              	.LVL164:
 1466              	.L188:
 1467              		.loc 1 881 0
 1468 008a 40B2     		sxtb	r0, r0
 1469 008c BDE8F081 		pop	{r4, r5, r6, r7, r8, pc}
 1470              	.LVL165:
 1471              	.L211:
 1472              		.loc 1 870 0
 1473 0090 2B68     		ldr	r3, [r5, #0]
 1474 0092 002B     		cmp	r3, #0
 1475 0094 F1D0     		beq	.L196
 1476              	.L198:
 1477              		.loc 1 870 0 is_stmt 0 discriminator 1
 1478 0096 FFF7FEFF 		bl	port_halt
 1479              	.LVL166:
 1480 009a FA20     		movs	r0, #250
 1481 009c F5E7     		b	.L188
 1482              	.L212:
 1483              		.loc 1 875 0 is_stmt 1
 1484 009e 2368     		ldr	r3, [r4, #0]
 1485 00a0 002B     		cmp	r3, #0
 1486 00a2 F8D1     		bne	.L198
 1487              		.loc 1 878 0
 1488 00a4 002D     		cmp	r5, #0
 1489 00a6 BCD1     		bne	.L187
 1490 00a8 EEE7     		b	.L213
 1491              	.LVL167:
 1492              	.L210:
 1493              		.loc 1 861 0 discriminator 1
 1494 00aa FFF7FEFF 		bl	port_halt
 1495              	.LVL168:
 1496 00ae 6B89     		ldrh	r3, [r5, #10]
 1497 00b0 DAE7     		b	.L194
 1498              	.L209:
 1499              		.loc 1 855 0 discriminator 1
 1500 00b2 FFF7FEFF 		bl	port_halt
 1501              	.LVL169:
 1502 00b6 6389     		ldrh	r3, [r4, #10]
 1503 00b8 CFE7     		b	.L192
 1504              	.LVL170:
 1505              	.L200:
 1506              		.loc 1 864 0
 1507 00ba 2E46     		mov	r6, r5
 1508 00bc DDE7     		b	.L196
 1509              	.LVL171:
 1510              	.L208:
 1511              		.loc 1 843 0 discriminator 1
 1512 00be FFF7FEFF 		bl	port_halt
 1513              	.LVL172:
 1514 00c2 B0E7     		b	.L189
 1515              	.LVL173:
 1516              	.L186:
 1517              		.loc 1 837 0 discriminator 1
 1518 00c4 FFF7FEFF 		bl	port_halt
 1519              	.LVL174:
 1520 00c8 F220     		movs	r0, #242
ARM GAS  /tmp/ccYU8DrE.s 			page 28


 1521 00ca DEE7     		b	.L188
 1522              		.cfi_endproc
 1523              	.LFE19:
 1524              		.size	pbuf_copy, .-pbuf_copy
 1525 00cc AFF30080 		.section	.text.pbuf_copy_partial,"ax",%progbits
 1526              		.align	2
 1527              		.p2align 4,,15
 1528              		.global	pbuf_copy_partial
 1529              		.thumb
 1530              		.thumb_func
 1531              		.type	pbuf_copy_partial, %function
 1532              	pbuf_copy_partial:
 1533              	.LFB20:
 1534              		.loc 1 896 0
 1535              		.cfi_startproc
 1536              		@ args = 0, pretend = 0, frame = 0
 1537              		@ frame_needed = 0, uses_anonymous_args = 0
 1538              	.LVL175:
 1539 0000 2DE9F843 		push	{r3, r4, r5, r6, r7, r8, r9, lr}
 1540              	.LCFI14:
 1541              		.cfi_def_cfa_offset 32
 1542              		.cfi_offset 3, -32
 1543              		.cfi_offset 4, -28
 1544              		.cfi_offset 5, -24
 1545              		.cfi_offset 6, -20
 1546              		.cfi_offset 7, -16
 1547              		.cfi_offset 8, -12
 1548              		.cfi_offset 9, -8
 1549              		.cfi_offset 14, -4
 1550              		.loc 1 896 0
 1551 0004 8846     		mov	r8, r1
 1552 0006 1646     		mov	r6, r2
 1553              		.loc 1 902 0
 1554 0008 0028     		cmp	r0, #0
 1555 000a 30D0     		beq	.L217
 1556              		.loc 1 903 0
 1557 000c 0029     		cmp	r1, #0
 1558 000e 2ED0     		beq	.L217
 1559              	.LVL176:
 1560              		.loc 1 912 0 discriminator 1
 1561 0010 002A     		cmp	r2, #0
 1562 0012 31D0     		beq	.L222
 1563              		.loc 1 912 0 is_stmt 0
 1564 0014 4FF00009 		mov	r9, #0
 1565 0018 0446     		mov	r4, r0
 1566 001a 4F46     		mov	r7, r9
 1567 001c 08E0     		b	.L221
 1568              	.LVL177:
 1569              	.L227:
 1570              		.loc 1 913 0 is_stmt 1 discriminator 1
 1571 001e 9D42     		cmp	r5, r3
 1572 0020 0BD8     		bhi	.L219
 1573              		.loc 1 912 0
 1574 0022 2468     		ldr	r4, [r4, #0]
 1575              	.LVL178:
 1576              		.loc 1 915 0
 1577 0024 5B1B     		subs	r3, r3, r5
ARM GAS  /tmp/ccYU8DrE.s 			page 29


 1578              		.loc 1 912 0
 1579 0026 002E     		cmp	r6, #0
 1580 0028 18BF     		it	ne
 1581 002a 002C     		cmpne	r4, #0
 1582              		.loc 1 915 0
 1583 002c 9BB2     		uxth	r3, r3
 1584              	.LVL179:
 1585              		.loc 1 912 0
 1586 002e 1BD0     		beq	.L216
 1587              	.LVL180:
 1588              	.L221:
 1589              		.loc 1 922 0
 1590 0030 08EB0700 		add	r0, r8, r7
 1591              		.loc 1 913 0
 1592 0034 6589     		ldrh	r5, [r4, #10]
 1593 0036 002B     		cmp	r3, #0
 1594 0038 F1D1     		bne	.L227
 1595              	.L219:
 1596              		.loc 1 918 0
 1597 003a ED1A     		subs	r5, r5, r3
 1598              		.loc 1 922 0
 1599 003c 6168     		ldr	r1, [r4, #4]
 1600              		.loc 1 918 0
 1601 003e ADB2     		uxth	r5, r5
 1602              	.LVL181:
 1603 0040 B542     		cmp	r5, r6
 1604 0042 28BF     		it	cs
 1605 0044 3546     		movcs	r5, r6
 1606              	.LVL182:
 1607              		.loc 1 922 0
 1608 0046 C918     		adds	r1, r1, r3
 1609 0048 2A46     		mov	r2, r5
 1610 004a FFF7FEFF 		bl	memcpy
 1611              	.LVL183:
 1612              		.loc 1 925 0
 1613 004e 761B     		subs	r6, r6, r5
 1614              		.loc 1 912 0
 1615 0050 2468     		ldr	r4, [r4, #0]
 1616              	.LVL184:
 1617              		.loc 1 925 0
 1618 0052 B6B2     		uxth	r6, r6
 1619              		.loc 1 923 0
 1620 0054 A944     		add	r9, r5, r9
 1621              		.loc 1 924 0
 1622 0056 EF19     		adds	r7, r5, r7
 1623              		.loc 1 926 0
 1624 0058 0023     		movs	r3, #0
 1625              		.loc 1 912 0
 1626 005a 002E     		cmp	r6, #0
 1627 005c 18BF     		it	ne
 1628 005e 002C     		cmpne	r4, #0
 1629              		.loc 1 923 0
 1630 0060 1FFA89F9 		uxth	r9, r9
 1631              	.LVL185:
 1632              		.loc 1 924 0
 1633 0064 BFB2     		uxth	r7, r7
 1634              	.LVL186:
ARM GAS  /tmp/ccYU8DrE.s 			page 30


 1635              		.loc 1 912 0
 1636 0066 E3D1     		bne	.L221
 1637              	.LVL187:
 1638              	.L216:
 1639              		.loc 1 930 0
 1640 0068 4846     		mov	r0, r9
 1641 006a BDE8F883 		pop	{r3, r4, r5, r6, r7, r8, r9, pc}
 1642              	.LVL188:
 1643              	.L217:
 1644              		.loc 1 902 0 discriminator 1
 1645 006e FFF7FEFF 		bl	port_halt
 1646              	.LVL189:
 1647 0072 4FF00009 		mov	r9, #0
 1648 0076 F7E7     		b	.L216
 1649              	.LVL190:
 1650              	.L222:
 1651              		.loc 1 912 0
 1652 0078 9146     		mov	r9, r2
 1653 007a F5E7     		b	.L216
 1654              		.cfi_endproc
 1655              	.LFE20:
 1656              		.size	pbuf_copy_partial, .-pbuf_copy_partial
 1657 007c AFF30080 		.section	.text.pbuf_take,"ax",%progbits
 1658              		.align	2
 1659              		.p2align 4,,15
 1660              		.global	pbuf_take
 1661              		.thumb
 1662              		.thumb_func
 1663              		.type	pbuf_take, %function
 1664              	pbuf_take:
 1665              	.LFB21:
 1666              		.loc 1 944 0
 1667              		.cfi_startproc
 1668              		@ args = 0, pretend = 0, frame = 0
 1669              		@ frame_needed = 0, uses_anonymous_args = 0
 1670              	.LVL191:
 1671 0000 2DE9F843 		push	{r3, r4, r5, r6, r7, r8, r9, lr}
 1672              	.LCFI15:
 1673              		.cfi_def_cfa_offset 32
 1674              		.cfi_offset 3, -32
 1675              		.cfi_offset 4, -28
 1676              		.cfi_offset 5, -24
 1677              		.cfi_offset 6, -20
 1678              		.cfi_offset 7, -16
 1679              		.cfi_offset 8, -12
 1680              		.cfi_offset 9, -8
 1681              		.cfi_offset 14, -4
 1682              		.loc 1 944 0
 1683 0004 8846     		mov	r8, r1
 1684 0006 9146     		mov	r9, r2
 1685              	.LVL192:
 1686              		.loc 1 950 0
 1687 0008 18B3     		cbz	r0, .L231
 1688              		.loc 1 951 0
 1689 000a 11B3     		cbz	r1, .L231
 1690              		.loc 1 953 0
 1691 000c 0389     		ldrh	r3, [r0, #8]
ARM GAS  /tmp/ccYU8DrE.s 			page 31


 1692 000e 9342     		cmp	r3, r2
 1693 0010 25D3     		bcc	.L236
 1694              	.LVL193:
 1695              		.loc 1 958 0 discriminator 1
 1696 0012 BAB1     		cbz	r2, .L235
 1697              		.loc 1 958 0 is_stmt 0
 1698 0014 1546     		mov	r5, r2
 1699 0016 0446     		mov	r4, r0
 1700 0018 0027     		movs	r7, #0
 1701 001a 00E0     		b	.L243
 1702              	.LVL194:
 1703              	.L234:
 1704              		.loc 1 959 0 is_stmt 1
 1705 001c B4B1     		cbz	r4, .L244
 1706              	.LVL195:
 1707              	.L243:
 1708              		.loc 1 961 0
 1709 001e 6689     		ldrh	r6, [r4, #10]
 1710              		.loc 1 966 0
 1711 0020 6068     		ldr	r0, [r4, #4]
 1712 0022 B542     		cmp	r5, r6
 1713 0024 38BF     		it	cc
 1714 0026 2E46     		movcc	r6, r5
 1715              	.LVL196:
 1716              		.loc 1 967 0
 1717 0028 AD1B     		subs	r5, r5, r6
 1718              		.loc 1 966 0
 1719 002a 08EB0701 		add	r1, r8, r7
 1720 002e 3246     		mov	r2, r6
 1721              		.loc 1 968 0
 1722 0030 F719     		adds	r7, r6, r7
 1723              		.loc 1 967 0
 1724 0032 ADB2     		uxth	r5, r5
 1725              		.loc 1 966 0
 1726 0034 FFF7FEFF 		bl	memcpy
 1727              	.LVL197:
 1728              		.loc 1 968 0
 1729 0038 BFB2     		uxth	r7, r7
 1730              	.LVL198:
 1731              		.loc 1 958 0
 1732 003a 2468     		ldr	r4, [r4, #0]
 1733              	.LVL199:
 1734 003c 002D     		cmp	r5, #0
 1735 003e EDD1     		bne	.L234
 1736              		.loc 1 970 0
 1737 0040 B945     		cmp	r9, r7
 1738 0042 06D1     		bne	.L231
 1739              	.LVL200:
 1740              	.L235:
 1741              		.loc 1 971 0
 1742 0044 0020     		movs	r0, #0
 1743              	.L230:
 1744              		.loc 1 972 0
 1745 0046 40B2     		sxtb	r0, r0
 1746 0048 BDE8F883 		pop	{r3, r4, r5, r6, r7, r8, r9, pc}
 1747              	.LVL201:
 1748              	.L244:
ARM GAS  /tmp/ccYU8DrE.s 			page 32


 1749              		.loc 1 959 0 discriminator 1
 1750 004c FFF7FEFF 		bl	port_halt
 1751              	.LVL202:
 1752 0050 E5E7     		b	.L243
 1753              	.LVL203:
 1754              	.L231:
 1755              		.loc 1 950 0 discriminator 1
 1756 0052 FFF7FEFF 		bl	port_halt
 1757              	.LVL204:
 1758 0056 0020     		movs	r0, #0
 1759              		.loc 1 972 0 discriminator 1
 1760 0058 40B2     		sxtb	r0, r0
 1761 005a BDE8F883 		pop	{r3, r4, r5, r6, r7, r8, r9, pc}
 1762              	.LVL205:
 1763              	.L236:
 1764              		.loc 1 954 0
 1765 005e F220     		movs	r0, #242
 1766              	.LVL206:
 1767 0060 F1E7     		b	.L230
 1768              		.cfi_endproc
 1769              	.LFE21:
 1770              		.size	pbuf_take, .-pbuf_take
 1771 0062 00BFAFF3 		.section	.text.pbuf_coalesce,"ax",%progbits
 1771      0080AFF3 
 1771      0080AFF3 
 1771      0080
 1772              		.align	2
 1773              		.p2align 4,,15
 1774              		.global	pbuf_coalesce
 1775              		.thumb
 1776              		.thumb_func
 1777              		.type	pbuf_coalesce, %function
 1778              	pbuf_coalesce:
 1779              	.LFB22:
 1780              		.loc 1 988 0
 1781              		.cfi_startproc
 1782              		@ args = 0, pretend = 0, frame = 0
 1783              		@ frame_needed = 0, uses_anonymous_args = 0
 1784              	.LVL207:
 1785 0000 38B5     		push	{r3, r4, r5, lr}
 1786              	.LCFI16:
 1787              		.cfi_def_cfa_offset 16
 1788              		.cfi_offset 3, -16
 1789              		.cfi_offset 4, -12
 1790              		.cfi_offset 5, -8
 1791              		.cfi_offset 14, -4
 1792              		.loc 1 991 0
 1793 0002 0368     		ldr	r3, [r0, #0]
 1794              		.loc 1 988 0
 1795 0004 0446     		mov	r4, r0
 1796              		.loc 1 991 0
 1797 0006 73B1     		cbz	r3, .L247
 1798              		.loc 1 994 0
 1799 0008 0846     		mov	r0, r1
 1800              	.LVL208:
 1801 000a 0022     		movs	r2, #0
 1802 000c 2189     		ldrh	r1, [r4, #8]
ARM GAS  /tmp/ccYU8DrE.s 			page 33


 1803              	.LVL209:
 1804 000e FFF7FEFF 		bl	pbuf_alloc
 1805              	.LVL210:
 1806              		.loc 1 995 0
 1807 0012 0546     		mov	r5, r0
 1808 0014 38B1     		cbz	r0, .L247
 1809              		.loc 1 999 0
 1810 0016 2146     		mov	r1, r4
 1811 0018 FFF7FEFF 		bl	pbuf_copy
 1812              	.LVL211:
 1813              		.loc 1 1000 0
 1814 001c 28B9     		cbnz	r0, .L256
 1815              	.LVL212:
 1816              	.L249:
 1817              		.loc 1 1001 0
 1818 001e 2046     		mov	r0, r4
 1819 0020 FFF7FEFF 		bl	pbuf_free
 1820              	.LVL213:
 1821              		.loc 1 1002 0
 1822 0024 2C46     		mov	r4, r5
 1823              	.LVL214:
 1824              	.L247:
 1825              		.loc 1 1003 0
 1826 0026 2046     		mov	r0, r4
 1827 0028 38BD     		pop	{r3, r4, r5, pc}
 1828              	.LVL215:
 1829              	.L256:
 1830              		.loc 1 1000 0 discriminator 1
 1831 002a FFF7FEFF 		bl	port_halt
 1832              	.LVL216:
 1833 002e F6E7     		b	.L249
 1834              		.cfi_endproc
 1835              	.LFE22:
 1836              		.size	pbuf_coalesce, .-pbuf_coalesce
 1837              		.section	.text.pbuf_get_at,"ax",%progbits
 1838              		.align	2
 1839              		.p2align 4,,15
 1840              		.global	pbuf_get_at
 1841              		.thumb
 1842              		.thumb_func
 1843              		.type	pbuf_get_at, %function
 1844              	pbuf_get_at:
 1845              	.LFB23:
 1846              		.loc 1 1055 0
 1847              		.cfi_startproc
 1848              		@ args = 0, pretend = 0, frame = 0
 1849              		@ frame_needed = 0, uses_anonymous_args = 0
 1850              		@ link register save eliminated.
 1851              	.LVL217:
 1852              		.loc 1 1060 0
 1853 0000 58B1     		cbz	r0, .L265
 1854 0002 4389     		ldrh	r3, [r0, #10]
 1855 0004 9942     		cmp	r1, r3
 1856 0006 03D2     		bcs	.L260
 1857 0008 08E0     		b	.L259
 1858              	.LVL218:
 1859              	.L266:
ARM GAS  /tmp/ccYU8DrE.s 			page 34


 1860              		.loc 1 1060 0 is_stmt 0 discriminator 2
 1861 000a 4389     		ldrh	r3, [r0, #10]
 1862 000c 8B42     		cmp	r3, r1
 1863 000e 05D8     		bhi	.L259
 1864              	.LVL219:
 1865              	.L260:
 1866              		.loc 1 1062 0 is_stmt 1
 1867 0010 0068     		ldr	r0, [r0, #0]
 1868              	.LVL220:
 1869              		.loc 1 1061 0
 1870 0012 C91A     		subs	r1, r1, r3
 1871 0014 89B2     		uxth	r1, r1
 1872              	.LVL221:
 1873              		.loc 1 1060 0
 1874 0016 0028     		cmp	r0, #0
 1875 0018 F7D1     		bne	.L266
 1876              	.LVL222:
 1877              	.L265:
 1878              		.loc 1 1069 0
 1879 001a 7047     		bx	lr
 1880              	.L259:
 1881              		.loc 1 1066 0
 1882 001c 4368     		ldr	r3, [r0, #4]
 1883 001e 585C     		ldrb	r0, [r3, r1]	@ zero_extendqisi2
 1884              	.LVL223:
 1885              		.loc 1 1069 0
 1886 0020 7047     		bx	lr
 1887              		.cfi_endproc
 1888              	.LFE23:
 1889              		.size	pbuf_get_at, .-pbuf_get_at
 1890 0022 00BFAFF3 		.section	.text.pbuf_memcmp,"ax",%progbits
 1890      0080AFF3 
 1890      0080AFF3 
 1890      0080
 1891              		.align	2
 1892              		.p2align 4,,15
 1893              		.global	pbuf_memcmp
 1894              		.thumb
 1895              		.thumb_func
 1896              		.type	pbuf_memcmp, %function
 1897              	pbuf_memcmp:
 1898              	.LFB24:
 1899              		.loc 1 1082 0
 1900              		.cfi_startproc
 1901              		@ args = 0, pretend = 0, frame = 0
 1902              		@ frame_needed = 0, uses_anonymous_args = 0
 1903              		@ link register save eliminated.
 1904              	.LVL224:
 1905 0000 F0B4     		push	{r4, r5, r6, r7}
 1906              	.LCFI17:
 1907              		.cfi_def_cfa_offset 16
 1908              		.cfi_offset 4, -16
 1909              		.cfi_offset 5, -12
 1910              		.cfi_offset 6, -8
 1911              		.cfi_offset 7, -4
 1912              		.loc 1 1087 0
 1913 0002 58B1     		cbz	r0, .L281
ARM GAS  /tmp/ccYU8DrE.s 			page 35


 1914 0004 4489     		ldrh	r4, [r0, #10]
 1915 0006 A142     		cmp	r1, r4
 1916 0008 03D2     		bcs	.L270
 1917 000a 0BE0     		b	.L269
 1918              	.LVL225:
 1919              	.L287:
 1920              		.loc 1 1087 0 is_stmt 0 discriminator 2
 1921 000c 4489     		ldrh	r4, [r0, #10]
 1922 000e 8C42     		cmp	r4, r1
 1923 0010 08D8     		bhi	.L269
 1924              	.LVL226:
 1925              	.L270:
 1926              		.loc 1 1089 0 is_stmt 1
 1927 0012 0068     		ldr	r0, [r0, #0]
 1928              	.LVL227:
 1929              		.loc 1 1088 0
 1930 0014 091B     		subs	r1, r1, r4
 1931 0016 89B2     		uxth	r1, r1
 1932              	.LVL228:
 1933              		.loc 1 1087 0
 1934 0018 0028     		cmp	r0, #0
 1935 001a F7D1     		bne	.L287
 1936              	.LVL229:
 1937              	.L281:
 1938              		.loc 1 1103 0
 1939 001c 4FF6FF70 		movw	r0, #65535
 1940              	.LVL230:
 1941              	.L286:
 1942              		.loc 1 1104 0
 1943 0020 F0BC     		pop	{r4, r5, r6, r7}
 1944 0022 7047     		bx	lr
 1945              	.LVL231:
 1946              	.L269:
 1947              	.LBB21:
 1948              		.loc 1 1094 0
 1949 0024 23B3     		cbz	r3, .L288
 1950 0026 0027     		movs	r7, #0
 1951 0028 BC46     		mov	ip, r7
 1952              	.LVL232:
 1953              	.L276:
 1954              	.LBE21:
 1955              		.loc 1 1081 0
 1956 002a 01EB0C05 		add	r5, r1, ip
 1957 002e ADB2     		uxth	r5, r5
 1958              	.LVL233:
 1959              	.LBB32:
 1960 0030 0446     		mov	r4, r0
 1961              	.LVL234:
 1962              	.L271:
 1963              	.LBB22:
 1964              	.LBB23:
 1965              	.LBB24:
 1966              		.loc 1 1060 0
 1967 0032 6689     		ldrh	r6, [r4, #10]
 1968 0034 AE42     		cmp	r6, r5
 1969 0036 0ED8     		bhi	.L289
 1970              		.loc 1 1062 0
ARM GAS  /tmp/ccYU8DrE.s 			page 36


 1971 0038 2468     		ldr	r4, [r4, #0]
 1972              	.LVL235:
 1973              		.loc 1 1061 0
 1974 003a AD1B     		subs	r5, r5, r6
 1975 003c ADB2     		uxth	r5, r5
 1976              	.LVL236:
 1977              		.loc 1 1060 0
 1978 003e 002C     		cmp	r4, #0
 1979 0040 F7D1     		bne	.L271
 1980              	.LVL237:
 1981              	.L272:
 1982              	.LBE24:
 1983              	.LBE23:
 1984              		.loc 1 1097 0
 1985 0042 D55D     		ldrb	r5, [r2, r7]	@ zero_extendqisi2
 1986 0044 A542     		cmp	r5, r4
 1987 0046 0CD1     		bne	.L290
 1988              	.LVL238:
 1989              	.L275:
 1990 0048 0137     		adds	r7, r7, #1
 1991              	.LBE22:
 1992              		.loc 1 1094 0
 1993 004a 1FFA87FC 		uxth	ip, r7
 1994              	.LVL239:
 1995 004e 6345     		cmp	r3, ip
 1996 0050 EBD8     		bhi	.L276
 1997              		.loc 1 1101 0
 1998 0052 0020     		movs	r0, #0
 1999              	.LVL240:
 2000 0054 E4E7     		b	.L286
 2001              	.LVL241:
 2002              	.L289:
 2003              	.LBB31:
 2004              	.LBB28:
 2005              	.LBB25:
 2006              		.loc 1 1065 0
 2007 0056 B542     		cmp	r5, r6
 2008 0058 07D3     		bcc	.L277
 2009              	.LBE25:
 2010              	.LBE28:
 2011              		.loc 1 1097 0
 2012 005a D55D     		ldrb	r5, [r2, r7]	@ zero_extendqisi2
 2013              	.LBB29:
 2014              	.LBB26:
 2015              		.loc 1 1068 0
 2016 005c 0024     		movs	r4, #0
 2017              	.LVL242:
 2018              	.LBE26:
 2019              	.LBE29:
 2020              		.loc 1 1097 0
 2021 005e A542     		cmp	r5, r4
 2022 0060 F2D0     		beq	.L275
 2023              	.LVL243:
 2024              	.L290:
 2025              		.loc 1 1098 0
 2026 0062 0CF10100 		add	r0, ip, #1
 2027              	.LVL244:
ARM GAS  /tmp/ccYU8DrE.s 			page 37


 2028 0066 80B2     		uxth	r0, r0
 2029 0068 DAE7     		b	.L286
 2030              	.LVL245:
 2031              	.L277:
 2032              	.LBB30:
 2033              	.LBB27:
 2034              		.loc 1 1066 0
 2035 006a 6468     		ldr	r4, [r4, #4]
 2036              	.LVL246:
 2037 006c 645D     		ldrb	r4, [r4, r5]	@ zero_extendqisi2
 2038 006e E8E7     		b	.L272
 2039              	.LVL247:
 2040              	.L288:
 2041              	.LBE27:
 2042              	.LBE30:
 2043              	.LBE31:
 2044              		.loc 1 1101 0
 2045 0070 1846     		mov	r0, r3
 2046              	.LVL248:
 2047 0072 D5E7     		b	.L286
 2048              	.LBE32:
 2049              		.cfi_endproc
 2050              	.LFE24:
 2051              		.size	pbuf_memcmp, .-pbuf_memcmp
 2052 0074 AFF30080 		.section	.text.pbuf_memfind,"ax",%progbits
 2052      AFF30080 
 2052      AFF30080 
 2053              		.align	2
 2054              		.p2align 4,,15
 2055              		.global	pbuf_memfind
 2056              		.thumb
 2057              		.thumb_func
 2058              		.type	pbuf_memfind, %function
 2059              	pbuf_memfind:
 2060              	.LFB25:
 2061              		.loc 1 1118 0
 2062              		.cfi_startproc
 2063              		@ args = 0, pretend = 0, frame = 0
 2064              		@ frame_needed = 0, uses_anonymous_args = 0
 2065              	.LVL249:
 2066 0000 2DE9F843 		push	{r3, r4, r5, r6, r7, r8, r9, lr}
 2067              	.LCFI18:
 2068              		.cfi_def_cfa_offset 32
 2069              		.cfi_offset 3, -32
 2070              		.cfi_offset 4, -28
 2071              		.cfi_offset 5, -24
 2072              		.cfi_offset 6, -20
 2073              		.cfi_offset 7, -16
 2074              		.cfi_offset 8, -12
 2075              		.cfi_offset 9, -8
 2076              		.cfi_offset 14, -4
 2077              		.loc 1 1120 0
 2078 0004 B0F80890 		ldrh	r9, [r0, #8]
 2079              	.LVL250:
 2080              		.loc 1 1118 0
 2081 0008 1646     		mov	r6, r2
 2082              		.loc 1 1121 0
ARM GAS  /tmp/ccYU8DrE.s 			page 38


 2083 000a D218     		adds	r2, r2, r3
 2084              	.LVL251:
 2085 000c 9145     		cmp	r9, r2
 2086              		.loc 1 1118 0
 2087 000e 0746     		mov	r7, r0
 2088 0010 8846     		mov	r8, r1
 2089              		.loc 1 1121 0
 2090 0012 04DA     		bge	.L301
 2091              	.LVL252:
 2092              	.L295:
 2093              		.loc 1 1131 0
 2094 0014 4FF6FF74 		movw	r4, #65535
 2095              		.loc 1 1132 0
 2096 0018 2046     		mov	r0, r4
 2097 001a BDE8F883 		pop	{r3, r4, r5, r6, r7, r8, r9, pc}
 2098              	.LVL253:
 2099              	.L301:
 2100              		.loc 1 1120 0 discriminator 1
 2101 001e C6EB0909 		rsb	r9, r6, r9
 2102              	.LVL254:
 2103 0022 1FFA89F9 		uxth	r9, r9
 2104              	.LVL255:
 2105              		.loc 1 1122 0 discriminator 1
 2106 0026 9945     		cmp	r9, r3
 2107 0028 F4D3     		bcc	.L295
 2108              		.loc 1 1122 0 is_stmt 0
 2109 002a 1C46     		mov	r4, r3
 2110 002c 02E0     		b	.L293
 2111              	.LVL256:
 2112              	.L302:
 2113              	.LBB33:
 2114              		.loc 1 1127 0 is_stmt 1
 2115 002e ACB2     		uxth	r4, r5
 2116              	.LVL257:
 2117              	.LBE33:
 2118              		.loc 1 1122 0
 2119 0030 A145     		cmp	r9, r4
 2120 0032 EFD3     		bcc	.L295
 2121              	.LVL258:
 2122              	.L293:
 2123              	.LBB34:
 2124              		.loc 1 1123 0
 2125 0034 2146     		mov	r1, r4
 2126 0036 3846     		mov	r0, r7
 2127 0038 4246     		mov	r2, r8
 2128 003a 3346     		mov	r3, r6
 2129 003c FFF7FEFF 		bl	pbuf_memcmp
 2130              	.LVL259:
 2131              		.loc 1 1127 0
 2132 0040 2518     		adds	r5, r4, r0
 2133              		.loc 1 1124 0
 2134 0042 0028     		cmp	r0, #0
 2135 0044 F3D1     		bne	.L302
 2136              	.LBE34:
 2137              		.loc 1 1132 0
 2138 0046 2046     		mov	r0, r4
 2139              	.LVL260:
ARM GAS  /tmp/ccYU8DrE.s 			page 39


 2140 0048 BDE8F883 		pop	{r3, r4, r5, r6, r7, r8, r9, pc}
 2141              		.cfi_endproc
 2142              	.LFE25:
 2143              		.size	pbuf_memfind, .-pbuf_memfind
 2144 004c AFF30080 		.section	.text.pbuf_strstr,"ax",%progbits
 2145              		.align	2
 2146              		.p2align 4,,15
 2147              		.global	pbuf_strstr
 2148              		.thumb
 2149              		.thumb_func
 2150              		.type	pbuf_strstr, %function
 2151              	pbuf_strstr:
 2152              	.LFB26:
 2153              		.loc 1 1146 0
 2154              		.cfi_startproc
 2155              		@ args = 0, pretend = 0, frame = 8
 2156              		@ frame_needed = 0, uses_anonymous_args = 0
 2157              	.LVL261:
 2158 0000 30B5     		push	{r4, r5, lr}
 2159              	.LCFI19:
 2160              		.cfi_def_cfa_offset 12
 2161              		.cfi_offset 4, -12
 2162              		.cfi_offset 5, -8
 2163              		.cfi_offset 14, -4
 2164 0002 0446     		mov	r4, r0
 2165 0004 83B0     		sub	sp, sp, #12
 2166              	.LCFI20:
 2167              		.cfi_def_cfa_offset 24
 2168              		.loc 1 1148 0
 2169 0006 09B1     		cbz	r1, .L306
 2170              		.loc 1 1148 0 is_stmt 0 discriminator 1
 2171 0008 0B78     		ldrb	r3, [r1, #0]	@ zero_extendqisi2
 2172 000a 1BB9     		cbnz	r3, .L309
 2173              	.L306:
 2174              		.loc 1 1149 0 is_stmt 1
 2175 000c 4FF6FF70 		movw	r0, #65535
 2176              	.LVL262:
 2177              	.L304:
 2178              		.loc 1 1156 0
 2179 0010 03B0     		add	sp, sp, #12
 2180 0012 30BD     		pop	{r4, r5, pc}
 2181              	.LVL263:
 2182              	.L309:
 2183              		.loc 1 1148 0 discriminator 1
 2184 0014 0089     		ldrh	r0, [r0, #8]
 2185              	.LVL264:
 2186 0016 4FF6FF75 		movw	r5, #65535
 2187 001a A842     		cmp	r0, r5
 2188 001c F8D0     		beq	.L304
 2189              		.loc 1 1151 0
 2190 001e 0846     		mov	r0, r1
 2191 0020 0191     		str	r1, [sp, #4]
 2192 0022 FFF7FEFF 		bl	strlen
 2193              	.LVL265:
 2194              		.loc 1 1152 0
 2195 0026 4FF6FE73 		movw	r3, #65534
 2196 002a 9842     		cmp	r0, r3
ARM GAS  /tmp/ccYU8DrE.s 			page 40


 2197              		.loc 1 1151 0
 2198 002c 0246     		mov	r2, r0
 2199              	.LVL266:
 2200              		.loc 1 1152 0
 2201 002e 0199     		ldr	r1, [sp, #4]
 2202              		.loc 1 1149 0
 2203 0030 88BF     		it	hi
 2204 0032 2846     		movhi	r0, r5
 2205              	.LVL267:
 2206              		.loc 1 1152 0
 2207 0034 ECD8     		bhi	.L304
 2208              	.LVL268:
 2209              		.loc 1 1155 0
 2210 0036 2046     		mov	r0, r4
 2211 0038 92B2     		uxth	r2, r2
 2212              	.LVL269:
 2213 003a 0023     		movs	r3, #0
 2214              		.loc 1 1156 0
 2215 003c 03B0     		add	sp, sp, #12
 2216 003e BDE83040 		pop	{r4, r5, lr}
 2217              		.loc 1 1155 0
 2218 0042 FFF7FEBF 		b	pbuf_memfind
 2219              	.LVL270:
 2220              		.cfi_endproc
 2221              	.LFE26:
 2222              		.size	pbuf_strstr, .-pbuf_strstr
 2223 0046 00BFAFF3 		.section	.bss.pbuf_free_ooseq_queued,"aw",%nobits
 2223      0080AFF3 
 2223      0080
 2224              		.set	.LANCHOR0,. + 0
 2225              		.type	pbuf_free_ooseq_queued, %object
 2226              		.size	pbuf_free_ooseq_queued, 1
 2227              	pbuf_free_ooseq_queued:
 2228 0000 00       		.space	1
 2229              		.text
 2230              	.Letext0:
 2231              		.file 2 "/opt/psas/x-tools/stm32f407/arm-psas-eabi/bin/../lib/gcc/arm-psas-eabi/4.7.2/include/stdd
 2232              		.file 3 "/opt/psas/x-tools/stm32f407/arm-psas-eabi/bin/../lib/gcc/arm-psas-eabi/4.7.2/../../../../
 2233              		.file 4 "../../os/various/lwip_bindings/arch/cc.h"
 2234              		.file 5 "../../ext/lwip/src/include/lwip/mem.h"
 2235              		.file 6 "../../ext/lwip/src/include/lwip/memp.h"
 2236              		.file 7 "../../ext/lwip/src/include/lwip/err.h"
 2237              		.file 8 "../../ext/lwip/src/include/lwip/pbuf.h"
 2238              		.file 9 "../../ext/lwip/src/include/ipv4/lwip/ip_addr.h"
 2239              		.file 10 "../../ext/lwip/src/include/lwip/tcp.h"
 2240              		.file 11 "../../ext/lwip/src/include/lwip/tcp_impl.h"
 2241              		.file 12 "../../ext/lwip/src/include/lwip/tcpip.h"
 2242              		.file 13 "/opt/psas/x-tools/stm32f407/arm-psas-eabi/bin/../lib/gcc/arm-psas-eabi/4.7.2/../../../..
 2243              		.file 14 "../../os/ports/GCC/ARMCMx/chcore_v7m.h"