ARM GAS  /tmp/ccjeJkLZ.s 			page 1


   1              		.syntax unified
   2              		.cpu cortex-m4
   3              		.eabi_attribute 27, 3
   4              		.eabi_attribute 28, 1
   5              		.fpu fpv4-sp-d16
   6              		.eabi_attribute 20, 1
   7              		.eabi_attribute 21, 1
   8              		.eabi_attribute 23, 3
   9              		.eabi_attribute 24, 1
  10              		.eabi_attribute 25, 1
  11              		.eabi_attribute 26, 1
  12              		.eabi_attribute 30, 2
  13              		.eabi_attribute 34, 1
  14              		.eabi_attribute 18, 4
  15              		.thumb
  16              		.file	"raw.c"
  17              		.text
  18              	.Ltext0:
  19              		.cfi_sections	.debug_frame
  20              		.section	.text.raw_input,"ax",%progbits
  21              		.align	2
  22              		.p2align 4,,15
  23              		.global	raw_input
  24              		.thumb
  25              		.thumb_func
  26              		.type	raw_input, %function
  27              	raw_input:
  28              	.LFB7:
  29              		.file 1 "../../ext/lwip/src/core/raw.c"
  30              		.loc 1 77 0
  31              		.cfi_startproc
  32              		@ args = 0, pretend = 0, frame = 0
  33              		@ frame_needed = 0, uses_anonymous_args = 0
  34              	.LVL0:
  35 0000 2DE9F047 		push	{r4, r5, r6, r7, r8, r9, sl, lr}
  36              	.LCFI0:
  37              		.cfi_def_cfa_offset 32
  38              		.cfi_offset 4, -32
  39              		.cfi_offset 5, -28
  40              		.cfi_offset 6, -24
  41              		.cfi_offset 7, -20
  42              		.cfi_offset 8, -16
  43              		.cfi_offset 9, -12
  44              		.cfi_offset 10, -8
  45              		.cfi_offset 14, -4
  46              		.loc 1 89 0
  47 0004 DFF86880 		ldr	r8, .L24+4
  48              		.loc 1 86 0
  49 0008 4368     		ldr	r3, [r0, #4]
  50              		.loc 1 89 0
  51 000a D8F80040 		ldr	r4, [r8, #0]
  52              		.loc 1 86 0
  53 000e 5E7A     		ldrb	r6, [r3, #9]	@ zero_extendqisi2
  54              		.loc 1 77 0
  55 0010 8246     		mov	sl, r0
  56              	.LVL1:
  57              		.loc 1 92 0
ARM GAS  /tmp/ccjeJkLZ.s 			page 2


  58 0012 3CB3     		cbz	r4, .L7
  59 0014 0025     		movs	r5, #0
  60              		.loc 1 95 0
  61 0016 DFF85C90 		ldr	r9, .L24+8
  62 001a 03E0     		b	.L2
  63              	.LVL2:
  64              	.L4:
  65              		.loc 1 122 0
  66 001c E368     		ldr	r3, [r4, #12]
  67              	.LVL3:
  68 001e 2546     		mov	r5, r4
  69              		.loc 1 92 0
  70 0020 03B3     		cbz	r3, .L7
  71              		.loc 1 122 0
  72 0022 1C46     		mov	r4, r3
  73              	.LVL4:
  74              	.L2:
  75              		.loc 1 93 0
  76 0024 237C     		ldrb	r3, [r4, #16]	@ zero_extendqisi2
  77 0026 B342     		cmp	r3, r6
  78 0028 F8D1     		bne	.L4
  79              		.loc 1 94 0 discriminator 1
  80 002a 2068     		ldr	r0, [r4, #0]
  81              		.loc 1 104 0 discriminator 1
  82 002c 0F4B     		ldr	r3, .L24
  83 002e 2146     		mov	r1, r4
  84 0030 5246     		mov	r2, sl
  85              		.loc 1 94 0 discriminator 1
  86 0032 18B1     		cbz	r0, .L5
  87 0034 D9F80070 		ldr	r7, [r9, #0]
  88 0038 B842     		cmp	r0, r7
  89 003a EFD1     		bne	.L4
  90              	.L5:
  91              		.loc 1 102 0
  92 003c D4F814C0 		ldr	ip, [r4, #20]
  93 0040 BCF1000F 		cmp	ip, #0
  94 0044 EAD0     		beq	.L4
  95              		.loc 1 104 0
  96 0046 A069     		ldr	r0, [r4, #24]
  97 0048 E047     		blx	ip
  98              	.LVL5:
  99 004a 0028     		cmp	r0, #0
 100 004c E6D0     		beq	.L4
 101              	.LVL6:
 102              		.loc 1 108 0
 103 004e 35B1     		cbz	r5, .L6
 104              		.loc 1 111 0
 105 0050 E368     		ldr	r3, [r4, #12]
 106              		.loc 1 112 0
 107 0052 D8F80020 		ldr	r2, [r8, #0]
 108              		.loc 1 111 0
 109 0056 EB60     		str	r3, [r5, #12]
 110              		.loc 1 113 0
 111 0058 C8F80040 		str	r4, [r8, #0]
 112              		.loc 1 112 0
 113 005c E260     		str	r2, [r4, #12]
 114              	.L6:
ARM GAS  /tmp/ccjeJkLZ.s 			page 3


 115              	.LVL7:
 116              		.loc 1 122 0
 117 005e 0120     		movs	r0, #1
 118              		.loc 1 125 0
 119 0060 BDE8F087 		pop	{r4, r5, r6, r7, r8, r9, sl, pc}
 120              	.LVL8:
 121              	.L7:
 122              		.loc 1 81 0
 123 0064 0020     		movs	r0, #0
 124 0066 BDE8F087 		pop	{r4, r5, r6, r7, r8, r9, sl, pc}
 125              	.L25:
 126 006a 00BF     		.align	2
 127              	.L24:
 128 006c 00000000 		.word	current_iphdr_src
 129 0070 00000000 		.word	.LANCHOR0
 130 0074 00000000 		.word	current_iphdr_dest
 131              		.cfi_endproc
 132              	.LFE7:
 133              		.size	raw_input, .-raw_input
 134 0078 AFF30080 		.section	.text.raw_bind,"ax",%progbits
 134      AFF30080 
 135              		.align	2
 136              		.p2align 4,,15
 137              		.global	raw_bind
 138              		.thumb
 139              		.thumb_func
 140              		.type	raw_bind, %function
 141              	raw_bind:
 142              	.LFB8:
 143              		.loc 1 143 0
 144              		.cfi_startproc
 145              		@ args = 0, pretend = 0, frame = 0
 146              		@ frame_needed = 0, uses_anonymous_args = 0
 147              		@ link register save eliminated.
 148              	.LVL9:
 149              		.loc 1 144 0
 150 0000 01B1     		cbz	r1, .L27
 151              		.loc 1 144 0 is_stmt 0 discriminator 1
 152 0002 0968     		ldr	r1, [r1, #0]
 153              	.LVL10:
 154              	.L27:
 155              		.loc 1 144 0 discriminator 3
 156 0004 0160     		str	r1, [r0, #0]
 157              		.loc 1 146 0 is_stmt 1 discriminator 3
 158 0006 0020     		movs	r0, #0
 159              	.LVL11:
 160 0008 7047     		bx	lr
 161              		.cfi_endproc
 162              	.LFE8:
 163              		.size	raw_bind, .-raw_bind
 164 000a 00BFAFF3 		.section	.text.raw_connect,"ax",%progbits
 164      0080
 165              		.align	2
 166              		.p2align 4,,15
 167              		.global	raw_connect
 168              		.thumb
 169              		.thumb_func
ARM GAS  /tmp/ccjeJkLZ.s 			page 4


 170              		.type	raw_connect, %function
 171              	raw_connect:
 172              	.LFB9:
 173              		.loc 1 163 0
 174              		.cfi_startproc
 175              		@ args = 0, pretend = 0, frame = 0
 176              		@ frame_needed = 0, uses_anonymous_args = 0
 177              		@ link register save eliminated.
 178              	.LVL12:
 179              		.loc 1 164 0
 180 0000 01B1     		cbz	r1, .L30
 181              		.loc 1 164 0 is_stmt 0 discriminator 1
 182 0002 0968     		ldr	r1, [r1, #0]
 183              	.LVL13:
 184              	.L30:
 185              		.loc 1 164 0 discriminator 3
 186 0004 4160     		str	r1, [r0, #4]
 187              		.loc 1 166 0 is_stmt 1 discriminator 3
 188 0006 0020     		movs	r0, #0
 189              	.LVL14:
 190 0008 7047     		bx	lr
 191              		.cfi_endproc
 192              	.LFE9:
 193              		.size	raw_connect, .-raw_connect
 194 000a 00BFAFF3 		.section	.text.raw_recv,"ax",%progbits
 194      0080
 195              		.align	2
 196              		.p2align 4,,15
 197              		.global	raw_recv
 198              		.thumb
 199              		.thumb_func
 200              		.type	raw_recv, %function
 201              	raw_recv:
 202              	.LFB10:
 203              		.loc 1 184 0
 204              		.cfi_startproc
 205              		@ args = 0, pretend = 0, frame = 0
 206              		@ frame_needed = 0, uses_anonymous_args = 0
 207              		@ link register save eliminated.
 208              	.LVL15:
 209              		.loc 1 186 0
 210 0000 4161     		str	r1, [r0, #20]
 211              		.loc 1 187 0
 212 0002 8261     		str	r2, [r0, #24]
 213 0004 7047     		bx	lr
 214              		.cfi_endproc
 215              	.LFE10:
 216              		.size	raw_recv, .-raw_recv
 217 0006 00BFAFF3 		.section	.text.raw_sendto,"ax",%progbits
 217      0080AFF3 
 217      0080
 218              		.align	2
 219              		.p2align 4,,15
 220              		.global	raw_sendto
 221              		.thumb
 222              		.thumb_func
 223              		.type	raw_sendto, %function
ARM GAS  /tmp/ccjeJkLZ.s 			page 5


 224              	raw_sendto:
 225              	.LFB11:
 226              		.loc 1 204 0
 227              		.cfi_startproc
 228              		@ args = 0, pretend = 0, frame = 0
 229              		@ frame_needed = 0, uses_anonymous_args = 0
 230              	.LVL16:
 231 0000 2DE9F041 		push	{r4, r5, r6, r7, r8, lr}
 232              	.LCFI1:
 233              		.cfi_def_cfa_offset 24
 234              		.cfi_offset 4, -24
 235              		.cfi_offset 5, -20
 236              		.cfi_offset 6, -16
 237              		.cfi_offset 7, -12
 238              		.cfi_offset 8, -8
 239              		.cfi_offset 14, -4
 240 0004 0D46     		mov	r5, r1
 241 0006 84B0     		sub	sp, sp, #16
 242              	.LCFI2:
 243              		.cfi_def_cfa_offset 40
 244              		.loc 1 204 0
 245 0008 0446     		mov	r4, r0
 246              		.loc 1 213 0
 247 000a 1421     		movs	r1, #20
 248              	.LVL17:
 249 000c 2846     		mov	r0, r5
 250              	.LVL18:
 251              		.loc 1 204 0
 252 000e 9046     		mov	r8, r2
 253              		.loc 1 213 0
 254 0010 FFF7FEFF 		bl	pbuf_header
 255              	.LVL19:
 256 0014 0028     		cmp	r0, #0
 257 0016 28D0     		beq	.L34
 258              		.loc 1 215 0
 259 0018 0021     		movs	r1, #0
 260 001a 0120     		movs	r0, #1
 261 001c 0A46     		mov	r2, r1
 262 001e FFF7FEFF 		bl	pbuf_alloc
 263              	.LVL20:
 264              		.loc 1 217 0
 265 0022 0746     		mov	r7, r0
 266 0024 0028     		cmp	r0, #0
 267 0026 3ED0     		beq	.L43
 268              		.loc 1 221 0
 269 0028 2B89     		ldrh	r3, [r5, #8]
 270 002a 002B     		cmp	r3, #0
 271 002c 33D1     		bne	.L55
 272              	.LVL21:
 273              	.L36:
 274              		.loc 1 236 0
 275 002e 4046     		mov	r0, r8
 276 0030 FFF7FEFF 		bl	ip_route
 277              	.LVL22:
 278 0034 0646     		mov	r6, r0
 279 0036 0028     		cmp	r0, #0
 280 0038 26D0     		beq	.L56
ARM GAS  /tmp/ccjeJkLZ.s 			page 6


 281              	.L38:
 282              		.loc 1 258 0
 283 003a 2146     		mov	r1, r4
 284 003c 002C     		cmp	r4, #0
 285 003e 21D0     		beq	.L40
 286              	.LVL23:
 287              		.loc 1 258 0 is_stmt 0 discriminator 1
 288 0040 2368     		ldr	r3, [r4, #0]
 289 0042 FBB1     		cbz	r3, .L40
 290              	.LVL24:
 291              	.L41:
 292              		.loc 1 269 0 is_stmt 1
 293 0044 607A     		ldrb	r0, [r4, #9]	@ zero_extendqisi2
 294              	.LVL25:
 295 0046 227C     		ldrb	r2, [r4, #16]	@ zero_extendqisi2
 296 0048 A37A     		ldrb	r3, [r4, #10]	@ zero_extendqisi2
 297 004a 8DE84500 		stmia	sp, {r0, r2, r6}
 298 004e 3846     		mov	r0, r7
 299 0050 4246     		mov	r2, r8
 300 0052 FFF7FEFF 		bl	ip_output_if
 301              	.LVL26:
 302              		.loc 1 275 0
 303 0056 AF42     		cmp	r7, r5
 304              		.loc 1 269 0
 305 0058 0446     		mov	r4, r0
 306              	.LVL27:
 307              		.loc 1 275 0
 308 005a 02D0     		beq	.L35
 309              		.loc 1 277 0
 310 005c 3846     		mov	r0, r7
 311              	.LVL28:
 312 005e FFF7FEFF 		bl	pbuf_free
 313              	.LVL29:
 314              	.L35:
 315 0062 60B2     		sxtb	r0, r4
 316              		.loc 1 280 0
 317 0064 04B0     		add	sp, sp, #16
 318 0066 BDE8F081 		pop	{r4, r5, r6, r7, r8, pc}
 319              	.LVL30:
 320              	.L34:
 321              		.loc 1 230 0
 322 006a 2846     		mov	r0, r5
 323 006c 6FF01301 		mvn	r1, #19
 324 0070 FFF7FEFF 		bl	pbuf_header
 325              	.LVL31:
 326 0074 98B9     		cbnz	r0, .L57
 327              		.loc 1 236 0
 328 0076 4046     		mov	r0, r8
 329 0078 FFF7FEFF 		bl	ip_route
 330              	.LVL32:
 331 007c 0646     		mov	r6, r0
 332 007e 40B1     		cbz	r0, .L54
 333 0080 2F46     		mov	r7, r5
 334 0082 DAE7     		b	.L38
 335              	.LVL33:
 336              	.L40:
 337              		.loc 1 260 0
ARM GAS  /tmp/ccjeJkLZ.s 			page 7


 338 0084 311D     		adds	r1, r6, #4
 339              	.LVL34:
 340 0086 DDE7     		b	.L41
 341              	.LVL35:
 342              	.L56:
 343              		.loc 1 240 0
 344 0088 BD42     		cmp	r5, r7
 345 008a 02D0     		beq	.L54
 346              		.loc 1 241 0
 347 008c 3846     		mov	r0, r7
 348              	.LVL36:
 349 008e FFF7FEFF 		bl	pbuf_free
 350              	.LVL37:
 351              	.L54:
 352              		.loc 1 243 0
 353 0092 FC24     		movs	r4, #252
 354              	.LVL38:
 355 0094 E5E7     		b	.L35
 356              	.LVL39:
 357              	.L55:
 358              		.loc 1 223 0
 359 0096 2946     		mov	r1, r5
 360 0098 FFF7FEFF 		bl	pbuf_chain
 361              	.LVL40:
 362 009c C7E7     		b	.L36
 363              	.LVL41:
 364              	.L57:
 365              		.loc 1 231 0 discriminator 1
 366 009e FFF7FEFF 		bl	port_halt
 367              	.LVL42:
 368              		.loc 1 232 0 discriminator 1
 369 00a2 FF24     		movs	r4, #255
 370              	.LVL43:
 371 00a4 DDE7     		b	.L35
 372              	.LVL44:
 373              	.L43:
 374              		.loc 1 219 0
 375 00a6 FF24     		movs	r4, #255
 376              	.LVL45:
 377 00a8 DBE7     		b	.L35
 378              		.cfi_endproc
 379              	.LFE11:
 380              		.size	raw_sendto, .-raw_sendto
 381 00aa 00BFAFF3 		.section	.text.raw_send,"ax",%progbits
 381      0080
 382              		.align	2
 383              		.p2align 4,,15
 384              		.global	raw_send
 385              		.thumb
 386              		.thumb_func
 387              		.type	raw_send, %function
 388              	raw_send:
 389              	.LFB12:
 390              		.loc 1 291 0
 391              		.cfi_startproc
 392              		@ args = 0, pretend = 0, frame = 0
 393              		@ frame_needed = 0, uses_anonymous_args = 0
ARM GAS  /tmp/ccjeJkLZ.s 			page 8


 394              		@ link register save eliminated.
 395              	.LVL46:
 396              		.loc 1 292 0
 397 0000 021D     		adds	r2, r0, #4
 398              		.loc 1 293 0
 399              		.loc 1 292 0
 400 0002 FFF7FEBF 		b	raw_sendto
 401              	.LVL47:
 402              		.cfi_endproc
 403              	.LFE12:
 404              		.size	raw_send, .-raw_send
 405 0006 00BFAFF3 		.section	.text.raw_remove,"ax",%progbits
 405      0080AFF3 
 405      0080
 406              		.align	2
 407              		.p2align 4,,15
 408              		.global	raw_remove
 409              		.thumb
 410              		.thumb_func
 411              		.type	raw_remove, %function
 412              	raw_remove:
 413              	.LFB13:
 414              		.loc 1 305 0
 415              		.cfi_startproc
 416              		@ args = 0, pretend = 0, frame = 0
 417              		@ frame_needed = 0, uses_anonymous_args = 0
 418              		@ link register save eliminated.
 419              	.LVL48:
 420              		.loc 1 308 0
 421 0000 0B4B     		ldr	r3, .L74
 422 0002 1A68     		ldr	r2, [r3, #0]
 423 0004 8242     		cmp	r2, r0
 424              		.loc 1 305 0
 425 0006 0146     		mov	r1, r0
 426              		.loc 1 308 0
 427 0008 0FD0     		beq	.L60
 428              	.LVL49:
 429              		.loc 1 313 0 discriminator 1
 430 000a 1AB9     		cbnz	r2, .L71
 431 000c 05E0     		b	.L63
 432              	.LVL50:
 433              	.L73:
 434              		.loc 1 315 0 discriminator 1
 435 000e 9942     		cmp	r1, r3
 436 0010 06D0     		beq	.L72
 437              	.L64:
 438              		.loc 1 305 0
 439 0012 1A46     		mov	r2, r3
 440              	.L71:
 441              		.loc 1 315 0
 442 0014 D368     		ldr	r3, [r2, #12]
 443 0016 002B     		cmp	r3, #0
 444 0018 F9D1     		bne	.L73
 445              	.L63:
 446              		.loc 1 321 0
 447 001a 0020     		movs	r0, #0
 448              	.LVL51:
ARM GAS  /tmp/ccjeJkLZ.s 			page 9


 449              		.loc 1 322 0
 450              		.loc 1 321 0
 451 001c FFF7FEBF 		b	memp_free
 452              	.LVL52:
 453              	.L72:
 454              		.loc 1 317 0
 455 0020 CB68     		ldr	r3, [r1, #12]
 456 0022 D360     		str	r3, [r2, #12]
 457              	.LVL53:
 458              		.loc 1 313 0
 459 0024 002B     		cmp	r3, #0
 460 0026 F4D1     		bne	.L64
 461 0028 F7E7     		b	.L63
 462              	.LVL54:
 463              	.L60:
 464              		.loc 1 310 0
 465 002a C268     		ldr	r2, [r0, #12]
 466 002c 1A60     		str	r2, [r3, #0]
 467 002e F4E7     		b	.L63
 468              	.L75:
 469              		.align	2
 470              	.L74:
 471 0030 00000000 		.word	.LANCHOR0
 472              		.cfi_endproc
 473              	.LFE13:
 474              		.size	raw_remove, .-raw_remove
 475 0034 AFF30080 		.section	.text.raw_new,"ax",%progbits
 475      AFF30080 
 475      AFF30080 
 476              		.align	2
 477              		.p2align 4,,15
 478              		.global	raw_new
 479              		.thumb
 480              		.thumb_func
 481              		.type	raw_new, %function
 482              	raw_new:
 483              	.LFB14:
 484              		.loc 1 336 0
 485              		.cfi_startproc
 486              		@ args = 0, pretend = 0, frame = 0
 487              		@ frame_needed = 0, uses_anonymous_args = 0
 488              	.LVL55:
 489 0000 38B5     		push	{r3, r4, r5, lr}
 490              	.LCFI3:
 491              		.cfi_def_cfa_offset 16
 492              		.cfi_offset 3, -16
 493              		.cfi_offset 4, -12
 494              		.cfi_offset 5, -8
 495              		.cfi_offset 14, -4
 496              		.loc 1 336 0
 497 0002 0546     		mov	r5, r0
 498              		.loc 1 341 0
 499 0004 0020     		movs	r0, #0
 500              	.LVL56:
 501 0006 FFF7FEFF 		bl	memp_malloc
 502              	.LVL57:
 503              		.loc 1 343 0
ARM GAS  /tmp/ccjeJkLZ.s 			page 10


 504 000a 0446     		mov	r4, r0
 505 000c 50B1     		cbz	r0, .L77
 506              		.loc 1 345 0
 507 000e 1C22     		movs	r2, #28
 508 0010 0021     		movs	r1, #0
 509 0012 FFF7FEFF 		bl	memset
 510              	.LVL58:
 511              		.loc 1 348 0
 512 0016 044B     		ldr	r3, .L81
 513              		.loc 1 346 0
 514 0018 2574     		strb	r5, [r4, #16]
 515              		.loc 1 348 0
 516 001a 1A68     		ldr	r2, [r3, #0]
 517              		.loc 1 349 0
 518 001c 1C60     		str	r4, [r3, #0]
 519              		.loc 1 347 0
 520 001e FF23     		movs	r3, #255
 521 0020 A372     		strb	r3, [r4, #10]
 522              		.loc 1 348 0
 523 0022 E260     		str	r2, [r4, #12]
 524              	.L77:
 525              		.loc 1 352 0
 526 0024 2046     		mov	r0, r4
 527 0026 38BD     		pop	{r3, r4, r5, pc}
 528              	.L82:
 529              		.align	2
 530              	.L81:
 531 0028 00000000 		.word	.LANCHOR0
 532              		.cfi_endproc
 533              	.LFE14:
 534              		.size	raw_new, .-raw_new
 535 002c AFF30080 		.section	.bss.raw_pcbs,"aw",%nobits
 536              		.align	2
 537              		.set	.LANCHOR0,. + 0
 538              		.type	raw_pcbs, %object
 539              		.size	raw_pcbs, 4
 540              	raw_pcbs:
 541 0000 00000000 		.space	4
 542              		.text
 543              	.Letext0:
 544              		.file 2 "/opt/psas/x-tools/stm32f407/arm-psas-eabi/bin/../lib/gcc/arm-psas-eabi/4.7.2/../../../../
 545              		.file 3 "../../os/various/lwip_bindings/arch/cc.h"
 546              		.file 4 "../../ext/lwip/src/include/lwip/memp.h"
 547              		.file 5 "../../ext/lwip/src/include/ipv4/lwip/ip_addr.h"
 548              		.file 6 "../../ext/lwip/src/include/lwip/err.h"
 549              		.file 7 "../../ext/lwip/src/include/lwip/pbuf.h"
 550              		.file 8 "../../ext/lwip/src/include/lwip/netif.h"
 551              		.file 9 "../../ext/lwip/src/include/ipv4/lwip/ip.h"
 552              		.file 10 "../../ext/lwip/src/include/lwip/raw.h"
 553              		.file 11 "../../os/ports/GCC/ARMCMx/chcore_v7m.h"
 554              		.section	.debug_info,"",%progbits
 555              	.Ldebug_info0:
 556 0000 3E0A0000 		.4byte	0xa3e
 557 0004 0200     		.2byte	0x2
 558 0006 00000000 		.4byte	.Ldebug_abbrev0
 559 000a 04       		.byte	0x4
 560 000b 01       		.uleb128 0x1
ARM GAS  /tmp/ccjeJkLZ.s 			page 11


 561 000c E1000000 		.4byte	.LASF113
 562 0010 01       		.byte	0x1
 563 0011 20020000 		.4byte	.LASF114
 564 0015 B8020000 		.4byte	.LASF115
 565 0019 00000000 		.4byte	.Ldebug_ranges0+0
 566 001d 00000000 		.4byte	0
 567 0021 00000000 		.4byte	0
 568 0025 00000000 		.4byte	.Ldebug_line0
 569 0029 02       		.uleb128 0x2
 570 002a 04       		.byte	0x4
 571 002b 05       		.byte	0x5
 572 002c 696E7400 		.ascii	"int\000"
 573 0030 03       		.uleb128 0x3
 574 0031 04       		.byte	0x4
 575 0032 07       		.byte	0x7
 576 0033 51000000 		.4byte	.LASF0
 577 0037 04       		.uleb128 0x4
 578 0038 DA000000 		.4byte	.LASF2
 579 003c 02       		.byte	0x2
 580 003d 29       		.byte	0x29
 581 003e 42000000 		.4byte	0x42
 582 0042 03       		.uleb128 0x3
 583 0043 01       		.byte	0x1
 584 0044 06       		.byte	0x6
 585 0045 7D040000 		.4byte	.LASF1
 586 0049 04       		.uleb128 0x4
 587 004a 12020000 		.4byte	.LASF3
 588 004e 02       		.byte	0x2
 589 004f 2A       		.byte	0x2a
 590 0050 54000000 		.4byte	0x54
 591 0054 03       		.uleb128 0x3
 592 0055 01       		.byte	0x1
 593 0056 08       		.byte	0x8
 594 0057 0F040000 		.4byte	.LASF4
 595 005b 04       		.uleb128 0x4
 596 005c 00010000 		.4byte	.LASF5
 597 0060 02       		.byte	0x2
 598 0061 35       		.byte	0x35
 599 0062 66000000 		.4byte	0x66
 600 0066 03       		.uleb128 0x3
 601 0067 02       		.byte	0x2
 602 0068 05       		.byte	0x5
 603 0069 47030000 		.4byte	.LASF6
 604 006d 04       		.uleb128 0x4
 605 006e 25030000 		.4byte	.LASF7
 606 0072 02       		.byte	0x2
 607 0073 36       		.byte	0x36
 608 0074 78000000 		.4byte	0x78
 609 0078 03       		.uleb128 0x3
 610 0079 02       		.byte	0x2
 611 007a 07       		.byte	0x7
 612 007b 89040000 		.4byte	.LASF8
 613 007f 03       		.uleb128 0x3
 614 0080 04       		.byte	0x4
 615 0081 05       		.byte	0x5
 616 0082 51030000 		.4byte	.LASF9
 617 0086 04       		.uleb128 0x4
ARM GAS  /tmp/ccjeJkLZ.s 			page 12


 618 0087 D1000000 		.4byte	.LASF10
 619 008b 02       		.byte	0x2
 620 008c 50       		.byte	0x50
 621 008d 91000000 		.4byte	0x91
 622 0091 03       		.uleb128 0x3
 623 0092 04       		.byte	0x4
 624 0093 07       		.byte	0x7
 625 0094 DC030000 		.4byte	.LASF11
 626 0098 03       		.uleb128 0x3
 627 0099 08       		.byte	0x8
 628 009a 05       		.byte	0x5
 629 009b 7A020000 		.4byte	.LASF12
 630 009f 03       		.uleb128 0x3
 631 00a0 08       		.byte	0x8
 632 00a1 07       		.byte	0x7
 633 00a2 0F010000 		.4byte	.LASF13
 634 00a6 05       		.uleb128 0x5
 635 00a7 04       		.byte	0x4
 636 00a8 03       		.uleb128 0x3
 637 00a9 04       		.byte	0x4
 638 00aa 07       		.byte	0x7
 639 00ab D3030000 		.4byte	.LASF14
 640 00af 03       		.uleb128 0x3
 641 00b0 01       		.byte	0x1
 642 00b1 08       		.byte	0x8
 643 00b2 EF010000 		.4byte	.LASF15
 644 00b6 04       		.uleb128 0x4
 645 00b7 A0020000 		.4byte	.LASF16
 646 00bb 03       		.byte	0x3
 647 00bc 3C       		.byte	0x3c
 648 00bd 49000000 		.4byte	0x49
 649 00c1 04       		.uleb128 0x4
 650 00c2 C7010000 		.4byte	.LASF17
 651 00c6 03       		.byte	0x3
 652 00c7 3D       		.byte	0x3d
 653 00c8 37000000 		.4byte	0x37
 654 00cc 04       		.uleb128 0x4
 655 00cd 79000000 		.4byte	.LASF18
 656 00d1 03       		.byte	0x3
 657 00d2 3E       		.byte	0x3e
 658 00d3 6D000000 		.4byte	0x6d
 659 00d7 04       		.uleb128 0x4
 660 00d8 F9030000 		.4byte	.LASF19
 661 00dc 03       		.byte	0x3
 662 00dd 3F       		.byte	0x3f
 663 00de 5B000000 		.4byte	0x5b
 664 00e2 04       		.uleb128 0x4
 665 00e3 41030000 		.4byte	.LASF20
 666 00e7 03       		.byte	0x3
 667 00e8 40       		.byte	0x40
 668 00e9 86000000 		.4byte	0x86
 669 00ed 06       		.uleb128 0x6
 670 00ee 01       		.byte	0x1
 671 00ef 04       		.byte	0x4
 672 00f0 2B       		.byte	0x2b
 673 00f1 50010000 		.4byte	0x150
 674 00f5 07       		.uleb128 0x7
ARM GAS  /tmp/ccjeJkLZ.s 			page 13


 675 00f6 BD030000 		.4byte	.LASF21
 676 00fa 00       		.sleb128 0
 677 00fb 07       		.uleb128 0x7
 678 00fc 6B030000 		.4byte	.LASF22
 679 0100 01       		.sleb128 1
 680 0101 07       		.uleb128 0x7
 681 0102 93020000 		.4byte	.LASF23
 682 0106 02       		.sleb128 2
 683 0107 07       		.uleb128 0x7
 684 0108 08000000 		.4byte	.LASF24
 685 010c 03       		.sleb128 3
 686 010d 07       		.uleb128 0x7
 687 010e 1D040000 		.4byte	.LASF25
 688 0112 04       		.sleb128 4
 689 0113 07       		.uleb128 0x7
 690 0114 02030000 		.4byte	.LASF26
 691 0118 05       		.sleb128 5
 692 0119 07       		.uleb128 0x7
 693 011a AE030000 		.4byte	.LASF27
 694 011e 06       		.sleb128 6
 695 011f 07       		.uleb128 0x7
 696 0120 66020000 		.4byte	.LASF28
 697 0124 07       		.sleb128 7
 698 0125 07       		.uleb128 0x7
 699 0126 CC010000 		.4byte	.LASF29
 700 012a 08       		.sleb128 8
 701 012b 07       		.uleb128 0x7
 702 012c ED000000 		.4byte	.LASF30
 703 0130 09       		.sleb128 9
 704 0131 07       		.uleb128 0x7
 705 0132 53010000 		.4byte	.LASF31
 706 0136 0A       		.sleb128 10
 707 0137 07       		.uleb128 0x7
 708 0138 5A030000 		.4byte	.LASF32
 709 013c 0B       		.sleb128 11
 710 013d 07       		.uleb128 0x7
 711 013e E5010000 		.4byte	.LASF33
 712 0142 0C       		.sleb128 12
 713 0143 07       		.uleb128 0x7
 714 0144 9D000000 		.4byte	.LASF34
 715 0148 0D       		.sleb128 13
 716 0149 07       		.uleb128 0x7
 717 014a BE010000 		.4byte	.LASF35
 718 014e 0E       		.sleb128 14
 719 014f 00       		.byte	0
 720 0150 04       		.uleb128 0x4
 721 0151 D6040000 		.4byte	.LASF36
 722 0155 04       		.byte	0x4
 723 0156 2F       		.byte	0x2f
 724 0157 ED000000 		.4byte	0xed
 725 015b 08       		.uleb128 0x8
 726 015c EB040000 		.4byte	.LASF37
 727 0160 04       		.byte	0x4
 728 0161 05       		.byte	0x5
 729 0162 2C       		.byte	0x2c
 730 0163 76010000 		.4byte	0x176
 731 0167 09       		.uleb128 0x9
ARM GAS  /tmp/ccjeJkLZ.s 			page 14


 732 0168 40040000 		.4byte	.LASF39
 733 016c 05       		.byte	0x5
 734 016d 2D       		.byte	0x2d
 735 016e E2000000 		.4byte	0xe2
 736 0172 02       		.byte	0x2
 737 0173 23       		.byte	0x23
 738 0174 00       		.uleb128 0
 739 0175 00       		.byte	0
 740 0176 08       		.uleb128 0x8
 741 0177 FD010000 		.4byte	.LASF38
 742 017b 04       		.byte	0x4
 743 017c 05       		.byte	0x5
 744 017d 36       		.byte	0x36
 745 017e 91010000 		.4byte	0x191
 746 0182 09       		.uleb128 0x9
 747 0183 40040000 		.4byte	.LASF39
 748 0187 05       		.byte	0x5
 749 0188 37       		.byte	0x37
 750 0189 E2000000 		.4byte	0xe2
 751 018d 02       		.byte	0x2
 752 018e 23       		.byte	0x23
 753 018f 00       		.uleb128 0
 754 0190 00       		.byte	0
 755 0191 04       		.uleb128 0x4
 756 0192 C3040000 		.4byte	.LASF40
 757 0196 05       		.byte	0x5
 758 0197 40       		.byte	0x40
 759 0198 5B010000 		.4byte	0x15b
 760 019c 04       		.uleb128 0x4
 761 019d 2A040000 		.4byte	.LASF41
 762 01a1 05       		.byte	0x5
 763 01a2 41       		.byte	0x41
 764 01a3 76010000 		.4byte	0x176
 765 01a7 04       		.uleb128 0x4
 766 01a8 63000000 		.4byte	.LASF42
 767 01ac 06       		.byte	0x6
 768 01ad 2F       		.byte	0x2f
 769 01ae C1000000 		.4byte	0xc1
 770 01b2 06       		.uleb128 0x6
 771 01b3 01       		.byte	0x1
 772 01b4 07       		.byte	0x7
 773 01b5 32       		.byte	0x32
 774 01b6 D3010000 		.4byte	0x1d3
 775 01ba 07       		.uleb128 0x7
 776 01bb AC000000 		.4byte	.LASF43
 777 01bf 00       		.sleb128 0
 778 01c0 07       		.uleb128 0x7
 779 01c1 88010000 		.4byte	.LASF44
 780 01c5 01       		.sleb128 1
 781 01c6 07       		.uleb128 0x7
 782 01c7 1B030000 		.4byte	.LASF45
 783 01cb 02       		.sleb128 2
 784 01cc 07       		.uleb128 0x7
 785 01cd 36000000 		.4byte	.LASF46
 786 01d1 03       		.sleb128 3
 787 01d2 00       		.byte	0
 788 01d3 04       		.uleb128 0x4
ARM GAS  /tmp/ccjeJkLZ.s 			page 15


 789 01d4 FF030000 		.4byte	.LASF47
 790 01d8 07       		.byte	0x7
 791 01d9 37       		.byte	0x37
 792 01da B2010000 		.4byte	0x1b2
 793 01de 06       		.uleb128 0x6
 794 01df 01       		.byte	0x1
 795 01e0 07       		.byte	0x7
 796 01e1 39       		.byte	0x39
 797 01e2 FF010000 		.4byte	0x1ff
 798 01e6 07       		.uleb128 0x7
 799 01e7 2D000000 		.4byte	.LASF48
 800 01eb 00       		.sleb128 0
 801 01ec 07       		.uleb128 0x7
 802 01ed DD040000 		.4byte	.LASF49
 803 01f1 01       		.sleb128 1
 804 01f2 07       		.uleb128 0x7
 805 01f3 68010000 		.4byte	.LASF50
 806 01f7 02       		.sleb128 2
 807 01f8 07       		.uleb128 0x7
 808 01f9 A5010000 		.4byte	.LASF51
 809 01fd 03       		.sleb128 3
 810 01fe 00       		.byte	0
 811 01ff 04       		.uleb128 0x4
 812 0200 3F000000 		.4byte	.LASF52
 813 0204 07       		.byte	0x7
 814 0205 3E       		.byte	0x3e
 815 0206 DE010000 		.4byte	0x1de
 816 020a 08       		.uleb128 0x8
 817 020b 97010000 		.4byte	.LASF53
 818 020f 10       		.byte	0x10
 819 0210 07       		.byte	0x7
 820 0211 49       		.byte	0x49
 821 0212 79020000 		.4byte	0x279
 822 0216 09       		.uleb128 0x9
 823 0217 5E000000 		.4byte	.LASF54
 824 021b 07       		.byte	0x7
 825 021c 4B       		.byte	0x4b
 826 021d 79020000 		.4byte	0x279
 827 0221 02       		.byte	0x2
 828 0222 23       		.byte	0x23
 829 0223 00       		.uleb128 0
 830 0224 09       		.uleb128 0x9
 831 0225 80010000 		.4byte	.LASF55
 832 0229 07       		.byte	0x7
 833 022a 4E       		.byte	0x4e
 834 022b A6000000 		.4byte	0xa6
 835 022f 02       		.byte	0x2
 836 0230 23       		.byte	0x23
 837 0231 04       		.uleb128 0x4
 838 0232 09       		.uleb128 0x9
 839 0233 71010000 		.4byte	.LASF56
 840 0237 07       		.byte	0x7
 841 0238 57       		.byte	0x57
 842 0239 CC000000 		.4byte	0xcc
 843 023d 02       		.byte	0x2
 844 023e 23       		.byte	0x23
 845 023f 08       		.uleb128 0x8
ARM GAS  /tmp/ccjeJkLZ.s 			page 16


 846 0240 0A       		.uleb128 0xa
 847 0241 6C656E00 		.ascii	"len\000"
 848 0245 07       		.byte	0x7
 849 0246 5A       		.byte	0x5a
 850 0247 CC000000 		.4byte	0xcc
 851 024b 02       		.byte	0x2
 852 024c 23       		.byte	0x23
 853 024d 0A       		.uleb128 0xa
 854 024e 09       		.uleb128 0x9
 855 024f 0A040000 		.4byte	.LASF57
 856 0253 07       		.byte	0x7
 857 0254 5D       		.byte	0x5d
 858 0255 B6000000 		.4byte	0xb6
 859 0259 02       		.byte	0x2
 860 025a 23       		.byte	0x23
 861 025b 0C       		.uleb128 0xc
 862 025c 09       		.uleb128 0x9
 863 025d AF010000 		.4byte	.LASF58
 864 0261 07       		.byte	0x7
 865 0262 60       		.byte	0x60
 866 0263 B6000000 		.4byte	0xb6
 867 0267 02       		.byte	0x2
 868 0268 23       		.byte	0x23
 869 0269 0D       		.uleb128 0xd
 870 026a 0A       		.uleb128 0xa
 871 026b 72656600 		.ascii	"ref\000"
 872 026f 07       		.byte	0x7
 873 0270 67       		.byte	0x67
 874 0271 CC000000 		.4byte	0xcc
 875 0275 02       		.byte	0x2
 876 0276 23       		.byte	0x23
 877 0277 0E       		.uleb128 0xe
 878 0278 00       		.byte	0
 879 0279 0B       		.uleb128 0xb
 880 027a 04       		.byte	0x4
 881 027b 0A020000 		.4byte	0x20a
 882 027f 0B       		.uleb128 0xb
 883 0280 04       		.byte	0x4
 884 0281 85020000 		.4byte	0x285
 885 0285 08       		.uleb128 0x8
 886 0286 62040000 		.4byte	.LASF59
 887 028a 30       		.byte	0x30
 888 028b 08       		.byte	0x8
 889 028c 88       		.byte	0x88
 890 028d 55030000 		.4byte	0x355
 891 0291 09       		.uleb128 0x9
 892 0292 5E000000 		.4byte	.LASF54
 893 0296 08       		.byte	0x8
 894 0297 8A       		.byte	0x8a
 895 0298 7F020000 		.4byte	0x27f
 896 029c 02       		.byte	0x2
 897 029d 23       		.byte	0x23
 898 029e 00       		.uleb128 0
 899 029f 09       		.uleb128 0x9
 900 02a0 EB040000 		.4byte	.LASF37
 901 02a4 08       		.byte	0x8
 902 02a5 8D       		.byte	0x8d
ARM GAS  /tmp/ccjeJkLZ.s 			page 17


 903 02a6 91010000 		.4byte	0x191
 904 02aa 02       		.byte	0x2
 905 02ab 23       		.byte	0x23
 906 02ac 04       		.uleb128 0x4
 907 02ad 09       		.uleb128 0x9
 908 02ae 72020000 		.4byte	.LASF60
 909 02b2 08       		.byte	0x8
 910 02b3 8E       		.byte	0x8e
 911 02b4 91010000 		.4byte	0x191
 912 02b8 02       		.byte	0x2
 913 02b9 23       		.byte	0x23
 914 02ba 08       		.uleb128 0x8
 915 02bb 0A       		.uleb128 0xa
 916 02bc 677700   		.ascii	"gw\000"
 917 02bf 08       		.byte	0x8
 918 02c0 8F       		.byte	0x8f
 919 02c1 91010000 		.4byte	0x191
 920 02c5 02       		.byte	0x2
 921 02c6 23       		.byte	0x23
 922 02c7 0C       		.uleb128 0xc
 923 02c8 09       		.uleb128 0x9
 924 02c9 27000000 		.4byte	.LASF61
 925 02cd 08       		.byte	0x8
 926 02ce 93       		.byte	0x93
 927 02cf 55030000 		.4byte	0x355
 928 02d3 02       		.byte	0x2
 929 02d4 23       		.byte	0x23
 930 02d5 10       		.uleb128 0x10
 931 02d6 09       		.uleb128 0x9
 932 02d7 90010000 		.4byte	.LASF62
 933 02db 08       		.byte	0x8
 934 02dc 97       		.byte	0x97
 935 02dd 7B030000 		.4byte	0x37b
 936 02e1 02       		.byte	0x2
 937 02e2 23       		.byte	0x23
 938 02e3 14       		.uleb128 0x14
 939 02e4 09       		.uleb128 0x9
 940 02e5 69000000 		.4byte	.LASF63
 941 02e9 08       		.byte	0x8
 942 02ea 9B       		.byte	0x9b
 943 02eb AC030000 		.4byte	0x3ac
 944 02ef 02       		.byte	0x2
 945 02f0 23       		.byte	0x23
 946 02f1 18       		.uleb128 0x18
 947 02f2 09       		.uleb128 0x9
 948 02f3 51040000 		.4byte	.LASF64
 949 02f7 08       		.byte	0x8
 950 02f8 A8       		.byte	0xa8
 951 02f9 A6000000 		.4byte	0xa6
 952 02fd 02       		.byte	0x2
 953 02fe 23       		.byte	0x23
 954 02ff 1C       		.uleb128 0x1c
 955 0300 0A       		.uleb128 0xa
 956 0301 6D747500 		.ascii	"mtu\000"
 957 0305 08       		.byte	0x8
 958 0306 B6       		.byte	0xb6
 959 0307 CC000000 		.4byte	0xcc
ARM GAS  /tmp/ccjeJkLZ.s 			page 18


 960 030b 02       		.byte	0x2
 961 030c 23       		.byte	0x23
 962 030d 20       		.uleb128 0x20
 963 030e 09       		.uleb128 0x9
 964 030f 40010000 		.4byte	.LASF65
 965 0313 08       		.byte	0x8
 966 0314 B8       		.byte	0xb8
 967 0315 B6000000 		.4byte	0xb6
 968 0319 02       		.byte	0x2
 969 031a 23       		.byte	0x23
 970 031b 22       		.uleb128 0x22
 971 031c 09       		.uleb128 0x9
 972 031d 08010000 		.4byte	.LASF66
 973 0321 08       		.byte	0x8
 974 0322 BA       		.byte	0xba
 975 0323 D2030000 		.4byte	0x3d2
 976 0327 02       		.byte	0x2
 977 0328 23       		.byte	0x23
 978 0329 23       		.uleb128 0x23
 979 032a 09       		.uleb128 0x9
 980 032b AF010000 		.4byte	.LASF58
 981 032f 08       		.byte	0x8
 982 0330 BC       		.byte	0xbc
 983 0331 B6000000 		.4byte	0xb6
 984 0335 02       		.byte	0x2
 985 0336 23       		.byte	0x23
 986 0337 29       		.uleb128 0x29
 987 0338 09       		.uleb128 0x9
 988 0339 95030000 		.4byte	.LASF67
 989 033d 08       		.byte	0x8
 990 033e BE       		.byte	0xbe
 991 033f E2030000 		.4byte	0x3e2
 992 0343 02       		.byte	0x2
 993 0344 23       		.byte	0x23
 994 0345 2A       		.uleb128 0x2a
 995 0346 0A       		.uleb128 0xa
 996 0347 6E756D00 		.ascii	"num\000"
 997 034b 08       		.byte	0x8
 998 034c C0       		.byte	0xc0
 999 034d B6000000 		.4byte	0xb6
 1000 0351 02       		.byte	0x2
 1001 0352 23       		.byte	0x23
 1002 0353 2C       		.uleb128 0x2c
 1003 0354 00       		.byte	0
 1004 0355 04       		.uleb128 0x4
 1005 0356 C2000000 		.4byte	.LASF68
 1006 035a 08       		.byte	0x8
 1007 035b 6D       		.byte	0x6d
 1008 035c 60030000 		.4byte	0x360
 1009 0360 0B       		.uleb128 0xb
 1010 0361 04       		.byte	0x4
 1011 0362 66030000 		.4byte	0x366
 1012 0366 0C       		.uleb128 0xc
 1013 0367 01       		.byte	0x1
 1014 0368 A7010000 		.4byte	0x1a7
 1015 036c 7B030000 		.4byte	0x37b
 1016 0370 0D       		.uleb128 0xd
ARM GAS  /tmp/ccjeJkLZ.s 			page 19


 1017 0371 79020000 		.4byte	0x279
 1018 0375 0D       		.uleb128 0xd
 1019 0376 7F020000 		.4byte	0x27f
 1020 037a 00       		.byte	0
 1021 037b 04       		.uleb128 0x4
 1022 037c 8D000000 		.4byte	.LASF69
 1023 0380 08       		.byte	0x8
 1024 0381 76       		.byte	0x76
 1025 0382 86030000 		.4byte	0x386
 1026 0386 0B       		.uleb128 0xb
 1027 0387 04       		.byte	0x4
 1028 0388 8C030000 		.4byte	0x38c
 1029 038c 0C       		.uleb128 0xc
 1030 038d 01       		.byte	0x1
 1031 038e A7010000 		.4byte	0x1a7
 1032 0392 A6030000 		.4byte	0x3a6
 1033 0396 0D       		.uleb128 0xd
 1034 0397 7F020000 		.4byte	0x27f
 1035 039b 0D       		.uleb128 0xd
 1036 039c 79020000 		.4byte	0x279
 1037 03a0 0D       		.uleb128 0xd
 1038 03a1 A6030000 		.4byte	0x3a6
 1039 03a5 00       		.byte	0
 1040 03a6 0B       		.uleb128 0xb
 1041 03a7 04       		.byte	0x4
 1042 03a8 91010000 		.4byte	0x191
 1043 03ac 04       		.uleb128 0x4
 1044 03ad 9A030000 		.4byte	.LASF70
 1045 03b1 08       		.byte	0x8
 1046 03b2 7E       		.byte	0x7e
 1047 03b3 B7030000 		.4byte	0x3b7
 1048 03b7 0B       		.uleb128 0xb
 1049 03b8 04       		.byte	0x4
 1050 03b9 BD030000 		.4byte	0x3bd
 1051 03bd 0C       		.uleb128 0xc
 1052 03be 01       		.byte	0x1
 1053 03bf A7010000 		.4byte	0x1a7
 1054 03c3 D2030000 		.4byte	0x3d2
 1055 03c7 0D       		.uleb128 0xd
 1056 03c8 7F020000 		.4byte	0x27f
 1057 03cc 0D       		.uleb128 0xd
 1058 03cd 79020000 		.4byte	0x279
 1059 03d1 00       		.byte	0
 1060 03d2 0E       		.uleb128 0xe
 1061 03d3 B6000000 		.4byte	0xb6
 1062 03d7 E2030000 		.4byte	0x3e2
 1063 03db 0F       		.uleb128 0xf
 1064 03dc A8000000 		.4byte	0xa8
 1065 03e0 05       		.byte	0x5
 1066 03e1 00       		.byte	0
 1067 03e2 0E       		.uleb128 0xe
 1068 03e3 AF000000 		.4byte	0xaf
 1069 03e7 F2030000 		.4byte	0x3f2
 1070 03eb 0F       		.uleb128 0xf
 1071 03ec A8000000 		.4byte	0xa8
 1072 03f0 01       		.byte	0x1
 1073 03f1 00       		.byte	0
ARM GAS  /tmp/ccjeJkLZ.s 			page 20


 1074 03f2 08       		.uleb128 0x8
 1075 03f3 8E030000 		.4byte	.LASF71
 1076 03f7 14       		.byte	0x14
 1077 03f8 09       		.byte	0x9
 1078 03f9 74       		.byte	0x74
 1079 03fa 7D040000 		.4byte	0x47d
 1080 03fe 09       		.uleb128 0x9
 1081 03ff 37030000 		.4byte	.LASF72
 1082 0403 09       		.byte	0x9
 1083 0404 76       		.byte	0x76
 1084 0405 CC000000 		.4byte	0xcc
 1085 0409 02       		.byte	0x2
 1086 040a 23       		.byte	0x23
 1087 040b 00       		.uleb128 0
 1088 040c 09       		.uleb128 0x9
 1089 040d BE040000 		.4byte	.LASF73
 1090 0411 09       		.byte	0x9
 1091 0412 78       		.byte	0x78
 1092 0413 CC000000 		.4byte	0xcc
 1093 0417 02       		.byte	0x2
 1094 0418 23       		.byte	0x23
 1095 0419 02       		.uleb128 0x2
 1096 041a 0A       		.uleb128 0xa
 1097 041b 5F696400 		.ascii	"_id\000"
 1098 041f 09       		.byte	0x9
 1099 0420 7A       		.byte	0x7a
 1100 0421 CC000000 		.4byte	0xcc
 1101 0425 02       		.byte	0x2
 1102 0426 23       		.byte	0x23
 1103 0427 04       		.uleb128 0x4
 1104 0428 09       		.uleb128 0x9
 1105 0429 4B010000 		.4byte	.LASF74
 1106 042d 09       		.byte	0x9
 1107 042e 7C       		.byte	0x7c
 1108 042f CC000000 		.4byte	0xcc
 1109 0433 02       		.byte	0x2
 1110 0434 23       		.byte	0x23
 1111 0435 06       		.uleb128 0x6
 1112 0436 09       		.uleb128 0x9
 1113 0437 7F000000 		.4byte	.LASF75
 1114 043b 09       		.byte	0x9
 1115 043c 82       		.byte	0x82
 1116 043d B6000000 		.4byte	0xb6
 1117 0441 02       		.byte	0x2
 1118 0442 23       		.byte	0x23
 1119 0443 08       		.uleb128 0x8
 1120 0444 09       		.uleb128 0x9
 1121 0445 3E020000 		.4byte	.LASF76
 1122 0449 09       		.byte	0x9
 1123 044a 84       		.byte	0x84
 1124 044b B6000000 		.4byte	0xb6
 1125 044f 02       		.byte	0x2
 1126 0450 23       		.byte	0x23
 1127 0451 09       		.uleb128 0x9
 1128 0452 09       		.uleb128 0x9
 1129 0453 38010000 		.4byte	.LASF77
 1130 0457 09       		.byte	0x9
ARM GAS  /tmp/ccjeJkLZ.s 			page 21


 1131 0458 86       		.byte	0x86
 1132 0459 CC000000 		.4byte	0xcc
 1133 045d 02       		.byte	0x2
 1134 045e 23       		.byte	0x23
 1135 045f 0A       		.uleb128 0xa
 1136 0460 0A       		.uleb128 0xa
 1137 0461 73726300 		.ascii	"src\000"
 1138 0465 09       		.byte	0x9
 1139 0466 88       		.byte	0x88
 1140 0467 9C010000 		.4byte	0x19c
 1141 046b 02       		.byte	0x2
 1142 046c 23       		.byte	0x23
 1143 046d 0C       		.uleb128 0xc
 1144 046e 09       		.uleb128 0x9
 1145 046f E6040000 		.4byte	.LASF78
 1146 0473 09       		.byte	0x9
 1147 0474 89       		.byte	0x89
 1148 0475 9C010000 		.4byte	0x19c
 1149 0479 02       		.byte	0x2
 1150 047a 23       		.byte	0x23
 1151 047b 10       		.uleb128 0x10
 1152 047c 00       		.byte	0
 1153 047d 04       		.uleb128 0x4
 1154 047e A5020000 		.4byte	.LASF79
 1155 0482 0A       		.byte	0xa
 1156 0483 3C       		.byte	0x3c
 1157 0484 88040000 		.4byte	0x488
 1158 0488 0B       		.uleb128 0xb
 1159 0489 04       		.byte	0x4
 1160 048a 8E040000 		.4byte	0x48e
 1161 048e 0C       		.uleb128 0xc
 1162 048f 01       		.byte	0x1
 1163 0490 B6000000 		.4byte	0xb6
 1164 0494 AD040000 		.4byte	0x4ad
 1165 0498 0D       		.uleb128 0xd
 1166 0499 A6000000 		.4byte	0xa6
 1167 049d 0D       		.uleb128 0xd
 1168 049e AD040000 		.4byte	0x4ad
 1169 04a2 0D       		.uleb128 0xd
 1170 04a3 79020000 		.4byte	0x279
 1171 04a7 0D       		.uleb128 0xd
 1172 04a8 A6030000 		.4byte	0x3a6
 1173 04ac 00       		.byte	0
 1174 04ad 0B       		.uleb128 0xb
 1175 04ae 04       		.byte	0x4
 1176 04af B3040000 		.4byte	0x4b3
 1177 04b3 08       		.uleb128 0x8
 1178 04b4 49000000 		.4byte	.LASF80
 1179 04b8 1C       		.byte	0x1c
 1180 04b9 0A       		.byte	0xa
 1181 04ba 3F       		.byte	0x3f
 1182 04bb 3E050000 		.4byte	0x53e
 1183 04bf 09       		.uleb128 0x9
 1184 04c0 78030000 		.4byte	.LASF81
 1185 04c4 0A       		.byte	0xa
 1186 04c5 41       		.byte	0x41
 1187 04c6 91010000 		.4byte	0x191
ARM GAS  /tmp/ccjeJkLZ.s 			page 22


 1188 04ca 02       		.byte	0x2
 1189 04cb 23       		.byte	0x23
 1190 04cc 00       		.uleb128 0
 1191 04cd 09       		.uleb128 0x9
 1192 04ce B4040000 		.4byte	.LASF82
 1193 04d2 0A       		.byte	0xa
 1194 04d3 41       		.byte	0x41
 1195 04d4 91010000 		.4byte	0x191
 1196 04d8 02       		.byte	0x2
 1197 04d9 23       		.byte	0x23
 1198 04da 04       		.uleb128 0x4
 1199 04db 09       		.uleb128 0x9
 1200 04dc 1C000000 		.4byte	.LASF83
 1201 04e0 0A       		.byte	0xa
 1202 04e1 41       		.byte	0x41
 1203 04e2 B6000000 		.4byte	0xb6
 1204 04e6 02       		.byte	0x2
 1205 04e7 23       		.byte	0x23
 1206 04e8 08       		.uleb128 0x8
 1207 04e9 0A       		.uleb128 0xa
 1208 04ea 746F7300 		.ascii	"tos\000"
 1209 04ee 0A       		.byte	0xa
 1210 04ef 41       		.byte	0x41
 1211 04f0 B6000000 		.4byte	0xb6
 1212 04f4 02       		.byte	0x2
 1213 04f5 23       		.byte	0x23
 1214 04f6 09       		.uleb128 0x9
 1215 04f7 0A       		.uleb128 0xa
 1216 04f8 74746C00 		.ascii	"ttl\000"
 1217 04fc 0A       		.byte	0xa
 1218 04fd 41       		.byte	0x41
 1219 04fe B6000000 		.4byte	0xb6
 1220 0502 02       		.byte	0x2
 1221 0503 23       		.byte	0x23
 1222 0504 0A       		.uleb128 0xa
 1223 0505 09       		.uleb128 0x9
 1224 0506 5E000000 		.4byte	.LASF54
 1225 050a 0A       		.byte	0xa
 1226 050b 43       		.byte	0x43
 1227 050c AD040000 		.4byte	0x4ad
 1228 0510 02       		.byte	0x2
 1229 0511 23       		.byte	0x23
 1230 0512 0C       		.uleb128 0xc
 1231 0513 09       		.uleb128 0x9
 1232 0514 84000000 		.4byte	.LASF84
 1233 0518 0A       		.byte	0xa
 1234 0519 45       		.byte	0x45
 1235 051a B6000000 		.4byte	0xb6
 1236 051e 02       		.byte	0x2
 1237 051f 23       		.byte	0x23
 1238 0520 10       		.uleb128 0x10
 1239 0521 09       		.uleb128 0x9
 1240 0522 78040000 		.4byte	.LASF85
 1241 0526 0A       		.byte	0xa
 1242 0527 48       		.byte	0x48
 1243 0528 7D040000 		.4byte	0x47d
 1244 052c 02       		.byte	0x2
ARM GAS  /tmp/ccjeJkLZ.s 			page 23


 1245 052d 23       		.byte	0x23
 1246 052e 14       		.uleb128 0x14
 1247 052f 09       		.uleb128 0x9
 1248 0530 CA030000 		.4byte	.LASF86
 1249 0534 0A       		.byte	0xa
 1250 0535 4A       		.byte	0x4a
 1251 0536 A6000000 		.4byte	0xa6
 1252 053a 02       		.byte	0x2
 1253 053b 23       		.byte	0x23
 1254 053c 18       		.uleb128 0x18
 1255 053d 00       		.byte	0
 1256 053e 10       		.uleb128 0x10
 1257 053f 01       		.byte	0x1
 1258 0540 11030000 		.4byte	.LASF91
 1259 0544 01       		.byte	0x1
 1260 0545 4C       		.byte	0x4c
 1261 0546 01       		.byte	0x1
 1262 0547 B6000000 		.4byte	0xb6
 1263 054b 00000000 		.4byte	.LFB7
 1264 054f 78000000 		.4byte	.LFE7
 1265 0553 00000000 		.4byte	.LLST0
 1266 0557 01       		.byte	0x1
 1267 0558 C7050000 		.4byte	0x5c7
 1268 055c 11       		.uleb128 0x11
 1269 055d 7000     		.ascii	"p\000"
 1270 055f 01       		.byte	0x1
 1271 0560 4C       		.byte	0x4c
 1272 0561 79020000 		.4byte	0x279
 1273 0565 20000000 		.4byte	.LLST1
 1274 0569 11       		.uleb128 0x11
 1275 056a 696E7000 		.ascii	"inp\000"
 1276 056e 01       		.byte	0x1
 1277 056f 4C       		.byte	0x4c
 1278 0570 7F020000 		.4byte	0x27f
 1279 0574 3F000000 		.4byte	.LLST2
 1280 0578 12       		.uleb128 0x12
 1281 0579 70636200 		.ascii	"pcb\000"
 1282 057d 01       		.byte	0x1
 1283 057e 4E       		.byte	0x4e
 1284 057f AD040000 		.4byte	0x4ad
 1285 0583 60000000 		.4byte	.LLST3
 1286 0587 13       		.uleb128 0x13
 1287 0588 74000000 		.4byte	.LASF87
 1288 058c 01       		.byte	0x1
 1289 058d 4E       		.byte	0x4e
 1290 058e AD040000 		.4byte	0x4ad
 1291 0592 89000000 		.4byte	.LLST4
 1292 0596 13       		.uleb128 0x13
 1293 0597 68040000 		.4byte	.LASF88
 1294 059b 01       		.byte	0x1
 1295 059c 4F       		.byte	0x4f
 1296 059d C7050000 		.4byte	0x5c7
 1297 05a1 A8000000 		.4byte	.LLST5
 1298 05a5 14       		.uleb128 0x14
 1299 05a6 0C020000 		.4byte	.LASF89
 1300 05aa 01       		.byte	0x1
 1301 05ab 50       		.byte	0x50
ARM GAS  /tmp/ccjeJkLZ.s 			page 24


 1302 05ac D7000000 		.4byte	0xd7
 1303 05b0 06       		.byte	0x6
 1304 05b1 76       		.byte	0x76
 1305 05b2 00       		.sleb128 0
 1306 05b3 08       		.byte	0x8
 1307 05b4 FF       		.byte	0xff
 1308 05b5 1A       		.byte	0x1a
 1309 05b6 9F       		.byte	0x9f
 1310 05b7 13       		.uleb128 0x13
 1311 05b8 1A020000 		.4byte	.LASF90
 1312 05bc 01       		.byte	0x1
 1313 05bd 51       		.byte	0x51
 1314 05be B6000000 		.4byte	0xb6
 1315 05c2 BB000000 		.4byte	.LLST6
 1316 05c6 00       		.byte	0
 1317 05c7 0B       		.uleb128 0xb
 1318 05c8 04       		.byte	0x4
 1319 05c9 F2030000 		.4byte	0x3f2
 1320 05cd 15       		.uleb128 0x15
 1321 05ce 01       		.byte	0x1
 1322 05cf F4010000 		.4byte	.LASF92
 1323 05d3 01       		.byte	0x1
 1324 05d4 8E       		.byte	0x8e
 1325 05d5 01       		.byte	0x1
 1326 05d6 A7010000 		.4byte	0x1a7
 1327 05da 00000000 		.4byte	.LFB8
 1328 05de 0A000000 		.4byte	.LFE8
 1329 05e2 02       		.byte	0x2
 1330 05e3 7D       		.byte	0x7d
 1331 05e4 00       		.sleb128 0
 1332 05e5 01       		.byte	0x1
 1333 05e6 09060000 		.4byte	0x609
 1334 05ea 11       		.uleb128 0x11
 1335 05eb 70636200 		.ascii	"pcb\000"
 1336 05ef 01       		.byte	0x1
 1337 05f0 8E       		.byte	0x8e
 1338 05f1 AD040000 		.4byte	0x4ad
 1339 05f5 E7000000 		.4byte	.LLST7
 1340 05f9 16       		.uleb128 0x16
 1341 05fa 79010000 		.4byte	.LASF93
 1342 05fe 01       		.byte	0x1
 1343 05ff 8E       		.byte	0x8e
 1344 0600 A6030000 		.4byte	0x3a6
 1345 0604 08010000 		.4byte	.LLST8
 1346 0608 00       		.byte	0
 1347 0609 15       		.uleb128 0x15
 1348 060a 01       		.byte	0x1
 1349 060b 45040000 		.4byte	.LASF94
 1350 060f 01       		.byte	0x1
 1351 0610 A2       		.byte	0xa2
 1352 0611 01       		.byte	0x1
 1353 0612 A7010000 		.4byte	0x1a7
 1354 0616 00000000 		.4byte	.LFB9
 1355 061a 0A000000 		.4byte	.LFE9
 1356 061e 02       		.byte	0x2
 1357 061f 7D       		.byte	0x7d
 1358 0620 00       		.sleb128 0
ARM GAS  /tmp/ccjeJkLZ.s 			page 25


 1359 0621 01       		.byte	0x1
 1360 0622 45060000 		.4byte	0x645
 1361 0626 11       		.uleb128 0x11
 1362 0627 70636200 		.ascii	"pcb\000"
 1363 062b 01       		.byte	0x1
 1364 062c A2       		.byte	0xa2
 1365 062d AD040000 		.4byte	0x4ad
 1366 0631 29010000 		.4byte	.LLST9
 1367 0635 16       		.uleb128 0x16
 1368 0636 79010000 		.4byte	.LASF93
 1369 063a 01       		.byte	0x1
 1370 063b A2       		.byte	0xa2
 1371 063c A6030000 		.4byte	0x3a6
 1372 0640 4A010000 		.4byte	.LLST10
 1373 0644 00       		.byte	0
 1374 0645 17       		.uleb128 0x17
 1375 0646 01       		.byte	0x1
 1376 0647 B5010000 		.4byte	.LASF98
 1377 064b 01       		.byte	0x1
 1378 064c B7       		.byte	0xb7
 1379 064d 01       		.byte	0x1
 1380 064e 00000000 		.4byte	.LFB10
 1381 0652 06000000 		.4byte	.LFE10
 1382 0656 02       		.byte	0x2
 1383 0657 7D       		.byte	0x7d
 1384 0658 00       		.sleb128 0
 1385 0659 01       		.byte	0x1
 1386 065a 86060000 		.4byte	0x686
 1387 065e 18       		.uleb128 0x18
 1388 065f 70636200 		.ascii	"pcb\000"
 1389 0663 01       		.byte	0x1
 1390 0664 B7       		.byte	0xb7
 1391 0665 AD040000 		.4byte	0x4ad
 1392 0669 01       		.byte	0x1
 1393 066a 50       		.byte	0x50
 1394 066b 19       		.uleb128 0x19
 1395 066c 78040000 		.4byte	.LASF85
 1396 0670 01       		.byte	0x1
 1397 0671 B7       		.byte	0xb7
 1398 0672 7D040000 		.4byte	0x47d
 1399 0676 01       		.byte	0x1
 1400 0677 51       		.byte	0x51
 1401 0678 19       		.uleb128 0x19
 1402 0679 CA030000 		.4byte	.LASF86
 1403 067d 01       		.byte	0x1
 1404 067e B7       		.byte	0xb7
 1405 067f A6000000 		.4byte	0xa6
 1406 0683 01       		.byte	0x1
 1407 0684 52       		.byte	0x52
 1408 0685 00       		.byte	0
 1409 0686 1A       		.uleb128 0x1a
 1410 0687 01       		.byte	0x1
 1411 0688 88020000 		.4byte	.LASF95
 1412 068c 01       		.byte	0x1
 1413 068d CB       		.byte	0xcb
 1414 068e 01       		.byte	0x1
 1415 068f A7010000 		.4byte	0x1a7
ARM GAS  /tmp/ccjeJkLZ.s 			page 26


 1416 0693 00000000 		.4byte	.LFB11
 1417 0697 AA000000 		.4byte	.LFE11
 1418 069b 6B010000 		.4byte	.LLST11
 1419 069f 01       		.byte	0x1
 1420 06a0 E8070000 		.4byte	0x7e8
 1421 06a4 11       		.uleb128 0x11
 1422 06a5 70636200 		.ascii	"pcb\000"
 1423 06a9 01       		.byte	0x1
 1424 06aa CB       		.byte	0xcb
 1425 06ab AD040000 		.4byte	0x4ad
 1426 06af 97010000 		.4byte	.LLST12
 1427 06b3 11       		.uleb128 0x11
 1428 06b4 7000     		.ascii	"p\000"
 1429 06b6 01       		.byte	0x1
 1430 06b7 CB       		.byte	0xcb
 1431 06b8 79020000 		.4byte	0x279
 1432 06bc 3A020000 		.4byte	.LLST13
 1433 06c0 16       		.uleb128 0x16
 1434 06c1 79010000 		.4byte	.LASF93
 1435 06c5 01       		.byte	0x1
 1436 06c6 CB       		.byte	0xcb
 1437 06c7 A6030000 		.4byte	0x3a6
 1438 06cb 58020000 		.4byte	.LLST14
 1439 06cf 12       		.uleb128 0x12
 1440 06d0 65727200 		.ascii	"err\000"
 1441 06d4 01       		.byte	0x1
 1442 06d5 CD       		.byte	0xcd
 1443 06d6 A7010000 		.4byte	0x1a7
 1444 06da 76020000 		.4byte	.LLST15
 1445 06de 13       		.uleb128 0x13
 1446 06df 62040000 		.4byte	.LASF59
 1447 06e3 01       		.byte	0x1
 1448 06e4 CE       		.byte	0xce
 1449 06e5 7F020000 		.4byte	0x27f
 1450 06e9 94020000 		.4byte	.LLST16
 1451 06ed 13       		.uleb128 0x13
 1452 06ee BB000000 		.4byte	.LASF96
 1453 06f2 01       		.byte	0x1
 1454 06f3 CF       		.byte	0xcf
 1455 06f4 A6030000 		.4byte	0x3a6
 1456 06f8 C8020000 		.4byte	.LLST17
 1457 06fc 12       		.uleb128 0x12
 1458 06fd 7100     		.ascii	"q\000"
 1459 06ff 01       		.byte	0x1
 1460 0700 D0       		.byte	0xd0
 1461 0701 79020000 		.4byte	0x279
 1462 0705 E6020000 		.4byte	.LLST18
 1463 0709 1B       		.uleb128 0x1b
 1464 070a 14000000 		.4byte	.LVL19
 1465 070e 2A090000 		.4byte	0x92a
 1466 0712 22070000 		.4byte	0x722
 1467 0716 1C       		.uleb128 0x1c
 1468 0717 01       		.byte	0x1
 1469 0718 51       		.byte	0x51
 1470 0719 01       		.byte	0x1
 1471 071a 44       		.byte	0x44
 1472 071b 1C       		.uleb128 0x1c
ARM GAS  /tmp/ccjeJkLZ.s 			page 27


 1473 071c 01       		.byte	0x1
 1474 071d 50       		.byte	0x50
 1475 071e 02       		.byte	0x2
 1476 071f 75       		.byte	0x75
 1477 0720 00       		.sleb128 0
 1478 0721 00       		.byte	0
 1479 0722 1B       		.uleb128 0x1b
 1480 0723 22000000 		.4byte	.LVL20
 1481 0727 47090000 		.4byte	0x947
 1482 072b 3F070000 		.4byte	0x73f
 1483 072f 1C       		.uleb128 0x1c
 1484 0730 01       		.byte	0x1
 1485 0731 52       		.byte	0x52
 1486 0732 01       		.byte	0x1
 1487 0733 30       		.byte	0x30
 1488 0734 1C       		.uleb128 0x1c
 1489 0735 01       		.byte	0x1
 1490 0736 51       		.byte	0x51
 1491 0737 01       		.byte	0x1
 1492 0738 30       		.byte	0x30
 1493 0739 1C       		.uleb128 0x1c
 1494 073a 01       		.byte	0x1
 1495 073b 50       		.byte	0x50
 1496 073c 01       		.byte	0x1
 1497 073d 31       		.byte	0x31
 1498 073e 00       		.byte	0
 1499 073f 1B       		.uleb128 0x1b
 1500 0740 34000000 		.4byte	.LVL22
 1501 0744 69090000 		.4byte	0x969
 1502 0748 53070000 		.4byte	0x753
 1503 074c 1C       		.uleb128 0x1c
 1504 074d 01       		.byte	0x1
 1505 074e 50       		.byte	0x50
 1506 074f 02       		.byte	0x2
 1507 0750 78       		.byte	0x78
 1508 0751 00       		.sleb128 0
 1509 0752 00       		.byte	0
 1510 0753 1B       		.uleb128 0x1b
 1511 0754 56000000 		.4byte	.LVL26
 1512 0758 81090000 		.4byte	0x981
 1513 075c 74070000 		.4byte	0x774
 1514 0760 1C       		.uleb128 0x1c
 1515 0761 01       		.byte	0x1
 1516 0762 52       		.byte	0x52
 1517 0763 02       		.byte	0x2
 1518 0764 78       		.byte	0x78
 1519 0765 00       		.sleb128 0
 1520 0766 1C       		.uleb128 0x1c
 1521 0767 01       		.byte	0x1
 1522 0768 50       		.byte	0x50
 1523 0769 02       		.byte	0x2
 1524 076a 77       		.byte	0x77
 1525 076b 00       		.sleb128 0
 1526 076c 1C       		.uleb128 0x1c
 1527 076d 02       		.byte	0x2
 1528 076e 7D       		.byte	0x7d
 1529 076f 08       		.sleb128 8
ARM GAS  /tmp/ccjeJkLZ.s 			page 28


 1530 0770 02       		.byte	0x2
 1531 0771 76       		.byte	0x76
 1532 0772 00       		.sleb128 0
 1533 0773 00       		.byte	0
 1534 0774 1B       		.uleb128 0x1b
 1535 0775 62000000 		.4byte	.LVL29
 1536 0779 B7090000 		.4byte	0x9b7
 1537 077d 88070000 		.4byte	0x788
 1538 0781 1C       		.uleb128 0x1c
 1539 0782 01       		.byte	0x1
 1540 0783 50       		.byte	0x50
 1541 0784 02       		.byte	0x2
 1542 0785 77       		.byte	0x77
 1543 0786 00       		.sleb128 0
 1544 0787 00       		.byte	0
 1545 0788 1B       		.uleb128 0x1b
 1546 0789 74000000 		.4byte	.LVL31
 1547 078d 2A090000 		.4byte	0x92a
 1548 0791 A2070000 		.4byte	0x7a2
 1549 0795 1C       		.uleb128 0x1c
 1550 0796 01       		.byte	0x1
 1551 0797 51       		.byte	0x51
 1552 0798 02       		.byte	0x2
 1553 0799 09       		.byte	0x9
 1554 079a EC       		.byte	0xec
 1555 079b 1C       		.uleb128 0x1c
 1556 079c 01       		.byte	0x1
 1557 079d 50       		.byte	0x50
 1558 079e 02       		.byte	0x2
 1559 079f 75       		.byte	0x75
 1560 07a0 00       		.sleb128 0
 1561 07a1 00       		.byte	0
 1562 07a2 1B       		.uleb128 0x1b
 1563 07a3 7C000000 		.4byte	.LVL32
 1564 07a7 69090000 		.4byte	0x969
 1565 07ab B6070000 		.4byte	0x7b6
 1566 07af 1C       		.uleb128 0x1c
 1567 07b0 01       		.byte	0x1
 1568 07b1 50       		.byte	0x50
 1569 07b2 02       		.byte	0x2
 1570 07b3 78       		.byte	0x78
 1571 07b4 00       		.sleb128 0
 1572 07b5 00       		.byte	0
 1573 07b6 1B       		.uleb128 0x1b
 1574 07b7 92000000 		.4byte	.LVL37
 1575 07bb B7090000 		.4byte	0x9b7
 1576 07bf CA070000 		.4byte	0x7ca
 1577 07c3 1C       		.uleb128 0x1c
 1578 07c4 01       		.byte	0x1
 1579 07c5 50       		.byte	0x50
 1580 07c6 02       		.byte	0x2
 1581 07c7 77       		.byte	0x77
 1582 07c8 00       		.sleb128 0
 1583 07c9 00       		.byte	0
 1584 07ca 1B       		.uleb128 0x1b
 1585 07cb 9C000000 		.4byte	.LVL40
 1586 07cf CF090000 		.4byte	0x9cf
ARM GAS  /tmp/ccjeJkLZ.s 			page 29


 1587 07d3 DE070000 		.4byte	0x7de
 1588 07d7 1C       		.uleb128 0x1c
 1589 07d8 01       		.byte	0x1
 1590 07d9 51       		.byte	0x51
 1591 07da 02       		.byte	0x2
 1592 07db 75       		.byte	0x75
 1593 07dc 00       		.sleb128 0
 1594 07dd 00       		.byte	0
 1595 07de 1D       		.uleb128 0x1d
 1596 07df A2000000 		.4byte	.LVL42
 1597 07e3 E8090000 		.4byte	0x9e8
 1598 07e7 00       		.byte	0
 1599 07e8 1E       		.uleb128 0x1e
 1600 07e9 01       		.byte	0x1
 1601 07ea 2E030000 		.4byte	.LASF97
 1602 07ee 01       		.byte	0x1
 1603 07ef 2201     		.2byte	0x122
 1604 07f1 01       		.byte	0x1
 1605 07f2 A7010000 		.4byte	0x1a7
 1606 07f6 00000000 		.4byte	.LFB12
 1607 07fa 06000000 		.4byte	.LFE12
 1608 07fe 02       		.byte	0x2
 1609 07ff 7D       		.byte	0x7d
 1610 0800 00       		.sleb128 0
 1611 0801 01       		.byte	0x1
 1612 0802 47080000 		.4byte	0x847
 1613 0806 1F       		.uleb128 0x1f
 1614 0807 70636200 		.ascii	"pcb\000"
 1615 080b 01       		.byte	0x1
 1616 080c 2201     		.2byte	0x122
 1617 080e AD040000 		.4byte	0x4ad
 1618 0812 46030000 		.4byte	.LLST19
 1619 0816 1F       		.uleb128 0x1f
 1620 0817 7000     		.ascii	"p\000"
 1621 0819 01       		.byte	0x1
 1622 081a 2201     		.2byte	0x122
 1623 081c 79020000 		.4byte	0x279
 1624 0820 67030000 		.4byte	.LLST20
 1625 0824 20       		.uleb128 0x20
 1626 0825 06000000 		.4byte	.LVL47
 1627 0829 01       		.byte	0x1
 1628 082a 86060000 		.4byte	0x686
 1629 082e 1C       		.uleb128 0x1c
 1630 082f 01       		.byte	0x1
 1631 0830 52       		.byte	0x52
 1632 0831 05       		.byte	0x5
 1633 0832 F3       		.byte	0xf3
 1634 0833 01       		.uleb128 0x1
 1635 0834 50       		.byte	0x50
 1636 0835 23       		.byte	0x23
 1637 0836 04       		.uleb128 0x4
 1638 0837 1C       		.uleb128 0x1c
 1639 0838 01       		.byte	0x1
 1640 0839 51       		.byte	0x51
 1641 083a 03       		.byte	0x3
 1642 083b F3       		.byte	0xf3
 1643 083c 01       		.uleb128 0x1
ARM GAS  /tmp/ccjeJkLZ.s 			page 30


 1644 083d 51       		.byte	0x51
 1645 083e 1C       		.uleb128 0x1c
 1646 083f 01       		.byte	0x1
 1647 0840 50       		.byte	0x50
 1648 0841 03       		.byte	0x3
 1649 0842 F3       		.byte	0xf3
 1650 0843 01       		.uleb128 0x1
 1651 0844 50       		.byte	0x50
 1652 0845 00       		.byte	0
 1653 0846 00       		.byte	0
 1654 0847 21       		.uleb128 0x21
 1655 0848 01       		.byte	0x1
 1656 0849 57040000 		.4byte	.LASF99
 1657 084d 01       		.byte	0x1
 1658 084e 3001     		.2byte	0x130
 1659 0850 01       		.byte	0x1
 1660 0851 00000000 		.4byte	.LFB13
 1661 0855 34000000 		.4byte	.LFE13
 1662 0859 02       		.byte	0x2
 1663 085a 7D       		.byte	0x7d
 1664 085b 00       		.sleb128 0
 1665 085c 01       		.byte	0x1
 1666 085d 92080000 		.4byte	0x892
 1667 0861 1F       		.uleb128 0x1f
 1668 0862 70636200 		.ascii	"pcb\000"
 1669 0866 01       		.byte	0x1
 1670 0867 3001     		.2byte	0x130
 1671 0869 AD040000 		.4byte	0x4ad
 1672 086d 88030000 		.4byte	.LLST21
 1673 0871 22       		.uleb128 0x22
 1674 0872 9C040000 		.4byte	.LASF100
 1675 0876 01       		.byte	0x1
 1676 0877 3201     		.2byte	0x132
 1677 0879 AD040000 		.4byte	0x4ad
 1678 087d BF030000 		.4byte	.LLST22
 1679 0881 20       		.uleb128 0x20
 1680 0882 20000000 		.4byte	.LVL52
 1681 0886 01       		.byte	0x1
 1682 0887 F3090000 		.4byte	0x9f3
 1683 088b 1C       		.uleb128 0x1c
 1684 088c 01       		.byte	0x1
 1685 088d 50       		.byte	0x50
 1686 088e 01       		.byte	0x1
 1687 088f 30       		.byte	0x30
 1688 0890 00       		.byte	0
 1689 0891 00       		.byte	0
 1690 0892 23       		.uleb128 0x23
 1691 0893 01       		.byte	0x1
 1692 0894 00000000 		.4byte	.LASF101
 1693 0898 01       		.byte	0x1
 1694 0899 4F01     		.2byte	0x14f
 1695 089b 01       		.byte	0x1
 1696 089c AD040000 		.4byte	0x4ad
 1697 08a0 00000000 		.4byte	.LFB14
 1698 08a4 2C000000 		.4byte	.LFE14
 1699 08a8 DD030000 		.4byte	.LLST23
 1700 08ac 01       		.byte	0x1
ARM GAS  /tmp/ccjeJkLZ.s 			page 31


 1701 08ad FF080000 		.4byte	0x8ff
 1702 08b1 24       		.uleb128 0x24
 1703 08b2 0C020000 		.4byte	.LASF89
 1704 08b6 01       		.byte	0x1
 1705 08b7 4F01     		.2byte	0x14f
 1706 08b9 B6000000 		.4byte	0xb6
 1707 08bd FD030000 		.4byte	.LLST24
 1708 08c1 25       		.uleb128 0x25
 1709 08c2 70636200 		.ascii	"pcb\000"
 1710 08c6 01       		.byte	0x1
 1711 08c7 5101     		.2byte	0x151
 1712 08c9 AD040000 		.4byte	0x4ad
 1713 08cd 1E040000 		.4byte	.LLST25
 1714 08d1 1B       		.uleb128 0x1b
 1715 08d2 0A000000 		.4byte	.LVL57
 1716 08d6 0C0A0000 		.4byte	0xa0c
 1717 08da E4080000 		.4byte	0x8e4
 1718 08de 1C       		.uleb128 0x1c
 1719 08df 01       		.byte	0x1
 1720 08e0 50       		.byte	0x50
 1721 08e1 01       		.byte	0x1
 1722 08e2 30       		.byte	0x30
 1723 08e3 00       		.byte	0
 1724 08e4 26       		.uleb128 0x26
 1725 08e5 16000000 		.4byte	.LVL58
 1726 08e9 240A0000 		.4byte	0xa24
 1727 08ed 1C       		.uleb128 0x1c
 1728 08ee 01       		.byte	0x1
 1729 08ef 52       		.byte	0x52
 1730 08f0 01       		.byte	0x1
 1731 08f1 4C       		.byte	0x4c
 1732 08f2 1C       		.uleb128 0x1c
 1733 08f3 01       		.byte	0x1
 1734 08f4 51       		.byte	0x51
 1735 08f5 01       		.byte	0x1
 1736 08f6 30       		.byte	0x30
 1737 08f7 1C       		.uleb128 0x1c
 1738 08f8 01       		.byte	0x1
 1739 08f9 50       		.byte	0x50
 1740 08fa 02       		.byte	0x2
 1741 08fb 74       		.byte	0x74
 1742 08fc 00       		.sleb128 0
 1743 08fd 00       		.byte	0
 1744 08fe 00       		.byte	0
 1745 08ff 14       		.uleb128 0x14
 1746 0900 9C010000 		.4byte	.LASF102
 1747 0904 01       		.byte	0x1
 1748 0905 38       		.byte	0x38
 1749 0906 AD040000 		.4byte	0x4ad
 1750 090a 05       		.byte	0x5
 1751 090b 03       		.byte	0x3
 1752 090c 00000000 		.4byte	raw_pcbs
 1753 0910 27       		.uleb128 0x27
 1754 0911 26010000 		.4byte	.LASF103
 1755 0915 09       		.byte	0x9
 1756 0916 A7       		.byte	0xa7
 1757 0917 91010000 		.4byte	0x191
ARM GAS  /tmp/ccjeJkLZ.s 			page 32


 1758 091b 01       		.byte	0x1
 1759 091c 01       		.byte	0x1
 1760 091d 27       		.uleb128 0x27
 1761 091e A1040000 		.4byte	.LASF104
 1762 0922 09       		.byte	0x9
 1763 0923 A9       		.byte	0xa9
 1764 0924 91010000 		.4byte	0x191
 1765 0928 01       		.byte	0x1
 1766 0929 01       		.byte	0x1
 1767 092a 28       		.uleb128 0x28
 1768 092b 01       		.byte	0x1
 1769 092c D9010000 		.4byte	.LASF105
 1770 0930 07       		.byte	0x7
 1771 0931 81       		.byte	0x81
 1772 0932 01       		.byte	0x1
 1773 0933 B6000000 		.4byte	0xb6
 1774 0937 01       		.byte	0x1
 1775 0938 47090000 		.4byte	0x947
 1776 093c 0D       		.uleb128 0xd
 1777 093d 79020000 		.4byte	0x279
 1778 0941 0D       		.uleb128 0xd
 1779 0942 D7000000 		.4byte	0xd7
 1780 0946 00       		.byte	0
 1781 0947 28       		.uleb128 0x28
 1782 0948 01       		.byte	0x1
 1783 0949 45020000 		.4byte	.LASF106
 1784 094d 07       		.byte	0x7
 1785 094e 7A       		.byte	0x7a
 1786 094f 01       		.byte	0x1
 1787 0950 79020000 		.4byte	0x279
 1788 0954 01       		.byte	0x1
 1789 0955 69090000 		.4byte	0x969
 1790 0959 0D       		.uleb128 0xd
 1791 095a D3010000 		.4byte	0x1d3
 1792 095e 0D       		.uleb128 0xd
 1793 095f CC000000 		.4byte	0xcc
 1794 0963 0D       		.uleb128 0xd
 1795 0964 FF010000 		.4byte	0x1ff
 1796 0968 00       		.byte	0
 1797 0969 28       		.uleb128 0x28
 1798 096a 01       		.byte	0x1
 1799 096b CD040000 		.4byte	.LASF107
 1800 096f 09       		.byte	0x9
 1801 0970 AC       		.byte	0xac
 1802 0971 01       		.byte	0x1
 1803 0972 7F020000 		.4byte	0x27f
 1804 0976 01       		.byte	0x1
 1805 0977 81090000 		.4byte	0x981
 1806 097b 0D       		.uleb128 0xd
 1807 097c A6030000 		.4byte	0x3a6
 1808 0980 00       		.byte	0
 1809 0981 28       		.uleb128 0x28
 1810 0982 01       		.byte	0x1
 1811 0983 81030000 		.4byte	.LASF108
 1812 0987 09       		.byte	0x9
 1813 0988 B0       		.byte	0xb0
 1814 0989 01       		.byte	0x1
ARM GAS  /tmp/ccjeJkLZ.s 			page 33


 1815 098a A7010000 		.4byte	0x1a7
 1816 098e 01       		.byte	0x1
 1817 098f B7090000 		.4byte	0x9b7
 1818 0993 0D       		.uleb128 0xd
 1819 0994 79020000 		.4byte	0x279
 1820 0998 0D       		.uleb128 0xd
 1821 0999 A6030000 		.4byte	0x3a6
 1822 099d 0D       		.uleb128 0xd
 1823 099e A6030000 		.4byte	0x3a6
 1824 09a2 0D       		.uleb128 0xd
 1825 09a3 B6000000 		.4byte	0xb6
 1826 09a7 0D       		.uleb128 0xd
 1827 09a8 B6000000 		.4byte	0xb6
 1828 09ac 0D       		.uleb128 0xd
 1829 09ad B6000000 		.4byte	0xb6
 1830 09b1 0D       		.uleb128 0xd
 1831 09b2 7F020000 		.4byte	0x27f
 1832 09b6 00       		.byte	0
 1833 09b7 28       		.uleb128 0x28
 1834 09b8 01       		.byte	0x1
 1835 09b9 50020000 		.4byte	.LASF109
 1836 09bd 07       		.byte	0x7
 1837 09be 83       		.byte	0x83
 1838 09bf 01       		.byte	0x1
 1839 09c0 B6000000 		.4byte	0xb6
 1840 09c4 01       		.byte	0x1
 1841 09c5 CF090000 		.4byte	0x9cf
 1842 09c9 0D       		.uleb128 0xd
 1843 09ca 79020000 		.4byte	0x279
 1844 09ce 00       		.byte	0
 1845 09cf 29       		.uleb128 0x29
 1846 09d0 01       		.byte	0x1
 1847 09d1 EE030000 		.4byte	.LASF110
 1848 09d5 07       		.byte	0x7
 1849 09d6 86       		.byte	0x86
 1850 09d7 01       		.byte	0x1
 1851 09d8 01       		.byte	0x1
 1852 09d9 E8090000 		.4byte	0x9e8
 1853 09dd 0D       		.uleb128 0xd
 1854 09de 79020000 		.4byte	0x279
 1855 09e2 0D       		.uleb128 0xd
 1856 09e3 79020000 		.4byte	0x279
 1857 09e7 00       		.byte	0
 1858 09e8 2A       		.uleb128 0x2a
 1859 09e9 01       		.byte	0x1
 1860 09ea 36040000 		.4byte	.LASF116
 1861 09ee 0B       		.byte	0xb
 1862 09ef FA01     		.2byte	0x1fa
 1863 09f1 01       		.byte	0x1
 1864 09f2 01       		.byte	0x1
 1865 09f3 29       		.uleb128 0x29
 1866 09f4 01       		.byte	0x1
 1867 09f5 6E040000 		.4byte	.LASF111
 1868 09f9 04       		.byte	0x4
 1869 09fa 6C       		.byte	0x6c
 1870 09fb 01       		.byte	0x1
 1871 09fc 01       		.byte	0x1
ARM GAS  /tmp/ccjeJkLZ.s 			page 34


 1872 09fd 0C0A0000 		.4byte	0xa0c
 1873 0a01 0D       		.uleb128 0xd
 1874 0a02 50010000 		.4byte	0x150
 1875 0a06 0D       		.uleb128 0xd
 1876 0a07 A6000000 		.4byte	0xa6
 1877 0a0b 00       		.byte	0
 1878 0a0c 28       		.uleb128 0x28
 1879 0a0d 01       		.byte	0x1
 1880 0a0e 5A020000 		.4byte	.LASF112
 1881 0a12 04       		.byte	0x4
 1882 0a13 6A       		.byte	0x6a
 1883 0a14 01       		.byte	0x1
 1884 0a15 A6000000 		.4byte	0xa6
 1885 0a19 01       		.byte	0x1
 1886 0a1a 240A0000 		.4byte	0xa24
 1887 0a1e 0D       		.uleb128 0xd
 1888 0a1f 50010000 		.4byte	0x150
 1889 0a23 00       		.byte	0
 1890 0a24 2B       		.uleb128 0x2b
 1891 0a25 01       		.byte	0x1
 1892 0a26 B1020000 		.4byte	.LASF117
 1893 0a2a 01       		.byte	0x1
 1894 0a2b A6000000 		.4byte	0xa6
 1895 0a2f 01       		.byte	0x1
 1896 0a30 01       		.byte	0x1
 1897 0a31 0D       		.uleb128 0xd
 1898 0a32 A6000000 		.4byte	0xa6
 1899 0a36 0D       		.uleb128 0xd
 1900 0a37 29000000 		.4byte	0x29
 1901 0a3b 0D       		.uleb128 0xd
 1902 0a3c A8000000 		.4byte	0xa8
 1903 0a40 00       		.byte	0
 1904 0a41 00       		.byte	0
 1905              		.section	.debug_abbrev,"",%progbits
 1906              	.Ldebug_abbrev0:
 1907 0000 01       		.uleb128 0x1
 1908 0001 11       		.uleb128 0x11
 1909 0002 01       		.byte	0x1
 1910 0003 25       		.uleb128 0x25
 1911 0004 0E       		.uleb128 0xe
 1912 0005 13       		.uleb128 0x13
 1913 0006 0B       		.uleb128 0xb
 1914 0007 03       		.uleb128 0x3
 1915 0008 0E       		.uleb128 0xe
 1916 0009 1B       		.uleb128 0x1b
 1917 000a 0E       		.uleb128 0xe
 1918 000b 55       		.uleb128 0x55
 1919 000c 06       		.uleb128 0x6
 1920 000d 11       		.uleb128 0x11
 1921 000e 01       		.uleb128 0x1
 1922 000f 52       		.uleb128 0x52
 1923 0010 01       		.uleb128 0x1
 1924 0011 10       		.uleb128 0x10
 1925 0012 06       		.uleb128 0x6
 1926 0013 00       		.byte	0
 1927 0014 00       		.byte	0
 1928 0015 02       		.uleb128 0x2
ARM GAS  /tmp/ccjeJkLZ.s 			page 35


 1929 0016 24       		.uleb128 0x24
 1930 0017 00       		.byte	0
 1931 0018 0B       		.uleb128 0xb
 1932 0019 0B       		.uleb128 0xb
 1933 001a 3E       		.uleb128 0x3e
 1934 001b 0B       		.uleb128 0xb
 1935 001c 03       		.uleb128 0x3
 1936 001d 08       		.uleb128 0x8
 1937 001e 00       		.byte	0
 1938 001f 00       		.byte	0
 1939 0020 03       		.uleb128 0x3
 1940 0021 24       		.uleb128 0x24
 1941 0022 00       		.byte	0
 1942 0023 0B       		.uleb128 0xb
 1943 0024 0B       		.uleb128 0xb
 1944 0025 3E       		.uleb128 0x3e
 1945 0026 0B       		.uleb128 0xb
 1946 0027 03       		.uleb128 0x3
 1947 0028 0E       		.uleb128 0xe
 1948 0029 00       		.byte	0
 1949 002a 00       		.byte	0
 1950 002b 04       		.uleb128 0x4
 1951 002c 16       		.uleb128 0x16
 1952 002d 00       		.byte	0
 1953 002e 03       		.uleb128 0x3
 1954 002f 0E       		.uleb128 0xe
 1955 0030 3A       		.uleb128 0x3a
 1956 0031 0B       		.uleb128 0xb
 1957 0032 3B       		.uleb128 0x3b
 1958 0033 0B       		.uleb128 0xb
 1959 0034 49       		.uleb128 0x49
 1960 0035 13       		.uleb128 0x13
 1961 0036 00       		.byte	0
 1962 0037 00       		.byte	0
 1963 0038 05       		.uleb128 0x5
 1964 0039 0F       		.uleb128 0xf
 1965 003a 00       		.byte	0
 1966 003b 0B       		.uleb128 0xb
 1967 003c 0B       		.uleb128 0xb
 1968 003d 00       		.byte	0
 1969 003e 00       		.byte	0
 1970 003f 06       		.uleb128 0x6
 1971 0040 04       		.uleb128 0x4
 1972 0041 01       		.byte	0x1
 1973 0042 0B       		.uleb128 0xb
 1974 0043 0B       		.uleb128 0xb
 1975 0044 3A       		.uleb128 0x3a
 1976 0045 0B       		.uleb128 0xb
 1977 0046 3B       		.uleb128 0x3b
 1978 0047 0B       		.uleb128 0xb
 1979 0048 01       		.uleb128 0x1
 1980 0049 13       		.uleb128 0x13
 1981 004a 00       		.byte	0
 1982 004b 00       		.byte	0
 1983 004c 07       		.uleb128 0x7
 1984 004d 28       		.uleb128 0x28
 1985 004e 00       		.byte	0
ARM GAS  /tmp/ccjeJkLZ.s 			page 36


 1986 004f 03       		.uleb128 0x3
 1987 0050 0E       		.uleb128 0xe
 1988 0051 1C       		.uleb128 0x1c
 1989 0052 0D       		.uleb128 0xd
 1990 0053 00       		.byte	0
 1991 0054 00       		.byte	0
 1992 0055 08       		.uleb128 0x8
 1993 0056 13       		.uleb128 0x13
 1994 0057 01       		.byte	0x1
 1995 0058 03       		.uleb128 0x3
 1996 0059 0E       		.uleb128 0xe
 1997 005a 0B       		.uleb128 0xb
 1998 005b 0B       		.uleb128 0xb
 1999 005c 3A       		.uleb128 0x3a
 2000 005d 0B       		.uleb128 0xb
 2001 005e 3B       		.uleb128 0x3b
 2002 005f 0B       		.uleb128 0xb
 2003 0060 01       		.uleb128 0x1
 2004 0061 13       		.uleb128 0x13
 2005 0062 00       		.byte	0
 2006 0063 00       		.byte	0
 2007 0064 09       		.uleb128 0x9
 2008 0065 0D       		.uleb128 0xd
 2009 0066 00       		.byte	0
 2010 0067 03       		.uleb128 0x3
 2011 0068 0E       		.uleb128 0xe
 2012 0069 3A       		.uleb128 0x3a
 2013 006a 0B       		.uleb128 0xb
 2014 006b 3B       		.uleb128 0x3b
 2015 006c 0B       		.uleb128 0xb
 2016 006d 49       		.uleb128 0x49
 2017 006e 13       		.uleb128 0x13
 2018 006f 38       		.uleb128 0x38
 2019 0070 0A       		.uleb128 0xa
 2020 0071 00       		.byte	0
 2021 0072 00       		.byte	0
 2022 0073 0A       		.uleb128 0xa
 2023 0074 0D       		.uleb128 0xd
 2024 0075 00       		.byte	0
 2025 0076 03       		.uleb128 0x3
 2026 0077 08       		.uleb128 0x8
 2027 0078 3A       		.uleb128 0x3a
 2028 0079 0B       		.uleb128 0xb
 2029 007a 3B       		.uleb128 0x3b
 2030 007b 0B       		.uleb128 0xb
 2031 007c 49       		.uleb128 0x49
 2032 007d 13       		.uleb128 0x13
 2033 007e 38       		.uleb128 0x38
 2034 007f 0A       		.uleb128 0xa
 2035 0080 00       		.byte	0
 2036 0081 00       		.byte	0
 2037 0082 0B       		.uleb128 0xb
 2038 0083 0F       		.uleb128 0xf
 2039 0084 00       		.byte	0
 2040 0085 0B       		.uleb128 0xb
 2041 0086 0B       		.uleb128 0xb
 2042 0087 49       		.uleb128 0x49
ARM GAS  /tmp/ccjeJkLZ.s 			page 37


 2043 0088 13       		.uleb128 0x13
 2044 0089 00       		.byte	0
 2045 008a 00       		.byte	0
 2046 008b 0C       		.uleb128 0xc
 2047 008c 15       		.uleb128 0x15
 2048 008d 01       		.byte	0x1
 2049 008e 27       		.uleb128 0x27
 2050 008f 0C       		.uleb128 0xc
 2051 0090 49       		.uleb128 0x49
 2052 0091 13       		.uleb128 0x13
 2053 0092 01       		.uleb128 0x1
 2054 0093 13       		.uleb128 0x13
 2055 0094 00       		.byte	0
 2056 0095 00       		.byte	0
 2057 0096 0D       		.uleb128 0xd
 2058 0097 05       		.uleb128 0x5
 2059 0098 00       		.byte	0
 2060 0099 49       		.uleb128 0x49
 2061 009a 13       		.uleb128 0x13
 2062 009b 00       		.byte	0
 2063 009c 00       		.byte	0
 2064 009d 0E       		.uleb128 0xe
 2065 009e 01       		.uleb128 0x1
 2066 009f 01       		.byte	0x1
 2067 00a0 49       		.uleb128 0x49
 2068 00a1 13       		.uleb128 0x13
 2069 00a2 01       		.uleb128 0x1
 2070 00a3 13       		.uleb128 0x13
 2071 00a4 00       		.byte	0
 2072 00a5 00       		.byte	0
 2073 00a6 0F       		.uleb128 0xf
 2074 00a7 21       		.uleb128 0x21
 2075 00a8 00       		.byte	0
 2076 00a9 49       		.uleb128 0x49
 2077 00aa 13       		.uleb128 0x13
 2078 00ab 2F       		.uleb128 0x2f
 2079 00ac 0B       		.uleb128 0xb
 2080 00ad 00       		.byte	0
 2081 00ae 00       		.byte	0
 2082 00af 10       		.uleb128 0x10
 2083 00b0 2E       		.uleb128 0x2e
 2084 00b1 01       		.byte	0x1
 2085 00b2 3F       		.uleb128 0x3f
 2086 00b3 0C       		.uleb128 0xc
 2087 00b4 03       		.uleb128 0x3
 2088 00b5 0E       		.uleb128 0xe
 2089 00b6 3A       		.uleb128 0x3a
 2090 00b7 0B       		.uleb128 0xb
 2091 00b8 3B       		.uleb128 0x3b
 2092 00b9 0B       		.uleb128 0xb
 2093 00ba 27       		.uleb128 0x27
 2094 00bb 0C       		.uleb128 0xc
 2095 00bc 49       		.uleb128 0x49
 2096 00bd 13       		.uleb128 0x13
 2097 00be 11       		.uleb128 0x11
 2098 00bf 01       		.uleb128 0x1
 2099 00c0 12       		.uleb128 0x12
ARM GAS  /tmp/ccjeJkLZ.s 			page 38


 2100 00c1 01       		.uleb128 0x1
 2101 00c2 40       		.uleb128 0x40
 2102 00c3 06       		.uleb128 0x6
 2103 00c4 9642     		.uleb128 0x2116
 2104 00c6 0C       		.uleb128 0xc
 2105 00c7 01       		.uleb128 0x1
 2106 00c8 13       		.uleb128 0x13
 2107 00c9 00       		.byte	0
 2108 00ca 00       		.byte	0
 2109 00cb 11       		.uleb128 0x11
 2110 00cc 05       		.uleb128 0x5
 2111 00cd 00       		.byte	0
 2112 00ce 03       		.uleb128 0x3
 2113 00cf 08       		.uleb128 0x8
 2114 00d0 3A       		.uleb128 0x3a
 2115 00d1 0B       		.uleb128 0xb
 2116 00d2 3B       		.uleb128 0x3b
 2117 00d3 0B       		.uleb128 0xb
 2118 00d4 49       		.uleb128 0x49
 2119 00d5 13       		.uleb128 0x13
 2120 00d6 02       		.uleb128 0x2
 2121 00d7 06       		.uleb128 0x6
 2122 00d8 00       		.byte	0
 2123 00d9 00       		.byte	0
 2124 00da 12       		.uleb128 0x12
 2125 00db 34       		.uleb128 0x34
 2126 00dc 00       		.byte	0
 2127 00dd 03       		.uleb128 0x3
 2128 00de 08       		.uleb128 0x8
 2129 00df 3A       		.uleb128 0x3a
 2130 00e0 0B       		.uleb128 0xb
 2131 00e1 3B       		.uleb128 0x3b
 2132 00e2 0B       		.uleb128 0xb
 2133 00e3 49       		.uleb128 0x49
 2134 00e4 13       		.uleb128 0x13
 2135 00e5 02       		.uleb128 0x2
 2136 00e6 06       		.uleb128 0x6
 2137 00e7 00       		.byte	0
 2138 00e8 00       		.byte	0
 2139 00e9 13       		.uleb128 0x13
 2140 00ea 34       		.uleb128 0x34
 2141 00eb 00       		.byte	0
 2142 00ec 03       		.uleb128 0x3
 2143 00ed 0E       		.uleb128 0xe
 2144 00ee 3A       		.uleb128 0x3a
 2145 00ef 0B       		.uleb128 0xb
 2146 00f0 3B       		.uleb128 0x3b
 2147 00f1 0B       		.uleb128 0xb
 2148 00f2 49       		.uleb128 0x49
 2149 00f3 13       		.uleb128 0x13
 2150 00f4 02       		.uleb128 0x2
 2151 00f5 06       		.uleb128 0x6
 2152 00f6 00       		.byte	0
 2153 00f7 00       		.byte	0
 2154 00f8 14       		.uleb128 0x14
 2155 00f9 34       		.uleb128 0x34
 2156 00fa 00       		.byte	0
ARM GAS  /tmp/ccjeJkLZ.s 			page 39


 2157 00fb 03       		.uleb128 0x3
 2158 00fc 0E       		.uleb128 0xe
 2159 00fd 3A       		.uleb128 0x3a
 2160 00fe 0B       		.uleb128 0xb
 2161 00ff 3B       		.uleb128 0x3b
 2162 0100 0B       		.uleb128 0xb
 2163 0101 49       		.uleb128 0x49
 2164 0102 13       		.uleb128 0x13
 2165 0103 02       		.uleb128 0x2
 2166 0104 0A       		.uleb128 0xa
 2167 0105 00       		.byte	0
 2168 0106 00       		.byte	0
 2169 0107 15       		.uleb128 0x15
 2170 0108 2E       		.uleb128 0x2e
 2171 0109 01       		.byte	0x1
 2172 010a 3F       		.uleb128 0x3f
 2173 010b 0C       		.uleb128 0xc
 2174 010c 03       		.uleb128 0x3
 2175 010d 0E       		.uleb128 0xe
 2176 010e 3A       		.uleb128 0x3a
 2177 010f 0B       		.uleb128 0xb
 2178 0110 3B       		.uleb128 0x3b
 2179 0111 0B       		.uleb128 0xb
 2180 0112 27       		.uleb128 0x27
 2181 0113 0C       		.uleb128 0xc
 2182 0114 49       		.uleb128 0x49
 2183 0115 13       		.uleb128 0x13
 2184 0116 11       		.uleb128 0x11
 2185 0117 01       		.uleb128 0x1
 2186 0118 12       		.uleb128 0x12
 2187 0119 01       		.uleb128 0x1
 2188 011a 40       		.uleb128 0x40
 2189 011b 0A       		.uleb128 0xa
 2190 011c 9742     		.uleb128 0x2117
 2191 011e 0C       		.uleb128 0xc
 2192 011f 01       		.uleb128 0x1
 2193 0120 13       		.uleb128 0x13
 2194 0121 00       		.byte	0
 2195 0122 00       		.byte	0
 2196 0123 16       		.uleb128 0x16
 2197 0124 05       		.uleb128 0x5
 2198 0125 00       		.byte	0
 2199 0126 03       		.uleb128 0x3
 2200 0127 0E       		.uleb128 0xe
 2201 0128 3A       		.uleb128 0x3a
 2202 0129 0B       		.uleb128 0xb
 2203 012a 3B       		.uleb128 0x3b
 2204 012b 0B       		.uleb128 0xb
 2205 012c 49       		.uleb128 0x49
 2206 012d 13       		.uleb128 0x13
 2207 012e 02       		.uleb128 0x2
 2208 012f 06       		.uleb128 0x6
 2209 0130 00       		.byte	0
 2210 0131 00       		.byte	0
 2211 0132 17       		.uleb128 0x17
 2212 0133 2E       		.uleb128 0x2e
 2213 0134 01       		.byte	0x1
ARM GAS  /tmp/ccjeJkLZ.s 			page 40


 2214 0135 3F       		.uleb128 0x3f
 2215 0136 0C       		.uleb128 0xc
 2216 0137 03       		.uleb128 0x3
 2217 0138 0E       		.uleb128 0xe
 2218 0139 3A       		.uleb128 0x3a
 2219 013a 0B       		.uleb128 0xb
 2220 013b 3B       		.uleb128 0x3b
 2221 013c 0B       		.uleb128 0xb
 2222 013d 27       		.uleb128 0x27
 2223 013e 0C       		.uleb128 0xc
 2224 013f 11       		.uleb128 0x11
 2225 0140 01       		.uleb128 0x1
 2226 0141 12       		.uleb128 0x12
 2227 0142 01       		.uleb128 0x1
 2228 0143 40       		.uleb128 0x40
 2229 0144 0A       		.uleb128 0xa
 2230 0145 9742     		.uleb128 0x2117
 2231 0147 0C       		.uleb128 0xc
 2232 0148 01       		.uleb128 0x1
 2233 0149 13       		.uleb128 0x13
 2234 014a 00       		.byte	0
 2235 014b 00       		.byte	0
 2236 014c 18       		.uleb128 0x18
 2237 014d 05       		.uleb128 0x5
 2238 014e 00       		.byte	0
 2239 014f 03       		.uleb128 0x3
 2240 0150 08       		.uleb128 0x8
 2241 0151 3A       		.uleb128 0x3a
 2242 0152 0B       		.uleb128 0xb
 2243 0153 3B       		.uleb128 0x3b
 2244 0154 0B       		.uleb128 0xb
 2245 0155 49       		.uleb128 0x49
 2246 0156 13       		.uleb128 0x13
 2247 0157 02       		.uleb128 0x2
 2248 0158 0A       		.uleb128 0xa
 2249 0159 00       		.byte	0
 2250 015a 00       		.byte	0
 2251 015b 19       		.uleb128 0x19
 2252 015c 05       		.uleb128 0x5
 2253 015d 00       		.byte	0
 2254 015e 03       		.uleb128 0x3
 2255 015f 0E       		.uleb128 0xe
 2256 0160 3A       		.uleb128 0x3a
 2257 0161 0B       		.uleb128 0xb
 2258 0162 3B       		.uleb128 0x3b
 2259 0163 0B       		.uleb128 0xb
 2260 0164 49       		.uleb128 0x49
 2261 0165 13       		.uleb128 0x13
 2262 0166 02       		.uleb128 0x2
 2263 0167 0A       		.uleb128 0xa
 2264 0168 00       		.byte	0
 2265 0169 00       		.byte	0
 2266 016a 1A       		.uleb128 0x1a
 2267 016b 2E       		.uleb128 0x2e
 2268 016c 01       		.byte	0x1
 2269 016d 3F       		.uleb128 0x3f
 2270 016e 0C       		.uleb128 0xc
ARM GAS  /tmp/ccjeJkLZ.s 			page 41


 2271 016f 03       		.uleb128 0x3
 2272 0170 0E       		.uleb128 0xe
 2273 0171 3A       		.uleb128 0x3a
 2274 0172 0B       		.uleb128 0xb
 2275 0173 3B       		.uleb128 0x3b
 2276 0174 0B       		.uleb128 0xb
 2277 0175 27       		.uleb128 0x27
 2278 0176 0C       		.uleb128 0xc
 2279 0177 49       		.uleb128 0x49
 2280 0178 13       		.uleb128 0x13
 2281 0179 11       		.uleb128 0x11
 2282 017a 01       		.uleb128 0x1
 2283 017b 12       		.uleb128 0x12
 2284 017c 01       		.uleb128 0x1
 2285 017d 40       		.uleb128 0x40
 2286 017e 06       		.uleb128 0x6
 2287 017f 9742     		.uleb128 0x2117
 2288 0181 0C       		.uleb128 0xc
 2289 0182 01       		.uleb128 0x1
 2290 0183 13       		.uleb128 0x13
 2291 0184 00       		.byte	0
 2292 0185 00       		.byte	0
 2293 0186 1B       		.uleb128 0x1b
 2294 0187 898201   		.uleb128 0x4109
 2295 018a 01       		.byte	0x1
 2296 018b 11       		.uleb128 0x11
 2297 018c 01       		.uleb128 0x1
 2298 018d 31       		.uleb128 0x31
 2299 018e 13       		.uleb128 0x13
 2300 018f 01       		.uleb128 0x1
 2301 0190 13       		.uleb128 0x13
 2302 0191 00       		.byte	0
 2303 0192 00       		.byte	0
 2304 0193 1C       		.uleb128 0x1c
 2305 0194 8A8201   		.uleb128 0x410a
 2306 0197 00       		.byte	0
 2307 0198 02       		.uleb128 0x2
 2308 0199 0A       		.uleb128 0xa
 2309 019a 9142     		.uleb128 0x2111
 2310 019c 0A       		.uleb128 0xa
 2311 019d 00       		.byte	0
 2312 019e 00       		.byte	0
 2313 019f 1D       		.uleb128 0x1d
 2314 01a0 898201   		.uleb128 0x4109
 2315 01a3 00       		.byte	0
 2316 01a4 11       		.uleb128 0x11
 2317 01a5 01       		.uleb128 0x1
 2318 01a6 31       		.uleb128 0x31
 2319 01a7 13       		.uleb128 0x13
 2320 01a8 00       		.byte	0
 2321 01a9 00       		.byte	0
 2322 01aa 1E       		.uleb128 0x1e
 2323 01ab 2E       		.uleb128 0x2e
 2324 01ac 01       		.byte	0x1
 2325 01ad 3F       		.uleb128 0x3f
 2326 01ae 0C       		.uleb128 0xc
 2327 01af 03       		.uleb128 0x3
ARM GAS  /tmp/ccjeJkLZ.s 			page 42


 2328 01b0 0E       		.uleb128 0xe
 2329 01b1 3A       		.uleb128 0x3a
 2330 01b2 0B       		.uleb128 0xb
 2331 01b3 3B       		.uleb128 0x3b
 2332 01b4 05       		.uleb128 0x5
 2333 01b5 27       		.uleb128 0x27
 2334 01b6 0C       		.uleb128 0xc
 2335 01b7 49       		.uleb128 0x49
 2336 01b8 13       		.uleb128 0x13
 2337 01b9 11       		.uleb128 0x11
 2338 01ba 01       		.uleb128 0x1
 2339 01bb 12       		.uleb128 0x12
 2340 01bc 01       		.uleb128 0x1
 2341 01bd 40       		.uleb128 0x40
 2342 01be 0A       		.uleb128 0xa
 2343 01bf 9742     		.uleb128 0x2117
 2344 01c1 0C       		.uleb128 0xc
 2345 01c2 01       		.uleb128 0x1
 2346 01c3 13       		.uleb128 0x13
 2347 01c4 00       		.byte	0
 2348 01c5 00       		.byte	0
 2349 01c6 1F       		.uleb128 0x1f
 2350 01c7 05       		.uleb128 0x5
 2351 01c8 00       		.byte	0
 2352 01c9 03       		.uleb128 0x3
 2353 01ca 08       		.uleb128 0x8
 2354 01cb 3A       		.uleb128 0x3a
 2355 01cc 0B       		.uleb128 0xb
 2356 01cd 3B       		.uleb128 0x3b
 2357 01ce 05       		.uleb128 0x5
 2358 01cf 49       		.uleb128 0x49
 2359 01d0 13       		.uleb128 0x13
 2360 01d1 02       		.uleb128 0x2
 2361 01d2 06       		.uleb128 0x6
 2362 01d3 00       		.byte	0
 2363 01d4 00       		.byte	0
 2364 01d5 20       		.uleb128 0x20
 2365 01d6 898201   		.uleb128 0x4109
 2366 01d9 01       		.byte	0x1
 2367 01da 11       		.uleb128 0x11
 2368 01db 01       		.uleb128 0x1
 2369 01dc 9542     		.uleb128 0x2115
 2370 01de 0C       		.uleb128 0xc
 2371 01df 31       		.uleb128 0x31
 2372 01e0 13       		.uleb128 0x13
 2373 01e1 00       		.byte	0
 2374 01e2 00       		.byte	0
 2375 01e3 21       		.uleb128 0x21
 2376 01e4 2E       		.uleb128 0x2e
 2377 01e5 01       		.byte	0x1
 2378 01e6 3F       		.uleb128 0x3f
 2379 01e7 0C       		.uleb128 0xc
 2380 01e8 03       		.uleb128 0x3
 2381 01e9 0E       		.uleb128 0xe
 2382 01ea 3A       		.uleb128 0x3a
 2383 01eb 0B       		.uleb128 0xb
 2384 01ec 3B       		.uleb128 0x3b
ARM GAS  /tmp/ccjeJkLZ.s 			page 43


 2385 01ed 05       		.uleb128 0x5
 2386 01ee 27       		.uleb128 0x27
 2387 01ef 0C       		.uleb128 0xc
 2388 01f0 11       		.uleb128 0x11
 2389 01f1 01       		.uleb128 0x1
 2390 01f2 12       		.uleb128 0x12
 2391 01f3 01       		.uleb128 0x1
 2392 01f4 40       		.uleb128 0x40
 2393 01f5 0A       		.uleb128 0xa
 2394 01f6 9742     		.uleb128 0x2117
 2395 01f8 0C       		.uleb128 0xc
 2396 01f9 01       		.uleb128 0x1
 2397 01fa 13       		.uleb128 0x13
 2398 01fb 00       		.byte	0
 2399 01fc 00       		.byte	0
 2400 01fd 22       		.uleb128 0x22
 2401 01fe 34       		.uleb128 0x34
 2402 01ff 00       		.byte	0
 2403 0200 03       		.uleb128 0x3
 2404 0201 0E       		.uleb128 0xe
 2405 0202 3A       		.uleb128 0x3a
 2406 0203 0B       		.uleb128 0xb
 2407 0204 3B       		.uleb128 0x3b
 2408 0205 05       		.uleb128 0x5
 2409 0206 49       		.uleb128 0x49
 2410 0207 13       		.uleb128 0x13
 2411 0208 02       		.uleb128 0x2
 2412 0209 06       		.uleb128 0x6
 2413 020a 00       		.byte	0
 2414 020b 00       		.byte	0
 2415 020c 23       		.uleb128 0x23
 2416 020d 2E       		.uleb128 0x2e
 2417 020e 01       		.byte	0x1
 2418 020f 3F       		.uleb128 0x3f
 2419 0210 0C       		.uleb128 0xc
 2420 0211 03       		.uleb128 0x3
 2421 0212 0E       		.uleb128 0xe
 2422 0213 3A       		.uleb128 0x3a
 2423 0214 0B       		.uleb128 0xb
 2424 0215 3B       		.uleb128 0x3b
 2425 0216 05       		.uleb128 0x5
 2426 0217 27       		.uleb128 0x27
 2427 0218 0C       		.uleb128 0xc
 2428 0219 49       		.uleb128 0x49
 2429 021a 13       		.uleb128 0x13
 2430 021b 11       		.uleb128 0x11
 2431 021c 01       		.uleb128 0x1
 2432 021d 12       		.uleb128 0x12
 2433 021e 01       		.uleb128 0x1
 2434 021f 40       		.uleb128 0x40
 2435 0220 06       		.uleb128 0x6
 2436 0221 9742     		.uleb128 0x2117
 2437 0223 0C       		.uleb128 0xc
 2438 0224 01       		.uleb128 0x1
 2439 0225 13       		.uleb128 0x13
 2440 0226 00       		.byte	0
 2441 0227 00       		.byte	0
ARM GAS  /tmp/ccjeJkLZ.s 			page 44


 2442 0228 24       		.uleb128 0x24
 2443 0229 05       		.uleb128 0x5
 2444 022a 00       		.byte	0
 2445 022b 03       		.uleb128 0x3
 2446 022c 0E       		.uleb128 0xe
 2447 022d 3A       		.uleb128 0x3a
 2448 022e 0B       		.uleb128 0xb
 2449 022f 3B       		.uleb128 0x3b
 2450 0230 05       		.uleb128 0x5
 2451 0231 49       		.uleb128 0x49
 2452 0232 13       		.uleb128 0x13
 2453 0233 02       		.uleb128 0x2
 2454 0234 06       		.uleb128 0x6
 2455 0235 00       		.byte	0
 2456 0236 00       		.byte	0
 2457 0237 25       		.uleb128 0x25
 2458 0238 34       		.uleb128 0x34
 2459 0239 00       		.byte	0
 2460 023a 03       		.uleb128 0x3
 2461 023b 08       		.uleb128 0x8
 2462 023c 3A       		.uleb128 0x3a
 2463 023d 0B       		.uleb128 0xb
 2464 023e 3B       		.uleb128 0x3b
 2465 023f 05       		.uleb128 0x5
 2466 0240 49       		.uleb128 0x49
 2467 0241 13       		.uleb128 0x13
 2468 0242 02       		.uleb128 0x2
 2469 0243 06       		.uleb128 0x6
 2470 0244 00       		.byte	0
 2471 0245 00       		.byte	0
 2472 0246 26       		.uleb128 0x26
 2473 0247 898201   		.uleb128 0x4109
 2474 024a 01       		.byte	0x1
 2475 024b 11       		.uleb128 0x11
 2476 024c 01       		.uleb128 0x1
 2477 024d 31       		.uleb128 0x31
 2478 024e 13       		.uleb128 0x13
 2479 024f 00       		.byte	0
 2480 0250 00       		.byte	0
 2481 0251 27       		.uleb128 0x27
 2482 0252 34       		.uleb128 0x34
 2483 0253 00       		.byte	0
 2484 0254 03       		.uleb128 0x3
 2485 0255 0E       		.uleb128 0xe
 2486 0256 3A       		.uleb128 0x3a
 2487 0257 0B       		.uleb128 0xb
 2488 0258 3B       		.uleb128 0x3b
 2489 0259 0B       		.uleb128 0xb
 2490 025a 49       		.uleb128 0x49
 2491 025b 13       		.uleb128 0x13
 2492 025c 3F       		.uleb128 0x3f
 2493 025d 0C       		.uleb128 0xc
 2494 025e 3C       		.uleb128 0x3c
 2495 025f 0C       		.uleb128 0xc
 2496 0260 00       		.byte	0
 2497 0261 00       		.byte	0
 2498 0262 28       		.uleb128 0x28
ARM GAS  /tmp/ccjeJkLZ.s 			page 45


 2499 0263 2E       		.uleb128 0x2e
 2500 0264 01       		.byte	0x1
 2501 0265 3F       		.uleb128 0x3f
 2502 0266 0C       		.uleb128 0xc
 2503 0267 03       		.uleb128 0x3
 2504 0268 0E       		.uleb128 0xe
 2505 0269 3A       		.uleb128 0x3a
 2506 026a 0B       		.uleb128 0xb
 2507 026b 3B       		.uleb128 0x3b
 2508 026c 0B       		.uleb128 0xb
 2509 026d 27       		.uleb128 0x27
 2510 026e 0C       		.uleb128 0xc
 2511 026f 49       		.uleb128 0x49
 2512 0270 13       		.uleb128 0x13
 2513 0271 3C       		.uleb128 0x3c
 2514 0272 0C       		.uleb128 0xc
 2515 0273 01       		.uleb128 0x1
 2516 0274 13       		.uleb128 0x13
 2517 0275 00       		.byte	0
 2518 0276 00       		.byte	0
 2519 0277 29       		.uleb128 0x29
 2520 0278 2E       		.uleb128 0x2e
 2521 0279 01       		.byte	0x1
 2522 027a 3F       		.uleb128 0x3f
 2523 027b 0C       		.uleb128 0xc
 2524 027c 03       		.uleb128 0x3
 2525 027d 0E       		.uleb128 0xe
 2526 027e 3A       		.uleb128 0x3a
 2527 027f 0B       		.uleb128 0xb
 2528 0280 3B       		.uleb128 0x3b
 2529 0281 0B       		.uleb128 0xb
 2530 0282 27       		.uleb128 0x27
 2531 0283 0C       		.uleb128 0xc
 2532 0284 3C       		.uleb128 0x3c
 2533 0285 0C       		.uleb128 0xc
 2534 0286 01       		.uleb128 0x1
 2535 0287 13       		.uleb128 0x13
 2536 0288 00       		.byte	0
 2537 0289 00       		.byte	0
 2538 028a 2A       		.uleb128 0x2a
 2539 028b 2E       		.uleb128 0x2e
 2540 028c 00       		.byte	0
 2541 028d 3F       		.uleb128 0x3f
 2542 028e 0C       		.uleb128 0xc
 2543 028f 03       		.uleb128 0x3
 2544 0290 0E       		.uleb128 0xe
 2545 0291 3A       		.uleb128 0x3a
 2546 0292 0B       		.uleb128 0xb
 2547 0293 3B       		.uleb128 0x3b
 2548 0294 05       		.uleb128 0x5
 2549 0295 27       		.uleb128 0x27
 2550 0296 0C       		.uleb128 0xc
 2551 0297 3C       		.uleb128 0x3c
 2552 0298 0C       		.uleb128 0xc
 2553 0299 00       		.byte	0
 2554 029a 00       		.byte	0
 2555 029b 2B       		.uleb128 0x2b
ARM GAS  /tmp/ccjeJkLZ.s 			page 46


 2556 029c 2E       		.uleb128 0x2e
 2557 029d 01       		.byte	0x1
 2558 029e 3F       		.uleb128 0x3f
 2559 029f 0C       		.uleb128 0xc
 2560 02a0 03       		.uleb128 0x3
 2561 02a1 0E       		.uleb128 0xe
 2562 02a2 27       		.uleb128 0x27
 2563 02a3 0C       		.uleb128 0xc
 2564 02a4 49       		.uleb128 0x49
 2565 02a5 13       		.uleb128 0x13
 2566 02a6 34       		.uleb128 0x34
 2567 02a7 0C       		.uleb128 0xc
 2568 02a8 3C       		.uleb128 0x3c
 2569 02a9 0C       		.uleb128 0xc
 2570 02aa 00       		.byte	0
 2571 02ab 00       		.byte	0
 2572 02ac 00       		.byte	0
 2573              		.section	.debug_loc,"",%progbits
 2574              	.Ldebug_loc0:
 2575              	.LLST0:
 2576 0000 00000000 		.4byte	.LFB7
 2577 0004 04000000 		.4byte	.LCFI0
 2578 0008 0200     		.2byte	0x2
 2579 000a 7D       		.byte	0x7d
 2580 000b 00       		.sleb128 0
 2581 000c 04000000 		.4byte	.LCFI0
 2582 0010 78000000 		.4byte	.LFE7
 2583 0014 0200     		.2byte	0x2
 2584 0016 7D       		.byte	0x7d
 2585 0017 20       		.sleb128 32
 2586 0018 00000000 		.4byte	0
 2587 001c 00000000 		.4byte	0
 2588              	.LLST1:
 2589 0020 00000000 		.4byte	.LVL0
 2590 0024 1C000000 		.4byte	.LVL2
 2591 0028 0100     		.2byte	0x1
 2592 002a 50       		.byte	0x50
 2593 002b 4E000000 		.4byte	.LVL6
 2594 002f 64000000 		.4byte	.LVL8
 2595 0033 0200     		.2byte	0x2
 2596 0035 30       		.byte	0x30
 2597 0036 9F       		.byte	0x9f
 2598 0037 00000000 		.4byte	0
 2599 003b 00000000 		.4byte	0
 2600              	.LLST2:
 2601 003f 00000000 		.4byte	.LVL0
 2602 0043 1C000000 		.4byte	.LVL2
 2603 0047 0100     		.2byte	0x1
 2604 0049 51       		.byte	0x51
 2605 004a 1C000000 		.4byte	.LVL2
 2606 004e 78000000 		.4byte	.LFE7
 2607 0052 0400     		.2byte	0x4
 2608 0054 F3       		.byte	0xf3
 2609 0055 01       		.uleb128 0x1
 2610 0056 51       		.byte	0x51
 2611 0057 9F       		.byte	0x9f
 2612 0058 00000000 		.4byte	0
ARM GAS  /tmp/ccjeJkLZ.s 			page 47


 2613 005c 00000000 		.4byte	0
 2614              	.LLST3:
 2615 0060 12000000 		.4byte	.LVL1
 2616 0064 1E000000 		.4byte	.LVL3
 2617 0068 0100     		.2byte	0x1
 2618 006a 54       		.byte	0x54
 2619 006b 1E000000 		.4byte	.LVL3
 2620 006f 24000000 		.4byte	.LVL4
 2621 0073 0100     		.2byte	0x1
 2622 0075 53       		.byte	0x53
 2623 0076 24000000 		.4byte	.LVL4
 2624 007a 5E000000 		.4byte	.LVL7
 2625 007e 0100     		.2byte	0x1
 2626 0080 54       		.byte	0x54
 2627 0081 00000000 		.4byte	0
 2628 0085 00000000 		.4byte	0
 2629              	.LLST4:
 2630 0089 12000000 		.4byte	.LVL1
 2631 008d 1C000000 		.4byte	.LVL2
 2632 0091 0200     		.2byte	0x2
 2633 0093 30       		.byte	0x30
 2634 0094 9F       		.byte	0x9f
 2635 0095 1C000000 		.4byte	.LVL2
 2636 0099 24000000 		.4byte	.LVL4
 2637 009d 0100     		.2byte	0x1
 2638 009f 54       		.byte	0x54
 2639 00a0 00000000 		.4byte	0
 2640 00a4 00000000 		.4byte	0
 2641              	.LLST5:
 2642 00a8 12000000 		.4byte	.LVL1
 2643 00ac 1C000000 		.4byte	.LVL2
 2644 00b0 0100     		.2byte	0x1
 2645 00b2 53       		.byte	0x53
 2646 00b3 00000000 		.4byte	0
 2647 00b7 00000000 		.4byte	0
 2648              	.LLST6:
 2649 00bb 00000000 		.4byte	.LVL0
 2650 00bf 4E000000 		.4byte	.LVL6
 2651 00c3 0200     		.2byte	0x2
 2652 00c5 30       		.byte	0x30
 2653 00c6 9F       		.byte	0x9f
 2654 00c7 4E000000 		.4byte	.LVL6
 2655 00cb 64000000 		.4byte	.LVL8
 2656 00cf 0200     		.2byte	0x2
 2657 00d1 31       		.byte	0x31
 2658 00d2 9F       		.byte	0x9f
 2659 00d3 64000000 		.4byte	.LVL8
 2660 00d7 78000000 		.4byte	.LFE7
 2661 00db 0200     		.2byte	0x2
 2662 00dd 30       		.byte	0x30
 2663 00de 9F       		.byte	0x9f
 2664 00df 00000000 		.4byte	0
 2665 00e3 00000000 		.4byte	0
 2666              	.LLST7:
 2667 00e7 00000000 		.4byte	.LVL9
 2668 00eb 08000000 		.4byte	.LVL11
 2669 00ef 0100     		.2byte	0x1
ARM GAS  /tmp/ccjeJkLZ.s 			page 48


 2670 00f1 50       		.byte	0x50
 2671 00f2 08000000 		.4byte	.LVL11
 2672 00f6 0A000000 		.4byte	.LFE8
 2673 00fa 0400     		.2byte	0x4
 2674 00fc F3       		.byte	0xf3
 2675 00fd 01       		.uleb128 0x1
 2676 00fe 50       		.byte	0x50
 2677 00ff 9F       		.byte	0x9f
 2678 0100 00000000 		.4byte	0
 2679 0104 00000000 		.4byte	0
 2680              	.LLST8:
 2681 0108 00000000 		.4byte	.LVL9
 2682 010c 04000000 		.4byte	.LVL10
 2683 0110 0100     		.2byte	0x1
 2684 0112 51       		.byte	0x51
 2685 0113 04000000 		.4byte	.LVL10
 2686 0117 0A000000 		.4byte	.LFE8
 2687 011b 0400     		.2byte	0x4
 2688 011d F3       		.byte	0xf3
 2689 011e 01       		.uleb128 0x1
 2690 011f 51       		.byte	0x51
 2691 0120 9F       		.byte	0x9f
 2692 0121 00000000 		.4byte	0
 2693 0125 00000000 		.4byte	0
 2694              	.LLST9:
 2695 0129 00000000 		.4byte	.LVL12
 2696 012d 08000000 		.4byte	.LVL14
 2697 0131 0100     		.2byte	0x1
 2698 0133 50       		.byte	0x50
 2699 0134 08000000 		.4byte	.LVL14
 2700 0138 0A000000 		.4byte	.LFE9
 2701 013c 0400     		.2byte	0x4
 2702 013e F3       		.byte	0xf3
 2703 013f 01       		.uleb128 0x1
 2704 0140 50       		.byte	0x50
 2705 0141 9F       		.byte	0x9f
 2706 0142 00000000 		.4byte	0
 2707 0146 00000000 		.4byte	0
 2708              	.LLST10:
 2709 014a 00000000 		.4byte	.LVL12
 2710 014e 04000000 		.4byte	.LVL13
 2711 0152 0100     		.2byte	0x1
 2712 0154 51       		.byte	0x51
 2713 0155 04000000 		.4byte	.LVL13
 2714 0159 0A000000 		.4byte	.LFE9
 2715 015d 0400     		.2byte	0x4
 2716 015f F3       		.byte	0xf3
 2717 0160 01       		.uleb128 0x1
 2718 0161 51       		.byte	0x51
 2719 0162 9F       		.byte	0x9f
 2720 0163 00000000 		.4byte	0
 2721 0167 00000000 		.4byte	0
 2722              	.LLST11:
 2723 016b 00000000 		.4byte	.LFB11
 2724 016f 04000000 		.4byte	.LCFI1
 2725 0173 0200     		.2byte	0x2
 2726 0175 7D       		.byte	0x7d
ARM GAS  /tmp/ccjeJkLZ.s 			page 49


 2727 0176 00       		.sleb128 0
 2728 0177 04000000 		.4byte	.LCFI1
 2729 017b 08000000 		.4byte	.LCFI2
 2730 017f 0200     		.2byte	0x2
 2731 0181 7D       		.byte	0x7d
 2732 0182 18       		.sleb128 24
 2733 0183 08000000 		.4byte	.LCFI2
 2734 0187 AA000000 		.4byte	.LFE11
 2735 018b 0200     		.2byte	0x2
 2736 018d 7D       		.byte	0x7d
 2737 018e 28       		.sleb128 40
 2738 018f 00000000 		.4byte	0
 2739 0193 00000000 		.4byte	0
 2740              	.LLST12:
 2741 0197 00000000 		.4byte	.LVL16
 2742 019b 0E000000 		.4byte	.LVL18
 2743 019f 0100     		.2byte	0x1
 2744 01a1 50       		.byte	0x50
 2745 01a2 0E000000 		.4byte	.LVL18
 2746 01a6 40000000 		.4byte	.LVL23
 2747 01aa 0100     		.2byte	0x1
 2748 01ac 54       		.byte	0x54
 2749 01ad 40000000 		.4byte	.LVL23
 2750 01b1 44000000 		.4byte	.LVL24
 2751 01b5 0100     		.2byte	0x1
 2752 01b7 51       		.byte	0x51
 2753 01b8 44000000 		.4byte	.LVL24
 2754 01bc 5A000000 		.4byte	.LVL27
 2755 01c0 0100     		.2byte	0x1
 2756 01c2 54       		.byte	0x54
 2757 01c3 5A000000 		.4byte	.LVL27
 2758 01c7 6A000000 		.4byte	.LVL30
 2759 01cb 0400     		.2byte	0x4
 2760 01cd F3       		.byte	0xf3
 2761 01ce 01       		.uleb128 0x1
 2762 01cf 50       		.byte	0x50
 2763 01d0 9F       		.byte	0x9f
 2764 01d1 6A000000 		.4byte	.LVL30
 2765 01d5 84000000 		.4byte	.LVL33
 2766 01d9 0100     		.2byte	0x1
 2767 01db 54       		.byte	0x54
 2768 01dc 84000000 		.4byte	.LVL33
 2769 01e0 86000000 		.4byte	.LVL34
 2770 01e4 0100     		.2byte	0x1
 2771 01e6 51       		.byte	0x51
 2772 01e7 86000000 		.4byte	.LVL34
 2773 01eb 94000000 		.4byte	.LVL38
 2774 01ef 0100     		.2byte	0x1
 2775 01f1 54       		.byte	0x54
 2776 01f2 94000000 		.4byte	.LVL38
 2777 01f6 96000000 		.4byte	.LVL39
 2778 01fa 0400     		.2byte	0x4
 2779 01fc F3       		.byte	0xf3
 2780 01fd 01       		.uleb128 0x1
 2781 01fe 50       		.byte	0x50
 2782 01ff 9F       		.byte	0x9f
 2783 0200 96000000 		.4byte	.LVL39
ARM GAS  /tmp/ccjeJkLZ.s 			page 50


 2784 0204 A4000000 		.4byte	.LVL43
 2785 0208 0100     		.2byte	0x1
 2786 020a 54       		.byte	0x54
 2787 020b A4000000 		.4byte	.LVL43
 2788 020f A6000000 		.4byte	.LVL44
 2789 0213 0400     		.2byte	0x4
 2790 0215 F3       		.byte	0xf3
 2791 0216 01       		.uleb128 0x1
 2792 0217 50       		.byte	0x50
 2793 0218 9F       		.byte	0x9f
 2794 0219 A6000000 		.4byte	.LVL44
 2795 021d A8000000 		.4byte	.LVL45
 2796 0221 0100     		.2byte	0x1
 2797 0223 54       		.byte	0x54
 2798 0224 A8000000 		.4byte	.LVL45
 2799 0228 AA000000 		.4byte	.LFE11
 2800 022c 0400     		.2byte	0x4
 2801 022e F3       		.byte	0xf3
 2802 022f 01       		.uleb128 0x1
 2803 0230 50       		.byte	0x50
 2804 0231 9F       		.byte	0x9f
 2805 0232 00000000 		.4byte	0
 2806 0236 00000000 		.4byte	0
 2807              	.LLST13:
 2808 023a 00000000 		.4byte	.LVL16
 2809 023e 0C000000 		.4byte	.LVL17
 2810 0242 0100     		.2byte	0x1
 2811 0244 51       		.byte	0x51
 2812 0245 0C000000 		.4byte	.LVL17
 2813 0249 AA000000 		.4byte	.LFE11
 2814 024d 0100     		.2byte	0x1
 2815 024f 55       		.byte	0x55
 2816 0250 00000000 		.4byte	0
 2817 0254 00000000 		.4byte	0
 2818              	.LLST14:
 2819 0258 00000000 		.4byte	.LVL16
 2820 025c 13000000 		.4byte	.LVL19-1
 2821 0260 0100     		.2byte	0x1
 2822 0262 52       		.byte	0x52
 2823 0263 13000000 		.4byte	.LVL19-1
 2824 0267 AA000000 		.4byte	.LFE11
 2825 026b 0100     		.2byte	0x1
 2826 026d 58       		.byte	0x58
 2827 026e 00000000 		.4byte	0
 2828 0272 00000000 		.4byte	0
 2829              	.LLST15:
 2830 0276 5A000000 		.4byte	.LVL27
 2831 027a 5E000000 		.4byte	.LVL28
 2832 027e 0100     		.2byte	0x1
 2833 0280 50       		.byte	0x50
 2834 0281 5E000000 		.4byte	.LVL28
 2835 0285 62000000 		.4byte	.LVL29
 2836 0289 0100     		.2byte	0x1
 2837 028b 54       		.byte	0x54
 2838 028c 00000000 		.4byte	0
 2839 0290 00000000 		.4byte	0
 2840              	.LLST16:
ARM GAS  /tmp/ccjeJkLZ.s 			page 51


 2841 0294 34000000 		.4byte	.LVL22
 2842 0298 46000000 		.4byte	.LVL25
 2843 029c 0100     		.2byte	0x1
 2844 029e 50       		.byte	0x50
 2845 029f 46000000 		.4byte	.LVL25
 2846 02a3 62000000 		.4byte	.LVL29
 2847 02a7 0100     		.2byte	0x1
 2848 02a9 56       		.byte	0x56
 2849 02aa 7C000000 		.4byte	.LVL32
 2850 02ae 8E000000 		.4byte	.LVL36
 2851 02b2 0100     		.2byte	0x1
 2852 02b4 50       		.byte	0x50
 2853 02b5 8E000000 		.4byte	.LVL36
 2854 02b9 96000000 		.4byte	.LVL39
 2855 02bd 0100     		.2byte	0x1
 2856 02bf 56       		.byte	0x56
 2857 02c0 00000000 		.4byte	0
 2858 02c4 00000000 		.4byte	0
 2859              	.LLST17:
 2860 02c8 44000000 		.4byte	.LVL24
 2861 02cc 55000000 		.4byte	.LVL26-1
 2862 02d0 0100     		.2byte	0x1
 2863 02d2 51       		.byte	0x51
 2864 02d3 86000000 		.4byte	.LVL34
 2865 02d7 88000000 		.4byte	.LVL35
 2866 02db 0100     		.2byte	0x1
 2867 02dd 51       		.byte	0x51
 2868 02de 00000000 		.4byte	0
 2869 02e2 00000000 		.4byte	0
 2870              	.LLST18:
 2871 02e6 22000000 		.4byte	.LVL20
 2872 02ea 2E000000 		.4byte	.LVL21
 2873 02ee 0100     		.2byte	0x1
 2874 02f0 50       		.byte	0x50
 2875 02f1 2E000000 		.4byte	.LVL21
 2876 02f5 62000000 		.4byte	.LVL29
 2877 02f9 0100     		.2byte	0x1
 2878 02fb 57       		.byte	0x57
 2879 02fc 6A000000 		.4byte	.LVL30
 2880 0300 84000000 		.4byte	.LVL33
 2881 0304 0100     		.2byte	0x1
 2882 0306 55       		.byte	0x55
 2883 0307 84000000 		.4byte	.LVL33
 2884 030b 92000000 		.4byte	.LVL37
 2885 030f 0100     		.2byte	0x1
 2886 0311 57       		.byte	0x57
 2887 0312 96000000 		.4byte	.LVL39
 2888 0316 9B000000 		.4byte	.LVL40-1
 2889 031a 0100     		.2byte	0x1
 2890 031c 50       		.byte	0x50
 2891 031d 9B000000 		.4byte	.LVL40-1
 2892 0321 9E000000 		.4byte	.LVL41
 2893 0325 0100     		.2byte	0x1
 2894 0327 57       		.byte	0x57
 2895 0328 9E000000 		.4byte	.LVL41
 2896 032c A6000000 		.4byte	.LVL44
 2897 0330 0100     		.2byte	0x1
ARM GAS  /tmp/ccjeJkLZ.s 			page 52


 2898 0332 55       		.byte	0x55
 2899 0333 A6000000 		.4byte	.LVL44
 2900 0337 AA000000 		.4byte	.LFE11
 2901 033b 0100     		.2byte	0x1
 2902 033d 50       		.byte	0x50
 2903 033e 00000000 		.4byte	0
 2904 0342 00000000 		.4byte	0
 2905              	.LLST19:
 2906 0346 00000000 		.4byte	.LVL46
 2907 034a 05000000 		.4byte	.LVL47-1
 2908 034e 0100     		.2byte	0x1
 2909 0350 50       		.byte	0x50
 2910 0351 05000000 		.4byte	.LVL47-1
 2911 0355 06000000 		.4byte	.LFE12
 2912 0359 0400     		.2byte	0x4
 2913 035b F3       		.byte	0xf3
 2914 035c 01       		.uleb128 0x1
 2915 035d 50       		.byte	0x50
 2916 035e 9F       		.byte	0x9f
 2917 035f 00000000 		.4byte	0
 2918 0363 00000000 		.4byte	0
 2919              	.LLST20:
 2920 0367 00000000 		.4byte	.LVL46
 2921 036b 05000000 		.4byte	.LVL47-1
 2922 036f 0100     		.2byte	0x1
 2923 0371 51       		.byte	0x51
 2924 0372 05000000 		.4byte	.LVL47-1
 2925 0376 06000000 		.4byte	.LFE12
 2926 037a 0400     		.2byte	0x4
 2927 037c F3       		.byte	0xf3
 2928 037d 01       		.uleb128 0x1
 2929 037e 51       		.byte	0x51
 2930 037f 9F       		.byte	0x9f
 2931 0380 00000000 		.4byte	0
 2932 0384 00000000 		.4byte	0
 2933              	.LLST21:
 2934 0388 00000000 		.4byte	.LVL48
 2935 038c 1C000000 		.4byte	.LVL51
 2936 0390 0100     		.2byte	0x1
 2937 0392 50       		.byte	0x50
 2938 0393 1C000000 		.4byte	.LVL51
 2939 0397 1F000000 		.4byte	.LVL52-1
 2940 039b 0100     		.2byte	0x1
 2941 039d 51       		.byte	0x51
 2942 039e 1F000000 		.4byte	.LVL52-1
 2943 03a2 20000000 		.4byte	.LVL52
 2944 03a6 0400     		.2byte	0x4
 2945 03a8 F3       		.byte	0xf3
 2946 03a9 01       		.uleb128 0x1
 2947 03aa 50       		.byte	0x50
 2948 03ab 9F       		.byte	0x9f
 2949 03ac 20000000 		.4byte	.LVL52
 2950 03b0 34000000 		.4byte	.LFE13
 2951 03b4 0100     		.2byte	0x1
 2952 03b6 50       		.byte	0x50
 2953 03b7 00000000 		.4byte	0
 2954 03bb 00000000 		.4byte	0
ARM GAS  /tmp/ccjeJkLZ.s 			page 53


 2955              	.LLST22:
 2956 03bf 0A000000 		.4byte	.LVL49
 2957 03c3 0E000000 		.4byte	.LVL50
 2958 03c7 0100     		.2byte	0x1
 2959 03c9 52       		.byte	0x52
 2960 03ca 24000000 		.4byte	.LVL53
 2961 03ce 2A000000 		.4byte	.LVL54
 2962 03d2 0100     		.2byte	0x1
 2963 03d4 53       		.byte	0x53
 2964 03d5 00000000 		.4byte	0
 2965 03d9 00000000 		.4byte	0
 2966              	.LLST23:
 2967 03dd 00000000 		.4byte	.LFB14
 2968 03e1 02000000 		.4byte	.LCFI3
 2969 03e5 0200     		.2byte	0x2
 2970 03e7 7D       		.byte	0x7d
 2971 03e8 00       		.sleb128 0
 2972 03e9 02000000 		.4byte	.LCFI3
 2973 03ed 2C000000 		.4byte	.LFE14
 2974 03f1 0200     		.2byte	0x2
 2975 03f3 7D       		.byte	0x7d
 2976 03f4 10       		.sleb128 16
 2977 03f5 00000000 		.4byte	0
 2978 03f9 00000000 		.4byte	0
 2979              	.LLST24:
 2980 03fd 00000000 		.4byte	.LVL55
 2981 0401 06000000 		.4byte	.LVL56
 2982 0405 0100     		.2byte	0x1
 2983 0407 50       		.byte	0x50
 2984 0408 06000000 		.4byte	.LVL56
 2985 040c 2C000000 		.4byte	.LFE14
 2986 0410 0400     		.2byte	0x4
 2987 0412 F3       		.byte	0xf3
 2988 0413 01       		.uleb128 0x1
 2989 0414 50       		.byte	0x50
 2990 0415 9F       		.byte	0x9f
 2991 0416 00000000 		.4byte	0
 2992 041a 00000000 		.4byte	0
 2993              	.LLST25:
 2994 041e 0A000000 		.4byte	.LVL57
 2995 0422 15000000 		.4byte	.LVL58-1
 2996 0426 0100     		.2byte	0x1
 2997 0428 50       		.byte	0x50
 2998 0429 15000000 		.4byte	.LVL58-1
 2999 042d 2C000000 		.4byte	.LFE14
 3000 0431 0100     		.2byte	0x1
 3001 0433 54       		.byte	0x54
 3002 0434 00000000 		.4byte	0
 3003 0438 00000000 		.4byte	0
 3004              		.section	.debug_aranges,"",%progbits
 3005 0000 54000000 		.4byte	0x54
 3006 0004 0200     		.2byte	0x2
 3007 0006 00000000 		.4byte	.Ldebug_info0
 3008 000a 04       		.byte	0x4
 3009 000b 00       		.byte	0
 3010 000c 0000     		.2byte	0
 3011 000e 0000     		.2byte	0
ARM GAS  /tmp/ccjeJkLZ.s 			page 54


 3012 0010 00000000 		.4byte	.LFB7
 3013 0014 78000000 		.4byte	.LFE7-.LFB7
 3014 0018 00000000 		.4byte	.LFB8
 3015 001c 0A000000 		.4byte	.LFE8-.LFB8
 3016 0020 00000000 		.4byte	.LFB9
 3017 0024 0A000000 		.4byte	.LFE9-.LFB9
 3018 0028 00000000 		.4byte	.LFB10
 3019 002c 06000000 		.4byte	.LFE10-.LFB10
 3020 0030 00000000 		.4byte	.LFB11
 3021 0034 AA000000 		.4byte	.LFE11-.LFB11
 3022 0038 00000000 		.4byte	.LFB12
 3023 003c 06000000 		.4byte	.LFE12-.LFB12
 3024 0040 00000000 		.4byte	.LFB13
 3025 0044 34000000 		.4byte	.LFE13-.LFB13
 3026 0048 00000000 		.4byte	.LFB14
 3027 004c 2C000000 		.4byte	.LFE14-.LFB14
 3028 0050 00000000 		.4byte	0
 3029 0054 00000000 		.4byte	0
 3030              		.section	.debug_ranges,"",%progbits
 3031              	.Ldebug_ranges0:
 3032 0000 00000000 		.4byte	.LFB7
 3033 0004 78000000 		.4byte	.LFE7
 3034 0008 00000000 		.4byte	.LFB8
 3035 000c 0A000000 		.4byte	.LFE8
 3036 0010 00000000 		.4byte	.LFB9
 3037 0014 0A000000 		.4byte	.LFE9
 3038 0018 00000000 		.4byte	.LFB10
 3039 001c 06000000 		.4byte	.LFE10
 3040 0020 00000000 		.4byte	.LFB11
 3041 0024 AA000000 		.4byte	.LFE11
 3042 0028 00000000 		.4byte	.LFB12
 3043 002c 06000000 		.4byte	.LFE12
 3044 0030 00000000 		.4byte	.LFB13
 3045 0034 34000000 		.4byte	.LFE13
 3046 0038 00000000 		.4byte	.LFB14
 3047 003c 2C000000 		.4byte	.LFE14
 3048 0040 00000000 		.4byte	0
 3049 0044 00000000 		.4byte	0
 3050              		.section	.debug_line,"",%progbits
 3051              	.Ldebug_line0:
 3052 0000 DE020000 		.section	.debug_str,"MS",%progbits,1
 3052      02009001 
 3052      00000201 
 3052      FB0E0D00 
 3052      01010101 
 3053              	.LASF101:
 3054 0000 7261775F 		.ascii	"raw_new\000"
 3054      6E657700 
 3055              	.LASF24:
 3056 0008 4D454D50 		.ascii	"MEMP_TCP_PCB_LISTEN\000"
 3056      5F544350 
 3056      5F504342 
 3056      5F4C4953 
 3056      54454E00 
 3057              	.LASF83:
 3058 001c 736F5F6F 		.ascii	"so_options\000"
 3058      7074696F 
ARM GAS  /tmp/ccjeJkLZ.s 			page 55


 3058      6E7300
 3059              	.LASF61:
 3060 0027 696E7075 		.ascii	"input\000"
 3060      7400
 3061              	.LASF48:
 3062 002d 50425546 		.ascii	"PBUF_RAM\000"
 3062      5F52414D 
 3062      00
 3063              	.LASF46:
 3064 0036 50425546 		.ascii	"PBUF_RAW\000"
 3064      5F524157 
 3064      00
 3065              	.LASF52:
 3066 003f 70627566 		.ascii	"pbuf_type\000"
 3066      5F747970 
 3066      6500
 3067              	.LASF80:
 3068 0049 7261775F 		.ascii	"raw_pcb\000"
 3068      70636200 
 3069              	.LASF0:
 3070 0051 756E7369 		.ascii	"unsigned int\000"
 3070      676E6564 
 3070      20696E74 
 3070      00
 3071              	.LASF54:
 3072 005e 6E657874 		.ascii	"next\000"
 3072      00
 3073              	.LASF42:
 3074 0063 6572725F 		.ascii	"err_t\000"
 3074      7400
 3075              	.LASF63:
 3076 0069 6C696E6B 		.ascii	"linkoutput\000"
 3076      6F757470 
 3076      757400
 3077              	.LASF87:
 3078 0074 70726576 		.ascii	"prev\000"
 3078      00
 3079              	.LASF18:
 3080 0079 7531365F 		.ascii	"u16_t\000"
 3080      7400
 3081              	.LASF75:
 3082 007f 5F74746C 		.ascii	"_ttl\000"
 3082      00
 3083              	.LASF84:
 3084 0084 70726F74 		.ascii	"protocol\000"
 3084      6F636F6C 
 3084      00
 3085              	.LASF69:
 3086 008d 6E657469 		.ascii	"netif_output_fn\000"
 3086      665F6F75 
 3086      74707574 
 3086      5F666E00 
 3087              	.LASF34:
 3088 009d 4D454D50 		.ascii	"MEMP_PBUF_POOL\000"
 3088      5F504255 
 3088      465F504F 
 3088      4F4C00
ARM GAS  /tmp/ccjeJkLZ.s 			page 56


 3089              	.LASF43:
 3090 00ac 50425546 		.ascii	"PBUF_TRANSPORT\000"
 3090      5F545241 
 3090      4E53504F 
 3090      525400
 3091              	.LASF96:
 3092 00bb 7372635F 		.ascii	"src_ip\000"
 3092      697000
 3093              	.LASF68:
 3094 00c2 6E657469 		.ascii	"netif_input_fn\000"
 3094      665F696E 
 3094      7075745F 
 3094      666E00
 3095              	.LASF10:
 3096 00d1 75696E74 		.ascii	"uint32_t\000"
 3096      33325F74 
 3096      00
 3097              	.LASF2:
 3098 00da 696E7438 		.ascii	"int8_t\000"
 3098      5F7400
 3099              	.LASF113:
 3100 00e1 474E5520 		.ascii	"GNU C 4.7.2\000"
 3100      4320342E 
 3100      372E3200 
 3101              	.LASF30:
 3102 00ed 4D454D50 		.ascii	"MEMP_TCPIP_MSG_API\000"
 3102      5F544350 
 3102      49505F4D 
 3102      53475F41 
 3102      504900
 3103              	.LASF5:
 3104 0100 696E7431 		.ascii	"int16_t\000"
 3104      365F7400 
 3105              	.LASF66:
 3106 0108 68776164 		.ascii	"hwaddr\000"
 3106      647200
 3107              	.LASF13:
 3108 010f 6C6F6E67 		.ascii	"long long unsigned int\000"
 3108      206C6F6E 
 3108      6720756E 
 3108      7369676E 
 3108      65642069 
 3109              	.LASF103:
 3110 0126 63757272 		.ascii	"current_iphdr_src\000"
 3110      656E745F 
 3110      69706864 
 3110      725F7372 
 3110      6300
 3111              	.LASF77:
 3112 0138 5F63686B 		.ascii	"_chksum\000"
 3112      73756D00 
 3113              	.LASF65:
 3114 0140 68776164 		.ascii	"hwaddr_len\000"
 3114      64725F6C 
 3114      656E00
 3115              	.LASF74:
 3116 014b 5F6F6666 		.ascii	"_offset\000"
ARM GAS  /tmp/ccjeJkLZ.s 			page 57


 3116      73657400 
 3117              	.LASF31:
 3118 0153 4D454D50 		.ascii	"MEMP_TCPIP_MSG_INPKT\000"
 3118      5F544350 
 3118      49505F4D 
 3118      53475F49 
 3118      4E504B54 
 3119              	.LASF50:
 3120 0168 50425546 		.ascii	"PBUF_REF\000"
 3120      5F524546 
 3120      00
 3121              	.LASF56:
 3122 0171 746F745F 		.ascii	"tot_len\000"
 3122      6C656E00 
 3123              	.LASF93:
 3124 0179 69706164 		.ascii	"ipaddr\000"
 3124      647200
 3125              	.LASF55:
 3126 0180 7061796C 		.ascii	"payload\000"
 3126      6F616400 
 3127              	.LASF44:
 3128 0188 50425546 		.ascii	"PBUF_IP\000"
 3128      5F495000 
 3129              	.LASF62:
 3130 0190 6F757470 		.ascii	"output\000"
 3130      757400
 3131              	.LASF53:
 3132 0197 70627566 		.ascii	"pbuf\000"
 3132      00
 3133              	.LASF102:
 3134 019c 7261775F 		.ascii	"raw_pcbs\000"
 3134      70636273 
 3134      00
 3135              	.LASF51:
 3136 01a5 50425546 		.ascii	"PBUF_POOL\000"
 3136      5F504F4F 
 3136      4C00
 3137              	.LASF58:
 3138 01af 666C6167 		.ascii	"flags\000"
 3138      7300
 3139              	.LASF98:
 3140 01b5 7261775F 		.ascii	"raw_recv\000"
 3140      72656376 
 3140      00
 3141              	.LASF35:
 3142 01be 4D454D50 		.ascii	"MEMP_MAX\000"
 3142      5F4D4158 
 3142      00
 3143              	.LASF17:
 3144 01c7 73385F74 		.ascii	"s8_t\000"
 3144      00
 3145              	.LASF29:
 3146 01cc 4D454D50 		.ascii	"MEMP_NETCONN\000"
 3146      5F4E4554 
 3146      434F4E4E 
 3146      00
 3147              	.LASF105:
ARM GAS  /tmp/ccjeJkLZ.s 			page 58


 3148 01d9 70627566 		.ascii	"pbuf_header\000"
 3148      5F686561 
 3148      64657200 
 3149              	.LASF33:
 3150 01e5 4D454D50 		.ascii	"MEMP_PBUF\000"
 3150      5F504255 
 3150      4600
 3151              	.LASF15:
 3152 01ef 63686172 		.ascii	"char\000"
 3152      00
 3153              	.LASF92:
 3154 01f4 7261775F 		.ascii	"raw_bind\000"
 3154      62696E64 
 3154      00
 3155              	.LASF38:
 3156 01fd 69705F61 		.ascii	"ip_addr_packed\000"
 3156      6464725F 
 3156      7061636B 
 3156      656400
 3157              	.LASF89:
 3158 020c 70726F74 		.ascii	"proto\000"
 3158      6F00
 3159              	.LASF3:
 3160 0212 75696E74 		.ascii	"uint8_t\000"
 3160      385F7400 
 3161              	.LASF90:
 3162 021a 65617465 		.ascii	"eaten\000"
 3162      6E00
 3163              	.LASF114:
 3164 0220 2E2E2F2E 		.ascii	"../../ext/lwip/src/core/raw.c\000"
 3164      2E2F6578 
 3164      742F6C77 
 3164      69702F73 
 3164      72632F63 
 3165              	.LASF76:
 3166 023e 5F70726F 		.ascii	"_proto\000"
 3166      746F00
 3167              	.LASF106:
 3168 0245 70627566 		.ascii	"pbuf_alloc\000"
 3168      5F616C6C 
 3168      6F6300
 3169              	.LASF109:
 3170 0250 70627566 		.ascii	"pbuf_free\000"
 3170      5F667265 
 3170      6500
 3171              	.LASF112:
 3172 025a 6D656D70 		.ascii	"memp_malloc\000"
 3172      5F6D616C 
 3172      6C6F6300 
 3173              	.LASF28:
 3174 0266 4D454D50 		.ascii	"MEMP_NETBUF\000"
 3174      5F4E4554 
 3174      42554600 
 3175              	.LASF60:
 3176 0272 6E65746D 		.ascii	"netmask\000"
 3176      61736B00 
 3177              	.LASF12:
ARM GAS  /tmp/ccjeJkLZ.s 			page 59


 3178 027a 6C6F6E67 		.ascii	"long long int\000"
 3178      206C6F6E 
 3178      6720696E 
 3178      7400
 3179              	.LASF95:
 3180 0288 7261775F 		.ascii	"raw_sendto\000"
 3180      73656E64 
 3180      746F00
 3181              	.LASF23:
 3182 0293 4D454D50 		.ascii	"MEMP_TCP_PCB\000"
 3182      5F544350 
 3182      5F504342 
 3182      00
 3183              	.LASF16:
 3184 02a0 75385F74 		.ascii	"u8_t\000"
 3184      00
 3185              	.LASF79:
 3186 02a5 7261775F 		.ascii	"raw_recv_fn\000"
 3186      72656376 
 3186      5F666E00 
 3187              	.LASF117:
 3188 02b1 6D656D73 		.ascii	"memset\000"
 3188      657400
 3189              	.LASF115:
 3190 02b8 2F686F6D 		.ascii	"/home/kwilson/Sandbox/ChibiOS_2.5.1/demos/ARMCM4-ST"
 3190      652F6B77 
 3190      696C736F 
 3190      6E2F5361 
 3190      6E64626F 
 3191 02eb 4D333246 		.ascii	"M32F407-LWIP-FATFS-USB\000"
 3191      3430372D 
 3191      4C574950 
 3191      2D464154 
 3191      46532D55 
 3192              	.LASF26:
 3193 0302 4D454D50 		.ascii	"MEMP_REASSDATA\000"
 3193      5F524541 
 3193      53534441 
 3193      544100
 3194              	.LASF91:
 3195 0311 7261775F 		.ascii	"raw_input\000"
 3195      696E7075 
 3195      7400
 3196              	.LASF45:
 3197 031b 50425546 		.ascii	"PBUF_LINK\000"
 3197      5F4C494E 
 3197      4B00
 3198              	.LASF7:
 3199 0325 75696E74 		.ascii	"uint16_t\000"
 3199      31365F74 
 3199      00
 3200              	.LASF97:
 3201 032e 7261775F 		.ascii	"raw_send\000"
 3201      73656E64 
 3201      00
 3202              	.LASF72:
 3203 0337 5F765F68 		.ascii	"_v_hl_tos\000"
ARM GAS  /tmp/ccjeJkLZ.s 			page 60


 3203      6C5F746F 
 3203      7300
 3204              	.LASF20:
 3205 0341 7533325F 		.ascii	"u32_t\000"
 3205      7400
 3206              	.LASF6:
 3207 0347 73686F72 		.ascii	"short int\000"
 3207      7420696E 
 3207      7400
 3208              	.LASF9:
 3209 0351 6C6F6E67 		.ascii	"long int\000"
 3209      20696E74 
 3209      00
 3210              	.LASF32:
 3211 035a 4D454D50 		.ascii	"MEMP_SYS_TIMEOUT\000"
 3211      5F535953 
 3211      5F54494D 
 3211      454F5554 
 3211      00
 3212              	.LASF22:
 3213 036b 4D454D50 		.ascii	"MEMP_UDP_PCB\000"
 3213      5F554450 
 3213      5F504342 
 3213      00
 3214              	.LASF81:
 3215 0378 6C6F6361 		.ascii	"local_ip\000"
 3215      6C5F6970 
 3215      00
 3216              	.LASF108:
 3217 0381 69705F6F 		.ascii	"ip_output_if\000"
 3217      75747075 
 3217      745F6966 
 3217      00
 3218              	.LASF71:
 3219 038e 69705F68 		.ascii	"ip_hdr\000"
 3219      647200
 3220              	.LASF67:
 3221 0395 6E616D65 		.ascii	"name\000"
 3221      00
 3222              	.LASF70:
 3223 039a 6E657469 		.ascii	"netif_linkoutput_fn\000"
 3223      665F6C69 
 3223      6E6B6F75 
 3223      74707574 
 3223      5F666E00 
 3224              	.LASF27:
 3225 03ae 4D454D50 		.ascii	"MEMP_FRAG_PBUF\000"
 3225      5F465241 
 3225      475F5042 
 3225      554600
 3226              	.LASF21:
 3227 03bd 4D454D50 		.ascii	"MEMP_RAW_PCB\000"
 3227      5F524157 
 3227      5F504342 
 3227      00
 3228              	.LASF86:
 3229 03ca 72656376 		.ascii	"recv_arg\000"
ARM GAS  /tmp/ccjeJkLZ.s 			page 61


 3229      5F617267 
 3229      00
 3230              	.LASF14:
 3231 03d3 73697A65 		.ascii	"sizetype\000"
 3231      74797065 
 3231      00
 3232              	.LASF11:
 3233 03dc 6C6F6E67 		.ascii	"long unsigned int\000"
 3233      20756E73 
 3233      69676E65 
 3233      6420696E 
 3233      7400
 3234              	.LASF110:
 3235 03ee 70627566 		.ascii	"pbuf_chain\000"
 3235      5F636861 
 3235      696E00
 3236              	.LASF19:
 3237 03f9 7331365F 		.ascii	"s16_t\000"
 3237      7400
 3238              	.LASF47:
 3239 03ff 70627566 		.ascii	"pbuf_layer\000"
 3239      5F6C6179 
 3239      657200
 3240              	.LASF57:
 3241 040a 74797065 		.ascii	"type\000"
 3241      00
 3242              	.LASF4:
 3243 040f 756E7369 		.ascii	"unsigned char\000"
 3243      676E6564 
 3243      20636861 
 3243      7200
 3244              	.LASF25:
 3245 041d 4D454D50 		.ascii	"MEMP_TCP_SEG\000"
 3245      5F544350 
 3245      5F534547 
 3245      00
 3246              	.LASF41:
 3247 042a 69705F61 		.ascii	"ip_addr_p_t\000"
 3247      6464725F 
 3247      705F7400 
 3248              	.LASF116:
 3249 0436 706F7274 		.ascii	"port_halt\000"
 3249      5F68616C 
 3249      7400
 3250              	.LASF39:
 3251 0440 61646472 		.ascii	"addr\000"
 3251      00
 3252              	.LASF94:
 3253 0445 7261775F 		.ascii	"raw_connect\000"
 3253      636F6E6E 
 3253      65637400 
 3254              	.LASF64:
 3255 0451 73746174 		.ascii	"state\000"
 3255      6500
 3256              	.LASF99:
 3257 0457 7261775F 		.ascii	"raw_remove\000"
 3257      72656D6F 
ARM GAS  /tmp/ccjeJkLZ.s 			page 62


 3257      766500
 3258              	.LASF59:
 3259 0462 6E657469 		.ascii	"netif\000"
 3259      6600
 3260              	.LASF88:
 3261 0468 69706864 		.ascii	"iphdr\000"
 3261      7200
 3262              	.LASF111:
 3263 046e 6D656D70 		.ascii	"memp_free\000"
 3263      5F667265 
 3263      6500
 3264              	.LASF85:
 3265 0478 72656376 		.ascii	"recv\000"
 3265      00
 3266              	.LASF1:
 3267 047d 7369676E 		.ascii	"signed char\000"
 3267      65642063 
 3267      68617200 
 3268              	.LASF8:
 3269 0489 73686F72 		.ascii	"short unsigned int\000"
 3269      7420756E 
 3269      7369676E 
 3269      65642069 
 3269      6E7400
 3270              	.LASF100:
 3271 049c 70636232 		.ascii	"pcb2\000"
 3271      00
 3272              	.LASF104:
 3273 04a1 63757272 		.ascii	"current_iphdr_dest\000"
 3273      656E745F 
 3273      69706864 
 3273      725F6465 
 3273      737400
 3274              	.LASF82:
 3275 04b4 72656D6F 		.ascii	"remote_ip\000"
 3275      74655F69 
 3275      7000
 3276              	.LASF73:
 3277 04be 5F6C656E 		.ascii	"_len\000"
 3277      00
 3278              	.LASF40:
 3279 04c3 69705F61 		.ascii	"ip_addr_t\000"
 3279      6464725F 
 3279      7400
 3280              	.LASF107:
 3281 04cd 69705F72 		.ascii	"ip_route\000"
 3281      6F757465 
 3281      00
 3282              	.LASF36:
 3283 04d6 6D656D70 		.ascii	"memp_t\000"
 3283      5F7400
 3284              	.LASF49:
 3285 04dd 50425546 		.ascii	"PBUF_ROM\000"
 3285      5F524F4D 
 3285      00
 3286              	.LASF78:
 3287 04e6 64657374 		.ascii	"dest\000"
ARM GAS  /tmp/ccjeJkLZ.s 			page 63


 3287      00
 3288              	.LASF37:
 3289 04eb 69705F61 		.ascii	"ip_addr\000"
 3289      64647200 
 3290              		.ident	"GCC: (crosstool-NG 1.17.0 - PSAS ST32F4 GFE) 4.7.2"
ARM GAS  /tmp/ccjeJkLZ.s 			page 64


DEFINED SYMBOLS
                            *ABS*:0000000000000000 raw.c
     /tmp/ccjeJkLZ.s:21     .text.raw_input:0000000000000000 $t
     /tmp/ccjeJkLZ.s:27     .text.raw_input:0000000000000000 raw_input
     /tmp/ccjeJkLZ.s:128    .text.raw_input:000000000000006c $d
     /tmp/ccjeJkLZ.s:135    .text.raw_bind:0000000000000000 $t
     /tmp/ccjeJkLZ.s:141    .text.raw_bind:0000000000000000 raw_bind
     /tmp/ccjeJkLZ.s:165    .text.raw_connect:0000000000000000 $t
     /tmp/ccjeJkLZ.s:171    .text.raw_connect:0000000000000000 raw_connect
     /tmp/ccjeJkLZ.s:195    .text.raw_recv:0000000000000000 $t
     /tmp/ccjeJkLZ.s:201    .text.raw_recv:0000000000000000 raw_recv
     /tmp/ccjeJkLZ.s:218    .text.raw_sendto:0000000000000000 $t
     /tmp/ccjeJkLZ.s:224    .text.raw_sendto:0000000000000000 raw_sendto
     /tmp/ccjeJkLZ.s:382    .text.raw_send:0000000000000000 $t
     /tmp/ccjeJkLZ.s:388    .text.raw_send:0000000000000000 raw_send
     /tmp/ccjeJkLZ.s:406    .text.raw_remove:0000000000000000 $t
     /tmp/ccjeJkLZ.s:412    .text.raw_remove:0000000000000000 raw_remove
     /tmp/ccjeJkLZ.s:471    .text.raw_remove:0000000000000030 $d
     /tmp/ccjeJkLZ.s:476    .text.raw_new:0000000000000000 $t
     /tmp/ccjeJkLZ.s:482    .text.raw_new:0000000000000000 raw_new
     /tmp/ccjeJkLZ.s:531    .text.raw_new:0000000000000028 $d
     /tmp/ccjeJkLZ.s:536    .bss.raw_pcbs:0000000000000000 $d
     /tmp/ccjeJkLZ.s:540    .bss.raw_pcbs:0000000000000000 raw_pcbs
                     .debug_frame:0000000000000010 $d
     /tmp/ccjeJkLZ.s:134    .text.raw_input:0000000000000078 $t
     /tmp/ccjeJkLZ.s:475    .text.raw_remove:0000000000000034 $t
     /tmp/ccjeJkLZ.s:535    .text.raw_new:000000000000002c $t

UNDEFINED SYMBOLS
current_iphdr_src
current_iphdr_dest
pbuf_header
pbuf_alloc
ip_route
ip_output_if
pbuf_free
pbuf_chain
port_halt
memp_free
memp_malloc
memset
