ARM GAS  /tmp/ccjeJkLZ.s 			page 1


   1              		.syntax unified
   2              		.cpu cortex-m4
   3              		.eabi_attribute 27, 3
   4              		.eabi_attribute 28, 1
   5              		.fpu fpv4-sp-d16
   6              		.eabi_attribute 20, 1
   7              		.eabi_attribute 21, 1
   8              		.eabi_attribute 23, 3
   9              		.eabi_attribute 24, 1
  10              		.eabi_attribute 25, 1
  11              		.eabi_attribute 26, 1
  12              		.eabi_attribute 30, 2
  13              		.eabi_attribute 34, 1
  14              		.eabi_attribute 18, 4
  15              		.thumb
  16              		.file	"raw.c"
  17              		.text
  18              	.Ltext0:
  19              		.cfi_sections	.debug_frame
  20              		.section	.text.raw_input,"ax",%progbits
  21              		.align	2
  22              		.p2align 4,,15
  23              		.global	raw_input
  24              		.thumb
  25              		.thumb_func
  26              		.type	raw_input, %function
  27              	raw_input:
  28              	.LFB7:
  29              		.file 1 "../../ext/lwip/src/core/raw.c"
  30              		.loc 1 77 0
  31              		.cfi_startproc
  32              		@ args = 0, pretend = 0, frame = 0
  33              		@ frame_needed = 0, uses_anonymous_args = 0
  34              	.LVL0:
  35 0000 2DE9F047 		push	{r4, r5, r6, r7, r8, r9, sl, lr}
  36              	.LCFI0:
  37              		.cfi_def_cfa_offset 32
  38              		.cfi_offset 4, -32
  39              		.cfi_offset 5, -28
  40              		.cfi_offset 6, -24
  41              		.cfi_offset 7, -20
  42              		.cfi_offset 8, -16
  43              		.cfi_offset 9, -12
  44              		.cfi_offset 10, -8
  45              		.cfi_offset 14, -4
  46              		.loc 1 89 0
  47 0004 DFF86880 		ldr	r8, .L24+4
  48              		.loc 1 86 0
  49 0008 4368     		ldr	r3, [r0, #4]
  50              		.loc 1 89 0
  51 000a D8F80040 		ldr	r4, [r8, #0]
  52              		.loc 1 86 0
  53 000e 5E7A     		ldrb	r6, [r3, #9]	@ zero_extendqisi2
  54              		.loc 1 77 0
  55 0010 8246     		mov	sl, r0
  56              	.LVL1:
  57              		.loc 1 92 0
ARM GAS  /tmp/ccjeJkLZ.s 			page 2


  58 0012 3CB3     		cbz	r4, .L7
  59 0014 0025     		movs	r5, #0
  60              		.loc 1 95 0
  61 0016 DFF85C90 		ldr	r9, .L24+8
  62 001a 03E0     		b	.L2
  63              	.LVL2:
  64              	.L4:
  65              		.loc 1 122 0
  66 001c E368     		ldr	r3, [r4, #12]
  67              	.LVL3:
  68 001e 2546     		mov	r5, r4
  69              		.loc 1 92 0
  70 0020 03B3     		cbz	r3, .L7
  71              		.loc 1 122 0
  72 0022 1C46     		mov	r4, r3
  73              	.LVL4:
  74              	.L2:
  75              		.loc 1 93 0
  76 0024 237C     		ldrb	r3, [r4, #16]	@ zero_extendqisi2
  77 0026 B342     		cmp	r3, r6
  78 0028 F8D1     		bne	.L4
  79              		.loc 1 94 0 discriminator 1
  80 002a 2068     		ldr	r0, [r4, #0]
  81              		.loc 1 104 0 discriminator 1
  82 002c 0F4B     		ldr	r3, .L24
  83 002e 2146     		mov	r1, r4
  84 0030 5246     		mov	r2, sl
  85              		.loc 1 94 0 discriminator 1
  86 0032 18B1     		cbz	r0, .L5
  87 0034 D9F80070 		ldr	r7, [r9, #0]
  88 0038 B842     		cmp	r0, r7
  89 003a EFD1     		bne	.L4
  90              	.L5:
  91              		.loc 1 102 0
  92 003c D4F814C0 		ldr	ip, [r4, #20]
  93 0040 BCF1000F 		cmp	ip, #0
  94 0044 EAD0     		beq	.L4
  95              		.loc 1 104 0
  96 0046 A069     		ldr	r0, [r4, #24]
  97 0048 E047     		blx	ip
  98              	.LVL5:
  99 004a 0028     		cmp	r0, #0
 100 004c E6D0     		beq	.L4
 101              	.LVL6:
 102              		.loc 1 108 0
 103 004e 35B1     		cbz	r5, .L6
 104              		.loc 1 111 0
 105 0050 E368     		ldr	r3, [r4, #12]
 106              		.loc 1 112 0
 107 0052 D8F80020 		ldr	r2, [r8, #0]
 108              		.loc 1 111 0
 109 0056 EB60     		str	r3, [r5, #12]
 110              		.loc 1 113 0
 111 0058 C8F80040 		str	r4, [r8, #0]
 112              		.loc 1 112 0
 113 005c E260     		str	r2, [r4, #12]
 114              	.L6:
ARM GAS  /tmp/ccjeJkLZ.s 			page 3


 115              	.LVL7:
 116              		.loc 1 122 0
 117 005e 0120     		movs	r0, #1
 118              		.loc 1 125 0
 119 0060 BDE8F087 		pop	{r4, r5, r6, r7, r8, r9, sl, pc}
 120              	.LVL8:
 121              	.L7:
 122              		.loc 1 81 0
 123 0064 0020     		movs	r0, #0
 124 0066 BDE8F087 		pop	{r4, r5, r6, r7, r8, r9, sl, pc}
 125              	.L25:
 126 006a 00BF     		.align	2
 127              	.L24:
 128 006c 00000000 		.word	current_iphdr_src
 129 0070 00000000 		.word	.LANCHOR0
 130 0074 00000000 		.word	current_iphdr_dest
 131              		.cfi_endproc
 132              	.LFE7:
 133              		.size	raw_input, .-raw_input
 134 0078 AFF30080 		.section	.text.raw_bind,"ax",%progbits
 134      AFF30080 
 135              		.align	2
 136              		.p2align 4,,15
 137              		.global	raw_bind
 138              		.thumb
 139              		.thumb_func
 140              		.type	raw_bind, %function
 141              	raw_bind:
 142              	.LFB8:
 143              		.loc 1 143 0
 144              		.cfi_startproc
 145              		@ args = 0, pretend = 0, frame = 0
 146              		@ frame_needed = 0, uses_anonymous_args = 0
 147              		@ link register save eliminated.
 148              	.LVL9:
 149              		.loc 1 144 0
 150 0000 01B1     		cbz	r1, .L27
 151              		.loc 1 144 0 is_stmt 0 discriminator 1
 152 0002 0968     		ldr	r1, [r1, #0]
 153              	.LVL10:
 154              	.L27:
 155              		.loc 1 144 0 discriminator 3
 156 0004 0160     		str	r1, [r0, #0]
 157              		.loc 1 146 0 is_stmt 1 discriminator 3
 158 0006 0020     		movs	r0, #0
 159              	.LVL11:
 160 0008 7047     		bx	lr
 161              		.cfi_endproc
 162              	.LFE8:
 163              		.size	raw_bind, .-raw_bind
 164 000a 00BFAFF3 		.section	.text.raw_connect,"ax",%progbits
 164      0080
 165              		.align	2
 166              		.p2align 4,,15
 167              		.global	raw_connect
 168              		.thumb
 169              		.thumb_func
ARM GAS  /tmp/ccjeJkLZ.s 			page 4


 170              		.type	raw_connect, %function
 171              	raw_connect:
 172              	.LFB9:
 173              		.loc 1 163 0
 174              		.cfi_startproc
 175              		@ args = 0, pretend = 0, frame = 0
 176              		@ frame_needed = 0, uses_anonymous_args = 0
 177              		@ link register save eliminated.
 178              	.LVL12:
 179              		.loc 1 164 0
 180 0000 01B1     		cbz	r1, .L30
 181              		.loc 1 164 0 is_stmt 0 discriminator 1
 182 0002 0968     		ldr	r1, [r1, #0]
 183              	.LVL13:
 184              	.L30:
 185              		.loc 1 164 0 discriminator 3
 186 0004 4160     		str	r1, [r0, #4]
 187              		.loc 1 166 0 is_stmt 1 discriminator 3
 188 0006 0020     		movs	r0, #0
 189              	.LVL14:
 190 0008 7047     		bx	lr
 191              		.cfi_endproc
 192              	.LFE9:
 193              		.size	raw_connect, .-raw_connect
 194 000a 00BFAFF3 		.section	.text.raw_recv,"ax",%progbits
 194      0080
 195              		.align	2
 196              		.p2align 4,,15
 197              		.global	raw_recv
 198              		.thumb
 199              		.thumb_func
 200              		.type	raw_recv, %function
 201              	raw_recv:
 202              	.LFB10:
 203              		.loc 1 184 0
 204              		.cfi_startproc
 205              		@ args = 0, pretend = 0, frame = 0
 206              		@ frame_needed = 0, uses_anonymous_args = 0
 207              		@ link register save eliminated.
 208              	.LVL15:
 209              		.loc 1 186 0
 210 0000 4161     		str	r1, [r0, #20]
 211              		.loc 1 187 0
 212 0002 8261     		str	r2, [r0, #24]
 213 0004 7047     		bx	lr
 214              		.cfi_endproc
 215              	.LFE10:
 216              		.size	raw_recv, .-raw_recv
 217 0006 00BFAFF3 		.section	.text.raw_sendto,"ax",%progbits
 217      0080AFF3 
 217      0080
 218              		.align	2
 219              		.p2align 4,,15
 220              		.global	raw_sendto
 221              		.thumb
 222              		.thumb_func
 223              		.type	raw_sendto, %function
ARM GAS  /tmp/ccjeJkLZ.s 			page 5


 224              	raw_sendto:
 225              	.LFB11:
 226              		.loc 1 204 0
 227              		.cfi_startproc
 228              		@ args = 0, pretend = 0, frame = 0
 229              		@ frame_needed = 0, uses_anonymous_args = 0
 230              	.LVL16:
 231 0000 2DE9F041 		push	{r4, r5, r6, r7, r8, lr}
 232              	.LCFI1:
 233              		.cfi_def_cfa_offset 24
 234              		.cfi_offset 4, -24
 235              		.cfi_offset 5, -20
 236              		.cfi_offset 6, -16
 237              		.cfi_offset 7, -12
 238              		.cfi_offset 8, -8
 239              		.cfi_offset 14, -4
 240 0004 0D46     		mov	r5, r1
 241 0006 84B0     		sub	sp, sp, #16
 242              	.LCFI2:
 243              		.cfi_def_cfa_offset 40
 244              		.loc 1 204 0
 245 0008 0446     		mov	r4, r0
 246              		.loc 1 213 0
 247 000a 1421     		movs	r1, #20
 248              	.LVL17:
 249 000c 2846     		mov	r0, r5
 250              	.LVL18:
 251              		.loc 1 204 0
 252 000e 9046     		mov	r8, r2
 253              		.loc 1 213 0
 254 0010 FFF7FEFF 		bl	pbuf_header
 255              	.LVL19:
 256 0014 0028     		cmp	r0, #0
 257 0016 28D0     		beq	.L34
 258              		.loc 1 215 0
 259 0018 0021     		movs	r1, #0
 260 001a 0120     		movs	r0, #1
 261 001c 0A46     		mov	r2, r1
 262 001e FFF7FEFF 		bl	pbuf_alloc
 263              	.LVL20:
 264              		.loc 1 217 0
 265 0022 0746     		mov	r7, r0
 266 0024 0028     		cmp	r0, #0
 267 0026 3ED0     		beq	.L43
 268              		.loc 1 221 0
 269 0028 2B89     		ldrh	r3, [r5, #8]
 270 002a 002B     		cmp	r3, #0
 271 002c 33D1     		bne	.L55
 272              	.LVL21:
 273              	.L36:
 274              		.loc 1 236 0
 275 002e 4046     		mov	r0, r8
 276 0030 FFF7FEFF 		bl	ip_route
 277              	.LVL22:
 278 0034 0646     		mov	r6, r0
 279 0036 0028     		cmp	r0, #0
 280 0038 26D0     		beq	.L56
ARM GAS  /tmp/ccjeJkLZ.s 			page 6


 281              	.L38:
 282              		.loc 1 258 0
 283 003a 2146     		mov	r1, r4
 284 003c 002C     		cmp	r4, #0
 285 003e 21D0     		beq	.L40
 286              	.LVL23:
 287              		.loc 1 258 0 is_stmt 0 discriminator 1
 288 0040 2368     		ldr	r3, [r4, #0]
 289 0042 FBB1     		cbz	r3, .L40
 290              	.LVL24:
 291              	.L41:
 292              		.loc 1 269 0 is_stmt 1
 293 0044 607A     		ldrb	r0, [r4, #9]	@ zero_extendqisi2
 294              	.LVL25:
 295 0046 227C     		ldrb	r2, [r4, #16]	@ zero_extendqisi2
 296 0048 A37A     		ldrb	r3, [r4, #10]	@ zero_extendqisi2
 297 004a 8DE84500 		stmia	sp, {r0, r2, r6}
 298 004e 3846     		mov	r0, r7
 299 0050 4246     		mov	r2, r8
 300 0052 FFF7FEFF 		bl	ip_output_if
 301              	.LVL26:
 302              		.loc 1 275 0
 303 0056 AF42     		cmp	r7, r5
 304              		.loc 1 269 0
 305 0058 0446     		mov	r4, r0
 306              	.LVL27:
 307              		.loc 1 275 0
 308 005a 02D0     		beq	.L35
 309              		.loc 1 277 0
 310 005c 3846     		mov	r0, r7
 311              	.LVL28:
 312 005e FFF7FEFF 		bl	pbuf_free
 313              	.LVL29:
 314              	.L35:
 315 0062 60B2     		sxtb	r0, r4
 316              		.loc 1 280 0
 317 0064 04B0     		add	sp, sp, #16
 318 0066 BDE8F081 		pop	{r4, r5, r6, r7, r8, pc}
 319              	.LVL30:
 320              	.L34:
 321              		.loc 1 230 0
 322 006a 2846     		mov	r0, r5
 323 006c 6FF01301 		mvn	r1, #19
 324 0070 FFF7FEFF 		bl	pbuf_header
 325              	.LVL31:
 326 0074 98B9     		cbnz	r0, .L57
 327              		.loc 1 236 0
 328 0076 4046     		mov	r0, r8
 329 0078 FFF7FEFF 		bl	ip_route
 330              	.LVL32:
 331 007c 0646     		mov	r6, r0
 332 007e 40B1     		cbz	r0, .L54
 333 0080 2F46     		mov	r7, r5
 334 0082 DAE7     		b	.L38
 335              	.LVL33:
 336              	.L40:
 337              		.loc 1 260 0
ARM GAS  /tmp/ccjeJkLZ.s 			page 7


 338 0084 311D     		adds	r1, r6, #4
 339              	.LVL34:
 340 0086 DDE7     		b	.L41
 341              	.LVL35:
 342              	.L56:
 343              		.loc 1 240 0
 344 0088 BD42     		cmp	r5, r7
 345 008a 02D0     		beq	.L54
 346              		.loc 1 241 0
 347 008c 3846     		mov	r0, r7
 348              	.LVL36:
 349 008e FFF7FEFF 		bl	pbuf_free
 350              	.LVL37:
 351              	.L54:
 352              		.loc 1 243 0
 353 0092 FC24     		movs	r4, #252
 354              	.LVL38:
 355 0094 E5E7     		b	.L35
 356              	.LVL39:
 357              	.L55:
 358              		.loc 1 223 0
 359 0096 2946     		mov	r1, r5
 360 0098 FFF7FEFF 		bl	pbuf_chain
 361              	.LVL40:
 362 009c C7E7     		b	.L36
 363              	.LVL41:
 364              	.L57:
 365              		.loc 1 231 0 discriminator 1
 366 009e FFF7FEFF 		bl	port_halt
 367              	.LVL42:
 368              		.loc 1 232 0 discriminator 1
 369 00a2 FF24     		movs	r4, #255
 370              	.LVL43:
 371 00a4 DDE7     		b	.L35
 372              	.LVL44:
 373              	.L43:
 374              		.loc 1 219 0
 375 00a6 FF24     		movs	r4, #255
 376              	.LVL45:
 377 00a8 DBE7     		b	.L35
 378              		.cfi_endproc
 379              	.LFE11:
 380              		.size	raw_sendto, .-raw_sendto
 381 00aa 00BFAFF3 		.section	.text.raw_send,"ax",%progbits
 381      0080
 382              		.align	2
 383              		.p2align 4,,15
 384              		.global	raw_send
 385              		.thumb
 386              		.thumb_func
 387              		.type	raw_send, %function
 388              	raw_send:
 389              	.LFB12:
 390              		.loc 1 291 0
 391              		.cfi_startproc
 392              		@ args = 0, pretend = 0, frame = 0
 393              		@ frame_needed = 0, uses_anonymous_args = 0
ARM GAS  /tmp/ccjeJkLZ.s 			page 8


 394              		@ link register save eliminated.
 395              	.LVL46:
 396              		.loc 1 292 0
 397 0000 021D     		adds	r2, r0, #4
 398              		.loc 1 293 0
 399              		.loc 1 292 0
 400 0002 FFF7FEBF 		b	raw_sendto
 401              	.LVL47:
 402              		.cfi_endproc
 403              	.LFE12:
 404              		.size	raw_send, .-raw_send
 405 0006 00BFAFF3 		.section	.text.raw_remove,"ax",%progbits
 405      0080AFF3 
 405      0080
 406              		.align	2
 407              		.p2align 4,,15
 408              		.global	raw_remove
 409              		.thumb
 410              		.thumb_func
 411              		.type	raw_remove, %function
 412              	raw_remove:
 413              	.LFB13:
 414              		.loc 1 305 0
 415              		.cfi_startproc
 416              		@ args = 0, pretend = 0, frame = 0
 417              		@ frame_needed = 0, uses_anonymous_args = 0
 418              		@ link register save eliminated.
 419              	.LVL48:
 420              		.loc 1 308 0
 421 0000 0B4B     		ldr	r3, .L74
 422 0002 1A68     		ldr	r2, [r3, #0]
 423 0004 8242     		cmp	r2, r0
 424              		.loc 1 305 0
 425 0006 0146     		mov	r1, r0
 426              		.loc 1 308 0
 427 0008 0FD0     		beq	.L60
 428              	.LVL49:
 429              		.loc 1 313 0 discriminator 1
 430 000a 1AB9     		cbnz	r2, .L71
 431 000c 05E0     		b	.L63
 432              	.LVL50:
 433              	.L73:
 434              		.loc 1 315 0 discriminator 1
 435 000e 9942     		cmp	r1, r3
 436 0010 06D0     		beq	.L72
 437              	.L64:
 438              		.loc 1 305 0
 439 0012 1A46     		mov	r2, r3
 440              	.L71:
 441              		.loc 1 315 0
 442 0014 D368     		ldr	r3, [r2, #12]
 443 0016 002B     		cmp	r3, #0
 444 0018 F9D1     		bne	.L73
 445              	.L63:
 446              		.loc 1 321 0
 447 001a 0020     		movs	r0, #0
 448              	.LVL51:
ARM GAS  /tmp/ccjeJkLZ.s 			page 9


 449              		.loc 1 322 0
 450              		.loc 1 321 0
 451 001c FFF7FEBF 		b	memp_free
 452              	.LVL52:
 453              	.L72:
 454              		.loc 1 317 0
 455 0020 CB68     		ldr	r3, [r1, #12]
 456 0022 D360     		str	r3, [r2, #12]
 457              	.LVL53:
 458              		.loc 1 313 0
 459 0024 002B     		cmp	r3, #0
 460 0026 F4D1     		bne	.L64
 461 0028 F7E7     		b	.L63
 462              	.LVL54:
 463              	.L60:
 464              		.loc 1 310 0
 465 002a C268     		ldr	r2, [r0, #12]
 466 002c 1A60     		str	r2, [r3, #0]
 467 002e F4E7     		b	.L63
 468              	.L75:
 469              		.align	2
 470              	.L74:
 471 0030 00000000 		.word	.LANCHOR0
 472              		.cfi_endproc
 473              	.LFE13:
 474              		.size	raw_remove, .-raw_remove
 475 0034 AFF30080 		.section	.text.raw_new,"ax",%progbits
 475      AFF30080 
 475      AFF30080 
 476              		.align	2
 477              		.p2align 4,,15
 478              		.global	raw_new
 479              		.thumb
 480              		.thumb_func
 481              		.type	raw_new, %function
 482              	raw_new:
 483              	.LFB14:
 484              		.loc 1 336 0
 485              		.cfi_startproc
 486              		@ args = 0, pretend = 0, frame = 0
 487              		@ frame_needed = 0, uses_anonymous_args = 0
 488              	.LVL55:
 489 0000 38B5     		push	{r3, r4, r5, lr}
 490              	.LCFI3:
 491              		.cfi_def_cfa_offset 16
 492              		.cfi_offset 3, -16
 493              		.cfi_offset 4, -12
 494              		.cfi_offset 5, -8
 495              		.cfi_offset 14, -4
 496              		.loc 1 336 0
 497 0002 0546     		mov	r5, r0
 498              		.loc 1 341 0
 499 0004 0020     		movs	r0, #0
 500              	.LVL56:
 501 0006 FFF7FEFF 		bl	memp_malloc
 502              	.LVL57:
 503              		.loc 1 343 0
ARM GAS  /tmp/ccjeJkLZ.s 			page 10


 504 000a 0446     		mov	r4, r0
 505 000c 50B1     		cbz	r0, .L77
 506              		.loc 1 345 0
 507 000e 1C22     		movs	r2, #28
 508 0010 0021     		movs	r1, #0
 509 0012 FFF7FEFF 		bl	memset
 510              	.LVL58:
 511              		.loc 1 348 0
 512 0016 044B     		ldr	r3, .L81
 513              		.loc 1 346 0
 514 0018 2574     		strb	r5, [r4, #16]
 515              		.loc 1 348 0
 516 001a 1A68     		ldr	r2, [r3, #0]
 517              		.loc 1 349 0
 518 001c 1C60     		str	r4, [r3, #0]
 519              		.loc 1 347 0
 520 001e FF23     		movs	r3, #255
 521 0020 A372     		strb	r3, [r4, #10]
 522              		.loc 1 348 0
 523 0022 E260     		str	r2, [r4, #12]
 524              	.L77:
 525              		.loc 1 352 0
 526 0024 2046     		mov	r0, r4
 527 0026 38BD     		pop	{r3, r4, r5, pc}
 528              	.L82:
 529              		.align	2
 530              	.L81:
 531 0028 00000000 		.word	.LANCHOR0
 532              		.cfi_endproc
 533              	.LFE14:
 534              		.size	raw_new, .-raw_new
 535 002c AFF30080 		.section	.bss.raw_pcbs,"aw",%nobits
 536              		.align	2
 537              		.set	.LANCHOR0,. + 0
 538              		.type	raw_pcbs, %object
 539              		.size	raw_pcbs, 4
 540              	raw_pcbs:
 541 0000 00000000 		.space	4
 542              		.text
 543              	.Letext0:
 544              		.file 2 "/opt/psas/x-tools/stm32f407/arm-psas-eabi/bin/../lib/gcc/arm-psas-eabi/4.7.2/../../../../
 545              		.file 3 "../../os/various/lwip_bindings/arch/cc.h"
 546              		.file 4 "../../ext/lwip/src/include/lwip/memp.h"
 547              		.file 5 "../../ext/lwip/src/include/ipv4/lwip/ip_addr.h"
 548              		.file 6 "../../ext/lwip/src/include/lwip/err.h"
 549              		.file 7 "../../ext/lwip/src/include/lwip/pbuf.h"
 550              		.file 8 "../../ext/lwip/src/include/lwip/netif.h"
 551              		.file 9 "../../ext/lwip/src/include/ipv4/lwip/ip.h"
 552              		.file 10 "../../ext/lwip/src/include/lwip/raw.h"
 553              		.file 11 "../../os/ports/GCC/ARMCMx/chcore_v7m.h"