ARM GAS  /tmp/ccABRZiX.s 			page 1


   1              		.syntax unified
   2              		.cpu cortex-m4
   3              		.eabi_attribute 27, 3
   4              		.eabi_attribute 28, 1
   5              		.fpu fpv4-sp-d16
   6              		.eabi_attribute 20, 1
   7              		.eabi_attribute 21, 1
   8              		.eabi_attribute 23, 3
   9              		.eabi_attribute 24, 1
  10              		.eabi_attribute 25, 1
  11              		.eabi_attribute 26, 1
  12              		.eabi_attribute 30, 2
  13              		.eabi_attribute 34, 1
  14              		.eabi_attribute 18, 4
  15              		.thumb
  16              		.file	"sdc.c"
  17              		.text
  18              	.Ltext0:
  19              		.cfi_sections	.debug_frame
  20              		.section	.text.sdcGetInfo,"ax",%progbits
  21              		.align	2
  22              		.p2align 4,,15
  23              		.global	sdcGetInfo
  24              		.thumb
  25              		.thumb_func
  26              		.type	sdcGetInfo, %function
  27              	sdcGetInfo:
  28              	.LFB129:
  29              		.file 1 "../../os/hal/src/sdc.c"
  30              		.loc 1 492 0
  31              		.cfi_startproc
  32              		@ args = 0, pretend = 0, frame = 0
  33              		@ frame_needed = 0, uses_anonymous_args = 0
  34              		@ link register save eliminated.
  35              	.LVL0:
  36              		.loc 1 496 0
  37 0000 0379     		ldrb	r3, [r0, #4]	@ zero_extendqisi2
  38 0002 052B     		cmp	r3, #5
  39 0004 01D0     		beq	.L5
  40              		.loc 1 497 0
  41 0006 0120     		movs	r0, #1
  42              	.LVL1:
  43              		.loc 1 503 0
  44 0008 7047     		bx	lr
  45              	.LVL2:
  46              	.L5:
  47              		.loc 1 499 0
  48 000a 836A     		ldr	r3, [r0, #40]
  49 000c 4B60     		str	r3, [r1, #4]
  50              		.loc 1 500 0
  51 000e 4FF40073 		mov	r3, #512
  52 0012 0B60     		str	r3, [r1, #0]
  53              		.loc 1 502 0
  54 0014 0020     		movs	r0, #0
  55              	.LVL3:
  56 0016 7047     		bx	lr
  57              		.cfi_endproc
ARM GAS  /tmp/ccABRZiX.s 			page 2


  58              	.LFE129:
  59              		.size	sdcGetInfo, .-sdcGetInfo
  60 0018 AFF30080 		.section	.text.sdcSync,"ax",%progbits
  60      AFF30080 
  61              		.align	2
  62              		.p2align 4,,15
  63              		.global	sdcSync
  64              		.thumb
  65              		.thumb_func
  66              		.type	sdcSync, %function
  67              	sdcSync:
  68              	.LFB128:
  69              		.loc 1 470 0
  70              		.cfi_startproc
  71              		@ args = 0, pretend = 0, frame = 0
  72              		@ frame_needed = 0, uses_anonymous_args = 0
  73              		@ link register save eliminated.
  74              	.LVL4:
  75              		.loc 1 474 0
  76 0000 0379     		ldrb	r3, [r0, #4]	@ zero_extendqisi2
  77 0002 052B     		cmp	r3, #5
  78 0004 01D0     		beq	.L8
  79              		.loc 1 478 0
  80 0006 0120     		movs	r0, #1
  81              	.LVL5:
  82 0008 7047     		bx	lr
  83              	.LVL6:
  84              	.L8:
  85              		.loc 1 477 0
  86 000a FFF7FEBF 		b	sdc_lld_sync
  87              	.LVL7:
  88              		.cfi_endproc
  89              	.LFE128:
  90              		.size	sdcSync, .-sdcSync
  91 000e 00BF     		.section	.text.sdcConnect,"ax",%progbits
  92              		.align	2
  93              		.p2align 4,,15
  94              		.global	sdcConnect
  95              		.thumb
  96              		.thumb_func
  97              		.type	sdcConnect, %function
  98              	sdcConnect:
  99              	.LFB123:
 100              		.loc 1 191 0
 101              		.cfi_startproc
 102              		@ args = 0, pretend = 0, frame = 8
 103              		@ frame_needed = 0, uses_anonymous_args = 0
 104              	.LVL8:
 105 0000 2DE9F041 		push	{r4, r5, r6, r7, r8, lr}
 106              	.LCFI0:
 107              		.cfi_def_cfa_offset 24
 108              		.cfi_offset 4, -24
 109              		.cfi_offset 5, -20
 110              		.cfi_offset 6, -16
 111              		.cfi_offset 7, -12
 112              		.cfi_offset 8, -8
 113              		.cfi_offset 14, -4
ARM GAS  /tmp/ccABRZiX.s 			page 3


 114              		.loc 1 199 0
 115 0004 0323     		movs	r3, #3
 116              		.loc 1 191 0
 117 0006 82B0     		sub	sp, sp, #8
 118              	.LCFI1:
 119              		.cfi_def_cfa_offset 32
 120              		.loc 1 199 0
 121 0008 0371     		strb	r3, [r0, #4]
 122              		.loc 1 191 0
 123 000a 0546     		mov	r5, r0
 124              		.loc 1 202 0
 125 000c FFF7FEFF 		bl	sdc_lld_start_clk
 126              	.LVL9:
 127              		.loc 1 205 0
 128 0010 0021     		movs	r1, #0
 129 0012 0A46     		mov	r2, r1
 130 0014 2846     		mov	r0, r5
 131 0016 FFF7FEFF 		bl	sdc_lld_send_cmd_none
 132              	.LVL10:
 133              		.loc 1 208 0
 134 001a 4FF4D572 		mov	r2, #426
 135 001e 2846     		mov	r0, r5
 136 0020 0821     		movs	r1, #8
 137 0022 01AB     		add	r3, sp, #4
 138 0024 FFF7FEFF 		bl	sdc_lld_send_cmd_short_crc
 139              	.LVL11:
 140 0028 0246     		mov	r2, r0
 141 002a 78B9     		cbnz	r0, .L10
 142              		.loc 1 212 0
 143 002c 019B     		ldr	r3, [sp, #4]
 144              		.loc 1 210 0
 145 002e 0121     		movs	r1, #1
 146              		.loc 1 212 0
 147 0030 C3F30323 		ubfx	r3, r3, #8, #4
 148 0034 8B42     		cmp	r3, r1
 149              		.loc 1 210 0
 150 0036 2963     		str	r1, [r5, #48]
 151              		.loc 1 212 0
 152 0038 31D0     		beq	.L32
 153              	.L11:
 154              	.LDL1:
 155              		.loc 1 318 0
 156 003a 2846     		mov	r0, r5
 157 003c FFF7FEFF 		bl	sdc_lld_stop_clk
 158              	.LVL12:
 159              		.loc 1 319 0
 160 0040 0223     		movs	r3, #2
 161 0042 2B71     		strb	r3, [r5, #4]
 162              		.loc 1 320 0
 163 0044 0120     		movs	r0, #1
 164              	.L20:
 165              		.loc 1 321 0
 166 0046 02B0     		add	sp, sp, #8
 167 0048 BDE8F081 		pop	{r4, r5, r6, r7, r8, pc}
 168              	.L10:
 169              		.loc 1 226 0
 170 004c 0023     		movs	r3, #0
ARM GAS  /tmp/ccABRZiX.s 			page 4


 171 004e 2B63     		str	r3, [r5, #48]
 172              	.L13:
 173              	.LVL13:
 174              	.LBB5:
 175              		.loc 1 244 0
 176 0050 4FF00008 		mov	r8, #0
 177 0054 C8F21008 		movt	r8, 32784
 178              	.LVL14:
 179              	.L14:
 180 0058 6426     		movs	r6, #100
 181 005a 10E0     		b	.L17
 182              	.LVL15:
 183              	.L34:
 184              		.loc 1 250 0 discriminator 1
 185 005c 019F     		ldr	r7, [sp, #4]
 186 005e 3C40     		ands	r4, r4, r7
 187              		.loc 1 252 0 discriminator 1
 188 0060 2846     		mov	r0, r5
 189              		.loc 1 249 0 discriminator 1
 190 0062 002C     		cmp	r4, #0
 191 0064 E9D1     		bne	.L11
 192              	.LVL16:
 193              		.loc 1 252 0
 194 0066 FFF7FEFF 		bl	sdc_lld_send_cmd_short
 195              	.LVL17:
 196 006a 0028     		cmp	r0, #0
 197 006c E5D1     		bne	.L11
 198              		.loc 1 254 0
 199 006e 019B     		ldr	r3, [sp, #4]
 200 0070 002B     		cmp	r3, #0
 201 0072 2EDB     		blt	.L33
 202              		.loc 1 259 0
 203 0074 013E     		subs	r6, r6, #1
 204 0076 E0D0     		beq	.L11
 205              		.loc 1 261 0
 206 0078 0A20     		movs	r0, #10
 207 007a FFF7FEFF 		bl	chThdSleep
 208              	.LVL18:
 209              	.L17:
 210              		.loc 1 249 0
 211 007e 01AB     		add	r3, sp, #4
 212 0080 3721     		movs	r1, #55
 213 0082 0022     		movs	r2, #0
 214 0084 2846     		mov	r0, r5
 215 0086 FFF7FEFF 		bl	sdc_lld_send_cmd_short_crc
 216              	.LVL19:
 217              		.loc 1 250 0
 218 008a 4EF20804 		movw	r4, #57352
 219              		.loc 1 252 0
 220 008e 2921     		movs	r1, #41
 221 0090 4246     		mov	r2, r8
 222 0092 01AB     		add	r3, sp, #4
 223              		.loc 1 250 0
 224 0094 CFF6FF54 		movt	r4, 65023
 225              		.loc 1 249 0
 226 0098 0028     		cmp	r0, #0
 227 009a DFD0     		beq	.L34
ARM GAS  /tmp/ccABRZiX.s 			page 5


 228              	.LVL20:
 229 009c CDE7     		b	.L11
 230              	.LVL21:
 231              	.L32:
 232              	.LBE5:
 233              		.loc 1 214 0
 234 009e 2846     		mov	r0, r5
 235 00a0 3721     		movs	r1, #55
 236 00a2 01AB     		add	r3, sp, #4
 237 00a4 FFF7FEFF 		bl	sdc_lld_send_cmd_short_crc
 238              	.LVL22:
 239 00a8 0028     		cmp	r0, #0
 240 00aa C6D1     		bne	.L11
 241              		.loc 1 215 0 discriminator 1
 242 00ac 4EF20803 		movw	r3, #57352
 243 00b0 019A     		ldr	r2, [sp, #4]
 244 00b2 CFF6FF53 		movt	r3, 65023
 245 00b6 1340     		ands	r3, r3, r2
 246              		.loc 1 214 0 discriminator 1
 247 00b8 002B     		cmp	r3, #0
 248 00ba BED1     		bne	.L11
 249              	.LBB6:
 250              		.loc 1 241 0
 251 00bc 2B6B     		ldr	r3, [r5, #48]
 252 00be 03F00F03 		and	r3, r3, #15
 253 00c2 012B     		cmp	r3, #1
 254              		.loc 1 242 0
 255 00c4 04BF     		itt	eq
 256 00c6 4FF00008 		moveq	r8, #0
 257 00ca CCF21008 		movteq	r8, 49168
 258              		.loc 1 241 0
 259 00ce C3D0     		beq	.L14
 260 00d0 BEE7     		b	.L13
 261              	.LVL23:
 262              	.L33:
 263              		.loc 1 255 0
 264 00d2 5B00     		lsls	r3, r3, #1
 265 00d4 03D5     		bpl	.L16
 266              		.loc 1 256 0
 267 00d6 2B6B     		ldr	r3, [r5, #48]
 268 00d8 43F01003 		orr	r3, r3, #16
 269 00dc 2B63     		str	r3, [r5, #48]
 270              	.L16:
 271              	.LBE6:
 272              		.loc 1 266 0
 273 00de 0022     		movs	r2, #0
 274 00e0 2846     		mov	r0, r5
 275 00e2 0221     		movs	r1, #2
 276 00e4 05F10803 		add	r3, r5, #8
 277 00e8 FFF7FEFF 		bl	sdc_lld_send_cmd_long_crc
 278              	.LVL24:
 279 00ec 0246     		mov	r2, r0
 280 00ee 0028     		cmp	r0, #0
 281 00f0 A3D1     		bne	.L11
 282              		.loc 1 270 0
 283 00f2 2846     		mov	r0, r5
 284 00f4 0321     		movs	r1, #3
ARM GAS  /tmp/ccABRZiX.s 			page 6


 285 00f6 05F13803 		add	r3, r5, #56
 286 00fa FFF7FEFF 		bl	sdc_lld_send_cmd_short_crc
 287              	.LVL25:
 288 00fe 0028     		cmp	r0, #0
 289 0100 9BD1     		bne	.L11
 290              		.loc 1 276 0
 291 0102 05F11804 		add	r4, r5, #24
 292              		.loc 1 275 0
 293 0106 2846     		mov	r0, r5
 294 0108 0921     		movs	r1, #9
 295 010a AA6B     		ldr	r2, [r5, #56]
 296 010c 2346     		mov	r3, r4
 297 010e FFF7FEFF 		bl	sdc_lld_send_cmd_long_crc
 298              	.LVL26:
 299 0112 0028     		cmp	r0, #0
 300 0114 91D1     		bne	.L11
 301              		.loc 1 280 0
 302 0116 2846     		mov	r0, r5
 303 0118 FFF7FEFF 		bl	sdc_lld_set_data_clk
 304              	.LVL27:
 305              		.loc 1 283 0
 306 011c 2846     		mov	r0, r5
 307 011e 0721     		movs	r1, #7
 308 0120 AA6B     		ldr	r2, [r5, #56]
 309 0122 01AB     		add	r3, sp, #4
 310 0124 FFF7FEFF 		bl	sdc_lld_send_cmd_short_crc
 311              	.LVL28:
 312 0128 0028     		cmp	r0, #0
 313 012a 86D1     		bne	.L11
 314              		.loc 1 288 0
 315 012c 2846     		mov	r0, r5
 316 012e 1021     		movs	r1, #16
 317 0130 4FF40072 		mov	r2, #512
 318 0134 01AB     		add	r3, sp, #4
 319 0136 FFF7FEFF 		bl	sdc_lld_send_cmd_short_crc
 320              	.LVL29:
 321 013a 0028     		cmp	r0, #0
 322 013c 7FF47DAF 		bne	.L11
 323              		.loc 1 290 0
 324 0140 4EF20802 		movw	r2, #57352
 325 0144 019B     		ldr	r3, [sp, #4]
 326 0146 CFF6FF52 		movt	r2, 65023
 327 014a 1A40     		ands	r2, r2, r3
 328              		.loc 1 289 0
 329 014c 002A     		cmp	r2, #0
 330 014e 7FF474AF 		bne	.L11
 331              		.loc 1 294 0
 332 0152 2B6B     		ldr	r3, [r5, #48]
 333 0154 03F00F03 		and	r3, r3, #15
 334 0158 012B     		cmp	r3, #1
 335 015a 27D8     		bhi	.L18
 336              		.loc 1 297 0
 337 015c 0121     		movs	r1, #1
 338 015e 2846     		mov	r0, r5
 339 0160 FFF7FEFF 		bl	sdc_lld_set_bus_mode
 340              	.LVL30:
 341              		.loc 1 298 0
ARM GAS  /tmp/ccABRZiX.s 			page 7


 342 0164 2846     		mov	r0, r5
 343 0166 3721     		movs	r1, #55
 344 0168 AA6B     		ldr	r2, [r5, #56]
 345 016a 01AB     		add	r3, sp, #4
 346 016c FFF7FEFF 		bl	sdc_lld_send_cmd_short_crc
 347              	.LVL31:
 348 0170 0028     		cmp	r0, #0
 349 0172 7FF462AF 		bne	.L11
 350              		.loc 1 299 0 discriminator 1
 351 0176 4EF20802 		movw	r2, #57352
 352 017a 019B     		ldr	r3, [sp, #4]
 353 017c CFF6FF52 		movt	r2, 65023
 354 0180 1A40     		ands	r2, r2, r3
 355              		.loc 1 298 0 discriminator 1
 356 0182 002A     		cmp	r2, #0
 357 0184 7FF459AF 		bne	.L11
 358              		.loc 1 301 0
 359 0188 2846     		mov	r0, r5
 360 018a 0621     		movs	r1, #6
 361 018c 0222     		movs	r2, #2
 362 018e 01AB     		add	r3, sp, #4
 363 0190 FFF7FEFF 		bl	sdc_lld_send_cmd_short_crc
 364              	.LVL32:
 365 0194 0028     		cmp	r0, #0
 366 0196 7FF450AF 		bne	.L11
 367              		.loc 1 302 0 discriminator 1
 368 019a 4EF20802 		movw	r2, #57352
 369 019e 019B     		ldr	r3, [sp, #4]
 370 01a0 CFF6FF52 		movt	r2, 65023
 371 01a4 1A40     		ands	r2, r2, r3
 372              		.loc 1 301 0 discriminator 1
 373 01a6 002A     		cmp	r2, #0
 374 01a8 7FF447AF 		bne	.L11
 375              	.L18:
 376              		.loc 1 308 0
 377 01ac 2046     		mov	r0, r4
 378 01ae FFF7FEFF 		bl	mmcsdGetCapacity
 379              	.LVL33:
 380 01b2 A862     		str	r0, [r5, #40]
 381              		.loc 1 309 0
 382 01b4 0028     		cmp	r0, #0
 383 01b6 3FF440AF 		beq	.L11
 384              		.loc 1 313 0
 385 01ba 0523     		movs	r3, #5
 386 01bc 2B71     		strb	r3, [r5, #4]
 387              		.loc 1 314 0
 388 01be 0020     		movs	r0, #0
 389 01c0 41E7     		b	.L20
 390              		.cfi_endproc
 391              	.LFE123:
 392              		.size	sdcConnect, .-sdcConnect
 393 01c2 00BFAFF3 		.section	.text.sdcWrite,"ax",%progbits
 393      0080AFF3 
 393      0080AFF3 
 393      0080
 394              		.align	2
 395              		.p2align 4,,15
ARM GAS  /tmp/ccABRZiX.s 			page 8


 396              		.global	sdcWrite
 397              		.thumb
 398              		.thumb_func
 399              		.type	sdcWrite, %function
 400              	sdcWrite:
 401              	.LFB126:
 402              		.loc 1 416 0
 403              		.cfi_startproc
 404              		@ args = 0, pretend = 0, frame = 0
 405              		@ frame_needed = 0, uses_anonymous_args = 0
 406              	.LVL34:
 407 0000 70B5     		push	{r4, r5, r6, lr}
 408              	.LCFI2:
 409              		.cfi_def_cfa_offset 16
 410              		.cfi_offset 4, -16
 411              		.cfi_offset 5, -12
 412              		.cfi_offset 6, -8
 413              		.cfi_offset 14, -4
 414              		.loc 1 422 0
 415 0002 4E1E     		subs	r6, r1, #1
 416 0004 856A     		ldr	r5, [r0, #40]
 417 0006 F618     		adds	r6, r6, r3
 418 0008 AE42     		cmp	r6, r5
 419              		.loc 1 416 0
 420 000a 0446     		mov	r4, r0
 421              		.loc 1 422 0
 422 000c 05D9     		bls	.L36
 423              		.loc 1 423 0
 424 000e 436B     		ldr	r3, [r0, #52]
 425              	.LVL35:
 426 0010 43F08003 		orr	r3, r3, #128
 427 0014 4363     		str	r3, [r0, #52]
 428              		.loc 1 424 0
 429 0016 0120     		movs	r0, #1
 430              	.LVL36:
 431 0018 70BD     		pop	{r4, r5, r6, pc}
 432              	.LVL37:
 433              	.L36:
 434              	.LBB9:
 435              	.LBB10:
 436              		.loc 1 428 0
 437 001a 0725     		movs	r5, #7
 438 001c 0571     		strb	r5, [r0, #4]
 439              		.loc 1 430 0
 440 001e FFF7FEFF 		bl	sdc_lld_write
 441              	.LVL38:
 442              		.loc 1 433 0
 443 0022 0523     		movs	r3, #5
 444 0024 2371     		strb	r3, [r4, #4]
 445              	.LBE10:
 446              	.LBE9:
 447              		.loc 1 435 0
 448 0026 70BD     		pop	{r4, r5, r6, pc}
 449              		.cfi_endproc
 450              	.LFE126:
 451              		.size	sdcWrite, .-sdcWrite
 452 0028 AFF30080 		.section	.text.sdcRead,"ax",%progbits
ARM GAS  /tmp/ccABRZiX.s 			page 9


 452      AFF30080 
 453              		.align	2
 454              		.p2align 4,,15
 455              		.global	sdcRead
 456              		.thumb
 457              		.thumb_func
 458              		.type	sdcRead, %function
 459              	sdcRead:
 460              	.LFB125:
 461              		.loc 1 378 0
 462              		.cfi_startproc
 463              		@ args = 0, pretend = 0, frame = 0
 464              		@ frame_needed = 0, uses_anonymous_args = 0
 465              	.LVL39:
 466 0000 70B5     		push	{r4, r5, r6, lr}
 467              	.LCFI3:
 468              		.cfi_def_cfa_offset 16
 469              		.cfi_offset 4, -16
 470              		.cfi_offset 5, -12
 471              		.cfi_offset 6, -8
 472              		.cfi_offset 14, -4
 473              		.loc 1 384 0
 474 0002 4E1E     		subs	r6, r1, #1
 475 0004 856A     		ldr	r5, [r0, #40]
 476 0006 F618     		adds	r6, r6, r3
 477 0008 AE42     		cmp	r6, r5
 478              		.loc 1 378 0
 479 000a 0446     		mov	r4, r0
 480              		.loc 1 384 0
 481 000c 05D9     		bls	.L39
 482              		.loc 1 385 0
 483 000e 436B     		ldr	r3, [r0, #52]
 484              	.LVL40:
 485 0010 43F08003 		orr	r3, r3, #128
 486 0014 4363     		str	r3, [r0, #52]
 487              		.loc 1 386 0
 488 0016 0120     		movs	r0, #1
 489              	.LVL41:
 490 0018 70BD     		pop	{r4, r5, r6, pc}
 491              	.LVL42:
 492              	.L39:
 493              	.LBB13:
 494              	.LBB14:
 495              		.loc 1 390 0
 496 001a 0625     		movs	r5, #6
 497 001c 0571     		strb	r5, [r0, #4]
 498              		.loc 1 392 0
 499 001e FFF7FEFF 		bl	sdc_lld_read
 500              	.LVL43:
 501              		.loc 1 395 0
 502 0022 0523     		movs	r3, #5
 503 0024 2371     		strb	r3, [r4, #4]
 504              	.LBE14:
 505              	.LBE13:
 506              		.loc 1 397 0
 507 0026 70BD     		pop	{r4, r5, r6, pc}
 508              		.cfi_endproc
ARM GAS  /tmp/ccABRZiX.s 			page 10


 509              	.LFE125:
 510              		.size	sdcRead, .-sdcRead
 511 0028 AFF30080 		.section	.text._sdc_wait_for_transfer_state,"ax",%progbits
 511      AFF30080 
 512              		.align	2
 513              		.p2align 4,,15
 514              		.global	_sdc_wait_for_transfer_state
 515              		.thumb
 516              		.thumb_func
 517              		.type	_sdc_wait_for_transfer_state, %function
 518              	_sdc_wait_for_transfer_state:
 519              	.LFB118:
 520              		.loc 1 75 0
 521              		.cfi_startproc
 522              		@ args = 0, pretend = 0, frame = 8
 523              		@ frame_needed = 0, uses_anonymous_args = 0
 524              	.LVL44:
 525 0000 10B5     		push	{r4, lr}
 526              	.LCFI4:
 527              		.cfi_def_cfa_offset 8
 528              		.cfi_offset 4, -8
 529              		.cfi_offset 14, -4
 530 0002 0446     		mov	r4, r0
 531 0004 82B0     		sub	sp, sp, #8
 532              	.LCFI5:
 533              		.cfi_def_cfa_offset 16
 534              	.LVL45:
 535              	.L45:
 536              		.loc 1 79 0
 537 0006 01AB     		add	r3, sp, #4
 538 0008 2046     		mov	r0, r4
 539 000a 0D21     		movs	r1, #13
 540 000c A26B     		ldr	r2, [r4, #56]
 541 000e FFF7FEFF 		bl	sdc_lld_send_cmd_short_crc
 542              	.LVL46:
 543              		.loc 1 81 0
 544 0012 4EF20803 		movw	r3, #57352
 545 0016 CFF6FF53 		movt	r3, 65023
 546              		.loc 1 79 0
 547 001a 38B9     		cbnz	r0, .L48
 548              		.loc 1 81 0
 549 001c 019A     		ldr	r2, [sp, #4]
 550 001e 1340     		ands	r3, r3, r2
 551              		.loc 1 83 0
 552 0020 C2F34321 		ubfx	r1, r2, #9, #4
 553              		.loc 1 80 0
 554 0024 13B9     		cbnz	r3, .L48
 555              		.loc 1 83 0
 556 0026 0429     		cmp	r1, #4
 557 0028 09D0     		beq	.L43
 558 002a 02D2     		bcs	.L50
 559              	.L48:
 560              		.loc 1 96 0
 561 002c 0120     		movs	r0, #1
 562              	.L42:
 563              		.loc 1 101 0
 564 002e 02B0     		add	sp, sp, #8
ARM GAS  /tmp/ccABRZiX.s 			page 11


 565 0030 10BD     		pop	{r4, pc}
 566              	.L50:
 567              		.loc 1 83 0
 568 0032 0729     		cmp	r1, #7
 569 0034 FAD8     		bhi	.L48
 570              		.loc 1 90 0
 571 0036 0120     		movs	r0, #1
 572 0038 FFF7FEFF 		bl	chThdSleep
 573              	.LVL47:
 574              		.loc 1 98 0
 575 003c E3E7     		b	.L45
 576              	.L43:
 577              		.loc 1 85 0
 578 003e 1846     		mov	r0, r3
 579 0040 F5E7     		b	.L42
 580              		.cfi_endproc
 581              	.LFE118:
 582              		.size	_sdc_wait_for_transfer_state, .-_sdc_wait_for_transfer_state
 583 0042 00BFAFF3 		.section	.text.sdcDisconnect,"ax",%progbits
 583      0080AFF3 
 583      0080AFF3 
 583      0080
 584              		.align	2
 585              		.p2align 4,,15
 586              		.global	sdcDisconnect
 587              		.thumb
 588              		.thumb_func
 589              		.type	sdcDisconnect, %function
 590              	sdcDisconnect:
 591              	.LFB124:
 592              		.loc 1 334 0
 593              		.cfi_startproc
 594              		@ args = 0, pretend = 0, frame = 0
 595              		@ frame_needed = 0, uses_anonymous_args = 0
 596              	.LVL48:
 597 0000 38B5     		push	{r3, r4, r5, lr}
 598              	.LCFI6:
 599              		.cfi_def_cfa_offset 16
 600              		.cfi_offset 3, -16
 601              		.cfi_offset 4, -12
 602              		.cfi_offset 5, -8
 603              		.cfi_offset 14, -4
 604              		.loc 1 334 0
 605 0002 0446     		mov	r4, r0
 606              	.LBB22:
 607              		.loc 1 338 0
 608 0004 2023     		movs	r3, #32
 609              	.LVL49:
 610              	@ 338 "../../os/hal/src/sdc.c" 1
 611 0006 83F31188 		msr     BASEPRI, r3
 612              	@ 0 "" 2
 613              	.LVL50:
 614              		.thumb
 615              	.LBE22:
 616              		.loc 1 341 0
 617 000a 0379     		ldrb	r3, [r0, #4]	@ zero_extendqisi2
 618              	.LVL51:
ARM GAS  /tmp/ccABRZiX.s 			page 12


 619 000c 022B     		cmp	r3, #2
 620 000e 15D0     		beq	.L56
 621              	.LVL52:
 622              	.LBB23:
 623              	.LBB24:
 624              		.loc 1 345 0
 625 0010 0423     		movs	r3, #4
 626 0012 0371     		strb	r3, [r0, #4]
 627              	.LBB25:
 628              		.loc 1 346 0
 629 0014 0023     		movs	r3, #0
 630              	.LVL53:
 631              	@ 346 "../../os/hal/src/sdc.c" 1
 632 0016 83F31188 		msr     BASEPRI, r3
 633              	@ 0 "" 2
 634              	.LVL54:
 635              		.thumb
 636              	.LBE25:
 637              		.loc 1 349 0
 638 001a FFF7FEFF 		bl	_sdc_wait_for_transfer_state
 639              	.LVL55:
 640 001e 0546     		mov	r5, r0
 641              		.loc 1 350 0
 642 0020 2046     		mov	r0, r4
 643              		.loc 1 349 0
 644 0022 2DB9     		cbnz	r5, .L57
 645              		.loc 1 356 0
 646 0024 FFF7FEFF 		bl	sdc_lld_stop_clk
 647              	.LVL56:
 648              		.loc 1 357 0
 649 0028 0223     		movs	r3, #2
 650 002a 2371     		strb	r3, [r4, #4]
 651              		.loc 1 358 0
 652 002c 2846     		mov	r0, r5
 653              	.LBE24:
 654              	.LBE23:
 655              		.loc 1 359 0
 656 002e 38BD     		pop	{r3, r4, r5, pc}
 657              	.LVL57:
 658              	.L57:
 659              	.LBB27:
 660              	.LBB26:
 661              		.loc 1 350 0
 662 0030 FFF7FEFF 		bl	sdc_lld_stop_clk
 663              	.LVL58:
 664              		.loc 1 351 0
 665 0034 0223     		movs	r3, #2
 666 0036 2371     		strb	r3, [r4, #4]
 667              		.loc 1 352 0
 668 0038 0120     		movs	r0, #1
 669 003a 38BD     		pop	{r3, r4, r5, pc}
 670              	.LVL59:
 671              	.L56:
 672              	.LBE26:
 673              	.LBE27:
 674              	.LBB28:
 675              		.loc 1 342 0
ARM GAS  /tmp/ccABRZiX.s 			page 13


 676 003c 0023     		movs	r3, #0
 677              	.LVL60:
 678              	@ 342 "../../os/hal/src/sdc.c" 1
 679 003e 83F31188 		msr     BASEPRI, r3
 680              	@ 0 "" 2
 681              	.LVL61:
 682              		.thumb
 683              	.LBE28:
 684              		.loc 1 343 0
 685 0042 1846     		mov	r0, r3
 686              	.LVL62:
 687 0044 38BD     		pop	{r3, r4, r5, pc}
 688              		.cfi_endproc
 689              	.LFE124:
 690              		.size	sdcDisconnect, .-sdcDisconnect
 691 0046 00BFAFF3 		.section	.text.sdcInit,"ax",%progbits
 691      0080AFF3 
 691      0080
 692              		.align	2
 693              		.p2align 4,,15
 694              		.global	sdcInit
 695              		.thumb
 696              		.thumb_func
 697              		.type	sdcInit, %function
 698              	sdcInit:
 699              	.LFB119:
 700              		.loc 1 114 0
 701              		.cfi_startproc
 702              		@ args = 0, pretend = 0, frame = 0
 703              		@ frame_needed = 0, uses_anonymous_args = 0
 704              		@ link register save eliminated.
 705              		.loc 1 117 0
 706              		.loc 1 116 0
 707 0000 FFF7FEBF 		b	sdc_lld_init
 708              	.LVL63:
 709              		.cfi_endproc
 710              	.LFE119:
 711              		.size	sdcInit, .-sdcInit
 712 0004 AFF30080 		.section	.text.sdcObjectInit,"ax",%progbits
 712      AFF30080 
 712      AFF30080 
 713              		.align	2
 714              		.p2align 4,,15
 715              		.global	sdcObjectInit
 716              		.thumb
 717              		.thumb_func
 718              		.type	sdcObjectInit, %function
 719              	sdcObjectInit:
 720              	.LFB120:
 721              		.loc 1 126 0
 722              		.cfi_startproc
 723              		@ args = 0, pretend = 0, frame = 0
 724              		@ frame_needed = 0, uses_anonymous_args = 0
 725              		@ link register save eliminated.
 726              	.LVL64:
 727              		.loc 1 128 0
 728 0000 40F20002 		movw	r2, #:lower16:.LANCHOR0
ARM GAS  /tmp/ccABRZiX.s 			page 14


 729 0004 C0F20002 		movt	r2, #:upper16:.LANCHOR0
 730              		.loc 1 130 0
 731 0008 0023     		movs	r3, #0
 732              		.loc 1 128 0
 733 000a 0260     		str	r2, [r0, #0]
 734              		.loc 1 129 0
 735 000c 0122     		movs	r2, #1
 736 000e 0271     		strb	r2, [r0, #4]
 737              		.loc 1 130 0
 738 0010 4363     		str	r3, [r0, #52]
 739              		.loc 1 131 0
 740 0012 C362     		str	r3, [r0, #44]
 741              		.loc 1 132 0
 742 0014 8362     		str	r3, [r0, #40]
 743 0016 7047     		bx	lr
 744              		.cfi_endproc
 745              	.LFE120:
 746              		.size	sdcObjectInit, .-sdcObjectInit
 747 0018 AFF30080 		.section	.text.sdcStart,"ax",%progbits
 747      AFF30080 
 748              		.align	2
 749              		.p2align 4,,15
 750              		.global	sdcStart
 751              		.thumb
 752              		.thumb_func
 753              		.type	sdcStart, %function
 754              	sdcStart:
 755              	.LFB121:
 756              		.loc 1 145 0
 757              		.cfi_startproc
 758              		@ args = 0, pretend = 0, frame = 0
 759              		@ frame_needed = 0, uses_anonymous_args = 0
 760              	.LVL65:
 761 0000 10B5     		push	{r4, lr}
 762              	.LCFI7:
 763              		.cfi_def_cfa_offset 8
 764              		.cfi_offset 4, -8
 765              		.cfi_offset 14, -4
 766              	.LBB29:
 767              		.loc 1 149 0
 768 0002 2023     		movs	r3, #32
 769              	.LVL66:
 770              	.LBE29:
 771              		.loc 1 145 0
 772 0004 0446     		mov	r4, r0
 773              	.LBB30:
 774              		.loc 1 149 0
 775              	@ 149 "../../os/hal/src/sdc.c" 1
 776 0006 83F31188 		msr     BASEPRI, r3
 777              	@ 0 "" 2
 778              	.LVL67:
 779              		.thumb
 780              	.LBE30:
 781              		.loc 1 152 0
 782 000a C162     		str	r1, [r0, #44]
 783              		.loc 1 153 0
 784 000c FFF7FEFF 		bl	sdc_lld_start
ARM GAS  /tmp/ccABRZiX.s 			page 15


 785              	.LVL68:
 786              		.loc 1 154 0
 787 0010 0223     		movs	r3, #2
 788 0012 2371     		strb	r3, [r4, #4]
 789              	.LBB31:
 790              		.loc 1 155 0
 791 0014 0023     		movs	r3, #0
 792              	.LVL69:
 793              	@ 155 "../../os/hal/src/sdc.c" 1
 794 0016 83F31188 		msr     BASEPRI, r3
 795              	@ 0 "" 2
 796              	.LVL70:
 797              		.thumb
 798 001a 10BD     		pop	{r4, pc}
 799              	.LBE31:
 800              		.cfi_endproc
 801              	.LFE121:
 802              		.size	sdcStart, .-sdcStart
 803 001c AFF30080 		.section	.text.sdcStop,"ax",%progbits
 804              		.align	2
 805              		.p2align 4,,15
 806              		.global	sdcStop
 807              		.thumb
 808              		.thumb_func
 809              		.type	sdcStop, %function
 810              	sdcStop:
 811              	.LFB122:
 812              		.loc 1 165 0
 813              		.cfi_startproc
 814              		@ args = 0, pretend = 0, frame = 0
 815              		@ frame_needed = 0, uses_anonymous_args = 0
 816              	.LVL71:
 817 0000 10B5     		push	{r4, lr}
 818              	.LCFI8:
 819              		.cfi_def_cfa_offset 8
 820              		.cfi_offset 4, -8
 821              		.cfi_offset 14, -4
 822              	.LBB32:
 823              		.loc 1 169 0
 824 0002 2023     		movs	r3, #32
 825              	.LVL72:
 826              	.LBE32:
 827              		.loc 1 165 0
 828 0004 0446     		mov	r4, r0
 829              	.LBB33:
 830              		.loc 1 169 0
 831              	@ 169 "../../os/hal/src/sdc.c" 1
 832 0006 83F31188 		msr     BASEPRI, r3
 833              	@ 0 "" 2
 834              	.LVL73:
 835              		.thumb
 836              	.LBE33:
 837              		.loc 1 172 0
 838 000a FFF7FEFF 		bl	sdc_lld_stop
 839              	.LVL74:
 840              		.loc 1 173 0
 841 000e 0123     		movs	r3, #1
ARM GAS  /tmp/ccABRZiX.s 			page 16


 842 0010 2371     		strb	r3, [r4, #4]
 843              	.LBB34:
 844              		.loc 1 174 0
 845 0012 0023     		movs	r3, #0
 846              	.LVL75:
 847              	@ 174 "../../os/hal/src/sdc.c" 1
 848 0014 83F31188 		msr     BASEPRI, r3
 849              	@ 0 "" 2
 850              	.LVL76:
 851              		.thumb
 852 0018 10BD     		pop	{r4, pc}
 853              	.LBE34:
 854              		.cfi_endproc
 855              	.LFE122:
 856              		.size	sdcStop, .-sdcStop
 857 001a 00BFAFF3 		.section	.text.sdcGetAndClearErrors,"ax",%progbits
 857      0080
 858              		.align	2
 859              		.p2align 4,,15
 860              		.global	sdcGetAndClearErrors
 861              		.thumb
 862              		.thumb_func
 863              		.type	sdcGetAndClearErrors, %function
 864              	sdcGetAndClearErrors:
 865              	.LFB127:
 866              		.loc 1 445 0
 867              		.cfi_startproc
 868              		@ args = 0, pretend = 0, frame = 0
 869              		@ frame_needed = 0, uses_anonymous_args = 0
 870              		@ link register save eliminated.
 871              	.LVL77:
 872              		.loc 1 445 0
 873 0000 0246     		mov	r2, r0
 874              	.LBB35:
 875              		.loc 1 452 0
 876 0002 2023     		movs	r3, #32
 877              	.LVL78:
 878              	@ 452 "../../os/hal/src/sdc.c" 1
 879 0004 83F31188 		msr     BASEPRI, r3
 880              	@ 0 "" 2
 881              	.LVL79:
 882              		.thumb
 883              	.LBE35:
 884              		.loc 1 454 0
 885 0008 0023     		movs	r3, #0
 886              	.LVL80:
 887              		.loc 1 453 0
 888 000a 406B     		ldr	r0, [r0, #52]
 889              	.LVL81:
 890              		.loc 1 454 0
 891 000c 5363     		str	r3, [r2, #52]
 892              	.LBB36:
 893              		.loc 1 455 0
 894              	@ 455 "../../os/hal/src/sdc.c" 1
 895 000e 83F31188 		msr     BASEPRI, r3
 896              	@ 0 "" 2
 897              	.LVL82:
ARM GAS  /tmp/ccABRZiX.s 			page 17


 898              		.thumb
 899              	.LBE36:
 900              		.loc 1 457 0
 901 0012 7047     		bx	lr
 902              		.cfi_endproc
 903              	.LFE127:
 904              		.size	sdcGetAndClearErrors, .-sdcGetAndClearErrors
 905 0014 AFF30080 		.section	.text.sdcErase,"ax",%progbits
 905      AFF30080 
 905      AFF30080 
 906              		.align	2
 907              		.p2align 4,,15
 908              		.global	sdcErase
 909              		.thumb
 910              		.thumb_func
 911              		.type	sdcErase, %function
 912              	sdcErase:
 913              	.LFB130:
 914              		.loc 1 519 0
 915              		.cfi_startproc
 916              		@ args = 0, pretend = 0, frame = 8
 917              		@ frame_needed = 0, uses_anonymous_args = 0
 918              	.LVL83:
 919 0000 70B5     		push	{r4, r5, r6, lr}
 920              	.LCFI9:
 921              		.cfi_def_cfa_offset 16
 922              		.cfi_offset 4, -16
 923              		.cfi_offset 5, -12
 924              		.cfi_offset 6, -8
 925              		.cfi_offset 14, -4
 926              		.loc 1 526 0
 927 0002 036B     		ldr	r3, [r0, #48]
 928              		.loc 1 519 0
 929 0004 1646     		mov	r6, r2
 930              		.loc 1 526 0
 931 0006 DA06     		lsls	r2, r3, #27
 932              	.LVL84:
 933              		.loc 1 519 0
 934 0008 82B0     		sub	sp, sp, #8
 935              	.LCFI10:
 936              		.cfi_def_cfa_offset 24
 937              		.loc 1 519 0
 938 000a 0446     		mov	r4, r0
 939 000c 0D46     		mov	r5, r1
 940              		.loc 1 526 0
 941 000e 01D4     		bmi	.L64
 942              		.loc 1 527 0
 943 0010 4D02     		lsls	r5, r1, #9
 944              	.LVL85:
 945              		.loc 1 528 0
 946 0012 7602     		lsls	r6, r6, #9
 947              	.LVL86:
 948              	.L64:
 949              		.loc 1 531 0
 950 0014 2046     		mov	r0, r4
 951              	.LVL87:
 952 0016 FFF7FEFF 		bl	_sdc_wait_for_transfer_state
ARM GAS  /tmp/ccABRZiX.s 			page 18


 953              	.LVL88:
 954              		.loc 1 533 0
 955 001a 2046     		mov	r0, r4
 956 001c 2021     		movs	r1, #32
 957 001e 2A46     		mov	r2, r5
 958 0020 01AB     		add	r3, sp, #4
 959 0022 FFF7FEFF 		bl	sdc_lld_send_cmd_short_crc
 960              	.LVL89:
 961 0026 30B9     		cbnz	r0, .L67
 962              		.loc 1 535 0
 963 0028 4EF20803 		movw	r3, #57352
 964 002c 019A     		ldr	r2, [sp, #4]
 965 002e CFF6FF53 		movt	r3, 65023
 966 0032 1340     		ands	r3, r3, r2
 967              		.loc 1 534 0
 968 0034 13B1     		cbz	r3, .L68
 969              	.LVL90:
 970              	.L67:
 971              		.loc 1 536 0
 972 0036 0120     		movs	r0, #1
 973              	.L66:
 974              		.loc 1 555 0
 975 0038 02B0     		add	sp, sp, #8
 976 003a 70BD     		pop	{r4, r5, r6, pc}
 977              	.LVL91:
 978              	.L68:
 979              		.loc 1 538 0
 980 003c 2046     		mov	r0, r4
 981 003e 2121     		movs	r1, #33
 982 0040 3246     		mov	r2, r6
 983 0042 01AB     		add	r3, sp, #4
 984 0044 FFF7FEFF 		bl	sdc_lld_send_cmd_short_crc
 985              	.LVL92:
 986 0048 0028     		cmp	r0, #0
 987 004a F4D1     		bne	.L67
 988              		.loc 1 540 0
 989 004c 4EF20802 		movw	r2, #57352
 990 0050 019B     		ldr	r3, [sp, #4]
 991 0052 CFF6FF52 		movt	r2, 65023
 992 0056 1A40     		ands	r2, r2, r3
 993              		.loc 1 539 0
 994 0058 002A     		cmp	r2, #0
 995 005a ECD1     		bne	.L67
 996              		.loc 1 543 0
 997 005c 2046     		mov	r0, r4
 998 005e 2621     		movs	r1, #38
 999 0060 01AB     		add	r3, sp, #4
 1000 0062 FFF7FEFF 		bl	sdc_lld_send_cmd_short_crc
 1001              	.LVL93:
 1002 0066 0028     		cmp	r0, #0
 1003 0068 E5D1     		bne	.L67
 1004              		.loc 1 545 0
 1005 006a 4EF20805 		movw	r5, #57352
 1006              	.LVL94:
 1007 006e 019B     		ldr	r3, [sp, #4]
 1008 0070 CFF6FF55 		movt	r5, 65023
 1009 0074 1D40     		ands	r5, r5, r3
ARM GAS  /tmp/ccABRZiX.s 			page 19


 1010              		.loc 1 544 0
 1011 0076 002D     		cmp	r5, #0
 1012 0078 DDD1     		bne	.L67
 1013              		.loc 1 552 0
 1014 007a 2046     		mov	r0, r4
 1015 007c FFF7FEFF 		bl	_sdc_wait_for_transfer_state
 1016              	.LVL95:
 1017              		.loc 1 554 0
 1018 0080 2846     		mov	r0, r5
 1019 0082 D9E7     		b	.L66
 1020              		.cfi_endproc
 1021              	.LFE130:
 1022              		.size	sdcErase, .-sdcErase
 1023 0084 AFF30080 		.section	.rodata.sdc_vmt,"a",%progbits
 1023      AFF30080 
 1023      AFF30080 
 1024              		.align	2
 1025              		.set	.LANCHOR0,. + 0
 1026              		.type	sdc_vmt, %object
 1027              		.size	sdc_vmt, 32
 1028              	sdc_vmt:
 1029 0000 00000000 		.word	sdc_lld_is_card_inserted
 1030 0004 00000000 		.word	sdc_lld_is_write_protected
 1031 0008 00000000 		.word	sdcConnect
 1032 000c 00000000 		.word	sdcDisconnect
 1033 0010 00000000 		.word	sdcRead
 1034 0014 00000000 		.word	sdcWrite
 1035 0018 00000000 		.word	sdcSync
 1036 001c 00000000 		.word	sdcGetInfo
 1037              		.text
 1038              	.Letext0:
 1039              		.file 2 "/opt/psas/x-tools/stm32f407/arm-psas-eabi/bin/../lib/gcc/arm-psas-eabi/4.7.2/../../../../
 1040              		.file 3 "../../os/ports/GCC/ARMCMx/chtypes.h"
 1041              		.file 4 "../../os/kernel/include/chlists.h"
 1042              		.file 5 "../../os/kernel/include/chthreads.h"
 1043              		.file 6 "../../os/ports/GCC/ARMCMx/chcore_v7m.h"
 1044              		.file 7 "../../os/kernel/include/chmtx.h"
 1045              		.file 8 "../../os/hal/platforms/STM32F4xx/stm32f4xx.h"
 1046              		.file 9 "../../os/hal/platforms/STM32F4xx/stm32_dma.h"
 1047              		.file 10 "../../os/hal/include/io_block.h"
 1048              		.file 11 "../../os/hal/platforms/STM32/sdc_lld.h"
 1049              		.file 12 "../../os/hal/include/mmcsd.h"
 1050              		.file 13 "../../os/ports/common/ARMCMx/CMSIS/include/core_cm4.h"
 1051              		.section	.debug_info,"",%progbits
 1052              	.Ldebug_info0:
 1053 0000 18120000 		.4byte	0x1218
 1054 0004 0200     		.2byte	0x2
 1055 0006 00000000 		.4byte	.Ldebug_abbrev0
 1056 000a 04       		.byte	0x4
 1057 000b 01       		.uleb128 0x1
 1058 000c 63030000 		.4byte	.LASF138
 1059 0010 01       		.byte	0x1
 1060 0011 73050000 		.4byte	.LASF139
 1061 0015 6E020000 		.4byte	.LASF140
 1062 0019 60000000 		.4byte	.Ldebug_ranges0+0x60
 1063 001d 00000000 		.4byte	0
 1064 0021 00000000 		.4byte	0
ARM GAS  /tmp/ccABRZiX.s 			page 20


 1065 0025 00000000 		.4byte	.Ldebug_line0
 1066 0029 02       		.uleb128 0x2
 1067 002a 04       		.byte	0x4
 1068 002b 05       		.byte	0x5
 1069 002c 696E7400 		.ascii	"int\000"
 1070 0030 03       		.uleb128 0x3
 1071 0031 04       		.byte	0x4
 1072 0032 07       		.byte	0x7
 1073 0033 99010000 		.4byte	.LASF0
 1074 0037 03       		.uleb128 0x3
 1075 0038 01       		.byte	0x1
 1076 0039 06       		.byte	0x6
 1077 003a C0000000 		.4byte	.LASF1
 1078 003e 04       		.uleb128 0x4
 1079 003f C5050000 		.4byte	.LASF5
 1080 0043 02       		.byte	0x2
 1081 0044 2A       		.byte	0x2a
 1082 0045 49000000 		.4byte	0x49
 1083 0049 03       		.uleb128 0x3
 1084 004a 01       		.byte	0x1
 1085 004b 08       		.byte	0x8
 1086 004c DB030000 		.4byte	.LASF2
 1087 0050 03       		.uleb128 0x3
 1088 0051 02       		.byte	0x2
 1089 0052 05       		.byte	0x5
 1090 0053 01040000 		.4byte	.LASF3
 1091 0057 03       		.uleb128 0x3
 1092 0058 02       		.byte	0x2
 1093 0059 07       		.byte	0x7
 1094 005a 0C020000 		.4byte	.LASF4
 1095 005e 04       		.uleb128 0x4
 1096 005f D3030000 		.4byte	.LASF6
 1097 0063 02       		.byte	0x2
 1098 0064 4F       		.byte	0x4f
 1099 0065 69000000 		.4byte	0x69
 1100 0069 03       		.uleb128 0x3
 1101 006a 04       		.byte	0x4
 1102 006b 05       		.byte	0x5
 1103 006c 17010000 		.4byte	.LASF7
 1104 0070 04       		.uleb128 0x4
 1105 0071 94040000 		.4byte	.LASF8
 1106 0075 02       		.byte	0x2
 1107 0076 50       		.byte	0x50
 1108 0077 7B000000 		.4byte	0x7b
 1109 007b 03       		.uleb128 0x3
 1110 007c 04       		.byte	0x4
 1111 007d 07       		.byte	0x7
 1112 007e B2040000 		.4byte	.LASF9
 1113 0082 03       		.uleb128 0x3
 1114 0083 08       		.byte	0x8
 1115 0084 05       		.byte	0x5
 1116 0085 B2000000 		.4byte	.LASF10
 1117 0089 03       		.uleb128 0x3
 1118 008a 08       		.byte	0x8
 1119 008b 07       		.byte	0x7
 1120 008c 55000000 		.4byte	.LASF11
 1121 0090 04       		.uleb128 0x4
ARM GAS  /tmp/ccABRZiX.s 			page 21


 1122 0091 E2000000 		.4byte	.LASF12
 1123 0095 03       		.byte	0x3
 1124 0096 27       		.byte	0x27
 1125 0097 5E000000 		.4byte	0x5e
 1126 009b 04       		.uleb128 0x4
 1127 009c 4E020000 		.4byte	.LASF13
 1128 00a0 03       		.byte	0x3
 1129 00a1 28       		.byte	0x28
 1130 00a2 3E000000 		.4byte	0x3e
 1131 00a6 04       		.uleb128 0x4
 1132 00a7 20010000 		.4byte	.LASF14
 1133 00ab 03       		.byte	0x3
 1134 00ac 29       		.byte	0x29
 1135 00ad 3E000000 		.4byte	0x3e
 1136 00b1 04       		.uleb128 0x4
 1137 00b2 8C030000 		.4byte	.LASF15
 1138 00b6 03       		.byte	0x3
 1139 00b7 2A       		.byte	0x2a
 1140 00b8 3E000000 		.4byte	0x3e
 1141 00bc 04       		.uleb128 0x4
 1142 00bd FC000000 		.4byte	.LASF16
 1143 00c1 03       		.byte	0x3
 1144 00c2 2B       		.byte	0x2b
 1145 00c3 3E000000 		.4byte	0x3e
 1146 00c7 04       		.uleb128 0x4
 1147 00c8 C4030000 		.4byte	.LASF17
 1148 00cc 03       		.byte	0x3
 1149 00cd 2C       		.byte	0x2c
 1150 00ce 70000000 		.4byte	0x70
 1151 00d2 04       		.uleb128 0x4
 1152 00d3 2C020000 		.4byte	.LASF18
 1153 00d7 03       		.byte	0x3
 1154 00d8 2D       		.byte	0x2d
 1155 00d9 5E000000 		.4byte	0x5e
 1156 00dd 04       		.uleb128 0x4
 1157 00de 62020000 		.4byte	.LASF19
 1158 00e2 03       		.byte	0x3
 1159 00e3 2F       		.byte	0x2f
 1160 00e4 70000000 		.4byte	0x70
 1161 00e8 04       		.uleb128 0x4
 1162 00e9 F3040000 		.4byte	.LASF20
 1163 00ed 03       		.byte	0x3
 1164 00ee 31       		.byte	0x31
 1165 00ef 70000000 		.4byte	0x70
 1166 00f3 04       		.uleb128 0x4
 1167 00f4 61040000 		.4byte	.LASF21
 1168 00f8 04       		.byte	0x4
 1169 00f9 23       		.byte	0x23
 1170 00fa FE000000 		.4byte	0xfe
 1171 00fe 05       		.uleb128 0x5
 1172 00ff 61040000 		.4byte	.LASF21
 1173 0103 48       		.byte	0x48
 1174 0104 05       		.byte	0x5
 1175 0105 57       		.byte	0x57
 1176 0106 23020000 		.4byte	0x223
 1177 010a 06       		.uleb128 0x6
 1178 010b 38040000 		.4byte	.LASF22
ARM GAS  /tmp/ccABRZiX.s 			page 22


 1179 010f 05       		.byte	0x5
 1180 0110 58       		.byte	0x58
 1181 0111 48020000 		.4byte	0x248
 1182 0115 02       		.byte	0x2
 1183 0116 23       		.byte	0x23
 1184 0117 00       		.uleb128 0
 1185 0118 06       		.uleb128 0x6
 1186 0119 A2030000 		.4byte	.LASF23
 1187 011d 05       		.byte	0x5
 1188 011e 5A       		.byte	0x5a
 1189 011f 48020000 		.4byte	0x248
 1190 0123 02       		.byte	0x2
 1191 0124 23       		.byte	0x23
 1192 0125 04       		.uleb128 0x4
 1193 0126 06       		.uleb128 0x6
 1194 0127 AB000000 		.4byte	.LASF24
 1195 012b 05       		.byte	0x5
 1196 012c 5C       		.byte	0x5c
 1197 012d C7000000 		.4byte	0xc7
 1198 0131 02       		.byte	0x2
 1199 0132 23       		.byte	0x23
 1200 0133 08       		.uleb128 0x8
 1201 0134 06       		.uleb128 0x6
 1202 0135 3C060000 		.4byte	.LASF25
 1203 0139 05       		.byte	0x5
 1204 013a 5D       		.byte	0x5d
 1205 013b 16030000 		.4byte	0x316
 1206 013f 02       		.byte	0x2
 1207 0140 23       		.byte	0x23
 1208 0141 0C       		.uleb128 0xc
 1209 0142 06       		.uleb128 0x6
 1210 0143 3D010000 		.4byte	.LASF26
 1211 0147 05       		.byte	0x5
 1212 0148 5F       		.byte	0x5f
 1213 0149 48020000 		.4byte	0x248
 1214 014d 02       		.byte	0x2
 1215 014e 23       		.byte	0x23
 1216 014f 10       		.uleb128 0x10
 1217 0150 06       		.uleb128 0x6
 1218 0151 29040000 		.4byte	.LASF27
 1219 0155 05       		.byte	0x5
 1220 0156 60       		.byte	0x60
 1221 0157 48020000 		.4byte	0x248
 1222 015b 02       		.byte	0x2
 1223 015c 23       		.byte	0x23
 1224 015d 14       		.uleb128 0x14
 1225 015e 06       		.uleb128 0x6
 1226 015f E9050000 		.4byte	.LASF28
 1227 0163 05       		.byte	0x5
 1228 0164 67       		.byte	0x67
 1229 0165 C7030000 		.4byte	0x3c7
 1230 0169 02       		.byte	0x2
 1231 016a 23       		.byte	0x23
 1232 016b 18       		.uleb128 0x18
 1233 016c 06       		.uleb128 0x6
 1234 016d 0B040000 		.4byte	.LASF29
 1235 0171 05       		.byte	0x5
ARM GAS  /tmp/ccABRZiX.s 			page 23


 1236 0172 72       		.byte	0x72
 1237 0173 A6000000 		.4byte	0xa6
 1238 0177 02       		.byte	0x2
 1239 0178 23       		.byte	0x23
 1240 0179 1C       		.uleb128 0x1c
 1241 017a 06       		.uleb128 0x6
 1242 017b 1C060000 		.4byte	.LASF30
 1243 017f 05       		.byte	0x5
 1244 0180 76       		.byte	0x76
 1245 0181 9B000000 		.4byte	0x9b
 1246 0185 02       		.byte	0x2
 1247 0186 23       		.byte	0x23
 1248 0187 1D       		.uleb128 0x1d
 1249 0188 06       		.uleb128 0x6
 1250 0189 A2050000 		.4byte	.LASF31
 1251 018d 05       		.byte	0x5
 1252 018e 7B       		.byte	0x7b
 1253 018f B1000000 		.4byte	0xb1
 1254 0193 02       		.byte	0x2
 1255 0194 23       		.byte	0x23
 1256 0195 1E       		.uleb128 0x1e
 1257 0196 06       		.uleb128 0x6
 1258 0197 1F040000 		.4byte	.LASF32
 1259 019b 05       		.byte	0x5
 1260 019c 81       		.byte	0x81
 1261 019d BC000000 		.4byte	0xbc
 1262 01a1 02       		.byte	0x2
 1263 01a2 23       		.byte	0x23
 1264 01a3 1F       		.uleb128 0x1f
 1265 01a4 06       		.uleb128 0x6
 1266 01a5 21000000 		.4byte	.LASF33
 1267 01a9 05       		.byte	0x5
 1268 01aa 88       		.byte	0x88
 1269 01ab 45030000 		.4byte	0x345
 1270 01af 02       		.byte	0x2
 1271 01b0 23       		.byte	0x23
 1272 01b1 20       		.uleb128 0x20
 1273 01b2 07       		.uleb128 0x7
 1274 01b3 705F7500 		.ascii	"p_u\000"
 1275 01b7 05       		.byte	0x5
 1276 01b8 AD       		.byte	0xad
 1277 01b9 92030000 		.4byte	0x392
 1278 01bd 02       		.byte	0x2
 1279 01be 23       		.byte	0x23
 1280 01bf 24       		.uleb128 0x24
 1281 01c0 06       		.uleb128 0x6
 1282 01c1 42060000 		.4byte	.LASF34
 1283 01c5 05       		.byte	0x5
 1284 01c6 B2       		.byte	0xb2
 1285 01c7 70020000 		.4byte	0x270
 1286 01cb 02       		.byte	0x2
 1287 01cc 23       		.byte	0x23
 1288 01cd 28       		.uleb128 0x28
 1289 01ce 06       		.uleb128 0x6
 1290 01cf C0010000 		.4byte	.LASF35
 1291 01d3 05       		.byte	0x5
 1292 01d4 B8       		.byte	0xb8
ARM GAS  /tmp/ccABRZiX.s 			page 24


 1293 01d5 4E020000 		.4byte	0x24e
 1294 01d9 02       		.byte	0x2
 1295 01da 23       		.byte	0x23
 1296 01db 2C       		.uleb128 0x2c
 1297 01dc 06       		.uleb128 0x6
 1298 01dd 24060000 		.4byte	.LASF36
 1299 01e1 05       		.byte	0x5
 1300 01e2 BC       		.byte	0xbc
 1301 01e3 D2000000 		.4byte	0xd2
 1302 01e7 02       		.byte	0x2
 1303 01e8 23       		.byte	0x23
 1304 01e9 34       		.uleb128 0x34
 1305 01ea 06       		.uleb128 0x6
 1306 01eb 27030000 		.4byte	.LASF37
 1307 01ef 05       		.byte	0x5
 1308 01f0 C2       		.byte	0xc2
 1309 01f1 DD000000 		.4byte	0xdd
 1310 01f5 02       		.byte	0x2
 1311 01f6 23       		.byte	0x23
 1312 01f7 38       		.uleb128 0x38
 1313 01f8 06       		.uleb128 0x6
 1314 01f9 F7030000 		.4byte	.LASF38
 1315 01fd 05       		.byte	0x5
 1316 01fe C9       		.byte	0xc9
 1317 01ff D9030000 		.4byte	0x3d9
 1318 0203 02       		.byte	0x2
 1319 0204 23       		.byte	0x23
 1320 0205 3C       		.uleb128 0x3c
 1321 0206 06       		.uleb128 0x6
 1322 0207 FD040000 		.4byte	.LASF39
 1323 020b 05       		.byte	0x5
 1324 020c CD       		.byte	0xcd
 1325 020d C7000000 		.4byte	0xc7
 1326 0211 02       		.byte	0x2
 1327 0212 23       		.byte	0x23
 1328 0213 40       		.uleb128 0x40
 1329 0214 06       		.uleb128 0x6
 1330 0215 DA000000 		.4byte	.LASF40
 1331 0219 05       		.byte	0x5
 1332 021a D3       		.byte	0xd3
 1333 021b 86020000 		.4byte	0x286
 1334 021f 02       		.byte	0x2
 1335 0220 23       		.byte	0x23
 1336 0221 44       		.uleb128 0x44
 1337 0222 00       		.byte	0
 1338 0223 08       		.uleb128 0x8
 1339 0224 08       		.byte	0x8
 1340 0225 04       		.byte	0x4
 1341 0226 5A       		.byte	0x5a
 1342 0227 48020000 		.4byte	0x248
 1343 022b 06       		.uleb128 0x6
 1344 022c 38040000 		.4byte	.LASF22
 1345 0230 04       		.byte	0x4
 1346 0231 5B       		.byte	0x5b
 1347 0232 48020000 		.4byte	0x248
 1348 0236 02       		.byte	0x2
 1349 0237 23       		.byte	0x23
ARM GAS  /tmp/ccABRZiX.s 			page 25


 1350 0238 00       		.uleb128 0
 1351 0239 06       		.uleb128 0x6
 1352 023a A2030000 		.4byte	.LASF23
 1353 023e 04       		.byte	0x4
 1354 023f 5D       		.byte	0x5d
 1355 0240 48020000 		.4byte	0x248
 1356 0244 02       		.byte	0x2
 1357 0245 23       		.byte	0x23
 1358 0246 04       		.uleb128 0x4
 1359 0247 00       		.byte	0
 1360 0248 09       		.uleb128 0x9
 1361 0249 04       		.byte	0x4
 1362 024a F3000000 		.4byte	0xf3
 1363 024e 04       		.uleb128 0x4
 1364 024f 4E030000 		.4byte	.LASF41
 1365 0253 04       		.byte	0x4
 1366 0254 5F       		.byte	0x5f
 1367 0255 23020000 		.4byte	0x223
 1368 0259 08       		.uleb128 0x8
 1369 025a 04       		.byte	0x4
 1370 025b 04       		.byte	0x4
 1371 025c 64       		.byte	0x64
 1372 025d 70020000 		.4byte	0x270
 1373 0261 06       		.uleb128 0x6
 1374 0262 38040000 		.4byte	.LASF22
 1375 0266 04       		.byte	0x4
 1376 0267 66       		.byte	0x66
 1377 0268 48020000 		.4byte	0x248
 1378 026c 02       		.byte	0x2
 1379 026d 23       		.byte	0x23
 1380 026e 00       		.uleb128 0
 1381 026f 00       		.byte	0
 1382 0270 04       		.uleb128 0x4
 1383 0271 56020000 		.4byte	.LASF42
 1384 0275 04       		.byte	0x4
 1385 0276 69       		.byte	0x69
 1386 0277 59020000 		.4byte	0x259
 1387 027b 04       		.uleb128 0x4
 1388 027c 4E010000 		.4byte	.LASF43
 1389 0280 06       		.byte	0x6
 1390 0281 DE       		.byte	0xde
 1391 0282 86020000 		.4byte	0x286
 1392 0286 0A       		.uleb128 0xa
 1393 0287 04       		.byte	0x4
 1394 0288 0B       		.uleb128 0xb
 1395 0289 4A050000 		.4byte	.LASF44
 1396 028d 24       		.byte	0x24
 1397 028e 06       		.byte	0x6
 1398 028f 0501     		.2byte	0x105
 1399 0291 16030000 		.4byte	0x316
 1400 0295 0C       		.uleb128 0xc
 1401 0296 723400   		.ascii	"r4\000"
 1402 0299 06       		.byte	0x6
 1403 029a 1801     		.2byte	0x118
 1404 029c 7B020000 		.4byte	0x27b
 1405 02a0 02       		.byte	0x2
 1406 02a1 23       		.byte	0x23
ARM GAS  /tmp/ccABRZiX.s 			page 26


 1407 02a2 00       		.uleb128 0
 1408 02a3 0C       		.uleb128 0xc
 1409 02a4 723500   		.ascii	"r5\000"
 1410 02a7 06       		.byte	0x6
 1411 02a8 1901     		.2byte	0x119
 1412 02aa 7B020000 		.4byte	0x27b
 1413 02ae 02       		.byte	0x2
 1414 02af 23       		.byte	0x23
 1415 02b0 04       		.uleb128 0x4
 1416 02b1 0C       		.uleb128 0xc
 1417 02b2 723600   		.ascii	"r6\000"
 1418 02b5 06       		.byte	0x6
 1419 02b6 1A01     		.2byte	0x11a
 1420 02b8 7B020000 		.4byte	0x27b
 1421 02bc 02       		.byte	0x2
 1422 02bd 23       		.byte	0x23
 1423 02be 08       		.uleb128 0x8
 1424 02bf 0C       		.uleb128 0xc
 1425 02c0 723700   		.ascii	"r7\000"
 1426 02c3 06       		.byte	0x6
 1427 02c4 1B01     		.2byte	0x11b
 1428 02c6 7B020000 		.4byte	0x27b
 1429 02ca 02       		.byte	0x2
 1430 02cb 23       		.byte	0x23
 1431 02cc 0C       		.uleb128 0xc
 1432 02cd 0C       		.uleb128 0xc
 1433 02ce 723800   		.ascii	"r8\000"
 1434 02d1 06       		.byte	0x6
 1435 02d2 1C01     		.2byte	0x11c
 1436 02d4 7B020000 		.4byte	0x27b
 1437 02d8 02       		.byte	0x2
 1438 02d9 23       		.byte	0x23
 1439 02da 10       		.uleb128 0x10
 1440 02db 0C       		.uleb128 0xc
 1441 02dc 723900   		.ascii	"r9\000"
 1442 02df 06       		.byte	0x6
 1443 02e0 1D01     		.2byte	0x11d
 1444 02e2 7B020000 		.4byte	0x27b
 1445 02e6 02       		.byte	0x2
 1446 02e7 23       		.byte	0x23
 1447 02e8 14       		.uleb128 0x14
 1448 02e9 0C       		.uleb128 0xc
 1449 02ea 72313000 		.ascii	"r10\000"
 1450 02ee 06       		.byte	0x6
 1451 02ef 1E01     		.2byte	0x11e
 1452 02f1 7B020000 		.4byte	0x27b
 1453 02f5 02       		.byte	0x2
 1454 02f6 23       		.byte	0x23
 1455 02f7 18       		.uleb128 0x18
 1456 02f8 0C       		.uleb128 0xc
 1457 02f9 72313100 		.ascii	"r11\000"
 1458 02fd 06       		.byte	0x6
 1459 02fe 1F01     		.2byte	0x11f
 1460 0300 7B020000 		.4byte	0x27b
 1461 0304 02       		.byte	0x2
 1462 0305 23       		.byte	0x23
 1463 0306 1C       		.uleb128 0x1c
ARM GAS  /tmp/ccABRZiX.s 			page 27


 1464 0307 0C       		.uleb128 0xc
 1465 0308 6C7200   		.ascii	"lr\000"
 1466 030b 06       		.byte	0x6
 1467 030c 2001     		.2byte	0x120
 1468 030e 7B020000 		.4byte	0x27b
 1469 0312 02       		.byte	0x2
 1470 0313 23       		.byte	0x23
 1471 0314 20       		.uleb128 0x20
 1472 0315 00       		.byte	0
 1473 0316 0B       		.uleb128 0xb
 1474 0317 37050000 		.4byte	.LASF45
 1475 031b 04       		.byte	0x4
 1476 031c 06       		.byte	0x6
 1477 031d 2A01     		.2byte	0x12a
 1478 031f 33030000 		.4byte	0x333
 1479 0323 0C       		.uleb128 0xc
 1480 0324 72313300 		.ascii	"r13\000"
 1481 0328 06       		.byte	0x6
 1482 0329 2B01     		.2byte	0x12b
 1483 032b 33030000 		.4byte	0x333
 1484 032f 02       		.byte	0x2
 1485 0330 23       		.byte	0x23
 1486 0331 00       		.uleb128 0
 1487 0332 00       		.byte	0
 1488 0333 09       		.uleb128 0x9
 1489 0334 04       		.byte	0x4
 1490 0335 88020000 		.4byte	0x288
 1491 0339 0D       		.uleb128 0xd
 1492 033a 70000000 		.4byte	0x70
 1493 033e 03       		.uleb128 0x3
 1494 033f 04       		.byte	0x4
 1495 0340 07       		.byte	0x7
 1496 0341 DD020000 		.4byte	.LASF46
 1497 0345 0D       		.uleb128 0xd
 1498 0346 E8000000 		.4byte	0xe8
 1499 034a 05       		.uleb128 0x5
 1500 034b B8020000 		.4byte	.LASF47
 1501 034f 10       		.byte	0x10
 1502 0350 07       		.byte	0x7
 1503 0351 25       		.byte	0x25
 1504 0352 81030000 		.4byte	0x381
 1505 0356 06       		.uleb128 0x6
 1506 0357 E9000000 		.4byte	.LASF48
 1507 035b 07       		.byte	0x7
 1508 035c 26       		.byte	0x26
 1509 035d 4E020000 		.4byte	0x24e
 1510 0361 02       		.byte	0x2
 1511 0362 23       		.byte	0x23
 1512 0363 00       		.uleb128 0
 1513 0364 06       		.uleb128 0x6
 1514 0365 2A060000 		.4byte	.LASF49
 1515 0369 07       		.byte	0x7
 1516 036a 28       		.byte	0x28
 1517 036b 48020000 		.4byte	0x248
 1518 036f 02       		.byte	0x2
 1519 0370 23       		.byte	0x23
 1520 0371 08       		.uleb128 0x8
ARM GAS  /tmp/ccABRZiX.s 			page 28


 1521 0372 06       		.uleb128 0x6
 1522 0373 EC040000 		.4byte	.LASF50
 1523 0377 07       		.byte	0x7
 1524 0378 2A       		.byte	0x2a
 1525 0379 81030000 		.4byte	0x381
 1526 037d 02       		.byte	0x2
 1527 037e 23       		.byte	0x23
 1528 037f 0C       		.uleb128 0xc
 1529 0380 00       		.byte	0
 1530 0381 09       		.uleb128 0x9
 1531 0382 04       		.byte	0x4
 1532 0383 4A030000 		.4byte	0x34a
 1533 0387 04       		.uleb128 0x4
 1534 0388 B8020000 		.4byte	.LASF47
 1535 038c 07       		.byte	0x7
 1536 038d 2C       		.byte	0x2c
 1537 038e 4A030000 		.4byte	0x34a
 1538 0392 0E       		.uleb128 0xe
 1539 0393 04       		.byte	0x4
 1540 0394 05       		.byte	0x5
 1541 0395 8F       		.byte	0x8f
 1542 0396 C7030000 		.4byte	0x3c7
 1543 039a 0F       		.uleb128 0xf
 1544 039b 30000000 		.4byte	.LASF51
 1545 039f 05       		.byte	0x5
 1546 03a0 96       		.byte	0x96
 1547 03a1 D2000000 		.4byte	0xd2
 1548 03a5 0F       		.uleb128 0xf
 1549 03a6 6C000000 		.4byte	.LASF52
 1550 03aa 05       		.byte	0x5
 1551 03ab 9D       		.byte	0x9d
 1552 03ac D2000000 		.4byte	0xd2
 1553 03b0 0F       		.uleb128 0xf
 1554 03b1 E2050000 		.4byte	.LASF53
 1555 03b5 05       		.byte	0x5
 1556 03b6 A4       		.byte	0xa4
 1557 03b7 86020000 		.4byte	0x286
 1558 03bb 0F       		.uleb128 0xf
 1559 03bc 31040000 		.4byte	.LASF54
 1560 03c0 05       		.byte	0x5
 1561 03c1 AB       		.byte	0xab
 1562 03c2 DD000000 		.4byte	0xdd
 1563 03c6 00       		.byte	0
 1564 03c7 09       		.uleb128 0x9
 1565 03c8 04       		.byte	0x4
 1566 03c9 CD030000 		.4byte	0x3cd
 1567 03cd 10       		.uleb128 0x10
 1568 03ce D2030000 		.4byte	0x3d2
 1569 03d2 03       		.uleb128 0x3
 1570 03d3 01       		.byte	0x1
 1571 03d4 08       		.byte	0x8
 1572 03d5 C9040000 		.4byte	.LASF55
 1573 03d9 09       		.uleb128 0x9
 1574 03da 04       		.byte	0x4
 1575 03db 87030000 		.4byte	0x387
 1576 03df 09       		.uleb128 0x9
 1577 03e0 04       		.byte	0x4
ARM GAS  /tmp/ccABRZiX.s 			page 29


 1578 03e1 3E000000 		.4byte	0x3e
 1579 03e5 09       		.uleb128 0x9
 1580 03e6 04       		.byte	0x4
 1581 03e7 EB030000 		.4byte	0x3eb
 1582 03eb 10       		.uleb128 0x10
 1583 03ec 3E000000 		.4byte	0x3e
 1584 03f0 11       		.uleb128 0x11
 1585 03f1 70000000 		.4byte	0x70
 1586 03f5 00040000 		.4byte	0x400
 1587 03f9 12       		.uleb128 0x12
 1588 03fa 3E030000 		.4byte	0x33e
 1589 03fe 03       		.byte	0x3
 1590 03ff 00       		.byte	0
 1591 0400 11       		.uleb128 0x11
 1592 0401 70000000 		.4byte	0x70
 1593 0405 10040000 		.4byte	0x410
 1594 0409 12       		.uleb128 0x12
 1595 040a 3E030000 		.4byte	0x33e
 1596 040e 00       		.byte	0
 1597 040f 00       		.byte	0
 1598 0410 0D       		.uleb128 0xd
 1599 0411 5E000000 		.4byte	0x5e
 1600 0415 13       		.uleb128 0x13
 1601 0416 18       		.byte	0x18
 1602 0417 08       		.byte	0x8
 1603 0418 D301     		.2byte	0x1d3
 1604 041a 78040000 		.4byte	0x478
 1605 041e 0C       		.uleb128 0xc
 1606 041f 435200   		.ascii	"CR\000"
 1607 0422 08       		.byte	0x8
 1608 0423 D501     		.2byte	0x1d5
 1609 0425 39030000 		.4byte	0x339
 1610 0429 02       		.byte	0x2
 1611 042a 23       		.byte	0x23
 1612 042b 00       		.uleb128 0
 1613 042c 14       		.uleb128 0x14
 1614 042d 08050000 		.4byte	.LASF56
 1615 0431 08       		.byte	0x8
 1616 0432 D601     		.2byte	0x1d6
 1617 0434 39030000 		.4byte	0x339
 1618 0438 02       		.byte	0x2
 1619 0439 23       		.byte	0x23
 1620 043a 04       		.uleb128 0x4
 1621 043b 0C       		.uleb128 0xc
 1622 043c 50415200 		.ascii	"PAR\000"
 1623 0440 08       		.byte	0x8
 1624 0441 D701     		.2byte	0x1d7
 1625 0443 39030000 		.4byte	0x339
 1626 0447 02       		.byte	0x2
 1627 0448 23       		.byte	0x23
 1628 0449 08       		.uleb128 0x8
 1629 044a 14       		.uleb128 0x14
 1630 044b 44000000 		.4byte	.LASF57
 1631 044f 08       		.byte	0x8
 1632 0450 D801     		.2byte	0x1d8
 1633 0452 39030000 		.4byte	0x339
 1634 0456 02       		.byte	0x2
ARM GAS  /tmp/ccABRZiX.s 			page 30


 1635 0457 23       		.byte	0x23
 1636 0458 0C       		.uleb128 0xc
 1637 0459 14       		.uleb128 0x14
 1638 045a 5D050000 		.4byte	.LASF58
 1639 045e 08       		.byte	0x8
 1640 045f D901     		.2byte	0x1d9
 1641 0461 39030000 		.4byte	0x339
 1642 0465 02       		.byte	0x2
 1643 0466 23       		.byte	0x23
 1644 0467 10       		.uleb128 0x10
 1645 0468 0C       		.uleb128 0xc
 1646 0469 46435200 		.ascii	"FCR\000"
 1647 046d 08       		.byte	0x8
 1648 046e DA01     		.2byte	0x1da
 1649 0470 39030000 		.4byte	0x339
 1650 0474 02       		.byte	0x2
 1651 0475 23       		.byte	0x23
 1652 0476 14       		.uleb128 0x14
 1653 0477 00       		.byte	0
 1654 0478 15       		.uleb128 0x15
 1655 0479 0D050000 		.4byte	.LASF59
 1656 047d 08       		.byte	0x8
 1657 047e DB01     		.2byte	0x1db
 1658 0480 15040000 		.4byte	0x415
 1659 0484 08       		.uleb128 0x8
 1660 0485 0C       		.byte	0xc
 1661 0486 09       		.byte	0x9
 1662 0487 DE       		.byte	0xde
 1663 0488 D3040000 		.4byte	0x4d3
 1664 048c 06       		.uleb128 0x6
 1665 048d 4E000000 		.4byte	.LASF60
 1666 0491 09       		.byte	0x9
 1667 0492 DF       		.byte	0xdf
 1668 0493 D3040000 		.4byte	0x4d3
 1669 0497 02       		.byte	0x2
 1670 0498 23       		.byte	0x23
 1671 0499 00       		.uleb128 0
 1672 049a 06       		.uleb128 0x6
 1673 049b 8F040000 		.4byte	.LASF61
 1674 049f 09       		.byte	0x9
 1675 04a0 E0       		.byte	0xe0
 1676 04a1 D9040000 		.4byte	0x4d9
 1677 04a5 02       		.byte	0x2
 1678 04a6 23       		.byte	0x23
 1679 04a7 04       		.uleb128 0x4
 1680 04a8 06       		.uleb128 0x6
 1681 04a9 F7010000 		.4byte	.LASF62
 1682 04ad 09       		.byte	0x9
 1683 04ae E1       		.byte	0xe1
 1684 04af 3E000000 		.4byte	0x3e
 1685 04b3 02       		.byte	0x2
 1686 04b4 23       		.byte	0x23
 1687 04b5 08       		.uleb128 0x8
 1688 04b6 06       		.uleb128 0x6
 1689 04b7 57010000 		.4byte	.LASF63
 1690 04bb 09       		.byte	0x9
 1691 04bc E3       		.byte	0xe3
ARM GAS  /tmp/ccABRZiX.s 			page 31


 1692 04bd 3E000000 		.4byte	0x3e
 1693 04c1 02       		.byte	0x2
 1694 04c2 23       		.byte	0x23
 1695 04c3 09       		.uleb128 0x9
 1696 04c4 06       		.uleb128 0x6
 1697 04c5 75000000 		.4byte	.LASF64
 1698 04c9 09       		.byte	0x9
 1699 04ca E4       		.byte	0xe4
 1700 04cb 3E000000 		.4byte	0x3e
 1701 04cf 02       		.byte	0x2
 1702 04d0 23       		.byte	0x23
 1703 04d1 0A       		.uleb128 0xa
 1704 04d2 00       		.byte	0
 1705 04d3 09       		.uleb128 0x9
 1706 04d4 04       		.byte	0x4
 1707 04d5 78040000 		.4byte	0x478
 1708 04d9 09       		.uleb128 0x9
 1709 04da 04       		.byte	0x4
 1710 04db 39030000 		.4byte	0x339
 1711 04df 04       		.uleb128 0x4
 1712 04e0 A9030000 		.4byte	.LASF65
 1713 04e4 09       		.byte	0x9
 1714 04e5 E5       		.byte	0xe5
 1715 04e6 84040000 		.4byte	0x484
 1716 04ea 16       		.uleb128 0x16
 1717 04eb 01       		.byte	0x1
 1718 04ec 0A       		.byte	0xa
 1719 04ed 2C       		.byte	0x2c
 1720 04ee 23050000 		.4byte	0x523
 1721 04f2 17       		.uleb128 0x17
 1722 04f3 06010000 		.4byte	.LASF66
 1723 04f7 00       		.sleb128 0
 1724 04f8 17       		.uleb128 0x17
 1725 04f9 29010000 		.4byte	.LASF67
 1726 04fd 01       		.sleb128 1
 1727 04fe 17       		.uleb128 0x17
 1728 04ff 32010000 		.4byte	.LASF68
 1729 0503 02       		.sleb128 2
 1730 0504 17       		.uleb128 0x17
 1731 0505 3F020000 		.4byte	.LASF69
 1732 0509 03       		.sleb128 3
 1733 050a 17       		.uleb128 0x17
 1734 050b CE040000 		.4byte	.LASF70
 1735 050f 04       		.sleb128 4
 1736 0510 17       		.uleb128 0x17
 1737 0511 44030000 		.4byte	.LASF71
 1738 0515 05       		.sleb128 5
 1739 0516 17       		.uleb128 0x17
 1740 0517 D1020000 		.4byte	.LASF72
 1741 051b 06       		.sleb128 6
 1742 051c 17       		.uleb128 0x17
 1743 051d 13040000 		.4byte	.LASF73
 1744 0521 07       		.sleb128 7
 1745 0522 00       		.byte	0
 1746 0523 04       		.uleb128 0x4
 1747 0524 92000000 		.4byte	.LASF74
 1748 0528 0A       		.byte	0xa
ARM GAS  /tmp/ccABRZiX.s 			page 32


 1749 0529 35       		.byte	0x35
 1750 052a EA040000 		.4byte	0x4ea
 1751 052e 08       		.uleb128 0x8
 1752 052f 08       		.byte	0x8
 1753 0530 0A       		.byte	0xa
 1754 0531 3A       		.byte	0x3a
 1755 0532 53050000 		.4byte	0x553
 1756 0536 06       		.uleb128 0x6
 1757 0537 67010000 		.4byte	.LASF75
 1758 053b 0A       		.byte	0xa
 1759 053c 3B       		.byte	0x3b
 1760 053d 70000000 		.4byte	0x70
 1761 0541 02       		.byte	0x2
 1762 0542 23       		.byte	0x23
 1763 0543 00       		.uleb128 0
 1764 0544 06       		.uleb128 0x6
 1765 0545 28000000 		.4byte	.LASF76
 1766 0549 0A       		.byte	0xa
 1767 054a 3C       		.byte	0x3c
 1768 054b 70000000 		.4byte	0x70
 1769 054f 02       		.byte	0x2
 1770 0550 23       		.byte	0x23
 1771 0551 04       		.uleb128 0x4
 1772 0552 00       		.byte	0
 1773 0553 04       		.uleb128 0x4
 1774 0554 00000000 		.4byte	.LASF77
 1775 0558 0A       		.byte	0xa
 1776 0559 3D       		.byte	0x3d
 1777 055a 2E050000 		.4byte	0x52e
 1778 055e 18       		.uleb128 0x18
 1779 055f 01       		.byte	0x1
 1780 0560 90000000 		.4byte	0x90
 1781 0564 6E050000 		.4byte	0x56e
 1782 0568 19       		.uleb128 0x19
 1783 0569 86020000 		.4byte	0x286
 1784 056d 00       		.byte	0
 1785 056e 09       		.uleb128 0x9
 1786 056f 04       		.byte	0x4
 1787 0570 5E050000 		.4byte	0x55e
 1788 0574 18       		.uleb128 0x18
 1789 0575 01       		.byte	0x1
 1790 0576 90000000 		.4byte	0x90
 1791 057a 93050000 		.4byte	0x593
 1792 057e 19       		.uleb128 0x19
 1793 057f 86020000 		.4byte	0x286
 1794 0583 19       		.uleb128 0x19
 1795 0584 70000000 		.4byte	0x70
 1796 0588 19       		.uleb128 0x19
 1797 0589 DF030000 		.4byte	0x3df
 1798 058d 19       		.uleb128 0x19
 1799 058e 70000000 		.4byte	0x70
 1800 0592 00       		.byte	0
 1801 0593 09       		.uleb128 0x9
 1802 0594 04       		.byte	0x4
 1803 0595 74050000 		.4byte	0x574
 1804 0599 18       		.uleb128 0x18
 1805 059a 01       		.byte	0x1
ARM GAS  /tmp/ccABRZiX.s 			page 33


 1806 059b 90000000 		.4byte	0x90
 1807 059f B8050000 		.4byte	0x5b8
 1808 05a3 19       		.uleb128 0x19
 1809 05a4 86020000 		.4byte	0x286
 1810 05a8 19       		.uleb128 0x19
 1811 05a9 70000000 		.4byte	0x70
 1812 05ad 19       		.uleb128 0x19
 1813 05ae E5030000 		.4byte	0x3e5
 1814 05b2 19       		.uleb128 0x19
 1815 05b3 70000000 		.4byte	0x70
 1816 05b7 00       		.byte	0
 1817 05b8 09       		.uleb128 0x9
 1818 05b9 04       		.byte	0x4
 1819 05ba 99050000 		.4byte	0x599
 1820 05be 18       		.uleb128 0x18
 1821 05bf 01       		.byte	0x1
 1822 05c0 90000000 		.4byte	0x90
 1823 05c4 D3050000 		.4byte	0x5d3
 1824 05c8 19       		.uleb128 0x19
 1825 05c9 86020000 		.4byte	0x286
 1826 05cd 19       		.uleb128 0x19
 1827 05ce D3050000 		.4byte	0x5d3
 1828 05d2 00       		.byte	0
 1829 05d3 09       		.uleb128 0x9
 1830 05d4 04       		.byte	0x4
 1831 05d5 53050000 		.4byte	0x553
 1832 05d9 09       		.uleb128 0x9
 1833 05da 04       		.byte	0x4
 1834 05db BE050000 		.4byte	0x5be
 1835 05df 16       		.uleb128 0x16
 1836 05e0 01       		.byte	0x1
 1837 05e1 0B       		.byte	0xb
 1838 05e2 B3       		.byte	0xb3
 1839 05e3 FA050000 		.4byte	0x5fa
 1840 05e7 17       		.uleb128 0x17
 1841 05e8 CC000000 		.4byte	.LASF78
 1842 05ec 00       		.sleb128 0
 1843 05ed 17       		.uleb128 0x17
 1844 05ee 29050000 		.4byte	.LASF79
 1845 05f2 01       		.sleb128 1
 1846 05f3 17       		.uleb128 0x17
 1847 05f4 FE010000 		.4byte	.LASF80
 1848 05f8 02       		.sleb128 2
 1849 05f9 00       		.byte	0
 1850 05fa 04       		.uleb128 0x4
 1851 05fb 68040000 		.4byte	.LASF81
 1852 05ff 0B       		.byte	0xb
 1853 0600 B7       		.byte	0xb7
 1854 0601 DF050000 		.4byte	0x5df
 1855 0605 04       		.uleb128 0x4
 1856 0606 70010000 		.4byte	.LASF82
 1857 060a 0B       		.byte	0xb
 1858 060b BC       		.byte	0xbc
 1859 060c 70000000 		.4byte	0x70
 1860 0610 04       		.uleb128 0x4
 1861 0611 3F050000 		.4byte	.LASF83
 1862 0615 0B       		.byte	0xb
ARM GAS  /tmp/ccABRZiX.s 			page 34


 1863 0616 C1       		.byte	0xc1
 1864 0617 70000000 		.4byte	0x70
 1865 061b 04       		.uleb128 0x4
 1866 061c 32060000 		.4byte	.LASF84
 1867 0620 0B       		.byte	0xb
 1868 0621 C6       		.byte	0xc6
 1869 0622 26060000 		.4byte	0x626
 1870 0626 05       		.uleb128 0x5
 1871 0627 32060000 		.4byte	.LASF84
 1872 062b 48       		.byte	0x48
 1873 062c 0B       		.byte	0xb
 1874 062d E2       		.byte	0xe2
 1875 062e DD060000 		.4byte	0x6dd
 1876 0632 07       		.uleb128 0x7
 1877 0633 766D7400 		.ascii	"vmt\000"
 1878 0637 0B       		.byte	0xb
 1879 0638 E6       		.byte	0xe6
 1880 0639 7C070000 		.4byte	0x77c
 1881 063d 02       		.byte	0x2
 1882 063e 23       		.byte	0x23
 1883 063f 00       		.uleb128 0
 1884 0640 06       		.uleb128 0x6
 1885 0641 11010000 		.4byte	.LASF85
 1886 0645 0B       		.byte	0xb
 1887 0646 E7       		.byte	0xe7
 1888 0647 23050000 		.4byte	0x523
 1889 064b 02       		.byte	0x2
 1890 064c 23       		.byte	0x23
 1891 064d 04       		.uleb128 0x4
 1892 064e 07       		.uleb128 0x7
 1893 064f 63696400 		.ascii	"cid\000"
 1894 0653 0B       		.byte	0xb
 1895 0654 E7       		.byte	0xe7
 1896 0655 F0030000 		.4byte	0x3f0
 1897 0659 02       		.byte	0x2
 1898 065a 23       		.byte	0x23
 1899 065b 08       		.uleb128 0x8
 1900 065c 07       		.uleb128 0x7
 1901 065d 63736400 		.ascii	"csd\000"
 1902 0661 0B       		.byte	0xb
 1903 0662 E7       		.byte	0xe7
 1904 0663 F0030000 		.4byte	0x3f0
 1905 0667 02       		.byte	0x2
 1906 0668 23       		.byte	0x23
 1907 0669 18       		.uleb128 0x18
 1908 066a 06       		.uleb128 0x6
 1909 066b 10000000 		.4byte	.LASF86
 1910 066f 0B       		.byte	0xb
 1911 0670 E7       		.byte	0xe7
 1912 0671 70000000 		.4byte	0x70
 1913 0675 02       		.byte	0x2
 1914 0676 23       		.byte	0x23
 1915 0677 28       		.uleb128 0x28
 1916 0678 06       		.uleb128 0x6
 1917 0679 E0040000 		.4byte	.LASF87
 1918 067d 0B       		.byte	0xb
 1919 067e EB       		.byte	0xeb
ARM GAS  /tmp/ccABRZiX.s 			page 35


 1920 067f 87070000 		.4byte	0x787
 1921 0683 02       		.byte	0x2
 1922 0684 23       		.byte	0x23
 1923 0685 2C       		.uleb128 0x2c
 1924 0686 06       		.uleb128 0x6
 1925 0687 7C000000 		.4byte	.LASF88
 1926 068b 0B       		.byte	0xb
 1927 068c EF       		.byte	0xef
 1928 068d 05060000 		.4byte	0x605
 1929 0691 02       		.byte	0x2
 1930 0692 23       		.byte	0x23
 1931 0693 30       		.uleb128 0x30
 1932 0694 06       		.uleb128 0x6
 1933 0695 B9010000 		.4byte	.LASF89
 1934 0699 0B       		.byte	0xb
 1935 069a F3       		.byte	0xf3
 1936 069b 10060000 		.4byte	0x610
 1937 069f 02       		.byte	0x2
 1938 06a0 23       		.byte	0x23
 1939 06a1 34       		.uleb128 0x34
 1940 06a2 07       		.uleb128 0x7
 1941 06a3 72636100 		.ascii	"rca\000"
 1942 06a7 0B       		.byte	0xb
 1943 06a8 F7       		.byte	0xf7
 1944 06a9 70000000 		.4byte	0x70
 1945 06ad 02       		.byte	0x2
 1946 06ae 23       		.byte	0x23
 1947 06af 38       		.uleb128 0x38
 1948 06b0 06       		.uleb128 0x6
 1949 06b1 CC030000 		.4byte	.LASF90
 1950 06b5 0B       		.byte	0xb
 1951 06b6 FC       		.byte	0xfc
 1952 06b7 48020000 		.4byte	0x248
 1953 06bb 02       		.byte	0x2
 1954 06bc 23       		.byte	0x23
 1955 06bd 3C       		.uleb128 0x3c
 1956 06be 14       		.uleb128 0x14
 1957 06bf DA050000 		.4byte	.LASF91
 1958 06c3 0B       		.byte	0xb
 1959 06c4 0001     		.2byte	0x100
 1960 06c6 70000000 		.4byte	0x70
 1961 06ca 02       		.byte	0x2
 1962 06cb 23       		.byte	0x23
 1963 06cc 40       		.uleb128 0x40
 1964 06cd 0C       		.uleb128 0xc
 1965 06ce 646D6100 		.ascii	"dma\000"
 1966 06d2 0B       		.byte	0xb
 1967 06d3 0401     		.2byte	0x104
 1968 06d5 92070000 		.4byte	0x792
 1969 06d9 02       		.byte	0x2
 1970 06da 23       		.byte	0x23
 1971 06db 44       		.uleb128 0x44
 1972 06dc 00       		.byte	0
 1973 06dd 08       		.uleb128 0x8
 1974 06de 04       		.byte	0x4
 1975 06df 0B       		.byte	0xb
 1976 06e0 CC       		.byte	0xcc
ARM GAS  /tmp/ccABRZiX.s 			page 36


 1977 06e1 F4060000 		.4byte	0x6f4
 1978 06e5 06       		.uleb128 0x6
 1979 06e6 61010000 		.4byte	.LASF92
 1980 06ea 0B       		.byte	0xb
 1981 06eb CD       		.byte	0xcd
 1982 06ec 70000000 		.4byte	0x70
 1983 06f0 02       		.byte	0x2
 1984 06f1 23       		.byte	0x23
 1985 06f2 00       		.uleb128 0
 1986 06f3 00       		.byte	0
 1987 06f4 04       		.uleb128 0x4
 1988 06f5 BB050000 		.4byte	.LASF93
 1989 06f9 0B       		.byte	0xb
 1990 06fa CE       		.byte	0xce
 1991 06fb DD060000 		.4byte	0x6dd
 1992 06ff 05       		.uleb128 0x5
 1993 0700 54040000 		.4byte	.LASF94
 1994 0704 20       		.byte	0x20
 1995 0705 0B       		.byte	0xb
 1996 0706 DB       		.byte	0xdb
 1997 0707 7C070000 		.4byte	0x77c
 1998 070b 06       		.uleb128 0x6
 1999 070c 51050000 		.4byte	.LASF95
 2000 0710 0B       		.byte	0xb
 2001 0711 DC       		.byte	0xdc
 2002 0712 6E050000 		.4byte	0x56e
 2003 0716 02       		.byte	0x2
 2004 0717 23       		.byte	0x23
 2005 0718 00       		.uleb128 0
 2006 0719 06       		.uleb128 0x6
 2007 071a 37000000 		.4byte	.LASF96
 2008 071e 0B       		.byte	0xb
 2009 071f DC       		.byte	0xdc
 2010 0720 6E050000 		.4byte	0x56e
 2011 0724 02       		.byte	0x2
 2012 0725 23       		.byte	0x23
 2013 0726 04       		.uleb128 0x4
 2014 0727 06       		.uleb128 0x6
 2015 0728 75040000 		.4byte	.LASF97
 2016 072c 0B       		.byte	0xb
 2017 072d DC       		.byte	0xdc
 2018 072e 6E050000 		.4byte	0x56e
 2019 0732 02       		.byte	0x2
 2020 0733 23       		.byte	0x23
 2021 0734 08       		.uleb128 0x8
 2022 0735 06       		.uleb128 0x6
 2023 0736 F1000000 		.4byte	.LASF98
 2024 073a 0B       		.byte	0xb
 2025 073b DC       		.byte	0xdc
 2026 073c 6E050000 		.4byte	0x56e
 2027 0740 02       		.byte	0x2
 2028 0741 23       		.byte	0x23
 2029 0742 0C       		.uleb128 0xc
 2030 0743 06       		.uleb128 0x6
 2031 0744 C4040000 		.4byte	.LASF99
 2032 0748 0B       		.byte	0xb
 2033 0749 DC       		.byte	0xdc
ARM GAS  /tmp/ccABRZiX.s 			page 37


 2034 074a 93050000 		.4byte	0x593
 2035 074e 02       		.byte	0x2
 2036 074f 23       		.byte	0x23
 2037 0750 10       		.uleb128 0x10
 2038 0751 06       		.uleb128 0x6
 2039 0752 CB020000 		.4byte	.LASF100
 2040 0756 0B       		.byte	0xb
 2041 0757 DC       		.byte	0xdc
 2042 0758 B8050000 		.4byte	0x5b8
 2043 075c 02       		.byte	0x2
 2044 075d 23       		.byte	0x23
 2045 075e 14       		.uleb128 0x14
 2046 075f 06       		.uleb128 0x6
 2047 0760 94030000 		.4byte	.LASF101
 2048 0764 0B       		.byte	0xb
 2049 0765 DC       		.byte	0xdc
 2050 0766 6E050000 		.4byte	0x56e
 2051 076a 02       		.byte	0x2
 2052 076b 23       		.byte	0x23
 2053 076c 18       		.uleb128 0x18
 2054 076d 06       		.uleb128 0x6
 2055 076e 45010000 		.4byte	.LASF102
 2056 0772 0B       		.byte	0xb
 2057 0773 DC       		.byte	0xdc
 2058 0774 D9050000 		.4byte	0x5d9
 2059 0778 02       		.byte	0x2
 2060 0779 23       		.byte	0x23
 2061 077a 1C       		.uleb128 0x1c
 2062 077b 00       		.byte	0
 2063 077c 09       		.uleb128 0x9
 2064 077d 04       		.byte	0x4
 2065 077e 82070000 		.4byte	0x782
 2066 0782 10       		.uleb128 0x10
 2067 0783 FF060000 		.4byte	0x6ff
 2068 0787 09       		.uleb128 0x9
 2069 0788 04       		.byte	0x4
 2070 0789 8D070000 		.4byte	0x78d
 2071 078d 10       		.uleb128 0x10
 2072 078e F4060000 		.4byte	0x6f4
 2073 0792 09       		.uleb128 0x9
 2074 0793 04       		.byte	0x4
 2075 0794 98070000 		.4byte	0x798
 2076 0798 10       		.uleb128 0x10
 2077 0799 DF040000 		.4byte	0x4df
 2078 079d 1A       		.uleb128 0x1a
 2079 079e 01       		.byte	0x1
 2080 079f 3B030000 		.4byte	.LASF105
 2081 07a3 01       		.byte	0x1
 2082 07a4 9F01     		.2byte	0x19f
 2083 07a6 01       		.byte	0x1
 2084 07a7 90000000 		.4byte	0x90
 2085 07ab 01       		.byte	0x1
 2086 07ac EB070000 		.4byte	0x7eb
 2087 07b0 1B       		.uleb128 0x1b
 2088 07b1 E7040000 		.4byte	.LASF103
 2089 07b5 01       		.byte	0x1
 2090 07b6 9F01     		.2byte	0x19f
ARM GAS  /tmp/ccABRZiX.s 			page 38


 2091 07b8 EB070000 		.4byte	0x7eb
 2092 07bc 1B       		.uleb128 0x1b
 2093 07bd 20050000 		.4byte	.LASF104
 2094 07c1 01       		.byte	0x1
 2095 07c2 9F01     		.2byte	0x19f
 2096 07c4 70000000 		.4byte	0x70
 2097 07c8 1C       		.uleb128 0x1c
 2098 07c9 62756600 		.ascii	"buf\000"
 2099 07cd 01       		.byte	0x1
 2100 07ce A001     		.2byte	0x1a0
 2101 07d0 E5030000 		.4byte	0x3e5
 2102 07d4 1C       		.uleb128 0x1c
 2103 07d5 6E00     		.ascii	"n\000"
 2104 07d7 01       		.byte	0x1
 2105 07d8 A001     		.2byte	0x1a0
 2106 07da 70000000 		.4byte	0x70
 2107 07de 1D       		.uleb128 0x1d
 2108 07df B4050000 		.4byte	.LASF107
 2109 07e3 01       		.byte	0x1
 2110 07e4 A101     		.2byte	0x1a1
 2111 07e6 90000000 		.4byte	0x90
 2112 07ea 00       		.byte	0
 2113 07eb 09       		.uleb128 0x9
 2114 07ec 04       		.byte	0x4
 2115 07ed 1B060000 		.4byte	0x61b
 2116 07f1 1A       		.uleb128 0x1a
 2117 07f2 01       		.byte	0x1
 2118 07f3 76030000 		.4byte	.LASF106
 2119 07f7 01       		.byte	0x1
 2120 07f8 7901     		.2byte	0x179
 2121 07fa 01       		.byte	0x1
 2122 07fb 90000000 		.4byte	0x90
 2123 07ff 01       		.byte	0x1
 2124 0800 3F080000 		.4byte	0x83f
 2125 0804 1B       		.uleb128 0x1b
 2126 0805 E7040000 		.4byte	.LASF103
 2127 0809 01       		.byte	0x1
 2128 080a 7901     		.2byte	0x179
 2129 080c EB070000 		.4byte	0x7eb
 2130 0810 1B       		.uleb128 0x1b
 2131 0811 20050000 		.4byte	.LASF104
 2132 0815 01       		.byte	0x1
 2133 0816 7901     		.2byte	0x179
 2134 0818 70000000 		.4byte	0x70
 2135 081c 1C       		.uleb128 0x1c
 2136 081d 62756600 		.ascii	"buf\000"
 2137 0821 01       		.byte	0x1
 2138 0822 7A01     		.2byte	0x17a
 2139 0824 DF030000 		.4byte	0x3df
 2140 0828 1C       		.uleb128 0x1c
 2141 0829 6E00     		.ascii	"n\000"
 2142 082b 01       		.byte	0x1
 2143 082c 7A01     		.2byte	0x17a
 2144 082e 70000000 		.4byte	0x70
 2145 0832 1D       		.uleb128 0x1d
 2146 0833 B4050000 		.4byte	.LASF107
 2147 0837 01       		.byte	0x1
ARM GAS  /tmp/ccABRZiX.s 			page 39


 2148 0838 7B01     		.2byte	0x17b
 2149 083a 90000000 		.4byte	0x90
 2150 083e 00       		.byte	0
 2151 083f 1A       		.uleb128 0x1a
 2152 0840 01       		.byte	0x1
 2153 0841 9D000000 		.4byte	.LASF108
 2154 0845 01       		.byte	0x1
 2155 0846 4E01     		.2byte	0x14e
 2156 0848 01       		.byte	0x1
 2157 0849 90000000 		.4byte	0x90
 2158 084d 01       		.byte	0x1
 2159 084e 91080000 		.4byte	0x891
 2160 0852 1B       		.uleb128 0x1b
 2161 0853 E7040000 		.4byte	.LASF103
 2162 0857 01       		.byte	0x1
 2163 0858 4E01     		.2byte	0x14e
 2164 085a EB070000 		.4byte	0x7eb
 2165 085e 1E       		.uleb128 0x1e
 2166 085f 70080000 		.4byte	0x870
 2167 0863 1F       		.uleb128 0x1f
 2168 0864 746D7000 		.ascii	"tmp\000"
 2169 0868 01       		.byte	0x1
 2170 0869 5201     		.2byte	0x152
 2171 086b 70000000 		.4byte	0x70
 2172 086f 00       		.byte	0
 2173 0870 1E       		.uleb128 0x1e
 2174 0871 82080000 		.4byte	0x882
 2175 0875 1F       		.uleb128 0x1f
 2176 0876 746D7000 		.ascii	"tmp\000"
 2177 087a 01       		.byte	0x1
 2178 087b 5601     		.2byte	0x156
 2179 087d 70000000 		.4byte	0x70
 2180 0881 00       		.byte	0
 2181 0882 20       		.uleb128 0x20
 2182 0883 1F       		.uleb128 0x1f
 2183 0884 746D7000 		.ascii	"tmp\000"
 2184 0888 01       		.byte	0x1
 2185 0889 5A01     		.2byte	0x15a
 2186 088b 70000000 		.4byte	0x70
 2187 088f 00       		.byte	0
 2188 0890 00       		.byte	0
 2189 0891 21       		.uleb128 0x21
 2190 0892 01       		.byte	0x1
 2191 0893 A9050000 		.4byte	.LASF110
 2192 0897 01       		.byte	0x1
 2193 0898 EC01     		.2byte	0x1ec
 2194 089a 01       		.byte	0x1
 2195 089b 90000000 		.4byte	0x90
 2196 089f 00000000 		.4byte	.LFB129
 2197 08a3 18000000 		.4byte	.LFE129
 2198 08a7 02       		.byte	0x2
 2199 08a8 7D       		.byte	0x7d
 2200 08a9 00       		.sleb128 0
 2201 08aa 01       		.byte	0x1
 2202 08ab CE080000 		.4byte	0x8ce
 2203 08af 22       		.uleb128 0x22
 2204 08b0 E7040000 		.4byte	.LASF103
ARM GAS  /tmp/ccABRZiX.s 			page 40


 2205 08b4 01       		.byte	0x1
 2206 08b5 EC01     		.2byte	0x1ec
 2207 08b7 EB070000 		.4byte	0x7eb
 2208 08bb 00000000 		.4byte	.LLST0
 2209 08bf 23       		.uleb128 0x23
 2210 08c0 49000000 		.4byte	.LASF109
 2211 08c4 01       		.byte	0x1
 2212 08c5 EC01     		.2byte	0x1ec
 2213 08c7 D3050000 		.4byte	0x5d3
 2214 08cb 01       		.byte	0x1
 2215 08cc 51       		.byte	0x51
 2216 08cd 00       		.byte	0
 2217 08ce 21       		.uleb128 0x21
 2218 08cf 01       		.byte	0x1
 2219 08d0 5B030000 		.4byte	.LASF111
 2220 08d4 01       		.byte	0x1
 2221 08d5 D601     		.2byte	0x1d6
 2222 08d7 01       		.byte	0x1
 2223 08d8 90000000 		.4byte	0x90
 2224 08dc 00000000 		.4byte	.LFB128
 2225 08e0 0E000000 		.4byte	.LFE128
 2226 08e4 02       		.byte	0x2
 2227 08e5 7D       		.byte	0x7d
 2228 08e6 00       		.sleb128 0
 2229 08e7 01       		.byte	0x1
 2230 08e8 07090000 		.4byte	0x907
 2231 08ec 22       		.uleb128 0x22
 2232 08ed E7040000 		.4byte	.LASF103
 2233 08f1 01       		.byte	0x1
 2234 08f2 D601     		.2byte	0x1d6
 2235 08f4 EB070000 		.4byte	0x7eb
 2236 08f8 3A000000 		.4byte	.LLST1
 2237 08fc 24       		.uleb128 0x24
 2238 08fd 0E000000 		.4byte	.LVL7
 2239 0901 01       		.byte	0x1
 2240 0902 5E100000 		.4byte	0x105e
 2241 0906 00       		.byte	0
 2242 0907 25       		.uleb128 0x25
 2243 0908 01       		.byte	0x1
 2244 0909 AE010000 		.4byte	.LASF112
 2245 090d 01       		.byte	0x1
 2246 090e BF       		.byte	0xbf
 2247 090f 01       		.byte	0x1
 2248 0910 90000000 		.4byte	0x90
 2249 0914 00000000 		.4byte	.LFB123
 2250 0918 C2010000 		.4byte	.LFE123
 2251 091c 74000000 		.4byte	.LLST2
 2252 0920 01       		.byte	0x1
 2253 0921 710B0000 		.4byte	0xb71
 2254 0925 26       		.uleb128 0x26
 2255 0926 E7040000 		.4byte	.LASF103
 2256 092a 01       		.byte	0x1
 2257 092b BF       		.byte	0xbf
 2258 092c EB070000 		.4byte	0x7eb
 2259 0930 A0000000 		.4byte	.LLST3
 2260 0934 27       		.uleb128 0x27
 2261 0935 94010000 		.4byte	.LASF113
ARM GAS  /tmp/ccABRZiX.s 			page 41


 2262 0939 01       		.byte	0x1
 2263 093a C0       		.byte	0xc0
 2264 093b 00040000 		.4byte	0x400
 2265 093f 02       		.byte	0x2
 2266 0940 91       		.byte	0x91
 2267 0941 64       		.sleb128 -28
 2268 0942 28       		.uleb128 0x28
 2269 0943 6F030000 		.4byte	.LASF141
 2270 0947 01       		.byte	0x1
 2271 0948 3D01     		.2byte	0x13d
 2272 094a 3A000000 		.4byte	.LDL1
 2273 094e 29       		.uleb128 0x29
 2274 094f 00000000 		.4byte	.Ldebug_ranges0+0
 2275 0953 BC090000 		.4byte	0x9bc
 2276 0957 2A       		.uleb128 0x2a
 2277 0958 6900     		.ascii	"i\000"
 2278 095a 01       		.byte	0x1
 2279 095b ED       		.byte	0xed
 2280 095c 30000000 		.4byte	0x30
 2281 0960 D4000000 		.4byte	.LLST4
 2282 0964 2A       		.uleb128 0x2a
 2283 0965 6F637200 		.ascii	"ocr\000"
 2284 0969 01       		.byte	0x1
 2285 096a EE       		.byte	0xee
 2286 096b 70000000 		.4byte	0x70
 2287 096f E8000000 		.4byte	.LLST5
 2288 0973 2B       		.uleb128 0x2b
 2289 0974 6A000000 		.4byte	.LVL17
 2290 0978 77100000 		.4byte	0x1077
 2291 097c 87090000 		.4byte	0x987
 2292 0980 2C       		.uleb128 0x2c
 2293 0981 01       		.byte	0x1
 2294 0982 50       		.byte	0x50
 2295 0983 02       		.byte	0x2
 2296 0984 75       		.byte	0x75
 2297 0985 00       		.sleb128 0
 2298 0986 00       		.byte	0
 2299 0987 2B       		.uleb128 0x2b
 2300 0988 7E000000 		.4byte	.LVL18
 2301 098c A5100000 		.4byte	0x10a5
 2302 0990 9A090000 		.4byte	0x99a
 2303 0994 2C       		.uleb128 0x2c
 2304 0995 01       		.byte	0x1
 2305 0996 50       		.byte	0x50
 2306 0997 01       		.byte	0x1
 2307 0998 3A       		.byte	0x3a
 2308 0999 00       		.byte	0
 2309 099a 2D       		.uleb128 0x2d
 2310 099b 8A000000 		.4byte	.LVL19
 2311 099f BA100000 		.4byte	0x10ba
 2312 09a3 2C       		.uleb128 0x2c
 2313 09a4 01       		.byte	0x1
 2314 09a5 53       		.byte	0x53
 2315 09a6 02       		.byte	0x2
 2316 09a7 91       		.byte	0x91
 2317 09a8 64       		.sleb128 -28
 2318 09a9 2C       		.uleb128 0x2c
ARM GAS  /tmp/ccABRZiX.s 			page 42


 2319 09aa 01       		.byte	0x1
 2320 09ab 52       		.byte	0x52
 2321 09ac 01       		.byte	0x1
 2322 09ad 30       		.byte	0x30
 2323 09ae 2C       		.uleb128 0x2c
 2324 09af 01       		.byte	0x1
 2325 09b0 51       		.byte	0x51
 2326 09b1 02       		.byte	0x2
 2327 09b2 08       		.byte	0x8
 2328 09b3 37       		.byte	0x37
 2329 09b4 2C       		.uleb128 0x2c
 2330 09b5 01       		.byte	0x1
 2331 09b6 50       		.byte	0x50
 2332 09b7 02       		.byte	0x2
 2333 09b8 75       		.byte	0x75
 2334 09b9 00       		.sleb128 0
 2335 09ba 00       		.byte	0
 2336 09bb 00       		.byte	0
 2337 09bc 2B       		.uleb128 0x2b
 2338 09bd 10000000 		.4byte	.LVL9
 2339 09c1 E2100000 		.4byte	0x10e2
 2340 09c5 D0090000 		.4byte	0x9d0
 2341 09c9 2C       		.uleb128 0x2c
 2342 09ca 01       		.byte	0x1
 2343 09cb 50       		.byte	0x50
 2344 09cc 02       		.byte	0x2
 2345 09cd 75       		.byte	0x75
 2346 09ce 00       		.sleb128 0
 2347 09cf 00       		.byte	0
 2348 09d0 2B       		.uleb128 0x2b
 2349 09d1 1A000000 		.4byte	.LVL10
 2350 09d5 F7100000 		.4byte	0x10f7
 2351 09d9 EE090000 		.4byte	0x9ee
 2352 09dd 2C       		.uleb128 0x2c
 2353 09de 01       		.byte	0x1
 2354 09df 52       		.byte	0x52
 2355 09e0 01       		.byte	0x1
 2356 09e1 30       		.byte	0x30
 2357 09e2 2C       		.uleb128 0x2c
 2358 09e3 01       		.byte	0x1
 2359 09e4 51       		.byte	0x51
 2360 09e5 01       		.byte	0x1
 2361 09e6 30       		.byte	0x30
 2362 09e7 2C       		.uleb128 0x2c
 2363 09e8 01       		.byte	0x1
 2364 09e9 50       		.byte	0x50
 2365 09ea 02       		.byte	0x2
 2366 09eb 75       		.byte	0x75
 2367 09ec 00       		.sleb128 0
 2368 09ed 00       		.byte	0
 2369 09ee 2B       		.uleb128 0x2b
 2370 09ef 28000000 		.4byte	.LVL11
 2371 09f3 BA100000 		.4byte	0x10ba
 2372 09f7 140A0000 		.4byte	0xa14
 2373 09fb 2C       		.uleb128 0x2c
 2374 09fc 01       		.byte	0x1
 2375 09fd 53       		.byte	0x53
ARM GAS  /tmp/ccABRZiX.s 			page 43


 2376 09fe 02       		.byte	0x2
 2377 09ff 91       		.byte	0x91
 2378 0a00 64       		.sleb128 -28
 2379 0a01 2C       		.uleb128 0x2c
 2380 0a02 01       		.byte	0x1
 2381 0a03 52       		.byte	0x52
 2382 0a04 03       		.byte	0x3
 2383 0a05 0A       		.byte	0xa
 2384 0a06 AA01     		.2byte	0x1aa
 2385 0a08 2C       		.uleb128 0x2c
 2386 0a09 01       		.byte	0x1
 2387 0a0a 51       		.byte	0x51
 2388 0a0b 01       		.byte	0x1
 2389 0a0c 38       		.byte	0x38
 2390 0a0d 2C       		.uleb128 0x2c
 2391 0a0e 01       		.byte	0x1
 2392 0a0f 50       		.byte	0x50
 2393 0a10 02       		.byte	0x2
 2394 0a11 75       		.byte	0x75
 2395 0a12 00       		.sleb128 0
 2396 0a13 00       		.byte	0
 2397 0a14 2B       		.uleb128 0x2b
 2398 0a15 40000000 		.4byte	.LVL12
 2399 0a19 16110000 		.4byte	0x1116
 2400 0a1d 280A0000 		.4byte	0xa28
 2401 0a21 2C       		.uleb128 0x2c
 2402 0a22 01       		.byte	0x1
 2403 0a23 50       		.byte	0x50
 2404 0a24 02       		.byte	0x2
 2405 0a25 75       		.byte	0x75
 2406 0a26 00       		.sleb128 0
 2407 0a27 00       		.byte	0
 2408 0a28 2B       		.uleb128 0x2b
 2409 0a29 A8000000 		.4byte	.LVL22
 2410 0a2d BA100000 		.4byte	0x10ba
 2411 0a31 480A0000 		.4byte	0xa48
 2412 0a35 2C       		.uleb128 0x2c
 2413 0a36 01       		.byte	0x1
 2414 0a37 53       		.byte	0x53
 2415 0a38 02       		.byte	0x2
 2416 0a39 91       		.byte	0x91
 2417 0a3a 64       		.sleb128 -28
 2418 0a3b 2C       		.uleb128 0x2c
 2419 0a3c 01       		.byte	0x1
 2420 0a3d 51       		.byte	0x51
 2421 0a3e 02       		.byte	0x2
 2422 0a3f 08       		.byte	0x8
 2423 0a40 37       		.byte	0x37
 2424 0a41 2C       		.uleb128 0x2c
 2425 0a42 01       		.byte	0x1
 2426 0a43 50       		.byte	0x50
 2427 0a44 02       		.byte	0x2
 2428 0a45 75       		.byte	0x75
 2429 0a46 00       		.sleb128 0
 2430 0a47 00       		.byte	0
 2431 0a48 2B       		.uleb128 0x2b
 2432 0a49 EC000000 		.4byte	.LVL24
ARM GAS  /tmp/ccABRZiX.s 			page 44


 2433 0a4d 2B110000 		.4byte	0x112b
 2434 0a51 6C0A0000 		.4byte	0xa6c
 2435 0a55 2C       		.uleb128 0x2c
 2436 0a56 01       		.byte	0x1
 2437 0a57 53       		.byte	0x53
 2438 0a58 02       		.byte	0x2
 2439 0a59 75       		.byte	0x75
 2440 0a5a 08       		.sleb128 8
 2441 0a5b 2C       		.uleb128 0x2c
 2442 0a5c 01       		.byte	0x1
 2443 0a5d 52       		.byte	0x52
 2444 0a5e 01       		.byte	0x1
 2445 0a5f 30       		.byte	0x30
 2446 0a60 2C       		.uleb128 0x2c
 2447 0a61 01       		.byte	0x1
 2448 0a62 51       		.byte	0x51
 2449 0a63 01       		.byte	0x1
 2450 0a64 32       		.byte	0x32
 2451 0a65 2C       		.uleb128 0x2c
 2452 0a66 01       		.byte	0x1
 2453 0a67 50       		.byte	0x50
 2454 0a68 02       		.byte	0x2
 2455 0a69 75       		.byte	0x75
 2456 0a6a 00       		.sleb128 0
 2457 0a6b 00       		.byte	0
 2458 0a6c 2B       		.uleb128 0x2b
 2459 0a6d FE000000 		.4byte	.LVL25
 2460 0a71 BA100000 		.4byte	0x10ba
 2461 0a75 8B0A0000 		.4byte	0xa8b
 2462 0a79 2C       		.uleb128 0x2c
 2463 0a7a 01       		.byte	0x1
 2464 0a7b 53       		.byte	0x53
 2465 0a7c 02       		.byte	0x2
 2466 0a7d 75       		.byte	0x75
 2467 0a7e 38       		.sleb128 56
 2468 0a7f 2C       		.uleb128 0x2c
 2469 0a80 01       		.byte	0x1
 2470 0a81 51       		.byte	0x51
 2471 0a82 01       		.byte	0x1
 2472 0a83 33       		.byte	0x33
 2473 0a84 2C       		.uleb128 0x2c
 2474 0a85 01       		.byte	0x1
 2475 0a86 50       		.byte	0x50
 2476 0a87 02       		.byte	0x2
 2477 0a88 75       		.byte	0x75
 2478 0a89 00       		.sleb128 0
 2479 0a8a 00       		.byte	0
 2480 0a8b 2B       		.uleb128 0x2b
 2481 0a8c 12010000 		.4byte	.LVL26
 2482 0a90 2B110000 		.4byte	0x112b
 2483 0a94 AA0A0000 		.4byte	0xaaa
 2484 0a98 2C       		.uleb128 0x2c
 2485 0a99 01       		.byte	0x1
 2486 0a9a 53       		.byte	0x53
 2487 0a9b 02       		.byte	0x2
 2488 0a9c 74       		.byte	0x74
 2489 0a9d 00       		.sleb128 0
ARM GAS  /tmp/ccABRZiX.s 			page 45


 2490 0a9e 2C       		.uleb128 0x2c
 2491 0a9f 01       		.byte	0x1
 2492 0aa0 51       		.byte	0x51
 2493 0aa1 01       		.byte	0x1
 2494 0aa2 39       		.byte	0x39
 2495 0aa3 2C       		.uleb128 0x2c
 2496 0aa4 01       		.byte	0x1
 2497 0aa5 50       		.byte	0x50
 2498 0aa6 02       		.byte	0x2
 2499 0aa7 75       		.byte	0x75
 2500 0aa8 00       		.sleb128 0
 2501 0aa9 00       		.byte	0
 2502 0aaa 2B       		.uleb128 0x2b
 2503 0aab 1C010000 		.4byte	.LVL27
 2504 0aaf 53110000 		.4byte	0x1153
 2505 0ab3 BE0A0000 		.4byte	0xabe
 2506 0ab7 2C       		.uleb128 0x2c
 2507 0ab8 01       		.byte	0x1
 2508 0ab9 50       		.byte	0x50
 2509 0aba 02       		.byte	0x2
 2510 0abb 75       		.byte	0x75
 2511 0abc 00       		.sleb128 0
 2512 0abd 00       		.byte	0
 2513 0abe 2B       		.uleb128 0x2b
 2514 0abf 28010000 		.4byte	.LVL28
 2515 0ac3 BA100000 		.4byte	0x10ba
 2516 0ac7 DD0A0000 		.4byte	0xadd
 2517 0acb 2C       		.uleb128 0x2c
 2518 0acc 01       		.byte	0x1
 2519 0acd 53       		.byte	0x53
 2520 0ace 02       		.byte	0x2
 2521 0acf 91       		.byte	0x91
 2522 0ad0 64       		.sleb128 -28
 2523 0ad1 2C       		.uleb128 0x2c
 2524 0ad2 01       		.byte	0x1
 2525 0ad3 51       		.byte	0x51
 2526 0ad4 01       		.byte	0x1
 2527 0ad5 37       		.byte	0x37
 2528 0ad6 2C       		.uleb128 0x2c
 2529 0ad7 01       		.byte	0x1
 2530 0ad8 50       		.byte	0x50
 2531 0ad9 02       		.byte	0x2
 2532 0ada 75       		.byte	0x75
 2533 0adb 00       		.sleb128 0
 2534 0adc 00       		.byte	0
 2535 0add 2B       		.uleb128 0x2b
 2536 0ade 3A010000 		.4byte	.LVL29
 2537 0ae2 BA100000 		.4byte	0x10ba
 2538 0ae6 030B0000 		.4byte	0xb03
 2539 0aea 2C       		.uleb128 0x2c
 2540 0aeb 01       		.byte	0x1
 2541 0aec 53       		.byte	0x53
 2542 0aed 02       		.byte	0x2
 2543 0aee 91       		.byte	0x91
 2544 0aef 64       		.sleb128 -28
 2545 0af0 2C       		.uleb128 0x2c
 2546 0af1 01       		.byte	0x1
ARM GAS  /tmp/ccABRZiX.s 			page 46


 2547 0af2 52       		.byte	0x52
 2548 0af3 03       		.byte	0x3
 2549 0af4 0A       		.byte	0xa
 2550 0af5 0002     		.2byte	0x200
 2551 0af7 2C       		.uleb128 0x2c
 2552 0af8 01       		.byte	0x1
 2553 0af9 51       		.byte	0x51
 2554 0afa 01       		.byte	0x1
 2555 0afb 40       		.byte	0x40
 2556 0afc 2C       		.uleb128 0x2c
 2557 0afd 01       		.byte	0x1
 2558 0afe 50       		.byte	0x50
 2559 0aff 02       		.byte	0x2
 2560 0b00 75       		.byte	0x75
 2561 0b01 00       		.sleb128 0
 2562 0b02 00       		.byte	0
 2563 0b03 2B       		.uleb128 0x2b
 2564 0b04 64010000 		.4byte	.LVL30
 2565 0b08 68110000 		.4byte	0x1168
 2566 0b0c 1C0B0000 		.4byte	0xb1c
 2567 0b10 2C       		.uleb128 0x2c
 2568 0b11 01       		.byte	0x1
 2569 0b12 51       		.byte	0x51
 2570 0b13 01       		.byte	0x1
 2571 0b14 31       		.byte	0x31
 2572 0b15 2C       		.uleb128 0x2c
 2573 0b16 01       		.byte	0x1
 2574 0b17 50       		.byte	0x50
 2575 0b18 02       		.byte	0x2
 2576 0b19 75       		.byte	0x75
 2577 0b1a 00       		.sleb128 0
 2578 0b1b 00       		.byte	0
 2579 0b1c 2B       		.uleb128 0x2b
 2580 0b1d 70010000 		.4byte	.LVL31
 2581 0b21 BA100000 		.4byte	0x10ba
 2582 0b25 3C0B0000 		.4byte	0xb3c
 2583 0b29 2C       		.uleb128 0x2c
 2584 0b2a 01       		.byte	0x1
 2585 0b2b 53       		.byte	0x53
 2586 0b2c 02       		.byte	0x2
 2587 0b2d 91       		.byte	0x91
 2588 0b2e 64       		.sleb128 -28
 2589 0b2f 2C       		.uleb128 0x2c
 2590 0b30 01       		.byte	0x1
 2591 0b31 51       		.byte	0x51
 2592 0b32 02       		.byte	0x2
 2593 0b33 08       		.byte	0x8
 2594 0b34 37       		.byte	0x37
 2595 0b35 2C       		.uleb128 0x2c
 2596 0b36 01       		.byte	0x1
 2597 0b37 50       		.byte	0x50
 2598 0b38 02       		.byte	0x2
 2599 0b39 75       		.byte	0x75
 2600 0b3a 00       		.sleb128 0
 2601 0b3b 00       		.byte	0
 2602 0b3c 2B       		.uleb128 0x2b
 2603 0b3d 94010000 		.4byte	.LVL32
ARM GAS  /tmp/ccABRZiX.s 			page 47


 2604 0b41 BA100000 		.4byte	0x10ba
 2605 0b45 600B0000 		.4byte	0xb60
 2606 0b49 2C       		.uleb128 0x2c
 2607 0b4a 01       		.byte	0x1
 2608 0b4b 53       		.byte	0x53
 2609 0b4c 02       		.byte	0x2
 2610 0b4d 91       		.byte	0x91
 2611 0b4e 64       		.sleb128 -28
 2612 0b4f 2C       		.uleb128 0x2c
 2613 0b50 01       		.byte	0x1
 2614 0b51 52       		.byte	0x52
 2615 0b52 01       		.byte	0x1
 2616 0b53 32       		.byte	0x32
 2617 0b54 2C       		.uleb128 0x2c
 2618 0b55 01       		.byte	0x1
 2619 0b56 51       		.byte	0x51
 2620 0b57 01       		.byte	0x1
 2621 0b58 36       		.byte	0x36
 2622 0b59 2C       		.uleb128 0x2c
 2623 0b5a 01       		.byte	0x1
 2624 0b5b 50       		.byte	0x50
 2625 0b5c 02       		.byte	0x2
 2626 0b5d 75       		.byte	0x75
 2627 0b5e 00       		.sleb128 0
 2628 0b5f 00       		.byte	0
 2629 0b60 2D       		.uleb128 0x2d
 2630 0b61 B2010000 		.4byte	.LVL33
 2631 0b65 82110000 		.4byte	0x1182
 2632 0b69 2C       		.uleb128 0x2c
 2633 0b6a 01       		.byte	0x1
 2634 0b6b 50       		.byte	0x50
 2635 0b6c 02       		.byte	0x2
 2636 0b6d 74       		.byte	0x74
 2637 0b6e 00       		.sleb128 0
 2638 0b6f 00       		.byte	0
 2639 0b70 00       		.byte	0
 2640 0b71 2E       		.uleb128 0x2e
 2641 0b72 9D070000 		.4byte	0x79d
 2642 0b76 00000000 		.4byte	.LFB126
 2643 0b7a 28000000 		.4byte	.LFE126
 2644 0b7e 37010000 		.4byte	.LLST6
 2645 0b82 01       		.byte	0x1
 2646 0b83 FD0B0000 		.4byte	0xbfd
 2647 0b87 2F       		.uleb128 0x2f
 2648 0b88 B0070000 		.4byte	0x7b0
 2649 0b8c 57010000 		.4byte	.LLST7
 2650 0b90 2F       		.uleb128 0x2f
 2651 0b91 BC070000 		.4byte	0x7bc
 2652 0b95 8B010000 		.4byte	.LLST8
 2653 0b99 2F       		.uleb128 0x2f
 2654 0b9a C8070000 		.4byte	0x7c8
 2655 0b9e AC010000 		.4byte	.LLST9
 2656 0ba2 2F       		.uleb128 0x2f
 2657 0ba3 D4070000 		.4byte	0x7d4
 2658 0ba7 CD010000 		.4byte	.LLST10
 2659 0bab 30       		.uleb128 0x30
 2660 0bac DE070000 		.4byte	0x7de
ARM GAS  /tmp/ccABRZiX.s 			page 48


 2661 0bb0 01       		.byte	0x1
 2662 0bb1 50       		.byte	0x50
 2663 0bb2 31       		.uleb128 0x31
 2664 0bb3 9D070000 		.4byte	0x79d
 2665 0bb7 1A000000 		.4byte	.LBB9
 2666 0bbb 26000000 		.4byte	.LBE9
 2667 0bbf 01       		.byte	0x1
 2668 0bc0 9F01     		.2byte	0x19f
 2669 0bc2 32       		.uleb128 0x32
 2670 0bc3 D4070000 		.4byte	0x7d4
 2671 0bc7 32       		.uleb128 0x32
 2672 0bc8 C8070000 		.4byte	0x7c8
 2673 0bcc 32       		.uleb128 0x32
 2674 0bcd BC070000 		.4byte	0x7bc
 2675 0bd1 2F       		.uleb128 0x2f
 2676 0bd2 B0070000 		.4byte	0x7b0
 2677 0bd6 07020000 		.4byte	.LLST11
 2678 0bda 33       		.uleb128 0x33
 2679 0bdb 1A000000 		.4byte	.LBB10
 2680 0bdf 26000000 		.4byte	.LBE10
 2681 0be3 30       		.uleb128 0x30
 2682 0be4 DE070000 		.4byte	0x7de
 2683 0be8 01       		.byte	0x1
 2684 0be9 50       		.byte	0x50
 2685 0bea 2D       		.uleb128 0x2d
 2686 0beb 22000000 		.4byte	.LVL38
 2687 0bef 9A110000 		.4byte	0x119a
 2688 0bf3 2C       		.uleb128 0x2c
 2689 0bf4 01       		.byte	0x1
 2690 0bf5 50       		.byte	0x50
 2691 0bf6 02       		.byte	0x2
 2692 0bf7 74       		.byte	0x74
 2693 0bf8 00       		.sleb128 0
 2694 0bf9 00       		.byte	0
 2695 0bfa 00       		.byte	0
 2696 0bfb 00       		.byte	0
 2697 0bfc 00       		.byte	0
 2698 0bfd 2E       		.uleb128 0x2e
 2699 0bfe F1070000 		.4byte	0x7f1
 2700 0c02 00000000 		.4byte	.LFB125
 2701 0c06 28000000 		.4byte	.LFE125
 2702 0c0a 25020000 		.4byte	.LLST12
 2703 0c0e 01       		.byte	0x1
 2704 0c0f 890C0000 		.4byte	0xc89
 2705 0c13 2F       		.uleb128 0x2f
 2706 0c14 04080000 		.4byte	0x804
 2707 0c18 45020000 		.4byte	.LLST13
 2708 0c1c 2F       		.uleb128 0x2f
 2709 0c1d 10080000 		.4byte	0x810
 2710 0c21 79020000 		.4byte	.LLST14
 2711 0c25 2F       		.uleb128 0x2f
 2712 0c26 1C080000 		.4byte	0x81c
 2713 0c2a 9A020000 		.4byte	.LLST15
 2714 0c2e 2F       		.uleb128 0x2f
 2715 0c2f 28080000 		.4byte	0x828
 2716 0c33 BB020000 		.4byte	.LLST16
 2717 0c37 30       		.uleb128 0x30
ARM GAS  /tmp/ccABRZiX.s 			page 49


 2718 0c38 32080000 		.4byte	0x832
 2719 0c3c 01       		.byte	0x1
 2720 0c3d 50       		.byte	0x50
 2721 0c3e 31       		.uleb128 0x31
 2722 0c3f F1070000 		.4byte	0x7f1
 2723 0c43 1A000000 		.4byte	.LBB13
 2724 0c47 26000000 		.4byte	.LBE13
 2725 0c4b 01       		.byte	0x1
 2726 0c4c 7901     		.2byte	0x179
 2727 0c4e 32       		.uleb128 0x32
 2728 0c4f 28080000 		.4byte	0x828
 2729 0c53 32       		.uleb128 0x32
 2730 0c54 1C080000 		.4byte	0x81c
 2731 0c58 32       		.uleb128 0x32
 2732 0c59 10080000 		.4byte	0x810
 2733 0c5d 2F       		.uleb128 0x2f
 2734 0c5e 04080000 		.4byte	0x804
 2735 0c62 F5020000 		.4byte	.LLST17
 2736 0c66 33       		.uleb128 0x33
 2737 0c67 1A000000 		.4byte	.LBB14
 2738 0c6b 26000000 		.4byte	.LBE14
 2739 0c6f 30       		.uleb128 0x30
 2740 0c70 32080000 		.4byte	0x832
 2741 0c74 01       		.byte	0x1
 2742 0c75 50       		.byte	0x50
 2743 0c76 2D       		.uleb128 0x2d
 2744 0c77 22000000 		.4byte	.LVL43
 2745 0c7b C2110000 		.4byte	0x11c2
 2746 0c7f 2C       		.uleb128 0x2c
 2747 0c80 01       		.byte	0x1
 2748 0c81 50       		.byte	0x50
 2749 0c82 02       		.byte	0x2
 2750 0c83 74       		.byte	0x74
 2751 0c84 00       		.sleb128 0
 2752 0c85 00       		.byte	0
 2753 0c86 00       		.byte	0
 2754 0c87 00       		.byte	0
 2755 0c88 00       		.byte	0
 2756 0c89 25       		.uleb128 0x25
 2757 0c8a 01       		.byte	0x1
 2758 0c8b FC020000 		.4byte	.LASF114
 2759 0c8f 01       		.byte	0x1
 2760 0c90 4B       		.byte	0x4b
 2761 0c91 01       		.byte	0x1
 2762 0c92 90000000 		.4byte	0x90
 2763 0c96 00000000 		.4byte	.LFB118
 2764 0c9a 42000000 		.4byte	.LFE118
 2765 0c9e 13030000 		.4byte	.LLST18
 2766 0ca2 01       		.byte	0x1
 2767 0ca3 F30C0000 		.4byte	0xcf3
 2768 0ca7 26       		.uleb128 0x26
 2769 0ca8 E7040000 		.4byte	.LASF103
 2770 0cac 01       		.byte	0x1
 2771 0cad 4B       		.byte	0x4b
 2772 0cae EB070000 		.4byte	0x7eb
 2773 0cb2 3F030000 		.4byte	.LLST19
 2774 0cb6 27       		.uleb128 0x27
ARM GAS  /tmp/ccABRZiX.s 			page 50


 2775 0cb7 94010000 		.4byte	.LASF113
 2776 0cbb 01       		.byte	0x1
 2777 0cbc 4C       		.byte	0x4c
 2778 0cbd 00040000 		.4byte	0x400
 2779 0cc1 02       		.byte	0x2
 2780 0cc2 91       		.byte	0x91
 2781 0cc3 74       		.sleb128 -12
 2782 0cc4 2B       		.uleb128 0x2b
 2783 0cc5 12000000 		.4byte	.LVL46
 2784 0cc9 BA100000 		.4byte	0x10ba
 2785 0ccd E30C0000 		.4byte	0xce3
 2786 0cd1 2C       		.uleb128 0x2c
 2787 0cd2 01       		.byte	0x1
 2788 0cd3 53       		.byte	0x53
 2789 0cd4 02       		.byte	0x2
 2790 0cd5 91       		.byte	0x91
 2791 0cd6 74       		.sleb128 -12
 2792 0cd7 2C       		.uleb128 0x2c
 2793 0cd8 01       		.byte	0x1
 2794 0cd9 51       		.byte	0x51
 2795 0cda 01       		.byte	0x1
 2796 0cdb 3D       		.byte	0x3d
 2797 0cdc 2C       		.uleb128 0x2c
 2798 0cdd 01       		.byte	0x1
 2799 0cde 50       		.byte	0x50
 2800 0cdf 02       		.byte	0x2
 2801 0ce0 74       		.byte	0x74
 2802 0ce1 00       		.sleb128 0
 2803 0ce2 00       		.byte	0
 2804 0ce3 2D       		.uleb128 0x2d
 2805 0ce4 3C000000 		.4byte	.LVL47
 2806 0ce8 A5100000 		.4byte	0x10a5
 2807 0cec 2C       		.uleb128 0x2c
 2808 0ced 01       		.byte	0x1
 2809 0cee 50       		.byte	0x50
 2810 0cef 01       		.byte	0x1
 2811 0cf0 31       		.byte	0x31
 2812 0cf1 00       		.byte	0
 2813 0cf2 00       		.byte	0
 2814 0cf3 2E       		.uleb128 0x2e
 2815 0cf4 3F080000 		.4byte	0x83f
 2816 0cf8 00000000 		.4byte	.LFB124
 2817 0cfc 46000000 		.4byte	.LFE124
 2818 0d00 5D030000 		.4byte	.LLST20
 2819 0d04 01       		.byte	0x1
 2820 0d05 A30D0000 		.4byte	0xda3
 2821 0d09 2F       		.uleb128 0x2f
 2822 0d0a 52080000 		.4byte	0x852
 2823 0d0e 7D030000 		.4byte	.LLST21
 2824 0d12 34       		.uleb128 0x34
 2825 0d13 04000000 		.4byte	.LBB22
 2826 0d17 0A000000 		.4byte	.LBE22
 2827 0d1b 290D0000 		.4byte	0xd29
 2828 0d1f 35       		.uleb128 0x35
 2829 0d20 63080000 		.4byte	0x863
 2830 0d24 C7030000 		.4byte	.LLST22
 2831 0d28 00       		.byte	0
ARM GAS  /tmp/ccABRZiX.s 			page 51


 2832 0d29 36       		.uleb128 0x36
 2833 0d2a 3F080000 		.4byte	0x83f
 2834 0d2e 10000000 		.4byte	.LBB23
 2835 0d32 18000000 		.4byte	.Ldebug_ranges0+0x18
 2836 0d36 01       		.byte	0x1
 2837 0d37 4E01     		.2byte	0x14e
 2838 0d39 8F0D0000 		.4byte	0xd8f
 2839 0d3d 2F       		.uleb128 0x2f
 2840 0d3e 52080000 		.4byte	0x852
 2841 0d42 DA030000 		.4byte	.LLST23
 2842 0d46 34       		.uleb128 0x34
 2843 0d47 14000000 		.4byte	.LBB25
 2844 0d4b 1A000000 		.4byte	.LBE25
 2845 0d4f 5D0D0000 		.4byte	0xd5d
 2846 0d53 35       		.uleb128 0x35
 2847 0d54 83080000 		.4byte	0x883
 2848 0d58 0E040000 		.4byte	.LLST24
 2849 0d5c 00       		.byte	0
 2850 0d5d 2B       		.uleb128 0x2b
 2851 0d5e 1E000000 		.4byte	.LVL55
 2852 0d62 890C0000 		.4byte	0xc89
 2853 0d66 710D0000 		.4byte	0xd71
 2854 0d6a 2C       		.uleb128 0x2c
 2855 0d6b 01       		.byte	0x1
 2856 0d6c 50       		.byte	0x50
 2857 0d6d 02       		.byte	0x2
 2858 0d6e 74       		.byte	0x74
 2859 0d6f 00       		.sleb128 0
 2860 0d70 00       		.byte	0
 2861 0d71 2B       		.uleb128 0x2b
 2862 0d72 28000000 		.4byte	.LVL56
 2863 0d76 16110000 		.4byte	0x1116
 2864 0d7a 850D0000 		.4byte	0xd85
 2865 0d7e 2C       		.uleb128 0x2c
 2866 0d7f 01       		.byte	0x1
 2867 0d80 50       		.byte	0x50
 2868 0d81 02       		.byte	0x2
 2869 0d82 74       		.byte	0x74
 2870 0d83 00       		.sleb128 0
 2871 0d84 00       		.byte	0
 2872 0d85 37       		.uleb128 0x37
 2873 0d86 34000000 		.4byte	.LVL58
 2874 0d8a 16110000 		.4byte	0x1116
 2875 0d8e 00       		.byte	0
 2876 0d8f 33       		.uleb128 0x33
 2877 0d90 3C000000 		.4byte	.LBB28
 2878 0d94 42000000 		.4byte	.LBE28
 2879 0d98 35       		.uleb128 0x35
 2880 0d99 75080000 		.4byte	0x875
 2881 0d9d 21040000 		.4byte	.LLST25
 2882 0da1 00       		.byte	0
 2883 0da2 00       		.byte	0
 2884 0da3 38       		.uleb128 0x38
 2885 0da4 01       		.byte	0x1
 2886 0da5 19000000 		.4byte	.LASF115
 2887 0da9 01       		.byte	0x1
 2888 0daa 72       		.byte	0x72
ARM GAS  /tmp/ccABRZiX.s 			page 52


 2889 0dab 01       		.byte	0x1
 2890 0dac 00000000 		.4byte	.LFB119
 2891 0db0 04000000 		.4byte	.LFE119
 2892 0db4 02       		.byte	0x2
 2893 0db5 7D       		.byte	0x7d
 2894 0db6 00       		.sleb128 0
 2895 0db7 01       		.byte	0x1
 2896 0db8 C70D0000 		.4byte	0xdc7
 2897 0dbc 24       		.uleb128 0x24
 2898 0dbd 04000000 		.4byte	.LVL63
 2899 0dc1 01       		.byte	0x1
 2900 0dc2 EA110000 		.4byte	0x11ea
 2901 0dc6 00       		.byte	0
 2902 0dc7 38       		.uleb128 0x38
 2903 0dc8 01       		.byte	0x1
 2904 0dc9 7E030000 		.4byte	.LASF116
 2905 0dcd 01       		.byte	0x1
 2906 0dce 7E       		.byte	0x7e
 2907 0dcf 01       		.byte	0x1
 2908 0dd0 00000000 		.4byte	.LFB120
 2909 0dd4 18000000 		.4byte	.LFE120
 2910 0dd8 02       		.byte	0x2
 2911 0dd9 7D       		.byte	0x7d
 2912 0dda 00       		.sleb128 0
 2913 0ddb 01       		.byte	0x1
 2914 0ddc EE0D0000 		.4byte	0xdee
 2915 0de0 39       		.uleb128 0x39
 2916 0de1 E7040000 		.4byte	.LASF103
 2917 0de5 01       		.byte	0x1
 2918 0de6 7E       		.byte	0x7e
 2919 0de7 EB070000 		.4byte	0x7eb
 2920 0deb 01       		.byte	0x1
 2921 0dec 50       		.byte	0x50
 2922 0ded 00       		.byte	0
 2923 0dee 3A       		.uleb128 0x3a
 2924 0def 01       		.byte	0x1
 2925 0df0 99030000 		.4byte	.LASF117
 2926 0df4 01       		.byte	0x1
 2927 0df5 91       		.byte	0x91
 2928 0df6 01       		.byte	0x1
 2929 0df7 00000000 		.4byte	.LFB121
 2930 0dfb 1C000000 		.4byte	.LFE121
 2931 0dff 34040000 		.4byte	.LLST26
 2932 0e03 01       		.byte	0x1
 2933 0e04 6D0E0000 		.4byte	0xe6d
 2934 0e08 26       		.uleb128 0x26
 2935 0e09 E7040000 		.4byte	.LASF103
 2936 0e0d 01       		.byte	0x1
 2937 0e0e 91       		.byte	0x91
 2938 0e0f EB070000 		.4byte	0x7eb
 2939 0e13 54040000 		.4byte	.LLST27
 2940 0e17 26       		.uleb128 0x26
 2941 0e18 E0040000 		.4byte	.LASF87
 2942 0e1c 01       		.byte	0x1
 2943 0e1d 91       		.byte	0x91
 2944 0e1e 87070000 		.4byte	0x787
 2945 0e22 72040000 		.4byte	.LLST28
ARM GAS  /tmp/ccABRZiX.s 			page 53


 2946 0e26 29       		.uleb128 0x29
 2947 0e27 30000000 		.4byte	.Ldebug_ranges0+0x30
 2948 0e2b 3F0E0000 		.4byte	0xe3f
 2949 0e2f 2A       		.uleb128 0x2a
 2950 0e30 746D7000 		.ascii	"tmp\000"
 2951 0e34 01       		.byte	0x1
 2952 0e35 95       		.byte	0x95
 2953 0e36 70000000 		.4byte	0x70
 2954 0e3a 93040000 		.4byte	.LLST29
 2955 0e3e 00       		.byte	0
 2956 0e3f 34       		.uleb128 0x34
 2957 0e40 14000000 		.4byte	.LBB31
 2958 0e44 1C000000 		.4byte	.LBE31
 2959 0e48 5C0E0000 		.4byte	0xe5c
 2960 0e4c 2A       		.uleb128 0x2a
 2961 0e4d 746D7000 		.ascii	"tmp\000"
 2962 0e51 01       		.byte	0x1
 2963 0e52 9B       		.byte	0x9b
 2964 0e53 70000000 		.4byte	0x70
 2965 0e57 A6040000 		.4byte	.LLST30
 2966 0e5b 00       		.byte	0
 2967 0e5c 2D       		.uleb128 0x2d
 2968 0e5d 10000000 		.4byte	.LVL68
 2969 0e61 F5110000 		.4byte	0x11f5
 2970 0e65 2C       		.uleb128 0x2c
 2971 0e66 01       		.byte	0x1
 2972 0e67 50       		.byte	0x50
 2973 0e68 02       		.byte	0x2
 2974 0e69 74       		.byte	0x74
 2975 0e6a 00       		.sleb128 0
 2976 0e6b 00       		.byte	0
 2977 0e6c 00       		.byte	0
 2978 0e6d 3A       		.uleb128 0x3a
 2979 0e6e 01       		.byte	0x1
 2980 0e6f BC030000 		.4byte	.LASF118
 2981 0e73 01       		.byte	0x1
 2982 0e74 A5       		.byte	0xa5
 2983 0e75 01       		.byte	0x1
 2984 0e76 00000000 		.4byte	.LFB122
 2985 0e7a 1A000000 		.4byte	.LFE122
 2986 0e7e B9040000 		.4byte	.LLST31
 2987 0e82 01       		.byte	0x1
 2988 0e83 DD0E0000 		.4byte	0xedd
 2989 0e87 26       		.uleb128 0x26
 2990 0e88 E7040000 		.4byte	.LASF103
 2991 0e8c 01       		.byte	0x1
 2992 0e8d A5       		.byte	0xa5
 2993 0e8e EB070000 		.4byte	0x7eb
 2994 0e92 D9040000 		.4byte	.LLST32
 2995 0e96 29       		.uleb128 0x29
 2996 0e97 48000000 		.4byte	.Ldebug_ranges0+0x48
 2997 0e9b AF0E0000 		.4byte	0xeaf
 2998 0e9f 2A       		.uleb128 0x2a
 2999 0ea0 746D7000 		.ascii	"tmp\000"
 3000 0ea4 01       		.byte	0x1
 3001 0ea5 A9       		.byte	0xa9
 3002 0ea6 70000000 		.4byte	0x70
ARM GAS  /tmp/ccABRZiX.s 			page 54


 3003 0eaa F7040000 		.4byte	.LLST33
 3004 0eae 00       		.byte	0
 3005 0eaf 34       		.uleb128 0x34
 3006 0eb0 12000000 		.4byte	.LBB34
 3007 0eb4 1A000000 		.4byte	.LBE34
 3008 0eb8 CC0E0000 		.4byte	0xecc
 3009 0ebc 2A       		.uleb128 0x2a
 3010 0ebd 746D7000 		.ascii	"tmp\000"
 3011 0ec1 01       		.byte	0x1
 3012 0ec2 AE       		.byte	0xae
 3013 0ec3 70000000 		.4byte	0x70
 3014 0ec7 0A050000 		.4byte	.LLST34
 3015 0ecb 00       		.byte	0
 3016 0ecc 2D       		.uleb128 0x2d
 3017 0ecd 0E000000 		.4byte	.LVL74
 3018 0ed1 0A120000 		.4byte	0x120a
 3019 0ed5 2C       		.uleb128 0x2c
 3020 0ed6 01       		.byte	0x1
 3021 0ed7 50       		.byte	0x50
 3022 0ed8 02       		.byte	0x2
 3023 0ed9 74       		.byte	0x74
 3024 0eda 00       		.sleb128 0
 3025 0edb 00       		.byte	0
 3026 0edc 00       		.byte	0
 3027 0edd 21       		.uleb128 0x21
 3028 0ede 01       		.byte	0x1
 3029 0edf F0050000 		.4byte	.LASF119
 3030 0ee3 01       		.byte	0x1
 3031 0ee4 BD01     		.2byte	0x1bd
 3032 0ee6 01       		.byte	0x1
 3033 0ee7 10060000 		.4byte	0x610
 3034 0eeb 00000000 		.4byte	.LFB127
 3035 0eef 14000000 		.4byte	.LFE127
 3036 0ef3 02       		.byte	0x2
 3037 0ef4 7D       		.byte	0x7d
 3038 0ef5 00       		.sleb128 0
 3039 0ef6 01       		.byte	0x1
 3040 0ef7 500F0000 		.4byte	0xf50
 3041 0efb 22       		.uleb128 0x22
 3042 0efc E7040000 		.4byte	.LASF103
 3043 0f00 01       		.byte	0x1
 3044 0f01 BD01     		.2byte	0x1bd
 3045 0f03 EB070000 		.4byte	0x7eb
 3046 0f07 1D050000 		.4byte	.LLST35
 3047 0f0b 3B       		.uleb128 0x3b
 3048 0f0c CD050000 		.4byte	.LASF120
 3049 0f10 01       		.byte	0x1
 3050 0f11 BE01     		.2byte	0x1be
 3051 0f13 10060000 		.4byte	0x610
 3052 0f17 01       		.byte	0x1
 3053 0f18 50       		.byte	0x50
 3054 0f19 34       		.uleb128 0x34
 3055 0f1a 02000000 		.4byte	.LBB35
 3056 0f1e 08000000 		.4byte	.LBE35
 3057 0f22 370F0000 		.4byte	0xf37
 3058 0f26 3C       		.uleb128 0x3c
 3059 0f27 746D7000 		.ascii	"tmp\000"
ARM GAS  /tmp/ccABRZiX.s 			page 55


 3060 0f2b 01       		.byte	0x1
 3061 0f2c C401     		.2byte	0x1c4
 3062 0f2e 70000000 		.4byte	0x70
 3063 0f32 3B050000 		.4byte	.LLST36
 3064 0f36 00       		.byte	0
 3065 0f37 33       		.uleb128 0x33
 3066 0f38 0E000000 		.4byte	.LBB36
 3067 0f3c 12000000 		.4byte	.LBE36
 3068 0f40 3D       		.uleb128 0x3d
 3069 0f41 746D7000 		.ascii	"tmp\000"
 3070 0f45 01       		.byte	0x1
 3071 0f46 C701     		.2byte	0x1c7
 3072 0f48 70000000 		.4byte	0x70
 3073 0f4c 01       		.byte	0x1
 3074 0f4d 53       		.byte	0x53
 3075 0f4e 00       		.byte	0
 3076 0f4f 00       		.byte	0
 3077 0f50 3E       		.uleb128 0x3e
 3078 0f51 01       		.byte	0x1
 3079 0f52 32030000 		.4byte	.LASF121
 3080 0f56 01       		.byte	0x1
 3081 0f57 0702     		.2byte	0x207
 3082 0f59 01       		.byte	0x1
 3083 0f5a 90000000 		.4byte	0x90
 3084 0f5e 00000000 		.4byte	.LFB130
 3085 0f62 84000000 		.4byte	.LFE130
 3086 0f66 4E050000 		.4byte	.LLST37
 3087 0f6a 01       		.byte	0x1
 3088 0f6b 3F100000 		.4byte	0x103f
 3089 0f6f 22       		.uleb128 0x22
 3090 0f70 E7040000 		.4byte	.LASF103
 3091 0f74 01       		.byte	0x1
 3092 0f75 0702     		.2byte	0x207
 3093 0f77 EB070000 		.4byte	0x7eb
 3094 0f7b 7A050000 		.4byte	.LLST38
 3095 0f7f 22       		.uleb128 0x22
 3096 0f80 20050000 		.4byte	.LASF104
 3097 0f84 01       		.byte	0x1
 3098 0f85 0702     		.2byte	0x207
 3099 0f87 70000000 		.4byte	0x70
 3100 0f8b 98050000 		.4byte	.LLST39
 3101 0f8f 22       		.uleb128 0x22
 3102 0f90 D3050000 		.4byte	.LASF122
 3103 0f94 01       		.byte	0x1
 3104 0f95 0702     		.2byte	0x207
 3105 0f97 70000000 		.4byte	0x70
 3106 0f9b C1050000 		.4byte	.LLST40
 3107 0f9f 3B       		.uleb128 0x3b
 3108 0fa0 94010000 		.4byte	.LASF113
 3109 0fa4 01       		.byte	0x1
 3110 0fa5 0802     		.2byte	0x208
 3111 0fa7 00040000 		.4byte	0x400
 3112 0fab 02       		.byte	0x2
 3113 0fac 91       		.byte	0x91
 3114 0fad 6C       		.sleb128 -20
 3115 0fae 2B       		.uleb128 0x2b
 3116 0faf 1A000000 		.4byte	.LVL88
ARM GAS  /tmp/ccABRZiX.s 			page 56


 3117 0fb3 890C0000 		.4byte	0xc89
 3118 0fb7 C20F0000 		.4byte	0xfc2
 3119 0fbb 2C       		.uleb128 0x2c
 3120 0fbc 01       		.byte	0x1
 3121 0fbd 50       		.byte	0x50
 3122 0fbe 02       		.byte	0x2
 3123 0fbf 74       		.byte	0x74
 3124 0fc0 00       		.sleb128 0
 3125 0fc1 00       		.byte	0
 3126 0fc2 2B       		.uleb128 0x2b
 3127 0fc3 26000000 		.4byte	.LVL89
 3128 0fc7 BA100000 		.4byte	0x10ba
 3129 0fcb E80F0000 		.4byte	0xfe8
 3130 0fcf 2C       		.uleb128 0x2c
 3131 0fd0 01       		.byte	0x1
 3132 0fd1 53       		.byte	0x53
 3133 0fd2 02       		.byte	0x2
 3134 0fd3 91       		.byte	0x91
 3135 0fd4 6C       		.sleb128 -20
 3136 0fd5 2C       		.uleb128 0x2c
 3137 0fd6 01       		.byte	0x1
 3138 0fd7 52       		.byte	0x52
 3139 0fd8 02       		.byte	0x2
 3140 0fd9 75       		.byte	0x75
 3141 0fda 00       		.sleb128 0
 3142 0fdb 2C       		.uleb128 0x2c
 3143 0fdc 01       		.byte	0x1
 3144 0fdd 51       		.byte	0x51
 3145 0fde 02       		.byte	0x2
 3146 0fdf 08       		.byte	0x8
 3147 0fe0 20       		.byte	0x20
 3148 0fe1 2C       		.uleb128 0x2c
 3149 0fe2 01       		.byte	0x1
 3150 0fe3 50       		.byte	0x50
 3151 0fe4 02       		.byte	0x2
 3152 0fe5 74       		.byte	0x74
 3153 0fe6 00       		.sleb128 0
 3154 0fe7 00       		.byte	0
 3155 0fe8 2B       		.uleb128 0x2b
 3156 0fe9 48000000 		.4byte	.LVL92
 3157 0fed BA100000 		.4byte	0x10ba
 3158 0ff1 0E100000 		.4byte	0x100e
 3159 0ff5 2C       		.uleb128 0x2c
 3160 0ff6 01       		.byte	0x1
 3161 0ff7 53       		.byte	0x53
 3162 0ff8 02       		.byte	0x2
 3163 0ff9 91       		.byte	0x91
 3164 0ffa 6C       		.sleb128 -20
 3165 0ffb 2C       		.uleb128 0x2c
 3166 0ffc 01       		.byte	0x1
 3167 0ffd 52       		.byte	0x52
 3168 0ffe 02       		.byte	0x2
 3169 0fff 76       		.byte	0x76
 3170 1000 00       		.sleb128 0
 3171 1001 2C       		.uleb128 0x2c
 3172 1002 01       		.byte	0x1
 3173 1003 51       		.byte	0x51
ARM GAS  /tmp/ccABRZiX.s 			page 57


 3174 1004 02       		.byte	0x2
 3175 1005 08       		.byte	0x8
 3176 1006 21       		.byte	0x21
 3177 1007 2C       		.uleb128 0x2c
 3178 1008 01       		.byte	0x1
 3179 1009 50       		.byte	0x50
 3180 100a 02       		.byte	0x2
 3181 100b 74       		.byte	0x74
 3182 100c 00       		.sleb128 0
 3183 100d 00       		.byte	0
 3184 100e 2B       		.uleb128 0x2b
 3185 100f 66000000 		.4byte	.LVL93
 3186 1013 BA100000 		.4byte	0x10ba
 3187 1017 2E100000 		.4byte	0x102e
 3188 101b 2C       		.uleb128 0x2c
 3189 101c 01       		.byte	0x1
 3190 101d 53       		.byte	0x53
 3191 101e 02       		.byte	0x2
 3192 101f 91       		.byte	0x91
 3193 1020 6C       		.sleb128 -20
 3194 1021 2C       		.uleb128 0x2c
 3195 1022 01       		.byte	0x1
 3196 1023 51       		.byte	0x51
 3197 1024 02       		.byte	0x2
 3198 1025 08       		.byte	0x8
 3199 1026 26       		.byte	0x26
 3200 1027 2C       		.uleb128 0x2c
 3201 1028 01       		.byte	0x1
 3202 1029 50       		.byte	0x50
 3203 102a 02       		.byte	0x2
 3204 102b 74       		.byte	0x74
 3205 102c 00       		.sleb128 0
 3206 102d 00       		.byte	0
 3207 102e 2D       		.uleb128 0x2d
 3208 102f 80000000 		.4byte	.LVL95
 3209 1033 890C0000 		.4byte	0xc89
 3210 1037 2C       		.uleb128 0x2c
 3211 1038 01       		.byte	0x1
 3212 1039 50       		.byte	0x50
 3213 103a 02       		.byte	0x2
 3214 103b 74       		.byte	0x74
 3215 103c 00       		.sleb128 0
 3216 103d 00       		.byte	0
 3217 103e 00       		.byte	0
 3218 103f 27       		.uleb128 0x27
 3219 1040 A6010000 		.4byte	.LASF123
 3220 1044 01       		.byte	0x1
 3221 1045 31       		.byte	0x31
 3222 1046 82070000 		.4byte	0x782
 3223 104a 05       		.byte	0x5
 3224 104b 03       		.byte	0x3
 3225 104c 00000000 		.4byte	sdc_vmt
 3226 1050 3F       		.uleb128 0x3f
 3227 1051 85000000 		.4byte	.LASF142
 3228 1055 0D       		.byte	0xd
 3229 1056 9806     		.2byte	0x698
 3230 1058 10040000 		.4byte	0x410
ARM GAS  /tmp/ccABRZiX.s 			page 58


 3231 105c 01       		.byte	0x1
 3232 105d 01       		.byte	0x1
 3233 105e 40       		.uleb128 0x40
 3234 105f 01       		.byte	0x1
 3235 1060 1F020000 		.4byte	.LASF124
 3236 1064 0B       		.byte	0xb
 3237 1065 4901     		.2byte	0x149
 3238 1067 01       		.byte	0x1
 3239 1068 90000000 		.4byte	0x90
 3240 106c 01       		.byte	0x1
 3241 106d 77100000 		.4byte	0x1077
 3242 1071 19       		.uleb128 0x19
 3243 1072 EB070000 		.4byte	0x7eb
 3244 1076 00       		.byte	0
 3245 1077 40       		.uleb128 0x40
 3246 1078 01       		.byte	0x1
 3247 1079 05060000 		.4byte	.LASF125
 3248 107d 0B       		.byte	0xb
 3249 107e 3F01     		.2byte	0x13f
 3250 1080 01       		.byte	0x1
 3251 1081 90000000 		.4byte	0x90
 3252 1085 01       		.byte	0x1
 3253 1086 9F100000 		.4byte	0x109f
 3254 108a 19       		.uleb128 0x19
 3255 108b EB070000 		.4byte	0x7eb
 3256 108f 19       		.uleb128 0x19
 3257 1090 3E000000 		.4byte	0x3e
 3258 1094 19       		.uleb128 0x19
 3259 1095 70000000 		.4byte	0x70
 3260 1099 19       		.uleb128 0x19
 3261 109a 9F100000 		.4byte	0x109f
 3262 109e 00       		.byte	0
 3263 109f 09       		.uleb128 0x9
 3264 10a0 04       		.byte	0x4
 3265 10a1 70000000 		.4byte	0x70
 3266 10a5 41       		.uleb128 0x41
 3267 10a6 01       		.byte	0x1
 3268 10a7 97050000 		.4byte	.LASF127
 3269 10ab 05       		.byte	0x5
 3270 10ac 6E01     		.2byte	0x16e
 3271 10ae 01       		.byte	0x1
 3272 10af 01       		.byte	0x1
 3273 10b0 BA100000 		.4byte	0x10ba
 3274 10b4 19       		.uleb128 0x19
 3275 10b5 E8000000 		.4byte	0xe8
 3276 10b9 00       		.byte	0
 3277 10ba 40       		.uleb128 0x40
 3278 10bb 01       		.byte	0x1
 3279 10bc DC010000 		.4byte	.LASF126
 3280 10c0 0B       		.byte	0xb
 3281 10c1 4101     		.2byte	0x141
 3282 10c3 01       		.byte	0x1
 3283 10c4 90000000 		.4byte	0x90
 3284 10c8 01       		.byte	0x1
 3285 10c9 E2100000 		.4byte	0x10e2
 3286 10cd 19       		.uleb128 0x19
 3287 10ce EB070000 		.4byte	0x7eb
ARM GAS  /tmp/ccABRZiX.s 			page 59


 3288 10d2 19       		.uleb128 0x19
 3289 10d3 3E000000 		.4byte	0x3e
 3290 10d7 19       		.uleb128 0x19
 3291 10d8 70000000 		.4byte	0x70
 3292 10dc 19       		.uleb128 0x19
 3293 10dd 9F100000 		.4byte	0x109f
 3294 10e1 00       		.byte	0
 3295 10e2 41       		.uleb128 0x41
 3296 10e3 01       		.byte	0x1
 3297 10e4 7D040000 		.4byte	.LASF128
 3298 10e8 0B       		.byte	0xb
 3299 10e9 3A01     		.2byte	0x13a
 3300 10eb 01       		.byte	0x1
 3301 10ec 01       		.byte	0x1
 3302 10ed F7100000 		.4byte	0x10f7
 3303 10f1 19       		.uleb128 0x19
 3304 10f2 EB070000 		.4byte	0x7eb
 3305 10f6 00       		.byte	0
 3306 10f7 41       		.uleb128 0x41
 3307 10f8 01       		.byte	0x1
 3308 10f9 E6020000 		.4byte	.LASF129
 3309 10fd 0B       		.byte	0xb
 3310 10fe 3E01     		.2byte	0x13e
 3311 1100 01       		.byte	0x1
 3312 1101 01       		.byte	0x1
 3313 1102 16110000 		.4byte	0x1116
 3314 1106 19       		.uleb128 0x19
 3315 1107 EB070000 		.4byte	0x7eb
 3316 110b 19       		.uleb128 0x19
 3317 110c 3E000000 		.4byte	0x3e
 3318 1110 19       		.uleb128 0x19
 3319 1111 70000000 		.4byte	0x70
 3320 1115 00       		.byte	0
 3321 1116 41       		.uleb128 0x41
 3322 1117 01       		.byte	0x1
 3323 1118 62050000 		.4byte	.LASF130
 3324 111c 0B       		.byte	0xb
 3325 111d 3C01     		.2byte	0x13c
 3326 111f 01       		.byte	0x1
 3327 1120 01       		.byte	0x1
 3328 1121 2B110000 		.4byte	0x112b
 3329 1125 19       		.uleb128 0x19
 3330 1126 EB070000 		.4byte	0x7eb
 3331 112a 00       		.byte	0
 3332 112b 40       		.uleb128 0x40
 3333 112c 01       		.byte	0x1
 3334 112d 7A010000 		.4byte	.LASF131
 3335 1131 0B       		.byte	0xb
 3336 1132 4301     		.2byte	0x143
 3337 1134 01       		.byte	0x1
 3338 1135 90000000 		.4byte	0x90
 3339 1139 01       		.byte	0x1
 3340 113a 53110000 		.4byte	0x1153
 3341 113e 19       		.uleb128 0x19
 3342 113f EB070000 		.4byte	0x7eb
 3343 1143 19       		.uleb128 0x19
 3344 1144 3E000000 		.4byte	0x3e
ARM GAS  /tmp/ccABRZiX.s 			page 60


 3345 1148 19       		.uleb128 0x19
 3346 1149 70000000 		.4byte	0x70
 3347 114d 19       		.uleb128 0x19
 3348 114e 9F100000 		.4byte	0x109f
 3349 1152 00       		.byte	0
 3350 1153 41       		.uleb128 0x41
 3351 1154 01       		.byte	0x1
 3352 1155 3F040000 		.4byte	.LASF132
 3353 1159 0B       		.byte	0xb
 3354 115a 3B01     		.2byte	0x13b
 3355 115c 01       		.byte	0x1
 3356 115d 01       		.byte	0x1
 3357 115e 68110000 		.4byte	0x1168
 3358 1162 19       		.uleb128 0x19
 3359 1163 EB070000 		.4byte	0x7eb
 3360 1167 00       		.byte	0
 3361 1168 41       		.uleb128 0x41
 3362 1169 01       		.byte	0x1
 3363 116a 9D040000 		.4byte	.LASF133
 3364 116e 0B       		.byte	0xb
 3365 116f 3D01     		.2byte	0x13d
 3366 1171 01       		.byte	0x1
 3367 1172 01       		.byte	0x1
 3368 1173 82110000 		.4byte	0x1182
 3369 1177 19       		.uleb128 0x19
 3370 1178 EB070000 		.4byte	0x7eb
 3371 117c 19       		.uleb128 0x19
 3372 117d FA050000 		.4byte	0x5fa
 3373 1181 00       		.byte	0
 3374 1182 42       		.uleb128 0x42
 3375 1183 01       		.byte	0x1
 3376 1184 CB010000 		.4byte	.LASF134
 3377 1188 0C       		.byte	0xc
 3378 1189 F2       		.byte	0xf2
 3379 118a 01       		.byte	0x1
 3380 118b 70000000 		.4byte	0x70
 3381 118f 01       		.byte	0x1
 3382 1190 9A110000 		.4byte	0x119a
 3383 1194 19       		.uleb128 0x19
 3384 1195 9F100000 		.4byte	0x109f
 3385 1199 00       		.byte	0
 3386 119a 40       		.uleb128 0x40
 3387 119b 01       		.byte	0x1
 3388 119c E9030000 		.4byte	.LASF135
 3389 11a0 0B       		.byte	0xb
 3390 11a1 4701     		.2byte	0x147
 3391 11a3 01       		.byte	0x1
 3392 11a4 90000000 		.4byte	0x90
 3393 11a8 01       		.byte	0x1
 3394 11a9 C2110000 		.4byte	0x11c2
 3395 11ad 19       		.uleb128 0x19
 3396 11ae EB070000 		.4byte	0x7eb
 3397 11b2 19       		.uleb128 0x19
 3398 11b3 70000000 		.4byte	0x70
 3399 11b7 19       		.uleb128 0x19
 3400 11b8 E5030000 		.4byte	0x3e5
 3401 11bc 19       		.uleb128 0x19
ARM GAS  /tmp/ccABRZiX.s 			page 61


 3402 11bd 70000000 		.4byte	0x70
 3403 11c1 00       		.byte	0
 3404 11c2 40       		.uleb128 0x40
 3405 11c3 01       		.byte	0x1
 3406 11c4 32020000 		.4byte	.LASF136
 3407 11c8 0B       		.byte	0xb
 3408 11c9 4501     		.2byte	0x145
 3409 11cb 01       		.byte	0x1
 3410 11cc 90000000 		.4byte	0x90
 3411 11d0 01       		.byte	0x1
 3412 11d1 EA110000 		.4byte	0x11ea
 3413 11d5 19       		.uleb128 0x19
 3414 11d6 EB070000 		.4byte	0x7eb
 3415 11da 19       		.uleb128 0x19
 3416 11db 70000000 		.4byte	0x70
 3417 11df 19       		.uleb128 0x19
 3418 11e0 DF030000 		.4byte	0x3df
 3419 11e4 19       		.uleb128 0x19
 3420 11e5 70000000 		.4byte	0x70
 3421 11e9 00       		.byte	0
 3422 11ea 43       		.uleb128 0x43
 3423 11eb 01       		.byte	0x1
 3424 11ec 8A050000 		.4byte	.LASF143
 3425 11f0 0B       		.byte	0xb
 3426 11f1 3701     		.2byte	0x137
 3427 11f3 01       		.byte	0x1
 3428 11f4 01       		.byte	0x1
 3429 11f5 41       		.uleb128 0x41
 3430 11f6 01       		.byte	0x1
 3431 11f7 19030000 		.4byte	.LASF137
 3432 11fb 0B       		.byte	0xb
 3433 11fc 3801     		.2byte	0x138
 3434 11fe 01       		.byte	0x1
 3435 11ff 01       		.byte	0x1
 3436 1200 0A120000 		.4byte	0x120a
 3437 1204 19       		.uleb128 0x19
 3438 1205 EB070000 		.4byte	0x7eb
 3439 1209 00       		.byte	0
 3440 120a 44       		.uleb128 0x44
 3441 120b 01       		.byte	0x1
 3442 120c BE020000 		.4byte	.LASF144
 3443 1210 0B       		.byte	0xb
 3444 1211 3901     		.2byte	0x139
 3445 1213 01       		.byte	0x1
 3446 1214 01       		.byte	0x1
 3447 1215 19       		.uleb128 0x19
 3448 1216 EB070000 		.4byte	0x7eb
 3449 121a 00       		.byte	0
 3450 121b 00       		.byte	0
 3451              		.section	.debug_abbrev,"",%progbits
 3452              	.Ldebug_abbrev0:
 3453 0000 01       		.uleb128 0x1
 3454 0001 11       		.uleb128 0x11
 3455 0002 01       		.byte	0x1
 3456 0003 25       		.uleb128 0x25
 3457 0004 0E       		.uleb128 0xe
 3458 0005 13       		.uleb128 0x13
ARM GAS  /tmp/ccABRZiX.s 			page 62


 3459 0006 0B       		.uleb128 0xb
 3460 0007 03       		.uleb128 0x3
 3461 0008 0E       		.uleb128 0xe
 3462 0009 1B       		.uleb128 0x1b
 3463 000a 0E       		.uleb128 0xe
 3464 000b 55       		.uleb128 0x55
 3465 000c 06       		.uleb128 0x6
 3466 000d 11       		.uleb128 0x11
 3467 000e 01       		.uleb128 0x1
 3468 000f 52       		.uleb128 0x52
 3469 0010 01       		.uleb128 0x1
 3470 0011 10       		.uleb128 0x10
 3471 0012 06       		.uleb128 0x6
 3472 0013 00       		.byte	0
 3473 0014 00       		.byte	0
 3474 0015 02       		.uleb128 0x2
 3475 0016 24       		.uleb128 0x24
 3476 0017 00       		.byte	0
 3477 0018 0B       		.uleb128 0xb
 3478 0019 0B       		.uleb128 0xb
 3479 001a 3E       		.uleb128 0x3e
 3480 001b 0B       		.uleb128 0xb
 3481 001c 03       		.uleb128 0x3
 3482 001d 08       		.uleb128 0x8
 3483 001e 00       		.byte	0
 3484 001f 00       		.byte	0
 3485 0020 03       		.uleb128 0x3
 3486 0021 24       		.uleb128 0x24
 3487 0022 00       		.byte	0
 3488 0023 0B       		.uleb128 0xb
 3489 0024 0B       		.uleb128 0xb
 3490 0025 3E       		.uleb128 0x3e
 3491 0026 0B       		.uleb128 0xb
 3492 0027 03       		.uleb128 0x3
 3493 0028 0E       		.uleb128 0xe
 3494 0029 00       		.byte	0
 3495 002a 00       		.byte	0
 3496 002b 04       		.uleb128 0x4
 3497 002c 16       		.uleb128 0x16
 3498 002d 00       		.byte	0
 3499 002e 03       		.uleb128 0x3
 3500 002f 0E       		.uleb128 0xe
 3501 0030 3A       		.uleb128 0x3a
 3502 0031 0B       		.uleb128 0xb
 3503 0032 3B       		.uleb128 0x3b
 3504 0033 0B       		.uleb128 0xb
 3505 0034 49       		.uleb128 0x49
 3506 0035 13       		.uleb128 0x13
 3507 0036 00       		.byte	0
 3508 0037 00       		.byte	0
 3509 0038 05       		.uleb128 0x5
 3510 0039 13       		.uleb128 0x13
 3511 003a 01       		.byte	0x1
 3512 003b 03       		.uleb128 0x3
 3513 003c 0E       		.uleb128 0xe
 3514 003d 0B       		.uleb128 0xb
 3515 003e 0B       		.uleb128 0xb
ARM GAS  /tmp/ccABRZiX.s 			page 63


 3516 003f 3A       		.uleb128 0x3a
 3517 0040 0B       		.uleb128 0xb
 3518 0041 3B       		.uleb128 0x3b
 3519 0042 0B       		.uleb128 0xb
 3520 0043 01       		.uleb128 0x1
 3521 0044 13       		.uleb128 0x13
 3522 0045 00       		.byte	0
 3523 0046 00       		.byte	0
 3524 0047 06       		.uleb128 0x6
 3525 0048 0D       		.uleb128 0xd
 3526 0049 00       		.byte	0
 3527 004a 03       		.uleb128 0x3
 3528 004b 0E       		.uleb128 0xe
 3529 004c 3A       		.uleb128 0x3a
 3530 004d 0B       		.uleb128 0xb
 3531 004e 3B       		.uleb128 0x3b
 3532 004f 0B       		.uleb128 0xb
 3533 0050 49       		.uleb128 0x49
 3534 0051 13       		.uleb128 0x13
 3535 0052 38       		.uleb128 0x38
 3536 0053 0A       		.uleb128 0xa
 3537 0054 00       		.byte	0
 3538 0055 00       		.byte	0
 3539 0056 07       		.uleb128 0x7
 3540 0057 0D       		.uleb128 0xd
 3541 0058 00       		.byte	0
 3542 0059 03       		.uleb128 0x3
 3543 005a 08       		.uleb128 0x8
 3544 005b 3A       		.uleb128 0x3a
 3545 005c 0B       		.uleb128 0xb
 3546 005d 3B       		.uleb128 0x3b
 3547 005e 0B       		.uleb128 0xb
 3548 005f 49       		.uleb128 0x49
 3549 0060 13       		.uleb128 0x13
 3550 0061 38       		.uleb128 0x38
 3551 0062 0A       		.uleb128 0xa
 3552 0063 00       		.byte	0
 3553 0064 00       		.byte	0
 3554 0065 08       		.uleb128 0x8
 3555 0066 13       		.uleb128 0x13
 3556 0067 01       		.byte	0x1
 3557 0068 0B       		.uleb128 0xb
 3558 0069 0B       		.uleb128 0xb
 3559 006a 3A       		.uleb128 0x3a
 3560 006b 0B       		.uleb128 0xb
 3561 006c 3B       		.uleb128 0x3b
 3562 006d 0B       		.uleb128 0xb
 3563 006e 01       		.uleb128 0x1
 3564 006f 13       		.uleb128 0x13
 3565 0070 00       		.byte	0
 3566 0071 00       		.byte	0
 3567 0072 09       		.uleb128 0x9
 3568 0073 0F       		.uleb128 0xf
 3569 0074 00       		.byte	0
 3570 0075 0B       		.uleb128 0xb
 3571 0076 0B       		.uleb128 0xb
 3572 0077 49       		.uleb128 0x49
ARM GAS  /tmp/ccABRZiX.s 			page 64


 3573 0078 13       		.uleb128 0x13
 3574 0079 00       		.byte	0
 3575 007a 00       		.byte	0
 3576 007b 0A       		.uleb128 0xa
 3577 007c 0F       		.uleb128 0xf
 3578 007d 00       		.byte	0
 3579 007e 0B       		.uleb128 0xb
 3580 007f 0B       		.uleb128 0xb
 3581 0080 00       		.byte	0
 3582 0081 00       		.byte	0
 3583 0082 0B       		.uleb128 0xb
 3584 0083 13       		.uleb128 0x13
 3585 0084 01       		.byte	0x1
 3586 0085 03       		.uleb128 0x3
 3587 0086 0E       		.uleb128 0xe
 3588 0087 0B       		.uleb128 0xb
 3589 0088 0B       		.uleb128 0xb
 3590 0089 3A       		.uleb128 0x3a
 3591 008a 0B       		.uleb128 0xb
 3592 008b 3B       		.uleb128 0x3b
 3593 008c 05       		.uleb128 0x5
 3594 008d 01       		.uleb128 0x1
 3595 008e 13       		.uleb128 0x13
 3596 008f 00       		.byte	0
 3597 0090 00       		.byte	0
 3598 0091 0C       		.uleb128 0xc
 3599 0092 0D       		.uleb128 0xd
 3600 0093 00       		.byte	0
 3601 0094 03       		.uleb128 0x3
 3602 0095 08       		.uleb128 0x8
 3603 0096 3A       		.uleb128 0x3a
 3604 0097 0B       		.uleb128 0xb
 3605 0098 3B       		.uleb128 0x3b
 3606 0099 05       		.uleb128 0x5
 3607 009a 49       		.uleb128 0x49
 3608 009b 13       		.uleb128 0x13
 3609 009c 38       		.uleb128 0x38
 3610 009d 0A       		.uleb128 0xa
 3611 009e 00       		.byte	0
 3612 009f 00       		.byte	0
 3613 00a0 0D       		.uleb128 0xd
 3614 00a1 35       		.uleb128 0x35
 3615 00a2 00       		.byte	0
 3616 00a3 49       		.uleb128 0x49
 3617 00a4 13       		.uleb128 0x13
 3618 00a5 00       		.byte	0
 3619 00a6 00       		.byte	0
 3620 00a7 0E       		.uleb128 0xe
 3621 00a8 17       		.uleb128 0x17
 3622 00a9 01       		.byte	0x1
 3623 00aa 0B       		.uleb128 0xb
 3624 00ab 0B       		.uleb128 0xb
 3625 00ac 3A       		.uleb128 0x3a
 3626 00ad 0B       		.uleb128 0xb
 3627 00ae 3B       		.uleb128 0x3b
 3628 00af 0B       		.uleb128 0xb
 3629 00b0 01       		.uleb128 0x1
ARM GAS  /tmp/ccABRZiX.s 			page 65


 3630 00b1 13       		.uleb128 0x13
 3631 00b2 00       		.byte	0
 3632 00b3 00       		.byte	0
 3633 00b4 0F       		.uleb128 0xf
 3634 00b5 0D       		.uleb128 0xd
 3635 00b6 00       		.byte	0
 3636 00b7 03       		.uleb128 0x3
 3637 00b8 0E       		.uleb128 0xe
 3638 00b9 3A       		.uleb128 0x3a
 3639 00ba 0B       		.uleb128 0xb
 3640 00bb 3B       		.uleb128 0x3b
 3641 00bc 0B       		.uleb128 0xb
 3642 00bd 49       		.uleb128 0x49
 3643 00be 13       		.uleb128 0x13
 3644 00bf 00       		.byte	0
 3645 00c0 00       		.byte	0
 3646 00c1 10       		.uleb128 0x10
 3647 00c2 26       		.uleb128 0x26
 3648 00c3 00       		.byte	0
 3649 00c4 49       		.uleb128 0x49
 3650 00c5 13       		.uleb128 0x13
 3651 00c6 00       		.byte	0
 3652 00c7 00       		.byte	0
 3653 00c8 11       		.uleb128 0x11
 3654 00c9 01       		.uleb128 0x1
 3655 00ca 01       		.byte	0x1
 3656 00cb 49       		.uleb128 0x49
 3657 00cc 13       		.uleb128 0x13
 3658 00cd 01       		.uleb128 0x1
 3659 00ce 13       		.uleb128 0x13
 3660 00cf 00       		.byte	0
 3661 00d0 00       		.byte	0
 3662 00d1 12       		.uleb128 0x12
 3663 00d2 21       		.uleb128 0x21
 3664 00d3 00       		.byte	0
 3665 00d4 49       		.uleb128 0x49
 3666 00d5 13       		.uleb128 0x13
 3667 00d6 2F       		.uleb128 0x2f
 3668 00d7 0B       		.uleb128 0xb
 3669 00d8 00       		.byte	0
 3670 00d9 00       		.byte	0
 3671 00da 13       		.uleb128 0x13
 3672 00db 13       		.uleb128 0x13
 3673 00dc 01       		.byte	0x1
 3674 00dd 0B       		.uleb128 0xb
 3675 00de 0B       		.uleb128 0xb
 3676 00df 3A       		.uleb128 0x3a
 3677 00e0 0B       		.uleb128 0xb
 3678 00e1 3B       		.uleb128 0x3b
 3679 00e2 05       		.uleb128 0x5
 3680 00e3 01       		.uleb128 0x1
 3681 00e4 13       		.uleb128 0x13
 3682 00e5 00       		.byte	0
 3683 00e6 00       		.byte	0
 3684 00e7 14       		.uleb128 0x14
 3685 00e8 0D       		.uleb128 0xd
 3686 00e9 00       		.byte	0
ARM GAS  /tmp/ccABRZiX.s 			page 66


 3687 00ea 03       		.uleb128 0x3
 3688 00eb 0E       		.uleb128 0xe
 3689 00ec 3A       		.uleb128 0x3a
 3690 00ed 0B       		.uleb128 0xb
 3691 00ee 3B       		.uleb128 0x3b
 3692 00ef 05       		.uleb128 0x5
 3693 00f0 49       		.uleb128 0x49
 3694 00f1 13       		.uleb128 0x13
 3695 00f2 38       		.uleb128 0x38
 3696 00f3 0A       		.uleb128 0xa
 3697 00f4 00       		.byte	0
 3698 00f5 00       		.byte	0
 3699 00f6 15       		.uleb128 0x15
 3700 00f7 16       		.uleb128 0x16
 3701 00f8 00       		.byte	0
 3702 00f9 03       		.uleb128 0x3
 3703 00fa 0E       		.uleb128 0xe
 3704 00fb 3A       		.uleb128 0x3a
 3705 00fc 0B       		.uleb128 0xb
 3706 00fd 3B       		.uleb128 0x3b
 3707 00fe 05       		.uleb128 0x5
 3708 00ff 49       		.uleb128 0x49
 3709 0100 13       		.uleb128 0x13
 3710 0101 00       		.byte	0
 3711 0102 00       		.byte	0
 3712 0103 16       		.uleb128 0x16
 3713 0104 04       		.uleb128 0x4
 3714 0105 01       		.byte	0x1
 3715 0106 0B       		.uleb128 0xb
 3716 0107 0B       		.uleb128 0xb
 3717 0108 3A       		.uleb128 0x3a
 3718 0109 0B       		.uleb128 0xb
 3719 010a 3B       		.uleb128 0x3b
 3720 010b 0B       		.uleb128 0xb
 3721 010c 01       		.uleb128 0x1
 3722 010d 13       		.uleb128 0x13
 3723 010e 00       		.byte	0
 3724 010f 00       		.byte	0
 3725 0110 17       		.uleb128 0x17
 3726 0111 28       		.uleb128 0x28
 3727 0112 00       		.byte	0
 3728 0113 03       		.uleb128 0x3
 3729 0114 0E       		.uleb128 0xe
 3730 0115 1C       		.uleb128 0x1c
 3731 0116 0D       		.uleb128 0xd
 3732 0117 00       		.byte	0
 3733 0118 00       		.byte	0
 3734 0119 18       		.uleb128 0x18
 3735 011a 15       		.uleb128 0x15
 3736 011b 01       		.byte	0x1
 3737 011c 27       		.uleb128 0x27
 3738 011d 0C       		.uleb128 0xc
 3739 011e 49       		.uleb128 0x49
 3740 011f 13       		.uleb128 0x13
 3741 0120 01       		.uleb128 0x1
 3742 0121 13       		.uleb128 0x13
 3743 0122 00       		.byte	0
ARM GAS  /tmp/ccABRZiX.s 			page 67


 3744 0123 00       		.byte	0
 3745 0124 19       		.uleb128 0x19
 3746 0125 05       		.uleb128 0x5
 3747 0126 00       		.byte	0
 3748 0127 49       		.uleb128 0x49
 3749 0128 13       		.uleb128 0x13
 3750 0129 00       		.byte	0
 3751 012a 00       		.byte	0
 3752 012b 1A       		.uleb128 0x1a
 3753 012c 2E       		.uleb128 0x2e
 3754 012d 01       		.byte	0x1
 3755 012e 3F       		.uleb128 0x3f
 3756 012f 0C       		.uleb128 0xc
 3757 0130 03       		.uleb128 0x3
 3758 0131 0E       		.uleb128 0xe
 3759 0132 3A       		.uleb128 0x3a
 3760 0133 0B       		.uleb128 0xb
 3761 0134 3B       		.uleb128 0x3b
 3762 0135 05       		.uleb128 0x5
 3763 0136 27       		.uleb128 0x27
 3764 0137 0C       		.uleb128 0xc
 3765 0138 49       		.uleb128 0x49
 3766 0139 13       		.uleb128 0x13
 3767 013a 20       		.uleb128 0x20
 3768 013b 0B       		.uleb128 0xb
 3769 013c 01       		.uleb128 0x1
 3770 013d 13       		.uleb128 0x13
 3771 013e 00       		.byte	0
 3772 013f 00       		.byte	0
 3773 0140 1B       		.uleb128 0x1b
 3774 0141 05       		.uleb128 0x5
 3775 0142 00       		.byte	0
 3776 0143 03       		.uleb128 0x3
 3777 0144 0E       		.uleb128 0xe
 3778 0145 3A       		.uleb128 0x3a
 3779 0146 0B       		.uleb128 0xb
 3780 0147 3B       		.uleb128 0x3b
 3781 0148 05       		.uleb128 0x5
 3782 0149 49       		.uleb128 0x49
 3783 014a 13       		.uleb128 0x13
 3784 014b 00       		.byte	0
 3785 014c 00       		.byte	0
 3786 014d 1C       		.uleb128 0x1c
 3787 014e 05       		.uleb128 0x5
 3788 014f 00       		.byte	0
 3789 0150 03       		.uleb128 0x3
 3790 0151 08       		.uleb128 0x8
 3791 0152 3A       		.uleb128 0x3a
 3792 0153 0B       		.uleb128 0xb
 3793 0154 3B       		.uleb128 0x3b
 3794 0155 05       		.uleb128 0x5
 3795 0156 49       		.uleb128 0x49
 3796 0157 13       		.uleb128 0x13
 3797 0158 00       		.byte	0
 3798 0159 00       		.byte	0
 3799 015a 1D       		.uleb128 0x1d
 3800 015b 34       		.uleb128 0x34
ARM GAS  /tmp/ccABRZiX.s 			page 68


 3801 015c 00       		.byte	0
 3802 015d 03       		.uleb128 0x3
 3803 015e 0E       		.uleb128 0xe
 3804 015f 3A       		.uleb128 0x3a
 3805 0160 0B       		.uleb128 0xb
 3806 0161 3B       		.uleb128 0x3b
 3807 0162 05       		.uleb128 0x5
 3808 0163 49       		.uleb128 0x49
 3809 0164 13       		.uleb128 0x13
 3810 0165 00       		.byte	0
 3811 0166 00       		.byte	0
 3812 0167 1E       		.uleb128 0x1e
 3813 0168 0B       		.uleb128 0xb
 3814 0169 01       		.byte	0x1
 3815 016a 01       		.uleb128 0x1
 3816 016b 13       		.uleb128 0x13
 3817 016c 00       		.byte	0
 3818 016d 00       		.byte	0
 3819 016e 1F       		.uleb128 0x1f
 3820 016f 34       		.uleb128 0x34
 3821 0170 00       		.byte	0
 3822 0171 03       		.uleb128 0x3
 3823 0172 08       		.uleb128 0x8
 3824 0173 3A       		.uleb128 0x3a
 3825 0174 0B       		.uleb128 0xb
 3826 0175 3B       		.uleb128 0x3b
 3827 0176 05       		.uleb128 0x5
 3828 0177 49       		.uleb128 0x49
 3829 0178 13       		.uleb128 0x13
 3830 0179 00       		.byte	0
 3831 017a 00       		.byte	0
 3832 017b 20       		.uleb128 0x20
 3833 017c 0B       		.uleb128 0xb
 3834 017d 01       		.byte	0x1
 3835 017e 00       		.byte	0
 3836 017f 00       		.byte	0
 3837 0180 21       		.uleb128 0x21
 3838 0181 2E       		.uleb128 0x2e
 3839 0182 01       		.byte	0x1
 3840 0183 3F       		.uleb128 0x3f
 3841 0184 0C       		.uleb128 0xc
 3842 0185 03       		.uleb128 0x3
 3843 0186 0E       		.uleb128 0xe
 3844 0187 3A       		.uleb128 0x3a
 3845 0188 0B       		.uleb128 0xb
 3846 0189 3B       		.uleb128 0x3b
 3847 018a 05       		.uleb128 0x5
 3848 018b 27       		.uleb128 0x27
 3849 018c 0C       		.uleb128 0xc
 3850 018d 49       		.uleb128 0x49
 3851 018e 13       		.uleb128 0x13
 3852 018f 11       		.uleb128 0x11
 3853 0190 01       		.uleb128 0x1
 3854 0191 12       		.uleb128 0x12
 3855 0192 01       		.uleb128 0x1
 3856 0193 40       		.uleb128 0x40
 3857 0194 0A       		.uleb128 0xa
ARM GAS  /tmp/ccABRZiX.s 			page 69


 3858 0195 9742     		.uleb128 0x2117
 3859 0197 0C       		.uleb128 0xc
 3860 0198 01       		.uleb128 0x1
 3861 0199 13       		.uleb128 0x13
 3862 019a 00       		.byte	0
 3863 019b 00       		.byte	0
 3864 019c 22       		.uleb128 0x22
 3865 019d 05       		.uleb128 0x5
 3866 019e 00       		.byte	0
 3867 019f 03       		.uleb128 0x3
 3868 01a0 0E       		.uleb128 0xe
 3869 01a1 3A       		.uleb128 0x3a
 3870 01a2 0B       		.uleb128 0xb
 3871 01a3 3B       		.uleb128 0x3b
 3872 01a4 05       		.uleb128 0x5
 3873 01a5 49       		.uleb128 0x49
 3874 01a6 13       		.uleb128 0x13
 3875 01a7 02       		.uleb128 0x2
 3876 01a8 06       		.uleb128 0x6
 3877 01a9 00       		.byte	0
 3878 01aa 00       		.byte	0
 3879 01ab 23       		.uleb128 0x23
 3880 01ac 05       		.uleb128 0x5
 3881 01ad 00       		.byte	0
 3882 01ae 03       		.uleb128 0x3
 3883 01af 0E       		.uleb128 0xe
 3884 01b0 3A       		.uleb128 0x3a
 3885 01b1 0B       		.uleb128 0xb
 3886 01b2 3B       		.uleb128 0x3b
 3887 01b3 05       		.uleb128 0x5
 3888 01b4 49       		.uleb128 0x49
 3889 01b5 13       		.uleb128 0x13
 3890 01b6 02       		.uleb128 0x2
 3891 01b7 0A       		.uleb128 0xa
 3892 01b8 00       		.byte	0
 3893 01b9 00       		.byte	0
 3894 01ba 24       		.uleb128 0x24
 3895 01bb 898201   		.uleb128 0x4109
 3896 01be 00       		.byte	0
 3897 01bf 11       		.uleb128 0x11
 3898 01c0 01       		.uleb128 0x1
 3899 01c1 9542     		.uleb128 0x2115
 3900 01c3 0C       		.uleb128 0xc
 3901 01c4 31       		.uleb128 0x31
 3902 01c5 13       		.uleb128 0x13
 3903 01c6 00       		.byte	0
 3904 01c7 00       		.byte	0
 3905 01c8 25       		.uleb128 0x25
 3906 01c9 2E       		.uleb128 0x2e
 3907 01ca 01       		.byte	0x1
 3908 01cb 3F       		.uleb128 0x3f
 3909 01cc 0C       		.uleb128 0xc
 3910 01cd 03       		.uleb128 0x3
 3911 01ce 0E       		.uleb128 0xe
 3912 01cf 3A       		.uleb128 0x3a
 3913 01d0 0B       		.uleb128 0xb
 3914 01d1 3B       		.uleb128 0x3b
ARM GAS  /tmp/ccABRZiX.s 			page 70


 3915 01d2 0B       		.uleb128 0xb
 3916 01d3 27       		.uleb128 0x27
 3917 01d4 0C       		.uleb128 0xc
 3918 01d5 49       		.uleb128 0x49
 3919 01d6 13       		.uleb128 0x13
 3920 01d7 11       		.uleb128 0x11
 3921 01d8 01       		.uleb128 0x1
 3922 01d9 12       		.uleb128 0x12
 3923 01da 01       		.uleb128 0x1
 3924 01db 40       		.uleb128 0x40
 3925 01dc 06       		.uleb128 0x6
 3926 01dd 9742     		.uleb128 0x2117
 3927 01df 0C       		.uleb128 0xc
 3928 01e0 01       		.uleb128 0x1
 3929 01e1 13       		.uleb128 0x13
 3930 01e2 00       		.byte	0
 3931 01e3 00       		.byte	0
 3932 01e4 26       		.uleb128 0x26
 3933 01e5 05       		.uleb128 0x5
 3934 01e6 00       		.byte	0
 3935 01e7 03       		.uleb128 0x3
 3936 01e8 0E       		.uleb128 0xe
 3937 01e9 3A       		.uleb128 0x3a
 3938 01ea 0B       		.uleb128 0xb
 3939 01eb 3B       		.uleb128 0x3b
 3940 01ec 0B       		.uleb128 0xb
 3941 01ed 49       		.uleb128 0x49
 3942 01ee 13       		.uleb128 0x13
 3943 01ef 02       		.uleb128 0x2
 3944 01f0 06       		.uleb128 0x6
 3945 01f1 00       		.byte	0
 3946 01f2 00       		.byte	0
 3947 01f3 27       		.uleb128 0x27
 3948 01f4 34       		.uleb128 0x34
 3949 01f5 00       		.byte	0
 3950 01f6 03       		.uleb128 0x3
 3951 01f7 0E       		.uleb128 0xe
 3952 01f8 3A       		.uleb128 0x3a
 3953 01f9 0B       		.uleb128 0xb
 3954 01fa 3B       		.uleb128 0x3b
 3955 01fb 0B       		.uleb128 0xb
 3956 01fc 49       		.uleb128 0x49
 3957 01fd 13       		.uleb128 0x13
 3958 01fe 02       		.uleb128 0x2
 3959 01ff 0A       		.uleb128 0xa
 3960 0200 00       		.byte	0
 3961 0201 00       		.byte	0
 3962 0202 28       		.uleb128 0x28
 3963 0203 0A       		.uleb128 0xa
 3964 0204 00       		.byte	0
 3965 0205 03       		.uleb128 0x3
 3966 0206 0E       		.uleb128 0xe
 3967 0207 3A       		.uleb128 0x3a
 3968 0208 0B       		.uleb128 0xb
 3969 0209 3B       		.uleb128 0x3b
 3970 020a 05       		.uleb128 0x5
 3971 020b 11       		.uleb128 0x11
ARM GAS  /tmp/ccABRZiX.s 			page 71


 3972 020c 01       		.uleb128 0x1
 3973 020d 00       		.byte	0
 3974 020e 00       		.byte	0
 3975 020f 29       		.uleb128 0x29
 3976 0210 0B       		.uleb128 0xb
 3977 0211 01       		.byte	0x1
 3978 0212 55       		.uleb128 0x55
 3979 0213 06       		.uleb128 0x6
 3980 0214 01       		.uleb128 0x1
 3981 0215 13       		.uleb128 0x13
 3982 0216 00       		.byte	0
 3983 0217 00       		.byte	0
 3984 0218 2A       		.uleb128 0x2a
 3985 0219 34       		.uleb128 0x34
 3986 021a 00       		.byte	0
 3987 021b 03       		.uleb128 0x3
 3988 021c 08       		.uleb128 0x8
 3989 021d 3A       		.uleb128 0x3a
 3990 021e 0B       		.uleb128 0xb
 3991 021f 3B       		.uleb128 0x3b
 3992 0220 0B       		.uleb128 0xb
 3993 0221 49       		.uleb128 0x49
 3994 0222 13       		.uleb128 0x13
 3995 0223 02       		.uleb128 0x2
 3996 0224 06       		.uleb128 0x6
 3997 0225 00       		.byte	0
 3998 0226 00       		.byte	0
 3999 0227 2B       		.uleb128 0x2b
 4000 0228 898201   		.uleb128 0x4109
 4001 022b 01       		.byte	0x1
 4002 022c 11       		.uleb128 0x11
 4003 022d 01       		.uleb128 0x1
 4004 022e 31       		.uleb128 0x31
 4005 022f 13       		.uleb128 0x13
 4006 0230 01       		.uleb128 0x1
 4007 0231 13       		.uleb128 0x13
 4008 0232 00       		.byte	0
 4009 0233 00       		.byte	0
 4010 0234 2C       		.uleb128 0x2c
 4011 0235 8A8201   		.uleb128 0x410a
 4012 0238 00       		.byte	0
 4013 0239 02       		.uleb128 0x2
 4014 023a 0A       		.uleb128 0xa
 4015 023b 9142     		.uleb128 0x2111
 4016 023d 0A       		.uleb128 0xa
 4017 023e 00       		.byte	0
 4018 023f 00       		.byte	0
 4019 0240 2D       		.uleb128 0x2d
 4020 0241 898201   		.uleb128 0x4109
 4021 0244 01       		.byte	0x1
 4022 0245 11       		.uleb128 0x11
 4023 0246 01       		.uleb128 0x1
 4024 0247 31       		.uleb128 0x31
 4025 0248 13       		.uleb128 0x13
 4026 0249 00       		.byte	0
 4027 024a 00       		.byte	0
 4028 024b 2E       		.uleb128 0x2e
ARM GAS  /tmp/ccABRZiX.s 			page 72


 4029 024c 2E       		.uleb128 0x2e
 4030 024d 01       		.byte	0x1
 4031 024e 31       		.uleb128 0x31
 4032 024f 13       		.uleb128 0x13
 4033 0250 11       		.uleb128 0x11
 4034 0251 01       		.uleb128 0x1
 4035 0252 12       		.uleb128 0x12
 4036 0253 01       		.uleb128 0x1
 4037 0254 40       		.uleb128 0x40
 4038 0255 06       		.uleb128 0x6
 4039 0256 9742     		.uleb128 0x2117
 4040 0258 0C       		.uleb128 0xc
 4041 0259 01       		.uleb128 0x1
 4042 025a 13       		.uleb128 0x13
 4043 025b 00       		.byte	0
 4044 025c 00       		.byte	0
 4045 025d 2F       		.uleb128 0x2f
 4046 025e 05       		.uleb128 0x5
 4047 025f 00       		.byte	0
 4048 0260 31       		.uleb128 0x31
 4049 0261 13       		.uleb128 0x13
 4050 0262 02       		.uleb128 0x2
 4051 0263 06       		.uleb128 0x6
 4052 0264 00       		.byte	0
 4053 0265 00       		.byte	0
 4054 0266 30       		.uleb128 0x30
 4055 0267 34       		.uleb128 0x34
 4056 0268 00       		.byte	0
 4057 0269 31       		.uleb128 0x31
 4058 026a 13       		.uleb128 0x13
 4059 026b 02       		.uleb128 0x2
 4060 026c 0A       		.uleb128 0xa
 4061 026d 00       		.byte	0
 4062 026e 00       		.byte	0
 4063 026f 31       		.uleb128 0x31
 4064 0270 1D       		.uleb128 0x1d
 4065 0271 01       		.byte	0x1
 4066 0272 31       		.uleb128 0x31
 4067 0273 13       		.uleb128 0x13
 4068 0274 11       		.uleb128 0x11
 4069 0275 01       		.uleb128 0x1
 4070 0276 12       		.uleb128 0x12
 4071 0277 01       		.uleb128 0x1
 4072 0278 58       		.uleb128 0x58
 4073 0279 0B       		.uleb128 0xb
 4074 027a 59       		.uleb128 0x59
 4075 027b 05       		.uleb128 0x5
 4076 027c 00       		.byte	0
 4077 027d 00       		.byte	0
 4078 027e 32       		.uleb128 0x32
 4079 027f 05       		.uleb128 0x5
 4080 0280 00       		.byte	0
 4081 0281 31       		.uleb128 0x31
 4082 0282 13       		.uleb128 0x13
 4083 0283 00       		.byte	0
 4084 0284 00       		.byte	0
 4085 0285 33       		.uleb128 0x33
ARM GAS  /tmp/ccABRZiX.s 			page 73


 4086 0286 0B       		.uleb128 0xb
 4087 0287 01       		.byte	0x1
 4088 0288 11       		.uleb128 0x11
 4089 0289 01       		.uleb128 0x1
 4090 028a 12       		.uleb128 0x12
 4091 028b 01       		.uleb128 0x1
 4092 028c 00       		.byte	0
 4093 028d 00       		.byte	0
 4094 028e 34       		.uleb128 0x34
 4095 028f 0B       		.uleb128 0xb
 4096 0290 01       		.byte	0x1
 4097 0291 11       		.uleb128 0x11
 4098 0292 01       		.uleb128 0x1
 4099 0293 12       		.uleb128 0x12
 4100 0294 01       		.uleb128 0x1
 4101 0295 01       		.uleb128 0x1
 4102 0296 13       		.uleb128 0x13
 4103 0297 00       		.byte	0
 4104 0298 00       		.byte	0
 4105 0299 35       		.uleb128 0x35
 4106 029a 34       		.uleb128 0x34
 4107 029b 00       		.byte	0
 4108 029c 31       		.uleb128 0x31
 4109 029d 13       		.uleb128 0x13
 4110 029e 02       		.uleb128 0x2
 4111 029f 06       		.uleb128 0x6
 4112 02a0 00       		.byte	0
 4113 02a1 00       		.byte	0
 4114 02a2 36       		.uleb128 0x36
 4115 02a3 1D       		.uleb128 0x1d
 4116 02a4 01       		.byte	0x1
 4117 02a5 31       		.uleb128 0x31
 4118 02a6 13       		.uleb128 0x13
 4119 02a7 52       		.uleb128 0x52
 4120 02a8 01       		.uleb128 0x1
 4121 02a9 55       		.uleb128 0x55
 4122 02aa 06       		.uleb128 0x6
 4123 02ab 58       		.uleb128 0x58
 4124 02ac 0B       		.uleb128 0xb
 4125 02ad 59       		.uleb128 0x59
 4126 02ae 05       		.uleb128 0x5
 4127 02af 01       		.uleb128 0x1
 4128 02b0 13       		.uleb128 0x13
 4129 02b1 00       		.byte	0
 4130 02b2 00       		.byte	0
 4131 02b3 37       		.uleb128 0x37
 4132 02b4 898201   		.uleb128 0x4109
 4133 02b7 00       		.byte	0
 4134 02b8 11       		.uleb128 0x11
 4135 02b9 01       		.uleb128 0x1
 4136 02ba 31       		.uleb128 0x31
 4137 02bb 13       		.uleb128 0x13
 4138 02bc 00       		.byte	0
 4139 02bd 00       		.byte	0
 4140 02be 38       		.uleb128 0x38
 4141 02bf 2E       		.uleb128 0x2e
 4142 02c0 01       		.byte	0x1
ARM GAS  /tmp/ccABRZiX.s 			page 74


 4143 02c1 3F       		.uleb128 0x3f
 4144 02c2 0C       		.uleb128 0xc
 4145 02c3 03       		.uleb128 0x3
 4146 02c4 0E       		.uleb128 0xe
 4147 02c5 3A       		.uleb128 0x3a
 4148 02c6 0B       		.uleb128 0xb
 4149 02c7 3B       		.uleb128 0x3b
 4150 02c8 0B       		.uleb128 0xb
 4151 02c9 27       		.uleb128 0x27
 4152 02ca 0C       		.uleb128 0xc
 4153 02cb 11       		.uleb128 0x11
 4154 02cc 01       		.uleb128 0x1
 4155 02cd 12       		.uleb128 0x12
 4156 02ce 01       		.uleb128 0x1
 4157 02cf 40       		.uleb128 0x40
 4158 02d0 0A       		.uleb128 0xa
 4159 02d1 9742     		.uleb128 0x2117
 4160 02d3 0C       		.uleb128 0xc
 4161 02d4 01       		.uleb128 0x1
 4162 02d5 13       		.uleb128 0x13
 4163 02d6 00       		.byte	0
 4164 02d7 00       		.byte	0
 4165 02d8 39       		.uleb128 0x39
 4166 02d9 05       		.uleb128 0x5
 4167 02da 00       		.byte	0
 4168 02db 03       		.uleb128 0x3
 4169 02dc 0E       		.uleb128 0xe
 4170 02dd 3A       		.uleb128 0x3a
 4171 02de 0B       		.uleb128 0xb
 4172 02df 3B       		.uleb128 0x3b
 4173 02e0 0B       		.uleb128 0xb
 4174 02e1 49       		.uleb128 0x49
 4175 02e2 13       		.uleb128 0x13
 4176 02e3 02       		.uleb128 0x2
 4177 02e4 0A       		.uleb128 0xa
 4178 02e5 00       		.byte	0
 4179 02e6 00       		.byte	0
 4180 02e7 3A       		.uleb128 0x3a
 4181 02e8 2E       		.uleb128 0x2e
 4182 02e9 01       		.byte	0x1
 4183 02ea 3F       		.uleb128 0x3f
 4184 02eb 0C       		.uleb128 0xc
 4185 02ec 03       		.uleb128 0x3
 4186 02ed 0E       		.uleb128 0xe
 4187 02ee 3A       		.uleb128 0x3a
 4188 02ef 0B       		.uleb128 0xb
 4189 02f0 3B       		.uleb128 0x3b
 4190 02f1 0B       		.uleb128 0xb
 4191 02f2 27       		.uleb128 0x27
 4192 02f3 0C       		.uleb128 0xc
 4193 02f4 11       		.uleb128 0x11
 4194 02f5 01       		.uleb128 0x1
 4195 02f6 12       		.uleb128 0x12
 4196 02f7 01       		.uleb128 0x1
 4197 02f8 40       		.uleb128 0x40
 4198 02f9 06       		.uleb128 0x6
 4199 02fa 9742     		.uleb128 0x2117
ARM GAS  /tmp/ccABRZiX.s 			page 75


 4200 02fc 0C       		.uleb128 0xc
 4201 02fd 01       		.uleb128 0x1
 4202 02fe 13       		.uleb128 0x13
 4203 02ff 00       		.byte	0
 4204 0300 00       		.byte	0
 4205 0301 3B       		.uleb128 0x3b
 4206 0302 34       		.uleb128 0x34
 4207 0303 00       		.byte	0
 4208 0304 03       		.uleb128 0x3
 4209 0305 0E       		.uleb128 0xe
 4210 0306 3A       		.uleb128 0x3a
 4211 0307 0B       		.uleb128 0xb
 4212 0308 3B       		.uleb128 0x3b
 4213 0309 05       		.uleb128 0x5
 4214 030a 49       		.uleb128 0x49
 4215 030b 13       		.uleb128 0x13
 4216 030c 02       		.uleb128 0x2
 4217 030d 0A       		.uleb128 0xa
 4218 030e 00       		.byte	0
 4219 030f 00       		.byte	0
 4220 0310 3C       		.uleb128 0x3c
 4221 0311 34       		.uleb128 0x34
 4222 0312 00       		.byte	0
 4223 0313 03       		.uleb128 0x3
 4224 0314 08       		.uleb128 0x8
 4225 0315 3A       		.uleb128 0x3a
 4226 0316 0B       		.uleb128 0xb
 4227 0317 3B       		.uleb128 0x3b
 4228 0318 05       		.uleb128 0x5
 4229 0319 49       		.uleb128 0x49
 4230 031a 13       		.uleb128 0x13
 4231 031b 02       		.uleb128 0x2
 4232 031c 06       		.uleb128 0x6
 4233 031d 00       		.byte	0
 4234 031e 00       		.byte	0
 4235 031f 3D       		.uleb128 0x3d
 4236 0320 34       		.uleb128 0x34
 4237 0321 00       		.byte	0
 4238 0322 03       		.uleb128 0x3
 4239 0323 08       		.uleb128 0x8
 4240 0324 3A       		.uleb128 0x3a
 4241 0325 0B       		.uleb128 0xb
 4242 0326 3B       		.uleb128 0x3b
 4243 0327 05       		.uleb128 0x5
 4244 0328 49       		.uleb128 0x49
 4245 0329 13       		.uleb128 0x13
 4246 032a 02       		.uleb128 0x2
 4247 032b 0A       		.uleb128 0xa
 4248 032c 00       		.byte	0
 4249 032d 00       		.byte	0
 4250 032e 3E       		.uleb128 0x3e
 4251 032f 2E       		.uleb128 0x2e
 4252 0330 01       		.byte	0x1
 4253 0331 3F       		.uleb128 0x3f
 4254 0332 0C       		.uleb128 0xc
 4255 0333 03       		.uleb128 0x3
 4256 0334 0E       		.uleb128 0xe
ARM GAS  /tmp/ccABRZiX.s 			page 76


 4257 0335 3A       		.uleb128 0x3a
 4258 0336 0B       		.uleb128 0xb
 4259 0337 3B       		.uleb128 0x3b
 4260 0338 05       		.uleb128 0x5
 4261 0339 27       		.uleb128 0x27
 4262 033a 0C       		.uleb128 0xc
 4263 033b 49       		.uleb128 0x49
 4264 033c 13       		.uleb128 0x13
 4265 033d 11       		.uleb128 0x11
 4266 033e 01       		.uleb128 0x1
 4267 033f 12       		.uleb128 0x12
 4268 0340 01       		.uleb128 0x1
 4269 0341 40       		.uleb128 0x40
 4270 0342 06       		.uleb128 0x6
 4271 0343 9742     		.uleb128 0x2117
 4272 0345 0C       		.uleb128 0xc
 4273 0346 01       		.uleb128 0x1
 4274 0347 13       		.uleb128 0x13
 4275 0348 00       		.byte	0
 4276 0349 00       		.byte	0
 4277 034a 3F       		.uleb128 0x3f
 4278 034b 34       		.uleb128 0x34
 4279 034c 00       		.byte	0
 4280 034d 03       		.uleb128 0x3
 4281 034e 0E       		.uleb128 0xe
 4282 034f 3A       		.uleb128 0x3a
 4283 0350 0B       		.uleb128 0xb
 4284 0351 3B       		.uleb128 0x3b
 4285 0352 05       		.uleb128 0x5
 4286 0353 49       		.uleb128 0x49
 4287 0354 13       		.uleb128 0x13
 4288 0355 3F       		.uleb128 0x3f
 4289 0356 0C       		.uleb128 0xc
 4290 0357 3C       		.uleb128 0x3c
 4291 0358 0C       		.uleb128 0xc
 4292 0359 00       		.byte	0
 4293 035a 00       		.byte	0
 4294 035b 40       		.uleb128 0x40
 4295 035c 2E       		.uleb128 0x2e
 4296 035d 01       		.byte	0x1
 4297 035e 3F       		.uleb128 0x3f
 4298 035f 0C       		.uleb128 0xc
 4299 0360 03       		.uleb128 0x3
 4300 0361 0E       		.uleb128 0xe
 4301 0362 3A       		.uleb128 0x3a
 4302 0363 0B       		.uleb128 0xb
 4303 0364 3B       		.uleb128 0x3b
 4304 0365 05       		.uleb128 0x5
 4305 0366 27       		.uleb128 0x27
 4306 0367 0C       		.uleb128 0xc
 4307 0368 49       		.uleb128 0x49
 4308 0369 13       		.uleb128 0x13
 4309 036a 3C       		.uleb128 0x3c
 4310 036b 0C       		.uleb128 0xc
 4311 036c 01       		.uleb128 0x1
 4312 036d 13       		.uleb128 0x13
 4313 036e 00       		.byte	0
ARM GAS  /tmp/ccABRZiX.s 			page 77


 4314 036f 00       		.byte	0
 4315 0370 41       		.uleb128 0x41
 4316 0371 2E       		.uleb128 0x2e
 4317 0372 01       		.byte	0x1
 4318 0373 3F       		.uleb128 0x3f
 4319 0374 0C       		.uleb128 0xc
 4320 0375 03       		.uleb128 0x3
 4321 0376 0E       		.uleb128 0xe
 4322 0377 3A       		.uleb128 0x3a
 4323 0378 0B       		.uleb128 0xb
 4324 0379 3B       		.uleb128 0x3b
 4325 037a 05       		.uleb128 0x5
 4326 037b 27       		.uleb128 0x27
 4327 037c 0C       		.uleb128 0xc
 4328 037d 3C       		.uleb128 0x3c
 4329 037e 0C       		.uleb128 0xc
 4330 037f 01       		.uleb128 0x1
 4331 0380 13       		.uleb128 0x13
 4332 0381 00       		.byte	0
 4333 0382 00       		.byte	0
 4334 0383 42       		.uleb128 0x42
 4335 0384 2E       		.uleb128 0x2e
 4336 0385 01       		.byte	0x1
 4337 0386 3F       		.uleb128 0x3f
 4338 0387 0C       		.uleb128 0xc
 4339 0388 03       		.uleb128 0x3
 4340 0389 0E       		.uleb128 0xe
 4341 038a 3A       		.uleb128 0x3a
 4342 038b 0B       		.uleb128 0xb
 4343 038c 3B       		.uleb128 0x3b
 4344 038d 0B       		.uleb128 0xb
 4345 038e 27       		.uleb128 0x27
 4346 038f 0C       		.uleb128 0xc
 4347 0390 49       		.uleb128 0x49
 4348 0391 13       		.uleb128 0x13
 4349 0392 3C       		.uleb128 0x3c
 4350 0393 0C       		.uleb128 0xc
 4351 0394 01       		.uleb128 0x1
 4352 0395 13       		.uleb128 0x13
 4353 0396 00       		.byte	0
 4354 0397 00       		.byte	0
 4355 0398 43       		.uleb128 0x43
 4356 0399 2E       		.uleb128 0x2e
 4357 039a 00       		.byte	0
 4358 039b 3F       		.uleb128 0x3f
 4359 039c 0C       		.uleb128 0xc
 4360 039d 03       		.uleb128 0x3
 4361 039e 0E       		.uleb128 0xe
 4362 039f 3A       		.uleb128 0x3a
 4363 03a0 0B       		.uleb128 0xb
 4364 03a1 3B       		.uleb128 0x3b
 4365 03a2 05       		.uleb128 0x5
 4366 03a3 27       		.uleb128 0x27
 4367 03a4 0C       		.uleb128 0xc
 4368 03a5 3C       		.uleb128 0x3c
 4369 03a6 0C       		.uleb128 0xc
 4370 03a7 00       		.byte	0
ARM GAS  /tmp/ccABRZiX.s 			page 78


 4371 03a8 00       		.byte	0
 4372 03a9 44       		.uleb128 0x44
 4373 03aa 2E       		.uleb128 0x2e
 4374 03ab 01       		.byte	0x1
 4375 03ac 3F       		.uleb128 0x3f
 4376 03ad 0C       		.uleb128 0xc
 4377 03ae 03       		.uleb128 0x3
 4378 03af 0E       		.uleb128 0xe
 4379 03b0 3A       		.uleb128 0x3a
 4380 03b1 0B       		.uleb128 0xb
 4381 03b2 3B       		.uleb128 0x3b
 4382 03b3 05       		.uleb128 0x5
 4383 03b4 27       		.uleb128 0x27
 4384 03b5 0C       		.uleb128 0xc
 4385 03b6 3C       		.uleb128 0x3c
 4386 03b7 0C       		.uleb128 0xc
 4387 03b8 00       		.byte	0
 4388 03b9 00       		.byte	0
 4389 03ba 00       		.byte	0
 4390              		.section	.debug_loc,"",%progbits
 4391              	.Ldebug_loc0:
 4392              	.LLST0:
 4393 0000 00000000 		.4byte	.LVL0
 4394 0004 08000000 		.4byte	.LVL1
 4395 0008 0100     		.2byte	0x1
 4396 000a 50       		.byte	0x50
 4397 000b 08000000 		.4byte	.LVL1
 4398 000f 0A000000 		.4byte	.LVL2
 4399 0013 0400     		.2byte	0x4
 4400 0015 F3       		.byte	0xf3
 4401 0016 01       		.uleb128 0x1
 4402 0017 50       		.byte	0x50
 4403 0018 9F       		.byte	0x9f
 4404 0019 0A000000 		.4byte	.LVL2
 4405 001d 16000000 		.4byte	.LVL3
 4406 0021 0100     		.2byte	0x1
 4407 0023 50       		.byte	0x50
 4408 0024 16000000 		.4byte	.LVL3
 4409 0028 18000000 		.4byte	.LFE129
 4410 002c 0400     		.2byte	0x4
 4411 002e F3       		.byte	0xf3
 4412 002f 01       		.uleb128 0x1
 4413 0030 50       		.byte	0x50
 4414 0031 9F       		.byte	0x9f
 4415 0032 00000000 		.4byte	0
 4416 0036 00000000 		.4byte	0
 4417              	.LLST1:
 4418 003a 00000000 		.4byte	.LVL4
 4419 003e 08000000 		.4byte	.LVL5
 4420 0042 0100     		.2byte	0x1
 4421 0044 50       		.byte	0x50
 4422 0045 08000000 		.4byte	.LVL5
 4423 0049 0A000000 		.4byte	.LVL6
 4424 004d 0400     		.2byte	0x4
 4425 004f F3       		.byte	0xf3
 4426 0050 01       		.uleb128 0x1
 4427 0051 50       		.byte	0x50
ARM GAS  /tmp/ccABRZiX.s 			page 79


 4428 0052 9F       		.byte	0x9f
 4429 0053 0A000000 		.4byte	.LVL6
 4430 0057 0D000000 		.4byte	.LVL7-1
 4431 005b 0100     		.2byte	0x1
 4432 005d 50       		.byte	0x50
 4433 005e 0D000000 		.4byte	.LVL7-1
 4434 0062 0E000000 		.4byte	.LFE128
 4435 0066 0400     		.2byte	0x4
 4436 0068 F3       		.byte	0xf3
 4437 0069 01       		.uleb128 0x1
 4438 006a 50       		.byte	0x50
 4439 006b 9F       		.byte	0x9f
 4440 006c 00000000 		.4byte	0
 4441 0070 00000000 		.4byte	0
 4442              	.LLST2:
 4443 0074 00000000 		.4byte	.LFB123
 4444 0078 04000000 		.4byte	.LCFI0
 4445 007c 0200     		.2byte	0x2
 4446 007e 7D       		.byte	0x7d
 4447 007f 00       		.sleb128 0
 4448 0080 04000000 		.4byte	.LCFI0
 4449 0084 08000000 		.4byte	.LCFI1
 4450 0088 0200     		.2byte	0x2
 4451 008a 7D       		.byte	0x7d
 4452 008b 18       		.sleb128 24
 4453 008c 08000000 		.4byte	.LCFI1
 4454 0090 C2010000 		.4byte	.LFE123
 4455 0094 0200     		.2byte	0x2
 4456 0096 7D       		.byte	0x7d
 4457 0097 20       		.sleb128 32
 4458 0098 00000000 		.4byte	0
 4459 009c 00000000 		.4byte	0
 4460              	.LLST3:
 4461 00a0 00000000 		.4byte	.LVL8
 4462 00a4 0F000000 		.4byte	.LVL9-1
 4463 00a8 0100     		.2byte	0x1
 4464 00aa 50       		.byte	0x50
 4465 00ab 0F000000 		.4byte	.LVL9-1
 4466 00af 66000000 		.4byte	.LVL16
 4467 00b3 0100     		.2byte	0x1
 4468 00b5 55       		.byte	0x55
 4469 00b6 66000000 		.4byte	.LVL16
 4470 00ba 69000000 		.4byte	.LVL17-1
 4471 00be 0100     		.2byte	0x1
 4472 00c0 50       		.byte	0x50
 4473 00c1 69000000 		.4byte	.LVL17-1
 4474 00c5 C2010000 		.4byte	.LFE123
 4475 00c9 0100     		.2byte	0x1
 4476 00cb 55       		.byte	0x55
 4477 00cc 00000000 		.4byte	0
 4478 00d0 00000000 		.4byte	0
 4479              	.LLST4:
 4480 00d4 58000000 		.4byte	.LVL14
 4481 00d8 5C000000 		.4byte	.LVL15
 4482 00dc 0200     		.2byte	0x2
 4483 00de 30       		.byte	0x30
 4484 00df 9F       		.byte	0x9f
ARM GAS  /tmp/ccABRZiX.s 			page 80


 4485 00e0 00000000 		.4byte	0
 4486 00e4 00000000 		.4byte	0
 4487              	.LLST5:
 4488 00e8 50000000 		.4byte	.LVL13
 4489 00ec 58000000 		.4byte	.LVL14
 4490 00f0 0600     		.2byte	0x6
 4491 00f2 9E       		.byte	0x9e
 4492 00f3 04       		.uleb128 0x4
 4493 00f4 00001080 		.4byte	0x80100000
 4494 00f8 58000000 		.4byte	.LVL14
 4495 00fc 5C000000 		.4byte	.LVL15
 4496 0100 0100     		.2byte	0x1
 4497 0102 58       		.byte	0x58
 4498 0103 5C000000 		.4byte	.LVL15
 4499 0107 69000000 		.4byte	.LVL17-1
 4500 010b 0100     		.2byte	0x1
 4501 010d 52       		.byte	0x52
 4502 010e 69000000 		.4byte	.LVL17-1
 4503 0112 9C000000 		.4byte	.LVL20
 4504 0116 0100     		.2byte	0x1
 4505 0118 58       		.byte	0x58
 4506 0119 9C000000 		.4byte	.LVL20
 4507 011d 9E000000 		.4byte	.LVL21
 4508 0121 0100     		.2byte	0x1
 4509 0123 52       		.byte	0x52
 4510 0124 D2000000 		.4byte	.LVL23
 4511 0128 C2010000 		.4byte	.LFE123
 4512 012c 0100     		.2byte	0x1
 4513 012e 58       		.byte	0x58
 4514 012f 00000000 		.4byte	0
 4515 0133 00000000 		.4byte	0
 4516              	.LLST6:
 4517 0137 00000000 		.4byte	.LFB126
 4518 013b 02000000 		.4byte	.LCFI2
 4519 013f 0200     		.2byte	0x2
 4520 0141 7D       		.byte	0x7d
 4521 0142 00       		.sleb128 0
 4522 0143 02000000 		.4byte	.LCFI2
 4523 0147 28000000 		.4byte	.LFE126
 4524 014b 0200     		.2byte	0x2
 4525 014d 7D       		.byte	0x7d
 4526 014e 10       		.sleb128 16
 4527 014f 00000000 		.4byte	0
 4528 0153 00000000 		.4byte	0
 4529              	.LLST7:
 4530 0157 00000000 		.4byte	.LVL34
 4531 015b 18000000 		.4byte	.LVL36
 4532 015f 0100     		.2byte	0x1
 4533 0161 50       		.byte	0x50
 4534 0162 18000000 		.4byte	.LVL36
 4535 0166 1A000000 		.4byte	.LVL37
 4536 016a 0100     		.2byte	0x1
 4537 016c 54       		.byte	0x54
 4538 016d 1A000000 		.4byte	.LVL37
 4539 0171 21000000 		.4byte	.LVL38-1
 4540 0175 0100     		.2byte	0x1
 4541 0177 50       		.byte	0x50
ARM GAS  /tmp/ccABRZiX.s 			page 81


 4542 0178 21000000 		.4byte	.LVL38-1
 4543 017c 28000000 		.4byte	.LFE126
 4544 0180 0100     		.2byte	0x1
 4545 0182 54       		.byte	0x54
 4546 0183 00000000 		.4byte	0
 4547 0187 00000000 		.4byte	0
 4548              	.LLST8:
 4549 018b 00000000 		.4byte	.LVL34
 4550 018f 21000000 		.4byte	.LVL38-1
 4551 0193 0100     		.2byte	0x1
 4552 0195 51       		.byte	0x51
 4553 0196 21000000 		.4byte	.LVL38-1
 4554 019a 28000000 		.4byte	.LFE126
 4555 019e 0400     		.2byte	0x4
 4556 01a0 F3       		.byte	0xf3
 4557 01a1 01       		.uleb128 0x1
 4558 01a2 51       		.byte	0x51
 4559 01a3 9F       		.byte	0x9f
 4560 01a4 00000000 		.4byte	0
 4561 01a8 00000000 		.4byte	0
 4562              	.LLST9:
 4563 01ac 00000000 		.4byte	.LVL34
 4564 01b0 21000000 		.4byte	.LVL38-1
 4565 01b4 0100     		.2byte	0x1
 4566 01b6 52       		.byte	0x52
 4567 01b7 21000000 		.4byte	.LVL38-1
 4568 01bb 28000000 		.4byte	.LFE126
 4569 01bf 0400     		.2byte	0x4
 4570 01c1 F3       		.byte	0xf3
 4571 01c2 01       		.uleb128 0x1
 4572 01c3 52       		.byte	0x52
 4573 01c4 9F       		.byte	0x9f
 4574 01c5 00000000 		.4byte	0
 4575 01c9 00000000 		.4byte	0
 4576              	.LLST10:
 4577 01cd 00000000 		.4byte	.LVL34
 4578 01d1 10000000 		.4byte	.LVL35
 4579 01d5 0100     		.2byte	0x1
 4580 01d7 53       		.byte	0x53
 4581 01d8 10000000 		.4byte	.LVL35
 4582 01dc 1A000000 		.4byte	.LVL37
 4583 01e0 0400     		.2byte	0x4
 4584 01e2 F3       		.byte	0xf3
 4585 01e3 01       		.uleb128 0x1
 4586 01e4 53       		.byte	0x53
 4587 01e5 9F       		.byte	0x9f
 4588 01e6 1A000000 		.4byte	.LVL37
 4589 01ea 21000000 		.4byte	.LVL38-1
 4590 01ee 0100     		.2byte	0x1
 4591 01f0 53       		.byte	0x53
 4592 01f1 21000000 		.4byte	.LVL38-1
 4593 01f5 28000000 		.4byte	.LFE126
 4594 01f9 0400     		.2byte	0x4
 4595 01fb F3       		.byte	0xf3
 4596 01fc 01       		.uleb128 0x1
 4597 01fd 53       		.byte	0x53
 4598 01fe 9F       		.byte	0x9f
ARM GAS  /tmp/ccABRZiX.s 			page 82


 4599 01ff 00000000 		.4byte	0
 4600 0203 00000000 		.4byte	0
 4601              	.LLST11:
 4602 0207 1A000000 		.4byte	.LVL37
 4603 020b 21000000 		.4byte	.LVL38-1
 4604 020f 0100     		.2byte	0x1
 4605 0211 50       		.byte	0x50
 4606 0212 21000000 		.4byte	.LVL38-1
 4607 0216 28000000 		.4byte	.LFE126
 4608 021a 0100     		.2byte	0x1
 4609 021c 54       		.byte	0x54
 4610 021d 00000000 		.4byte	0
 4611 0221 00000000 		.4byte	0
 4612              	.LLST12:
 4613 0225 00000000 		.4byte	.LFB125
 4614 0229 02000000 		.4byte	.LCFI3
 4615 022d 0200     		.2byte	0x2
 4616 022f 7D       		.byte	0x7d
 4617 0230 00       		.sleb128 0
 4618 0231 02000000 		.4byte	.LCFI3
 4619 0235 28000000 		.4byte	.LFE125
 4620 0239 0200     		.2byte	0x2
 4621 023b 7D       		.byte	0x7d
 4622 023c 10       		.sleb128 16
 4623 023d 00000000 		.4byte	0
 4624 0241 00000000 		.4byte	0
 4625              	.LLST13:
 4626 0245 00000000 		.4byte	.LVL39
 4627 0249 18000000 		.4byte	.LVL41
 4628 024d 0100     		.2byte	0x1
 4629 024f 50       		.byte	0x50
 4630 0250 18000000 		.4byte	.LVL41
 4631 0254 1A000000 		.4byte	.LVL42
 4632 0258 0100     		.2byte	0x1
 4633 025a 54       		.byte	0x54
 4634 025b 1A000000 		.4byte	.LVL42
 4635 025f 21000000 		.4byte	.LVL43-1
 4636 0263 0100     		.2byte	0x1
 4637 0265 50       		.byte	0x50
 4638 0266 21000000 		.4byte	.LVL43-1
 4639 026a 28000000 		.4byte	.LFE125
 4640 026e 0100     		.2byte	0x1
 4641 0270 54       		.byte	0x54
 4642 0271 00000000 		.4byte	0
 4643 0275 00000000 		.4byte	0
 4644              	.LLST14:
 4645 0279 00000000 		.4byte	.LVL39
 4646 027d 21000000 		.4byte	.LVL43-1
 4647 0281 0100     		.2byte	0x1
 4648 0283 51       		.byte	0x51
 4649 0284 21000000 		.4byte	.LVL43-1
 4650 0288 28000000 		.4byte	.LFE125
 4651 028c 0400     		.2byte	0x4
 4652 028e F3       		.byte	0xf3
 4653 028f 01       		.uleb128 0x1
 4654 0290 51       		.byte	0x51
 4655 0291 9F       		.byte	0x9f
ARM GAS  /tmp/ccABRZiX.s 			page 83


 4656 0292 00000000 		.4byte	0
 4657 0296 00000000 		.4byte	0
 4658              	.LLST15:
 4659 029a 00000000 		.4byte	.LVL39
 4660 029e 21000000 		.4byte	.LVL43-1
 4661 02a2 0100     		.2byte	0x1
 4662 02a4 52       		.byte	0x52
 4663 02a5 21000000 		.4byte	.LVL43-1
 4664 02a9 28000000 		.4byte	.LFE125
 4665 02ad 0400     		.2byte	0x4
 4666 02af F3       		.byte	0xf3
 4667 02b0 01       		.uleb128 0x1
 4668 02b1 52       		.byte	0x52
 4669 02b2 9F       		.byte	0x9f
 4670 02b3 00000000 		.4byte	0
 4671 02b7 00000000 		.4byte	0
 4672              	.LLST16:
 4673 02bb 00000000 		.4byte	.LVL39
 4674 02bf 10000000 		.4byte	.LVL40
 4675 02c3 0100     		.2byte	0x1
 4676 02c5 53       		.byte	0x53
 4677 02c6 10000000 		.4byte	.LVL40
 4678 02ca 1A000000 		.4byte	.LVL42
 4679 02ce 0400     		.2byte	0x4
 4680 02d0 F3       		.byte	0xf3
 4681 02d1 01       		.uleb128 0x1
 4682 02d2 53       		.byte	0x53
 4683 02d3 9F       		.byte	0x9f
 4684 02d4 1A000000 		.4byte	.LVL42
 4685 02d8 21000000 		.4byte	.LVL43-1
 4686 02dc 0100     		.2byte	0x1
 4687 02de 53       		.byte	0x53
 4688 02df 21000000 		.4byte	.LVL43-1
 4689 02e3 28000000 		.4byte	.LFE125
 4690 02e7 0400     		.2byte	0x4
 4691 02e9 F3       		.byte	0xf3
 4692 02ea 01       		.uleb128 0x1
 4693 02eb 53       		.byte	0x53
 4694 02ec 9F       		.byte	0x9f
 4695 02ed 00000000 		.4byte	0
 4696 02f1 00000000 		.4byte	0
 4697              	.LLST17:
 4698 02f5 1A000000 		.4byte	.LVL42
 4699 02f9 21000000 		.4byte	.LVL43-1
 4700 02fd 0100     		.2byte	0x1
 4701 02ff 50       		.byte	0x50
 4702 0300 21000000 		.4byte	.LVL43-1
 4703 0304 28000000 		.4byte	.LFE125
 4704 0308 0100     		.2byte	0x1
 4705 030a 54       		.byte	0x54
 4706 030b 00000000 		.4byte	0
 4707 030f 00000000 		.4byte	0
 4708              	.LLST18:
 4709 0313 00000000 		.4byte	.LFB118
 4710 0317 02000000 		.4byte	.LCFI4
 4711 031b 0200     		.2byte	0x2
 4712 031d 7D       		.byte	0x7d
ARM GAS  /tmp/ccABRZiX.s 			page 84


 4713 031e 00       		.sleb128 0
 4714 031f 02000000 		.4byte	.LCFI4
 4715 0323 06000000 		.4byte	.LCFI5
 4716 0327 0200     		.2byte	0x2
 4717 0329 7D       		.byte	0x7d
 4718 032a 08       		.sleb128 8
 4719 032b 06000000 		.4byte	.LCFI5
 4720 032f 42000000 		.4byte	.LFE118
 4721 0333 0200     		.2byte	0x2
 4722 0335 7D       		.byte	0x7d
 4723 0336 10       		.sleb128 16
 4724 0337 00000000 		.4byte	0
 4725 033b 00000000 		.4byte	0
 4726              	.LLST19:
 4727 033f 00000000 		.4byte	.LVL44
 4728 0343 06000000 		.4byte	.LVL45
 4729 0347 0100     		.2byte	0x1
 4730 0349 50       		.byte	0x50
 4731 034a 06000000 		.4byte	.LVL45
 4732 034e 42000000 		.4byte	.LFE118
 4733 0352 0100     		.2byte	0x1
 4734 0354 54       		.byte	0x54
 4735 0355 00000000 		.4byte	0
 4736 0359 00000000 		.4byte	0
 4737              	.LLST20:
 4738 035d 00000000 		.4byte	.LFB124
 4739 0361 02000000 		.4byte	.LCFI6
 4740 0365 0200     		.2byte	0x2
 4741 0367 7D       		.byte	0x7d
 4742 0368 00       		.sleb128 0
 4743 0369 02000000 		.4byte	.LCFI6
 4744 036d 46000000 		.4byte	.LFE124
 4745 0371 0200     		.2byte	0x2
 4746 0373 7D       		.byte	0x7d
 4747 0374 10       		.sleb128 16
 4748 0375 00000000 		.4byte	0
 4749 0379 00000000 		.4byte	0
 4750              	.LLST21:
 4751 037d 00000000 		.4byte	.LVL48
 4752 0381 1D000000 		.4byte	.LVL55-1
 4753 0385 0100     		.2byte	0x1
 4754 0387 50       		.byte	0x50
 4755 0388 1D000000 		.4byte	.LVL55-1
 4756 038c 30000000 		.4byte	.LVL57
 4757 0390 0100     		.2byte	0x1
 4758 0392 54       		.byte	0x54
 4759 0393 30000000 		.4byte	.LVL57
 4760 0397 33000000 		.4byte	.LVL58-1
 4761 039b 0100     		.2byte	0x1
 4762 039d 50       		.byte	0x50
 4763 039e 33000000 		.4byte	.LVL58-1
 4764 03a2 3C000000 		.4byte	.LVL59
 4765 03a6 0100     		.2byte	0x1
 4766 03a8 54       		.byte	0x54
 4767 03a9 3C000000 		.4byte	.LVL59
 4768 03ad 44000000 		.4byte	.LVL62
 4769 03b1 0100     		.2byte	0x1
ARM GAS  /tmp/ccABRZiX.s 			page 85


 4770 03b3 50       		.byte	0x50
 4771 03b4 44000000 		.4byte	.LVL62
 4772 03b8 46000000 		.4byte	.LFE124
 4773 03bc 0100     		.2byte	0x1
 4774 03be 54       		.byte	0x54
 4775 03bf 00000000 		.4byte	0
 4776 03c3 00000000 		.4byte	0
 4777              	.LLST22:
 4778 03c7 0A000000 		.4byte	.LVL50
 4779 03cb 0C000000 		.4byte	.LVL51
 4780 03cf 0100     		.2byte	0x1
 4781 03d1 53       		.byte	0x53
 4782 03d2 00000000 		.4byte	0
 4783 03d6 00000000 		.4byte	0
 4784              	.LLST23:
 4785 03da 10000000 		.4byte	.LVL52
 4786 03de 1D000000 		.4byte	.LVL55-1
 4787 03e2 0100     		.2byte	0x1
 4788 03e4 50       		.byte	0x50
 4789 03e5 1D000000 		.4byte	.LVL55-1
 4790 03e9 30000000 		.4byte	.LVL57
 4791 03ed 0100     		.2byte	0x1
 4792 03ef 54       		.byte	0x54
 4793 03f0 30000000 		.4byte	.LVL57
 4794 03f4 33000000 		.4byte	.LVL58-1
 4795 03f8 0100     		.2byte	0x1
 4796 03fa 50       		.byte	0x50
 4797 03fb 33000000 		.4byte	.LVL58-1
 4798 03ff 3C000000 		.4byte	.LVL59
 4799 0403 0100     		.2byte	0x1
 4800 0405 54       		.byte	0x54
 4801 0406 00000000 		.4byte	0
 4802 040a 00000000 		.4byte	0
 4803              	.LLST24:
 4804 040e 1A000000 		.4byte	.LVL54
 4805 0412 1D000000 		.4byte	.LVL55-1
 4806 0416 0100     		.2byte	0x1
 4807 0418 53       		.byte	0x53
 4808 0419 00000000 		.4byte	0
 4809 041d 00000000 		.4byte	0
 4810              	.LLST25:
 4811 0421 42000000 		.4byte	.LVL61
 4812 0425 46000000 		.4byte	.LFE124
 4813 0429 0100     		.2byte	0x1
 4814 042b 53       		.byte	0x53
 4815 042c 00000000 		.4byte	0
 4816 0430 00000000 		.4byte	0
 4817              	.LLST26:
 4818 0434 00000000 		.4byte	.LFB121
 4819 0438 02000000 		.4byte	.LCFI7
 4820 043c 0200     		.2byte	0x2
 4821 043e 7D       		.byte	0x7d
 4822 043f 00       		.sleb128 0
 4823 0440 02000000 		.4byte	.LCFI7
 4824 0444 1C000000 		.4byte	.LFE121
 4825 0448 0200     		.2byte	0x2
 4826 044a 7D       		.byte	0x7d
ARM GAS  /tmp/ccABRZiX.s 			page 86


 4827 044b 08       		.sleb128 8
 4828 044c 00000000 		.4byte	0
 4829 0450 00000000 		.4byte	0
 4830              	.LLST27:
 4831 0454 00000000 		.4byte	.LVL65
 4832 0458 0F000000 		.4byte	.LVL68-1
 4833 045c 0100     		.2byte	0x1
 4834 045e 50       		.byte	0x50
 4835 045f 0F000000 		.4byte	.LVL68-1
 4836 0463 1C000000 		.4byte	.LFE121
 4837 0467 0100     		.2byte	0x1
 4838 0469 54       		.byte	0x54
 4839 046a 00000000 		.4byte	0
 4840 046e 00000000 		.4byte	0
 4841              	.LLST28:
 4842 0472 00000000 		.4byte	.LVL65
 4843 0476 0F000000 		.4byte	.LVL68-1
 4844 047a 0100     		.2byte	0x1
 4845 047c 51       		.byte	0x51
 4846 047d 0F000000 		.4byte	.LVL68-1
 4847 0481 1C000000 		.4byte	.LFE121
 4848 0485 0400     		.2byte	0x4
 4849 0487 F3       		.byte	0xf3
 4850 0488 01       		.uleb128 0x1
 4851 0489 51       		.byte	0x51
 4852 048a 9F       		.byte	0x9f
 4853 048b 00000000 		.4byte	0
 4854 048f 00000000 		.4byte	0
 4855              	.LLST29:
 4856 0493 0A000000 		.4byte	.LVL67
 4857 0497 0F000000 		.4byte	.LVL68-1
 4858 049b 0100     		.2byte	0x1
 4859 049d 53       		.byte	0x53
 4860 049e 00000000 		.4byte	0
 4861 04a2 00000000 		.4byte	0
 4862              	.LLST30:
 4863 04a6 1A000000 		.4byte	.LVL70
 4864 04aa 1C000000 		.4byte	.LFE121
 4865 04ae 0100     		.2byte	0x1
 4866 04b0 53       		.byte	0x53
 4867 04b1 00000000 		.4byte	0
 4868 04b5 00000000 		.4byte	0
 4869              	.LLST31:
 4870 04b9 00000000 		.4byte	.LFB122
 4871 04bd 02000000 		.4byte	.LCFI8
 4872 04c1 0200     		.2byte	0x2
 4873 04c3 7D       		.byte	0x7d
 4874 04c4 00       		.sleb128 0
 4875 04c5 02000000 		.4byte	.LCFI8
 4876 04c9 1A000000 		.4byte	.LFE122
 4877 04cd 0200     		.2byte	0x2
 4878 04cf 7D       		.byte	0x7d
 4879 04d0 08       		.sleb128 8
 4880 04d1 00000000 		.4byte	0
 4881 04d5 00000000 		.4byte	0
 4882              	.LLST32:
 4883 04d9 00000000 		.4byte	.LVL71
ARM GAS  /tmp/ccABRZiX.s 			page 87


 4884 04dd 0D000000 		.4byte	.LVL74-1
 4885 04e1 0100     		.2byte	0x1
 4886 04e3 50       		.byte	0x50
 4887 04e4 0D000000 		.4byte	.LVL74-1
 4888 04e8 1A000000 		.4byte	.LFE122
 4889 04ec 0100     		.2byte	0x1
 4890 04ee 54       		.byte	0x54
 4891 04ef 00000000 		.4byte	0
 4892 04f3 00000000 		.4byte	0
 4893              	.LLST33:
 4894 04f7 0A000000 		.4byte	.LVL73
 4895 04fb 0D000000 		.4byte	.LVL74-1
 4896 04ff 0100     		.2byte	0x1
 4897 0501 53       		.byte	0x53
 4898 0502 00000000 		.4byte	0
 4899 0506 00000000 		.4byte	0
 4900              	.LLST34:
 4901 050a 18000000 		.4byte	.LVL76
 4902 050e 1A000000 		.4byte	.LFE122
 4903 0512 0100     		.2byte	0x1
 4904 0514 53       		.byte	0x53
 4905 0515 00000000 		.4byte	0
 4906 0519 00000000 		.4byte	0
 4907              	.LLST35:
 4908 051d 00000000 		.4byte	.LVL77
 4909 0521 0C000000 		.4byte	.LVL81
 4910 0525 0100     		.2byte	0x1
 4911 0527 50       		.byte	0x50
 4912 0528 0C000000 		.4byte	.LVL81
 4913 052c 14000000 		.4byte	.LFE127
 4914 0530 0100     		.2byte	0x1
 4915 0532 52       		.byte	0x52
 4916 0533 00000000 		.4byte	0
 4917 0537 00000000 		.4byte	0
 4918              	.LLST36:
 4919 053b 08000000 		.4byte	.LVL79
 4920 053f 0A000000 		.4byte	.LVL80
 4921 0543 0100     		.2byte	0x1
 4922 0545 53       		.byte	0x53
 4923 0546 00000000 		.4byte	0
 4924 054a 00000000 		.4byte	0
 4925              	.LLST37:
 4926 054e 00000000 		.4byte	.LFB130
 4927 0552 02000000 		.4byte	.LCFI9
 4928 0556 0200     		.2byte	0x2
 4929 0558 7D       		.byte	0x7d
 4930 0559 00       		.sleb128 0
 4931 055a 02000000 		.4byte	.LCFI9
 4932 055e 0A000000 		.4byte	.LCFI10
 4933 0562 0200     		.2byte	0x2
 4934 0564 7D       		.byte	0x7d
 4935 0565 10       		.sleb128 16
 4936 0566 0A000000 		.4byte	.LCFI10
 4937 056a 84000000 		.4byte	.LFE130
 4938 056e 0200     		.2byte	0x2
 4939 0570 7D       		.byte	0x7d
 4940 0571 18       		.sleb128 24
ARM GAS  /tmp/ccABRZiX.s 			page 88


 4941 0572 00000000 		.4byte	0
 4942 0576 00000000 		.4byte	0
 4943              	.LLST38:
 4944 057a 00000000 		.4byte	.LVL83
 4945 057e 16000000 		.4byte	.LVL87
 4946 0582 0100     		.2byte	0x1
 4947 0584 50       		.byte	0x50
 4948 0585 16000000 		.4byte	.LVL87
 4949 0589 84000000 		.4byte	.LFE130
 4950 058d 0100     		.2byte	0x1
 4951 058f 54       		.byte	0x54
 4952 0590 00000000 		.4byte	0
 4953 0594 00000000 		.4byte	0
 4954              	.LLST39:
 4955 0598 00000000 		.4byte	.LVL83
 4956 059c 12000000 		.4byte	.LVL85
 4957 05a0 0100     		.2byte	0x1
 4958 05a2 51       		.byte	0x51
 4959 05a3 12000000 		.4byte	.LVL85
 4960 05a7 36000000 		.4byte	.LVL90
 4961 05ab 0100     		.2byte	0x1
 4962 05ad 55       		.byte	0x55
 4963 05ae 3C000000 		.4byte	.LVL91
 4964 05b2 6E000000 		.4byte	.LVL94
 4965 05b6 0100     		.2byte	0x1
 4966 05b8 55       		.byte	0x55
 4967 05b9 00000000 		.4byte	0
 4968 05bd 00000000 		.4byte	0
 4969              	.LLST40:
 4970 05c1 00000000 		.4byte	.LVL83
 4971 05c5 08000000 		.4byte	.LVL84
 4972 05c9 0100     		.2byte	0x1
 4973 05cb 52       		.byte	0x52
 4974 05cc 08000000 		.4byte	.LVL84
 4975 05d0 84000000 		.4byte	.LFE130
 4976 05d4 0100     		.2byte	0x1
 4977 05d6 56       		.byte	0x56
 4978 05d7 00000000 		.4byte	0
 4979 05db 00000000 		.4byte	0
 4980              		.section	.debug_aranges,"",%progbits
 4981 0000 7C000000 		.4byte	0x7c
 4982 0004 0200     		.2byte	0x2
 4983 0006 00000000 		.4byte	.Ldebug_info0
 4984 000a 04       		.byte	0x4
 4985 000b 00       		.byte	0
 4986 000c 0000     		.2byte	0
 4987 000e 0000     		.2byte	0
 4988 0010 00000000 		.4byte	.LFB129
 4989 0014 18000000 		.4byte	.LFE129-.LFB129
 4990 0018 00000000 		.4byte	.LFB128
 4991 001c 0E000000 		.4byte	.LFE128-.LFB128
 4992 0020 00000000 		.4byte	.LFB123
 4993 0024 C2010000 		.4byte	.LFE123-.LFB123
 4994 0028 00000000 		.4byte	.LFB126
 4995 002c 28000000 		.4byte	.LFE126-.LFB126
 4996 0030 00000000 		.4byte	.LFB125
 4997 0034 28000000 		.4byte	.LFE125-.LFB125
ARM GAS  /tmp/ccABRZiX.s 			page 89


 4998 0038 00000000 		.4byte	.LFB118
 4999 003c 42000000 		.4byte	.LFE118-.LFB118
 5000 0040 00000000 		.4byte	.LFB124
 5001 0044 46000000 		.4byte	.LFE124-.LFB124
 5002 0048 00000000 		.4byte	.LFB119
 5003 004c 04000000 		.4byte	.LFE119-.LFB119
 5004 0050 00000000 		.4byte	.LFB120
 5005 0054 18000000 		.4byte	.LFE120-.LFB120
 5006 0058 00000000 		.4byte	.LFB121
 5007 005c 1C000000 		.4byte	.LFE121-.LFB121
 5008 0060 00000000 		.4byte	.LFB122
 5009 0064 1A000000 		.4byte	.LFE122-.LFB122
 5010 0068 00000000 		.4byte	.LFB127
 5011 006c 14000000 		.4byte	.LFE127-.LFB127
 5012 0070 00000000 		.4byte	.LFB130
 5013 0074 84000000 		.4byte	.LFE130-.LFB130
 5014 0078 00000000 		.4byte	0
 5015 007c 00000000 		.4byte	0
 5016              		.section	.debug_ranges,"",%progbits
 5017              	.Ldebug_ranges0:
 5018 0000 50000000 		.4byte	.LBB5
 5019 0004 9E000000 		.4byte	.LBE5
 5020 0008 BC000000 		.4byte	.LBB6
 5021 000c DE000000 		.4byte	.LBE6
 5022 0010 00000000 		.4byte	0
 5023 0014 00000000 		.4byte	0
 5024 0018 10000000 		.4byte	.LBB23
 5025 001c 2E000000 		.4byte	.LBE23
 5026 0020 30000000 		.4byte	.LBB27
 5027 0024 3C000000 		.4byte	.LBE27
 5028 0028 00000000 		.4byte	0
 5029 002c 00000000 		.4byte	0
 5030 0030 02000000 		.4byte	.LBB29
 5031 0034 04000000 		.4byte	.LBE29
 5032 0038 06000000 		.4byte	.LBB30
 5033 003c 0A000000 		.4byte	.LBE30
 5034 0040 00000000 		.4byte	0
 5035 0044 00000000 		.4byte	0
 5036 0048 02000000 		.4byte	.LBB32
 5037 004c 04000000 		.4byte	.LBE32
 5038 0050 06000000 		.4byte	.LBB33
 5039 0054 0A000000 		.4byte	.LBE33
 5040 0058 00000000 		.4byte	0
 5041 005c 00000000 		.4byte	0
 5042 0060 00000000 		.4byte	.LFB129
 5043 0064 18000000 		.4byte	.LFE129
 5044 0068 00000000 		.4byte	.LFB128
 5045 006c 0E000000 		.4byte	.LFE128
 5046 0070 00000000 		.4byte	.LFB123
 5047 0074 C2010000 		.4byte	.LFE123
 5048 0078 00000000 		.4byte	.LFB126
 5049 007c 28000000 		.4byte	.LFE126
 5050 0080 00000000 		.4byte	.LFB125
 5051 0084 28000000 		.4byte	.LFE125
 5052 0088 00000000 		.4byte	.LFB118
 5053 008c 42000000 		.4byte	.LFE118
 5054 0090 00000000 		.4byte	.LFB124
ARM GAS  /tmp/ccABRZiX.s 			page 90


 5055 0094 46000000 		.4byte	.LFE124
 5056 0098 00000000 		.4byte	.LFB119
 5057 009c 04000000 		.4byte	.LFE119
 5058 00a0 00000000 		.4byte	.LFB120
 5059 00a4 18000000 		.4byte	.LFE120
 5060 00a8 00000000 		.4byte	.LFB121
 5061 00ac 1C000000 		.4byte	.LFE121
 5062 00b0 00000000 		.4byte	.LFB122
 5063 00b4 1A000000 		.4byte	.LFE122
 5064 00b8 00000000 		.4byte	.LFB127
 5065 00bc 14000000 		.4byte	.LFE127
 5066 00c0 00000000 		.4byte	.LFB130
 5067 00c4 84000000 		.4byte	.LFE130
 5068 00c8 00000000 		.4byte	0
 5069 00cc 00000000 		.4byte	0
 5070              		.section	.debug_line,"",%progbits
 5071              	.Ldebug_line0:
 5072 0000 BD030000 		.section	.debug_str,"MS",%progbits,1
 5072      0200EE01 
 5072      00000201 
 5072      FB0E0D00 
 5072      01010101 
 5073              	.LASF77:
 5074 0000 426C6F63 		.ascii	"BlockDeviceInfo\000"
 5074      6B446576 
 5074      69636549 
 5074      6E666F00 
 5075              	.LASF86:
 5076 0010 63617061 		.ascii	"capacity\000"
 5076      63697479 
 5076      00
 5077              	.LASF115:
 5078 0019 73646349 		.ascii	"sdcInit\000"
 5078      6E697400 
 5079              	.LASF33:
 5080 0021 705F7469 		.ascii	"p_time\000"
 5080      6D6500
 5081              	.LASF76:
 5082 0028 626C6B5F 		.ascii	"blk_num\000"
 5082      6E756D00 
 5083              	.LASF51:
 5084 0030 7264796D 		.ascii	"rdymsg\000"
 5084      736700
 5085              	.LASF96:
 5086 0037 69735F70 		.ascii	"is_protected\000"
 5086      726F7465 
 5086      63746564 
 5086      00
 5087              	.LASF57:
 5088 0044 4D304152 		.ascii	"M0AR\000"
 5088      00
 5089              	.LASF109:
 5090 0049 62646970 		.ascii	"bdip\000"
 5090      00
 5091              	.LASF60:
 5092 004e 73747265 		.ascii	"stream\000"
 5092      616D00
ARM GAS  /tmp/ccABRZiX.s 			page 91


 5093              	.LASF11:
 5094 0055 6C6F6E67 		.ascii	"long long unsigned int\000"
 5094      206C6F6E 
 5094      6720756E 
 5094      7369676E 
 5094      65642069 
 5095              	.LASF52:
 5096 006c 65786974 		.ascii	"exitcode\000"
 5096      636F6465 
 5096      00
 5097              	.LASF64:
 5098 0075 76656374 		.ascii	"vector\000"
 5098      6F7200
 5099              	.LASF88:
 5100 007c 63617264 		.ascii	"cardmode\000"
 5100      6D6F6465 
 5100      00
 5101              	.LASF142:
 5102 0085 49544D5F 		.ascii	"ITM_RxBuffer\000"
 5102      52784275 
 5102      66666572 
 5102      00
 5103              	.LASF74:
 5104 0092 626C6B73 		.ascii	"blkstate_t\000"
 5104      74617465 
 5104      5F7400
 5105              	.LASF108:
 5106 009d 73646344 		.ascii	"sdcDisconnect\000"
 5106      6973636F 
 5106      6E6E6563 
 5106      7400
 5107              	.LASF24:
 5108 00ab 705F7072 		.ascii	"p_prio\000"
 5108      696F00
 5109              	.LASF10:
 5110 00b2 6C6F6E67 		.ascii	"long long int\000"
 5110      206C6F6E 
 5110      6720696E 
 5110      7400
 5111              	.LASF1:
 5112 00c0 7369676E 		.ascii	"signed char\000"
 5112      65642063 
 5112      68617200 
 5113              	.LASF78:
 5114 00cc 5344435F 		.ascii	"SDC_MODE_1BIT\000"
 5114      4D4F4445 
 5114      5F314249 
 5114      5400
 5115              	.LASF40:
 5116 00da 705F6D70 		.ascii	"p_mpool\000"
 5116      6F6F6C00 
 5117              	.LASF12:
 5118 00e2 626F6F6C 		.ascii	"bool_t\000"
 5118      5F7400
 5119              	.LASF48:
 5120 00e9 6D5F7175 		.ascii	"m_queue\000"
 5120      65756500 
ARM GAS  /tmp/ccABRZiX.s 			page 92


 5121              	.LASF98:
 5122 00f1 64697363 		.ascii	"disconnect\000"
 5122      6F6E6E65 
 5122      637400
 5123              	.LASF16:
 5124 00fc 74736C69 		.ascii	"tslices_t\000"
 5124      6365735F 
 5124      7400
 5125              	.LASF66:
 5126 0106 424C4B5F 		.ascii	"BLK_UNINIT\000"
 5126      554E494E 
 5126      495400
 5127              	.LASF85:
 5128 0111 73746174 		.ascii	"state\000"
 5128      6500
 5129              	.LASF7:
 5130 0117 6C6F6E67 		.ascii	"long int\000"
 5130      20696E74 
 5130      00
 5131              	.LASF14:
 5132 0120 74737461 		.ascii	"tstate_t\000"
 5132      74655F74 
 5132      00
 5133              	.LASF67:
 5134 0129 424C4B5F 		.ascii	"BLK_STOP\000"
 5134      53544F50 
 5134      00
 5135              	.LASF68:
 5136 0132 424C4B5F 		.ascii	"BLK_ACTIVE\000"
 5136      41435449 
 5136      564500
 5137              	.LASF26:
 5138 013d 705F6E65 		.ascii	"p_newer\000"
 5138      77657200 
 5139              	.LASF102:
 5140 0145 6765745F 		.ascii	"get_info\000"
 5140      696E666F 
 5140      00
 5141              	.LASF43:
 5142 014e 72656761 		.ascii	"regarm_t\000"
 5142      726D5F74 
 5142      00
 5143              	.LASF63:
 5144 0157 73656C66 		.ascii	"selfindex\000"
 5144      696E6465 
 5144      7800
 5145              	.LASF92:
 5146 0161 64756D6D 		.ascii	"dummy\000"
 5146      7900
 5147              	.LASF75:
 5148 0167 626C6B5F 		.ascii	"blk_size\000"
 5148      73697A65 
 5148      00
 5149              	.LASF82:
 5150 0170 7364636D 		.ascii	"sdcmode_t\000"
 5150      6F64655F 
 5150      7400
ARM GAS  /tmp/ccABRZiX.s 			page 93


 5151              	.LASF131:
 5152 017a 7364635F 		.ascii	"sdc_lld_send_cmd_long_crc\000"
 5152      6C6C645F 
 5152      73656E64 
 5152      5F636D64 
 5152      5F6C6F6E 
 5153              	.LASF113:
 5154 0194 72657370 		.ascii	"resp\000"
 5154      00
 5155              	.LASF0:
 5156 0199 756E7369 		.ascii	"unsigned int\000"
 5156      676E6564 
 5156      20696E74 
 5156      00
 5157              	.LASF123:
 5158 01a6 7364635F 		.ascii	"sdc_vmt\000"
 5158      766D7400 
 5159              	.LASF112:
 5160 01ae 73646343 		.ascii	"sdcConnect\000"
 5160      6F6E6E65 
 5160      637400
 5161              	.LASF89:
 5162 01b9 6572726F 		.ascii	"errors\000"
 5162      727300
 5163              	.LASF35:
 5164 01c0 705F6D73 		.ascii	"p_msgqueue\000"
 5164      67717565 
 5164      756500
 5165              	.LASF134:
 5166 01cb 6D6D6373 		.ascii	"mmcsdGetCapacity\000"
 5166      64476574 
 5166      43617061 
 5166      63697479 
 5166      00
 5167              	.LASF126:
 5168 01dc 7364635F 		.ascii	"sdc_lld_send_cmd_short_crc\000"
 5168      6C6C645F 
 5168      73656E64 
 5168      5F636D64 
 5168      5F73686F 
 5169              	.LASF62:
 5170 01f7 69736869 		.ascii	"ishift\000"
 5170      667400
 5171              	.LASF80:
 5172 01fe 5344435F 		.ascii	"SDC_MODE_8BIT\000"
 5172      4D4F4445 
 5172      5F384249 
 5172      5400
 5173              	.LASF4:
 5174 020c 73686F72 		.ascii	"short unsigned int\000"
 5174      7420756E 
 5174      7369676E 
 5174      65642069 
 5174      6E7400
 5175              	.LASF124:
 5176 021f 7364635F 		.ascii	"sdc_lld_sync\000"
 5176      6C6C645F 
ARM GAS  /tmp/ccABRZiX.s 			page 94


 5176      73796E63 
 5176      00
 5177              	.LASF18:
 5178 022c 6D73675F 		.ascii	"msg_t\000"
 5178      7400
 5179              	.LASF136:
 5180 0232 7364635F 		.ascii	"sdc_lld_read\000"
 5180      6C6C645F 
 5180      72656164 
 5180      00
 5181              	.LASF69:
 5182 023f 424C4B5F 		.ascii	"BLK_CONNECTING\000"
 5182      434F4E4E 
 5182      45435449 
 5182      4E4700
 5183              	.LASF13:
 5184 024e 746D6F64 		.ascii	"tmode_t\000"
 5184      655F7400 
 5185              	.LASF42:
 5186 0256 54687265 		.ascii	"ThreadsList\000"
 5186      6164734C 
 5186      69737400 
 5187              	.LASF19:
 5188 0262 6576656E 		.ascii	"eventmask_t\000"
 5188      746D6173 
 5188      6B5F7400 
 5189              	.LASF140:
 5190 026e 2F686F6D 		.ascii	"/home/kwilson/Sandbox/ChibiOS_2.5.1/demos/ARMCM4-ST"
 5190      652F6B77 
 5190      696C736F 
 5190      6E2F5361 
 5190      6E64626F 
 5191 02a1 4D333246 		.ascii	"M32F407-LWIP-FATFS-USB\000"
 5191      3430372D 
 5191      4C574950 
 5191      2D464154 
 5191      46532D55 
 5192              	.LASF47:
 5193 02b8 4D757465 		.ascii	"Mutex\000"
 5193      7800
 5194              	.LASF144:
 5195 02be 7364635F 		.ascii	"sdc_lld_stop\000"
 5195      6C6C645F 
 5195      73746F70 
 5195      00
 5196              	.LASF100:
 5197 02cb 77726974 		.ascii	"write\000"
 5197      6500
 5198              	.LASF72:
 5199 02d1 424C4B5F 		.ascii	"BLK_READING\000"
 5199      52454144 
 5199      494E4700 
 5200              	.LASF46:
 5201 02dd 73697A65 		.ascii	"sizetype\000"
 5201      74797065 
 5201      00
 5202              	.LASF129:
ARM GAS  /tmp/ccABRZiX.s 			page 95


 5203 02e6 7364635F 		.ascii	"sdc_lld_send_cmd_none\000"
 5203      6C6C645F 
 5203      73656E64 
 5203      5F636D64 
 5203      5F6E6F6E 
 5204              	.LASF114:
 5205 02fc 5F736463 		.ascii	"_sdc_wait_for_transfer_state\000"
 5205      5F776169 
 5205      745F666F 
 5205      725F7472 
 5205      616E7366 
 5206              	.LASF137:
 5207 0319 7364635F 		.ascii	"sdc_lld_start\000"
 5207      6C6C645F 
 5207      73746172 
 5207      7400
 5208              	.LASF37:
 5209 0327 705F6570 		.ascii	"p_epending\000"
 5209      656E6469 
 5209      6E6700
 5210              	.LASF121:
 5211 0332 73646345 		.ascii	"sdcErase\000"
 5211      72617365 
 5211      00
 5212              	.LASF105:
 5213 033b 73646357 		.ascii	"sdcWrite\000"
 5213      72697465 
 5213      00
 5214              	.LASF71:
 5215 0344 424C4B5F 		.ascii	"BLK_READY\000"
 5215      52454144 
 5215      5900
 5216              	.LASF41:
 5217 034e 54687265 		.ascii	"ThreadsQueue\000"
 5217      61647351 
 5217      75657565 
 5217      00
 5218              	.LASF111:
 5219 035b 73646353 		.ascii	"sdcSync\000"
 5219      796E6300 
 5220              	.LASF138:
 5221 0363 474E5520 		.ascii	"GNU C 4.7.2\000"
 5221      4320342E 
 5221      372E3200 
 5222              	.LASF141:
 5223 036f 6661696C 		.ascii	"failed\000"
 5223      656400
 5224              	.LASF106:
 5225 0376 73646352 		.ascii	"sdcRead\000"
 5225      65616400 
 5226              	.LASF116:
 5227 037e 7364634F 		.ascii	"sdcObjectInit\000"
 5227      626A6563 
 5227      74496E69 
 5227      7400
 5228              	.LASF15:
 5229 038c 74726566 		.ascii	"trefs_t\000"
ARM GAS  /tmp/ccABRZiX.s 			page 96


 5229      735F7400 
 5230              	.LASF101:
 5231 0394 73796E63 		.ascii	"sync\000"
 5231      00
 5232              	.LASF117:
 5233 0399 73646353 		.ascii	"sdcStart\000"
 5233      74617274 
 5233      00
 5234              	.LASF23:
 5235 03a2 705F7072 		.ascii	"p_prev\000"
 5235      657600
 5236              	.LASF65:
 5237 03a9 73746D33 		.ascii	"stm32_dma_stream_t\000"
 5237      325F646D 
 5237      615F7374 
 5237      7265616D 
 5237      5F7400
 5238              	.LASF118:
 5239 03bc 73646353 		.ascii	"sdcStop\000"
 5239      746F7000 
 5240              	.LASF17:
 5241 03c4 74707269 		.ascii	"tprio_t\000"
 5241      6F5F7400 
 5242              	.LASF90:
 5243 03cc 74687265 		.ascii	"thread\000"
 5243      616400
 5244              	.LASF6:
 5245 03d3 696E7433 		.ascii	"int32_t\000"
 5245      325F7400 
 5246              	.LASF2:
 5247 03db 756E7369 		.ascii	"unsigned char\000"
 5247      676E6564 
 5247      20636861 
 5247      7200
 5248              	.LASF135:
 5249 03e9 7364635F 		.ascii	"sdc_lld_write\000"
 5249      6C6C645F 
 5249      77726974 
 5249      6500
 5250              	.LASF38:
 5251 03f7 705F6D74 		.ascii	"p_mtxlist\000"
 5251      786C6973 
 5251      7400
 5252              	.LASF3:
 5253 0401 73686F72 		.ascii	"short int\000"
 5253      7420696E 
 5253      7400
 5254              	.LASF29:
 5255 040b 705F7374 		.ascii	"p_state\000"
 5255      61746500 
 5256              	.LASF73:
 5257 0413 424C4B5F 		.ascii	"BLK_WRITING\000"
 5257      57524954 
 5257      494E4700 
 5258              	.LASF32:
 5259 041f 705F7072 		.ascii	"p_preempt\000"
 5259      65656D70 
ARM GAS  /tmp/ccABRZiX.s 			page 97


 5259      7400
 5260              	.LASF27:
 5261 0429 705F6F6C 		.ascii	"p_older\000"
 5261      64657200 
 5262              	.LASF54:
 5263 0431 65776D61 		.ascii	"ewmask\000"
 5263      736B00
 5264              	.LASF22:
 5265 0438 705F6E65 		.ascii	"p_next\000"
 5265      787400
 5266              	.LASF132:
 5267 043f 7364635F 		.ascii	"sdc_lld_set_data_clk\000"
 5267      6C6C645F 
 5267      7365745F 
 5267      64617461 
 5267      5F636C6B 
 5268              	.LASF94:
 5269 0454 53444344 		.ascii	"SDCDriverVMT\000"
 5269      72697665 
 5269      72564D54 
 5269      00
 5270              	.LASF21:
 5271 0461 54687265 		.ascii	"Thread\000"
 5271      616400
 5272              	.LASF81:
 5273 0468 73646362 		.ascii	"sdcbusmode_t\000"
 5273      75736D6F 
 5273      64655F74 
 5273      00
 5274              	.LASF97:
 5275 0475 636F6E6E 		.ascii	"connect\000"
 5275      65637400 
 5276              	.LASF128:
 5277 047d 7364635F 		.ascii	"sdc_lld_start_clk\000"
 5277      6C6C645F 
 5277      73746172 
 5277      745F636C 
 5277      6B00
 5278              	.LASF61:
 5279 048f 69666372 		.ascii	"ifcr\000"
 5279      00
 5280              	.LASF8:
 5281 0494 75696E74 		.ascii	"uint32_t\000"
 5281      33325F74 
 5281      00
 5282              	.LASF133:
 5283 049d 7364635F 		.ascii	"sdc_lld_set_bus_mode\000"
 5283      6C6C645F 
 5283      7365745F 
 5283      6275735F 
 5283      6D6F6465 
 5284              	.LASF9:
 5285 04b2 6C6F6E67 		.ascii	"long unsigned int\000"
 5285      20756E73 
 5285      69676E65 
 5285      6420696E 
 5285      7400
ARM GAS  /tmp/ccABRZiX.s 			page 98


 5286              	.LASF99:
 5287 04c4 72656164 		.ascii	"read\000"
 5287      00
 5288              	.LASF55:
 5289 04c9 63686172 		.ascii	"char\000"
 5289      00
 5290              	.LASF70:
 5291 04ce 424C4B5F 		.ascii	"BLK_DISCONNECTING\000"
 5291      44495343 
 5291      4F4E4E45 
 5291      4354494E 
 5291      4700
 5292              	.LASF87:
 5293 04e0 636F6E66 		.ascii	"config\000"
 5293      696700
 5294              	.LASF103:
 5295 04e7 73646370 		.ascii	"sdcp\000"
 5295      00
 5296              	.LASF50:
 5297 04ec 6D5F6E65 		.ascii	"m_next\000"
 5297      787400
 5298              	.LASF20:
 5299 04f3 73797374 		.ascii	"systime_t\000"
 5299      696D655F 
 5299      7400
 5300              	.LASF39:
 5301 04fd 705F7265 		.ascii	"p_realprio\000"
 5301      616C7072 
 5301      696F00
 5302              	.LASF56:
 5303 0508 4E445452 		.ascii	"NDTR\000"
 5303      00
 5304              	.LASF59:
 5305 050d 444D415F 		.ascii	"DMA_Stream_TypeDef\000"
 5305      53747265 
 5305      616D5F54 
 5305      79706544 
 5305      656600
 5306              	.LASF104:
 5307 0520 73746172 		.ascii	"startblk\000"
 5307      74626C6B 
 5307      00
 5308              	.LASF79:
 5309 0529 5344435F 		.ascii	"SDC_MODE_4BIT\000"
 5309      4D4F4445 
 5309      5F344249 
 5309      5400
 5310              	.LASF45:
 5311 0537 636F6E74 		.ascii	"context\000"
 5311      65787400 
 5312              	.LASF83:
 5313 053f 73646366 		.ascii	"sdcflags_t\000"
 5313      6C616773 
 5313      5F7400
 5314              	.LASF44:
 5315 054a 696E7463 		.ascii	"intctx\000"
 5315      747800
ARM GAS  /tmp/ccABRZiX.s 			page 99


 5316              	.LASF95:
 5317 0551 69735F69 		.ascii	"is_inserted\000"
 5317      6E736572 
 5317      74656400 
 5318              	.LASF58:
 5319 055d 4D314152 		.ascii	"M1AR\000"
 5319      00
 5320              	.LASF130:
 5321 0562 7364635F 		.ascii	"sdc_lld_stop_clk\000"
 5321      6C6C645F 
 5321      73746F70 
 5321      5F636C6B 
 5321      00
 5322              	.LASF139:
 5323 0573 2E2E2F2E 		.ascii	"../../os/hal/src/sdc.c\000"
 5323      2E2F6F73 
 5323      2F68616C 
 5323      2F737263 
 5323      2F736463 
 5324              	.LASF143:
 5325 058a 7364635F 		.ascii	"sdc_lld_init\000"
 5325      6C6C645F 
 5325      696E6974 
 5325      00
 5326              	.LASF127:
 5327 0597 63685468 		.ascii	"chThdSleep\000"
 5327      64536C65 
 5327      657000
 5328              	.LASF31:
 5329 05a2 705F7265 		.ascii	"p_refs\000"
 5329      667300
 5330              	.LASF110:
 5331 05a9 73646347 		.ascii	"sdcGetInfo\000"
 5331      6574496E 
 5331      666F00
 5332              	.LASF107:
 5333 05b4 73746174 		.ascii	"status\000"
 5333      757300
 5334              	.LASF93:
 5335 05bb 53444343 		.ascii	"SDCConfig\000"
 5335      6F6E6669 
 5335      6700
 5336              	.LASF5:
 5337 05c5 75696E74 		.ascii	"uint8_t\000"
 5337      385F7400 
 5338              	.LASF120:
 5339 05cd 666C6167 		.ascii	"flags\000"
 5339      7300
 5340              	.LASF122:
 5341 05d3 656E6462 		.ascii	"endblk\000"
 5341      6C6B00
 5342              	.LASF91:
 5343 05da 646D616D 		.ascii	"dmamode\000"
 5343      6F646500 
 5344              	.LASF53:
 5345 05e2 77746F62 		.ascii	"wtobjp\000"
 5345      6A7000
ARM GAS  /tmp/ccABRZiX.s 			page 100


 5346              	.LASF28:
 5347 05e9 705F6E61 		.ascii	"p_name\000"
 5347      6D6500
 5348              	.LASF119:
 5349 05f0 73646347 		.ascii	"sdcGetAndClearErrors\000"
 5349      6574416E 
 5349      64436C65 
 5349      61724572 
 5349      726F7273 
 5350              	.LASF125:
 5351 0605 7364635F 		.ascii	"sdc_lld_send_cmd_short\000"
 5351      6C6C645F 
 5351      73656E64 
 5351      5F636D64 
 5351      5F73686F 
 5352              	.LASF30:
 5353 061c 705F666C 		.ascii	"p_flags\000"
 5353      61677300 
 5354              	.LASF36:
 5355 0624 705F6D73 		.ascii	"p_msg\000"
 5355      6700
 5356              	.LASF49:
 5357 062a 6D5F6F77 		.ascii	"m_owner\000"
 5357      6E657200 
 5358              	.LASF84:
 5359 0632 53444344 		.ascii	"SDCDriver\000"
 5359      72697665 
 5359      7200
 5360              	.LASF25:
 5361 063c 705F6374 		.ascii	"p_ctx\000"
 5361      7800
 5362              	.LASF34:
 5363 0642 705F7761 		.ascii	"p_waiting\000"
 5363      6974696E 
 5363      6700
 5364              		.ident	"GCC: (crosstool-NG 1.17.0 - PSAS ST32F4 GFE) 4.7.2"
ARM GAS  /tmp/ccABRZiX.s 			page 101


DEFINED SYMBOLS
                            *ABS*:0000000000000000 sdc.c
     /tmp/ccABRZiX.s:21     .text.sdcGetInfo:0000000000000000 $t
     /tmp/ccABRZiX.s:27     .text.sdcGetInfo:0000000000000000 sdcGetInfo
     /tmp/ccABRZiX.s:61     .text.sdcSync:0000000000000000 $t
     /tmp/ccABRZiX.s:67     .text.sdcSync:0000000000000000 sdcSync
     /tmp/ccABRZiX.s:92     .text.sdcConnect:0000000000000000 $t
     /tmp/ccABRZiX.s:98     .text.sdcConnect:0000000000000000 sdcConnect
     /tmp/ccABRZiX.s:394    .text.sdcWrite:0000000000000000 $t
     /tmp/ccABRZiX.s:400    .text.sdcWrite:0000000000000000 sdcWrite
     /tmp/ccABRZiX.s:453    .text.sdcRead:0000000000000000 $t
     /tmp/ccABRZiX.s:459    .text.sdcRead:0000000000000000 sdcRead
     /tmp/ccABRZiX.s:512    .text._sdc_wait_for_transfer_state:0000000000000000 $t
     /tmp/ccABRZiX.s:518    .text._sdc_wait_for_transfer_state:0000000000000000 _sdc_wait_for_transfer_state
     /tmp/ccABRZiX.s:584    .text.sdcDisconnect:0000000000000000 $t
     /tmp/ccABRZiX.s:590    .text.sdcDisconnect:0000000000000000 sdcDisconnect
     /tmp/ccABRZiX.s:692    .text.sdcInit:0000000000000000 $t
     /tmp/ccABRZiX.s:698    .text.sdcInit:0000000000000000 sdcInit
     /tmp/ccABRZiX.s:713    .text.sdcObjectInit:0000000000000000 $t
     /tmp/ccABRZiX.s:719    .text.sdcObjectInit:0000000000000000 sdcObjectInit
     /tmp/ccABRZiX.s:1025   .rodata.sdc_vmt:0000000000000000 .LANCHOR0
     /tmp/ccABRZiX.s:748    .text.sdcStart:0000000000000000 $t
     /tmp/ccABRZiX.s:754    .text.sdcStart:0000000000000000 sdcStart
     /tmp/ccABRZiX.s:804    .text.sdcStop:0000000000000000 $t
     /tmp/ccABRZiX.s:810    .text.sdcStop:0000000000000000 sdcStop
     /tmp/ccABRZiX.s:858    .text.sdcGetAndClearErrors:0000000000000000 $t
     /tmp/ccABRZiX.s:864    .text.sdcGetAndClearErrors:0000000000000000 sdcGetAndClearErrors
     /tmp/ccABRZiX.s:906    .text.sdcErase:0000000000000000 $t
     /tmp/ccABRZiX.s:912    .text.sdcErase:0000000000000000 sdcErase
     /tmp/ccABRZiX.s:1024   .rodata.sdc_vmt:0000000000000000 $d
     /tmp/ccABRZiX.s:1028   .rodata.sdc_vmt:0000000000000000 sdc_vmt
                     .debug_frame:0000000000000010 $d

UNDEFINED SYMBOLS
sdc_lld_sync
sdc_lld_start_clk
sdc_lld_send_cmd_none
sdc_lld_send_cmd_short_crc
sdc_lld_stop_clk
sdc_lld_send_cmd_short
chThdSleep
sdc_lld_send_cmd_long_crc
sdc_lld_set_data_clk
sdc_lld_set_bus_mode
mmcsdGetCapacity
sdc_lld_write
sdc_lld_read
sdc_lld_init
sdc_lld_start
sdc_lld_stop
sdc_lld_is_card_inserted
sdc_lld_is_write_protected
