ARM GAS  /tmp/ccABRZiX.s 			page 1


   1              		.syntax unified
   2              		.cpu cortex-m4
   3              		.eabi_attribute 27, 3
   4              		.eabi_attribute 28, 1
   5              		.fpu fpv4-sp-d16
   6              		.eabi_attribute 20, 1
   7              		.eabi_attribute 21, 1
   8              		.eabi_attribute 23, 3
   9              		.eabi_attribute 24, 1
  10              		.eabi_attribute 25, 1
  11              		.eabi_attribute 26, 1
  12              		.eabi_attribute 30, 2
  13              		.eabi_attribute 34, 1
  14              		.eabi_attribute 18, 4
  15              		.thumb
  16              		.file	"sdc.c"
  17              		.text
  18              	.Ltext0:
  19              		.cfi_sections	.debug_frame
  20              		.section	.text.sdcGetInfo,"ax",%progbits
  21              		.align	2
  22              		.p2align 4,,15
  23              		.global	sdcGetInfo
  24              		.thumb
  25              		.thumb_func
  26              		.type	sdcGetInfo, %function
  27              	sdcGetInfo:
  28              	.LFB129:
  29              		.file 1 "../../os/hal/src/sdc.c"
  30              		.loc 1 492 0
  31              		.cfi_startproc
  32              		@ args = 0, pretend = 0, frame = 0
  33              		@ frame_needed = 0, uses_anonymous_args = 0
  34              		@ link register save eliminated.
  35              	.LVL0:
  36              		.loc 1 496 0
  37 0000 0379     		ldrb	r3, [r0, #4]	@ zero_extendqisi2
  38 0002 052B     		cmp	r3, #5
  39 0004 01D0     		beq	.L5
  40              		.loc 1 497 0
  41 0006 0120     		movs	r0, #1
  42              	.LVL1:
  43              		.loc 1 503 0
  44 0008 7047     		bx	lr
  45              	.LVL2:
  46              	.L5:
  47              		.loc 1 499 0
  48 000a 836A     		ldr	r3, [r0, #40]
  49 000c 4B60     		str	r3, [r1, #4]
  50              		.loc 1 500 0
  51 000e 4FF40073 		mov	r3, #512
  52 0012 0B60     		str	r3, [r1, #0]
  53              		.loc 1 502 0
  54 0014 0020     		movs	r0, #0
  55              	.LVL3:
  56 0016 7047     		bx	lr
  57              		.cfi_endproc
ARM GAS  /tmp/ccABRZiX.s 			page 2


  58              	.LFE129:
  59              		.size	sdcGetInfo, .-sdcGetInfo
  60 0018 AFF30080 		.section	.text.sdcSync,"ax",%progbits
  60      AFF30080 
  61              		.align	2
  62              		.p2align 4,,15
  63              		.global	sdcSync
  64              		.thumb
  65              		.thumb_func
  66              		.type	sdcSync, %function
  67              	sdcSync:
  68              	.LFB128:
  69              		.loc 1 470 0
  70              		.cfi_startproc
  71              		@ args = 0, pretend = 0, frame = 0
  72              		@ frame_needed = 0, uses_anonymous_args = 0
  73              		@ link register save eliminated.
  74              	.LVL4:
  75              		.loc 1 474 0
  76 0000 0379     		ldrb	r3, [r0, #4]	@ zero_extendqisi2
  77 0002 052B     		cmp	r3, #5
  78 0004 01D0     		beq	.L8
  79              		.loc 1 478 0
  80 0006 0120     		movs	r0, #1
  81              	.LVL5:
  82 0008 7047     		bx	lr
  83              	.LVL6:
  84              	.L8:
  85              		.loc 1 477 0
  86 000a FFF7FEBF 		b	sdc_lld_sync
  87              	.LVL7:
  88              		.cfi_endproc
  89              	.LFE128:
  90              		.size	sdcSync, .-sdcSync
  91 000e 00BF     		.section	.text.sdcConnect,"ax",%progbits
  92              		.align	2
  93              		.p2align 4,,15
  94              		.global	sdcConnect
  95              		.thumb
  96              		.thumb_func
  97              		.type	sdcConnect, %function
  98              	sdcConnect:
  99              	.LFB123:
 100              		.loc 1 191 0
 101              		.cfi_startproc
 102              		@ args = 0, pretend = 0, frame = 8
 103              		@ frame_needed = 0, uses_anonymous_args = 0
 104              	.LVL8:
 105 0000 2DE9F041 		push	{r4, r5, r6, r7, r8, lr}
 106              	.LCFI0:
 107              		.cfi_def_cfa_offset 24
 108              		.cfi_offset 4, -24
 109              		.cfi_offset 5, -20
 110              		.cfi_offset 6, -16
 111              		.cfi_offset 7, -12
 112              		.cfi_offset 8, -8
 113              		.cfi_offset 14, -4
ARM GAS  /tmp/ccABRZiX.s 			page 3


 114              		.loc 1 199 0
 115 0004 0323     		movs	r3, #3
 116              		.loc 1 191 0
 117 0006 82B0     		sub	sp, sp, #8
 118              	.LCFI1:
 119              		.cfi_def_cfa_offset 32
 120              		.loc 1 199 0
 121 0008 0371     		strb	r3, [r0, #4]
 122              		.loc 1 191 0
 123 000a 0546     		mov	r5, r0
 124              		.loc 1 202 0
 125 000c FFF7FEFF 		bl	sdc_lld_start_clk
 126              	.LVL9:
 127              		.loc 1 205 0
 128 0010 0021     		movs	r1, #0
 129 0012 0A46     		mov	r2, r1
 130 0014 2846     		mov	r0, r5
 131 0016 FFF7FEFF 		bl	sdc_lld_send_cmd_none
 132              	.LVL10:
 133              		.loc 1 208 0
 134 001a 4FF4D572 		mov	r2, #426
 135 001e 2846     		mov	r0, r5
 136 0020 0821     		movs	r1, #8
 137 0022 01AB     		add	r3, sp, #4
 138 0024 FFF7FEFF 		bl	sdc_lld_send_cmd_short_crc
 139              	.LVL11:
 140 0028 0246     		mov	r2, r0
 141 002a 78B9     		cbnz	r0, .L10
 142              		.loc 1 212 0
 143 002c 019B     		ldr	r3, [sp, #4]
 144              		.loc 1 210 0
 145 002e 0121     		movs	r1, #1
 146              		.loc 1 212 0
 147 0030 C3F30323 		ubfx	r3, r3, #8, #4
 148 0034 8B42     		cmp	r3, r1
 149              		.loc 1 210 0
 150 0036 2963     		str	r1, [r5, #48]
 151              		.loc 1 212 0
 152 0038 31D0     		beq	.L32
 153              	.L11:
 154              	.LDL1:
 155              		.loc 1 318 0
 156 003a 2846     		mov	r0, r5
 157 003c FFF7FEFF 		bl	sdc_lld_stop_clk
 158              	.LVL12:
 159              		.loc 1 319 0
 160 0040 0223     		movs	r3, #2
 161 0042 2B71     		strb	r3, [r5, #4]
 162              		.loc 1 320 0
 163 0044 0120     		movs	r0, #1
 164              	.L20:
 165              		.loc 1 321 0
 166 0046 02B0     		add	sp, sp, #8
 167 0048 BDE8F081 		pop	{r4, r5, r6, r7, r8, pc}
 168              	.L10:
 169              		.loc 1 226 0
 170 004c 0023     		movs	r3, #0
ARM GAS  /tmp/ccABRZiX.s 			page 4


 171 004e 2B63     		str	r3, [r5, #48]
 172              	.L13:
 173              	.LVL13:
 174              	.LBB5:
 175              		.loc 1 244 0
 176 0050 4FF00008 		mov	r8, #0
 177 0054 C8F21008 		movt	r8, 32784
 178              	.LVL14:
 179              	.L14:
 180 0058 6426     		movs	r6, #100
 181 005a 10E0     		b	.L17
 182              	.LVL15:
 183              	.L34:
 184              		.loc 1 250 0 discriminator 1
 185 005c 019F     		ldr	r7, [sp, #4]
 186 005e 3C40     		ands	r4, r4, r7
 187              		.loc 1 252 0 discriminator 1
 188 0060 2846     		mov	r0, r5
 189              		.loc 1 249 0 discriminator 1
 190 0062 002C     		cmp	r4, #0
 191 0064 E9D1     		bne	.L11
 192              	.LVL16:
 193              		.loc 1 252 0
 194 0066 FFF7FEFF 		bl	sdc_lld_send_cmd_short
 195              	.LVL17:
 196 006a 0028     		cmp	r0, #0
 197 006c E5D1     		bne	.L11
 198              		.loc 1 254 0
 199 006e 019B     		ldr	r3, [sp, #4]
 200 0070 002B     		cmp	r3, #0
 201 0072 2EDB     		blt	.L33
 202              		.loc 1 259 0
 203 0074 013E     		subs	r6, r6, #1
 204 0076 E0D0     		beq	.L11
 205              		.loc 1 261 0
 206 0078 0A20     		movs	r0, #10
 207 007a FFF7FEFF 		bl	chThdSleep
 208              	.LVL18:
 209              	.L17:
 210              		.loc 1 249 0
 211 007e 01AB     		add	r3, sp, #4
 212 0080 3721     		movs	r1, #55
 213 0082 0022     		movs	r2, #0
 214 0084 2846     		mov	r0, r5
 215 0086 FFF7FEFF 		bl	sdc_lld_send_cmd_short_crc
 216              	.LVL19:
 217              		.loc 1 250 0
 218 008a 4EF20804 		movw	r4, #57352
 219              		.loc 1 252 0
 220 008e 2921     		movs	r1, #41
 221 0090 4246     		mov	r2, r8
 222 0092 01AB     		add	r3, sp, #4
 223              		.loc 1 250 0
 224 0094 CFF6FF54 		movt	r4, 65023
 225              		.loc 1 249 0
 226 0098 0028     		cmp	r0, #0
 227 009a DFD0     		beq	.L34
ARM GAS  /tmp/ccABRZiX.s 			page 5


 228              	.LVL20:
 229 009c CDE7     		b	.L11
 230              	.LVL21:
 231              	.L32:
 232              	.LBE5:
 233              		.loc 1 214 0
 234 009e 2846     		mov	r0, r5
 235 00a0 3721     		movs	r1, #55
 236 00a2 01AB     		add	r3, sp, #4
 237 00a4 FFF7FEFF 		bl	sdc_lld_send_cmd_short_crc
 238              	.LVL22:
 239 00a8 0028     		cmp	r0, #0
 240 00aa C6D1     		bne	.L11
 241              		.loc 1 215 0 discriminator 1
 242 00ac 4EF20803 		movw	r3, #57352
 243 00b0 019A     		ldr	r2, [sp, #4]
 244 00b2 CFF6FF53 		movt	r3, 65023
 245 00b6 1340     		ands	r3, r3, r2
 246              		.loc 1 214 0 discriminator 1
 247 00b8 002B     		cmp	r3, #0
 248 00ba BED1     		bne	.L11
 249              	.LBB6:
 250              		.loc 1 241 0
 251 00bc 2B6B     		ldr	r3, [r5, #48]
 252 00be 03F00F03 		and	r3, r3, #15
 253 00c2 012B     		cmp	r3, #1
 254              		.loc 1 242 0
 255 00c4 04BF     		itt	eq
 256 00c6 4FF00008 		moveq	r8, #0
 257 00ca CCF21008 		movteq	r8, 49168
 258              		.loc 1 241 0
 259 00ce C3D0     		beq	.L14
 260 00d0 BEE7     		b	.L13
 261              	.LVL23:
 262              	.L33:
 263              		.loc 1 255 0
 264 00d2 5B00     		lsls	r3, r3, #1
 265 00d4 03D5     		bpl	.L16
 266              		.loc 1 256 0
 267 00d6 2B6B     		ldr	r3, [r5, #48]
 268 00d8 43F01003 		orr	r3, r3, #16
 269 00dc 2B63     		str	r3, [r5, #48]
 270              	.L16:
 271              	.LBE6:
 272              		.loc 1 266 0
 273 00de 0022     		movs	r2, #0
 274 00e0 2846     		mov	r0, r5
 275 00e2 0221     		movs	r1, #2
 276 00e4 05F10803 		add	r3, r5, #8
 277 00e8 FFF7FEFF 		bl	sdc_lld_send_cmd_long_crc
 278              	.LVL24:
 279 00ec 0246     		mov	r2, r0
 280 00ee 0028     		cmp	r0, #0
 281 00f0 A3D1     		bne	.L11
 282              		.loc 1 270 0
 283 00f2 2846     		mov	r0, r5
 284 00f4 0321     		movs	r1, #3
ARM GAS  /tmp/ccABRZiX.s 			page 6


 285 00f6 05F13803 		add	r3, r5, #56
 286 00fa FFF7FEFF 		bl	sdc_lld_send_cmd_short_crc
 287              	.LVL25:
 288 00fe 0028     		cmp	r0, #0
 289 0100 9BD1     		bne	.L11
 290              		.loc 1 276 0
 291 0102 05F11804 		add	r4, r5, #24
 292              		.loc 1 275 0
 293 0106 2846     		mov	r0, r5
 294 0108 0921     		movs	r1, #9
 295 010a AA6B     		ldr	r2, [r5, #56]
 296 010c 2346     		mov	r3, r4
 297 010e FFF7FEFF 		bl	sdc_lld_send_cmd_long_crc
 298              	.LVL26:
 299 0112 0028     		cmp	r0, #0
 300 0114 91D1     		bne	.L11
 301              		.loc 1 280 0
 302 0116 2846     		mov	r0, r5
 303 0118 FFF7FEFF 		bl	sdc_lld_set_data_clk
 304              	.LVL27:
 305              		.loc 1 283 0
 306 011c 2846     		mov	r0, r5
 307 011e 0721     		movs	r1, #7
 308 0120 AA6B     		ldr	r2, [r5, #56]
 309 0122 01AB     		add	r3, sp, #4
 310 0124 FFF7FEFF 		bl	sdc_lld_send_cmd_short_crc
 311              	.LVL28:
 312 0128 0028     		cmp	r0, #0
 313 012a 86D1     		bne	.L11
 314              		.loc 1 288 0
 315 012c 2846     		mov	r0, r5
 316 012e 1021     		movs	r1, #16
 317 0130 4FF40072 		mov	r2, #512
 318 0134 01AB     		add	r3, sp, #4
 319 0136 FFF7FEFF 		bl	sdc_lld_send_cmd_short_crc
 320              	.LVL29:
 321 013a 0028     		cmp	r0, #0
 322 013c 7FF47DAF 		bne	.L11
 323              		.loc 1 290 0
 324 0140 4EF20802 		movw	r2, #57352
 325 0144 019B     		ldr	r3, [sp, #4]
 326 0146 CFF6FF52 		movt	r2, 65023
 327 014a 1A40     		ands	r2, r2, r3
 328              		.loc 1 289 0
 329 014c 002A     		cmp	r2, #0
 330 014e 7FF474AF 		bne	.L11
 331              		.loc 1 294 0
 332 0152 2B6B     		ldr	r3, [r5, #48]
 333 0154 03F00F03 		and	r3, r3, #15
 334 0158 012B     		cmp	r3, #1
 335 015a 27D8     		bhi	.L18
 336              		.loc 1 297 0
 337 015c 0121     		movs	r1, #1
 338 015e 2846     		mov	r0, r5
 339 0160 FFF7FEFF 		bl	sdc_lld_set_bus_mode
 340              	.LVL30:
 341              		.loc 1 298 0
ARM GAS  /tmp/ccABRZiX.s 			page 7


 342 0164 2846     		mov	r0, r5
 343 0166 3721     		movs	r1, #55
 344 0168 AA6B     		ldr	r2, [r5, #56]
 345 016a 01AB     		add	r3, sp, #4
 346 016c FFF7FEFF 		bl	sdc_lld_send_cmd_short_crc
 347              	.LVL31:
 348 0170 0028     		cmp	r0, #0
 349 0172 7FF462AF 		bne	.L11
 350              		.loc 1 299 0 discriminator 1
 351 0176 4EF20802 		movw	r2, #57352
 352 017a 019B     		ldr	r3, [sp, #4]
 353 017c CFF6FF52 		movt	r2, 65023
 354 0180 1A40     		ands	r2, r2, r3
 355              		.loc 1 298 0 discriminator 1
 356 0182 002A     		cmp	r2, #0
 357 0184 7FF459AF 		bne	.L11
 358              		.loc 1 301 0
 359 0188 2846     		mov	r0, r5
 360 018a 0621     		movs	r1, #6
 361 018c 0222     		movs	r2, #2
 362 018e 01AB     		add	r3, sp, #4
 363 0190 FFF7FEFF 		bl	sdc_lld_send_cmd_short_crc
 364              	.LVL32:
 365 0194 0028     		cmp	r0, #0
 366 0196 7FF450AF 		bne	.L11
 367              		.loc 1 302 0 discriminator 1
 368 019a 4EF20802 		movw	r2, #57352
 369 019e 019B     		ldr	r3, [sp, #4]
 370 01a0 CFF6FF52 		movt	r2, 65023
 371 01a4 1A40     		ands	r2, r2, r3
 372              		.loc 1 301 0 discriminator 1
 373 01a6 002A     		cmp	r2, #0
 374 01a8 7FF447AF 		bne	.L11
 375              	.L18:
 376              		.loc 1 308 0
 377 01ac 2046     		mov	r0, r4
 378 01ae FFF7FEFF 		bl	mmcsdGetCapacity
 379              	.LVL33:
 380 01b2 A862     		str	r0, [r5, #40]
 381              		.loc 1 309 0
 382 01b4 0028     		cmp	r0, #0
 383 01b6 3FF440AF 		beq	.L11
 384              		.loc 1 313 0
 385 01ba 0523     		movs	r3, #5
 386 01bc 2B71     		strb	r3, [r5, #4]
 387              		.loc 1 314 0
 388 01be 0020     		movs	r0, #0
 389 01c0 41E7     		b	.L20
 390              		.cfi_endproc
 391              	.LFE123:
 392              		.size	sdcConnect, .-sdcConnect
 393 01c2 00BFAFF3 		.section	.text.sdcWrite,"ax",%progbits
 393      0080AFF3 
 393      0080AFF3 
 393      0080
 394              		.align	2
 395              		.p2align 4,,15
ARM GAS  /tmp/ccABRZiX.s 			page 8


 396              		.global	sdcWrite
 397              		.thumb
 398              		.thumb_func
 399              		.type	sdcWrite, %function
 400              	sdcWrite:
 401              	.LFB126:
 402              		.loc 1 416 0
 403              		.cfi_startproc
 404              		@ args = 0, pretend = 0, frame = 0
 405              		@ frame_needed = 0, uses_anonymous_args = 0
 406              	.LVL34:
 407 0000 70B5     		push	{r4, r5, r6, lr}
 408              	.LCFI2:
 409              		.cfi_def_cfa_offset 16
 410              		.cfi_offset 4, -16
 411              		.cfi_offset 5, -12
 412              		.cfi_offset 6, -8
 413              		.cfi_offset 14, -4
 414              		.loc 1 422 0
 415 0002 4E1E     		subs	r6, r1, #1
 416 0004 856A     		ldr	r5, [r0, #40]
 417 0006 F618     		adds	r6, r6, r3
 418 0008 AE42     		cmp	r6, r5
 419              		.loc 1 416 0
 420 000a 0446     		mov	r4, r0
 421              		.loc 1 422 0
 422 000c 05D9     		bls	.L36
 423              		.loc 1 423 0
 424 000e 436B     		ldr	r3, [r0, #52]
 425              	.LVL35:
 426 0010 43F08003 		orr	r3, r3, #128
 427 0014 4363     		str	r3, [r0, #52]
 428              		.loc 1 424 0
 429 0016 0120     		movs	r0, #1
 430              	.LVL36:
 431 0018 70BD     		pop	{r4, r5, r6, pc}
 432              	.LVL37:
 433              	.L36:
 434              	.LBB9:
 435              	.LBB10:
 436              		.loc 1 428 0
 437 001a 0725     		movs	r5, #7
 438 001c 0571     		strb	r5, [r0, #4]
 439              		.loc 1 430 0
 440 001e FFF7FEFF 		bl	sdc_lld_write
 441              	.LVL38:
 442              		.loc 1 433 0
 443 0022 0523     		movs	r3, #5
 444 0024 2371     		strb	r3, [r4, #4]
 445              	.LBE10:
 446              	.LBE9:
 447              		.loc 1 435 0
 448 0026 70BD     		pop	{r4, r5, r6, pc}
 449              		.cfi_endproc
 450              	.LFE126:
 451              		.size	sdcWrite, .-sdcWrite
 452 0028 AFF30080 		.section	.text.sdcRead,"ax",%progbits
ARM GAS  /tmp/ccABRZiX.s 			page 9


 452      AFF30080 
 453              		.align	2
 454              		.p2align 4,,15
 455              		.global	sdcRead
 456              		.thumb
 457              		.thumb_func
 458              		.type	sdcRead, %function
 459              	sdcRead:
 460              	.LFB125:
 461              		.loc 1 378 0
 462              		.cfi_startproc
 463              		@ args = 0, pretend = 0, frame = 0
 464              		@ frame_needed = 0, uses_anonymous_args = 0
 465              	.LVL39:
 466 0000 70B5     		push	{r4, r5, r6, lr}
 467              	.LCFI3:
 468              		.cfi_def_cfa_offset 16
 469              		.cfi_offset 4, -16
 470              		.cfi_offset 5, -12
 471              		.cfi_offset 6, -8
 472              		.cfi_offset 14, -4
 473              		.loc 1 384 0
 474 0002 4E1E     		subs	r6, r1, #1
 475 0004 856A     		ldr	r5, [r0, #40]
 476 0006 F618     		adds	r6, r6, r3
 477 0008 AE42     		cmp	r6, r5
 478              		.loc 1 378 0
 479 000a 0446     		mov	r4, r0
 480              		.loc 1 384 0
 481 000c 05D9     		bls	.L39
 482              		.loc 1 385 0
 483 000e 436B     		ldr	r3, [r0, #52]
 484              	.LVL40:
 485 0010 43F08003 		orr	r3, r3, #128
 486 0014 4363     		str	r3, [r0, #52]
 487              		.loc 1 386 0
 488 0016 0120     		movs	r0, #1
 489              	.LVL41:
 490 0018 70BD     		pop	{r4, r5, r6, pc}
 491              	.LVL42:
 492              	.L39:
 493              	.LBB13:
 494              	.LBB14:
 495              		.loc 1 390 0
 496 001a 0625     		movs	r5, #6
 497 001c 0571     		strb	r5, [r0, #4]
 498              		.loc 1 392 0
 499 001e FFF7FEFF 		bl	sdc_lld_read
 500              	.LVL43:
 501              		.loc 1 395 0
 502 0022 0523     		movs	r3, #5
 503 0024 2371     		strb	r3, [r4, #4]
 504              	.LBE14:
 505              	.LBE13:
 506              		.loc 1 397 0
 507 0026 70BD     		pop	{r4, r5, r6, pc}
 508              		.cfi_endproc
ARM GAS  /tmp/ccABRZiX.s 			page 10


 509              	.LFE125:
 510              		.size	sdcRead, .-sdcRead
 511 0028 AFF30080 		.section	.text._sdc_wait_for_transfer_state,"ax",%progbits
 511      AFF30080 
 512              		.align	2
 513              		.p2align 4,,15
 514              		.global	_sdc_wait_for_transfer_state
 515              		.thumb
 516              		.thumb_func
 517              		.type	_sdc_wait_for_transfer_state, %function
 518              	_sdc_wait_for_transfer_state:
 519              	.LFB118:
 520              		.loc 1 75 0
 521              		.cfi_startproc
 522              		@ args = 0, pretend = 0, frame = 8
 523              		@ frame_needed = 0, uses_anonymous_args = 0
 524              	.LVL44:
 525 0000 10B5     		push	{r4, lr}
 526              	.LCFI4:
 527              		.cfi_def_cfa_offset 8
 528              		.cfi_offset 4, -8
 529              		.cfi_offset 14, -4
 530 0002 0446     		mov	r4, r0
 531 0004 82B0     		sub	sp, sp, #8
 532              	.LCFI5:
 533              		.cfi_def_cfa_offset 16
 534              	.LVL45:
 535              	.L45:
 536              		.loc 1 79 0
 537 0006 01AB     		add	r3, sp, #4
 538 0008 2046     		mov	r0, r4
 539 000a 0D21     		movs	r1, #13
 540 000c A26B     		ldr	r2, [r4, #56]
 541 000e FFF7FEFF 		bl	sdc_lld_send_cmd_short_crc
 542              	.LVL46:
 543              		.loc 1 81 0
 544 0012 4EF20803 		movw	r3, #57352
 545 0016 CFF6FF53 		movt	r3, 65023
 546              		.loc 1 79 0
 547 001a 38B9     		cbnz	r0, .L48
 548              		.loc 1 81 0
 549 001c 019A     		ldr	r2, [sp, #4]
 550 001e 1340     		ands	r3, r3, r2
 551              		.loc 1 83 0
 552 0020 C2F34321 		ubfx	r1, r2, #9, #4
 553              		.loc 1 80 0
 554 0024 13B9     		cbnz	r3, .L48
 555              		.loc 1 83 0
 556 0026 0429     		cmp	r1, #4
 557 0028 09D0     		beq	.L43
 558 002a 02D2     		bcs	.L50
 559              	.L48:
 560              		.loc 1 96 0
 561 002c 0120     		movs	r0, #1
 562              	.L42:
 563              		.loc 1 101 0
 564 002e 02B0     		add	sp, sp, #8
ARM GAS  /tmp/ccABRZiX.s 			page 11


 565 0030 10BD     		pop	{r4, pc}
 566              	.L50:
 567              		.loc 1 83 0
 568 0032 0729     		cmp	r1, #7
 569 0034 FAD8     		bhi	.L48
 570              		.loc 1 90 0
 571 0036 0120     		movs	r0, #1
 572 0038 FFF7FEFF 		bl	chThdSleep
 573              	.LVL47:
 574              		.loc 1 98 0
 575 003c E3E7     		b	.L45
 576              	.L43:
 577              		.loc 1 85 0
 578 003e 1846     		mov	r0, r3
 579 0040 F5E7     		b	.L42
 580              		.cfi_endproc
 581              	.LFE118:
 582              		.size	_sdc_wait_for_transfer_state, .-_sdc_wait_for_transfer_state
 583 0042 00BFAFF3 		.section	.text.sdcDisconnect,"ax",%progbits
 583      0080AFF3 
 583      0080AFF3 
 583      0080
 584              		.align	2
 585              		.p2align 4,,15
 586              		.global	sdcDisconnect
 587              		.thumb
 588              		.thumb_func
 589              		.type	sdcDisconnect, %function
 590              	sdcDisconnect:
 591              	.LFB124:
 592              		.loc 1 334 0
 593              		.cfi_startproc
 594              		@ args = 0, pretend = 0, frame = 0
 595              		@ frame_needed = 0, uses_anonymous_args = 0
 596              	.LVL48:
 597 0000 38B5     		push	{r3, r4, r5, lr}
 598              	.LCFI6:
 599              		.cfi_def_cfa_offset 16
 600              		.cfi_offset 3, -16
 601              		.cfi_offset 4, -12
 602              		.cfi_offset 5, -8
 603              		.cfi_offset 14, -4
 604              		.loc 1 334 0
 605 0002 0446     		mov	r4, r0
 606              	.LBB22:
 607              		.loc 1 338 0
 608 0004 2023     		movs	r3, #32
 609              	.LVL49:
 610              	@ 338 "../../os/hal/src/sdc.c" 1
 611 0006 83F31188 		msr     BASEPRI, r3
 612              	@ 0 "" 2
 613              	.LVL50:
 614              		.thumb
 615              	.LBE22:
 616              		.loc 1 341 0
 617 000a 0379     		ldrb	r3, [r0, #4]	@ zero_extendqisi2
 618              	.LVL51:
ARM GAS  /tmp/ccABRZiX.s 			page 12


 619 000c 022B     		cmp	r3, #2
 620 000e 15D0     		beq	.L56
 621              	.LVL52:
 622              	.LBB23:
 623              	.LBB24:
 624              		.loc 1 345 0
 625 0010 0423     		movs	r3, #4
 626 0012 0371     		strb	r3, [r0, #4]
 627              	.LBB25:
 628              		.loc 1 346 0
 629 0014 0023     		movs	r3, #0
 630              	.LVL53:
 631              	@ 346 "../../os/hal/src/sdc.c" 1
 632 0016 83F31188 		msr     BASEPRI, r3
 633              	@ 0 "" 2
 634              	.LVL54:
 635              		.thumb
 636              	.LBE25:
 637              		.loc 1 349 0
 638 001a FFF7FEFF 		bl	_sdc_wait_for_transfer_state
 639              	.LVL55:
 640 001e 0546     		mov	r5, r0
 641              		.loc 1 350 0
 642 0020 2046     		mov	r0, r4
 643              		.loc 1 349 0
 644 0022 2DB9     		cbnz	r5, .L57
 645              		.loc 1 356 0
 646 0024 FFF7FEFF 		bl	sdc_lld_stop_clk
 647              	.LVL56:
 648              		.loc 1 357 0
 649 0028 0223     		movs	r3, #2
 650 002a 2371     		strb	r3, [r4, #4]
 651              		.loc 1 358 0
 652 002c 2846     		mov	r0, r5
 653              	.LBE24:
 654              	.LBE23:
 655              		.loc 1 359 0
 656 002e 38BD     		pop	{r3, r4, r5, pc}
 657              	.LVL57:
 658              	.L57:
 659              	.LBB27:
 660              	.LBB26:
 661              		.loc 1 350 0
 662 0030 FFF7FEFF 		bl	sdc_lld_stop_clk
 663              	.LVL58:
 664              		.loc 1 351 0
 665 0034 0223     		movs	r3, #2
 666 0036 2371     		strb	r3, [r4, #4]
 667              		.loc 1 352 0
 668 0038 0120     		movs	r0, #1
 669 003a 38BD     		pop	{r3, r4, r5, pc}
 670              	.LVL59:
 671              	.L56:
 672              	.LBE26:
 673              	.LBE27:
 674              	.LBB28:
 675              		.loc 1 342 0
ARM GAS  /tmp/ccABRZiX.s 			page 13


 676 003c 0023     		movs	r3, #0
 677              	.LVL60:
 678              	@ 342 "../../os/hal/src/sdc.c" 1
 679 003e 83F31188 		msr     BASEPRI, r3
 680              	@ 0 "" 2
 681              	.LVL61:
 682              		.thumb
 683              	.LBE28:
 684              		.loc 1 343 0
 685 0042 1846     		mov	r0, r3
 686              	.LVL62:
 687 0044 38BD     		pop	{r3, r4, r5, pc}
 688              		.cfi_endproc
 689              	.LFE124:
 690              		.size	sdcDisconnect, .-sdcDisconnect
 691 0046 00BFAFF3 		.section	.text.sdcInit,"ax",%progbits
 691      0080AFF3 
 691      0080
 692              		.align	2
 693              		.p2align 4,,15
 694              		.global	sdcInit
 695              		.thumb
 696              		.thumb_func
 697              		.type	sdcInit, %function
 698              	sdcInit:
 699              	.LFB119:
 700              		.loc 1 114 0
 701              		.cfi_startproc
 702              		@ args = 0, pretend = 0, frame = 0
 703              		@ frame_needed = 0, uses_anonymous_args = 0
 704              		@ link register save eliminated.
 705              		.loc 1 117 0
 706              		.loc 1 116 0
 707 0000 FFF7FEBF 		b	sdc_lld_init
 708              	.LVL63:
 709              		.cfi_endproc
 710              	.LFE119:
 711              		.size	sdcInit, .-sdcInit
 712 0004 AFF30080 		.section	.text.sdcObjectInit,"ax",%progbits
 712      AFF30080 
 712      AFF30080 
 713              		.align	2
 714              		.p2align 4,,15
 715              		.global	sdcObjectInit
 716              		.thumb
 717              		.thumb_func
 718              		.type	sdcObjectInit, %function
 719              	sdcObjectInit:
 720              	.LFB120:
 721              		.loc 1 126 0
 722              		.cfi_startproc
 723              		@ args = 0, pretend = 0, frame = 0
 724              		@ frame_needed = 0, uses_anonymous_args = 0
 725              		@ link register save eliminated.
 726              	.LVL64:
 727              		.loc 1 128 0
 728 0000 40F20002 		movw	r2, #:lower16:.LANCHOR0
ARM GAS  /tmp/ccABRZiX.s 			page 14


 729 0004 C0F20002 		movt	r2, #:upper16:.LANCHOR0
 730              		.loc 1 130 0
 731 0008 0023     		movs	r3, #0
 732              		.loc 1 128 0
 733 000a 0260     		str	r2, [r0, #0]
 734              		.loc 1 129 0
 735 000c 0122     		movs	r2, #1
 736 000e 0271     		strb	r2, [r0, #4]
 737              		.loc 1 130 0
 738 0010 4363     		str	r3, [r0, #52]
 739              		.loc 1 131 0
 740 0012 C362     		str	r3, [r0, #44]
 741              		.loc 1 132 0
 742 0014 8362     		str	r3, [r0, #40]
 743 0016 7047     		bx	lr
 744              		.cfi_endproc
 745              	.LFE120:
 746              		.size	sdcObjectInit, .-sdcObjectInit
 747 0018 AFF30080 		.section	.text.sdcStart,"ax",%progbits
 747      AFF30080 
 748              		.align	2
 749              		.p2align 4,,15
 750              		.global	sdcStart
 751              		.thumb
 752              		.thumb_func
 753              		.type	sdcStart, %function
 754              	sdcStart:
 755              	.LFB121:
 756              		.loc 1 145 0
 757              		.cfi_startproc
 758              		@ args = 0, pretend = 0, frame = 0
 759              		@ frame_needed = 0, uses_anonymous_args = 0
 760              	.LVL65:
 761 0000 10B5     		push	{r4, lr}
 762              	.LCFI7:
 763              		.cfi_def_cfa_offset 8
 764              		.cfi_offset 4, -8
 765              		.cfi_offset 14, -4
 766              	.LBB29:
 767              		.loc 1 149 0
 768 0002 2023     		movs	r3, #32
 769              	.LVL66:
 770              	.LBE29:
 771              		.loc 1 145 0
 772 0004 0446     		mov	r4, r0
 773              	.LBB30:
 774              		.loc 1 149 0
 775              	@ 149 "../../os/hal/src/sdc.c" 1
 776 0006 83F31188 		msr     BASEPRI, r3
 777              	@ 0 "" 2
 778              	.LVL67:
 779              		.thumb
 780              	.LBE30:
 781              		.loc 1 152 0
 782 000a C162     		str	r1, [r0, #44]
 783              		.loc 1 153 0
 784 000c FFF7FEFF 		bl	sdc_lld_start
ARM GAS  /tmp/ccABRZiX.s 			page 15


 785              	.LVL68:
 786              		.loc 1 154 0
 787 0010 0223     		movs	r3, #2
 788 0012 2371     		strb	r3, [r4, #4]
 789              	.LBB31:
 790              		.loc 1 155 0
 791 0014 0023     		movs	r3, #0
 792              	.LVL69:
 793              	@ 155 "../../os/hal/src/sdc.c" 1
 794 0016 83F31188 		msr     BASEPRI, r3
 795              	@ 0 "" 2
 796              	.LVL70:
 797              		.thumb
 798 001a 10BD     		pop	{r4, pc}
 799              	.LBE31:
 800              		.cfi_endproc
 801              	.LFE121:
 802              		.size	sdcStart, .-sdcStart
 803 001c AFF30080 		.section	.text.sdcStop,"ax",%progbits
 804              		.align	2
 805              		.p2align 4,,15
 806              		.global	sdcStop
 807              		.thumb
 808              		.thumb_func
 809              		.type	sdcStop, %function
 810              	sdcStop:
 811              	.LFB122:
 812              		.loc 1 165 0
 813              		.cfi_startproc
 814              		@ args = 0, pretend = 0, frame = 0
 815              		@ frame_needed = 0, uses_anonymous_args = 0
 816              	.LVL71:
 817 0000 10B5     		push	{r4, lr}
 818              	.LCFI8:
 819              		.cfi_def_cfa_offset 8
 820              		.cfi_offset 4, -8
 821              		.cfi_offset 14, -4
 822              	.LBB32:
 823              		.loc 1 169 0
 824 0002 2023     		movs	r3, #32
 825              	.LVL72:
 826              	.LBE32:
 827              		.loc 1 165 0
 828 0004 0446     		mov	r4, r0
 829              	.LBB33:
 830              		.loc 1 169 0
 831              	@ 169 "../../os/hal/src/sdc.c" 1
 832 0006 83F31188 		msr     BASEPRI, r3
 833              	@ 0 "" 2
 834              	.LVL73:
 835              		.thumb
 836              	.LBE33:
 837              		.loc 1 172 0
 838 000a FFF7FEFF 		bl	sdc_lld_stop
 839              	.LVL74:
 840              		.loc 1 173 0
 841 000e 0123     		movs	r3, #1
ARM GAS  /tmp/ccABRZiX.s 			page 16


 842 0010 2371     		strb	r3, [r4, #4]
 843              	.LBB34:
 844              		.loc 1 174 0
 845 0012 0023     		movs	r3, #0
 846              	.LVL75:
 847              	@ 174 "../../os/hal/src/sdc.c" 1
 848 0014 83F31188 		msr     BASEPRI, r3
 849              	@ 0 "" 2
 850              	.LVL76:
 851              		.thumb
 852 0018 10BD     		pop	{r4, pc}
 853              	.LBE34:
 854              		.cfi_endproc
 855              	.LFE122:
 856              		.size	sdcStop, .-sdcStop
 857 001a 00BFAFF3 		.section	.text.sdcGetAndClearErrors,"ax",%progbits
 857      0080
 858              		.align	2
 859              		.p2align 4,,15
 860              		.global	sdcGetAndClearErrors
 861              		.thumb
 862              		.thumb_func
 863              		.type	sdcGetAndClearErrors, %function
 864              	sdcGetAndClearErrors:
 865              	.LFB127:
 866              		.loc 1 445 0
 867              		.cfi_startproc
 868              		@ args = 0, pretend = 0, frame = 0
 869              		@ frame_needed = 0, uses_anonymous_args = 0
 870              		@ link register save eliminated.
 871              	.LVL77:
 872              		.loc 1 445 0
 873 0000 0246     		mov	r2, r0
 874              	.LBB35:
 875              		.loc 1 452 0
 876 0002 2023     		movs	r3, #32
 877              	.LVL78:
 878              	@ 452 "../../os/hal/src/sdc.c" 1
 879 0004 83F31188 		msr     BASEPRI, r3
 880              	@ 0 "" 2
 881              	.LVL79:
 882              		.thumb
 883              	.LBE35:
 884              		.loc 1 454 0
 885 0008 0023     		movs	r3, #0
 886              	.LVL80:
 887              		.loc 1 453 0
 888 000a 406B     		ldr	r0, [r0, #52]
 889              	.LVL81:
 890              		.loc 1 454 0
 891 000c 5363     		str	r3, [r2, #52]
 892              	.LBB36:
 893              		.loc 1 455 0
 894              	@ 455 "../../os/hal/src/sdc.c" 1
 895 000e 83F31188 		msr     BASEPRI, r3
 896              	@ 0 "" 2
 897              	.LVL82:
ARM GAS  /tmp/ccABRZiX.s 			page 17


 898              		.thumb
 899              	.LBE36:
 900              		.loc 1 457 0
 901 0012 7047     		bx	lr
 902              		.cfi_endproc
 903              	.LFE127:
 904              		.size	sdcGetAndClearErrors, .-sdcGetAndClearErrors
 905 0014 AFF30080 		.section	.text.sdcErase,"ax",%progbits
 905      AFF30080 
 905      AFF30080 
 906              		.align	2
 907              		.p2align 4,,15
 908              		.global	sdcErase
 909              		.thumb
 910              		.thumb_func
 911              		.type	sdcErase, %function
 912              	sdcErase:
 913              	.LFB130:
 914              		.loc 1 519 0
 915              		.cfi_startproc
 916              		@ args = 0, pretend = 0, frame = 8
 917              		@ frame_needed = 0, uses_anonymous_args = 0
 918              	.LVL83:
 919 0000 70B5     		push	{r4, r5, r6, lr}
 920              	.LCFI9:
 921              		.cfi_def_cfa_offset 16
 922              		.cfi_offset 4, -16
 923              		.cfi_offset 5, -12
 924              		.cfi_offset 6, -8
 925              		.cfi_offset 14, -4
 926              		.loc 1 526 0
 927 0002 036B     		ldr	r3, [r0, #48]
 928              		.loc 1 519 0
 929 0004 1646     		mov	r6, r2
 930              		.loc 1 526 0
 931 0006 DA06     		lsls	r2, r3, #27
 932              	.LVL84:
 933              		.loc 1 519 0
 934 0008 82B0     		sub	sp, sp, #8
 935              	.LCFI10:
 936              		.cfi_def_cfa_offset 24
 937              		.loc 1 519 0
 938 000a 0446     		mov	r4, r0
 939 000c 0D46     		mov	r5, r1
 940              		.loc 1 526 0
 941 000e 01D4     		bmi	.L64
 942              		.loc 1 527 0
 943 0010 4D02     		lsls	r5, r1, #9
 944              	.LVL85:
 945              		.loc 1 528 0
 946 0012 7602     		lsls	r6, r6, #9
 947              	.LVL86:
 948              	.L64:
 949              		.loc 1 531 0
 950 0014 2046     		mov	r0, r4
 951              	.LVL87:
 952 0016 FFF7FEFF 		bl	_sdc_wait_for_transfer_state
ARM GAS  /tmp/ccABRZiX.s 			page 18


 953              	.LVL88:
 954              		.loc 1 533 0
 955 001a 2046     		mov	r0, r4
 956 001c 2021     		movs	r1, #32
 957 001e 2A46     		mov	r2, r5
 958 0020 01AB     		add	r3, sp, #4
 959 0022 FFF7FEFF 		bl	sdc_lld_send_cmd_short_crc
 960              	.LVL89:
 961 0026 30B9     		cbnz	r0, .L67
 962              		.loc 1 535 0
 963 0028 4EF20803 		movw	r3, #57352
 964 002c 019A     		ldr	r2, [sp, #4]
 965 002e CFF6FF53 		movt	r3, 65023
 966 0032 1340     		ands	r3, r3, r2
 967              		.loc 1 534 0
 968 0034 13B1     		cbz	r3, .L68
 969              	.LVL90:
 970              	.L67:
 971              		.loc 1 536 0
 972 0036 0120     		movs	r0, #1
 973              	.L66:
 974              		.loc 1 555 0
 975 0038 02B0     		add	sp, sp, #8
 976 003a 70BD     		pop	{r4, r5, r6, pc}
 977              	.LVL91:
 978              	.L68:
 979              		.loc 1 538 0
 980 003c 2046     		mov	r0, r4
 981 003e 2121     		movs	r1, #33
 982 0040 3246     		mov	r2, r6
 983 0042 01AB     		add	r3, sp, #4
 984 0044 FFF7FEFF 		bl	sdc_lld_send_cmd_short_crc
 985              	.LVL92:
 986 0048 0028     		cmp	r0, #0
 987 004a F4D1     		bne	.L67
 988              		.loc 1 540 0
 989 004c 4EF20802 		movw	r2, #57352
 990 0050 019B     		ldr	r3, [sp, #4]
 991 0052 CFF6FF52 		movt	r2, 65023
 992 0056 1A40     		ands	r2, r2, r3
 993              		.loc 1 539 0
 994 0058 002A     		cmp	r2, #0
 995 005a ECD1     		bne	.L67
 996              		.loc 1 543 0
 997 005c 2046     		mov	r0, r4
 998 005e 2621     		movs	r1, #38
 999 0060 01AB     		add	r3, sp, #4
 1000 0062 FFF7FEFF 		bl	sdc_lld_send_cmd_short_crc
 1001              	.LVL93:
 1002 0066 0028     		cmp	r0, #0
 1003 0068 E5D1     		bne	.L67
 1004              		.loc 1 545 0
 1005 006a 4EF20805 		movw	r5, #57352
 1006              	.LVL94:
 1007 006e 019B     		ldr	r3, [sp, #4]
 1008 0070 CFF6FF55 		movt	r5, 65023
 1009 0074 1D40     		ands	r5, r5, r3
ARM GAS  /tmp/ccABRZiX.s 			page 19


 1010              		.loc 1 544 0
 1011 0076 002D     		cmp	r5, #0
 1012 0078 DDD1     		bne	.L67
 1013              		.loc 1 552 0
 1014 007a 2046     		mov	r0, r4
 1015 007c FFF7FEFF 		bl	_sdc_wait_for_transfer_state
 1016              	.LVL95:
 1017              		.loc 1 554 0
 1018 0080 2846     		mov	r0, r5
 1019 0082 D9E7     		b	.L66
 1020              		.cfi_endproc
 1021              	.LFE130:
 1022              		.size	sdcErase, .-sdcErase
 1023 0084 AFF30080 		.section	.rodata.sdc_vmt,"a",%progbits
 1023      AFF30080 
 1023      AFF30080 
 1024              		.align	2
 1025              		.set	.LANCHOR0,. + 0
 1026              		.type	sdc_vmt, %object
 1027              		.size	sdc_vmt, 32
 1028              	sdc_vmt:
 1029 0000 00000000 		.word	sdc_lld_is_card_inserted
 1030 0004 00000000 		.word	sdc_lld_is_write_protected
 1031 0008 00000000 		.word	sdcConnect
 1032 000c 00000000 		.word	sdcDisconnect
 1033 0010 00000000 		.word	sdcRead
 1034 0014 00000000 		.word	sdcWrite
 1035 0018 00000000 		.word	sdcSync
 1036 001c 00000000 		.word	sdcGetInfo
 1037              		.text
 1038              	.Letext0:
 1039              		.file 2 "/opt/psas/x-tools/stm32f407/arm-psas-eabi/bin/../lib/gcc/arm-psas-eabi/4.7.2/../../../../
 1040              		.file 3 "../../os/ports/GCC/ARMCMx/chtypes.h"
 1041              		.file 4 "../../os/kernel/include/chlists.h"
 1042              		.file 5 "../../os/kernel/include/chthreads.h"
 1043              		.file 6 "../../os/ports/GCC/ARMCMx/chcore_v7m.h"
 1044              		.file 7 "../../os/kernel/include/chmtx.h"
 1045              		.file 8 "../../os/hal/platforms/STM32F4xx/stm32f4xx.h"
 1046              		.file 9 "../../os/hal/platforms/STM32F4xx/stm32_dma.h"
 1047              		.file 10 "../../os/hal/include/io_block.h"
 1048              		.file 11 "../../os/hal/platforms/STM32/sdc_lld.h"
 1049              		.file 12 "../../os/hal/include/mmcsd.h"
 1050              		.file 13 "../../os/ports/common/ARMCMx/CMSIS/include/core_cm4.h"