ARM GAS  /tmp/cc0rbmjy.s 			page 1


   1              		.syntax unified
   2              		.cpu cortex-m4
   3              		.eabi_attribute 27, 3
   4              		.eabi_attribute 28, 1
   5              		.fpu fpv4-sp-d16
   6              		.eabi_attribute 20, 1
   7              		.eabi_attribute 21, 1
   8              		.eabi_attribute 23, 3
   9              		.eabi_attribute 24, 1
  10              		.eabi_attribute 25, 1
  11              		.eabi_attribute 26, 1
  12              		.eabi_attribute 30, 2
  13              		.eabi_attribute 34, 1
  14              		.eabi_attribute 18, 4
  15              		.thumb
  16              		.file	"sdc_lld.c"
  17              		.text
  18              	.Ltext0:
  19              		.cfi_sections	.debug_frame
  20              		.section	.text.sdc_lld_collect_errors,"ax",%progbits
  21              		.align	2
  22              		.p2align 4,,15
  23              		.thumb
  24              		.thumb_func
  25              		.type	sdc_lld_collect_errors, %function
  26              	sdc_lld_collect_errors:
  27              	.LFB121:
  28              		.file 1 "../../os/hal/platforms/STM32/sdc_lld.c"
  29              		.loc 1 218 0
  30              		.cfi_startproc
  31              		@ args = 0, pretend = 0, frame = 0
  32              		@ frame_needed = 0, uses_anonymous_args = 0
  33              		@ link register save eliminated.
  34              	.LVL0:
  35              		.loc 1 221 0
  36 0000 4FF43052 		mov	r2, #11264
  37 0004 C4F20102 		movt	r2, 16385
  38 0008 536B     		ldr	r3, [r2, #52]
  39 000a 13F00103 		ands	r3, r3, #1
  40              		.loc 1 222 0
  41 000e 1EBF     		ittt	ne
  42 0010 936B     		ldrne	r3, [r2, #56]
  43 0012 43F00103 		orrne	r3, r3, #1
  44 0016 9363     		strne	r3, [r2, #56]
  45              	.LVL1:
  46              		.loc 1 225 0
  47 0018 4FF43052 		mov	r2, #11264
  48 001c C4F20102 		movt	r2, 16385
  49              		.loc 1 223 0
  50 0020 18BF     		it	ne
  51 0022 0123     		movne	r3, #1
  52              	.LVL2:
  53              		.loc 1 225 0
  54 0024 516B     		ldr	r1, [r2, #52]
  55 0026 8907     		lsls	r1, r1, #30
  56              		.loc 1 226 0
  57 0028 42BF     		ittt	mi
ARM GAS  /tmp/cc0rbmjy.s 			page 2


  58 002a 916B     		ldrmi	r1, [r2, #56]
  59 002c 41F00201 		orrmi	r1, r1, #2
  60 0030 9163     		strmi	r1, [r2, #56]
  61              		.loc 1 229 0
  62 0032 4FF43052 		mov	r2, #11264
  63 0036 C4F20102 		movt	r2, 16385
  64              		.loc 1 227 0
  65 003a 48BF     		it	mi
  66 003c 43F00203 		orrmi	r3, r3, #2
  67              	.LVL3:
  68              		.loc 1 229 0
  69 0040 516B     		ldr	r1, [r2, #52]
  70 0042 4907     		lsls	r1, r1, #29
  71              		.loc 1 230 0
  72 0044 42BF     		ittt	mi
  73 0046 916B     		ldrmi	r1, [r2, #56]
  74 0048 41F00401 		orrmi	r1, r1, #4
  75 004c 9163     		strmi	r1, [r2, #56]
  76              		.loc 1 233 0
  77 004e 4FF43052 		mov	r2, #11264
  78 0052 C4F20102 		movt	r2, 16385
  79              		.loc 1 231 0
  80 0056 48BF     		it	mi
  81 0058 43F00803 		orrmi	r3, r3, #8
  82              	.LVL4:
  83              		.loc 1 233 0
  84 005c 516B     		ldr	r1, [r2, #52]
  85 005e 0907     		lsls	r1, r1, #28
  86              		.loc 1 234 0
  87 0060 42BF     		ittt	mi
  88 0062 916B     		ldrmi	r1, [r2, #56]
  89 0064 41F00401 		orrmi	r1, r1, #4
  90 0068 9163     		strmi	r1, [r2, #56]
  91              		.loc 1 237 0
  92 006a 4FF43052 		mov	r2, #11264
  93 006e C4F20102 		movt	r2, 16385
  94              		.loc 1 235 0
  95 0072 48BF     		it	mi
  96 0074 43F00403 		orrmi	r3, r3, #4
  97              	.LVL5:
  98              		.loc 1 237 0
  99 0078 516B     		ldr	r1, [r2, #52]
 100 007a C906     		lsls	r1, r1, #27
 101              		.loc 1 238 0
 102 007c 42BF     		ittt	mi
 103 007e 916B     		ldrmi	r1, [r2, #56]
 104 0080 41F01001 		orrmi	r1, r1, #16
 105 0084 9163     		strmi	r1, [r2, #56]
 106              		.loc 1 241 0
 107 0086 4FF43052 		mov	r2, #11264
 108 008a C4F20102 		movt	r2, 16385
 109              		.loc 1 239 0
 110 008e 48BF     		it	mi
 111 0090 43F01003 		orrmi	r3, r3, #16
 112              	.LVL6:
 113              		.loc 1 241 0
 114 0094 516B     		ldr	r1, [r2, #52]
ARM GAS  /tmp/cc0rbmjy.s 			page 3


 115 0096 8906     		lsls	r1, r1, #26
 116              		.loc 1 242 0
 117 0098 42BF     		ittt	mi
 118 009a 916B     		ldrmi	r1, [r2, #56]
 119 009c 41F02001 		orrmi	r1, r1, #32
 120 00a0 9163     		strmi	r1, [r2, #56]
 121              		.loc 1 245 0
 122 00a2 4FF43052 		mov	r2, #11264
 123 00a6 C4F20102 		movt	r2, 16385
 124              		.loc 1 243 0
 125 00aa 48BF     		it	mi
 126 00ac 43F02003 		orrmi	r3, r3, #32
 127              	.LVL7:
 128              		.loc 1 245 0
 129 00b0 516B     		ldr	r1, [r2, #52]
 130 00b2 8905     		lsls	r1, r1, #22
 131              		.loc 1 246 0
 132 00b4 42BF     		ittt	mi
 133 00b6 916B     		ldrmi	r1, [r2, #56]
 134 00b8 41F40071 		orrmi	r1, r1, #512
 135 00bc 9163     		strmi	r1, [r2, #56]
 136              		.loc 1 250 0
 137 00be 426B     		ldr	r2, [r0, #52]
 138              		.loc 1 247 0
 139 00c0 48BF     		it	mi
 140 00c2 43F04003 		orrmi	r3, r3, #64
 141              	.LVL8:
 142              		.loc 1 250 0
 143 00c6 1343     		orrs	r3, r3, r2
 144              	.LVL9:
 145 00c8 4363     		str	r3, [r0, #52]
 146 00ca 7047     		bx	lr
 147              		.cfi_endproc
 148              	.LFE121:
 149              		.size	sdc_lld_collect_errors, .-sdc_lld_collect_errors
 150 00cc AFF30080 		.section	.text.Vector104,"ax",%progbits
 151              		.align	2
 152              		.p2align 4,,15
 153              		.global	Vector104
 154              		.thumb
 155              		.thumb_func
 156              		.type	Vector104, %function
 157              	Vector104:
 158              	.LFB123:
 159              		.loc 1 290 0
 160              		.cfi_startproc
 161              		@ args = 0, pretend = 0, frame = 0
 162              		@ frame_needed = 0, uses_anonymous_args = 0
 163 0000 38B5     		push	{r3, r4, r5, lr}
 164              	.LCFI0:
 165              		.cfi_def_cfa_offset 16
 166              		.cfi_offset 3, -16
 167              		.cfi_offset 4, -12
 168              		.cfi_offset 5, -8
 169              		.cfi_offset 14, -4
 170              	.LBB5:
 171              		.loc 1 294 0
ARM GAS  /tmp/cc0rbmjy.s 			page 4


 172 0002 2023     		movs	r3, #32
 173              	.LVL10:
 174              	@ 294 "../../os/hal/platforms/STM32/sdc_lld.c" 1
 175 0004 83F31188 		msr     BASEPRI, r3
 176              	@ 0 "" 2
 177              	.LVL11:
 178              		.thumb
 179              	.LBE5:
 180              		.loc 1 300 0
 181 0008 094C     		ldr	r4, .L34
 182              		.loc 1 298 0
 183 000a 4FF43053 		mov	r3, #11264
 184              	.LVL12:
 185 000e C4F20103 		movt	r3, 16385
 186              		.loc 1 300 0
 187 0012 E06B     		ldr	r0, [r4, #60]
 188              		.loc 1 298 0
 189 0014 0025     		movs	r5, #0
 190 0016 DD63     		str	r5, [r3, #60]
 191              		.loc 1 300 0
 192 0018 10B1     		cbz	r0, .L29
 193              		.loc 1 301 0
 194 001a FFF7FEFF 		bl	chSchReadyI
 195              	.LVL13:
 196              		.loc 1 302 0
 197 001e E563     		str	r5, [r4, #60]
 198              	.L29:
 199              	.LBB6:
 200              		.loc 1 305 0
 201 0020 0023     		movs	r3, #0
 202              	.LVL14:
 203              	@ 305 "../../os/hal/platforms/STM32/sdc_lld.c" 1
 204 0022 83F31188 		msr     BASEPRI, r3
 205              	@ 0 "" 2
 206              	.LVL15:
 207              		.thumb
 208              	.LBE6:
 209              		.loc 1 308 0
 210 0026 BDE83840 		pop	{r3, r4, r5, lr}
 211              		.loc 1 307 0
 212 002a FFF7FEBF 		b	_port_irq_epilogue
 213              	.LVL16:
 214              	.L35:
 215 002e 00BF     		.align	2
 216              	.L34:
 217 0030 00000000 		.word	.LANCHOR0
 218              		.cfi_endproc
 219              	.LFE123:
 220              		.size	Vector104, .-Vector104
 221 0034 AFF30080 		.section	.text.sdc_lld_init,"ax",%progbits
 221      AFF30080 
 221      AFF30080 
 222              		.align	2
 223              		.p2align 4,,15
 224              		.global	sdc_lld_init
 225              		.thumb
 226              		.thumb_func
ARM GAS  /tmp/cc0rbmjy.s 			page 5


 227              		.type	sdc_lld_init, %function
 228              	sdc_lld_init:
 229              	.LFB124:
 230              		.loc 1 319 0
 231              		.cfi_startproc
 232              		@ args = 0, pretend = 0, frame = 0
 233              		@ frame_needed = 0, uses_anonymous_args = 0
 234 0000 10B5     		push	{r4, lr}
 235              	.LCFI1:
 236              		.cfi_def_cfa_offset 8
 237              		.cfi_offset 4, -8
 238              		.cfi_offset 14, -4
 239              		.loc 1 321 0
 240 0002 40F20004 		movw	r4, #:lower16:.LANCHOR0
 241 0006 C0F20004 		movt	r4, #:upper16:.LANCHOR0
 242 000a 2046     		mov	r0, r4
 243 000c FFF7FEFF 		bl	sdcObjectInit
 244              	.LVL17:
 245              		.loc 1 322 0
 246 0010 0023     		movs	r3, #0
 247 0012 E363     		str	r3, [r4, #60]
 248              		.loc 1 323 0
 249 0014 014B     		ldr	r3, .L37
 250 0016 6364     		str	r3, [r4, #68]
 251 0018 10BD     		pop	{r4, pc}
 252              	.L38:
 253 001a 00BF     		.align	2
 254              	.L37:
 255 001c 84000000 		.word	_stm32_dma_streams+132
 256              		.cfi_endproc
 257              	.LFE124:
 258              		.size	sdc_lld_init, .-sdc_lld_init
 259              		.section	.text.sdc_lld_start,"ax",%progbits
 260              		.align	2
 261              		.p2align 4,,15
 262              		.global	sdc_lld_start
 263              		.thumb
 264              		.thumb_func
 265              		.type	sdc_lld_start, %function
 266              	sdc_lld_start:
 267              	.LFB125:
 268              		.loc 1 336 0
 269              		.cfi_startproc
 270              		@ args = 0, pretend = 0, frame = 0
 271              		@ frame_needed = 0, uses_anonymous_args = 0
 272              	.LVL18:
 273              		.loc 1 350 0
 274 0000 0279     		ldrb	r2, [r0, #4]	@ zero_extendqisi2
 275              		.loc 1 345 0
 276 0002 45F22043 		movw	r3, #21536
 277 0006 C0F6A303 		movt	r3, 2211
 278              		.loc 1 350 0
 279 000a 012A     		cmp	r2, #1
 280              		.loc 1 336 0
 281 000c 10B5     		push	{r4, lr}
 282              	.LCFI2:
 283              		.cfi_def_cfa_offset 8
ARM GAS  /tmp/cc0rbmjy.s 			page 6


 284              		.cfi_offset 4, -8
 285              		.cfi_offset 14, -4
 286              		.loc 1 336 0
 287 000e 0446     		mov	r4, r0
 288              		.loc 1 345 0
 289 0010 0364     		str	r3, [r0, #64]
 290              		.loc 1 350 0
 291 0012 09D0     		beq	.L41
 292              	.LVL19:
 293              	.L40:
 294              		.loc 1 365 0
 295 0014 4FF43053 		mov	r3, #11264
 296 0018 C4F20103 		movt	r3, 16385
 297 001c 0022     		movs	r2, #0
 298 001e 1A60     		str	r2, [r3, #0]
 299              		.loc 1 366 0
 300 0020 5A60     		str	r2, [r3, #4]
 301              		.loc 1 367 0
 302 0022 DA62     		str	r2, [r3, #44]
 303              		.loc 1 368 0
 304 0024 5A62     		str	r2, [r3, #36]
 305 0026 10BD     		pop	{r4, pc}
 306              	.LVL20:
 307              	.L41:
 308              	.LBB7:
 309              		.loc 1 353 0
 310 0028 0022     		movs	r2, #0
 311 002a 1346     		mov	r3, r2
 312 002c 0921     		movs	r1, #9
 313 002e 406C     		ldr	r0, [r0, #68]
 314              	.LVL21:
 315 0030 FFF7FEFF 		bl	dmaStreamAllocate
 316              	.LVL22:
 317              		.loc 1 355 0
 318 0034 636C     		ldr	r3, [r4, #68]
 319 0036 4FF43252 		mov	r2, #11392
 320 003a 1B68     		ldr	r3, [r3, #0]
 321 003c C4F20102 		movt	r2, 16385
 322 0040 9A60     		str	r2, [r3, #8]
 323              		.loc 1 357 0
 324 0042 0722     		movs	r2, #7
 325 0044 5A61     		str	r2, [r3, #20]
 326              		.loc 1 359 0
 327 0046 3120     		movs	r0, #49
 328 0048 9021     		movs	r1, #144
 329 004a FFF7FEFF 		bl	nvicEnableVector
 330              	.LVL23:
 331              		.loc 1 361 0
 332 004e 4FF46053 		mov	r3, #14336
 333 0052 C4F20203 		movt	r3, 16386
 334 0056 5A6C     		ldr	r2, [r3, #68]
 335 0058 42F40062 		orr	r2, r2, #2048
 336 005c 5A64     		str	r2, [r3, #68]
 337 005e D9E7     		b	.L40
 338              	.LBE7:
 339              		.cfi_endproc
 340              	.LFE125:
ARM GAS  /tmp/cc0rbmjy.s 			page 7


 341              		.size	sdc_lld_start, .-sdc_lld_start
 342              		.section	.text.sdc_lld_stop,"ax",%progbits
 343              		.align	2
 344              		.p2align 4,,15
 345              		.global	sdc_lld_stop
 346              		.thumb
 347              		.thumb_func
 348              		.type	sdc_lld_stop, %function
 349              	sdc_lld_stop:
 350              	.LFB126:
 351              		.loc 1 378 0
 352              		.cfi_startproc
 353              		@ args = 0, pretend = 0, frame = 0
 354              		@ frame_needed = 0, uses_anonymous_args = 0
 355              	.LVL24:
 356              		.loc 1 380 0
 357 0000 0379     		ldrb	r3, [r0, #4]	@ zero_extendqisi2
 358 0002 012B     		cmp	r3, #1
 359              		.loc 1 378 0
 360 0004 10B5     		push	{r4, lr}
 361              	.LCFI3:
 362              		.cfi_def_cfa_offset 8
 363              		.cfi_offset 4, -8
 364              		.cfi_offset 14, -4
 365              		.loc 1 378 0
 366 0006 0446     		mov	r4, r0
 367              		.loc 1 380 0
 368 0008 16D0     		beq	.L42
 369              		.loc 1 383 0
 370 000a 4FF43053 		mov	r3, #11264
 371 000e C4F20103 		movt	r3, 16385
 372 0012 0022     		movs	r2, #0
 373 0014 1A60     		str	r2, [r3, #0]
 374              		.loc 1 389 0
 375 0016 3120     		movs	r0, #49
 376              	.LVL25:
 377              		.loc 1 384 0
 378 0018 5A60     		str	r2, [r3, #4]
 379              		.loc 1 385 0
 380 001a DA62     		str	r2, [r3, #44]
 381              		.loc 1 386 0
 382 001c 5A62     		str	r2, [r3, #36]
 383              		.loc 1 389 0
 384 001e FFF7FEFF 		bl	nvicDisableVector
 385              	.LVL26:
 386              		.loc 1 390 0
 387 0022 606C     		ldr	r0, [r4, #68]
 388 0024 FFF7FEFF 		bl	dmaStreamRelease
 389              	.LVL27:
 390              		.loc 1 391 0
 391 0028 4FF46053 		mov	r3, #14336
 392 002c C4F20203 		movt	r3, 16386
 393 0030 5A6C     		ldr	r2, [r3, #68]
 394 0032 22F40062 		bic	r2, r2, #2048
 395 0036 5A64     		str	r2, [r3, #68]
 396              	.L42:
 397 0038 10BD     		pop	{r4, pc}
ARM GAS  /tmp/cc0rbmjy.s 			page 8


 398              		.cfi_endproc
 399              	.LFE126:
 400              		.size	sdc_lld_stop, .-sdc_lld_stop
 401 003a 00BFAFF3 		.section	.text.sdc_lld_start_clk,"ax",%progbits
 401      0080
 402              		.align	2
 403              		.p2align 4,,15
 404              		.global	sdc_lld_start_clk
 405              		.thumb
 406              		.thumb_func
 407              		.type	sdc_lld_start_clk, %function
 408              	sdc_lld_start_clk:
 409              	.LFB127:
 410              		.loc 1 402 0
 411              		.cfi_startproc
 412              		@ args = 0, pretend = 0, frame = 0
 413              		@ frame_needed = 0, uses_anonymous_args = 0
 414              		@ link register save eliminated.
 415              	.LVL28:
 416              		.loc 1 407 0
 417 0000 4FF43053 		mov	r3, #11264
 418 0004 C4F20103 		movt	r3, 16385
 419 0008 7822     		movs	r2, #120
 420 000a 5A60     		str	r2, [r3, #4]
 421              		.loc 1 408 0
 422 000c 1A68     		ldr	r2, [r3, #0]
 423 000e 42F00302 		orr	r2, r2, #3
 424 0012 1A60     		str	r2, [r3, #0]
 425              		.loc 1 409 0
 426 0014 5A68     		ldr	r2, [r3, #4]
 427 0016 42F48072 		orr	r2, r2, #256
 428 001a 5A60     		str	r2, [r3, #4]
 429 001c 7047     		bx	lr
 430              		.cfi_endproc
 431              	.LFE127:
 432              		.size	sdc_lld_start_clk, .-sdc_lld_start_clk
 433 001e 00BF     		.section	.text.sdc_lld_set_data_clk,"ax",%progbits
 434              		.align	2
 435              		.p2align 4,,15
 436              		.global	sdc_lld_set_data_clk
 437              		.thumb
 438              		.thumb_func
 439              		.type	sdc_lld_set_data_clk, %function
 440              	sdc_lld_set_data_clk:
 441              	.LFB128:
 442              		.loc 1 419 0
 443              		.cfi_startproc
 444              		@ args = 0, pretend = 0, frame = 0
 445              		@ frame_needed = 0, uses_anonymous_args = 0
 446              		@ link register save eliminated.
 447              	.LVL29:
 448              		.loc 1 423 0
 449 0000 4FF43053 		mov	r3, #11264
 450 0004 C4F20103 		movt	r3, 16385
 451 0008 5A68     		ldr	r2, [r3, #4]
 452 000a 22F0FF02 		bic	r2, r2, #255
 453 000e 5A60     		str	r2, [r3, #4]
ARM GAS  /tmp/cc0rbmjy.s 			page 9


 454 0010 7047     		bx	lr
 455              		.cfi_endproc
 456              	.LFE128:
 457              		.size	sdc_lld_set_data_clk, .-sdc_lld_set_data_clk
 458 0012 00BFAFF3 		.section	.text.sdc_lld_stop_clk,"ax",%progbits
 458      0080AFF3 
 458      0080AFF3 
 458      0080
 459              		.align	2
 460              		.p2align 4,,15
 461              		.global	sdc_lld_stop_clk
 462              		.thumb
 463              		.thumb_func
 464              		.type	sdc_lld_stop_clk, %function
 465              	sdc_lld_stop_clk:
 466              	.LFB129:
 467              		.loc 1 433 0
 468              		.cfi_startproc
 469              		@ args = 0, pretend = 0, frame = 0
 470              		@ frame_needed = 0, uses_anonymous_args = 0
 471              		@ link register save eliminated.
 472              	.LVL30:
 473              		.loc 1 437 0
 474 0000 4FF43053 		mov	r3, #11264
 475 0004 C4F20103 		movt	r3, 16385
 476 0008 0022     		movs	r2, #0
 477 000a 5A60     		str	r2, [r3, #4]
 478              		.loc 1 438 0
 479 000c 1A60     		str	r2, [r3, #0]
 480 000e 7047     		bx	lr
 481              		.cfi_endproc
 482              	.LFE129:
 483              		.size	sdc_lld_stop_clk, .-sdc_lld_stop_clk
 484              		.section	.text.sdc_lld_set_bus_mode,"ax",%progbits
 485              		.align	2
 486              		.p2align 4,,15
 487              		.global	sdc_lld_set_bus_mode
 488              		.thumb
 489              		.thumb_func
 490              		.type	sdc_lld_set_bus_mode, %function
 491              	sdc_lld_set_bus_mode:
 492              	.LFB130:
 493              		.loc 1 449 0
 494              		.cfi_startproc
 495              		@ args = 0, pretend = 0, frame = 0
 496              		@ frame_needed = 0, uses_anonymous_args = 0
 497              		@ link register save eliminated.
 498              	.LVL31:
 499              		.loc 1 450 0
 500 0000 4FF43053 		mov	r3, #11264
 501 0004 C4F20103 		movt	r3, 16385
 502              		.loc 1 454 0
 503 0008 0129     		cmp	r1, #1
 504              		.loc 1 450 0
 505 000a 5A68     		ldr	r2, [r3, #4]
 506 000c 22F4C052 		bic	r2, r2, #6144
 507              	.LVL32:
ARM GAS  /tmp/cc0rbmjy.s 			page 10


 508              		.loc 1 454 0
 509 0010 07D0     		beq	.L53
 510 0012 01D2     		bcs	.L56
 511              	.LVL33:
 512              	.L55:
 513              		.loc 1 462 0
 514 0014 5A60     		str	r2, [r3, #4]
 515              	.L50:
 516 0016 7047     		bx	lr
 517              	.LVL34:
 518              	.L56:
 519              		.loc 1 454 0
 520 0018 0229     		cmp	r1, #2
 521 001a FCD1     		bne	.L50
 522              		.loc 1 462 0
 523 001c 42F48052 		orr	r2, r2, #4096
 524              	.LVL35:
 525 0020 F8E7     		b	.L55
 526              	.LVL36:
 527              	.L53:
 528              		.loc 1 459 0
 529 0022 42F40062 		orr	r2, r2, #2048
 530              	.LVL37:
 531 0026 5A60     		str	r2, [r3, #4]
 532              		.loc 1 460 0
 533 0028 7047     		bx	lr
 534              		.cfi_endproc
 535              	.LFE130:
 536              		.size	sdc_lld_set_bus_mode, .-sdc_lld_set_bus_mode
 537 002a 00BFAFF3 		.section	.text.sdc_lld_send_cmd_none,"ax",%progbits
 537      0080
 538              		.align	2
 539              		.p2align 4,,15
 540              		.global	sdc_lld_send_cmd_none
 541              		.thumb
 542              		.thumb_func
 543              		.type	sdc_lld_send_cmd_none, %function
 544              	sdc_lld_send_cmd_none:
 545              	.LFB131:
 546              		.loc 1 476 0
 547              		.cfi_startproc
 548              		@ args = 0, pretend = 0, frame = 0
 549              		@ frame_needed = 0, uses_anonymous_args = 0
 550              		@ link register save eliminated.
 551              	.LVL38:
 552              		.loc 1 480 0
 553 0000 4FF43053 		mov	r3, #11264
 554 0004 C4F20103 		movt	r3, 16385
 555              		.loc 1 481 0
 556 0008 41F48061 		orr	r1, r1, #1024
 557              	.LVL39:
 558              		.loc 1 480 0
 559 000c 9A60     		str	r2, [r3, #8]
 560              		.loc 1 482 0
 561 000e 1846     		mov	r0, r3
 562              	.LVL40:
 563              		.loc 1 481 0
ARM GAS  /tmp/cc0rbmjy.s 			page 11


 564 0010 D960     		str	r1, [r3, #12]
 565              	.LVL41:
 566              	.L58:
 567              		.loc 1 482 0 discriminator 1
 568 0012 426B     		ldr	r2, [r0, #52]
 569 0014 4FF43053 		mov	r3, #11264
 570 0018 1206     		lsls	r2, r2, #24
 571 001a C4F20103 		movt	r3, 16385
 572 001e F8D5     		bpl	.L58
 573              		.loc 1 484 0
 574 0020 8022     		movs	r2, #128
 575 0022 9A63     		str	r2, [r3, #56]
 576 0024 7047     		bx	lr
 577              		.cfi_endproc
 578              	.LFE131:
 579              		.size	sdc_lld_send_cmd_none, .-sdc_lld_send_cmd_none
 580 0026 00BFAFF3 		.section	.text.sdc_lld_send_cmd_short,"ax",%progbits
 580      0080AFF3 
 580      0080
 581              		.align	2
 582              		.p2align 4,,15
 583              		.global	sdc_lld_send_cmd_short
 584              		.thumb
 585              		.thumb_func
 586              		.type	sdc_lld_send_cmd_short, %function
 587              	sdc_lld_send_cmd_short:
 588              	.LFB132:
 589              		.loc 1 503 0
 590              		.cfi_startproc
 591              		@ args = 0, pretend = 0, frame = 0
 592              		@ frame_needed = 0, uses_anonymous_args = 0
 593              	.LVL42:
 594 0000 10B5     		push	{r4, lr}
 595              	.LCFI4:
 596              		.cfi_def_cfa_offset 8
 597              		.cfi_offset 4, -8
 598              		.cfi_offset 14, -4
 599              		.loc 1 508 0
 600 0002 4FF43054 		mov	r4, #11264
 601 0006 C4F20104 		movt	r4, 16385
 602              		.loc 1 509 0
 603 000a 41F48861 		orr	r1, r1, #1088
 604              	.LVL43:
 605              		.loc 1 508 0
 606 000e A260     		str	r2, [r4, #8]
 607              		.loc 1 509 0
 608 0010 E160     		str	r1, [r4, #12]
 609              	.LVL44:
 610              	.L64:
 611              		.loc 1 510 0 discriminator 1
 612 0012 626B     		ldr	r2, [r4, #52]
 613              	.LVL45:
 614 0014 4FF43051 		mov	r1, #11264
 615 0018 12F0450F 		tst	r2, #69
 616 001c C4F20101 		movt	r1, 16385
 617 0020 F7D0     		beq	.L64
 618              		.loc 1 513 0
ARM GAS  /tmp/cc0rbmjy.s 			page 12


 619 0022 4524     		movs	r4, #69
 620              	.LVL46:
 621              		.loc 1 514 0
 622 0024 12F00402 		ands	r2, r2, #4
 623              	.LVL47:
 624              		.loc 1 513 0
 625 0028 8C63     		str	r4, [r1, #56]
 626              		.loc 1 514 0
 627 002a 03D1     		bne	.L71
 628              		.loc 1 518 0
 629 002c 4969     		ldr	r1, [r1, #20]
 630              		.loc 1 519 0
 631 002e 1046     		mov	r0, r2
 632              	.LVL48:
 633              		.loc 1 518 0
 634 0030 1960     		str	r1, [r3, #0]
 635              		.loc 1 520 0
 636 0032 10BD     		pop	{r4, pc}
 637              	.LVL49:
 638              	.L71:
 639              		.loc 1 515 0
 640 0034 FFF7FEFF 		bl	sdc_lld_collect_errors
 641              	.LVL50:
 642              		.loc 1 516 0
 643 0038 0120     		movs	r0, #1
 644 003a 10BD     		pop	{r4, pc}
 645              		.cfi_endproc
 646              	.LFE132:
 647              		.size	sdc_lld_send_cmd_short, .-sdc_lld_send_cmd_short
 648 003c AFF30080 		.section	.text.sdc_lld_send_cmd_short_crc,"ax",%progbits
 649              		.align	2
 650              		.p2align 4,,15
 651              		.global	sdc_lld_send_cmd_short_crc
 652              		.thumb
 653              		.thumb_func
 654              		.type	sdc_lld_send_cmd_short_crc, %function
 655              	sdc_lld_send_cmd_short_crc:
 656              	.LFB133:
 657              		.loc 1 537 0
 658              		.cfi_startproc
 659              		@ args = 0, pretend = 0, frame = 0
 660              		@ frame_needed = 0, uses_anonymous_args = 0
 661              	.LVL51:
 662 0000 10B5     		push	{r4, lr}
 663              	.LCFI5:
 664              		.cfi_def_cfa_offset 8
 665              		.cfi_offset 4, -8
 666              		.cfi_offset 14, -4
 667              		.loc 1 542 0
 668 0002 4FF43054 		mov	r4, #11264
 669 0006 C4F20104 		movt	r4, 16385
 670              		.loc 1 543 0
 671 000a 41F48861 		orr	r1, r1, #1088
 672              	.LVL52:
 673              		.loc 1 542 0
 674 000e A260     		str	r2, [r4, #8]
 675              		.loc 1 543 0
ARM GAS  /tmp/cc0rbmjy.s 			page 13


 676 0010 E160     		str	r1, [r4, #12]
 677              	.LVL53:
 678              	.L73:
 679              		.loc 1 544 0 discriminator 1
 680 0012 626B     		ldr	r2, [r4, #52]
 681              	.LVL54:
 682 0014 4FF43051 		mov	r1, #11264
 683 0018 12F0450F 		tst	r2, #69
 684 001c C4F20101 		movt	r1, 16385
 685 0020 F7D0     		beq	.L73
 686              		.loc 1 547 0
 687 0022 4524     		movs	r4, #69
 688              	.LVL55:
 689              		.loc 1 548 0
 690 0024 12F00502 		ands	r2, r2, #5
 691              	.LVL56:
 692              		.loc 1 547 0
 693 0028 8C63     		str	r4, [r1, #56]
 694              		.loc 1 548 0
 695 002a 03D1     		bne	.L80
 696              		.loc 1 552 0
 697 002c 4969     		ldr	r1, [r1, #20]
 698              		.loc 1 553 0
 699 002e 1046     		mov	r0, r2
 700              	.LVL57:
 701              		.loc 1 552 0
 702 0030 1960     		str	r1, [r3, #0]
 703              		.loc 1 554 0
 704 0032 10BD     		pop	{r4, pc}
 705              	.LVL58:
 706              	.L80:
 707              		.loc 1 549 0
 708 0034 FFF7FEFF 		bl	sdc_lld_collect_errors
 709              	.LVL59:
 710              		.loc 1 550 0
 711 0038 0120     		movs	r0, #1
 712 003a 10BD     		pop	{r4, pc}
 713              		.cfi_endproc
 714              	.LFE133:
 715              		.size	sdc_lld_send_cmd_short_crc, .-sdc_lld_send_cmd_short_crc
 716 003c AFF30080 		.section	.text.sdc_lld_wait_transaction_end,"ax",%progbits
 717              		.align	2
 718              		.p2align 4,,15
 719              		.thumb
 720              		.thumb_func
 721              		.type	sdc_lld_wait_transaction_end, %function
 722              	sdc_lld_wait_transaction_end:
 723              	.LFB120:
 724              		.loc 1 161 0
 725              		.cfi_startproc
 726              		@ args = 0, pretend = 0, frame = 0
 727              		@ frame_needed = 0, uses_anonymous_args = 0
 728              	.LVL60:
 729 0000 2DE9F041 		push	{r4, r5, r6, r7, r8, lr}
 730              	.LCFI6:
 731              		.cfi_def_cfa_offset 24
 732              		.cfi_offset 4, -24
ARM GAS  /tmp/cc0rbmjy.s 			page 14


 733              		.cfi_offset 5, -20
 734              		.cfi_offset 6, -16
 735              		.cfi_offset 7, -12
 736              		.cfi_offset 8, -8
 737              		.cfi_offset 14, -4
 738              	.LBB16:
 739              		.loc 1 165 0
 740 0004 2023     		movs	r3, #32
 741              	.LVL61:
 742              	.LBE16:
 743              		.loc 1 161 0
 744 0006 0646     		mov	r6, r0
 745 0008 8846     		mov	r8, r1
 746 000a 1746     		mov	r7, r2
 747              	.LBB17:
 748              		.loc 1 165 0
 749              	@ 165 "../../os/hal/platforms/STM32/sdc_lld.c" 1
 750 000c 83F31188 		msr     BASEPRI, r3
 751              	@ 0 "" 2
 752              	.LVL62:
 753              		.thumb
 754              	.LBE17:
 755              		.loc 1 166 0
 756 0010 4FF43054 		mov	r4, #11264
 757 0014 C4F20104 		movt	r4, 16385
 758 0018 E36B     		ldr	r3, [r4, #60]
 759              	.LVL63:
 760 001a 002B     		cmp	r3, #0
 761 001c 33D1     		bne	.L91
 762              	.LVL64:
 763              	.L82:
 764              		.loc 1 174 0
 765 001e 4FF43054 		mov	r4, #11264
 766 0022 C4F20104 		movt	r4, 16385
 767 0026 646B     		ldr	r4, [r4, #52]
 768 0028 14F48073 		ands	r3, r4, #256
 769 002c 26D0     		beq	.L92
 770 002e 736C     		ldr	r3, [r6, #68]
 771 0030 1D68     		ldr	r5, [r3, #0]
 772              	.L85:
 773              		.loc 1 181 0 discriminator 1
 774 0032 2C68     		ldr	r4, [r5, #0]
 775 0034 14F00104 		ands	r4, r4, #1
 776 0038 FBD1     		bne	.L85
 777              		.loc 1 185 0
 778 003a 197A     		ldrb	r1, [r3, #8]	@ zero_extendqisi2
 779 003c 5B68     		ldr	r3, [r3, #4]
 780              		.loc 1 187 0
 781 003e 4FF43055 		mov	r5, #11264
 782 0042 C4F20105 		movt	r5, 16385
 783              		.loc 1 185 0
 784 0046 3D20     		movs	r0, #61
 785              		.loc 1 187 0
 786 0048 40F2FF72 		movw	r2, #2047
 787              		.loc 1 185 0
 788 004c 00FA01F1 		lsl	r1, r0, r1
 789              		.loc 1 187 0
ARM GAS  /tmp/cc0rbmjy.s 			page 15


 790 0050 C0F2C002 		movt	r2, 192
 791              		.loc 1 185 0
 792 0054 1960     		str	r1, [r3, #0]
 793              		.loc 1 187 0
 794 0056 AA63     		str	r2, [r5, #56]
 795              	.LBB18:
 796              		.loc 1 189 0
 797 0058 2346     		mov	r3, r4
 798              	.LVL65:
 799              	.LBE18:
 800              		.loc 1 188 0
 801 005a EC62     		str	r4, [r5, #44]
 802              	.LBB19:
 803              		.loc 1 189 0
 804              	@ 189 "../../os/hal/platforms/STM32/sdc_lld.c" 1
 805 005c 83F31188 		msr     BASEPRI, r3
 806              	@ 0 "" 2
 807              	.LVL66:
 808              		.thumb
 809              	.LBE19:
 810              		.loc 1 205 0
 811 0060 B8F1010F 		cmp	r8, #1
 812 0064 07D9     		bls	.L86
 813              	.LVL67:
 814              	.LBB20:
 815              	.LBB21:
 816              		.loc 1 206 0
 817 0066 3046     		mov	r0, r6
 818 0068 0C21     		movs	r1, #12
 819 006a 2246     		mov	r2, r4
 820 006c 3B46     		mov	r3, r7
 821              	.LVL68:
 822              	.LBE21:
 823              	.LBE20:
 824              		.loc 1 209 0
 825 006e BDE8F041 		pop	{r4, r5, r6, r7, r8, lr}
 826              	.LBB23:
 827              	.LBB22:
 828              		.loc 1 206 0
 829 0072 FFF7FEBF 		b	sdc_lld_send_cmd_short_crc
 830              	.LVL69:
 831              	.L86:
 832              	.LBE22:
 833              	.LBE23:
 834              		.loc 1 208 0
 835 0076 2046     		mov	r0, r4
 836              		.loc 1 209 0
 837 0078 BDE8F081 		pop	{r4, r5, r6, r7, r8, pc}
 838              	.LVL70:
 839              	.L92:
 840              	.LBB24:
 841              		.loc 1 175 0
 842              	@ 175 "../../os/hal/platforms/STM32/sdc_lld.c" 1
 843 007c 83F31188 		msr     BASEPRI, r3
 844              	@ 0 "" 2
 845              	.LVL71:
 846              		.thumb
ARM GAS  /tmp/cc0rbmjy.s 			page 16


 847              	.LBE24:
 848              		.loc 1 176 0
 849 0080 0120     		movs	r0, #1
 850 0082 BDE8F081 		pop	{r4, r5, r6, r7, r8, pc}
 851              	.LVL72:
 852              	.L91:
 853              		.loc 1 169 0
 854 0086 034B     		ldr	r3, .L93
 855 0088 9B69     		ldr	r3, [r3, #24]
 856              		.loc 1 170 0
 857 008a 0220     		movs	r0, #2
 858              	.LVL73:
 859              		.loc 1 169 0
 860 008c F363     		str	r3, [r6, #60]
 861              		.loc 1 170 0
 862 008e FFF7FEFF 		bl	chSchGoSleepS
 863              	.LVL74:
 864 0092 C4E7     		b	.L82
 865              	.L94:
 866              		.align	2
 867              	.L93:
 868 0094 00000000 		.word	rlist
 869              		.cfi_endproc
 870              	.LFE120:
 871              		.size	sdc_lld_wait_transaction_end, .-sdc_lld_wait_transaction_end
 872 0098 AFF30080 		.section	.text.sdc_lld_error_cleanup,"ax",%progbits
 872      AFF30080 
 873              		.align	2
 874              		.p2align 4,,15
 875              		.thumb
 876              		.thumb_func
 877              		.type	sdc_lld_error_cleanup, %function
 878              	sdc_lld_error_cleanup:
 879              	.LFB122:
 880              		.loc 1 264 0
 881              		.cfi_startproc
 882              		@ args = 0, pretend = 0, frame = 0
 883              		@ frame_needed = 0, uses_anonymous_args = 0
 884              	.LVL75:
 885 0000 2DE9F047 		push	{r4, r5, r6, r7, r8, r9, sl, lr}
 886              	.LCFI7:
 887              		.cfi_def_cfa_offset 32
 888              		.cfi_offset 4, -32
 889              		.cfi_offset 5, -28
 890              		.cfi_offset 6, -24
 891              		.cfi_offset 7, -20
 892              		.cfi_offset 8, -16
 893              		.cfi_offset 9, -12
 894              		.cfi_offset 10, -8
 895              		.cfi_offset 14, -4
 896              		.loc 1 266 0
 897 0004 466C     		ldr	r6, [r0, #68]
 898 0006 337A     		ldrb	r3, [r6, #8]	@ zero_extendqisi2
 899              		.loc 1 267 0
 900 0008 3568     		ldr	r5, [r6, #0]
 901              		.loc 1 264 0
 902 000a 0746     		mov	r7, r0
ARM GAS  /tmp/cc0rbmjy.s 			page 17


 903              		.loc 1 266 0
 904 000c 3D24     		movs	r4, #61
 905 000e 7068     		ldr	r0, [r6, #4]
 906              	.LVL76:
 907 0010 04FA03F3 		lsl	r3, r4, r3
 908 0014 0360     		str	r3, [r0, #0]
 909              		.loc 1 267 0
 910 0016 2B68     		ldr	r3, [r5, #0]
 911 0018 23F00103 		bic	r3, r3, #1
 912              		.loc 1 264 0
 913 001c 8946     		mov	r9, r1
 914 001e 9046     		mov	r8, r2
 915              		.loc 1 267 0
 916 0020 2B60     		str	r3, [r5, #0]
 917              	.L96:
 918              		.loc 1 267 0 is_stmt 0 discriminator 1
 919 0022 2C68     		ldr	r4, [r5, #0]
 920 0024 14F00104 		ands	r4, r4, #1
 921 0028 FBD1     		bne	.L96
 922              		.loc 1 267 0 discriminator 2
 923 002a 327A     		ldrb	r2, [r6, #8]	@ zero_extendqisi2
 924              	.LVL77:
 925              		.loc 1 268 0 is_stmt 1 discriminator 2
 926 002c 4FF43055 		mov	r5, #11264
 927 0030 C4F20105 		movt	r5, 16385
 928              		.loc 1 267 0 discriminator 2
 929 0034 3D21     		movs	r1, #61
 930              	.LVL78:
 931              		.loc 1 268 0 discriminator 2
 932 0036 40F2FF73 		movw	r3, #2047
 933              		.loc 1 267 0 discriminator 2
 934 003a 01FA02F2 		lsl	r2, r1, r2
 935              		.loc 1 268 0 discriminator 2
 936 003e C0F2C003 		movt	r3, 192
 937              		.loc 1 267 0 discriminator 2
 938 0042 0260     		str	r2, [r0, #0]
 939              		.loc 1 268 0 discriminator 2
 940 0044 AB63     		str	r3, [r5, #56]
 941              		.loc 1 271 0 discriminator 2
 942 0046 3846     		mov	r0, r7
 943              		.loc 1 269 0 discriminator 2
 944 0048 EC63     		str	r4, [r5, #60]
 945              		.loc 1 270 0 discriminator 2
 946 004a EC62     		str	r4, [r5, #44]
 947              		.loc 1 271 0 discriminator 2
 948 004c FFF7FEFF 		bl	sdc_lld_collect_errors
 949              	.LVL79:
 950              		.loc 1 272 0 discriminator 2
 951 0050 B9F1010F 		cmp	r9, #1
 952 0054 07D9     		bls	.L95
 953              	.LVL80:
 954              	.LBB27:
 955              	.LBB28:
 956              		.loc 1 273 0
 957 0056 3846     		mov	r0, r7
 958 0058 0C21     		movs	r1, #12
 959 005a 2246     		mov	r2, r4
ARM GAS  /tmp/cc0rbmjy.s 			page 18


 960 005c 4346     		mov	r3, r8
 961              	.LBE28:
 962              	.LBE27:
 963              		.loc 1 274 0
 964 005e BDE8F047 		pop	{r4, r5, r6, r7, r8, r9, sl, lr}
 965              	.LBB30:
 966              	.LBB29:
 967              		.loc 1 273 0
 968 0062 FFF7FEBF 		b	sdc_lld_send_cmd_short_crc
 969              	.LVL81:
 970              	.L95:
 971 0066 BDE8F087 		pop	{r4, r5, r6, r7, r8, r9, sl, pc}
 972              	.LBE29:
 973              	.LBE30:
 974              		.cfi_endproc
 975              	.LFE122:
 976              		.size	sdc_lld_error_cleanup, .-sdc_lld_error_cleanup
 977 006a 00BFAFF3 		.section	.text.sdc_lld_send_cmd_long_crc,"ax",%progbits
 977      0080
 978              		.align	2
 979              		.p2align 4,,15
 980              		.global	sdc_lld_send_cmd_long_crc
 981              		.thumb
 982              		.thumb_func
 983              		.type	sdc_lld_send_cmd_long_crc, %function
 984              	sdc_lld_send_cmd_long_crc:
 985              	.LFB134:
 986              		.loc 1 571 0
 987              		.cfi_startproc
 988              		@ args = 0, pretend = 0, frame = 0
 989              		@ frame_needed = 0, uses_anonymous_args = 0
 990              	.LVL82:
 991 0000 10B5     		push	{r4, lr}
 992              	.LCFI8:
 993              		.cfi_def_cfa_offset 8
 994              		.cfi_offset 4, -8
 995              		.cfi_offset 14, -4
 996              		.loc 1 576 0
 997 0002 4FF43054 		mov	r4, #11264
 998 0006 C4F20104 		movt	r4, 16385
 999              		.loc 1 577 0
 1000 000a 41F49861 		orr	r1, r1, #1216
 1001              	.LVL83:
 1002              		.loc 1 576 0
 1003 000e A260     		str	r2, [r4, #8]
 1004              		.loc 1 577 0
 1005 0010 E160     		str	r1, [r4, #12]
 1006              	.LVL84:
 1007              	.L100:
 1008              		.loc 1 579 0 discriminator 1
 1009 0012 616B     		ldr	r1, [r4, #52]
 1010              	.LVL85:
 1011 0014 4FF43052 		mov	r2, #11264
 1012 0018 11F0450F 		tst	r1, #69
 1013 001c C4F20102 		movt	r2, 16385
 1014 0020 F7D0     		beq	.L100
 1015              		.loc 1 582 0
ARM GAS  /tmp/cc0rbmjy.s 			page 19


 1016 0022 4524     		movs	r4, #69
 1017              	.LVL86:
 1018              		.loc 1 583 0
 1019 0024 11F03F01 		ands	r1, r1, #63
 1020              	.LVL87:
 1021              		.loc 1 582 0
 1022 0028 9463     		str	r4, [r2, #56]
 1023              		.loc 1 583 0
 1024 002a 09D1     		bne	.L107
 1025              		.loc 1 588 0
 1026 002c 106A     		ldr	r0, [r2, #32]
 1027              	.LVL88:
 1028 002e 1860     		str	r0, [r3, #0]
 1029              	.LVL89:
 1030              		.loc 1 589 0
 1031 0030 D069     		ldr	r0, [r2, #28]
 1032 0032 5860     		str	r0, [r3, #4]
 1033              	.LVL90:
 1034              		.loc 1 590 0
 1035 0034 9069     		ldr	r0, [r2, #24]
 1036 0036 9860     		str	r0, [r3, #8]
 1037              	.LVL91:
 1038              		.loc 1 591 0
 1039 0038 5269     		ldr	r2, [r2, #20]
 1040              		.loc 1 592 0
 1041 003a 0846     		mov	r0, r1
 1042              		.loc 1 591 0
 1043 003c DA60     		str	r2, [r3, #12]
 1044              		.loc 1 593 0
 1045 003e 10BD     		pop	{r4, pc}
 1046              	.LVL92:
 1047              	.L107:
 1048              		.loc 1 584 0
 1049 0040 FFF7FEFF 		bl	sdc_lld_collect_errors
 1050              	.LVL93:
 1051              		.loc 1 585 0
 1052 0044 0120     		movs	r0, #1
 1053 0046 10BD     		pop	{r4, pc}
 1054              		.cfi_endproc
 1055              	.LFE134:
 1056              		.size	sdc_lld_send_cmd_long_crc, .-sdc_lld_send_cmd_long_crc
 1057 0048 AFF30080 		.section	.text.sdc_lld_read_aligned,"ax",%progbits
 1057      AFF30080 
 1058              		.align	2
 1059              		.p2align 4,,15
 1060              		.global	sdc_lld_read_aligned
 1061              		.thumb
 1062              		.thumb_func
 1063              		.type	sdc_lld_read_aligned, %function
 1064              	sdc_lld_read_aligned:
 1065              	.LFB135:
 1066              		.loc 1 610 0
 1067              		.cfi_startproc
 1068              		@ args = 0, pretend = 0, frame = 8
 1069              		@ frame_needed = 0, uses_anonymous_args = 0
 1070              	.LVL94:
 1071 0000 2DE9F041 		push	{r4, r5, r6, r7, r8, lr}
ARM GAS  /tmp/cc0rbmjy.s 			page 20


 1072              	.LCFI9:
 1073              		.cfi_def_cfa_offset 24
 1074              		.cfi_offset 4, -24
 1075              		.cfi_offset 5, -20
 1076              		.cfi_offset 6, -16
 1077              		.cfi_offset 7, -12
 1078              		.cfi_offset 8, -8
 1079              		.cfi_offset 14, -4
 1080              		.loc 1 615 0
 1081 0004 4FF43054 		mov	r4, #11264
 1082 0008 C4F20104 		movt	r4, 16385
 1083 000c 4DF2C045 		movw	r5, #54464
 1084 0010 C0F20105 		movt	r5, 1
 1085              		.loc 1 610 0
 1086 0014 82B0     		sub	sp, sp, #8
 1087              	.LCFI10:
 1088              		.cfi_def_cfa_offset 32
 1089              		.loc 1 615 0
 1090 0016 6562     		str	r5, [r4, #36]
 1091              		.loc 1 610 0
 1092 0018 0F46     		mov	r7, r1
 1093 001a 0546     		mov	r5, r0
 1094 001c 9046     		mov	r8, r2
 1095 001e 1E46     		mov	r6, r3
 1096              		.loc 1 618 0
 1097 0020 FFF7FEFF 		bl	_sdc_wait_for_transfer_state
 1098              	.LVL95:
 1099 0024 18B1     		cbz	r0, .L122
 1100              		.loc 1 619 0
 1101 0026 0120     		movs	r0, #1
 1102              	.LVL96:
 1103              	.L120:
 1104              		.loc 1 655 0
 1105 0028 02B0     		add	sp, sp, #8
 1106 002a BDE8F081 		pop	{r4, r5, r6, r7, r8, pc}
 1107              	.LVL97:
 1108              	.L122:
 1109              	.LBB35:
 1110              	.LBB36:
 1111              		.loc 1 622 0
 1112 002e 6B6C     		ldr	r3, [r5, #68]
 1113              		.loc 1 625 0
 1114 0030 2A6C     		ldr	r2, [r5, #64]
 1115              		.loc 1 622 0
 1116 0032 1868     		ldr	r0, [r3, #0]
 1117              		.loc 1 623 0
 1118 0034 7302     		lsls	r3, r6, #9
 1119 0036 9908     		lsrs	r1, r3, #2
 1120              		.loc 1 622 0
 1121 0038 C0F80C80 		str	r8, [r0, #12]
 1122              		.loc 1 623 0
 1123 003c 4160     		str	r1, [r0, #4]
 1124              		.loc 1 625 0
 1125 003e 0260     		str	r2, [r0, #0]
 1126              		.loc 1 626 0
 1127 0040 0168     		ldr	r1, [r0, #0]
 1128              		.loc 1 629 0
ARM GAS  /tmp/cc0rbmjy.s 			page 21


 1129 0042 40F2FF72 		movw	r2, #2047
 1130              		.loc 1 626 0
 1131 0046 41F00101 		orr	r1, r1, #1
 1132              		.loc 1 629 0
 1133 004a C0F2C002 		movt	r2, 192
 1134              		.loc 1 626 0
 1135 004e 0160     		str	r1, [r0, #0]
 1136              		.loc 1 629 0
 1137 0050 A263     		str	r2, [r4, #56]
 1138              		.loc 1 630 0
 1139 0052 40F22A32 		movw	r2, #810
 1140 0056 E263     		str	r2, [r4, #60]
 1141              		.loc 1 635 0
 1142 0058 A362     		str	r3, [r4, #40]
 1143              	.LVL98:
 1144              	.LBB37:
 1145              	.LBB38:
 1146              		.loc 1 92 0
 1147 005a 2B6B     		ldr	r3, [r5, #48]
 1148 005c D906     		lsls	r1, r3, #27
 1149              		.loc 1 93 0
 1150 005e 58BF     		it	pl
 1151 0060 7F02     		lslpl	r7, r7, #9
 1152              	.LVL99:
 1153              		.loc 1 95 0
 1154 0062 012E     		cmp	r6, #1
 1155              		.loc 1 638 0
 1156 0064 01AC     		add	r4, sp, #4
 1157              	.LVL100:
 1158              		.loc 1 97 0
 1159 0066 2846     		mov	r0, r5
 1160              		.loc 1 95 0
 1161 0068 1BD9     		bls	.L111
 1162              	.LVL101:
 1163              		.loc 1 97 0
 1164 006a 1221     		movs	r1, #18
 1165 006c 3A46     		mov	r2, r7
 1166 006e 2346     		mov	r3, r4
 1167 0070 FFF7FEFF 		bl	sdc_lld_send_cmd_short_crc
 1168              	.LVL102:
 1169 0074 E0B9     		cbnz	r0, .L114
 1170              	.L121:
 1171              		.loc 1 104 0
 1172 0076 4EF20803 		movw	r3, #57352
 1173 007a 019A     		ldr	r2, [sp, #4]
 1174 007c CFF6FF53 		movt	r3, 65023
 1175 0080 1340     		ands	r3, r3, r2
 1176 0082 ABB9     		cbnz	r3, .L114
 1177              	.LBE38:
 1178              	.LBE37:
 1179              		.loc 1 642 0
 1180 0084 4FF43053 		mov	r3, #11264
 1181 0088 C4F20103 		movt	r3, 16385
 1182 008c 9B22     		movs	r2, #155
 1183 008e DA62     		str	r2, [r3, #44]
 1184              		.loc 1 647 0
 1185 0090 2846     		mov	r0, r5
ARM GAS  /tmp/cc0rbmjy.s 			page 22


 1186 0092 3146     		mov	r1, r6
 1187 0094 2246     		mov	r2, r4
 1188 0096 FFF7FEFF 		bl	sdc_lld_wait_transaction_end
 1189              	.LVL103:
 1190 009a 0128     		cmp	r0, #1
 1191 009c 08D0     		beq	.L114
 1192              		.loc 1 650 0
 1193 009e 0020     		movs	r0, #0
 1194 00a0 C2E7     		b	.L120
 1195              	.LVL104:
 1196              	.L111:
 1197              	.LBB40:
 1198              	.LBB39:
 1199              		.loc 1 103 0
 1200 00a2 1121     		movs	r1, #17
 1201 00a4 3A46     		mov	r2, r7
 1202 00a6 2346     		mov	r3, r4
 1203 00a8 FFF7FEFF 		bl	sdc_lld_send_cmd_short_crc
 1204              	.LVL105:
 1205 00ac 0028     		cmp	r0, #0
 1206 00ae E2D0     		beq	.L121
 1207              	.L114:
 1208              	.LBE39:
 1209              	.LBE40:
 1210              		.loc 1 653 0
 1211 00b0 2846     		mov	r0, r5
 1212 00b2 3146     		mov	r1, r6
 1213 00b4 2246     		mov	r2, r4
 1214 00b6 FFF7FEFF 		bl	sdc_lld_error_cleanup
 1215              	.LVL106:
 1216              		.loc 1 654 0
 1217 00ba 0120     		movs	r0, #1
 1218 00bc B4E7     		b	.L120
 1219              	.LBE36:
 1220              	.LBE35:
 1221              		.cfi_endproc
 1222              	.LFE135:
 1223              		.size	sdc_lld_read_aligned, .-sdc_lld_read_aligned
 1224 00be 00BF     		.section	.text.sdc_lld_write_aligned,"ax",%progbits
 1225              		.align	2
 1226              		.p2align 4,,15
 1227              		.global	sdc_lld_write_aligned
 1228              		.thumb
 1229              		.thumb_func
 1230              		.type	sdc_lld_write_aligned, %function
 1231              	sdc_lld_write_aligned:
 1232              	.LFB136:
 1233              		.loc 1 672 0
 1234              		.cfi_startproc
 1235              		@ args = 0, pretend = 0, frame = 8
 1236              		@ frame_needed = 0, uses_anonymous_args = 0
 1237              	.LVL107:
 1238 0000 2DE9F041 		push	{r4, r5, r6, r7, r8, lr}
 1239              	.LCFI11:
 1240              		.cfi_def_cfa_offset 24
 1241              		.cfi_offset 4, -24
 1242              		.cfi_offset 5, -20
ARM GAS  /tmp/cc0rbmjy.s 			page 23


 1243              		.cfi_offset 6, -16
 1244              		.cfi_offset 7, -12
 1245              		.cfi_offset 8, -8
 1246              		.cfi_offset 14, -4
 1247              		.loc 1 677 0
 1248 0004 4FF43054 		mov	r4, #11264
 1249 0008 C4F20104 		movt	r4, 16385
 1250 000c 48F68055 		movw	r5, #36224
 1251 0010 C0F25B05 		movt	r5, 91
 1252              		.loc 1 672 0
 1253 0014 82B0     		sub	sp, sp, #8
 1254              	.LCFI12:
 1255              		.cfi_def_cfa_offset 32
 1256              		.loc 1 677 0
 1257 0016 6562     		str	r5, [r4, #36]
 1258              		.loc 1 672 0
 1259 0018 0F46     		mov	r7, r1
 1260 001a 0546     		mov	r5, r0
 1261 001c 9046     		mov	r8, r2
 1262 001e 1E46     		mov	r6, r3
 1263              		.loc 1 680 0
 1264 0020 FFF7FEFF 		bl	_sdc_wait_for_transfer_state
 1265              	.LVL108:
 1266 0024 18B1     		cbz	r0, .L137
 1267              		.loc 1 681 0
 1268 0026 0120     		movs	r0, #1
 1269              	.LVL109:
 1270              	.L135:
 1271              		.loc 1 716 0
 1272 0028 02B0     		add	sp, sp, #8
 1273 002a BDE8F081 		pop	{r4, r5, r6, r7, r8, pc}
 1274              	.LVL110:
 1275              	.L137:
 1276              	.LBB45:
 1277              	.LBB46:
 1278              		.loc 1 684 0
 1279 002e 6B6C     		ldr	r3, [r5, #68]
 1280              		.loc 1 687 0
 1281 0030 2A6C     		ldr	r2, [r5, #64]
 1282              		.loc 1 684 0
 1283 0032 1868     		ldr	r0, [r3, #0]
 1284              		.loc 1 685 0
 1285 0034 7302     		lsls	r3, r6, #9
 1286 0036 9908     		lsrs	r1, r3, #2
 1287              		.loc 1 687 0
 1288 0038 42F04002 		orr	r2, r2, #64
 1289              		.loc 1 684 0
 1290 003c C0F80C80 		str	r8, [r0, #12]
 1291              		.loc 1 685 0
 1292 0040 4160     		str	r1, [r0, #4]
 1293              		.loc 1 687 0
 1294 0042 0260     		str	r2, [r0, #0]
 1295              		.loc 1 688 0
 1296 0044 0168     		ldr	r1, [r0, #0]
 1297              		.loc 1 691 0
 1298 0046 40F2FF72 		movw	r2, #2047
 1299 004a C0F2C002 		movt	r2, 192
ARM GAS  /tmp/cc0rbmjy.s 			page 24


 1300              		.loc 1 688 0
 1301 004e 41F00101 		orr	r1, r1, #1
 1302 0052 0160     		str	r1, [r0, #0]
 1303              		.loc 1 691 0
 1304 0054 A263     		str	r2, [r4, #56]
 1305              		.loc 1 692 0
 1306 0056 40F21A32 		movw	r2, #794
 1307 005a E263     		str	r2, [r4, #60]
 1308              		.loc 1 697 0
 1309 005c A362     		str	r3, [r4, #40]
 1310              	.LVL111:
 1311              	.LBB47:
 1312              	.LBB48:
 1313              		.loc 1 130 0
 1314 005e 2B6B     		ldr	r3, [r5, #48]
 1315 0060 D806     		lsls	r0, r3, #27
 1316              		.loc 1 131 0
 1317 0062 58BF     		it	pl
 1318 0064 7F02     		lslpl	r7, r7, #9
 1319              	.LVL112:
 1320              		.loc 1 133 0
 1321 0066 012E     		cmp	r6, #1
 1322              		.loc 1 700 0
 1323 0068 01AC     		add	r4, sp, #4
 1324              	.LVL113:
 1325              		.loc 1 135 0
 1326 006a 2846     		mov	r0, r5
 1327              		.loc 1 133 0
 1328 006c 1BD9     		bls	.L126
 1329              	.LVL114:
 1330              		.loc 1 135 0
 1331 006e 1921     		movs	r1, #25
 1332 0070 3A46     		mov	r2, r7
 1333 0072 2346     		mov	r3, r4
 1334 0074 FFF7FEFF 		bl	sdc_lld_send_cmd_short_crc
 1335              	.LVL115:
 1336 0078 E0B9     		cbnz	r0, .L129
 1337              	.L136:
 1338              		.loc 1 142 0
 1339 007a 4EF20803 		movw	r3, #57352
 1340 007e 019A     		ldr	r2, [sp, #4]
 1341 0080 CFF6FF53 		movt	r3, 65023
 1342 0084 1340     		ands	r3, r3, r2
 1343 0086 ABB9     		cbnz	r3, .L129
 1344              	.LBE48:
 1345              	.LBE47:
 1346              		.loc 1 704 0
 1347 0088 4FF43053 		mov	r3, #11264
 1348 008c C4F20103 		movt	r3, 16385
 1349 0090 9922     		movs	r2, #153
 1350 0092 DA62     		str	r2, [r3, #44]
 1351              		.loc 1 708 0
 1352 0094 2846     		mov	r0, r5
 1353 0096 3146     		mov	r1, r6
 1354 0098 2246     		mov	r2, r4
 1355 009a FFF7FEFF 		bl	sdc_lld_wait_transaction_end
 1356              	.LVL116:
ARM GAS  /tmp/cc0rbmjy.s 			page 25


 1357 009e 0128     		cmp	r0, #1
 1358 00a0 08D0     		beq	.L129
 1359              		.loc 1 711 0
 1360 00a2 0020     		movs	r0, #0
 1361 00a4 C0E7     		b	.L135
 1362              	.LVL117:
 1363              	.L126:
 1364              	.LBB50:
 1365              	.LBB49:
 1366              		.loc 1 141 0
 1367 00a6 1821     		movs	r1, #24
 1368 00a8 3A46     		mov	r2, r7
 1369 00aa 2346     		mov	r3, r4
 1370 00ac FFF7FEFF 		bl	sdc_lld_send_cmd_short_crc
 1371              	.LVL118:
 1372 00b0 0028     		cmp	r0, #0
 1373 00b2 E2D0     		beq	.L136
 1374              	.L129:
 1375              	.LBE49:
 1376              	.LBE50:
 1377              		.loc 1 714 0
 1378 00b4 2846     		mov	r0, r5
 1379 00b6 3146     		mov	r1, r6
 1380 00b8 2246     		mov	r2, r4
 1381 00ba FFF7FEFF 		bl	sdc_lld_error_cleanup
 1382              	.LVL119:
 1383              		.loc 1 715 0
 1384 00be 0120     		movs	r0, #1
 1385 00c0 B2E7     		b	.L135
 1386              	.LBE46:
 1387              	.LBE45:
 1388              		.cfi_endproc
 1389              	.LFE136:
 1390              		.size	sdc_lld_write_aligned, .-sdc_lld_write_aligned
 1391 00c2 00BFAFF3 		.section	.text.sdc_lld_read,"ax",%progbits
 1391      0080AFF3 
 1391      0080AFF3 
 1391      0080
 1392              		.align	2
 1393              		.p2align 4,,15
 1394              		.global	sdc_lld_read
 1395              		.thumb
 1396              		.thumb_func
 1397              		.type	sdc_lld_read, %function
 1398              	sdc_lld_read:
 1399              	.LFB137:
 1400              		.loc 1 733 0
 1401              		.cfi_startproc
 1402              		@ args = 0, pretend = 0, frame = 0
 1403              		@ frame_needed = 0, uses_anonymous_args = 0
 1404              	.LVL120:
 1405              		.loc 1 736 0
 1406 0000 12F0030F 		tst	r2, #3
 1407              		.loc 1 733 0
 1408 0004 2DE9F041 		push	{r4, r5, r6, r7, r8, lr}
 1409              	.LCFI13:
 1410              		.cfi_def_cfa_offset 24
ARM GAS  /tmp/cc0rbmjy.s 			page 26


 1411              		.cfi_offset 4, -24
 1412              		.cfi_offset 5, -20
 1413              		.cfi_offset 6, -16
 1414              		.cfi_offset 7, -12
 1415              		.cfi_offset 8, -8
 1416              		.cfi_offset 14, -4
 1417              		.loc 1 733 0
 1418 0008 1546     		mov	r5, r2
 1419 000a 0646     		mov	r6, r0
 1420 000c 0C46     		mov	r4, r1
 1421 000e 1F46     		mov	r7, r3
 1422              		.loc 1 736 0
 1423 0010 1BD0     		beq	.L139
 1424              	.LVL121:
 1425              	.LBB51:
 1426              		.loc 1 738 0 discriminator 1
 1427 0012 BBB1     		cbz	r3, .L143
 1428              		.loc 1 732 0
 1429 0014 5F18     		adds	r7, r3, r1
 1430 0016 06E0     		b	.L142
 1431              	.LVL122:
 1432              	.L146:
 1433              		.loc 1 741 0
 1434 0018 2846     		mov	r0, r5
 1435 001a FFF7FEFF 		bl	memcpy
 1436              	.LVL123:
 1437              		.loc 1 738 0
 1438 001e BC42     		cmp	r4, r7
 1439              		.loc 1 742 0
 1440 0020 05F50075 		add	r5, r5, #512
 1441              	.LVL124:
 1442              		.loc 1 738 0
 1443 0024 0ED0     		beq	.L143
 1444              	.L142:
 1445              		.loc 1 739 0
 1446 0026 2146     		mov	r1, r4
 1447 0028 0A4A     		ldr	r2, .L147
 1448 002a 0123     		movs	r3, #1
 1449 002c 3046     		mov	r0, r6
 1450              		.loc 1 743 0
 1451 002e E418     		adds	r4, r4, r3
 1452              	.LVL125:
 1453              		.loc 1 739 0
 1454 0030 FFF7FEFF 		bl	sdc_lld_read_aligned
 1455              	.LVL126:
 1456              		.loc 1 741 0
 1457 0034 0749     		ldr	r1, .L147
 1458 0036 4FF40072 		mov	r2, #512
 1459              		.loc 1 739 0
 1460 003a 0028     		cmp	r0, #0
 1461 003c ECD0     		beq	.L146
 1462              		.loc 1 740 0
 1463 003e 0120     		movs	r0, #1
 1464              	.LBE51:
 1465              		.loc 1 749 0
 1466 0040 BDE8F081 		pop	{r4, r5, r6, r7, r8, pc}
 1467              	.LVL127:
ARM GAS  /tmp/cc0rbmjy.s 			page 27


 1468              	.L143:
 1469              	.LBB52:
 1470              		.loc 1 745 0
 1471 0044 0020     		movs	r0, #0
 1472 0046 BDE8F081 		pop	{r4, r5, r6, r7, r8, pc}
 1473              	.LVL128:
 1474              	.L139:
 1475              	.LBE52:
 1476              		.loc 1 749 0
 1477 004a BDE8F041 		pop	{r4, r5, r6, r7, r8, lr}
 1478              		.loc 1 748 0
 1479 004e FFF7FEBF 		b	sdc_lld_read_aligned
 1480              	.LVL129:
 1481              	.L148:
 1482 0052 00BF     		.align	2
 1483              	.L147:
 1484 0054 00000000 		.word	.LANCHOR1
 1485              		.cfi_endproc
 1486              	.LFE137:
 1487              		.size	sdc_lld_read, .-sdc_lld_read
 1488 0058 AFF30080 		.section	.text.sdc_lld_write,"ax",%progbits
 1488      AFF30080 
 1489              		.align	2
 1490              		.p2align 4,,15
 1491              		.global	sdc_lld_write
 1492              		.thumb
 1493              		.thumb_func
 1494              		.type	sdc_lld_write, %function
 1495              	sdc_lld_write:
 1496              	.LFB138:
 1497              		.loc 1 766 0
 1498              		.cfi_startproc
 1499              		@ args = 0, pretend = 0, frame = 0
 1500              		@ frame_needed = 0, uses_anonymous_args = 0
 1501              	.LVL130:
 1502              		.loc 1 769 0
 1503 0000 12F0030F 		tst	r2, #3
 1504              		.loc 1 766 0
 1505 0004 2DE9F041 		push	{r4, r5, r6, r7, r8, lr}
 1506              	.LCFI14:
 1507              		.cfi_def_cfa_offset 24
 1508              		.cfi_offset 4, -24
 1509              		.cfi_offset 5, -20
 1510              		.cfi_offset 6, -16
 1511              		.cfi_offset 7, -12
 1512              		.cfi_offset 8, -8
 1513              		.cfi_offset 14, -4
 1514              		.loc 1 766 0
 1515 0008 1546     		mov	r5, r2
 1516 000a 0646     		mov	r6, r0
 1517 000c 0C46     		mov	r4, r1
 1518 000e 1F46     		mov	r7, r3
 1519              		.loc 1 769 0
 1520 0010 1BD0     		beq	.L150
 1521              	.LVL131:
 1522              	.LBB53:
 1523              		.loc 1 771 0 discriminator 1
ARM GAS  /tmp/cc0rbmjy.s 			page 28


 1524 0012 BBB1     		cbz	r3, .L154
 1525              		.loc 1 765 0
 1526 0014 5F18     		adds	r7, r3, r1
 1527 0016 01E0     		b	.L153
 1528              	.LVL132:
 1529              	.L157:
 1530              		.loc 1 771 0
 1531 0018 BC42     		cmp	r4, r7
 1532 001a 13D0     		beq	.L154
 1533              	.L153:
 1534              		.loc 1 772 0
 1535 001c 2946     		mov	r1, r5
 1536 001e 4FF40072 		mov	r2, #512
 1537 0022 0C48     		ldr	r0, .L158
 1538 0024 FFF7FEFF 		bl	memcpy
 1539              	.LVL133:
 1540              		.loc 1 774 0
 1541 0028 2146     		mov	r1, r4
 1542 002a 0123     		movs	r3, #1
 1543 002c 3046     		mov	r0, r6
 1544 002e 094A     		ldr	r2, .L158
 1545              		.loc 1 776 0
 1546 0030 E418     		adds	r4, r4, r3
 1547              	.LVL134:
 1548              		.loc 1 773 0
 1549 0032 05F50075 		add	r5, r5, #512
 1550              	.LVL135:
 1551              		.loc 1 774 0
 1552 0036 FFF7FEFF 		bl	sdc_lld_write_aligned
 1553              	.LVL136:
 1554 003a 0028     		cmp	r0, #0
 1555 003c ECD0     		beq	.L157
 1556              		.loc 1 775 0
 1557 003e 0120     		movs	r0, #1
 1558              	.LBE53:
 1559              		.loc 1 782 0
 1560 0040 BDE8F081 		pop	{r4, r5, r6, r7, r8, pc}
 1561              	.L154:
 1562              	.LBB54:
 1563              		.loc 1 778 0
 1564 0044 0020     		movs	r0, #0
 1565 0046 BDE8F081 		pop	{r4, r5, r6, r7, r8, pc}
 1566              	.LVL137:
 1567              	.L150:
 1568              	.LBE54:
 1569              		.loc 1 782 0
 1570 004a BDE8F041 		pop	{r4, r5, r6, r7, r8, lr}
 1571              		.loc 1 781 0
 1572 004e FFF7FEBF 		b	sdc_lld_write_aligned
 1573              	.LVL138:
 1574              	.L159:
 1575 0052 00BF     		.align	2
 1576              	.L158:
 1577 0054 00000000 		.word	.LANCHOR1
 1578              		.cfi_endproc
 1579              	.LFE138:
 1580              		.size	sdc_lld_write, .-sdc_lld_write
ARM GAS  /tmp/cc0rbmjy.s 			page 29


 1581 0058 AFF30080 		.section	.text.sdc_lld_sync,"ax",%progbits
 1581      AFF30080 
 1582              		.align	2
 1583              		.p2align 4,,15
 1584              		.global	sdc_lld_sync
 1585              		.thumb
 1586              		.thumb_func
 1587              		.type	sdc_lld_sync, %function
 1588              	sdc_lld_sync:
 1589              	.LFB139:
 1590              		.loc 1 795 0
 1591              		.cfi_startproc
 1592              		@ args = 0, pretend = 0, frame = 0
 1593              		@ frame_needed = 0, uses_anonymous_args = 0
 1594              		@ link register save eliminated.
 1595              	.LVL139:
 1596              		.loc 1 800 0
 1597 0000 0020     		movs	r0, #0
 1598              	.LVL140:
 1599 0002 7047     		bx	lr
 1600              		.cfi_endproc
 1601              	.LFE139:
 1602              		.size	sdc_lld_sync, .-sdc_lld_sync
 1603              		.global	SDCD1
 1604 0004 AFF30080 		.section	.bss.SDCD1,"aw",%nobits
 1604      AFF30080 
 1604      AFF30080 
 1605              		.align	2
 1606              		.set	.LANCHOR0,. + 0
 1607              		.type	SDCD1, %object
 1608              		.size	SDCD1, 72
 1609              	SDCD1:
 1610 0000 00000000 		.space	72
 1610      00000000 
 1610      00000000 
 1610      00000000 
 1610      00000000 
 1611              		.section	.bss.u,"aw",%nobits
 1612              		.align	2
 1613              		.set	.LANCHOR1,. + 0
 1614              		.type	u, %object
 1615              		.size	u, 512
 1616              	u:
 1617 0000 00000000 		.space	512
 1617      00000000 
 1617      00000000 
 1617      00000000 
 1617      00000000 
 1618              		.text
 1619              	.Letext0:
 1620              		.file 2 "/opt/psas/x-tools/stm32f407/arm-psas-eabi/bin/../lib/gcc/arm-psas-eabi/4.7.2/../../../../
 1621              		.file 3 "../../os/ports/GCC/ARMCMx/chtypes.h"
 1622              		.file 4 "../../os/kernel/include/chlists.h"
 1623              		.file 5 "../../os/kernel/include/chthreads.h"
 1624              		.file 6 "../../os/ports/GCC/ARMCMx/chcore_v7m.h"
 1625              		.file 7 "../../os/kernel/include/chschd.h"
 1626              		.file 8 "../../os/kernel/include/chmtx.h"
ARM GAS  /tmp/cc0rbmjy.s 			page 30


 1627              		.file 9 "../../os/hal/platforms/STM32F4xx/stm32f4xx.h"
 1628              		.file 10 "../../os/hal/platforms/STM32F4xx/stm32_dma.h"
 1629              		.file 11 "../../os/hal/include/io_block.h"
 1630              		.file 12 "../../os/hal/platforms/STM32/sdc_lld.h"
 1631              		.file 13 "../../os/ports/common/ARMCMx/CMSIS/include/core_cm4.h"
 1632              		.file 14 "../../os/hal/include/sdc.h"
 1633              		.file 15 "../../os/ports/common/ARMCMx/nvic.h"