ARM GAS  /tmp/cc3KYgGM.s 			page 1


   1              		.syntax unified
   2              		.cpu cortex-m4
   3              		.eabi_attribute 27, 3
   4              		.eabi_attribute 28, 1
   5              		.fpu fpv4-sp-d16
   6              		.eabi_attribute 20, 1
   7              		.eabi_attribute 21, 1
   8              		.eabi_attribute 23, 3
   9              		.eabi_attribute 24, 1
  10              		.eabi_attribute 25, 1
  11              		.eabi_attribute 26, 1
  12              		.eabi_attribute 30, 2
  13              		.eabi_attribute 34, 1
  14              		.eabi_attribute 18, 4
  15              		.thumb
  16              		.file	"serial_lld.c"
  17              		.text
  18              	.Ltext0:
  19              		.cfi_sections	.debug_frame
  20              		.section	.text.notify6,"ax",%progbits
  21              		.align	2
  22              		.p2align 4,,15
  23              		.thumb
  24              		.thumb_func
  25              		.type	notify6, %function
  26              	notify6:
  27              	.LFB122:
  28              		.file 1 "../../os/hal/platforms/STM32/USARTv1/serial_lld.c"
  29              		.loc 1 242 0
  30              		.cfi_startproc
  31              		@ args = 0, pretend = 0, frame = 0
  32              		@ frame_needed = 0, uses_anonymous_args = 0
  33              		@ link register save eliminated.
  34              	.LVL0:
  35              		.loc 1 245 0
  36 0000 4FF4A053 		mov	r3, #5120
  37 0004 C4F20103 		movt	r3, 16385
  38 0008 9A89     		ldrh	r2, [r3, #12]
  39 000a 92B2     		uxth	r2, r2
  40 000c 42F08002 		orr	r2, r2, #128
  41 0010 9A81     		strh	r2, [r3, #12]	@ movhi
  42 0012 7047     		bx	lr
  43              		.cfi_endproc
  44              	.LFE122:
  45              		.size	notify6, .-notify6
  46              		.section	.text.Vector15C,"ax",%progbits
  47              		.align	2
  48              		.p2align 4,,15
  49              		.global	Vector15C
  50              		.thumb
  51              		.thumb_func
  52              		.type	Vector15C, %function
  53              	Vector15C:
  54              	.LFB123:
  55              		.loc 1 357 0
  56              		.cfi_startproc
  57              		@ args = 0, pretend = 0, frame = 0
ARM GAS  /tmp/cc3KYgGM.s 			page 2


  58              		@ frame_needed = 0, uses_anonymous_args = 0
  59              	.LVL1:
  60 0000 F8B5     		push	{r3, r4, r5, r6, r7, lr}
  61              	.LCFI0:
  62              		.cfi_def_cfa_offset 24
  63              		.cfi_offset 3, -24
  64              		.cfi_offset 4, -20
  65              		.cfi_offset 5, -16
  66              		.cfi_offset 6, -12
  67              		.cfi_offset 7, -8
  68              		.cfi_offset 14, -4
  69              	.LBB30:
  70              	.LBB31:
  71              		.loc 1 157 0
  72 0002 484B     		ldr	r3, .L48
  73 0004 5D6F     		ldr	r5, [r3, #116]
  74              	.LVL2:
  75              		.loc 1 158 0
  76 0006 AE89     		ldrh	r6, [r5, #12]
  77              		.loc 1 159 0
  78 0008 2C88     		ldrh	r4, [r5, #0]
  79              		.loc 1 160 0
  80 000a A988     		ldrh	r1, [r5, #4]
  81              		.loc 1 159 0
  82 000c A4B2     		uxth	r4, r4
  83              		.loc 1 163 0
  84 000e 2207     		lsls	r2, r4, #28
  85              		.loc 1 158 0
  86 0010 B6B2     		uxth	r6, r6
  87              	.LVL3:
  88              		.loc 1 160 0
  89 0012 8FB2     		uxth	r7, r1
  90              	.LVL4:
  91              		.loc 1 163 0
  92 0014 4BD1     		bne	.L43
  93              	.LVL5:
  94              	.L3:
  95              		.loc 1 166 0
  96 0016 04F48073 		and	r3, r4, #256
  97              	.LVL6:
  98 001a 9BB2     		uxth	r3, r3
  99 001c 002B     		cmp	r3, #0
 100 001e 34D1     		bne	.L44
 101              	.L8:
 102              		.loc 1 173 0
 103 0020 04F02003 		and	r3, r4, #32
 104 0024 9BB2     		uxth	r3, r3
 105 0026 002B     		cmp	r3, #0
 106 0028 24D1     		bne	.L45
 107              	.LVL7:
 108              	.L9:
 109              		.loc 1 179 0
 110 002a 06F08003 		and	r3, r6, #128
 111              	.LVL8:
 112 002e 9BB2     		uxth	r3, r3
 113 0030 23B1     		cbz	r3, .L10
 114 0032 04F08003 		and	r3, r4, #128
ARM GAS  /tmp/cc3KYgGM.s 			page 3


 115 0036 9BB2     		uxth	r3, r3
 116 0038 002B     		cmp	r3, #0
 117 003a 59D1     		bne	.L46
 118              	.LVL9:
 119              	.L10:
 120              		.loc 1 192 0
 121 003c 04F04004 		and	r4, r4, #64
 122              	.LVL10:
 123 0040 A4B2     		uxth	r4, r4
 124 0042 9CB1     		cbz	r4, .L13
 125              	.LBB32:
 126              		.loc 1 193 0
 127 0044 2023     		movs	r3, #32
 128              	.LVL11:
 129              	@ 193 "../../os/hal/platforms/STM32/USARTv1/serial_lld.c" 1
 130 0046 83F31188 		msr     BASEPRI, r3
 131              	@ 0 "" 2
 132              	.LVL12:
 133              		.thumb
 134              	.LBE32:
 135              		.loc 1 194 0
 136 004a 3748     		ldr	r0, .L48+4
 137 004c 1021     		movs	r1, #16
 138 004e FFF7FEFF 		bl	chEvtBroadcastFlagsI
 139              	.LVL13:
 140              	.LBB33:
 141              		.loc 1 195 0
 142 0052 0023     		movs	r3, #0
 143              	.LVL14:
 144              	@ 195 "../../os/hal/platforms/STM32/USARTv1/serial_lld.c" 1
 145 0054 83F31188 		msr     BASEPRI, r3
 146              	@ 0 "" 2
 147              	.LVL15:
 148              		.thumb
 149              	.LBE33:
 150              		.loc 1 196 0
 151 0058 4FF6BF73 		movw	r3, #65471
 152              	.LVL16:
 153 005c 3340     		ands	r3, r3, r6
 154 005e AB81     		strh	r3, [r5, #12]	@ movhi
 155              		.loc 1 197 0
 156 0060 2B88     		ldrh	r3, [r5, #0]
 157 0062 23F04003 		bic	r3, r3, #64
 158 0066 1B04     		lsls	r3, r3, #16
 159 0068 1B0C     		lsrs	r3, r3, #16
 160 006a 2B80     		strh	r3, [r5, #0]	@ movhi
 161              	.LVL17:
 162              	.L13:
 163              	.LBE31:
 164              	.LBE30:
 165              		.loc 1 364 0
 166 006c BDE8F840 		pop	{r3, r4, r5, r6, r7, lr}
 167              		.loc 1 363 0
 168 0070 FFF7FEBF 		b	_port_irq_epilogue
 169              	.LVL18:
 170              	.L45:
 171              	.LBB46:
ARM GAS  /tmp/cc3KYgGM.s 			page 4


 172              	.LBB45:
 173              	.LBB34:
 174              		.loc 1 174 0
 175 0074 2023     		movs	r3, #32
 176              	.LVL19:
 177              	@ 174 "../../os/hal/platforms/STM32/USARTv1/serial_lld.c" 1
 178 0076 83F31188 		msr     BASEPRI, r3
 179              	@ 0 "" 2
 180              	.LVL20:
 181              		.thumb
 182              	.LBE34:
 183              		.loc 1 175 0
 184 007a 2A48     		ldr	r0, .L48
 185 007c F9B2     		uxtb	r1, r7
 186 007e FFF7FEFF 		bl	sdIncomingDataI
 187              	.LVL21:
 188              	.LBB35:
 189              		.loc 1 176 0
 190 0082 0023     		movs	r3, #0
 191              	@ 176 "../../os/hal/platforms/STM32/USARTv1/serial_lld.c" 1
 192 0084 83F31188 		msr     BASEPRI, r3
 193              	@ 0 "" 2
 194              	.LVL22:
 195              		.thumb
 196 0088 CFE7     		b	.L9
 197              	.LVL23:
 198              	.L44:
 199              	.LBE35:
 200              	.LBB36:
 201              		.loc 1 167 0
 202 008a 2023     		movs	r3, #32
 203              	.LVL24:
 204              	@ 167 "../../os/hal/platforms/STM32/USARTv1/serial_lld.c" 1
 205 008c 83F31188 		msr     BASEPRI, r3
 206              	@ 0 "" 2
 207              	.LVL25:
 208              		.thumb
 209              	.LBE36:
 210              		.loc 1 168 0
 211 0090 2548     		ldr	r0, .L48+4
 212 0092 4FF40071 		mov	r1, #512
 213 0096 FFF7FEFF 		bl	chEvtBroadcastFlagsI
 214              	.LVL26:
 215              	.LBB37:
 216              		.loc 1 169 0
 217 009a 0023     		movs	r3, #0
 218              	.LVL27:
 219              	@ 169 "../../os/hal/platforms/STM32/USARTv1/serial_lld.c" 1
 220 009c 83F31188 		msr     BASEPRI, r3
 221              	@ 0 "" 2
 222              	.LVL28:
 223              		.thumb
 224              	.LBE37:
 225              		.loc 1 170 0
 226 00a0 2B88     		ldrh	r3, [r5, #0]
 227              	.LVL29:
 228 00a2 23F48073 		bic	r3, r3, #256
ARM GAS  /tmp/cc3KYgGM.s 			page 5


 229 00a6 1B04     		lsls	r3, r3, #16
 230 00a8 1B0C     		lsrs	r3, r3, #16
 231 00aa 2B80     		strh	r3, [r5, #0]	@ movhi
 232 00ac B8E7     		b	.L8
 233              	.LVL30:
 234              	.L43:
 235              	.LBB38:
 236              	.LBB39:
 237              		.loc 1 138 0
 238 00ae 04F00801 		and	r1, r4, #8
 239              	.LVL31:
 240 00b2 89B2     		uxth	r1, r1
 241              		.loc 1 139 0
 242 00b4 0029     		cmp	r1, #0
 243 00b6 14BF     		ite	ne
 244 00b8 8021     		movne	r1, #128
 245 00ba 0021     		moveq	r1, #0
 246              	.LVL32:
 247              		.loc 1 140 0
 248 00bc E307     		lsls	r3, r4, #31
 249              		.loc 1 142 0
 250 00be 04F00203 		and	r3, r4, #2
 251 00c2 9BB2     		uxth	r3, r3
 252              		.loc 1 141 0
 253 00c4 48BF     		it	mi
 254 00c6 41F02001 		orrmi	r1, r1, #32
 255              	.LVL33:
 256              		.loc 1 142 0
 257 00ca 0BB1     		cbz	r3, .L6
 258              		.loc 1 143 0
 259 00cc 41F04001 		orr	r1, r1, #64
 260              	.LVL34:
 261              	.L6:
 262              		.loc 1 144 0
 263 00d0 04F00403 		and	r3, r4, #4
 264 00d4 9BB2     		uxth	r3, r3
 265 00d6 0BB1     		cbz	r3, .L7
 266              		.loc 1 145 0
 267 00d8 41F48071 		orr	r1, r1, #256
 268              	.LVL35:
 269              	.L7:
 270              	.LBB40:
 271              		.loc 1 146 0
 272 00dc 2023     		movs	r3, #32
 273              	.LVL36:
 274              	@ 146 "../../os/hal/platforms/STM32/USARTv1/serial_lld.c" 1
 275 00de 83F31188 		msr     BASEPRI, r3
 276              	@ 0 "" 2
 277              	.LVL37:
 278              		.thumb
 279              	.LBE40:
 280              		.loc 1 147 0
 281 00e2 1148     		ldr	r0, .L48+4
 282 00e4 FFF7FEFF 		bl	chEvtBroadcastFlagsI
 283              	.LVL38:
 284              	.LBB41:
 285              		.loc 1 148 0
ARM GAS  /tmp/cc3KYgGM.s 			page 6


 286 00e8 0023     		movs	r3, #0
 287              	@ 148 "../../os/hal/platforms/STM32/USARTv1/serial_lld.c" 1
 288 00ea 83F31188 		msr     BASEPRI, r3
 289              	@ 0 "" 2
 290              	.LVL39:
 291              		.thumb
 292 00ee 92E7     		b	.L3
 293              	.LVL40:
 294              	.L46:
 295              	.LBE41:
 296              	.LBE39:
 297              	.LBE38:
 298              	.LBB42:
 299              	.LBB43:
 300              		.loc 1 181 0
 301 00f0 2023     		movs	r3, #32
 302              	.LVL41:
 303              	@ 181 "../../os/hal/platforms/STM32/USARTv1/serial_lld.c" 1
 304 00f2 83F31188 		msr     BASEPRI, r3
 305              	@ 0 "" 2
 306              	.LVL42:
 307              		.thumb
 308              	.LBE43:
 309              		.loc 1 182 0
 310 00f6 0D48     		ldr	r0, .L48+8
 311 00f8 FFF7FEFF 		bl	chOQGetI
 312              	.LVL43:
 313              		.loc 1 183 0
 314 00fc 0028     		cmp	r0, #0
 315              		.loc 1 188 0
 316 00fe A4BF     		itt	ge
 317 0100 80B2     		uxthge	r0, r0
 318              	.LVL44:
 319 0102 A880     		strhge	r0, [r5, #4]	@ movhi
 320              		.loc 1 183 0
 321 0104 03DB     		blt	.L47
 322              	.L12:
 323              	.LBB44:
 324              		.loc 1 189 0
 325 0106 0023     		movs	r3, #0
 326              	@ 189 "../../os/hal/platforms/STM32/USARTv1/serial_lld.c" 1
 327 0108 83F31188 		msr     BASEPRI, r3
 328              	@ 0 "" 2
 329              	.LVL45:
 330              		.thumb
 331 010c 96E7     		b	.L10
 332              	.LVL46:
 333              	.L47:
 334              	.LBE44:
 335              		.loc 1 184 0
 336 010e 0648     		ldr	r0, .L48+4
 337 0110 0821     		movs	r1, #8
 338 0112 FFF7FEFF 		bl	chEvtBroadcastFlagsI
 339              	.LVL47:
 340              		.loc 1 185 0
 341 0116 26F0C003 		bic	r3, r6, #192
 342 011a 43F04003 		orr	r3, r3, #64
ARM GAS  /tmp/cc3KYgGM.s 			page 7


 343 011e AB81     		strh	r3, [r5, #12]	@ movhi
 344 0120 F1E7     		b	.L12
 345              	.L49:
 346 0122 00BF     		.align	2
 347              	.L48:
 348 0124 00000000 		.word	.LANCHOR0
 349 0128 04000000 		.word	.LANCHOR0+4
 350 012c 30000000 		.word	.LANCHOR0+48
 351              	.LBE42:
 352              	.LBE45:
 353              	.LBE46:
 354              		.cfi_endproc
 355              	.LFE123:
 356              		.size	Vector15C, .-Vector15C
 357              		.section	.text.sd_lld_init,"ax",%progbits
 358              		.align	2
 359              		.p2align 4,,15
 360              		.global	sd_lld_init
 361              		.thumb
 362              		.thumb_func
 363              		.type	sd_lld_init, %function
 364              	sd_lld_init:
 365              	.LFB124:
 366              		.loc 1 376 0
 367              		.cfi_startproc
 368              		@ args = 0, pretend = 0, frame = 0
 369              		@ frame_needed = 0, uses_anonymous_args = 0
 370 0000 10B5     		push	{r4, lr}
 371              	.LCFI1:
 372              		.cfi_def_cfa_offset 8
 373              		.cfi_offset 4, -8
 374              		.cfi_offset 14, -4
 375              		.loc 1 404 0
 376 0002 40F20004 		movw	r4, #:lower16:.LANCHOR0
 377 0006 C0F20004 		movt	r4, #:upper16:.LANCHOR0
 378 000a 40F20002 		movw	r2, #:lower16:notify6
 379 000e 2046     		mov	r0, r4
 380 0010 0021     		movs	r1, #0
 381 0012 C0F20002 		movt	r2, #:upper16:notify6
 382 0016 FFF7FEFF 		bl	sdObjectInit
 383              	.LVL48:
 384              		.loc 1 405 0
 385 001a 4FF4A053 		mov	r3, #5120
 386 001e C4F20103 		movt	r3, 16385
 387 0022 6367     		str	r3, [r4, #116]
 388 0024 10BD     		pop	{r4, pc}
 389              		.cfi_endproc
 390              	.LFE124:
 391              		.size	sd_lld_init, .-sd_lld_init
 392 0026 00BFAFF3 		.section	.text.sd_lld_start,"ax",%progbits
 392      0080AFF3 
 392      0080
 393              		.align	2
 394              		.p2align 4,,15
 395              		.global	sd_lld_start
 396              		.thumb
 397              		.thumb_func
ARM GAS  /tmp/cc3KYgGM.s 			page 8


 398              		.type	sd_lld_start, %function
 399              	sd_lld_start:
 400              	.LFB125:
 401              		.loc 1 419 0
 402              		.cfi_startproc
 403              		@ args = 0, pretend = 0, frame = 0
 404              		@ frame_needed = 0, uses_anonymous_args = 0
 405              	.LVL49:
 406 0000 38B5     		push	{r3, r4, r5, lr}
 407              	.LCFI2:
 408              		.cfi_def_cfa_offset 16
 409              		.cfi_offset 3, -16
 410              		.cfi_offset 4, -12
 411              		.cfi_offset 5, -8
 412              		.cfi_offset 14, -4
 413              		.loc 1 424 0
 414 0002 037A     		ldrb	r3, [r0, #8]	@ zero_extendqisi2
 415              		.loc 1 422 0
 416 0004 234C     		ldr	r4, .L58
 417 0006 0029     		cmp	r1, #0
 418 0008 18BF     		it	ne
 419 000a 0C46     		movne	r4, r1
 420              	.LVL50:
 421              		.loc 1 424 0
 422 000c 012B     		cmp	r3, #1
 423              		.loc 1 419 0
 424 000e 0546     		mov	r5, r0
 425              		.loc 1 424 0
 426 0010 30D0     		beq	.L57
 427              	.LVL51:
 428              	.L53:
 429              	.LBB49:
 430              	.LBB50:
 431              		.loc 1 93 0
 432 0012 6B6F     		ldr	r3, [r5, #116]
 433              	.LVL52:
 434              		.loc 1 97 0
 435 0014 4FF4A051 		mov	r1, #5120
 436 0018 4FF48052 		mov	r2, #4096
 437 001c C4F20102 		movt	r2, 16385
 438 0020 C4F20101 		movt	r1, 16385
 439 0024 9342     		cmp	r3, r2
 440 0026 18BF     		it	ne
 441 0028 8B42     		cmpne	r3, r1
 442              		.loc 1 101 0
 443 002a 08BF     		it	eq
 444 002c 4FF43D42 		moveq	r2, #48384
 445 0030 2168     		ldr	r1, [r4, #0]
 446              		.loc 1 103 0
 447 0032 16BF     		itet	ne
 448 0034 4DF68062 		movwne	r2, #56960
 449              		.loc 1 101 0
 450 0038 C0F20152 		movteq	r2, 1281
 451              		.loc 1 103 0
 452 003c C0F28022 		movtne	r2, 640
 453 0040 B2FBF1F2 		udiv	r2, r2, r1
 454 0044 92B2     		uxth	r2, r2
ARM GAS  /tmp/cc3KYgGM.s 			page 9


 455 0046 1A81     		strh	r2, [r3, #8]	@ movhi
 456              		.loc 1 108 0
 457 0048 A288     		ldrh	r2, [r4, #4]
 458              		.loc 1 106 0
 459 004a E088     		ldrh	r0, [r4, #6]
 460              		.loc 1 107 0
 461 004c 2189     		ldrh	r1, [r4, #8]
 462              		.loc 1 108 0
 463 004e 42F40452 		orr	r2, r2, #8448
 464              		.loc 1 106 0
 465 0052 40F04000 		orr	r0, r0, #64
 466              		.loc 1 107 0
 467 0056 41F00101 		orr	r1, r1, #1
 468              		.loc 1 108 0
 469 005a 42F02C02 		orr	r2, r2, #44
 470 005e 92B2     		uxth	r2, r2
 471              		.loc 1 106 0
 472 0060 80B2     		uxth	r0, r0
 473              		.loc 1 107 0
 474 0062 89B2     		uxth	r1, r1
 475              		.loc 1 106 0
 476 0064 1882     		strh	r0, [r3, #16]	@ movhi
 477              		.loc 1 107 0
 478 0066 9982     		strh	r1, [r3, #20]	@ movhi
 479              		.loc 1 108 0
 480 0068 9A81     		strh	r2, [r3, #12]	@ movhi
 481              		.loc 1 111 0
 482 006a 0022     		movs	r2, #0
 483 006c 1A80     		strh	r2, [r3, #0]	@ movhi
 484              		.loc 1 112 0
 485 006e 1A88     		ldrh	r2, [r3, #0]
 486              		.loc 1 113 0
 487 0070 9B88     		ldrh	r3, [r3, #4]
 488              	.LVL53:
 489 0072 38BD     		pop	{r3, r4, r5, pc}
 490              	.LVL54:
 491              	.L57:
 492              	.LBE50:
 493              	.LBE49:
 494              		.loc 1 461 0
 495 0074 084B     		ldr	r3, .L58+4
 496 0076 9842     		cmp	r0, r3
 497 0078 CBD1     		bne	.L53
 498              		.loc 1 462 0
 499 007a 4FF46053 		mov	r3, #14336
 500 007e C4F20203 		movt	r3, 16386
 501              		.loc 1 463 0
 502 0082 4720     		movs	r0, #71
 503              	.LVL55:
 504              		.loc 1 462 0
 505 0084 5A6C     		ldr	r2, [r3, #68]
 506 0086 42F02002 		orr	r2, r2, #32
 507 008a 5A64     		str	r2, [r3, #68]
 508              		.loc 1 463 0
 509 008c C021     		movs	r1, #192
 510 008e FFF7FEFF 		bl	nvicEnableVector
 511              	.LVL56:
ARM GAS  /tmp/cc3KYgGM.s 			page 10


 512 0092 BEE7     		b	.L53
 513              	.L59:
 514              		.align	2
 515              	.L58:
 516 0094 00000000 		.word	.LANCHOR1
 517 0098 00000000 		.word	.LANCHOR0
 518              		.cfi_endproc
 519              	.LFE125:
 520              		.size	sd_lld_start, .-sd_lld_start
 521 009c AFF30080 		.section	.text.sd_lld_stop,"ax",%progbits
 522              		.align	2
 523              		.p2align 4,,15
 524              		.global	sd_lld_stop
 525              		.thumb
 526              		.thumb_func
 527              		.type	sd_lld_stop, %function
 528              	sd_lld_stop:
 529              	.LFB126:
 530              		.loc 1 480 0
 531              		.cfi_startproc
 532              		@ args = 0, pretend = 0, frame = 0
 533              		@ frame_needed = 0, uses_anonymous_args = 0
 534              		@ link register save eliminated.
 535              	.LVL57:
 536              		.loc 1 482 0
 537 0000 037A     		ldrb	r3, [r0, #8]	@ zero_extendqisi2
 538 0002 022B     		cmp	r3, #2
 539 0004 00D0     		beq	.L64
 540              	.L60:
 541 0006 7047     		bx	lr
 542              	.L64:
 543              		.loc 1 483 0
 544 0008 436F     		ldr	r3, [r0, #116]
 545              	.LVL58:
 546              	.LBB51:
 547              	.LBB52:
 548              		.loc 1 124 0
 549 000a 0022     		movs	r2, #0
 550 000c 9A81     		strh	r2, [r3, #12]	@ movhi
 551              		.loc 1 125 0
 552 000e 1A82     		strh	r2, [r3, #16]	@ movhi
 553              		.loc 1 126 0
 554 0010 9A82     		strh	r2, [r3, #20]	@ movhi
 555              	.LBE52:
 556              	.LBE51:
 557              		.loc 1 520 0
 558 0012 074B     		ldr	r3, .L65
 559              	.LVL59:
 560 0014 9842     		cmp	r0, r3
 561 0016 F6D1     		bne	.L60
 562              		.loc 1 521 0
 563 0018 4FF46053 		mov	r3, #14336
 564 001c C4F20203 		movt	r3, 16386
 565              		.loc 1 522 0
 566 0020 4720     		movs	r0, #71
 567              	.LVL60:
 568              		.loc 1 521 0
ARM GAS  /tmp/cc3KYgGM.s 			page 11


 569 0022 5A6C     		ldr	r2, [r3, #68]
 570 0024 22F02002 		bic	r2, r2, #32
 571 0028 5A64     		str	r2, [r3, #68]
 572              		.loc 1 527 0
 573              		.loc 1 522 0
 574 002a FFF7FEBF 		b	nvicDisableVector
 575              	.LVL61:
 576              	.L66:
 577 002e 00BF     		.align	2
 578              	.L65:
 579 0030 00000000 		.word	.LANCHOR0
 580              		.cfi_endproc
 581              	.LFE126:
 582              		.size	sd_lld_stop, .-sd_lld_stop
 583              		.global	SD6
 584 0034 AFF30080 		.section	.rodata.default_config,"a",%progbits
 584      AFF30080 
 584      AFF30080 
 585              		.align	2
 586              		.set	.LANCHOR1,. + 0
 587              		.type	default_config, %object
 588              		.size	default_config, 12
 589              	default_config:
 590 0000 00960000 		.word	38400
 591 0004 0000     		.short	0
 592 0006 0040     		.short	16384
 593 0008 0000     		.short	0
 594 000a 0000     		.space	2
 595              		.section	.bss.SD6,"aw",%nobits
 596              		.align	2
 597              		.set	.LANCHOR0,. + 0
 598              		.type	SD6, %object
 599              		.size	SD6, 120
 600              	SD6:
 601 0000 00000000 		.space	120
 601      00000000 
 601      00000000 
 601      00000000 
 601      00000000 
 602              		.text
 603              	.Letext0:
 604              		.file 2 "/opt/psas/x-tools/stm32f407/arm-psas-eabi/bin/../lib/gcc/arm-psas-eabi/4.7.2/include/stdd
 605              		.file 3 "/opt/psas/x-tools/stm32f407/arm-psas-eabi/bin/../lib/gcc/arm-psas-eabi/4.7.2/../../../../
 606              		.file 4 "../../os/ports/GCC/ARMCMx/chtypes.h"
 607              		.file 5 "../../os/kernel/include/chlists.h"
 608              		.file 6 "../../os/kernel/include/chthreads.h"
 609              		.file 7 "../../os/ports/GCC/ARMCMx/chcore_v7m.h"
 610              		.file 8 "../../os/kernel/include/chmtx.h"
 611              		.file 9 "../../os/kernel/include/chevents.h"
 612              		.file 10 "../../os/kernel/include/chqueues.h"
 613              		.file 11 "../../os/hal/platforms/STM32F4xx/stm32f4xx.h"
 614              		.file 12 "../../os/hal/include/serial.h"
 615              		.file 13 "../../os/hal/platforms/STM32/USARTv1/serial_lld.h"
 616              		.file 14 "../../os/ports/common/ARMCMx/nvic.h"
 617              		.file 15 "../../os/ports/common/ARMCMx/CMSIS/include/core_cm4.h"