ARM GAS  /tmp/ccoeCygb.s 			page 1


   1              		.syntax unified
   2              		.cpu cortex-m4
   3              		.eabi_attribute 27, 3
   4              		.eabi_attribute 28, 1
   5              		.fpu fpv4-sp-d16
   6              		.eabi_attribute 20, 1
   7              		.eabi_attribute 21, 1
   8              		.eabi_attribute 23, 3
   9              		.eabi_attribute 24, 1
  10              		.eabi_attribute 25, 1
  11              		.eabi_attribute 26, 1
  12              		.eabi_attribute 30, 2
  13              		.eabi_attribute 34, 1
  14              		.eabi_attribute 18, 4
  15              		.thumb
  16              		.file	"serial.c"
  17              		.text
  18              	.Ltext0:
  19              		.cfi_sections	.debug_frame
  20              		.section	.text.readt,"ax",%progbits
  21              		.align	2
  22              		.p2align 4,,15
  23              		.thumb
  24              		.thumb_func
  25              		.type	readt, %function
  26              	readt:
  27              	.LFB125:
  28              		.file 1 "../../os/hal/src/serial.c"
  29              		.loc 1 92 0
  30              		.cfi_startproc
  31              		@ args = 0, pretend = 0, frame = 0
  32              		@ frame_needed = 0, uses_anonymous_args = 0
  33              		@ link register save eliminated.
  34              	.LVL0:
  35              		.loc 1 94 0
  36 0000 0C30     		adds	r0, r0, #12
  37              	.LVL1:
  38              		.loc 1 95 0
  39              		.loc 1 94 0
  40 0002 FFF7FEBF 		b	chIQReadTimeout
  41              	.LVL2:
  42              		.cfi_endproc
  43              	.LFE125:
  44              		.size	readt, .-readt
  45 0006 00BFAFF3 		.section	.text.read,"ax",%progbits
  45      0080AFF3 
  45      0080
  46              		.align	2
  47              		.p2align 4,,15
  48              		.thumb
  49              		.thumb_func
  50              		.type	read, %function
  51              	read:
  52              	.LFB119:
  53              		.loc 1 61 0
  54              		.cfi_startproc
  55              		@ args = 0, pretend = 0, frame = 0
ARM GAS  /tmp/ccoeCygb.s 			page 2


  56              		@ frame_needed = 0, uses_anonymous_args = 0
  57              		@ link register save eliminated.
  58              	.LVL3:
  59              		.loc 1 63 0
  60 0000 0C30     		adds	r0, r0, #12
  61              	.LVL4:
  62 0002 4FF0FF33 		mov	r3, #-1
  63              		.loc 1 65 0
  64              		.loc 1 63 0
  65 0006 FFF7FEBF 		b	chIQReadTimeout
  66              	.LVL5:
  67              		.cfi_endproc
  68              	.LFE119:
  69              		.size	read, .-read
  70 000a 00BFAFF3 		.section	.text.writet,"ax",%progbits
  70      0080
  71              		.align	2
  72              		.p2align 4,,15
  73              		.thumb
  74              		.thumb_func
  75              		.type	writet, %function
  76              	writet:
  77              	.LFB124:
  78              		.loc 1 87 0
  79              		.cfi_startproc
  80              		@ args = 0, pretend = 0, frame = 0
  81              		@ frame_needed = 0, uses_anonymous_args = 0
  82              		@ link register save eliminated.
  83              	.LVL6:
  84              		.loc 1 89 0
  85 0000 3030     		adds	r0, r0, #48
  86              	.LVL7:
  87              		.loc 1 90 0
  88              		.loc 1 89 0
  89 0002 FFF7FEBF 		b	chOQWriteTimeout
  90              	.LVL8:
  91              		.cfi_endproc
  92              	.LFE124:
  93              		.size	writet, .-writet
  94 0006 00BFAFF3 		.section	.text.write,"ax",%progbits
  94      0080AFF3 
  94      0080
  95              		.align	2
  96              		.p2align 4,,15
  97              		.thumb
  98              		.thumb_func
  99              		.type	write, %function
 100              	write:
 101              	.LFB118:
 102              		.loc 1 55 0
 103              		.cfi_startproc
 104              		@ args = 0, pretend = 0, frame = 0
 105              		@ frame_needed = 0, uses_anonymous_args = 0
 106              		@ link register save eliminated.
 107              	.LVL9:
 108              		.loc 1 57 0
 109 0000 3030     		adds	r0, r0, #48
ARM GAS  /tmp/ccoeCygb.s 			page 3


 110              	.LVL10:
 111 0002 4FF0FF33 		mov	r3, #-1
 112              		.loc 1 59 0
 113              		.loc 1 57 0
 114 0006 FFF7FEBF 		b	chOQWriteTimeout
 115              	.LVL11:
 116              		.cfi_endproc
 117              	.LFE118:
 118              		.size	write, .-write
 119 000a 00BFAFF3 		.section	.text.gett,"ax",%progbits
 119      0080
 120              		.align	2
 121              		.p2align 4,,15
 122              		.thumb
 123              		.thumb_func
 124              		.type	gett, %function
 125              	gett:
 126              	.LFB123:
 127              		.loc 1 82 0
 128              		.cfi_startproc
 129              		@ args = 0, pretend = 0, frame = 0
 130              		@ frame_needed = 0, uses_anonymous_args = 0
 131              		@ link register save eliminated.
 132              	.LVL12:
 133              		.loc 1 84 0
 134 0000 0C30     		adds	r0, r0, #12
 135              	.LVL13:
 136              		.loc 1 85 0
 137              		.loc 1 84 0
 138 0002 FFF7FEBF 		b	chIQGetTimeout
 139              	.LVL14:
 140              		.cfi_endproc
 141              	.LFE123:
 142              		.size	gett, .-gett
 143 0006 00BFAFF3 		.section	.text.get,"ax",%progbits
 143      0080AFF3 
 143      0080
 144              		.align	2
 145              		.p2align 4,,15
 146              		.thumb
 147              		.thumb_func
 148              		.type	get, %function
 149              	get:
 150              	.LFB121:
 151              		.loc 1 72 0
 152              		.cfi_startproc
 153              		@ args = 0, pretend = 0, frame = 0
 154              		@ frame_needed = 0, uses_anonymous_args = 0
 155              		@ link register save eliminated.
 156              	.LVL15:
 157              		.loc 1 74 0
 158 0000 0C30     		adds	r0, r0, #12
 159              	.LVL16:
 160 0002 4FF0FF31 		mov	r1, #-1
 161              		.loc 1 75 0
 162              		.loc 1 74 0
 163 0006 FFF7FEBF 		b	chIQGetTimeout
ARM GAS  /tmp/ccoeCygb.s 			page 4


 164              	.LVL17:
 165              		.cfi_endproc
 166              	.LFE121:
 167              		.size	get, .-get
 168 000a 00BFAFF3 		.section	.text.putt,"ax",%progbits
 168      0080
 169              		.align	2
 170              		.p2align 4,,15
 171              		.thumb
 172              		.thumb_func
 173              		.type	putt, %function
 174              	putt:
 175              	.LFB122:
 176              		.loc 1 77 0
 177              		.cfi_startproc
 178              		@ args = 0, pretend = 0, frame = 0
 179              		@ frame_needed = 0, uses_anonymous_args = 0
 180              		@ link register save eliminated.
 181              	.LVL18:
 182              		.loc 1 79 0
 183 0000 3030     		adds	r0, r0, #48
 184              	.LVL19:
 185              		.loc 1 80 0
 186              		.loc 1 79 0
 187 0002 FFF7FEBF 		b	chOQPutTimeout
 188              	.LVL20:
 189              		.cfi_endproc
 190              	.LFE122:
 191              		.size	putt, .-putt
 192 0006 00BFAFF3 		.section	.text.put,"ax",%progbits
 192      0080AFF3 
 192      0080
 193              		.align	2
 194              		.p2align 4,,15
 195              		.thumb
 196              		.thumb_func
 197              		.type	put, %function
 198              	put:
 199              	.LFB120:
 200              		.loc 1 67 0
 201              		.cfi_startproc
 202              		@ args = 0, pretend = 0, frame = 0
 203              		@ frame_needed = 0, uses_anonymous_args = 0
 204              		@ link register save eliminated.
 205              	.LVL21:
 206              		.loc 1 69 0
 207 0000 3030     		adds	r0, r0, #48
 208              	.LVL22:
 209 0002 4FF0FF32 		mov	r2, #-1
 210              		.loc 1 70 0
 211              		.loc 1 69 0
 212 0006 FFF7FEBF 		b	chOQPutTimeout
 213              	.LVL23:
 214              		.cfi_endproc
 215              	.LFE120:
 216              		.size	put, .-put
 217 000a 00BFAFF3 		.section	.text.sdInit,"ax",%progbits
ARM GAS  /tmp/ccoeCygb.s 			page 5


 217      0080
 218              		.align	2
 219              		.p2align 4,,15
 220              		.global	sdInit
 221              		.thumb
 222              		.thumb_func
 223              		.type	sdInit, %function
 224              	sdInit:
 225              	.LFB126:
 226              		.loc 1 113 0
 227              		.cfi_startproc
 228              		@ args = 0, pretend = 0, frame = 0
 229              		@ frame_needed = 0, uses_anonymous_args = 0
 230              		@ link register save eliminated.
 231              		.loc 1 116 0
 232              		.loc 1 115 0
 233 0000 FFF7FEBF 		b	sd_lld_init
 234              	.LVL24:
 235              		.cfi_endproc
 236              	.LFE126:
 237              		.size	sdInit, .-sdInit
 238 0004 AFF30080 		.section	.text.sdObjectInit,"ax",%progbits
 238      AFF30080 
 238      AFF30080 
 239              		.align	2
 240              		.p2align 4,,15
 241              		.global	sdObjectInit
 242              		.thumb
 243              		.thumb_func
 244              		.type	sdObjectInit, %function
 245              	sdObjectInit:
 246              	.LFB127:
 247              		.loc 1 133 0
 248              		.cfi_startproc
 249              		@ args = 0, pretend = 0, frame = 0
 250              		@ frame_needed = 0, uses_anonymous_args = 0
 251              	.LVL25:
 252 0000 70B5     		push	{r4, r5, r6, lr}
 253              	.LCFI0:
 254              		.cfi_def_cfa_offset 16
 255              		.cfi_offset 4, -16
 256              		.cfi_offset 5, -12
 257              		.cfi_offset 6, -8
 258              		.cfi_offset 14, -4
 259              		.loc 1 135 0
 260 0002 40F20003 		movw	r3, #:lower16:.LANCHOR0
 261 0006 0546     		mov	r5, r0
 262 0008 C0F20003 		movt	r3, #:upper16:.LANCHOR0
 263              		.loc 1 133 0
 264 000c 0446     		mov	r4, r0
 265              		.loc 1 135 0
 266 000e 45F8043B 		str	r3, [r5], #4
 267              		.loc 1 133 0
 268 0012 82B0     		sub	sp, sp, #8
 269              	.LCFI1:
 270              		.cfi_def_cfa_offset 24
 271              		.loc 1 136 0
ARM GAS  /tmp/ccoeCygb.s 			page 6


 272 0014 6560     		str	r5, [r4, #4]
 273              		.loc 1 137 0
 274 0016 0125     		movs	r5, #1
 275              		.loc 1 133 0
 276 0018 0B46     		mov	r3, r1
 277 001a 1646     		mov	r6, r2
 278              		.loc 1 138 0
 279 001c 04F15401 		add	r1, r4, #84
 280              	.LVL26:
 281 0020 1022     		movs	r2, #16
 282              	.LVL27:
 283              		.loc 1 137 0
 284 0022 2572     		strb	r5, [r4, #8]
 285              		.loc 1 138 0
 286 0024 00F10C00 		add	r0, r0, #12
 287              	.LVL28:
 288 0028 0094     		str	r4, [sp, #0]
 289 002a FFF7FEFF 		bl	chIQInit
 290              	.LVL29:
 291              		.loc 1 139 0
 292 002e 0094     		str	r4, [sp, #0]
 293 0030 04F13000 		add	r0, r4, #48
 294 0034 04F16401 		add	r1, r4, #100
 295 0038 1022     		movs	r2, #16
 296 003a 3346     		mov	r3, r6
 297 003c FFF7FEFF 		bl	chOQInit
 298              	.LVL30:
 299              		.loc 1 140 0
 300 0040 02B0     		add	sp, sp, #8
 301 0042 70BD     		pop	{r4, r5, r6, pc}
 302              		.cfi_endproc
 303              	.LFE127:
 304              		.size	sdObjectInit, .-sdObjectInit
 305 0044 AFF30080 		.section	.text.sdStart,"ax",%progbits
 305      AFF30080 
 305      AFF30080 
 306              		.align	2
 307              		.p2align 4,,15
 308              		.global	sdStart
 309              		.thumb
 310              		.thumb_func
 311              		.type	sdStart, %function
 312              	sdStart:
 313              	.LFB128:
 314              		.loc 1 152 0
 315              		.cfi_startproc
 316              		@ args = 0, pretend = 0, frame = 0
 317              		@ frame_needed = 0, uses_anonymous_args = 0
 318              	.LVL31:
 319 0000 10B5     		push	{r4, lr}
 320              	.LCFI2:
 321              		.cfi_def_cfa_offset 8
 322              		.cfi_offset 4, -8
 323              		.cfi_offset 14, -4
 324              	.LBB2:
 325              		.loc 1 156 0
 326 0002 2023     		movs	r3, #32
ARM GAS  /tmp/ccoeCygb.s 			page 7


 327              	.LVL32:
 328              	.LBE2:
 329              		.loc 1 152 0
 330 0004 0446     		mov	r4, r0
 331              	.LBB3:
 332              		.loc 1 156 0
 333              	@ 156 "../../os/hal/src/serial.c" 1
 334 0006 83F31188 		msr     BASEPRI, r3
 335              	@ 0 "" 2
 336              	.LVL33:
 337              		.thumb
 338              	.LBE3:
 339              		.loc 1 160 0
 340 000a FFF7FEFF 		bl	sd_lld_start
 341              	.LVL34:
 342              		.loc 1 161 0
 343 000e 0223     		movs	r3, #2
 344 0010 2372     		strb	r3, [r4, #8]
 345              	.LBB4:
 346              		.loc 1 162 0
 347 0012 0023     		movs	r3, #0
 348              	.LVL35:
 349              	@ 162 "../../os/hal/src/serial.c" 1
 350 0014 83F31188 		msr     BASEPRI, r3
 351              	@ 0 "" 2
 352              	.LVL36:
 353              		.thumb
 354 0018 10BD     		pop	{r4, pc}
 355              	.LBE4:
 356              		.cfi_endproc
 357              	.LFE128:
 358              		.size	sdStart, .-sdStart
 359 001a 00BFAFF3 		.section	.text.sdStop,"ax",%progbits
 359      0080
 360              		.align	2
 361              		.p2align 4,,15
 362              		.global	sdStop
 363              		.thumb
 364              		.thumb_func
 365              		.type	sdStop, %function
 366              	sdStop:
 367              	.LFB129:
 368              		.loc 1 174 0
 369              		.cfi_startproc
 370              		@ args = 0, pretend = 0, frame = 0
 371              		@ frame_needed = 0, uses_anonymous_args = 0
 372              	.LVL37:
 373 0000 10B5     		push	{r4, lr}
 374              	.LCFI3:
 375              		.cfi_def_cfa_offset 8
 376              		.cfi_offset 4, -8
 377              		.cfi_offset 14, -4
 378              	.LBB5:
 379              		.loc 1 178 0
 380 0002 2023     		movs	r3, #32
 381              	.LVL38:
 382              	.LBE5:
ARM GAS  /tmp/ccoeCygb.s 			page 8


 383              		.loc 1 174 0
 384 0004 0446     		mov	r4, r0
 385              	.LBB6:
 386              		.loc 1 178 0
 387              	@ 178 "../../os/hal/src/serial.c" 1
 388 0006 83F31188 		msr     BASEPRI, r3
 389              	@ 0 "" 2
 390              	.LVL39:
 391              		.thumb
 392              	.LBE6:
 393              		.loc 1 182 0
 394 000a FFF7FEFF 		bl	sd_lld_stop
 395              	.LVL40:
 396              		.loc 1 183 0
 397 000e 0123     		movs	r3, #1
 398 0010 2372     		strb	r3, [r4, #8]
 399              		.loc 1 184 0
 400 0012 04F13000 		add	r0, r4, #48
 401 0016 FFF7FEFF 		bl	chOQResetI
 402              	.LVL41:
 403              		.loc 1 185 0
 404 001a 04F10C00 		add	r0, r4, #12
 405 001e FFF7FEFF 		bl	chIQResetI
 406              	.LVL42:
 407              		.loc 1 186 0
 408 0022 FFF7FEFF 		bl	chSchRescheduleS
 409              	.LVL43:
 410              	.LBB7:
 411              		.loc 1 187 0
 412 0026 0023     		movs	r3, #0
 413              	.LVL44:
 414              	@ 187 "../../os/hal/src/serial.c" 1
 415 0028 83F31188 		msr     BASEPRI, r3
 416              	@ 0 "" 2
 417              	.LVL45:
 418              		.thumb
 419 002c 10BD     		pop	{r4, pc}
 420              	.LBE7:
 421              		.cfi_endproc
 422              	.LFE129:
 423              		.size	sdStop, .-sdStop
 424 002e 00BF     		.section	.text.sdIncomingDataI,"ax",%progbits
 425              		.align	2
 426              		.p2align 4,,15
 427              		.global	sdIncomingDataI
 428              		.thumb
 429              		.thumb_func
 430              		.type	sdIncomingDataI, %function
 431              	sdIncomingDataI:
 432              	.LFB130:
 433              		.loc 1 206 0
 434              		.cfi_startproc
 435              		@ args = 0, pretend = 0, frame = 0
 436              		@ frame_needed = 0, uses_anonymous_args = 0
 437              	.LVL46:
 438 0000 38B5     		push	{r3, r4, r5, lr}
 439              	.LCFI4:
ARM GAS  /tmp/ccoeCygb.s 			page 9


 440              		.cfi_def_cfa_offset 16
 441              		.cfi_offset 3, -16
 442              		.cfi_offset 4, -12
 443              		.cfi_offset 5, -8
 444              		.cfi_offset 14, -4
 445              		.loc 1 211 0
 446 0002 4369     		ldr	r3, [r0, #20]
 447              		.loc 1 206 0
 448 0004 0446     		mov	r4, r0
 449 0006 0D46     		mov	r5, r1
 450              		.loc 1 211 0
 451 0008 3BB1     		cbz	r3, .L17
 452              		.loc 1 213 0
 453 000a 04F10C00 		add	r0, r4, #12
 454              	.LVL47:
 455 000e 2946     		mov	r1, r5
 456              	.LVL48:
 457 0010 FFF7FEFF 		bl	chIQPutI
 458              	.LVL49:
 459 0014 0028     		cmp	r0, #0
 460 0016 0BDB     		blt	.L18
 461              	.L13:
 462 0018 38BD     		pop	{r3, r4, r5, pc}
 463              	.LVL50:
 464              	.L17:
 465              		.loc 1 212 0
 466 001a 0430     		adds	r0, r0, #4
 467              	.LVL51:
 468 001c 0421     		movs	r1, #4
 469              	.LVL52:
 470 001e FFF7FEFF 		bl	chEvtBroadcastFlagsI
 471              	.LVL53:
 472              		.loc 1 213 0
 473 0022 04F10C00 		add	r0, r4, #12
 474 0026 2946     		mov	r1, r5
 475 0028 FFF7FEFF 		bl	chIQPutI
 476              	.LVL54:
 477 002c 0028     		cmp	r0, #0
 478 002e F3DA     		bge	.L13
 479              	.L18:
 480              		.loc 1 214 0
 481 0030 201D     		adds	r0, r4, #4
 482 0032 8021     		movs	r1, #128
 483              		.loc 1 215 0
 484 0034 BDE83840 		pop	{r3, r4, r5, lr}
 485              		.loc 1 214 0
 486 0038 FFF7FEBF 		b	chEvtBroadcastFlagsI
 487              	.LVL55:
 488              		.cfi_endproc
 489              	.LFE130:
 490              		.size	sdIncomingDataI, .-sdIncomingDataI
 491 003c AFF30080 		.section	.text.sdRequestDataI,"ax",%progbits
 492              		.align	2
 493              		.p2align 4,,15
 494              		.global	sdRequestDataI
 495              		.thumb
 496              		.thumb_func
ARM GAS  /tmp/ccoeCygb.s 			page 10


 497              		.type	sdRequestDataI, %function
 498              	sdRequestDataI:
 499              	.LFB131:
 500              		.loc 1 232 0
 501              		.cfi_startproc
 502              		@ args = 0, pretend = 0, frame = 0
 503              		@ frame_needed = 0, uses_anonymous_args = 0
 504              	.LVL56:
 505 0000 38B5     		push	{r3, r4, r5, lr}
 506              	.LCFI5:
 507              		.cfi_def_cfa_offset 16
 508              		.cfi_offset 3, -16
 509              		.cfi_offset 4, -12
 510              		.cfi_offset 5, -8
 511              		.cfi_offset 14, -4
 512              		.loc 1 232 0
 513 0002 0446     		mov	r4, r0
 514              		.loc 1 238 0
 515 0004 00F13000 		add	r0, r0, #48
 516              	.LVL57:
 517 0008 FFF7FEFF 		bl	chOQGetI
 518              	.LVL58:
 519              		.loc 1 239 0
 520 000c 051E     		subs	r5, r0, #0
 521 000e 01DB     		blt	.L21
 522              		.loc 1 242 0
 523 0010 2846     		mov	r0, r5
 524 0012 38BD     		pop	{r3, r4, r5, pc}
 525              	.L21:
 526              		.loc 1 240 0
 527 0014 201D     		adds	r0, r4, #4
 528 0016 0821     		movs	r1, #8
 529 0018 FFF7FEFF 		bl	chEvtBroadcastFlagsI
 530              	.LVL59:
 531              		.loc 1 242 0
 532 001c 2846     		mov	r0, r5
 533 001e 38BD     		pop	{r3, r4, r5, pc}
 534              		.cfi_endproc
 535              	.LFE131:
 536              		.size	sdRequestDataI, .-sdRequestDataI
 537              		.section	.rodata.vmt,"a",%progbits
 538              		.align	2
 539              		.set	.LANCHOR0,. + 0
 540              		.type	vmt, %object
 541              		.size	vmt, 32
 542              	vmt:
 543 0000 00000000 		.word	write
 544 0004 00000000 		.word	read
 545 0008 00000000 		.word	put
 546 000c 00000000 		.word	get
 547 0010 00000000 		.word	putt
 548 0014 00000000 		.word	gett
 549 0018 00000000 		.word	writet
 550 001c 00000000 		.word	readt
 551              		.text
 552              	.Letext0:
 553              		.file 2 "/opt/psas/x-tools/stm32f407/arm-psas-eabi/bin/../lib/gcc/arm-psas-eabi/4.7.2/include/stdd
ARM GAS  /tmp/ccoeCygb.s 			page 11


 554              		.file 3 "/opt/psas/x-tools/stm32f407/arm-psas-eabi/bin/../lib/gcc/arm-psas-eabi/4.7.2/../../../../
 555              		.file 4 "../../os/ports/GCC/ARMCMx/chtypes.h"
 556              		.file 5 "../../os/kernel/include/chlists.h"
 557              		.file 6 "../../os/kernel/include/chthreads.h"
 558              		.file 7 "../../os/ports/GCC/ARMCMx/chcore_v7m.h"
 559              		.file 8 "../../os/kernel/include/chmtx.h"
 560              		.file 9 "../../os/kernel/include/chevents.h"
 561              		.file 10 "../../os/kernel/include/chqueues.h"
 562              		.file 11 "../../os/hal/platforms/STM32F4xx/stm32f4xx.h"
 563              		.file 12 "../../os/hal/include/serial.h"
 564              		.file 13 "../../os/hal/platforms/STM32/USARTv1/serial_lld.h"
 565              		.file 14 "../../os/kernel/include/chschd.h"
 566              		.file 15 "../../os/ports/common/ARMCMx/CMSIS/include/core_cm4.h"
 567              		.section	.debug_info,"",%progbits
 568              	.Ldebug_info0:
 569 0000 B2100000 		.4byte	0x10b2
 570 0004 0200     		.2byte	0x2
 571 0006 00000000 		.4byte	.Ldebug_abbrev0
 572 000a 04       		.byte	0x4
 573 000b 01       		.uleb128 0x1
 574 000c FE020000 		.4byte	.LASF134
 575 0010 01       		.byte	0x1
 576 0011 F7040000 		.4byte	.LASF135
 577 0015 37020000 		.4byte	.LASF136
 578 0019 30000000 		.4byte	.Ldebug_ranges0+0x30
 579 001d 00000000 		.4byte	0
 580 0021 00000000 		.4byte	0
 581 0025 00000000 		.4byte	.Ldebug_line0
 582 0029 02       		.uleb128 0x2
 583 002a 04       		.byte	0x4
 584 002b 05       		.byte	0x5
 585 002c 696E7400 		.ascii	"int\000"
 586 0030 03       		.uleb128 0x3
 587 0031 18000000 		.4byte	.LASF2
 588 0035 02       		.byte	0x2
 589 0036 D5       		.byte	0xd5
 590 0037 3B000000 		.4byte	0x3b
 591 003b 04       		.uleb128 0x4
 592 003c 04       		.byte	0x4
 593 003d 07       		.byte	0x7
 594 003e 79010000 		.4byte	.LASF0
 595 0042 04       		.uleb128 0x4
 596 0043 01       		.byte	0x1
 597 0044 06       		.byte	0x6
 598 0045 B5000000 		.4byte	.LASF1
 599 0049 03       		.uleb128 0x3
 600 004a EF040000 		.4byte	.LASF3
 601 004e 03       		.byte	0x3
 602 004f 2A       		.byte	0x2a
 603 0050 54000000 		.4byte	0x54
 604 0054 04       		.uleb128 0x4
 605 0055 01       		.byte	0x1
 606 0056 08       		.byte	0x8
 607 0057 7A030000 		.4byte	.LASF4
 608 005b 04       		.uleb128 0x4
 609 005c 02       		.byte	0x2
 610 005d 05       		.byte	0x5
ARM GAS  /tmp/ccoeCygb.s 			page 12


 611 005e BC030000 		.4byte	.LASF5
 612 0062 03       		.uleb128 0x3
 613 0063 86010000 		.4byte	.LASF6
 614 0067 03       		.byte	0x3
 615 0068 36       		.byte	0x36
 616 0069 6D000000 		.4byte	0x6d
 617 006d 04       		.uleb128 0x4
 618 006e 02       		.byte	0x2
 619 006f 07       		.byte	0x7
 620 0070 D7010000 		.4byte	.LASF7
 621 0074 03       		.uleb128 0x3
 622 0075 72030000 		.4byte	.LASF8
 623 0079 03       		.byte	0x3
 624 007a 4F       		.byte	0x4f
 625 007b 7F000000 		.4byte	0x7f
 626 007f 04       		.uleb128 0x4
 627 0080 04       		.byte	0x4
 628 0081 05       		.byte	0x5
 629 0082 ED000000 		.4byte	.LASF9
 630 0086 03       		.uleb128 0x3
 631 0087 1C040000 		.4byte	.LASF10
 632 008b 03       		.byte	0x3
 633 008c 50       		.byte	0x50
 634 008d 91000000 		.4byte	0x91
 635 0091 04       		.uleb128 0x4
 636 0092 04       		.byte	0x4
 637 0093 07       		.byte	0x7
 638 0094 3C040000 		.4byte	.LASF11
 639 0098 04       		.uleb128 0x4
 640 0099 08       		.byte	0x8
 641 009a 05       		.byte	0x5
 642 009b A7000000 		.4byte	.LASF12
 643 009f 04       		.uleb128 0x4
 644 00a0 08       		.byte	0x8
 645 00a1 07       		.byte	0x7
 646 00a2 42000000 		.4byte	.LASF13
 647 00a6 03       		.uleb128 0x3
 648 00a7 CE000000 		.4byte	.LASF14
 649 00ab 04       		.byte	0x4
 650 00ac 27       		.byte	0x27
 651 00ad 74000000 		.4byte	0x74
 652 00b1 03       		.uleb128 0x3
 653 00b2 0C020000 		.4byte	.LASF15
 654 00b6 04       		.byte	0x4
 655 00b7 28       		.byte	0x28
 656 00b8 49000000 		.4byte	0x49
 657 00bc 03       		.uleb128 0x3
 658 00bd F6000000 		.4byte	.LASF16
 659 00c1 04       		.byte	0x4
 660 00c2 29       		.byte	0x29
 661 00c3 49000000 		.4byte	0x49
 662 00c7 03       		.uleb128 0x3
 663 00c8 17030000 		.4byte	.LASF17
 664 00cc 04       		.byte	0x4
 665 00cd 2A       		.byte	0x2a
 666 00ce 49000000 		.4byte	0x49
 667 00d2 03       		.uleb128 0x3
ARM GAS  /tmp/ccoeCygb.s 			page 13


 668 00d3 DD000000 		.4byte	.LASF18
 669 00d7 04       		.byte	0x4
 670 00d8 2B       		.byte	0x2b
 671 00d9 49000000 		.4byte	0x49
 672 00dd 03       		.uleb128 0x3
 673 00de 62030000 		.4byte	.LASF19
 674 00e2 04       		.byte	0x4
 675 00e3 2C       		.byte	0x2c
 676 00e4 86000000 		.4byte	0x86
 677 00e8 03       		.uleb128 0x3
 678 00e9 EA010000 		.4byte	.LASF20
 679 00ed 04       		.byte	0x4
 680 00ee 2D       		.byte	0x2d
 681 00ef 74000000 		.4byte	0x74
 682 00f3 03       		.uleb128 0x3
 683 00f4 20020000 		.4byte	.LASF21
 684 00f8 04       		.byte	0x4
 685 00f9 2F       		.byte	0x2f
 686 00fa 86000000 		.4byte	0x86
 687 00fe 03       		.uleb128 0x3
 688 00ff B6040000 		.4byte	.LASF22
 689 0103 04       		.byte	0x4
 690 0104 30       		.byte	0x30
 691 0105 86000000 		.4byte	0x86
 692 0109 03       		.uleb128 0x3
 693 010a 7E040000 		.4byte	.LASF23
 694 010e 04       		.byte	0x4
 695 010f 31       		.byte	0x31
 696 0110 86000000 		.4byte	0x86
 697 0114 03       		.uleb128 0x3
 698 0115 F6030000 		.4byte	.LASF24
 699 0119 05       		.byte	0x5
 700 011a 23       		.byte	0x23
 701 011b 1F010000 		.4byte	0x11f
 702 011f 05       		.uleb128 0x5
 703 0120 F6030000 		.4byte	.LASF24
 704 0124 48       		.byte	0x48
 705 0125 06       		.byte	0x6
 706 0126 57       		.byte	0x57
 707 0127 44020000 		.4byte	0x244
 708 012b 06       		.uleb128 0x6
 709 012c D7030000 		.4byte	.LASF25
 710 0130 06       		.byte	0x6
 711 0131 58       		.byte	0x58
 712 0132 69020000 		.4byte	0x269
 713 0136 02       		.byte	0x2
 714 0137 23       		.byte	0x23
 715 0138 00       		.uleb128 0
 716 0139 06       		.uleb128 0x6
 717 013a 51030000 		.4byte	.LASF26
 718 013e 06       		.byte	0x6
 719 013f 5A       		.byte	0x5a
 720 0140 69020000 		.4byte	0x269
 721 0144 02       		.byte	0x2
 722 0145 23       		.byte	0x23
 723 0146 04       		.uleb128 0x4
 724 0147 06       		.uleb128 0x6
ARM GAS  /tmp/ccoeCygb.s 			page 14


 725 0148 CD020000 		.4byte	.LASF27
 726 014c 06       		.byte	0x6
 727 014d 5C       		.byte	0x5c
 728 014e DD000000 		.4byte	0xdd
 729 0152 02       		.byte	0x2
 730 0153 23       		.byte	0x23
 731 0154 08       		.uleb128 0x8
 732 0155 06       		.uleb128 0x6
 733 0156 6D050000 		.4byte	.LASF28
 734 015a 06       		.byte	0x6
 735 015b 5D       		.byte	0x5d
 736 015c 37030000 		.4byte	0x337
 737 0160 02       		.byte	0x2
 738 0161 23       		.byte	0x23
 739 0162 0C       		.uleb128 0xc
 740 0163 06       		.uleb128 0x6
 741 0164 3C010000 		.4byte	.LASF29
 742 0168 06       		.byte	0x6
 743 0169 5F       		.byte	0x5f
 744 016a 69020000 		.4byte	0x269
 745 016e 02       		.byte	0x2
 746 016f 23       		.byte	0x23
 747 0170 10       		.uleb128 0x10
 748 0171 06       		.uleb128 0x6
 749 0172 DC020000 		.4byte	.LASF30
 750 0176 06       		.byte	0x6
 751 0177 60       		.byte	0x60
 752 0178 69020000 		.4byte	0x269
 753 017c 02       		.byte	0x2
 754 017d 23       		.byte	0x23
 755 017e 14       		.uleb128 0x14
 756 017f 06       		.uleb128 0x6
 757 0180 C8040000 		.4byte	.LASF31
 758 0184 06       		.byte	0x6
 759 0185 67       		.byte	0x67
 760 0186 5F040000 		.4byte	0x45f
 761 018a 02       		.byte	0x2
 762 018b 23       		.byte	0x23
 763 018c 18       		.uleb128 0x18
 764 018d 06       		.uleb128 0x6
 765 018e AA030000 		.4byte	.LASF32
 766 0192 06       		.byte	0x6
 767 0193 72       		.byte	0x72
 768 0194 BC000000 		.4byte	0xbc
 769 0198 02       		.byte	0x2
 770 0199 23       		.byte	0x23
 771 019a 1C       		.uleb128 0x1c
 772 019b 06       		.uleb128 0x6
 773 019c DE030000 		.4byte	.LASF33
 774 01a0 06       		.byte	0x6
 775 01a1 76       		.byte	0x76
 776 01a2 B1000000 		.4byte	0xb1
 777 01a6 02       		.byte	0x2
 778 01a7 23       		.byte	0x23
 779 01a8 1D       		.uleb128 0x1d
 780 01a9 06       		.uleb128 0x6
 781 01aa 08010000 		.4byte	.LASF34
ARM GAS  /tmp/ccoeCygb.s 			page 15


 782 01ae 06       		.byte	0x6
 783 01af 7B       		.byte	0x7b
 784 01b0 C7000000 		.4byte	0xc7
 785 01b4 02       		.byte	0x2
 786 01b5 23       		.byte	0x23
 787 01b6 1E       		.uleb128 0x1e
 788 01b7 06       		.uleb128 0x6
 789 01b8 C6030000 		.4byte	.LASF35
 790 01bc 06       		.byte	0x6
 791 01bd 81       		.byte	0x81
 792 01be D2000000 		.4byte	0xd2
 793 01c2 02       		.byte	0x2
 794 01c3 23       		.byte	0x23
 795 01c4 1F       		.uleb128 0x1f
 796 01c5 06       		.uleb128 0x6
 797 01c6 9F010000 		.4byte	.LASF36
 798 01ca 06       		.byte	0x6
 799 01cb 88       		.byte	0x88
 800 01cc 61030000 		.4byte	0x361
 801 01d0 02       		.byte	0x2
 802 01d1 23       		.byte	0x23
 803 01d2 20       		.uleb128 0x20
 804 01d3 07       		.uleb128 0x7
 805 01d4 705F7500 		.ascii	"p_u\000"
 806 01d8 06       		.byte	0x6
 807 01d9 AD       		.byte	0xad
 808 01da 2A040000 		.4byte	0x42a
 809 01de 02       		.byte	0x2
 810 01df 23       		.byte	0x23
 811 01e0 24       		.uleb128 0x24
 812 01e1 06       		.uleb128 0x6
 813 01e2 73050000 		.4byte	.LASF37
 814 01e6 06       		.byte	0x6
 815 01e7 B2       		.byte	0xb2
 816 01e8 91020000 		.4byte	0x291
 817 01ec 02       		.byte	0x2
 818 01ed 23       		.byte	0x23
 819 01ee 28       		.uleb128 0x28
 820 01ef 06       		.uleb128 0x6
 821 01f0 B5010000 		.4byte	.LASF38
 822 01f4 06       		.byte	0x6
 823 01f5 B8       		.byte	0xb8
 824 01f6 6F020000 		.4byte	0x26f
 825 01fa 02       		.byte	0x2
 826 01fb 23       		.byte	0x23
 827 01fc 2C       		.uleb128 0x2c
 828 01fd 06       		.uleb128 0x6
 829 01fe 3A050000 		.4byte	.LASF39
 830 0202 06       		.byte	0x6
 831 0203 BC       		.byte	0xbc
 832 0204 E8000000 		.4byte	0xe8
 833 0208 02       		.byte	0x2
 834 0209 23       		.byte	0x23
 835 020a 34       		.uleb128 0x34
 836 020b 06       		.uleb128 0x6
 837 020c FD030000 		.4byte	.LASF40
 838 0210 06       		.byte	0x6
ARM GAS  /tmp/ccoeCygb.s 			page 16


 839 0211 C2       		.byte	0xc2
 840 0212 F3000000 		.4byte	0xf3
 841 0216 02       		.byte	0x2
 842 0217 23       		.byte	0x23
 843 0218 38       		.uleb128 0x38
 844 0219 06       		.uleb128 0x6
 845 021a B2030000 		.4byte	.LASF41
 846 021e 06       		.byte	0x6
 847 021f C9       		.byte	0xc9
 848 0220 71040000 		.4byte	0x471
 849 0224 02       		.byte	0x2
 850 0225 23       		.byte	0x23
 851 0226 3C       		.uleb128 0x3c
 852 0227 06       		.uleb128 0x6
 853 0228 88040000 		.4byte	.LASF42
 854 022c 06       		.byte	0x6
 855 022d CD       		.byte	0xcd
 856 022e DD000000 		.4byte	0xdd
 857 0232 02       		.byte	0x2
 858 0233 23       		.byte	0x23
 859 0234 40       		.uleb128 0x40
 860 0235 06       		.uleb128 0x6
 861 0236 C6000000 		.4byte	.LASF43
 862 023a 06       		.byte	0x6
 863 023b D3       		.byte	0xd3
 864 023c A7020000 		.4byte	0x2a7
 865 0240 02       		.byte	0x2
 866 0241 23       		.byte	0x23
 867 0242 44       		.uleb128 0x44
 868 0243 00       		.byte	0
 869 0244 08       		.uleb128 0x8
 870 0245 08       		.byte	0x8
 871 0246 05       		.byte	0x5
 872 0247 5A       		.byte	0x5a
 873 0248 69020000 		.4byte	0x269
 874 024c 06       		.uleb128 0x6
 875 024d D7030000 		.4byte	.LASF25
 876 0251 05       		.byte	0x5
 877 0252 5B       		.byte	0x5b
 878 0253 69020000 		.4byte	0x269
 879 0257 02       		.byte	0x2
 880 0258 23       		.byte	0x23
 881 0259 00       		.uleb128 0
 882 025a 06       		.uleb128 0x6
 883 025b 51030000 		.4byte	.LASF26
 884 025f 05       		.byte	0x5
 885 0260 5D       		.byte	0x5d
 886 0261 69020000 		.4byte	0x269
 887 0265 02       		.byte	0x2
 888 0266 23       		.byte	0x23
 889 0267 04       		.uleb128 0x4
 890 0268 00       		.byte	0
 891 0269 09       		.uleb128 0x9
 892 026a 04       		.byte	0x4
 893 026b 14010000 		.4byte	0x114
 894 026f 03       		.uleb128 0x3
 895 0270 E4020000 		.4byte	.LASF44
ARM GAS  /tmp/ccoeCygb.s 			page 17


 896 0274 05       		.byte	0x5
 897 0275 5F       		.byte	0x5f
 898 0276 44020000 		.4byte	0x244
 899 027a 08       		.uleb128 0x8
 900 027b 04       		.byte	0x4
 901 027c 05       		.byte	0x5
 902 027d 64       		.byte	0x64
 903 027e 91020000 		.4byte	0x291
 904 0282 06       		.uleb128 0x6
 905 0283 D7030000 		.4byte	.LASF25
 906 0287 05       		.byte	0x5
 907 0288 66       		.byte	0x66
 908 0289 69020000 		.4byte	0x269
 909 028d 02       		.byte	0x2
 910 028e 23       		.byte	0x23
 911 028f 00       		.uleb128 0
 912 0290 00       		.byte	0
 913 0291 03       		.uleb128 0x3
 914 0292 14020000 		.4byte	.LASF45
 915 0296 05       		.byte	0x5
 916 0297 69       		.byte	0x69
 917 0298 7A020000 		.4byte	0x27a
 918 029c 03       		.uleb128 0x3
 919 029d 55010000 		.4byte	.LASF46
 920 02a1 07       		.byte	0x7
 921 02a2 DE       		.byte	0xde
 922 02a3 A7020000 		.4byte	0x2a7
 923 02a7 0A       		.uleb128 0xa
 924 02a8 04       		.byte	0x4
 925 02a9 0B       		.uleb128 0xb
 926 02aa A6040000 		.4byte	.LASF47
 927 02ae 24       		.byte	0x24
 928 02af 07       		.byte	0x7
 929 02b0 0501     		.2byte	0x105
 930 02b2 37030000 		.4byte	0x337
 931 02b6 0C       		.uleb128 0xc
 932 02b7 723400   		.ascii	"r4\000"
 933 02ba 07       		.byte	0x7
 934 02bb 1801     		.2byte	0x118
 935 02bd 9C020000 		.4byte	0x29c
 936 02c1 02       		.byte	0x2
 937 02c2 23       		.byte	0x23
 938 02c3 00       		.uleb128 0
 939 02c4 0C       		.uleb128 0xc
 940 02c5 723500   		.ascii	"r5\000"
 941 02c8 07       		.byte	0x7
 942 02c9 1901     		.2byte	0x119
 943 02cb 9C020000 		.4byte	0x29c
 944 02cf 02       		.byte	0x2
 945 02d0 23       		.byte	0x23
 946 02d1 04       		.uleb128 0x4
 947 02d2 0C       		.uleb128 0xc
 948 02d3 723600   		.ascii	"r6\000"
 949 02d6 07       		.byte	0x7
 950 02d7 1A01     		.2byte	0x11a
 951 02d9 9C020000 		.4byte	0x29c
 952 02dd 02       		.byte	0x2
ARM GAS  /tmp/ccoeCygb.s 			page 18


 953 02de 23       		.byte	0x23
 954 02df 08       		.uleb128 0x8
 955 02e0 0C       		.uleb128 0xc
 956 02e1 723700   		.ascii	"r7\000"
 957 02e4 07       		.byte	0x7
 958 02e5 1B01     		.2byte	0x11b
 959 02e7 9C020000 		.4byte	0x29c
 960 02eb 02       		.byte	0x2
 961 02ec 23       		.byte	0x23
 962 02ed 0C       		.uleb128 0xc
 963 02ee 0C       		.uleb128 0xc
 964 02ef 723800   		.ascii	"r8\000"
 965 02f2 07       		.byte	0x7
 966 02f3 1C01     		.2byte	0x11c
 967 02f5 9C020000 		.4byte	0x29c
 968 02f9 02       		.byte	0x2
 969 02fa 23       		.byte	0x23
 970 02fb 10       		.uleb128 0x10
 971 02fc 0C       		.uleb128 0xc
 972 02fd 723900   		.ascii	"r9\000"
 973 0300 07       		.byte	0x7
 974 0301 1D01     		.2byte	0x11d
 975 0303 9C020000 		.4byte	0x29c
 976 0307 02       		.byte	0x2
 977 0308 23       		.byte	0x23
 978 0309 14       		.uleb128 0x14
 979 030a 0C       		.uleb128 0xc
 980 030b 72313000 		.ascii	"r10\000"
 981 030f 07       		.byte	0x7
 982 0310 1E01     		.2byte	0x11e
 983 0312 9C020000 		.4byte	0x29c
 984 0316 02       		.byte	0x2
 985 0317 23       		.byte	0x23
 986 0318 18       		.uleb128 0x18
 987 0319 0C       		.uleb128 0xc
 988 031a 72313100 		.ascii	"r11\000"
 989 031e 07       		.byte	0x7
 990 031f 1F01     		.2byte	0x11f
 991 0321 9C020000 		.4byte	0x29c
 992 0325 02       		.byte	0x2
 993 0326 23       		.byte	0x23
 994 0327 1C       		.uleb128 0x1c
 995 0328 0C       		.uleb128 0xc
 996 0329 6C7200   		.ascii	"lr\000"
 997 032c 07       		.byte	0x7
 998 032d 2001     		.2byte	0x120
 999 032f 9C020000 		.4byte	0x29c
 1000 0333 02       		.byte	0x2
 1001 0334 23       		.byte	0x23
 1002 0335 20       		.uleb128 0x20
 1003 0336 00       		.byte	0
 1004 0337 0B       		.uleb128 0xb
 1005 0338 9E040000 		.4byte	.LASF48
 1006 033c 04       		.byte	0x4
 1007 033d 07       		.byte	0x7
 1008 033e 2A01     		.2byte	0x12a
 1009 0340 54030000 		.4byte	0x354
ARM GAS  /tmp/ccoeCygb.s 			page 19


 1010 0344 0C       		.uleb128 0xc
 1011 0345 72313300 		.ascii	"r13\000"
 1012 0349 07       		.byte	0x7
 1013 034a 2B01     		.2byte	0x12b
 1014 034c 54030000 		.4byte	0x354
 1015 0350 02       		.byte	0x2
 1016 0351 23       		.byte	0x23
 1017 0352 00       		.uleb128 0
 1018 0353 00       		.byte	0
 1019 0354 09       		.uleb128 0x9
 1020 0355 04       		.byte	0x4
 1021 0356 A9020000 		.4byte	0x2a9
 1022 035a 04       		.uleb128 0x4
 1023 035b 04       		.byte	0x4
 1024 035c 07       		.byte	0x7
 1025 035d B4020000 		.4byte	.LASF49
 1026 0361 0D       		.uleb128 0xd
 1027 0362 09010000 		.4byte	0x109
 1028 0366 05       		.uleb128 0x5
 1029 0367 C7020000 		.4byte	.LASF50
 1030 036b 10       		.byte	0x10
 1031 036c 08       		.byte	0x8
 1032 036d 25       		.byte	0x25
 1033 036e 9D030000 		.4byte	0x39d
 1034 0372 06       		.uleb128 0x6
 1035 0373 D5000000 		.4byte	.LASF51
 1036 0377 08       		.byte	0x8
 1037 0378 26       		.byte	0x26
 1038 0379 6F020000 		.4byte	0x26f
 1039 037d 02       		.byte	0x2
 1040 037e 23       		.byte	0x23
 1041 037f 00       		.uleb128 0
 1042 0380 06       		.uleb128 0x6
 1043 0381 65050000 		.4byte	.LASF52
 1044 0385 08       		.byte	0x8
 1045 0386 28       		.byte	0x28
 1046 0387 69020000 		.4byte	0x269
 1047 038b 02       		.byte	0x2
 1048 038c 23       		.byte	0x23
 1049 038d 08       		.uleb128 0x8
 1050 038e 06       		.uleb128 0x6
 1051 038f 77040000 		.4byte	.LASF53
 1052 0393 08       		.byte	0x8
 1053 0394 2A       		.byte	0x2a
 1054 0395 9D030000 		.4byte	0x39d
 1055 0399 02       		.byte	0x2
 1056 039a 23       		.byte	0x23
 1057 039b 0C       		.uleb128 0xc
 1058 039c 00       		.byte	0
 1059 039d 09       		.uleb128 0x9
 1060 039e 04       		.byte	0x4
 1061 039f 66030000 		.4byte	0x366
 1062 03a3 03       		.uleb128 0x3
 1063 03a4 C7020000 		.4byte	.LASF50
 1064 03a8 08       		.byte	0x8
 1065 03a9 2C       		.byte	0x2c
 1066 03aa 66030000 		.4byte	0x366
ARM GAS  /tmp/ccoeCygb.s 			page 20


 1067 03ae 03       		.uleb128 0x3
 1068 03af 19050000 		.4byte	.LASF54
 1069 03b3 09       		.byte	0x9
 1070 03b4 25       		.byte	0x25
 1071 03b5 B9030000 		.4byte	0x3b9
 1072 03b9 05       		.uleb128 0x5
 1073 03ba 19050000 		.4byte	.LASF54
 1074 03be 10       		.byte	0x10
 1075 03bf 09       		.byte	0x9
 1076 03c0 2A       		.byte	0x2a
 1077 03c1 FE030000 		.4byte	0x3fe
 1078 03c5 06       		.uleb128 0x6
 1079 03c6 E6030000 		.4byte	.LASF55
 1080 03ca 09       		.byte	0x9
 1081 03cb 2B       		.byte	0x2b
 1082 03cc FE030000 		.4byte	0x3fe
 1083 03d0 02       		.byte	0x2
 1084 03d1 23       		.byte	0x23
 1085 03d2 00       		.uleb128 0
 1086 03d3 06       		.uleb128 0x6
 1087 03d4 95030000 		.4byte	.LASF56
 1088 03d8 09       		.byte	0x9
 1089 03d9 2E       		.byte	0x2e
 1090 03da 69020000 		.4byte	0x269
 1091 03de 02       		.byte	0x2
 1092 03df 23       		.byte	0x23
 1093 03e0 04       		.uleb128 0x4
 1094 03e1 06       		.uleb128 0x6
 1095 03e2 D4020000 		.4byte	.LASF57
 1096 03e6 09       		.byte	0x9
 1097 03e7 30       		.byte	0x30
 1098 03e8 F3000000 		.4byte	0xf3
 1099 03ec 02       		.byte	0x2
 1100 03ed 23       		.byte	0x23
 1101 03ee 08       		.uleb128 0x8
 1102 03ef 06       		.uleb128 0x6
 1103 03f0 A1030000 		.4byte	.LASF58
 1104 03f4 09       		.byte	0x9
 1105 03f5 33       		.byte	0x33
 1106 03f6 FE000000 		.4byte	0xfe
 1107 03fa 02       		.byte	0x2
 1108 03fb 23       		.byte	0x23
 1109 03fc 0C       		.uleb128 0xc
 1110 03fd 00       		.byte	0
 1111 03fe 09       		.uleb128 0x9
 1112 03ff 04       		.byte	0x4
 1113 0400 AE030000 		.4byte	0x3ae
 1114 0404 05       		.uleb128 0x5
 1115 0405 67010000 		.4byte	.LASF59
 1116 0409 04       		.byte	0x4
 1117 040a 09       		.byte	0x9
 1118 040b 3A       		.byte	0x3a
 1119 040c 1F040000 		.4byte	0x41f
 1120 0410 06       		.uleb128 0x6
 1121 0411 CF040000 		.4byte	.LASF60
 1122 0415 09       		.byte	0x9
 1123 0416 3B       		.byte	0x3b
ARM GAS  /tmp/ccoeCygb.s 			page 21


 1124 0417 FE030000 		.4byte	0x3fe
 1125 041b 02       		.byte	0x2
 1126 041c 23       		.byte	0x23
 1127 041d 00       		.uleb128 0
 1128 041e 00       		.byte	0
 1129 041f 03       		.uleb128 0x3
 1130 0420 67010000 		.4byte	.LASF59
 1131 0424 09       		.byte	0x9
 1132 0425 3E       		.byte	0x3e
 1133 0426 04040000 		.4byte	0x404
 1134 042a 0E       		.uleb128 0xe
 1135 042b 04       		.byte	0x4
 1136 042c 06       		.byte	0x6
 1137 042d 8F       		.byte	0x8f
 1138 042e 5F040000 		.4byte	0x45f
 1139 0432 0F       		.uleb128 0xf
 1140 0433 1F000000 		.4byte	.LASF61
 1141 0437 06       		.byte	0x6
 1142 0438 96       		.byte	0x96
 1143 0439 E8000000 		.4byte	0xe8
 1144 043d 0F       		.uleb128 0xf
 1145 043e 6D000000 		.4byte	.LASF62
 1146 0442 06       		.byte	0x6
 1147 0443 9D       		.byte	0x9d
 1148 0444 E8000000 		.4byte	0xe8
 1149 0448 0F       		.uleb128 0xf
 1150 0449 27050000 		.4byte	.LASF63
 1151 044d 06       		.byte	0x6
 1152 044e A4       		.byte	0xa4
 1153 044f A7020000 		.4byte	0x2a7
 1154 0453 0F       		.uleb128 0xf
 1155 0454 D0030000 		.4byte	.LASF64
 1156 0458 06       		.byte	0x6
 1157 0459 AB       		.byte	0xab
 1158 045a F3000000 		.4byte	0xf3
 1159 045e 00       		.byte	0
 1160 045f 09       		.uleb128 0x9
 1161 0460 04       		.byte	0x4
 1162 0461 65040000 		.4byte	0x465
 1163 0465 10       		.uleb128 0x10
 1164 0466 6A040000 		.4byte	0x46a
 1165 046a 04       		.uleb128 0x4
 1166 046b 01       		.byte	0x1
 1167 046c 08       		.byte	0x8
 1168 046d 53040000 		.4byte	.LASF65
 1169 0471 09       		.uleb128 0x9
 1170 0472 04       		.byte	0x4
 1171 0473 A3030000 		.4byte	0x3a3
 1172 0477 09       		.uleb128 0x9
 1173 0478 04       		.byte	0x4
 1174 0479 7D040000 		.4byte	0x47d
 1175 047d 11       		.uleb128 0x11
 1176 047e 01       		.byte	0x1
 1177 047f E8000000 		.4byte	0xe8
 1178 0483 8D040000 		.4byte	0x48d
 1179 0487 12       		.uleb128 0x12
 1180 0488 A7020000 		.4byte	0x2a7
ARM GAS  /tmp/ccoeCygb.s 			page 22


 1181 048c 00       		.byte	0
 1182 048d 03       		.uleb128 0x3
 1183 048e 8B020000 		.4byte	.LASF66
 1184 0492 0A       		.byte	0xa
 1185 0493 30       		.byte	0x30
 1186 0494 98040000 		.4byte	0x498
 1187 0498 05       		.uleb128 0x5
 1188 0499 8B020000 		.4byte	.LASF66
 1189 049d 24       		.byte	0x24
 1190 049e 0A       		.byte	0xa
 1191 049f 3E       		.byte	0x3e
 1192 04a0 15050000 		.4byte	0x515
 1193 04a4 06       		.uleb128 0x6
 1194 04a5 9D000000 		.4byte	.LASF67
 1195 04a9 0A       		.byte	0xa
 1196 04aa 3F       		.byte	0x3f
 1197 04ab 6F020000 		.4byte	0x26f
 1198 04af 02       		.byte	0x2
 1199 04b0 23       		.byte	0x23
 1200 04b1 00       		.uleb128 0
 1201 04b2 06       		.uleb128 0x6
 1202 04b3 BD020000 		.4byte	.LASF68
 1203 04b7 0A       		.byte	0xa
 1204 04b8 40       		.byte	0x40
 1205 04b9 30000000 		.4byte	0x30
 1206 04bd 02       		.byte	0x2
 1207 04be 23       		.byte	0x23
 1208 04bf 08       		.uleb128 0x8
 1209 04c0 06       		.uleb128 0x6
 1210 04c1 0F010000 		.4byte	.LASF69
 1211 04c5 0A       		.byte	0xa
 1212 04c6 41       		.byte	0x41
 1213 04c7 38050000 		.4byte	0x538
 1214 04cb 02       		.byte	0x2
 1215 04cc 23       		.byte	0x23
 1216 04cd 0C       		.uleb128 0xc
 1217 04ce 06       		.uleb128 0x6
 1218 04cf C2040000 		.4byte	.LASF70
 1219 04d3 0A       		.byte	0xa
 1220 04d4 42       		.byte	0x42
 1221 04d5 38050000 		.4byte	0x538
 1222 04d9 02       		.byte	0x2
 1223 04da 23       		.byte	0x23
 1224 04db 10       		.uleb128 0x10
 1225 04dc 06       		.uleb128 0x6
 1226 04dd 18010000 		.4byte	.LASF71
 1227 04e1 0A       		.byte	0xa
 1228 04e2 44       		.byte	0x44
 1229 04e3 38050000 		.4byte	0x538
 1230 04e7 02       		.byte	0x2
 1231 04e8 23       		.byte	0x23
 1232 04e9 14       		.uleb128 0x14
 1233 04ea 06       		.uleb128 0x6
 1234 04eb 6A030000 		.4byte	.LASF72
 1235 04ef 0A       		.byte	0xa
 1236 04f0 45       		.byte	0x45
 1237 04f1 38050000 		.4byte	0x538
ARM GAS  /tmp/ccoeCygb.s 			page 23


 1238 04f5 02       		.byte	0x2
 1239 04f6 23       		.byte	0x23
 1240 04f7 18       		.uleb128 0x18
 1241 04f8 06       		.uleb128 0x6
 1242 04f9 D7040000 		.4byte	.LASF73
 1243 04fd 0A       		.byte	0xa
 1244 04fe 46       		.byte	0x46
 1245 04ff 15050000 		.4byte	0x515
 1246 0503 02       		.byte	0x2
 1247 0504 23       		.byte	0x23
 1248 0505 1C       		.uleb128 0x1c
 1249 0506 06       		.uleb128 0x6
 1250 0507 20010000 		.4byte	.LASF74
 1251 050b 0A       		.byte	0xa
 1252 050c 47       		.byte	0x47
 1253 050d A7020000 		.4byte	0x2a7
 1254 0511 02       		.byte	0x2
 1255 0512 23       		.byte	0x23
 1256 0513 20       		.uleb128 0x20
 1257 0514 00       		.byte	0
 1258 0515 03       		.uleb128 0x3
 1259 0516 81020000 		.4byte	.LASF75
 1260 051a 0A       		.byte	0xa
 1261 051b 33       		.byte	0x33
 1262 051c 20050000 		.4byte	0x520
 1263 0520 09       		.uleb128 0x9
 1264 0521 04       		.byte	0x4
 1265 0522 26050000 		.4byte	0x526
 1266 0526 13       		.uleb128 0x13
 1267 0527 01       		.byte	0x1
 1268 0528 32050000 		.4byte	0x532
 1269 052c 12       		.uleb128 0x12
 1270 052d 32050000 		.4byte	0x532
 1271 0531 00       		.byte	0
 1272 0532 09       		.uleb128 0x9
 1273 0533 04       		.byte	0x4
 1274 0534 8D040000 		.4byte	0x48d
 1275 0538 09       		.uleb128 0x9
 1276 0539 04       		.byte	0x4
 1277 053a 49000000 		.4byte	0x49
 1278 053e 03       		.uleb128 0x3
 1279 053f 2C020000 		.4byte	.LASF76
 1280 0543 0A       		.byte	0xa
 1281 0544 7B       		.byte	0x7b
 1282 0545 8D040000 		.4byte	0x48d
 1283 0549 03       		.uleb128 0x3
 1284 054a 26000000 		.4byte	.LASF77
 1285 054e 0A       		.byte	0xa
 1286 054f EE       		.byte	0xee
 1287 0550 8D040000 		.4byte	0x48d
 1288 0554 11       		.uleb128 0x11
 1289 0555 01       		.byte	0x1
 1290 0556 30000000 		.4byte	0x30
 1291 055a 6E050000 		.4byte	0x56e
 1292 055e 12       		.uleb128 0x12
 1293 055f A7020000 		.4byte	0x2a7
 1294 0563 12       		.uleb128 0x12
ARM GAS  /tmp/ccoeCygb.s 			page 24


 1295 0564 6E050000 		.4byte	0x56e
 1296 0568 12       		.uleb128 0x12
 1297 0569 30000000 		.4byte	0x30
 1298 056d 00       		.byte	0
 1299 056e 09       		.uleb128 0x9
 1300 056f 04       		.byte	0x4
 1301 0570 74050000 		.4byte	0x574
 1302 0574 10       		.uleb128 0x10
 1303 0575 49000000 		.4byte	0x49
 1304 0579 09       		.uleb128 0x9
 1305 057a 04       		.byte	0x4
 1306 057b 54050000 		.4byte	0x554
 1307 057f 11       		.uleb128 0x11
 1308 0580 01       		.byte	0x1
 1309 0581 30000000 		.4byte	0x30
 1310 0585 99050000 		.4byte	0x599
 1311 0589 12       		.uleb128 0x12
 1312 058a A7020000 		.4byte	0x2a7
 1313 058e 12       		.uleb128 0x12
 1314 058f 38050000 		.4byte	0x538
 1315 0593 12       		.uleb128 0x12
 1316 0594 30000000 		.4byte	0x30
 1317 0598 00       		.byte	0
 1318 0599 09       		.uleb128 0x9
 1319 059a 04       		.byte	0x4
 1320 059b 7F050000 		.4byte	0x57f
 1321 059f 11       		.uleb128 0x11
 1322 05a0 01       		.byte	0x1
 1323 05a1 E8000000 		.4byte	0xe8
 1324 05a5 B4050000 		.4byte	0x5b4
 1325 05a9 12       		.uleb128 0x12
 1326 05aa A7020000 		.4byte	0x2a7
 1327 05ae 12       		.uleb128 0x12
 1328 05af 49000000 		.4byte	0x49
 1329 05b3 00       		.byte	0
 1330 05b4 09       		.uleb128 0x9
 1331 05b5 04       		.byte	0x4
 1332 05b6 9F050000 		.4byte	0x59f
 1333 05ba 0D       		.uleb128 0xd
 1334 05bb 62000000 		.4byte	0x62
 1335 05bf 0D       		.uleb128 0xd
 1336 05c0 74000000 		.4byte	0x74
 1337 05c4 14       		.uleb128 0x14
 1338 05c5 1C       		.byte	0x1c
 1339 05c6 0B       		.byte	0xb
 1340 05c7 9303     		.2byte	0x393
 1341 05c9 9E060000 		.4byte	0x69e
 1342 05cd 0C       		.uleb128 0xc
 1343 05ce 535200   		.ascii	"SR\000"
 1344 05d1 0B       		.byte	0xb
 1345 05d2 9503     		.2byte	0x395
 1346 05d4 BA050000 		.4byte	0x5ba
 1347 05d8 02       		.byte	0x2
 1348 05d9 23       		.byte	0x23
 1349 05da 00       		.uleb128 0
 1350 05db 15       		.uleb128 0x15
 1351 05dc 1F030000 		.4byte	.LASF78
ARM GAS  /tmp/ccoeCygb.s 			page 25


 1352 05e0 0B       		.byte	0xb
 1353 05e1 9603     		.2byte	0x396
 1354 05e3 62000000 		.4byte	0x62
 1355 05e7 02       		.byte	0x2
 1356 05e8 23       		.byte	0x23
 1357 05e9 02       		.uleb128 0x2
 1358 05ea 0C       		.uleb128 0xc
 1359 05eb 445200   		.ascii	"DR\000"
 1360 05ee 0B       		.byte	0xb
 1361 05ef 9703     		.2byte	0x397
 1362 05f1 BA050000 		.4byte	0x5ba
 1363 05f5 02       		.byte	0x2
 1364 05f6 23       		.byte	0x23
 1365 05f7 04       		.uleb128 0x4
 1366 05f8 15       		.uleb128 0x15
 1367 05f9 29030000 		.4byte	.LASF79
 1368 05fd 0B       		.byte	0xb
 1369 05fe 9803     		.2byte	0x398
 1370 0600 62000000 		.4byte	0x62
 1371 0604 02       		.byte	0x2
 1372 0605 23       		.byte	0x23
 1373 0606 06       		.uleb128 0x6
 1374 0607 0C       		.uleb128 0xc
 1375 0608 42525200 		.ascii	"BRR\000"
 1376 060c 0B       		.byte	0xb
 1377 060d 9903     		.2byte	0x399
 1378 060f BA050000 		.4byte	0x5ba
 1379 0613 02       		.byte	0x2
 1380 0614 23       		.byte	0x23
 1381 0615 08       		.uleb128 0x8
 1382 0616 15       		.uleb128 0x15
 1383 0617 33030000 		.4byte	.LASF80
 1384 061b 0B       		.byte	0xb
 1385 061c 9A03     		.2byte	0x39a
 1386 061e 62000000 		.4byte	0x62
 1387 0622 02       		.byte	0x2
 1388 0623 23       		.byte	0x23
 1389 0624 0A       		.uleb128 0xa
 1390 0625 0C       		.uleb128 0xc
 1391 0626 43523100 		.ascii	"CR1\000"
 1392 062a 0B       		.byte	0xb
 1393 062b 9B03     		.2byte	0x39b
 1394 062d BA050000 		.4byte	0x5ba
 1395 0631 02       		.byte	0x2
 1396 0632 23       		.byte	0x23
 1397 0633 0C       		.uleb128 0xc
 1398 0634 15       		.uleb128 0x15
 1399 0635 3D030000 		.4byte	.LASF81
 1400 0639 0B       		.byte	0xb
 1401 063a 9C03     		.2byte	0x39c
 1402 063c 62000000 		.4byte	0x62
 1403 0640 02       		.byte	0x2
 1404 0641 23       		.byte	0x23
 1405 0642 0E       		.uleb128 0xe
 1406 0643 0C       		.uleb128 0xc
 1407 0644 43523200 		.ascii	"CR2\000"
 1408 0648 0B       		.byte	0xb
ARM GAS  /tmp/ccoeCygb.s 			page 26


 1409 0649 9D03     		.2byte	0x39d
 1410 064b BA050000 		.4byte	0x5ba
 1411 064f 02       		.byte	0x2
 1412 0650 23       		.byte	0x23
 1413 0651 10       		.uleb128 0x10
 1414 0652 15       		.uleb128 0x15
 1415 0653 47030000 		.4byte	.LASF82
 1416 0657 0B       		.byte	0xb
 1417 0658 9E03     		.2byte	0x39e
 1418 065a 62000000 		.4byte	0x62
 1419 065e 02       		.byte	0x2
 1420 065f 23       		.byte	0x23
 1421 0660 12       		.uleb128 0x12
 1422 0661 0C       		.uleb128 0xc
 1423 0662 43523300 		.ascii	"CR3\000"
 1424 0666 0B       		.byte	0xb
 1425 0667 9F03     		.2byte	0x39f
 1426 0669 BA050000 		.4byte	0x5ba
 1427 066d 02       		.byte	0x2
 1428 066e 23       		.byte	0x23
 1429 066f 14       		.uleb128 0x14
 1430 0670 15       		.uleb128 0x15
 1431 0671 12040000 		.4byte	.LASF83
 1432 0675 0B       		.byte	0xb
 1433 0676 A003     		.2byte	0x3a0
 1434 0678 62000000 		.4byte	0x62
 1435 067c 02       		.byte	0x2
 1436 067d 23       		.byte	0x23
 1437 067e 16       		.uleb128 0x16
 1438 067f 15       		.uleb128 0x15
 1439 0680 C1000000 		.4byte	.LASF84
 1440 0684 0B       		.byte	0xb
 1441 0685 A103     		.2byte	0x3a1
 1442 0687 BA050000 		.4byte	0x5ba
 1443 068b 02       		.byte	0x2
 1444 068c 23       		.byte	0x23
 1445 068d 18       		.uleb128 0x18
 1446 068e 15       		.uleb128 0x15
 1447 068f 58030000 		.4byte	.LASF85
 1448 0693 0B       		.byte	0xb
 1449 0694 A203     		.2byte	0x3a2
 1450 0696 62000000 		.4byte	0x62
 1451 069a 02       		.byte	0x2
 1452 069b 23       		.byte	0x23
 1453 069c 1A       		.uleb128 0x1a
 1454 069d 00       		.byte	0
 1455 069e 16       		.uleb128 0x16
 1456 069f F7010000 		.4byte	.LASF86
 1457 06a3 0B       		.byte	0xb
 1458 06a4 A303     		.2byte	0x3a3
 1459 06a6 C4050000 		.4byte	0x5c4
 1460 06aa 11       		.uleb128 0x11
 1461 06ab 01       		.byte	0x1
 1462 06ac E8000000 		.4byte	0xe8
 1463 06b0 C4060000 		.4byte	0x6c4
 1464 06b4 12       		.uleb128 0x12
 1465 06b5 A7020000 		.4byte	0x2a7
ARM GAS  /tmp/ccoeCygb.s 			page 27


 1466 06b9 12       		.uleb128 0x12
 1467 06ba 49000000 		.4byte	0x49
 1468 06be 12       		.uleb128 0x12
 1469 06bf 09010000 		.4byte	0x109
 1470 06c3 00       		.byte	0
 1471 06c4 09       		.uleb128 0x9
 1472 06c5 04       		.byte	0x4
 1473 06c6 AA060000 		.4byte	0x6aa
 1474 06ca 11       		.uleb128 0x11
 1475 06cb 01       		.byte	0x1
 1476 06cc E8000000 		.4byte	0xe8
 1477 06d0 DF060000 		.4byte	0x6df
 1478 06d4 12       		.uleb128 0x12
 1479 06d5 A7020000 		.4byte	0x2a7
 1480 06d9 12       		.uleb128 0x12
 1481 06da 09010000 		.4byte	0x109
 1482 06de 00       		.byte	0
 1483 06df 09       		.uleb128 0x9
 1484 06e0 04       		.byte	0x4
 1485 06e1 CA060000 		.4byte	0x6ca
 1486 06e5 11       		.uleb128 0x11
 1487 06e6 01       		.byte	0x1
 1488 06e7 30000000 		.4byte	0x30
 1489 06eb 04070000 		.4byte	0x704
 1490 06ef 12       		.uleb128 0x12
 1491 06f0 A7020000 		.4byte	0x2a7
 1492 06f4 12       		.uleb128 0x12
 1493 06f5 6E050000 		.4byte	0x56e
 1494 06f9 12       		.uleb128 0x12
 1495 06fa 30000000 		.4byte	0x30
 1496 06fe 12       		.uleb128 0x12
 1497 06ff 09010000 		.4byte	0x109
 1498 0703 00       		.byte	0
 1499 0704 09       		.uleb128 0x9
 1500 0705 04       		.byte	0x4
 1501 0706 E5060000 		.4byte	0x6e5
 1502 070a 11       		.uleb128 0x11
 1503 070b 01       		.byte	0x1
 1504 070c 30000000 		.4byte	0x30
 1505 0710 29070000 		.4byte	0x729
 1506 0714 12       		.uleb128 0x12
 1507 0715 A7020000 		.4byte	0x2a7
 1508 0719 12       		.uleb128 0x12
 1509 071a 38050000 		.4byte	0x538
 1510 071e 12       		.uleb128 0x12
 1511 071f 30000000 		.4byte	0x30
 1512 0723 12       		.uleb128 0x12
 1513 0724 09010000 		.4byte	0x109
 1514 0728 00       		.byte	0
 1515 0729 09       		.uleb128 0x9
 1516 072a 04       		.byte	0x4
 1517 072b 0A070000 		.4byte	0x70a
 1518 072f 17       		.uleb128 0x17
 1519 0730 01       		.byte	0x1
 1520 0731 0C       		.byte	0xc
 1521 0732 5D       		.byte	0x5d
 1522 0733 4A070000 		.4byte	0x74a
ARM GAS  /tmp/ccoeCygb.s 			page 28


 1523 0737 18       		.uleb128 0x18
 1524 0738 08040000 		.4byte	.LASF87
 1525 073c 00       		.sleb128 0
 1526 073d 18       		.uleb128 0x18
 1527 073e EE030000 		.4byte	.LASF88
 1528 0742 01       		.sleb128 1
 1529 0743 18       		.uleb128 0x18
 1530 0744 AD040000 		.4byte	.LASF89
 1531 0748 02       		.sleb128 2
 1532 0749 00       		.byte	0
 1533 074a 03       		.uleb128 0x3
 1534 074b 25040000 		.4byte	.LASF90
 1535 074f 0C       		.byte	0xc
 1536 0750 61       		.byte	0x61
 1537 0751 2F070000 		.4byte	0x72f
 1538 0755 03       		.uleb128 0x3
 1539 0756 2F040000 		.4byte	.LASF91
 1540 075a 0C       		.byte	0xc
 1541 075b 66       		.byte	0x66
 1542 075c 60070000 		.4byte	0x760
 1543 0760 05       		.uleb128 0x5
 1544 0761 2F040000 		.4byte	.LASF91
 1545 0765 78       		.byte	0x78
 1546 0766 0C       		.byte	0xc
 1547 0767 80       		.byte	0x80
 1548 0768 DB070000 		.4byte	0x7db
 1549 076c 07       		.uleb128 0x7
 1550 076d 766D7400 		.ascii	"vmt\000"
 1551 0771 0C       		.byte	0xc
 1552 0772 82       		.byte	0x82
 1553 0773 A4080000 		.4byte	0x8a4
 1554 0777 02       		.byte	0x2
 1555 0778 23       		.byte	0x23
 1556 0779 00       		.uleb128 0
 1557 077a 06       		.uleb128 0x6
 1558 077b D1010000 		.4byte	.LASF92
 1559 077f 0C       		.byte	0xc
 1560 0780 83       		.byte	0x83
 1561 0781 1F040000 		.4byte	0x41f
 1562 0785 02       		.byte	0x2
 1563 0786 23       		.byte	0x23
 1564 0787 04       		.uleb128 0x4
 1565 0788 06       		.uleb128 0x6
 1566 0789 E7000000 		.4byte	.LASF93
 1567 078d 0C       		.byte	0xc
 1568 078e 83       		.byte	0x83
 1569 078f 4A070000 		.4byte	0x74a
 1570 0793 02       		.byte	0x2
 1571 0794 23       		.byte	0x23
 1572 0795 08       		.uleb128 0x8
 1573 0796 06       		.uleb128 0x6
 1574 0797 AE010000 		.4byte	.LASF94
 1575 079b 0C       		.byte	0xc
 1576 079c 83       		.byte	0x83
 1577 079d 3E050000 		.4byte	0x53e
 1578 07a1 02       		.byte	0x2
 1579 07a2 23       		.byte	0x23
ARM GAS  /tmp/ccoeCygb.s 			page 29


 1580 07a3 0C       		.uleb128 0xc
 1581 07a4 06       		.uleb128 0x6
 1582 07a5 F0010000 		.4byte	.LASF95
 1583 07a9 0C       		.byte	0xc
 1584 07aa 83       		.byte	0x83
 1585 07ab 49050000 		.4byte	0x549
 1586 07af 02       		.byte	0x2
 1587 07b0 23       		.byte	0x23
 1588 07b1 30       		.uleb128 0x30
 1589 07b2 07       		.uleb128 0x7
 1590 07b3 696200   		.ascii	"ib\000"
 1591 07b6 0C       		.byte	0xc
 1592 07b7 83       		.byte	0x83
 1593 07b8 AF080000 		.4byte	0x8af
 1594 07bc 02       		.byte	0x2
 1595 07bd 23       		.byte	0x23
 1596 07be 54       		.uleb128 0x54
 1597 07bf 07       		.uleb128 0x7
 1598 07c0 6F6200   		.ascii	"ob\000"
 1599 07c3 0C       		.byte	0xc
 1600 07c4 83       		.byte	0x83
 1601 07c5 AF080000 		.4byte	0x8af
 1602 07c9 02       		.byte	0x2
 1603 07ca 23       		.byte	0x23
 1604 07cb 64       		.uleb128 0x64
 1605 07cc 06       		.uleb128 0x6
 1606 07cd 73010000 		.4byte	.LASF96
 1607 07d1 0C       		.byte	0xc
 1608 07d2 83       		.byte	0x83
 1609 07d3 BF080000 		.4byte	0x8bf
 1610 07d7 02       		.byte	0x2
 1611 07d8 23       		.byte	0x23
 1612 07d9 74       		.uleb128 0x74
 1613 07da 00       		.byte	0
 1614 07db 08       		.uleb128 0x8
 1615 07dc 0C       		.byte	0xc
 1616 07dd 0D       		.byte	0xd
 1617 07de DB       		.byte	0xdb
 1618 07df 1C080000 		.4byte	0x81c
 1619 07e3 06       		.uleb128 0x6
 1620 07e4 0F000000 		.4byte	.LASF97
 1621 07e8 0D       		.byte	0xd
 1622 07e9 DF       		.byte	0xdf
 1623 07ea 86000000 		.4byte	0x86
 1624 07ee 02       		.byte	0x2
 1625 07ef 23       		.byte	0x23
 1626 07f0 00       		.uleb128 0
 1627 07f1 06       		.uleb128 0x6
 1628 07f2 40050000 		.4byte	.LASF98
 1629 07f6 0D       		.byte	0xd
 1630 07f7 E3       		.byte	0xe3
 1631 07f8 62000000 		.4byte	0x62
 1632 07fc 02       		.byte	0x2
 1633 07fd 23       		.byte	0x23
 1634 07fe 04       		.uleb128 0x4
 1635 07ff 06       		.uleb128 0x6
 1636 0800 47050000 		.4byte	.LASF99
ARM GAS  /tmp/ccoeCygb.s 			page 30


 1637 0804 0D       		.byte	0xd
 1638 0805 E7       		.byte	0xe7
 1639 0806 62000000 		.4byte	0x62
 1640 080a 02       		.byte	0x2
 1641 080b 23       		.byte	0x23
 1642 080c 06       		.uleb128 0x6
 1643 080d 06       		.uleb128 0x6
 1644 080e 4E050000 		.4byte	.LASF100
 1645 0812 0D       		.byte	0xd
 1646 0813 EB       		.byte	0xeb
 1647 0814 62000000 		.4byte	0x62
 1648 0818 02       		.byte	0x2
 1649 0819 23       		.byte	0x23
 1650 081a 08       		.uleb128 0x8
 1651 081b 00       		.byte	0
 1652 081c 03       		.uleb128 0x3
 1653 081d 0A030000 		.4byte	.LASF101
 1654 0821 0D       		.byte	0xd
 1655 0822 EC       		.byte	0xec
 1656 0823 DB070000 		.4byte	0x7db
 1657 0827 05       		.uleb128 0x5
 1658 0828 8F010000 		.4byte	.LASF102
 1659 082c 20       		.byte	0x20
 1660 082d 0C       		.byte	0xc
 1661 082e 75       		.byte	0x75
 1662 082f A4080000 		.4byte	0x8a4
 1663 0833 06       		.uleb128 0x6
 1664 0834 A9020000 		.4byte	.LASF103
 1665 0838 0C       		.byte	0xc
 1666 0839 76       		.byte	0x76
 1667 083a 79050000 		.4byte	0x579
 1668 083e 02       		.byte	0x2
 1669 083f 23       		.byte	0x23
 1670 0840 00       		.uleb128 0
 1671 0841 06       		.uleb128 0x6
 1672 0842 4E040000 		.4byte	.LASF104
 1673 0846 0C       		.byte	0xc
 1674 0847 76       		.byte	0x76
 1675 0848 99050000 		.4byte	0x599
 1676 084c 02       		.byte	0x2
 1677 084d 23       		.byte	0x23
 1678 084e 04       		.uleb128 0x4
 1679 084f 07       		.uleb128 0x7
 1680 0850 70757400 		.ascii	"put\000"
 1681 0854 0C       		.byte	0xc
 1682 0855 76       		.byte	0x76
 1683 0856 B4050000 		.4byte	0x5b4
 1684 085a 02       		.byte	0x2
 1685 085b 23       		.byte	0x23
 1686 085c 08       		.uleb128 0x8
 1687 085d 07       		.uleb128 0x7
 1688 085e 67657400 		.ascii	"get\000"
 1689 0862 0C       		.byte	0xc
 1690 0863 76       		.byte	0x76
 1691 0864 77040000 		.4byte	0x477
 1692 0868 02       		.byte	0x2
 1693 0869 23       		.byte	0x23
ARM GAS  /tmp/ccoeCygb.s 			page 31


 1694 086a 0C       		.uleb128 0xc
 1695 086b 06       		.uleb128 0x6
 1696 086c AF020000 		.4byte	.LASF105
 1697 0870 0C       		.byte	0xc
 1698 0871 76       		.byte	0x76
 1699 0872 C4060000 		.4byte	0x6c4
 1700 0876 02       		.byte	0x2
 1701 0877 23       		.byte	0x23
 1702 0878 10       		.uleb128 0x10
 1703 0879 06       		.uleb128 0x6
 1704 087a CC010000 		.4byte	.LASF106
 1705 087e 0C       		.byte	0xc
 1706 087f 76       		.byte	0x76
 1707 0880 DF060000 		.4byte	0x6df
 1708 0884 02       		.byte	0x2
 1709 0885 23       		.byte	0x23
 1710 0886 14       		.uleb128 0x14
 1711 0887 06       		.uleb128 0x6
 1712 0888 05020000 		.4byte	.LASF107
 1713 088c 0C       		.byte	0xc
 1714 088d 76       		.byte	0x76
 1715 088e 04070000 		.4byte	0x704
 1716 0892 02       		.byte	0x2
 1717 0893 23       		.byte	0x23
 1718 0894 18       		.uleb128 0x18
 1719 0895 06       		.uleb128 0x6
 1720 0896 97000000 		.4byte	.LASF108
 1721 089a 0C       		.byte	0xc
 1722 089b 76       		.byte	0x76
 1723 089c 29070000 		.4byte	0x729
 1724 08a0 02       		.byte	0x2
 1725 08a1 23       		.byte	0x23
 1726 08a2 1C       		.uleb128 0x1c
 1727 08a3 00       		.byte	0
 1728 08a4 09       		.uleb128 0x9
 1729 08a5 04       		.byte	0x4
 1730 08a6 AA080000 		.4byte	0x8aa
 1731 08aa 10       		.uleb128 0x10
 1732 08ab 27080000 		.4byte	0x827
 1733 08af 19       		.uleb128 0x19
 1734 08b0 49000000 		.4byte	0x49
 1735 08b4 BF080000 		.4byte	0x8bf
 1736 08b8 1A       		.uleb128 0x1a
 1737 08b9 5A030000 		.4byte	0x35a
 1738 08bd 0F       		.byte	0xf
 1739 08be 00       		.byte	0
 1740 08bf 09       		.uleb128 0x9
 1741 08c0 04       		.byte	0x4
 1742 08c1 9E060000 		.4byte	0x69e
 1743 08c5 09       		.uleb128 0x9
 1744 08c6 04       		.byte	0x4
 1745 08c7 49050000 		.4byte	0x549
 1746 08cb 09       		.uleb128 0x9
 1747 08cc 04       		.byte	0x4
 1748 08cd 3E050000 		.4byte	0x53e
 1749 08d1 1B       		.uleb128 0x1b
 1750 08d2 97000000 		.4byte	.LASF108
ARM GAS  /tmp/ccoeCygb.s 			page 32


 1751 08d6 01       		.byte	0x1
 1752 08d7 5C       		.byte	0x5c
 1753 08d8 01       		.byte	0x1
 1754 08d9 30000000 		.4byte	0x30
 1755 08dd 00000000 		.4byte	.LFB125
 1756 08e1 06000000 		.4byte	.LFE125
 1757 08e5 02       		.byte	0x2
 1758 08e6 7D       		.byte	0x7d
 1759 08e7 00       		.sleb128 0
 1760 08e8 01       		.byte	0x1
 1761 08e9 4F090000 		.4byte	0x94f
 1762 08ed 1C       		.uleb128 0x1c
 1763 08ee 697000   		.ascii	"ip\000"
 1764 08f1 01       		.byte	0x1
 1765 08f2 5C       		.byte	0x5c
 1766 08f3 A7020000 		.4byte	0x2a7
 1767 08f7 00000000 		.4byte	.LLST0
 1768 08fb 1C       		.uleb128 0x1c
 1769 08fc 627000   		.ascii	"bp\000"
 1770 08ff 01       		.byte	0x1
 1771 0900 5C       		.byte	0x5c
 1772 0901 38050000 		.4byte	0x538
 1773 0905 2E000000 		.4byte	.LLST1
 1774 0909 1C       		.uleb128 0x1c
 1775 090a 6E00     		.ascii	"n\000"
 1776 090c 01       		.byte	0x1
 1777 090d 5C       		.byte	0x5c
 1778 090e 30000000 		.4byte	0x30
 1779 0912 4F000000 		.4byte	.LLST2
 1780 0916 1D       		.uleb128 0x1d
 1781 0917 F9020000 		.4byte	.LASF109
 1782 091b 01       		.byte	0x1
 1783 091c 5C       		.byte	0x5c
 1784 091d 09010000 		.4byte	0x109
 1785 0921 70000000 		.4byte	.LLST3
 1786 0925 1E       		.uleb128 0x1e
 1787 0926 06000000 		.4byte	.LVL2
 1788 092a 01       		.byte	0x1
 1789 092b 120F0000 		.4byte	0xf12
 1790 092f 1F       		.uleb128 0x1f
 1791 0930 01       		.byte	0x1
 1792 0931 53       		.byte	0x53
 1793 0932 03       		.byte	0x3
 1794 0933 F3       		.byte	0xf3
 1795 0934 01       		.uleb128 0x1
 1796 0935 53       		.byte	0x53
 1797 0936 1F       		.uleb128 0x1f
 1798 0937 01       		.byte	0x1
 1799 0938 52       		.byte	0x52
 1800 0939 03       		.byte	0x3
 1801 093a F3       		.byte	0xf3
 1802 093b 01       		.uleb128 0x1
 1803 093c 52       		.byte	0x52
 1804 093d 1F       		.uleb128 0x1f
 1805 093e 01       		.byte	0x1
 1806 093f 51       		.byte	0x51
 1807 0940 03       		.byte	0x3
ARM GAS  /tmp/ccoeCygb.s 			page 33


 1808 0941 F3       		.byte	0xf3
 1809 0942 01       		.uleb128 0x1
 1810 0943 51       		.byte	0x51
 1811 0944 1F       		.uleb128 0x1f
 1812 0945 01       		.byte	0x1
 1813 0946 50       		.byte	0x50
 1814 0947 05       		.byte	0x5
 1815 0948 F3       		.byte	0xf3
 1816 0949 01       		.uleb128 0x1
 1817 094a 50       		.byte	0x50
 1818 094b 23       		.byte	0x23
 1819 094c 0C       		.uleb128 0xc
 1820 094d 00       		.byte	0
 1821 094e 00       		.byte	0
 1822 094f 1B       		.uleb128 0x1b
 1823 0950 4E040000 		.4byte	.LASF104
 1824 0954 01       		.byte	0x1
 1825 0955 3D       		.byte	0x3d
 1826 0956 01       		.byte	0x1
 1827 0957 30000000 		.4byte	0x30
 1828 095b 00000000 		.4byte	.LFB119
 1829 095f 0A000000 		.4byte	.LFE119
 1830 0963 02       		.byte	0x2
 1831 0964 7D       		.byte	0x7d
 1832 0965 00       		.sleb128 0
 1833 0966 01       		.byte	0x1
 1834 0967 BD090000 		.4byte	0x9bd
 1835 096b 1C       		.uleb128 0x1c
 1836 096c 697000   		.ascii	"ip\000"
 1837 096f 01       		.byte	0x1
 1838 0970 3D       		.byte	0x3d
 1839 0971 A7020000 		.4byte	0x2a7
 1840 0975 91000000 		.4byte	.LLST4
 1841 0979 1C       		.uleb128 0x1c
 1842 097a 627000   		.ascii	"bp\000"
 1843 097d 01       		.byte	0x1
 1844 097e 3D       		.byte	0x3d
 1845 097f 38050000 		.4byte	0x538
 1846 0983 BF000000 		.4byte	.LLST5
 1847 0987 1C       		.uleb128 0x1c
 1848 0988 6E00     		.ascii	"n\000"
 1849 098a 01       		.byte	0x1
 1850 098b 3D       		.byte	0x3d
 1851 098c 30000000 		.4byte	0x30
 1852 0990 E0000000 		.4byte	.LLST6
 1853 0994 1E       		.uleb128 0x1e
 1854 0995 0A000000 		.4byte	.LVL5
 1855 0999 01       		.byte	0x1
 1856 099a 120F0000 		.4byte	0xf12
 1857 099e 1F       		.uleb128 0x1f
 1858 099f 01       		.byte	0x1
 1859 09a0 53       		.byte	0x53
 1860 09a1 02       		.byte	0x2
 1861 09a2 09       		.byte	0x9
 1862 09a3 FF       		.byte	0xff
 1863 09a4 1F       		.uleb128 0x1f
 1864 09a5 01       		.byte	0x1
ARM GAS  /tmp/ccoeCygb.s 			page 34


 1865 09a6 52       		.byte	0x52
 1866 09a7 03       		.byte	0x3
 1867 09a8 F3       		.byte	0xf3
 1868 09a9 01       		.uleb128 0x1
 1869 09aa 52       		.byte	0x52
 1870 09ab 1F       		.uleb128 0x1f
 1871 09ac 01       		.byte	0x1
 1872 09ad 51       		.byte	0x51
 1873 09ae 03       		.byte	0x3
 1874 09af F3       		.byte	0xf3
 1875 09b0 01       		.uleb128 0x1
 1876 09b1 51       		.byte	0x51
 1877 09b2 1F       		.uleb128 0x1f
 1878 09b3 01       		.byte	0x1
 1879 09b4 50       		.byte	0x50
 1880 09b5 05       		.byte	0x5
 1881 09b6 F3       		.byte	0xf3
 1882 09b7 01       		.uleb128 0x1
 1883 09b8 50       		.byte	0x50
 1884 09b9 23       		.byte	0x23
 1885 09ba 0C       		.uleb128 0xc
 1886 09bb 00       		.byte	0
 1887 09bc 00       		.byte	0
 1888 09bd 1B       		.uleb128 0x1b
 1889 09be 05020000 		.4byte	.LASF107
 1890 09c2 01       		.byte	0x1
 1891 09c3 57       		.byte	0x57
 1892 09c4 01       		.byte	0x1
 1893 09c5 30000000 		.4byte	0x30
 1894 09c9 00000000 		.4byte	.LFB124
 1895 09cd 06000000 		.4byte	.LFE124
 1896 09d1 02       		.byte	0x2
 1897 09d2 7D       		.byte	0x7d
 1898 09d3 00       		.sleb128 0
 1899 09d4 01       		.byte	0x1
 1900 09d5 3B0A0000 		.4byte	0xa3b
 1901 09d9 1C       		.uleb128 0x1c
 1902 09da 697000   		.ascii	"ip\000"
 1903 09dd 01       		.byte	0x1
 1904 09de 57       		.byte	0x57
 1905 09df A7020000 		.4byte	0x2a7
 1906 09e3 01010000 		.4byte	.LLST7
 1907 09e7 1C       		.uleb128 0x1c
 1908 09e8 627000   		.ascii	"bp\000"
 1909 09eb 01       		.byte	0x1
 1910 09ec 57       		.byte	0x57
 1911 09ed 6E050000 		.4byte	0x56e
 1912 09f1 2F010000 		.4byte	.LLST8
 1913 09f5 1C       		.uleb128 0x1c
 1914 09f6 6E00     		.ascii	"n\000"
 1915 09f8 01       		.byte	0x1
 1916 09f9 57       		.byte	0x57
 1917 09fa 30000000 		.4byte	0x30
 1918 09fe 50010000 		.4byte	.LLST9
 1919 0a02 1D       		.uleb128 0x1d
 1920 0a03 F9020000 		.4byte	.LASF109
 1921 0a07 01       		.byte	0x1
ARM GAS  /tmp/ccoeCygb.s 			page 35


 1922 0a08 57       		.byte	0x57
 1923 0a09 09010000 		.4byte	0x109
 1924 0a0d 71010000 		.4byte	.LLST10
 1925 0a11 1E       		.uleb128 0x1e
 1926 0a12 06000000 		.4byte	.LVL8
 1927 0a16 01       		.byte	0x1
 1928 0a17 3A0F0000 		.4byte	0xf3a
 1929 0a1b 1F       		.uleb128 0x1f
 1930 0a1c 01       		.byte	0x1
 1931 0a1d 53       		.byte	0x53
 1932 0a1e 03       		.byte	0x3
 1933 0a1f F3       		.byte	0xf3
 1934 0a20 01       		.uleb128 0x1
 1935 0a21 53       		.byte	0x53
 1936 0a22 1F       		.uleb128 0x1f
 1937 0a23 01       		.byte	0x1
 1938 0a24 52       		.byte	0x52
 1939 0a25 03       		.byte	0x3
 1940 0a26 F3       		.byte	0xf3
 1941 0a27 01       		.uleb128 0x1
 1942 0a28 52       		.byte	0x52
 1943 0a29 1F       		.uleb128 0x1f
 1944 0a2a 01       		.byte	0x1
 1945 0a2b 51       		.byte	0x51
 1946 0a2c 03       		.byte	0x3
 1947 0a2d F3       		.byte	0xf3
 1948 0a2e 01       		.uleb128 0x1
 1949 0a2f 51       		.byte	0x51
 1950 0a30 1F       		.uleb128 0x1f
 1951 0a31 01       		.byte	0x1
 1952 0a32 50       		.byte	0x50
 1953 0a33 05       		.byte	0x5
 1954 0a34 F3       		.byte	0xf3
 1955 0a35 01       		.uleb128 0x1
 1956 0a36 50       		.byte	0x50
 1957 0a37 23       		.byte	0x23
 1958 0a38 30       		.uleb128 0x30
 1959 0a39 00       		.byte	0
 1960 0a3a 00       		.byte	0
 1961 0a3b 1B       		.uleb128 0x1b
 1962 0a3c A9020000 		.4byte	.LASF103
 1963 0a40 01       		.byte	0x1
 1964 0a41 37       		.byte	0x37
 1965 0a42 01       		.byte	0x1
 1966 0a43 30000000 		.4byte	0x30
 1967 0a47 00000000 		.4byte	.LFB118
 1968 0a4b 0A000000 		.4byte	.LFE118
 1969 0a4f 02       		.byte	0x2
 1970 0a50 7D       		.byte	0x7d
 1971 0a51 00       		.sleb128 0
 1972 0a52 01       		.byte	0x1
 1973 0a53 A90A0000 		.4byte	0xaa9
 1974 0a57 1C       		.uleb128 0x1c
 1975 0a58 697000   		.ascii	"ip\000"
 1976 0a5b 01       		.byte	0x1
 1977 0a5c 37       		.byte	0x37
 1978 0a5d A7020000 		.4byte	0x2a7
ARM GAS  /tmp/ccoeCygb.s 			page 36


 1979 0a61 92010000 		.4byte	.LLST11
 1980 0a65 1C       		.uleb128 0x1c
 1981 0a66 627000   		.ascii	"bp\000"
 1982 0a69 01       		.byte	0x1
 1983 0a6a 37       		.byte	0x37
 1984 0a6b 6E050000 		.4byte	0x56e
 1985 0a6f C0010000 		.4byte	.LLST12
 1986 0a73 1C       		.uleb128 0x1c
 1987 0a74 6E00     		.ascii	"n\000"
 1988 0a76 01       		.byte	0x1
 1989 0a77 37       		.byte	0x37
 1990 0a78 30000000 		.4byte	0x30
 1991 0a7c E1010000 		.4byte	.LLST13
 1992 0a80 1E       		.uleb128 0x1e
 1993 0a81 0A000000 		.4byte	.LVL11
 1994 0a85 01       		.byte	0x1
 1995 0a86 3A0F0000 		.4byte	0xf3a
 1996 0a8a 1F       		.uleb128 0x1f
 1997 0a8b 01       		.byte	0x1
 1998 0a8c 53       		.byte	0x53
 1999 0a8d 02       		.byte	0x2
 2000 0a8e 09       		.byte	0x9
 2001 0a8f FF       		.byte	0xff
 2002 0a90 1F       		.uleb128 0x1f
 2003 0a91 01       		.byte	0x1
 2004 0a92 52       		.byte	0x52
 2005 0a93 03       		.byte	0x3
 2006 0a94 F3       		.byte	0xf3
 2007 0a95 01       		.uleb128 0x1
 2008 0a96 52       		.byte	0x52
 2009 0a97 1F       		.uleb128 0x1f
 2010 0a98 01       		.byte	0x1
 2011 0a99 51       		.byte	0x51
 2012 0a9a 03       		.byte	0x3
 2013 0a9b F3       		.byte	0xf3
 2014 0a9c 01       		.uleb128 0x1
 2015 0a9d 51       		.byte	0x51
 2016 0a9e 1F       		.uleb128 0x1f
 2017 0a9f 01       		.byte	0x1
 2018 0aa0 50       		.byte	0x50
 2019 0aa1 05       		.byte	0x5
 2020 0aa2 F3       		.byte	0xf3
 2021 0aa3 01       		.uleb128 0x1
 2022 0aa4 50       		.byte	0x50
 2023 0aa5 23       		.byte	0x23
 2024 0aa6 30       		.uleb128 0x30
 2025 0aa7 00       		.byte	0
 2026 0aa8 00       		.byte	0
 2027 0aa9 1B       		.uleb128 0x1b
 2028 0aaa CC010000 		.4byte	.LASF106
 2029 0aae 01       		.byte	0x1
 2030 0aaf 52       		.byte	0x52
 2031 0ab0 01       		.byte	0x1
 2032 0ab1 E8000000 		.4byte	0xe8
 2033 0ab5 00000000 		.4byte	.LFB123
 2034 0ab9 06000000 		.4byte	.LFE123
 2035 0abd 02       		.byte	0x2
ARM GAS  /tmp/ccoeCygb.s 			page 37


 2036 0abe 7D       		.byte	0x7d
 2037 0abf 00       		.sleb128 0
 2038 0ac0 01       		.byte	0x1
 2039 0ac1 FE0A0000 		.4byte	0xafe
 2040 0ac5 1C       		.uleb128 0x1c
 2041 0ac6 697000   		.ascii	"ip\000"
 2042 0ac9 01       		.byte	0x1
 2043 0aca 52       		.byte	0x52
 2044 0acb A7020000 		.4byte	0x2a7
 2045 0acf 02020000 		.4byte	.LLST14
 2046 0ad3 1D       		.uleb128 0x1d
 2047 0ad4 F1020000 		.4byte	.LASF110
 2048 0ad8 01       		.byte	0x1
 2049 0ad9 52       		.byte	0x52
 2050 0ada 09010000 		.4byte	0x109
 2051 0ade 30020000 		.4byte	.LLST15
 2052 0ae2 1E       		.uleb128 0x1e
 2053 0ae3 06000000 		.4byte	.LVL14
 2054 0ae7 01       		.byte	0x1
 2055 0ae8 620F0000 		.4byte	0xf62
 2056 0aec 1F       		.uleb128 0x1f
 2057 0aed 01       		.byte	0x1
 2058 0aee 51       		.byte	0x51
 2059 0aef 03       		.byte	0x3
 2060 0af0 F3       		.byte	0xf3
 2061 0af1 01       		.uleb128 0x1
 2062 0af2 51       		.byte	0x51
 2063 0af3 1F       		.uleb128 0x1f
 2064 0af4 01       		.byte	0x1
 2065 0af5 50       		.byte	0x50
 2066 0af6 05       		.byte	0x5
 2067 0af7 F3       		.byte	0xf3
 2068 0af8 01       		.uleb128 0x1
 2069 0af9 50       		.byte	0x50
 2070 0afa 23       		.byte	0x23
 2071 0afb 0C       		.uleb128 0xc
 2072 0afc 00       		.byte	0
 2073 0afd 00       		.byte	0
 2074 0afe 20       		.uleb128 0x20
 2075 0aff 67657400 		.ascii	"get\000"
 2076 0b03 01       		.byte	0x1
 2077 0b04 48       		.byte	0x48
 2078 0b05 01       		.byte	0x1
 2079 0b06 E8000000 		.4byte	0xe8
 2080 0b0a 00000000 		.4byte	.LFB121
 2081 0b0e 0A000000 		.4byte	.LFE121
 2082 0b12 02       		.byte	0x2
 2083 0b13 7D       		.byte	0x7d
 2084 0b14 00       		.sleb128 0
 2085 0b15 01       		.byte	0x1
 2086 0b16 430B0000 		.4byte	0xb43
 2087 0b1a 1C       		.uleb128 0x1c
 2088 0b1b 697000   		.ascii	"ip\000"
 2089 0b1e 01       		.byte	0x1
 2090 0b1f 48       		.byte	0x48
 2091 0b20 A7020000 		.4byte	0x2a7
 2092 0b24 51020000 		.4byte	.LLST16
ARM GAS  /tmp/ccoeCygb.s 			page 38


 2093 0b28 1E       		.uleb128 0x1e
 2094 0b29 0A000000 		.4byte	.LVL17
 2095 0b2d 01       		.byte	0x1
 2096 0b2e 620F0000 		.4byte	0xf62
 2097 0b32 1F       		.uleb128 0x1f
 2098 0b33 01       		.byte	0x1
 2099 0b34 51       		.byte	0x51
 2100 0b35 02       		.byte	0x2
 2101 0b36 09       		.byte	0x9
 2102 0b37 FF       		.byte	0xff
 2103 0b38 1F       		.uleb128 0x1f
 2104 0b39 01       		.byte	0x1
 2105 0b3a 50       		.byte	0x50
 2106 0b3b 05       		.byte	0x5
 2107 0b3c F3       		.byte	0xf3
 2108 0b3d 01       		.uleb128 0x1
 2109 0b3e 50       		.byte	0x50
 2110 0b3f 23       		.byte	0x23
 2111 0b40 0C       		.uleb128 0xc
 2112 0b41 00       		.byte	0
 2113 0b42 00       		.byte	0
 2114 0b43 1B       		.uleb128 0x1b
 2115 0b44 AF020000 		.4byte	.LASF105
 2116 0b48 01       		.byte	0x1
 2117 0b49 4D       		.byte	0x4d
 2118 0b4a 01       		.byte	0x1
 2119 0b4b E8000000 		.4byte	0xe8
 2120 0b4f 00000000 		.4byte	.LFB122
 2121 0b53 06000000 		.4byte	.LFE122
 2122 0b57 02       		.byte	0x2
 2123 0b58 7D       		.byte	0x7d
 2124 0b59 00       		.sleb128 0
 2125 0b5a 01       		.byte	0x1
 2126 0b5b A50B0000 		.4byte	0xba5
 2127 0b5f 1C       		.uleb128 0x1c
 2128 0b60 697000   		.ascii	"ip\000"
 2129 0b63 01       		.byte	0x1
 2130 0b64 4D       		.byte	0x4d
 2131 0b65 A7020000 		.4byte	0x2a7
 2132 0b69 7F020000 		.4byte	.LLST17
 2133 0b6d 1C       		.uleb128 0x1c
 2134 0b6e 6200     		.ascii	"b\000"
 2135 0b70 01       		.byte	0x1
 2136 0b71 4D       		.byte	0x4d
 2137 0b72 49000000 		.4byte	0x49
 2138 0b76 AD020000 		.4byte	.LLST18
 2139 0b7a 1D       		.uleb128 0x1d
 2140 0b7b F1020000 		.4byte	.LASF110
 2141 0b7f 01       		.byte	0x1
 2142 0b80 4D       		.byte	0x4d
 2143 0b81 09010000 		.4byte	0x109
 2144 0b85 CE020000 		.4byte	.LLST19
 2145 0b89 1E       		.uleb128 0x1e
 2146 0b8a 06000000 		.4byte	.LVL20
 2147 0b8e 01       		.byte	0x1
 2148 0b8f 800F0000 		.4byte	0xf80
 2149 0b93 1F       		.uleb128 0x1f
ARM GAS  /tmp/ccoeCygb.s 			page 39


 2150 0b94 01       		.byte	0x1
 2151 0b95 52       		.byte	0x52
 2152 0b96 03       		.byte	0x3
 2153 0b97 F3       		.byte	0xf3
 2154 0b98 01       		.uleb128 0x1
 2155 0b99 52       		.byte	0x52
 2156 0b9a 1F       		.uleb128 0x1f
 2157 0b9b 01       		.byte	0x1
 2158 0b9c 50       		.byte	0x50
 2159 0b9d 05       		.byte	0x5
 2160 0b9e F3       		.byte	0xf3
 2161 0b9f 01       		.uleb128 0x1
 2162 0ba0 50       		.byte	0x50
 2163 0ba1 23       		.byte	0x23
 2164 0ba2 30       		.uleb128 0x30
 2165 0ba3 00       		.byte	0
 2166 0ba4 00       		.byte	0
 2167 0ba5 20       		.uleb128 0x20
 2168 0ba6 70757400 		.ascii	"put\000"
 2169 0baa 01       		.byte	0x1
 2170 0bab 43       		.byte	0x43
 2171 0bac 01       		.byte	0x1
 2172 0bad E8000000 		.4byte	0xe8
 2173 0bb1 00000000 		.4byte	.LFB120
 2174 0bb5 0A000000 		.4byte	.LFE120
 2175 0bb9 02       		.byte	0x2
 2176 0bba 7D       		.byte	0x7d
 2177 0bbb 00       		.sleb128 0
 2178 0bbc 01       		.byte	0x1
 2179 0bbd F70B0000 		.4byte	0xbf7
 2180 0bc1 1C       		.uleb128 0x1c
 2181 0bc2 697000   		.ascii	"ip\000"
 2182 0bc5 01       		.byte	0x1
 2183 0bc6 43       		.byte	0x43
 2184 0bc7 A7020000 		.4byte	0x2a7
 2185 0bcb EF020000 		.4byte	.LLST20
 2186 0bcf 1C       		.uleb128 0x1c
 2187 0bd0 6200     		.ascii	"b\000"
 2188 0bd2 01       		.byte	0x1
 2189 0bd3 43       		.byte	0x43
 2190 0bd4 49000000 		.4byte	0x49
 2191 0bd8 1D030000 		.4byte	.LLST21
 2192 0bdc 1E       		.uleb128 0x1e
 2193 0bdd 0A000000 		.4byte	.LVL23
 2194 0be1 01       		.byte	0x1
 2195 0be2 800F0000 		.4byte	0xf80
 2196 0be6 1F       		.uleb128 0x1f
 2197 0be7 01       		.byte	0x1
 2198 0be8 52       		.byte	0x52
 2199 0be9 02       		.byte	0x2
 2200 0bea 09       		.byte	0x9
 2201 0beb FF       		.byte	0xff
 2202 0bec 1F       		.uleb128 0x1f
 2203 0bed 01       		.byte	0x1
 2204 0bee 50       		.byte	0x50
 2205 0bef 05       		.byte	0x5
 2206 0bf0 F3       		.byte	0xf3
ARM GAS  /tmp/ccoeCygb.s 			page 40


 2207 0bf1 01       		.uleb128 0x1
 2208 0bf2 50       		.byte	0x50
 2209 0bf3 23       		.byte	0x23
 2210 0bf4 30       		.uleb128 0x30
 2211 0bf5 00       		.byte	0
 2212 0bf6 00       		.byte	0
 2213 0bf7 21       		.uleb128 0x21
 2214 0bf8 01       		.byte	0x1
 2215 0bf9 55050000 		.4byte	.LASF111
 2216 0bfd 01       		.byte	0x1
 2217 0bfe 71       		.byte	0x71
 2218 0bff 01       		.byte	0x1
 2219 0c00 00000000 		.4byte	.LFB126
 2220 0c04 04000000 		.4byte	.LFE126
 2221 0c08 02       		.byte	0x2
 2222 0c09 7D       		.byte	0x7d
 2223 0c0a 00       		.sleb128 0
 2224 0c0b 01       		.byte	0x1
 2225 0c0c 1B0C0000 		.4byte	0xc1b
 2226 0c10 22       		.uleb128 0x22
 2227 0c11 04000000 		.4byte	.LVL24
 2228 0c15 01       		.byte	0x1
 2229 0c16 A30F0000 		.4byte	0xfa3
 2230 0c1a 00       		.byte	0
 2231 0c1b 23       		.uleb128 0x23
 2232 0c1c 01       		.byte	0x1
 2233 0c1d 8A000000 		.4byte	.LASF112
 2234 0c21 01       		.byte	0x1
 2235 0c22 85       		.byte	0x85
 2236 0c23 01       		.byte	0x1
 2237 0c24 00000000 		.4byte	.LFB127
 2238 0c28 44000000 		.4byte	.LFE127
 2239 0c2c 3E030000 		.4byte	.LLST22
 2240 0c30 01       		.byte	0x1
 2241 0c31 BA0C0000 		.4byte	0xcba
 2242 0c35 1C       		.uleb128 0x1c
 2243 0c36 73647000 		.ascii	"sdp\000"
 2244 0c3a 01       		.byte	0x1
 2245 0c3b 85       		.byte	0x85
 2246 0c3c BA0C0000 		.4byte	0xcba
 2247 0c40 6A030000 		.4byte	.LLST23
 2248 0c44 1D       		.uleb128 0x1d
 2249 0c45 A6010000 		.4byte	.LASF113
 2250 0c49 01       		.byte	0x1
 2251 0c4a 85       		.byte	0x85
 2252 0c4b 15050000 		.4byte	0x515
 2253 0c4f 88030000 		.4byte	.LLST24
 2254 0c53 1D       		.uleb128 0x1d
 2255 0c54 11050000 		.4byte	.LASF114
 2256 0c58 01       		.byte	0x1
 2257 0c59 85       		.byte	0x85
 2258 0c5a 15050000 		.4byte	0x515
 2259 0c5e B4030000 		.4byte	.LLST25
 2260 0c62 24       		.uleb128 0x24
 2261 0c63 2E000000 		.4byte	.LVL29
 2262 0c67 AE0F0000 		.4byte	0xfae
 2263 0c6b 900C0000 		.4byte	0xc90
ARM GAS  /tmp/ccoeCygb.s 			page 41


 2264 0c6f 1F       		.uleb128 0x1f
 2265 0c70 01       		.byte	0x1
 2266 0c71 53       		.byte	0x53
 2267 0c72 03       		.byte	0x3
 2268 0c73 F3       		.byte	0xf3
 2269 0c74 01       		.uleb128 0x1
 2270 0c75 51       		.byte	0x51
 2271 0c76 1F       		.uleb128 0x1f
 2272 0c77 01       		.byte	0x1
 2273 0c78 52       		.byte	0x52
 2274 0c79 01       		.byte	0x1
 2275 0c7a 40       		.byte	0x40
 2276 0c7b 1F       		.uleb128 0x1f
 2277 0c7c 01       		.byte	0x1
 2278 0c7d 51       		.byte	0x51
 2279 0c7e 03       		.byte	0x3
 2280 0c7f 74       		.byte	0x74
 2281 0c80 D400     		.sleb128 84
 2282 0c82 1F       		.uleb128 0x1f
 2283 0c83 01       		.byte	0x1
 2284 0c84 50       		.byte	0x50
 2285 0c85 02       		.byte	0x2
 2286 0c86 74       		.byte	0x74
 2287 0c87 0C       		.sleb128 12
 2288 0c88 1F       		.uleb128 0x1f
 2289 0c89 02       		.byte	0x2
 2290 0c8a 7D       		.byte	0x7d
 2291 0c8b 00       		.sleb128 0
 2292 0c8c 02       		.byte	0x2
 2293 0c8d 74       		.byte	0x74
 2294 0c8e 00       		.sleb128 0
 2295 0c8f 00       		.byte	0
 2296 0c90 25       		.uleb128 0x25
 2297 0c91 40000000 		.4byte	.LVL30
 2298 0c95 D70F0000 		.4byte	0xfd7
 2299 0c99 1F       		.uleb128 0x1f
 2300 0c9a 01       		.byte	0x1
 2301 0c9b 53       		.byte	0x53
 2302 0c9c 02       		.byte	0x2
 2303 0c9d 76       		.byte	0x76
 2304 0c9e 00       		.sleb128 0
 2305 0c9f 1F       		.uleb128 0x1f
 2306 0ca0 01       		.byte	0x1
 2307 0ca1 52       		.byte	0x52
 2308 0ca2 01       		.byte	0x1
 2309 0ca3 40       		.byte	0x40
 2310 0ca4 1F       		.uleb128 0x1f
 2311 0ca5 01       		.byte	0x1
 2312 0ca6 51       		.byte	0x51
 2313 0ca7 03       		.byte	0x3
 2314 0ca8 74       		.byte	0x74
 2315 0ca9 E400     		.sleb128 100
 2316 0cab 1F       		.uleb128 0x1f
 2317 0cac 01       		.byte	0x1
 2318 0cad 50       		.byte	0x50
 2319 0cae 02       		.byte	0x2
 2320 0caf 74       		.byte	0x74
ARM GAS  /tmp/ccoeCygb.s 			page 42


 2321 0cb0 30       		.sleb128 48
 2322 0cb1 1F       		.uleb128 0x1f
 2323 0cb2 02       		.byte	0x2
 2324 0cb3 7D       		.byte	0x7d
 2325 0cb4 00       		.sleb128 0
 2326 0cb5 02       		.byte	0x2
 2327 0cb6 74       		.byte	0x74
 2328 0cb7 00       		.sleb128 0
 2329 0cb8 00       		.byte	0
 2330 0cb9 00       		.byte	0
 2331 0cba 09       		.uleb128 0x9
 2332 0cbb 04       		.byte	0x4
 2333 0cbc 55070000 		.4byte	0x755
 2334 0cc0 23       		.uleb128 0x23
 2335 0cc1 01       		.byte	0x1
 2336 0cc2 6F040000 		.4byte	.LASF115
 2337 0cc6 01       		.byte	0x1
 2338 0cc7 98       		.byte	0x98
 2339 0cc8 01       		.byte	0x1
 2340 0cc9 00000000 		.4byte	.LFB128
 2341 0ccd 1A000000 		.4byte	.LFE128
 2342 0cd1 D2030000 		.4byte	.LLST26
 2343 0cd5 01       		.byte	0x1
 2344 0cd6 460D0000 		.4byte	0xd46
 2345 0cda 1C       		.uleb128 0x1c
 2346 0cdb 73647000 		.ascii	"sdp\000"
 2347 0cdf 01       		.byte	0x1
 2348 0ce0 98       		.byte	0x98
 2349 0ce1 BA0C0000 		.4byte	0xcba
 2350 0ce5 F2030000 		.4byte	.LLST27
 2351 0ce9 1D       		.uleb128 0x1d
 2352 0cea 68040000 		.4byte	.LASF116
 2353 0cee 01       		.byte	0x1
 2354 0cef 98       		.byte	0x98
 2355 0cf0 460D0000 		.4byte	0xd46
 2356 0cf4 10040000 		.4byte	.LLST28
 2357 0cf8 26       		.uleb128 0x26
 2358 0cf9 00000000 		.4byte	.Ldebug_ranges0+0
 2359 0cfd 110D0000 		.4byte	0xd11
 2360 0d01 27       		.uleb128 0x27
 2361 0d02 746D7000 		.ascii	"tmp\000"
 2362 0d06 01       		.byte	0x1
 2363 0d07 9C       		.byte	0x9c
 2364 0d08 86000000 		.4byte	0x86
 2365 0d0c 31040000 		.4byte	.LLST29
 2366 0d10 00       		.byte	0
 2367 0d11 28       		.uleb128 0x28
 2368 0d12 12000000 		.4byte	.LBB4
 2369 0d16 1A000000 		.4byte	.LBE4
 2370 0d1a 2E0D0000 		.4byte	0xd2e
 2371 0d1e 27       		.uleb128 0x27
 2372 0d1f 746D7000 		.ascii	"tmp\000"
 2373 0d23 01       		.byte	0x1
 2374 0d24 A2       		.byte	0xa2
 2375 0d25 86000000 		.4byte	0x86
 2376 0d29 44040000 		.4byte	.LLST30
 2377 0d2d 00       		.byte	0
ARM GAS  /tmp/ccoeCygb.s 			page 43


 2378 0d2e 25       		.uleb128 0x25
 2379 0d2f 0E000000 		.4byte	.LVL34
 2380 0d33 00100000 		.4byte	0x1000
 2381 0d37 1F       		.uleb128 0x1f
 2382 0d38 01       		.byte	0x1
 2383 0d39 51       		.byte	0x51
 2384 0d3a 03       		.byte	0x3
 2385 0d3b F3       		.byte	0xf3
 2386 0d3c 01       		.uleb128 0x1
 2387 0d3d 51       		.byte	0x51
 2388 0d3e 1F       		.uleb128 0x1f
 2389 0d3f 01       		.byte	0x1
 2390 0d40 50       		.byte	0x50
 2391 0d41 02       		.byte	0x2
 2392 0d42 74       		.byte	0x74
 2393 0d43 00       		.sleb128 0
 2394 0d44 00       		.byte	0
 2395 0d45 00       		.byte	0
 2396 0d46 09       		.uleb128 0x9
 2397 0d47 04       		.byte	0x4
 2398 0d48 4C0D0000 		.4byte	0xd4c
 2399 0d4c 10       		.uleb128 0x10
 2400 0d4d 1C080000 		.4byte	0x81c
 2401 0d51 23       		.uleb128 0x23
 2402 0d52 01       		.byte	0x1
 2403 0d53 83000000 		.4byte	.LASF117
 2404 0d57 01       		.byte	0x1
 2405 0d58 AE       		.byte	0xae
 2406 0d59 01       		.byte	0x1
 2407 0d5a 00000000 		.4byte	.LFB129
 2408 0d5e 2E000000 		.4byte	.LFE129
 2409 0d62 57040000 		.4byte	.LLST31
 2410 0d66 01       		.byte	0x1
 2411 0d67 F60D0000 		.4byte	0xdf6
 2412 0d6b 1C       		.uleb128 0x1c
 2413 0d6c 73647000 		.ascii	"sdp\000"
 2414 0d70 01       		.byte	0x1
 2415 0d71 AE       		.byte	0xae
 2416 0d72 BA0C0000 		.4byte	0xcba
 2417 0d76 77040000 		.4byte	.LLST32
 2418 0d7a 26       		.uleb128 0x26
 2419 0d7b 18000000 		.4byte	.Ldebug_ranges0+0x18
 2420 0d7f 930D0000 		.4byte	0xd93
 2421 0d83 27       		.uleb128 0x27
 2422 0d84 746D7000 		.ascii	"tmp\000"
 2423 0d88 01       		.byte	0x1
 2424 0d89 B2       		.byte	0xb2
 2425 0d8a 86000000 		.4byte	0x86
 2426 0d8e 95040000 		.4byte	.LLST33
 2427 0d92 00       		.byte	0
 2428 0d93 28       		.uleb128 0x28
 2429 0d94 26000000 		.4byte	.LBB7
 2430 0d98 2E000000 		.4byte	.LBE7
 2431 0d9c B00D0000 		.4byte	0xdb0
 2432 0da0 27       		.uleb128 0x27
 2433 0da1 746D7000 		.ascii	"tmp\000"
 2434 0da5 01       		.byte	0x1
ARM GAS  /tmp/ccoeCygb.s 			page 44


 2435 0da6 BB       		.byte	0xbb
 2436 0da7 86000000 		.4byte	0x86
 2437 0dab A8040000 		.4byte	.LLST34
 2438 0daf 00       		.byte	0
 2439 0db0 24       		.uleb128 0x24
 2440 0db1 0E000000 		.4byte	.LVL40
 2441 0db5 1A100000 		.4byte	0x101a
 2442 0db9 C40D0000 		.4byte	0xdc4
 2443 0dbd 1F       		.uleb128 0x1f
 2444 0dbe 01       		.byte	0x1
 2445 0dbf 50       		.byte	0x50
 2446 0dc0 02       		.byte	0x2
 2447 0dc1 74       		.byte	0x74
 2448 0dc2 00       		.sleb128 0
 2449 0dc3 00       		.byte	0
 2450 0dc4 24       		.uleb128 0x24
 2451 0dc5 1A000000 		.4byte	.LVL41
 2452 0dc9 2F100000 		.4byte	0x102f
 2453 0dcd D80D0000 		.4byte	0xdd8
 2454 0dd1 1F       		.uleb128 0x1f
 2455 0dd2 01       		.byte	0x1
 2456 0dd3 50       		.byte	0x50
 2457 0dd4 02       		.byte	0x2
 2458 0dd5 74       		.byte	0x74
 2459 0dd6 30       		.sleb128 48
 2460 0dd7 00       		.byte	0
 2461 0dd8 24       		.uleb128 0x24
 2462 0dd9 22000000 		.4byte	.LVL42
 2463 0ddd 44100000 		.4byte	0x1044
 2464 0de1 EC0D0000 		.4byte	0xdec
 2465 0de5 1F       		.uleb128 0x1f
 2466 0de6 01       		.byte	0x1
 2467 0de7 50       		.byte	0x50
 2468 0de8 02       		.byte	0x2
 2469 0de9 74       		.byte	0x74
 2470 0dea 0C       		.sleb128 12
 2471 0deb 00       		.byte	0
 2472 0dec 29       		.uleb128 0x29
 2473 0ded 26000000 		.4byte	.LVL43
 2474 0df1 59100000 		.4byte	0x1059
 2475 0df5 00       		.byte	0
 2476 0df6 23       		.uleb128 0x23
 2477 0df7 01       		.byte	0x1
 2478 0df8 58040000 		.4byte	.LASF118
 2479 0dfc 01       		.byte	0x1
 2480 0dfd CE       		.byte	0xce
 2481 0dfe 01       		.byte	0x1
 2482 0dff 00000000 		.4byte	.LFB130
 2483 0e03 3C000000 		.4byte	.LFE130
 2484 0e07 BB040000 		.4byte	.LLST35
 2485 0e0b 01       		.byte	0x1
 2486 0e0c 910E0000 		.4byte	0xe91
 2487 0e10 1C       		.uleb128 0x1c
 2488 0e11 73647000 		.ascii	"sdp\000"
 2489 0e15 01       		.byte	0x1
 2490 0e16 CE       		.byte	0xce
 2491 0e17 BA0C0000 		.4byte	0xcba
ARM GAS  /tmp/ccoeCygb.s 			page 45


 2492 0e1b DB040000 		.4byte	.LLST36
 2493 0e1f 1C       		.uleb128 0x1c
 2494 0e20 6200     		.ascii	"b\000"
 2495 0e22 01       		.byte	0x1
 2496 0e23 CE       		.byte	0xce
 2497 0e24 49000000 		.4byte	0x49
 2498 0e28 0F050000 		.4byte	.LLST37
 2499 0e2c 24       		.uleb128 0x24
 2500 0e2d 14000000 		.4byte	.LVL49
 2501 0e31 63100000 		.4byte	0x1063
 2502 0e35 460E0000 		.4byte	0xe46
 2503 0e39 1F       		.uleb128 0x1f
 2504 0e3a 01       		.byte	0x1
 2505 0e3b 51       		.byte	0x51
 2506 0e3c 02       		.byte	0x2
 2507 0e3d 75       		.byte	0x75
 2508 0e3e 00       		.sleb128 0
 2509 0e3f 1F       		.uleb128 0x1f
 2510 0e40 01       		.byte	0x1
 2511 0e41 50       		.byte	0x50
 2512 0e42 02       		.byte	0x2
 2513 0e43 74       		.byte	0x74
 2514 0e44 0C       		.sleb128 12
 2515 0e45 00       		.byte	0
 2516 0e46 24       		.uleb128 0x24
 2517 0e47 22000000 		.4byte	.LVL53
 2518 0e4b 81100000 		.4byte	0x1081
 2519 0e4f 5F0E0000 		.4byte	0xe5f
 2520 0e53 1F       		.uleb128 0x1f
 2521 0e54 01       		.byte	0x1
 2522 0e55 51       		.byte	0x51
 2523 0e56 01       		.byte	0x1
 2524 0e57 34       		.byte	0x34
 2525 0e58 1F       		.uleb128 0x1f
 2526 0e59 01       		.byte	0x1
 2527 0e5a 50       		.byte	0x50
 2528 0e5b 02       		.byte	0x2
 2529 0e5c 74       		.byte	0x74
 2530 0e5d 04       		.sleb128 4
 2531 0e5e 00       		.byte	0
 2532 0e5f 24       		.uleb128 0x24
 2533 0e60 2C000000 		.4byte	.LVL54
 2534 0e64 63100000 		.4byte	0x1063
 2535 0e68 790E0000 		.4byte	0xe79
 2536 0e6c 1F       		.uleb128 0x1f
 2537 0e6d 01       		.byte	0x1
 2538 0e6e 51       		.byte	0x51
 2539 0e6f 02       		.byte	0x2
 2540 0e70 75       		.byte	0x75
 2541 0e71 00       		.sleb128 0
 2542 0e72 1F       		.uleb128 0x1f
 2543 0e73 01       		.byte	0x1
 2544 0e74 50       		.byte	0x50
 2545 0e75 02       		.byte	0x2
 2546 0e76 74       		.byte	0x74
 2547 0e77 0C       		.sleb128 12
 2548 0e78 00       		.byte	0
ARM GAS  /tmp/ccoeCygb.s 			page 46


 2549 0e79 1E       		.uleb128 0x1e
 2550 0e7a 3C000000 		.4byte	.LVL55
 2551 0e7e 01       		.byte	0x1
 2552 0e7f 81100000 		.4byte	0x1081
 2553 0e83 1F       		.uleb128 0x1f
 2554 0e84 01       		.byte	0x1
 2555 0e85 51       		.byte	0x51
 2556 0e86 02       		.byte	0x2
 2557 0e87 08       		.byte	0x8
 2558 0e88 80       		.byte	0x80
 2559 0e89 1F       		.uleb128 0x1f
 2560 0e8a 01       		.byte	0x1
 2561 0e8b 50       		.byte	0x50
 2562 0e8c 02       		.byte	0x2
 2563 0e8d 74       		.byte	0x74
 2564 0e8e 04       		.sleb128 4
 2565 0e8f 00       		.byte	0
 2566 0e90 00       		.byte	0
 2567 0e91 2A       		.uleb128 0x2a
 2568 0e92 01       		.byte	0x1
 2569 0e93 E0040000 		.4byte	.LASF137
 2570 0e97 01       		.byte	0x1
 2571 0e98 E8       		.byte	0xe8
 2572 0e99 01       		.byte	0x1
 2573 0e9a E8000000 		.4byte	0xe8
 2574 0e9e 00000000 		.4byte	.LFB131
 2575 0ea2 20000000 		.4byte	.LFE131
 2576 0ea6 49050000 		.4byte	.LLST38
 2577 0eaa 01       		.byte	0x1
 2578 0eab F30E0000 		.4byte	0xef3
 2579 0eaf 1C       		.uleb128 0x1c
 2580 0eb0 73647000 		.ascii	"sdp\000"
 2581 0eb4 01       		.byte	0x1
 2582 0eb5 E8       		.byte	0xe8
 2583 0eb6 BA0C0000 		.4byte	0xcba
 2584 0eba 69050000 		.4byte	.LLST39
 2585 0ebe 2B       		.uleb128 0x2b
 2586 0ebf 6200     		.ascii	"b\000"
 2587 0ec1 01       		.byte	0x1
 2588 0ec2 E9       		.byte	0xe9
 2589 0ec3 E8000000 		.4byte	0xe8
 2590 0ec7 01       		.byte	0x1
 2591 0ec8 50       		.byte	0x50
 2592 0ec9 24       		.uleb128 0x24
 2593 0eca 0C000000 		.4byte	.LVL58
 2594 0ece A0100000 		.4byte	0x10a0
 2595 0ed2 DD0E0000 		.4byte	0xedd
 2596 0ed6 1F       		.uleb128 0x1f
 2597 0ed7 01       		.byte	0x1
 2598 0ed8 50       		.byte	0x50
 2599 0ed9 02       		.byte	0x2
 2600 0eda 74       		.byte	0x74
 2601 0edb 30       		.sleb128 48
 2602 0edc 00       		.byte	0
 2603 0edd 25       		.uleb128 0x25
 2604 0ede 1C000000 		.4byte	.LVL59
 2605 0ee2 81100000 		.4byte	0x1081
ARM GAS  /tmp/ccoeCygb.s 			page 47


 2606 0ee6 1F       		.uleb128 0x1f
 2607 0ee7 01       		.byte	0x1
 2608 0ee8 51       		.byte	0x51
 2609 0ee9 01       		.byte	0x1
 2610 0eea 38       		.byte	0x38
 2611 0eeb 1F       		.uleb128 0x1f
 2612 0eec 01       		.byte	0x1
 2613 0eed 50       		.byte	0x50
 2614 0eee 02       		.byte	0x2
 2615 0eef 74       		.byte	0x74
 2616 0ef0 04       		.sleb128 4
 2617 0ef1 00       		.byte	0
 2618 0ef2 00       		.byte	0
 2619 0ef3 2B       		.uleb128 0x2b
 2620 0ef4 766D7400 		.ascii	"vmt\000"
 2621 0ef8 01       		.byte	0x1
 2622 0ef9 61       		.byte	0x61
 2623 0efa AA080000 		.4byte	0x8aa
 2624 0efe 05       		.byte	0x5
 2625 0eff 03       		.byte	0x3
 2626 0f00 00000000 		.4byte	vmt
 2627 0f04 2C       		.uleb128 0x2c
 2628 0f05 76000000 		.4byte	.LASF138
 2629 0f09 0F       		.byte	0xf
 2630 0f0a 9806     		.2byte	0x698
 2631 0f0c BF050000 		.4byte	0x5bf
 2632 0f10 01       		.byte	0x1
 2633 0f11 01       		.byte	0x1
 2634 0f12 2D       		.uleb128 0x2d
 2635 0f13 01       		.byte	0x1
 2636 0f14 32000000 		.4byte	.LASF119
 2637 0f18 0A       		.byte	0xa
 2638 0f19 6001     		.2byte	0x160
 2639 0f1b 01       		.byte	0x1
 2640 0f1c 30000000 		.4byte	0x30
 2641 0f20 01       		.byte	0x1
 2642 0f21 3A0F0000 		.4byte	0xf3a
 2643 0f25 12       		.uleb128 0x12
 2644 0f26 CB080000 		.4byte	0x8cb
 2645 0f2a 12       		.uleb128 0x12
 2646 0f2b 38050000 		.4byte	0x538
 2647 0f2f 12       		.uleb128 0x12
 2648 0f30 30000000 		.4byte	0x30
 2649 0f34 12       		.uleb128 0x12
 2650 0f35 09010000 		.4byte	0x109
 2651 0f39 00       		.byte	0
 2652 0f3a 2D       		.uleb128 0x2d
 2653 0f3b 01       		.byte	0x1
 2654 0f3c 98020000 		.4byte	.LASF120
 2655 0f40 0A       		.byte	0xa
 2656 0f41 6801     		.2byte	0x168
 2657 0f43 01       		.byte	0x1
 2658 0f44 30000000 		.4byte	0x30
 2659 0f48 01       		.byte	0x1
 2660 0f49 620F0000 		.4byte	0xf62
 2661 0f4d 12       		.uleb128 0x12
 2662 0f4e C5080000 		.4byte	0x8c5
ARM GAS  /tmp/ccoeCygb.s 			page 48


 2663 0f52 12       		.uleb128 0x12
 2664 0f53 6E050000 		.4byte	0x56e
 2665 0f57 12       		.uleb128 0x12
 2666 0f58 30000000 		.4byte	0x30
 2667 0f5c 12       		.uleb128 0x12
 2668 0f5d 09010000 		.4byte	0x109
 2669 0f61 00       		.byte	0
 2670 0f62 2D       		.uleb128 0x2d
 2671 0f63 01       		.byte	0x1
 2672 0f64 7D050000 		.4byte	.LASF121
 2673 0f68 0A       		.byte	0xa
 2674 0f69 5F01     		.2byte	0x15f
 2675 0f6b 01       		.byte	0x1
 2676 0f6c E8000000 		.4byte	0xe8
 2677 0f70 01       		.byte	0x1
 2678 0f71 800F0000 		.4byte	0xf80
 2679 0f75 12       		.uleb128 0x12
 2680 0f76 CB080000 		.4byte	0x8cb
 2681 0f7a 12       		.uleb128 0x12
 2682 0f7b 09010000 		.4byte	0x109
 2683 0f7f 00       		.byte	0
 2684 0f80 2D       		.uleb128 0x2d
 2685 0f81 01       		.byte	0x1
 2686 0f82 00000000 		.4byte	.LASF122
 2687 0f86 0A       		.byte	0xa
 2688 0f87 6601     		.2byte	0x166
 2689 0f89 01       		.byte	0x1
 2690 0f8a E8000000 		.4byte	0xe8
 2691 0f8e 01       		.byte	0x1
 2692 0f8f A30F0000 		.4byte	0xfa3
 2693 0f93 12       		.uleb128 0x12
 2694 0f94 C5080000 		.4byte	0x8c5
 2695 0f98 12       		.uleb128 0x12
 2696 0f99 49000000 		.4byte	0x49
 2697 0f9d 12       		.uleb128 0x12
 2698 0f9e 09010000 		.4byte	0x109
 2699 0fa2 00       		.byte	0
 2700 0fa3 2E       		.uleb128 0x2e
 2701 0fa4 01       		.byte	0x1
 2702 0fa5 C0010000 		.4byte	.LASF129
 2703 0fa9 0D       		.byte	0xd
 2704 0faa 2701     		.2byte	0x127
 2705 0fac 01       		.byte	0x1
 2706 0fad 01       		.byte	0x1
 2707 0fae 2F       		.uleb128 0x2f
 2708 0faf 01       		.byte	0x1
 2709 0fb0 5C050000 		.4byte	.LASF123
 2710 0fb4 0A       		.byte	0xa
 2711 0fb5 5B01     		.2byte	0x15b
 2712 0fb7 01       		.byte	0x1
 2713 0fb8 01       		.byte	0x1
 2714 0fb9 D70F0000 		.4byte	0xfd7
 2715 0fbd 12       		.uleb128 0x12
 2716 0fbe CB080000 		.4byte	0x8cb
 2717 0fc2 12       		.uleb128 0x12
 2718 0fc3 38050000 		.4byte	0x538
 2719 0fc7 12       		.uleb128 0x12
ARM GAS  /tmp/ccoeCygb.s 			page 49


 2720 0fc8 30000000 		.4byte	0x30
 2721 0fcc 12       		.uleb128 0x12
 2722 0fcd 15050000 		.4byte	0x515
 2723 0fd1 12       		.uleb128 0x12
 2724 0fd2 A7020000 		.4byte	0x2a7
 2725 0fd6 00       		.byte	0
 2726 0fd7 2F       		.uleb128 0x2f
 2727 0fd8 01       		.byte	0x1
 2728 0fd9 64000000 		.4byte	.LASF124
 2729 0fdd 0A       		.byte	0xa
 2730 0fde 6301     		.2byte	0x163
 2731 0fe0 01       		.byte	0x1
 2732 0fe1 01       		.byte	0x1
 2733 0fe2 00100000 		.4byte	0x1000
 2734 0fe6 12       		.uleb128 0x12
 2735 0fe7 C5080000 		.4byte	0x8c5
 2736 0feb 12       		.uleb128 0x12
 2737 0fec 38050000 		.4byte	0x538
 2738 0ff0 12       		.uleb128 0x12
 2739 0ff1 30000000 		.4byte	0x30
 2740 0ff5 12       		.uleb128 0x12
 2741 0ff6 15050000 		.4byte	0x515
 2742 0ffa 12       		.uleb128 0x12
 2743 0ffb A7020000 		.4byte	0x2a7
 2744 0fff 00       		.byte	0
 2745 1000 2F       		.uleb128 0x2f
 2746 1001 01       		.byte	0x1
 2747 1002 88030000 		.4byte	.LASF125
 2748 1006 0D       		.byte	0xd
 2749 1007 2801     		.2byte	0x128
 2750 1009 01       		.byte	0x1
 2751 100a 01       		.byte	0x1
 2752 100b 1A100000 		.4byte	0x101a
 2753 100f 12       		.uleb128 0x12
 2754 1010 BA0C0000 		.4byte	0xcba
 2755 1014 12       		.uleb128 0x12
 2756 1015 460D0000 		.4byte	0xd46
 2757 1019 00       		.byte	0
 2758 101a 2F       		.uleb128 0x2f
 2759 101b 01       		.byte	0x1
 2760 101c 2E050000 		.4byte	.LASF126
 2761 1020 0D       		.byte	0xd
 2762 1021 2901     		.2byte	0x129
 2763 1023 01       		.byte	0x1
 2764 1024 01       		.byte	0x1
 2765 1025 2F100000 		.4byte	0x102f
 2766 1029 12       		.uleb128 0x12
 2767 102a BA0C0000 		.4byte	0xcba
 2768 102e 00       		.byte	0
 2769 102f 2F       		.uleb128 0x2f
 2770 1030 01       		.byte	0x1
 2771 1031 93040000 		.4byte	.LASF127
 2772 1035 0A       		.byte	0xa
 2773 1036 6501     		.2byte	0x165
 2774 1038 01       		.byte	0x1
 2775 1039 01       		.byte	0x1
 2776 103a 44100000 		.4byte	0x1044
ARM GAS  /tmp/ccoeCygb.s 			page 50


 2777 103e 12       		.uleb128 0x12
 2778 103f C5080000 		.4byte	0x8c5
 2779 1043 00       		.byte	0
 2780 1044 2F       		.uleb128 0x2f
 2781 1045 01       		.byte	0x1
 2782 1046 59000000 		.4byte	.LASF128
 2783 104a 0A       		.byte	0xa
 2784 104b 5D01     		.2byte	0x15d
 2785 104d 01       		.byte	0x1
 2786 104e 01       		.byte	0x1
 2787 104f 59100000 		.4byte	0x1059
 2788 1053 12       		.uleb128 0x12
 2789 1054 CB080000 		.4byte	0x8cb
 2790 1058 00       		.byte	0
 2791 1059 30       		.uleb128 0x30
 2792 105a 01       		.byte	0x1
 2793 105b 44010000 		.4byte	.LASF130
 2794 105f 0E       		.byte	0xe
 2795 1060 95       		.byte	0x95
 2796 1061 01       		.byte	0x1
 2797 1062 01       		.byte	0x1
 2798 1063 2D       		.uleb128 0x2d
 2799 1064 01       		.byte	0x1
 2800 1065 5E010000 		.4byte	.LASF131
 2801 1069 0A       		.byte	0xa
 2802 106a 5E01     		.2byte	0x15e
 2803 106c 01       		.byte	0x1
 2804 106d E8000000 		.4byte	0xe8
 2805 1071 01       		.byte	0x1
 2806 1072 81100000 		.4byte	0x1081
 2807 1076 12       		.uleb128 0x12
 2808 1077 CB080000 		.4byte	0x8cb
 2809 107b 12       		.uleb128 0x12
 2810 107c 49000000 		.4byte	0x49
 2811 1080 00       		.byte	0
 2812 1081 31       		.uleb128 0x31
 2813 1082 01       		.byte	0x1
 2814 1083 27010000 		.4byte	.LASF132
 2815 1087 09       		.byte	0x9
 2816 1088 B3       		.byte	0xb3
 2817 1089 01       		.byte	0x1
 2818 108a 01       		.byte	0x1
 2819 108b 9A100000 		.4byte	0x109a
 2820 108f 12       		.uleb128 0x12
 2821 1090 9A100000 		.4byte	0x109a
 2822 1094 12       		.uleb128 0x12
 2823 1095 FE000000 		.4byte	0xfe
 2824 1099 00       		.byte	0
 2825 109a 09       		.uleb128 0x9
 2826 109b 04       		.byte	0x4
 2827 109c 1F040000 		.4byte	0x41f
 2828 10a0 32       		.uleb128 0x32
 2829 10a1 01       		.byte	0x1
 2830 10a2 FF000000 		.4byte	.LASF133
 2831 10a6 0A       		.byte	0xa
 2832 10a7 6701     		.2byte	0x167
 2833 10a9 01       		.byte	0x1
ARM GAS  /tmp/ccoeCygb.s 			page 51


 2834 10aa E8000000 		.4byte	0xe8
 2835 10ae 01       		.byte	0x1
 2836 10af 12       		.uleb128 0x12
 2837 10b0 C5080000 		.4byte	0x8c5
 2838 10b4 00       		.byte	0
 2839 10b5 00       		.byte	0
 2840              		.section	.debug_abbrev,"",%progbits
 2841              	.Ldebug_abbrev0:
 2842 0000 01       		.uleb128 0x1
 2843 0001 11       		.uleb128 0x11
 2844 0002 01       		.byte	0x1
 2845 0003 25       		.uleb128 0x25
 2846 0004 0E       		.uleb128 0xe
 2847 0005 13       		.uleb128 0x13
 2848 0006 0B       		.uleb128 0xb
 2849 0007 03       		.uleb128 0x3
 2850 0008 0E       		.uleb128 0xe
 2851 0009 1B       		.uleb128 0x1b
 2852 000a 0E       		.uleb128 0xe
 2853 000b 55       		.uleb128 0x55
 2854 000c 06       		.uleb128 0x6
 2855 000d 11       		.uleb128 0x11
 2856 000e 01       		.uleb128 0x1
 2857 000f 52       		.uleb128 0x52
 2858 0010 01       		.uleb128 0x1
 2859 0011 10       		.uleb128 0x10
 2860 0012 06       		.uleb128 0x6
 2861 0013 00       		.byte	0
 2862 0014 00       		.byte	0
 2863 0015 02       		.uleb128 0x2
 2864 0016 24       		.uleb128 0x24
 2865 0017 00       		.byte	0
 2866 0018 0B       		.uleb128 0xb
 2867 0019 0B       		.uleb128 0xb
 2868 001a 3E       		.uleb128 0x3e
 2869 001b 0B       		.uleb128 0xb
 2870 001c 03       		.uleb128 0x3
 2871 001d 08       		.uleb128 0x8
 2872 001e 00       		.byte	0
 2873 001f 00       		.byte	0
 2874 0020 03       		.uleb128 0x3
 2875 0021 16       		.uleb128 0x16
 2876 0022 00       		.byte	0
 2877 0023 03       		.uleb128 0x3
 2878 0024 0E       		.uleb128 0xe
 2879 0025 3A       		.uleb128 0x3a
 2880 0026 0B       		.uleb128 0xb
 2881 0027 3B       		.uleb128 0x3b
 2882 0028 0B       		.uleb128 0xb
 2883 0029 49       		.uleb128 0x49
 2884 002a 13       		.uleb128 0x13
 2885 002b 00       		.byte	0
 2886 002c 00       		.byte	0
 2887 002d 04       		.uleb128 0x4
 2888 002e 24       		.uleb128 0x24
 2889 002f 00       		.byte	0
 2890 0030 0B       		.uleb128 0xb
ARM GAS  /tmp/ccoeCygb.s 			page 52


 2891 0031 0B       		.uleb128 0xb
 2892 0032 3E       		.uleb128 0x3e
 2893 0033 0B       		.uleb128 0xb
 2894 0034 03       		.uleb128 0x3
 2895 0035 0E       		.uleb128 0xe
 2896 0036 00       		.byte	0
 2897 0037 00       		.byte	0
 2898 0038 05       		.uleb128 0x5
 2899 0039 13       		.uleb128 0x13
 2900 003a 01       		.byte	0x1
 2901 003b 03       		.uleb128 0x3
 2902 003c 0E       		.uleb128 0xe
 2903 003d 0B       		.uleb128 0xb
 2904 003e 0B       		.uleb128 0xb
 2905 003f 3A       		.uleb128 0x3a
 2906 0040 0B       		.uleb128 0xb
 2907 0041 3B       		.uleb128 0x3b
 2908 0042 0B       		.uleb128 0xb
 2909 0043 01       		.uleb128 0x1
 2910 0044 13       		.uleb128 0x13
 2911 0045 00       		.byte	0
 2912 0046 00       		.byte	0
 2913 0047 06       		.uleb128 0x6
 2914 0048 0D       		.uleb128 0xd
 2915 0049 00       		.byte	0
 2916 004a 03       		.uleb128 0x3
 2917 004b 0E       		.uleb128 0xe
 2918 004c 3A       		.uleb128 0x3a
 2919 004d 0B       		.uleb128 0xb
 2920 004e 3B       		.uleb128 0x3b
 2921 004f 0B       		.uleb128 0xb
 2922 0050 49       		.uleb128 0x49
 2923 0051 13       		.uleb128 0x13
 2924 0052 38       		.uleb128 0x38
 2925 0053 0A       		.uleb128 0xa
 2926 0054 00       		.byte	0
 2927 0055 00       		.byte	0
 2928 0056 07       		.uleb128 0x7
 2929 0057 0D       		.uleb128 0xd
 2930 0058 00       		.byte	0
 2931 0059 03       		.uleb128 0x3
 2932 005a 08       		.uleb128 0x8
 2933 005b 3A       		.uleb128 0x3a
 2934 005c 0B       		.uleb128 0xb
 2935 005d 3B       		.uleb128 0x3b
 2936 005e 0B       		.uleb128 0xb
 2937 005f 49       		.uleb128 0x49
 2938 0060 13       		.uleb128 0x13
 2939 0061 38       		.uleb128 0x38
 2940 0062 0A       		.uleb128 0xa
 2941 0063 00       		.byte	0
 2942 0064 00       		.byte	0
 2943 0065 08       		.uleb128 0x8
 2944 0066 13       		.uleb128 0x13
 2945 0067 01       		.byte	0x1
 2946 0068 0B       		.uleb128 0xb
 2947 0069 0B       		.uleb128 0xb
ARM GAS  /tmp/ccoeCygb.s 			page 53


 2948 006a 3A       		.uleb128 0x3a
 2949 006b 0B       		.uleb128 0xb
 2950 006c 3B       		.uleb128 0x3b
 2951 006d 0B       		.uleb128 0xb
 2952 006e 01       		.uleb128 0x1
 2953 006f 13       		.uleb128 0x13
 2954 0070 00       		.byte	0
 2955 0071 00       		.byte	0
 2956 0072 09       		.uleb128 0x9
 2957 0073 0F       		.uleb128 0xf
 2958 0074 00       		.byte	0
 2959 0075 0B       		.uleb128 0xb
 2960 0076 0B       		.uleb128 0xb
 2961 0077 49       		.uleb128 0x49
 2962 0078 13       		.uleb128 0x13
 2963 0079 00       		.byte	0
 2964 007a 00       		.byte	0
 2965 007b 0A       		.uleb128 0xa
 2966 007c 0F       		.uleb128 0xf
 2967 007d 00       		.byte	0
 2968 007e 0B       		.uleb128 0xb
 2969 007f 0B       		.uleb128 0xb
 2970 0080 00       		.byte	0
 2971 0081 00       		.byte	0
 2972 0082 0B       		.uleb128 0xb
 2973 0083 13       		.uleb128 0x13
 2974 0084 01       		.byte	0x1
 2975 0085 03       		.uleb128 0x3
 2976 0086 0E       		.uleb128 0xe
 2977 0087 0B       		.uleb128 0xb
 2978 0088 0B       		.uleb128 0xb
 2979 0089 3A       		.uleb128 0x3a
 2980 008a 0B       		.uleb128 0xb
 2981 008b 3B       		.uleb128 0x3b
 2982 008c 05       		.uleb128 0x5
 2983 008d 01       		.uleb128 0x1
 2984 008e 13       		.uleb128 0x13
 2985 008f 00       		.byte	0
 2986 0090 00       		.byte	0
 2987 0091 0C       		.uleb128 0xc
 2988 0092 0D       		.uleb128 0xd
 2989 0093 00       		.byte	0
 2990 0094 03       		.uleb128 0x3
 2991 0095 08       		.uleb128 0x8
 2992 0096 3A       		.uleb128 0x3a
 2993 0097 0B       		.uleb128 0xb
 2994 0098 3B       		.uleb128 0x3b
 2995 0099 05       		.uleb128 0x5
 2996 009a 49       		.uleb128 0x49
 2997 009b 13       		.uleb128 0x13
 2998 009c 38       		.uleb128 0x38
 2999 009d 0A       		.uleb128 0xa
 3000 009e 00       		.byte	0
 3001 009f 00       		.byte	0
 3002 00a0 0D       		.uleb128 0xd
 3003 00a1 35       		.uleb128 0x35
 3004 00a2 00       		.byte	0
ARM GAS  /tmp/ccoeCygb.s 			page 54


 3005 00a3 49       		.uleb128 0x49
 3006 00a4 13       		.uleb128 0x13
 3007 00a5 00       		.byte	0
 3008 00a6 00       		.byte	0
 3009 00a7 0E       		.uleb128 0xe
 3010 00a8 17       		.uleb128 0x17
 3011 00a9 01       		.byte	0x1
 3012 00aa 0B       		.uleb128 0xb
 3013 00ab 0B       		.uleb128 0xb
 3014 00ac 3A       		.uleb128 0x3a
 3015 00ad 0B       		.uleb128 0xb
 3016 00ae 3B       		.uleb128 0x3b
 3017 00af 0B       		.uleb128 0xb
 3018 00b0 01       		.uleb128 0x1
 3019 00b1 13       		.uleb128 0x13
 3020 00b2 00       		.byte	0
 3021 00b3 00       		.byte	0
 3022 00b4 0F       		.uleb128 0xf
 3023 00b5 0D       		.uleb128 0xd
 3024 00b6 00       		.byte	0
 3025 00b7 03       		.uleb128 0x3
 3026 00b8 0E       		.uleb128 0xe
 3027 00b9 3A       		.uleb128 0x3a
 3028 00ba 0B       		.uleb128 0xb
 3029 00bb 3B       		.uleb128 0x3b
 3030 00bc 0B       		.uleb128 0xb
 3031 00bd 49       		.uleb128 0x49
 3032 00be 13       		.uleb128 0x13
 3033 00bf 00       		.byte	0
 3034 00c0 00       		.byte	0
 3035 00c1 10       		.uleb128 0x10
 3036 00c2 26       		.uleb128 0x26
 3037 00c3 00       		.byte	0
 3038 00c4 49       		.uleb128 0x49
 3039 00c5 13       		.uleb128 0x13
 3040 00c6 00       		.byte	0
 3041 00c7 00       		.byte	0
 3042 00c8 11       		.uleb128 0x11
 3043 00c9 15       		.uleb128 0x15
 3044 00ca 01       		.byte	0x1
 3045 00cb 27       		.uleb128 0x27
 3046 00cc 0C       		.uleb128 0xc
 3047 00cd 49       		.uleb128 0x49
 3048 00ce 13       		.uleb128 0x13
 3049 00cf 01       		.uleb128 0x1
 3050 00d0 13       		.uleb128 0x13
 3051 00d1 00       		.byte	0
 3052 00d2 00       		.byte	0
 3053 00d3 12       		.uleb128 0x12
 3054 00d4 05       		.uleb128 0x5
 3055 00d5 00       		.byte	0
 3056 00d6 49       		.uleb128 0x49
 3057 00d7 13       		.uleb128 0x13
 3058 00d8 00       		.byte	0
 3059 00d9 00       		.byte	0
 3060 00da 13       		.uleb128 0x13
 3061 00db 15       		.uleb128 0x15
ARM GAS  /tmp/ccoeCygb.s 			page 55


 3062 00dc 01       		.byte	0x1
 3063 00dd 27       		.uleb128 0x27
 3064 00de 0C       		.uleb128 0xc
 3065 00df 01       		.uleb128 0x1
 3066 00e0 13       		.uleb128 0x13
 3067 00e1 00       		.byte	0
 3068 00e2 00       		.byte	0
 3069 00e3 14       		.uleb128 0x14
 3070 00e4 13       		.uleb128 0x13
 3071 00e5 01       		.byte	0x1
 3072 00e6 0B       		.uleb128 0xb
 3073 00e7 0B       		.uleb128 0xb
 3074 00e8 3A       		.uleb128 0x3a
 3075 00e9 0B       		.uleb128 0xb
 3076 00ea 3B       		.uleb128 0x3b
 3077 00eb 05       		.uleb128 0x5
 3078 00ec 01       		.uleb128 0x1
 3079 00ed 13       		.uleb128 0x13
 3080 00ee 00       		.byte	0
 3081 00ef 00       		.byte	0
 3082 00f0 15       		.uleb128 0x15
 3083 00f1 0D       		.uleb128 0xd
 3084 00f2 00       		.byte	0
 3085 00f3 03       		.uleb128 0x3
 3086 00f4 0E       		.uleb128 0xe
 3087 00f5 3A       		.uleb128 0x3a
 3088 00f6 0B       		.uleb128 0xb
 3089 00f7 3B       		.uleb128 0x3b
 3090 00f8 05       		.uleb128 0x5
 3091 00f9 49       		.uleb128 0x49
 3092 00fa 13       		.uleb128 0x13
 3093 00fb 38       		.uleb128 0x38
 3094 00fc 0A       		.uleb128 0xa
 3095 00fd 00       		.byte	0
 3096 00fe 00       		.byte	0
 3097 00ff 16       		.uleb128 0x16
 3098 0100 16       		.uleb128 0x16
 3099 0101 00       		.byte	0
 3100 0102 03       		.uleb128 0x3
 3101 0103 0E       		.uleb128 0xe
 3102 0104 3A       		.uleb128 0x3a
 3103 0105 0B       		.uleb128 0xb
 3104 0106 3B       		.uleb128 0x3b
 3105 0107 05       		.uleb128 0x5
 3106 0108 49       		.uleb128 0x49
 3107 0109 13       		.uleb128 0x13
 3108 010a 00       		.byte	0
 3109 010b 00       		.byte	0
 3110 010c 17       		.uleb128 0x17
 3111 010d 04       		.uleb128 0x4
 3112 010e 01       		.byte	0x1
 3113 010f 0B       		.uleb128 0xb
 3114 0110 0B       		.uleb128 0xb
 3115 0111 3A       		.uleb128 0x3a
 3116 0112 0B       		.uleb128 0xb
 3117 0113 3B       		.uleb128 0x3b
 3118 0114 0B       		.uleb128 0xb
ARM GAS  /tmp/ccoeCygb.s 			page 56


 3119 0115 01       		.uleb128 0x1
 3120 0116 13       		.uleb128 0x13
 3121 0117 00       		.byte	0
 3122 0118 00       		.byte	0
 3123 0119 18       		.uleb128 0x18
 3124 011a 28       		.uleb128 0x28
 3125 011b 00       		.byte	0
 3126 011c 03       		.uleb128 0x3
 3127 011d 0E       		.uleb128 0xe
 3128 011e 1C       		.uleb128 0x1c
 3129 011f 0D       		.uleb128 0xd
 3130 0120 00       		.byte	0
 3131 0121 00       		.byte	0
 3132 0122 19       		.uleb128 0x19
 3133 0123 01       		.uleb128 0x1
 3134 0124 01       		.byte	0x1
 3135 0125 49       		.uleb128 0x49
 3136 0126 13       		.uleb128 0x13
 3137 0127 01       		.uleb128 0x1
 3138 0128 13       		.uleb128 0x13
 3139 0129 00       		.byte	0
 3140 012a 00       		.byte	0
 3141 012b 1A       		.uleb128 0x1a
 3142 012c 21       		.uleb128 0x21
 3143 012d 00       		.byte	0
 3144 012e 49       		.uleb128 0x49
 3145 012f 13       		.uleb128 0x13
 3146 0130 2F       		.uleb128 0x2f
 3147 0131 0B       		.uleb128 0xb
 3148 0132 00       		.byte	0
 3149 0133 00       		.byte	0
 3150 0134 1B       		.uleb128 0x1b
 3151 0135 2E       		.uleb128 0x2e
 3152 0136 01       		.byte	0x1
 3153 0137 03       		.uleb128 0x3
 3154 0138 0E       		.uleb128 0xe
 3155 0139 3A       		.uleb128 0x3a
 3156 013a 0B       		.uleb128 0xb
 3157 013b 3B       		.uleb128 0x3b
 3158 013c 0B       		.uleb128 0xb
 3159 013d 27       		.uleb128 0x27
 3160 013e 0C       		.uleb128 0xc
 3161 013f 49       		.uleb128 0x49
 3162 0140 13       		.uleb128 0x13
 3163 0141 11       		.uleb128 0x11
 3164 0142 01       		.uleb128 0x1
 3165 0143 12       		.uleb128 0x12
 3166 0144 01       		.uleb128 0x1
 3167 0145 40       		.uleb128 0x40
 3168 0146 0A       		.uleb128 0xa
 3169 0147 9742     		.uleb128 0x2117
 3170 0149 0C       		.uleb128 0xc
 3171 014a 01       		.uleb128 0x1
 3172 014b 13       		.uleb128 0x13
 3173 014c 00       		.byte	0
 3174 014d 00       		.byte	0
 3175 014e 1C       		.uleb128 0x1c
ARM GAS  /tmp/ccoeCygb.s 			page 57


 3176 014f 05       		.uleb128 0x5
 3177 0150 00       		.byte	0
 3178 0151 03       		.uleb128 0x3
 3179 0152 08       		.uleb128 0x8
 3180 0153 3A       		.uleb128 0x3a
 3181 0154 0B       		.uleb128 0xb
 3182 0155 3B       		.uleb128 0x3b
 3183 0156 0B       		.uleb128 0xb
 3184 0157 49       		.uleb128 0x49
 3185 0158 13       		.uleb128 0x13
 3186 0159 02       		.uleb128 0x2
 3187 015a 06       		.uleb128 0x6
 3188 015b 00       		.byte	0
 3189 015c 00       		.byte	0
 3190 015d 1D       		.uleb128 0x1d
 3191 015e 05       		.uleb128 0x5
 3192 015f 00       		.byte	0
 3193 0160 03       		.uleb128 0x3
 3194 0161 0E       		.uleb128 0xe
 3195 0162 3A       		.uleb128 0x3a
 3196 0163 0B       		.uleb128 0xb
 3197 0164 3B       		.uleb128 0x3b
 3198 0165 0B       		.uleb128 0xb
 3199 0166 49       		.uleb128 0x49
 3200 0167 13       		.uleb128 0x13
 3201 0168 02       		.uleb128 0x2
 3202 0169 06       		.uleb128 0x6
 3203 016a 00       		.byte	0
 3204 016b 00       		.byte	0
 3205 016c 1E       		.uleb128 0x1e
 3206 016d 898201   		.uleb128 0x4109
 3207 0170 01       		.byte	0x1
 3208 0171 11       		.uleb128 0x11
 3209 0172 01       		.uleb128 0x1
 3210 0173 9542     		.uleb128 0x2115
 3211 0175 0C       		.uleb128 0xc
 3212 0176 31       		.uleb128 0x31
 3213 0177 13       		.uleb128 0x13
 3214 0178 00       		.byte	0
 3215 0179 00       		.byte	0
 3216 017a 1F       		.uleb128 0x1f
 3217 017b 8A8201   		.uleb128 0x410a
 3218 017e 00       		.byte	0
 3219 017f 02       		.uleb128 0x2
 3220 0180 0A       		.uleb128 0xa
 3221 0181 9142     		.uleb128 0x2111
 3222 0183 0A       		.uleb128 0xa
 3223 0184 00       		.byte	0
 3224 0185 00       		.byte	0
 3225 0186 20       		.uleb128 0x20
 3226 0187 2E       		.uleb128 0x2e
 3227 0188 01       		.byte	0x1
 3228 0189 03       		.uleb128 0x3
 3229 018a 08       		.uleb128 0x8
 3230 018b 3A       		.uleb128 0x3a
 3231 018c 0B       		.uleb128 0xb
 3232 018d 3B       		.uleb128 0x3b
ARM GAS  /tmp/ccoeCygb.s 			page 58


 3233 018e 0B       		.uleb128 0xb
 3234 018f 27       		.uleb128 0x27
 3235 0190 0C       		.uleb128 0xc
 3236 0191 49       		.uleb128 0x49
 3237 0192 13       		.uleb128 0x13
 3238 0193 11       		.uleb128 0x11
 3239 0194 01       		.uleb128 0x1
 3240 0195 12       		.uleb128 0x12
 3241 0196 01       		.uleb128 0x1
 3242 0197 40       		.uleb128 0x40
 3243 0198 0A       		.uleb128 0xa
 3244 0199 9742     		.uleb128 0x2117
 3245 019b 0C       		.uleb128 0xc
 3246 019c 01       		.uleb128 0x1
 3247 019d 13       		.uleb128 0x13
 3248 019e 00       		.byte	0
 3249 019f 00       		.byte	0
 3250 01a0 21       		.uleb128 0x21
 3251 01a1 2E       		.uleb128 0x2e
 3252 01a2 01       		.byte	0x1
 3253 01a3 3F       		.uleb128 0x3f
 3254 01a4 0C       		.uleb128 0xc
 3255 01a5 03       		.uleb128 0x3
 3256 01a6 0E       		.uleb128 0xe
 3257 01a7 3A       		.uleb128 0x3a
 3258 01a8 0B       		.uleb128 0xb
 3259 01a9 3B       		.uleb128 0x3b
 3260 01aa 0B       		.uleb128 0xb
 3261 01ab 27       		.uleb128 0x27
 3262 01ac 0C       		.uleb128 0xc
 3263 01ad 11       		.uleb128 0x11
 3264 01ae 01       		.uleb128 0x1
 3265 01af 12       		.uleb128 0x12
 3266 01b0 01       		.uleb128 0x1
 3267 01b1 40       		.uleb128 0x40
 3268 01b2 0A       		.uleb128 0xa
 3269 01b3 9742     		.uleb128 0x2117
 3270 01b5 0C       		.uleb128 0xc
 3271 01b6 01       		.uleb128 0x1
 3272 01b7 13       		.uleb128 0x13
 3273 01b8 00       		.byte	0
 3274 01b9 00       		.byte	0
 3275 01ba 22       		.uleb128 0x22
 3276 01bb 898201   		.uleb128 0x4109
 3277 01be 00       		.byte	0
 3278 01bf 11       		.uleb128 0x11
 3279 01c0 01       		.uleb128 0x1
 3280 01c1 9542     		.uleb128 0x2115
 3281 01c3 0C       		.uleb128 0xc
 3282 01c4 31       		.uleb128 0x31
 3283 01c5 13       		.uleb128 0x13
 3284 01c6 00       		.byte	0
 3285 01c7 00       		.byte	0
 3286 01c8 23       		.uleb128 0x23
 3287 01c9 2E       		.uleb128 0x2e
 3288 01ca 01       		.byte	0x1
 3289 01cb 3F       		.uleb128 0x3f
ARM GAS  /tmp/ccoeCygb.s 			page 59


 3290 01cc 0C       		.uleb128 0xc
 3291 01cd 03       		.uleb128 0x3
 3292 01ce 0E       		.uleb128 0xe
 3293 01cf 3A       		.uleb128 0x3a
 3294 01d0 0B       		.uleb128 0xb
 3295 01d1 3B       		.uleb128 0x3b
 3296 01d2 0B       		.uleb128 0xb
 3297 01d3 27       		.uleb128 0x27
 3298 01d4 0C       		.uleb128 0xc
 3299 01d5 11       		.uleb128 0x11
 3300 01d6 01       		.uleb128 0x1
 3301 01d7 12       		.uleb128 0x12
 3302 01d8 01       		.uleb128 0x1
 3303 01d9 40       		.uleb128 0x40
 3304 01da 06       		.uleb128 0x6
 3305 01db 9742     		.uleb128 0x2117
 3306 01dd 0C       		.uleb128 0xc
 3307 01de 01       		.uleb128 0x1
 3308 01df 13       		.uleb128 0x13
 3309 01e0 00       		.byte	0
 3310 01e1 00       		.byte	0
 3311 01e2 24       		.uleb128 0x24
 3312 01e3 898201   		.uleb128 0x4109
 3313 01e6 01       		.byte	0x1
 3314 01e7 11       		.uleb128 0x11
 3315 01e8 01       		.uleb128 0x1
 3316 01e9 31       		.uleb128 0x31
 3317 01ea 13       		.uleb128 0x13
 3318 01eb 01       		.uleb128 0x1
 3319 01ec 13       		.uleb128 0x13
 3320 01ed 00       		.byte	0
 3321 01ee 00       		.byte	0
 3322 01ef 25       		.uleb128 0x25
 3323 01f0 898201   		.uleb128 0x4109
 3324 01f3 01       		.byte	0x1
 3325 01f4 11       		.uleb128 0x11
 3326 01f5 01       		.uleb128 0x1
 3327 01f6 31       		.uleb128 0x31
 3328 01f7 13       		.uleb128 0x13
 3329 01f8 00       		.byte	0
 3330 01f9 00       		.byte	0
 3331 01fa 26       		.uleb128 0x26
 3332 01fb 0B       		.uleb128 0xb
 3333 01fc 01       		.byte	0x1
 3334 01fd 55       		.uleb128 0x55
 3335 01fe 06       		.uleb128 0x6
 3336 01ff 01       		.uleb128 0x1
 3337 0200 13       		.uleb128 0x13
 3338 0201 00       		.byte	0
 3339 0202 00       		.byte	0
 3340 0203 27       		.uleb128 0x27
 3341 0204 34       		.uleb128 0x34
 3342 0205 00       		.byte	0
 3343 0206 03       		.uleb128 0x3
 3344 0207 08       		.uleb128 0x8
 3345 0208 3A       		.uleb128 0x3a
 3346 0209 0B       		.uleb128 0xb
ARM GAS  /tmp/ccoeCygb.s 			page 60


 3347 020a 3B       		.uleb128 0x3b
 3348 020b 0B       		.uleb128 0xb
 3349 020c 49       		.uleb128 0x49
 3350 020d 13       		.uleb128 0x13
 3351 020e 02       		.uleb128 0x2
 3352 020f 06       		.uleb128 0x6
 3353 0210 00       		.byte	0
 3354 0211 00       		.byte	0
 3355 0212 28       		.uleb128 0x28
 3356 0213 0B       		.uleb128 0xb
 3357 0214 01       		.byte	0x1
 3358 0215 11       		.uleb128 0x11
 3359 0216 01       		.uleb128 0x1
 3360 0217 12       		.uleb128 0x12
 3361 0218 01       		.uleb128 0x1
 3362 0219 01       		.uleb128 0x1
 3363 021a 13       		.uleb128 0x13
 3364 021b 00       		.byte	0
 3365 021c 00       		.byte	0
 3366 021d 29       		.uleb128 0x29
 3367 021e 898201   		.uleb128 0x4109
 3368 0221 00       		.byte	0
 3369 0222 11       		.uleb128 0x11
 3370 0223 01       		.uleb128 0x1
 3371 0224 31       		.uleb128 0x31
 3372 0225 13       		.uleb128 0x13
 3373 0226 00       		.byte	0
 3374 0227 00       		.byte	0
 3375 0228 2A       		.uleb128 0x2a
 3376 0229 2E       		.uleb128 0x2e
 3377 022a 01       		.byte	0x1
 3378 022b 3F       		.uleb128 0x3f
 3379 022c 0C       		.uleb128 0xc
 3380 022d 03       		.uleb128 0x3
 3381 022e 0E       		.uleb128 0xe
 3382 022f 3A       		.uleb128 0x3a
 3383 0230 0B       		.uleb128 0xb
 3384 0231 3B       		.uleb128 0x3b
 3385 0232 0B       		.uleb128 0xb
 3386 0233 27       		.uleb128 0x27
 3387 0234 0C       		.uleb128 0xc
 3388 0235 49       		.uleb128 0x49
 3389 0236 13       		.uleb128 0x13
 3390 0237 11       		.uleb128 0x11
 3391 0238 01       		.uleb128 0x1
 3392 0239 12       		.uleb128 0x12
 3393 023a 01       		.uleb128 0x1
 3394 023b 40       		.uleb128 0x40
 3395 023c 06       		.uleb128 0x6
 3396 023d 9742     		.uleb128 0x2117
 3397 023f 0C       		.uleb128 0xc
 3398 0240 01       		.uleb128 0x1
 3399 0241 13       		.uleb128 0x13
 3400 0242 00       		.byte	0
 3401 0243 00       		.byte	0
 3402 0244 2B       		.uleb128 0x2b
 3403 0245 34       		.uleb128 0x34
ARM GAS  /tmp/ccoeCygb.s 			page 61


 3404 0246 00       		.byte	0
 3405 0247 03       		.uleb128 0x3
 3406 0248 08       		.uleb128 0x8
 3407 0249 3A       		.uleb128 0x3a
 3408 024a 0B       		.uleb128 0xb
 3409 024b 3B       		.uleb128 0x3b
 3410 024c 0B       		.uleb128 0xb
 3411 024d 49       		.uleb128 0x49
 3412 024e 13       		.uleb128 0x13
 3413 024f 02       		.uleb128 0x2
 3414 0250 0A       		.uleb128 0xa
 3415 0251 00       		.byte	0
 3416 0252 00       		.byte	0
 3417 0253 2C       		.uleb128 0x2c
 3418 0254 34       		.uleb128 0x34
 3419 0255 00       		.byte	0
 3420 0256 03       		.uleb128 0x3
 3421 0257 0E       		.uleb128 0xe
 3422 0258 3A       		.uleb128 0x3a
 3423 0259 0B       		.uleb128 0xb
 3424 025a 3B       		.uleb128 0x3b
 3425 025b 05       		.uleb128 0x5
 3426 025c 49       		.uleb128 0x49
 3427 025d 13       		.uleb128 0x13
 3428 025e 3F       		.uleb128 0x3f
 3429 025f 0C       		.uleb128 0xc
 3430 0260 3C       		.uleb128 0x3c
 3431 0261 0C       		.uleb128 0xc
 3432 0262 00       		.byte	0
 3433 0263 00       		.byte	0
 3434 0264 2D       		.uleb128 0x2d
 3435 0265 2E       		.uleb128 0x2e
 3436 0266 01       		.byte	0x1
 3437 0267 3F       		.uleb128 0x3f
 3438 0268 0C       		.uleb128 0xc
 3439 0269 03       		.uleb128 0x3
 3440 026a 0E       		.uleb128 0xe
 3441 026b 3A       		.uleb128 0x3a
 3442 026c 0B       		.uleb128 0xb
 3443 026d 3B       		.uleb128 0x3b
 3444 026e 05       		.uleb128 0x5
 3445 026f 27       		.uleb128 0x27
 3446 0270 0C       		.uleb128 0xc
 3447 0271 49       		.uleb128 0x49
 3448 0272 13       		.uleb128 0x13
 3449 0273 3C       		.uleb128 0x3c
 3450 0274 0C       		.uleb128 0xc
 3451 0275 01       		.uleb128 0x1
 3452 0276 13       		.uleb128 0x13
 3453 0277 00       		.byte	0
 3454 0278 00       		.byte	0
 3455 0279 2E       		.uleb128 0x2e
 3456 027a 2E       		.uleb128 0x2e
 3457 027b 00       		.byte	0
 3458 027c 3F       		.uleb128 0x3f
 3459 027d 0C       		.uleb128 0xc
 3460 027e 03       		.uleb128 0x3
ARM GAS  /tmp/ccoeCygb.s 			page 62


 3461 027f 0E       		.uleb128 0xe
 3462 0280 3A       		.uleb128 0x3a
 3463 0281 0B       		.uleb128 0xb
 3464 0282 3B       		.uleb128 0x3b
 3465 0283 05       		.uleb128 0x5
 3466 0284 27       		.uleb128 0x27
 3467 0285 0C       		.uleb128 0xc
 3468 0286 3C       		.uleb128 0x3c
 3469 0287 0C       		.uleb128 0xc
 3470 0288 00       		.byte	0
 3471 0289 00       		.byte	0
 3472 028a 2F       		.uleb128 0x2f
 3473 028b 2E       		.uleb128 0x2e
 3474 028c 01       		.byte	0x1
 3475 028d 3F       		.uleb128 0x3f
 3476 028e 0C       		.uleb128 0xc
 3477 028f 03       		.uleb128 0x3
 3478 0290 0E       		.uleb128 0xe
 3479 0291 3A       		.uleb128 0x3a
 3480 0292 0B       		.uleb128 0xb
 3481 0293 3B       		.uleb128 0x3b
 3482 0294 05       		.uleb128 0x5
 3483 0295 27       		.uleb128 0x27
 3484 0296 0C       		.uleb128 0xc
 3485 0297 3C       		.uleb128 0x3c
 3486 0298 0C       		.uleb128 0xc
 3487 0299 01       		.uleb128 0x1
 3488 029a 13       		.uleb128 0x13
 3489 029b 00       		.byte	0
 3490 029c 00       		.byte	0
 3491 029d 30       		.uleb128 0x30
 3492 029e 2E       		.uleb128 0x2e
 3493 029f 00       		.byte	0
 3494 02a0 3F       		.uleb128 0x3f
 3495 02a1 0C       		.uleb128 0xc
 3496 02a2 03       		.uleb128 0x3
 3497 02a3 0E       		.uleb128 0xe
 3498 02a4 3A       		.uleb128 0x3a
 3499 02a5 0B       		.uleb128 0xb
 3500 02a6 3B       		.uleb128 0x3b
 3501 02a7 0B       		.uleb128 0xb
 3502 02a8 27       		.uleb128 0x27
 3503 02a9 0C       		.uleb128 0xc
 3504 02aa 3C       		.uleb128 0x3c
 3505 02ab 0C       		.uleb128 0xc
 3506 02ac 00       		.byte	0
 3507 02ad 00       		.byte	0
 3508 02ae 31       		.uleb128 0x31
 3509 02af 2E       		.uleb128 0x2e
 3510 02b0 01       		.byte	0x1
 3511 02b1 3F       		.uleb128 0x3f
 3512 02b2 0C       		.uleb128 0xc
 3513 02b3 03       		.uleb128 0x3
 3514 02b4 0E       		.uleb128 0xe
 3515 02b5 3A       		.uleb128 0x3a
 3516 02b6 0B       		.uleb128 0xb
 3517 02b7 3B       		.uleb128 0x3b
ARM GAS  /tmp/ccoeCygb.s 			page 63


 3518 02b8 0B       		.uleb128 0xb
 3519 02b9 27       		.uleb128 0x27
 3520 02ba 0C       		.uleb128 0xc
 3521 02bb 3C       		.uleb128 0x3c
 3522 02bc 0C       		.uleb128 0xc
 3523 02bd 01       		.uleb128 0x1
 3524 02be 13       		.uleb128 0x13
 3525 02bf 00       		.byte	0
 3526 02c0 00       		.byte	0
 3527 02c1 32       		.uleb128 0x32
 3528 02c2 2E       		.uleb128 0x2e
 3529 02c3 01       		.byte	0x1
 3530 02c4 3F       		.uleb128 0x3f
 3531 02c5 0C       		.uleb128 0xc
 3532 02c6 03       		.uleb128 0x3
 3533 02c7 0E       		.uleb128 0xe
 3534 02c8 3A       		.uleb128 0x3a
 3535 02c9 0B       		.uleb128 0xb
 3536 02ca 3B       		.uleb128 0x3b
 3537 02cb 05       		.uleb128 0x5
 3538 02cc 27       		.uleb128 0x27
 3539 02cd 0C       		.uleb128 0xc
 3540 02ce 49       		.uleb128 0x49
 3541 02cf 13       		.uleb128 0x13
 3542 02d0 3C       		.uleb128 0x3c
 3543 02d1 0C       		.uleb128 0xc
 3544 02d2 00       		.byte	0
 3545 02d3 00       		.byte	0
 3546 02d4 00       		.byte	0
 3547              		.section	.debug_loc,"",%progbits
 3548              	.Ldebug_loc0:
 3549              	.LLST0:
 3550 0000 00000000 		.4byte	.LVL0
 3551 0004 02000000 		.4byte	.LVL1
 3552 0008 0100     		.2byte	0x1
 3553 000a 50       		.byte	0x50
 3554 000b 02000000 		.4byte	.LVL1
 3555 000f 05000000 		.4byte	.LVL2-1
 3556 0013 0300     		.2byte	0x3
 3557 0015 70       		.byte	0x70
 3558 0016 74       		.sleb128 -12
 3559 0017 9F       		.byte	0x9f
 3560 0018 05000000 		.4byte	.LVL2-1
 3561 001c 06000000 		.4byte	.LFE125
 3562 0020 0400     		.2byte	0x4
 3563 0022 F3       		.byte	0xf3
 3564 0023 01       		.uleb128 0x1
 3565 0024 50       		.byte	0x50
 3566 0025 9F       		.byte	0x9f
 3567 0026 00000000 		.4byte	0
 3568 002a 00000000 		.4byte	0
 3569              	.LLST1:
 3570 002e 00000000 		.4byte	.LVL0
 3571 0032 05000000 		.4byte	.LVL2-1
 3572 0036 0100     		.2byte	0x1
 3573 0038 51       		.byte	0x51
 3574 0039 05000000 		.4byte	.LVL2-1
ARM GAS  /tmp/ccoeCygb.s 			page 64


 3575 003d 06000000 		.4byte	.LFE125
 3576 0041 0400     		.2byte	0x4
 3577 0043 F3       		.byte	0xf3
 3578 0044 01       		.uleb128 0x1
 3579 0045 51       		.byte	0x51
 3580 0046 9F       		.byte	0x9f
 3581 0047 00000000 		.4byte	0
 3582 004b 00000000 		.4byte	0
 3583              	.LLST2:
 3584 004f 00000000 		.4byte	.LVL0
 3585 0053 05000000 		.4byte	.LVL2-1
 3586 0057 0100     		.2byte	0x1
 3587 0059 52       		.byte	0x52
 3588 005a 05000000 		.4byte	.LVL2-1
 3589 005e 06000000 		.4byte	.LFE125
 3590 0062 0400     		.2byte	0x4
 3591 0064 F3       		.byte	0xf3
 3592 0065 01       		.uleb128 0x1
 3593 0066 52       		.byte	0x52
 3594 0067 9F       		.byte	0x9f
 3595 0068 00000000 		.4byte	0
 3596 006c 00000000 		.4byte	0
 3597              	.LLST3:
 3598 0070 00000000 		.4byte	.LVL0
 3599 0074 05000000 		.4byte	.LVL2-1
 3600 0078 0100     		.2byte	0x1
 3601 007a 53       		.byte	0x53
 3602 007b 05000000 		.4byte	.LVL2-1
 3603 007f 06000000 		.4byte	.LFE125
 3604 0083 0400     		.2byte	0x4
 3605 0085 F3       		.byte	0xf3
 3606 0086 01       		.uleb128 0x1
 3607 0087 53       		.byte	0x53
 3608 0088 9F       		.byte	0x9f
 3609 0089 00000000 		.4byte	0
 3610 008d 00000000 		.4byte	0
 3611              	.LLST4:
 3612 0091 00000000 		.4byte	.LVL3
 3613 0095 02000000 		.4byte	.LVL4
 3614 0099 0100     		.2byte	0x1
 3615 009b 50       		.byte	0x50
 3616 009c 02000000 		.4byte	.LVL4
 3617 00a0 09000000 		.4byte	.LVL5-1
 3618 00a4 0300     		.2byte	0x3
 3619 00a6 70       		.byte	0x70
 3620 00a7 74       		.sleb128 -12
 3621 00a8 9F       		.byte	0x9f
 3622 00a9 09000000 		.4byte	.LVL5-1
 3623 00ad 0A000000 		.4byte	.LFE119
 3624 00b1 0400     		.2byte	0x4
 3625 00b3 F3       		.byte	0xf3
 3626 00b4 01       		.uleb128 0x1
 3627 00b5 50       		.byte	0x50
 3628 00b6 9F       		.byte	0x9f
 3629 00b7 00000000 		.4byte	0
 3630 00bb 00000000 		.4byte	0
 3631              	.LLST5:
ARM GAS  /tmp/ccoeCygb.s 			page 65


 3632 00bf 00000000 		.4byte	.LVL3
 3633 00c3 09000000 		.4byte	.LVL5-1
 3634 00c7 0100     		.2byte	0x1
 3635 00c9 51       		.byte	0x51
 3636 00ca 09000000 		.4byte	.LVL5-1
 3637 00ce 0A000000 		.4byte	.LFE119
 3638 00d2 0400     		.2byte	0x4
 3639 00d4 F3       		.byte	0xf3
 3640 00d5 01       		.uleb128 0x1
 3641 00d6 51       		.byte	0x51
 3642 00d7 9F       		.byte	0x9f
 3643 00d8 00000000 		.4byte	0
 3644 00dc 00000000 		.4byte	0
 3645              	.LLST6:
 3646 00e0 00000000 		.4byte	.LVL3
 3647 00e4 09000000 		.4byte	.LVL5-1
 3648 00e8 0100     		.2byte	0x1
 3649 00ea 52       		.byte	0x52
 3650 00eb 09000000 		.4byte	.LVL5-1
 3651 00ef 0A000000 		.4byte	.LFE119
 3652 00f3 0400     		.2byte	0x4
 3653 00f5 F3       		.byte	0xf3
 3654 00f6 01       		.uleb128 0x1
 3655 00f7 52       		.byte	0x52
 3656 00f8 9F       		.byte	0x9f
 3657 00f9 00000000 		.4byte	0
 3658 00fd 00000000 		.4byte	0
 3659              	.LLST7:
 3660 0101 00000000 		.4byte	.LVL6
 3661 0105 02000000 		.4byte	.LVL7
 3662 0109 0100     		.2byte	0x1
 3663 010b 50       		.byte	0x50
 3664 010c 02000000 		.4byte	.LVL7
 3665 0110 05000000 		.4byte	.LVL8-1
 3666 0114 0300     		.2byte	0x3
 3667 0116 70       		.byte	0x70
 3668 0117 50       		.sleb128 -48
 3669 0118 9F       		.byte	0x9f
 3670 0119 05000000 		.4byte	.LVL8-1
 3671 011d 06000000 		.4byte	.LFE124
 3672 0121 0400     		.2byte	0x4
 3673 0123 F3       		.byte	0xf3
 3674 0124 01       		.uleb128 0x1
 3675 0125 50       		.byte	0x50
 3676 0126 9F       		.byte	0x9f
 3677 0127 00000000 		.4byte	0
 3678 012b 00000000 		.4byte	0
 3679              	.LLST8:
 3680 012f 00000000 		.4byte	.LVL6
 3681 0133 05000000 		.4byte	.LVL8-1
 3682 0137 0100     		.2byte	0x1
 3683 0139 51       		.byte	0x51
 3684 013a 05000000 		.4byte	.LVL8-1
 3685 013e 06000000 		.4byte	.LFE124
 3686 0142 0400     		.2byte	0x4
 3687 0144 F3       		.byte	0xf3
 3688 0145 01       		.uleb128 0x1
ARM GAS  /tmp/ccoeCygb.s 			page 66


 3689 0146 51       		.byte	0x51
 3690 0147 9F       		.byte	0x9f
 3691 0148 00000000 		.4byte	0
 3692 014c 00000000 		.4byte	0
 3693              	.LLST9:
 3694 0150 00000000 		.4byte	.LVL6
 3695 0154 05000000 		.4byte	.LVL8-1
 3696 0158 0100     		.2byte	0x1
 3697 015a 52       		.byte	0x52
 3698 015b 05000000 		.4byte	.LVL8-1
 3699 015f 06000000 		.4byte	.LFE124
 3700 0163 0400     		.2byte	0x4
 3701 0165 F3       		.byte	0xf3
 3702 0166 01       		.uleb128 0x1
 3703 0167 52       		.byte	0x52
 3704 0168 9F       		.byte	0x9f
 3705 0169 00000000 		.4byte	0
 3706 016d 00000000 		.4byte	0
 3707              	.LLST10:
 3708 0171 00000000 		.4byte	.LVL6
 3709 0175 05000000 		.4byte	.LVL8-1
 3710 0179 0100     		.2byte	0x1
 3711 017b 53       		.byte	0x53
 3712 017c 05000000 		.4byte	.LVL8-1
 3713 0180 06000000 		.4byte	.LFE124
 3714 0184 0400     		.2byte	0x4
 3715 0186 F3       		.byte	0xf3
 3716 0187 01       		.uleb128 0x1
 3717 0188 53       		.byte	0x53
 3718 0189 9F       		.byte	0x9f
 3719 018a 00000000 		.4byte	0
 3720 018e 00000000 		.4byte	0
 3721              	.LLST11:
 3722 0192 00000000 		.4byte	.LVL9
 3723 0196 02000000 		.4byte	.LVL10
 3724 019a 0100     		.2byte	0x1
 3725 019c 50       		.byte	0x50
 3726 019d 02000000 		.4byte	.LVL10
 3727 01a1 09000000 		.4byte	.LVL11-1
 3728 01a5 0300     		.2byte	0x3
 3729 01a7 70       		.byte	0x70
 3730 01a8 50       		.sleb128 -48
 3731 01a9 9F       		.byte	0x9f
 3732 01aa 09000000 		.4byte	.LVL11-1
 3733 01ae 0A000000 		.4byte	.LFE118
 3734 01b2 0400     		.2byte	0x4
 3735 01b4 F3       		.byte	0xf3
 3736 01b5 01       		.uleb128 0x1
 3737 01b6 50       		.byte	0x50
 3738 01b7 9F       		.byte	0x9f
 3739 01b8 00000000 		.4byte	0
 3740 01bc 00000000 		.4byte	0
 3741              	.LLST12:
 3742 01c0 00000000 		.4byte	.LVL9
 3743 01c4 09000000 		.4byte	.LVL11-1
 3744 01c8 0100     		.2byte	0x1
 3745 01ca 51       		.byte	0x51
ARM GAS  /tmp/ccoeCygb.s 			page 67


 3746 01cb 09000000 		.4byte	.LVL11-1
 3747 01cf 0A000000 		.4byte	.LFE118
 3748 01d3 0400     		.2byte	0x4
 3749 01d5 F3       		.byte	0xf3
 3750 01d6 01       		.uleb128 0x1
 3751 01d7 51       		.byte	0x51
 3752 01d8 9F       		.byte	0x9f
 3753 01d9 00000000 		.4byte	0
 3754 01dd 00000000 		.4byte	0
 3755              	.LLST13:
 3756 01e1 00000000 		.4byte	.LVL9
 3757 01e5 09000000 		.4byte	.LVL11-1
 3758 01e9 0100     		.2byte	0x1
 3759 01eb 52       		.byte	0x52
 3760 01ec 09000000 		.4byte	.LVL11-1
 3761 01f0 0A000000 		.4byte	.LFE118
 3762 01f4 0400     		.2byte	0x4
 3763 01f6 F3       		.byte	0xf3
 3764 01f7 01       		.uleb128 0x1
 3765 01f8 52       		.byte	0x52
 3766 01f9 9F       		.byte	0x9f
 3767 01fa 00000000 		.4byte	0
 3768 01fe 00000000 		.4byte	0
 3769              	.LLST14:
 3770 0202 00000000 		.4byte	.LVL12
 3771 0206 02000000 		.4byte	.LVL13
 3772 020a 0100     		.2byte	0x1
 3773 020c 50       		.byte	0x50
 3774 020d 02000000 		.4byte	.LVL13
 3775 0211 05000000 		.4byte	.LVL14-1
 3776 0215 0300     		.2byte	0x3
 3777 0217 70       		.byte	0x70
 3778 0218 74       		.sleb128 -12
 3779 0219 9F       		.byte	0x9f
 3780 021a 05000000 		.4byte	.LVL14-1
 3781 021e 06000000 		.4byte	.LFE123
 3782 0222 0400     		.2byte	0x4
 3783 0224 F3       		.byte	0xf3
 3784 0225 01       		.uleb128 0x1
 3785 0226 50       		.byte	0x50
 3786 0227 9F       		.byte	0x9f
 3787 0228 00000000 		.4byte	0
 3788 022c 00000000 		.4byte	0
 3789              	.LLST15:
 3790 0230 00000000 		.4byte	.LVL12
 3791 0234 05000000 		.4byte	.LVL14-1
 3792 0238 0100     		.2byte	0x1
 3793 023a 51       		.byte	0x51
 3794 023b 05000000 		.4byte	.LVL14-1
 3795 023f 06000000 		.4byte	.LFE123
 3796 0243 0400     		.2byte	0x4
 3797 0245 F3       		.byte	0xf3
 3798 0246 01       		.uleb128 0x1
 3799 0247 51       		.byte	0x51
 3800 0248 9F       		.byte	0x9f
 3801 0249 00000000 		.4byte	0
 3802 024d 00000000 		.4byte	0
ARM GAS  /tmp/ccoeCygb.s 			page 68


 3803              	.LLST16:
 3804 0251 00000000 		.4byte	.LVL15
 3805 0255 02000000 		.4byte	.LVL16
 3806 0259 0100     		.2byte	0x1
 3807 025b 50       		.byte	0x50
 3808 025c 02000000 		.4byte	.LVL16
 3809 0260 09000000 		.4byte	.LVL17-1
 3810 0264 0300     		.2byte	0x3
 3811 0266 70       		.byte	0x70
 3812 0267 74       		.sleb128 -12
 3813 0268 9F       		.byte	0x9f
 3814 0269 09000000 		.4byte	.LVL17-1
 3815 026d 0A000000 		.4byte	.LFE121
 3816 0271 0400     		.2byte	0x4
 3817 0273 F3       		.byte	0xf3
 3818 0274 01       		.uleb128 0x1
 3819 0275 50       		.byte	0x50
 3820 0276 9F       		.byte	0x9f
 3821 0277 00000000 		.4byte	0
 3822 027b 00000000 		.4byte	0
 3823              	.LLST17:
 3824 027f 00000000 		.4byte	.LVL18
 3825 0283 02000000 		.4byte	.LVL19
 3826 0287 0100     		.2byte	0x1
 3827 0289 50       		.byte	0x50
 3828 028a 02000000 		.4byte	.LVL19
 3829 028e 05000000 		.4byte	.LVL20-1
 3830 0292 0300     		.2byte	0x3
 3831 0294 70       		.byte	0x70
 3832 0295 50       		.sleb128 -48
 3833 0296 9F       		.byte	0x9f
 3834 0297 05000000 		.4byte	.LVL20-1
 3835 029b 06000000 		.4byte	.LFE122
 3836 029f 0400     		.2byte	0x4
 3837 02a1 F3       		.byte	0xf3
 3838 02a2 01       		.uleb128 0x1
 3839 02a3 50       		.byte	0x50
 3840 02a4 9F       		.byte	0x9f
 3841 02a5 00000000 		.4byte	0
 3842 02a9 00000000 		.4byte	0
 3843              	.LLST18:
 3844 02ad 00000000 		.4byte	.LVL18
 3845 02b1 05000000 		.4byte	.LVL20-1
 3846 02b5 0100     		.2byte	0x1
 3847 02b7 51       		.byte	0x51
 3848 02b8 05000000 		.4byte	.LVL20-1
 3849 02bc 06000000 		.4byte	.LFE122
 3850 02c0 0400     		.2byte	0x4
 3851 02c2 F3       		.byte	0xf3
 3852 02c3 01       		.uleb128 0x1
 3853 02c4 51       		.byte	0x51
 3854 02c5 9F       		.byte	0x9f
 3855 02c6 00000000 		.4byte	0
 3856 02ca 00000000 		.4byte	0
 3857              	.LLST19:
 3858 02ce 00000000 		.4byte	.LVL18
 3859 02d2 05000000 		.4byte	.LVL20-1
ARM GAS  /tmp/ccoeCygb.s 			page 69


 3860 02d6 0100     		.2byte	0x1
 3861 02d8 52       		.byte	0x52
 3862 02d9 05000000 		.4byte	.LVL20-1
 3863 02dd 06000000 		.4byte	.LFE122
 3864 02e1 0400     		.2byte	0x4
 3865 02e3 F3       		.byte	0xf3
 3866 02e4 01       		.uleb128 0x1
 3867 02e5 52       		.byte	0x52
 3868 02e6 9F       		.byte	0x9f
 3869 02e7 00000000 		.4byte	0
 3870 02eb 00000000 		.4byte	0
 3871              	.LLST20:
 3872 02ef 00000000 		.4byte	.LVL21
 3873 02f3 02000000 		.4byte	.LVL22
 3874 02f7 0100     		.2byte	0x1
 3875 02f9 50       		.byte	0x50
 3876 02fa 02000000 		.4byte	.LVL22
 3877 02fe 09000000 		.4byte	.LVL23-1
 3878 0302 0300     		.2byte	0x3
 3879 0304 70       		.byte	0x70
 3880 0305 50       		.sleb128 -48
 3881 0306 9F       		.byte	0x9f
 3882 0307 09000000 		.4byte	.LVL23-1
 3883 030b 0A000000 		.4byte	.LFE120
 3884 030f 0400     		.2byte	0x4
 3885 0311 F3       		.byte	0xf3
 3886 0312 01       		.uleb128 0x1
 3887 0313 50       		.byte	0x50
 3888 0314 9F       		.byte	0x9f
 3889 0315 00000000 		.4byte	0
 3890 0319 00000000 		.4byte	0
 3891              	.LLST21:
 3892 031d 00000000 		.4byte	.LVL21
 3893 0321 09000000 		.4byte	.LVL23-1
 3894 0325 0100     		.2byte	0x1
 3895 0327 51       		.byte	0x51
 3896 0328 09000000 		.4byte	.LVL23-1
 3897 032c 0A000000 		.4byte	.LFE120
 3898 0330 0400     		.2byte	0x4
 3899 0332 F3       		.byte	0xf3
 3900 0333 01       		.uleb128 0x1
 3901 0334 51       		.byte	0x51
 3902 0335 9F       		.byte	0x9f
 3903 0336 00000000 		.4byte	0
 3904 033a 00000000 		.4byte	0
 3905              	.LLST22:
 3906 033e 00000000 		.4byte	.LFB127
 3907 0342 02000000 		.4byte	.LCFI0
 3908 0346 0200     		.2byte	0x2
 3909 0348 7D       		.byte	0x7d
 3910 0349 00       		.sleb128 0
 3911 034a 02000000 		.4byte	.LCFI0
 3912 034e 14000000 		.4byte	.LCFI1
 3913 0352 0200     		.2byte	0x2
 3914 0354 7D       		.byte	0x7d
 3915 0355 10       		.sleb128 16
 3916 0356 14000000 		.4byte	.LCFI1
ARM GAS  /tmp/ccoeCygb.s 			page 70


 3917 035a 44000000 		.4byte	.LFE127
 3918 035e 0200     		.2byte	0x2
 3919 0360 7D       		.byte	0x7d
 3920 0361 18       		.sleb128 24
 3921 0362 00000000 		.4byte	0
 3922 0366 00000000 		.4byte	0
 3923              	.LLST23:
 3924 036a 00000000 		.4byte	.LVL25
 3925 036e 28000000 		.4byte	.LVL28
 3926 0372 0100     		.2byte	0x1
 3927 0374 50       		.byte	0x50
 3928 0375 28000000 		.4byte	.LVL28
 3929 0379 44000000 		.4byte	.LFE127
 3930 037d 0100     		.2byte	0x1
 3931 037f 54       		.byte	0x54
 3932 0380 00000000 		.4byte	0
 3933 0384 00000000 		.4byte	0
 3934              	.LLST24:
 3935 0388 00000000 		.4byte	.LVL25
 3936 038c 20000000 		.4byte	.LVL26
 3937 0390 0100     		.2byte	0x1
 3938 0392 51       		.byte	0x51
 3939 0393 20000000 		.4byte	.LVL26
 3940 0397 2D000000 		.4byte	.LVL29-1
 3941 039b 0100     		.2byte	0x1
 3942 039d 53       		.byte	0x53
 3943 039e 2D000000 		.4byte	.LVL29-1
 3944 03a2 44000000 		.4byte	.LFE127
 3945 03a6 0400     		.2byte	0x4
 3946 03a8 F3       		.byte	0xf3
 3947 03a9 01       		.uleb128 0x1
 3948 03aa 51       		.byte	0x51
 3949 03ab 9F       		.byte	0x9f
 3950 03ac 00000000 		.4byte	0
 3951 03b0 00000000 		.4byte	0
 3952              	.LLST25:
 3953 03b4 00000000 		.4byte	.LVL25
 3954 03b8 22000000 		.4byte	.LVL27
 3955 03bc 0100     		.2byte	0x1
 3956 03be 52       		.byte	0x52
 3957 03bf 22000000 		.4byte	.LVL27
 3958 03c3 44000000 		.4byte	.LFE127
 3959 03c7 0100     		.2byte	0x1
 3960 03c9 56       		.byte	0x56
 3961 03ca 00000000 		.4byte	0
 3962 03ce 00000000 		.4byte	0
 3963              	.LLST26:
 3964 03d2 00000000 		.4byte	.LFB128
 3965 03d6 02000000 		.4byte	.LCFI2
 3966 03da 0200     		.2byte	0x2
 3967 03dc 7D       		.byte	0x7d
 3968 03dd 00       		.sleb128 0
 3969 03de 02000000 		.4byte	.LCFI2
 3970 03e2 1A000000 		.4byte	.LFE128
 3971 03e6 0200     		.2byte	0x2
 3972 03e8 7D       		.byte	0x7d
 3973 03e9 08       		.sleb128 8
ARM GAS  /tmp/ccoeCygb.s 			page 71


 3974 03ea 00000000 		.4byte	0
 3975 03ee 00000000 		.4byte	0
 3976              	.LLST27:
 3977 03f2 00000000 		.4byte	.LVL31
 3978 03f6 0D000000 		.4byte	.LVL34-1
 3979 03fa 0100     		.2byte	0x1
 3980 03fc 50       		.byte	0x50
 3981 03fd 0D000000 		.4byte	.LVL34-1
 3982 0401 1A000000 		.4byte	.LFE128
 3983 0405 0100     		.2byte	0x1
 3984 0407 54       		.byte	0x54
 3985 0408 00000000 		.4byte	0
 3986 040c 00000000 		.4byte	0
 3987              	.LLST28:
 3988 0410 00000000 		.4byte	.LVL31
 3989 0414 0D000000 		.4byte	.LVL34-1
 3990 0418 0100     		.2byte	0x1
 3991 041a 51       		.byte	0x51
 3992 041b 0D000000 		.4byte	.LVL34-1
 3993 041f 1A000000 		.4byte	.LFE128
 3994 0423 0400     		.2byte	0x4
 3995 0425 F3       		.byte	0xf3
 3996 0426 01       		.uleb128 0x1
 3997 0427 51       		.byte	0x51
 3998 0428 9F       		.byte	0x9f
 3999 0429 00000000 		.4byte	0
 4000 042d 00000000 		.4byte	0
 4001              	.LLST29:
 4002 0431 0A000000 		.4byte	.LVL33
 4003 0435 0D000000 		.4byte	.LVL34-1
 4004 0439 0100     		.2byte	0x1
 4005 043b 53       		.byte	0x53
 4006 043c 00000000 		.4byte	0
 4007 0440 00000000 		.4byte	0
 4008              	.LLST30:
 4009 0444 18000000 		.4byte	.LVL36
 4010 0448 1A000000 		.4byte	.LFE128
 4011 044c 0100     		.2byte	0x1
 4012 044e 53       		.byte	0x53
 4013 044f 00000000 		.4byte	0
 4014 0453 00000000 		.4byte	0
 4015              	.LLST31:
 4016 0457 00000000 		.4byte	.LFB129
 4017 045b 02000000 		.4byte	.LCFI3
 4018 045f 0200     		.2byte	0x2
 4019 0461 7D       		.byte	0x7d
 4020 0462 00       		.sleb128 0
 4021 0463 02000000 		.4byte	.LCFI3
 4022 0467 2E000000 		.4byte	.LFE129
 4023 046b 0200     		.2byte	0x2
 4024 046d 7D       		.byte	0x7d
 4025 046e 08       		.sleb128 8
 4026 046f 00000000 		.4byte	0
 4027 0473 00000000 		.4byte	0
 4028              	.LLST32:
 4029 0477 00000000 		.4byte	.LVL37
 4030 047b 0D000000 		.4byte	.LVL40-1
ARM GAS  /tmp/ccoeCygb.s 			page 72


 4031 047f 0100     		.2byte	0x1
 4032 0481 50       		.byte	0x50
 4033 0482 0D000000 		.4byte	.LVL40-1
 4034 0486 2E000000 		.4byte	.LFE129
 4035 048a 0100     		.2byte	0x1
 4036 048c 54       		.byte	0x54
 4037 048d 00000000 		.4byte	0
 4038 0491 00000000 		.4byte	0
 4039              	.LLST33:
 4040 0495 0A000000 		.4byte	.LVL39
 4041 0499 0D000000 		.4byte	.LVL40-1
 4042 049d 0100     		.2byte	0x1
 4043 049f 53       		.byte	0x53
 4044 04a0 00000000 		.4byte	0
 4045 04a4 00000000 		.4byte	0
 4046              	.LLST34:
 4047 04a8 2C000000 		.4byte	.LVL45
 4048 04ac 2E000000 		.4byte	.LFE129
 4049 04b0 0100     		.2byte	0x1
 4050 04b2 53       		.byte	0x53
 4051 04b3 00000000 		.4byte	0
 4052 04b7 00000000 		.4byte	0
 4053              	.LLST35:
 4054 04bb 00000000 		.4byte	.LFB130
 4055 04bf 02000000 		.4byte	.LCFI4
 4056 04c3 0200     		.2byte	0x2
 4057 04c5 7D       		.byte	0x7d
 4058 04c6 00       		.sleb128 0
 4059 04c7 02000000 		.4byte	.LCFI4
 4060 04cb 3C000000 		.4byte	.LFE130
 4061 04cf 0200     		.2byte	0x2
 4062 04d1 7D       		.byte	0x7d
 4063 04d2 10       		.sleb128 16
 4064 04d3 00000000 		.4byte	0
 4065 04d7 00000000 		.4byte	0
 4066              	.LLST36:
 4067 04db 00000000 		.4byte	.LVL46
 4068 04df 0E000000 		.4byte	.LVL47
 4069 04e3 0100     		.2byte	0x1
 4070 04e5 50       		.byte	0x50
 4071 04e6 0E000000 		.4byte	.LVL47
 4072 04ea 1A000000 		.4byte	.LVL50
 4073 04ee 0100     		.2byte	0x1
 4074 04f0 54       		.byte	0x54
 4075 04f1 1A000000 		.4byte	.LVL50
 4076 04f5 1C000000 		.4byte	.LVL51
 4077 04f9 0100     		.2byte	0x1
 4078 04fb 50       		.byte	0x50
 4079 04fc 1C000000 		.4byte	.LVL51
 4080 0500 3C000000 		.4byte	.LFE130
 4081 0504 0100     		.2byte	0x1
 4082 0506 54       		.byte	0x54
 4083 0507 00000000 		.4byte	0
 4084 050b 00000000 		.4byte	0
 4085              	.LLST37:
 4086 050f 00000000 		.4byte	.LVL46
 4087 0513 10000000 		.4byte	.LVL48
ARM GAS  /tmp/ccoeCygb.s 			page 73


 4088 0517 0100     		.2byte	0x1
 4089 0519 51       		.byte	0x51
 4090 051a 10000000 		.4byte	.LVL48
 4091 051e 1A000000 		.4byte	.LVL50
 4092 0522 0400     		.2byte	0x4
 4093 0524 F3       		.byte	0xf3
 4094 0525 01       		.uleb128 0x1
 4095 0526 51       		.byte	0x51
 4096 0527 9F       		.byte	0x9f
 4097 0528 1A000000 		.4byte	.LVL50
 4098 052c 1E000000 		.4byte	.LVL52
 4099 0530 0100     		.2byte	0x1
 4100 0532 51       		.byte	0x51
 4101 0533 1E000000 		.4byte	.LVL52
 4102 0537 3C000000 		.4byte	.LFE130
 4103 053b 0400     		.2byte	0x4
 4104 053d F3       		.byte	0xf3
 4105 053e 01       		.uleb128 0x1
 4106 053f 51       		.byte	0x51
 4107 0540 9F       		.byte	0x9f
 4108 0541 00000000 		.4byte	0
 4109 0545 00000000 		.4byte	0
 4110              	.LLST38:
 4111 0549 00000000 		.4byte	.LFB131
 4112 054d 02000000 		.4byte	.LCFI5
 4113 0551 0200     		.2byte	0x2
 4114 0553 7D       		.byte	0x7d
 4115 0554 00       		.sleb128 0
 4116 0555 02000000 		.4byte	.LCFI5
 4117 0559 20000000 		.4byte	.LFE131
 4118 055d 0200     		.2byte	0x2
 4119 055f 7D       		.byte	0x7d
 4120 0560 10       		.sleb128 16
 4121 0561 00000000 		.4byte	0
 4122 0565 00000000 		.4byte	0
 4123              	.LLST39:
 4124 0569 00000000 		.4byte	.LVL56
 4125 056d 08000000 		.4byte	.LVL57
 4126 0571 0100     		.2byte	0x1
 4127 0573 50       		.byte	0x50
 4128 0574 08000000 		.4byte	.LVL57
 4129 0578 20000000 		.4byte	.LFE131
 4130 057c 0100     		.2byte	0x1
 4131 057e 54       		.byte	0x54
 4132 057f 00000000 		.4byte	0
 4133 0583 00000000 		.4byte	0
 4134              		.section	.debug_aranges,"",%progbits
 4135 0000 84000000 		.4byte	0x84
 4136 0004 0200     		.2byte	0x2
 4137 0006 00000000 		.4byte	.Ldebug_info0
 4138 000a 04       		.byte	0x4
 4139 000b 00       		.byte	0
 4140 000c 0000     		.2byte	0
 4141 000e 0000     		.2byte	0
 4142 0010 00000000 		.4byte	.LFB125
 4143 0014 06000000 		.4byte	.LFE125-.LFB125
 4144 0018 00000000 		.4byte	.LFB119
ARM GAS  /tmp/ccoeCygb.s 			page 74


 4145 001c 0A000000 		.4byte	.LFE119-.LFB119
 4146 0020 00000000 		.4byte	.LFB124
 4147 0024 06000000 		.4byte	.LFE124-.LFB124
 4148 0028 00000000 		.4byte	.LFB118
 4149 002c 0A000000 		.4byte	.LFE118-.LFB118
 4150 0030 00000000 		.4byte	.LFB123
 4151 0034 06000000 		.4byte	.LFE123-.LFB123
 4152 0038 00000000 		.4byte	.LFB121
 4153 003c 0A000000 		.4byte	.LFE121-.LFB121
 4154 0040 00000000 		.4byte	.LFB122
 4155 0044 06000000 		.4byte	.LFE122-.LFB122
 4156 0048 00000000 		.4byte	.LFB120
 4157 004c 0A000000 		.4byte	.LFE120-.LFB120
 4158 0050 00000000 		.4byte	.LFB126
 4159 0054 04000000 		.4byte	.LFE126-.LFB126
 4160 0058 00000000 		.4byte	.LFB127
 4161 005c 44000000 		.4byte	.LFE127-.LFB127
 4162 0060 00000000 		.4byte	.LFB128
 4163 0064 1A000000 		.4byte	.LFE128-.LFB128
 4164 0068 00000000 		.4byte	.LFB129
 4165 006c 2E000000 		.4byte	.LFE129-.LFB129
 4166 0070 00000000 		.4byte	.LFB130
 4167 0074 3C000000 		.4byte	.LFE130-.LFB130
 4168 0078 00000000 		.4byte	.LFB131
 4169 007c 20000000 		.4byte	.LFE131-.LFB131
 4170 0080 00000000 		.4byte	0
 4171 0084 00000000 		.4byte	0
 4172              		.section	.debug_ranges,"",%progbits
 4173              	.Ldebug_ranges0:
 4174 0000 02000000 		.4byte	.LBB2
 4175 0004 04000000 		.4byte	.LBE2
 4176 0008 06000000 		.4byte	.LBB3
 4177 000c 0A000000 		.4byte	.LBE3
 4178 0010 00000000 		.4byte	0
 4179 0014 00000000 		.4byte	0
 4180 0018 02000000 		.4byte	.LBB5
 4181 001c 04000000 		.4byte	.LBE5
 4182 0020 06000000 		.4byte	.LBB6
 4183 0024 0A000000 		.4byte	.LBE6
 4184 0028 00000000 		.4byte	0
 4185 002c 00000000 		.4byte	0
 4186 0030 00000000 		.4byte	.LFB125
 4187 0034 06000000 		.4byte	.LFE125
 4188 0038 00000000 		.4byte	.LFB119
 4189 003c 0A000000 		.4byte	.LFE119
 4190 0040 00000000 		.4byte	.LFB124
 4191 0044 06000000 		.4byte	.LFE124
 4192 0048 00000000 		.4byte	.LFB118
 4193 004c 0A000000 		.4byte	.LFE118
 4194 0050 00000000 		.4byte	.LFB123
 4195 0054 06000000 		.4byte	.LFE123
 4196 0058 00000000 		.4byte	.LFB121
 4197 005c 0A000000 		.4byte	.LFE121
 4198 0060 00000000 		.4byte	.LFB122
 4199 0064 06000000 		.4byte	.LFE122
 4200 0068 00000000 		.4byte	.LFB120
 4201 006c 0A000000 		.4byte	.LFE120
ARM GAS  /tmp/ccoeCygb.s 			page 75


 4202 0070 00000000 		.4byte	.LFB126
 4203 0074 04000000 		.4byte	.LFE126
 4204 0078 00000000 		.4byte	.LFB127
 4205 007c 44000000 		.4byte	.LFE127
 4206 0080 00000000 		.4byte	.LFB128
 4207 0084 1A000000 		.4byte	.LFE128
 4208 0088 00000000 		.4byte	.LFB129
 4209 008c 2E000000 		.4byte	.LFE129
 4210 0090 00000000 		.4byte	.LFB130
 4211 0094 3C000000 		.4byte	.LFE130
 4212 0098 00000000 		.4byte	.LFB131
 4213 009c 20000000 		.4byte	.LFE131
 4214 00a0 00000000 		.4byte	0
 4215 00a4 00000000 		.4byte	0
 4216              		.section	.debug_line,"",%progbits
 4217              	.Ldebug_line0:
 4218 0000 91030000 		.section	.debug_str,"MS",%progbits,1
 4218      02006902 
 4218      00000201 
 4218      FB0E0D00 
 4218      01010101 
 4219              	.LASF122:
 4220 0000 63684F51 		.ascii	"chOQPutTimeout\000"
 4220      50757454 
 4220      696D656F 
 4220      757400
 4221              	.LASF97:
 4222 000f 73635F73 		.ascii	"sc_speed\000"
 4222      70656564 
 4222      00
 4223              	.LASF2:
 4224 0018 73697A65 		.ascii	"size_t\000"
 4224      5F7400
 4225              	.LASF61:
 4226 001f 7264796D 		.ascii	"rdymsg\000"
 4226      736700
 4227              	.LASF77:
 4228 0026 4F757470 		.ascii	"OutputQueue\000"
 4228      75745175 
 4228      65756500 
 4229              	.LASF119:
 4230 0032 63684951 		.ascii	"chIQReadTimeout\000"
 4230      52656164 
 4230      54696D65 
 4230      6F757400 
 4231              	.LASF13:
 4232 0042 6C6F6E67 		.ascii	"long long unsigned int\000"
 4232      206C6F6E 
 4232      6720756E 
 4232      7369676E 
 4232      65642069 
 4233              	.LASF128:
 4234 0059 63684951 		.ascii	"chIQResetI\000"
 4234      52657365 
 4234      744900
 4235              	.LASF124:
 4236 0064 63684F51 		.ascii	"chOQInit\000"
ARM GAS  /tmp/ccoeCygb.s 			page 76


 4236      496E6974 
 4236      00
 4237              	.LASF62:
 4238 006d 65786974 		.ascii	"exitcode\000"
 4238      636F6465 
 4238      00
 4239              	.LASF138:
 4240 0076 49544D5F 		.ascii	"ITM_RxBuffer\000"
 4240      52784275 
 4240      66666572 
 4240      00
 4241              	.LASF117:
 4242 0083 73645374 		.ascii	"sdStop\000"
 4242      6F7000
 4243              	.LASF112:
 4244 008a 73644F62 		.ascii	"sdObjectInit\000"
 4244      6A656374 
 4244      496E6974 
 4244      00
 4245              	.LASF108:
 4246 0097 72656164 		.ascii	"readt\000"
 4246      7400
 4247              	.LASF67:
 4248 009d 715F7761 		.ascii	"q_waiting\000"
 4248      6974696E 
 4248      6700
 4249              	.LASF12:
 4250 00a7 6C6F6E67 		.ascii	"long long int\000"
 4250      206C6F6E 
 4250      6720696E 
 4250      7400
 4251              	.LASF1:
 4252 00b5 7369676E 		.ascii	"signed char\000"
 4252      65642063 
 4252      68617200 
 4253              	.LASF84:
 4254 00c1 47545052 		.ascii	"GTPR\000"
 4254      00
 4255              	.LASF43:
 4256 00c6 705F6D70 		.ascii	"p_mpool\000"
 4256      6F6F6C00 
 4257              	.LASF14:
 4258 00ce 626F6F6C 		.ascii	"bool_t\000"
 4258      5F7400
 4259              	.LASF51:
 4260 00d5 6D5F7175 		.ascii	"m_queue\000"
 4260      65756500 
 4261              	.LASF18:
 4262 00dd 74736C69 		.ascii	"tslices_t\000"
 4262      6365735F 
 4262      7400
 4263              	.LASF93:
 4264 00e7 73746174 		.ascii	"state\000"
 4264      6500
 4265              	.LASF9:
 4266 00ed 6C6F6E67 		.ascii	"long int\000"
 4266      20696E74 
ARM GAS  /tmp/ccoeCygb.s 			page 77


 4266      00
 4267              	.LASF16:
 4268 00f6 74737461 		.ascii	"tstate_t\000"
 4268      74655F74 
 4268      00
 4269              	.LASF133:
 4270 00ff 63684F51 		.ascii	"chOQGetI\000"
 4270      47657449 
 4270      00
 4271              	.LASF34:
 4272 0108 705F7265 		.ascii	"p_refs\000"
 4272      667300
 4273              	.LASF69:
 4274 010f 715F6275 		.ascii	"q_buffer\000"
 4274      66666572 
 4274      00
 4275              	.LASF71:
 4276 0118 715F7772 		.ascii	"q_wrptr\000"
 4276      70747200 
 4277              	.LASF74:
 4278 0120 715F6C69 		.ascii	"q_link\000"
 4278      6E6B00
 4279              	.LASF132:
 4280 0127 63684576 		.ascii	"chEvtBroadcastFlagsI\000"
 4280      7442726F 
 4280      61646361 
 4280      7374466C 
 4280      61677349 
 4281              	.LASF29:
 4282 013c 705F6E65 		.ascii	"p_newer\000"
 4282      77657200 
 4283              	.LASF130:
 4284 0144 63685363 		.ascii	"chSchRescheduleS\000"
 4284      68526573 
 4284      63686564 
 4284      756C6553 
 4284      00
 4285              	.LASF46:
 4286 0155 72656761 		.ascii	"regarm_t\000"
 4286      726D5F74 
 4286      00
 4287              	.LASF131:
 4288 015e 63684951 		.ascii	"chIQPutI\000"
 4288      50757449 
 4288      00
 4289              	.LASF59:
 4290 0167 4576656E 		.ascii	"EventSource\000"
 4290      74536F75 
 4290      72636500 
 4291              	.LASF96:
 4292 0173 75736172 		.ascii	"usart\000"
 4292      7400
 4293              	.LASF0:
 4294 0179 756E7369 		.ascii	"unsigned int\000"
 4294      676E6564 
 4294      20696E74 
 4294      00
ARM GAS  /tmp/ccoeCygb.s 			page 78


 4295              	.LASF6:
 4296 0186 75696E74 		.ascii	"uint16_t\000"
 4296      31365F74 
 4296      00
 4297              	.LASF102:
 4298 018f 53657269 		.ascii	"SerialDriverVMT\000"
 4298      616C4472 
 4298      69766572 
 4298      564D5400 
 4299              	.LASF36:
 4300 019f 705F7469 		.ascii	"p_time\000"
 4300      6D6500
 4301              	.LASF113:
 4302 01a6 696E6F74 		.ascii	"inotify\000"
 4302      69667900 
 4303              	.LASF94:
 4304 01ae 69717565 		.ascii	"iqueue\000"
 4304      756500
 4305              	.LASF38:
 4306 01b5 705F6D73 		.ascii	"p_msgqueue\000"
 4306      67717565 
 4306      756500
 4307              	.LASF129:
 4308 01c0 73645F6C 		.ascii	"sd_lld_init\000"
 4308      6C645F69 
 4308      6E697400 
 4309              	.LASF106:
 4310 01cc 67657474 		.ascii	"gett\000"
 4310      00
 4311              	.LASF92:
 4312 01d1 6576656E 		.ascii	"event\000"
 4312      7400
 4313              	.LASF7:
 4314 01d7 73686F72 		.ascii	"short unsigned int\000"
 4314      7420756E 
 4314      7369676E 
 4314      65642069 
 4314      6E7400
 4315              	.LASF20:
 4316 01ea 6D73675F 		.ascii	"msg_t\000"
 4316      7400
 4317              	.LASF95:
 4318 01f0 6F717565 		.ascii	"oqueue\000"
 4318      756500
 4319              	.LASF86:
 4320 01f7 55534152 		.ascii	"USART_TypeDef\000"
 4320      545F5479 
 4320      70654465 
 4320      6600
 4321              	.LASF107:
 4322 0205 77726974 		.ascii	"writet\000"
 4322      657400
 4323              	.LASF15:
 4324 020c 746D6F64 		.ascii	"tmode_t\000"
 4324      655F7400 
 4325              	.LASF45:
 4326 0214 54687265 		.ascii	"ThreadsList\000"
ARM GAS  /tmp/ccoeCygb.s 			page 79


 4326      6164734C 
 4326      69737400 
 4327              	.LASF21:
 4328 0220 6576656E 		.ascii	"eventmask_t\000"
 4328      746D6173 
 4328      6B5F7400 
 4329              	.LASF76:
 4330 022c 496E7075 		.ascii	"InputQueue\000"
 4330      74517565 
 4330      756500
 4331              	.LASF136:
 4332 0237 2F686F6D 		.ascii	"/home/kwilson/Sandbox/ChibiOS_2.5.1/demos/ARMCM4-ST"
 4332      652F6B77 
 4332      696C736F 
 4332      6E2F5361 
 4332      6E64626F 
 4333 026a 4D333246 		.ascii	"M32F407-LWIP-FATFS-USB\000"
 4333      3430372D 
 4333      4C574950 
 4333      2D464154 
 4333      46532D55 
 4334              	.LASF75:
 4335 0281 716E6F74 		.ascii	"qnotify_t\000"
 4335      6966795F 
 4335      7400
 4336              	.LASF66:
 4337 028b 47656E65 		.ascii	"GenericQueue\000"
 4337      72696351 
 4337      75657565 
 4337      00
 4338              	.LASF120:
 4339 0298 63684F51 		.ascii	"chOQWriteTimeout\000"
 4339      57726974 
 4339      6554696D 
 4339      656F7574 
 4339      00
 4340              	.LASF103:
 4341 02a9 77726974 		.ascii	"write\000"
 4341      6500
 4342              	.LASF105:
 4343 02af 70757474 		.ascii	"putt\000"
 4343      00
 4344              	.LASF49:
 4345 02b4 73697A65 		.ascii	"sizetype\000"
 4345      74797065 
 4345      00
 4346              	.LASF68:
 4347 02bd 715F636F 		.ascii	"q_counter\000"
 4347      756E7465 
 4347      7200
 4348              	.LASF50:
 4349 02c7 4D757465 		.ascii	"Mutex\000"
 4349      7800
 4350              	.LASF27:
 4351 02cd 705F7072 		.ascii	"p_prio\000"
 4351      696F00
 4352              	.LASF57:
ARM GAS  /tmp/ccoeCygb.s 			page 80


 4353 02d4 656C5F6D 		.ascii	"el_mask\000"
 4353      61736B00 
 4354              	.LASF30:
 4355 02dc 705F6F6C 		.ascii	"p_older\000"
 4355      64657200 
 4356              	.LASF44:
 4357 02e4 54687265 		.ascii	"ThreadsQueue\000"
 4357      61647351 
 4357      75657565 
 4357      00
 4358              	.LASF110:
 4359 02f1 74696D65 		.ascii	"timeout\000"
 4359      6F757400 
 4360              	.LASF109:
 4361 02f9 74696D65 		.ascii	"time\000"
 4361      00
 4362              	.LASF134:
 4363 02fe 474E5520 		.ascii	"GNU C 4.7.2\000"
 4363      4320342E 
 4363      372E3200 
 4364              	.LASF101:
 4365 030a 53657269 		.ascii	"SerialConfig\000"
 4365      616C436F 
 4365      6E666967 
 4365      00
 4366              	.LASF17:
 4367 0317 74726566 		.ascii	"trefs_t\000"
 4367      735F7400 
 4368              	.LASF78:
 4369 031f 52455345 		.ascii	"RESERVED0\000"
 4369      52564544 
 4369      3000
 4370              	.LASF79:
 4371 0329 52455345 		.ascii	"RESERVED1\000"
 4371      52564544 
 4371      3100
 4372              	.LASF80:
 4373 0333 52455345 		.ascii	"RESERVED2\000"
 4373      52564544 
 4373      3200
 4374              	.LASF81:
 4375 033d 52455345 		.ascii	"RESERVED3\000"
 4375      52564544 
 4375      3300
 4376              	.LASF82:
 4377 0347 52455345 		.ascii	"RESERVED4\000"
 4377      52564544 
 4377      3400
 4378              	.LASF26:
 4379 0351 705F7072 		.ascii	"p_prev\000"
 4379      657600
 4380              	.LASF85:
 4381 0358 52455345 		.ascii	"RESERVED6\000"
 4381      52564544 
 4381      3600
 4382              	.LASF19:
 4383 0362 74707269 		.ascii	"tprio_t\000"
ARM GAS  /tmp/ccoeCygb.s 			page 81


 4383      6F5F7400 
 4384              	.LASF72:
 4385 036a 715F7264 		.ascii	"q_rdptr\000"
 4385      70747200 
 4386              	.LASF8:
 4387 0372 696E7433 		.ascii	"int32_t\000"
 4387      325F7400 
 4388              	.LASF4:
 4389 037a 756E7369 		.ascii	"unsigned char\000"
 4389      676E6564 
 4389      20636861 
 4389      7200
 4390              	.LASF125:
 4391 0388 73645F6C 		.ascii	"sd_lld_start\000"
 4391      6C645F73 
 4391      74617274 
 4391      00
 4392              	.LASF56:
 4393 0395 656C5F6C 		.ascii	"el_listener\000"
 4393      69737465 
 4393      6E657200 
 4394              	.LASF58:
 4395 03a1 656C5F66 		.ascii	"el_flags\000"
 4395      6C616773 
 4395      00
 4396              	.LASF32:
 4397 03aa 705F7374 		.ascii	"p_state\000"
 4397      61746500 
 4398              	.LASF41:
 4399 03b2 705F6D74 		.ascii	"p_mtxlist\000"
 4399      786C6973 
 4399      7400
 4400              	.LASF5:
 4401 03bc 73686F72 		.ascii	"short int\000"
 4401      7420696E 
 4401      7400
 4402              	.LASF35:
 4403 03c6 705F7072 		.ascii	"p_preempt\000"
 4403      65656D70 
 4403      7400
 4404              	.LASF64:
 4405 03d0 65776D61 		.ascii	"ewmask\000"
 4405      736B00
 4406              	.LASF25:
 4407 03d7 705F6E65 		.ascii	"p_next\000"
 4407      787400
 4408              	.LASF33:
 4409 03de 705F666C 		.ascii	"p_flags\000"
 4409      61677300 
 4410              	.LASF55:
 4411 03e6 656C5F6E 		.ascii	"el_next\000"
 4411      65787400 
 4412              	.LASF88:
 4413 03ee 53445F53 		.ascii	"SD_STOP\000"
 4413      544F5000 
 4414              	.LASF24:
 4415 03f6 54687265 		.ascii	"Thread\000"
ARM GAS  /tmp/ccoeCygb.s 			page 82


 4415      616400
 4416              	.LASF40:
 4417 03fd 705F6570 		.ascii	"p_epending\000"
 4417      656E6469 
 4417      6E6700
 4418              	.LASF87:
 4419 0408 53445F55 		.ascii	"SD_UNINIT\000"
 4419      4E494E49 
 4419      5400
 4420              	.LASF83:
 4421 0412 52455345 		.ascii	"RESERVED5\000"
 4421      52564544 
 4421      3500
 4422              	.LASF10:
 4423 041c 75696E74 		.ascii	"uint32_t\000"
 4423      33325F74 
 4423      00
 4424              	.LASF90:
 4425 0425 73647374 		.ascii	"sdstate_t\000"
 4425      6174655F 
 4425      7400
 4426              	.LASF91:
 4427 042f 53657269 		.ascii	"SerialDriver\000"
 4427      616C4472 
 4427      69766572 
 4427      00
 4428              	.LASF11:
 4429 043c 6C6F6E67 		.ascii	"long unsigned int\000"
 4429      20756E73 
 4429      69676E65 
 4429      6420696E 
 4429      7400
 4430              	.LASF104:
 4431 044e 72656164 		.ascii	"read\000"
 4431      00
 4432              	.LASF65:
 4433 0453 63686172 		.ascii	"char\000"
 4433      00
 4434              	.LASF118:
 4435 0458 7364496E 		.ascii	"sdIncomingDataI\000"
 4435      636F6D69 
 4435      6E674461 
 4435      74614900 
 4436              	.LASF116:
 4437 0468 636F6E66 		.ascii	"config\000"
 4437      696700
 4438              	.LASF115:
 4439 046f 73645374 		.ascii	"sdStart\000"
 4439      61727400 
 4440              	.LASF53:
 4441 0477 6D5F6E65 		.ascii	"m_next\000"
 4441      787400
 4442              	.LASF23:
 4443 047e 73797374 		.ascii	"systime_t\000"
 4443      696D655F 
 4443      7400
 4444              	.LASF42:
ARM GAS  /tmp/ccoeCygb.s 			page 83


 4445 0488 705F7265 		.ascii	"p_realprio\000"
 4445      616C7072 
 4445      696F00
 4446              	.LASF127:
 4447 0493 63684F51 		.ascii	"chOQResetI\000"
 4447      52657365 
 4447      744900
 4448              	.LASF48:
 4449 049e 636F6E74 		.ascii	"context\000"
 4449      65787400 
 4450              	.LASF47:
 4451 04a6 696E7463 		.ascii	"intctx\000"
 4451      747800
 4452              	.LASF89:
 4453 04ad 53445F52 		.ascii	"SD_READY\000"
 4453      45414459 
 4453      00
 4454              	.LASF22:
 4455 04b6 666C6167 		.ascii	"flagsmask_t\000"
 4455      736D6173 
 4455      6B5F7400 
 4456              	.LASF70:
 4457 04c2 715F746F 		.ascii	"q_top\000"
 4457      7000
 4458              	.LASF31:
 4459 04c8 705F6E61 		.ascii	"p_name\000"
 4459      6D6500
 4460              	.LASF60:
 4461 04cf 65735F6E 		.ascii	"es_next\000"
 4461      65787400 
 4462              	.LASF73:
 4463 04d7 715F6E6F 		.ascii	"q_notify\000"
 4463      74696679 
 4463      00
 4464              	.LASF137:
 4465 04e0 73645265 		.ascii	"sdRequestDataI\000"
 4465      71756573 
 4465      74446174 
 4465      614900
 4466              	.LASF3:
 4467 04ef 75696E74 		.ascii	"uint8_t\000"
 4467      385F7400 
 4468              	.LASF135:
 4469 04f7 2E2E2F2E 		.ascii	"../../os/hal/src/serial.c\000"
 4469      2E2F6F73 
 4469      2F68616C 
 4469      2F737263 
 4469      2F736572 
 4470              	.LASF114:
 4471 0511 6F6E6F74 		.ascii	"onotify\000"
 4471      69667900 
 4472              	.LASF54:
 4473 0519 4576656E 		.ascii	"EventListener\000"
 4473      744C6973 
 4473      74656E65 
 4473      7200
 4474              	.LASF63:
ARM GAS  /tmp/ccoeCygb.s 			page 84


 4475 0527 77746F62 		.ascii	"wtobjp\000"
 4475      6A7000
 4476              	.LASF126:
 4477 052e 73645F6C 		.ascii	"sd_lld_stop\000"
 4477      6C645F73 
 4477      746F7000 
 4478              	.LASF39:
 4479 053a 705F6D73 		.ascii	"p_msg\000"
 4479      6700
 4480              	.LASF98:
 4481 0540 73635F63 		.ascii	"sc_cr1\000"
 4481      723100
 4482              	.LASF99:
 4483 0547 73635F63 		.ascii	"sc_cr2\000"
 4483      723200
 4484              	.LASF100:
 4485 054e 73635F63 		.ascii	"sc_cr3\000"
 4485      723300
 4486              	.LASF111:
 4487 0555 7364496E 		.ascii	"sdInit\000"
 4487      697400
 4488              	.LASF123:
 4489 055c 63684951 		.ascii	"chIQInit\000"
 4489      496E6974 
 4489      00
 4490              	.LASF52:
 4491 0565 6D5F6F77 		.ascii	"m_owner\000"
 4491      6E657200 
 4492              	.LASF28:
 4493 056d 705F6374 		.ascii	"p_ctx\000"
 4493      7800
 4494              	.LASF37:
 4495 0573 705F7761 		.ascii	"p_waiting\000"
 4495      6974696E 
 4495      6700
 4496              	.LASF121:
 4497 057d 63684951 		.ascii	"chIQGetTimeout\000"
 4497      47657454 
 4497      696D656F 
 4497      757400
 4498              		.ident	"GCC: (crosstool-NG 1.17.0 - PSAS ST32F4 GFE) 4.7.2"
ARM GAS  /tmp/ccoeCygb.s 			page 85


DEFINED SYMBOLS
                            *ABS*:0000000000000000 serial.c
     /tmp/ccoeCygb.s:21     .text.readt:0000000000000000 $t
     /tmp/ccoeCygb.s:26     .text.readt:0000000000000000 readt
     /tmp/ccoeCygb.s:46     .text.read:0000000000000000 $t
     /tmp/ccoeCygb.s:51     .text.read:0000000000000000 read
     /tmp/ccoeCygb.s:71     .text.writet:0000000000000000 $t
     /tmp/ccoeCygb.s:76     .text.writet:0000000000000000 writet
     /tmp/ccoeCygb.s:95     .text.write:0000000000000000 $t
     /tmp/ccoeCygb.s:100    .text.write:0000000000000000 write
     /tmp/ccoeCygb.s:120    .text.gett:0000000000000000 $t
     /tmp/ccoeCygb.s:125    .text.gett:0000000000000000 gett
     /tmp/ccoeCygb.s:144    .text.get:0000000000000000 $t
     /tmp/ccoeCygb.s:149    .text.get:0000000000000000 get
     /tmp/ccoeCygb.s:169    .text.putt:0000000000000000 $t
     /tmp/ccoeCygb.s:174    .text.putt:0000000000000000 putt
     /tmp/ccoeCygb.s:193    .text.put:0000000000000000 $t
     /tmp/ccoeCygb.s:198    .text.put:0000000000000000 put
     /tmp/ccoeCygb.s:218    .text.sdInit:0000000000000000 $t
     /tmp/ccoeCygb.s:224    .text.sdInit:0000000000000000 sdInit
     /tmp/ccoeCygb.s:239    .text.sdObjectInit:0000000000000000 $t
     /tmp/ccoeCygb.s:245    .text.sdObjectInit:0000000000000000 sdObjectInit
     /tmp/ccoeCygb.s:539    .rodata.vmt:0000000000000000 .LANCHOR0
     /tmp/ccoeCygb.s:306    .text.sdStart:0000000000000000 $t
     /tmp/ccoeCygb.s:312    .text.sdStart:0000000000000000 sdStart
     /tmp/ccoeCygb.s:360    .text.sdStop:0000000000000000 $t
     /tmp/ccoeCygb.s:366    .text.sdStop:0000000000000000 sdStop
     /tmp/ccoeCygb.s:425    .text.sdIncomingDataI:0000000000000000 $t
     /tmp/ccoeCygb.s:431    .text.sdIncomingDataI:0000000000000000 sdIncomingDataI
     /tmp/ccoeCygb.s:492    .text.sdRequestDataI:0000000000000000 $t
     /tmp/ccoeCygb.s:498    .text.sdRequestDataI:0000000000000000 sdRequestDataI
     /tmp/ccoeCygb.s:538    .rodata.vmt:0000000000000000 $d
     /tmp/ccoeCygb.s:542    .rodata.vmt:0000000000000000 vmt
                     .debug_frame:0000000000000010 $d

UNDEFINED SYMBOLS
chIQReadTimeout
chOQWriteTimeout
chIQGetTimeout
chOQPutTimeout
sd_lld_init
chIQInit
chOQInit
sd_lld_start
sd_lld_stop
chOQResetI
chIQResetI
chSchRescheduleS
chIQPutI
chEvtBroadcastFlagsI
chOQGetI
