ARM GAS  /tmp/ccoeCygb.s 			page 1


   1              		.syntax unified
   2              		.cpu cortex-m4
   3              		.eabi_attribute 27, 3
   4              		.eabi_attribute 28, 1
   5              		.fpu fpv4-sp-d16
   6              		.eabi_attribute 20, 1
   7              		.eabi_attribute 21, 1
   8              		.eabi_attribute 23, 3
   9              		.eabi_attribute 24, 1
  10              		.eabi_attribute 25, 1
  11              		.eabi_attribute 26, 1
  12              		.eabi_attribute 30, 2
  13              		.eabi_attribute 34, 1
  14              		.eabi_attribute 18, 4
  15              		.thumb
  16              		.file	"serial.c"
  17              		.text
  18              	.Ltext0:
  19              		.cfi_sections	.debug_frame
  20              		.section	.text.readt,"ax",%progbits
  21              		.align	2
  22              		.p2align 4,,15
  23              		.thumb
  24              		.thumb_func
  25              		.type	readt, %function
  26              	readt:
  27              	.LFB125:
  28              		.file 1 "../../os/hal/src/serial.c"
  29              		.loc 1 92 0
  30              		.cfi_startproc
  31              		@ args = 0, pretend = 0, frame = 0
  32              		@ frame_needed = 0, uses_anonymous_args = 0
  33              		@ link register save eliminated.
  34              	.LVL0:
  35              		.loc 1 94 0
  36 0000 0C30     		adds	r0, r0, #12
  37              	.LVL1:
  38              		.loc 1 95 0
  39              		.loc 1 94 0
  40 0002 FFF7FEBF 		b	chIQReadTimeout
  41              	.LVL2:
  42              		.cfi_endproc
  43              	.LFE125:
  44              		.size	readt, .-readt
  45 0006 00BFAFF3 		.section	.text.read,"ax",%progbits
  45      0080AFF3 
  45      0080
  46              		.align	2
  47              		.p2align 4,,15
  48              		.thumb
  49              		.thumb_func
  50              		.type	read, %function
  51              	read:
  52              	.LFB119:
  53              		.loc 1 61 0
  54              		.cfi_startproc
  55              		@ args = 0, pretend = 0, frame = 0
ARM GAS  /tmp/ccoeCygb.s 			page 2


  56              		@ frame_needed = 0, uses_anonymous_args = 0
  57              		@ link register save eliminated.
  58              	.LVL3:
  59              		.loc 1 63 0
  60 0000 0C30     		adds	r0, r0, #12
  61              	.LVL4:
  62 0002 4FF0FF33 		mov	r3, #-1
  63              		.loc 1 65 0
  64              		.loc 1 63 0
  65 0006 FFF7FEBF 		b	chIQReadTimeout
  66              	.LVL5:
  67              		.cfi_endproc
  68              	.LFE119:
  69              		.size	read, .-read
  70 000a 00BFAFF3 		.section	.text.writet,"ax",%progbits
  70      0080
  71              		.align	2
  72              		.p2align 4,,15
  73              		.thumb
  74              		.thumb_func
  75              		.type	writet, %function
  76              	writet:
  77              	.LFB124:
  78              		.loc 1 87 0
  79              		.cfi_startproc
  80              		@ args = 0, pretend = 0, frame = 0
  81              		@ frame_needed = 0, uses_anonymous_args = 0
  82              		@ link register save eliminated.
  83              	.LVL6:
  84              		.loc 1 89 0
  85 0000 3030     		adds	r0, r0, #48
  86              	.LVL7:
  87              		.loc 1 90 0
  88              		.loc 1 89 0
  89 0002 FFF7FEBF 		b	chOQWriteTimeout
  90              	.LVL8:
  91              		.cfi_endproc
  92              	.LFE124:
  93              		.size	writet, .-writet
  94 0006 00BFAFF3 		.section	.text.write,"ax",%progbits
  94      0080AFF3 
  94      0080
  95              		.align	2
  96              		.p2align 4,,15
  97              		.thumb
  98              		.thumb_func
  99              		.type	write, %function
 100              	write:
 101              	.LFB118:
 102              		.loc 1 55 0
 103              		.cfi_startproc
 104              		@ args = 0, pretend = 0, frame = 0
 105              		@ frame_needed = 0, uses_anonymous_args = 0
 106              		@ link register save eliminated.
 107              	.LVL9:
 108              		.loc 1 57 0
 109 0000 3030     		adds	r0, r0, #48
ARM GAS  /tmp/ccoeCygb.s 			page 3


 110              	.LVL10:
 111 0002 4FF0FF33 		mov	r3, #-1
 112              		.loc 1 59 0
 113              		.loc 1 57 0
 114 0006 FFF7FEBF 		b	chOQWriteTimeout
 115              	.LVL11:
 116              		.cfi_endproc
 117              	.LFE118:
 118              		.size	write, .-write
 119 000a 00BFAFF3 		.section	.text.gett,"ax",%progbits
 119      0080
 120              		.align	2
 121              		.p2align 4,,15
 122              		.thumb
 123              		.thumb_func
 124              		.type	gett, %function
 125              	gett:
 126              	.LFB123:
 127              		.loc 1 82 0
 128              		.cfi_startproc
 129              		@ args = 0, pretend = 0, frame = 0
 130              		@ frame_needed = 0, uses_anonymous_args = 0
 131              		@ link register save eliminated.
 132              	.LVL12:
 133              		.loc 1 84 0
 134 0000 0C30     		adds	r0, r0, #12
 135              	.LVL13:
 136              		.loc 1 85 0
 137              		.loc 1 84 0
 138 0002 FFF7FEBF 		b	chIQGetTimeout
 139              	.LVL14:
 140              		.cfi_endproc
 141              	.LFE123:
 142              		.size	gett, .-gett
 143 0006 00BFAFF3 		.section	.text.get,"ax",%progbits
 143      0080AFF3 
 143      0080
 144              		.align	2
 145              		.p2align 4,,15
 146              		.thumb
 147              		.thumb_func
 148              		.type	get, %function
 149              	get:
 150              	.LFB121:
 151              		.loc 1 72 0
 152              		.cfi_startproc
 153              		@ args = 0, pretend = 0, frame = 0
 154              		@ frame_needed = 0, uses_anonymous_args = 0
 155              		@ link register save eliminated.
 156              	.LVL15:
 157              		.loc 1 74 0
 158 0000 0C30     		adds	r0, r0, #12
 159              	.LVL16:
 160 0002 4FF0FF31 		mov	r1, #-1
 161              		.loc 1 75 0
 162              		.loc 1 74 0
 163 0006 FFF7FEBF 		b	chIQGetTimeout
ARM GAS  /tmp/ccoeCygb.s 			page 4


 164              	.LVL17:
 165              		.cfi_endproc
 166              	.LFE121:
 167              		.size	get, .-get
 168 000a 00BFAFF3 		.section	.text.putt,"ax",%progbits
 168      0080
 169              		.align	2
 170              		.p2align 4,,15
 171              		.thumb
 172              		.thumb_func
 173              		.type	putt, %function
 174              	putt:
 175              	.LFB122:
 176              		.loc 1 77 0
 177              		.cfi_startproc
 178              		@ args = 0, pretend = 0, frame = 0
 179              		@ frame_needed = 0, uses_anonymous_args = 0
 180              		@ link register save eliminated.
 181              	.LVL18:
 182              		.loc 1 79 0
 183 0000 3030     		adds	r0, r0, #48
 184              	.LVL19:
 185              		.loc 1 80 0
 186              		.loc 1 79 0
 187 0002 FFF7FEBF 		b	chOQPutTimeout
 188              	.LVL20:
 189              		.cfi_endproc
 190              	.LFE122:
 191              		.size	putt, .-putt
 192 0006 00BFAFF3 		.section	.text.put,"ax",%progbits
 192      0080AFF3 
 192      0080
 193              		.align	2
 194              		.p2align 4,,15
 195              		.thumb
 196              		.thumb_func
 197              		.type	put, %function
 198              	put:
 199              	.LFB120:
 200              		.loc 1 67 0
 201              		.cfi_startproc
 202              		@ args = 0, pretend = 0, frame = 0
 203              		@ frame_needed = 0, uses_anonymous_args = 0
 204              		@ link register save eliminated.
 205              	.LVL21:
 206              		.loc 1 69 0
 207 0000 3030     		adds	r0, r0, #48
 208              	.LVL22:
 209 0002 4FF0FF32 		mov	r2, #-1
 210              		.loc 1 70 0
 211              		.loc 1 69 0
 212 0006 FFF7FEBF 		b	chOQPutTimeout
 213              	.LVL23:
 214              		.cfi_endproc
 215              	.LFE120:
 216              		.size	put, .-put
 217 000a 00BFAFF3 		.section	.text.sdInit,"ax",%progbits
ARM GAS  /tmp/ccoeCygb.s 			page 5


 217      0080
 218              		.align	2
 219              		.p2align 4,,15
 220              		.global	sdInit
 221              		.thumb
 222              		.thumb_func
 223              		.type	sdInit, %function
 224              	sdInit:
 225              	.LFB126:
 226              		.loc 1 113 0
 227              		.cfi_startproc
 228              		@ args = 0, pretend = 0, frame = 0
 229              		@ frame_needed = 0, uses_anonymous_args = 0
 230              		@ link register save eliminated.
 231              		.loc 1 116 0
 232              		.loc 1 115 0
 233 0000 FFF7FEBF 		b	sd_lld_init
 234              	.LVL24:
 235              		.cfi_endproc
 236              	.LFE126:
 237              		.size	sdInit, .-sdInit
 238 0004 AFF30080 		.section	.text.sdObjectInit,"ax",%progbits
 238      AFF30080 
 238      AFF30080 
 239              		.align	2
 240              		.p2align 4,,15
 241              		.global	sdObjectInit
 242              		.thumb
 243              		.thumb_func
 244              		.type	sdObjectInit, %function
 245              	sdObjectInit:
 246              	.LFB127:
 247              		.loc 1 133 0
 248              		.cfi_startproc
 249              		@ args = 0, pretend = 0, frame = 0
 250              		@ frame_needed = 0, uses_anonymous_args = 0
 251              	.LVL25:
 252 0000 70B5     		push	{r4, r5, r6, lr}
 253              	.LCFI0:
 254              		.cfi_def_cfa_offset 16
 255              		.cfi_offset 4, -16
 256              		.cfi_offset 5, -12
 257              		.cfi_offset 6, -8
 258              		.cfi_offset 14, -4
 259              		.loc 1 135 0
 260 0002 40F20003 		movw	r3, #:lower16:.LANCHOR0
 261 0006 0546     		mov	r5, r0
 262 0008 C0F20003 		movt	r3, #:upper16:.LANCHOR0
 263              		.loc 1 133 0
 264 000c 0446     		mov	r4, r0
 265              		.loc 1 135 0
 266 000e 45F8043B 		str	r3, [r5], #4
 267              		.loc 1 133 0
 268 0012 82B0     		sub	sp, sp, #8
 269              	.LCFI1:
 270              		.cfi_def_cfa_offset 24
 271              		.loc 1 136 0
ARM GAS  /tmp/ccoeCygb.s 			page 6


 272 0014 6560     		str	r5, [r4, #4]
 273              		.loc 1 137 0
 274 0016 0125     		movs	r5, #1
 275              		.loc 1 133 0
 276 0018 0B46     		mov	r3, r1
 277 001a 1646     		mov	r6, r2
 278              		.loc 1 138 0
 279 001c 04F15401 		add	r1, r4, #84
 280              	.LVL26:
 281 0020 1022     		movs	r2, #16
 282              	.LVL27:
 283              		.loc 1 137 0
 284 0022 2572     		strb	r5, [r4, #8]
 285              		.loc 1 138 0
 286 0024 00F10C00 		add	r0, r0, #12
 287              	.LVL28:
 288 0028 0094     		str	r4, [sp, #0]
 289 002a FFF7FEFF 		bl	chIQInit
 290              	.LVL29:
 291              		.loc 1 139 0
 292 002e 0094     		str	r4, [sp, #0]
 293 0030 04F13000 		add	r0, r4, #48
 294 0034 04F16401 		add	r1, r4, #100
 295 0038 1022     		movs	r2, #16
 296 003a 3346     		mov	r3, r6
 297 003c FFF7FEFF 		bl	chOQInit
 298              	.LVL30:
 299              		.loc 1 140 0
 300 0040 02B0     		add	sp, sp, #8
 301 0042 70BD     		pop	{r4, r5, r6, pc}
 302              		.cfi_endproc
 303              	.LFE127:
 304              		.size	sdObjectInit, .-sdObjectInit
 305 0044 AFF30080 		.section	.text.sdStart,"ax",%progbits
 305      AFF30080 
 305      AFF30080 
 306              		.align	2
 307              		.p2align 4,,15
 308              		.global	sdStart
 309              		.thumb
 310              		.thumb_func
 311              		.type	sdStart, %function
 312              	sdStart:
 313              	.LFB128:
 314              		.loc 1 152 0
 315              		.cfi_startproc
 316              		@ args = 0, pretend = 0, frame = 0
 317              		@ frame_needed = 0, uses_anonymous_args = 0
 318              	.LVL31:
 319 0000 10B5     		push	{r4, lr}
 320              	.LCFI2:
 321              		.cfi_def_cfa_offset 8
 322              		.cfi_offset 4, -8
 323              		.cfi_offset 14, -4
 324              	.LBB2:
 325              		.loc 1 156 0
 326 0002 2023     		movs	r3, #32
ARM GAS  /tmp/ccoeCygb.s 			page 7


 327              	.LVL32:
 328              	.LBE2:
 329              		.loc 1 152 0
 330 0004 0446     		mov	r4, r0
 331              	.LBB3:
 332              		.loc 1 156 0
 333              	@ 156 "../../os/hal/src/serial.c" 1
 334 0006 83F31188 		msr     BASEPRI, r3
 335              	@ 0 "" 2
 336              	.LVL33:
 337              		.thumb
 338              	.LBE3:
 339              		.loc 1 160 0
 340 000a FFF7FEFF 		bl	sd_lld_start
 341              	.LVL34:
 342              		.loc 1 161 0
 343 000e 0223     		movs	r3, #2
 344 0010 2372     		strb	r3, [r4, #8]
 345              	.LBB4:
 346              		.loc 1 162 0
 347 0012 0023     		movs	r3, #0
 348              	.LVL35:
 349              	@ 162 "../../os/hal/src/serial.c" 1
 350 0014 83F31188 		msr     BASEPRI, r3
 351              	@ 0 "" 2
 352              	.LVL36:
 353              		.thumb
 354 0018 10BD     		pop	{r4, pc}
 355              	.LBE4:
 356              		.cfi_endproc
 357              	.LFE128:
 358              		.size	sdStart, .-sdStart
 359 001a 00BFAFF3 		.section	.text.sdStop,"ax",%progbits
 359      0080
 360              		.align	2
 361              		.p2align 4,,15
 362              		.global	sdStop
 363              		.thumb
 364              		.thumb_func
 365              		.type	sdStop, %function
 366              	sdStop:
 367              	.LFB129:
 368              		.loc 1 174 0
 369              		.cfi_startproc
 370              		@ args = 0, pretend = 0, frame = 0
 371              		@ frame_needed = 0, uses_anonymous_args = 0
 372              	.LVL37:
 373 0000 10B5     		push	{r4, lr}
 374              	.LCFI3:
 375              		.cfi_def_cfa_offset 8
 376              		.cfi_offset 4, -8
 377              		.cfi_offset 14, -4
 378              	.LBB5:
 379              		.loc 1 178 0
 380 0002 2023     		movs	r3, #32
 381              	.LVL38:
 382              	.LBE5:
ARM GAS  /tmp/ccoeCygb.s 			page 8


 383              		.loc 1 174 0
 384 0004 0446     		mov	r4, r0
 385              	.LBB6:
 386              		.loc 1 178 0
 387              	@ 178 "../../os/hal/src/serial.c" 1
 388 0006 83F31188 		msr     BASEPRI, r3
 389              	@ 0 "" 2
 390              	.LVL39:
 391              		.thumb
 392              	.LBE6:
 393              		.loc 1 182 0
 394 000a FFF7FEFF 		bl	sd_lld_stop
 395              	.LVL40:
 396              		.loc 1 183 0
 397 000e 0123     		movs	r3, #1
 398 0010 2372     		strb	r3, [r4, #8]
 399              		.loc 1 184 0
 400 0012 04F13000 		add	r0, r4, #48
 401 0016 FFF7FEFF 		bl	chOQResetI
 402              	.LVL41:
 403              		.loc 1 185 0
 404 001a 04F10C00 		add	r0, r4, #12
 405 001e FFF7FEFF 		bl	chIQResetI
 406              	.LVL42:
 407              		.loc 1 186 0
 408 0022 FFF7FEFF 		bl	chSchRescheduleS
 409              	.LVL43:
 410              	.LBB7:
 411              		.loc 1 187 0
 412 0026 0023     		movs	r3, #0
 413              	.LVL44:
 414              	@ 187 "../../os/hal/src/serial.c" 1
 415 0028 83F31188 		msr     BASEPRI, r3
 416              	@ 0 "" 2
 417              	.LVL45:
 418              		.thumb
 419 002c 10BD     		pop	{r4, pc}
 420              	.LBE7:
 421              		.cfi_endproc
 422              	.LFE129:
 423              		.size	sdStop, .-sdStop
 424 002e 00BF     		.section	.text.sdIncomingDataI,"ax",%progbits
 425              		.align	2
 426              		.p2align 4,,15
 427              		.global	sdIncomingDataI
 428              		.thumb
 429              		.thumb_func
 430              		.type	sdIncomingDataI, %function
 431              	sdIncomingDataI:
 432              	.LFB130:
 433              		.loc 1 206 0
 434              		.cfi_startproc
 435              		@ args = 0, pretend = 0, frame = 0
 436              		@ frame_needed = 0, uses_anonymous_args = 0
 437              	.LVL46:
 438 0000 38B5     		push	{r3, r4, r5, lr}
 439              	.LCFI4:
ARM GAS  /tmp/ccoeCygb.s 			page 9


 440              		.cfi_def_cfa_offset 16
 441              		.cfi_offset 3, -16
 442              		.cfi_offset 4, -12
 443              		.cfi_offset 5, -8
 444              		.cfi_offset 14, -4
 445              		.loc 1 211 0
 446 0002 4369     		ldr	r3, [r0, #20]
 447              		.loc 1 206 0
 448 0004 0446     		mov	r4, r0
 449 0006 0D46     		mov	r5, r1
 450              		.loc 1 211 0
 451 0008 3BB1     		cbz	r3, .L17
 452              		.loc 1 213 0
 453 000a 04F10C00 		add	r0, r4, #12
 454              	.LVL47:
 455 000e 2946     		mov	r1, r5
 456              	.LVL48:
 457 0010 FFF7FEFF 		bl	chIQPutI
 458              	.LVL49:
 459 0014 0028     		cmp	r0, #0
 460 0016 0BDB     		blt	.L18
 461              	.L13:
 462 0018 38BD     		pop	{r3, r4, r5, pc}
 463              	.LVL50:
 464              	.L17:
 465              		.loc 1 212 0
 466 001a 0430     		adds	r0, r0, #4
 467              	.LVL51:
 468 001c 0421     		movs	r1, #4
 469              	.LVL52:
 470 001e FFF7FEFF 		bl	chEvtBroadcastFlagsI
 471              	.LVL53:
 472              		.loc 1 213 0
 473 0022 04F10C00 		add	r0, r4, #12
 474 0026 2946     		mov	r1, r5
 475 0028 FFF7FEFF 		bl	chIQPutI
 476              	.LVL54:
 477 002c 0028     		cmp	r0, #0
 478 002e F3DA     		bge	.L13
 479              	.L18:
 480              		.loc 1 214 0
 481 0030 201D     		adds	r0, r4, #4
 482 0032 8021     		movs	r1, #128
 483              		.loc 1 215 0
 484 0034 BDE83840 		pop	{r3, r4, r5, lr}
 485              		.loc 1 214 0
 486 0038 FFF7FEBF 		b	chEvtBroadcastFlagsI
 487              	.LVL55:
 488              		.cfi_endproc
 489              	.LFE130:
 490              		.size	sdIncomingDataI, .-sdIncomingDataI
 491 003c AFF30080 		.section	.text.sdRequestDataI,"ax",%progbits
 492              		.align	2
 493              		.p2align 4,,15
 494              		.global	sdRequestDataI
 495              		.thumb
 496              		.thumb_func
ARM GAS  /tmp/ccoeCygb.s 			page 10


 497              		.type	sdRequestDataI, %function
 498              	sdRequestDataI:
 499              	.LFB131:
 500              		.loc 1 232 0
 501              		.cfi_startproc
 502              		@ args = 0, pretend = 0, frame = 0
 503              		@ frame_needed = 0, uses_anonymous_args = 0
 504              	.LVL56:
 505 0000 38B5     		push	{r3, r4, r5, lr}
 506              	.LCFI5:
 507              		.cfi_def_cfa_offset 16
 508              		.cfi_offset 3, -16
 509              		.cfi_offset 4, -12
 510              		.cfi_offset 5, -8
 511              		.cfi_offset 14, -4
 512              		.loc 1 232 0
 513 0002 0446     		mov	r4, r0
 514              		.loc 1 238 0
 515 0004 00F13000 		add	r0, r0, #48
 516              	.LVL57:
 517 0008 FFF7FEFF 		bl	chOQGetI
 518              	.LVL58:
 519              		.loc 1 239 0
 520 000c 051E     		subs	r5, r0, #0
 521 000e 01DB     		blt	.L21
 522              		.loc 1 242 0
 523 0010 2846     		mov	r0, r5
 524 0012 38BD     		pop	{r3, r4, r5, pc}
 525              	.L21:
 526              		.loc 1 240 0
 527 0014 201D     		adds	r0, r4, #4
 528 0016 0821     		movs	r1, #8
 529 0018 FFF7FEFF 		bl	chEvtBroadcastFlagsI
 530              	.LVL59:
 531              		.loc 1 242 0
 532 001c 2846     		mov	r0, r5
 533 001e 38BD     		pop	{r3, r4, r5, pc}
 534              		.cfi_endproc
 535              	.LFE131:
 536              		.size	sdRequestDataI, .-sdRequestDataI
 537              		.section	.rodata.vmt,"a",%progbits
 538              		.align	2
 539              		.set	.LANCHOR0,. + 0
 540              		.type	vmt, %object
 541              		.size	vmt, 32
 542              	vmt:
 543 0000 00000000 		.word	write
 544 0004 00000000 		.word	read
 545 0008 00000000 		.word	put
 546 000c 00000000 		.word	get
 547 0010 00000000 		.word	putt
 548 0014 00000000 		.word	gett
 549 0018 00000000 		.word	writet
 550 001c 00000000 		.word	readt
 551              		.text
 552              	.Letext0:
 553              		.file 2 "/opt/psas/x-tools/stm32f407/arm-psas-eabi/bin/../lib/gcc/arm-psas-eabi/4.7.2/include/stdd
ARM GAS  /tmp/ccoeCygb.s 			page 11


 554              		.file 3 "/opt/psas/x-tools/stm32f407/arm-psas-eabi/bin/../lib/gcc/arm-psas-eabi/4.7.2/../../../../
 555              		.file 4 "../../os/ports/GCC/ARMCMx/chtypes.h"
 556              		.file 5 "../../os/kernel/include/chlists.h"
 557              		.file 6 "../../os/kernel/include/chthreads.h"
 558              		.file 7 "../../os/ports/GCC/ARMCMx/chcore_v7m.h"
 559              		.file 8 "../../os/kernel/include/chmtx.h"
 560              		.file 9 "../../os/kernel/include/chevents.h"
 561              		.file 10 "../../os/kernel/include/chqueues.h"
 562              		.file 11 "../../os/hal/platforms/STM32F4xx/stm32f4xx.h"
 563              		.file 12 "../../os/hal/include/serial.h"
 564              		.file 13 "../../os/hal/platforms/STM32/USARTv1/serial_lld.h"
 565              		.file 14 "../../os/kernel/include/chschd.h"
 566              		.file 15 "../../os/ports/common/ARMCMx/CMSIS/include/core_cm4.h"