ARM GAS  /tmp/cc6rZ51m.s 			page 1


   1              		.syntax unified
   2              		.cpu cortex-m4
   3              		.eabi_attribute 27, 3
   4              		.eabi_attribute 28, 1
   5              		.fpu fpv4-sp-d16
   6              		.eabi_attribute 20, 1
   7              		.eabi_attribute 21, 1
   8              		.eabi_attribute 23, 3
   9              		.eabi_attribute 24, 1
  10              		.eabi_attribute 25, 1
  11              		.eabi_attribute 26, 1
  12              		.eabi_attribute 30, 2
  13              		.eabi_attribute 34, 1
  14              		.eabi_attribute 18, 4
  15              		.thumb
  16              		.file	"serial_usb.c"
  17              		.text
  18              	.Ltext0:
  19              		.cfi_sections	.debug_frame
  20              		.section	.text.inotify,"ax",%progbits
  21              		.align	2
  22              		.p2align 4,,15
  23              		.thumb
  24              		.thumb_func
  25              		.type	inotify, %function
  26              	inotify:
  27              	.LFB126:
  28              		.file 1 "../../os/hal/src/serial_usb.c"
  29              		.loc 1 114 0
  30              		.cfi_startproc
  31              		@ args = 0, pretend = 0, frame = 0
  32              		@ frame_needed = 0, uses_anonymous_args = 0
  33              	.LVL0:
  34 0000 38B5     		push	{r3, r4, r5, lr}
  35              	.LCFI0:
  36              		.cfi_def_cfa_offset 16
  37              		.cfi_offset 3, -16
  38              		.cfi_offset 4, -12
  39              		.cfi_offset 5, -8
  40              		.cfi_offset 14, -4
  41              		.loc 1 116 0
  42 0002 046A     		ldr	r4, [r0, #32]
  43              	.LVL1:
  44              		.loc 1 120 0
  45 0004 D4F85432 		ldr	r3, [r4, #596]
  46 0008 1A68     		ldr	r2, [r3, #0]
  47 000a 1378     		ldrb	r3, [r2, #0]	@ zero_extendqisi2
  48 000c 042B     		cmp	r3, #4
  49 000e 00D0     		beq	.L4
  50              	.LVL2:
  51              	.L1:
  52 0010 38BD     		pop	{r3, r4, r5, pc}
  53              	.LVL3:
  54              	.L4:
  55              		.loc 1 127 0
  56 0012 D389     		ldrh	r3, [r2, #14]
  57              		.loc 1 126 0
ARM GAS  /tmp/cc6rZ51m.s 			page 2


  58 0014 5269     		ldr	r2, [r2, #20]
  59              		.loc 1 127 0
  60 0016 03F00203 		and	r3, r3, #2
  61 001a 9BB2     		uxth	r3, r3
  62              		.loc 1 126 0
  63 001c 528A     		ldrh	r2, [r2, #18]
  64              	.LVL4:
  65              		.loc 1 127 0
  66 001e 002B     		cmp	r3, #0
  67 0020 F6D1     		bne	.L1
  68              		.loc 1 128 0 discriminator 1
  69 0022 04F11400 		add	r0, r4, #20
  70              	.LVL5:
  71 0026 23C8     		ldmia	r0, {r0, r1, r5}
  72 0028 691A     		subs	r1, r5, r1
  73 002a 091A     		subs	r1, r1, r0
  74              	.LVL6:
  75              		.loc 1 127 0 discriminator 1
  76 002c 8A42     		cmp	r2, r1
  77 002e EFD8     		bhi	.L1
  78              	.LBB2:
  79              		.loc 1 129 0
  80              	@ 129 "../../os/hal/src/serial_usb.c" 1
  81 0030 83F31188 		msr     BASEPRI, r3
  82              	@ 0 "" 2
  83              	.LVL7:
  84              		.thumb
  85              	.LBE2:
  86              		.loc 1 132 0
  87 0034 D4F85402 		ldr	r0, [r4, #596]
  88              		.loc 1 131 0
  89 0038 B1FBF2F3 		udiv	r3, r1, r2
  90              	.LVL8:
  91              		.loc 1 132 0
  92 003c 02FB03F3 		mul	r3, r2, r3
  93              	.LVL9:
  94 0040 0068     		ldr	r0, [r0, #0]
  95 0042 0121     		movs	r1, #1
  96 0044 04F10C02 		add	r2, r4, #12
  97              	.LVL10:
  98 0048 FFF7FEFF 		bl	usbPrepareQueuedReceive
  99              	.LVL11:
 100              	.LBB3:
 101              		.loc 1 136 0
 102 004c 2023     		movs	r3, #32
 103              	.LVL12:
 104              	@ 136 "../../os/hal/src/serial_usb.c" 1
 105 004e 83F31188 		msr     BASEPRI, r3
 106              	@ 0 "" 2
 107              	.LVL13:
 108              		.thumb
 109              	.LBE3:
 110              		.loc 1 137 0
 111 0052 D4F85432 		ldr	r3, [r4, #596]
 112              	.LVL14:
 113 0056 1868     		ldr	r0, [r3, #0]
 114 0058 0121     		movs	r1, #1
ARM GAS  /tmp/cc6rZ51m.s 			page 3


 115              		.loc 1 139 0
 116 005a BDE83840 		pop	{r3, r4, r5, lr}
 117              		.loc 1 137 0
 118 005e FFF7FEBF 		b	usbStartReceiveI
 119              	.LVL15:
 120              		.cfi_endproc
 121              	.LFE126:
 122              		.size	inotify, .-inotify
 123 0062 00BFAFF3 		.section	.text.onotify,"ax",%progbits
 123      0080AFF3 
 123      0080AFF3 
 123      0080
 124              		.align	2
 125              		.p2align 4,,15
 126              		.thumb
 127              		.thumb_func
 128              		.type	onotify, %function
 129              	onotify:
 130              	.LFB127:
 131              		.loc 1 144 0
 132              		.cfi_startproc
 133              		@ args = 0, pretend = 0, frame = 0
 134              		@ frame_needed = 0, uses_anonymous_args = 0
 135              	.LVL16:
 136 0000 10B5     		push	{r4, lr}
 137              	.LCFI1:
 138              		.cfi_def_cfa_offset 8
 139              		.cfi_offset 4, -8
 140              		.cfi_offset 14, -4
 141              		.loc 1 146 0
 142 0002 046A     		ldr	r4, [r0, #32]
 143              	.LVL17:
 144              		.loc 1 150 0
 145 0004 D4F85432 		ldr	r3, [r4, #596]
 146 0008 1B68     		ldr	r3, [r3, #0]
 147 000a 1A78     		ldrb	r2, [r3, #0]	@ zero_extendqisi2
 148 000c 042A     		cmp	r2, #4
 149 000e 00D0     		beq	.L10
 150              	.LVL18:
 151              	.L5:
 152 0010 10BD     		pop	{r4, pc}
 153              	.LVL19:
 154              	.L10:
 155              		.loc 1 155 0
 156 0012 9A89     		ldrh	r2, [r3, #12]
 157 0014 02F00202 		and	r2, r2, #2
 158 0018 93B2     		uxth	r3, r2
 159 001a 002B     		cmp	r3, #0
 160 001c F8D1     		bne	.L5
 161              		.loc 1 156 0 discriminator 1
 162 001e 206C     		ldr	r0, [r4, #64]
 163              	.LVL20:
 164 0020 E16B     		ldr	r1, [r4, #60]
 165 0022 A26B     		ldr	r2, [r4, #56]
 166 0024 411A     		subs	r1, r0, r1
 167              	.LVL21:
 168              		.loc 1 155 0 discriminator 1
ARM GAS  /tmp/cc6rZ51m.s 			page 4


 169 0026 891A     		subs	r1, r1, r2
 170              	.LVL22:
 171 0028 F2D0     		beq	.L5
 172              	.LBB4:
 173              		.loc 1 157 0
 174              	@ 157 "../../os/hal/src/serial_usb.c" 1
 175 002a 83F31188 		msr     BASEPRI, r3
 176              	@ 0 "" 2
 177              	.LVL23:
 178              		.thumb
 179              	.LBE4:
 180              		.loc 1 159 0
 181 002e D4F85422 		ldr	r2, [r4, #596]
 182 0032 0B46     		mov	r3, r1
 183              	.LVL24:
 184 0034 1068     		ldr	r0, [r2, #0]
 185 0036 0121     		movs	r1, #1
 186              	.LVL25:
 187 0038 04F13002 		add	r2, r4, #48
 188 003c FFF7FEFF 		bl	usbPrepareQueuedTransmit
 189              	.LVL26:
 190              	.LBB5:
 191              		.loc 1 163 0
 192 0040 2023     		movs	r3, #32
 193              	.LVL27:
 194              	@ 163 "../../os/hal/src/serial_usb.c" 1
 195 0042 83F31188 		msr     BASEPRI, r3
 196              	@ 0 "" 2
 197              	.LVL28:
 198              		.thumb
 199              	.LBE5:
 200              		.loc 1 164 0
 201 0046 D4F85432 		ldr	r3, [r4, #596]
 202              	.LVL29:
 203 004a 1868     		ldr	r0, [r3, #0]
 204 004c 0121     		movs	r1, #1
 205              		.loc 1 166 0
 206 004e BDE81040 		pop	{r4, lr}
 207              		.loc 1 164 0
 208 0052 FFF7FEBF 		b	usbStartTransmitI
 209              	.LVL30:
 210              		.cfi_endproc
 211              	.LFE127:
 212              		.size	onotify, .-onotify
 213 0056 00BFAFF3 		.section	.text.readt,"ax",%progbits
 213      0080AFF3 
 213      0080
 214              		.align	2
 215              		.p2align 4,,15
 216              		.thumb
 217              		.thumb_func
 218              		.type	readt, %function
 219              	readt:
 220              	.LFB125:
 221              		.loc 1 101 0
 222              		.cfi_startproc
 223              		@ args = 0, pretend = 0, frame = 0
ARM GAS  /tmp/cc6rZ51m.s 			page 5


 224              		@ frame_needed = 0, uses_anonymous_args = 0
 225              		@ link register save eliminated.
 226              	.LVL31:
 227              		.loc 1 103 0
 228 0000 0C30     		adds	r0, r0, #12
 229              	.LVL32:
 230              		.loc 1 104 0
 231              		.loc 1 103 0
 232 0002 FFF7FEBF 		b	chIQReadTimeout
 233              	.LVL33:
 234              		.cfi_endproc
 235              	.LFE125:
 236              		.size	readt, .-readt
 237 0006 00BFAFF3 		.section	.text.read,"ax",%progbits
 237      0080AFF3 
 237      0080
 238              		.align	2
 239              		.p2align 4,,15
 240              		.thumb
 241              		.thumb_func
 242              		.type	read, %function
 243              	read:
 244              	.LFB119:
 245              		.loc 1 70 0
 246              		.cfi_startproc
 247              		@ args = 0, pretend = 0, frame = 0
 248              		@ frame_needed = 0, uses_anonymous_args = 0
 249              		@ link register save eliminated.
 250              	.LVL34:
 251              		.loc 1 72 0
 252 0000 0C30     		adds	r0, r0, #12
 253              	.LVL35:
 254 0002 4FF0FF33 		mov	r3, #-1
 255              		.loc 1 74 0
 256              		.loc 1 72 0
 257 0006 FFF7FEBF 		b	chIQReadTimeout
 258              	.LVL36:
 259              		.cfi_endproc
 260              	.LFE119:
 261              		.size	read, .-read
 262 000a 00BFAFF3 		.section	.text.writet,"ax",%progbits
 262      0080
 263              		.align	2
 264              		.p2align 4,,15
 265              		.thumb
 266              		.thumb_func
 267              		.type	writet, %function
 268              	writet:
 269              	.LFB124:
 270              		.loc 1 96 0
 271              		.cfi_startproc
 272              		@ args = 0, pretend = 0, frame = 0
 273              		@ frame_needed = 0, uses_anonymous_args = 0
 274              		@ link register save eliminated.
 275              	.LVL37:
 276              		.loc 1 98 0
 277 0000 3030     		adds	r0, r0, #48
ARM GAS  /tmp/cc6rZ51m.s 			page 6


 278              	.LVL38:
 279              		.loc 1 99 0
 280              		.loc 1 98 0
 281 0002 FFF7FEBF 		b	chOQWriteTimeout
 282              	.LVL39:
 283              		.cfi_endproc
 284              	.LFE124:
 285              		.size	writet, .-writet
 286 0006 00BFAFF3 		.section	.text.write,"ax",%progbits
 286      0080AFF3 
 286      0080
 287              		.align	2
 288              		.p2align 4,,15
 289              		.thumb
 290              		.thumb_func
 291              		.type	write, %function
 292              	write:
 293              	.LFB118:
 294              		.loc 1 64 0
 295              		.cfi_startproc
 296              		@ args = 0, pretend = 0, frame = 0
 297              		@ frame_needed = 0, uses_anonymous_args = 0
 298              		@ link register save eliminated.
 299              	.LVL40:
 300              		.loc 1 66 0
 301 0000 3030     		adds	r0, r0, #48
 302              	.LVL41:
 303 0002 4FF0FF33 		mov	r3, #-1
 304              		.loc 1 68 0
 305              		.loc 1 66 0
 306 0006 FFF7FEBF 		b	chOQWriteTimeout
 307              	.LVL42:
 308              		.cfi_endproc
 309              	.LFE118:
 310              		.size	write, .-write
 311 000a 00BFAFF3 		.section	.text.gett,"ax",%progbits
 311      0080
 312              		.align	2
 313              		.p2align 4,,15
 314              		.thumb
 315              		.thumb_func
 316              		.type	gett, %function
 317              	gett:
 318              	.LFB123:
 319              		.loc 1 91 0
 320              		.cfi_startproc
 321              		@ args = 0, pretend = 0, frame = 0
 322              		@ frame_needed = 0, uses_anonymous_args = 0
 323              		@ link register save eliminated.
 324              	.LVL43:
 325              		.loc 1 93 0
 326 0000 0C30     		adds	r0, r0, #12
 327              	.LVL44:
 328              		.loc 1 94 0
 329              		.loc 1 93 0
 330 0002 FFF7FEBF 		b	chIQGetTimeout
 331              	.LVL45:
ARM GAS  /tmp/cc6rZ51m.s 			page 7


 332              		.cfi_endproc
 333              	.LFE123:
 334              		.size	gett, .-gett
 335 0006 00BFAFF3 		.section	.text.get,"ax",%progbits
 335      0080AFF3 
 335      0080
 336              		.align	2
 337              		.p2align 4,,15
 338              		.thumb
 339              		.thumb_func
 340              		.type	get, %function
 341              	get:
 342              	.LFB121:
 343              		.loc 1 81 0
 344              		.cfi_startproc
 345              		@ args = 0, pretend = 0, frame = 0
 346              		@ frame_needed = 0, uses_anonymous_args = 0
 347              		@ link register save eliminated.
 348              	.LVL46:
 349              		.loc 1 83 0
 350 0000 0C30     		adds	r0, r0, #12
 351              	.LVL47:
 352 0002 4FF0FF31 		mov	r1, #-1
 353              		.loc 1 84 0
 354              		.loc 1 83 0
 355 0006 FFF7FEBF 		b	chIQGetTimeout
 356              	.LVL48:
 357              		.cfi_endproc
 358              	.LFE121:
 359              		.size	get, .-get
 360 000a 00BFAFF3 		.section	.text.putt,"ax",%progbits
 360      0080
 361              		.align	2
 362              		.p2align 4,,15
 363              		.thumb
 364              		.thumb_func
 365              		.type	putt, %function
 366              	putt:
 367              	.LFB122:
 368              		.loc 1 86 0
 369              		.cfi_startproc
 370              		@ args = 0, pretend = 0, frame = 0
 371              		@ frame_needed = 0, uses_anonymous_args = 0
 372              		@ link register save eliminated.
 373              	.LVL49:
 374              		.loc 1 88 0
 375 0000 3030     		adds	r0, r0, #48
 376              	.LVL50:
 377              		.loc 1 89 0
 378              		.loc 1 88 0
 379 0002 FFF7FEBF 		b	chOQPutTimeout
 380              	.LVL51:
 381              		.cfi_endproc
 382              	.LFE122:
 383              		.size	putt, .-putt
 384 0006 00BFAFF3 		.section	.text.put,"ax",%progbits
 384      0080AFF3 
ARM GAS  /tmp/cc6rZ51m.s 			page 8


 384      0080
 385              		.align	2
 386              		.p2align 4,,15
 387              		.thumb
 388              		.thumb_func
 389              		.type	put, %function
 390              	put:
 391              	.LFB120:
 392              		.loc 1 76 0
 393              		.cfi_startproc
 394              		@ args = 0, pretend = 0, frame = 0
 395              		@ frame_needed = 0, uses_anonymous_args = 0
 396              		@ link register save eliminated.
 397              	.LVL52:
 398              		.loc 1 78 0
 399 0000 3030     		adds	r0, r0, #48
 400              	.LVL53:
 401 0002 4FF0FF32 		mov	r2, #-1
 402              		.loc 1 79 0
 403              		.loc 1 78 0
 404 0006 FFF7FEBF 		b	chOQPutTimeout
 405              	.LVL54:
 406              		.cfi_endproc
 407              	.LFE120:
 408              		.size	put, .-put
 409 000a 00BFAFF3 		.section	.text.sduInit,"ax",%progbits
 409      0080
 410              		.align	2
 411              		.p2align 4,,15
 412              		.global	sduInit
 413              		.thumb
 414              		.thumb_func
 415              		.type	sduInit, %function
 416              	sduInit:
 417              	.LFB128:
 418              		.loc 1 179 0
 419              		.cfi_startproc
 420              		@ args = 0, pretend = 0, frame = 0
 421              		@ frame_needed = 0, uses_anonymous_args = 0
 422              		@ link register save eliminated.
 423 0000 7047     		bx	lr
 424              		.cfi_endproc
 425              	.LFE128:
 426              		.size	sduInit, .-sduInit
 427 0002 00BFAFF3 		.section	.text.sduObjectInit,"ax",%progbits
 427      0080AFF3 
 427      0080AFF3 
 427      0080
 428              		.align	2
 429              		.p2align 4,,15
 430              		.global	sduObjectInit
 431              		.thumb
 432              		.thumb_func
 433              		.type	sduObjectInit, %function
 434              	sduObjectInit:
 435              	.LFB129:
 436              		.loc 1 191 0
ARM GAS  /tmp/cc6rZ51m.s 			page 9


 437              		.cfi_startproc
 438              		@ args = 0, pretend = 0, frame = 0
 439              		@ frame_needed = 0, uses_anonymous_args = 0
 440              	.LVL55:
 441              		.loc 1 191 0
 442 0000 30B5     		push	{r4, r5, lr}
 443              	.LCFI2:
 444              		.cfi_def_cfa_offset 12
 445              		.cfi_offset 4, -12
 446              		.cfi_offset 5, -8
 447              		.cfi_offset 14, -4
 448              		.loc 1 193 0
 449 0002 40F20003 		movw	r3, #:lower16:.LANCHOR0
 450 0006 0546     		mov	r5, r0
 451 0008 C0F20003 		movt	r3, #:upper16:.LANCHOR0
 452              		.loc 1 191 0
 453 000c 0446     		mov	r4, r0
 454              		.loc 1 193 0
 455 000e 45F8043B 		str	r3, [r5], #4
 456              		.loc 1 191 0
 457 0012 83B0     		sub	sp, sp, #12
 458              	.LCFI3:
 459              		.cfi_def_cfa_offset 24
 460              		.loc 1 194 0
 461 0014 6560     		str	r5, [r4, #4]
 462              		.loc 1 196 0
 463 0016 40F20003 		movw	r3, #:lower16:inotify
 464              		.loc 1 195 0
 465 001a 0125     		movs	r5, #1
 466              		.loc 1 196 0
 467 001c 04F15401 		add	r1, r4, #84
 468              		.loc 1 195 0
 469 0020 2572     		strb	r5, [r4, #8]
 470              		.loc 1 196 0
 471 0022 00F10C00 		add	r0, r0, #12
 472              	.LVL56:
 473 0026 4FF48072 		mov	r2, #256
 474 002a C0F20003 		movt	r3, #:upper16:inotify
 475 002e 0094     		str	r4, [sp, #0]
 476 0030 FFF7FEFF 		bl	chIQInit
 477              	.LVL57:
 478              		.loc 1 197 0
 479 0034 40F20003 		movw	r3, #:lower16:onotify
 480 0038 0094     		str	r4, [sp, #0]
 481 003a 04F13000 		add	r0, r4, #48
 482 003e 04F5AA71 		add	r1, r4, #340
 483 0042 4FF48072 		mov	r2, #256
 484 0046 C0F20003 		movt	r3, #:upper16:onotify
 485 004a FFF7FEFF 		bl	chOQInit
 486              	.LVL58:
 487              		.loc 1 198 0
 488 004e 03B0     		add	sp, sp, #12
 489 0050 30BD     		pop	{r4, r5, pc}
 490              		.cfi_endproc
 491              	.LFE129:
 492              		.size	sduObjectInit, .-sduObjectInit
 493 0052 00BFAFF3 		.section	.text.sduStart,"ax",%progbits
ARM GAS  /tmp/cc6rZ51m.s 			page 10


 493      0080AFF3 
 493      0080AFF3 
 493      0080
 494              		.align	2
 495              		.p2align 4,,15
 496              		.global	sduStart
 497              		.thumb
 498              		.thumb_func
 499              		.type	sduStart, %function
 500              	sduStart:
 501              	.LFB130:
 502              		.loc 1 208 0
 503              		.cfi_startproc
 504              		@ args = 0, pretend = 0, frame = 0
 505              		@ frame_needed = 0, uses_anonymous_args = 0
 506              		@ link register save eliminated.
 507              	.LVL59:
 508              	.LBB6:
 509              		.loc 1 212 0
 510 0000 2023     		movs	r3, #32
 511              	.LVL60:
 512              	@ 212 "../../os/hal/src/serial_usb.c" 1
 513 0002 83F31188 		msr     BASEPRI, r3
 514              	@ 0 "" 2
 515              	.LVL61:
 516              		.thumb
 517              	.LBE6:
 518              		.loc 1 217 0
 519 0006 0B68     		ldr	r3, [r1, #0]
 520              	.LVL62:
 521              		.loc 1 216 0
 522 0008 C0F85412 		str	r1, [r0, #596]
 523              		.loc 1 218 0
 524 000c 0222     		movs	r2, #2
 525              		.loc 1 217 0
 526 000e 9860     		str	r0, [r3, #8]
 527              	.LBB7:
 528              		.loc 1 219 0
 529 0010 0023     		movs	r3, #0
 530              	.LVL63:
 531              	.LBE7:
 532              		.loc 1 218 0
 533 0012 0272     		strb	r2, [r0, #8]
 534              	.LBB8:
 535              		.loc 1 219 0
 536              	@ 219 "../../os/hal/src/serial_usb.c" 1
 537 0014 83F31188 		msr     BASEPRI, r3
 538              	@ 0 "" 2
 539              	.LVL64:
 540              		.thumb
 541 0018 7047     		bx	lr
 542              	.LBE8:
 543              		.cfi_endproc
 544              	.LFE130:
 545              		.size	sduStart, .-sduStart
 546 001a 00BFAFF3 		.section	.text.sduStop,"ax",%progbits
 546      0080
ARM GAS  /tmp/cc6rZ51m.s 			page 11


 547              		.align	2
 548              		.p2align 4,,15
 549              		.global	sduStop
 550              		.thumb
 551              		.thumb_func
 552              		.type	sduStop, %function
 553              	sduStop:
 554              	.LFB131:
 555              		.loc 1 231 0
 556              		.cfi_startproc
 557              		@ args = 0, pretend = 0, frame = 0
 558              		@ frame_needed = 0, uses_anonymous_args = 0
 559              		@ link register save eliminated.
 560              	.LVL65:
 561              	.LBB9:
 562              		.loc 1 235 0
 563 0000 2023     		movs	r3, #32
 564              	.LVL66:
 565              	@ 235 "../../os/hal/src/serial_usb.c" 1
 566 0002 83F31188 		msr     BASEPRI, r3
 567              	@ 0 "" 2
 568              	.LVL67:
 569              		.thumb
 570              	.LBE9:
 571              		.loc 1 239 0
 572 0006 0123     		movs	r3, #1
 573              	.LVL68:
 574 0008 0372     		strb	r3, [r0, #8]
 575              	.LBB10:
 576              		.loc 1 240 0
 577 000a 0023     		movs	r3, #0
 578              	.LVL69:
 579              	@ 240 "../../os/hal/src/serial_usb.c" 1
 580 000c 83F31188 		msr     BASEPRI, r3
 581              	@ 0 "" 2
 582              	.LVL70:
 583              		.thumb
 584 0010 7047     		bx	lr
 585              	.LBE10:
 586              		.cfi_endproc
 587              	.LFE131:
 588              		.size	sduStop, .-sduStop
 589 0012 00BFAFF3 		.section	.text.sduConfigureHookI,"ax",%progbits
 589      0080AFF3 
 589      0080AFF3 
 589      0080
 590              		.align	2
 591              		.p2align 4,,15
 592              		.global	sduConfigureHookI
 593              		.thumb
 594              		.thumb_func
 595              		.type	sduConfigureHookI, %function
 596              	sduConfigureHookI:
 597              	.LFB132:
 598              		.loc 1 250 0
 599              		.cfi_startproc
 600              		@ args = 0, pretend = 0, frame = 0
ARM GAS  /tmp/cc6rZ51m.s 			page 12


 601              		@ frame_needed = 0, uses_anonymous_args = 0
 602              	.LVL71:
 603 0000 70B5     		push	{r4, r5, r6, lr}
 604              	.LCFI4:
 605              		.cfi_def_cfa_offset 16
 606              		.cfi_offset 4, -16
 607              		.cfi_offset 5, -12
 608              		.cfi_offset 6, -8
 609              		.cfi_offset 14, -4
 610              		.loc 1 251 0
 611 0002 8568     		ldr	r5, [r0, #8]
 612              	.LVL72:
 613              		.loc 1 253 0
 614 0004 05F10C06 		add	r6, r5, #12
 615              		.loc 1 250 0
 616 0008 0446     		mov	r4, r0
 617              		.loc 1 253 0
 618 000a 3046     		mov	r0, r6
 619              	.LVL73:
 620 000c FFF7FEFF 		bl	chIQResetI
 621              	.LVL74:
 622              		.loc 1 254 0
 623 0010 05F13000 		add	r0, r5, #48
 624 0014 FFF7FEFF 		bl	chOQResetI
 625              	.LVL75:
 626              		.loc 1 255 0
 627 0018 281D     		adds	r0, r5, #4
 628 001a 0121     		movs	r1, #1
 629 001c FFF7FEFF 		bl	chEvtBroadcastFlagsI
 630              	.LVL76:
 631              		.loc 1 259 0
 632 0020 6369     		ldr	r3, [r4, #20]
 633              		.loc 1 258 0
 634 0022 0121     		movs	r1, #1
 635 0024 2046     		mov	r0, r4
 636 0026 3246     		mov	r2, r6
 637 0028 5B8A     		ldrh	r3, [r3, #18]
 638 002a FFF7FEFF 		bl	usbPrepareQueuedReceive
 639              	.LVL77:
 640              		.loc 1 260 0
 641 002e 2046     		mov	r0, r4
 642 0030 0121     		movs	r1, #1
 643              		.loc 1 261 0
 644 0032 BDE87040 		pop	{r4, r5, r6, lr}
 645              		.loc 1 260 0
 646 0036 FFF7FEBF 		b	usbStartReceiveI
 647              	.LVL78:
 648              		.cfi_endproc
 649              	.LFE132:
 650              		.size	sduConfigureHookI, .-sduConfigureHookI
 651 003a 00BFAFF3 		.section	.text.sduRequestsHook,"ax",%progbits
 651      0080
 652              		.align	2
 653              		.p2align 4,,15
 654              		.global	sduRequestsHook
 655              		.thumb
 656              		.thumb_func
ARM GAS  /tmp/cc6rZ51m.s 			page 13


 657              		.type	sduRequestsHook, %function
 658              	sduRequestsHook:
 659              	.LFB133:
 660              		.loc 1 278 0
 661              		.cfi_startproc
 662              		@ args = 0, pretend = 0, frame = 0
 663              		@ frame_needed = 0, uses_anonymous_args = 0
 664              		@ link register save eliminated.
 665              	.LVL79:
 666              		.loc 1 280 0
 667 0000 90F83030 		ldrb	r3, [r0, #48]	@ zero_extendqisi2
 668 0004 03F06003 		and	r3, r3, #96
 669 0008 202B     		cmp	r3, #32
 670 000a 01D0     		beq	.L32
 671              	.L31:
 672              		.loc 1 293 0
 673 000c 0020     		movs	r0, #0
 674              	.LVL80:
 675              		.loc 1 297 0
 676 000e 7047     		bx	lr
 677              	.LVL81:
 678              	.L32:
 679              		.loc 1 281 0
 680 0010 90F83130 		ldrb	r3, [r0, #49]	@ zero_extendqisi2
 681 0014 212B     		cmp	r3, #33
 682 0016 03D0     		beq	.L26
 683 0018 222B     		cmp	r3, #34
 684 001a 09D0     		beq	.L28
 685 001c 202B     		cmp	r3, #32
 686 001e F5D1     		bne	.L31
 687              	.L26:
 688              		.loc 1 286 0
 689 0020 064B     		ldr	r3, .L33
 690 0022 4362     		str	r3, [r0, #36]
 691 0024 0723     		movs	r3, #7
 692 0026 8362     		str	r3, [r0, #40]
 693 0028 0023     		movs	r3, #0
 694 002a C362     		str	r3, [r0, #44]
 695              		.loc 1 287 0
 696 002c 0120     		movs	r0, #1
 697              	.LVL82:
 698 002e 7047     		bx	lr
 699              	.LVL83:
 700              	.L28:
 701              		.loc 1 290 0
 702 0030 0023     		movs	r3, #0
 703 0032 4362     		str	r3, [r0, #36]
 704 0034 8362     		str	r3, [r0, #40]
 705 0036 C362     		str	r3, [r0, #44]
 706              		.loc 1 291 0
 707 0038 0120     		movs	r0, #1
 708              	.LVL84:
 709 003a 7047     		bx	lr
 710              	.L34:
 711              		.align	2
 712              	.L33:
 713 003c 00000000 		.word	.LANCHOR1
ARM GAS  /tmp/cc6rZ51m.s 			page 14


 714              		.cfi_endproc
 715              	.LFE133:
 716              		.size	sduRequestsHook, .-sduRequestsHook
 717              		.section	.text.sduDataTransmitted,"ax",%progbits
 718              		.align	2
 719              		.p2align 4,,15
 720              		.global	sduDataTransmitted
 721              		.thumb
 722              		.thumb_func
 723              		.type	sduDataTransmitted, %function
 724              	sduDataTransmitted:
 725              	.LFB134:
 726              		.loc 1 307 0
 727              		.cfi_startproc
 728              		@ args = 0, pretend = 0, frame = 0
 729              		@ frame_needed = 0, uses_anonymous_args = 0
 730              	.LVL85:
 731 0000 70B5     		push	{r4, r5, r6, lr}
 732              	.LCFI5:
 733              		.cfi_def_cfa_offset 16
 734              		.cfi_offset 4, -16
 735              		.cfi_offset 5, -12
 736              		.cfi_offset 6, -8
 737              		.cfi_offset 14, -4
 738              	.LBB11:
 739              		.loc 1 313 0
 740 0002 2023     		movs	r3, #32
 741              	.LVL86:
 742              	.LBE11:
 743              		.loc 1 309 0
 744 0004 8468     		ldr	r4, [r0, #8]
 745              	.LVL87:
 746              		.loc 1 307 0
 747 0006 0546     		mov	r5, r0
 748 0008 0E46     		mov	r6, r1
 749              	.LBB12:
 750              		.loc 1 313 0
 751              	@ 313 "../../os/hal/src/serial_usb.c" 1
 752 000a 83F31188 		msr     BASEPRI, r3
 753              	@ 0 "" 2
 754              	.LVL88:
 755              		.thumb
 756              	.LBE12:
 757              		.loc 1 314 0
 758 000e 0821     		movs	r1, #8
 759              	.LVL89:
 760 0010 201D     		adds	r0, r4, #4
 761              	.LVL90:
 762 0012 FFF7FEFF 		bl	chEvtBroadcastFlagsI
 763              	.LVL91:
 764              		.loc 1 316 0
 765 0016 216C     		ldr	r1, [r4, #64]
 766 0018 E26B     		ldr	r2, [r4, #60]
 767 001a A36B     		ldr	r3, [r4, #56]
 768 001c 8A1A     		subs	r2, r1, r2
 769              	.LVL92:
 770 001e D21A     		subs	r2, r2, r3
ARM GAS  /tmp/cc6rZ51m.s 			page 15


 771              	.LVL93:
 772 0020 1CD1     		bne	.L39
 773              		.loc 1 326 0
 774 0022 331D     		adds	r3, r6, #4
 775 0024 55F82330 		ldr	r3, [r5, r3, lsl #2]
 776 0028 5969     		ldr	r1, [r3, #20]
 777              		.loc 1 327 0
 778 002a 1A8A     		ldrh	r2, [r3, #16]
 779              	.LVL94:
 780              		.loc 1 326 0
 781 002c 4B68     		ldr	r3, [r1, #4]
 782              		.loc 1 327 0
 783 002e 013A     		subs	r2, r2, #1
 784              		.loc 1 326 0
 785 0030 1340     		ands	r3, r2, r3
 786 0032 03D0     		beq	.L40
 787              	.LVL95:
 788              	.L37:
 789              	.LBB13:
 790              		.loc 1 340 0
 791 0034 0023     		movs	r3, #0
 792              	.LVL96:
 793              	@ 340 "../../os/hal/src/serial_usb.c" 1
 794 0036 83F31188 		msr     BASEPRI, r3
 795              	@ 0 "" 2
 796              	.LVL97:
 797              		.thumb
 798 003a 70BD     		pop	{r4, r5, r6, pc}
 799              	.LVL98:
 800              	.L40:
 801              	.LBE13:
 802              	.LBB14:
 803              		.loc 1 332 0
 804              	@ 332 "../../os/hal/src/serial_usb.c" 1
 805 003c 83F31188 		msr     BASEPRI, r3
 806              	@ 0 "" 2
 807              	.LVL99:
 808              		.thumb
 809              	.L38:
 810              	.LBE14:
 811              		.loc 1 334 0
 812 0040 2846     		mov	r0, r5
 813 0042 3146     		mov	r1, r6
 814 0044 04F13002 		add	r2, r4, #48
 815 0048 FFF7FEFF 		bl	usbPrepareQueuedTransmit
 816              	.LVL100:
 817              	.LBB15:
 818              		.loc 1 336 0
 819 004c 2023     		movs	r3, #32
 820              	.LVL101:
 821              	@ 336 "../../os/hal/src/serial_usb.c" 1
 822 004e 83F31188 		msr     BASEPRI, r3
 823              	@ 0 "" 2
 824              	.LVL102:
 825              		.thumb
 826              	.LBE15:
 827              		.loc 1 337 0
ARM GAS  /tmp/cc6rZ51m.s 			page 16


 828 0052 2846     		mov	r0, r5
 829 0054 3146     		mov	r1, r6
 830 0056 FFF7FEFF 		bl	usbStartTransmitI
 831              	.LVL103:
 832 005a EBE7     		b	.L37
 833              	.LVL104:
 834              	.L39:
 835              	.LBB16:
 836              		.loc 1 319 0
 837 005c 0023     		movs	r3, #0
 838              	.LVL105:
 839              	@ 319 "../../os/hal/src/serial_usb.c" 1
 840 005e 83F31188 		msr     BASEPRI, r3
 841              	@ 0 "" 2
 842              	.LVL106:
 843              		.thumb
 844              	.LBE16:
 845              		.loc 1 321 0
 846 0062 1346     		mov	r3, r2
 847              	.LVL107:
 848 0064 ECE7     		b	.L38
 849              		.cfi_endproc
 850              	.LFE134:
 851              		.size	sduDataTransmitted, .-sduDataTransmitted
 852 0066 00BFAFF3 		.section	.text.sduDataReceived,"ax",%progbits
 852      0080AFF3 
 852      0080
 853              		.align	2
 854              		.p2align 4,,15
 855              		.global	sduDataReceived
 856              		.thumb
 857              		.thumb_func
 858              		.type	sduDataReceived, %function
 859              	sduDataReceived:
 860              	.LFB135:
 861              		.loc 1 351 0
 862              		.cfi_startproc
 863              		@ args = 0, pretend = 0, frame = 0
 864              		@ frame_needed = 0, uses_anonymous_args = 0
 865              	.LVL108:
 866 0000 F8B5     		push	{r3, r4, r5, r6, r7, lr}
 867              	.LCFI6:
 868              		.cfi_def_cfa_offset 24
 869              		.cfi_offset 3, -24
 870              		.cfi_offset 4, -20
 871              		.cfi_offset 5, -16
 872              		.cfi_offset 6, -12
 873              		.cfi_offset 7, -8
 874              		.cfi_offset 14, -4
 875              		.loc 1 353 0
 876 0002 8468     		ldr	r4, [r0, #8]
 877              	.LVL109:
 878              		.loc 1 351 0
 879 0004 0546     		mov	r5, r0
 880 0006 0F46     		mov	r7, r1
 881              	.LBB17:
 882              		.loc 1 357 0
ARM GAS  /tmp/cc6rZ51m.s 			page 17


 883 0008 2023     		movs	r3, #32
 884              	.LVL110:
 885              	@ 357 "../../os/hal/src/serial_usb.c" 1
 886 000a 83F31188 		msr     BASEPRI, r3
 887              	@ 0 "" 2
 888              	.LVL111:
 889              		.thumb
 890              	.LBE17:
 891              		.loc 1 358 0
 892 000e 0421     		movs	r1, #4
 893              	.LVL112:
 894 0010 6018     		adds	r0, r4, r1
 895              	.LVL113:
 896 0012 FFF7FEFF 		bl	chEvtBroadcastFlagsI
 897              	.LVL114:
 898              		.loc 1 362 0
 899 0016 6A69     		ldr	r2, [r5, #20]
 900              		.loc 1 363 0
 901 0018 E669     		ldr	r6, [r4, #28]
 902 001a A069     		ldr	r0, [r4, #24]
 903 001c 6369     		ldr	r3, [r4, #20]
 904              		.loc 1 362 0
 905 001e 528A     		ldrh	r2, [r2, #18]
 906              	.LVL115:
 907              		.loc 1 363 0
 908 0020 301A     		subs	r0, r6, r0
 909 0022 C01A     		subs	r0, r0, r3
 910              	.LVL116:
 911 0024 8242     		cmp	r2, r0
 912 0026 13D8     		bhi	.L42
 913              	.LBB18:
 914              		.loc 1 366 0
 915 0028 0023     		movs	r3, #0
 916              	.LVL117:
 917              	@ 366 "../../os/hal/src/serial_usb.c" 1
 918 002a 83F31188 		msr     BASEPRI, r3
 919              	@ 0 "" 2
 920              	.LVL118:
 921              		.thumb
 922              	.LBE18:
 923              		.loc 1 368 0
 924 002e B0FBF2F3 		udiv	r3, r0, r2
 925              	.LVL119:
 926              		.loc 1 369 0
 927 0032 02FB03F3 		mul	r3, r2, r3
 928              	.LVL120:
 929 0036 2846     		mov	r0, r5
 930 0038 3946     		mov	r1, r7
 931 003a 04F10C02 		add	r2, r4, #12
 932              	.LVL121:
 933 003e FFF7FEFF 		bl	usbPrepareQueuedReceive
 934              	.LVL122:
 935              	.LBB19:
 936              		.loc 1 371 0
 937 0042 2023     		movs	r3, #32
 938              	.LVL123:
 939              	@ 371 "../../os/hal/src/serial_usb.c" 1
ARM GAS  /tmp/cc6rZ51m.s 			page 18


 940 0044 83F31188 		msr     BASEPRI, r3
 941              	@ 0 "" 2
 942              	.LVL124:
 943              		.thumb
 944              	.LBE19:
 945              		.loc 1 372 0
 946 0048 2846     		mov	r0, r5
 947 004a 3946     		mov	r1, r7
 948 004c FFF7FEFF 		bl	usbStartReceiveI
 949              	.LVL125:
 950              	.L42:
 951              	.LBB20:
 952              		.loc 1 375 0
 953 0050 0023     		movs	r3, #0
 954              	.LVL126:
 955              	@ 375 "../../os/hal/src/serial_usb.c" 1
 956 0052 83F31188 		msr     BASEPRI, r3
 957              	@ 0 "" 2
 958              	.LVL127:
 959              		.thumb
 960 0056 F8BD     		pop	{r3, r4, r5, r6, r7, pc}
 961              	.LBE20:
 962              		.cfi_endproc
 963              	.LFE135:
 964              		.size	sduDataReceived, .-sduDataReceived
 965 0058 AFF30080 		.section	.text.sduInterruptTransmitted,"ax",%progbits
 965      AFF30080 
 966              		.align	2
 967              		.p2align 4,,15
 968              		.global	sduInterruptTransmitted
 969              		.thumb
 970              		.thumb_func
 971              		.type	sduInterruptTransmitted, %function
 972              	sduInterruptTransmitted:
 973              	.LFB136:
 974              		.loc 1 386 0
 975              		.cfi_startproc
 976              		@ args = 0, pretend = 0, frame = 0
 977              		@ frame_needed = 0, uses_anonymous_args = 0
 978              		@ link register save eliminated.
 979              	.LVL128:
 980 0000 7047     		bx	lr
 981              		.cfi_endproc
 982              	.LFE136:
 983              		.size	sduInterruptTransmitted, .-sduInterruptTransmitted
 984 0002 00BFAFF3 		.section	.rodata.vmt,"a",%progbits
 984      0080AFF3 
 984      0080AFF3 
 984      0080
 985              		.align	2
 986              		.set	.LANCHOR0,. + 0
 987              		.type	vmt, %object
 988              		.size	vmt, 32
 989              	vmt:
 990 0000 00000000 		.word	write
 991 0004 00000000 		.word	read
 992 0008 00000000 		.word	put
ARM GAS  /tmp/cc6rZ51m.s 			page 19


 993 000c 00000000 		.word	get
 994 0010 00000000 		.word	putt
 995 0014 00000000 		.word	gett
 996 0018 00000000 		.word	writet
 997 001c 00000000 		.word	readt
 998              		.section	.data.linecoding,"aw",%progbits
 999              		.align	2
 1000              		.set	.LANCHOR1,. + 0
 1001              		.type	linecoding, %object
 1002              		.size	linecoding, 7
 1003              	linecoding:
 1004 0000 00       		.byte	0
 1005 0001 96       		.byte	-106
 1006 0002 00       		.byte	0
 1007 0003 00       		.byte	0
 1008 0004 00       		.byte	0
 1009 0005 00       		.byte	0
 1010 0006 08       		.byte	8
 1011 0007 00       		.text
 1012              	.Letext0:
 1013              		.file 2 "/opt/psas/x-tools/stm32f407/arm-psas-eabi/bin/../lib/gcc/arm-psas-eabi/4.7.2/include/stdd
 1014              		.file 3 "/opt/psas/x-tools/stm32f407/arm-psas-eabi/bin/../lib/gcc/arm-psas-eabi/4.7.2/../../../../
 1015              		.file 4 "../../os/ports/GCC/ARMCMx/chtypes.h"
 1016              		.file 5 "../../os/kernel/include/chlists.h"
 1017              		.file 6 "../../os/kernel/include/chthreads.h"
 1018              		.file 7 "../../os/ports/GCC/ARMCMx/chcore_v7m.h"
 1019              		.file 8 "../../os/kernel/include/chmtx.h"
 1020              		.file 9 "../../os/kernel/include/chevents.h"
 1021              		.file 10 "../../os/kernel/include/chqueues.h"
 1022              		.file 11 "../../os/hal/include/usb.h"
 1023              		.file 12 "../../os/hal/platforms/STM32/OTGv1/usb_lld.h"
 1024              		.file 13 "../../os/hal/platforms/STM32/OTGv1/stm32_otg.h"
 1025              		.file 14 "../../os/hal/include/serial_usb.h"
 1026              		.file 15 "../../os/hal/include/usb_cdc.h"
 1027              		.file 16 "../../os/ports/common/ARMCMx/CMSIS/include/core_cm4.h"