ARM GAS  /tmp/ccfjN8Ou.s 			page 1


   1              		.syntax unified
   2              		.cpu cortex-m4
   3              		.eabi_attribute 27, 3
   4              		.eabi_attribute 28, 1
   5              		.fpu fpv4-sp-d16
   6              		.eabi_attribute 20, 1
   7              		.eabi_attribute 21, 1
   8              		.eabi_attribute 23, 3
   9              		.eabi_attribute 24, 1
  10              		.eabi_attribute 25, 1
  11              		.eabi_attribute 26, 1
  12              		.eabi_attribute 30, 2
  13              		.eabi_attribute 34, 1
  14              		.eabi_attribute 18, 4
  15              		.thumb
  16              		.file	"shell.c"
  17              		.text
  18              	.Ltext0:
  19              		.cfi_sections	.debug_frame
  20              		.section	.text.cmd_systime,"ax",%progbits
  21              		.align	2
  22              		.p2align 4,,15
  23              		.thumb
  24              		.thumb_func
  25              		.type	cmd_systime, %function
  26              	cmd_systime:
  27              	.LFB122:
  28              		.file 1 "../../os/various/shell.c"
  29              		.loc 1 103 0
  30              		.cfi_startproc
  31              		@ args = 0, pretend = 0, frame = 0
  32              		@ frame_needed = 0, uses_anonymous_args = 0
  33              		@ link register save eliminated.
  34              	.LVL0:
  35              		.loc 1 106 0
  36 0000 0029     		cmp	r1, #0
  37 0002 03DD     		ble	.L2
  38              	.LVL1:
  39              	.LBB6:
  40              	.LBB7:
  41              		.loc 1 60 0
  42 0004 0449     		ldr	r1, .L4
  43              	.LVL2:
  44 0006 054A     		ldr	r2, .L4+4
  45              	.LVL3:
  46              	.LBE7:
  47              	.LBE6:
  48              		.loc 1 111 0
  49              	.LBB9:
  50              	.LBB8:
  51              		.loc 1 60 0
  52 0008 FFF7FEBF 		b	chprintf
  53              	.LVL4:
  54              	.L2:
  55              	.LBE8:
  56              	.LBE9:
  57              	.LBB10:
ARM GAS  /tmp/ccfjN8Ou.s 			page 2


  58              	.LBB11:
  59              		.loc 1 110 0
  60 000c 044B     		ldr	r3, .L4+8
  61 000e 0549     		ldr	r1, .L4+12
  62              	.LVL5:
  63 0010 DA68     		ldr	r2, [r3, #12]
  64              	.LVL6:
  65              	.LBE11:
  66              	.LBE10:
  67              		.loc 1 111 0
  68              	.LBB13:
  69              	.LBB12:
  70              		.loc 1 110 0
  71 0012 FFF7FEBF 		b	chprintf
  72              	.LVL7:
  73              	.L5:
  74 0016 00BF     		.align	2
  75              	.L4:
  76 0018 00000000 		.word	.LC0
  77 001c 0C000000 		.word	.LC1
  78 0020 00000000 		.word	vtlist
  79 0024 14000000 		.word	.LC2
  80              	.LBE12:
  81              	.LBE13:
  82              		.cfi_endproc
  83              	.LFE122:
  84              		.size	cmd_systime, .-cmd_systime
  85 0028 AFF30080 		.section	.text.cmd_info,"ax",%progbits
  85      AFF30080 
  86              		.align	2
  87              		.p2align 4,,15
  88              		.thumb
  89              		.thumb_func
  90              		.type	cmd_info, %function
  91              	cmd_info:
  92              	.LFB121:
  93              		.loc 1 71 0
  94              		.cfi_startproc
  95              		@ args = 0, pretend = 0, frame = 0
  96              		@ frame_needed = 0, uses_anonymous_args = 0
  97              	.LVL8:
  98 0000 10B5     		push	{r4, lr}
  99              	.LCFI0:
 100              		.cfi_def_cfa_offset 8
 101              		.cfi_offset 4, -8
 102              		.cfi_offset 14, -4
 103              		.loc 1 74 0
 104 0002 0029     		cmp	r1, #0
 105              		.loc 1 71 0
 106 0004 82B0     		sub	sp, sp, #8
 107              	.LCFI1:
 108              		.cfi_def_cfa_offset 16
 109              		.loc 1 71 0
 110 0006 0446     		mov	r4, r0
 111              		.loc 1 74 0
 112 0008 06DD     		ble	.L7
 113              	.LVL9:
ARM GAS  /tmp/ccfjN8Ou.s 			page 3


 114              	.LBB18:
 115              	.LBB19:
 116              		.loc 1 60 0
 117 000a 1949     		ldr	r1, .L8
 118              	.LVL10:
 119 000c 194A     		ldr	r2, .L8+4
 120              	.LVL11:
 121              	.LBE19:
 122              	.LBE18:
 123              		.loc 1 101 0
 124 000e 02B0     		add	sp, sp, #8
 125 0010 BDE81040 		pop	{r4, lr}
 126              	.LBB21:
 127              	.LBB20:
 128              		.loc 1 60 0
 129 0014 FFF7FEBF 		b	chprintf
 130              	.LVL12:
 131              	.L7:
 132              	.LBE20:
 133              	.LBE21:
 134              	.LBB22:
 135              	.LBB23:
 136              		.loc 1 79 0
 137 0018 1749     		ldr	r1, .L8+8
 138              	.LVL13:
 139 001a 184A     		ldr	r2, .L8+12
 140              	.LVL14:
 141 001c FFF7FEFF 		bl	chprintf
 142              	.LVL15:
 143              		.loc 1 81 0
 144 0020 2046     		mov	r0, r4
 145 0022 1749     		ldr	r1, .L8+16
 146 0024 174A     		ldr	r2, .L8+20
 147 0026 FFF7FEFF 		bl	chprintf
 148              	.LVL16:
 149              		.loc 1 83 0
 150 002a 2046     		mov	r0, r4
 151 002c 1649     		ldr	r1, .L8+24
 152 002e 174A     		ldr	r2, .L8+28
 153 0030 FFF7FEFF 		bl	chprintf
 154              	.LVL17:
 155              		.loc 1 85 0
 156 0034 2046     		mov	r0, r4
 157 0036 1649     		ldr	r1, .L8+32
 158 0038 164A     		ldr	r2, .L8+36
 159 003a FFF7FEFF 		bl	chprintf
 160              	.LVL18:
 161              		.loc 1 88 0
 162 003e 2046     		mov	r0, r4
 163 0040 1549     		ldr	r1, .L8+40
 164 0042 164A     		ldr	r2, .L8+44
 165 0044 FFF7FEFF 		bl	chprintf
 166              	.LVL19:
 167              		.loc 1 91 0
 168 0048 2046     		mov	r0, r4
 169 004a 1549     		ldr	r1, .L8+48
 170 004c 154A     		ldr	r2, .L8+52
ARM GAS  /tmp/ccfjN8Ou.s 			page 4


 171 004e FFF7FEFF 		bl	chprintf
 172              	.LVL20:
 173              		.loc 1 94 0
 174 0052 2046     		mov	r0, r4
 175 0054 1449     		ldr	r1, .L8+56
 176 0056 154A     		ldr	r2, .L8+60
 177 0058 FFF7FEFF 		bl	chprintf
 178              	.LVL21:
 179              		.loc 1 98 0
 180 005c 144B     		ldr	r3, .L8+64
 181 005e 1549     		ldr	r1, .L8+68
 182 0060 0093     		str	r3, [sp, #0]
 183 0062 2046     		mov	r0, r4
 184 0064 144A     		ldr	r2, .L8+72
 185 0066 154B     		ldr	r3, .L8+76
 186 0068 FFF7FEFF 		bl	chprintf
 187              	.LVL22:
 188              	.LBE23:
 189              	.LBE22:
 190              		.loc 1 101 0
 191 006c 02B0     		add	sp, sp, #8
 192 006e 10BD     		pop	{r4, pc}
 193              	.L9:
 194              		.align	2
 195              	.L8:
 196 0070 00000000 		.word	.LC0
 197 0074 1C000000 		.word	.LC3
 198 0078 24000000 		.word	.LC4
 199 007c 38000000 		.word	.LC5
 200 0080 48000000 		.word	.LC6
 201 0084 5C000000 		.word	.LC7
 202 0088 68000000 		.word	.LC8
 203 008c 7C000000 		.word	.LC9
 204 0090 88000000 		.word	.LC10
 205 0094 9C000000 		.word	.LC11
 206 0098 A8000000 		.word	.LC12
 207 009c BC000000 		.word	.LC13
 208 00a0 D4000000 		.word	.LC14
 209 00a4 E8000000 		.word	.LC15
 210 00a8 04010000 		.word	.LC16
 211 00ac 18010000 		.word	.LC17
 212 00b0 54010000 		.word	.LC21
 213 00b4 2C010000 		.word	.LC18
 214 00b8 44010000 		.word	.LC19
 215 00bc 50010000 		.word	.LC20
 216              		.cfi_endproc
 217              	.LFE121:
 218              		.size	cmd_info, .-cmd_info
 219              		.section	.text._strtok.constprop.2,"ax",%progbits
 220              		.align	2
 221              		.p2align 4,,15
 222              		.thumb
 223              		.thumb_func
 224              		.type	_strtok.constprop.2, %function
 225              	_strtok.constprop.2:
 226              	.LFB131:
 227              		.loc 1 41 0
ARM GAS  /tmp/ccfjN8Ou.s 			page 5


 228              		.cfi_startproc
 229              		@ args = 0, pretend = 0, frame = 0
 230              		@ frame_needed = 0, uses_anonymous_args = 0
 231              	.LVL23:
 232 0000 38B5     		push	{r3, r4, r5, lr}
 233              	.LCFI2:
 234              		.cfi_def_cfa_offset 16
 235              		.cfi_offset 3, -16
 236              		.cfi_offset 4, -12
 237              		.cfi_offset 5, -8
 238              		.cfi_offset 14, -4
 239              		.loc 1 43 0
 240 0002 0446     		mov	r4, r0
 241              		.loc 1 41 0
 242 0004 0D46     		mov	r5, r1
 243              		.loc 1 43 0
 244 0006 98B1     		cbz	r0, .L11
 245              		.loc 1 44 0
 246 0008 2860     		str	r0, [r5, #0]
 247              	.LVL24:
 248              	.L12:
 249              		.loc 1 50 0
 250 000a 0C49     		ldr	r1, .L22
 251              	.LVL25:
 252 000c 2046     		mov	r0, r4
 253              	.LVL26:
 254 000e FFF7FEFF 		bl	strspn
 255              	.LVL27:
 256 0012 2418     		adds	r4, r4, r0
 257              	.LVL28:
 258              		.loc 1 51 0
 259 0014 2046     		mov	r0, r4
 260 0016 2021     		movs	r1, #32
 261 0018 FFF7FEFF 		bl	strchr
 262              	.LVL29:
 263 001c 2860     		str	r0, [r5, #0]
 264              		.loc 1 52 0
 265 001e 18B1     		cbz	r0, .L14
 266              		.loc 1 53 0
 267 0020 0023     		movs	r3, #0
 268 0022 00F8013B 		strb	r3, [r0], #1
 269 0026 2860     		str	r0, [r5, #0]
 270              	.L14:
 271              		.loc 1 55 0
 272 0028 2378     		ldrb	r3, [r4, #0]	@ zero_extendqisi2
 273 002a 23B1     		cbz	r3, .L15
 274              		.loc 1 56 0
 275 002c 2046     		mov	r0, r4
 276 002e 38BD     		pop	{r3, r4, r5, pc}
 277              	.LVL30:
 278              	.L11:
 279              		.loc 1 45 0
 280 0030 0C68     		ldr	r4, [r1, #0]
 281              	.LVL31:
 282              		.loc 1 47 0
 283 0032 002C     		cmp	r4, #0
 284 0034 E9D1     		bne	.L12
ARM GAS  /tmp/ccfjN8Ou.s 			page 6


 285              	.LVL32:
 286              	.L15:
 287              		.loc 1 48 0
 288 0036 0024     		movs	r4, #0
 289              	.LVL33:
 290              		.loc 1 56 0
 291 0038 2046     		mov	r0, r4
 292 003a 38BD     		pop	{r3, r4, r5, pc}
 293              	.L23:
 294              		.align	2
 295              	.L22:
 296 003c 00000000 		.word	.LANCHOR0
 297              		.cfi_endproc
 298              	.LFE131:
 299              		.size	_strtok.constprop.2, .-_strtok.constprop.2
 300              		.section	.text.shellInit,"ax",%progbits
 301              		.align	2
 302              		.p2align 4,,15
 303              		.global	shellInit
 304              		.thumb
 305              		.thumb_func
 306              		.type	shellInit, %function
 307              	shellInit:
 308              	.LFB125:
 309              		.loc 1 208 0
 310              		.cfi_startproc
 311              		@ args = 0, pretend = 0, frame = 0
 312              		@ frame_needed = 0, uses_anonymous_args = 0
 313              		@ link register save eliminated.
 314              		.loc 1 210 0
 315 0000 40F20003 		movw	r3, #:lower16:.LANCHOR1
 316 0004 C0F20003 		movt	r3, #:upper16:.LANCHOR1
 317 0008 1B60     		str	r3, [r3, #0]
 318 000a 7047     		bx	lr
 319              		.cfi_endproc
 320              	.LFE125:
 321              		.size	shellInit, .-shellInit
 322 000c AFF30080 		.section	.text.shellCreate,"ax",%progbits
 323              		.align	2
 324              		.p2align 4,,15
 325              		.global	shellCreate
 326              		.thumb
 327              		.thumb_func
 328              		.type	shellCreate, %function
 329              	shellCreate:
 330              	.LFB126:
 331              		.loc 1 224 0
 332              		.cfi_startproc
 333              		@ args = 0, pretend = 0, frame = 0
 334              		@ frame_needed = 0, uses_anonymous_args = 0
 335              	.LVL34:
 336 0000 00B5     		push	{lr}
 337              	.LCFI3:
 338              		.cfi_def_cfa_offset 4
 339              		.cfi_offset 14, -4
 340 0002 83B0     		sub	sp, sp, #12
 341              	.LCFI4:
ARM GAS  /tmp/ccfjN8Ou.s 			page 7


 342              		.cfi_def_cfa_offset 16
 343              		.loc 1 226 0
 344 0004 40F20003 		movw	r3, #:lower16:shell_thread
 345 0008 0090     		str	r0, [sp, #0]
 346 000a C0F20003 		movt	r3, #:upper16:shell_thread
 347 000e 0020     		movs	r0, #0
 348              	.LVL35:
 349 0010 FFF7FEFF 		bl	chThdCreateFromHeap
 350              	.LVL36:
 351              		.loc 1 227 0
 352 0014 03B0     		add	sp, sp, #12
 353 0016 00BD     		pop	{pc}
 354              		.cfi_endproc
 355              	.LFE126:
 356              		.size	shellCreate, .-shellCreate
 357 0018 AFF30080 		.section	.text.shellCreateStatic,"ax",%progbits
 357      AFF30080 
 358              		.align	2
 359              		.p2align 4,,15
 360              		.global	shellCreateStatic
 361              		.thumb
 362              		.thumb_func
 363              		.type	shellCreateStatic, %function
 364              	shellCreateStatic:
 365              	.LFB127:
 366              		.loc 1 240 0
 367              		.cfi_startproc
 368              		@ args = 0, pretend = 0, frame = 0
 369              		@ frame_needed = 0, uses_anonymous_args = 0
 370              	.LVL37:
 371 0000 00B5     		push	{lr}
 372              	.LCFI5:
 373              		.cfi_def_cfa_offset 4
 374              		.cfi_offset 14, -4
 375 0002 83B0     		sub	sp, sp, #12
 376              	.LCFI6:
 377              		.cfi_def_cfa_offset 16
 378              		.loc 1 242 0
 379 0004 0090     		str	r0, [sp, #0]
 380 0006 0846     		mov	r0, r1
 381              	.LVL38:
 382 0008 1146     		mov	r1, r2
 383              	.LVL39:
 384 000a 1A46     		mov	r2, r3
 385              	.LVL40:
 386 000c 40F20003 		movw	r3, #:lower16:shell_thread
 387              	.LVL41:
 388 0010 C0F20003 		movt	r3, #:upper16:shell_thread
 389 0014 FFF7FEFF 		bl	chThdCreateStatic
 390              	.LVL42:
 391              		.loc 1 243 0
 392 0018 03B0     		add	sp, sp, #12
 393 001a 00BD     		pop	{pc}
 394              		.cfi_endproc
 395              	.LFE127:
 396              		.size	shellCreateStatic, .-shellCreateStatic
 397              		.section	.text.shellGetLine,"ax",%progbits
ARM GAS  /tmp/ccfjN8Ou.s 			page 8


 398              		.align	2
 399              		.p2align 4,,15
 400              		.global	shellGetLine
 401              		.thumb
 402              		.thumb_func
 403              		.type	shellGetLine, %function
 404              	shellGetLine:
 405              	.LFB128:
 406              		.loc 1 255 0
 407              		.cfi_startproc
 408              		@ args = 0, pretend = 0, frame = 8
 409              		@ frame_needed = 0, uses_anonymous_args = 0
 410              	.LVL43:
 411 0000 F0B5     		push	{r4, r5, r6, r7, lr}
 412              	.LCFI7:
 413              		.cfi_def_cfa_offset 20
 414              		.cfi_offset 4, -20
 415              		.cfi_offset 5, -16
 416              		.cfi_offset 6, -12
 417              		.cfi_offset 7, -8
 418              		.cfi_offset 14, -4
 419              	.LBB24:
 420              		.loc 1 283 0
 421 0002 013A     		subs	r2, r2, #1
 422              	.LVL44:
 423              	.LBE24:
 424              		.loc 1 255 0
 425 0004 83B0     		sub	sp, sp, #12
 426              	.LCFI8:
 427              		.cfi_def_cfa_offset 32
 428              		.loc 1 255 0
 429 0006 0E46     		mov	r6, r1
 430              	.LVL45:
 431 0008 0446     		mov	r4, r0
 432              		.loc 1 256 0
 433 000a 0D46     		mov	r5, r1
 434              	.LBB25:
 435              		.loc 1 283 0
 436 000c 8F18     		adds	r7, r1, r2
 437              	.LVL46:
 438              	.L39:
 439              		.loc 1 261 0
 440 000e 2368     		ldr	r3, [r4, #0]
 441 0010 0122     		movs	r2, #1
 442 0012 0DF10701 		add	r1, sp, #7
 443 0016 5B68     		ldr	r3, [r3, #4]
 444 0018 2046     		mov	r0, r4
 445 001a 9847     		blx	r3
 446              	.LVL47:
 447 001c 38B3     		cbz	r0, .L36
 448              		.loc 1 263 0
 449 001e 9DF80710 		ldrb	r1, [sp, #7]	@ zero_extendqisi2
 450 0022 0429     		cmp	r1, #4
 451 0024 26D0     		beq	.L40
 452              		.loc 1 267 0
 453 0026 0829     		cmp	r1, #8
 454 0028 0ED0     		beq	.L41
ARM GAS  /tmp/ccfjN8Ou.s 			page 9


 455              		.loc 1 276 0
 456 002a 0D29     		cmp	r1, #13
 457 002c 28D0     		beq	.L42
 458              		.loc 1 281 0
 459 002e 1F29     		cmp	r1, #31
 460 0030 EDD9     		bls	.L39
 461              		.loc 1 283 0
 462 0032 BD42     		cmp	r5, r7
 463 0034 EBD2     		bcs	.L39
 464              		.loc 1 284 0
 465 0036 2368     		ldr	r3, [r4, #0]
 466 0038 2046     		mov	r0, r4
 467 003a 9B68     		ldr	r3, [r3, #8]
 468 003c 9847     		blx	r3
 469              	.LVL48:
 470              		.loc 1 285 0
 471 003e 9DF80730 		ldrb	r3, [sp, #7]	@ zero_extendqisi2
 472              	.LVL49:
 473 0042 05F8013B 		strb	r3, [r5], #1
 474              	.LVL50:
 475 0046 E2E7     		b	.L39
 476              	.LVL51:
 477              	.L41:
 478              		.loc 1 268 0
 479 0048 B542     		cmp	r5, r6
 480              		.loc 1 269 0
 481 004a 2046     		mov	r0, r4
 482              		.loc 1 268 0
 483 004c DFD0     		beq	.L39
 484              	.LVL52:
 485              		.loc 1 269 0
 486 004e 2368     		ldr	r3, [r4, #0]
 487 0050 9B68     		ldr	r3, [r3, #8]
 488 0052 9847     		blx	r3
 489              	.LVL53:
 490              		.loc 1 270 0
 491 0054 2368     		ldr	r3, [r4, #0]
 492 0056 2021     		movs	r1, #32
 493 0058 9B68     		ldr	r3, [r3, #8]
 494 005a 2046     		mov	r0, r4
 495 005c 9847     		blx	r3
 496              	.LVL54:
 497              		.loc 1 271 0
 498 005e 2368     		ldr	r3, [r4, #0]
 499 0060 9DF80710 		ldrb	r1, [sp, #7]	@ zero_extendqisi2
 500 0064 9B68     		ldr	r3, [r3, #8]
 501 0066 2046     		mov	r0, r4
 502 0068 9847     		blx	r3
 503              	.LVL55:
 504              		.loc 1 272 0
 505 006a 013D     		subs	r5, r5, #1
 506              	.LVL56:
 507 006c CFE7     		b	.L39
 508              	.L36:
 509              		.loc 1 262 0
 510 006e 0120     		movs	r0, #1
 511              	.L29:
ARM GAS  /tmp/ccfjN8Ou.s 			page 10


 512              	.LBE25:
 513              		.loc 1 288 0
 514 0070 03B0     		add	sp, sp, #12
 515 0072 F0BD     		pop	{r4, r5, r6, r7, pc}
 516              	.L40:
 517              	.LBB26:
 518              		.loc 1 264 0
 519 0074 2046     		mov	r0, r4
 520 0076 0649     		ldr	r1, .L43
 521 0078 FFF7FEFF 		bl	chprintf
 522              	.LVL57:
 523              		.loc 1 265 0
 524 007c 0120     		movs	r0, #1
 525 007e F7E7     		b	.L29
 526              	.L42:
 527              		.loc 1 277 0
 528 0080 2046     		mov	r0, r4
 529 0082 0449     		ldr	r1, .L43+4
 530 0084 FFF7FEFF 		bl	chprintf
 531              	.LVL58:
 532              		.loc 1 278 0
 533 0088 0020     		movs	r0, #0
 534 008a 2870     		strb	r0, [r5, #0]
 535 008c F0E7     		b	.L29
 536              	.L44:
 537 008e 00BF     		.align	2
 538              	.L43:
 539 0090 60010000 		.word	.LC23
 540 0094 64010000 		.word	.LC24
 541              	.LBE26:
 542              		.cfi_endproc
 543              	.LFE128:
 544              		.size	shellGetLine, .-shellGetLine
 545 0098 AFF30080 		.section	.text.shell_thread,"ax",%progbits
 545      AFF30080 
 546              		.align	2
 547              		.p2align 4,,15
 548              		.thumb
 549              		.thumb_func
 550              		.type	shell_thread, %function
 551              	shell_thread:
 552              	.LFB124:
 553              		.loc 1 143 0
 554              		.cfi_startproc
 555              		@ args = 0, pretend = 0, frame = 88
 556              		@ frame_needed = 0, uses_anonymous_args = 0
 557              	.LVL59:
 558 0000 2DE9F043 		push	{r4, r5, r6, r7, r8, r9, lr}
 559              	.LCFI9:
 560              		.cfi_def_cfa_offset 28
 561              		.cfi_offset 4, -28
 562              		.cfi_offset 5, -24
 563              		.cfi_offset 6, -20
 564              		.cfi_offset 7, -16
 565              		.cfi_offset 8, -12
 566              		.cfi_offset 9, -8
 567              		.cfi_offset 14, -4
ARM GAS  /tmp/ccfjN8Ou.s 			page 11


 568              		.loc 1 151 0
 569 0004 5D4B     		ldr	r3, .L98
 570              		.loc 1 146 0
 571 0006 0668     		ldr	r6, [r0, #0]
 572              	.LVL60:
 573              		.loc 1 151 0
 574 0008 9B69     		ldr	r3, [r3, #24]
 575 000a 5D4A     		ldr	r2, .L98+4
 576              		.loc 1 147 0
 577 000c D0F80480 		ldr	r8, [r0, #4]
 578              	.LVL61:
 579              		.loc 1 152 0
 580 0010 5C49     		ldr	r1, .L98+8
 581              		.loc 1 151 0
 582 0012 9A61     		str	r2, [r3, #24]
 583              		.loc 1 143 0
 584 0014 97B0     		sub	sp, sp, #92
 585              	.LCFI10:
 586              		.cfi_def_cfa_offset 120
 587              		.loc 1 152 0
 588 0016 3046     		mov	r0, r6
 589              	.LVL62:
 590 0018 FFF7FEFF 		bl	chprintf
 591              	.LVL63:
 592              	.LBB40:
 593              	.LBB41:
 594              		.loc 1 65 0
 595 001c DFF88491 		ldr	r9, .L98+40
 596              	.L91:
 597              	.LBE41:
 598              	.LBE40:
 599              		.loc 1 154 0
 600 0020 3046     		mov	r0, r6
 601 0022 5949     		ldr	r1, .L98+12
 602 0024 FFF7FEFF 		bl	chprintf
 603              	.LVL64:
 604              		.loc 1 155 0
 605 0028 3046     		mov	r0, r6
 606 002a 06A9     		add	r1, sp, #24
 607 002c 4022     		movs	r2, #64
 608 002e FFF7FEFF 		bl	shellGetLine
 609              	.LVL65:
 610 0032 0446     		mov	r4, r0
 611 0034 0028     		cmp	r0, #0
 612 0036 2FD1     		bne	.L94
 613              		.loc 1 159 0
 614 0038 6946     		mov	r1, sp
 615 003a 06A8     		add	r0, sp, #24
 616 003c FFF7FEFF 		bl	_strtok.constprop.2
 617              	.LVL66:
 618              		.loc 1 162 0
 619 0040 6946     		mov	r1, sp
 620              		.loc 1 159 0
 621 0042 0746     		mov	r7, r0
 622              	.LVL67:
 623              		.loc 1 162 0
 624 0044 0020     		movs	r0, #0
ARM GAS  /tmp/ccfjN8Ou.s 			page 12


 625              	.LVL68:
 626              		.loc 1 143 0
 627 0046 6D46     		mov	r5, sp
 628              		.loc 1 162 0
 629 0048 FFF7FEFF 		bl	_strtok.constprop.2
 630              	.LVL69:
 631 004c 50B1     		cbz	r0, .L95
 632              	.L52:
 633              		.loc 1 163 0
 634 004e 042C     		cmp	r4, #4
 635 0050 1BD0     		beq	.L96
 636              		.loc 1 168 0
 637 0052 45F8040F 		str	r0, [r5, #4]!
 638              		.loc 1 162 0
 639 0056 6946     		mov	r1, sp
 640 0058 0020     		movs	r0, #0
 641              	.LVL70:
 642              		.loc 1 168 0
 643 005a 0134     		adds	r4, r4, #1
 644              	.LVL71:
 645              		.loc 1 162 0
 646 005c FFF7FEFF 		bl	_strtok.constprop.2
 647              	.LVL72:
 648 0060 0028     		cmp	r0, #0
 649 0062 F4D1     		bne	.L52
 650              	.L95:
 651              		.loc 1 170 0
 652 0064 16AA     		add	r2, sp, #88
 653 0066 02EB8403 		add	r3, r2, r4, lsl #2
 654 006a 43F8540C 		str	r0, [r3, #-84]
 655              		.loc 1 171 0
 656 006e 002F     		cmp	r7, #0
 657 0070 D6D0     		beq	.L91
 658              		.loc 1 172 0
 659 0072 3846     		mov	r0, r7
 660              	.LVL73:
 661 0074 4549     		ldr	r1, .L98+16
 662 0076 FFF7FEFF 		bl	strcasecmp
 663              	.LVL74:
 664 007a F8B9     		cbnz	r0, .L53
 665              		.loc 1 173 0
 666 007c 84B1     		cbz	r4, .L48
 667              	.LVL75:
 668              	.LBB43:
 669              	.LBB44:
 670              		.loc 1 60 0
 671 007e 3046     		mov	r0, r6
 672 0080 4349     		ldr	r1, .L98+20
 673 0082 424A     		ldr	r2, .L98+16
 674 0084 FFF7FEFF 		bl	chprintf
 675              	.LVL76:
 676              	.LBE44:
 677              	.LBE43:
 678              		.loc 1 175 0
 679 0088 CAE7     		b	.L91
 680              	.LVL77:
 681              	.L96:
ARM GAS  /tmp/ccfjN8Ou.s 			page 13


 682              		.loc 1 164 0
 683 008a 3046     		mov	r0, r6
 684              	.LVL78:
 685 008c 4149     		ldr	r1, .L98+24
 686 008e FFF7FEFF 		bl	chprintf
 687              	.LVL79:
 688              		.loc 1 170 0
 689 0092 0023     		movs	r3, #0
 690 0094 0593     		str	r3, [sp, #20]
 691 0096 C3E7     		b	.L91
 692              	.LVL80:
 693              	.L94:
 694              		.loc 1 156 0
 695 0098 3046     		mov	r0, r6
 696 009a 3F49     		ldr	r1, .L98+28
 697 009c FFF7FEFF 		bl	chprintf
 698              	.LVL81:
 699              	.L48:
 700              	.LBB45:
 701              		.loc 1 199 0
 702 00a0 2023     		movs	r3, #32
 703              	.LVL82:
 704              	@ 199 "../../os/various/shell.c" 1
 705 00a2 83F31188 		msr     BASEPRI, r3
 706              	@ 0 "" 2
 707              	.LVL83:
 708              		.thumb
 709              	.LBE45:
 710              		.loc 1 200 0
 711 00a6 0021     		movs	r1, #0
 712 00a8 3C48     		ldr	r0, .L98+32
 713 00aa FFF7FEFF 		bl	chEvtBroadcastFlagsI
 714              	.LVL84:
 715              		.loc 1 201 0
 716 00ae 0020     		movs	r0, #0
 717 00b0 FFF7FEFF 		bl	chThdExitS
 718              	.LVL85:
 719              		.loc 1 203 0
 720 00b4 0020     		movs	r0, #0
 721 00b6 17B0     		add	sp, sp, #92
 722 00b8 BDE8F083 		pop	{r4, r5, r6, r7, r8, r9, pc}
 723              	.LVL86:
 724              	.L53:
 725              		.loc 1 179 0
 726 00bc 3846     		mov	r0, r7
 727 00be 3849     		ldr	r1, .L98+36
 728 00c0 FFF7FEFF 		bl	strcasecmp
 729              	.LVL87:
 730 00c4 30B9     		cbnz	r0, .L97
 731              	.LBB46:
 732              	.LBB47:
 733              		.loc 1 60 0
 734 00c6 3046     		mov	r0, r6
 735              	.LBE47:
 736              	.LBE46:
 737              		.loc 1 180 0
 738 00c8 CCB1     		cbz	r4, .L58
ARM GAS  /tmp/ccfjN8Ou.s 			page 14


 739              	.LVL88:
 740              	.LBB49:
 741              	.LBB48:
 742              		.loc 1 60 0
 743 00ca 3149     		ldr	r1, .L98+20
 744 00cc 344A     		ldr	r2, .L98+36
 745 00ce FFF7FEFF 		bl	chprintf
 746              	.LVL89:
 747              	.LBE48:
 748              	.LBE49:
 749              		.loc 1 182 0
 750 00d2 A5E7     		b	.L91
 751              	.LVL90:
 752              	.L97:
 753              	.LBB50:
 754              	.LBB51:
 755              		.loc 1 125 0
 756 00d4 D9F80000 		ldr	r0, [r9, #0]
 757 00d8 0028     		cmp	r0, #0
 758 00da 33D0     		beq	.L57
 759 00dc 314D     		ldr	r5, .L98+40
 760 00de 03E0     		b	.L66
 761              	.LVL91:
 762              	.L65:
 763 00e0 55F8080F 		ldr	r0, [r5, #8]!
 764              	.LVL92:
 765 00e4 0028     		cmp	r0, #0
 766 00e6 2DD0     		beq	.L57
 767              	.LVL93:
 768              	.L66:
 769              		.loc 1 126 0
 770 00e8 3946     		mov	r1, r7
 771 00ea FFF7FEFF 		bl	strcasecmp
 772              	.LVL94:
 773 00ee 0028     		cmp	r0, #0
 774 00f0 F6D1     		bne	.L65
 775              	.LVL95:
 776              	.L93:
 777              	.LBE51:
 778              	.LBE50:
 779              	.LBB52:
 780              	.LBB53:
 781              		.loc 1 127 0
 782 00f2 6B68     		ldr	r3, [r5, #4]
 783 00f4 3046     		mov	r0, r6
 784 00f6 2146     		mov	r1, r4
 785 00f8 01AA     		add	r2, sp, #4
 786 00fa 9847     		blx	r3
 787              	.LVL96:
 788 00fc 90E7     		b	.L91
 789              	.LVL97:
 790              	.L58:
 791              	.LBE53:
 792              	.LBE52:
 793              		.loc 1 184 0
 794 00fe 2A49     		ldr	r1, .L98+44
 795 0100 284C     		ldr	r4, .L98+40
ARM GAS  /tmp/ccfjN8Ou.s 			page 15


 796              	.LVL98:
 797 0102 FFF7FEFF 		bl	chprintf
 798              	.LVL99:
 799              	.LBB55:
 800              	.LBB42:
 801              		.loc 1 65 0
 802 0106 D9F80020 		ldr	r2, [r9, #0]
 803 010a 3AB1     		cbz	r2, .L63
 804              	.LVL100:
 805              	.L62:
 806              		.loc 1 66 0
 807 010c 3046     		mov	r0, r6
 808 010e 2749     		ldr	r1, .L98+48
 809 0110 FFF7FEFF 		bl	chprintf
 810              	.LVL101:
 811              		.loc 1 65 0
 812 0114 54F8082F 		ldr	r2, [r4, #8]!
 813 0118 002A     		cmp	r2, #0
 814 011a F7D1     		bne	.L62
 815              	.L63:
 816              	.LBE42:
 817              	.LBE55:
 818              		.loc 1 186 0
 819 011c B8F1000F 		cmp	r8, #0
 820 0120 0BD0     		beq	.L61
 821              	.LVL102:
 822              	.LBB56:
 823              	.LBB57:
 824              		.loc 1 65 0
 825 0122 D8F80020 		ldr	r2, [r8, #0]
 826 0126 42B1     		cbz	r2, .L61
 827 0128 4446     		mov	r4, r8
 828              	.LVL103:
 829              	.L64:
 830              		.loc 1 66 0
 831 012a 3046     		mov	r0, r6
 832 012c 1F49     		ldr	r1, .L98+48
 833 012e FFF7FEFF 		bl	chprintf
 834              	.LVL104:
 835              		.loc 1 65 0
 836 0132 54F8082F 		ldr	r2, [r4, #8]!
 837 0136 002A     		cmp	r2, #0
 838 0138 F7D1     		bne	.L64
 839              	.L61:
 840              	.LBE57:
 841              	.LBE56:
 842              		.loc 1 188 0
 843 013a 3046     		mov	r0, r6
 844 013c 1C49     		ldr	r1, .L98+52
 845 013e FFF7FEFF 		bl	chprintf
 846              	.LVL105:
 847 0142 6DE7     		b	.L91
 848              	.LVL106:
 849              	.L57:
 850              		.loc 1 190 0
 851 0144 B8F1000F 		cmp	r8, #0
 852 0148 0DD0     		beq	.L69
ARM GAS  /tmp/ccfjN8Ou.s 			page 16


 853              	.LVL107:
 854              	.LBB58:
 855              	.LBB54:
 856              		.loc 1 125 0
 857 014a D8F80000 		ldr	r0, [r8, #0]
 858 014e 50B1     		cbz	r0, .L69
 859 0150 4546     		mov	r5, r8
 860 0152 02E0     		b	.L68
 861              	.LVL108:
 862              	.L67:
 863 0154 55F8080F 		ldr	r0, [r5, #8]!
 864              	.LVL109:
 865 0158 28B1     		cbz	r0, .L69
 866              	.LVL110:
 867              	.L68:
 868              		.loc 1 126 0
 869 015a 3946     		mov	r1, r7
 870 015c FFF7FEFF 		bl	strcasecmp
 871              	.LVL111:
 872 0160 0028     		cmp	r0, #0
 873 0162 F7D1     		bne	.L67
 874 0164 C5E7     		b	.L93
 875              	.LVL112:
 876              	.L69:
 877              	.LBE54:
 878              	.LBE58:
 879              		.loc 1 192 0
 880 0166 3046     		mov	r0, r6
 881 0168 1249     		ldr	r1, .L98+56
 882 016a 3A46     		mov	r2, r7
 883 016c FFF7FEFF 		bl	chprintf
 884              	.LVL113:
 885              		.loc 1 193 0
 886 0170 3046     		mov	r0, r6
 887 0172 1149     		ldr	r1, .L98+60
 888 0174 FFF7FEFF 		bl	chprintf
 889              	.LVL114:
 890 0178 52E7     		b	.L91
 891              	.L99:
 892 017a 00BF     		.align	2
 893              	.L98:
 894 017c 00000000 		.word	rlist
 895 0180 68010000 		.word	.LC25
 896 0184 70010000 		.word	.LC26
 897 0188 88010000 		.word	.LC27
 898 018c B4010000 		.word	.LC30
 899 0190 00000000 		.word	.LC0
 900 0194 9C010000 		.word	.LC29
 901 0198 90010000 		.word	.LC28
 902 019c 00000000 		.word	.LANCHOR1
 903 01a0 BC010000 		.word	.LC31
 904 01a4 00000000 		.word	.LANCHOR2
 905 01a8 C4010000 		.word	.LC32
 906 01ac DC010000 		.word	.LC33
 907 01b0 64010000 		.word	.LC24
 908 01b4 E0010000 		.word	.LC34
 909 01b8 E4010000 		.word	.LC35
ARM GAS  /tmp/ccfjN8Ou.s 			page 17


 910              		.cfi_endproc
 911              	.LFE124:
 912              		.size	shell_thread, .-shell_thread
 913              		.global	shell_terminated
 914 01bc AFF30080 		.section	.rodata
 915              		.align	2
 916              		.set	.LANCHOR0,. + 0
 917              	.LC22:
 918 0000 20003900 		.ascii	" \0009\000"
 919              		.section	.data.local_commands,"aw",%progbits
 920              		.align	2
 921              		.set	.LANCHOR2,. + 0
 922              		.type	local_commands, %object
 923              		.size	local_commands, 24
 924              	local_commands:
 925 0000 1C000000 		.word	.LC3
 926 0004 00000000 		.word	cmd_info
 927 0008 0C000000 		.word	.LC1
 928 000c 00000000 		.word	cmd_systime
 929 0010 00000000 		.word	0
 930 0014 00000000 		.word	0
 931              		.section	.rodata.str1.4,"aMS",%progbits,1
 932              		.align	2
 933              	.LC0:
 934 0000 55736167 		.ascii	"Usage: %s\015\012\000"
 934      653A2025 
 934      730D0A00 
 935              	.LC1:
 936 000c 73797374 		.ascii	"systime\000"
 936      696D6500 
 937              	.LC2:
 938 0014 256C750D 		.ascii	"%lu\015\012\000"
 938      0A00
 939 001a 0000     		.space	2
 940              	.LC3:
 941 001c 696E666F 		.ascii	"info\000"
 941      00
 942 0021 000000   		.space	3
 943              	.LC4:
 944 0024 4B65726E 		.ascii	"Kernel:       %s\015\012\000"
 944      656C3A20 
 944      20202020 
 944      20202573 
 944      0D0A00
 945 0037 00       		.space	1
 946              	.LC5:
 947 0038 322E352E 		.ascii	"2.5.1unstable\000"
 947      31756E73 
 947      7461626C 
 947      6500
 948 0046 0000     		.space	2
 949              	.LC6:
 950 0048 436F6D70 		.ascii	"Compiler:     %s\015\012\000"
 950      696C6572 
 950      3A202020 
 950      20202573 
 950      0D0A00
ARM GAS  /tmp/ccfjN8Ou.s 			page 18


 951 005b 00       		.space	1
 952              	.LC7:
 953 005c 47434320 		.ascii	"GCC 4.7.2\000"
 953      342E372E 
 953      3200
 954 0066 0000     		.space	2
 955              	.LC8:
 956 0068 41726368 		.ascii	"Architecture: %s\015\012\000"
 956      69746563 
 956      74757265 
 956      3A202573 
 956      0D0A00
 957 007b 00       		.space	1
 958              	.LC9:
 959 007c 41524D76 		.ascii	"ARMv7-ME\000"
 959      372D4D45 
 959      00
 960 0085 000000   		.space	3
 961              	.LC10:
 962 0088 436F7265 		.ascii	"Core Variant: %s\015\012\000"
 962      20566172 
 962      69616E74 
 962      3A202573 
 962      0D0A00
 963 009b 00       		.space	1
 964              	.LC11:
 965 009c 436F7274 		.ascii	"Cortex-M4\000"
 965      65782D4D 
 965      3400
 966 00a6 0000     		.space	2
 967              	.LC12:
 968 00a8 506F7274 		.ascii	"Port Info:    %s\015\012\000"
 968      20496E66 
 968      6F3A2020 
 968      20202573 
 968      0D0A00
 969 00bb 00       		.space	1
 970              	.LC13:
 971 00bc 41647661 		.ascii	"Advanced kernel mode\000"
 971      6E636564 
 971      206B6572 
 971      6E656C20 
 971      6D6F6465 
 972 00d1 000000   		.space	3
 973              	.LC14:
 974 00d4 506C6174 		.ascii	"Platform:     %s\015\012\000"
 974      666F726D 
 974      3A202020 
 974      20202573 
 974      0D0A00
 975 00e7 00       		.space	1
 976              	.LC15:
 977 00e8 53544D33 		.ascii	"STM32F4xx High Performance\000"
 977      32463478 
 977      78204869 
 977      67682050 
 977      6572666F 
ARM GAS  /tmp/ccfjN8Ou.s 			page 19


 978 0103 00       		.space	1
 979              	.LC16:
 980 0104 426F6172 		.ascii	"Board:        %s\015\012\000"
 980      643A2020 
 980      20202020 
 980      20202573 
 980      0D0A00
 981 0117 00       		.space	1
 982              	.LC17:
 983 0118 4F6C696D 		.ascii	"Olimex STM32-E407\000"
 983      65782053 
 983      544D3332 
 983      2D453430 
 983      3700
 984 012a 0000     		.space	2
 985              	.LC18:
 986 012c 4275696C 		.ascii	"Build time:   %s%s%s\015\012\000"
 986      64207469 
 986      6D653A20 
 986      20202573 
 986      25732573 
 987 0143 00       		.space	1
 988              	.LC19:
 989 0144 4A616E20 		.ascii	"Jan 15 2013\000"
 989      31352032 
 989      30313300 
 990              	.LC20:
 991 0150 202D2000 		.ascii	" - \000"
 992              	.LC21:
 993 0154 31323A33 		.ascii	"12:34:01\000"
 993      343A3031 
 993      00
 994 015d 000000   		.space	3
 995              	.LC23:
 996 0160 5E4400   		.ascii	"^D\000"
 997 0163 00       		.space	1
 998              	.LC24:
 999 0164 0D0A00   		.ascii	"\015\012\000"
 1000 0167 00       		.space	1
 1001              	.LC25:
 1002 0168 7368656C 		.ascii	"shell\000"
 1002      6C00
 1003 016e 0000     		.space	2
 1004              	.LC26:
 1005 0170 0D0A4368 		.ascii	"\015\012ChibiOS/RT Shell\015\012\000"
 1005      6962694F 
 1005      532F5254 
 1005      20536865 
 1005      6C6C0D0A 
 1006 0185 000000   		.space	3
 1007              	.LC27:
 1008 0188 63683E20 		.ascii	"ch> \000"
 1008      00
 1009 018d 000000   		.space	3
 1010              	.LC28:
 1011 0190 0D0A6C6F 		.ascii	"\015\012logout\000"
 1011      676F7574 
ARM GAS  /tmp/ccfjN8Ou.s 			page 20


 1011      00
 1012 0199 000000   		.space	3
 1013              	.LC29:
 1014 019c 746F6F20 		.ascii	"too many arguments\015\012\000"
 1014      6D616E79 
 1014      20617267 
 1014      756D656E 
 1014      74730D0A 
 1015 01b1 000000   		.space	3
 1016              	.LC30:
 1017 01b4 65786974 		.ascii	"exit\000"
 1017      00
 1018 01b9 000000   		.space	3
 1019              	.LC31:
 1020 01bc 68656C70 		.ascii	"help\000"
 1020      00
 1021 01c1 000000   		.space	3
 1022              	.LC32:
 1023 01c4 436F6D6D 		.ascii	"Commands: help exit \000"
 1023      616E6473 
 1023      3A206865 
 1023      6C702065 
 1023      78697420 
 1024 01d9 000000   		.space	3
 1025              	.LC33:
 1026 01dc 25732000 		.ascii	"%s \000"
 1027              	.LC34:
 1028 01e0 257300   		.ascii	"%s\000"
 1029 01e3 00       		.space	1
 1030              	.LC35:
 1031 01e4 203F0D0A 		.ascii	" ?\015\012\000"
 1031      00
 1032 01e9 000000   		.section	.bss.shell_terminated,"aw",%nobits
 1033              		.align	2
 1034              		.set	.LANCHOR1,. + 0
 1035              		.type	shell_terminated, %object
 1036              		.size	shell_terminated, 4
 1037              	shell_terminated:
 1038 0000 00000000 		.space	4
 1039              		.text
 1040              	.Letext0:
 1041              		.file 2 "/opt/psas/x-tools/stm32f407/arm-psas-eabi/bin/../lib/gcc/arm-psas-eabi/4.7.2/include/stdd
 1042              		.file 3 "/opt/psas/x-tools/stm32f407/arm-psas-eabi/bin/../lib/gcc/arm-psas-eabi/4.7.2/../../../../
 1043              		.file 4 "../../os/ports/GCC/ARMCMx/chtypes.h"
 1044              		.file 5 "../../os/kernel/include/chlists.h"
 1045              		.file 6 "../../os/kernel/include/chthreads.h"
 1046              		.file 7 "../../os/ports/GCC/ARMCMx/chcore_v7m.h"
 1047              		.file 8 "../../os/kernel/include/chvt.h"
 1048              		.file 9 "../../os/kernel/include/chschd.h"
 1049              		.file 10 "../../os/kernel/include/chmtx.h"
 1050              		.file 11 "../../os/kernel/include/chevents.h"
 1051              		.file 12 "../../os/kernel/include/chmemcore.h"
 1052              		.file 13 "../../os/kernel/include/chheap.h"
 1053              		.file 14 "../../os/kernel/include/chstreams.h"
 1054              		.file 15 "../../os/various/shell.h"
 1055              		.file 16 "../../os/ports/common/ARMCMx/CMSIS/include/core_cm4.h"
 1056              		.file 17 "/opt/psas/x-tools/stm32f407/arm-psas-eabi/bin/../lib/gcc/arm-psas-eabi/4.7.2/../../../..
ARM GAS  /tmp/ccfjN8Ou.s 			page 21


 1057              		.file 18 "../../os/kernel/include/chdynamic.h"
 1058              		.file 19 "../../os/various/chprintf.h"
 1059              		.file 20 "<built-in>"