ARM GAS  /tmp/ccPo84yg.s 			page 1


   1              		.syntax unified
   2              		.cpu cortex-m4
   3              		.eabi_attribute 27, 3
   4              		.eabi_attribute 28, 1
   5              		.fpu fpv4-sp-d16
   6              		.eabi_attribute 20, 1
   7              		.eabi_attribute 21, 1
   8              		.eabi_attribute 23, 3
   9              		.eabi_attribute 24, 1
  10              		.eabi_attribute 25, 1
  11              		.eabi_attribute 26, 1
  12              		.eabi_attribute 30, 2
  13              		.eabi_attribute 34, 1
  14              		.eabi_attribute 18, 4
  15              		.thumb
  16              		.file	"sockets.c"
  17              		.text
  18              	.Ltext0:
  19              		.cfi_sections	.debug_frame
  20              		.section	.text.alloc_socket,"ax",%progbits
  21              		.align	2
  22              		.p2align 4,,15
  23              		.thumb
  24              		.thumb_func
  25              		.type	alloc_socket, %function
  26              	alloc_socket:
  27              	.LFB10:
  28              		.file 1 "../../ext/lwip/src/api/sockets.c"
  29              		.loc 1 244 0
  30              		.cfi_startproc
  31              		@ args = 0, pretend = 0, frame = 0
  32              		@ frame_needed = 0, uses_anonymous_args = 0
  33              		@ link register save eliminated.
  34              	.LVL0:
  35 0000 2DE9F001 		push	{r4, r5, r6, r7, r8}
  36              	.LCFI0:
  37              		.cfi_def_cfa_offset 20
  38              		.cfi_offset 4, -20
  39              		.cfi_offset 5, -16
  40              		.cfi_offset 6, -12
  41              		.cfi_offset 7, -8
  42              		.cfi_offset 8, -4
  43              		.loc 1 244 0
  44 0004 0022     		movs	r2, #0
  45 0006 174D     		ldr	r5, .L11
  46              		.loc 1 249 0
  47 0008 1346     		mov	r3, r2
  48              	.LVL1:
  49              	.L5:
  50              		.loc 1 252 0
  51 000a AC58     		ldr	r4, [r5, r2]
  52 000c 154E     		ldr	r6, .L11
  53 000e 1832     		adds	r2, r2, #24
  54 0010 44B1     		cbz	r4, .L9
  55              		.loc 1 249 0
  56 0012 0133     		adds	r3, r3, #1
  57              	.LVL2:
ARM GAS  /tmp/ccPo84yg.s 			page 2


  58 0014 042B     		cmp	r3, #4
  59 0016 F8D1     		bne	.L5
  60              		.loc 1 270 0
  61 0018 4FF0FF33 		mov	r3, #-1
  62              	.LVL3:
  63              	.L4:
  64              		.loc 1 271 0
  65 001c 1846     		mov	r0, r3
  66              	.LVL4:
  67 001e BDE8F001 		pop	{r4, r5, r6, r7, r8}
  68 0022 7047     		bx	lr
  69              	.LVL5:
  70              	.L9:
  71              		.loc 1 253 0
  72 0024 5F00     		lsls	r7, r3, #1
  73 0026 07EB030C 		add	ip, r7, r3
  74              		.loc 1 262 0
  75 002a 90F80080 		ldrb	r8, [r0, #0]	@ zero_extendqisi2
  76              		.loc 1 253 0
  77 002e 4FEACC0C 		lsl	ip, ip, #3
  78 0032 06EB0C02 		add	r2, r6, ip
  79              		.loc 1 262 0
  80 0036 B8F1100F 		cmp	r8, #16
  81              		.loc 1 253 0
  82 003a 46F80C00 		str	r0, [r6, ip]
  83              		.loc 1 257 0
  84 003e 5460     		str	r4, [r2, #4]
  85              		.loc 1 258 0
  86 0040 1481     		strh	r4, [r2, #8]	@ movhi
  87              		.loc 1 259 0
  88 0042 5481     		strh	r4, [r2, #10]	@ movhi
  89              		.loc 1 262 0
  90 0044 09D0     		beq	.L10
  91 0046 0121     		movs	r1, #1
  92              	.LVL6:
  93              	.L3:
  94              		.loc 1 262 0 is_stmt 0 discriminator 4
  95 0048 FF18     		adds	r7, r7, r3
  96 004a 05EBC705 		add	r5, r5, r7, lsl #3
  97              		.loc 1 263 0 is_stmt 1 discriminator 4
  98 004e 0022     		movs	r2, #0
  99              		.loc 1 262 0 discriminator 4
 100 0050 A981     		strh	r1, [r5, #12]	@ movhi
 101              		.loc 1 263 0 discriminator 4
 102 0052 EA81     		strh	r2, [r5, #14]	@ movhi
 103              		.loc 1 264 0 discriminator 4
 104 0054 2A61     		str	r2, [r5, #16]
 105              		.loc 1 265 0 discriminator 4
 106 0056 6A61     		str	r2, [r5, #20]
 107              		.loc 1 266 0 discriminator 4
 108 0058 E0E7     		b	.L4
 109              	.LVL7:
 110              	.L10:
 111 005a 0031     		adds	r1, r1, #0
 112 005c 18BF     		it	ne
 113 005e 0121     		movne	r1, #1
 114              	.LVL8:
ARM GAS  /tmp/ccPo84yg.s 			page 3


 115 0060 F2E7     		b	.L3
 116              	.L12:
 117 0062 00BF     		.align	2
 118              	.L11:
 119 0064 00000000 		.word	.LANCHOR0
 120              		.cfi_endproc
 121              	.LFE10:
 122              		.size	alloc_socket, .-alloc_socket
 123 0068 AFF30080 		.section	.text.lwip_setsockopt_internal,"ax",%progbits
 123      AFF30080 
 124              		.align	2
 125              		.p2align 4,,15
 126              		.thumb
 127              		.thumb_func
 128              		.type	lwip_setsockopt_internal, %function
 129              	lwip_setsockopt_internal:
 130              	.LFB34:
 131              		.loc 1 2051 0
 132              		.cfi_startproc
 133              		@ args = 0, pretend = 0, frame = 8
 134              		@ frame_needed = 0, uses_anonymous_args = 0
 135              	.LVL9:
 136 0000 10B5     		push	{r4, lr}
 137              	.LCFI1:
 138              		.cfi_def_cfa_offset 8
 139              		.cfi_offset 4, -8
 140              		.cfi_offset 14, -4
 141 0002 82B0     		sub	sp, sp, #8
 142              	.LCFI2:
 143              		.cfi_def_cfa_offset 16
 144              		.loc 1 2060 0
 145 0004 0028     		cmp	r0, #0
 146 0006 56D0     		beq	.L42
 147              	.LVL10:
 148              	.L14:
 149              		.loc 1 2071 0
 150 0008 4368     		ldr	r3, [r0, #4]
 151              		.loc 1 2063 0
 152 000a 0468     		ldr	r4, [r0, #0]
 153              	.LVL11:
 154              		.loc 1 2068 0
 155 000c 8268     		ldr	r2, [r0, #8]
 156              	.LVL12:
 157              		.loc 1 2069 0
 158 000e C168     		ldr	r1, [r0, #12]
 159              	.LVL13:
 160              		.loc 1 2071 0
 161 0010 062B     		cmp	r3, #6
 162 0012 29D0     		beq	.L17
 163 0014 40F6FF70 		movw	r0, #4095
 164              	.LVL14:
 165 0018 8342     		cmp	r3, r0
 166 001a 13D0     		beq	.L18
 167 001c 43B1     		cbz	r3, .L16
 168              	.LVL15:
 169              	.L38:
 170              		.loc 1 2247 0 discriminator 1
ARM GAS  /tmp/ccPo84yg.s 			page 4


 171 001e FFF7FEFF 		bl	port_halt
 172              	.LVL16:
 173 0022 2068     		ldr	r0, [r4, #0]
 174              	.L23:
 175              		.loc 1 2250 0
 176 0024 0C30     		adds	r0, r0, #12
 177              		.loc 1 2251 0
 178 0026 02B0     		add	sp, sp, #8
 179 0028 BDE81040 		pop	{r4, lr}
 180              		.loc 1 2250 0
 181 002c FFF7FEBF 		b	sys_sem_signal
 182              	.LVL17:
 183              	.L16:
 184              		.loc 1 2123 0
 185 0030 012A     		cmp	r2, #1
 186 0032 30D0     		beq	.L26
 187 0034 022A     		cmp	r2, #2
 188 0036 F2D1     		bne	.L38
 189              		.loc 1 2125 0
 190 0038 2368     		ldr	r3, [r4, #0]
 191              	.LVL18:
 192 003a 0A68     		ldr	r2, [r1, #0]
 193              	.LVL19:
 194 003c 5B68     		ldr	r3, [r3, #4]
 195 003e 9A72     		strb	r2, [r3, #10]
 196 0040 2068     		ldr	r0, [r4, #0]
 197              		.loc 1 2128 0
 198 0042 EFE7     		b	.L23
 199              	.LVL20:
 200              	.L18:
 201              		.loc 1 2075 0
 202 0044 202A     		cmp	r2, #32
 203 0046 05D0     		beq	.L20
 204 0048 41F20A03 		movw	r3, #4106
 205              	.LVL21:
 206 004c 9A42     		cmp	r2, r3
 207 004e 28D0     		beq	.L21
 208 0050 082A     		cmp	r2, #8
 209 0052 E4D1     		bne	.L38
 210              	.L20:
 211              		.loc 1 2088 0
 212 0054 0B68     		ldr	r3, [r1, #0]
 213 0056 002B     		cmp	r3, #0
 214 0058 3AD0     		beq	.L22
 215              		.loc 1 2089 0
 216 005a 2368     		ldr	r3, [r4, #0]
 217 005c 5B68     		ldr	r3, [r3, #4]
 218 005e 197A     		ldrb	r1, [r3, #8]	@ zero_extendqisi2
 219              	.LVL22:
 220 0060 0A43     		orrs	r2, r2, r1
 221              	.LVL23:
 222 0062 1A72     		strb	r2, [r3, #8]
 223 0064 2068     		ldr	r0, [r4, #0]
 224 0066 DDE7     		b	.L23
 225              	.LVL24:
 226              	.L17:
 227              		.loc 1 2177 0
ARM GAS  /tmp/ccPo84yg.s 			page 5


 228 0068 012A     		cmp	r2, #1
 229 006a 07D0     		beq	.L29
 230 006c 022A     		cmp	r2, #2
 231 006e D6D1     		bne	.L38
 232              		.loc 1 2188 0
 233 0070 2068     		ldr	r0, [r4, #0]
 234              	.LVL25:
 235 0072 0A68     		ldr	r2, [r1, #0]
 236              	.LVL26:
 237 0074 4368     		ldr	r3, [r0, #4]
 238              	.LVL27:
 239 0076 C3F89820 		str	r2, [r3, #152]
 240              		.loc 1 2191 0
 241 007a D3E7     		b	.L23
 242              	.LVL28:
 243              	.L29:
 244              		.loc 1 2179 0
 245 007c 0B68     		ldr	r3, [r1, #0]
 246              	.LVL29:
 247 007e 002B     		cmp	r3, #0
 248 0080 2ED0     		beq	.L31
 249              		.loc 1 2180 0
 250 0082 2368     		ldr	r3, [r4, #0]
 251 0084 5B68     		ldr	r3, [r3, #4]
 252 0086 93F82020 		ldrb	r2, [r3, #32]	@ zero_extendqisi2
 253              	.LVL30:
 254 008a 42F04002 		orr	r2, r2, #64
 255 008e 83F82020 		strb	r2, [r3, #32]
 256 0092 2068     		ldr	r0, [r4, #0]
 257              	.LVL31:
 258 0094 C6E7     		b	.L23
 259              	.LVL32:
 260              	.L26:
 261              		.loc 1 2130 0
 262 0096 2368     		ldr	r3, [r4, #0]
 263              	.LVL33:
 264 0098 0A68     		ldr	r2, [r1, #0]
 265              	.LVL34:
 266 009a 5B68     		ldr	r3, [r3, #4]
 267 009c 5A72     		strb	r2, [r3, #9]
 268 009e 2068     		ldr	r0, [r4, #0]
 269              		.loc 1 2133 0
 270 00a0 C0E7     		b	.L23
 271              	.LVL35:
 272              	.L21:
 273              		.loc 1 2108 0
 274 00a2 0B68     		ldr	r3, [r1, #0]
 275 00a4 63B1     		cbz	r3, .L24
 276              		.loc 1 2109 0
 277 00a6 2368     		ldr	r3, [r4, #0]
 278 00a8 5B68     		ldr	r3, [r3, #4]
 279 00aa 1A7C     		ldrb	r2, [r3, #16]	@ zero_extendqisi2
 280              	.LVL36:
 281 00ac 42F00102 		orr	r2, r2, #1
 282 00b0 1A74     		strb	r2, [r3, #16]
 283 00b2 2068     		ldr	r0, [r4, #0]
 284 00b4 B6E7     		b	.L23
ARM GAS  /tmp/ccPo84yg.s 			page 6


 285              	.LVL37:
 286              	.L42:
 287              		.loc 1 2060 0 discriminator 1
 288 00b6 0190     		str	r0, [sp, #4]
 289 00b8 FFF7FEFF 		bl	port_halt
 290              	.LVL38:
 291 00bc 0198     		ldr	r0, [sp, #4]
 292 00be A3E7     		b	.L14
 293              	.LVL39:
 294              	.L24:
 295              		.loc 1 2111 0
 296 00c0 2368     		ldr	r3, [r4, #0]
 297 00c2 5B68     		ldr	r3, [r3, #4]
 298 00c4 1A7C     		ldrb	r2, [r3, #16]	@ zero_extendqisi2
 299              	.LVL40:
 300 00c6 22F00102 		bic	r2, r2, #1
 301 00ca 1A74     		strb	r2, [r3, #16]
 302 00cc 2068     		ldr	r0, [r4, #0]
 303 00ce A9E7     		b	.L23
 304              	.LVL41:
 305              	.L22:
 306              		.loc 1 2091 0
 307 00d0 2368     		ldr	r3, [r4, #0]
 308 00d2 5B68     		ldr	r3, [r3, #4]
 309 00d4 197A     		ldrb	r1, [r3, #8]	@ zero_extendqisi2
 310              	.LVL42:
 311 00d6 21EA0202 		bic	r2, r1, r2
 312              	.LVL43:
 313 00da 1A72     		strb	r2, [r3, #8]
 314 00dc 2068     		ldr	r0, [r4, #0]
 315 00de A1E7     		b	.L23
 316              	.LVL44:
 317              	.L31:
 318              		.loc 1 2182 0
 319 00e0 2368     		ldr	r3, [r4, #0]
 320 00e2 5B68     		ldr	r3, [r3, #4]
 321 00e4 93F82020 		ldrb	r2, [r3, #32]	@ zero_extendqisi2
 322              	.LVL45:
 323 00e8 22F04002 		bic	r2, r2, #64
 324 00ec 83F82020 		strb	r2, [r3, #32]
 325 00f0 2068     		ldr	r0, [r4, #0]
 326              	.LVL46:
 327 00f2 97E7     		b	.L23
 328              		.cfi_endproc
 329              	.LFE34:
 330              		.size	lwip_setsockopt_internal, .-lwip_setsockopt_internal
 331 00f4 AFF30080 		.section	.text.lwip_getsockopt_internal,"ax",%progbits
 331      AFF30080 
 331      AFF30080 
 332              		.align	2
 333              		.p2align 4,,15
 334              		.thumb
 335              		.thumb_func
 336              		.type	lwip_getsockopt_internal, %function
 337              	lwip_getsockopt_internal:
 338              	.LFB32:
 339              		.loc 1 1641 0
ARM GAS  /tmp/ccPo84yg.s 			page 7


 340              		.cfi_startproc
 341              		@ args = 0, pretend = 0, frame = 8
 342              		@ frame_needed = 0, uses_anonymous_args = 0
 343              	.LVL47:
 344 0000 10B5     		push	{r4, lr}
 345              	.LCFI3:
 346              		.cfi_def_cfa_offset 8
 347              		.cfi_offset 4, -8
 348              		.cfi_offset 14, -4
 349 0002 82B0     		sub	sp, sp, #8
 350              	.LCFI4:
 351              		.cfi_def_cfa_offset 16
 352              		.loc 1 1650 0
 353 0004 0028     		cmp	r0, #0
 354 0006 66D0     		beq	.L83
 355              	.LVL48:
 356              	.L44:
 357              		.loc 1 1661 0
 358 0008 4368     		ldr	r3, [r0, #4]
 359              		.loc 1 1653 0
 360 000a 0468     		ldr	r4, [r0, #0]
 361              	.LVL49:
 362              		.loc 1 1658 0
 363 000c 8268     		ldr	r2, [r0, #8]
 364              	.LVL50:
 365              		.loc 1 1659 0
 366 000e C168     		ldr	r1, [r0, #12]
 367              	.LVL51:
 368              		.loc 1 1661 0
 369 0010 062B     		cmp	r3, #6
 370 0012 23D0     		beq	.L47
 371 0014 40F6FF70 		movw	r0, #4095
 372              	.LVL52:
 373 0018 8342     		cmp	r3, r0
 374 001a 12D0     		beq	.L48
 375 001c 43B1     		cbz	r3, .L46
 376              	.LVL53:
 377              	.L79:
 378              		.loc 1 1836 0 discriminator 1
 379 001e FFF7FEFF 		bl	port_halt
 380              	.LVL54:
 381 0022 2068     		ldr	r0, [r4, #0]
 382              	.L55:
 383              		.loc 1 1839 0
 384 0024 0C30     		adds	r0, r0, #12
 385              		.loc 1 1840 0
 386 0026 02B0     		add	sp, sp, #8
 387 0028 BDE81040 		pop	{r4, lr}
 388              		.loc 1 1839 0
 389 002c FFF7FEBF 		b	sys_sem_signal
 390              	.LVL55:
 391              	.L46:
 392              		.loc 1 1739 0
 393 0030 012A     		cmp	r2, #1
 394 0032 25D0     		beq	.L64
 395 0034 022A     		cmp	r2, #2
 396 0036 F2D1     		bne	.L79
ARM GAS  /tmp/ccPo84yg.s 			page 8


 397              		.loc 1 1741 0
 398 0038 2068     		ldr	r0, [r4, #0]
 399 003a 4368     		ldr	r3, [r0, #4]
 400              	.LVL56:
 401 003c 9B7A     		ldrb	r3, [r3, #10]	@ zero_extendqisi2
 402 003e 0B60     		str	r3, [r1, #0]
 403              		.loc 1 1744 0
 404 0040 F0E7     		b	.L55
 405              	.LVL57:
 406              	.L48:
 407              		.loc 1 1665 0
 408 0042 202A     		cmp	r2, #32
 409 0044 04D0     		beq	.L50
 410 0046 20DC     		bgt	.L54
 411 0048 022A     		cmp	r2, #2
 412 004a 01D0     		beq	.L50
 413 004c 082A     		cmp	r2, #8
 414 004e E6D1     		bne	.L79
 415              	.L50:
 416              		.loc 1 1679 0
 417 0050 2068     		ldr	r0, [r4, #0]
 418 0052 4368     		ldr	r3, [r0, #4]
 419              	.LVL58:
 420 0054 1B7A     		ldrb	r3, [r3, #8]	@ zero_extendqisi2
 421 0056 1A40     		ands	r2, r2, r3
 422              	.LVL59:
 423 0058 0A60     		str	r2, [r1, #0]
 424              		.loc 1 1682 0
 425 005a E3E7     		b	.L55
 426              	.LVL60:
 427              	.L47:
 428              		.loc 1 1780 0
 429 005c 012A     		cmp	r2, #1
 430 005e 07D0     		beq	.L67
 431 0060 022A     		cmp	r2, #2
 432 0062 DCD1     		bne	.L79
 433              		.loc 1 1787 0
 434 0064 2068     		ldr	r0, [r4, #0]
 435              	.LVL61:
 436 0066 4368     		ldr	r3, [r0, #4]
 437              	.LVL62:
 438 0068 D3F89830 		ldr	r3, [r3, #152]
 439 006c 0B60     		str	r3, [r1, #0]
 440              		.loc 1 1790 0
 441 006e D9E7     		b	.L55
 442              	.LVL63:
 443              	.L67:
 444              		.loc 1 1782 0
 445 0070 2068     		ldr	r0, [r4, #0]
 446              	.LVL64:
 447 0072 4368     		ldr	r3, [r0, #4]
 448              	.LVL65:
 449 0074 93F82030 		ldrb	r3, [r3, #32]	@ zero_extendqisi2
 450 0078 C3F38013 		ubfx	r3, r3, #6, #1
 451 007c 0B60     		str	r3, [r1, #0]
 452              		.loc 1 1785 0
 453 007e D1E7     		b	.L55
ARM GAS  /tmp/ccPo84yg.s 			page 9


 454              	.LVL66:
 455              	.L64:
 456              		.loc 1 1746 0
 457 0080 2068     		ldr	r0, [r4, #0]
 458 0082 4368     		ldr	r3, [r0, #4]
 459              	.LVL67:
 460 0084 5B7A     		ldrb	r3, [r3, #9]	@ zero_extendqisi2
 461 0086 0B60     		str	r3, [r1, #0]
 462              		.loc 1 1749 0
 463 0088 CCE7     		b	.L55
 464              	.LVL68:
 465              	.L54:
 466              		.loc 1 1665 0
 467 008a 41F20803 		movw	r3, #4104
 468              	.LVL69:
 469 008e 9A42     		cmp	r2, r3
 470 0090 26D0     		beq	.L52
 471 0092 0233     		adds	r3, r3, #2
 472 0094 9A42     		cmp	r2, r3
 473 0096 17D0     		beq	.L53
 474 0098 41F20703 		movw	r3, #4103
 475 009c 9A42     		cmp	r2, r3
 476 009e BED1     		bne	.L79
 477              		.loc 1 1707 0
 478 00a0 2369     		ldr	r3, [r4, #16]
 479              		.loc 1 1708 0
 480 00a2 2068     		ldr	r0, [r4, #0]
 481              		.loc 1 1707 0
 482 00a4 002B     		cmp	r3, #0
 483 00a6 18BF     		it	ne
 484 00a8 732B     		cmpne	r3, #115
 485 00aa 09D1     		bne	.L61
 486              		.loc 1 1708 0
 487 00ac 90F90830 		ldrsb	r3, [r0, #8]
 488 00b0 5B42     		negs	r3, r3
 489 00b2 0F2B     		cmp	r3, #15
 490 00b4 9ABF     		itte	ls
 491 00b6 154A     		ldrls	r2, .L84
 492              	.LVL70:
 493 00b8 52F82330 		ldrls	r3, [r2, r3, lsl #2]
 494 00bc 0523     		movhi	r3, #5
 495 00be 2361     		str	r3, [r4, #16]
 496              	.L61:
 497              		.loc 1 1710 0
 498 00c0 0B60     		str	r3, [r1, #0]
 499              		.loc 1 1711 0
 500 00c2 0023     		movs	r3, #0
 501 00c4 2361     		str	r3, [r4, #16]
 502              		.loc 1 1714 0
 503 00c6 ADE7     		b	.L55
 504              	.LVL71:
 505              	.L53:
 506              		.loc 1 1728 0
 507 00c8 2068     		ldr	r0, [r4, #0]
 508 00ca 4368     		ldr	r3, [r0, #4]
 509 00cc 1B7C     		ldrb	r3, [r3, #16]	@ zero_extendqisi2
 510 00ce 03F00103 		and	r3, r3, #1
ARM GAS  /tmp/ccPo84yg.s 			page 10


 511 00d2 0B60     		str	r3, [r1, #0]
 512              		.loc 1 1729 0
 513 00d4 A6E7     		b	.L55
 514              	.LVL72:
 515              	.L83:
 516              		.loc 1 1650 0 discriminator 1
 517 00d6 0190     		str	r0, [sp, #4]
 518 00d8 FFF7FEFF 		bl	port_halt
 519              	.LVL73:
 520 00dc 0198     		ldr	r0, [sp, #4]
 521 00de 93E7     		b	.L44
 522              	.LVL74:
 523              	.L52:
 524              		.loc 1 1685 0
 525 00e0 2068     		ldr	r0, [r4, #0]
 526 00e2 0278     		ldrb	r2, [r0, #0]	@ zero_extendqisi2
 527              	.LVL75:
 528 00e4 02F0F003 		and	r3, r2, #240
 529 00e8 202B     		cmp	r3, #32
 530 00ea 08D0     		beq	.L58
 531 00ec 402B     		cmp	r3, #64
 532 00ee 09D0     		beq	.L59
 533 00f0 102B     		cmp	r3, #16
 534              		.loc 1 1696 0
 535 00f2 18BF     		it	ne
 536 00f4 0A60     		strne	r2, [r1, #0]
 537              		.loc 1 1685 0
 538 00f6 95D1     		bne	.L55
 539              		.loc 1 1690 0
 540 00f8 0123     		movs	r3, #1
 541 00fa 0B60     		str	r3, [r1, #0]
 542              		.loc 1 1691 0
 543 00fc 92E7     		b	.L55
 544              	.L58:
 545              		.loc 1 1693 0
 546 00fe 0223     		movs	r3, #2
 547 0100 0B60     		str	r3, [r1, #0]
 548              		.loc 1 1694 0
 549 0102 8FE7     		b	.L55
 550              	.L59:
 551              		.loc 1 1687 0
 552 0104 0323     		movs	r3, #3
 553 0106 0B60     		str	r3, [r1, #0]
 554              		.loc 1 1688 0
 555 0108 8CE7     		b	.L55
 556              	.L85:
 557 010a 00BF     		.align	2
 558              	.L84:
 559 010c 00000000 		.word	.LANCHOR1
 560              		.cfi_endproc
 561              	.LFE32:
 562              		.size	lwip_getsockopt_internal, .-lwip_getsockopt_internal
 563              		.section	.text.event_callback,"ax",%progbits
 564              		.align	2
 565              		.p2align 4,,15
 566              		.thumb
 567              		.thumb_func
ARM GAS  /tmp/ccPo84yg.s 			page 11


 568              		.type	event_callback, %function
 569              	event_callback:
 570              	.LFB26:
 571              		.loc 1 1235 0
 572              		.cfi_startproc
 573              		@ args = 0, pretend = 0, frame = 0
 574              		@ frame_needed = 0, uses_anonymous_args = 0
 575              	.LVL76:
 576 0000 2DE9F843 		push	{r3, r4, r5, r6, r7, r8, r9, lr}
 577              	.LCFI5:
 578              		.cfi_def_cfa_offset 32
 579              		.cfi_offset 3, -32
 580              		.cfi_offset 4, -28
 581              		.cfi_offset 5, -24
 582              		.cfi_offset 6, -20
 583              		.cfi_offset 7, -16
 584              		.cfi_offset 8, -12
 585              		.cfi_offset 9, -8
 586              		.cfi_offset 14, -4
 587              		.loc 1 1245 0
 588 0004 B0B1     		cbz	r0, .L86
 589              		.loc 1 1246 0
 590 0006 8469     		ldr	r4, [r0, #24]
 591              	.LVL77:
 592              		.loc 1 1247 0
 593 0008 002C     		cmp	r4, #0
 594 000a 11DB     		blt	.L134
 595              	.LVL78:
 596              	.LBB45:
 597              	.LBB46:
 598              		.loc 1 199 0
 599 000c 032C     		cmp	r4, #3
 600 000e 11D8     		bhi	.L86
 601              		.loc 1 205 0
 602 0010 04EB4403 		add	r3, r4, r4, lsl #1
 603 0014 354A     		ldr	r2, .L137
 604              	.LVL79:
 605 0016 DB00     		lsls	r3, r3, #3
 606 0018 02EB0308 		add	r8, r2, r3
 607              	.LVL80:
 608              		.loc 1 207 0
 609 001c D358     		ldr	r3, [r2, r3]
 610 001e 002B     		cmp	r3, #0
 611 0020 5DD0     		beq	.L135
 612              	.LBE46:
 613              	.LBE45:
 614              		.loc 1 1275 0
 615 0022 0429     		cmp	r1, #4
 616 0024 52D8     		bhi	.L98
 617 0026 DFE801F0 		tbb	[pc, r1]
 618              	.L105:
 619 002a 3D       		.byte	(.L92-.L105)/2
 620 002b 47       		.byte	(.L94-.L105)/2
 621 002c 43       		.byte	(.L95-.L105)/2
 622 002d 4D       		.byte	(.L96-.L105)/2
 623 002e 07       		.byte	(.L97-.L105)/2
 624 002f 00       		.align	1
ARM GAS  /tmp/ccPo84yg.s 			page 12


 625              	.LVL81:
 626              	.L134:
 627              		.loc 1 1255 0
 628 0030 0029     		cmp	r1, #0
 629 0032 56D0     		beq	.L136
 630              	.LVL82:
 631              	.L86:
 632 0034 BDE8F883 		pop	{r3, r4, r5, r6, r7, r8, r9, pc}
 633              	.LVL83:
 634              	.L97:
 635              		.loc 1 1289 0
 636 0038 0123     		movs	r3, #1
 637 003a A8F80E30 		strh	r3, [r8, #14]	@ movhi
 638              	.LVL84:
 639              	.L93:
 640              		.loc 1 1296 0
 641 003e D8F81430 		ldr	r3, [r8, #20]
 642 0042 002B     		cmp	r3, #0
 643 0044 F6D0     		beq	.L86
 644 0046 0126     		movs	r6, #1
 645 0048 294F     		ldr	r7, .L137+4
 646 004a 2A4D     		ldr	r5, .L137+8
 647 004c 06FA04F9 		lsl	r9, r6, r4
 648              	.LVL85:
 649              	.L103:
 650              		.loc 1 1309 0
 651 0050 3C68     		ldr	r4, [r7, #0]
 652              	.LVL86:
 653 0052 002C     		cmp	r4, #0
 654 0054 EED0     		beq	.L86
 655              	.L104:
 656              		.loc 1 1310 0
 657 0056 6369     		ldr	r3, [r4, #20]
 658 0058 DBB9     		cbnz	r3, .L99
 659              	.LVL87:
 660              	.LBB47:
 661              		.loc 1 1314 0
 662 005a B8F90A30 		ldrsh	r3, [r8, #10]
 663 005e 002B     		cmp	r3, #0
 664 0060 05DD     		ble	.L100
 665              		.loc 1 1315 0
 666 0062 A368     		ldr	r3, [r4, #8]
 667 0064 1BB1     		cbz	r3, .L100
 668              		.loc 1 1315 0 is_stmt 0 discriminator 1
 669 0066 1B78     		ldrb	r3, [r3, #0]	@ zero_extendqisi2
 670 0068 13EA090F 		tst	r3, r9
 671 006c 31D1     		bne	.L101
 672              	.L100:
 673              		.loc 1 1319 0 is_stmt 1
 674 006e B8F80C30 		ldrh	r3, [r8, #12]
 675 0072 2BB1     		cbz	r3, .L133
 676              		.loc 1 1320 0 discriminator 1
 677 0074 E368     		ldr	r3, [r4, #12]
 678 0076 1BB1     		cbz	r3, .L133
 679 0078 1B78     		ldrb	r3, [r3, #0]	@ zero_extendqisi2
 680 007a 19EA030F 		tst	r9, r3
 681 007e 28D1     		bne	.L101
ARM GAS  /tmp/ccPo84yg.s 			page 13


 682              	.L133:
 683              		.loc 1 1324 0
 684 0080 B8F80E30 		ldrh	r3, [r8, #14]
 685 0084 2BB1     		cbz	r3, .L99
 686              		.loc 1 1325 0 discriminator 1
 687 0086 2369     		ldr	r3, [r4, #16]
 688 0088 1BB1     		cbz	r3, .L99
 689 008a 1B78     		ldrb	r3, [r3, #0]	@ zero_extendqisi2
 690 008c 19EA030F 		tst	r9, r3
 691 0090 1FD1     		bne	.L101
 692              	.LVL88:
 693              	.L99:
 694              	.LBE47:
 695              		.loc 1 1337 0
 696 0092 2A68     		ldr	r2, [r5, #0]
 697              	.LVL89:
 698              		.loc 1 1341 0
 699 0094 2B68     		ldr	r3, [r5, #0]
 700 0096 9A42     		cmp	r2, r3
 701 0098 DAD1     		bne	.L103
 702              		.loc 1 1309 0
 703 009a 2468     		ldr	r4, [r4, #0]
 704              	.LVL90:
 705 009c 002C     		cmp	r4, #0
 706 009e DAD1     		bne	.L104
 707 00a0 BDE8F883 		pop	{r3, r4, r5, r6, r7, r8, r9, pc}
 708              	.LVL91:
 709              	.L92:
 710              		.loc 1 1277 0
 711 00a4 B8F80A30 		ldrh	r3, [r8, #10]
 712 00a8 0133     		adds	r3, r3, #1
 713 00aa A8F80A30 		strh	r3, [r8, #10]	@ movhi
 714              		.loc 1 1278 0
 715 00ae C6E7     		b	.L93
 716              	.L95:
 717              		.loc 1 1283 0
 718 00b0 0123     		movs	r3, #1
 719 00b2 A8F80C30 		strh	r3, [r8, #12]	@ movhi
 720              		.loc 1 1284 0
 721 00b6 C2E7     		b	.L93
 722              	.L94:
 723              		.loc 1 1280 0
 724 00b8 B8F80A30 		ldrh	r3, [r8, #10]
 725 00bc 013B     		subs	r3, r3, #1
 726 00be A8F80A30 		strh	r3, [r8, #10]	@ movhi
 727              		.loc 1 1281 0
 728 00c2 BCE7     		b	.L93
 729              	.L96:
 730              		.loc 1 1286 0
 731 00c4 0023     		movs	r3, #0
 732 00c6 A8F80C30 		strh	r3, [r8, #12]	@ movhi
 733              		.loc 1 1287 0
 734 00ca B8E7     		b	.L93
 735              	.L98:
 736              		.loc 1 1292 0 discriminator 1
 737 00cc FFF7FEFF 		bl	port_halt
 738              	.LVL92:
ARM GAS  /tmp/ccPo84yg.s 			page 14


 739              		.loc 1 1293 0 discriminator 1
 740 00d0 B5E7     		b	.L93
 741              	.LVL93:
 742              	.L101:
 743              	.LBB48:
 744              		.loc 1 1330 0
 745 00d2 6661     		str	r6, [r4, #20]
 746              		.loc 1 1333 0
 747 00d4 04F11800 		add	r0, r4, #24
 748 00d8 FFF7FEFF 		bl	sys_sem_signal
 749              	.LVL94:
 750 00dc D9E7     		b	.L99
 751              	.LVL95:
 752              	.L135:
 753 00de BDE8F883 		pop	{r3, r4, r5, r6, r7, r8, r9, pc}
 754              	.LVL96:
 755              	.L136:
 756              	.LBE48:
 757              		.loc 1 1256 0
 758 00e2 013C     		subs	r4, r4, #1
 759              	.LVL97:
 760 00e4 8461     		str	r4, [r0, #24]
 761 00e6 BDE8F883 		pop	{r3, r4, r5, r6, r7, r8, r9, pc}
 762              	.L138:
 763 00ea 00BF     		.align	2
 764              	.L137:
 765 00ec 00000000 		.word	.LANCHOR0
 766 00f0 00000000 		.word	.LANCHOR2
 767 00f4 00000000 		.word	.LANCHOR3
 768              		.cfi_endproc
 769              	.LFE26:
 770              		.size	event_callback, .-event_callback
 771 00f8 AFF30080 		.section	.text.lwip_selscan,"ax",%progbits
 771      AFF30080 
 772              		.align	2
 773              		.p2align 4,,15
 774              		.thumb
 775              		.thumb_func
 776              		.type	lwip_selscan, %function
 777              	lwip_selscan:
 778              	.LFB24:
 779              		.loc 1 1015 0
 780              		.cfi_startproc
 781              		@ args = 12, pretend = 0, frame = 24
 782              		@ frame_needed = 0, uses_anonymous_args = 0
 783              		@ link register save eliminated.
 784              	.LVL98:
 785 0000 2DE9F00F 		push	{r4, r5, r6, r7, r8, r9, sl, fp}
 786              	.LCFI6:
 787              		.cfi_def_cfa_offset 32
 788              		.cfi_offset 4, -32
 789              		.cfi_offset 5, -28
 790              		.cfi_offset 6, -24
 791              		.cfi_offset 7, -20
 792              		.cfi_offset 8, -16
 793              		.cfi_offset 9, -12
 794              		.cfi_offset 10, -8
ARM GAS  /tmp/ccPo84yg.s 			page 15


 795              		.cfi_offset 11, -4
 796 0004 86B0     		sub	sp, sp, #24
 797              	.LCFI7:
 798              		.cfi_def_cfa_offset 56
 799              		.loc 1 1021 0
 800 0006 0026     		movs	r6, #0
 801              		.loc 1 1027 0
 802 0008 0028     		cmp	r0, #0
 803 000a 0190     		str	r0, [sp, #4]
 804              		.loc 1 1021 0
 805 000c 8DF80C60 		strb	r6, [sp, #12]
 806              		.loc 1 1022 0
 807 0010 8DF81060 		strb	r6, [sp, #16]
 808              		.loc 1 1023 0
 809 0014 8DF81460 		strb	r6, [sp, #20]
 810              	.LVL99:
 811              		.loc 1 1027 0
 812 0018 3046     		mov	r0, r6
 813              	.LVL100:
 814 001a 6EDD     		ble	.L140
 815 001c 3446     		mov	r4, r6
 816              	.LBB49:
 817              		.loc 1 1045 0
 818 001e B346     		mov	fp, r6
 819              	.LVL101:
 820              	.L145:
 821              	.LBB50:
 822              	.LBB51:
 823              		.loc 1 225 0
 824 0020 032C     		cmp	r4, #3
 825 0022 7AD8     		bhi	.L147
 826              		.loc 1 228 0
 827 0024 40F20000 		movw	r0, #:lower16:.LANCHOR0
 828 0028 C0F20000 		movt	r0, #:upper16:.LANCHOR0
 829 002c 3558     		ldr	r5, [r6, r0]
 830 002e 002D     		cmp	r5, #0
 831 0030 78D0     		beq	.L148
 832              		.loc 1 231 0
 833 0032 04EB4405 		add	r5, r4, r4, lsl #1
 834 0036 00EBC505 		add	r5, r0, r5, lsl #3
 835              	.LBE51:
 836              	.LBE50:
 837              		.loc 1 1036 0
 838 003a D5F80490 		ldr	r9, [r5, #4]
 839              	.LVL102:
 840              		.loc 1 1037 0
 841 003e B5F80AA0 		ldrh	sl, [r5, #10]
 842              	.LVL103:
 843              		.loc 1 1038 0
 844 0042 A889     		ldrh	r0, [r5, #12]
 845              	.LVL104:
 846              		.loc 1 1039 0
 847 0044 ED89     		ldrh	r5, [r5, #14]
 848              	.LVL105:
 849              	.L141:
 850              		.loc 1 1044 0
 851 0046 09B3     		cbz	r1, .L142
ARM GAS  /tmp/ccPo84yg.s 			page 16


 852              		.loc 1 1044 0 is_stmt 0 discriminator 1
 853 0048 4FEAE40C 		asr	ip, r4, #3
 854 004c 04F00707 		and	r7, r4, #7
 855 0050 11F80C80 		ldrb	r8, [r1, ip]	@ zero_extendqisi2
 856 0054 48FA07F8 		asr	r8, r8, r7
 857 0058 18F0010F 		tst	r8, #1
 858 005c 16D0     		beq	.L142
 859 005e 0FFA8AFA 		sxth	sl, sl
 860              	.LVL106:
 861 0062 BAF1000F 		cmp	sl, #0
 862 0066 D8BF     		it	le
 863 0068 B9F1000F 		cmple	r9, #0
 864 006c 0ED0     		beq	.L142
 865              		.loc 1 1045 0 is_stmt 1
 866 006e 0DF11808 		add	r8, sp, #24
 867 0072 C444     		add	ip, r8, ip
 868 0074 4FF00108 		mov	r8, #1
 869 0078 08FA07F7 		lsl	r7, r8, r7
 870 007c 1CF80C8C 		ldrb	r8, [ip, #-12]	@ zero_extendqisi2
 871 0080 47EA0807 		orr	r7, r7, r8
 872 0084 0CF80C7C 		strb	r7, [ip, #-12]
 873              		.loc 1 1047 0
 874 0088 0BF1010B 		add	fp, fp, #1
 875              	.LVL107:
 876              	.L142:
 877              		.loc 1 1050 0
 878 008c BAB1     		cbz	r2, .L143
 879              		.loc 1 1050 0 is_stmt 0 discriminator 1
 880 008e 4FEAE40C 		asr	ip, r4, #3
 881 0092 04F00707 		and	r7, r4, #7
 882 0096 12F80C80 		ldrb	r8, [r2, ip]	@ zero_extendqisi2
 883 009a 48FA07F8 		asr	r8, r8, r7
 884 009e 18F0010F 		tst	r8, #1
 885 00a2 0CD0     		beq	.L143
 886 00a4 58B1     		cbz	r0, .L143
 887              		.loc 1 1051 0 is_stmt 1
 888 00a6 06A8     		add	r0, sp, #24
 889              	.LVL108:
 890 00a8 8444     		add	ip, r0, ip
 891 00aa 4FF00108 		mov	r8, #1
 892 00ae 1CF8080C 		ldrb	r0, [ip, #-8]	@ zero_extendqisi2
 893 00b2 08FA07F7 		lsl	r7, r8, r7
 894 00b6 0743     		orrs	r7, r7, r0
 895 00b8 0CF8087C 		strb	r7, [ip, #-8]
 896              		.loc 1 1053 0
 897 00bc C344     		add	fp, fp, r8
 898              	.LVL109:
 899              	.L143:
 900              		.loc 1 1056 0
 901 00be B3B1     		cbz	r3, .L144
 902              		.loc 1 1056 0 is_stmt 0 discriminator 1
 903 00c0 E710     		asrs	r7, r4, #3
 904 00c2 04F00700 		and	r0, r4, #7
 905 00c6 13F807C0 		ldrb	ip, [r3, r7]	@ zero_extendqisi2
 906 00ca 4CFA00FC 		asr	ip, ip, r0
 907 00ce 1CF0010F 		tst	ip, #1
 908 00d2 0CD0     		beq	.L144
ARM GAS  /tmp/ccPo84yg.s 			page 17


 909 00d4 5DB1     		cbz	r5, .L144
 910              		.loc 1 1057 0 is_stmt 1
 911 00d6 06AD     		add	r5, sp, #24
 912              	.LVL110:
 913 00d8 EF19     		adds	r7, r5, r7
 914 00da 4FF00108 		mov	r8, #1
 915 00de 17F8045C 		ldrb	r5, [r7, #-4]	@ zero_extendqisi2
 916 00e2 08FA00F0 		lsl	r0, r8, r0
 917 00e6 2843     		orrs	r0, r0, r5
 918 00e8 07F8040C 		strb	r0, [r7, #-4]
 919              		.loc 1 1059 0
 920 00ec C344     		add	fp, fp, r8
 921              	.LVL111:
 922              	.L144:
 923              	.LBE49:
 924              		.loc 1 1027 0
 925 00ee 0198     		ldr	r0, [sp, #4]
 926 00f0 0134     		adds	r4, r4, #1
 927              	.LVL112:
 928 00f2 1836     		adds	r6, r6, #24
 929 00f4 8442     		cmp	r4, r0
 930 00f6 93D1     		bne	.L145
 931 00f8 5846     		mov	r0, fp
 932              	.LVL113:
 933              	.L140:
 934              		.loc 1 1063 0
 935 00fa 0E9B     		ldr	r3, [sp, #56]
 936              	.LVL114:
 937 00fc 9DF80C40 		ldrb	r4, [sp, #12]	@ zero_extendqisi2
 938              		.loc 1 1064 0
 939 0100 9DF81010 		ldrb	r1, [sp, #16]	@ zero_extendqisi2
 940              	.LVL115:
 941              		.loc 1 1063 0
 942 0104 1C70     		strb	r4, [r3, #0]
 943              		.loc 1 1064 0
 944 0106 0F9B     		ldr	r3, [sp, #60]
 945              		.loc 1 1065 0
 946 0108 9DF81420 		ldrb	r2, [sp, #20]	@ zero_extendqisi2
 947              	.LVL116:
 948              		.loc 1 1064 0
 949 010c 1970     		strb	r1, [r3, #0]
 950              		.loc 1 1065 0
 951 010e 109B     		ldr	r3, [sp, #64]
 952 0110 1A70     		strb	r2, [r3, #0]
 953              		.loc 1 1069 0
 954 0112 06B0     		add	sp, sp, #24
 955 0114 BDE8F00F 		pop	{r4, r5, r6, r7, r8, r9, sl, fp}
 956 0118 7047     		bx	lr
 957              	.LVL117:
 958              	.L147:
 959              	.LBB54:
 960              	.LBB53:
 961              	.LBB52:
 962              		.loc 1 1031 0
 963 011a 0025     		movs	r5, #0
 964              		.loc 1 1030 0
 965 011c 2846     		mov	r0, r5
ARM GAS  /tmp/ccPo84yg.s 			page 18


 966              		.loc 1 1029 0
 967 011e AA46     		mov	sl, r5
 968              		.loc 1 1028 0
 969 0120 A946     		mov	r9, r5
 970 0122 90E7     		b	.L141
 971              	.L148:
 972              		.loc 1 1030 0
 973 0124 2846     		mov	r0, r5
 974              		.loc 1 1029 0
 975 0126 AA46     		mov	sl, r5
 976              		.loc 1 1028 0
 977 0128 A946     		mov	r9, r5
 978 012a 8CE7     		b	.L141
 979              	.LBE52:
 980              	.LBE53:
 981              	.LBE54:
 982              		.cfi_endproc
 983              	.LFE24:
 984              		.size	lwip_selscan, .-lwip_selscan
 985 012c AFF30080 		.section	.text.lwip_getaddrname,"ax",%progbits
 986              		.align	2
 987              		.p2align 4,,15
 988              		.thumb
 989              		.thumb_func
 990              		.type	lwip_getaddrname, %function
 991              	lwip_getaddrname:
 992              	.LFB28:
 993              		.loc 1 1396 0
 994              		.cfi_startproc
 995              		@ args = 0, pretend = 0, frame = 24
 996              		@ frame_needed = 0, uses_anonymous_args = 0
 997              	.LVL118:
 998 0000 2DE9F041 		push	{r4, r5, r6, r7, r8, lr}
 999              	.LCFI8:
 1000              		.cfi_def_cfa_offset 24
 1001              		.cfi_offset 4, -24
 1002              		.cfi_offset 5, -20
 1003              		.cfi_offset 6, -16
 1004              		.cfi_offset 7, -12
 1005              		.cfi_offset 8, -8
 1006              		.cfi_offset 14, -4
 1007              	.LBB55:
 1008              	.LBB56:
 1009              		.loc 1 199 0
 1010 0004 0328     		cmp	r0, #3
 1011              	.LBE56:
 1012              	.LBE55:
 1013              		.loc 1 1396 0
 1014 0006 86B0     		sub	sp, sp, #24
 1015              	.LCFI9:
 1016              		.cfi_def_cfa_offset 48
 1017              		.loc 1 1396 0
 1018 0008 0D46     		mov	r5, r1
 1019 000a 1646     		mov	r6, r2
 1020              	.LBB59:
 1021              	.LBB57:
 1022              		.loc 1 199 0
ARM GAS  /tmp/ccPo84yg.s 			page 19


 1023 000c 2CD8     		bhi	.L183
 1024              		.loc 1 205 0
 1025 000e 00EB4000 		add	r0, r0, r0, lsl #1
 1026              	.LVL119:
 1027 0012 184A     		ldr	r2, .L186
 1028              	.LVL120:
 1029 0014 C000     		lsls	r0, r0, #3
 1030 0016 02EB0008 		add	r8, r2, r0
 1031              	.LVL121:
 1032              		.loc 1 207 0
 1033 001a 1058     		ldr	r0, [r2, r0]
 1034 001c 20B3     		cbz	r0, .L183
 1035              	.LBE57:
 1036              	.LBE59:
 1037              		.loc 1 1406 0
 1038 001e 0024     		movs	r4, #0
 1039              		.loc 1 1407 0
 1040 0020 1027     		movs	r7, #16
 1041              		.loc 1 1406 0
 1042 0022 0294     		str	r4, [sp, #8]
 1043              		.loc 1 1411 0
 1044 0024 01A9     		add	r1, sp, #4
 1045              	.LVL122:
 1046 0026 0DF10A02 		add	r2, sp, #10
 1047              		.loc 1 1406 0
 1048 002a 0394     		str	r4, [sp, #12]
 1049 002c 0494     		str	r4, [sp, #16]
 1050 002e 0594     		str	r4, [sp, #20]
 1051              		.loc 1 1408 0
 1052 0030 0224     		movs	r4, #2
 1053              		.loc 1 1407 0
 1054 0032 8DF80870 		strb	r7, [sp, #8]
 1055              		.loc 1 1408 0
 1056 0036 8DF80940 		strb	r4, [sp, #9]
 1057              		.loc 1 1411 0
 1058 003a FFF7FEFF 		bl	netconn_getaddr
 1059              	.LVL123:
 1060              		.loc 1 1417 0
 1061 003e BDF80A00 		ldrh	r0, [sp, #10]
 1062 0042 FFF7FEFF 		bl	lwip_htons
 1063              	.LVL124:
 1064              		.loc 1 1420 0
 1065 0046 3268     		ldr	r2, [r6, #0]
 1066              		.loc 1 1418 0
 1067 0048 019B     		ldr	r3, [sp, #4]
 1068              		.loc 1 1417 0
 1069 004a ADF80A00 		strh	r0, [sp, #10]	@ movhi
 1070              		.loc 1 1420 0
 1071 004e BA42     		cmp	r2, r7
 1072              		.loc 1 1421 0
 1073 0050 84BF     		itt	hi
 1074 0052 3760     		strhi	r7, [r6, #0]
 1075 0054 3A46     		movhi	r2, r7
 1076              		.loc 1 1424 0
 1077 0056 2846     		mov	r0, r5
 1078 0058 02A9     		add	r1, sp, #8
 1079              		.loc 1 1418 0
ARM GAS  /tmp/ccPo84yg.s 			page 20


 1080 005a 0393     		str	r3, [sp, #12]
 1081              		.loc 1 1424 0
 1082 005c FFF7FEFF 		bl	memcpy
 1083              	.LVL125:
 1084              		.loc 1 1425 0
 1085 0060 0020     		movs	r0, #0
 1086 0062 C8F81000 		str	r0, [r8, #16]
 1087 0066 01E0     		b	.L185
 1088              	.LVL126:
 1089              	.L183:
 1090              	.LBB60:
 1091              	.LBB58:
 1092              		.loc 1 1403 0
 1093 0068 4FF0FF30 		mov	r0, #-1
 1094              	.LVL127:
 1095              	.L185:
 1096              	.LBE58:
 1097              	.LBE60:
 1098              		.loc 1 1427 0
 1099 006c 06B0     		add	sp, sp, #24
 1100 006e BDE8F081 		pop	{r4, r5, r6, r7, r8, pc}
 1101              	.L187:
 1102 0072 00BF     		.align	2
 1103              	.L186:
 1104 0074 00000000 		.word	.LANCHOR0
 1105              		.cfi_endproc
 1106              	.LFE28:
 1107              		.size	lwip_getaddrname, .-lwip_getaddrname
 1108 0078 AFF30080 		.section	.text.lwip_socket_init,"ax",%progbits
 1108      AFF30080 
 1109              		.align	2
 1110              		.p2align 4,,15
 1111              		.global	lwip_socket_init
 1112              		.thumb
 1113              		.thumb_func
 1114              		.type	lwip_socket_init, %function
 1115              	lwip_socket_init:
 1116              	.LFB7:
 1117              		.loc 1 185 0
 1118              		.cfi_startproc
 1119              		@ args = 0, pretend = 0, frame = 0
 1120              		@ frame_needed = 0, uses_anonymous_args = 0
 1121              		@ link register save eliminated.
 1122 0000 7047     		bx	lr
 1123              		.cfi_endproc
 1124              	.LFE7:
 1125              		.size	lwip_socket_init, .-lwip_socket_init
 1126 0002 00BFAFF3 		.section	.text.lwip_accept,"ax",%progbits
 1126      0080AFF3 
 1126      0080AFF3 
 1126      0080
 1127              		.align	2
 1128              		.p2align 4,,15
 1129              		.global	lwip_accept
 1130              		.thumb
 1131              		.thumb_func
 1132              		.type	lwip_accept, %function
ARM GAS  /tmp/ccPo84yg.s 			page 21


 1133              	lwip_accept:
 1134              	.LFB12:
 1135              		.loc 1 313 0
 1136              		.cfi_startproc
 1137              		@ args = 0, pretend = 0, frame = 40
 1138              		@ frame_needed = 0, uses_anonymous_args = 0
 1139              	.LVL128:
 1140              		.loc 1 313 0
 1141 0000 2DE9F041 		push	{r4, r5, r6, r7, r8, lr}
 1142              	.LCFI10:
 1143              		.cfi_def_cfa_offset 24
 1144              		.cfi_offset 4, -24
 1145              		.cfi_offset 5, -20
 1146              		.cfi_offset 6, -16
 1147              		.cfi_offset 7, -12
 1148              		.cfi_offset 8, -8
 1149              		.cfi_offset 14, -4
 1150              	.LBB61:
 1151              	.LBB62:
 1152              		.loc 1 199 0
 1153 0004 0328     		cmp	r0, #3
 1154              	.LBE62:
 1155              	.LBE61:
 1156              		.loc 1 313 0
 1157 0006 8AB0     		sub	sp, sp, #40
 1158              	.LCFI11:
 1159              		.cfi_def_cfa_offset 64
 1160              		.loc 1 313 0
 1161 0008 0F46     		mov	r7, r1
 1162 000a 1446     		mov	r4, r2
 1163              	.LBB65:
 1164              	.LBB63:
 1165              		.loc 1 199 0
 1166 000c 64D8     		bhi	.L206
 1167              		.loc 1 205 0
 1168 000e 00EB4000 		add	r0, r0, r0, lsl #1
 1169              	.LVL129:
 1170 0012 4B4E     		ldr	r6, .L221
 1171 0014 C000     		lsls	r0, r0, #3
 1172 0016 3518     		adds	r5, r6, r0
 1173              	.LVL130:
 1174              		.loc 1 207 0
 1175 0018 3058     		ldr	r0, [r6, r0]
 1176 001a 0028     		cmp	r0, #0
 1177 001c 5CD0     		beq	.L206
 1178              	.LBE63:
 1179              	.LBE65:
 1180              		.loc 1 329 0
 1181 001e 037F     		ldrb	r3, [r0, #28]	@ zero_extendqisi2
 1182 0020 03F00203 		and	r3, r3, #2
 1183 0024 DBB2     		uxtb	r3, r3
 1184 0026 1BB1     		cbz	r3, .L192
 1185              		.loc 1 329 0 is_stmt 0 discriminator 1
 1186 0028 B5F90A30 		ldrsh	r3, [r5, #10]
 1187 002c 002B     		cmp	r3, #0
 1188 002e 7BDD     		ble	.L214
 1189              	.L192:
ARM GAS  /tmp/ccPo84yg.s 			page 22


 1190              		.loc 1 336 0 is_stmt 1
 1191 0030 04A9     		add	r1, sp, #16
 1192              	.LVL131:
 1193 0032 FFF7FEFF 		bl	netconn_accept
 1194              	.LVL132:
 1195              		.loc 1 337 0
 1196 0036 0028     		cmp	r0, #0
 1197 0038 5ED1     		bne	.L215
 1198              	.LVL133:
 1199              		.loc 1 342 0
 1200 003a 0498     		ldr	r0, [sp, #16]
 1201              	.LVL134:
 1202 003c 0028     		cmp	r0, #0
 1203 003e 54D0     		beq	.L216
 1204              	.L195:
 1205              		.loc 1 344 0 discriminator 1
 1206 0040 037F     		ldrb	r3, [r0, #28]	@ zero_extendqisi2
 1207 0042 43F00803 		orr	r3, r3, #8
 1208 0046 0377     		strb	r3, [r0, #28]
 1209              		.loc 1 347 0 discriminator 1
 1210 0048 05A9     		add	r1, sp, #20
 1211 004a 0023     		movs	r3, #0
 1212 004c 0DF10E02 		add	r2, sp, #14
 1213 0050 FFF7FEFF 		bl	netconn_getaddr
 1214              	.LVL135:
 1215              		.loc 1 348 0 discriminator 1
 1216 0054 0346     		mov	r3, r0
 1217 0056 0028     		cmp	r0, #0
 1218 0058 5AD1     		bne	.L217
 1219              		.loc 1 358 0
 1220 005a FFB1     		cbz	r7, .L198
 1221              		.loc 1 359 0
 1222 005c 002C     		cmp	r4, #0
 1223 005e 48D0     		beq	.L218
 1224              	.LVL136:
 1225              	.L199:
 1226              		.loc 1 360 0
 1227 0060 0023     		movs	r3, #0
 1228              		.loc 1 361 0
 1229 0062 4FF01008 		mov	r8, #16
 1230              		.loc 1 360 0
 1231 0066 0693     		str	r3, [sp, #24]
 1232 0068 0793     		str	r3, [sp, #28]
 1233 006a 0893     		str	r3, [sp, #32]
 1234 006c 0993     		str	r3, [sp, #36]
 1235              	.LVL137:
 1236              		.loc 1 363 0
 1237 006e BDF80E00 		ldrh	r0, [sp, #14]
 1238              		.loc 1 361 0
 1239 0072 8DF81880 		strb	r8, [sp, #24]
 1240              		.loc 1 362 0
 1241 0076 0223     		movs	r3, #2
 1242 0078 8DF81930 		strb	r3, [sp, #25]
 1243              		.loc 1 363 0
 1244 007c FFF7FEFF 		bl	lwip_htons
 1245              	.LVL138:
 1246              		.loc 1 366 0
ARM GAS  /tmp/ccPo84yg.s 			page 23


 1247 0080 2268     		ldr	r2, [r4, #0]
 1248              		.loc 1 364 0
 1249 0082 059B     		ldr	r3, [sp, #20]
 1250              		.loc 1 363 0
 1251 0084 ADF81A00 		strh	r0, [sp, #26]	@ movhi
 1252              		.loc 1 366 0
 1253 0088 4245     		cmp	r2, r8
 1254              		.loc 1 367 0
 1255 008a 84BF     		itt	hi
 1256 008c C4F80080 		strhi	r8, [r4, #0]
 1257 0090 4246     		movhi	r2, r8
 1258              		.loc 1 369 0
 1259 0092 3846     		mov	r0, r7
 1260 0094 06A9     		add	r1, sp, #24
 1261              		.loc 1 364 0
 1262 0096 0793     		str	r3, [sp, #28]
 1263              		.loc 1 369 0
 1264 0098 FFF7FEFF 		bl	memcpy
 1265              	.LVL139:
 1266              	.L198:
 1267              		.loc 1 372 0
 1268 009c 0121     		movs	r1, #1
 1269 009e 0498     		ldr	r0, [sp, #16]
 1270 00a0 FFF7FEFF 		bl	alloc_socket
 1271              	.LVL140:
 1272              		.loc 1 373 0
 1273 00a4 431C     		adds	r3, r0, #1
 1274              		.loc 1 372 0
 1275 00a6 0446     		mov	r4, r0
 1276              	.LVL141:
 1277              		.loc 1 373 0
 1278 00a8 43D0     		beq	.L219
 1279              		.loc 1 378 0
 1280 00aa 0328     		cmp	r0, #3
 1281 00ac 1AD8     		bhi	.L220
 1282              	.LVL142:
 1283              	.L202:
 1284              		.loc 1 379 0
 1285 00ae 049B     		ldr	r3, [sp, #16]
 1286 00b0 2449     		ldr	r1, .L221+4
 1287 00b2 9A6A     		ldr	r2, [r3, #40]
 1288 00b4 8A42     		cmp	r2, r1
 1289 00b6 02D0     		beq	.L203
 1290              		.loc 1 379 0 is_stmt 0 discriminator 1
 1291 00b8 FFF7FEFF 		bl	port_halt
 1292              	.LVL143:
 1293 00bc 049B     		ldr	r3, [sp, #16]
 1294              	.L203:
 1295              		.loc 1 380 0 is_stmt 1
 1296 00be 04EB4402 		add	r2, r4, r4, lsl #1
 1297 00c2 06EBC202 		add	r2, r6, r2, lsl #3
 1298              	.LVL144:
 1299              		.loc 1 388 0
 1300 00c6 9969     		ldr	r1, [r3, #24]
 1301 00c8 5089     		ldrh	r0, [r2, #10]
 1302 00ca C943     		mvns	r1, r1
 1303 00cc 0918     		adds	r1, r1, r0
ARM GAS  /tmp/ccPo84yg.s 			page 24


 1304 00ce 5181     		strh	r1, [r2, #10]	@ movhi
 1305              		.loc 1 389 0
 1306 00d0 9C61     		str	r4, [r3, #24]
 1307              		.loc 1 396 0
 1308 00d2 0023     		movs	r3, #0
 1309 00d4 2B61     		str	r3, [r5, #16]
 1310 00d6 01E0     		b	.L213
 1311              	.LVL145:
 1312              	.L206:
 1313              	.LBB66:
 1314              	.LBB64:
 1315              		.loc 1 326 0
 1316 00d8 4FF0FF34 		mov	r4, #-1
 1317              	.LVL146:
 1318              	.L213:
 1319              	.LBE64:
 1320              	.LBE66:
 1321              		.loc 1 398 0
 1322 00dc 2046     		mov	r0, r4
 1323 00de 0AB0     		add	sp, sp, #40
 1324 00e0 BDE8F081 		pop	{r4, r5, r6, r7, r8, pc}
 1325              	.LVL147:
 1326              	.L220:
 1327              		.loc 1 378 0 discriminator 1
 1328 00e4 FFF7FEFF 		bl	port_halt
 1329              	.LVL148:
 1330 00e8 E1E7     		b	.L202
 1331              	.LVL149:
 1332              	.L216:
 1333              		.loc 1 342 0 discriminator 1
 1334 00ea FFF7FEFF 		bl	port_halt
 1335              	.LVL150:
 1336 00ee 0498     		ldr	r0, [sp, #16]
 1337 00f0 A6E7     		b	.L195
 1338              	.LVL151:
 1339              	.L218:
 1340              		.loc 1 359 0 discriminator 1
 1341 00f2 FFF7FEFF 		bl	port_halt
 1342              	.LVL152:
 1343 00f6 B3E7     		b	.L199
 1344              	.LVL153:
 1345              	.L215:
 1346              		.loc 1 339 0
 1347 00f8 4042     		negs	r0, r0
 1348              	.LVL154:
 1349 00fa 0F28     		cmp	r0, #15
 1350 00fc 06D8     		bhi	.L208
 1351              		.loc 1 339 0 is_stmt 0 discriminator 1
 1352 00fe 124B     		ldr	r3, .L221+8
 1353 0100 53F82030 		ldr	r3, [r3, r0, lsl #2]
 1354              	.LVL155:
 1355              	.L197:
 1356              		.loc 1 351 0 is_stmt 1 discriminator 3
 1357 0104 2B61     		str	r3, [r5, #16]
 1358              		.loc 1 352 0 discriminator 3
 1359 0106 4FF0FF34 		mov	r4, #-1
 1360              	.LVL156:
ARM GAS  /tmp/ccPo84yg.s 			page 25


 1361 010a E7E7     		b	.L213
 1362              	.LVL157:
 1363              	.L208:
 1364              		.loc 1 351 0
 1365 010c 0523     		movs	r3, #5
 1366 010e F9E7     		b	.L197
 1367              	.LVL158:
 1368              	.L217:
 1369              		.loc 1 350 0
 1370 0110 0498     		ldr	r0, [sp, #16]
 1371              	.LVL159:
 1372 0112 0193     		str	r3, [sp, #4]
 1373 0114 FFF7FEFF 		bl	netconn_delete
 1374              	.LVL160:
 1375              		.loc 1 351 0
 1376 0118 019B     		ldr	r3, [sp, #4]
 1377 011a 5B42     		negs	r3, r3
 1378 011c 0F2B     		cmp	r3, #15
 1379 011e F5D8     		bhi	.L208
 1380              		.loc 1 351 0 is_stmt 0 discriminator 1
 1381 0120 094A     		ldr	r2, .L221+8
 1382 0122 52F82330 		ldr	r3, [r2, r3, lsl #2]
 1383 0126 EDE7     		b	.L197
 1384              	.LVL161:
 1385              	.L214:
 1386              		.loc 1 331 0 is_stmt 1
 1387 0128 0B23     		movs	r3, #11
 1388 012a 2B61     		str	r3, [r5, #16]
 1389              		.loc 1 332 0
 1390 012c 4FF0FF34 		mov	r4, #-1
 1391 0130 D4E7     		b	.L213
 1392              	.LVL162:
 1393              	.L219:
 1394              		.loc 1 374 0
 1395 0132 0498     		ldr	r0, [sp, #16]
 1396              	.LVL163:
 1397 0134 FFF7FEFF 		bl	netconn_delete
 1398              	.LVL164:
 1399              		.loc 1 375 0
 1400 0138 1723     		movs	r3, #23
 1401 013a 2B61     		str	r3, [r5, #16]
 1402 013c CEE7     		b	.L213
 1403              	.L222:
 1404 013e 00BF     		.align	2
 1405              	.L221:
 1406 0140 00000000 		.word	.LANCHOR0
 1407 0144 00000000 		.word	event_callback
 1408 0148 00000000 		.word	.LANCHOR1
 1409              		.cfi_endproc
 1410              	.LFE12:
 1411              		.size	lwip_accept, .-lwip_accept
 1412 014c AFF30080 		.section	.text.lwip_bind,"ax",%progbits
 1413              		.align	2
 1414              		.p2align 4,,15
 1415              		.global	lwip_bind
 1416              		.thumb
 1417              		.thumb_func
ARM GAS  /tmp/ccPo84yg.s 			page 26


 1418              		.type	lwip_bind, %function
 1419              	lwip_bind:
 1420              	.LFB13:
 1421              		.loc 1 402 0
 1422              		.cfi_startproc
 1423              		@ args = 0, pretend = 0, frame = 8
 1424              		@ frame_needed = 0, uses_anonymous_args = 0
 1425              	.LVL165:
 1426 0000 70B5     		push	{r4, r5, r6, lr}
 1427              	.LCFI12:
 1428              		.cfi_def_cfa_offset 16
 1429              		.cfi_offset 4, -16
 1430              		.cfi_offset 5, -12
 1431              		.cfi_offset 6, -8
 1432              		.cfi_offset 14, -4
 1433              	.LBB67:
 1434              	.LBB68:
 1435              		.loc 1 199 0
 1436 0002 0328     		cmp	r0, #3
 1437              	.LBE68:
 1438              	.LBE67:
 1439              		.loc 1 402 0
 1440 0004 82B0     		sub	sp, sp, #8
 1441              	.LCFI13:
 1442              		.cfi_def_cfa_offset 24
 1443              	.LBB71:
 1444              	.LBB69:
 1445              		.loc 1 199 0
 1446 0006 1CD8     		bhi	.L232
 1447              		.loc 1 205 0
 1448 0008 00EB4000 		add	r0, r0, r0, lsl #1
 1449              	.LVL166:
 1450 000c 184B     		ldr	r3, .L238
 1451 000e C000     		lsls	r0, r0, #3
 1452 0010 1E18     		adds	r6, r3, r0
 1453              	.LVL167:
 1454              		.loc 1 207 0
 1455 0012 1D58     		ldr	r5, [r3, r0]
 1456 0014 ADB1     		cbz	r5, .L232
 1457              	.LBE69:
 1458              	.LBE71:
 1459              		.loc 1 415 0
 1460 0016 102A     		cmp	r2, #16
 1461 0018 17D1     		bne	.L226
 1462              		.loc 1 415 0 is_stmt 0 discriminator 2
 1463 001a 4B78     		ldrb	r3, [r1, #1]	@ zero_extendqisi2
 1464 001c 022B     		cmp	r3, #2
 1465 001e 14D1     		bne	.L226
 1466              		.loc 1 415 0 discriminator 3
 1467 0020 8A07     		lsls	r2, r1, #30
 1468              	.LVL168:
 1469 0022 12D1     		bne	.L226
 1470              	.LVL169:
 1471              		.loc 1 420 0 is_stmt 1
 1472 0024 4B68     		ldr	r3, [r1, #4]
 1473              		.loc 1 427 0
 1474 0026 4888     		ldrh	r0, [r1, #2]
ARM GAS  /tmp/ccPo84yg.s 			page 27


 1475              		.loc 1 420 0
 1476 0028 02AC     		add	r4, sp, #8
 1477 002a 44F8043D 		str	r3, [r4, #-4]!
 1478              	.LVL170:
 1479              		.loc 1 427 0
 1480 002e FFF7FEFF 		bl	lwip_ntohs
 1481              	.LVL171:
 1482 0032 2146     		mov	r1, r4
 1483 0034 0246     		mov	r2, r0
 1484 0036 2846     		mov	r0, r5
 1485 0038 FFF7FEFF 		bl	netconn_bind
 1486              	.LVL172:
 1487              		.loc 1 429 0
 1488 003c 60B9     		cbnz	r0, .L237
 1489              		.loc 1 436 0
 1490 003e 3061     		str	r0, [r6, #16]
 1491 0040 01E0     		b	.L235
 1492              	.LVL173:
 1493              	.L232:
 1494              	.LBB72:
 1495              	.LBB70:
 1496              		.loc 1 411 0
 1497 0042 4FF0FF30 		mov	r0, #-1
 1498              	.LVL174:
 1499              	.L235:
 1500              	.LBE70:
 1501              	.LBE72:
 1502              		.loc 1 438 0
 1503 0046 02B0     		add	sp, sp, #8
 1504 0048 70BD     		pop	{r4, r5, r6, pc}
 1505              	.LVL175:
 1506              	.L226:
 1507              		.loc 1 415 0 discriminator 1
 1508 004a FFF7FEFF 		bl	port_halt
 1509              	.LVL176:
 1510 004e 0523     		movs	r3, #5
 1511 0050 3361     		str	r3, [r6, #16]
 1512 0052 4FF0FF30 		mov	r0, #-1
 1513 0056 F6E7     		b	.L235
 1514              	.LVL177:
 1515              	.L237:
 1516              		.loc 1 431 0
 1517 0058 4042     		negs	r0, r0
 1518              	.LVL178:
 1519 005a 0F28     		cmp	r0, #15
 1520 005c 9ABF     		itte	ls
 1521 005e 054B     		ldrls	r3, .L238+4
 1522 0060 53F82030 		ldrls	r3, [r3, r0, lsl #2]
 1523 0064 0523     		movhi	r3, #5
 1524 0066 3361     		str	r3, [r6, #16]
 1525              		.loc 1 432 0
 1526 0068 4FF0FF30 		mov	r0, #-1
 1527 006c EBE7     		b	.L235
 1528              	.L239:
 1529 006e 00BF     		.align	2
 1530              	.L238:
 1531 0070 00000000 		.word	.LANCHOR0
ARM GAS  /tmp/ccPo84yg.s 			page 28


 1532 0074 00000000 		.word	.LANCHOR1
 1533              		.cfi_endproc
 1534              	.LFE13:
 1535              		.size	lwip_bind, .-lwip_bind
 1536 0078 AFF30080 		.section	.text.lwip_close,"ax",%progbits
 1536      AFF30080 
 1537              		.align	2
 1538              		.p2align 4,,15
 1539              		.global	lwip_close
 1540              		.thumb
 1541              		.thumb_func
 1542              		.type	lwip_close, %function
 1543              	lwip_close:
 1544              	.LFB14:
 1545              		.loc 1 442 0
 1546              		.cfi_startproc
 1547              		@ args = 0, pretend = 0, frame = 0
 1548              		@ frame_needed = 0, uses_anonymous_args = 0
 1549              	.LVL179:
 1550              	.LBB77:
 1551              	.LBB78:
 1552              		.loc 1 199 0
 1553 0000 0328     		cmp	r0, #3
 1554              	.LBE78:
 1555              	.LBE77:
 1556              		.loc 1 442 0
 1557 0002 2DE9F041 		push	{r4, r5, r6, r7, r8, lr}
 1558              	.LCFI14:
 1559              		.cfi_def_cfa_offset 24
 1560              		.cfi_offset 4, -24
 1561              		.cfi_offset 5, -20
 1562              		.cfi_offset 6, -16
 1563              		.cfi_offset 7, -12
 1564              		.cfi_offset 8, -8
 1565              		.cfi_offset 14, -4
 1566              	.LBB81:
 1567              	.LBB79:
 1568              		.loc 1 199 0
 1569 0006 1AD8     		bhi	.L246
 1570              		.loc 1 205 0
 1571 0008 00EB4000 		add	r0, r0, r0, lsl #1
 1572              	.LVL180:
 1573 000c 114F     		ldr	r7, .L251
 1574 000e C600     		lsls	r6, r0, #3
 1575 0010 BD19     		adds	r5, r7, r6
 1576              	.LVL181:
 1577              		.loc 1 207 0
 1578 0012 BB59     		ldr	r3, [r7, r6]
 1579 0014 9BB1     		cbz	r3, .L246
 1580              	.LBE79:
 1581              	.LBE81:
 1582              		.loc 1 459 0
 1583 0016 1846     		mov	r0, r3
 1584              		.loc 1 454 0
 1585 0018 93F80080 		ldrb	r8, [r3, #0]	@ zero_extendqisi2
 1586              	.LVL182:
 1587              		.loc 1 459 0
ARM GAS  /tmp/ccPo84yg.s 			page 29


 1588 001c FFF7FEFF 		bl	netconn_delete
 1589              	.LVL183:
 1590              	.LBB82:
 1591              	.LBB83:
 1592              		.loc 1 285 0
 1593 0020 6868     		ldr	r0, [r5, #4]
 1594              	.LVL184:
 1595              		.loc 1 286 0
 1596 0022 0024     		movs	r4, #0
 1597 0024 6C60     		str	r4, [r5, #4]
 1598              		.loc 1 287 0
 1599 0026 2C81     		strh	r4, [r5, #8]	@ movhi
 1600              		.loc 1 288 0
 1601 0028 2C61     		str	r4, [r5, #16]
 1602              		.loc 1 292 0
 1603 002a BC51     		str	r4, [r7, r6]
 1604              		.loc 1 296 0
 1605 002c 58B1     		cbz	r0, .L249
 1606              		.loc 1 297 0
 1607 002e B8F1100F 		cmp	r8, #16
 1608 0032 0AD0     		beq	.L250
 1609              		.loc 1 300 0
 1610 0034 FFF7FEFF 		bl	netbuf_delete
 1611              	.LVL185:
 1612              		.loc 1 463 0
 1613 0038 2046     		mov	r0, r4
 1614 003a BDE8F081 		pop	{r4, r5, r6, r7, r8, pc}
 1615              	.LVL186:
 1616              	.L246:
 1617              	.LBE83:
 1618              	.LBE82:
 1619              	.LBB85:
 1620              	.LBB80:
 1621              		.loc 1 450 0
 1622 003e 4FF0FF30 		mov	r0, #-1
 1623 0042 BDE8F081 		pop	{r4, r5, r6, r7, r8, pc}
 1624              	.LVL187:
 1625              	.L249:
 1626              	.LBE80:
 1627              	.LBE85:
 1628              		.loc 1 464 0
 1629 0046 BDE8F081 		pop	{r4, r5, r6, r7, r8, pc}
 1630              	.L250:
 1631              	.LBB86:
 1632              	.LBB84:
 1633              		.loc 1 298 0
 1634 004a FFF7FEFF 		bl	pbuf_free
 1635              	.LVL188:
 1636              		.loc 1 463 0
 1637 004e 2046     		mov	r0, r4
 1638 0050 BDE8F081 		pop	{r4, r5, r6, r7, r8, pc}
 1639              	.L252:
 1640              		.align	2
 1641              	.L251:
 1642 0054 00000000 		.word	.LANCHOR0
 1643              	.LBE84:
 1644              	.LBE86:
ARM GAS  /tmp/ccPo84yg.s 			page 30


 1645              		.cfi_endproc
 1646              	.LFE14:
 1647              		.size	lwip_close, .-lwip_close
 1648 0058 AFF30080 		.section	.text.lwip_connect,"ax",%progbits
 1648      AFF30080 
 1649              		.align	2
 1650              		.p2align 4,,15
 1651              		.global	lwip_connect
 1652              		.thumb
 1653              		.thumb_func
 1654              		.type	lwip_connect, %function
 1655              	lwip_connect:
 1656              	.LFB15:
 1657              		.loc 1 468 0
 1658              		.cfi_startproc
 1659              		@ args = 0, pretend = 0, frame = 8
 1660              		@ frame_needed = 0, uses_anonymous_args = 0
 1661              	.LVL189:
 1662 0000 70B5     		push	{r4, r5, r6, lr}
 1663              	.LCFI15:
 1664              		.cfi_def_cfa_offset 16
 1665              		.cfi_offset 4, -16
 1666              		.cfi_offset 5, -12
 1667              		.cfi_offset 6, -8
 1668              		.cfi_offset 14, -4
 1669              	.LBB87:
 1670              	.LBB88:
 1671              		.loc 1 199 0
 1672 0002 0328     		cmp	r0, #3
 1673              	.LBE88:
 1674              	.LBE87:
 1675              		.loc 1 468 0
 1676 0004 82B0     		sub	sp, sp, #8
 1677              	.LCFI16:
 1678              		.cfi_def_cfa_offset 24
 1679              	.LBB91:
 1680              	.LBB89:
 1681              		.loc 1 199 0
 1682 0006 1CD8     		bhi	.L262
 1683              		.loc 1 205 0
 1684 0008 00EB4000 		add	r0, r0, r0, lsl #1
 1685              	.LVL190:
 1686 000c 184B     		ldr	r3, .L268
 1687 000e C000     		lsls	r0, r0, #3
 1688 0010 1D18     		adds	r5, r3, r0
 1689              	.LVL191:
 1690              		.loc 1 207 0
 1691 0012 1E58     		ldr	r6, [r3, r0]
 1692 0014 AEB1     		cbz	r6, .L262
 1693              	.LBE89:
 1694              	.LBE91:
 1695              		.loc 1 479 0
 1696 0016 102A     		cmp	r2, #16
 1697 0018 17D1     		bne	.L256
 1698              		.loc 1 479 0 is_stmt 0 discriminator 2
 1699 001a 4B78     		ldrb	r3, [r1, #1]	@ zero_extendqisi2
 1700 001c 022B     		cmp	r3, #2
ARM GAS  /tmp/ccPo84yg.s 			page 31


 1701 001e 14D1     		bne	.L256
 1702              		.loc 1 479 0 discriminator 3
 1703 0020 8807     		lsls	r0, r1, #30
 1704 0022 12D1     		bne	.L256
 1705              	.LVL192:
 1706              	.LBB92:
 1707              		.loc 1 491 0 is_stmt 1
 1708 0024 4B68     		ldr	r3, [r1, #4]
 1709              		.loc 1 498 0
 1710 0026 4888     		ldrh	r0, [r1, #2]
 1711              		.loc 1 491 0
 1712 0028 02AC     		add	r4, sp, #8
 1713 002a 44F8043D 		str	r3, [r4, #-4]!
 1714              	.LVL193:
 1715              		.loc 1 498 0
 1716 002e FFF7FEFF 		bl	lwip_ntohs
 1717              	.LVL194:
 1718 0032 2146     		mov	r1, r4
 1719 0034 0246     		mov	r2, r0
 1720 0036 3046     		mov	r0, r6
 1721 0038 FFF7FEFF 		bl	netconn_connect
 1722              	.LVL195:
 1723              	.LBE92:
 1724              		.loc 1 501 0
 1725 003c 60B9     		cbnz	r0, .L267
 1726              		.loc 1 508 0
 1727 003e 2861     		str	r0, [r5, #16]
 1728              		.loc 1 509 0
 1729 0040 01E0     		b	.L265
 1730              	.LVL196:
 1731              	.L262:
 1732              	.LBB93:
 1733              	.LBB90:
 1734              		.loc 1 475 0
 1735 0042 4FF0FF30 		mov	r0, #-1
 1736              	.LVL197:
 1737              	.L265:
 1738              	.LBE90:
 1739              	.LBE93:
 1740              		.loc 1 510 0
 1741 0046 02B0     		add	sp, sp, #8
 1742 0048 70BD     		pop	{r4, r5, r6, pc}
 1743              	.LVL198:
 1744              	.L256:
 1745              		.loc 1 479 0 discriminator 1
 1746 004a FFF7FEFF 		bl	port_halt
 1747              	.LVL199:
 1748 004e 0523     		movs	r3, #5
 1749 0050 2B61     		str	r3, [r5, #16]
 1750 0052 4FF0FF30 		mov	r0, #-1
 1751 0056 F6E7     		b	.L265
 1752              	.LVL200:
 1753              	.L267:
 1754              		.loc 1 503 0
 1755 0058 4042     		negs	r0, r0
 1756              	.LVL201:
 1757 005a 0F28     		cmp	r0, #15
ARM GAS  /tmp/ccPo84yg.s 			page 32


 1758 005c 9ABF     		itte	ls
 1759 005e 054B     		ldrls	r3, .L268+4
 1760 0060 53F82030 		ldrls	r3, [r3, r0, lsl #2]
 1761 0064 0523     		movhi	r3, #5
 1762 0066 2B61     		str	r3, [r5, #16]
 1763              		.loc 1 504 0
 1764 0068 4FF0FF30 		mov	r0, #-1
 1765 006c EBE7     		b	.L265
 1766              	.L269:
 1767 006e 00BF     		.align	2
 1768              	.L268:
 1769 0070 00000000 		.word	.LANCHOR0
 1770 0074 00000000 		.word	.LANCHOR1
 1771              		.cfi_endproc
 1772              	.LFE15:
 1773              		.size	lwip_connect, .-lwip_connect
 1774 0078 AFF30080 		.section	.text.lwip_listen,"ax",%progbits
 1774      AFF30080 
 1775              		.align	2
 1776              		.p2align 4,,15
 1777              		.global	lwip_listen
 1778              		.thumb
 1779              		.thumb_func
 1780              		.type	lwip_listen, %function
 1781              	lwip_listen:
 1782              	.LFB16:
 1783              		.loc 1 522 0
 1784              		.cfi_startproc
 1785              		@ args = 0, pretend = 0, frame = 0
 1786              		@ frame_needed = 0, uses_anonymous_args = 0
 1787              	.LVL202:
 1788              	.LBB94:
 1789              	.LBB95:
 1790              		.loc 1 199 0
 1791 0000 0328     		cmp	r0, #3
 1792              	.LBE95:
 1793              	.LBE94:
 1794              		.loc 1 522 0
 1795 0002 10B5     		push	{r4, lr}
 1796              	.LCFI17:
 1797              		.cfi_def_cfa_offset 8
 1798              		.cfi_offset 4, -8
 1799              		.cfi_offset 14, -4
 1800              	.LBB98:
 1801              	.LBB96:
 1802              		.loc 1 199 0
 1803 0004 0ED8     		bhi	.L278
 1804              		.loc 1 205 0
 1805 0006 00EB4000 		add	r0, r0, r0, lsl #1
 1806              	.LVL203:
 1807 000a 0F4B     		ldr	r3, .L283
 1808 000c C000     		lsls	r0, r0, #3
 1809 000e 1C18     		adds	r4, r3, r0
 1810              	.LVL204:
 1811              		.loc 1 207 0
 1812 0010 1858     		ldr	r0, [r3, r0]
 1813 0012 38B1     		cbz	r0, .L278
ARM GAS  /tmp/ccPo84yg.s 			page 33


 1814              	.LBE96:
 1815              	.LBE98:
 1816              		.loc 1 534 0
 1817 0014 FE29     		cmp	r1, #254
 1818 0016 08DD     		ble	.L275
 1819 0018 FF21     		movs	r1, #255
 1820              	.LVL205:
 1821              	.L276:
 1822              		.loc 1 536 0 discriminator 3
 1823 001a FFF7FEFF 		bl	netconn_listen_with_backlog
 1824              	.LVL206:
 1825              		.loc 1 538 0 discriminator 3
 1826 001e 40B9     		cbnz	r0, .L282
 1827              		.loc 1 544 0
 1828 0020 2061     		str	r0, [r4, #16]
 1829              		.loc 1 545 0
 1830 0022 10BD     		pop	{r4, pc}
 1831              	.LVL207:
 1832              	.L278:
 1833              	.LBB99:
 1834              	.LBB97:
 1835              		.loc 1 530 0
 1836 0024 4FF0FF30 		mov	r0, #-1
 1837 0028 10BD     		pop	{r4, pc}
 1838              	.LVL208:
 1839              	.L275:
 1840              	.LBE97:
 1841              	.LBE99:
 1842              		.loc 1 534 0 discriminator 1
 1843 002a 21EAE171 		bic	r1, r1, r1, asr #31
 1844              	.LVL209:
 1845 002e C9B2     		uxtb	r1, r1
 1846 0030 F3E7     		b	.L276
 1847              	.LVL210:
 1848              	.L282:
 1849              		.loc 1 540 0
 1850 0032 4042     		negs	r0, r0
 1851              	.LVL211:
 1852 0034 0F28     		cmp	r0, #15
 1853 0036 9ABF     		itte	ls
 1854 0038 044B     		ldrls	r3, .L283+4
 1855 003a 53F82030 		ldrls	r3, [r3, r0, lsl #2]
 1856 003e 0523     		movhi	r3, #5
 1857 0040 2361     		str	r3, [r4, #16]
 1858              		.loc 1 541 0
 1859 0042 4FF0FF30 		mov	r0, #-1
 1860 0046 10BD     		pop	{r4, pc}
 1861              	.L284:
 1862              		.align	2
 1863              	.L283:
 1864 0048 00000000 		.word	.LANCHOR0
 1865 004c 00000000 		.word	.LANCHOR1
 1866              		.cfi_endproc
 1867              	.LFE16:
 1868              		.size	lwip_listen, .-lwip_listen
 1869              		.section	.text.lwip_recvfrom,"ax",%progbits
 1870              		.align	2
ARM GAS  /tmp/ccPo84yg.s 			page 34


 1871              		.p2align 4,,15
 1872              		.global	lwip_recvfrom
 1873              		.thumb
 1874              		.thumb_func
 1875              		.type	lwip_recvfrom, %function
 1876              	lwip_recvfrom:
 1877              	.LFB17:
 1878              		.loc 1 551 0
 1879              		.cfi_startproc
 1880              		@ args = 8, pretend = 0, frame = 48
 1881              		@ frame_needed = 0, uses_anonymous_args = 0
 1882              	.LVL212:
 1883 0000 2DE9F04F 		push	{r4, r5, r6, r7, r8, r9, sl, fp, lr}
 1884              	.LCFI18:
 1885              		.cfi_def_cfa_offset 36
 1886              		.cfi_offset 4, -36
 1887              		.cfi_offset 5, -32
 1888              		.cfi_offset 6, -28
 1889              		.cfi_offset 7, -24
 1890              		.cfi_offset 8, -20
 1891              		.cfi_offset 9, -16
 1892              		.cfi_offset 10, -12
 1893              		.cfi_offset 11, -8
 1894              		.cfi_offset 14, -4
 1895 0004 8DB0     		sub	sp, sp, #52
 1896              	.LCFI19:
 1897              		.cfi_def_cfa_offset 88
 1898              		.loc 1 553 0
 1899 0006 0026     		movs	r6, #0
 1900              	.LBB100:
 1901              	.LBB101:
 1902              		.loc 1 199 0
 1903 0008 0328     		cmp	r0, #3
 1904              	.LBE101:
 1905              	.LBE100:
 1906              		.loc 1 553 0
 1907 000a 0696     		str	r6, [sp, #24]
 1908              	.LVL213:
 1909              		.loc 1 551 0
 1910 000c 0191     		str	r1, [sp, #4]
 1911 000e 1746     		mov	r7, r2
 1912 0010 9B46     		mov	fp, r3
 1913              	.LBB104:
 1914              	.LBB102:
 1915              		.loc 1 199 0
 1916 0012 6FD8     		bhi	.L320
 1917              		.loc 1 205 0
 1918 0014 00EB4000 		add	r0, r0, r0, lsl #1
 1919              	.LVL214:
 1920 0018 7C4B     		ldr	r3, .L352
 1921              	.LVL215:
 1922 001a C000     		lsls	r0, r0, #3
 1923 001c 1D18     		adds	r5, r3, r0
 1924              	.LVL216:
 1925              		.loc 1 207 0
 1926 001e 1B58     		ldr	r3, [r3, r0]
 1927 0020 002B     		cmp	r3, #0
ARM GAS  /tmp/ccPo84yg.s 			page 35


 1928 0022 67D0     		beq	.L320
 1929              	.LVL217:
 1930              	.LBE102:
 1931              	.LBE104:
 1932              		.loc 1 571 0
 1933 0024 6C68     		ldr	r4, [r5, #4]
 1934              	.LBB105:
 1935              	.LBB106:
 1936              		.loc 1 672 0
 1937 0026 CDF808B0 		str	fp, [sp, #8]
 1938              	.LBE106:
 1939              	.LBE105:
 1940              		.loc 1 575 0
 1941 002a 0BF00802 		and	r2, fp, #8
 1942              	.LVL218:
 1943 002e 0392     		str	r2, [sp, #12]
 1944              	.LBB110:
 1945              	.LBB107:
 1946              		.loc 1 671 0
 1947 0030 B146     		mov	r9, r6
 1948              		.loc 1 672 0
 1949 0032 DDF85CA0 		ldr	sl, [sp, #92]
 1950              	.LBE107:
 1951              	.LBE110:
 1952              		.loc 1 571 0
 1953 0036 002C     		cmp	r4, #0
 1954 0038 73D0     		beq	.L287
 1955              	.LVL219:
 1956              	.L347:
 1957              		.loc 1 572 0
 1958 003a 0694     		str	r4, [sp, #24]
 1959              	.L288:
 1960              		.loc 1 621 0
 1961 003c 2B68     		ldr	r3, [r5, #0]
 1962              		.loc 1 640 0
 1963 003e 019A     		ldr	r2, [sp, #4]
 1964              		.loc 1 621 0
 1965 0040 1B78     		ldrb	r3, [r3, #0]	@ zero_extendqisi2
 1966 0042 102B     		cmp	r3, #16
 1967              		.loc 1 624 0
 1968 0044 18BF     		it	ne
 1969 0046 2468     		ldrne	r4, [r4, #0]
 1970              	.LVL220:
 1971              		.loc 1 630 0
 1972 0048 2B89     		ldrh	r3, [r5, #8]
 1973              		.loc 1 626 0
 1974 004a B4F80880 		ldrh	r8, [r4, #8]
 1975              	.LVL221:
 1976              		.loc 1 630 0
 1977 004e C3EB0808 		rsb	r8, r3, r8
 1978 0052 1FFA88F8 		uxth	r8, r8
 1979              	.LVL222:
 1980              		.loc 1 632 0
 1981 0056 4745     		cmp	r7, r8
 1982              		.loc 1 635 0
 1983 0058 94BF     		ite	ls
 1984 005a 1FFA87FB 		uxthls	fp, r7
ARM GAS  /tmp/ccPo84yg.s 			page 36


 1985              	.LVL223:
 1986              		.loc 1 633 0
 1987 005e C346     		movhi	fp, r8
 1988              	.LVL224:
 1989              		.loc 1 640 0
 1990 0060 9119     		adds	r1, r2, r6
 1991 0062 2046     		mov	r0, r4
 1992 0064 5A46     		mov	r2, fp
 1993 0066 FFF7FEFF 		bl	pbuf_copy_partial
 1994              	.LVL225:
 1995              		.loc 1 644 0
 1996 006a 2B68     		ldr	r3, [r5, #0]
 1997 006c 1B78     		ldrb	r3, [r3, #0]	@ zero_extendqisi2
 1998 006e 102B     		cmp	r3, #16
 1999              		.loc 1 642 0
 2000 0070 5E44     		add	r6, r6, fp
 2001              	.LVL226:
 2002              		.loc 1 644 0
 2003 0072 70D0     		beq	.L343
 2004              	.LVL227:
 2005              	.L301:
 2006 0074 029A     		ldr	r2, [sp, #8]
 2007 0076 02F00104 		and	r4, r2, #1
 2008              	.L304:
 2009              	.LVL228:
 2010              	.LBB111:
 2011              		.loc 1 660 0
 2012 007a 169B     		ldr	r3, [sp, #88]
 2013 007c BAF1000F 		cmp	sl, #0
 2014 0080 18BF     		it	ne
 2015 0082 002B     		cmpne	r3, #0
 2016 0084 2DD0     		beq	.L317
 2017              	.LBB108:
 2018              		.loc 1 663 0
 2019 0086 2868     		ldr	r0, [r5, #0]
 2020 0088 0378     		ldrb	r3, [r0, #0]	@ zero_extendqisi2
 2021 008a 102B     		cmp	r3, #16
 2022 008c 00F09880 		beq	.L344
 2023              		.loc 1 667 0
 2024 0090 069B     		ldr	r3, [sp, #24]
 2025              		.loc 1 668 0
 2026 0092 9A89     		ldrh	r2, [r3, #12]
 2027              		.loc 1 667 0
 2028 0094 0833     		adds	r3, r3, #8
 2029              	.LVL229:
 2030              		.loc 1 668 0
 2031 0096 ADF81620 		strh	r2, [sp, #22]	@ movhi
 2032              	.L309:
 2033              		.loc 1 672 0
 2034 009a 1022     		movs	r2, #16
 2035              		.loc 1 671 0
 2036 009c CDF82090 		str	r9, [sp, #32]
 2037              		.loc 1 674 0
 2038 00a0 BDF81600 		ldrh	r0, [sp, #22]
 2039              		.loc 1 672 0
 2040 00a4 8DF82020 		strb	r2, [sp, #32]
 2041              		.loc 1 673 0
ARM GAS  /tmp/ccPo84yg.s 			page 37


 2042 00a8 0222     		movs	r2, #2
 2043 00aa 8DF82120 		strb	r2, [sp, #33]
 2044              		.loc 1 674 0
 2045 00ae 0093     		str	r3, [sp, #0]
 2046              		.loc 1 671 0
 2047 00b0 CDF82490 		str	r9, [sp, #36]
 2048 00b4 CDF82890 		str	r9, [sp, #40]
 2049 00b8 CDF82C90 		str	r9, [sp, #44]
 2050              		.loc 1 674 0
 2051 00bc FFF7FEFF 		bl	lwip_htons
 2052              	.LVL230:
 2053              		.loc 1 675 0
 2054 00c0 009B     		ldr	r3, [sp, #0]
 2055              		.loc 1 677 0
 2056 00c2 DAF80020 		ldr	r2, [sl, #0]
 2057              		.loc 1 675 0
 2058 00c6 1B68     		ldr	r3, [r3, #0]
 2059              		.loc 1 674 0
 2060 00c8 ADF82200 		strh	r0, [sp, #34]	@ movhi
 2061              		.loc 1 677 0
 2062 00cc 102A     		cmp	r2, #16
 2063              		.loc 1 675 0
 2064 00ce 0993     		str	r3, [sp, #36]
 2065              		.loc 1 677 0
 2066 00d0 03D9     		bls	.L310
 2067              		.loc 1 678 0
 2068 00d2 1023     		movs	r3, #16
 2069 00d4 CAF80030 		str	r3, [sl, #0]
 2070 00d8 1A46     		mov	r2, r3
 2071              	.L310:
 2072              		.loc 1 681 0
 2073 00da 1698     		ldr	r0, [sp, #88]
 2074 00dc 08A9     		add	r1, sp, #32
 2075 00de FFF7FEFF 		bl	memcpy
 2076              	.LVL231:
 2077              	.L317:
 2078              	.LBE108:
 2079              	.LBE111:
 2080              		.loc 1 704 0
 2081 00e2 6CB1     		cbz	r4, .L345
 2082              	.LVL232:
 2083              	.L311:
 2084              		.loc 1 725 0
 2085 00e4 1EB1     		cbz	r6, .L315
 2086              	.LVL233:
 2087              	.L341:
 2088              		.loc 1 727 0
 2089 00e6 2868     		ldr	r0, [r5, #0]
 2090 00e8 3146     		mov	r1, r6
 2091 00ea FFF7FEFF 		bl	netconn_recved
 2092              	.LVL234:
 2093              	.L315:
 2094              		.loc 1 729 0
 2095 00ee 0023     		movs	r3, #0
 2096 00f0 2B61     		str	r3, [r5, #16]
 2097 00f2 01E0     		b	.L339
 2098              	.LVL235:
ARM GAS  /tmp/ccPo84yg.s 			page 38


 2099              	.L320:
 2100              	.LBB112:
 2101              	.LBB103:
 2102              		.loc 1 565 0
 2103 00f4 4FF0FF36 		mov	r6, #-1
 2104              	.LVL236:
 2105              	.L339:
 2106              	.LBE103:
 2107              	.LBE112:
 2108              		.loc 1 731 0
 2109 00f8 3046     		mov	r0, r6
 2110 00fa 0DB0     		add	sp, sp, #52
 2111 00fc BDE8F08F 		pop	{r4, r5, r6, r7, r8, r9, sl, fp, pc}
 2112              	.LVL237:
 2113              	.L345:
 2114              		.loc 1 704 0
 2115 0100 0124     		movs	r4, #1
 2116              	.LVL238:
 2117              	.L307:
 2118              		.loc 1 708 0
 2119 0102 2B68     		ldr	r3, [r5, #0]
 2120 0104 1B78     		ldrb	r3, [r3, #0]	@ zero_extendqisi2
 2121 0106 102B     		cmp	r3, #16
 2122 0108 3BD0     		beq	.L346
 2123              		.loc 1 719 0
 2124 010a 0698     		ldr	r0, [sp, #24]
 2125              		.loc 1 713 0
 2126 010c C5F80490 		str	r9, [r5, #4]
 2127              		.loc 1 714 0
 2128 0110 A5F80890 		strh	r9, [r5, #8]	@ movhi
 2129              		.loc 1 719 0
 2130 0114 FFF7FEFF 		bl	netbuf_delete
 2131              	.LVL239:
 2132              		.loc 1 723 0
 2133 0118 002C     		cmp	r4, #0
 2134 011a E3D1     		bne	.L311
 2135              	.LVL240:
 2136              	.L342:
 2137              		.loc 1 571 0
 2138 011c 6C68     		ldr	r4, [r5, #4]
 2139 011e 002C     		cmp	r4, #0
 2140 0120 8BD1     		bne	.L347
 2141              	.LVL241:
 2142              	.L287:
 2143              		.loc 1 575 0
 2144 0122 039B     		ldr	r3, [sp, #12]
 2145 0124 2BB9     		cbnz	r3, .L289
 2146              		.loc 1 575 0 is_stmt 0 discriminator 2
 2147 0126 2868     		ldr	r0, [r5, #0]
 2148 0128 037F     		ldrb	r3, [r0, #28]	@ zero_extendqisi2
 2149 012a 03F00203 		and	r3, r3, #2
 2150 012e DBB2     		uxtb	r3, r3
 2151 0130 23B1     		cbz	r3, .L290
 2152              	.L289:
 2153              		.loc 1 575 0 discriminator 1
 2154 0132 B5F90A30 		ldrsh	r3, [r5, #10]
 2155 0136 002B     		cmp	r3, #0
ARM GAS  /tmp/ccPo84yg.s 			page 39


 2156 0138 60DD     		ble	.L291
 2157 013a 2868     		ldr	r0, [r5, #0]
 2158              	.L290:
 2159              		.loc 1 591 0 is_stmt 1
 2160 013c 0378     		ldrb	r3, [r0, #0]	@ zero_extendqisi2
 2161 013e 102B     		cmp	r3, #16
 2162              		.loc 1 592 0
 2163 0140 06A9     		add	r1, sp, #24
 2164              		.loc 1 591 0
 2165 0142 30D0     		beq	.L348
 2166              		.loc 1 594 0
 2167 0144 FFF7FEFF 		bl	netconn_recv
 2168              	.LVL242:
 2169              	.L294:
 2170              		.loc 1 599 0
 2171 0148 0028     		cmp	r0, #0
 2172 014a 45D1     		bne	.L349
 2173              		.loc 1 617 0
 2174 014c 069C     		ldr	r4, [sp, #24]
 2175 014e 002C     		cmp	r4, #0
 2176 0150 3ED0     		beq	.L350
 2177              	.LVL243:
 2178              	.L298:
 2179              		.loc 1 618 0
 2180 0152 6C60     		str	r4, [r5, #4]
 2181 0154 72E7     		b	.L288
 2182              	.LVL244:
 2183              	.L343:
 2184              		.loc 1 645 0
 2185 0156 5F45     		cmp	r7, fp
 2186 0158 22D3     		bcc	.L351
 2187              	.L302:
 2188              	.LVL245:
 2189              		.loc 1 647 0
 2190 015a B7EB0B07 		subs	r7, r7, fp
 2191              	.LVL246:
 2192 015e 0CD0     		beq	.L340
 2193              		.loc 1 648 0 discriminator 1
 2194 0160 637B     		ldrb	r3, [r4, #13]	@ zero_extendqisi2
 2195              		.loc 1 647 0 discriminator 1
 2196 0162 DC07     		lsls	r4, r3, #31
 2197              	.LVL247:
 2198 0164 86D4     		bmi	.L301
 2199              		.loc 1 648 0
 2200 0166 B5F90A30 		ldrsh	r3, [r5, #10]
 2201 016a 002B     		cmp	r3, #0
 2202 016c 05DD     		ble	.L340
 2203              		.loc 1 649 0
 2204 016e 029A     		ldr	r2, [sp, #8]
 2205 0170 12F00104 		ands	r4, r2, #1
 2206 0174 C5D0     		beq	.L307
 2207 0176 0124     		movs	r4, #1
 2208 0178 7FE7     		b	.L304
 2209              	.L340:
 2210 017a 029B     		ldr	r3, [sp, #8]
 2211 017c 03F00104 		and	r4, r3, #1
 2212 0180 7BE7     		b	.L304
ARM GAS  /tmp/ccPo84yg.s 			page 40


 2213              	.LVL248:
 2214              	.L346:
 2215              		.loc 1 708 0 discriminator 1
 2216 0182 CBEB0808 		rsb	r8, fp, r8
 2217              	.LVL249:
 2218 0186 B8F1000F 		cmp	r8, #0
 2219 018a 0FDD     		ble	.L313
 2220              		.loc 1 710 0
 2221 018c 2B89     		ldrh	r3, [r5, #8]
 2222 018e 0BEB030C 		add	ip, fp, r3
 2223              		.loc 1 709 0
 2224 0192 069B     		ldr	r3, [sp, #24]
 2225              		.loc 1 710 0
 2226 0194 A5F808C0 		strh	ip, [r5, #8]	@ movhi
 2227              		.loc 1 709 0
 2228 0198 6B60     		str	r3, [r5, #4]
 2229              		.loc 1 723 0
 2230 019a 002C     		cmp	r4, #0
 2231 019c BED0     		beq	.L342
 2232 019e A1E7     		b	.L311
 2233              	.LVL250:
 2234              	.L351:
 2235              		.loc 1 645 0 discriminator 1
 2236 01a0 FFF7FEFF 		bl	port_halt
 2237              	.LVL251:
 2238 01a4 D9E7     		b	.L302
 2239              	.LVL252:
 2240              	.L348:
 2241              		.loc 1 592 0
 2242 01a6 FFF7FEFF 		bl	netconn_recv_tcp_pbuf
 2243              	.LVL253:
 2244 01aa CDE7     		b	.L294
 2245              	.LVL254:
 2246              	.L313:
 2247              		.loc 1 717 0
 2248 01ac 0698     		ldr	r0, [sp, #24]
 2249              		.loc 1 713 0
 2250 01ae C5F80490 		str	r9, [r5, #4]
 2251              		.loc 1 714 0
 2252 01b2 A5F80890 		strh	r9, [r5, #8]	@ movhi
 2253              		.loc 1 717 0
 2254 01b6 FFF7FEFF 		bl	pbuf_free
 2255              	.LVL255:
 2256              		.loc 1 723 0
 2257 01ba 002C     		cmp	r4, #0
 2258 01bc AED0     		beq	.L342
 2259 01be 91E7     		b	.L311
 2260              	.LVL256:
 2261              	.L344:
 2262              	.LBB113:
 2263              	.LBB109:
 2264              		.loc 1 665 0
 2265 01c0 0023     		movs	r3, #0
 2266 01c2 07A9     		add	r1, sp, #28
 2267              	.LVL257:
 2268 01c4 0DF11602 		add	r2, sp, #22
 2269 01c8 FFF7FEFF 		bl	netconn_getaddr
ARM GAS  /tmp/ccPo84yg.s 			page 41


 2270              	.LVL258:
 2271              		.loc 1 664 0
 2272 01cc 07AB     		add	r3, sp, #28
 2273              	.LVL259:
 2274 01ce 64E7     		b	.L309
 2275              	.LVL260:
 2276              	.L350:
 2277              	.LBE109:
 2278              	.LBE113:
 2279              		.loc 1 617 0 discriminator 1
 2280 01d0 FFF7FEFF 		bl	port_halt
 2281              	.LVL261:
 2282 01d4 069C     		ldr	r4, [sp, #24]
 2283 01d6 BCE7     		b	.L298
 2284              	.LVL262:
 2285              	.L349:
 2286              		.loc 1 600 0
 2287 01d8 002E     		cmp	r6, #0
 2288 01da 84D1     		bne	.L341
 2289              		.loc 1 610 0
 2290 01dc 40B2     		sxtb	r0, r0
 2291              	.LVL263:
 2292 01de 4342     		negs	r3, r0
 2293 01e0 0F2B     		cmp	r3, #15
 2294 01e2 9ABF     		itte	ls
 2295 01e4 0A4A     		ldrls	r2, .L352+4
 2296 01e6 52F82330 		ldrls	r3, [r2, r3, lsl #2]
 2297 01ea 0523     		movhi	r3, #5
 2298 01ec 2B61     		str	r3, [r5, #16]
 2299              		.loc 1 612 0
 2300 01ee 10F10C0F 		cmn	r0, #12
 2301 01f2 14BF     		ite	ne
 2302 01f4 4FF0FF36 		movne	r6, #-1
 2303 01f8 0026     		moveq	r6, #0
 2304              	.LVL264:
 2305 01fa 7DE7     		b	.L339
 2306              	.LVL265:
 2307              	.L291:
 2308              		.loc 1 577 0
 2309 01fc 002E     		cmp	r6, #0
 2310 01fe 7FF472AF 		bne	.L341
 2311              		.loc 1 585 0
 2312 0202 0B23     		movs	r3, #11
 2313 0204 2B61     		str	r3, [r5, #16]
 2314              		.loc 1 586 0
 2315 0206 4FF0FF36 		mov	r6, #-1
 2316              	.LVL266:
 2317 020a 75E7     		b	.L339
 2318              	.L353:
 2319              		.align	2
 2320              	.L352:
 2321 020c 00000000 		.word	.LANCHOR0
 2322 0210 00000000 		.word	.LANCHOR1
 2323              		.cfi_endproc
 2324              	.LFE17:
 2325              		.size	lwip_recvfrom, .-lwip_recvfrom
 2326 0214 AFF30080 		.section	.text.lwip_read,"ax",%progbits
ARM GAS  /tmp/ccPo84yg.s 			page 42


 2326      AFF30080 
 2326      AFF30080 
 2327              		.align	2
 2328              		.p2align 4,,15
 2329              		.global	lwip_read
 2330              		.thumb
 2331              		.thumb_func
 2332              		.type	lwip_read, %function
 2333              	lwip_read:
 2334              	.LFB18:
 2335              		.loc 1 735 0
 2336              		.cfi_startproc
 2337              		@ args = 0, pretend = 0, frame = 0
 2338              		@ frame_needed = 0, uses_anonymous_args = 0
 2339              	.LVL267:
 2340 0000 00B5     		push	{lr}
 2341              	.LCFI20:
 2342              		.cfi_def_cfa_offset 4
 2343              		.cfi_offset 14, -4
 2344 0002 83B0     		sub	sp, sp, #12
 2345              	.LCFI21:
 2346              		.cfi_def_cfa_offset 16
 2347              		.loc 1 736 0
 2348 0004 0023     		movs	r3, #0
 2349 0006 0093     		str	r3, [sp, #0]
 2350 0008 0193     		str	r3, [sp, #4]
 2351 000a FFF7FEFF 		bl	lwip_recvfrom
 2352              	.LVL268:
 2353              		.loc 1 737 0
 2354 000e 03B0     		add	sp, sp, #12
 2355 0010 00BD     		pop	{pc}
 2356              		.cfi_endproc
 2357              	.LFE18:
 2358              		.size	lwip_read, .-lwip_read
 2359 0012 00BFAFF3 		.section	.text.lwip_recv,"ax",%progbits
 2359      0080AFF3 
 2359      0080AFF3 
 2359      0080
 2360              		.align	2
 2361              		.p2align 4,,15
 2362              		.global	lwip_recv
 2363              		.thumb
 2364              		.thumb_func
 2365              		.type	lwip_recv, %function
 2366              	lwip_recv:
 2367              	.LFB19:
 2368              		.loc 1 741 0
 2369              		.cfi_startproc
 2370              		@ args = 0, pretend = 0, frame = 0
 2371              		@ frame_needed = 0, uses_anonymous_args = 0
 2372              	.LVL269:
 2373 0000 10B5     		push	{r4, lr}
 2374              	.LCFI22:
 2375              		.cfi_def_cfa_offset 8
 2376              		.cfi_offset 4, -8
 2377              		.cfi_offset 14, -4
 2378 0002 82B0     		sub	sp, sp, #8
ARM GAS  /tmp/ccPo84yg.s 			page 43


 2379              	.LCFI23:
 2380              		.cfi_def_cfa_offset 16
 2381              		.loc 1 742 0
 2382 0004 0024     		movs	r4, #0
 2383 0006 0094     		str	r4, [sp, #0]
 2384 0008 0194     		str	r4, [sp, #4]
 2385 000a FFF7FEFF 		bl	lwip_recvfrom
 2386              	.LVL270:
 2387              		.loc 1 743 0
 2388 000e 02B0     		add	sp, sp, #8
 2389 0010 10BD     		pop	{r4, pc}
 2390              		.cfi_endproc
 2391              	.LFE19:
 2392              		.size	lwip_recv, .-lwip_recv
 2393 0012 00BFAFF3 		.section	.text.lwip_sendto,"ax",%progbits
 2393      0080AFF3 
 2393      0080AFF3 
 2393      0080
 2394              		.align	2
 2395              		.p2align 4,,15
 2396              		.global	lwip_sendto
 2397              		.thumb
 2398              		.thumb_func
 2399              		.type	lwip_sendto, %function
 2400              	lwip_sendto:
 2401              	.LFB21:
 2402              		.loc 1 790 0
 2403              		.cfi_startproc
 2404              		@ args = 8, pretend = 0, frame = 16
 2405              		@ frame_needed = 0, uses_anonymous_args = 0
 2406              	.LVL271:
 2407 0000 2DE9F043 		push	{r4, r5, r6, r7, r8, r9, lr}
 2408              	.LCFI24:
 2409              		.cfi_def_cfa_offset 28
 2410              		.cfi_offset 4, -28
 2411              		.cfi_offset 5, -24
 2412              		.cfi_offset 6, -20
 2413              		.cfi_offset 7, -16
 2414              		.cfi_offset 8, -12
 2415              		.cfi_offset 9, -8
 2416              		.cfi_offset 14, -4
 2417 0004 85B0     		sub	sp, sp, #20
 2418              	.LCFI25:
 2419              		.cfi_def_cfa_offset 48
 2420              	.LBB114:
 2421              	.LBB115:
 2422              		.loc 1 199 0
 2423 0006 0328     		cmp	r0, #3
 2424              	.LBE115:
 2425              	.LBE114:
 2426              		.loc 1 790 0
 2427 0008 0746     		mov	r7, r0
 2428              	.LVL272:
 2429 000a 8846     		mov	r8, r1
 2430 000c 1646     		mov	r6, r2
 2431 000e 0C9C     		ldr	r4, [sp, #48]
 2432 0010 0D9D     		ldr	r5, [sp, #52]
ARM GAS  /tmp/ccPo84yg.s 			page 44


 2433              	.LBB117:
 2434              	.LBB116:
 2435              		.loc 1 199 0
 2436 0012 3FD8     		bhi	.L377
 2437              		.loc 1 205 0
 2438 0014 00EB4007 		add	r7, r0, r0, lsl #1
 2439 0018 DFF8B8C0 		ldr	ip, .L381+4
 2440 001c FF00     		lsls	r7, r7, #3
 2441 001e 0CEB0709 		add	r9, ip, r7
 2442              	.LVL273:
 2443              		.loc 1 207 0
 2444 0022 5CF80770 		ldr	r7, [ip, r7]
 2445 0026 002F     		cmp	r7, #0
 2446 0028 34D0     		beq	.L377
 2447              	.LBE116:
 2448              	.LBE117:
 2449              		.loc 1 805 0
 2450 002a 3F78     		ldrb	r7, [r7, #0]	@ zero_extendqisi2
 2451 002c 102F     		cmp	r7, #16
 2452 002e 46D0     		beq	.L378
 2453              		.loc 1 816 0
 2454 0030 B6F5803F 		cmp	r6, #65536
 2455 0034 39D2     		bcs	.L379
 2456              	.LVL274:
 2457              	.L361:
 2458              		.loc 1 818 0
 2459 0036 002C     		cmp	r4, #0
 2460 0038 08BF     		it	eq
 2461 003a 002D     		cmpeq	r5, #0
 2462              		.loc 1 817 0
 2463 003c B7B2     		uxth	r7, r6
 2464              	.LVL275:
 2465              		.loc 1 818 0
 2466 003e 0CBF     		ite	eq
 2467 0040 0023     		moveq	r3, #0
 2468 0042 0123     		movne	r3, #1
 2469 0044 2BD0     		beq	.L362
 2470              		.loc 1 818 0 is_stmt 0 discriminator 1
 2471 0046 102D     		cmp	r5, #16
 2472 0048 3CD1     		bne	.L363
 2473              		.loc 1 818 0 discriminator 3
 2474 004a 6378     		ldrb	r3, [r4, #1]	@ zero_extendqisi2
 2475 004c 022B     		cmp	r3, #2
 2476 004e 39D1     		bne	.L363
 2477              		.loc 1 818 0 discriminator 4
 2478 0050 14F00303 		ands	r3, r4, #3
 2479 0054 36D1     		bne	.L363
 2480              	.LVL276:
 2481              		.loc 1 888 0 is_stmt 1
 2482 0056 6268     		ldr	r2, [r4, #4]
 2483              		.loc 1 889 0
 2484 0058 6088     		ldrh	r0, [r4, #2]
 2485              		.loc 1 883 0
 2486 005a 0193     		str	r3, [sp, #4]
 2487 005c 0093     		str	r3, [sp, #0]
 2488              		.loc 1 888 0
 2489 005e 0292     		str	r2, [sp, #8]
ARM GAS  /tmp/ccPo84yg.s 			page 45


 2490              		.loc 1 889 0
 2491 0060 FFF7FEFF 		bl	lwip_ntohs
 2492              	.LVL277:
 2493              		.loc 1 890 0
 2494 0064 ADF80C00 		strh	r0, [sp, #12]	@ movhi
 2495              	.LVL278:
 2496              	.L369:
 2497              		.loc 1 920 0
 2498 0068 6846     		mov	r0, sp
 2499 006a 4146     		mov	r1, r8
 2500 006c 3A46     		mov	r2, r7
 2501 006e FFF7FEFF 		bl	netbuf_ref
 2502              	.LVL279:
 2503              		.loc 1 922 0
 2504 0072 0446     		mov	r4, r0
 2505 0074 E0B1     		cbz	r0, .L380
 2506              	.LVL280:
 2507              	.L365:
 2508              		.loc 1 928 0
 2509 0076 6846     		mov	r0, sp
 2510 0078 FFF7FEFF 		bl	netbuf_free
 2511              	.LVL281:
 2512              		.loc 1 930 0
 2513 007c 63B2     		sxtb	r3, r4
 2514 007e 5B42     		negs	r3, r3
 2515 0080 0F2B     		cmp	r3, #15
 2516 0082 9ABF     		itte	ls
 2517 0084 124A     		ldrls	r2, .L381
 2518 0086 52F82330 		ldrls	r3, [r2, r3, lsl #2]
 2519 008a 0523     		movhi	r3, #5
 2520 008c C9F81030 		str	r3, [r9, #16]
 2521              		.loc 1 2345 0
 2522 0090 B0B2     		uxth	r0, r6
 2523              		.loc 1 931 0
 2524 0092 0CB1     		cbz	r4, .L374
 2525              	.LVL282:
 2526              	.L377:
 2527              		.loc 1 818 0 discriminator 2
 2528 0094 4FF0FF30 		mov	r0, #-1
 2529              	.L374:
 2530              		.loc 1 932 0
 2531 0098 05B0     		add	sp, sp, #20
 2532 009a BDE8F083 		pop	{r4, r5, r6, r7, r8, r9, pc}
 2533              	.LVL283:
 2534              	.L362:
 2535              		.loc 1 883 0
 2536 009e 0193     		str	r3, [sp, #4]
 2537 00a0 0093     		str	r3, [sp, #0]
 2538              	.LVL284:
 2539              		.loc 1 893 0
 2540 00a2 0293     		str	r3, [sp, #8]
 2541              		.loc 1 894 0
 2542 00a4 ADF80C30 		strh	r3, [sp, #12]	@ movhi
 2543 00a8 DEE7     		b	.L369
 2544              	.LVL285:
 2545              	.L379:
 2546              		.loc 1 816 0 discriminator 1
ARM GAS  /tmp/ccPo84yg.s 			page 46


 2547 00aa FFF7FEFF 		bl	port_halt
 2548              	.LVL286:
 2549 00ae C2E7     		b	.L361
 2550              	.LVL287:
 2551              	.L380:
 2552              		.loc 1 924 0
 2553 00b0 D9F80000 		ldr	r0, [r9, #0]
 2554              	.LVL288:
 2555 00b4 6946     		mov	r1, sp
 2556 00b6 FFF7FEFF 		bl	netconn_send
 2557              	.LVL289:
 2558 00ba 0446     		mov	r4, r0
 2559              	.LVL290:
 2560 00bc DBE7     		b	.L365
 2561              	.LVL291:
 2562              	.L378:
 2563              		.loc 1 807 0
 2564 00be FFF7FEFF 		bl	lwip_send
 2565              	.LVL292:
 2566 00c2 E9E7     		b	.L374
 2567              	.LVL293:
 2568              	.L363:
 2569              		.loc 1 818 0 discriminator 2
 2570 00c4 FFF7FEFF 		bl	port_halt
 2571              	.LVL294:
 2572 00c8 0523     		movs	r3, #5
 2573 00ca C9F81030 		str	r3, [r9, #16]
 2574 00ce E1E7     		b	.L377
 2575              	.L382:
 2576              		.align	2
 2577              	.L381:
 2578 00d0 00000000 		.word	.LANCHOR1
 2579 00d4 00000000 		.word	.LANCHOR0
 2580              		.cfi_endproc
 2581              	.LFE21:
 2582              		.size	lwip_sendto, .-lwip_sendto
 2583 00d8 AFF30080 		.section	.text.lwip_send,"ax",%progbits
 2583      AFF30080 
 2584              		.align	2
 2585              		.p2align 4,,15
 2586              		.global	lwip_send
 2587              		.thumb
 2588              		.thumb_func
 2589              		.type	lwip_send, %function
 2590              	lwip_send:
 2591              	.LFB20:
 2592              		.loc 1 747 0
 2593              		.cfi_startproc
 2594              		@ args = 0, pretend = 0, frame = 0
 2595              		@ frame_needed = 0, uses_anonymous_args = 0
 2596              	.LVL295:
 2597 0000 2DE9F041 		push	{r4, r5, r6, r7, r8, lr}
 2598              	.LCFI26:
 2599              		.cfi_def_cfa_offset 24
 2600              		.cfi_offset 4, -24
 2601              		.cfi_offset 5, -20
 2602              		.cfi_offset 6, -16
ARM GAS  /tmp/ccPo84yg.s 			page 47


 2603              		.cfi_offset 7, -12
 2604              		.cfi_offset 8, -8
 2605              		.cfi_offset 14, -4
 2606              	.LBB118:
 2607              	.LBB119:
 2608              		.loc 1 199 0
 2609 0004 0328     		cmp	r0, #3
 2610              	.LBE119:
 2611              	.LBE118:
 2612              		.loc 1 747 0
 2613 0006 82B0     		sub	sp, sp, #8
 2614              	.LCFI27:
 2615              		.cfi_def_cfa_offset 32
 2616              		.loc 1 747 0
 2617 0008 0446     		mov	r4, r0
 2618              	.LVL296:
 2619 000a 0F46     		mov	r7, r1
 2620 000c 1646     		mov	r6, r2
 2621 000e 1D46     		mov	r5, r3
 2622              	.LBB121:
 2623              	.LBB120:
 2624              		.loc 1 199 0
 2625 0010 37D8     		bhi	.L407
 2626              		.loc 1 205 0
 2627 0012 00EB4004 		add	r4, r0, r0, lsl #1
 2628 0016 DFF884C0 		ldr	ip, .L409+4
 2629 001a E400     		lsls	r4, r4, #3
 2630 001c 0CEB0408 		add	r8, ip, r4
 2631              	.LVL297:
 2632              		.loc 1 207 0
 2633 0020 5CF80440 		ldr	r4, [ip, r4]
 2634 0024 6CB3     		cbz	r4, .L407
 2635              	.LBE120:
 2636              	.LBE121:
 2637              		.loc 1 760 0
 2638 0026 94F800C0 		ldrb	ip, [r4, #0]	@ zero_extendqisi2
 2639 002a BCF1100F 		cmp	ip, #16
 2640 002e 2DD1     		bne	.L408
 2641              		.loc 1 769 0
 2642 0030 15F00802 		ands	r2, r5, #8
 2643              	.LVL298:
 2644 0034 1FD1     		bne	.L388
 2645              		.loc 1 769 0 is_stmt 0 discriminator 1
 2646 0036 237F     		ldrb	r3, [r4, #28]	@ zero_extendqisi2
 2647              	.LVL299:
 2648 0038 03F00203 		and	r3, r3, #2
 2649 003c DBB2     		uxtb	r3, r3
 2650 003e D3B9     		cbnz	r3, .L388
 2651              	.L389:
 2652              		.loc 1 777 0 is_stmt 1
 2653 0040 15F0100F 		tst	r5, #16
 2654 0044 0CBF     		ite	eq
 2655 0046 0123     		moveq	r3, #1
 2656 0048 0323     		movne	r3, #3
 2657 004a 002A     		cmp	r2, #0
 2658 004c 14BF     		ite	ne
 2659 004e 0425     		movne	r5, #4
ARM GAS  /tmp/ccPo84yg.s 			page 48


 2660 0050 0025     		moveq	r5, #0
 2661              	.LVL300:
 2662              		.loc 1 780 0
 2663 0052 2B43     		orrs	r3, r3, r5
 2664              	.LVL301:
 2665 0054 3246     		mov	r2, r6
 2666 0056 2046     		mov	r0, r4
 2667              	.LVL302:
 2668 0058 3946     		mov	r1, r7
 2669              	.LVL303:
 2670 005a FFF7FEFF 		bl	netconn_write
 2671              	.LVL304:
 2672              		.loc 1 783 0
 2673 005e 4342     		negs	r3, r0
 2674 0060 0F2B     		cmp	r3, #15
 2675 0062 9ABF     		itte	ls
 2676 0064 0C4A     		ldrls	r2, .L409
 2677 0066 52F82330 		ldrls	r3, [r2, r3, lsl #2]
 2678 006a 0523     		movhi	r3, #5
 2679 006c C8F81030 		str	r3, [r8, #16]
 2680              		.loc 1 784 0
 2681 0070 38B9     		cbnz	r0, .L407
 2682              		.loc 1 784 0 is_stmt 0 discriminator 1
 2683 0072 3046     		mov	r0, r6
 2684              	.LVL305:
 2685 0074 07E0     		b	.L404
 2686              	.LVL306:
 2687              	.L388:
 2688              		.loc 1 770 0 is_stmt 1
 2689 0076 B6F5807F 		cmp	r6, #256
 2690 007a E1D9     		bls	.L389
 2691              		.loc 1 772 0
 2692 007c 5A23     		movs	r3, #90
 2693 007e C8F81030 		str	r3, [r8, #16]
 2694              	.LVL307:
 2695              	.L407:
 2696              		.loc 1 773 0
 2697 0082 4FF0FF30 		mov	r0, #-1
 2698              	.L404:
 2699              		.loc 1 785 0
 2700 0086 02B0     		add	sp, sp, #8
 2701 0088 BDE8F081 		pop	{r4, r5, r6, r7, r8, pc}
 2702              	.LVL308:
 2703              	.L408:
 2704              		.loc 1 762 0
 2705 008c 0024     		movs	r4, #0
 2706 008e 0094     		str	r4, [sp, #0]
 2707 0090 0194     		str	r4, [sp, #4]
 2708 0092 FFF7FEFF 		bl	lwip_sendto
 2709              	.LVL309:
 2710 0096 F6E7     		b	.L404
 2711              	.L410:
 2712              		.align	2
 2713              	.L409:
 2714 0098 00000000 		.word	.LANCHOR1
 2715 009c 00000000 		.word	.LANCHOR0
 2716              		.cfi_endproc
ARM GAS  /tmp/ccPo84yg.s 			page 49


 2717              	.LFE20:
 2718              		.size	lwip_send, .-lwip_send
 2719              		.section	.text.lwip_socket,"ax",%progbits
 2720              		.align	2
 2721              		.p2align 4,,15
 2722              		.global	lwip_socket
 2723              		.thumb
 2724              		.thumb_func
 2725              		.type	lwip_socket, %function
 2726              	lwip_socket:
 2727              	.LFB22:
 2728              		.loc 1 936 0
 2729              		.cfi_startproc
 2730              		@ args = 0, pretend = 0, frame = 0
 2731              		@ frame_needed = 0, uses_anonymous_args = 0
 2732              	.LVL310:
 2733              		.loc 1 943 0
 2734 0000 0229     		cmp	r1, #2
 2735              		.loc 1 936 0
 2736 0002 38B5     		push	{r3, r4, r5, lr}
 2737              	.LCFI28:
 2738              		.cfi_def_cfa_offset 16
 2739              		.cfi_offset 3, -16
 2740              		.cfi_offset 4, -12
 2741              		.cfi_offset 5, -8
 2742              		.cfi_offset 14, -4
 2743              		.loc 1 943 0
 2744 0004 29D0     		beq	.L414
 2745 0006 0329     		cmp	r1, #3
 2746 0008 1ED0     		beq	.L415
 2747 000a 0129     		cmp	r1, #1
 2748 000c 03D0     		beq	.L428
 2749              	.LVL311:
 2750              	.L427:
 2751              		.loc 1 968 0
 2752 000e 4FF0FF34 		mov	r4, #-1
 2753              	.L412:
 2754              		.loc 1 988 0
 2755 0012 2046     		mov	r0, r4
 2756 0014 38BD     		pop	{r3, r4, r5, pc}
 2757              	.LVL312:
 2758              	.L428:
 2759              		.loc 1 956 0
 2760 0016 1020     		movs	r0, #16
 2761              	.LVL313:
 2762 0018 0021     		movs	r1, #0
 2763              	.LVL314:
 2764 001a 164A     		ldr	r2, .L429
 2765              	.LVL315:
 2766 001c FFF7FEFF 		bl	netconn_new_with_proto_and_callback
 2767              	.LVL316:
 2768              		.loc 1 959 0
 2769 0020 0546     		mov	r5, r0
 2770 0022 0028     		cmp	r0, #0
 2771 0024 F3D0     		beq	.L427
 2772              		.loc 1 961 0 discriminator 1
 2773 0026 037F     		ldrb	r3, [r0, #28]	@ zero_extendqisi2
ARM GAS  /tmp/ccPo84yg.s 			page 50


 2774 0028 43F00803 		orr	r3, r3, #8
 2775 002c 0377     		strb	r3, [r0, #28]
 2776              	.L419:
 2777              		.loc 1 977 0
 2778 002e 0021     		movs	r1, #0
 2779 0030 2846     		mov	r0, r5
 2780              	.LVL317:
 2781 0032 FFF7FEFF 		bl	alloc_socket
 2782              	.LVL318:
 2783              		.loc 1 979 0
 2784 0036 431C     		adds	r3, r0, #1
 2785              		.loc 1 977 0
 2786 0038 0446     		mov	r4, r0
 2787              	.LVL319:
 2788              		.loc 1 984 0
 2789 003a 18BF     		it	ne
 2790 003c A861     		strne	r0, [r5, #24]
 2791              		.loc 1 979 0
 2792 003e E8D1     		bne	.L412
 2793              		.loc 1 980 0
 2794 0040 2846     		mov	r0, r5
 2795              	.LVL320:
 2796 0042 FFF7FEFF 		bl	netconn_delete
 2797              	.LVL321:
 2798              		.loc 1 982 0
 2799 0046 E4E7     		b	.L412
 2800              	.LVL322:
 2801              	.L415:
 2802              		.loc 1 945 0
 2803 0048 D1B2     		uxtb	r1, r2
 2804              	.LVL323:
 2805 004a 4020     		movs	r0, #64
 2806              	.LVL324:
 2807 004c 094A     		ldr	r2, .L429
 2808              	.LVL325:
 2809 004e FFF7FEFF 		bl	netconn_new_with_proto_and_callback
 2810              	.LVL326:
 2811 0052 0546     		mov	r5, r0
 2812              	.LVL327:
 2813              		.loc 1 971 0
 2814 0054 002D     		cmp	r5, #0
 2815 0056 EAD1     		bne	.L419
 2816 0058 D9E7     		b	.L427
 2817              	.LVL328:
 2818              	.L414:
 2819              		.loc 1 950 0
 2820 005a 882A     		cmp	r2, #136
 2821 005c 14BF     		ite	ne
 2822 005e 2020     		movne	r0, #32
 2823 0060 2120     		moveq	r0, #33
 2824              	.LVL329:
 2825 0062 0021     		movs	r1, #0
 2826              	.LVL330:
 2827 0064 034A     		ldr	r2, .L429
 2828              	.LVL331:
 2829 0066 FFF7FEFF 		bl	netconn_new_with_proto_and_callback
 2830              	.LVL332:
ARM GAS  /tmp/ccPo84yg.s 			page 51


 2831 006a 0546     		mov	r5, r0
 2832              	.LVL333:
 2833              		.loc 1 971 0
 2834 006c 002D     		cmp	r5, #0
 2835 006e DED1     		bne	.L419
 2836 0070 CDE7     		b	.L427
 2837              	.L430:
 2838 0072 00BF     		.align	2
 2839              	.L429:
 2840 0074 00000000 		.word	event_callback
 2841              		.cfi_endproc
 2842              	.LFE22:
 2843              		.size	lwip_socket, .-lwip_socket
 2844 0078 AFF30080 		.section	.text.lwip_write,"ax",%progbits
 2844      AFF30080 
 2845              		.align	2
 2846              		.p2align 4,,15
 2847              		.global	lwip_write
 2848              		.thumb
 2849              		.thumb_func
 2850              		.type	lwip_write, %function
 2851              	lwip_write:
 2852              	.LFB23:
 2853              		.loc 1 992 0
 2854              		.cfi_startproc
 2855              		@ args = 0, pretend = 0, frame = 0
 2856              		@ frame_needed = 0, uses_anonymous_args = 0
 2857              		@ link register save eliminated.
 2858              	.LVL334:
 2859              		.loc 1 993 0
 2860 0000 0023     		movs	r3, #0
 2861              		.loc 1 994 0
 2862              		.loc 1 993 0
 2863 0002 FFF7FEBF 		b	lwip_send
 2864              	.LVL335:
 2865              		.cfi_endproc
 2866              	.LFE23:
 2867              		.size	lwip_write, .-lwip_write
 2868 0006 00BFAFF3 		.section	.text.lwip_select,"ax",%progbits
 2868      0080AFF3 
 2868      0080
 2869              		.align	2
 2870              		.p2align 4,,15
 2871              		.global	lwip_select
 2872              		.thumb
 2873              		.thumb_func
 2874              		.type	lwip_select, %function
 2875              	lwip_select:
 2876              	.LFB25:
 2877              		.loc 1 1077 0
 2878              		.cfi_startproc
 2879              		@ args = 4, pretend = 0, frame = 56
 2880              		@ frame_needed = 0, uses_anonymous_args = 0
 2881              	.LVL336:
 2882 0000 2DE9F04F 		push	{r4, r5, r6, r7, r8, r9, sl, fp, lr}
 2883              	.LCFI29:
 2884              		.cfi_def_cfa_offset 36
ARM GAS  /tmp/ccPo84yg.s 			page 52


 2885              		.cfi_offset 4, -36
 2886              		.cfi_offset 5, -32
 2887              		.cfi_offset 6, -28
 2888              		.cfi_offset 7, -24
 2889              		.cfi_offset 8, -20
 2890              		.cfi_offset 9, -16
 2891              		.cfi_offset 10, -12
 2892              		.cfi_offset 11, -8
 2893              		.cfi_offset 14, -4
 2894 0004 93B0     		sub	sp, sp, #76
 2895              	.LCFI30:
 2896              		.cfi_def_cfa_offset 112
 2897              		.loc 1 1094 0
 2898 0006 08AF     		add	r7, sp, #32
 2899 0008 09AE     		add	r6, sp, #36
 2900 000a 0AAC     		add	r4, sp, #40
 2901 000c 0097     		str	r7, [sp, #0]
 2902 000e 0196     		str	r6, [sp, #4]
 2903 0010 0294     		str	r4, [sp, #8]
 2904              		.loc 1 1077 0
 2905 0012 8346     		mov	fp, r0
 2906 0014 8846     		mov	r8, r1
 2907 0016 9146     		mov	r9, r2
 2908 0018 9A46     		mov	sl, r3
 2909              		.loc 1 1094 0
 2910 001a FFF7FEFF 		bl	lwip_selscan
 2911              	.LVL337:
 2912              		.loc 1 1097 0
 2913 001e 0546     		mov	r5, r0
 2914 0020 0028     		cmp	r0, #0
 2915 0022 40F0EE80 		bne	.L433
 2916              		.loc 1 1098 0
 2917 0026 1C9C     		ldr	r4, [sp, #112]
 2918 0028 2CB1     		cbz	r4, .L434
 2919              		.loc 1 1098 0 is_stmt 0 discriminator 1
 2920 002a 2268     		ldr	r2, [r4, #0]
 2921 002c 1AB9     		cbnz	r2, .L434
 2922 002e 6268     		ldr	r2, [r4, #4]
 2923 0030 002A     		cmp	r2, #0
 2924 0032 00F0E680 		beq	.L433
 2925              	.L434:
 2926              		.loc 1 1110 0 is_stmt 1
 2927 0036 0023     		movs	r3, #0
 2928              		.loc 1 1116 0
 2929 0038 0BAC     		add	r4, sp, #44
 2930 003a 11A8     		add	r0, sp, #68
 2931              	.LVL338:
 2932 003c 1946     		mov	r1, r3
 2933              		.loc 1 1110 0
 2934 003e 0B93     		str	r3, [sp, #44]
 2935              		.loc 1 1111 0
 2936 0040 0C93     		str	r3, [sp, #48]
 2937              		.loc 1 1112 0
 2938 0042 CDF83480 		str	r8, [sp, #52]
 2939              		.loc 1 1113 0
 2940 0046 CDF83890 		str	r9, [sp, #56]
 2941              		.loc 1 1114 0
ARM GAS  /tmp/ccPo84yg.s 			page 53


 2942 004a CDF83CA0 		str	sl, [sp, #60]
 2943              		.loc 1 1115 0
 2944 004e 1093     		str	r3, [sp, #64]
 2945              		.loc 1 1116 0
 2946 0050 0594     		str	r4, [sp, #20]
 2947 0052 FFF7FEFF 		bl	sys_sem_new
 2948              	.LVL339:
 2949              		.loc 1 1117 0
 2950 0056 0028     		cmp	r0, #0
 2951 0058 40F04981 		bne	.L468
 2952              		.loc 1 1127 0
 2953 005c 40F20002 		movw	r2, #:lower16:.LANCHOR2
 2954 0060 C0F20002 		movt	r2, #:upper16:.LANCHOR2
 2955 0064 1368     		ldr	r3, [r2, #0]
 2956 0066 0B93     		str	r3, [sp, #44]
 2957              		.loc 1 1128 0
 2958 0068 0BB1     		cbz	r3, .L436
 2959              		.loc 1 1129 0
 2960 006a 0BAC     		add	r4, sp, #44
 2961 006c 5C60     		str	r4, [r3, #4]
 2962              	.L436:
 2963              		.loc 1 1131 0
 2964 006e 40F20003 		movw	r3, #:lower16:.LANCHOR2
 2965              		.loc 1 1133 0
 2966 0072 40F20004 		movw	r4, #:lower16:.LANCHOR3
 2967              		.loc 1 1131 0
 2968 0076 C0F20003 		movt	r3, #:upper16:.LANCHOR2
 2969              		.loc 1 1133 0
 2970 007a C0F20004 		movt	r4, #:upper16:.LANCHOR3
 2971              		.loc 1 1131 0
 2972 007e 0BAA     		add	r2, sp, #44
 2973 0080 1A60     		str	r2, [r3, #0]
 2974              		.loc 1 1133 0
 2975 0082 2368     		ldr	r3, [r4, #0]
 2976 0084 0133     		adds	r3, r3, #1
 2977              		.loc 1 1139 0
 2978 0086 BBF1000F 		cmp	fp, #0
 2979              		.loc 1 1133 0
 2980 008a 2360     		str	r3, [r4, #0]
 2981              	.LVL340:
 2982              		.loc 1 1139 0
 2983 008c 25DD     		ble	.L447
 2984 008e 0024     		movs	r4, #0
 2985              	.LBB122:
 2986              	.LBB123:
 2987              	.LBB124:
 2988              		.loc 1 228 0
 2989 0090 984B     		ldr	r3, .L531
 2990              	.LBE124:
 2991              	.LBE123:
 2992              	.LBE122:
 2993              		.loc 1 1139 0
 2994 0092 2546     		mov	r5, r4
 2995              	.LVL341:
 2996              	.L437:
 2997              		.loc 1 1140 0
 2998 0094 B8F1000F 		cmp	r8, #0
ARM GAS  /tmp/ccPo84yg.s 			page 54


 2999 0098 00F0CC80 		beq	.L440
 3000              		.loc 1 1140 0 is_stmt 0 discriminator 1
 3001 009c E910     		asrs	r1, r5, #3
 3002 009e 05F00702 		and	r2, r5, #7
 3003 00a2 18F80110 		ldrb	r1, [r8, r1]	@ zero_extendqisi2
 3004 00a6 41FA02F2 		asr	r2, r1, r2
 3005 00aa D007     		lsls	r0, r2, #31
 3006 00ac 40F1C280 		bpl	.L440
 3007              	.L441:
 3008              	.LVL342:
 3009              	.LBB129:
 3010              	.LBB127:
 3011              	.LBB125:
 3012              		.loc 1 225 0 is_stmt 1
 3013 00b0 032D     		cmp	r5, #3
 3014 00b2 00F2DD80 		bhi	.L446
 3015              	.L529:
 3016              		.loc 1 228 0
 3017 00b6 E258     		ldr	r2, [r4, r3]
 3018 00b8 002A     		cmp	r2, #0
 3019 00ba 00F0D980 		beq	.L446
 3020              		.loc 1 231 0
 3021 00be 05EB4502 		add	r2, r5, r5, lsl #1
 3022 00c2 03EBC202 		add	r2, r3, r2, lsl #3
 3023              	.LBE125:
 3024              	.LBE127:
 3025              		.loc 1 1146 0
 3026 00c6 5169     		ldr	r1, [r2, #20]
 3027 00c8 0131     		adds	r1, r1, #1
 3028              		.loc 1 1147 0
 3029 00ca 0029     		cmp	r1, #0
 3030              		.loc 1 1146 0
 3031 00cc 5161     		str	r1, [r2, #20]
 3032              		.loc 1 1147 0
 3033 00ce 40F3DA80 		ble	.L524
 3034              	.LVL343:
 3035              	.L444:
 3036              	.LBE129:
 3037              		.loc 1 1139 0
 3038 00d2 0135     		adds	r5, r5, #1
 3039              	.LVL344:
 3040 00d4 1834     		adds	r4, r4, #24
 3041 00d6 5D45     		cmp	r5, fp
 3042 00d8 DCD1     		bne	.L437
 3043              	.LVL345:
 3044              	.L447:
 3045              		.loc 1 1154 0
 3046 00da 0AAA     		add	r2, sp, #40
 3047 00dc 0292     		str	r2, [sp, #8]
 3048 00de 0097     		str	r7, [sp, #0]
 3049 00e0 0196     		str	r6, [sp, #4]
 3050 00e2 5846     		mov	r0, fp
 3051 00e4 4146     		mov	r1, r8
 3052 00e6 4A46     		mov	r2, r9
 3053 00e8 5346     		mov	r3, sl
 3054 00ea FFF7FEFF 		bl	lwip_selscan
 3055              	.LVL346:
ARM GAS  /tmp/ccPo84yg.s 			page 55


 3056              		.loc 1 1155 0
 3057 00ee 0546     		mov	r5, r0
 3058 00f0 D8B9     		cbnz	r0, .L525
 3059              		.loc 1 1157 0
 3060 00f2 1C9C     		ldr	r4, [sp, #112]
 3061              		.loc 1 1159 0
 3062 00f4 0146     		mov	r1, r0
 3063              		.loc 1 1157 0
 3064 00f6 9CB1     		cbz	r4, .L448
 3065              		.loc 1 1161 0
 3066 00f8 6268     		ldr	r2, [r4, #4]
 3067 00fa 2468     		ldr	r4, [r4, #0]
 3068 00fc 44F6D350 		movw	r0, #19923
 3069              	.LVL347:
 3070 0100 02F5FA72 		add	r2, r2, #500
 3071 0104 C1F26200 		movt	r0, 4194
 3072 0108 80FB0230 		smull	r3, r0, r0, r2
 3073 010c D217     		asrs	r2, r2, #31
 3074 010e C2EBA012 		rsb	r2, r2, r0, asr #6
 3075 0112 4FF47A71 		mov	r1, #1000
 3076              	.LVL348:
 3077 0116 01FB0421 		mla	r1, r1, r4, r2
 3078              	.LVL349:
 3079              		.loc 1 1164 0
 3080 011a 0029     		cmp	r1, #0
 3081 011c 08BF     		it	eq
 3082 011e 0121     		moveq	r1, #1
 3083              	.LVL350:
 3084              	.L448:
 3085              		.loc 1 1168 0
 3086 0120 11A8     		add	r0, sp, #68
 3087 0122 FFF7FEFF 		bl	sys_arch_sem_wait
 3088              	.LVL351:
 3089 0126 0690     		str	r0, [sp, #24]
 3090              	.LVL352:
 3091 0128 01E0     		b	.L439
 3092              	.LVL353:
 3093              	.L525:
 3094              		.loc 1 1078 0
 3095 012a 0023     		movs	r3, #0
 3096 012c 0693     		str	r3, [sp, #24]
 3097              	.LVL354:
 3098              	.L439:
 3099              		.loc 1 1171 0
 3100 012e BBF1000F 		cmp	fp, #0
 3101 0132 3CDD     		ble	.L459
 3102 0134 0022     		movs	r2, #0
 3103 0136 4B46     		mov	r3, r9
 3104              	.LBB130:
 3105              	.LBB131:
 3106              	.LBB132:
 3107              		.loc 1 228 0
 3108 0138 6E48     		ldr	r0, .L531
 3109              	.LBE132:
 3110              	.LBE131:
 3111              	.LBE130:
 3112              		.loc 1 1171 0
ARM GAS  /tmp/ccPo84yg.s 			page 56


 3113 013a 0795     		str	r5, [sp, #28]
 3114 013c C146     		mov	r9, r8
 3115              	.LVL355:
 3116 013e 1446     		mov	r4, r2
 3117 0140 D846     		mov	r8, fp
 3118              	.LVL356:
 3119 0142 1546     		mov	r5, r2
 3120              	.LVL357:
 3121 0144 9B46     		mov	fp, r3
 3122              	.LVL358:
 3123              	.L449:
 3124              		.loc 1 1172 0
 3125 0146 B9F1000F 		cmp	r9, #0
 3126 014a 08D0     		beq	.L452
 3127              		.loc 1 1172 0 is_stmt 0 discriminator 1
 3128 014c E210     		asrs	r2, r4, #3
 3129 014e 04F00703 		and	r3, r4, #7
 3130 0152 19F80220 		ldrb	r2, [r9, r2]	@ zero_extendqisi2
 3131 0156 42FA03F3 		asr	r3, r2, r3
 3132 015a DB07     		lsls	r3, r3, #31
 3133 015c 0DD4     		bmi	.L453
 3134              	.L452:
 3135              		.loc 1 1172 0 discriminator 2
 3136 015e BBF1000F 		cmp	fp, #0
 3137 0162 00F09580 		beq	.L454
 3138              		.loc 1 1173 0 is_stmt 1
 3139 0166 E210     		asrs	r2, r4, #3
 3140 0168 04F00703 		and	r3, r4, #7
 3141 016c 1BF80220 		ldrb	r2, [fp, r2]	@ zero_extendqisi2
 3142 0170 42FA03F3 		asr	r3, r2, r3
 3143 0174 D907     		lsls	r1, r3, #31
 3144 0176 40F18B80 		bpl	.L454
 3145              	.L453:
 3146              	.LVL359:
 3147              	.LBB137:
 3148              	.LBB135:
 3149              	.LBB133:
 3150              		.loc 1 225 0
 3151 017a 032C     		cmp	r4, #3
 3152 017c 00F29880 		bhi	.L458
 3153              	.L530:
 3154              		.loc 1 228 0
 3155 0180 2B58     		ldr	r3, [r5, r0]
 3156 0182 002B     		cmp	r3, #0
 3157 0184 00F09480 		beq	.L458
 3158              		.loc 1 231 0
 3159 0188 04EB4403 		add	r3, r4, r4, lsl #1
 3160 018c 00EBC303 		add	r3, r0, r3, lsl #3
 3161              	.LBE133:
 3162              	.LBE135:
 3163              		.loc 1 1178 0
 3164 0190 5A69     		ldr	r2, [r3, #20]
 3165 0192 013A     		subs	r2, r2, #1
 3166              		.loc 1 1179 0
 3167 0194 002A     		cmp	r2, #0
 3168              		.loc 1 1178 0
 3169 0196 5A61     		str	r2, [r3, #20]
ARM GAS  /tmp/ccPo84yg.s 			page 57


 3170              		.loc 1 1179 0
 3171 0198 C0F29580 		blt	.L526
 3172              	.LVL360:
 3173              	.L456:
 3174              	.LBE137:
 3175              		.loc 1 1171 0
 3176 019c 0134     		adds	r4, r4, #1
 3177              	.LVL361:
 3178 019e 1835     		adds	r5, r5, #24
 3179 01a0 4445     		cmp	r4, r8
 3180 01a2 D0D1     		bne	.L449
 3181 01a4 5B46     		mov	r3, fp
 3182 01a6 079D     		ldr	r5, [sp, #28]
 3183 01a8 C346     		mov	fp, r8
 3184              	.LVL362:
 3185 01aa C846     		mov	r8, r9
 3186              	.LVL363:
 3187 01ac 9946     		mov	r9, r3
 3188              	.LVL364:
 3189              	.L459:
 3190              		.loc 1 1185 0
 3191 01ae 0B9A     		ldr	r2, [sp, #44]
 3192 01b0 0AB1     		cbz	r2, .L451
 3193              		.loc 1 1186 0
 3194 01b2 0C99     		ldr	r1, [sp, #48]
 3195 01b4 5160     		str	r1, [r2, #4]
 3196              	.L451:
 3197              		.loc 1 1188 0
 3198 01b6 40F20004 		movw	r4, #:lower16:.LANCHOR2
 3199 01ba C0F20004 		movt	r4, #:upper16:.LANCHOR2
 3200 01be 2168     		ldr	r1, [r4, #0]
 3201 01c0 059C     		ldr	r4, [sp, #20]
 3202 01c2 A142     		cmp	r1, r4
 3203              		.loc 1 1189 0
 3204 01c4 0C99     		ldr	r1, [sp, #48]
 3205              		.loc 1 1188 0
 3206 01c6 00F08380 		beq	.L527
 3207              		.loc 1 1192 0
 3208 01ca 0029     		cmp	r1, #0
 3209 01cc 00F08A80 		beq	.L528
 3210              	.L463:
 3211              		.loc 1 1193 0
 3212 01d0 0A60     		str	r2, [r1, #0]
 3213              	.L462:
 3214              		.loc 1 1196 0
 3215 01d2 40F20004 		movw	r4, #:lower16:.LANCHOR3
 3216 01d6 C0F20004 		movt	r4, #:upper16:.LANCHOR3
 3217              		.loc 1 1199 0
 3218 01da 11A8     		add	r0, sp, #68
 3219              		.loc 1 1196 0
 3220 01dc 2268     		ldr	r2, [r4, #0]
 3221 01de 0132     		adds	r2, r2, #1
 3222 01e0 2260     		str	r2, [r4, #0]
 3223              		.loc 1 1199 0
 3224 01e2 FFF7FEFF 		bl	sys_sem_free
 3225              	.LVL365:
 3226              		.loc 1 1200 0
ARM GAS  /tmp/ccPo84yg.s 			page 58


 3227 01e6 069A     		ldr	r2, [sp, #24]
 3228 01e8 0132     		adds	r2, r2, #1
 3229 01ea 0AD0     		beq	.L433
 3230              		.loc 1 1209 0
 3231 01ec 0AAB     		add	r3, sp, #40
 3232 01ee 0293     		str	r3, [sp, #8]
 3233 01f0 0097     		str	r7, [sp, #0]
 3234 01f2 0196     		str	r6, [sp, #4]
 3235 01f4 5846     		mov	r0, fp
 3236 01f6 4146     		mov	r1, r8
 3237 01f8 4A46     		mov	r2, r9
 3238 01fa 5346     		mov	r3, sl
 3239 01fc FFF7FEFF 		bl	lwip_selscan
 3240              	.LVL366:
 3241 0200 0546     		mov	r5, r0
 3242              	.LVL367:
 3243              	.L433:
 3244              		.loc 1 1215 0
 3245 0202 B8F1000F 		cmp	r8, #0
 3246 0206 03D0     		beq	.L464
 3247              		.loc 1 1216 0
 3248 0208 9DF82020 		ldrb	r2, [sp, #32]	@ zero_extendqisi2
 3249 020c 88F80020 		strb	r2, [r8, #0]
 3250              	.L464:
 3251              		.loc 1 1218 0
 3252 0210 B9F1000F 		cmp	r9, #0
 3253 0214 03D0     		beq	.L465
 3254              		.loc 1 1219 0
 3255 0216 9DF82420 		ldrb	r2, [sp, #36]	@ zero_extendqisi2
 3256 021a 89F80020 		strb	r2, [r9, #0]
 3257              	.L465:
 3258              		.loc 1 1221 0
 3259 021e BAF1000F 		cmp	sl, #0
 3260 0222 03D0     		beq	.L489
 3261              		.loc 1 1222 0
 3262 0224 9DF82820 		ldrb	r2, [sp, #40]	@ zero_extendqisi2
 3263 0228 8AF80020 		strb	r2, [sl, #0]
 3264              	.LVL368:
 3265              	.L489:
 3266              		.loc 1 1227 0
 3267 022c 2846     		mov	r0, r5
 3268 022e 13B0     		add	sp, sp, #76
 3269 0230 BDE8F08F 		pop	{r4, r5, r6, r7, r8, r9, sl, fp, pc}
 3270              	.LVL369:
 3271              	.L440:
 3272              		.loc 1 1140 0 discriminator 2
 3273 0234 B9F1000F 		cmp	r9, #0
 3274 0238 09D0     		beq	.L442
 3275              		.loc 1 1141 0
 3276 023a E910     		asrs	r1, r5, #3
 3277 023c 05F00702 		and	r2, r5, #7
 3278 0240 19F80110 		ldrb	r1, [r9, r1]	@ zero_extendqisi2
 3279 0244 41FA02F2 		asr	r2, r1, r2
 3280 0248 D107     		lsls	r1, r2, #31
 3281 024a 3FF531AF 		bmi	.L441
 3282              	.L442:
 3283              		.loc 1 1141 0 is_stmt 0 discriminator 1
ARM GAS  /tmp/ccPo84yg.s 			page 59


 3284 024e BAF1000F 		cmp	sl, #0
 3285 0252 3FF43EAF 		beq	.L444
 3286              		.loc 1 1142 0 is_stmt 1
 3287 0256 E910     		asrs	r1, r5, #3
 3288 0258 05F00702 		and	r2, r5, #7
 3289 025c 1AF80110 		ldrb	r1, [sl, r1]	@ zero_extendqisi2
 3290 0260 41FA02F2 		asr	r2, r1, r2
 3291 0264 D207     		lsls	r2, r2, #31
 3292 0266 7FF534AF 		bpl	.L444
 3293              	.LVL370:
 3294              	.LBB138:
 3295              	.LBB128:
 3296              	.LBB126:
 3297              		.loc 1 225 0
 3298 026a 032D     		cmp	r5, #3
 3299 026c 7FF623AF 		bls	.L529
 3300              	.L446:
 3301              	.LBE126:
 3302              	.LBE128:
 3303              		.loc 1 1144 0
 3304 0270 0493     		str	r3, [sp, #16]
 3305 0272 FFF7FEFF 		bl	port_halt
 3306              	.LVL371:
 3307 0276 0022     		movs	r2, #0
 3308 0278 049B     		ldr	r3, [sp, #16]
 3309              		.loc 1 1146 0
 3310 027a 5169     		ldr	r1, [r2, #20]
 3311 027c 0131     		adds	r1, r1, #1
 3312              		.loc 1 1147 0
 3313 027e 0029     		cmp	r1, #0
 3314              		.loc 1 1146 0
 3315 0280 5161     		str	r1, [r2, #20]
 3316              		.loc 1 1147 0
 3317 0282 3FF726AF 		bgt	.L444
 3318              	.L524:
 3319              		.loc 1 1147 0 is_stmt 0 discriminator 1
 3320 0286 0493     		str	r3, [sp, #16]
 3321 0288 FFF7FEFF 		bl	port_halt
 3322              	.LVL372:
 3323 028c 049B     		ldr	r3, [sp, #16]
 3324 028e 20E7     		b	.L444
 3325              	.LVL373:
 3326              	.L454:
 3327              	.LBE138:
 3328              		.loc 1 1173 0 is_stmt 1 discriminator 1
 3329 0290 BAF1000F 		cmp	sl, #0
 3330 0294 82D0     		beq	.L456
 3331              		.loc 1 1174 0
 3332 0296 E210     		asrs	r2, r4, #3
 3333 0298 04F00703 		and	r3, r4, #7
 3334 029c 1AF80220 		ldrb	r2, [sl, r2]	@ zero_extendqisi2
 3335 02a0 42FA03F3 		asr	r3, r2, r3
 3336 02a4 DA07     		lsls	r2, r3, #31
 3337 02a6 7FF579AF 		bpl	.L456
 3338              	.LVL374:
 3339              	.LBB139:
 3340              	.LBB136:
ARM GAS  /tmp/ccPo84yg.s 			page 60


 3341              	.LBB134:
 3342              		.loc 1 225 0
 3343 02aa 032C     		cmp	r4, #3
 3344 02ac 7FF668AF 		bls	.L530
 3345              	.L458:
 3346              	.LBE134:
 3347              	.LBE136:
 3348              		.loc 1 1176 0
 3349 02b0 0490     		str	r0, [sp, #16]
 3350 02b2 FFF7FEFF 		bl	port_halt
 3351              	.LVL375:
 3352 02b6 0023     		movs	r3, #0
 3353 02b8 0498     		ldr	r0, [sp, #16]
 3354              		.loc 1 1178 0
 3355 02ba 5A69     		ldr	r2, [r3, #20]
 3356 02bc 013A     		subs	r2, r2, #1
 3357              		.loc 1 1179 0
 3358 02be 002A     		cmp	r2, #0
 3359              		.loc 1 1178 0
 3360 02c0 5A61     		str	r2, [r3, #20]
 3361              		.loc 1 1179 0
 3362 02c2 BFF66BAF 		bge	.L456
 3363              	.L526:
 3364              		.loc 1 1179 0 is_stmt 0 discriminator 1
 3365 02c6 0490     		str	r0, [sp, #16]
 3366 02c8 FFF7FEFF 		bl	port_halt
 3367              	.LVL376:
 3368 02cc 0498     		ldr	r0, [sp, #16]
 3369 02ce 65E7     		b	.L456
 3370              	.LVL377:
 3371              	.L527:
 3372              	.LBE139:
 3373              		.loc 1 1189 0 is_stmt 1
 3374 02d0 11B1     		cbz	r1, .L461
 3375              		.loc 1 1189 0 is_stmt 0 discriminator 1
 3376 02d2 FFF7FEFF 		bl	port_halt
 3377              	.LVL378:
 3378 02d6 0B9A     		ldr	r2, [sp, #44]
 3379              	.L461:
 3380              		.loc 1 1190 0 is_stmt 1
 3381 02d8 40F20003 		movw	r3, #:lower16:.LANCHOR2
 3382 02dc C0F20003 		movt	r3, #:upper16:.LANCHOR2
 3383 02e0 1A60     		str	r2, [r3, #0]
 3384 02e2 76E7     		b	.L462
 3385              	.L528:
 3386              		.loc 1 1192 0 discriminator 1
 3387 02e4 FFF7FEFF 		bl	port_halt
 3388              	.LVL379:
 3389 02e8 0C99     		ldr	r1, [sp, #48]
 3390 02ea 0B9A     		ldr	r2, [sp, #44]
 3391 02ec 70E7     		b	.L463
 3392              	.LVL380:
 3393              	.L468:
 3394              		.loc 1 1120 0
 3395 02ee 4FF0FF35 		mov	r5, #-1
 3396              	.LVL381:
 3397 02f2 9BE7     		b	.L489
ARM GAS  /tmp/ccPo84yg.s 			page 61


 3398              	.L532:
 3399              		.align	2
 3400              	.L531:
 3401 02f4 00000000 		.word	.LANCHOR0
 3402              		.cfi_endproc
 3403              	.LFE25:
 3404              		.size	lwip_select, .-lwip_select
 3405 02f8 AFF30080 		.section	.text.lwip_shutdown,"ax",%progbits
 3405      AFF30080 
 3406              		.align	2
 3407              		.p2align 4,,15
 3408              		.global	lwip_shutdown
 3409              		.thumb
 3410              		.thumb_func
 3411              		.type	lwip_shutdown, %function
 3412              	lwip_shutdown:
 3413              	.LFB27:
 3414              		.loc 1 1355 0
 3415              		.cfi_startproc
 3416              		@ args = 0, pretend = 0, frame = 0
 3417              		@ frame_needed = 0, uses_anonymous_args = 0
 3418              	.LVL382:
 3419              	.LBB140:
 3420              	.LBB141:
 3421              		.loc 1 199 0
 3422 0000 0328     		cmp	r0, #3
 3423              	.LBE141:
 3424              	.LBE140:
 3425              		.loc 1 1355 0
 3426 0002 10B5     		push	{r4, lr}
 3427              	.LCFI31:
 3428              		.cfi_def_cfa_offset 8
 3429              		.cfi_offset 4, -8
 3430              		.cfi_offset 14, -4
 3431              	.LBB144:
 3432              	.LBB142:
 3433              		.loc 1 199 0
 3434 0004 0CD8     		bhi	.L541
 3435              		.loc 1 205 0
 3436 0006 00EB4000 		add	r0, r0, r0, lsl #1
 3437              	.LVL383:
 3438 000a 174B     		ldr	r3, .L551
 3439 000c C000     		lsls	r0, r0, #3
 3440 000e 1C18     		adds	r4, r3, r0
 3441              	.LVL384:
 3442              		.loc 1 207 0
 3443 0010 1858     		ldr	r0, [r3, r0]
 3444 0012 28B1     		cbz	r0, .L541
 3445              	.LBE142:
 3446              	.LBE144:
 3447              		.loc 1 1368 0
 3448 0014 0378     		ldrb	r3, [r0, #0]	@ zero_extendqisi2
 3449 0016 102B     		cmp	r3, #16
 3450 0018 05D0     		beq	.L550
 3451              		.loc 1 1369 0
 3452 001a 5F20     		movs	r0, #95
 3453 001c 2061     		str	r0, [r4, #16]
ARM GAS  /tmp/ccPo84yg.s 			page 62


 3454              		.loc 1 1370 0
 3455 001e 10BD     		pop	{r4, pc}
 3456              	.LVL385:
 3457              	.L541:
 3458              	.LBB145:
 3459              	.LBB143:
 3460              		.loc 1 1364 0
 3461 0020 4FF0FF30 		mov	r0, #-1
 3462 0024 10BD     		pop	{r4, pc}
 3463              	.LVL386:
 3464              	.L550:
 3465              	.LBE143:
 3466              	.LBE145:
 3467              		.loc 1 1377 0
 3468 0026 31B1     		cbz	r1, .L542
 3469              		.loc 1 1379 0
 3470 0028 0129     		cmp	r1, #1
 3471 002a 16D0     		beq	.L543
 3472              		.loc 1 1381 0
 3473 002c 0229     		cmp	r1, #2
 3474 002e 17D0     		beq	.L544
 3475              		.loc 1 1385 0
 3476 0030 1620     		movs	r0, #22
 3477 0032 2061     		str	r0, [r4, #16]
 3478              		.loc 1 1386 0
 3479 0034 10BD     		pop	{r4, pc}
 3480              	.L542:
 3481              		.loc 1 1358 0
 3482 0036 0A46     		mov	r2, r1
 3483              		.loc 1 1378 0
 3484 0038 0121     		movs	r1, #1
 3485              	.LVL387:
 3486              	.L536:
 3487              		.loc 1 1388 0
 3488 003a FFF7FEFF 		bl	netconn_shutdown
 3489              	.LVL388:
 3490              		.loc 1 1390 0
 3491 003e 4342     		negs	r3, r0
 3492 0040 0F2B     		cmp	r3, #15
 3493 0042 9ABF     		itte	ls
 3494 0044 094A     		ldrls	r2, .L551+4
 3495 0046 52F82330 		ldrls	r3, [r2, r3, lsl #2]
 3496 004a 0523     		movhi	r3, #5
 3497 004c 2361     		str	r3, [r4, #16]
 3498              		.loc 1 1391 0
 3499 004e 0028     		cmp	r0, #0
 3500 0050 14BF     		ite	ne
 3501 0052 4FF0FF30 		movne	r0, #-1
 3502 0056 0020     		moveq	r0, #0
 3503              	.LVL389:
 3504 0058 10BD     		pop	{r4, pc}
 3505              	.LVL390:
 3506              	.L543:
 3507              		.loc 1 1380 0
 3508 005a 0A46     		mov	r2, r1
 3509              		.loc 1 1358 0
 3510 005c 0021     		movs	r1, #0
ARM GAS  /tmp/ccPo84yg.s 			page 63


 3511              	.LVL391:
 3512 005e ECE7     		b	.L536
 3513              	.LVL392:
 3514              	.L544:
 3515              		.loc 1 1383 0
 3516 0060 0122     		movs	r2, #1
 3517              		.loc 1 1382 0
 3518 0062 1146     		mov	r1, r2
 3519              	.LVL393:
 3520 0064 E9E7     		b	.L536
 3521              	.L552:
 3522 0066 00BF     		.align	2
 3523              	.L551:
 3524 0068 00000000 		.word	.LANCHOR0
 3525 006c 00000000 		.word	.LANCHOR1
 3526              		.cfi_endproc
 3527              	.LFE27:
 3528              		.size	lwip_shutdown, .-lwip_shutdown
 3529              		.section	.text.lwip_getpeername,"ax",%progbits
 3530              		.align	2
 3531              		.p2align 4,,15
 3532              		.global	lwip_getpeername
 3533              		.thumb
 3534              		.thumb_func
 3535              		.type	lwip_getpeername, %function
 3536              	lwip_getpeername:
 3537              	.LFB29:
 3538              		.loc 1 1431 0
 3539              		.cfi_startproc
 3540              		@ args = 0, pretend = 0, frame = 0
 3541              		@ frame_needed = 0, uses_anonymous_args = 0
 3542              		@ link register save eliminated.
 3543              	.LVL394:
 3544              		.loc 1 1432 0
 3545 0000 0023     		movs	r3, #0
 3546              		.loc 1 1433 0
 3547              		.loc 1 1432 0
 3548 0002 FFF7FEBF 		b	lwip_getaddrname
 3549              	.LVL395:
 3550              		.cfi_endproc
 3551              	.LFE29:
 3552              		.size	lwip_getpeername, .-lwip_getpeername
 3553 0006 00BFAFF3 		.section	.text.lwip_getsockname,"ax",%progbits
 3553      0080AFF3 
 3553      0080
 3554              		.align	2
 3555              		.p2align 4,,15
 3556              		.global	lwip_getsockname
 3557              		.thumb
 3558              		.thumb_func
 3559              		.type	lwip_getsockname, %function
 3560              	lwip_getsockname:
 3561              	.LFB30:
 3562              		.loc 1 1437 0
 3563              		.cfi_startproc
 3564              		@ args = 0, pretend = 0, frame = 0
 3565              		@ frame_needed = 0, uses_anonymous_args = 0
ARM GAS  /tmp/ccPo84yg.s 			page 64


 3566              		@ link register save eliminated.
 3567              	.LVL396:
 3568              		.loc 1 1438 0
 3569 0000 0123     		movs	r3, #1
 3570              		.loc 1 1439 0
 3571              		.loc 1 1438 0
 3572 0002 FFF7FEBF 		b	lwip_getaddrname
 3573              	.LVL397:
 3574              		.cfi_endproc
 3575              	.LFE30:
 3576              		.size	lwip_getsockname, .-lwip_getsockname
 3577 0006 00BFAFF3 		.section	.text.lwip_getsockopt,"ax",%progbits
 3577      0080AFF3 
 3577      0080
 3578              		.align	2
 3579              		.p2align 4,,15
 3580              		.global	lwip_getsockopt
 3581              		.thumb
 3582              		.thumb_func
 3583              		.type	lwip_getsockopt, %function
 3584              	lwip_getsockopt:
 3585              	.LFB31:
 3586              		.loc 1 1443 0
 3587              		.cfi_startproc
 3588              		@ args = 4, pretend = 0, frame = 24
 3589              		@ frame_needed = 0, uses_anonymous_args = 0
 3590              	.LVL398:
 3591 0000 2DE9F041 		push	{r4, r5, r6, r7, r8, lr}
 3592              	.LCFI32:
 3593              		.cfi_def_cfa_offset 24
 3594              		.cfi_offset 4, -24
 3595              		.cfi_offset 5, -20
 3596              		.cfi_offset 6, -16
 3597              		.cfi_offset 7, -12
 3598              		.cfi_offset 8, -8
 3599              		.cfi_offset 14, -4
 3600 0004 86B0     		sub	sp, sp, #24
 3601              	.LCFI33:
 3602              		.cfi_def_cfa_offset 48
 3603              	.LBB146:
 3604              	.LBB147:
 3605              		.loc 1 199 0
 3606 0006 0328     		cmp	r0, #3
 3607              	.LBE147:
 3608              	.LBE146:
 3609              		.loc 1 1443 0
 3610 0008 0C46     		mov	r4, r1
 3611 000a 1746     		mov	r7, r2
 3612 000c 0C9D     		ldr	r5, [sp, #48]
 3613              	.LBB149:
 3614              	.LBB148:
 3615              		.loc 1 199 0
 3616 000e 19D8     		bhi	.L604
 3617              		.loc 1 205 0
 3618 0010 00EB4000 		add	r0, r0, r0, lsl #1
 3619              	.LVL399:
 3620 0014 384A     		ldr	r2, .L609
ARM GAS  /tmp/ccPo84yg.s 			page 65


 3621              	.LVL400:
 3622 0016 C000     		lsls	r0, r0, #3
 3623 0018 1618     		adds	r6, r2, r0
 3624              	.LVL401:
 3625              		.loc 1 207 0
 3626 001a 1158     		ldr	r1, [r2, r0]
 3627              	.LVL402:
 3628 001c 91B1     		cbz	r1, .L604
 3629              	.LBE148:
 3630              	.LBE149:
 3631              		.loc 1 1452 0
 3632 001e 002B     		cmp	r3, #0
 3633 0020 18BF     		it	ne
 3634 0022 002D     		cmpne	r5, #0
 3635 0024 14BF     		ite	ne
 3636 0026 0020     		movne	r0, #0
 3637 0028 0120     		moveq	r0, #1
 3638 002a 5FD0     		beq	.L606
 3639              		.loc 1 1458 0
 3640 002c 062C     		cmp	r4, #6
 3641 002e 32D0     		beq	.L562
 3642 0030 40F6FF72 		movw	r2, #4095
 3643 0034 9442     		cmp	r4, r2
 3644 0036 0AD0     		beq	.L563
 3645 0038 14B9     		cbnz	r4, .L580
 3646              		.loc 1 1515 0
 3647 003a 7A1E     		subs	r2, r7, #1
 3648 003c 012A     		cmp	r2, #1
 3649 003e 0DD9     		bls	.L605
 3650              	.L580:
 3651 0040 5C23     		movs	r3, #92
 3652              	.LVL403:
 3653              	.L573:
 3654              		.loc 1 1616 0
 3655 0042 3361     		str	r3, [r6, #16]
 3656              	.LVL404:
 3657              	.L604:
 3658              		.loc 1 1617 0
 3659 0044 4FF0FF30 		mov	r0, #-1
 3660              	.L599:
 3661              		.loc 1 1637 0
 3662 0048 06B0     		add	sp, sp, #24
 3663 004a BDE8F081 		pop	{r4, r5, r6, r7, r8, pc}
 3664              	.LVL405:
 3665              	.L563:
 3666              		.loc 1 1462 0
 3667 004e 202F     		cmp	r7, #32
 3668 0050 04D0     		beq	.L605
 3669 0052 2CDC     		bgt	.L566
 3670 0054 022F     		cmp	r7, #2
 3671 0056 01D0     		beq	.L605
 3672 0058 082F     		cmp	r7, #8
 3673 005a F1D1     		bne	.L580
 3674              	.L605:
 3675              		.loc 1 1521 0
 3676 005c 2A68     		ldr	r2, [r5, #0]
 3677 005e 032A     		cmp	r2, #3
ARM GAS  /tmp/ccPo84yg.s 			page 66


 3678 0060 1CD9     		bls	.L582
 3679              	.LVL406:
 3680              	.L567:
 3681              		.loc 1 1629 0
 3682 0062 4FF00008 		mov	r8, #0
 3683              		.loc 1 1630 0
 3684 0066 6946     		mov	r1, sp
 3685 0068 0122     		movs	r2, #1
 3686 006a 2448     		ldr	r0, .L609+4
 3687              		.loc 1 1627 0
 3688 006c 0393     		str	r3, [sp, #12]
 3689              		.loc 1 1621 0
 3690 006e 0096     		str	r6, [sp, #0]
 3691              		.loc 1 1625 0
 3692 0070 0194     		str	r4, [sp, #4]
 3693              		.loc 1 1626 0
 3694 0072 0297     		str	r7, [sp, #8]
 3695              		.loc 1 1628 0
 3696 0074 0495     		str	r5, [sp, #16]
 3697              		.loc 1 1629 0
 3698 0076 8DF81480 		strb	r8, [sp, #20]
 3699              		.loc 1 1630 0
 3700 007a FFF7FEFF 		bl	tcpip_callback_with_block
 3701              	.LVL407:
 3702              		.loc 1 1631 0
 3703 007e 3068     		ldr	r0, [r6, #0]
 3704 0080 4146     		mov	r1, r8
 3705 0082 0C30     		adds	r0, r0, #12
 3706 0084 FFF7FEFF 		bl	sys_arch_sem_wait
 3707              	.LVL408:
 3708              		.loc 1 1633 0
 3709 0088 9DF81400 		ldrb	r0, [sp, #20]	@ zero_extendqisi2
 3710              	.LVL409:
 3711              		.loc 1 1635 0
 3712 008c 43B2     		sxtb	r3, r0
 3713 008e 3361     		str	r3, [r6, #16]
 3714              		.loc 1 1636 0
 3715 0090 0028     		cmp	r0, #0
 3716 0092 D7D1     		bne	.L604
 3717 0094 D8E7     		b	.L599
 3718              	.LVL410:
 3719              	.L562:
 3720              		.loc 1 1556 0
 3721 0096 2A68     		ldr	r2, [r5, #0]
 3722 0098 032A     		cmp	r2, #3
 3723 009a 01D8     		bhi	.L607
 3724              	.L582:
 3725 009c 1623     		movs	r3, #22
 3726              	.LVL411:
 3727 009e D0E7     		b	.L573
 3728              	.LVL412:
 3729              	.L607:
 3730              		.loc 1 1562 0
 3731 00a0 0A78     		ldrb	r2, [r1, #0]	@ zero_extendqisi2
 3732 00a2 102A     		cmp	r2, #16
 3733 00a4 D0D1     		bne	.L599
 3734 00a6 7A1E     		subs	r2, r7, #1
ARM GAS  /tmp/ccPo84yg.s 			page 67


 3735 00a8 012A     		cmp	r2, #1
 3736 00aa C9D8     		bhi	.L580
 3737 00ac D9E7     		b	.L567
 3738              	.L566:
 3739              		.loc 1 1462 0
 3740 00ae 41F20702 		movw	r2, #4103
 3741 00b2 9742     		cmp	r7, r2
 3742 00b4 C4DB     		blt	.L580
 3743 00b6 0132     		adds	r2, r2, #1
 3744 00b8 9742     		cmp	r7, r2
 3745 00ba CFDD     		ble	.L605
 3746 00bc 0232     		adds	r2, r2, #2
 3747 00be 9742     		cmp	r7, r2
 3748 00c0 BED1     		bne	.L580
 3749              		.loc 1 1494 0
 3750 00c2 2A68     		ldr	r2, [r5, #0]
 3751              		.loc 1 1498 0
 3752 00c4 0878     		ldrb	r0, [r1, #0]	@ zero_extendqisi2
 3753              		.loc 1 1444 0
 3754 00c6 032A     		cmp	r2, #3
 3755 00c8 94BF     		ite	ls
 3756 00ca 1622     		movls	r2, #22
 3757 00cc 0022     		movhi	r2, #0
 3758              	.LVL413:
 3759              		.loc 1 1498 0
 3760 00ce 2028     		cmp	r0, #32
 3761 00d0 01D0     		beq	.L608
 3762              	.L579:
 3763 00d2 6123     		movs	r3, #97
 3764              	.LVL414:
 3765 00d4 B5E7     		b	.L573
 3766              	.LVL415:
 3767              	.L608:
 3768              		.loc 1 1499 0 discriminator 1
 3769 00d6 4968     		ldr	r1, [r1, #4]
 3770 00d8 097C     		ldrb	r1, [r1, #16]	@ zero_extendqisi2
 3771              		.loc 1 1498 0 discriminator 1
 3772 00da 01F00201 		and	r1, r1, #2
 3773 00de C9B2     		uxtb	r1, r1
 3774 00e0 0029     		cmp	r1, #0
 3775 00e2 F6D1     		bne	.L579
 3776              		.loc 1 1615 0
 3777 00e4 002A     		cmp	r2, #0
 3778 00e6 BCD0     		beq	.L567
 3779 00e8 53B2     		sxtb	r3, r2
 3780              	.LVL416:
 3781 00ea AAE7     		b	.L573
 3782              	.LVL417:
 3783              	.L606:
 3784              		.loc 1 1453 0
 3785 00ec 0E23     		movs	r3, #14
 3786              	.LVL418:
 3787 00ee 3361     		str	r3, [r6, #16]
 3788              		.loc 1 1454 0
 3789 00f0 4FF0FF30 		mov	r0, #-1
 3790 00f4 A8E7     		b	.L599
 3791              	.L610:
ARM GAS  /tmp/ccPo84yg.s 			page 68


 3792 00f6 00BF     		.align	2
 3793              	.L609:
 3794 00f8 00000000 		.word	.LANCHOR0
 3795 00fc 00000000 		.word	lwip_getsockopt_internal
 3796              		.cfi_endproc
 3797              	.LFE31:
 3798              		.size	lwip_getsockopt, .-lwip_getsockopt
 3799              		.section	.text.lwip_setsockopt,"ax",%progbits
 3800              		.align	2
 3801              		.p2align 4,,15
 3802              		.global	lwip_setsockopt
 3803              		.thumb
 3804              		.thumb_func
 3805              		.type	lwip_setsockopt, %function
 3806              	lwip_setsockopt:
 3807              	.LFB33:
 3808              		.loc 1 1844 0
 3809              		.cfi_startproc
 3810              		@ args = 4, pretend = 0, frame = 24
 3811              		@ frame_needed = 0, uses_anonymous_args = 0
 3812              	.LVL419:
 3813 0000 F0B5     		push	{r4, r5, r6, r7, lr}
 3814              	.LCFI34:
 3815              		.cfi_def_cfa_offset 20
 3816              		.cfi_offset 4, -20
 3817              		.cfi_offset 5, -16
 3818              		.cfi_offset 6, -12
 3819              		.cfi_offset 7, -8
 3820              		.cfi_offset 14, -4
 3821              	.LBB150:
 3822              	.LBB151:
 3823              		.loc 1 199 0
 3824 0002 0328     		cmp	r0, #3
 3825              	.LBE151:
 3826              	.LBE150:
 3827              		.loc 1 1844 0
 3828 0004 87B0     		sub	sp, sp, #28
 3829              	.LCFI35:
 3830              		.cfi_def_cfa_offset 48
 3831              		.loc 1 1844 0
 3832 0006 0C46     		mov	r4, r1
 3833 0008 1646     		mov	r6, r2
 3834              	.LBB153:
 3835              	.LBB152:
 3836              		.loc 1 199 0
 3837 000a 14D8     		bhi	.L657
 3838              		.loc 1 205 0
 3839 000c 00EB4000 		add	r0, r0, r0, lsl #1
 3840              	.LVL420:
 3841 0010 304A     		ldr	r2, .L661
 3842              	.LVL421:
 3843 0012 C000     		lsls	r0, r0, #3
 3844 0014 1518     		adds	r5, r2, r0
 3845              	.LVL422:
 3846              		.loc 1 207 0
 3847 0016 1158     		ldr	r1, [r2, r0]
 3848              	.LVL423:
ARM GAS  /tmp/ccPo84yg.s 			page 69


 3849 0018 69B1     		cbz	r1, .L657
 3850              	.LVL424:
 3851              	.LBE152:
 3852              	.LBE153:
 3853              		.loc 1 1853 0
 3854 001a 002B     		cmp	r3, #0
 3855 001c 55D0     		beq	.L659
 3856              		.loc 1 1859 0
 3857 001e 062C     		cmp	r4, #6
 3858 0020 1AD0     		beq	.L618
 3859 0022 40F6FF72 		movw	r2, #4095
 3860 0026 9442     		cmp	r4, r2
 3861 0028 09D0     		beq	.L619
 3862 002a 14B9     		cbnz	r4, .L635
 3863              		.loc 1 1911 0
 3864 002c 721E     		subs	r2, r6, #1
 3865 002e 012A     		cmp	r2, #1
 3866 0030 0DD9     		bls	.L658
 3867              	.L635:
 3868 0032 5C23     		movs	r3, #92
 3869              	.LVL425:
 3870              	.L628:
 3871              		.loc 1 2025 0
 3872 0034 2B61     		str	r3, [r5, #16]
 3873              	.LVL426:
 3874              	.L657:
 3875              		.loc 1 2026 0
 3876 0036 4FF0FF30 		mov	r0, #-1
 3877              	.L651:
 3878              		.loc 1 2047 0
 3879 003a 07B0     		add	sp, sp, #28
 3880 003c F0BD     		pop	{r4, r5, r6, r7, pc}
 3881              	.LVL427:
 3882              	.L619:
 3883              		.loc 1 1863 0
 3884 003e 202E     		cmp	r6, #32
 3885 0040 05D0     		beq	.L658
 3886 0042 41F20A02 		movw	r2, #4106
 3887 0046 9642     		cmp	r6, r2
 3888 0048 2AD0     		beq	.L621
 3889 004a 082E     		cmp	r6, #8
 3890 004c F1D1     		bne	.L635
 3891              	.L658:
 3892              		.loc 1 1917 0
 3893 004e 0C9A     		ldr	r2, [sp, #48]
 3894 0050 032A     		cmp	r2, #3
 3895 0052 0BD8     		bhi	.L622
 3896              	.L637:
 3897              		.loc 1 1966 0
 3898 0054 1623     		movs	r3, #22
 3899              	.LVL428:
 3900 0056 EDE7     		b	.L628
 3901              	.LVL429:
 3902              	.L618:
 3903 0058 0C9A     		ldr	r2, [sp, #48]
 3904 005a 032A     		cmp	r2, #3
 3905 005c FAD9     		bls	.L637
ARM GAS  /tmp/ccPo84yg.s 			page 70


 3906              		.loc 1 1972 0
 3907 005e 0A78     		ldrb	r2, [r1, #0]	@ zero_extendqisi2
 3908              		.loc 1 1973 0
 3909 0060 0020     		movs	r0, #0
 3910              		.loc 1 1972 0
 3911 0062 102A     		cmp	r2, #16
 3912 0064 E9D1     		bne	.L651
 3913 0066 721E     		subs	r2, r6, #1
 3914 0068 012A     		cmp	r2, #1
 3915 006a E2D8     		bhi	.L635
 3916              	.LVL430:
 3917              	.L622:
 3918              		.loc 1 2039 0
 3919 006c 0027     		movs	r7, #0
 3920              		.loc 1 2040 0
 3921 006e 6946     		mov	r1, sp
 3922 0070 0122     		movs	r2, #1
 3923              		.loc 1 2037 0
 3924 0072 0393     		str	r3, [sp, #12]
 3925              		.loc 1 2040 0
 3926 0074 1848     		ldr	r0, .L661+4
 3927              		.loc 1 2031 0
 3928 0076 0095     		str	r5, [sp, #0]
 3929              		.loc 1 2038 0
 3930 0078 0CAB     		add	r3, sp, #48
 3931              	.LVL431:
 3932 007a 0493     		str	r3, [sp, #16]
 3933              		.loc 1 2035 0
 3934 007c 0194     		str	r4, [sp, #4]
 3935              		.loc 1 2036 0
 3936 007e 0296     		str	r6, [sp, #8]
 3937              		.loc 1 2039 0
 3938 0080 8DF81470 		strb	r7, [sp, #20]
 3939              		.loc 1 2040 0
 3940 0084 FFF7FEFF 		bl	tcpip_callback_with_block
 3941              	.LVL432:
 3942              		.loc 1 2041 0
 3943 0088 2868     		ldr	r0, [r5, #0]
 3944 008a 3946     		mov	r1, r7
 3945 008c 0C30     		adds	r0, r0, #12
 3946 008e FFF7FEFF 		bl	sys_arch_sem_wait
 3947              	.LVL433:
 3948              		.loc 1 2043 0
 3949 0092 9DF81400 		ldrb	r0, [sp, #20]	@ zero_extendqisi2
 3950              	.LVL434:
 3951              		.loc 1 2045 0
 3952 0096 43B2     		sxtb	r3, r0
 3953 0098 2B61     		str	r3, [r5, #16]
 3954              		.loc 1 2046 0
 3955 009a 0028     		cmp	r0, #0
 3956 009c CBD1     		bne	.L657
 3957 009e CCE7     		b	.L651
 3958              	.LVL435:
 3959              	.L621:
 3960              		.loc 1 1895 0
 3961 00a0 0878     		ldrb	r0, [r1, #0]	@ zero_extendqisi2
 3962              		.loc 1 1846 0
ARM GAS  /tmp/ccPo84yg.s 			page 71


 3963 00a2 0C9A     		ldr	r2, [sp, #48]
 3964 00a4 032A     		cmp	r2, #3
 3965 00a6 94BF     		ite	ls
 3966 00a8 1622     		movls	r2, #22
 3967 00aa 0022     		movhi	r2, #0
 3968              	.LVL436:
 3969              		.loc 1 1895 0
 3970 00ac 2028     		cmp	r0, #32
 3971 00ae 01D0     		beq	.L660
 3972              	.L634:
 3973 00b0 6123     		movs	r3, #97
 3974              	.LVL437:
 3975 00b2 BFE7     		b	.L628
 3976              	.LVL438:
 3977              	.L660:
 3978              		.loc 1 1896 0 discriminator 1
 3979 00b4 4968     		ldr	r1, [r1, #4]
 3980 00b6 097C     		ldrb	r1, [r1, #16]	@ zero_extendqisi2
 3981              		.loc 1 1895 0 discriminator 1
 3982 00b8 01F00201 		and	r1, r1, #2
 3983 00bc C9B2     		uxtb	r1, r1
 3984 00be 0029     		cmp	r1, #0
 3985 00c0 F6D1     		bne	.L634
 3986              		.loc 1 2024 0
 3987 00c2 002A     		cmp	r2, #0
 3988 00c4 D2D0     		beq	.L622
 3989 00c6 53B2     		sxtb	r3, r2
 3990              	.LVL439:
 3991 00c8 B4E7     		b	.L628
 3992              	.LVL440:
 3993              	.L659:
 3994              		.loc 1 1854 0
 3995 00ca 0E23     		movs	r3, #14
 3996              	.LVL441:
 3997 00cc 2B61     		str	r3, [r5, #16]
 3998              		.loc 1 1855 0
 3999 00ce 4FF0FF30 		mov	r0, #-1
 4000 00d2 B2E7     		b	.L651
 4001              	.L662:
 4002              		.align	2
 4003              	.L661:
 4004 00d4 00000000 		.word	.LANCHOR0
 4005 00d8 00000000 		.word	lwip_setsockopt_internal
 4006              		.cfi_endproc
 4007              	.LFE33:
 4008              		.size	lwip_setsockopt, .-lwip_setsockopt
 4009 00dc AFF30080 		.section	.text.lwip_ioctl,"ax",%progbits
 4010              		.align	2
 4011              		.p2align 4,,15
 4012              		.global	lwip_ioctl
 4013              		.thumb
 4014              		.thumb_func
 4015              		.type	lwip_ioctl, %function
 4016              	lwip_ioctl:
 4017              	.LFB35:
 4018              		.loc 1 2255 0
 4019              		.cfi_startproc
ARM GAS  /tmp/ccPo84yg.s 			page 72


 4020              		@ args = 0, pretend = 0, frame = 0
 4021              		@ frame_needed = 0, uses_anonymous_args = 0
 4022              		@ link register save eliminated.
 4023              	.LVL442:
 4024              	.LBB154:
 4025              	.LBB155:
 4026              		.loc 1 199 0
 4027 0000 0328     		cmp	r0, #3
 4028              	.LBE155:
 4029              	.LBE154:
 4030              		.loc 1 2255 0
 4031 0002 10B4     		push	{r4}
 4032              	.LCFI36:
 4033              		.cfi_def_cfa_offset 4
 4034              		.cfi_offset 4, -4
 4035              	.LBB158:
 4036              	.LBB156:
 4037              		.loc 1 199 0
 4038 0004 11D8     		bhi	.L672
 4039              		.loc 1 205 0
 4040 0006 00EB4000 		add	r0, r0, r0, lsl #1
 4041              	.LVL443:
 4042 000a 114B     		ldr	r3, .L680
 4043 000c C000     		lsls	r0, r0, #3
 4044 000e 1C18     		adds	r4, r3, r0
 4045              	.LVL444:
 4046              		.loc 1 207 0
 4047 0010 1B58     		ldr	r3, [r3, r0]
 4048 0012 53B1     		cbz	r3, .L672
 4049              	.LBE156:
 4050              	.LBE158:
 4051              		.loc 1 2267 0
 4052 0014 46F27E60 		movw	r0, #26238
 4053 0018 C8F20400 		movt	r0, 32772
 4054 001c 8142     		cmp	r1, r0
 4055 001e 08D0     		beq	.L679
 4056              		.loc 1 2310 0
 4057 0020 2623     		movs	r3, #38
 4058 0022 2361     		str	r3, [r4, #16]
 4059              		.loc 1 2311 0
 4060 0024 4FF0FF30 		mov	r0, #-1
 4061 0028 01E0     		b	.L677
 4062              	.LVL445:
 4063              	.L672:
 4064              	.LBB159:
 4065              	.LBB157:
 4066              		.loc 1 2264 0
 4067 002a 4FF0FF30 		mov	r0, #-1
 4068              	.LVL446:
 4069              	.L677:
 4070              	.LBE157:
 4071              	.LBE159:
 4072              		.loc 1 2313 0
 4073 002e 10BC     		pop	{r4}
 4074 0030 7047     		bx	lr
 4075              	.LVL447:
 4076              	.L679:
ARM GAS  /tmp/ccPo84yg.s 			page 73


 4077              		.loc 1 2300 0
 4078 0032 42B1     		cbz	r2, .L667
 4079              		.loc 1 2300 0 is_stmt 0 discriminator 1
 4080 0034 1268     		ldr	r2, [r2, #0]
 4081              	.LVL448:
 4082 0036 32B1     		cbz	r2, .L667
 4083              	.LVL449:
 4084              		.loc 1 2303 0 is_stmt 1
 4085 0038 1A7F     		ldrb	r2, [r3, #28]	@ zero_extendqisi2
 4086 003a 42F00202 		orr	r2, r2, #2
 4087 003e 1A77     		strb	r2, [r3, #28]
 4088              	.LVL450:
 4089              	.L670:
 4090              		.loc 1 2305 0
 4091 0040 0020     		movs	r0, #0
 4092 0042 2061     		str	r0, [r4, #16]
 4093              		.loc 1 2306 0
 4094 0044 F3E7     		b	.L677
 4095              	.LVL451:
 4096              	.L667:
 4097              		.loc 1 2303 0
 4098 0046 1A7F     		ldrb	r2, [r3, #28]	@ zero_extendqisi2
 4099 0048 22F00202 		bic	r2, r2, #2
 4100 004c 1A77     		strb	r2, [r3, #28]
 4101 004e F7E7     		b	.L670
 4102              	.L681:
 4103              		.align	2
 4104              	.L680:
 4105 0050 00000000 		.word	.LANCHOR0
 4106              		.cfi_endproc
 4107              	.LFE35:
 4108              		.size	lwip_ioctl, .-lwip_ioctl
 4109 0054 AFF30080 		.section	.text.lwip_fcntl,"ax",%progbits
 4109      AFF30080 
 4109      AFF30080 
 4110              		.align	2
 4111              		.p2align 4,,15
 4112              		.global	lwip_fcntl
 4113              		.thumb
 4114              		.thumb_func
 4115              		.type	lwip_fcntl, %function
 4116              	lwip_fcntl:
 4117              	.LFB36:
 4118              		.loc 1 2321 0
 4119              		.cfi_startproc
 4120              		@ args = 0, pretend = 0, frame = 0
 4121              		@ frame_needed = 0, uses_anonymous_args = 0
 4122              		@ link register save eliminated.
 4123              	.LVL452:
 4124              	.LBB160:
 4125              	.LBB161:
 4126              		.loc 1 199 0
 4127 0000 0328     		cmp	r0, #3
 4128 0002 09D8     		bhi	.L694
 4129              	.LVL453:
 4130              		.loc 1 205 0
 4131 0004 00EB4000 		add	r0, r0, r0, lsl #1
ARM GAS  /tmp/ccPo84yg.s 			page 74


 4132              	.LVL454:
 4133              		.loc 1 207 0
 4134 0008 0F4B     		ldr	r3, .L696
 4135 000a 53F83030 		ldr	r3, [r3, r0, lsl #3]
 4136 000e 1BB1     		cbz	r3, .L694
 4137              	.LVL455:
 4138              	.LBE161:
 4139              	.LBE160:
 4140              		.loc 1 2329 0
 4141 0010 0329     		cmp	r1, #3
 4142 0012 14D0     		beq	.L685
 4143 0014 0429     		cmp	r1, #4
 4144 0016 02D0     		beq	.L695
 4145              	.LVL456:
 4146              	.L694:
 4147              		.loc 1 2323 0
 4148 0018 4FF0FF30 		mov	r0, #-1
 4149 001c 7047     		bx	lr
 4150              	.LVL457:
 4151              	.L695:
 4152              		.loc 1 2334 0
 4153 001e 32F00101 		bics	r1, r2, #1
 4154              	.LVL458:
 4155 0022 F9D1     		bne	.L694
 4156              		.loc 1 2336 0
 4157 0024 12F00100 		ands	r0, r2, #1
 4158 0028 1A7F     		ldrb	r2, [r3, #28]	@ zero_extendqisi2
 4159              	.LVL459:
 4160 002a 17BF     		itett	ne
 4161 002c 42F00202 		orrne	r2, r2, #2
 4162 0030 22F00202 		biceq	r2, r2, #2
 4163              		.loc 1 2337 0
 4164 0034 0846     		movne	r0, r1
 4165              		.loc 1 2336 0
 4166 0036 1A77     		strbne	r2, [r3, #28]
 4167 0038 08BF     		it	eq
 4168 003a 1A77     		strbeq	r2, [r3, #28]
 4169 003c 7047     		bx	lr
 4170              	.LVL460:
 4171              	.L685:
 4172              		.loc 1 2331 0
 4173 003e 187F     		ldrb	r0, [r3, #28]	@ zero_extendqisi2
 4174 0040 C0F34000 		ubfx	r0, r0, #1, #1
 4175              	.LVL461:
 4176              		.loc 1 2332 0
 4177 0044 7047     		bx	lr
 4178              	.L697:
 4179 0046 00BF     		.align	2
 4180              	.L696:
 4181 0048 00000000 		.word	.LANCHOR0
 4182              		.cfi_endproc
 4183              	.LFE36:
 4184              		.size	lwip_fcntl, .-lwip_fcntl
 4185 004c AFF30080 		.section	.rodata.err_to_errno_table,"a",%progbits
 4186              		.align	2
 4187              		.set	.LANCHOR1,. + 0
 4188              		.type	err_to_errno_table, %object
ARM GAS  /tmp/ccPo84yg.s 			page 75


 4189              		.size	err_to_errno_table, 64
 4190              	err_to_errno_table:
 4191 0000 00000000 		.word	0
 4192 0004 0C000000 		.word	12
 4193 0008 69000000 		.word	105
 4194 000c 0B000000 		.word	11
 4195 0010 71000000 		.word	113
 4196 0014 73000000 		.word	115
 4197 0018 16000000 		.word	22
 4198 001c 0B000000 		.word	11
 4199 0020 62000000 		.word	98
 4200 0024 72000000 		.word	114
 4201 0028 67000000 		.word	103
 4202 002c 68000000 		.word	104
 4203 0030 6B000000 		.word	107
 4204 0034 6B000000 		.word	107
 4205 0038 05000000 		.word	5
 4206 003c FFFFFFFF 		.word	-1
 4207              		.section	.bss.select_cb_list,"aw",%nobits
 4208              		.align	2
 4209              		.set	.LANCHOR2,. + 0
 4210              		.type	select_cb_list, %object
 4211              		.size	select_cb_list, 4
 4212              	select_cb_list:
 4213 0000 00000000 		.space	4
 4214              		.section	.bss.sockets,"aw",%nobits
 4215              		.align	2
 4216              		.set	.LANCHOR0,. + 0
 4217              		.type	sockets, %object
 4218              		.size	sockets, 96
 4219              	sockets:
 4220 0000 00000000 		.space	96
 4220      00000000 
 4220      00000000 
 4220      00000000 
 4220      00000000 
 4221              		.section	.bss.select_cb_ctr,"aw",%nobits
 4222              		.align	2
 4223              		.set	.LANCHOR3,. + 0
 4224              		.type	select_cb_ctr, %object
 4225              		.size	select_cb_ctr, 4
 4226              	select_cb_ctr:
 4227 0000 00000000 		.space	4
 4228              		.text
 4229              	.Letext0:
 4230              		.file 2 "/opt/psas/x-tools/stm32f407/arm-psas-eabi/bin/../lib/gcc/arm-psas-eabi/4.7.2/include/stdd
 4231              		.file 3 "/opt/psas/x-tools/stm32f407/arm-psas-eabi/bin/../lib/gcc/arm-psas-eabi/4.7.2/../../../../
 4232              		.file 4 "../../os/ports/GCC/ARMCMx/chtypes.h"
 4233              		.file 5 "../../os/kernel/include/chlists.h"
 4234              		.file 6 "../../os/kernel/include/chthreads.h"
 4235              		.file 7 "../../os/ports/GCC/ARMCMx/chcore_v7m.h"
 4236              		.file 8 "../../os/kernel/include/chsem.h"
 4237              		.file 9 "../../os/kernel/include/chmtx.h"
 4238              		.file 10 "../../os/kernel/include/chmboxes.h"
 4239              		.file 11 "../../os/various/lwip_bindings/arch/cc.h"
 4240              		.file 12 "../../ext/lwip/src/include/ipv4/lwip/ip_addr.h"
 4241              		.file 13 "../../ext/lwip/src/include/ipv4/lwip/inet.h"
ARM GAS  /tmp/ccPo84yg.s 			page 76


 4242              		.file 14 "../../ext/lwip/src/include/lwip/sockets.h"
 4243              		.file 15 "../../ext/lwip/src/include/lwip/err.h"
 4244              		.file 16 "../../ext/lwip/src/include/lwip/pbuf.h"
 4245              		.file 17 "../../ext/lwip/src/include/lwip/netbuf.h"
 4246              		.file 18 "../../os/various/lwip_bindings/arch/sys_arch.h"
 4247              		.file 19 "../../ext/lwip/src/include/lwip/api.h"
 4248              		.file 20 "../../ext/lwip/src/include/ipv4/lwip/ip.h"
 4249              		.file 21 "../../ext/lwip/src/include/lwip/tcp.h"
 4250              		.file 22 "../../ext/lwip/src/include/lwip/udp.h"
 4251              		.file 23 "../../ext/lwip/src/include/lwip/raw.h"
 4252              		.file 24 "../../ext/lwip/src/include/lwip/api_msg.h"
 4253              		.file 25 "../../ext/lwip/src/include/lwip/tcpip.h"
 4254              		.file 26 "../../ext/lwip/src/include/lwip/def.h"
 4255              		.file 27 "../../ext/lwip/src/include/lwip/sys.h"