ARM GAS  /tmp/ccPo84yg.s 			page 1


   1              		.syntax unified
   2              		.cpu cortex-m4
   3              		.eabi_attribute 27, 3
   4              		.eabi_attribute 28, 1
   5              		.fpu fpv4-sp-d16
   6              		.eabi_attribute 20, 1
   7              		.eabi_attribute 21, 1
   8              		.eabi_attribute 23, 3
   9              		.eabi_attribute 24, 1
  10              		.eabi_attribute 25, 1
  11              		.eabi_attribute 26, 1
  12              		.eabi_attribute 30, 2
  13              		.eabi_attribute 34, 1
  14              		.eabi_attribute 18, 4
  15              		.thumb
  16              		.file	"sockets.c"
  17              		.text
  18              	.Ltext0:
  19              		.cfi_sections	.debug_frame
  20              		.section	.text.alloc_socket,"ax",%progbits
  21              		.align	2
  22              		.p2align 4,,15
  23              		.thumb
  24              		.thumb_func
  25              		.type	alloc_socket, %function
  26              	alloc_socket:
  27              	.LFB10:
  28              		.file 1 "../../ext/lwip/src/api/sockets.c"
  29              		.loc 1 244 0
  30              		.cfi_startproc
  31              		@ args = 0, pretend = 0, frame = 0
  32              		@ frame_needed = 0, uses_anonymous_args = 0
  33              		@ link register save eliminated.
  34              	.LVL0:
  35 0000 2DE9F001 		push	{r4, r5, r6, r7, r8}
  36              	.LCFI0:
  37              		.cfi_def_cfa_offset 20
  38              		.cfi_offset 4, -20
  39              		.cfi_offset 5, -16
  40              		.cfi_offset 6, -12
  41              		.cfi_offset 7, -8
  42              		.cfi_offset 8, -4
  43              		.loc 1 244 0
  44 0004 0022     		movs	r2, #0
  45 0006 174D     		ldr	r5, .L11
  46              		.loc 1 249 0
  47 0008 1346     		mov	r3, r2
  48              	.LVL1:
  49              	.L5:
  50              		.loc 1 252 0
  51 000a AC58     		ldr	r4, [r5, r2]
  52 000c 154E     		ldr	r6, .L11
  53 000e 1832     		adds	r2, r2, #24
  54 0010 44B1     		cbz	r4, .L9
  55              		.loc 1 249 0
  56 0012 0133     		adds	r3, r3, #1
  57              	.LVL2:
ARM GAS  /tmp/ccPo84yg.s 			page 2


  58 0014 042B     		cmp	r3, #4
  59 0016 F8D1     		bne	.L5
  60              		.loc 1 270 0
  61 0018 4FF0FF33 		mov	r3, #-1
  62              	.LVL3:
  63              	.L4:
  64              		.loc 1 271 0
  65 001c 1846     		mov	r0, r3
  66              	.LVL4:
  67 001e BDE8F001 		pop	{r4, r5, r6, r7, r8}
  68 0022 7047     		bx	lr
  69              	.LVL5:
  70              	.L9:
  71              		.loc 1 253 0
  72 0024 5F00     		lsls	r7, r3, #1
  73 0026 07EB030C 		add	ip, r7, r3
  74              		.loc 1 262 0
  75 002a 90F80080 		ldrb	r8, [r0, #0]	@ zero_extendqisi2
  76              		.loc 1 253 0
  77 002e 4FEACC0C 		lsl	ip, ip, #3
  78 0032 06EB0C02 		add	r2, r6, ip
  79              		.loc 1 262 0
  80 0036 B8F1100F 		cmp	r8, #16
  81              		.loc 1 253 0
  82 003a 46F80C00 		str	r0, [r6, ip]
  83              		.loc 1 257 0
  84 003e 5460     		str	r4, [r2, #4]
  85              		.loc 1 258 0
  86 0040 1481     		strh	r4, [r2, #8]	@ movhi
  87              		.loc 1 259 0
  88 0042 5481     		strh	r4, [r2, #10]	@ movhi
  89              		.loc 1 262 0
  90 0044 09D0     		beq	.L10
  91 0046 0121     		movs	r1, #1
  92              	.LVL6:
  93              	.L3:
  94              		.loc 1 262 0 is_stmt 0 discriminator 4
  95 0048 FF18     		adds	r7, r7, r3
  96 004a 05EBC705 		add	r5, r5, r7, lsl #3
  97              		.loc 1 263 0 is_stmt 1 discriminator 4
  98 004e 0022     		movs	r2, #0
  99              		.loc 1 262 0 discriminator 4
 100 0050 A981     		strh	r1, [r5, #12]	@ movhi
 101              		.loc 1 263 0 discriminator 4
 102 0052 EA81     		strh	r2, [r5, #14]	@ movhi
 103              		.loc 1 264 0 discriminator 4
 104 0054 2A61     		str	r2, [r5, #16]
 105              		.loc 1 265 0 discriminator 4
 106 0056 6A61     		str	r2, [r5, #20]
 107              		.loc 1 266 0 discriminator 4
 108 0058 E0E7     		b	.L4
 109              	.LVL7:
 110              	.L10:
 111 005a 0031     		adds	r1, r1, #0
 112 005c 18BF     		it	ne
 113 005e 0121     		movne	r1, #1
 114              	.LVL8:
ARM GAS  /tmp/ccPo84yg.s 			page 3


 115 0060 F2E7     		b	.L3
 116              	.L12:
 117 0062 00BF     		.align	2
 118              	.L11:
 119 0064 00000000 		.word	.LANCHOR0
 120              		.cfi_endproc
 121              	.LFE10:
 122              		.size	alloc_socket, .-alloc_socket
 123 0068 AFF30080 		.section	.text.lwip_setsockopt_internal,"ax",%progbits
 123      AFF30080 
 124              		.align	2
 125              		.p2align 4,,15
 126              		.thumb
 127              		.thumb_func
 128              		.type	lwip_setsockopt_internal, %function
 129              	lwip_setsockopt_internal:
 130              	.LFB34:
 131              		.loc 1 2051 0
 132              		.cfi_startproc
 133              		@ args = 0, pretend = 0, frame = 8
 134              		@ frame_needed = 0, uses_anonymous_args = 0
 135              	.LVL9:
 136 0000 10B5     		push	{r4, lr}
 137              	.LCFI1:
 138              		.cfi_def_cfa_offset 8
 139              		.cfi_offset 4, -8
 140              		.cfi_offset 14, -4
 141 0002 82B0     		sub	sp, sp, #8
 142              	.LCFI2:
 143              		.cfi_def_cfa_offset 16
 144              		.loc 1 2060 0
 145 0004 0028     		cmp	r0, #0
 146 0006 56D0     		beq	.L42
 147              	.LVL10:
 148              	.L14:
 149              		.loc 1 2071 0
 150 0008 4368     		ldr	r3, [r0, #4]
 151              		.loc 1 2063 0
 152 000a 0468     		ldr	r4, [r0, #0]
 153              	.LVL11:
 154              		.loc 1 2068 0
 155 000c 8268     		ldr	r2, [r0, #8]
 156              	.LVL12:
 157              		.loc 1 2069 0
 158 000e C168     		ldr	r1, [r0, #12]
 159              	.LVL13:
 160              		.loc 1 2071 0
 161 0010 062B     		cmp	r3, #6
 162 0012 29D0     		beq	.L17
 163 0014 40F6FF70 		movw	r0, #4095
 164              	.LVL14:
 165 0018 8342     		cmp	r3, r0
 166 001a 13D0     		beq	.L18
 167 001c 43B1     		cbz	r3, .L16
 168              	.LVL15:
 169              	.L38:
 170              		.loc 1 2247 0 discriminator 1
ARM GAS  /tmp/ccPo84yg.s 			page 4


 171 001e FFF7FEFF 		bl	port_halt
 172              	.LVL16:
 173 0022 2068     		ldr	r0, [r4, #0]
 174              	.L23:
 175              		.loc 1 2250 0
 176 0024 0C30     		adds	r0, r0, #12
 177              		.loc 1 2251 0
 178 0026 02B0     		add	sp, sp, #8
 179 0028 BDE81040 		pop	{r4, lr}
 180              		.loc 1 2250 0
 181 002c FFF7FEBF 		b	sys_sem_signal
 182              	.LVL17:
 183              	.L16:
 184              		.loc 1 2123 0
 185 0030 012A     		cmp	r2, #1
 186 0032 30D0     		beq	.L26
 187 0034 022A     		cmp	r2, #2
 188 0036 F2D1     		bne	.L38
 189              		.loc 1 2125 0
 190 0038 2368     		ldr	r3, [r4, #0]
 191              	.LVL18:
 192 003a 0A68     		ldr	r2, [r1, #0]
 193              	.LVL19:
 194 003c 5B68     		ldr	r3, [r3, #4]
 195 003e 9A72     		strb	r2, [r3, #10]
 196 0040 2068     		ldr	r0, [r4, #0]
 197              		.loc 1 2128 0
 198 0042 EFE7     		b	.L23
 199              	.LVL20:
 200              	.L18:
 201              		.loc 1 2075 0
 202 0044 202A     		cmp	r2, #32
 203 0046 05D0     		beq	.L20
 204 0048 41F20A03 		movw	r3, #4106
 205              	.LVL21:
 206 004c 9A42     		cmp	r2, r3
 207 004e 28D0     		beq	.L21
 208 0050 082A     		cmp	r2, #8
 209 0052 E4D1     		bne	.L38
 210              	.L20:
 211              		.loc 1 2088 0
 212 0054 0B68     		ldr	r3, [r1, #0]
 213 0056 002B     		cmp	r3, #0
 214 0058 3AD0     		beq	.L22
 215              		.loc 1 2089 0
 216 005a 2368     		ldr	r3, [r4, #0]
 217 005c 5B68     		ldr	r3, [r3, #4]
 218 005e 197A     		ldrb	r1, [r3, #8]	@ zero_extendqisi2
 219              	.LVL22:
 220 0060 0A43     		orrs	r2, r2, r1
 221              	.LVL23:
 222 0062 1A72     		strb	r2, [r3, #8]
 223 0064 2068     		ldr	r0, [r4, #0]
 224 0066 DDE7     		b	.L23
 225              	.LVL24:
 226              	.L17:
 227              		.loc 1 2177 0
ARM GAS  /tmp/ccPo84yg.s 			page 5


 228 0068 012A     		cmp	r2, #1
 229 006a 07D0     		beq	.L29
 230 006c 022A     		cmp	r2, #2
 231 006e D6D1     		bne	.L38
 232              		.loc 1 2188 0
 233 0070 2068     		ldr	r0, [r4, #0]
 234              	.LVL25:
 235 0072 0A68     		ldr	r2, [r1, #0]
 236              	.LVL26:
 237 0074 4368     		ldr	r3, [r0, #4]
 238              	.LVL27:
 239 0076 C3F89820 		str	r2, [r3, #152]
 240              		.loc 1 2191 0
 241 007a D3E7     		b	.L23
 242              	.LVL28:
 243              	.L29:
 244              		.loc 1 2179 0
 245 007c 0B68     		ldr	r3, [r1, #0]
 246              	.LVL29:
 247 007e 002B     		cmp	r3, #0
 248 0080 2ED0     		beq	.L31
 249              		.loc 1 2180 0
 250 0082 2368     		ldr	r3, [r4, #0]
 251 0084 5B68     		ldr	r3, [r3, #4]
 252 0086 93F82020 		ldrb	r2, [r3, #32]	@ zero_extendqisi2
 253              	.LVL30:
 254 008a 42F04002 		orr	r2, r2, #64
 255 008e 83F82020 		strb	r2, [r3, #32]
 256 0092 2068     		ldr	r0, [r4, #0]
 257              	.LVL31:
 258 0094 C6E7     		b	.L23
 259              	.LVL32:
 260              	.L26:
 261              		.loc 1 2130 0
 262 0096 2368     		ldr	r3, [r4, #0]
 263              	.LVL33:
 264 0098 0A68     		ldr	r2, [r1, #0]
 265              	.LVL34:
 266 009a 5B68     		ldr	r3, [r3, #4]
 267 009c 5A72     		strb	r2, [r3, #9]
 268 009e 2068     		ldr	r0, [r4, #0]
 269              		.loc 1 2133 0
 270 00a0 C0E7     		b	.L23
 271              	.LVL35:
 272              	.L21:
 273              		.loc 1 2108 0
 274 00a2 0B68     		ldr	r3, [r1, #0]
 275 00a4 63B1     		cbz	r3, .L24
 276              		.loc 1 2109 0
 277 00a6 2368     		ldr	r3, [r4, #0]
 278 00a8 5B68     		ldr	r3, [r3, #4]
 279 00aa 1A7C     		ldrb	r2, [r3, #16]	@ zero_extendqisi2
 280              	.LVL36:
 281 00ac 42F00102 		orr	r2, r2, #1
 282 00b0 1A74     		strb	r2, [r3, #16]
 283 00b2 2068     		ldr	r0, [r4, #0]
 284 00b4 B6E7     		b	.L23
ARM GAS  /tmp/ccPo84yg.s 			page 6


 285              	.LVL37:
 286              	.L42:
 287              		.loc 1 2060 0 discriminator 1
 288 00b6 0190     		str	r0, [sp, #4]
 289 00b8 FFF7FEFF 		bl	port_halt
 290              	.LVL38:
 291 00bc 0198     		ldr	r0, [sp, #4]
 292 00be A3E7     		b	.L14
 293              	.LVL39:
 294              	.L24:
 295              		.loc 1 2111 0
 296 00c0 2368     		ldr	r3, [r4, #0]
 297 00c2 5B68     		ldr	r3, [r3, #4]
 298 00c4 1A7C     		ldrb	r2, [r3, #16]	@ zero_extendqisi2
 299              	.LVL40:
 300 00c6 22F00102 		bic	r2, r2, #1
 301 00ca 1A74     		strb	r2, [r3, #16]
 302 00cc 2068     		ldr	r0, [r4, #0]
 303 00ce A9E7     		b	.L23
 304              	.LVL41:
 305              	.L22:
 306              		.loc 1 2091 0
 307 00d0 2368     		ldr	r3, [r4, #0]
 308 00d2 5B68     		ldr	r3, [r3, #4]
 309 00d4 197A     		ldrb	r1, [r3, #8]	@ zero_extendqisi2
 310              	.LVL42:
 311 00d6 21EA0202 		bic	r2, r1, r2
 312              	.LVL43:
 313 00da 1A72     		strb	r2, [r3, #8]
 314 00dc 2068     		ldr	r0, [r4, #0]
 315 00de A1E7     		b	.L23
 316              	.LVL44:
 317              	.L31:
 318              		.loc 1 2182 0
 319 00e0 2368     		ldr	r3, [r4, #0]
 320 00e2 5B68     		ldr	r3, [r3, #4]
 321 00e4 93F82020 		ldrb	r2, [r3, #32]	@ zero_extendqisi2
 322              	.LVL45:
 323 00e8 22F04002 		bic	r2, r2, #64
 324 00ec 83F82020 		strb	r2, [r3, #32]
 325 00f0 2068     		ldr	r0, [r4, #0]
 326              	.LVL46:
 327 00f2 97E7     		b	.L23
 328              		.cfi_endproc
 329              	.LFE34:
 330              		.size	lwip_setsockopt_internal, .-lwip_setsockopt_internal
 331 00f4 AFF30080 		.section	.text.lwip_getsockopt_internal,"ax",%progbits
 331      AFF30080 
 331      AFF30080 
 332              		.align	2
 333              		.p2align 4,,15
 334              		.thumb
 335              		.thumb_func
 336              		.type	lwip_getsockopt_internal, %function
 337              	lwip_getsockopt_internal:
 338              	.LFB32:
 339              		.loc 1 1641 0
ARM GAS  /tmp/ccPo84yg.s 			page 7


 340              		.cfi_startproc
 341              		@ args = 0, pretend = 0, frame = 8
 342              		@ frame_needed = 0, uses_anonymous_args = 0
 343              	.LVL47:
 344 0000 10B5     		push	{r4, lr}
 345              	.LCFI3:
 346              		.cfi_def_cfa_offset 8
 347              		.cfi_offset 4, -8
 348              		.cfi_offset 14, -4
 349 0002 82B0     		sub	sp, sp, #8
 350              	.LCFI4:
 351              		.cfi_def_cfa_offset 16
 352              		.loc 1 1650 0
 353 0004 0028     		cmp	r0, #0
 354 0006 66D0     		beq	.L83
 355              	.LVL48:
 356              	.L44:
 357              		.loc 1 1661 0
 358 0008 4368     		ldr	r3, [r0, #4]
 359              		.loc 1 1653 0
 360 000a 0468     		ldr	r4, [r0, #0]
 361              	.LVL49:
 362              		.loc 1 1658 0
 363 000c 8268     		ldr	r2, [r0, #8]
 364              	.LVL50:
 365              		.loc 1 1659 0
 366 000e C168     		ldr	r1, [r0, #12]
 367              	.LVL51:
 368              		.loc 1 1661 0
 369 0010 062B     		cmp	r3, #6
 370 0012 23D0     		beq	.L47
 371 0014 40F6FF70 		movw	r0, #4095
 372              	.LVL52:
 373 0018 8342     		cmp	r3, r0
 374 001a 12D0     		beq	.L48
 375 001c 43B1     		cbz	r3, .L46
 376              	.LVL53:
 377              	.L79:
 378              		.loc 1 1836 0 discriminator 1
 379 001e FFF7FEFF 		bl	port_halt
 380              	.LVL54:
 381 0022 2068     		ldr	r0, [r4, #0]
 382              	.L55:
 383              		.loc 1 1839 0
 384 0024 0C30     		adds	r0, r0, #12
 385              		.loc 1 1840 0
 386 0026 02B0     		add	sp, sp, #8
 387 0028 BDE81040 		pop	{r4, lr}
 388              		.loc 1 1839 0
 389 002c FFF7FEBF 		b	sys_sem_signal
 390              	.LVL55:
 391              	.L46:
 392              		.loc 1 1739 0
 393 0030 012A     		cmp	r2, #1
 394 0032 25D0     		beq	.L64
 395 0034 022A     		cmp	r2, #2
 396 0036 F2D1     		bne	.L79
ARM GAS  /tmp/ccPo84yg.s 			page 8


 397              		.loc 1 1741 0
 398 0038 2068     		ldr	r0, [r4, #0]
 399 003a 4368     		ldr	r3, [r0, #4]
 400              	.LVL56:
 401 003c 9B7A     		ldrb	r3, [r3, #10]	@ zero_extendqisi2
 402 003e 0B60     		str	r3, [r1, #0]
 403              		.loc 1 1744 0
 404 0040 F0E7     		b	.L55
 405              	.LVL57:
 406              	.L48:
 407              		.loc 1 1665 0
 408 0042 202A     		cmp	r2, #32
 409 0044 04D0     		beq	.L50
 410 0046 20DC     		bgt	.L54
 411 0048 022A     		cmp	r2, #2
 412 004a 01D0     		beq	.L50
 413 004c 082A     		cmp	r2, #8
 414 004e E6D1     		bne	.L79
 415              	.L50:
 416              		.loc 1 1679 0
 417 0050 2068     		ldr	r0, [r4, #0]
 418 0052 4368     		ldr	r3, [r0, #4]
 419              	.LVL58:
 420 0054 1B7A     		ldrb	r3, [r3, #8]	@ zero_extendqisi2
 421 0056 1A40     		ands	r2, r2, r3
 422              	.LVL59:
 423 0058 0A60     		str	r2, [r1, #0]
 424              		.loc 1 1682 0
 425 005a E3E7     		b	.L55
 426              	.LVL60:
 427              	.L47:
 428              		.loc 1 1780 0
 429 005c 012A     		cmp	r2, #1
 430 005e 07D0     		beq	.L67
 431 0060 022A     		cmp	r2, #2
 432 0062 DCD1     		bne	.L79
 433              		.loc 1 1787 0
 434 0064 2068     		ldr	r0, [r4, #0]
 435              	.LVL61:
 436 0066 4368     		ldr	r3, [r0, #4]
 437              	.LVL62:
 438 0068 D3F89830 		ldr	r3, [r3, #152]
 439 006c 0B60     		str	r3, [r1, #0]
 440              		.loc 1 1790 0
 441 006e D9E7     		b	.L55
 442              	.LVL63:
 443              	.L67:
 444              		.loc 1 1782 0
 445 0070 2068     		ldr	r0, [r4, #0]
 446              	.LVL64:
 447 0072 4368     		ldr	r3, [r0, #4]
 448              	.LVL65:
 449 0074 93F82030 		ldrb	r3, [r3, #32]	@ zero_extendqisi2
 450 0078 C3F38013 		ubfx	r3, r3, #6, #1
 451 007c 0B60     		str	r3, [r1, #0]
 452              		.loc 1 1785 0
 453 007e D1E7     		b	.L55
ARM GAS  /tmp/ccPo84yg.s 			page 9


 454              	.LVL66:
 455              	.L64:
 456              		.loc 1 1746 0
 457 0080 2068     		ldr	r0, [r4, #0]
 458 0082 4368     		ldr	r3, [r0, #4]
 459              	.LVL67:
 460 0084 5B7A     		ldrb	r3, [r3, #9]	@ zero_extendqisi2
 461 0086 0B60     		str	r3, [r1, #0]
 462              		.loc 1 1749 0
 463 0088 CCE7     		b	.L55
 464              	.LVL68:
 465              	.L54:
 466              		.loc 1 1665 0
 467 008a 41F20803 		movw	r3, #4104
 468              	.LVL69:
 469 008e 9A42     		cmp	r2, r3
 470 0090 26D0     		beq	.L52
 471 0092 0233     		adds	r3, r3, #2
 472 0094 9A42     		cmp	r2, r3
 473 0096 17D0     		beq	.L53
 474 0098 41F20703 		movw	r3, #4103
 475 009c 9A42     		cmp	r2, r3
 476 009e BED1     		bne	.L79
 477              		.loc 1 1707 0
 478 00a0 2369     		ldr	r3, [r4, #16]
 479              		.loc 1 1708 0
 480 00a2 2068     		ldr	r0, [r4, #0]
 481              		.loc 1 1707 0
 482 00a4 002B     		cmp	r3, #0
 483 00a6 18BF     		it	ne
 484 00a8 732B     		cmpne	r3, #115
 485 00aa 09D1     		bne	.L61
 486              		.loc 1 1708 0
 487 00ac 90F90830 		ldrsb	r3, [r0, #8]
 488 00b0 5B42     		negs	r3, r3
 489 00b2 0F2B     		cmp	r3, #15
 490 00b4 9ABF     		itte	ls
 491 00b6 154A     		ldrls	r2, .L84
 492              	.LVL70:
 493 00b8 52F82330 		ldrls	r3, [r2, r3, lsl #2]
 494 00bc 0523     		movhi	r3, #5
 495 00be 2361     		str	r3, [r4, #16]
 496              	.L61:
 497              		.loc 1 1710 0
 498 00c0 0B60     		str	r3, [r1, #0]
 499              		.loc 1 1711 0
 500 00c2 0023     		movs	r3, #0
 501 00c4 2361     		str	r3, [r4, #16]
 502              		.loc 1 1714 0
 503 00c6 ADE7     		b	.L55
 504              	.LVL71:
 505              	.L53:
 506              		.loc 1 1728 0
 507 00c8 2068     		ldr	r0, [r4, #0]
 508 00ca 4368     		ldr	r3, [r0, #4]
 509 00cc 1B7C     		ldrb	r3, [r3, #16]	@ zero_extendqisi2
 510 00ce 03F00103 		and	r3, r3, #1
ARM GAS  /tmp/ccPo84yg.s 			page 10


 511 00d2 0B60     		str	r3, [r1, #0]
 512              		.loc 1 1729 0
 513 00d4 A6E7     		b	.L55
 514              	.LVL72:
 515              	.L83:
 516              		.loc 1 1650 0 discriminator 1
 517 00d6 0190     		str	r0, [sp, #4]
 518 00d8 FFF7FEFF 		bl	port_halt
 519              	.LVL73:
 520 00dc 0198     		ldr	r0, [sp, #4]
 521 00de 93E7     		b	.L44
 522              	.LVL74:
 523              	.L52:
 524              		.loc 1 1685 0
 525 00e0 2068     		ldr	r0, [r4, #0]
 526 00e2 0278     		ldrb	r2, [r0, #0]	@ zero_extendqisi2
 527              	.LVL75:
 528 00e4 02F0F003 		and	r3, r2, #240
 529 00e8 202B     		cmp	r3, #32
 530 00ea 08D0     		beq	.L58
 531 00ec 402B     		cmp	r3, #64
 532 00ee 09D0     		beq	.L59
 533 00f0 102B     		cmp	r3, #16
 534              		.loc 1 1696 0
 535 00f2 18BF     		it	ne
 536 00f4 0A60     		strne	r2, [r1, #0]
 537              		.loc 1 1685 0
 538 00f6 95D1     		bne	.L55
 539              		.loc 1 1690 0
 540 00f8 0123     		movs	r3, #1
 541 00fa 0B60     		str	r3, [r1, #0]
 542              		.loc 1 1691 0
 543 00fc 92E7     		b	.L55
 544              	.L58:
 545              		.loc 1 1693 0
 546 00fe 0223     		movs	r3, #2
 547 0100 0B60     		str	r3, [r1, #0]
 548              		.loc 1 1694 0
 549 0102 8FE7     		b	.L55
 550              	.L59:
 551              		.loc 1 1687 0
 552 0104 0323     		movs	r3, #3
 553 0106 0B60     		str	r3, [r1, #0]
 554              		.loc 1 1688 0
 555 0108 8CE7     		b	.L55
 556              	.L85:
 557 010a 00BF     		.align	2
 558              	.L84:
 559 010c 00000000 		.word	.LANCHOR1
 560              		.cfi_endproc
 561              	.LFE32:
 562              		.size	lwip_getsockopt_internal, .-lwip_getsockopt_internal
 563              		.section	.text.event_callback,"ax",%progbits
 564              		.align	2
 565              		.p2align 4,,15
 566              		.thumb
 567              		.thumb_func
ARM GAS  /tmp/ccPo84yg.s 			page 11


 568              		.type	event_callback, %function
 569              	event_callback:
 570              	.LFB26:
 571              		.loc 1 1235 0
 572              		.cfi_startproc
 573              		@ args = 0, pretend = 0, frame = 0
 574              		@ frame_needed = 0, uses_anonymous_args = 0
 575              	.LVL76:
 576 0000 2DE9F843 		push	{r3, r4, r5, r6, r7, r8, r9, lr}
 577              	.LCFI5:
 578              		.cfi_def_cfa_offset 32
 579              		.cfi_offset 3, -32
 580              		.cfi_offset 4, -28
 581              		.cfi_offset 5, -24
 582              		.cfi_offset 6, -20
 583              		.cfi_offset 7, -16
 584              		.cfi_offset 8, -12
 585              		.cfi_offset 9, -8
 586              		.cfi_offset 14, -4
 587              		.loc 1 1245 0
 588 0004 B0B1     		cbz	r0, .L86
 589              		.loc 1 1246 0
 590 0006 8469     		ldr	r4, [r0, #24]
 591              	.LVL77:
 592              		.loc 1 1247 0
 593 0008 002C     		cmp	r4, #0
 594 000a 11DB     		blt	.L134
 595              	.LVL78:
 596              	.LBB45:
 597              	.LBB46:
 598              		.loc 1 199 0
 599 000c 032C     		cmp	r4, #3
 600 000e 11D8     		bhi	.L86
 601              		.loc 1 205 0
 602 0010 04EB4403 		add	r3, r4, r4, lsl #1
 603 0014 354A     		ldr	r2, .L137
 604              	.LVL79:
 605 0016 DB00     		lsls	r3, r3, #3
 606 0018 02EB0308 		add	r8, r2, r3
 607              	.LVL80:
 608              		.loc 1 207 0
 609 001c D358     		ldr	r3, [r2, r3]
 610 001e 002B     		cmp	r3, #0
 611 0020 5DD0     		beq	.L135
 612              	.LBE46:
 613              	.LBE45:
 614              		.loc 1 1275 0
 615 0022 0429     		cmp	r1, #4
 616 0024 52D8     		bhi	.L98
 617 0026 DFE801F0 		tbb	[pc, r1]
 618              	.L105:
 619 002a 3D       		.byte	(.L92-.L105)/2
 620 002b 47       		.byte	(.L94-.L105)/2
 621 002c 43       		.byte	(.L95-.L105)/2
 622 002d 4D       		.byte	(.L96-.L105)/2
 623 002e 07       		.byte	(.L97-.L105)/2
 624 002f 00       		.align	1
ARM GAS  /tmp/ccPo84yg.s 			page 12


 625              	.LVL81:
 626              	.L134:
 627              		.loc 1 1255 0
 628 0030 0029     		cmp	r1, #0
 629 0032 56D0     		beq	.L136
 630              	.LVL82:
 631              	.L86:
 632 0034 BDE8F883 		pop	{r3, r4, r5, r6, r7, r8, r9, pc}
 633              	.LVL83:
 634              	.L97:
 635              		.loc 1 1289 0
 636 0038 0123     		movs	r3, #1
 637 003a A8F80E30 		strh	r3, [r8, #14]	@ movhi
 638              	.LVL84:
 639              	.L93:
 640              		.loc 1 1296 0
 641 003e D8F81430 		ldr	r3, [r8, #20]
 642 0042 002B     		cmp	r3, #0
 643 0044 F6D0     		beq	.L86
 644 0046 0126     		movs	r6, #1
 645 0048 294F     		ldr	r7, .L137+4
 646 004a 2A4D     		ldr	r5, .L137+8
 647 004c 06FA04F9 		lsl	r9, r6, r4
 648              	.LVL85:
 649              	.L103:
 650              		.loc 1 1309 0
 651 0050 3C68     		ldr	r4, [r7, #0]
 652              	.LVL86:
 653 0052 002C     		cmp	r4, #0
 654 0054 EED0     		beq	.L86
 655              	.L104:
 656              		.loc 1 1310 0
 657 0056 6369     		ldr	r3, [r4, #20]
 658 0058 DBB9     		cbnz	r3, .L99
 659              	.LVL87:
 660              	.LBB47:
 661              		.loc 1 1314 0
 662 005a B8F90A30 		ldrsh	r3, [r8, #10]
 663 005e 002B     		cmp	r3, #0
 664 0060 05DD     		ble	.L100
 665              		.loc 1 1315 0
 666 0062 A368     		ldr	r3, [r4, #8]
 667 0064 1BB1     		cbz	r3, .L100
 668              		.loc 1 1315 0 is_stmt 0 discriminator 1
 669 0066 1B78     		ldrb	r3, [r3, #0]	@ zero_extendqisi2
 670 0068 13EA090F 		tst	r3, r9
 671 006c 31D1     		bne	.L101
 672              	.L100:
 673              		.loc 1 1319 0 is_stmt 1
 674 006e B8F80C30 		ldrh	r3, [r8, #12]
 675 0072 2BB1     		cbz	r3, .L133
 676              		.loc 1 1320 0 discriminator 1
 677 0074 E368     		ldr	r3, [r4, #12]
 678 0076 1BB1     		cbz	r3, .L133
 679 0078 1B78     		ldrb	r3, [r3, #0]	@ zero_extendqisi2
 680 007a 19EA030F 		tst	r9, r3
 681 007e 28D1     		bne	.L101
ARM GAS  /tmp/ccPo84yg.s 			page 13


 682              	.L133:
 683              		.loc 1 1324 0
 684 0080 B8F80E30 		ldrh	r3, [r8, #14]
 685 0084 2BB1     		cbz	r3, .L99
 686              		.loc 1 1325 0 discriminator 1
 687 0086 2369     		ldr	r3, [r4, #16]
 688 0088 1BB1     		cbz	r3, .L99
 689 008a 1B78     		ldrb	r3, [r3, #0]	@ zero_extendqisi2
 690 008c 19EA030F 		tst	r9, r3
 691 0090 1FD1     		bne	.L101
 692              	.LVL88:
 693              	.L99:
 694              	.LBE47:
 695              		.loc 1 1337 0
 696 0092 2A68     		ldr	r2, [r5, #0]
 697              	.LVL89:
 698              		.loc 1 1341 0
 699 0094 2B68     		ldr	r3, [r5, #0]
 700 0096 9A42     		cmp	r2, r3
 701 0098 DAD1     		bne	.L103
 702              		.loc 1 1309 0
 703 009a 2468     		ldr	r4, [r4, #0]
 704              	.LVL90:
 705 009c 002C     		cmp	r4, #0
 706 009e DAD1     		bne	.L104
 707 00a0 BDE8F883 		pop	{r3, r4, r5, r6, r7, r8, r9, pc}
 708              	.LVL91:
 709              	.L92:
 710              		.loc 1 1277 0
 711 00a4 B8F80A30 		ldrh	r3, [r8, #10]
 712 00a8 0133     		adds	r3, r3, #1
 713 00aa A8F80A30 		strh	r3, [r8, #10]	@ movhi
 714              		.loc 1 1278 0
 715 00ae C6E7     		b	.L93
 716              	.L95:
 717              		.loc 1 1283 0
 718 00b0 0123     		movs	r3, #1
 719 00b2 A8F80C30 		strh	r3, [r8, #12]	@ movhi
 720              		.loc 1 1284 0
 721 00b6 C2E7     		b	.L93
 722              	.L94:
 723              		.loc 1 1280 0
 724 00b8 B8F80A30 		ldrh	r3, [r8, #10]
 725 00bc 013B     		subs	r3, r3, #1
 726 00be A8F80A30 		strh	r3, [r8, #10]	@ movhi
 727              		.loc 1 1281 0
 728 00c2 BCE7     		b	.L93
 729              	.L96:
 730              		.loc 1 1286 0
 731 00c4 0023     		movs	r3, #0
 732 00c6 A8F80C30 		strh	r3, [r8, #12]	@ movhi
 733              		.loc 1 1287 0
 734 00ca B8E7     		b	.L93
 735              	.L98:
 736              		.loc 1 1292 0 discriminator 1
 737 00cc FFF7FEFF 		bl	port_halt
 738              	.LVL92:
ARM GAS  /tmp/ccPo84yg.s 			page 14


 739              		.loc 1 1293 0 discriminator 1
 740 00d0 B5E7     		b	.L93
 741              	.LVL93:
 742              	.L101:
 743              	.LBB48:
 744              		.loc 1 1330 0
 745 00d2 6661     		str	r6, [r4, #20]
 746              		.loc 1 1333 0
 747 00d4 04F11800 		add	r0, r4, #24
 748 00d8 FFF7FEFF 		bl	sys_sem_signal
 749              	.LVL94:
 750 00dc D9E7     		b	.L99
 751              	.LVL95:
 752              	.L135:
 753 00de BDE8F883 		pop	{r3, r4, r5, r6, r7, r8, r9, pc}
 754              	.LVL96:
 755              	.L136:
 756              	.LBE48:
 757              		.loc 1 1256 0
 758 00e2 013C     		subs	r4, r4, #1
 759              	.LVL97:
 760 00e4 8461     		str	r4, [r0, #24]
 761 00e6 BDE8F883 		pop	{r3, r4, r5, r6, r7, r8, r9, pc}
 762              	.L138:
 763 00ea 00BF     		.align	2
 764              	.L137:
 765 00ec 00000000 		.word	.LANCHOR0
 766 00f0 00000000 		.word	.LANCHOR2
 767 00f4 00000000 		.word	.LANCHOR3
 768              		.cfi_endproc
 769              	.LFE26:
 770              		.size	event_callback, .-event_callback
 771 00f8 AFF30080 		.section	.text.lwip_selscan,"ax",%progbits
 771      AFF30080 
 772              		.align	2
 773              		.p2align 4,,15
 774              		.thumb
 775              		.thumb_func
 776              		.type	lwip_selscan, %function
 777              	lwip_selscan:
 778              	.LFB24:
 779              		.loc 1 1015 0
 780              		.cfi_startproc
 781              		@ args = 12, pretend = 0, frame = 24
 782              		@ frame_needed = 0, uses_anonymous_args = 0
 783              		@ link register save eliminated.
 784              	.LVL98:
 785 0000 2DE9F00F 		push	{r4, r5, r6, r7, r8, r9, sl, fp}
 786              	.LCFI6:
 787              		.cfi_def_cfa_offset 32
 788              		.cfi_offset 4, -32
 789              		.cfi_offset 5, -28
 790              		.cfi_offset 6, -24
 791              		.cfi_offset 7, -20
 792              		.cfi_offset 8, -16
 793              		.cfi_offset 9, -12
 794              		.cfi_offset 10, -8
ARM GAS  /tmp/ccPo84yg.s 			page 15


 795              		.cfi_offset 11, -4
 796 0004 86B0     		sub	sp, sp, #24
 797              	.LCFI7:
 798              		.cfi_def_cfa_offset 56
 799              		.loc 1 1021 0
 800 0006 0026     		movs	r6, #0
 801              		.loc 1 1027 0
 802 0008 0028     		cmp	r0, #0
 803 000a 0190     		str	r0, [sp, #4]
 804              		.loc 1 1021 0
 805 000c 8DF80C60 		strb	r6, [sp, #12]
 806              		.loc 1 1022 0
 807 0010 8DF81060 		strb	r6, [sp, #16]
 808              		.loc 1 1023 0
 809 0014 8DF81460 		strb	r6, [sp, #20]
 810              	.LVL99:
 811              		.loc 1 1027 0
 812 0018 3046     		mov	r0, r6
 813              	.LVL100:
 814 001a 6EDD     		ble	.L140
 815 001c 3446     		mov	r4, r6
 816              	.LBB49:
 817              		.loc 1 1045 0
 818 001e B346     		mov	fp, r6
 819              	.LVL101:
 820              	.L145:
 821              	.LBB50:
 822              	.LBB51:
 823              		.loc 1 225 0
 824 0020 032C     		cmp	r4, #3
 825 0022 7AD8     		bhi	.L147
 826              		.loc 1 228 0
 827 0024 40F20000 		movw	r0, #:lower16:.LANCHOR0
 828 0028 C0F20000 		movt	r0, #:upper16:.LANCHOR0
 829 002c 3558     		ldr	r5, [r6, r0]
 830 002e 002D     		cmp	r5, #0
 831 0030 78D0     		beq	.L148
 832              		.loc 1 231 0
 833 0032 04EB4405 		add	r5, r4, r4, lsl #1
 834 0036 00EBC505 		add	r5, r0, r5, lsl #3
 835              	.LBE51:
 836              	.LBE50:
 837              		.loc 1 1036 0
 838 003a D5F80490 		ldr	r9, [r5, #4]
 839              	.LVL102:
 840              		.loc 1 1037 0
 841 003e B5F80AA0 		ldrh	sl, [r5, #10]
 842              	.LVL103:
 843              		.loc 1 1038 0
 844 0042 A889     		ldrh	r0, [r5, #12]
 845              	.LVL104:
 846              		.loc 1 1039 0
 847 0044 ED89     		ldrh	r5, [r5, #14]
 848              	.LVL105:
 849              	.L141:
 850              		.loc 1 1044 0
 851 0046 09B3     		cbz	r1, .L142
ARM GAS  /tmp/ccPo84yg.s 			page 16


 852              		.loc 1 1044 0 is_stmt 0 discriminator 1
 853 0048 4FEAE40C 		asr	ip, r4, #3
 854 004c 04F00707 		and	r7, r4, #7
 855 0050 11F80C80 		ldrb	r8, [r1, ip]	@ zero_extendqisi2
 856 0054 48FA07F8 		asr	r8, r8, r7
 857 0058 18F0010F 		tst	r8, #1
 858 005c 16D0     		beq	.L142
 859 005e 0FFA8AFA 		sxth	sl, sl
 860              	.LVL106:
 861 0062 BAF1000F 		cmp	sl, #0
 862 0066 D8BF     		it	le
 863 0068 B9F1000F 		cmple	r9, #0
 864 006c 0ED0     		beq	.L142
 865              		.loc 1 1045 0 is_stmt 1
 866 006e 0DF11808 		add	r8, sp, #24
 867 0072 C444     		add	ip, r8, ip
 868 0074 4FF00108 		mov	r8, #1
 869 0078 08FA07F7 		lsl	r7, r8, r7
 870 007c 1CF80C8C 		ldrb	r8, [ip, #-12]	@ zero_extendqisi2
 871 0080 47EA0807 		orr	r7, r7, r8
 872 0084 0CF80C7C 		strb	r7, [ip, #-12]
 873              		.loc 1 1047 0
 874 0088 0BF1010B 		add	fp, fp, #1
 875              	.LVL107:
 876              	.L142:
 877              		.loc 1 1050 0
 878 008c BAB1     		cbz	r2, .L143
 879              		.loc 1 1050 0 is_stmt 0 discriminator 1
 880 008e 4FEAE40C 		asr	ip, r4, #3
 881 0092 04F00707 		and	r7, r4, #7
 882 0096 12F80C80 		ldrb	r8, [r2, ip]	@ zero_extendqisi2
 883 009a 48FA07F8 		asr	r8, r8, r7
 884 009e 18F0010F 		tst	r8, #1
 885 00a2 0CD0     		beq	.L143
 886 00a4 58B1     		cbz	r0, .L143
 887              		.loc 1 1051 0 is_stmt 1
 888 00a6 06A8     		add	r0, sp, #24
 889              	.LVL108:
 890 00a8 8444     		add	ip, r0, ip
 891 00aa 4FF00108 		mov	r8, #1
 892 00ae 1CF8080C 		ldrb	r0, [ip, #-8]	@ zero_extendqisi2
 893 00b2 08FA07F7 		lsl	r7, r8, r7
 894 00b6 0743     		orrs	r7, r7, r0
 895 00b8 0CF8087C 		strb	r7, [ip, #-8]
 896              		.loc 1 1053 0
 897 00bc C344     		add	fp, fp, r8
 898              	.LVL109:
 899              	.L143:
 900              		.loc 1 1056 0
 901 00be B3B1     		cbz	r3, .L144
 902              		.loc 1 1056 0 is_stmt 0 discriminator 1
 903 00c0 E710     		asrs	r7, r4, #3
 904 00c2 04F00700 		and	r0, r4, #7
 905 00c6 13F807C0 		ldrb	ip, [r3, r7]	@ zero_extendqisi2
 906 00ca 4CFA00FC 		asr	ip, ip, r0
 907 00ce 1CF0010F 		tst	ip, #1
 908 00d2 0CD0     		beq	.L144
ARM GAS  /tmp/ccPo84yg.s 			page 17


 909 00d4 5DB1     		cbz	r5, .L144
 910              		.loc 1 1057 0 is_stmt 1
 911 00d6 06AD     		add	r5, sp, #24
 912              	.LVL110:
 913 00d8 EF19     		adds	r7, r5, r7
 914 00da 4FF00108 		mov	r8, #1
 915 00de 17F8045C 		ldrb	r5, [r7, #-4]	@ zero_extendqisi2
 916 00e2 08FA00F0 		lsl	r0, r8, r0
 917 00e6 2843     		orrs	r0, r0, r5
 918 00e8 07F8040C 		strb	r0, [r7, #-4]
 919              		.loc 1 1059 0
 920 00ec C344     		add	fp, fp, r8
 921              	.LVL111:
 922              	.L144:
 923              	.LBE49:
 924              		.loc 1 1027 0
 925 00ee 0198     		ldr	r0, [sp, #4]
 926 00f0 0134     		adds	r4, r4, #1
 927              	.LVL112:
 928 00f2 1836     		adds	r6, r6, #24
 929 00f4 8442     		cmp	r4, r0
 930 00f6 93D1     		bne	.L145
 931 00f8 5846     		mov	r0, fp
 932              	.LVL113:
 933              	.L140:
 934              		.loc 1 1063 0
 935 00fa 0E9B     		ldr	r3, [sp, #56]
 936              	.LVL114:
 937 00fc 9DF80C40 		ldrb	r4, [sp, #12]	@ zero_extendqisi2
 938              		.loc 1 1064 0
 939 0100 9DF81010 		ldrb	r1, [sp, #16]	@ zero_extendqisi2
 940              	.LVL115:
 941              		.loc 1 1063 0
 942 0104 1C70     		strb	r4, [r3, #0]
 943              		.loc 1 1064 0
 944 0106 0F9B     		ldr	r3, [sp, #60]
 945              		.loc 1 1065 0
 946 0108 9DF81420 		ldrb	r2, [sp, #20]	@ zero_extendqisi2
 947              	.LVL116:
 948              		.loc 1 1064 0
 949 010c 1970     		strb	r1, [r3, #0]
 950              		.loc 1 1065 0
 951 010e 109B     		ldr	r3, [sp, #64]
 952 0110 1A70     		strb	r2, [r3, #0]
 953              		.loc 1 1069 0
 954 0112 06B0     		add	sp, sp, #24
 955 0114 BDE8F00F 		pop	{r4, r5, r6, r7, r8, r9, sl, fp}
 956 0118 7047     		bx	lr
 957              	.LVL117:
 958              	.L147:
 959              	.LBB54:
 960              	.LBB53:
 961              	.LBB52:
 962              		.loc 1 1031 0
 963 011a 0025     		movs	r5, #0
 964              		.loc 1 1030 0
 965 011c 2846     		mov	r0, r5
ARM GAS  /tmp/ccPo84yg.s 			page 18


 966              		.loc 1 1029 0
 967 011e AA46     		mov	sl, r5
 968              		.loc 1 1028 0
 969 0120 A946     		mov	r9, r5
 970 0122 90E7     		b	.L141
 971              	.L148:
 972              		.loc 1 1030 0
 973 0124 2846     		mov	r0, r5
 974              		.loc 1 1029 0
 975 0126 AA46     		mov	sl, r5
 976              		.loc 1 1028 0
 977 0128 A946     		mov	r9, r5
 978 012a 8CE7     		b	.L141
 979              	.LBE52:
 980              	.LBE53:
 981              	.LBE54:
 982              		.cfi_endproc
 983              	.LFE24:
 984              		.size	lwip_selscan, .-lwip_selscan
 985 012c AFF30080 		.section	.text.lwip_getaddrname,"ax",%progbits
 986              		.align	2
 987              		.p2align 4,,15
 988              		.thumb
 989              		.thumb_func
 990              		.type	lwip_getaddrname, %function
 991              	lwip_getaddrname:
 992              	.LFB28:
 993              		.loc 1 1396 0
 994              		.cfi_startproc
 995              		@ args = 0, pretend = 0, frame = 24
 996              		@ frame_needed = 0, uses_anonymous_args = 0
 997              	.LVL118:
 998 0000 2DE9F041 		push	{r4, r5, r6, r7, r8, lr}
 999              	.LCFI8:
 1000              		.cfi_def_cfa_offset 24
 1001              		.cfi_offset 4, -24
 1002              		.cfi_offset 5, -20
 1003              		.cfi_offset 6, -16
 1004              		.cfi_offset 7, -12
 1005              		.cfi_offset 8, -8
 1006              		.cfi_offset 14, -4
 1007              	.LBB55:
 1008              	.LBB56:
 1009              		.loc 1 199 0
 1010 0004 0328     		cmp	r0, #3
 1011              	.LBE56:
 1012              	.LBE55:
 1013              		.loc 1 1396 0
 1014 0006 86B0     		sub	sp, sp, #24
 1015              	.LCFI9:
 1016              		.cfi_def_cfa_offset 48
 1017              		.loc 1 1396 0
 1018 0008 0D46     		mov	r5, r1
 1019 000a 1646     		mov	r6, r2
 1020              	.LBB59:
 1021              	.LBB57:
 1022              		.loc 1 199 0
ARM GAS  /tmp/ccPo84yg.s 			page 19


 1023 000c 2CD8     		bhi	.L183
 1024              		.loc 1 205 0
 1025 000e 00EB4000 		add	r0, r0, r0, lsl #1
 1026              	.LVL119:
 1027 0012 184A     		ldr	r2, .L186
 1028              	.LVL120:
 1029 0014 C000     		lsls	r0, r0, #3
 1030 0016 02EB0008 		add	r8, r2, r0
 1031              	.LVL121:
 1032              		.loc 1 207 0
 1033 001a 1058     		ldr	r0, [r2, r0]
 1034 001c 20B3     		cbz	r0, .L183
 1035              	.LBE57:
 1036              	.LBE59:
 1037              		.loc 1 1406 0
 1038 001e 0024     		movs	r4, #0
 1039              		.loc 1 1407 0
 1040 0020 1027     		movs	r7, #16
 1041              		.loc 1 1406 0
 1042 0022 0294     		str	r4, [sp, #8]
 1043              		.loc 1 1411 0
 1044 0024 01A9     		add	r1, sp, #4
 1045              	.LVL122:
 1046 0026 0DF10A02 		add	r2, sp, #10
 1047              		.loc 1 1406 0
 1048 002a 0394     		str	r4, [sp, #12]
 1049 002c 0494     		str	r4, [sp, #16]
 1050 002e 0594     		str	r4, [sp, #20]
 1051              		.loc 1 1408 0
 1052 0030 0224     		movs	r4, #2
 1053              		.loc 1 1407 0
 1054 0032 8DF80870 		strb	r7, [sp, #8]
 1055              		.loc 1 1408 0
 1056 0036 8DF80940 		strb	r4, [sp, #9]
 1057              		.loc 1 1411 0
 1058 003a FFF7FEFF 		bl	netconn_getaddr
 1059              	.LVL123:
 1060              		.loc 1 1417 0
 1061 003e BDF80A00 		ldrh	r0, [sp, #10]
 1062 0042 FFF7FEFF 		bl	lwip_htons
 1063              	.LVL124:
 1064              		.loc 1 1420 0
 1065 0046 3268     		ldr	r2, [r6, #0]
 1066              		.loc 1 1418 0
 1067 0048 019B     		ldr	r3, [sp, #4]
 1068              		.loc 1 1417 0
 1069 004a ADF80A00 		strh	r0, [sp, #10]	@ movhi
 1070              		.loc 1 1420 0
 1071 004e BA42     		cmp	r2, r7
 1072              		.loc 1 1421 0
 1073 0050 84BF     		itt	hi
 1074 0052 3760     		strhi	r7, [r6, #0]
 1075 0054 3A46     		movhi	r2, r7
 1076              		.loc 1 1424 0
 1077 0056 2846     		mov	r0, r5
 1078 0058 02A9     		add	r1, sp, #8
 1079              		.loc 1 1418 0
ARM GAS  /tmp/ccPo84yg.s 			page 20


 1080 005a 0393     		str	r3, [sp, #12]
 1081              		.loc 1 1424 0
 1082 005c FFF7FEFF 		bl	memcpy
 1083              	.LVL125:
 1084              		.loc 1 1425 0
 1085 0060 0020     		movs	r0, #0
 1086 0062 C8F81000 		str	r0, [r8, #16]
 1087 0066 01E0     		b	.L185
 1088              	.LVL126:
 1089              	.L183:
 1090              	.LBB60:
 1091              	.LBB58:
 1092              		.loc 1 1403 0
 1093 0068 4FF0FF30 		mov	r0, #-1
 1094              	.LVL127:
 1095              	.L185:
 1096              	.LBE58:
 1097              	.LBE60:
 1098              		.loc 1 1427 0
 1099 006c 06B0     		add	sp, sp, #24
 1100 006e BDE8F081 		pop	{r4, r5, r6, r7, r8, pc}
 1101              	.L187:
 1102 0072 00BF     		.align	2
 1103              	.L186:
 1104 0074 00000000 		.word	.LANCHOR0
 1105              		.cfi_endproc
 1106              	.LFE28:
 1107              		.size	lwip_getaddrname, .-lwip_getaddrname
 1108 0078 AFF30080 		.section	.text.lwip_socket_init,"ax",%progbits
 1108      AFF30080 
 1109              		.align	2
 1110              		.p2align 4,,15
 1111              		.global	lwip_socket_init
 1112              		.thumb
 1113              		.thumb_func
 1114              		.type	lwip_socket_init, %function
 1115              	lwip_socket_init:
 1116              	.LFB7:
 1117              		.loc 1 185 0
 1118              		.cfi_startproc
 1119              		@ args = 0, pretend = 0, frame = 0
 1120              		@ frame_needed = 0, uses_anonymous_args = 0
 1121              		@ link register save eliminated.
 1122 0000 7047     		bx	lr
 1123              		.cfi_endproc
 1124              	.LFE7:
 1125              		.size	lwip_socket_init, .-lwip_socket_init
 1126 0002 00BFAFF3 		.section	.text.lwip_accept,"ax",%progbits
 1126      0080AFF3 
 1126      0080AFF3 
 1126      0080
 1127              		.align	2
 1128              		.p2align 4,,15
 1129              		.global	lwip_accept
 1130              		.thumb
 1131              		.thumb_func
 1132              		.type	lwip_accept, %function
ARM GAS  /tmp/ccPo84yg.s 			page 21


 1133              	lwip_accept:
 1134              	.LFB12:
 1135              		.loc 1 313 0
 1136              		.cfi_startproc
 1137              		@ args = 0, pretend = 0, frame = 40
 1138              		@ frame_needed = 0, uses_anonymous_args = 0
 1139              	.LVL128:
 1140              		.loc 1 313 0
 1141 0000 2DE9F041 		push	{r4, r5, r6, r7, r8, lr}
 1142              	.LCFI10:
 1143              		.cfi_def_cfa_offset 24
 1144              		.cfi_offset 4, -24
 1145              		.cfi_offset 5, -20
 1146              		.cfi_offset 6, -16
 1147              		.cfi_offset 7, -12
 1148              		.cfi_offset 8, -8
 1149              		.cfi_offset 14, -4
 1150              	.LBB61:
 1151              	.LBB62:
 1152              		.loc 1 199 0
 1153 0004 0328     		cmp	r0, #3
 1154              	.LBE62:
 1155              	.LBE61:
 1156              		.loc 1 313 0
 1157 0006 8AB0     		sub	sp, sp, #40
 1158              	.LCFI11:
 1159              		.cfi_def_cfa_offset 64
 1160              		.loc 1 313 0
 1161 0008 0F46     		mov	r7, r1
 1162 000a 1446     		mov	r4, r2
 1163              	.LBB65:
 1164              	.LBB63:
 1165              		.loc 1 199 0
 1166 000c 64D8     		bhi	.L206
 1167              		.loc 1 205 0
 1168 000e 00EB4000 		add	r0, r0, r0, lsl #1
 1169              	.LVL129:
 1170 0012 4B4E     		ldr	r6, .L221
 1171 0014 C000     		lsls	r0, r0, #3
 1172 0016 3518     		adds	r5, r6, r0
 1173              	.LVL130:
 1174              		.loc 1 207 0
 1175 0018 3058     		ldr	r0, [r6, r0]
 1176 001a 0028     		cmp	r0, #0
 1177 001c 5CD0     		beq	.L206
 1178              	.LBE63:
 1179              	.LBE65:
 1180              		.loc 1 329 0
 1181 001e 037F     		ldrb	r3, [r0, #28]	@ zero_extendqisi2
 1182 0020 03F00203 		and	r3, r3, #2
 1183 0024 DBB2     		uxtb	r3, r3
 1184 0026 1BB1     		cbz	r3, .L192
 1185              		.loc 1 329 0 is_stmt 0 discriminator 1
 1186 0028 B5F90A30 		ldrsh	r3, [r5, #10]
 1187 002c 002B     		cmp	r3, #0
 1188 002e 7BDD     		ble	.L214
 1189              	.L192:
ARM GAS  /tmp/ccPo84yg.s 			page 22


 1190              		.loc 1 336 0 is_stmt 1
 1191 0030 04A9     		add	r1, sp, #16
 1192              	.LVL131:
 1193 0032 FFF7FEFF 		bl	netconn_accept
 1194              	.LVL132:
 1195              		.loc 1 337 0
 1196 0036 0028     		cmp	r0, #0
 1197 0038 5ED1     		bne	.L215
 1198              	.LVL133:
 1199              		.loc 1 342 0
 1200 003a 0498     		ldr	r0, [sp, #16]
 1201              	.LVL134:
 1202 003c 0028     		cmp	r0, #0
 1203 003e 54D0     		beq	.L216
 1204              	.L195:
 1205              		.loc 1 344 0 discriminator 1
 1206 0040 037F     		ldrb	r3, [r0, #28]	@ zero_extendqisi2
 1207 0042 43F00803 		orr	r3, r3, #8
 1208 0046 0377     		strb	r3, [r0, #28]
 1209              		.loc 1 347 0 discriminator 1
 1210 0048 05A9     		add	r1, sp, #20
 1211 004a 0023     		movs	r3, #0
 1212 004c 0DF10E02 		add	r2, sp, #14
 1213 0050 FFF7FEFF 		bl	netconn_getaddr
 1214              	.LVL135:
 1215              		.loc 1 348 0 discriminator 1
 1216 0054 0346     		mov	r3, r0
 1217 0056 0028     		cmp	r0, #0
 1218 0058 5AD1     		bne	.L217
 1219              		.loc 1 358 0
 1220 005a FFB1     		cbz	r7, .L198
 1221              		.loc 1 359 0
 1222 005c 002C     		cmp	r4, #0
 1223 005e 48D0     		beq	.L218
 1224              	.LVL136:
 1225              	.L199:
 1226              		.loc 1 360 0
 1227 0060 0023     		movs	r3, #0
 1228              		.loc 1 361 0
 1229 0062 4FF01008 		mov	r8, #16
 1230              		.loc 1 360 0
 1231 0066 0693     		str	r3, [sp, #24]
 1232 0068 0793     		str	r3, [sp, #28]
 1233 006a 0893     		str	r3, [sp, #32]
 1234 006c 0993     		str	r3, [sp, #36]
 1235              	.LVL137:
 1236              		.loc 1 363 0
 1237 006e BDF80E00 		ldrh	r0, [sp, #14]
 1238              		.loc 1 361 0
 1239 0072 8DF81880 		strb	r8, [sp, #24]
 1240              		.loc 1 362 0
 1241 0076 0223     		movs	r3, #2
 1242 0078 8DF81930 		strb	r3, [sp, #25]
 1243              		.loc 1 363 0
 1244 007c FFF7FEFF 		bl	lwip_htons
 1245              	.LVL138:
 1246              		.loc 1 366 0
ARM GAS  /tmp/ccPo84yg.s 			page 23


 1247 0080 2268     		ldr	r2, [r4, #0]
 1248              		.loc 1 364 0
 1249 0082 059B     		ldr	r3, [sp, #20]
 1250              		.loc 1 363 0
 1251 0084 ADF81A00 		strh	r0, [sp, #26]	@ movhi
 1252              		.loc 1 366 0
 1253 0088 4245     		cmp	r2, r8
 1254              		.loc 1 367 0
 1255 008a 84BF     		itt	hi
 1256 008c C4F80080 		strhi	r8, [r4, #0]
 1257 0090 4246     		movhi	r2, r8
 1258              		.loc 1 369 0
 1259 0092 3846     		mov	r0, r7
 1260 0094 06A9     		add	r1, sp, #24
 1261              		.loc 1 364 0
 1262 0096 0793     		str	r3, [sp, #28]
 1263              		.loc 1 369 0
 1264 0098 FFF7FEFF 		bl	memcpy
 1265              	.LVL139:
 1266              	.L198:
 1267              		.loc 1 372 0
 1268 009c 0121     		movs	r1, #1
 1269 009e 0498     		ldr	r0, [sp, #16]
 1270 00a0 FFF7FEFF 		bl	alloc_socket
 1271              	.LVL140:
 1272              		.loc 1 373 0
 1273 00a4 431C     		adds	r3, r0, #1
 1274              		.loc 1 372 0
 1275 00a6 0446     		mov	r4, r0
 1276              	.LVL141:
 1277              		.loc 1 373 0
 1278 00a8 43D0     		beq	.L219
 1279              		.loc 1 378 0
 1280 00aa 0328     		cmp	r0, #3
 1281 00ac 1AD8     		bhi	.L220
 1282              	.LVL142:
 1283              	.L202:
 1284              		.loc 1 379 0
 1285 00ae 049B     		ldr	r3, [sp, #16]
 1286 00b0 2449     		ldr	r1, .L221+4
 1287 00b2 9A6A     		ldr	r2, [r3, #40]
 1288 00b4 8A42     		cmp	r2, r1
 1289 00b6 02D0     		beq	.L203
 1290              		.loc 1 379 0 is_stmt 0 discriminator 1
 1291 00b8 FFF7FEFF 		bl	port_halt
 1292              	.LVL143:
 1293 00bc 049B     		ldr	r3, [sp, #16]
 1294              	.L203:
 1295              		.loc 1 380 0 is_stmt 1
 1296 00be 04EB4402 		add	r2, r4, r4, lsl #1
 1297 00c2 06EBC202 		add	r2, r6, r2, lsl #3
 1298              	.LVL144:
 1299              		.loc 1 388 0
 1300 00c6 9969     		ldr	r1, [r3, #24]
 1301 00c8 5089     		ldrh	r0, [r2, #10]
 1302 00ca C943     		mvns	r1, r1
 1303 00cc 0918     		adds	r1, r1, r0
ARM GAS  /tmp/ccPo84yg.s 			page 24


 1304 00ce 5181     		strh	r1, [r2, #10]	@ movhi
 1305              		.loc 1 389 0
 1306 00d0 9C61     		str	r4, [r3, #24]
 1307              		.loc 1 396 0
 1308 00d2 0023     		movs	r3, #0
 1309 00d4 2B61     		str	r3, [r5, #16]
 1310 00d6 01E0     		b	.L213
 1311              	.LVL145:
 1312              	.L206:
 1313              	.LBB66:
 1314              	.LBB64:
 1315              		.loc 1 326 0
 1316 00d8 4FF0FF34 		mov	r4, #-1
 1317              	.LVL146:
 1318              	.L213:
 1319              	.LBE64:
 1320              	.LBE66:
 1321              		.loc 1 398 0
 1322 00dc 2046     		mov	r0, r4
 1323 00de 0AB0     		add	sp, sp, #40
 1324 00e0 BDE8F081 		pop	{r4, r5, r6, r7, r8, pc}
 1325              	.LVL147:
 1326              	.L220:
 1327              		.loc 1 378 0 discriminator 1
 1328 00e4 FFF7FEFF 		bl	port_halt
 1329              	.LVL148:
 1330 00e8 E1E7     		b	.L202
 1331              	.LVL149:
 1332              	.L216:
 1333              		.loc 1 342 0 discriminator 1
 1334 00ea FFF7FEFF 		bl	port_halt
 1335              	.LVL150:
 1336 00ee 0498     		ldr	r0, [sp, #16]
 1337 00f0 A6E7     		b	.L195
 1338              	.LVL151:
 1339              	.L218:
 1340              		.loc 1 359 0 discriminator 1
 1341 00f2 FFF7FEFF 		bl	port_halt
 1342              	.LVL152:
 1343 00f6 B3E7     		b	.L199
 1344              	.LVL153:
 1345              	.L215:
 1346              		.loc 1 339 0
 1347 00f8 4042     		negs	r0, r0
 1348              	.LVL154:
 1349 00fa 0F28     		cmp	r0, #15
 1350 00fc 06D8     		bhi	.L208
 1351              		.loc 1 339 0 is_stmt 0 discriminator 1
 1352 00fe 124B     		ldr	r3, .L221+8
 1353 0100 53F82030 		ldr	r3, [r3, r0, lsl #2]
 1354              	.LVL155:
 1355              	.L197:
 1356              		.loc 1 351 0 is_stmt 1 discriminator 3
 1357 0104 2B61     		str	r3, [r5, #16]
 1358              		.loc 1 352 0 discriminator 3
 1359 0106 4FF0FF34 		mov	r4, #-1
 1360              	.LVL156:
ARM GAS  /tmp/ccPo84yg.s 			page 25


 1361 010a E7E7     		b	.L213
 1362              	.LVL157:
 1363              	.L208:
 1364              		.loc 1 351 0
 1365 010c 0523     		movs	r3, #5
 1366 010e F9E7     		b	.L197
 1367              	.LVL158:
 1368              	.L217:
 1369              		.loc 1 350 0
 1370 0110 0498     		ldr	r0, [sp, #16]
 1371              	.LVL159:
 1372 0112 0193     		str	r3, [sp, #4]
 1373 0114 FFF7FEFF 		bl	netconn_delete
 1374              	.LVL160:
 1375              		.loc 1 351 0
 1376 0118 019B     		ldr	r3, [sp, #4]
 1377 011a 5B42     		negs	r3, r3
 1378 011c 0F2B     		cmp	r3, #15
 1379 011e F5D8     		bhi	.L208
 1380              		.loc 1 351 0 is_stmt 0 discriminator 1
 1381 0120 094A     		ldr	r2, .L221+8
 1382 0122 52F82330 		ldr	r3, [r2, r3, lsl #2]
 1383 0126 EDE7     		b	.L197
 1384              	.LVL161:
 1385              	.L214:
 1386              		.loc 1 331 0 is_stmt 1
 1387 0128 0B23     		movs	r3, #11
 1388 012a 2B61     		str	r3, [r5, #16]
 1389              		.loc 1 332 0
 1390 012c 4FF0FF34 		mov	r4, #-1
 1391 0130 D4E7     		b	.L213
 1392              	.LVL162:
 1393              	.L219:
 1394              		.loc 1 374 0
 1395 0132 0498     		ldr	r0, [sp, #16]
 1396              	.LVL163:
 1397 0134 FFF7FEFF 		bl	netconn_delete
 1398              	.LVL164:
 1399              		.loc 1 375 0
 1400 0138 1723     		movs	r3, #23
 1401 013a 2B61     		str	r3, [r5, #16]
 1402 013c CEE7     		b	.L213
 1403              	.L222:
 1404 013e 00BF     		.align	2
 1405              	.L221:
 1406 0140 00000000 		.word	.LANCHOR0
 1407 0144 00000000 		.word	event_callback
 1408 0148 00000000 		.word	.LANCHOR1
 1409              		.cfi_endproc
 1410              	.LFE12:
 1411              		.size	lwip_accept, .-lwip_accept
 1412 014c AFF30080 		.section	.text.lwip_bind,"ax",%progbits
 1413              		.align	2
 1414              		.p2align 4,,15
 1415              		.global	lwip_bind
 1416              		.thumb
 1417              		.thumb_func
ARM GAS  /tmp/ccPo84yg.s 			page 26


 1418              		.type	lwip_bind, %function
 1419              	lwip_bind:
 1420              	.LFB13:
 1421              		.loc 1 402 0
 1422              		.cfi_startproc
 1423              		@ args = 0, pretend = 0, frame = 8
 1424              		@ frame_needed = 0, uses_anonymous_args = 0
 1425              	.LVL165:
 1426 0000 70B5     		push	{r4, r5, r6, lr}
 1427              	.LCFI12:
 1428              		.cfi_def_cfa_offset 16
 1429              		.cfi_offset 4, -16
 1430              		.cfi_offset 5, -12
 1431              		.cfi_offset 6, -8
 1432              		.cfi_offset 14, -4
 1433              	.LBB67:
 1434              	.LBB68:
 1435              		.loc 1 199 0
 1436 0002 0328     		cmp	r0, #3
 1437              	.LBE68:
 1438              	.LBE67:
 1439              		.loc 1 402 0
 1440 0004 82B0     		sub	sp, sp, #8
 1441              	.LCFI13:
 1442              		.cfi_def_cfa_offset 24
 1443              	.LBB71:
 1444              	.LBB69:
 1445              		.loc 1 199 0
 1446 0006 1CD8     		bhi	.L232
 1447              		.loc 1 205 0
 1448 0008 00EB4000 		add	r0, r0, r0, lsl #1
 1449              	.LVL166:
 1450 000c 184B     		ldr	r3, .L238
 1451 000e C000     		lsls	r0, r0, #3
 1452 0010 1E18     		adds	r6, r3, r0
 1453              	.LVL167:
 1454              		.loc 1 207 0
 1455 0012 1D58     		ldr	r5, [r3, r0]
 1456 0014 ADB1     		cbz	r5, .L232
 1457              	.LBE69:
 1458              	.LBE71:
 1459              		.loc 1 415 0
 1460 0016 102A     		cmp	r2, #16
 1461 0018 17D1     		bne	.L226
 1462              		.loc 1 415 0 is_stmt 0 discriminator 2
 1463 001a 4B78     		ldrb	r3, [r1, #1]	@ zero_extendqisi2
 1464 001c 022B     		cmp	r3, #2
 1465 001e 14D1     		bne	.L226
 1466              		.loc 1 415 0 discriminator 3
 1467 0020 8A07     		lsls	r2, r1, #30
 1468              	.LVL168:
 1469 0022 12D1     		bne	.L226
 1470              	.LVL169:
 1471              		.loc 1 420 0 is_stmt 1
 1472 0024 4B68     		ldr	r3, [r1, #4]
 1473              		.loc 1 427 0
 1474 0026 4888     		ldrh	r0, [r1, #2]
ARM GAS  /tmp/ccPo84yg.s 			page 27


 1475              		.loc 1 420 0
 1476 0028 02AC     		add	r4, sp, #8
 1477 002a 44F8043D 		str	r3, [r4, #-4]!
 1478              	.LVL170:
 1479              		.loc 1 427 0
 1480 002e FFF7FEFF 		bl	lwip_ntohs
 1481              	.LVL171:
 1482 0032 2146     		mov	r1, r4
 1483 0034 0246     		mov	r2, r0
 1484 0036 2846     		mov	r0, r5
 1485 0038 FFF7FEFF 		bl	netconn_bind
 1486              	.LVL172:
 1487              		.loc 1 429 0
 1488 003c 60B9     		cbnz	r0, .L237
 1489              		.loc 1 436 0
 1490 003e 3061     		str	r0, [r6, #16]
 1491 0040 01E0     		b	.L235
 1492              	.LVL173:
 1493              	.L232:
 1494              	.LBB72:
 1495              	.LBB70:
 1496              		.loc 1 411 0
 1497 0042 4FF0FF30 		mov	r0, #-1
 1498              	.LVL174:
 1499              	.L235:
 1500              	.LBE70:
 1501              	.LBE72:
 1502              		.loc 1 438 0
 1503 0046 02B0     		add	sp, sp, #8
 1504 0048 70BD     		pop	{r4, r5, r6, pc}
 1505              	.LVL175:
 1506              	.L226:
 1507              		.loc 1 415 0 discriminator 1
 1508 004a FFF7FEFF 		bl	port_halt
 1509              	.LVL176:
 1510 004e 0523     		movs	r3, #5
 1511 0050 3361     		str	r3, [r6, #16]
 1512 0052 4FF0FF30 		mov	r0, #-1
 1513 0056 F6E7     		b	.L235
 1514              	.LVL177:
 1515              	.L237:
 1516              		.loc 1 431 0
 1517 0058 4042     		negs	r0, r0
 1518              	.LVL178:
 1519 005a 0F28     		cmp	r0, #15
 1520 005c 9ABF     		itte	ls
 1521 005e 054B     		ldrls	r3, .L238+4
 1522 0060 53F82030 		ldrls	r3, [r3, r0, lsl #2]
 1523 0064 0523     		movhi	r3, #5
 1524 0066 3361     		str	r3, [r6, #16]
 1525              		.loc 1 432 0
 1526 0068 4FF0FF30 		mov	r0, #-1
 1527 006c EBE7     		b	.L235
 1528              	.L239:
 1529 006e 00BF     		.align	2
 1530              	.L238:
 1531 0070 00000000 		.word	.LANCHOR0
ARM GAS  /tmp/ccPo84yg.s 			page 28


 1532 0074 00000000 		.word	.LANCHOR1
 1533              		.cfi_endproc
 1534              	.LFE13:
 1535              		.size	lwip_bind, .-lwip_bind
 1536 0078 AFF30080 		.section	.text.lwip_close,"ax",%progbits
 1536      AFF30080 
 1537              		.align	2
 1538              		.p2align 4,,15
 1539              		.global	lwip_close
 1540              		.thumb
 1541              		.thumb_func
 1542              		.type	lwip_close, %function
 1543              	lwip_close:
 1544              	.LFB14:
 1545              		.loc 1 442 0
 1546              		.cfi_startproc
 1547              		@ args = 0, pretend = 0, frame = 0
 1548              		@ frame_needed = 0, uses_anonymous_args = 0
 1549              	.LVL179:
 1550              	.LBB77:
 1551              	.LBB78:
 1552              		.loc 1 199 0
 1553 0000 0328     		cmp	r0, #3
 1554              	.LBE78:
 1555              	.LBE77:
 1556              		.loc 1 442 0
 1557 0002 2DE9F041 		push	{r4, r5, r6, r7, r8, lr}
 1558              	.LCFI14:
 1559              		.cfi_def_cfa_offset 24
 1560              		.cfi_offset 4, -24
 1561              		.cfi_offset 5, -20
 1562              		.cfi_offset 6, -16
 1563              		.cfi_offset 7, -12
 1564              		.cfi_offset 8, -8
 1565              		.cfi_offset 14, -4
 1566              	.LBB81:
 1567              	.LBB79:
 1568              		.loc 1 199 0
 1569 0006 1AD8     		bhi	.L246
 1570              		.loc 1 205 0
 1571 0008 00EB4000 		add	r0, r0, r0, lsl #1
 1572              	.LVL180:
 1573 000c 114F     		ldr	r7, .L251
 1574 000e C600     		lsls	r6, r0, #3
 1575 0010 BD19     		adds	r5, r7, r6
 1576              	.LVL181:
 1577              		.loc 1 207 0
 1578 0012 BB59     		ldr	r3, [r7, r6]
 1579 0014 9BB1     		cbz	r3, .L246
 1580              	.LBE79:
 1581              	.LBE81:
 1582              		.loc 1 459 0
 1583 0016 1846     		mov	r0, r3
 1584              		.loc 1 454 0
 1585 0018 93F80080 		ldrb	r8, [r3, #0]	@ zero_extendqisi2
 1586              	.LVL182:
 1587              		.loc 1 459 0
ARM GAS  /tmp/ccPo84yg.s 			page 29


 1588 001c FFF7FEFF 		bl	netconn_delete
 1589              	.LVL183:
 1590              	.LBB82:
 1591              	.LBB83:
 1592              		.loc 1 285 0
 1593 0020 6868     		ldr	r0, [r5, #4]
 1594              	.LVL184:
 1595              		.loc 1 286 0
 1596 0022 0024     		movs	r4, #0
 1597 0024 6C60     		str	r4, [r5, #4]
 1598              		.loc 1 287 0
 1599 0026 2C81     		strh	r4, [r5, #8]	@ movhi
 1600              		.loc 1 288 0
 1601 0028 2C61     		str	r4, [r5, #16]
 1602              		.loc 1 292 0
 1603 002a BC51     		str	r4, [r7, r6]
 1604              		.loc 1 296 0
 1605 002c 58B1     		cbz	r0, .L249
 1606              		.loc 1 297 0
 1607 002e B8F1100F 		cmp	r8, #16
 1608 0032 0AD0     		beq	.L250
 1609              		.loc 1 300 0
 1610 0034 FFF7FEFF 		bl	netbuf_delete
 1611              	.LVL185:
 1612              		.loc 1 463 0
 1613 0038 2046     		mov	r0, r4
 1614 003a BDE8F081 		pop	{r4, r5, r6, r7, r8, pc}
 1615              	.LVL186:
 1616              	.L246:
 1617              	.LBE83:
 1618              	.LBE82:
 1619              	.LBB85:
 1620              	.LBB80:
 1621              		.loc 1 450 0
 1622 003e 4FF0FF30 		mov	r0, #-1
 1623 0042 BDE8F081 		pop	{r4, r5, r6, r7, r8, pc}
 1624              	.LVL187:
 1625              	.L249:
 1626              	.LBE80:
 1627              	.LBE85:
 1628              		.loc 1 464 0
 1629 0046 BDE8F081 		pop	{r4, r5, r6, r7, r8, pc}
 1630              	.L250:
 1631              	.LBB86:
 1632              	.LBB84:
 1633              		.loc 1 298 0
 1634 004a FFF7FEFF 		bl	pbuf_free
 1635              	.LVL188:
 1636              		.loc 1 463 0
 1637 004e 2046     		mov	r0, r4
 1638 0050 BDE8F081 		pop	{r4, r5, r6, r7, r8, pc}
 1639              	.L252:
 1640              		.align	2
 1641              	.L251:
 1642 0054 00000000 		.word	.LANCHOR0
 1643              	.LBE84:
 1644              	.LBE86:
ARM GAS  /tmp/ccPo84yg.s 			page 30


 1645              		.cfi_endproc
 1646              	.LFE14:
 1647              		.size	lwip_close, .-lwip_close
 1648 0058 AFF30080 		.section	.text.lwip_connect,"ax",%progbits
 1648      AFF30080 
 1649              		.align	2
 1650              		.p2align 4,,15
 1651              		.global	lwip_connect
 1652              		.thumb
 1653              		.thumb_func
 1654              		.type	lwip_connect, %function
 1655              	lwip_connect:
 1656              	.LFB15:
 1657              		.loc 1 468 0
 1658              		.cfi_startproc
 1659              		@ args = 0, pretend = 0, frame = 8
 1660              		@ frame_needed = 0, uses_anonymous_args = 0
 1661              	.LVL189:
 1662 0000 70B5     		push	{r4, r5, r6, lr}
 1663              	.LCFI15:
 1664              		.cfi_def_cfa_offset 16
 1665              		.cfi_offset 4, -16
 1666              		.cfi_offset 5, -12
 1667              		.cfi_offset 6, -8
 1668              		.cfi_offset 14, -4
 1669              	.LBB87:
 1670              	.LBB88:
 1671              		.loc 1 199 0
 1672 0002 0328     		cmp	r0, #3
 1673              	.LBE88:
 1674              	.LBE87:
 1675              		.loc 1 468 0
 1676 0004 82B0     		sub	sp, sp, #8
 1677              	.LCFI16:
 1678              		.cfi_def_cfa_offset 24
 1679              	.LBB91:
 1680              	.LBB89:
 1681              		.loc 1 199 0
 1682 0006 1CD8     		bhi	.L262
 1683              		.loc 1 205 0
 1684 0008 00EB4000 		add	r0, r0, r0, lsl #1
 1685              	.LVL190:
 1686 000c 184B     		ldr	r3, .L268
 1687 000e C000     		lsls	r0, r0, #3
 1688 0010 1D18     		adds	r5, r3, r0
 1689              	.LVL191:
 1690              		.loc 1 207 0
 1691 0012 1E58     		ldr	r6, [r3, r0]
 1692 0014 AEB1     		cbz	r6, .L262
 1693              	.LBE89:
 1694              	.LBE91:
 1695              		.loc 1 479 0
 1696 0016 102A     		cmp	r2, #16
 1697 0018 17D1     		bne	.L256
 1698              		.loc 1 479 0 is_stmt 0 discriminator 2
 1699 001a 4B78     		ldrb	r3, [r1, #1]	@ zero_extendqisi2
 1700 001c 022B     		cmp	r3, #2
ARM GAS  /tmp/ccPo84yg.s 			page 31


 1701 001e 14D1     		bne	.L256
 1702              		.loc 1 479 0 discriminator 3
 1703 0020 8807     		lsls	r0, r1, #30
 1704 0022 12D1     		bne	.L256
 1705              	.LVL192:
 1706              	.LBB92:
 1707              		.loc 1 491 0 is_stmt 1
 1708 0024 4B68     		ldr	r3, [r1, #4]
 1709              		.loc 1 498 0
 1710 0026 4888     		ldrh	r0, [r1, #2]
 1711              		.loc 1 491 0
 1712 0028 02AC     		add	r4, sp, #8
 1713 002a 44F8043D 		str	r3, [r4, #-4]!
 1714              	.LVL193:
 1715              		.loc 1 498 0
 1716 002e FFF7FEFF 		bl	lwip_ntohs
 1717              	.LVL194:
 1718 0032 2146     		mov	r1, r4
 1719 0034 0246     		mov	r2, r0
 1720 0036 3046     		mov	r0, r6
 1721 0038 FFF7FEFF 		bl	netconn_connect
 1722              	.LVL195:
 1723              	.LBE92:
 1724              		.loc 1 501 0
 1725 003c 60B9     		cbnz	r0, .L267
 1726              		.loc 1 508 0
 1727 003e 2861     		str	r0, [r5, #16]
 1728              		.loc 1 509 0
 1729 0040 01E0     		b	.L265
 1730              	.LVL196:
 1731              	.L262:
 1732              	.LBB93:
 1733              	.LBB90:
 1734              		.loc 1 475 0
 1735 0042 4FF0FF30 		mov	r0, #-1
 1736              	.LVL197:
 1737              	.L265:
 1738              	.LBE90:
 1739              	.LBE93:
 1740              		.loc 1 510 0
 1741 0046 02B0     		add	sp, sp, #8
 1742 0048 70BD     		pop	{r4, r5, r6, pc}
 1743              	.LVL198:
 1744              	.L256:
 1745              		.loc 1 479 0 discriminator 1
 1746 004a FFF7FEFF 		bl	port_halt
 1747              	.LVL199:
 1748 004e 0523     		movs	r3, #5
 1749 0050 2B61     		str	r3, [r5, #16]
 1750 0052 4FF0FF30 		mov	r0, #-1
 1751 0056 F6E7     		b	.L265
 1752              	.LVL200:
 1753              	.L267:
 1754              		.loc 1 503 0
 1755 0058 4042     		negs	r0, r0
 1756              	.LVL201:
 1757 005a 0F28     		cmp	r0, #15
ARM GAS  /tmp/ccPo84yg.s 			page 32


 1758 005c 9ABF     		itte	ls
 1759 005e 054B     		ldrls	r3, .L268+4
 1760 0060 53F82030 		ldrls	r3, [r3, r0, lsl #2]
 1761 0064 0523     		movhi	r3, #5
 1762 0066 2B61     		str	r3, [r5, #16]
 1763              		.loc 1 504 0
 1764 0068 4FF0FF30 		mov	r0, #-1
 1765 006c EBE7     		b	.L265
 1766              	.L269:
 1767 006e 00BF     		.align	2
 1768              	.L268:
 1769 0070 00000000 		.word	.LANCHOR0
 1770 0074 00000000 		.word	.LANCHOR1
 1771              		.cfi_endproc
 1772              	.LFE15:
 1773              		.size	lwip_connect, .-lwip_connect
 1774 0078 AFF30080 		.section	.text.lwip_listen,"ax",%progbits
 1774      AFF30080 
 1775              		.align	2
 1776              		.p2align 4,,15
 1777              		.global	lwip_listen
 1778              		.thumb
 1779              		.thumb_func
 1780              		.type	lwip_listen, %function
 1781              	lwip_listen:
 1782              	.LFB16:
 1783              		.loc 1 522 0
 1784              		.cfi_startproc
 1785              		@ args = 0, pretend = 0, frame = 0
 1786              		@ frame_needed = 0, uses_anonymous_args = 0
 1787              	.LVL202:
 1788              	.LBB94:
 1789              	.LBB95:
 1790              		.loc 1 199 0
 1791 0000 0328     		cmp	r0, #3
 1792              	.LBE95:
 1793              	.LBE94:
 1794              		.loc 1 522 0
 1795 0002 10B5     		push	{r4, lr}
 1796              	.LCFI17:
 1797              		.cfi_def_cfa_offset 8
 1798              		.cfi_offset 4, -8
 1799              		.cfi_offset 14, -4
 1800              	.LBB98:
 1801              	.LBB96:
 1802              		.loc 1 199 0
 1803 0004 0ED8     		bhi	.L278
 1804              		.loc 1 205 0
 1805 0006 00EB4000 		add	r0, r0, r0, lsl #1
 1806              	.LVL203:
 1807 000a 0F4B     		ldr	r3, .L283
 1808 000c C000     		lsls	r0, r0, #3
 1809 000e 1C18     		adds	r4, r3, r0
 1810              	.LVL204:
 1811              		.loc 1 207 0
 1812 0010 1858     		ldr	r0, [r3, r0]
 1813 0012 38B1     		cbz	r0, .L278
ARM GAS  /tmp/ccPo84yg.s 			page 33


 1814              	.LBE96:
 1815              	.LBE98:
 1816              		.loc 1 534 0
 1817 0014 FE29     		cmp	r1, #254
 1818 0016 08DD     		ble	.L275
 1819 0018 FF21     		movs	r1, #255
 1820              	.LVL205:
 1821              	.L276:
 1822              		.loc 1 536 0 discriminator 3
 1823 001a FFF7FEFF 		bl	netconn_listen_with_backlog
 1824              	.LVL206:
 1825              		.loc 1 538 0 discriminator 3
 1826 001e 40B9     		cbnz	r0, .L282
 1827              		.loc 1 544 0
 1828 0020 2061     		str	r0, [r4, #16]
 1829              		.loc 1 545 0
 1830 0022 10BD     		pop	{r4, pc}
 1831              	.LVL207:
 1832              	.L278:
 1833              	.LBB99:
 1834              	.LBB97:
 1835              		.loc 1 530 0
 1836 0024 4FF0FF30 		mov	r0, #-1
 1837 0028 10BD     		pop	{r4, pc}
 1838              	.LVL208:
 1839              	.L275:
 1840              	.LBE97:
 1841              	.LBE99:
 1842              		.loc 1 534 0 discriminator 1
 1843 002a 21EAE171 		bic	r1, r1, r1, asr #31
 1844              	.LVL209:
 1845 002e C9B2     		uxtb	r1, r1
 1846 0030 F3E7     		b	.L276
 1847              	.LVL210:
 1848              	.L282:
 1849              		.loc 1 540 0
 1850 0032 4042     		negs	r0, r0
 1851              	.LVL211:
 1852 0034 0F28     		cmp	r0, #15
 1853 0036 9ABF     		itte	ls
 1854 0038 044B     		ldrls	r3, .L283+4
 1855 003a 53F82030 		ldrls	r3, [r3, r0, lsl #2]
 1856 003e 0523     		movhi	r3, #5
 1857 0040 2361     		str	r3, [r4, #16]
 1858              		.loc 1 541 0
 1859 0042 4FF0FF30 		mov	r0, #-1
 1860 0046 10BD     		pop	{r4, pc}
 1861              	.L284:
 1862              		.align	2
 1863              	.L283:
 1864 0048 00000000 		.word	.LANCHOR0
 1865 004c 00000000 		.word	.LANCHOR1
 1866              		.cfi_endproc
 1867              	.LFE16:
 1868              		.size	lwip_listen, .-lwip_listen
 1869              		.section	.text.lwip_recvfrom,"ax",%progbits
 1870              		.align	2
ARM GAS  /tmp/ccPo84yg.s 			page 34


 1871              		.p2align 4,,15
 1872              		.global	lwip_recvfrom
 1873              		.thumb
 1874              		.thumb_func
 1875              		.type	lwip_recvfrom, %function
 1876              	lwip_recvfrom:
 1877              	.LFB17:
 1878              		.loc 1 551 0
 1879              		.cfi_startproc
 1880              		@ args = 8, pretend = 0, frame = 48
 1881              		@ frame_needed = 0, uses_anonymous_args = 0
 1882              	.LVL212:
 1883 0000 2DE9F04F 		push	{r4, r5, r6, r7, r8, r9, sl, fp, lr}
 1884              	.LCFI18:
 1885              		.cfi_def_cfa_offset 36
 1886              		.cfi_offset 4, -36
 1887              		.cfi_offset 5, -32
 1888              		.cfi_offset 6, -28
 1889              		.cfi_offset 7, -24
 1890              		.cfi_offset 8, -20
 1891              		.cfi_offset 9, -16
 1892              		.cfi_offset 10, -12
 1893              		.cfi_offset 11, -8
 1894              		.cfi_offset 14, -4
 1895 0004 8DB0     		sub	sp, sp, #52
 1896              	.LCFI19:
 1897              		.cfi_def_cfa_offset 88
 1898              		.loc 1 553 0
 1899 0006 0026     		movs	r6, #0
 1900              	.LBB100:
 1901              	.LBB101:
 1902              		.loc 1 199 0
 1903 0008 0328     		cmp	r0, #3
 1904              	.LBE101:
 1905              	.LBE100:
 1906              		.loc 1 553 0
 1907 000a 0696     		str	r6, [sp, #24]
 1908              	.LVL213:
 1909              		.loc 1 551 0
 1910 000c 0191     		str	r1, [sp, #4]
 1911 000e 1746     		mov	r7, r2
 1912 0010 9B46     		mov	fp, r3
 1913              	.LBB104:
 1914              	.LBB102:
 1915              		.loc 1 199 0
 1916 0012 6FD8     		bhi	.L320
 1917              		.loc 1 205 0
 1918 0014 00EB4000 		add	r0, r0, r0, lsl #1
 1919              	.LVL214:
 1920 0018 7C4B     		ldr	r3, .L352
 1921              	.LVL215:
 1922 001a C000     		lsls	r0, r0, #3
 1923 001c 1D18     		adds	r5, r3, r0
 1924              	.LVL216:
 1925              		.loc 1 207 0
 1926 001e 1B58     		ldr	r3, [r3, r0]
 1927 0020 002B     		cmp	r3, #0
ARM GAS  /tmp/ccPo84yg.s 			page 35


 1928 0022 67D0     		beq	.L320
 1929              	.LVL217:
 1930              	.LBE102:
 1931              	.LBE104:
 1932              		.loc 1 571 0
 1933 0024 6C68     		ldr	r4, [r5, #4]
 1934              	.LBB105:
 1935              	.LBB106:
 1936              		.loc 1 672 0
 1937 0026 CDF808B0 		str	fp, [sp, #8]
 1938              	.LBE106:
 1939              	.LBE105:
 1940              		.loc 1 575 0
 1941 002a 0BF00802 		and	r2, fp, #8
 1942              	.LVL218:
 1943 002e 0392     		str	r2, [sp, #12]
 1944              	.LBB110:
 1945              	.LBB107:
 1946              		.loc 1 671 0
 1947 0030 B146     		mov	r9, r6
 1948              		.loc 1 672 0
 1949 0032 DDF85CA0 		ldr	sl, [sp, #92]
 1950              	.LBE107:
 1951              	.LBE110:
 1952              		.loc 1 571 0
 1953 0036 002C     		cmp	r4, #0
 1954 0038 73D0     		beq	.L287
 1955              	.LVL219:
 1956              	.L347:
 1957              		.loc 1 572 0
 1958 003a 0694     		str	r4, [sp, #24]
 1959              	.L288:
 1960              		.loc 1 621 0
 1961 003c 2B68     		ldr	r3, [r5, #0]
 1962              		.loc 1 640 0
 1963 003e 019A     		ldr	r2, [sp, #4]
 1964              		.loc 1 621 0
 1965 0040 1B78     		ldrb	r3, [r3, #0]	@ zero_extendqisi2
 1966 0042 102B     		cmp	r3, #16
 1967              		.loc 1 624 0
 1968 0044 18BF     		it	ne
 1969 0046 2468     		ldrne	r4, [r4, #0]
 1970              	.LVL220:
 1971              		.loc 1 630 0
 1972 0048 2B89     		ldrh	r3, [r5, #8]
 1973              		.loc 1 626 0
 1974 004a B4F80880 		ldrh	r8, [r4, #8]
 1975              	.LVL221:
 1976              		.loc 1 630 0
 1977 004e C3EB0808 		rsb	r8, r3, r8
 1978 0052 1FFA88F8 		uxth	r8, r8
 1979              	.LVL222:
 1980              		.loc 1 632 0
 1981 0056 4745     		cmp	r7, r8
 1982              		.loc 1 635 0
 1983 0058 94BF     		ite	ls
 1984 005a 1FFA87FB 		uxthls	fp, r7
ARM GAS  /tmp/ccPo84yg.s 			page 36


 1985              	.LVL223:
 1986              		.loc 1 633 0
 1987 005e C346     		movhi	fp, r8
 1988              	.LVL224:
 1989              		.loc 1 640 0
 1990 0060 9119     		adds	r1, r2, r6
 1991 0062 2046     		mov	r0, r4
 1992 0064 5A46     		mov	r2, fp
 1993 0066 FFF7FEFF 		bl	pbuf_copy_partial
 1994              	.LVL225:
 1995              		.loc 1 644 0
 1996 006a 2B68     		ldr	r3, [r5, #0]
 1997 006c 1B78     		ldrb	r3, [r3, #0]	@ zero_extendqisi2
 1998 006e 102B     		cmp	r3, #16
 1999              		.loc 1 642 0
 2000 0070 5E44     		add	r6, r6, fp
 2001              	.LVL226:
 2002              		.loc 1 644 0
 2003 0072 70D0     		beq	.L343
 2004              	.LVL227:
 2005              	.L301:
 2006 0074 029A     		ldr	r2, [sp, #8]
 2007 0076 02F00104 		and	r4, r2, #1
 2008              	.L304:
 2009              	.LVL228:
 2010              	.LBB111:
 2011              		.loc 1 660 0
 2012 007a 169B     		ldr	r3, [sp, #88]
 2013 007c BAF1000F 		cmp	sl, #0
 2014 0080 18BF     		it	ne
 2015 0082 002B     		cmpne	r3, #0
 2016 0084 2DD0     		beq	.L317
 2017              	.LBB108:
 2018              		.loc 1 663 0
 2019 0086 2868     		ldr	r0, [r5, #0]
 2020 0088 0378     		ldrb	r3, [r0, #0]	@ zero_extendqisi2
 2021 008a 102B     		cmp	r3, #16
 2022 008c 00F09880 		beq	.L344
 2023              		.loc 1 667 0
 2024 0090 069B     		ldr	r3, [sp, #24]
 2025              		.loc 1 668 0
 2026 0092 9A89     		ldrh	r2, [r3, #12]
 2027              		.loc 1 667 0
 2028 0094 0833     		adds	r3, r3, #8
 2029              	.LVL229:
 2030              		.loc 1 668 0
 2031 0096 ADF81620 		strh	r2, [sp, #22]	@ movhi
 2032              	.L309:
 2033              		.loc 1 672 0
 2034 009a 1022     		movs	r2, #16
 2035              		.loc 1 671 0
 2036 009c CDF82090 		str	r9, [sp, #32]
 2037              		.loc 1 674 0
 2038 00a0 BDF81600 		ldrh	r0, [sp, #22]
 2039              		.loc 1 672 0
 2040 00a4 8DF82020 		strb	r2, [sp, #32]
 2041              		.loc 1 673 0
ARM GAS  /tmp/ccPo84yg.s 			page 37


 2042 00a8 0222     		movs	r2, #2
 2043 00aa 8DF82120 		strb	r2, [sp, #33]
 2044              		.loc 1 674 0
 2045 00ae 0093     		str	r3, [sp, #0]
 2046              		.loc 1 671 0
 2047 00b0 CDF82490 		str	r9, [sp, #36]
 2048 00b4 CDF82890 		str	r9, [sp, #40]
 2049 00b8 CDF82C90 		str	r9, [sp, #44]
 2050              		.loc 1 674 0
 2051 00bc FFF7FEFF 		bl	lwip_htons
 2052              	.LVL230:
 2053              		.loc 1 675 0
 2054 00c0 009B     		ldr	r3, [sp, #0]
 2055              		.loc 1 677 0
 2056 00c2 DAF80020 		ldr	r2, [sl, #0]
 2057              		.loc 1 675 0
 2058 00c6 1B68     		ldr	r3, [r3, #0]
 2059              		.loc 1 674 0
 2060 00c8 ADF82200 		strh	r0, [sp, #34]	@ movhi
 2061              		.loc 1 677 0
 2062 00cc 102A     		cmp	r2, #16
 2063              		.loc 1 675 0
 2064 00ce 0993     		str	r3, [sp, #36]
 2065              		.loc 1 677 0
 2066 00d0 03D9     		bls	.L310
 2067              		.loc 1 678 0
 2068 00d2 1023     		movs	r3, #16
 2069 00d4 CAF80030 		str	r3, [sl, #0]
 2070 00d8 1A46     		mov	r2, r3
 2071              	.L310:
 2072              		.loc 1 681 0
 2073 00da 1698     		ldr	r0, [sp, #88]
 2074 00dc 08A9     		add	r1, sp, #32
 2075 00de FFF7FEFF 		bl	memcpy
 2076              	.LVL231:
 2077              	.L317:
 2078              	.LBE108:
 2079              	.LBE111:
 2080              		.loc 1 704 0
 2081 00e2 6CB1     		cbz	r4, .L345
 2082              	.LVL232:
 2083              	.L311:
 2084              		.loc 1 725 0
 2085 00e4 1EB1     		cbz	r6, .L315
 2086              	.LVL233:
 2087              	.L341:
 2088              		.loc 1 727 0
 2089 00e6 2868     		ldr	r0, [r5, #0]
 2090 00e8 3146     		mov	r1, r6
 2091 00ea FFF7FEFF 		bl	netconn_recved
 2092              	.LVL234:
 2093              	.L315:
 2094              		.loc 1 729 0
 2095 00ee 0023     		movs	r3, #0
 2096 00f0 2B61     		str	r3, [r5, #16]
 2097 00f2 01E0     		b	.L339
 2098              	.LVL235:
ARM GAS  /tmp/ccPo84yg.s 			page 38


 2099              	.L320:
 2100              	.LBB112:
 2101              	.LBB103:
 2102              		.loc 1 565 0
 2103 00f4 4FF0FF36 		mov	r6, #-1
 2104              	.LVL236:
 2105              	.L339:
 2106              	.LBE103:
 2107              	.LBE112:
 2108              		.loc 1 731 0
 2109 00f8 3046     		mov	r0, r6
 2110 00fa 0DB0     		add	sp, sp, #52
 2111 00fc BDE8F08F 		pop	{r4, r5, r6, r7, r8, r9, sl, fp, pc}
 2112              	.LVL237:
 2113              	.L345:
 2114              		.loc 1 704 0
 2115 0100 0124     		movs	r4, #1
 2116              	.LVL238:
 2117              	.L307:
 2118              		.loc 1 708 0
 2119 0102 2B68     		ldr	r3, [r5, #0]
 2120 0104 1B78     		ldrb	r3, [r3, #0]	@ zero_extendqisi2
 2121 0106 102B     		cmp	r3, #16
 2122 0108 3BD0     		beq	.L346
 2123              		.loc 1 719 0
 2124 010a 0698     		ldr	r0, [sp, #24]
 2125              		.loc 1 713 0
 2126 010c C5F80490 		str	r9, [r5, #4]
 2127              		.loc 1 714 0
 2128 0110 A5F80890 		strh	r9, [r5, #8]	@ movhi
 2129              		.loc 1 719 0
 2130 0114 FFF7FEFF 		bl	netbuf_delete
 2131              	.LVL239:
 2132              		.loc 1 723 0
 2133 0118 002C     		cmp	r4, #0
 2134 011a E3D1     		bne	.L311
 2135              	.LVL240:
 2136              	.L342:
 2137              		.loc 1 571 0
 2138 011c 6C68     		ldr	r4, [r5, #4]
 2139 011e 002C     		cmp	r4, #0
 2140 0120 8BD1     		bne	.L347
 2141              	.LVL241:
 2142              	.L287:
 2143              		.loc 1 575 0
 2144 0122 039B     		ldr	r3, [sp, #12]
 2145 0124 2BB9     		cbnz	r3, .L289
 2146              		.loc 1 575 0 is_stmt 0 discriminator 2
 2147 0126 2868     		ldr	r0, [r5, #0]
 2148 0128 037F     		ldrb	r3, [r0, #28]	@ zero_extendqisi2
 2149 012a 03F00203 		and	r3, r3, #2
 2150 012e DBB2     		uxtb	r3, r3
 2151 0130 23B1     		cbz	r3, .L290
 2152              	.L289:
 2153              		.loc 1 575 0 discriminator 1
 2154 0132 B5F90A30 		ldrsh	r3, [r5, #10]
 2155 0136 002B     		cmp	r3, #0
ARM GAS  /tmp/ccPo84yg.s 			page 39


 2156 0138 60DD     		ble	.L291
 2157 013a 2868     		ldr	r0, [r5, #0]
 2158              	.L290:
 2159              		.loc 1 591 0 is_stmt 1
 2160 013c 0378     		ldrb	r3, [r0, #0]	@ zero_extendqisi2
 2161 013e 102B     		cmp	r3, #16
 2162              		.loc 1 592 0
 2163 0140 06A9     		add	r1, sp, #24
 2164              		.loc 1 591 0
 2165 0142 30D0     		beq	.L348
 2166              		.loc 1 594 0
 2167 0144 FFF7FEFF 		bl	netconn_recv
 2168              	.LVL242:
 2169              	.L294:
 2170              		.loc 1 599 0
 2171 0148 0028     		cmp	r0, #0
 2172 014a 45D1     		bne	.L349
 2173              		.loc 1 617 0
 2174 014c 069C     		ldr	r4, [sp, #24]
 2175 014e 002C     		cmp	r4, #0
 2176 0150 3ED0     		beq	.L350
 2177              	.LVL243:
 2178              	.L298:
 2179              		.loc 1 618 0
 2180 0152 6C60     		str	r4, [r5, #4]
 2181 0154 72E7     		b	.L288
 2182              	.LVL244:
 2183              	.L343:
 2184              		.loc 1 645 0
 2185 0156 5F45     		cmp	r7, fp
 2186 0158 22D3     		bcc	.L351
 2187              	.L302:
 2188              	.LVL245:
 2189              		.loc 1 647 0
 2190 015a B7EB0B07 		subs	r7, r7, fp
 2191              	.LVL246:
 2192 015e 0CD0     		beq	.L340
 2193              		.loc 1 648 0 discriminator 1
 2194 0160 637B     		ldrb	r3, [r4, #13]	@ zero_extendqisi2
 2195              		.loc 1 647 0 discriminator 1
 2196 0162 DC07     		lsls	r4, r3, #31
 2197              	.LVL247:
 2198 0164 86D4     		bmi	.L301
 2199              		.loc 1 648 0
 2200 0166 B5F90A30 		ldrsh	r3, [r5, #10]
 2201 016a 002B     		cmp	r3, #0
 2202 016c 05DD     		ble	.L340
 2203              		.loc 1 649 0
 2204 016e 029A     		ldr	r2, [sp, #8]
 2205 0170 12F00104 		ands	r4, r2, #1
 2206 0174 C5D0     		beq	.L307
 2207 0176 0124     		movs	r4, #1
 2208 0178 7FE7     		b	.L304
 2209              	.L340:
 2210 017a 029B     		ldr	r3, [sp, #8]
 2211 017c 03F00104 		and	r4, r3, #1
 2212 0180 7BE7     		b	.L304
ARM GAS  /tmp/ccPo84yg.s 			page 40


 2213              	.LVL248:
 2214              	.L346:
 2215              		.loc 1 708 0 discriminator 1
 2216 0182 CBEB0808 		rsb	r8, fp, r8
 2217              	.LVL249:
 2218 0186 B8F1000F 		cmp	r8, #0
 2219 018a 0FDD     		ble	.L313
 2220              		.loc 1 710 0
 2221 018c 2B89     		ldrh	r3, [r5, #8]
 2222 018e 0BEB030C 		add	ip, fp, r3
 2223              		.loc 1 709 0
 2224 0192 069B     		ldr	r3, [sp, #24]
 2225              		.loc 1 710 0
 2226 0194 A5F808C0 		strh	ip, [r5, #8]	@ movhi
 2227              		.loc 1 709 0
 2228 0198 6B60     		str	r3, [r5, #4]
 2229              		.loc 1 723 0
 2230 019a 002C     		cmp	r4, #0
 2231 019c BED0     		beq	.L342
 2232 019e A1E7     		b	.L311
 2233              	.LVL250:
 2234              	.L351:
 2235              		.loc 1 645 0 discriminator 1
 2236 01a0 FFF7FEFF 		bl	port_halt
 2237              	.LVL251:
 2238 01a4 D9E7     		b	.L302
 2239              	.LVL252:
 2240              	.L348:
 2241              		.loc 1 592 0
 2242 01a6 FFF7FEFF 		bl	netconn_recv_tcp_pbuf
 2243              	.LVL253:
 2244 01aa CDE7     		b	.L294
 2245              	.LVL254:
 2246              	.L313:
 2247              		.loc 1 717 0
 2248 01ac 0698     		ldr	r0, [sp, #24]
 2249              		.loc 1 713 0
 2250 01ae C5F80490 		str	r9, [r5, #4]
 2251              		.loc 1 714 0
 2252 01b2 A5F80890 		strh	r9, [r5, #8]	@ movhi
 2253              		.loc 1 717 0
 2254 01b6 FFF7FEFF 		bl	pbuf_free
 2255              	.LVL255:
 2256              		.loc 1 723 0
 2257 01ba 002C     		cmp	r4, #0
 2258 01bc AED0     		beq	.L342
 2259 01be 91E7     		b	.L311
 2260              	.LVL256:
 2261              	.L344:
 2262              	.LBB113:
 2263              	.LBB109:
 2264              		.loc 1 665 0
 2265 01c0 0023     		movs	r3, #0
 2266 01c2 07A9     		add	r1, sp, #28
 2267              	.LVL257:
 2268 01c4 0DF11602 		add	r2, sp, #22
 2269 01c8 FFF7FEFF 		bl	netconn_getaddr
ARM GAS  /tmp/ccPo84yg.s 			page 41


 2270              	.LVL258:
 2271              		.loc 1 664 0
 2272 01cc 07AB     		add	r3, sp, #28
 2273              	.LVL259:
 2274 01ce 64E7     		b	.L309
 2275              	.LVL260:
 2276              	.L350:
 2277              	.LBE109:
 2278              	.LBE113:
 2279              		.loc 1 617 0 discriminator 1
 2280 01d0 FFF7FEFF 		bl	port_halt
 2281              	.LVL261:
 2282 01d4 069C     		ldr	r4, [sp, #24]
 2283 01d6 BCE7     		b	.L298
 2284              	.LVL262:
 2285              	.L349:
 2286              		.loc 1 600 0
 2287 01d8 002E     		cmp	r6, #0
 2288 01da 84D1     		bne	.L341
 2289              		.loc 1 610 0
 2290 01dc 40B2     		sxtb	r0, r0
 2291              	.LVL263:
 2292 01de 4342     		negs	r3, r0
 2293 01e0 0F2B     		cmp	r3, #15
 2294 01e2 9ABF     		itte	ls
 2295 01e4 0A4A     		ldrls	r2, .L352+4
 2296 01e6 52F82330 		ldrls	r3, [r2, r3, lsl #2]
 2297 01ea 0523     		movhi	r3, #5
 2298 01ec 2B61     		str	r3, [r5, #16]
 2299              		.loc 1 612 0
 2300 01ee 10F10C0F 		cmn	r0, #12
 2301 01f2 14BF     		ite	ne
 2302 01f4 4FF0FF36 		movne	r6, #-1
 2303 01f8 0026     		moveq	r6, #0
 2304              	.LVL264:
 2305 01fa 7DE7     		b	.L339
 2306              	.LVL265:
 2307              	.L291:
 2308              		.loc 1 577 0
 2309 01fc 002E     		cmp	r6, #0
 2310 01fe 7FF472AF 		bne	.L341
 2311              		.loc 1 585 0
 2312 0202 0B23     		movs	r3, #11
 2313 0204 2B61     		str	r3, [r5, #16]
 2314              		.loc 1 586 0
 2315 0206 4FF0FF36 		mov	r6, #-1
 2316              	.LVL266:
 2317 020a 75E7     		b	.L339
 2318              	.L353:
 2319              		.align	2
 2320              	.L352:
 2321 020c 00000000 		.word	.LANCHOR0
 2322 0210 00000000 		.word	.LANCHOR1
 2323              		.cfi_endproc
 2324              	.LFE17:
 2325              		.size	lwip_recvfrom, .-lwip_recvfrom
 2326 0214 AFF30080 		.section	.text.lwip_read,"ax",%progbits
ARM GAS  /tmp/ccPo84yg.s 			page 42


 2326      AFF30080 
 2326      AFF30080 
 2327              		.align	2
 2328              		.p2align 4,,15
 2329              		.global	lwip_read
 2330              		.thumb
 2331              		.thumb_func
 2332              		.type	lwip_read, %function
 2333              	lwip_read:
 2334              	.LFB18:
 2335              		.loc 1 735 0
 2336              		.cfi_startproc
 2337              		@ args = 0, pretend = 0, frame = 0
 2338              		@ frame_needed = 0, uses_anonymous_args = 0
 2339              	.LVL267:
 2340 0000 00B5     		push	{lr}
 2341              	.LCFI20:
 2342              		.cfi_def_cfa_offset 4
 2343              		.cfi_offset 14, -4
 2344 0002 83B0     		sub	sp, sp, #12
 2345              	.LCFI21:
 2346              		.cfi_def_cfa_offset 16
 2347              		.loc 1 736 0
 2348 0004 0023     		movs	r3, #0
 2349 0006 0093     		str	r3, [sp, #0]
 2350 0008 0193     		str	r3, [sp, #4]
 2351 000a FFF7FEFF 		bl	lwip_recvfrom
 2352              	.LVL268:
 2353              		.loc 1 737 0
 2354 000e 03B0     		add	sp, sp, #12
 2355 0010 00BD     		pop	{pc}
 2356              		.cfi_endproc
 2357              	.LFE18:
 2358              		.size	lwip_read, .-lwip_read
 2359 0012 00BFAFF3 		.section	.text.lwip_recv,"ax",%progbits
 2359      0080AFF3 
 2359      0080AFF3 
 2359      0080
 2360              		.align	2
 2361              		.p2align 4,,15
 2362              		.global	lwip_recv
 2363              		.thumb
 2364              		.thumb_func
 2365              		.type	lwip_recv, %function
 2366              	lwip_recv:
 2367              	.LFB19:
 2368              		.loc 1 741 0
 2369              		.cfi_startproc
 2370              		@ args = 0, pretend = 0, frame = 0
 2371              		@ frame_needed = 0, uses_anonymous_args = 0
 2372              	.LVL269:
 2373 0000 10B5     		push	{r4, lr}
 2374              	.LCFI22:
 2375              		.cfi_def_cfa_offset 8
 2376              		.cfi_offset 4, -8
 2377              		.cfi_offset 14, -4
 2378 0002 82B0     		sub	sp, sp, #8
ARM GAS  /tmp/ccPo84yg.s 			page 43


 2379              	.LCFI23:
 2380              		.cfi_def_cfa_offset 16
 2381              		.loc 1 742 0
 2382 0004 0024     		movs	r4, #0
 2383 0006 0094     		str	r4, [sp, #0]
 2384 0008 0194     		str	r4, [sp, #4]
 2385 000a FFF7FEFF 		bl	lwip_recvfrom
 2386              	.LVL270:
 2387              		.loc 1 743 0
 2388 000e 02B0     		add	sp, sp, #8
 2389 0010 10BD     		pop	{r4, pc}
 2390              		.cfi_endproc
 2391              	.LFE19:
 2392              		.size	lwip_recv, .-lwip_recv
 2393 0012 00BFAFF3 		.section	.text.lwip_sendto,"ax",%progbits
 2393      0080AFF3 
 2393      0080AFF3 
 2393      0080
 2394              		.align	2
 2395              		.p2align 4,,15
 2396              		.global	lwip_sendto
 2397              		.thumb
 2398              		.thumb_func
 2399              		.type	lwip_sendto, %function
 2400              	lwip_sendto:
 2401              	.LFB21:
 2402              		.loc 1 790 0
 2403              		.cfi_startproc
 2404              		@ args = 8, pretend = 0, frame = 16
 2405              		@ frame_needed = 0, uses_anonymous_args = 0
 2406              	.LVL271:
 2407 0000 2DE9F043 		push	{r4, r5, r6, r7, r8, r9, lr}
 2408              	.LCFI24:
 2409              		.cfi_def_cfa_offset 28
 2410              		.cfi_offset 4, -28
 2411              		.cfi_offset 5, -24
 2412              		.cfi_offset 6, -20
 2413              		.cfi_offset 7, -16
 2414              		.cfi_offset 8, -12
 2415              		.cfi_offset 9, -8
 2416              		.cfi_offset 14, -4
 2417 0004 85B0     		sub	sp, sp, #20
 2418              	.LCFI25:
 2419              		.cfi_def_cfa_offset 48
 2420              	.LBB114:
 2421              	.LBB115:
 2422              		.loc 1 199 0
 2423 0006 0328     		cmp	r0, #3
 2424              	.LBE115:
 2425              	.LBE114:
 2426              		.loc 1 790 0
 2427 0008 0746     		mov	r7, r0
 2428              	.LVL272:
 2429 000a 8846     		mov	r8, r1
 2430 000c 1646     		mov	r6, r2
 2431 000e 0C9C     		ldr	r4, [sp, #48]
 2432 0010 0D9D     		ldr	r5, [sp, #52]
ARM GAS  /tmp/ccPo84yg.s 			page 44


 2433              	.LBB117:
 2434              	.LBB116:
 2435              		.loc 1 199 0
 2436 0012 3FD8     		bhi	.L377
 2437              		.loc 1 205 0
 2438 0014 00EB4007 		add	r7, r0, r0, lsl #1
 2439 0018 DFF8B8C0 		ldr	ip, .L381+4
 2440 001c FF00     		lsls	r7, r7, #3
 2441 001e 0CEB0709 		add	r9, ip, r7
 2442              	.LVL273:
 2443              		.loc 1 207 0
 2444 0022 5CF80770 		ldr	r7, [ip, r7]
 2445 0026 002F     		cmp	r7, #0
 2446 0028 34D0     		beq	.L377
 2447              	.LBE116:
 2448              	.LBE117:
 2449              		.loc 1 805 0
 2450 002a 3F78     		ldrb	r7, [r7, #0]	@ zero_extendqisi2
 2451 002c 102F     		cmp	r7, #16
 2452 002e 46D0     		beq	.L378
 2453              		.loc 1 816 0
 2454 0030 B6F5803F 		cmp	r6, #65536
 2455 0034 39D2     		bcs	.L379
 2456              	.LVL274:
 2457              	.L361:
 2458              		.loc 1 818 0
 2459 0036 002C     		cmp	r4, #0
 2460 0038 08BF     		it	eq
 2461 003a 002D     		cmpeq	r5, #0
 2462              		.loc 1 817 0
 2463 003c B7B2     		uxth	r7, r6
 2464              	.LVL275:
 2465              		.loc 1 818 0
 2466 003e 0CBF     		ite	eq
 2467 0040 0023     		moveq	r3, #0
 2468 0042 0123     		movne	r3, #1
 2469 0044 2BD0     		beq	.L362
 2470              		.loc 1 818 0 is_stmt 0 discriminator 1
 2471 0046 102D     		cmp	r5, #16
 2472 0048 3CD1     		bne	.L363
 2473              		.loc 1 818 0 discriminator 3
 2474 004a 6378     		ldrb	r3, [r4, #1]	@ zero_extendqisi2
 2475 004c 022B     		cmp	r3, #2
 2476 004e 39D1     		bne	.L363
 2477              		.loc 1 818 0 discriminator 4
 2478 0050 14F00303 		ands	r3, r4, #3
 2479 0054 36D1     		bne	.L363
 2480              	.LVL276:
 2481              		.loc 1 888 0 is_stmt 1
 2482 0056 6268     		ldr	r2, [r4, #4]
 2483              		.loc 1 889 0
 2484 0058 6088     		ldrh	r0, [r4, #2]
 2485              		.loc 1 883 0
 2486 005a 0193     		str	r3, [sp, #4]
 2487 005c 0093     		str	r3, [sp, #0]
 2488              		.loc 1 888 0
 2489 005e 0292     		str	r2, [sp, #8]
ARM GAS  /tmp/ccPo84yg.s 			page 45


 2490              		.loc 1 889 0
 2491 0060 FFF7FEFF 		bl	lwip_ntohs
 2492              	.LVL277:
 2493              		.loc 1 890 0
 2494 0064 ADF80C00 		strh	r0, [sp, #12]	@ movhi
 2495              	.LVL278:
 2496              	.L369:
 2497              		.loc 1 920 0
 2498 0068 6846     		mov	r0, sp
 2499 006a 4146     		mov	r1, r8
 2500 006c 3A46     		mov	r2, r7
 2501 006e FFF7FEFF 		bl	netbuf_ref
 2502              	.LVL279:
 2503              		.loc 1 922 0
 2504 0072 0446     		mov	r4, r0
 2505 0074 E0B1     		cbz	r0, .L380
 2506              	.LVL280:
 2507              	.L365:
 2508              		.loc 1 928 0
 2509 0076 6846     		mov	r0, sp
 2510 0078 FFF7FEFF 		bl	netbuf_free
 2511              	.LVL281:
 2512              		.loc 1 930 0
 2513 007c 63B2     		sxtb	r3, r4
 2514 007e 5B42     		negs	r3, r3
 2515 0080 0F2B     		cmp	r3, #15
 2516 0082 9ABF     		itte	ls
 2517 0084 124A     		ldrls	r2, .L381
 2518 0086 52F82330 		ldrls	r3, [r2, r3, lsl #2]
 2519 008a 0523     		movhi	r3, #5
 2520 008c C9F81030 		str	r3, [r9, #16]
 2521              		.loc 1 2345 0
 2522 0090 B0B2     		uxth	r0, r6
 2523              		.loc 1 931 0
 2524 0092 0CB1     		cbz	r4, .L374
 2525              	.LVL282:
 2526              	.L377:
 2527              		.loc 1 818 0 discriminator 2
 2528 0094 4FF0FF30 		mov	r0, #-1
 2529              	.L374:
 2530              		.loc 1 932 0
 2531 0098 05B0     		add	sp, sp, #20
 2532 009a BDE8F083 		pop	{r4, r5, r6, r7, r8, r9, pc}
 2533              	.LVL283:
 2534              	.L362:
 2535              		.loc 1 883 0
 2536 009e 0193     		str	r3, [sp, #4]
 2537 00a0 0093     		str	r3, [sp, #0]
 2538              	.LVL284:
 2539              		.loc 1 893 0
 2540 00a2 0293     		str	r3, [sp, #8]
 2541              		.loc 1 894 0
 2542 00a4 ADF80C30 		strh	r3, [sp, #12]	@ movhi
 2543 00a8 DEE7     		b	.L369
 2544              	.LVL285:
 2545              	.L379:
 2546              		.loc 1 816 0 discriminator 1
ARM GAS  /tmp/ccPo84yg.s 			page 46


 2547 00aa FFF7FEFF 		bl	port_halt
 2548              	.LVL286:
 2549 00ae C2E7     		b	.L361
 2550              	.LVL287:
 2551              	.L380:
 2552              		.loc 1 924 0
 2553 00b0 D9F80000 		ldr	r0, [r9, #0]
 2554              	.LVL288:
 2555 00b4 6946     		mov	r1, sp
 2556 00b6 FFF7FEFF 		bl	netconn_send
 2557              	.LVL289:
 2558 00ba 0446     		mov	r4, r0
 2559              	.LVL290:
 2560 00bc DBE7     		b	.L365
 2561              	.LVL291:
 2562              	.L378:
 2563              		.loc 1 807 0
 2564 00be FFF7FEFF 		bl	lwip_send
 2565              	.LVL292:
 2566 00c2 E9E7     		b	.L374
 2567              	.LVL293:
 2568              	.L363:
 2569              		.loc 1 818 0 discriminator 2
 2570 00c4 FFF7FEFF 		bl	port_halt
 2571              	.LVL294:
 2572 00c8 0523     		movs	r3, #5
 2573 00ca C9F81030 		str	r3, [r9, #16]
 2574 00ce E1E7     		b	.L377
 2575              	.L382:
 2576              		.align	2
 2577              	.L381:
 2578 00d0 00000000 		.word	.LANCHOR1
 2579 00d4 00000000 		.word	.LANCHOR0
 2580              		.cfi_endproc
 2581              	.LFE21:
 2582              		.size	lwip_sendto, .-lwip_sendto
 2583 00d8 AFF30080 		.section	.text.lwip_send,"ax",%progbits
 2583      AFF30080 
 2584              		.align	2
 2585              		.p2align 4,,15
 2586              		.global	lwip_send
 2587              		.thumb
 2588              		.thumb_func
 2589              		.type	lwip_send, %function
 2590              	lwip_send:
 2591              	.LFB20:
 2592              		.loc 1 747 0
 2593              		.cfi_startproc
 2594              		@ args = 0, pretend = 0, frame = 0
 2595              		@ frame_needed = 0, uses_anonymous_args = 0
 2596              	.LVL295:
 2597 0000 2DE9F041 		push	{r4, r5, r6, r7, r8, lr}
 2598              	.LCFI26:
 2599              		.cfi_def_cfa_offset 24
 2600              		.cfi_offset 4, -24
 2601              		.cfi_offset 5, -20
 2602              		.cfi_offset 6, -16
ARM GAS  /tmp/ccPo84yg.s 			page 47


 2603              		.cfi_offset 7, -12
 2604              		.cfi_offset 8, -8
 2605              		.cfi_offset 14, -4
 2606              	.LBB118:
 2607              	.LBB119:
 2608              		.loc 1 199 0
 2609 0004 0328     		cmp	r0, #3
 2610              	.LBE119:
 2611              	.LBE118:
 2612              		.loc 1 747 0
 2613 0006 82B0     		sub	sp, sp, #8
 2614              	.LCFI27:
 2615              		.cfi_def_cfa_offset 32
 2616              		.loc 1 747 0
 2617 0008 0446     		mov	r4, r0
 2618              	.LVL296:
 2619 000a 0F46     		mov	r7, r1
 2620 000c 1646     		mov	r6, r2
 2621 000e 1D46     		mov	r5, r3
 2622              	.LBB121:
 2623              	.LBB120:
 2624              		.loc 1 199 0
 2625 0010 37D8     		bhi	.L407
 2626              		.loc 1 205 0
 2627 0012 00EB4004 		add	r4, r0, r0, lsl #1
 2628 0016 DFF884C0 		ldr	ip, .L409+4
 2629 001a E400     		lsls	r4, r4, #3
 2630 001c 0CEB0408 		add	r8, ip, r4
 2631              	.LVL297:
 2632              		.loc 1 207 0
 2633 0020 5CF80440 		ldr	r4, [ip, r4]
 2634 0024 6CB3     		cbz	r4, .L407
 2635              	.LBE120:
 2636              	.LBE121:
 2637              		.loc 1 760 0
 2638 0026 94F800C0 		ldrb	ip, [r4, #0]	@ zero_extendqisi2
 2639 002a BCF1100F 		cmp	ip, #16
 2640 002e 2DD1     		bne	.L408
 2641              		.loc 1 769 0
 2642 0030 15F00802 		ands	r2, r5, #8
 2643              	.LVL298:
 2644 0034 1FD1     		bne	.L388
 2645              		.loc 1 769 0 is_stmt 0 discriminator 1
 2646 0036 237F     		ldrb	r3, [r4, #28]	@ zero_extendqisi2
 2647              	.LVL299:
 2648 0038 03F00203 		and	r3, r3, #2
 2649 003c DBB2     		uxtb	r3, r3
 2650 003e D3B9     		cbnz	r3, .L388
 2651              	.L389:
 2652              		.loc 1 777 0 is_stmt 1
 2653 0040 15F0100F 		tst	r5, #16
 2654 0044 0CBF     		ite	eq
 2655 0046 0123     		moveq	r3, #1
 2656 0048 0323     		movne	r3, #3
 2657 004a 002A     		cmp	r2, #0
 2658 004c 14BF     		ite	ne
 2659 004e 0425     		movne	r5, #4
ARM GAS  /tmp/ccPo84yg.s 			page 48


 2660 0050 0025     		moveq	r5, #0
 2661              	.LVL300:
 2662              		.loc 1 780 0
 2663 0052 2B43     		orrs	r3, r3, r5
 2664              	.LVL301:
 2665 0054 3246     		mov	r2, r6
 2666 0056 2046     		mov	r0, r4
 2667              	.LVL302:
 2668 0058 3946     		mov	r1, r7
 2669              	.LVL303:
 2670 005a FFF7FEFF 		bl	netconn_write
 2671              	.LVL304:
 2672              		.loc 1 783 0
 2673 005e 4342     		negs	r3, r0
 2674 0060 0F2B     		cmp	r3, #15
 2675 0062 9ABF     		itte	ls
 2676 0064 0C4A     		ldrls	r2, .L409
 2677 0066 52F82330 		ldrls	r3, [r2, r3, lsl #2]
 2678 006a 0523     		movhi	r3, #5
 2679 006c C8F81030 		str	r3, [r8, #16]
 2680              		.loc 1 784 0
 2681 0070 38B9     		cbnz	r0, .L407
 2682              		.loc 1 784 0 is_stmt 0 discriminator 1
 2683 0072 3046     		mov	r0, r6
 2684              	.LVL305:
 2685 0074 07E0     		b	.L404
 2686              	.LVL306:
 2687              	.L388:
 2688              		.loc 1 770 0 is_stmt 1
 2689 0076 B6F5807F 		cmp	r6, #256
 2690 007a E1D9     		bls	.L389
 2691              		.loc 1 772 0
 2692 007c 5A23     		movs	r3, #90
 2693 007e C8F81030 		str	r3, [r8, #16]
 2694              	.LVL307:
 2695              	.L407:
 2696              		.loc 1 773 0
 2697 0082 4FF0FF30 		mov	r0, #-1
 2698              	.L404:
 2699              		.loc 1 785 0
 2700 0086 02B0     		add	sp, sp, #8
 2701 0088 BDE8F081 		pop	{r4, r5, r6, r7, r8, pc}
 2702              	.LVL308:
 2703              	.L408:
 2704              		.loc 1 762 0
 2705 008c 0024     		movs	r4, #0
 2706 008e 0094     		str	r4, [sp, #0]
 2707 0090 0194     		str	r4, [sp, #4]
 2708 0092 FFF7FEFF 		bl	lwip_sendto
 2709              	.LVL309:
 2710 0096 F6E7     		b	.L404
 2711              	.L410:
 2712              		.align	2
 2713              	.L409:
 2714 0098 00000000 		.word	.LANCHOR1
 2715 009c 00000000 		.word	.LANCHOR0
 2716              		.cfi_endproc
ARM GAS  /tmp/ccPo84yg.s 			page 49


 2717              	.LFE20:
 2718              		.size	lwip_send, .-lwip_send
 2719              		.section	.text.lwip_socket,"ax",%progbits
 2720              		.align	2
 2721              		.p2align 4,,15
 2722              		.global	lwip_socket
 2723              		.thumb
 2724              		.thumb_func
 2725              		.type	lwip_socket, %function
 2726              	lwip_socket:
 2727              	.LFB22:
 2728              		.loc 1 936 0
 2729              		.cfi_startproc
 2730              		@ args = 0, pretend = 0, frame = 0
 2731              		@ frame_needed = 0, uses_anonymous_args = 0
 2732              	.LVL310:
 2733              		.loc 1 943 0
 2734 0000 0229     		cmp	r1, #2
 2735              		.loc 1 936 0
 2736 0002 38B5     		push	{r3, r4, r5, lr}
 2737              	.LCFI28:
 2738              		.cfi_def_cfa_offset 16
 2739              		.cfi_offset 3, -16
 2740              		.cfi_offset 4, -12
 2741              		.cfi_offset 5, -8
 2742              		.cfi_offset 14, -4
 2743              		.loc 1 943 0
 2744 0004 29D0     		beq	.L414
 2745 0006 0329     		cmp	r1, #3
 2746 0008 1ED0     		beq	.L415
 2747 000a 0129     		cmp	r1, #1
 2748 000c 03D0     		beq	.L428
 2749              	.LVL311:
 2750              	.L427:
 2751              		.loc 1 968 0
 2752 000e 4FF0FF34 		mov	r4, #-1
 2753              	.L412:
 2754              		.loc 1 988 0
 2755 0012 2046     		mov	r0, r4
 2756 0014 38BD     		pop	{r3, r4, r5, pc}
 2757              	.LVL312:
 2758              	.L428:
 2759              		.loc 1 956 0
 2760 0016 1020     		movs	r0, #16
 2761              	.LVL313:
 2762 0018 0021     		movs	r1, #0
 2763              	.LVL314:
 2764 001a 164A     		ldr	r2, .L429
 2765              	.LVL315:
 2766 001c FFF7FEFF 		bl	netconn_new_with_proto_and_callback
 2767              	.LVL316:
 2768              		.loc 1 959 0
 2769 0020 0546     		mov	r5, r0
 2770 0022 0028     		cmp	r0, #0
 2771 0024 F3D0     		beq	.L427
 2772              		.loc 1 961 0 discriminator 1
 2773 0026 037F     		ldrb	r3, [r0, #28]	@ zero_extendqisi2
ARM GAS  /tmp/ccPo84yg.s 			page 50


 2774 0028 43F00803 		orr	r3, r3, #8
 2775 002c 0377     		strb	r3, [r0, #28]
 2776              	.L419:
 2777              		.loc 1 977 0
 2778 002e 0021     		movs	r1, #0
 2779 0030 2846     		mov	r0, r5
 2780              	.LVL317:
 2781 0032 FFF7FEFF 		bl	alloc_socket
 2782              	.LVL318:
 2783              		.loc 1 979 0
 2784 0036 431C     		adds	r3, r0, #1
 2785              		.loc 1 977 0
 2786 0038 0446     		mov	r4, r0
 2787              	.LVL319:
 2788              		.loc 1 984 0
 2789 003a 18BF     		it	ne
 2790 003c A861     		strne	r0, [r5, #24]
 2791              		.loc 1 979 0
 2792 003e E8D1     		bne	.L412
 2793              		.loc 1 980 0
 2794 0040 2846     		mov	r0, r5
 2795              	.LVL320:
 2796 0042 FFF7FEFF 		bl	netconn_delete
 2797              	.LVL321:
 2798              		.loc 1 982 0
 2799 0046 E4E7     		b	.L412
 2800              	.LVL322:
 2801              	.L415:
 2802              		.loc 1 945 0
 2803 0048 D1B2     		uxtb	r1, r2
 2804              	.LVL323:
 2805 004a 4020     		movs	r0, #64
 2806              	.LVL324:
 2807 004c 094A     		ldr	r2, .L429
 2808              	.LVL325:
 2809 004e FFF7FEFF 		bl	netconn_new_with_proto_and_callback
 2810              	.LVL326:
 2811 0052 0546     		mov	r5, r0
 2812              	.LVL327:
 2813              		.loc 1 971 0
 2814 0054 002D     		cmp	r5, #0
 2815 0056 EAD1     		bne	.L419
 2816 0058 D9E7     		b	.L427
 2817              	.LVL328:
 2818              	.L414:
 2819              		.loc 1 950 0
 2820 005a 882A     		cmp	r2, #136
 2821 005c 14BF     		ite	ne
 2822 005e 2020     		movne	r0, #32
 2823 0060 2120     		moveq	r0, #33
 2824              	.LVL329:
 2825 0062 0021     		movs	r1, #0
 2826              	.LVL330:
 2827 0064 034A     		ldr	r2, .L429
 2828              	.LVL331:
 2829 0066 FFF7FEFF 		bl	netconn_new_with_proto_and_callback
 2830              	.LVL332:
ARM GAS  /tmp/ccPo84yg.s 			page 51


 2831 006a 0546     		mov	r5, r0
 2832              	.LVL333:
 2833              		.loc 1 971 0
 2834 006c 002D     		cmp	r5, #0
 2835 006e DED1     		bne	.L419
 2836 0070 CDE7     		b	.L427
 2837              	.L430:
 2838 0072 00BF     		.align	2
 2839              	.L429:
 2840 0074 00000000 		.word	event_callback
 2841              		.cfi_endproc
 2842              	.LFE22:
 2843              		.size	lwip_socket, .-lwip_socket
 2844 0078 AFF30080 		.section	.text.lwip_write,"ax",%progbits
 2844      AFF30080 
 2845              		.align	2
 2846              		.p2align 4,,15
 2847              		.global	lwip_write
 2848              		.thumb
 2849              		.thumb_func
 2850              		.type	lwip_write, %function
 2851              	lwip_write:
 2852              	.LFB23:
 2853              		.loc 1 992 0
 2854              		.cfi_startproc
 2855              		@ args = 0, pretend = 0, frame = 0
 2856              		@ frame_needed = 0, uses_anonymous_args = 0
 2857              		@ link register save eliminated.
 2858              	.LVL334:
 2859              		.loc 1 993 0
 2860 0000 0023     		movs	r3, #0
 2861              		.loc 1 994 0
 2862              		.loc 1 993 0
 2863 0002 FFF7FEBF 		b	lwip_send
 2864              	.LVL335:
 2865              		.cfi_endproc
 2866              	.LFE23:
 2867              		.size	lwip_write, .-lwip_write
 2868 0006 00BFAFF3 		.section	.text.lwip_select,"ax",%progbits
 2868      0080AFF3 
 2868      0080
 2869              		.align	2
 2870              		.p2align 4,,15
 2871              		.global	lwip_select
 2872              		.thumb
 2873              		.thumb_func
 2874              		.type	lwip_select, %function
 2875              	lwip_select:
 2876              	.LFB25:
 2877              		.loc 1 1077 0
 2878              		.cfi_startproc
 2879              		@ args = 4, pretend = 0, frame = 56
 2880              		@ frame_needed = 0, uses_anonymous_args = 0
 2881              	.LVL336:
 2882 0000 2DE9F04F 		push	{r4, r5, r6, r7, r8, r9, sl, fp, lr}
 2883              	.LCFI29:
 2884              		.cfi_def_cfa_offset 36
ARM GAS  /tmp/ccPo84yg.s 			page 52


 2885              		.cfi_offset 4, -36
 2886              		.cfi_offset 5, -32
 2887              		.cfi_offset 6, -28
 2888              		.cfi_offset 7, -24
 2889              		.cfi_offset 8, -20
 2890              		.cfi_offset 9, -16
 2891              		.cfi_offset 10, -12
 2892              		.cfi_offset 11, -8
 2893              		.cfi_offset 14, -4
 2894 0004 93B0     		sub	sp, sp, #76
 2895              	.LCFI30:
 2896              		.cfi_def_cfa_offset 112
 2897              		.loc 1 1094 0
 2898 0006 08AF     		add	r7, sp, #32
 2899 0008 09AE     		add	r6, sp, #36
 2900 000a 0AAC     		add	r4, sp, #40
 2901 000c 0097     		str	r7, [sp, #0]
 2902 000e 0196     		str	r6, [sp, #4]
 2903 0010 0294     		str	r4, [sp, #8]
 2904              		.loc 1 1077 0
 2905 0012 8346     		mov	fp, r0
 2906 0014 8846     		mov	r8, r1
 2907 0016 9146     		mov	r9, r2
 2908 0018 9A46     		mov	sl, r3
 2909              		.loc 1 1094 0
 2910 001a FFF7FEFF 		bl	lwip_selscan
 2911              	.LVL337:
 2912              		.loc 1 1097 0
 2913 001e 0546     		mov	r5, r0
 2914 0020 0028     		cmp	r0, #0
 2915 0022 40F0EE80 		bne	.L433
 2916              		.loc 1 1098 0
 2917 0026 1C9C     		ldr	r4, [sp, #112]
 2918 0028 2CB1     		cbz	r4, .L434
 2919              		.loc 1 1098 0 is_stmt 0 discriminator 1
 2920 002a 2268     		ldr	r2, [r4, #0]
 2921 002c 1AB9     		cbnz	r2, .L434
 2922 002e 6268     		ldr	r2, [r4, #4]
 2923 0030 002A     		cmp	r2, #0
 2924 0032 00F0E680 		beq	.L433
 2925              	.L434:
 2926              		.loc 1 1110 0 is_stmt 1
 2927 0036 0023     		movs	r3, #0
 2928              		.loc 1 1116 0
 2929 0038 0BAC     		add	r4, sp, #44
 2930 003a 11A8     		add	r0, sp, #68
 2931              	.LVL338:
 2932 003c 1946     		mov	r1, r3
 2933              		.loc 1 1110 0
 2934 003e 0B93     		str	r3, [sp, #44]
 2935              		.loc 1 1111 0
 2936 0040 0C93     		str	r3, [sp, #48]
 2937              		.loc 1 1112 0
 2938 0042 CDF83480 		str	r8, [sp, #52]
 2939              		.loc 1 1113 0
 2940 0046 CDF83890 		str	r9, [sp, #56]
 2941              		.loc 1 1114 0
ARM GAS  /tmp/ccPo84yg.s 			page 53


 2942 004a CDF83CA0 		str	sl, [sp, #60]
 2943              		.loc 1 1115 0
 2944 004e 1093     		str	r3, [sp, #64]
 2945              		.loc 1 1116 0
 2946 0050 0594     		str	r4, [sp, #20]
 2947 0052 FFF7FEFF 		bl	sys_sem_new
 2948              	.LVL339:
 2949              		.loc 1 1117 0
 2950 0056 0028     		cmp	r0, #0
 2951 0058 40F04981 		bne	.L468
 2952              		.loc 1 1127 0
 2953 005c 40F20002 		movw	r2, #:lower16:.LANCHOR2
 2954 0060 C0F20002 		movt	r2, #:upper16:.LANCHOR2
 2955 0064 1368     		ldr	r3, [r2, #0]
 2956 0066 0B93     		str	r3, [sp, #44]
 2957              		.loc 1 1128 0
 2958 0068 0BB1     		cbz	r3, .L436
 2959              		.loc 1 1129 0
 2960 006a 0BAC     		add	r4, sp, #44
 2961 006c 5C60     		str	r4, [r3, #4]
 2962              	.L436:
 2963              		.loc 1 1131 0
 2964 006e 40F20003 		movw	r3, #:lower16:.LANCHOR2
 2965              		.loc 1 1133 0
 2966 0072 40F20004 		movw	r4, #:lower16:.LANCHOR3
 2967              		.loc 1 1131 0
 2968 0076 C0F20003 		movt	r3, #:upper16:.LANCHOR2
 2969              		.loc 1 1133 0
 2970 007a C0F20004 		movt	r4, #:upper16:.LANCHOR3
 2971              		.loc 1 1131 0
 2972 007e 0BAA     		add	r2, sp, #44
 2973 0080 1A60     		str	r2, [r3, #0]
 2974              		.loc 1 1133 0
 2975 0082 2368     		ldr	r3, [r4, #0]
 2976 0084 0133     		adds	r3, r3, #1
 2977              		.loc 1 1139 0
 2978 0086 BBF1000F 		cmp	fp, #0
 2979              		.loc 1 1133 0
 2980 008a 2360     		str	r3, [r4, #0]
 2981              	.LVL340:
 2982              		.loc 1 1139 0
 2983 008c 25DD     		ble	.L447
 2984 008e 0024     		movs	r4, #0
 2985              	.LBB122:
 2986              	.LBB123:
 2987              	.LBB124:
 2988              		.loc 1 228 0
 2989 0090 984B     		ldr	r3, .L531
 2990              	.LBE124:
 2991              	.LBE123:
 2992              	.LBE122:
 2993              		.loc 1 1139 0
 2994 0092 2546     		mov	r5, r4
 2995              	.LVL341:
 2996              	.L437:
 2997              		.loc 1 1140 0
 2998 0094 B8F1000F 		cmp	r8, #0
ARM GAS  /tmp/ccPo84yg.s 			page 54


 2999 0098 00F0CC80 		beq	.L440
 3000              		.loc 1 1140 0 is_stmt 0 discriminator 1
 3001 009c E910     		asrs	r1, r5, #3
 3002 009e 05F00702 		and	r2, r5, #7
 3003 00a2 18F80110 		ldrb	r1, [r8, r1]	@ zero_extendqisi2
 3004 00a6 41FA02F2 		asr	r2, r1, r2
 3005 00aa D007     		lsls	r0, r2, #31
 3006 00ac 40F1C280 		bpl	.L440
 3007              	.L441:
 3008              	.LVL342:
 3009              	.LBB129:
 3010              	.LBB127:
 3011              	.LBB125:
 3012              		.loc 1 225 0 is_stmt 1
 3013 00b0 032D     		cmp	r5, #3
 3014 00b2 00F2DD80 		bhi	.L446
 3015              	.L529:
 3016              		.loc 1 228 0
 3017 00b6 E258     		ldr	r2, [r4, r3]
 3018 00b8 002A     		cmp	r2, #0
 3019 00ba 00F0D980 		beq	.L446
 3020              		.loc 1 231 0
 3021 00be 05EB4502 		add	r2, r5, r5, lsl #1
 3022 00c2 03EBC202 		add	r2, r3, r2, lsl #3
 3023              	.LBE125:
 3024              	.LBE127:
 3025              		.loc 1 1146 0
 3026 00c6 5169     		ldr	r1, [r2, #20]
 3027 00c8 0131     		adds	r1, r1, #1
 3028              		.loc 1 1147 0
 3029 00ca 0029     		cmp	r1, #0
 3030              		.loc 1 1146 0
 3031 00cc 5161     		str	r1, [r2, #20]
 3032              		.loc 1 1147 0
 3033 00ce 40F3DA80 		ble	.L524
 3034              	.LVL343:
 3035              	.L444:
 3036              	.LBE129:
 3037              		.loc 1 1139 0
 3038 00d2 0135     		adds	r5, r5, #1
 3039              	.LVL344:
 3040 00d4 1834     		adds	r4, r4, #24
 3041 00d6 5D45     		cmp	r5, fp
 3042 00d8 DCD1     		bne	.L437
 3043              	.LVL345:
 3044              	.L447:
 3045              		.loc 1 1154 0
 3046 00da 0AAA     		add	r2, sp, #40
 3047 00dc 0292     		str	r2, [sp, #8]
 3048 00de 0097     		str	r7, [sp, #0]
 3049 00e0 0196     		str	r6, [sp, #4]
 3050 00e2 5846     		mov	r0, fp
 3051 00e4 4146     		mov	r1, r8
 3052 00e6 4A46     		mov	r2, r9
 3053 00e8 5346     		mov	r3, sl
 3054 00ea FFF7FEFF 		bl	lwip_selscan
 3055              	.LVL346:
ARM GAS  /tmp/ccPo84yg.s 			page 55


 3056              		.loc 1 1155 0
 3057 00ee 0546     		mov	r5, r0
 3058 00f0 D8B9     		cbnz	r0, .L525
 3059              		.loc 1 1157 0
 3060 00f2 1C9C     		ldr	r4, [sp, #112]
 3061              		.loc 1 1159 0
 3062 00f4 0146     		mov	r1, r0
 3063              		.loc 1 1157 0
 3064 00f6 9CB1     		cbz	r4, .L448
 3065              		.loc 1 1161 0
 3066 00f8 6268     		ldr	r2, [r4, #4]
 3067 00fa 2468     		ldr	r4, [r4, #0]
 3068 00fc 44F6D350 		movw	r0, #19923
 3069              	.LVL347:
 3070 0100 02F5FA72 		add	r2, r2, #500
 3071 0104 C1F26200 		movt	r0, 4194
 3072 0108 80FB0230 		smull	r3, r0, r0, r2
 3073 010c D217     		asrs	r2, r2, #31
 3074 010e C2EBA012 		rsb	r2, r2, r0, asr #6
 3075 0112 4FF47A71 		mov	r1, #1000
 3076              	.LVL348:
 3077 0116 01FB0421 		mla	r1, r1, r4, r2
 3078              	.LVL349:
 3079              		.loc 1 1164 0
 3080 011a 0029     		cmp	r1, #0
 3081 011c 08BF     		it	eq
 3082 011e 0121     		moveq	r1, #1
 3083              	.LVL350:
 3084              	.L448:
 3085              		.loc 1 1168 0
 3086 0120 11A8     		add	r0, sp, #68
 3087 0122 FFF7FEFF 		bl	sys_arch_sem_wait
 3088              	.LVL351:
 3089 0126 0690     		str	r0, [sp, #24]
 3090              	.LVL352:
 3091 0128 01E0     		b	.L439
 3092              	.LVL353:
 3093              	.L525:
 3094              		.loc 1 1078 0
 3095 012a 0023     		movs	r3, #0
 3096 012c 0693     		str	r3, [sp, #24]
 3097              	.LVL354:
 3098              	.L439:
 3099              		.loc 1 1171 0
 3100 012e BBF1000F 		cmp	fp, #0
 3101 0132 3CDD     		ble	.L459
 3102 0134 0022     		movs	r2, #0
 3103 0136 4B46     		mov	r3, r9
 3104              	.LBB130:
 3105              	.LBB131:
 3106              	.LBB132:
 3107              		.loc 1 228 0
 3108 0138 6E48     		ldr	r0, .L531
 3109              	.LBE132:
 3110              	.LBE131:
 3111              	.LBE130:
 3112              		.loc 1 1171 0
ARM GAS  /tmp/ccPo84yg.s 			page 56


 3113 013a 0795     		str	r5, [sp, #28]
 3114 013c C146     		mov	r9, r8
 3115              	.LVL355:
 3116 013e 1446     		mov	r4, r2
 3117 0140 D846     		mov	r8, fp
 3118              	.LVL356:
 3119 0142 1546     		mov	r5, r2
 3120              	.LVL357:
 3121 0144 9B46     		mov	fp, r3
 3122              	.LVL358:
 3123              	.L449:
 3124              		.loc 1 1172 0
 3125 0146 B9F1000F 		cmp	r9, #0
 3126 014a 08D0     		beq	.L452
 3127              		.loc 1 1172 0 is_stmt 0 discriminator 1
 3128 014c E210     		asrs	r2, r4, #3
 3129 014e 04F00703 		and	r3, r4, #7
 3130 0152 19F80220 		ldrb	r2, [r9, r2]	@ zero_extendqisi2
 3131 0156 42FA03F3 		asr	r3, r2, r3
 3132 015a DB07     		lsls	r3, r3, #31
 3133 015c 0DD4     		bmi	.L453
 3134              	.L452:
 3135              		.loc 1 1172 0 discriminator 2
 3136 015e BBF1000F 		cmp	fp, #0
 3137 0162 00F09580 		beq	.L454
 3138              		.loc 1 1173 0 is_stmt 1
 3139 0166 E210     		asrs	r2, r4, #3
 3140 0168 04F00703 		and	r3, r4, #7
 3141 016c 1BF80220 		ldrb	r2, [fp, r2]	@ zero_extendqisi2
 3142 0170 42FA03F3 		asr	r3, r2, r3
 3143 0174 D907     		lsls	r1, r3, #31
 3144 0176 40F18B80 		bpl	.L454
 3145              	.L453:
 3146              	.LVL359:
 3147              	.LBB137:
 3148              	.LBB135:
 3149              	.LBB133:
 3150              		.loc 1 225 0
 3151 017a 032C     		cmp	r4, #3
 3152 017c 00F29880 		bhi	.L458
 3153              	.L530:
 3154              		.loc 1 228 0
 3155 0180 2B58     		ldr	r3, [r5, r0]
 3156 0182 002B     		cmp	r3, #0
 3157 0184 00F09480 		beq	.L458
 3158              		.loc 1 231 0
 3159 0188 04EB4403 		add	r3, r4, r4, lsl #1
 3160 018c 00EBC303 		add	r3, r0, r3, lsl #3
 3161              	.LBE133:
 3162              	.LBE135:
 3163              		.loc 1 1178 0
 3164 0190 5A69     		ldr	r2, [r3, #20]
 3165 0192 013A     		subs	r2, r2, #1
 3166              		.loc 1 1179 0
 3167 0194 002A     		cmp	r2, #0
 3168              		.loc 1 1178 0
 3169 0196 5A61     		str	r2, [r3, #20]
ARM GAS  /tmp/ccPo84yg.s 			page 57


 3170              		.loc 1 1179 0
 3171 0198 C0F29580 		blt	.L526
 3172              	.LVL360:
 3173              	.L456:
 3174              	.LBE137:
 3175              		.loc 1 1171 0
 3176 019c 0134     		adds	r4, r4, #1
 3177              	.LVL361:
 3178 019e 1835     		adds	r5, r5, #24
 3179 01a0 4445     		cmp	r4, r8
 3180 01a2 D0D1     		bne	.L449
 3181 01a4 5B46     		mov	r3, fp
 3182 01a6 079D     		ldr	r5, [sp, #28]
 3183 01a8 C346     		mov	fp, r8
 3184              	.LVL362:
 3185 01aa C846     		mov	r8, r9
 3186              	.LVL363:
 3187 01ac 9946     		mov	r9, r3
 3188              	.LVL364:
 3189              	.L459:
 3190              		.loc 1 1185 0
 3191 01ae 0B9A     		ldr	r2, [sp, #44]
 3192 01b0 0AB1     		cbz	r2, .L451
 3193              		.loc 1 1186 0
 3194 01b2 0C99     		ldr	r1, [sp, #48]
 3195 01b4 5160     		str	r1, [r2, #4]
 3196              	.L451:
 3197              		.loc 1 1188 0
 3198 01b6 40F20004 		movw	r4, #:lower16:.LANCHOR2
 3199 01ba C0F20004 		movt	r4, #:upper16:.LANCHOR2
 3200 01be 2168     		ldr	r1, [r4, #0]
 3201 01c0 059C     		ldr	r4, [sp, #20]
 3202 01c2 A142     		cmp	r1, r4
 3203              		.loc 1 1189 0
 3204 01c4 0C99     		ldr	r1, [sp, #48]
 3205              		.loc 1 1188 0
 3206 01c6 00F08380 		beq	.L527
 3207              		.loc 1 1192 0
 3208 01ca 0029     		cmp	r1, #0
 3209 01cc 00F08A80 		beq	.L528
 3210              	.L463:
 3211              		.loc 1 1193 0
 3212 01d0 0A60     		str	r2, [r1, #0]
 3213              	.L462:
 3214              		.loc 1 1196 0
 3215 01d2 40F20004 		movw	r4, #:lower16:.LANCHOR3
 3216 01d6 C0F20004 		movt	r4, #:upper16:.LANCHOR3
 3217              		.loc 1 1199 0
 3218 01da 11A8     		add	r0, sp, #68
 3219              		.loc 1 1196 0
 3220 01dc 2268     		ldr	r2, [r4, #0]
 3221 01de 0132     		adds	r2, r2, #1
 3222 01e0 2260     		str	r2, [r4, #0]
 3223              		.loc 1 1199 0
 3224 01e2 FFF7FEFF 		bl	sys_sem_free
 3225              	.LVL365:
 3226              		.loc 1 1200 0
ARM GAS  /tmp/ccPo84yg.s 			page 58


 3227 01e6 069A     		ldr	r2, [sp, #24]
 3228 01e8 0132     		adds	r2, r2, #1
 3229 01ea 0AD0     		beq	.L433
 3230              		.loc 1 1209 0
 3231 01ec 0AAB     		add	r3, sp, #40
 3232 01ee 0293     		str	r3, [sp, #8]
 3233 01f0 0097     		str	r7, [sp, #0]
 3234 01f2 0196     		str	r6, [sp, #4]
 3235 01f4 5846     		mov	r0, fp
 3236 01f6 4146     		mov	r1, r8
 3237 01f8 4A46     		mov	r2, r9
 3238 01fa 5346     		mov	r3, sl
 3239 01fc FFF7FEFF 		bl	lwip_selscan
 3240              	.LVL366:
 3241 0200 0546     		mov	r5, r0
 3242              	.LVL367:
 3243              	.L433:
 3244              		.loc 1 1215 0
 3245 0202 B8F1000F 		cmp	r8, #0
 3246 0206 03D0     		beq	.L464
 3247              		.loc 1 1216 0
 3248 0208 9DF82020 		ldrb	r2, [sp, #32]	@ zero_extendqisi2
 3249 020c 88F80020 		strb	r2, [r8, #0]
 3250              	.L464:
 3251              		.loc 1 1218 0
 3252 0210 B9F1000F 		cmp	r9, #0
 3253 0214 03D0     		beq	.L465
 3254              		.loc 1 1219 0
 3255 0216 9DF82420 		ldrb	r2, [sp, #36]	@ zero_extendqisi2
 3256 021a 89F80020 		strb	r2, [r9, #0]
 3257              	.L465:
 3258              		.loc 1 1221 0
 3259 021e BAF1000F 		cmp	sl, #0
 3260 0222 03D0     		beq	.L489
 3261              		.loc 1 1222 0
 3262 0224 9DF82820 		ldrb	r2, [sp, #40]	@ zero_extendqisi2
 3263 0228 8AF80020 		strb	r2, [sl, #0]
 3264              	.LVL368:
 3265              	.L489:
 3266              		.loc 1 1227 0
 3267 022c 2846     		mov	r0, r5
 3268 022e 13B0     		add	sp, sp, #76
 3269 0230 BDE8F08F 		pop	{r4, r5, r6, r7, r8, r9, sl, fp, pc}
 3270              	.LVL369:
 3271              	.L440:
 3272              		.loc 1 1140 0 discriminator 2
 3273 0234 B9F1000F 		cmp	r9, #0
 3274 0238 09D0     		beq	.L442
 3275              		.loc 1 1141 0
 3276 023a E910     		asrs	r1, r5, #3
 3277 023c 05F00702 		and	r2, r5, #7
 3278 0240 19F80110 		ldrb	r1, [r9, r1]	@ zero_extendqisi2
 3279 0244 41FA02F2 		asr	r2, r1, r2
 3280 0248 D107     		lsls	r1, r2, #31
 3281 024a 3FF531AF 		bmi	.L441
 3282              	.L442:
 3283              		.loc 1 1141 0 is_stmt 0 discriminator 1
ARM GAS  /tmp/ccPo84yg.s 			page 59


 3284 024e BAF1000F 		cmp	sl, #0
 3285 0252 3FF43EAF 		beq	.L444
 3286              		.loc 1 1142 0 is_stmt 1
 3287 0256 E910     		asrs	r1, r5, #3
 3288 0258 05F00702 		and	r2, r5, #7
 3289 025c 1AF80110 		ldrb	r1, [sl, r1]	@ zero_extendqisi2
 3290 0260 41FA02F2 		asr	r2, r1, r2
 3291 0264 D207     		lsls	r2, r2, #31
 3292 0266 7FF534AF 		bpl	.L444
 3293              	.LVL370:
 3294              	.LBB138:
 3295              	.LBB128:
 3296              	.LBB126:
 3297              		.loc 1 225 0
 3298 026a 032D     		cmp	r5, #3
 3299 026c 7FF623AF 		bls	.L529
 3300              	.L446:
 3301              	.LBE126:
 3302              	.LBE128:
 3303              		.loc 1 1144 0
 3304 0270 0493     		str	r3, [sp, #16]
 3305 0272 FFF7FEFF 		bl	port_halt
 3306              	.LVL371:
 3307 0276 0022     		movs	r2, #0
 3308 0278 049B     		ldr	r3, [sp, #16]
 3309              		.loc 1 1146 0
 3310 027a 5169     		ldr	r1, [r2, #20]
 3311 027c 0131     		adds	r1, r1, #1
 3312              		.loc 1 1147 0
 3313 027e 0029     		cmp	r1, #0
 3314              		.loc 1 1146 0
 3315 0280 5161     		str	r1, [r2, #20]
 3316              		.loc 1 1147 0
 3317 0282 3FF726AF 		bgt	.L444
 3318              	.L524:
 3319              		.loc 1 1147 0 is_stmt 0 discriminator 1
 3320 0286 0493     		str	r3, [sp, #16]
 3321 0288 FFF7FEFF 		bl	port_halt
 3322              	.LVL372:
 3323 028c 049B     		ldr	r3, [sp, #16]
 3324 028e 20E7     		b	.L444
 3325              	.LVL373:
 3326              	.L454:
 3327              	.LBE138:
 3328              		.loc 1 1173 0 is_stmt 1 discriminator 1
 3329 0290 BAF1000F 		cmp	sl, #0
 3330 0294 82D0     		beq	.L456
 3331              		.loc 1 1174 0
 3332 0296 E210     		asrs	r2, r4, #3
 3333 0298 04F00703 		and	r3, r4, #7
 3334 029c 1AF80220 		ldrb	r2, [sl, r2]	@ zero_extendqisi2
 3335 02a0 42FA03F3 		asr	r3, r2, r3
 3336 02a4 DA07     		lsls	r2, r3, #31
 3337 02a6 7FF579AF 		bpl	.L456
 3338              	.LVL374:
 3339              	.LBB139:
 3340              	.LBB136:
ARM GAS  /tmp/ccPo84yg.s 			page 60


 3341              	.LBB134:
 3342              		.loc 1 225 0
 3343 02aa 032C     		cmp	r4, #3
 3344 02ac 7FF668AF 		bls	.L530
 3345              	.L458:
 3346              	.LBE134:
 3347              	.LBE136:
 3348              		.loc 1 1176 0
 3349 02b0 0490     		str	r0, [sp, #16]
 3350 02b2 FFF7FEFF 		bl	port_halt
 3351              	.LVL375:
 3352 02b6 0023     		movs	r3, #0
 3353 02b8 0498     		ldr	r0, [sp, #16]
 3354              		.loc 1 1178 0
 3355 02ba 5A69     		ldr	r2, [r3, #20]
 3356 02bc 013A     		subs	r2, r2, #1
 3357              		.loc 1 1179 0
 3358 02be 002A     		cmp	r2, #0
 3359              		.loc 1 1178 0
 3360 02c0 5A61     		str	r2, [r3, #20]
 3361              		.loc 1 1179 0
 3362 02c2 BFF66BAF 		bge	.L456
 3363              	.L526:
 3364              		.loc 1 1179 0 is_stmt 0 discriminator 1
 3365 02c6 0490     		str	r0, [sp, #16]
 3366 02c8 FFF7FEFF 		bl	port_halt
 3367              	.LVL376:
 3368 02cc 0498     		ldr	r0, [sp, #16]
 3369 02ce 65E7     		b	.L456
 3370              	.LVL377:
 3371              	.L527:
 3372              	.LBE139:
 3373              		.loc 1 1189 0 is_stmt 1
 3374 02d0 11B1     		cbz	r1, .L461
 3375              		.loc 1 1189 0 is_stmt 0 discriminator 1
 3376 02d2 FFF7FEFF 		bl	port_halt
 3377              	.LVL378:
 3378 02d6 0B9A     		ldr	r2, [sp, #44]
 3379              	.L461:
 3380              		.loc 1 1190 0 is_stmt 1
 3381 02d8 40F20003 		movw	r3, #:lower16:.LANCHOR2
 3382 02dc C0F20003 		movt	r3, #:upper16:.LANCHOR2
 3383 02e0 1A60     		str	r2, [r3, #0]
 3384 02e2 76E7     		b	.L462
 3385              	.L528:
 3386              		.loc 1 1192 0 discriminator 1
 3387 02e4 FFF7FEFF 		bl	port_halt
 3388              	.LVL379:
 3389 02e8 0C99     		ldr	r1, [sp, #48]
 3390 02ea 0B9A     		ldr	r2, [sp, #44]
 3391 02ec 70E7     		b	.L463
 3392              	.LVL380:
 3393              	.L468:
 3394              		.loc 1 1120 0
 3395 02ee 4FF0FF35 		mov	r5, #-1
 3396              	.LVL381:
 3397 02f2 9BE7     		b	.L489
ARM GAS  /tmp/ccPo84yg.s 			page 61


 3398              	.L532:
 3399              		.align	2
 3400              	.L531:
 3401 02f4 00000000 		.word	.LANCHOR0
 3402              		.cfi_endproc
 3403              	.LFE25:
 3404              		.size	lwip_select, .-lwip_select
 3405 02f8 AFF30080 		.section	.text.lwip_shutdown,"ax",%progbits
 3405      AFF30080 
 3406              		.align	2
 3407              		.p2align 4,,15
 3408              		.global	lwip_shutdown
 3409              		.thumb
 3410              		.thumb_func
 3411              		.type	lwip_shutdown, %function
 3412              	lwip_shutdown:
 3413              	.LFB27:
 3414              		.loc 1 1355 0
 3415              		.cfi_startproc
 3416              		@ args = 0, pretend = 0, frame = 0
 3417              		@ frame_needed = 0, uses_anonymous_args = 0
 3418              	.LVL382:
 3419              	.LBB140:
 3420              	.LBB141:
 3421              		.loc 1 199 0
 3422 0000 0328     		cmp	r0, #3
 3423              	.LBE141:
 3424              	.LBE140:
 3425              		.loc 1 1355 0
 3426 0002 10B5     		push	{r4, lr}
 3427              	.LCFI31:
 3428              		.cfi_def_cfa_offset 8
 3429              		.cfi_offset 4, -8
 3430              		.cfi_offset 14, -4
 3431              	.LBB144:
 3432              	.LBB142:
 3433              		.loc 1 199 0
 3434 0004 0CD8     		bhi	.L541
 3435              		.loc 1 205 0
 3436 0006 00EB4000 		add	r0, r0, r0, lsl #1
 3437              	.LVL383:
 3438 000a 174B     		ldr	r3, .L551
 3439 000c C000     		lsls	r0, r0, #3
 3440 000e 1C18     		adds	r4, r3, r0
 3441              	.LVL384:
 3442              		.loc 1 207 0
 3443 0010 1858     		ldr	r0, [r3, r0]
 3444 0012 28B1     		cbz	r0, .L541
 3445              	.LBE142:
 3446              	.LBE144:
 3447              		.loc 1 1368 0
 3448 0014 0378     		ldrb	r3, [r0, #0]	@ zero_extendqisi2
 3449 0016 102B     		cmp	r3, #16
 3450 0018 05D0     		beq	.L550
 3451              		.loc 1 1369 0
 3452 001a 5F20     		movs	r0, #95
 3453 001c 2061     		str	r0, [r4, #16]
ARM GAS  /tmp/ccPo84yg.s 			page 62


 3454              		.loc 1 1370 0
 3455 001e 10BD     		pop	{r4, pc}
 3456              	.LVL385:
 3457              	.L541:
 3458              	.LBB145:
 3459              	.LBB143:
 3460              		.loc 1 1364 0
 3461 0020 4FF0FF30 		mov	r0, #-1
 3462 0024 10BD     		pop	{r4, pc}
 3463              	.LVL386:
 3464              	.L550:
 3465              	.LBE143:
 3466              	.LBE145:
 3467              		.loc 1 1377 0
 3468 0026 31B1     		cbz	r1, .L542
 3469              		.loc 1 1379 0
 3470 0028 0129     		cmp	r1, #1
 3471 002a 16D0     		beq	.L543
 3472              		.loc 1 1381 0
 3473 002c 0229     		cmp	r1, #2
 3474 002e 17D0     		beq	.L544
 3475              		.loc 1 1385 0
 3476 0030 1620     		movs	r0, #22
 3477 0032 2061     		str	r0, [r4, #16]
 3478              		.loc 1 1386 0
 3479 0034 10BD     		pop	{r4, pc}
 3480              	.L542:
 3481              		.loc 1 1358 0
 3482 0036 0A46     		mov	r2, r1
 3483              		.loc 1 1378 0
 3484 0038 0121     		movs	r1, #1
 3485              	.LVL387:
 3486              	.L536:
 3487              		.loc 1 1388 0
 3488 003a FFF7FEFF 		bl	netconn_shutdown
 3489              	.LVL388:
 3490              		.loc 1 1390 0
 3491 003e 4342     		negs	r3, r0
 3492 0040 0F2B     		cmp	r3, #15
 3493 0042 9ABF     		itte	ls
 3494 0044 094A     		ldrls	r2, .L551+4
 3495 0046 52F82330 		ldrls	r3, [r2, r3, lsl #2]
 3496 004a 0523     		movhi	r3, #5
 3497 004c 2361     		str	r3, [r4, #16]
 3498              		.loc 1 1391 0
 3499 004e 0028     		cmp	r0, #0
 3500 0050 14BF     		ite	ne
 3501 0052 4FF0FF30 		movne	r0, #-1
 3502 0056 0020     		moveq	r0, #0
 3503              	.LVL389:
 3504 0058 10BD     		pop	{r4, pc}
 3505              	.LVL390:
 3506              	.L543:
 3507              		.loc 1 1380 0
 3508 005a 0A46     		mov	r2, r1
 3509              		.loc 1 1358 0
 3510 005c 0021     		movs	r1, #0
ARM GAS  /tmp/ccPo84yg.s 			page 63


 3511              	.LVL391:
 3512 005e ECE7     		b	.L536
 3513              	.LVL392:
 3514              	.L544:
 3515              		.loc 1 1383 0
 3516 0060 0122     		movs	r2, #1
 3517              		.loc 1 1382 0
 3518 0062 1146     		mov	r1, r2
 3519              	.LVL393:
 3520 0064 E9E7     		b	.L536
 3521              	.L552:
 3522 0066 00BF     		.align	2
 3523              	.L551:
 3524 0068 00000000 		.word	.LANCHOR0
 3525 006c 00000000 		.word	.LANCHOR1
 3526              		.cfi_endproc
 3527              	.LFE27:
 3528              		.size	lwip_shutdown, .-lwip_shutdown
 3529              		.section	.text.lwip_getpeername,"ax",%progbits
 3530              		.align	2
 3531              		.p2align 4,,15
 3532              		.global	lwip_getpeername
 3533              		.thumb
 3534              		.thumb_func
 3535              		.type	lwip_getpeername, %function
 3536              	lwip_getpeername:
 3537              	.LFB29:
 3538              		.loc 1 1431 0
 3539              		.cfi_startproc
 3540              		@ args = 0, pretend = 0, frame = 0
 3541              		@ frame_needed = 0, uses_anonymous_args = 0
 3542              		@ link register save eliminated.
 3543              	.LVL394:
 3544              		.loc 1 1432 0
 3545 0000 0023     		movs	r3, #0
 3546              		.loc 1 1433 0
 3547              		.loc 1 1432 0
 3548 0002 FFF7FEBF 		b	lwip_getaddrname
 3549              	.LVL395:
 3550              		.cfi_endproc
 3551              	.LFE29:
 3552              		.size	lwip_getpeername, .-lwip_getpeername
 3553 0006 00BFAFF3 		.section	.text.lwip_getsockname,"ax",%progbits
 3553      0080AFF3 
 3553      0080
 3554              		.align	2
 3555              		.p2align 4,,15
 3556              		.global	lwip_getsockname
 3557              		.thumb
 3558              		.thumb_func
 3559              		.type	lwip_getsockname, %function
 3560              	lwip_getsockname:
 3561              	.LFB30:
 3562              		.loc 1 1437 0
 3563              		.cfi_startproc
 3564              		@ args = 0, pretend = 0, frame = 0
 3565              		@ frame_needed = 0, uses_anonymous_args = 0
ARM GAS  /tmp/ccPo84yg.s 			page 64


 3566              		@ link register save eliminated.
 3567              	.LVL396:
 3568              		.loc 1 1438 0
 3569 0000 0123     		movs	r3, #1
 3570              		.loc 1 1439 0
 3571              		.loc 1 1438 0
 3572 0002 FFF7FEBF 		b	lwip_getaddrname
 3573              	.LVL397:
 3574              		.cfi_endproc
 3575              	.LFE30:
 3576              		.size	lwip_getsockname, .-lwip_getsockname
 3577 0006 00BFAFF3 		.section	.text.lwip_getsockopt,"ax",%progbits
 3577      0080AFF3 
 3577      0080
 3578              		.align	2
 3579              		.p2align 4,,15
 3580              		.global	lwip_getsockopt
 3581              		.thumb
 3582              		.thumb_func
 3583              		.type	lwip_getsockopt, %function
 3584              	lwip_getsockopt:
 3585              	.LFB31:
 3586              		.loc 1 1443 0
 3587              		.cfi_startproc
 3588              		@ args = 4, pretend = 0, frame = 24
 3589              		@ frame_needed = 0, uses_anonymous_args = 0
 3590              	.LVL398:
 3591 0000 2DE9F041 		push	{r4, r5, r6, r7, r8, lr}
 3592              	.LCFI32:
 3593              		.cfi_def_cfa_offset 24
 3594              		.cfi_offset 4, -24
 3595              		.cfi_offset 5, -20
 3596              		.cfi_offset 6, -16
 3597              		.cfi_offset 7, -12
 3598              		.cfi_offset 8, -8
 3599              		.cfi_offset 14, -4
 3600 0004 86B0     		sub	sp, sp, #24
 3601              	.LCFI33:
 3602              		.cfi_def_cfa_offset 48
 3603              	.LBB146:
 3604              	.LBB147:
 3605              		.loc 1 199 0
 3606 0006 0328     		cmp	r0, #3
 3607              	.LBE147:
 3608              	.LBE146:
 3609              		.loc 1 1443 0
 3610 0008 0C46     		mov	r4, r1
 3611 000a 1746     		mov	r7, r2
 3612 000c 0C9D     		ldr	r5, [sp, #48]
 3613              	.LBB149:
 3614              	.LBB148:
 3615              		.loc 1 199 0
 3616 000e 19D8     		bhi	.L604
 3617              		.loc 1 205 0
 3618 0010 00EB4000 		add	r0, r0, r0, lsl #1
 3619              	.LVL399:
 3620 0014 384A     		ldr	r2, .L609
ARM GAS  /tmp/ccPo84yg.s 			page 65


 3621              	.LVL400:
 3622 0016 C000     		lsls	r0, r0, #3
 3623 0018 1618     		adds	r6, r2, r0
 3624              	.LVL401:
 3625              		.loc 1 207 0
 3626 001a 1158     		ldr	r1, [r2, r0]
 3627              	.LVL402:
 3628 001c 91B1     		cbz	r1, .L604
 3629              	.LBE148:
 3630              	.LBE149:
 3631              		.loc 1 1452 0
 3632 001e 002B     		cmp	r3, #0
 3633 0020 18BF     		it	ne
 3634 0022 002D     		cmpne	r5, #0
 3635 0024 14BF     		ite	ne
 3636 0026 0020     		movne	r0, #0
 3637 0028 0120     		moveq	r0, #1
 3638 002a 5FD0     		beq	.L606
 3639              		.loc 1 1458 0
 3640 002c 062C     		cmp	r4, #6
 3641 002e 32D0     		beq	.L562
 3642 0030 40F6FF72 		movw	r2, #4095
 3643 0034 9442     		cmp	r4, r2
 3644 0036 0AD0     		beq	.L563
 3645 0038 14B9     		cbnz	r4, .L580
 3646              		.loc 1 1515 0
 3647 003a 7A1E     		subs	r2, r7, #1
 3648 003c 012A     		cmp	r2, #1
 3649 003e 0DD9     		bls	.L605
 3650              	.L580:
 3651 0040 5C23     		movs	r3, #92
 3652              	.LVL403:
 3653              	.L573:
 3654              		.loc 1 1616 0
 3655 0042 3361     		str	r3, [r6, #16]
 3656              	.LVL404:
 3657              	.L604:
 3658              		.loc 1 1617 0
 3659 0044 4FF0FF30 		mov	r0, #-1
 3660              	.L599:
 3661              		.loc 1 1637 0
 3662 0048 06B0     		add	sp, sp, #24
 3663 004a BDE8F081 		pop	{r4, r5, r6, r7, r8, pc}
 3664              	.LVL405:
 3665              	.L563:
 3666              		.loc 1 1462 0
 3667 004e 202F     		cmp	r7, #32
 3668 0050 04D0     		beq	.L605
 3669 0052 2CDC     		bgt	.L566
 3670 0054 022F     		cmp	r7, #2
 3671 0056 01D0     		beq	.L605
 3672 0058 082F     		cmp	r7, #8
 3673 005a F1D1     		bne	.L580
 3674              	.L605:
 3675              		.loc 1 1521 0
 3676 005c 2A68     		ldr	r2, [r5, #0]
 3677 005e 032A     		cmp	r2, #3
ARM GAS  /tmp/ccPo84yg.s 			page 66


 3678 0060 1CD9     		bls	.L582
 3679              	.LVL406:
 3680              	.L567:
 3681              		.loc 1 1629 0
 3682 0062 4FF00008 		mov	r8, #0
 3683              		.loc 1 1630 0
 3684 0066 6946     		mov	r1, sp
 3685 0068 0122     		movs	r2, #1
 3686 006a 2448     		ldr	r0, .L609+4
 3687              		.loc 1 1627 0
 3688 006c 0393     		str	r3, [sp, #12]
 3689              		.loc 1 1621 0
 3690 006e 0096     		str	r6, [sp, #0]
 3691              		.loc 1 1625 0
 3692 0070 0194     		str	r4, [sp, #4]
 3693              		.loc 1 1626 0
 3694 0072 0297     		str	r7, [sp, #8]
 3695              		.loc 1 1628 0
 3696 0074 0495     		str	r5, [sp, #16]
 3697              		.loc 1 1629 0
 3698 0076 8DF81480 		strb	r8, [sp, #20]
 3699              		.loc 1 1630 0
 3700 007a FFF7FEFF 		bl	tcpip_callback_with_block
 3701              	.LVL407:
 3702              		.loc 1 1631 0
 3703 007e 3068     		ldr	r0, [r6, #0]
 3704 0080 4146     		mov	r1, r8
 3705 0082 0C30     		adds	r0, r0, #12
 3706 0084 FFF7FEFF 		bl	sys_arch_sem_wait
 3707              	.LVL408:
 3708              		.loc 1 1633 0
 3709 0088 9DF81400 		ldrb	r0, [sp, #20]	@ zero_extendqisi2
 3710              	.LVL409:
 3711              		.loc 1 1635 0
 3712 008c 43B2     		sxtb	r3, r0
 3713 008e 3361     		str	r3, [r6, #16]
 3714              		.loc 1 1636 0
 3715 0090 0028     		cmp	r0, #0
 3716 0092 D7D1     		bne	.L604
 3717 0094 D8E7     		b	.L599
 3718              	.LVL410:
 3719              	.L562:
 3720              		.loc 1 1556 0
 3721 0096 2A68     		ldr	r2, [r5, #0]
 3722 0098 032A     		cmp	r2, #3
 3723 009a 01D8     		bhi	.L607
 3724              	.L582:
 3725 009c 1623     		movs	r3, #22
 3726              	.LVL411:
 3727 009e D0E7     		b	.L573
 3728              	.LVL412:
 3729              	.L607:
 3730              		.loc 1 1562 0
 3731 00a0 0A78     		ldrb	r2, [r1, #0]	@ zero_extendqisi2
 3732 00a2 102A     		cmp	r2, #16
 3733 00a4 D0D1     		bne	.L599
 3734 00a6 7A1E     		subs	r2, r7, #1
ARM GAS  /tmp/ccPo84yg.s 			page 67


 3735 00a8 012A     		cmp	r2, #1
 3736 00aa C9D8     		bhi	.L580
 3737 00ac D9E7     		b	.L567
 3738              	.L566:
 3739              		.loc 1 1462 0
 3740 00ae 41F20702 		movw	r2, #4103
 3741 00b2 9742     		cmp	r7, r2
 3742 00b4 C4DB     		blt	.L580
 3743 00b6 0132     		adds	r2, r2, #1
 3744 00b8 9742     		cmp	r7, r2
 3745 00ba CFDD     		ble	.L605
 3746 00bc 0232     		adds	r2, r2, #2
 3747 00be 9742     		cmp	r7, r2
 3748 00c0 BED1     		bne	.L580
 3749              		.loc 1 1494 0
 3750 00c2 2A68     		ldr	r2, [r5, #0]
 3751              		.loc 1 1498 0
 3752 00c4 0878     		ldrb	r0, [r1, #0]	@ zero_extendqisi2
 3753              		.loc 1 1444 0
 3754 00c6 032A     		cmp	r2, #3
 3755 00c8 94BF     		ite	ls
 3756 00ca 1622     		movls	r2, #22
 3757 00cc 0022     		movhi	r2, #0
 3758              	.LVL413:
 3759              		.loc 1 1498 0
 3760 00ce 2028     		cmp	r0, #32
 3761 00d0 01D0     		beq	.L608
 3762              	.L579:
 3763 00d2 6123     		movs	r3, #97
 3764              	.LVL414:
 3765 00d4 B5E7     		b	.L573
 3766              	.LVL415:
 3767              	.L608:
 3768              		.loc 1 1499 0 discriminator 1
 3769 00d6 4968     		ldr	r1, [r1, #4]
 3770 00d8 097C     		ldrb	r1, [r1, #16]	@ zero_extendqisi2
 3771              		.loc 1 1498 0 discriminator 1
 3772 00da 01F00201 		and	r1, r1, #2
 3773 00de C9B2     		uxtb	r1, r1
 3774 00e0 0029     		cmp	r1, #0
 3775 00e2 F6D1     		bne	.L579
 3776              		.loc 1 1615 0
 3777 00e4 002A     		cmp	r2, #0
 3778 00e6 BCD0     		beq	.L567
 3779 00e8 53B2     		sxtb	r3, r2
 3780              	.LVL416:
 3781 00ea AAE7     		b	.L573
 3782              	.LVL417:
 3783              	.L606:
 3784              		.loc 1 1453 0
 3785 00ec 0E23     		movs	r3, #14
 3786              	.LVL418:
 3787 00ee 3361     		str	r3, [r6, #16]
 3788              		.loc 1 1454 0
 3789 00f0 4FF0FF30 		mov	r0, #-1
 3790 00f4 A8E7     		b	.L599
 3791              	.L610:
ARM GAS  /tmp/ccPo84yg.s 			page 68


 3792 00f6 00BF     		.align	2
 3793              	.L609:
 3794 00f8 00000000 		.word	.LANCHOR0
 3795 00fc 00000000 		.word	lwip_getsockopt_internal
 3796              		.cfi_endproc
 3797              	.LFE31:
 3798              		.size	lwip_getsockopt, .-lwip_getsockopt
 3799              		.section	.text.lwip_setsockopt,"ax",%progbits
 3800              		.align	2
 3801              		.p2align 4,,15
 3802              		.global	lwip_setsockopt
 3803              		.thumb
 3804              		.thumb_func
 3805              		.type	lwip_setsockopt, %function
 3806              	lwip_setsockopt:
 3807              	.LFB33:
 3808              		.loc 1 1844 0
 3809              		.cfi_startproc
 3810              		@ args = 4, pretend = 0, frame = 24
 3811              		@ frame_needed = 0, uses_anonymous_args = 0
 3812              	.LVL419:
 3813 0000 F0B5     		push	{r4, r5, r6, r7, lr}
 3814              	.LCFI34:
 3815              		.cfi_def_cfa_offset 20
 3816              		.cfi_offset 4, -20
 3817              		.cfi_offset 5, -16
 3818              		.cfi_offset 6, -12
 3819              		.cfi_offset 7, -8
 3820              		.cfi_offset 14, -4
 3821              	.LBB150:
 3822              	.LBB151:
 3823              		.loc 1 199 0
 3824 0002 0328     		cmp	r0, #3
 3825              	.LBE151:
 3826              	.LBE150:
 3827              		.loc 1 1844 0
 3828 0004 87B0     		sub	sp, sp, #28
 3829              	.LCFI35:
 3830              		.cfi_def_cfa_offset 48
 3831              		.loc 1 1844 0
 3832 0006 0C46     		mov	r4, r1
 3833 0008 1646     		mov	r6, r2
 3834              	.LBB153:
 3835              	.LBB152:
 3836              		.loc 1 199 0
 3837 000a 14D8     		bhi	.L657
 3838              		.loc 1 205 0
 3839 000c 00EB4000 		add	r0, r0, r0, lsl #1
 3840              	.LVL420:
 3841 0010 304A     		ldr	r2, .L661
 3842              	.LVL421:
 3843 0012 C000     		lsls	r0, r0, #3
 3844 0014 1518     		adds	r5, r2, r0
 3845              	.LVL422:
 3846              		.loc 1 207 0
 3847 0016 1158     		ldr	r1, [r2, r0]
 3848              	.LVL423:
ARM GAS  /tmp/ccPo84yg.s 			page 69


 3849 0018 69B1     		cbz	r1, .L657
 3850              	.LVL424:
 3851              	.LBE152:
 3852              	.LBE153:
 3853              		.loc 1 1853 0
 3854 001a 002B     		cmp	r3, #0
 3855 001c 55D0     		beq	.L659
 3856              		.loc 1 1859 0
 3857 001e 062C     		cmp	r4, #6
 3858 0020 1AD0     		beq	.L618
 3859 0022 40F6FF72 		movw	r2, #4095
 3860 0026 9442     		cmp	r4, r2
 3861 0028 09D0     		beq	.L619
 3862 002a 14B9     		cbnz	r4, .L635
 3863              		.loc 1 1911 0
 3864 002c 721E     		subs	r2, r6, #1
 3865 002e 012A     		cmp	r2, #1
 3866 0030 0DD9     		bls	.L658
 3867              	.L635:
 3868 0032 5C23     		movs	r3, #92
 3869              	.LVL425:
 3870              	.L628:
 3871              		.loc 1 2025 0
 3872 0034 2B61     		str	r3, [r5, #16]
 3873              	.LVL426:
 3874              	.L657:
 3875              		.loc 1 2026 0
 3876 0036 4FF0FF30 		mov	r0, #-1
 3877              	.L651:
 3878              		.loc 1 2047 0
 3879 003a 07B0     		add	sp, sp, #28
 3880 003c F0BD     		pop	{r4, r5, r6, r7, pc}
 3881              	.LVL427:
 3882              	.L619:
 3883              		.loc 1 1863 0
 3884 003e 202E     		cmp	r6, #32
 3885 0040 05D0     		beq	.L658
 3886 0042 41F20A02 		movw	r2, #4106
 3887 0046 9642     		cmp	r6, r2
 3888 0048 2AD0     		beq	.L621
 3889 004a 082E     		cmp	r6, #8
 3890 004c F1D1     		bne	.L635
 3891              	.L658:
 3892              		.loc 1 1917 0
 3893 004e 0C9A     		ldr	r2, [sp, #48]
 3894 0050 032A     		cmp	r2, #3
 3895 0052 0BD8     		bhi	.L622
 3896              	.L637:
 3897              		.loc 1 1966 0
 3898 0054 1623     		movs	r3, #22
 3899              	.LVL428:
 3900 0056 EDE7     		b	.L628
 3901              	.LVL429:
 3902              	.L618:
 3903 0058 0C9A     		ldr	r2, [sp, #48]
 3904 005a 032A     		cmp	r2, #3
 3905 005c FAD9     		bls	.L637
ARM GAS  /tmp/ccPo84yg.s 			page 70


 3906              		.loc 1 1972 0
 3907 005e 0A78     		ldrb	r2, [r1, #0]	@ zero_extendqisi2
 3908              		.loc 1 1973 0
 3909 0060 0020     		movs	r0, #0
 3910              		.loc 1 1972 0
 3911 0062 102A     		cmp	r2, #16
 3912 0064 E9D1     		bne	.L651
 3913 0066 721E     		subs	r2, r6, #1
 3914 0068 012A     		cmp	r2, #1
 3915 006a E2D8     		bhi	.L635
 3916              	.LVL430:
 3917              	.L622:
 3918              		.loc 1 2039 0
 3919 006c 0027     		movs	r7, #0
 3920              		.loc 1 2040 0
 3921 006e 6946     		mov	r1, sp
 3922 0070 0122     		movs	r2, #1
 3923              		.loc 1 2037 0
 3924 0072 0393     		str	r3, [sp, #12]
 3925              		.loc 1 2040 0
 3926 0074 1848     		ldr	r0, .L661+4
 3927              		.loc 1 2031 0
 3928 0076 0095     		str	r5, [sp, #0]
 3929              		.loc 1 2038 0
 3930 0078 0CAB     		add	r3, sp, #48
 3931              	.LVL431:
 3932 007a 0493     		str	r3, [sp, #16]
 3933              		.loc 1 2035 0
 3934 007c 0194     		str	r4, [sp, #4]
 3935              		.loc 1 2036 0
 3936 007e 0296     		str	r6, [sp, #8]
 3937              		.loc 1 2039 0
 3938 0080 8DF81470 		strb	r7, [sp, #20]
 3939              		.loc 1 2040 0
 3940 0084 FFF7FEFF 		bl	tcpip_callback_with_block
 3941              	.LVL432:
 3942              		.loc 1 2041 0
 3943 0088 2868     		ldr	r0, [r5, #0]
 3944 008a 3946     		mov	r1, r7
 3945 008c 0C30     		adds	r0, r0, #12
 3946 008e FFF7FEFF 		bl	sys_arch_sem_wait
 3947              	.LVL433:
 3948              		.loc 1 2043 0
 3949 0092 9DF81400 		ldrb	r0, [sp, #20]	@ zero_extendqisi2
 3950              	.LVL434:
 3951              		.loc 1 2045 0
 3952 0096 43B2     		sxtb	r3, r0
 3953 0098 2B61     		str	r3, [r5, #16]
 3954              		.loc 1 2046 0
 3955 009a 0028     		cmp	r0, #0
 3956 009c CBD1     		bne	.L657
 3957 009e CCE7     		b	.L651
 3958              	.LVL435:
 3959              	.L621:
 3960              		.loc 1 1895 0
 3961 00a0 0878     		ldrb	r0, [r1, #0]	@ zero_extendqisi2
 3962              		.loc 1 1846 0
ARM GAS  /tmp/ccPo84yg.s 			page 71


 3963 00a2 0C9A     		ldr	r2, [sp, #48]
 3964 00a4 032A     		cmp	r2, #3
 3965 00a6 94BF     		ite	ls
 3966 00a8 1622     		movls	r2, #22
 3967 00aa 0022     		movhi	r2, #0
 3968              	.LVL436:
 3969              		.loc 1 1895 0
 3970 00ac 2028     		cmp	r0, #32
 3971 00ae 01D0     		beq	.L660
 3972              	.L634:
 3973 00b0 6123     		movs	r3, #97
 3974              	.LVL437:
 3975 00b2 BFE7     		b	.L628
 3976              	.LVL438:
 3977              	.L660:
 3978              		.loc 1 1896 0 discriminator 1
 3979 00b4 4968     		ldr	r1, [r1, #4]
 3980 00b6 097C     		ldrb	r1, [r1, #16]	@ zero_extendqisi2
 3981              		.loc 1 1895 0 discriminator 1
 3982 00b8 01F00201 		and	r1, r1, #2
 3983 00bc C9B2     		uxtb	r1, r1
 3984 00be 0029     		cmp	r1, #0
 3985 00c0 F6D1     		bne	.L634
 3986              		.loc 1 2024 0
 3987 00c2 002A     		cmp	r2, #0
 3988 00c4 D2D0     		beq	.L622
 3989 00c6 53B2     		sxtb	r3, r2
 3990              	.LVL439:
 3991 00c8 B4E7     		b	.L628
 3992              	.LVL440:
 3993              	.L659:
 3994              		.loc 1 1854 0
 3995 00ca 0E23     		movs	r3, #14
 3996              	.LVL441:
 3997 00cc 2B61     		str	r3, [r5, #16]
 3998              		.loc 1 1855 0
 3999 00ce 4FF0FF30 		mov	r0, #-1
 4000 00d2 B2E7     		b	.L651
 4001              	.L662:
 4002              		.align	2
 4003              	.L661:
 4004 00d4 00000000 		.word	.LANCHOR0
 4005 00d8 00000000 		.word	lwip_setsockopt_internal
 4006              		.cfi_endproc
 4007              	.LFE33:
 4008              		.size	lwip_setsockopt, .-lwip_setsockopt
 4009 00dc AFF30080 		.section	.text.lwip_ioctl,"ax",%progbits
 4010              		.align	2
 4011              		.p2align 4,,15
 4012              		.global	lwip_ioctl
 4013              		.thumb
 4014              		.thumb_func
 4015              		.type	lwip_ioctl, %function
 4016              	lwip_ioctl:
 4017              	.LFB35:
 4018              		.loc 1 2255 0
 4019              		.cfi_startproc
ARM GAS  /tmp/ccPo84yg.s 			page 72


 4020              		@ args = 0, pretend = 0, frame = 0
 4021              		@ frame_needed = 0, uses_anonymous_args = 0
 4022              		@ link register save eliminated.
 4023              	.LVL442:
 4024              	.LBB154:
 4025              	.LBB155:
 4026              		.loc 1 199 0
 4027 0000 0328     		cmp	r0, #3
 4028              	.LBE155:
 4029              	.LBE154:
 4030              		.loc 1 2255 0
 4031 0002 10B4     		push	{r4}
 4032              	.LCFI36:
 4033              		.cfi_def_cfa_offset 4
 4034              		.cfi_offset 4, -4
 4035              	.LBB158:
 4036              	.LBB156:
 4037              		.loc 1 199 0
 4038 0004 11D8     		bhi	.L672
 4039              		.loc 1 205 0
 4040 0006 00EB4000 		add	r0, r0, r0, lsl #1
 4041              	.LVL443:
 4042 000a 114B     		ldr	r3, .L680
 4043 000c C000     		lsls	r0, r0, #3
 4044 000e 1C18     		adds	r4, r3, r0
 4045              	.LVL444:
 4046              		.loc 1 207 0
 4047 0010 1B58     		ldr	r3, [r3, r0]
 4048 0012 53B1     		cbz	r3, .L672
 4049              	.LBE156:
 4050              	.LBE158:
 4051              		.loc 1 2267 0
 4052 0014 46F27E60 		movw	r0, #26238
 4053 0018 C8F20400 		movt	r0, 32772
 4054 001c 8142     		cmp	r1, r0
 4055 001e 08D0     		beq	.L679
 4056              		.loc 1 2310 0
 4057 0020 2623     		movs	r3, #38
 4058 0022 2361     		str	r3, [r4, #16]
 4059              		.loc 1 2311 0
 4060 0024 4FF0FF30 		mov	r0, #-1
 4061 0028 01E0     		b	.L677
 4062              	.LVL445:
 4063              	.L672:
 4064              	.LBB159:
 4065              	.LBB157:
 4066              		.loc 1 2264 0
 4067 002a 4FF0FF30 		mov	r0, #-1
 4068              	.LVL446:
 4069              	.L677:
 4070              	.LBE157:
 4071              	.LBE159:
 4072              		.loc 1 2313 0
 4073 002e 10BC     		pop	{r4}
 4074 0030 7047     		bx	lr
 4075              	.LVL447:
 4076              	.L679:
ARM GAS  /tmp/ccPo84yg.s 			page 73


 4077              		.loc 1 2300 0
 4078 0032 42B1     		cbz	r2, .L667
 4079              		.loc 1 2300 0 is_stmt 0 discriminator 1
 4080 0034 1268     		ldr	r2, [r2, #0]
 4081              	.LVL448:
 4082 0036 32B1     		cbz	r2, .L667
 4083              	.LVL449:
 4084              		.loc 1 2303 0 is_stmt 1
 4085 0038 1A7F     		ldrb	r2, [r3, #28]	@ zero_extendqisi2
 4086 003a 42F00202 		orr	r2, r2, #2
 4087 003e 1A77     		strb	r2, [r3, #28]
 4088              	.LVL450:
 4089              	.L670:
 4090              		.loc 1 2305 0
 4091 0040 0020     		movs	r0, #0
 4092 0042 2061     		str	r0, [r4, #16]
 4093              		.loc 1 2306 0
 4094 0044 F3E7     		b	.L677
 4095              	.LVL451:
 4096              	.L667:
 4097              		.loc 1 2303 0
 4098 0046 1A7F     		ldrb	r2, [r3, #28]	@ zero_extendqisi2
 4099 0048 22F00202 		bic	r2, r2, #2
 4100 004c 1A77     		strb	r2, [r3, #28]
 4101 004e F7E7     		b	.L670
 4102              	.L681:
 4103              		.align	2
 4104              	.L680:
 4105 0050 00000000 		.word	.LANCHOR0
 4106              		.cfi_endproc
 4107              	.LFE35:
 4108              		.size	lwip_ioctl, .-lwip_ioctl
 4109 0054 AFF30080 		.section	.text.lwip_fcntl,"ax",%progbits
 4109      AFF30080 
 4109      AFF30080 
 4110              		.align	2
 4111              		.p2align 4,,15
 4112              		.global	lwip_fcntl
 4113              		.thumb
 4114              		.thumb_func
 4115              		.type	lwip_fcntl, %function
 4116              	lwip_fcntl:
 4117              	.LFB36:
 4118              		.loc 1 2321 0
 4119              		.cfi_startproc
 4120              		@ args = 0, pretend = 0, frame = 0
 4121              		@ frame_needed = 0, uses_anonymous_args = 0
 4122              		@ link register save eliminated.
 4123              	.LVL452:
 4124              	.LBB160:
 4125              	.LBB161:
 4126              		.loc 1 199 0
 4127 0000 0328     		cmp	r0, #3
 4128 0002 09D8     		bhi	.L694
 4129              	.LVL453:
 4130              		.loc 1 205 0
 4131 0004 00EB4000 		add	r0, r0, r0, lsl #1
ARM GAS  /tmp/ccPo84yg.s 			page 74


 4132              	.LVL454:
 4133              		.loc 1 207 0
 4134 0008 0F4B     		ldr	r3, .L696
 4135 000a 53F83030 		ldr	r3, [r3, r0, lsl #3]
 4136 000e 1BB1     		cbz	r3, .L694
 4137              	.LVL455:
 4138              	.LBE161:
 4139              	.LBE160:
 4140              		.loc 1 2329 0
 4141 0010 0329     		cmp	r1, #3
 4142 0012 14D0     		beq	.L685
 4143 0014 0429     		cmp	r1, #4
 4144 0016 02D0     		beq	.L695
 4145              	.LVL456:
 4146              	.L694:
 4147              		.loc 1 2323 0
 4148 0018 4FF0FF30 		mov	r0, #-1
 4149 001c 7047     		bx	lr
 4150              	.LVL457:
 4151              	.L695:
 4152              		.loc 1 2334 0
 4153 001e 32F00101 		bics	r1, r2, #1
 4154              	.LVL458:
 4155 0022 F9D1     		bne	.L694
 4156              		.loc 1 2336 0
 4157 0024 12F00100 		ands	r0, r2, #1
 4158 0028 1A7F     		ldrb	r2, [r3, #28]	@ zero_extendqisi2
 4159              	.LVL459:
 4160 002a 17BF     		itett	ne
 4161 002c 42F00202 		orrne	r2, r2, #2
 4162 0030 22F00202 		biceq	r2, r2, #2
 4163              		.loc 1 2337 0
 4164 0034 0846     		movne	r0, r1
 4165              		.loc 1 2336 0
 4166 0036 1A77     		strbne	r2, [r3, #28]
 4167 0038 08BF     		it	eq
 4168 003a 1A77     		strbeq	r2, [r3, #28]
 4169 003c 7047     		bx	lr
 4170              	.LVL460:
 4171              	.L685:
 4172              		.loc 1 2331 0
 4173 003e 187F     		ldrb	r0, [r3, #28]	@ zero_extendqisi2
 4174 0040 C0F34000 		ubfx	r0, r0, #1, #1
 4175              	.LVL461:
 4176              		.loc 1 2332 0
 4177 0044 7047     		bx	lr
 4178              	.L697:
 4179 0046 00BF     		.align	2
 4180              	.L696:
 4181 0048 00000000 		.word	.LANCHOR0
 4182              		.cfi_endproc
 4183              	.LFE36:
 4184              		.size	lwip_fcntl, .-lwip_fcntl
 4185 004c AFF30080 		.section	.rodata.err_to_errno_table,"a",%progbits
 4186              		.align	2
 4187              		.set	.LANCHOR1,. + 0
 4188              		.type	err_to_errno_table, %object
ARM GAS  /tmp/ccPo84yg.s 			page 75


 4189              		.size	err_to_errno_table, 64
 4190              	err_to_errno_table:
 4191 0000 00000000 		.word	0
 4192 0004 0C000000 		.word	12
 4193 0008 69000000 		.word	105
 4194 000c 0B000000 		.word	11
 4195 0010 71000000 		.word	113
 4196 0014 73000000 		.word	115
 4197 0018 16000000 		.word	22
 4198 001c 0B000000 		.word	11
 4199 0020 62000000 		.word	98
 4200 0024 72000000 		.word	114
 4201 0028 67000000 		.word	103
 4202 002c 68000000 		.word	104
 4203 0030 6B000000 		.word	107
 4204 0034 6B000000 		.word	107
 4205 0038 05000000 		.word	5
 4206 003c FFFFFFFF 		.word	-1
 4207              		.section	.bss.select_cb_list,"aw",%nobits
 4208              		.align	2
 4209              		.set	.LANCHOR2,. + 0
 4210              		.type	select_cb_list, %object
 4211              		.size	select_cb_list, 4
 4212              	select_cb_list:
 4213 0000 00000000 		.space	4
 4214              		.section	.bss.sockets,"aw",%nobits
 4215              		.align	2
 4216              		.set	.LANCHOR0,. + 0
 4217              		.type	sockets, %object
 4218              		.size	sockets, 96
 4219              	sockets:
 4220 0000 00000000 		.space	96
 4220      00000000 
 4220      00000000 
 4220      00000000 
 4220      00000000 
 4221              		.section	.bss.select_cb_ctr,"aw",%nobits
 4222              		.align	2
 4223              		.set	.LANCHOR3,. + 0
 4224              		.type	select_cb_ctr, %object
 4225              		.size	select_cb_ctr, 4
 4226              	select_cb_ctr:
 4227 0000 00000000 		.space	4
 4228              		.text
 4229              	.Letext0:
 4230              		.file 2 "/opt/psas/x-tools/stm32f407/arm-psas-eabi/bin/../lib/gcc/arm-psas-eabi/4.7.2/include/stdd
 4231              		.file 3 "/opt/psas/x-tools/stm32f407/arm-psas-eabi/bin/../lib/gcc/arm-psas-eabi/4.7.2/../../../../
 4232              		.file 4 "../../os/ports/GCC/ARMCMx/chtypes.h"
 4233              		.file 5 "../../os/kernel/include/chlists.h"
 4234              		.file 6 "../../os/kernel/include/chthreads.h"
 4235              		.file 7 "../../os/ports/GCC/ARMCMx/chcore_v7m.h"
 4236              		.file 8 "../../os/kernel/include/chsem.h"
 4237              		.file 9 "../../os/kernel/include/chmtx.h"
 4238              		.file 10 "../../os/kernel/include/chmboxes.h"
 4239              		.file 11 "../../os/various/lwip_bindings/arch/cc.h"
 4240              		.file 12 "../../ext/lwip/src/include/ipv4/lwip/ip_addr.h"
 4241              		.file 13 "../../ext/lwip/src/include/ipv4/lwip/inet.h"
ARM GAS  /tmp/ccPo84yg.s 			page 76


 4242              		.file 14 "../../ext/lwip/src/include/lwip/sockets.h"
 4243              		.file 15 "../../ext/lwip/src/include/lwip/err.h"
 4244              		.file 16 "../../ext/lwip/src/include/lwip/pbuf.h"
 4245              		.file 17 "../../ext/lwip/src/include/lwip/netbuf.h"
 4246              		.file 18 "../../os/various/lwip_bindings/arch/sys_arch.h"
 4247              		.file 19 "../../ext/lwip/src/include/lwip/api.h"
 4248              		.file 20 "../../ext/lwip/src/include/ipv4/lwip/ip.h"
 4249              		.file 21 "../../ext/lwip/src/include/lwip/tcp.h"
 4250              		.file 22 "../../ext/lwip/src/include/lwip/udp.h"
 4251              		.file 23 "../../ext/lwip/src/include/lwip/raw.h"
 4252              		.file 24 "../../ext/lwip/src/include/lwip/api_msg.h"
 4253              		.file 25 "../../ext/lwip/src/include/lwip/tcpip.h"
 4254              		.file 26 "../../ext/lwip/src/include/lwip/def.h"
 4255              		.file 27 "../../ext/lwip/src/include/lwip/sys.h"
 4256              		.section	.debug_info,"",%progbits
 4257              	.Ldebug_info0:
 4258 0000 212E0000 		.4byte	0x2e21
 4259 0004 0200     		.2byte	0x2
 4260 0006 00000000 		.4byte	.Ldebug_abbrev0
 4261 000a 04       		.byte	0x4
 4262 000b 01       		.uleb128 0x1
 4263 000c 62010000 		.4byte	.LASF339
 4264 0010 01       		.byte	0x1
 4265 0011 FD0B0000 		.4byte	.LASF340
 4266 0015 0B000000 		.4byte	.LASF341
 4267 0019 48040000 		.4byte	.Ldebug_ranges0+0x448
 4268 001d 00000000 		.4byte	0
 4269 0021 00000000 		.4byte	0
 4270 0025 00000000 		.4byte	.Ldebug_line0
 4271 0029 02       		.uleb128 0x2
 4272 002a 04       		.byte	0x4
 4273 002b 05       		.byte	0x5
 4274 002c 696E7400 		.ascii	"int\000"
 4275 0030 03       		.uleb128 0x3
 4276 0031 5C000000 		.4byte	.LASF1
 4277 0035 02       		.byte	0x2
 4278 0036 D5       		.byte	0xd5
 4279 0037 3B000000 		.4byte	0x3b
 4280 003b 04       		.uleb128 0x4
 4281 003c 04       		.byte	0x4
 4282 003d 07       		.byte	0x7
 4283 003e D2070000 		.4byte	.LASF0
 4284 0042 03       		.uleb128 0x3
 4285 0043 55000000 		.4byte	.LASF2
 4286 0047 03       		.byte	0x3
 4287 0048 29       		.byte	0x29
 4288 0049 4D000000 		.4byte	0x4d
 4289 004d 04       		.uleb128 0x4
 4290 004e 01       		.byte	0x1
 4291 004f 06       		.byte	0x6
 4292 0050 1C030000 		.4byte	.LASF3
 4293 0054 03       		.uleb128 0x3
 4294 0055 32030000 		.4byte	.LASF4
 4295 0059 03       		.byte	0x3
 4296 005a 2A       		.byte	0x2a
 4297 005b 5F000000 		.4byte	0x5f
 4298 005f 04       		.uleb128 0x4
ARM GAS  /tmp/ccPo84yg.s 			page 77


 4299 0060 01       		.byte	0x1
 4300 0061 08       		.byte	0x8
 4301 0062 96030000 		.4byte	.LASF5
 4302 0066 03       		.uleb128 0x3
 4303 0067 260C0000 		.4byte	.LASF6
 4304 006b 03       		.byte	0x3
 4305 006c 35       		.byte	0x35
 4306 006d 71000000 		.4byte	0x71
 4307 0071 04       		.uleb128 0x4
 4308 0072 02       		.byte	0x2
 4309 0073 05       		.byte	0x5
 4310 0074 C60B0000 		.4byte	.LASF7
 4311 0078 03       		.uleb128 0x3
 4312 0079 94090000 		.4byte	.LASF8
 4313 007d 03       		.byte	0x3
 4314 007e 36       		.byte	0x36
 4315 007f 83000000 		.4byte	0x83
 4316 0083 04       		.uleb128 0x4
 4317 0084 02       		.byte	0x2
 4318 0085 07       		.byte	0x7
 4319 0086 D30D0000 		.4byte	.LASF9
 4320 008a 03       		.uleb128 0x3
 4321 008b BD000000 		.4byte	.LASF10
 4322 008f 03       		.byte	0x3
 4323 0090 4F       		.byte	0x4f
 4324 0091 95000000 		.4byte	0x95
 4325 0095 04       		.uleb128 0x4
 4326 0096 04       		.byte	0x4
 4327 0097 05       		.byte	0x5
 4328 0098 11020000 		.4byte	.LASF11
 4329 009c 03       		.uleb128 0x3
 4330 009d 320D0000 		.4byte	.LASF12
 4331 00a1 03       		.byte	0x3
 4332 00a2 50       		.byte	0x50
 4333 00a3 A7000000 		.4byte	0xa7
 4334 00a7 04       		.uleb128 0x4
 4335 00a8 04       		.byte	0x4
 4336 00a9 07       		.byte	0x7
 4337 00aa 2B060000 		.4byte	.LASF13
 4338 00ae 04       		.uleb128 0x4
 4339 00af 08       		.byte	0x8
 4340 00b0 05       		.byte	0x5
 4341 00b1 16070000 		.4byte	.LASF14
 4342 00b5 04       		.uleb128 0x4
 4343 00b6 08       		.byte	0x8
 4344 00b7 07       		.byte	0x7
 4345 00b8 69090000 		.4byte	.LASF15
 4346 00bc 03       		.uleb128 0x3
 4347 00bd 150B0000 		.4byte	.LASF16
 4348 00c1 04       		.byte	0x4
 4349 00c2 28       		.byte	0x28
 4350 00c3 54000000 		.4byte	0x54
 4351 00c7 03       		.uleb128 0x3
 4352 00c8 72020000 		.4byte	.LASF17
 4353 00cc 04       		.byte	0x4
 4354 00cd 29       		.byte	0x29
 4355 00ce 54000000 		.4byte	0x54
ARM GAS  /tmp/ccPo84yg.s 			page 78


 4356 00d2 03       		.uleb128 0x3
 4357 00d3 080D0000 		.4byte	.LASF18
 4358 00d7 04       		.byte	0x4
 4359 00d8 2A       		.byte	0x2a
 4360 00d9 54000000 		.4byte	0x54
 4361 00dd 03       		.uleb128 0x3
 4362 00de F1090000 		.4byte	.LASF19
 4363 00e2 04       		.byte	0x4
 4364 00e3 2B       		.byte	0x2b
 4365 00e4 54000000 		.4byte	0x54
 4366 00e8 03       		.uleb128 0x3
 4367 00e9 8E000000 		.4byte	.LASF20
 4368 00ed 04       		.byte	0x4
 4369 00ee 2C       		.byte	0x2c
 4370 00ef 9C000000 		.4byte	0x9c
 4371 00f3 03       		.uleb128 0x3
 4372 00f4 D6090000 		.4byte	.LASF21
 4373 00f8 04       		.byte	0x4
 4374 00f9 2D       		.byte	0x2d
 4375 00fa 8A000000 		.4byte	0x8a
 4376 00fe 03       		.uleb128 0x3
 4377 00ff 63030000 		.4byte	.LASF22
 4378 0103 04       		.byte	0x4
 4379 0104 2F       		.byte	0x2f
 4380 0105 9C000000 		.4byte	0x9c
 4381 0109 03       		.uleb128 0x3
 4382 010a 72000000 		.4byte	.LASF23
 4383 010e 04       		.byte	0x4
 4384 010f 31       		.byte	0x31
 4385 0110 9C000000 		.4byte	0x9c
 4386 0114 03       		.uleb128 0x3
 4387 0115 41050000 		.4byte	.LASF24
 4388 0119 04       		.byte	0x4
 4389 011a 32       		.byte	0x32
 4390 011b 8A000000 		.4byte	0x8a
 4391 011f 03       		.uleb128 0x3
 4392 0120 940C0000 		.4byte	.LASF25
 4393 0124 05       		.byte	0x5
 4394 0125 23       		.byte	0x23
 4395 0126 2A010000 		.4byte	0x12a
 4396 012a 05       		.uleb128 0x5
 4397 012b 940C0000 		.4byte	.LASF25
 4398 012f 48       		.byte	0x48
 4399 0130 06       		.byte	0x6
 4400 0131 57       		.byte	0x57
 4401 0132 4F020000 		.4byte	0x24f
 4402 0136 06       		.uleb128 0x6
 4403 0137 1A020000 		.4byte	.LASF26
 4404 013b 06       		.byte	0x6
 4405 013c 58       		.byte	0x58
 4406 013d 74020000 		.4byte	0x274
 4407 0141 02       		.byte	0x2
 4408 0142 23       		.byte	0x23
 4409 0143 00       		.uleb128 0
 4410 0144 06       		.uleb128 0x6
 4411 0145 34020000 		.4byte	.LASF27
 4412 0149 06       		.byte	0x6
ARM GAS  /tmp/ccPo84yg.s 			page 79


 4413 014a 5A       		.byte	0x5a
 4414 014b 74020000 		.4byte	0x274
 4415 014f 02       		.byte	0x2
 4416 0150 23       		.byte	0x23
 4417 0151 04       		.uleb128 0x4
 4418 0152 06       		.uleb128 0x6
 4419 0153 12040000 		.4byte	.LASF28
 4420 0157 06       		.byte	0x6
 4421 0158 5C       		.byte	0x5c
 4422 0159 E8000000 		.4byte	0xe8
 4423 015d 02       		.byte	0x2
 4424 015e 23       		.byte	0x23
 4425 015f 08       		.uleb128 0x8
 4426 0160 06       		.uleb128 0x6
 4427 0161 88000000 		.4byte	.LASF29
 4428 0165 06       		.byte	0x6
 4429 0166 5D       		.byte	0x5d
 4430 0167 42030000 		.4byte	0x342
 4431 016b 02       		.byte	0x2
 4432 016c 23       		.byte	0x23
 4433 016d 0C       		.uleb128 0xc
 4434 016e 06       		.uleb128 0x6
 4435 016f F7010000 		.4byte	.LASF30
 4436 0173 06       		.byte	0x6
 4437 0174 5F       		.byte	0x5f
 4438 0175 74020000 		.4byte	0x274
 4439 0179 02       		.byte	0x2
 4440 017a 23       		.byte	0x23
 4441 017b 10       		.uleb128 0x10
 4442 017c 06       		.uleb128 0x6
 4443 017d 8C090000 		.4byte	.LASF31
 4444 0181 06       		.byte	0x6
 4445 0182 60       		.byte	0x60
 4446 0183 74020000 		.4byte	0x274
 4447 0187 02       		.byte	0x2
 4448 0188 23       		.byte	0x23
 4449 0189 14       		.uleb128 0x14
 4450 018a 06       		.uleb128 0x6
 4451 018b 2C0E0000 		.4byte	.LASF32
 4452 018f 06       		.byte	0x6
 4453 0190 67       		.byte	0x67
 4454 0191 A2040000 		.4byte	0x4a2
 4455 0195 02       		.byte	0x2
 4456 0196 23       		.byte	0x23
 4457 0197 18       		.uleb128 0x18
 4458 0198 06       		.uleb128 0x6
 4459 0199 7D0E0000 		.4byte	.LASF33
 4460 019d 06       		.byte	0x6
 4461 019e 72       		.byte	0x72
 4462 019f C7000000 		.4byte	0xc7
 4463 01a3 02       		.byte	0x2
 4464 01a4 23       		.byte	0x23
 4465 01a5 1C       		.uleb128 0x1c
 4466 01a6 06       		.uleb128 0x6
 4467 01a7 CA070000 		.4byte	.LASF34
 4468 01ab 06       		.byte	0x6
 4469 01ac 76       		.byte	0x76
ARM GAS  /tmp/ccPo84yg.s 			page 80


 4470 01ad BC000000 		.4byte	0xbc
 4471 01b1 02       		.byte	0x2
 4472 01b2 23       		.byte	0x23
 4473 01b3 1D       		.uleb128 0x1d
 4474 01b4 06       		.uleb128 0x6
 4475 01b5 01080000 		.4byte	.LASF35
 4476 01b9 06       		.byte	0x6
 4477 01ba 7B       		.byte	0x7b
 4478 01bb D2000000 		.4byte	0xd2
 4479 01bf 02       		.byte	0x2
 4480 01c0 23       		.byte	0x23
 4481 01c1 1E       		.uleb128 0x1e
 4482 01c2 06       		.uleb128 0x6
 4483 01c3 28030000 		.4byte	.LASF36
 4484 01c7 06       		.byte	0x6
 4485 01c8 81       		.byte	0x81
 4486 01c9 DD000000 		.4byte	0xdd
 4487 01cd 02       		.byte	0x2
 4488 01ce 23       		.byte	0x23
 4489 01cf 1F       		.uleb128 0x1f
 4490 01d0 06       		.uleb128 0x6
 4491 01d1 94080000 		.4byte	.LASF37
 4492 01d5 06       		.byte	0x6
 4493 01d6 88       		.byte	0x88
 4494 01d7 7E030000 		.4byte	0x37e
 4495 01db 02       		.byte	0x2
 4496 01dc 23       		.byte	0x23
 4497 01dd 20       		.uleb128 0x20
 4498 01de 07       		.uleb128 0x7
 4499 01df 705F7500 		.ascii	"p_u\000"
 4500 01e3 06       		.byte	0x6
 4501 01e4 AD       		.byte	0xad
 4502 01e5 6D040000 		.4byte	0x46d
 4503 01e9 02       		.byte	0x2
 4504 01ea 23       		.byte	0x23
 4505 01eb 24       		.uleb128 0x24
 4506 01ec 06       		.uleb128 0x6
 4507 01ed BB070000 		.4byte	.LASF38
 4508 01f1 06       		.byte	0x6
 4509 01f2 B2       		.byte	0xb2
 4510 01f3 9C020000 		.4byte	0x29c
 4511 01f7 02       		.byte	0x2
 4512 01f8 23       		.byte	0x23
 4513 01f9 28       		.uleb128 0x28
 4514 01fa 06       		.uleb128 0x6
 4515 01fb AC000000 		.4byte	.LASF39
 4516 01ff 06       		.byte	0x6
 4517 0200 B8       		.byte	0xb8
 4518 0201 7A020000 		.4byte	0x27a
 4519 0205 02       		.byte	0x2
 4520 0206 23       		.byte	0x23
 4521 0207 2C       		.uleb128 0x2c
 4522 0208 06       		.uleb128 0x6
 4523 0209 770E0000 		.4byte	.LASF40
 4524 020d 06       		.byte	0x6
 4525 020e BC       		.byte	0xbc
 4526 020f F3000000 		.4byte	0xf3
ARM GAS  /tmp/ccPo84yg.s 			page 81


 4527 0213 02       		.byte	0x2
 4528 0214 23       		.byte	0x23
 4529 0215 34       		.uleb128 0x34
 4530 0216 06       		.uleb128 0x6
 4531 0217 B1050000 		.4byte	.LASF41
 4532 021b 06       		.byte	0x6
 4533 021c C2       		.byte	0xc2
 4534 021d FE000000 		.4byte	0xfe
 4535 0221 02       		.byte	0x2
 4536 0222 23       		.byte	0x23
 4537 0223 38       		.uleb128 0x38
 4538 0224 06       		.uleb128 0x6
 4539 0225 7B020000 		.4byte	.LASF42
 4540 0229 06       		.byte	0x6
 4541 022a C9       		.byte	0xc9
 4542 022b B4040000 		.4byte	0x4b4
 4543 022f 02       		.byte	0x2
 4544 0230 23       		.byte	0x23
 4545 0231 3C       		.uleb128 0x3c
 4546 0232 06       		.uleb128 0x6
 4547 0233 01090000 		.4byte	.LASF43
 4548 0237 06       		.byte	0x6
 4549 0238 CD       		.byte	0xcd
 4550 0239 E8000000 		.4byte	0xe8
 4551 023d 02       		.byte	0x2
 4552 023e 23       		.byte	0x23
 4553 023f 40       		.uleb128 0x40
 4554 0240 06       		.uleb128 0x6
 4555 0241 EC070000 		.4byte	.LASF44
 4556 0245 06       		.byte	0x6
 4557 0246 D3       		.byte	0xd3
 4558 0247 B2020000 		.4byte	0x2b2
 4559 024b 02       		.byte	0x2
 4560 024c 23       		.byte	0x23
 4561 024d 44       		.uleb128 0x44
 4562 024e 00       		.byte	0
 4563 024f 08       		.uleb128 0x8
 4564 0250 08       		.byte	0x8
 4565 0251 05       		.byte	0x5
 4566 0252 5A       		.byte	0x5a
 4567 0253 74020000 		.4byte	0x274
 4568 0257 06       		.uleb128 0x6
 4569 0258 1A020000 		.4byte	.LASF26
 4570 025c 05       		.byte	0x5
 4571 025d 5B       		.byte	0x5b
 4572 025e 74020000 		.4byte	0x274
 4573 0262 02       		.byte	0x2
 4574 0263 23       		.byte	0x23
 4575 0264 00       		.uleb128 0
 4576 0265 06       		.uleb128 0x6
 4577 0266 34020000 		.4byte	.LASF27
 4578 026a 05       		.byte	0x5
 4579 026b 5D       		.byte	0x5d
 4580 026c 74020000 		.4byte	0x274
 4581 0270 02       		.byte	0x2
 4582 0271 23       		.byte	0x23
 4583 0272 04       		.uleb128 0x4
ARM GAS  /tmp/ccPo84yg.s 			page 82


 4584 0273 00       		.byte	0
 4585 0274 09       		.uleb128 0x9
 4586 0275 04       		.byte	0x4
 4587 0276 1F010000 		.4byte	0x11f
 4588 027a 03       		.uleb128 0x3
 4589 027b 5A0D0000 		.4byte	.LASF45
 4590 027f 05       		.byte	0x5
 4591 0280 5F       		.byte	0x5f
 4592 0281 4F020000 		.4byte	0x24f
 4593 0285 08       		.uleb128 0x8
 4594 0286 04       		.byte	0x4
 4595 0287 05       		.byte	0x5
 4596 0288 64       		.byte	0x64
 4597 0289 9C020000 		.4byte	0x29c
 4598 028d 06       		.uleb128 0x6
 4599 028e 1A020000 		.4byte	.LASF26
 4600 0292 05       		.byte	0x5
 4601 0293 66       		.byte	0x66
 4602 0294 74020000 		.4byte	0x274
 4603 0298 02       		.byte	0x2
 4604 0299 23       		.byte	0x23
 4605 029a 00       		.uleb128 0
 4606 029b 00       		.byte	0
 4607 029c 03       		.uleb128 0x3
 4608 029d 19080000 		.4byte	.LASF46
 4609 02a1 05       		.byte	0x5
 4610 02a2 69       		.byte	0x69
 4611 02a3 85020000 		.4byte	0x285
 4612 02a7 03       		.uleb128 0x3
 4613 02a8 8D020000 		.4byte	.LASF47
 4614 02ac 07       		.byte	0x7
 4615 02ad DE       		.byte	0xde
 4616 02ae B2020000 		.4byte	0x2b2
 4617 02b2 0A       		.uleb128 0xa
 4618 02b3 04       		.byte	0x4
 4619 02b4 0B       		.uleb128 0xb
 4620 02b5 9A050000 		.4byte	.LASF48
 4621 02b9 24       		.byte	0x24
 4622 02ba 07       		.byte	0x7
 4623 02bb 0501     		.2byte	0x105
 4624 02bd 42030000 		.4byte	0x342
 4625 02c1 0C       		.uleb128 0xc
 4626 02c2 723400   		.ascii	"r4\000"
 4627 02c5 07       		.byte	0x7
 4628 02c6 1801     		.2byte	0x118
 4629 02c8 A7020000 		.4byte	0x2a7
 4630 02cc 02       		.byte	0x2
 4631 02cd 23       		.byte	0x23
 4632 02ce 00       		.uleb128 0
 4633 02cf 0C       		.uleb128 0xc
 4634 02d0 723500   		.ascii	"r5\000"
 4635 02d3 07       		.byte	0x7
 4636 02d4 1901     		.2byte	0x119
 4637 02d6 A7020000 		.4byte	0x2a7
 4638 02da 02       		.byte	0x2
 4639 02db 23       		.byte	0x23
 4640 02dc 04       		.uleb128 0x4
ARM GAS  /tmp/ccPo84yg.s 			page 83


 4641 02dd 0C       		.uleb128 0xc
 4642 02de 723600   		.ascii	"r6\000"
 4643 02e1 07       		.byte	0x7
 4644 02e2 1A01     		.2byte	0x11a
 4645 02e4 A7020000 		.4byte	0x2a7
 4646 02e8 02       		.byte	0x2
 4647 02e9 23       		.byte	0x23
 4648 02ea 08       		.uleb128 0x8
 4649 02eb 0C       		.uleb128 0xc
 4650 02ec 723700   		.ascii	"r7\000"
 4651 02ef 07       		.byte	0x7
 4652 02f0 1B01     		.2byte	0x11b
 4653 02f2 A7020000 		.4byte	0x2a7
 4654 02f6 02       		.byte	0x2
 4655 02f7 23       		.byte	0x23
 4656 02f8 0C       		.uleb128 0xc
 4657 02f9 0C       		.uleb128 0xc
 4658 02fa 723800   		.ascii	"r8\000"
 4659 02fd 07       		.byte	0x7
 4660 02fe 1C01     		.2byte	0x11c
 4661 0300 A7020000 		.4byte	0x2a7
 4662 0304 02       		.byte	0x2
 4663 0305 23       		.byte	0x23
 4664 0306 10       		.uleb128 0x10
 4665 0307 0C       		.uleb128 0xc
 4666 0308 723900   		.ascii	"r9\000"
 4667 030b 07       		.byte	0x7
 4668 030c 1D01     		.2byte	0x11d
 4669 030e A7020000 		.4byte	0x2a7
 4670 0312 02       		.byte	0x2
 4671 0313 23       		.byte	0x23
 4672 0314 14       		.uleb128 0x14
 4673 0315 0C       		.uleb128 0xc
 4674 0316 72313000 		.ascii	"r10\000"
 4675 031a 07       		.byte	0x7
 4676 031b 1E01     		.2byte	0x11e
 4677 031d A7020000 		.4byte	0x2a7
 4678 0321 02       		.byte	0x2
 4679 0322 23       		.byte	0x23
 4680 0323 18       		.uleb128 0x18
 4681 0324 0C       		.uleb128 0xc
 4682 0325 72313100 		.ascii	"r11\000"
 4683 0329 07       		.byte	0x7
 4684 032a 1F01     		.2byte	0x11f
 4685 032c A7020000 		.4byte	0x2a7
 4686 0330 02       		.byte	0x2
 4687 0331 23       		.byte	0x23
 4688 0332 1C       		.uleb128 0x1c
 4689 0333 0C       		.uleb128 0xc
 4690 0334 6C7200   		.ascii	"lr\000"
 4691 0337 07       		.byte	0x7
 4692 0338 2001     		.2byte	0x120
 4693 033a A7020000 		.4byte	0x2a7
 4694 033e 02       		.byte	0x2
 4695 033f 23       		.byte	0x23
 4696 0340 20       		.uleb128 0x20
 4697 0341 00       		.byte	0
ARM GAS  /tmp/ccPo84yg.s 			page 84


 4698 0342 0B       		.uleb128 0xb
 4699 0343 77030000 		.4byte	.LASF49
 4700 0347 04       		.byte	0x4
 4701 0348 07       		.byte	0x7
 4702 0349 2A01     		.2byte	0x12a
 4703 034b 5F030000 		.4byte	0x35f
 4704 034f 0C       		.uleb128 0xc
 4705 0350 72313300 		.ascii	"r13\000"
 4706 0354 07       		.byte	0x7
 4707 0355 2B01     		.2byte	0x12b
 4708 0357 5F030000 		.4byte	0x35f
 4709 035b 02       		.byte	0x2
 4710 035c 23       		.byte	0x23
 4711 035d 00       		.uleb128 0
 4712 035e 00       		.byte	0
 4713 035f 09       		.uleb128 0x9
 4714 0360 04       		.byte	0x4
 4715 0361 B4020000 		.4byte	0x2b4
 4716 0365 04       		.uleb128 0x4
 4717 0366 04       		.byte	0x4
 4718 0367 07       		.byte	0x7
 4719 0368 63000000 		.4byte	.LASF50
 4720 036c 09       		.uleb128 0x9
 4721 036d 04       		.byte	0x4
 4722 036e 72030000 		.4byte	0x372
 4723 0372 0D       		.uleb128 0xd
 4724 0373 01       		.byte	0x1
 4725 0374 7E030000 		.4byte	0x37e
 4726 0378 0E       		.uleb128 0xe
 4727 0379 B2020000 		.4byte	0x2b2
 4728 037d 00       		.byte	0
 4729 037e 0F       		.uleb128 0xf
 4730 037f 09010000 		.4byte	0x109
 4731 0383 05       		.uleb128 0x5
 4732 0384 E0080000 		.4byte	.LASF51
 4733 0388 0C       		.byte	0xc
 4734 0389 08       		.byte	0x8
 4735 038a 25       		.byte	0x25
 4736 038b AC030000 		.4byte	0x3ac
 4737 038f 06       		.uleb128 0x6
 4738 0390 850B0000 		.4byte	.LASF52
 4739 0394 08       		.byte	0x8
 4740 0395 26       		.byte	0x26
 4741 0396 7A020000 		.4byte	0x27a
 4742 039a 02       		.byte	0x2
 4743 039b 23       		.byte	0x23
 4744 039c 00       		.uleb128 0
 4745 039d 06       		.uleb128 0x6
 4746 039e 45090000 		.4byte	.LASF53
 4747 03a2 08       		.byte	0x8
 4748 03a3 28       		.byte	0x28
 4749 03a4 14010000 		.4byte	0x114
 4750 03a8 02       		.byte	0x2
 4751 03a9 23       		.byte	0x23
 4752 03aa 08       		.uleb128 0x8
 4753 03ab 00       		.byte	0
 4754 03ac 03       		.uleb128 0x3
ARM GAS  /tmp/ccPo84yg.s 			page 85


 4755 03ad E0080000 		.4byte	.LASF51
 4756 03b1 08       		.byte	0x8
 4757 03b2 29       		.byte	0x29
 4758 03b3 83030000 		.4byte	0x383
 4759 03b7 05       		.uleb128 0x5
 4760 03b8 F6060000 		.4byte	.LASF54
 4761 03bc 10       		.byte	0x10
 4762 03bd 09       		.byte	0x9
 4763 03be 25       		.byte	0x25
 4764 03bf EE030000 		.4byte	0x3ee
 4765 03c3 06       		.uleb128 0x6
 4766 03c4 2B070000 		.4byte	.LASF55
 4767 03c8 09       		.byte	0x9
 4768 03c9 26       		.byte	0x26
 4769 03ca 7A020000 		.4byte	0x27a
 4770 03ce 02       		.byte	0x2
 4771 03cf 23       		.byte	0x23
 4772 03d0 00       		.uleb128 0
 4773 03d1 06       		.uleb128 0x6
 4774 03d2 AC010000 		.4byte	.LASF56
 4775 03d6 09       		.byte	0x9
 4776 03d7 28       		.byte	0x28
 4777 03d8 74020000 		.4byte	0x274
 4778 03dc 02       		.byte	0x2
 4779 03dd 23       		.byte	0x23
 4780 03de 08       		.uleb128 0x8
 4781 03df 06       		.uleb128 0x6
 4782 03e0 3D0E0000 		.4byte	.LASF57
 4783 03e4 09       		.byte	0x9
 4784 03e5 2A       		.byte	0x2a
 4785 03e6 EE030000 		.4byte	0x3ee
 4786 03ea 02       		.byte	0x2
 4787 03eb 23       		.byte	0x23
 4788 03ec 0C       		.uleb128 0xc
 4789 03ed 00       		.byte	0
 4790 03ee 09       		.uleb128 0x9
 4791 03ef 04       		.byte	0x4
 4792 03f0 B7030000 		.4byte	0x3b7
 4793 03f4 03       		.uleb128 0x3
 4794 03f5 F6060000 		.4byte	.LASF54
 4795 03f9 09       		.byte	0x9
 4796 03fa 2C       		.byte	0x2c
 4797 03fb B7030000 		.4byte	0x3b7
 4798 03ff 08       		.uleb128 0x8
 4799 0400 28       		.byte	0x28
 4800 0401 0A       		.byte	0xa
 4801 0402 2C       		.byte	0x2c
 4802 0403 5C040000 		.4byte	0x45c
 4803 0407 06       		.uleb128 0x6
 4804 0408 15010000 		.4byte	.LASF58
 4805 040c 0A       		.byte	0xa
 4806 040d 2D       		.byte	0x2d
 4807 040e 5C040000 		.4byte	0x45c
 4808 0412 02       		.byte	0x2
 4809 0413 23       		.byte	0x23
 4810 0414 00       		.uleb128 0
 4811 0415 06       		.uleb128 0x6
ARM GAS  /tmp/ccPo84yg.s 			page 86


 4812 0416 1E090000 		.4byte	.LASF59
 4813 041a 0A       		.byte	0xa
 4814 041b 2F       		.byte	0x2f
 4815 041c 5C040000 		.4byte	0x45c
 4816 0420 02       		.byte	0x2
 4817 0421 23       		.byte	0x23
 4818 0422 04       		.uleb128 0x4
 4819 0423 06       		.uleb128 0x6
 4820 0424 33070000 		.4byte	.LASF60
 4821 0428 0A       		.byte	0xa
 4822 0429 31       		.byte	0x31
 4823 042a 5C040000 		.4byte	0x45c
 4824 042e 02       		.byte	0x2
 4825 042f 23       		.byte	0x23
 4826 0430 08       		.uleb128 0x8
 4827 0431 06       		.uleb128 0x6
 4828 0432 52030000 		.4byte	.LASF61
 4829 0436 0A       		.byte	0xa
 4830 0437 32       		.byte	0x32
 4831 0438 5C040000 		.4byte	0x45c
 4832 043c 02       		.byte	0x2
 4833 043d 23       		.byte	0x23
 4834 043e 0C       		.uleb128 0xc
 4835 043f 06       		.uleb128 0x6
 4836 0440 C4060000 		.4byte	.LASF62
 4837 0444 0A       		.byte	0xa
 4838 0445 33       		.byte	0x33
 4839 0446 AC030000 		.4byte	0x3ac
 4840 044a 02       		.byte	0x2
 4841 044b 23       		.byte	0x23
 4842 044c 10       		.uleb128 0x10
 4843 044d 06       		.uleb128 0x6
 4844 044e 28040000 		.4byte	.LASF63
 4845 0452 0A       		.byte	0xa
 4846 0453 35       		.byte	0x35
 4847 0454 AC030000 		.4byte	0x3ac
 4848 0458 02       		.byte	0x2
 4849 0459 23       		.byte	0x23
 4850 045a 1C       		.uleb128 0x1c
 4851 045b 00       		.byte	0
 4852 045c 09       		.uleb128 0x9
 4853 045d 04       		.byte	0x4
 4854 045e F3000000 		.4byte	0xf3
 4855 0462 03       		.uleb128 0x3
 4856 0463 09060000 		.4byte	.LASF64
 4857 0467 0A       		.byte	0xa
 4858 0468 37       		.byte	0x37
 4859 0469 FF030000 		.4byte	0x3ff
 4860 046d 10       		.uleb128 0x10
 4861 046e 04       		.byte	0x4
 4862 046f 06       		.byte	0x6
 4863 0470 8F       		.byte	0x8f
 4864 0471 A2040000 		.4byte	0x4a2
 4865 0475 11       		.uleb128 0x11
 4866 0476 CC0D0000 		.4byte	.LASF65
 4867 047a 06       		.byte	0x6
 4868 047b 96       		.byte	0x96
ARM GAS  /tmp/ccPo84yg.s 			page 87


 4869 047c F3000000 		.4byte	0xf3
 4870 0480 11       		.uleb128 0x11
 4871 0481 BC010000 		.4byte	.LASF66
 4872 0485 06       		.byte	0x6
 4873 0486 9D       		.byte	0x9d
 4874 0487 F3000000 		.4byte	0xf3
 4875 048b 11       		.uleb128 0x11
 4876 048c 3C040000 		.4byte	.LASF67
 4877 0490 06       		.byte	0x6
 4878 0491 A4       		.byte	0xa4
 4879 0492 B2020000 		.4byte	0x2b2
 4880 0496 11       		.uleb128 0x11
 4881 0497 C5010000 		.4byte	.LASF68
 4882 049b 06       		.byte	0x6
 4883 049c AB       		.byte	0xab
 4884 049d FE000000 		.4byte	0xfe
 4885 04a1 00       		.byte	0
 4886 04a2 09       		.uleb128 0x9
 4887 04a3 04       		.byte	0x4
 4888 04a4 A8040000 		.4byte	0x4a8
 4889 04a8 12       		.uleb128 0x12
 4890 04a9 AD040000 		.4byte	0x4ad
 4891 04ad 04       		.uleb128 0x4
 4892 04ae 01       		.byte	0x1
 4893 04af 08       		.byte	0x8
 4894 04b0 FC030000 		.4byte	.LASF69
 4895 04b4 09       		.uleb128 0x9
 4896 04b5 04       		.byte	0x4
 4897 04b6 F4030000 		.4byte	0x3f4
 4898 04ba 03       		.uleb128 0x3
 4899 04bb EB0D0000 		.4byte	.LASF70
 4900 04bf 0B       		.byte	0xb
 4901 04c0 3C       		.byte	0x3c
 4902 04c1 54000000 		.4byte	0x54
 4903 04c5 03       		.uleb128 0x3
 4904 04c6 E60D0000 		.4byte	.LASF71
 4905 04ca 0B       		.byte	0xb
 4906 04cb 3D       		.byte	0x3d
 4907 04cc 42000000 		.4byte	0x42
 4908 04d0 03       		.uleb128 0x3
 4909 04d1 E6070000 		.4byte	.LASF72
 4910 04d5 0B       		.byte	0xb
 4911 04d6 3E       		.byte	0x3e
 4912 04d7 78000000 		.4byte	0x78
 4913 04db 03       		.uleb128 0x3
 4914 04dc FB0C0000 		.4byte	.LASF73
 4915 04e0 0B       		.byte	0xb
 4916 04e1 3F       		.byte	0x3f
 4917 04e2 66000000 		.4byte	0x66
 4918 04e6 03       		.uleb128 0x3
 4919 04e7 0F0B0000 		.4byte	.LASF74
 4920 04eb 0B       		.byte	0xb
 4921 04ec 40       		.byte	0x40
 4922 04ed 9C000000 		.4byte	0x9c
 4923 04f1 03       		.uleb128 0x3
 4924 04f2 210D0000 		.4byte	.LASF75
 4925 04f6 0B       		.byte	0xb
ARM GAS  /tmp/ccPo84yg.s 			page 88


 4926 04f7 42       		.byte	0x42
 4927 04f8 9C000000 		.4byte	0x9c
 4928 04fc 05       		.uleb128 0x5
 4929 04fd E8040000 		.4byte	.LASF76
 4930 0501 04       		.byte	0x4
 4931 0502 0C       		.byte	0xc
 4932 0503 2C       		.byte	0x2c
 4933 0504 17050000 		.4byte	0x517
 4934 0508 06       		.uleb128 0x6
 4935 0509 C5070000 		.4byte	.LASF77
 4936 050d 0C       		.byte	0xc
 4937 050e 2D       		.byte	0x2d
 4938 050f E6040000 		.4byte	0x4e6
 4939 0513 02       		.byte	0x2
 4940 0514 23       		.byte	0x23
 4941 0515 00       		.uleb128 0
 4942 0516 00       		.byte	0
 4943 0517 03       		.uleb128 0x3
 4944 0518 D6080000 		.4byte	.LASF78
 4945 051c 0C       		.byte	0xc
 4946 051d 40       		.byte	0x40
 4947 051e FC040000 		.4byte	0x4fc
 4948 0522 05       		.uleb128 0x5
 4949 0523 070B0000 		.4byte	.LASF79
 4950 0527 04       		.byte	0x4
 4951 0528 0D       		.byte	0xd
 4952 0529 2C       		.byte	0x2c
 4953 052a 3D050000 		.4byte	0x53d
 4954 052e 06       		.uleb128 0x6
 4955 052f 2B0D0000 		.4byte	.LASF80
 4956 0533 0D       		.byte	0xd
 4957 0534 2D       		.byte	0x2d
 4958 0535 E6040000 		.4byte	0x4e6
 4959 0539 02       		.byte	0x2
 4960 053a 23       		.byte	0x23
 4961 053b 00       		.uleb128 0
 4962 053c 00       		.byte	0
 4963 053d 05       		.uleb128 0x5
 4964 053e 560A0000 		.4byte	.LASF81
 4965 0542 10       		.byte	0x10
 4966 0543 0E       		.byte	0xe
 4967 0544 33       		.byte	0x33
 4968 0545 90050000 		.4byte	0x590
 4969 0549 06       		.uleb128 0x6
 4970 054a 85020000 		.4byte	.LASF82
 4971 054e 0E       		.byte	0xe
 4972 054f 34       		.byte	0x34
 4973 0550 BA040000 		.4byte	0x4ba
 4974 0554 02       		.byte	0x2
 4975 0555 23       		.byte	0x23
 4976 0556 00       		.uleb128 0
 4977 0557 06       		.uleb128 0x6
 4978 0558 C5000000 		.4byte	.LASF83
 4979 055c 0E       		.byte	0xe
 4980 055d 35       		.byte	0x35
 4981 055e BA040000 		.4byte	0x4ba
 4982 0562 02       		.byte	0x2
ARM GAS  /tmp/ccPo84yg.s 			page 89


 4983 0563 23       		.byte	0x23
 4984 0564 01       		.uleb128 0x1
 4985 0565 06       		.uleb128 0x6
 4986 0566 7B040000 		.4byte	.LASF84
 4987 056a 0E       		.byte	0xe
 4988 056b 36       		.byte	0x36
 4989 056c D0040000 		.4byte	0x4d0
 4990 0570 02       		.byte	0x2
 4991 0571 23       		.byte	0x23
 4992 0572 02       		.uleb128 0x2
 4993 0573 06       		.uleb128 0x6
 4994 0574 DB000000 		.4byte	.LASF85
 4995 0578 0E       		.byte	0xe
 4996 0579 37       		.byte	0x37
 4997 057a 22050000 		.4byte	0x522
 4998 057e 02       		.byte	0x2
 4999 057f 23       		.byte	0x23
 5000 0580 04       		.uleb128 0x4
 5001 0581 06       		.uleb128 0x6
 5002 0582 FF040000 		.4byte	.LASF86
 5003 0586 0E       		.byte	0xe
 5004 0587 38       		.byte	0x38
 5005 0588 90050000 		.4byte	0x590
 5006 058c 02       		.byte	0x2
 5007 058d 23       		.byte	0x23
 5008 058e 08       		.uleb128 0x8
 5009 058f 00       		.byte	0
 5010 0590 13       		.uleb128 0x13
 5011 0591 AD040000 		.4byte	0x4ad
 5012 0595 A0050000 		.4byte	0x5a0
 5013 0599 14       		.uleb128 0x14
 5014 059a 65030000 		.4byte	0x365
 5015 059e 07       		.byte	0x7
 5016 059f 00       		.byte	0
 5017 05a0 05       		.uleb128 0x5
 5018 05a1 770A0000 		.4byte	.LASF87
 5019 05a5 10       		.byte	0x10
 5020 05a6 0E       		.byte	0xe
 5021 05a7 3B       		.byte	0x3b
 5022 05a8 D7050000 		.4byte	0x5d7
 5023 05ac 06       		.uleb128 0x6
 5024 05ad A40B0000 		.4byte	.LASF88
 5025 05b1 0E       		.byte	0xe
 5026 05b2 3C       		.byte	0x3c
 5027 05b3 BA040000 		.4byte	0x4ba
 5028 05b7 02       		.byte	0x2
 5029 05b8 23       		.byte	0x23
 5030 05b9 00       		.uleb128 0
 5031 05ba 06       		.uleb128 0x6
 5032 05bb F5040000 		.4byte	.LASF89
 5033 05bf 0E       		.byte	0xe
 5034 05c0 3D       		.byte	0x3d
 5035 05c1 BA040000 		.4byte	0x4ba
 5036 05c5 02       		.byte	0x2
 5037 05c6 23       		.byte	0x23
 5038 05c7 01       		.uleb128 0x1
 5039 05c8 06       		.uleb128 0x6
ARM GAS  /tmp/ccPo84yg.s 			page 90


 5040 05c9 2F0A0000 		.4byte	.LASF90
 5041 05cd 0E       		.byte	0xe
 5042 05ce 3E       		.byte	0x3e
 5043 05cf D7050000 		.4byte	0x5d7
 5044 05d3 02       		.byte	0x2
 5045 05d4 23       		.byte	0x23
 5046 05d5 02       		.uleb128 0x2
 5047 05d6 00       		.byte	0
 5048 05d7 13       		.uleb128 0x13
 5049 05d8 AD040000 		.4byte	0x4ad
 5050 05dc E7050000 		.4byte	0x5e7
 5051 05e0 14       		.uleb128 0x14
 5052 05e1 65030000 		.4byte	0x365
 5053 05e5 0D       		.byte	0xd
 5054 05e6 00       		.byte	0
 5055 05e7 0B       		.uleb128 0xb
 5056 05e8 D40C0000 		.4byte	.LASF91
 5057 05ec 01       		.byte	0x1
 5058 05ed 0E       		.byte	0xe
 5059 05ee 2A01     		.2byte	0x12a
 5060 05f0 04060000 		.4byte	0x604
 5061 05f4 15       		.uleb128 0x15
 5062 05f5 69070000 		.4byte	.LASF92
 5063 05f9 0E       		.byte	0xe
 5064 05fa 2B01     		.2byte	0x12b
 5065 05fc 04060000 		.4byte	0x604
 5066 0600 02       		.byte	0x2
 5067 0601 23       		.byte	0x23
 5068 0602 00       		.uleb128 0
 5069 0603 00       		.byte	0
 5070 0604 13       		.uleb128 0x13
 5071 0605 5F000000 		.4byte	0x5f
 5072 0609 14060000 		.4byte	0x614
 5073 060d 14       		.uleb128 0x14
 5074 060e 65030000 		.4byte	0x365
 5075 0612 00       		.byte	0
 5076 0613 00       		.byte	0
 5077 0614 16       		.uleb128 0x16
 5078 0615 D40C0000 		.4byte	.LASF91
 5079 0619 0E       		.byte	0xe
 5080 061a 2C01     		.2byte	0x12c
 5081 061c E7050000 		.4byte	0x5e7
 5082 0620 0B       		.uleb128 0xb
 5083 0621 52040000 		.4byte	.LASF93
 5084 0625 08       		.byte	0x8
 5085 0626 0E       		.byte	0xe
 5086 0627 3701     		.2byte	0x137
 5087 0629 4C060000 		.4byte	0x64c
 5088 062d 15       		.uleb128 0x15
 5089 062e 610E0000 		.4byte	.LASF94
 5090 0632 0E       		.byte	0xe
 5091 0633 3801     		.2byte	0x138
 5092 0635 95000000 		.4byte	0x95
 5093 0639 02       		.byte	0x2
 5094 063a 23       		.byte	0x23
 5095 063b 00       		.uleb128 0
 5096 063c 15       		.uleb128 0x15
ARM GAS  /tmp/ccPo84yg.s 			page 91


 5097 063d A9050000 		.4byte	.LASF95
 5098 0641 0E       		.byte	0xe
 5099 0642 3901     		.2byte	0x139
 5100 0644 95000000 		.4byte	0x95
 5101 0648 02       		.byte	0x2
 5102 0649 23       		.byte	0x23
 5103 064a 04       		.uleb128 0x4
 5104 064b 00       		.byte	0
 5105 064c 03       		.uleb128 0x3
 5106 064d 0C090000 		.4byte	.LASF96
 5107 0651 0F       		.byte	0xf
 5108 0652 2F       		.byte	0x2f
 5109 0653 C5040000 		.4byte	0x4c5
 5110 0657 05       		.uleb128 0x5
 5111 0658 01040000 		.4byte	.LASF97
 5112 065c 10       		.byte	0x10
 5113 065d 10       		.byte	0x10
 5114 065e 49       		.byte	0x49
 5115 065f C6060000 		.4byte	0x6c6
 5116 0663 06       		.uleb128 0x6
 5117 0664 330E0000 		.4byte	.LASF98
 5118 0668 10       		.byte	0x10
 5119 0669 4B       		.byte	0x4b
 5120 066a C6060000 		.4byte	0x6c6
 5121 066e 02       		.byte	0x2
 5122 066f 23       		.byte	0x23
 5123 0670 00       		.uleb128 0
 5124 0671 06       		.uleb128 0x6
 5125 0672 9C060000 		.4byte	.LASF99
 5126 0676 10       		.byte	0x10
 5127 0677 4E       		.byte	0x4e
 5128 0678 B2020000 		.4byte	0x2b2
 5129 067c 02       		.byte	0x2
 5130 067d 23       		.byte	0x23
 5131 067e 04       		.uleb128 0x4
 5132 067f 06       		.uleb128 0x6
 5133 0680 C6080000 		.4byte	.LASF100
 5134 0684 10       		.byte	0x10
 5135 0685 57       		.byte	0x57
 5136 0686 D0040000 		.4byte	0x4d0
 5137 068a 02       		.byte	0x2
 5138 068b 23       		.byte	0x23
 5139 068c 08       		.uleb128 0x8
 5140 068d 07       		.uleb128 0x7
 5141 068e 6C656E00 		.ascii	"len\000"
 5142 0692 10       		.byte	0x10
 5143 0693 5A       		.byte	0x5a
 5144 0694 D0040000 		.4byte	0x4d0
 5145 0698 02       		.byte	0x2
 5146 0699 23       		.byte	0x23
 5147 069a 0A       		.uleb128 0xa
 5148 069b 06       		.uleb128 0x6
 5149 069c 5D010000 		.4byte	.LASF101
 5150 06a0 10       		.byte	0x10
 5151 06a1 5D       		.byte	0x5d
 5152 06a2 BA040000 		.4byte	0x4ba
 5153 06a6 02       		.byte	0x2
ARM GAS  /tmp/ccPo84yg.s 			page 92


 5154 06a7 23       		.byte	0x23
 5155 06a8 0C       		.uleb128 0xc
 5156 06a9 06       		.uleb128 0x6
 5157 06aa A8040000 		.4byte	.LASF102
 5158 06ae 10       		.byte	0x10
 5159 06af 60       		.byte	0x60
 5160 06b0 BA040000 		.4byte	0x4ba
 5161 06b4 02       		.byte	0x2
 5162 06b5 23       		.byte	0x23
 5163 06b6 0D       		.uleb128 0xd
 5164 06b7 07       		.uleb128 0x7
 5165 06b8 72656600 		.ascii	"ref\000"
 5166 06bc 10       		.byte	0x10
 5167 06bd 67       		.byte	0x67
 5168 06be D0040000 		.4byte	0x4d0
 5169 06c2 02       		.byte	0x2
 5170 06c3 23       		.byte	0x23
 5171 06c4 0E       		.uleb128 0xe
 5172 06c5 00       		.byte	0
 5173 06c6 09       		.uleb128 0x9
 5174 06c7 04       		.byte	0x4
 5175 06c8 57060000 		.4byte	0x657
 5176 06cc 05       		.uleb128 0x5
 5177 06cd C3040000 		.4byte	.LASF103
 5178 06d1 10       		.byte	0x10
 5179 06d2 11       		.byte	0x11
 5180 06d3 30       		.byte	0x30
 5181 06d4 0F070000 		.4byte	0x70f
 5182 06d8 07       		.uleb128 0x7
 5183 06d9 7000     		.ascii	"p\000"
 5184 06db 11       		.byte	0x11
 5185 06dc 31       		.byte	0x31
 5186 06dd C6060000 		.4byte	0x6c6
 5187 06e1 02       		.byte	0x2
 5188 06e2 23       		.byte	0x23
 5189 06e3 00       		.uleb128 0
 5190 06e4 07       		.uleb128 0x7
 5191 06e5 70747200 		.ascii	"ptr\000"
 5192 06e9 11       		.byte	0x11
 5193 06ea 31       		.byte	0x31
 5194 06eb C6060000 		.4byte	0x6c6
 5195 06ef 02       		.byte	0x2
 5196 06f0 23       		.byte	0x23
 5197 06f1 04       		.uleb128 0x4
 5198 06f2 06       		.uleb128 0x6
 5199 06f3 C5070000 		.4byte	.LASF77
 5200 06f7 11       		.byte	0x11
 5201 06f8 32       		.byte	0x32
 5202 06f9 17050000 		.4byte	0x517
 5203 06fd 02       		.byte	0x2
 5204 06fe 23       		.byte	0x23
 5205 06ff 08       		.uleb128 0x8
 5206 0700 06       		.uleb128 0x6
 5207 0701 8D0B0000 		.4byte	.LASF104
 5208 0705 11       		.byte	0x11
 5209 0706 33       		.byte	0x33
 5210 0707 D0040000 		.4byte	0x4d0
ARM GAS  /tmp/ccPo84yg.s 			page 93


 5211 070b 02       		.byte	0x2
 5212 070c 23       		.byte	0x23
 5213 070d 0C       		.uleb128 0xc
 5214 070e 00       		.byte	0
 5215 070f 03       		.uleb128 0x3
 5216 0710 5C020000 		.4byte	.LASF105
 5217 0714 12       		.byte	0x12
 5218 0715 3C       		.byte	0x3c
 5219 0716 1A070000 		.4byte	0x71a
 5220 071a 09       		.uleb128 0x9
 5221 071b 04       		.byte	0x4
 5222 071c AC030000 		.4byte	0x3ac
 5223 0720 03       		.uleb128 0x3
 5224 0721 EB060000 		.4byte	.LASF106
 5225 0725 12       		.byte	0x12
 5226 0726 3D       		.byte	0x3d
 5227 0727 2B070000 		.4byte	0x72b
 5228 072b 09       		.uleb128 0x9
 5229 072c 04       		.byte	0x4
 5230 072d 62040000 		.4byte	0x462
 5231 0731 17       		.uleb128 0x17
 5232 0732 84040000 		.4byte	.LASF113
 5233 0736 01       		.byte	0x1
 5234 0737 13       		.byte	0x13
 5235 0738 53       		.byte	0x53
 5236 0739 63070000 		.4byte	0x763
 5237 073d 18       		.uleb128 0x18
 5238 073e 97010000 		.4byte	.LASF107
 5239 0742 00       		.sleb128 0
 5240 0743 18       		.uleb128 0x18
 5241 0744 DD030000 		.4byte	.LASF108
 5242 0748 10       		.sleb128 16
 5243 0749 18       		.uleb128 0x18
 5244 074a FC060000 		.4byte	.LASF109
 5245 074e 20       		.sleb128 32
 5246 074f 18       		.uleb128 0x18
 5247 0750 ED0B0000 		.4byte	.LASF110
 5248 0754 21       		.sleb128 33
 5249 0755 18       		.uleb128 0x18
 5250 0756 08050000 		.4byte	.LASF111
 5251 075a 22       		.sleb128 34
 5252 075b 18       		.uleb128 0x18
 5253 075c 530B0000 		.4byte	.LASF112
 5254 0760 C000     		.sleb128 64
 5255 0762 00       		.byte	0
 5256 0763 17       		.uleb128 0x17
 5257 0764 AD070000 		.4byte	.LASF114
 5258 0768 01       		.byte	0x1
 5259 0769 13       		.byte	0x13
 5260 076a 61       		.byte	0x61
 5261 076b 8E070000 		.4byte	0x78e
 5262 076f 18       		.uleb128 0x18
 5263 0770 B70C0000 		.4byte	.LASF115
 5264 0774 00       		.sleb128 0
 5265 0775 18       		.uleb128 0x18
 5266 0776 3B020000 		.4byte	.LASF116
 5267 077a 01       		.sleb128 1
ARM GAS  /tmp/ccPo84yg.s 			page 94


 5268 077b 18       		.uleb128 0x18
 5269 077c D00B0000 		.4byte	.LASF117
 5270 0780 02       		.sleb128 2
 5271 0781 18       		.uleb128 0x18
 5272 0782 B0080000 		.4byte	.LASF118
 5273 0786 03       		.sleb128 3
 5274 0787 18       		.uleb128 0x18
 5275 0788 11060000 		.4byte	.LASF119
 5276 078c 04       		.sleb128 4
 5277 078d 00       		.byte	0
 5278 078e 17       		.uleb128 0x17
 5279 078f A9020000 		.4byte	.LASF120
 5280 0793 01       		.byte	0x1
 5281 0794 13       		.byte	0x13
 5282 0795 6A       		.byte	0x6a
 5283 0796 B9070000 		.4byte	0x7b9
 5284 079a 18       		.uleb128 0x18
 5285 079b 8B0D0000 		.4byte	.LASF121
 5286 079f 00       		.sleb128 0
 5287 07a0 18       		.uleb128 0x18
 5288 07a1 800A0000 		.4byte	.LASF122
 5289 07a5 01       		.sleb128 1
 5290 07a6 18       		.uleb128 0x18
 5291 07a7 4F060000 		.4byte	.LASF123
 5292 07ab 02       		.sleb128 2
 5293 07ac 18       		.uleb128 0x18
 5294 07ad 0F0A0000 		.4byte	.LASF124
 5295 07b1 03       		.sleb128 3
 5296 07b2 18       		.uleb128 0x18
 5297 07b3 FF010000 		.4byte	.LASF125
 5298 07b7 04       		.sleb128 4
 5299 07b8 00       		.byte	0
 5300 07b9 03       		.uleb128 0x3
 5301 07ba 3B0D0000 		.4byte	.LASF126
 5302 07be 13       		.byte	0x13
 5303 07bf 83       		.byte	0x83
 5304 07c0 C4070000 		.4byte	0x7c4
 5305 07c4 09       		.uleb128 0x9
 5306 07c5 04       		.byte	0x4
 5307 07c6 CA070000 		.4byte	0x7ca
 5308 07ca 0D       		.uleb128 0xd
 5309 07cb 01       		.byte	0x1
 5310 07cc E0070000 		.4byte	0x7e0
 5311 07d0 0E       		.uleb128 0xe
 5312 07d1 E0070000 		.4byte	0x7e0
 5313 07d5 0E       		.uleb128 0xe
 5314 07d6 8E070000 		.4byte	0x78e
 5315 07da 0E       		.uleb128 0xe
 5316 07db D0040000 		.4byte	0x4d0
 5317 07df 00       		.byte	0
 5318 07e0 09       		.uleb128 0x9
 5319 07e1 04       		.byte	0x4
 5320 07e2 E6070000 		.4byte	0x7e6
 5321 07e6 05       		.uleb128 0x5
 5322 07e7 CC010000 		.4byte	.LASF127
 5323 07eb 2C       		.byte	0x2c
 5324 07ec 13       		.byte	0x13
ARM GAS  /tmp/ccPo84yg.s 			page 95


 5325 07ed 86       		.byte	0x86
 5326 07ee 9B080000 		.4byte	0x89b
 5327 07f2 06       		.uleb128 0x6
 5328 07f3 5D010000 		.4byte	.LASF101
 5329 07f7 13       		.byte	0x13
 5330 07f8 88       		.byte	0x88
 5331 07f9 31070000 		.4byte	0x731
 5332 07fd 02       		.byte	0x2
 5333 07fe 23       		.byte	0x23
 5334 07ff 00       		.uleb128 0
 5335 0800 06       		.uleb128 0x6
 5336 0801 3A010000 		.4byte	.LASF128
 5337 0805 13       		.byte	0x13
 5338 0806 8A       		.byte	0x8a
 5339 0807 63070000 		.4byte	0x763
 5340 080b 02       		.byte	0x2
 5341 080c 23       		.byte	0x23
 5342 080d 01       		.uleb128 0x1
 5343 080e 07       		.uleb128 0x7
 5344 080f 70636200 		.ascii	"pcb\000"
 5345 0813 13       		.byte	0x13
 5346 0814 91       		.byte	0x91
 5347 0815 9B080000 		.4byte	0x89b
 5348 0819 02       		.byte	0x2
 5349 081a 23       		.byte	0x23
 5350 081b 04       		.uleb128 0x4
 5351 081c 06       		.uleb128 0x6
 5352 081d 680E0000 		.4byte	.LASF129
 5353 0821 13       		.byte	0x13
 5354 0822 93       		.byte	0x93
 5355 0823 4C060000 		.4byte	0x64c
 5356 0827 02       		.byte	0x2
 5357 0828 23       		.byte	0x23
 5358 0829 08       		.uleb128 0x8
 5359 082a 06       		.uleb128 0x6
 5360 082b EA010000 		.4byte	.LASF130
 5361 082f 13       		.byte	0x13
 5362 0830 95       		.byte	0x95
 5363 0831 0F070000 		.4byte	0x70f
 5364 0835 02       		.byte	0x2
 5365 0836 23       		.byte	0x23
 5366 0837 0C       		.uleb128 0xc
 5367 0838 06       		.uleb128 0x6
 5368 0839 820D0000 		.4byte	.LASF131
 5369 083d 13       		.byte	0x13
 5370 083e 98       		.byte	0x98
 5371 083f 20070000 		.4byte	0x720
 5372 0843 02       		.byte	0x2
 5373 0844 23       		.byte	0x23
 5374 0845 10       		.uleb128 0x10
 5375 0846 06       		.uleb128 0x6
 5376 0847 88060000 		.4byte	.LASF132
 5377 084b 13       		.byte	0x13
 5378 084c 9C       		.byte	0x9c
 5379 084d 20070000 		.4byte	0x720
 5380 0851 02       		.byte	0x2
 5381 0852 23       		.byte	0x23
ARM GAS  /tmp/ccPo84yg.s 			page 96


 5382 0853 14       		.uleb128 0x14
 5383 0854 06       		.uleb128 0x6
 5384 0855 E20C0000 		.4byte	.LASF133
 5385 0859 13       		.byte	0x13
 5386 085a A0       		.byte	0xa0
 5387 085b 29000000 		.4byte	0x29
 5388 085f 02       		.byte	0x2
 5389 0860 23       		.byte	0x23
 5390 0861 18       		.uleb128 0x18
 5391 0862 06       		.uleb128 0x6
 5392 0863 A8040000 		.4byte	.LASF102
 5393 0867 13       		.byte	0x13
 5394 0868 B1       		.byte	0xb1
 5395 0869 BA040000 		.4byte	0x4ba
 5396 086d 02       		.byte	0x2
 5397 086e 23       		.byte	0x23
 5398 086f 1C       		.uleb128 0x1c
 5399 0870 06       		.uleb128 0x6
 5400 0871 1D0B0000 		.4byte	.LASF134
 5401 0875 13       		.byte	0x13
 5402 0876 B5       		.byte	0xb5
 5403 0877 30000000 		.4byte	0x30
 5404 087b 02       		.byte	0x2
 5405 087c 23       		.byte	0x23
 5406 087d 20       		.uleb128 0x20
 5407 087e 06       		.uleb128 0x6
 5408 087f 1F060000 		.4byte	.LASF135
 5409 0883 13       		.byte	0x13
 5410 0884 B9       		.byte	0xb9
 5411 0885 B20D0000 		.4byte	0xdb2
 5412 0889 02       		.byte	0x2
 5413 088a 23       		.byte	0x23
 5414 088b 24       		.uleb128 0x24
 5415 088c 06       		.uleb128 0x6
 5416 088d 93060000 		.4byte	.LASF136
 5417 0891 13       		.byte	0x13
 5418 0892 BC       		.byte	0xbc
 5419 0893 B9070000 		.4byte	0x7b9
 5420 0897 02       		.byte	0x2
 5421 0898 23       		.byte	0x23
 5422 0899 28       		.uleb128 0x28
 5423 089a 00       		.byte	0
 5424 089b 10       		.uleb128 0x10
 5425 089c 04       		.byte	0x4
 5426 089d 13       		.byte	0x13
 5427 089e 8C       		.byte	0x8c
 5428 089f CF080000 		.4byte	0x8cf
 5429 08a3 19       		.uleb128 0x19
 5430 08a4 697000   		.ascii	"ip\000"
 5431 08a7 13       		.byte	0x13
 5432 08a8 8D       		.byte	0x8d
 5433 08a9 22090000 		.4byte	0x922
 5434 08ad 19       		.uleb128 0x19
 5435 08ae 74637000 		.ascii	"tcp\000"
 5436 08b2 13       		.byte	0x13
 5437 08b3 8E       		.byte	0x8e
 5438 08b4 370C0000 		.4byte	0xc37
ARM GAS  /tmp/ccPo84yg.s 			page 97


 5439 08b8 19       		.uleb128 0x19
 5440 08b9 75647000 		.ascii	"udp\000"
 5441 08bd 13       		.byte	0x13
 5442 08be 8F       		.byte	0x8f
 5443 08bf E40C0000 		.4byte	0xce4
 5444 08c3 19       		.uleb128 0x19
 5445 08c4 72617700 		.ascii	"raw\000"
 5446 08c8 13       		.byte	0x13
 5447 08c9 90       		.byte	0x90
 5448 08ca 750D0000 		.4byte	0xd75
 5449 08ce 00       		.byte	0
 5450 08cf 05       		.uleb128 0x5
 5451 08d0 24070000 		.4byte	.LASF137
 5452 08d4 0C       		.byte	0xc
 5453 08d5 14       		.byte	0x14
 5454 08d6 59       		.byte	0x59
 5455 08d7 22090000 		.4byte	0x922
 5456 08db 06       		.uleb128 0x6
 5457 08dc 7F030000 		.4byte	.LASF138
 5458 08e0 14       		.byte	0x14
 5459 08e1 5B       		.byte	0x5b
 5460 08e2 17050000 		.4byte	0x517
 5461 08e6 02       		.byte	0x2
 5462 08e7 23       		.byte	0x23
 5463 08e8 00       		.uleb128 0
 5464 08e9 06       		.uleb128 0x6
 5465 08ea FD0A0000 		.4byte	.LASF139
 5466 08ee 14       		.byte	0x14
 5467 08ef 5B       		.byte	0x5b
 5468 08f0 17050000 		.4byte	0x517
 5469 08f4 02       		.byte	0x2
 5470 08f5 23       		.byte	0x23
 5471 08f6 04       		.uleb128 0x4
 5472 08f7 06       		.uleb128 0x6
 5473 08f8 F7000000 		.4byte	.LASF140
 5474 08fc 14       		.byte	0x14
 5475 08fd 5B       		.byte	0x5b
 5476 08fe BA040000 		.4byte	0x4ba
 5477 0902 02       		.byte	0x2
 5478 0903 23       		.byte	0x23
 5479 0904 08       		.uleb128 0x8
 5480 0905 07       		.uleb128 0x7
 5481 0906 746F7300 		.ascii	"tos\000"
 5482 090a 14       		.byte	0x14
 5483 090b 5B       		.byte	0x5b
 5484 090c BA040000 		.4byte	0x4ba
 5485 0910 02       		.byte	0x2
 5486 0911 23       		.byte	0x23
 5487 0912 09       		.uleb128 0x9
 5488 0913 07       		.uleb128 0x7
 5489 0914 74746C00 		.ascii	"ttl\000"
 5490 0918 14       		.byte	0x14
 5491 0919 5B       		.byte	0x5b
 5492 091a BA040000 		.4byte	0x4ba
 5493 091e 02       		.byte	0x2
 5494 091f 23       		.byte	0x23
 5495 0920 0A       		.uleb128 0xa
ARM GAS  /tmp/ccPo84yg.s 			page 98


 5496 0921 00       		.byte	0
 5497 0922 09       		.uleb128 0x9
 5498 0923 04       		.byte	0x4
 5499 0924 CF080000 		.4byte	0x8cf
 5500 0928 05       		.uleb128 0x5
 5501 0929 BB040000 		.4byte	.LASF141
 5502 092d A4       		.byte	0xa4
 5503 092e 15       		.byte	0x15
 5504 092f A9       		.byte	0xa9
 5505 0930 370C0000 		.4byte	0xc37
 5506 0934 06       		.uleb128 0x6
 5507 0935 7F030000 		.4byte	.LASF138
 5508 0939 15       		.byte	0x15
 5509 093a AB       		.byte	0xab
 5510 093b 17050000 		.4byte	0x517
 5511 093f 02       		.byte	0x2
 5512 0940 23       		.byte	0x23
 5513 0941 00       		.uleb128 0
 5514 0942 06       		.uleb128 0x6
 5515 0943 FD0A0000 		.4byte	.LASF139
 5516 0947 15       		.byte	0x15
 5517 0948 AB       		.byte	0xab
 5518 0949 17050000 		.4byte	0x517
 5519 094d 02       		.byte	0x2
 5520 094e 23       		.byte	0x23
 5521 094f 04       		.uleb128 0x4
 5522 0950 06       		.uleb128 0x6
 5523 0951 F7000000 		.4byte	.LASF140
 5524 0955 15       		.byte	0x15
 5525 0956 AB       		.byte	0xab
 5526 0957 BA040000 		.4byte	0x4ba
 5527 095b 02       		.byte	0x2
 5528 095c 23       		.byte	0x23
 5529 095d 08       		.uleb128 0x8
 5530 095e 07       		.uleb128 0x7
 5531 095f 746F7300 		.ascii	"tos\000"
 5532 0963 15       		.byte	0x15
 5533 0964 AB       		.byte	0xab
 5534 0965 BA040000 		.4byte	0x4ba
 5535 0969 02       		.byte	0x2
 5536 096a 23       		.byte	0x23
 5537 096b 09       		.uleb128 0x9
 5538 096c 07       		.uleb128 0x7
 5539 096d 74746C00 		.ascii	"ttl\000"
 5540 0971 15       		.byte	0x15
 5541 0972 AB       		.byte	0xab
 5542 0973 BA040000 		.4byte	0x4ba
 5543 0977 02       		.byte	0x2
 5544 0978 23       		.byte	0x23
 5545 0979 0A       		.uleb128 0xa
 5546 097a 06       		.uleb128 0x6
 5547 097b 330E0000 		.4byte	.LASF98
 5548 097f 15       		.byte	0x15
 5549 0980 AD       		.byte	0xad
 5550 0981 370C0000 		.4byte	0xc37
 5551 0985 02       		.byte	0x2
 5552 0986 23       		.byte	0x23
ARM GAS  /tmp/ccPo84yg.s 			page 99


 5553 0987 0C       		.uleb128 0xc
 5554 0988 06       		.uleb128 0x6
 5555 0989 3A010000 		.4byte	.LASF128
 5556 098d 15       		.byte	0x15
 5557 098e AD       		.byte	0xad
 5558 098f 970E0000 		.4byte	0xe97
 5559 0993 02       		.byte	0x2
 5560 0994 23       		.byte	0x23
 5561 0995 10       		.uleb128 0x10
 5562 0996 06       		.uleb128 0x6
 5563 0997 A7010000 		.4byte	.LASF142
 5564 099b 15       		.byte	0x15
 5565 099c AD       		.byte	0xad
 5566 099d BA040000 		.4byte	0x4ba
 5567 09a1 02       		.byte	0x2
 5568 09a2 23       		.byte	0x23
 5569 09a3 11       		.uleb128 0x11
 5570 09a4 06       		.uleb128 0x6
 5571 09a5 2E0C0000 		.4byte	.LASF143
 5572 09a9 15       		.byte	0x15
 5573 09aa AD       		.byte	0xad
 5574 09ab B2020000 		.4byte	0x2b2
 5575 09af 02       		.byte	0x2
 5576 09b0 23       		.byte	0x23
 5577 09b1 14       		.uleb128 0x14
 5578 09b2 06       		.uleb128 0x6
 5579 09b3 750C0000 		.4byte	.LASF144
 5580 09b7 15       		.byte	0x15
 5581 09b8 AD       		.byte	0xad
 5582 09b9 BE0D0000 		.4byte	0xdbe
 5583 09bd 02       		.byte	0x2
 5584 09be 23       		.byte	0x23
 5585 09bf 18       		.uleb128 0x18
 5586 09c0 06       		.uleb128 0x6
 5587 09c1 70040000 		.4byte	.LASF145
 5588 09c5 15       		.byte	0x15
 5589 09c6 AD       		.byte	0xad
 5590 09c7 D0040000 		.4byte	0x4d0
 5591 09cb 02       		.byte	0x2
 5592 09cc 23       		.byte	0x23
 5593 09cd 1C       		.uleb128 0x1c
 5594 09ce 06       		.uleb128 0x6
 5595 09cf 80090000 		.4byte	.LASF146
 5596 09d3 15       		.byte	0x15
 5597 09d4 B0       		.byte	0xb0
 5598 09d5 D0040000 		.4byte	0x4d0
 5599 09d9 02       		.byte	0x2
 5600 09da 23       		.byte	0x23
 5601 09db 1E       		.uleb128 0x1e
 5602 09dc 06       		.uleb128 0x6
 5603 09dd A8040000 		.4byte	.LASF102
 5604 09e1 15       		.byte	0x15
 5605 09e2 B2       		.byte	0xb2
 5606 09e3 BA040000 		.4byte	0x4ba
 5607 09e7 02       		.byte	0x2
 5608 09e8 23       		.byte	0x23
 5609 09e9 20       		.uleb128 0x20
ARM GAS  /tmp/ccPo84yg.s 			page 100


 5610 09ea 06       		.uleb128 0x6
 5611 09eb F4070000 		.4byte	.LASF147
 5612 09ef 15       		.byte	0x15
 5613 09f0 BF       		.byte	0xbf
 5614 09f1 E6040000 		.4byte	0x4e6
 5615 09f5 02       		.byte	0x2
 5616 09f6 23       		.byte	0x23
 5617 09f7 24       		.uleb128 0x24
 5618 09f8 06       		.uleb128 0x6
 5619 09f9 EF000000 		.4byte	.LASF148
 5620 09fd 15       		.byte	0x15
 5621 09fe C0       		.byte	0xc0
 5622 09ff D0040000 		.4byte	0x4d0
 5623 0a03 02       		.byte	0x2
 5624 0a04 23       		.byte	0x23
 5625 0a05 28       		.uleb128 0x28
 5626 0a06 06       		.uleb128 0x6
 5627 0a07 7C000000 		.4byte	.LASF149
 5628 0a0b 15       		.byte	0x15
 5629 0a0c C1       		.byte	0xc1
 5630 0a0d D0040000 		.4byte	0x4d0
 5631 0a11 02       		.byte	0x2
 5632 0a12 23       		.byte	0x23
 5633 0a13 2A       		.uleb128 0x2a
 5634 0a14 06       		.uleb128 0x6
 5635 0a15 87050000 		.4byte	.LASF150
 5636 0a19 15       		.byte	0x15
 5637 0a1a C2       		.byte	0xc2
 5638 0a1b E6040000 		.4byte	0x4e6
 5639 0a1f 02       		.byte	0x2
 5640 0a20 23       		.byte	0x23
 5641 0a21 2C       		.uleb128 0x2c
 5642 0a22 07       		.uleb128 0x7
 5643 0a23 746D7200 		.ascii	"tmr\000"
 5644 0a27 15       		.byte	0x15
 5645 0a28 C5       		.byte	0xc5
 5646 0a29 E6040000 		.4byte	0x4e6
 5647 0a2d 02       		.byte	0x2
 5648 0a2e 23       		.byte	0x23
 5649 0a2f 30       		.uleb128 0x30
 5650 0a30 06       		.uleb128 0x6
 5651 0a31 B4010000 		.4byte	.LASF151
 5652 0a35 15       		.byte	0x15
 5653 0a36 C6       		.byte	0xc6
 5654 0a37 BA040000 		.4byte	0x4ba
 5655 0a3b 02       		.byte	0x2
 5656 0a3c 23       		.byte	0x23
 5657 0a3d 34       		.uleb128 0x34
 5658 0a3e 06       		.uleb128 0x6
 5659 0a3f 98070000 		.4byte	.LASF152
 5660 0a43 15       		.byte	0x15
 5661 0a44 C6       		.byte	0xc6
 5662 0a45 BA040000 		.4byte	0x4ba
 5663 0a49 02       		.byte	0x2
 5664 0a4a 23       		.byte	0x23
 5665 0a4b 35       		.uleb128 0x35
 5666 0a4c 06       		.uleb128 0x6
ARM GAS  /tmp/ccPo84yg.s 			page 101


 5667 0a4d 67080000 		.4byte	.LASF153
 5668 0a51 15       		.byte	0x15
 5669 0a52 C9       		.byte	0xc9
 5670 0a53 DB040000 		.4byte	0x4db
 5671 0a57 02       		.byte	0x2
 5672 0a58 23       		.byte	0x23
 5673 0a59 36       		.uleb128 0x36
 5674 0a5a 07       		.uleb128 0x7
 5675 0a5b 6D737300 		.ascii	"mss\000"
 5676 0a5f 15       		.byte	0x15
 5677 0a60 CB       		.byte	0xcb
 5678 0a61 D0040000 		.4byte	0x4d0
 5679 0a65 02       		.byte	0x2
 5680 0a66 23       		.byte	0x23
 5681 0a67 38       		.uleb128 0x38
 5682 0a68 06       		.uleb128 0x6
 5683 0a69 E1040000 		.4byte	.LASF154
 5684 0a6d 15       		.byte	0x15
 5685 0a6e CE       		.byte	0xce
 5686 0a6f E6040000 		.4byte	0x4e6
 5687 0a73 02       		.byte	0x2
 5688 0a74 23       		.byte	0x23
 5689 0a75 3C       		.uleb128 0x3c
 5690 0a76 06       		.uleb128 0x6
 5691 0a77 BC050000 		.4byte	.LASF155
 5692 0a7b 15       		.byte	0x15
 5693 0a7c CF       		.byte	0xcf
 5694 0a7d E6040000 		.4byte	0x4e6
 5695 0a81 02       		.byte	0x2
 5696 0a82 23       		.byte	0x23
 5697 0a83 40       		.uleb128 0x40
 5698 0a84 07       		.uleb128 0x7
 5699 0a85 736100   		.ascii	"sa\000"
 5700 0a88 15       		.byte	0x15
 5701 0a89 D0       		.byte	0xd0
 5702 0a8a DB040000 		.4byte	0x4db
 5703 0a8e 02       		.byte	0x2
 5704 0a8f 23       		.byte	0x23
 5705 0a90 44       		.uleb128 0x44
 5706 0a91 07       		.uleb128 0x7
 5707 0a92 737600   		.ascii	"sv\000"
 5708 0a95 15       		.byte	0x15
 5709 0a96 D0       		.byte	0xd0
 5710 0a97 DB040000 		.4byte	0x4db
 5711 0a9b 02       		.byte	0x2
 5712 0a9c 23       		.byte	0x23
 5713 0a9d 46       		.uleb128 0x46
 5714 0a9e 07       		.uleb128 0x7
 5715 0a9f 72746F00 		.ascii	"rto\000"
 5716 0aa3 15       		.byte	0x15
 5717 0aa4 D2       		.byte	0xd2
 5718 0aa5 DB040000 		.4byte	0x4db
 5719 0aa9 02       		.byte	0x2
 5720 0aaa 23       		.byte	0x23
 5721 0aab 48       		.uleb128 0x48
 5722 0aac 06       		.uleb128 0x6
 5723 0aad B1060000 		.4byte	.LASF156
ARM GAS  /tmp/ccPo84yg.s 			page 102


 5724 0ab1 15       		.byte	0x15
 5725 0ab2 D3       		.byte	0xd3
 5726 0ab3 BA040000 		.4byte	0x4ba
 5727 0ab7 02       		.byte	0x2
 5728 0ab8 23       		.byte	0x23
 5729 0ab9 4A       		.uleb128 0x4a
 5730 0aba 06       		.uleb128 0x6
 5731 0abb CF060000 		.4byte	.LASF157
 5732 0abf 15       		.byte	0x15
 5733 0ac0 D6       		.byte	0xd6
 5734 0ac1 E6040000 		.4byte	0x4e6
 5735 0ac5 02       		.byte	0x2
 5736 0ac6 23       		.byte	0x23
 5737 0ac7 4C       		.uleb128 0x4c
 5738 0ac8 06       		.uleb128 0x6
 5739 0ac9 E90C0000 		.4byte	.LASF158
 5740 0acd 15       		.byte	0x15
 5741 0ace D7       		.byte	0xd7
 5742 0acf BA040000 		.4byte	0x4ba
 5743 0ad3 02       		.byte	0x2
 5744 0ad4 23       		.byte	0x23
 5745 0ad5 50       		.uleb128 0x50
 5746 0ad6 06       		.uleb128 0x6
 5747 0ad7 EC090000 		.4byte	.LASF159
 5748 0adb 15       		.byte	0x15
 5749 0adc DA       		.byte	0xda
 5750 0add D0040000 		.4byte	0x4d0
 5751 0ae1 02       		.byte	0x2
 5752 0ae2 23       		.byte	0x23
 5753 0ae3 52       		.uleb128 0x52
 5754 0ae4 06       		.uleb128 0x6
 5755 0ae5 54010000 		.4byte	.LASF160
 5756 0ae9 15       		.byte	0x15
 5757 0aea DB       		.byte	0xdb
 5758 0aeb D0040000 		.4byte	0x4d0
 5759 0aef 02       		.byte	0x2
 5760 0af0 23       		.byte	0x23
 5761 0af1 54       		.uleb128 0x54
 5762 0af2 06       		.uleb128 0x6
 5763 0af3 D7060000 		.4byte	.LASF161
 5764 0af7 15       		.byte	0x15
 5765 0af8 DE       		.byte	0xde
 5766 0af9 E6040000 		.4byte	0x4e6
 5767 0afd 02       		.byte	0x2
 5768 0afe 23       		.byte	0x23
 5769 0aff 58       		.uleb128 0x58
 5770 0b00 06       		.uleb128 0x6
 5771 0b01 070E0000 		.4byte	.LASF162
 5772 0b05 15       		.byte	0x15
 5773 0b06 DF       		.byte	0xdf
 5774 0b07 D0040000 		.4byte	0x4d0
 5775 0b0b 02       		.byte	0x2
 5776 0b0c 23       		.byte	0x23
 5777 0b0d 5C       		.uleb128 0x5c
 5778 0b0e 06       		.uleb128 0x6
 5779 0b0f C40C0000 		.4byte	.LASF163
 5780 0b13 15       		.byte	0x15
ARM GAS  /tmp/ccPo84yg.s 			page 103


 5781 0b14 E0       		.byte	0xe0
 5782 0b15 E6040000 		.4byte	0x4e6
 5783 0b19 02       		.byte	0x2
 5784 0b1a 23       		.byte	0x23
 5785 0b1b 60       		.uleb128 0x60
 5786 0b1c 06       		.uleb128 0x6
 5787 0b1d CC0C0000 		.4byte	.LASF164
 5788 0b21 15       		.byte	0x15
 5789 0b22 E0       		.byte	0xe0
 5790 0b23 E6040000 		.4byte	0x4e6
 5791 0b27 02       		.byte	0x2
 5792 0b28 23       		.byte	0x23
 5793 0b29 64       		.uleb128 0x64
 5794 0b2a 06       		.uleb128 0x6
 5795 0b2b 29050000 		.4byte	.LASF165
 5796 0b2f 15       		.byte	0x15
 5797 0b30 E2       		.byte	0xe2
 5798 0b31 E6040000 		.4byte	0x4e6
 5799 0b35 02       		.byte	0x2
 5800 0b36 23       		.byte	0x23
 5801 0b37 68       		.uleb128 0x68
 5802 0b38 06       		.uleb128 0x6
 5803 0b39 920B0000 		.4byte	.LASF166
 5804 0b3d 15       		.byte	0x15
 5805 0b3e E4       		.byte	0xe4
 5806 0b3f D0040000 		.4byte	0x4d0
 5807 0b43 02       		.byte	0x2
 5808 0b44 23       		.byte	0x23
 5809 0b45 6C       		.uleb128 0x6c
 5810 0b46 06       		.uleb128 0x6
 5811 0b47 F80D0000 		.4byte	.LASF167
 5812 0b4b 15       		.byte	0x15
 5813 0b4c E6       		.byte	0xe6
 5814 0b4d D0040000 		.4byte	0x4d0
 5815 0b51 02       		.byte	0x2
 5816 0b52 23       		.byte	0x23
 5817 0b53 6E       		.uleb128 0x6e
 5818 0b54 06       		.uleb128 0x6
 5819 0b55 370A0000 		.4byte	.LASF168
 5820 0b59 15       		.byte	0x15
 5821 0b5a E8       		.byte	0xe8
 5822 0b5b D0040000 		.4byte	0x4d0
 5823 0b5f 02       		.byte	0x2
 5824 0b60 23       		.byte	0x23
 5825 0b61 70       		.uleb128 0x70
 5826 0b62 06       		.uleb128 0x6
 5827 0b63 C50A0000 		.4byte	.LASF169
 5828 0b67 15       		.byte	0x15
 5829 0b68 EC       		.byte	0xec
 5830 0b69 D0040000 		.4byte	0x4d0
 5831 0b6d 02       		.byte	0x2
 5832 0b6e 23       		.byte	0x23
 5833 0b6f 72       		.uleb128 0x72
 5834 0b70 06       		.uleb128 0x6
 5835 0b71 950A0000 		.4byte	.LASF170
 5836 0b75 15       		.byte	0x15
 5837 0b76 F0       		.byte	0xf0
ARM GAS  /tmp/ccPo84yg.s 			page 104


 5838 0b77 EC0E0000 		.4byte	0xeec
 5839 0b7b 02       		.byte	0x2
 5840 0b7c 23       		.byte	0x23
 5841 0b7d 74       		.uleb128 0x74
 5842 0b7e 06       		.uleb128 0x6
 5843 0b7f 1E0C0000 		.4byte	.LASF171
 5844 0b83 15       		.byte	0x15
 5845 0b84 F1       		.byte	0xf1
 5846 0b85 EC0E0000 		.4byte	0xeec
 5847 0b89 02       		.byte	0x2
 5848 0b8a 23       		.byte	0x23
 5849 0b8b 78       		.uleb128 0x78
 5850 0b8c 06       		.uleb128 0x6
 5851 0b8d 710E0000 		.4byte	.LASF172
 5852 0b91 15       		.byte	0x15
 5853 0b92 F3       		.byte	0xf3
 5854 0b93 EC0E0000 		.4byte	0xeec
 5855 0b97 02       		.byte	0x2
 5856 0b98 23       		.byte	0x23
 5857 0b99 7C       		.uleb128 0x7c
 5858 0b9a 06       		.uleb128 0x6
 5859 0b9b 020A0000 		.4byte	.LASF173
 5860 0b9f 15       		.byte	0x15
 5861 0ba0 F6       		.byte	0xf6
 5862 0ba1 C6060000 		.4byte	0x6c6
 5863 0ba5 03       		.byte	0x3
 5864 0ba6 23       		.byte	0x23
 5865 0ba7 8001     		.uleb128 0x80
 5866 0ba9 06       		.uleb128 0x6
 5867 0baa 11070000 		.4byte	.LASF174
 5868 0bae 15       		.byte	0x15
 5869 0baf FA       		.byte	0xfa
 5870 0bb0 190E0000 		.4byte	0xe19
 5871 0bb4 03       		.byte	0x3
 5872 0bb5 23       		.byte	0x23
 5873 0bb6 8401     		.uleb128 0x84
 5874 0bb8 06       		.uleb128 0x6
 5875 0bb9 A3080000 		.4byte	.LASF175
 5876 0bbd 15       		.byte	0x15
 5877 0bbe FC       		.byte	0xfc
 5878 0bbf E90D0000 		.4byte	0xde9
 5879 0bc3 03       		.byte	0x3
 5880 0bc4 23       		.byte	0x23
 5881 0bc5 8801     		.uleb128 0x88
 5882 0bc7 06       		.uleb128 0x6
 5883 0bc8 4C0E0000 		.4byte	.LASF176
 5884 0bcc 15       		.byte	0x15
 5885 0bcd FE       		.byte	0xfe
 5886 0bce 8C0E0000 		.4byte	0xe8c
 5887 0bd2 03       		.byte	0x3
 5888 0bd3 23       		.byte	0x23
 5889 0bd4 8C01     		.uleb128 0x8c
 5890 0bd6 15       		.uleb128 0x15
 5891 0bd7 4A080000 		.4byte	.LASF177
 5892 0bdb 15       		.byte	0x15
 5893 0bdc 0001     		.2byte	0x100
 5894 0bde 440E0000 		.4byte	0xe44
ARM GAS  /tmp/ccPo84yg.s 			page 105


 5895 0be2 03       		.byte	0x3
 5896 0be3 23       		.byte	0x23
 5897 0be4 9001     		.uleb128 0x90
 5898 0be6 15       		.uleb128 0x15
 5899 0be7 560C0000 		.4byte	.LASF178
 5900 0beb 15       		.byte	0x15
 5901 0bec 0201     		.2byte	0x102
 5902 0bee 6A0E0000 		.4byte	0xe6a
 5903 0bf2 03       		.byte	0x3
 5904 0bf3 23       		.byte	0x23
 5905 0bf4 9401     		.uleb128 0x94
 5906 0bf6 15       		.uleb128 0x15
 5907 0bf7 AB0B0000 		.4byte	.LASF179
 5908 0bfb 15       		.byte	0x15
 5909 0bfc 0B01     		.2byte	0x10b
 5910 0bfe E6040000 		.4byte	0x4e6
 5911 0c02 03       		.byte	0x3
 5912 0c03 23       		.byte	0x23
 5913 0c04 9801     		.uleb128 0x98
 5914 0c06 15       		.uleb128 0x15
 5915 0c07 61050000 		.4byte	.LASF180
 5916 0c0b 15       		.byte	0x15
 5917 0c0c 1201     		.2byte	0x112
 5918 0c0e E6040000 		.4byte	0x4e6
 5919 0c12 03       		.byte	0x3
 5920 0c13 23       		.byte	0x23
 5921 0c14 9C01     		.uleb128 0x9c
 5922 0c16 15       		.uleb128 0x15
 5923 0c17 9D090000 		.4byte	.LASF181
 5924 0c1b 15       		.byte	0x15
 5925 0c1c 1401     		.2byte	0x114
 5926 0c1e BA040000 		.4byte	0x4ba
 5927 0c22 03       		.byte	0x3
 5928 0c23 23       		.byte	0x23
 5929 0c24 A001     		.uleb128 0xa0
 5930 0c26 15       		.uleb128 0x15
 5931 0c27 3A030000 		.4byte	.LASF182
 5932 0c2b 15       		.byte	0x15
 5933 0c2c 1701     		.2byte	0x117
 5934 0c2e BA040000 		.4byte	0x4ba
 5935 0c32 03       		.byte	0x3
 5936 0c33 23       		.byte	0x23
 5937 0c34 A101     		.uleb128 0xa1
 5938 0c36 00       		.byte	0
 5939 0c37 09       		.uleb128 0x9
 5940 0c38 04       		.byte	0x4
 5941 0c39 28090000 		.4byte	0x928
 5942 0c3d 05       		.uleb128 0x5
 5943 0c3e 5A040000 		.4byte	.LASF183
 5944 0c42 20       		.byte	0x20
 5945 0c43 16       		.byte	0x16
 5946 0c44 5B       		.byte	0x5b
 5947 0c45 E40C0000 		.4byte	0xce4
 5948 0c49 06       		.uleb128 0x6
 5949 0c4a 7F030000 		.4byte	.LASF138
 5950 0c4e 16       		.byte	0x16
 5951 0c4f 5D       		.byte	0x5d
ARM GAS  /tmp/ccPo84yg.s 			page 106


 5952 0c50 17050000 		.4byte	0x517
 5953 0c54 02       		.byte	0x2
 5954 0c55 23       		.byte	0x23
 5955 0c56 00       		.uleb128 0
 5956 0c57 06       		.uleb128 0x6
 5957 0c58 FD0A0000 		.4byte	.LASF139
 5958 0c5c 16       		.byte	0x16
 5959 0c5d 5D       		.byte	0x5d
 5960 0c5e 17050000 		.4byte	0x517
 5961 0c62 02       		.byte	0x2
 5962 0c63 23       		.byte	0x23
 5963 0c64 04       		.uleb128 0x4
 5964 0c65 06       		.uleb128 0x6
 5965 0c66 F7000000 		.4byte	.LASF140
 5966 0c6a 16       		.byte	0x16
 5967 0c6b 5D       		.byte	0x5d
 5968 0c6c BA040000 		.4byte	0x4ba
 5969 0c70 02       		.byte	0x2
 5970 0c71 23       		.byte	0x23
 5971 0c72 08       		.uleb128 0x8
 5972 0c73 07       		.uleb128 0x7
 5973 0c74 746F7300 		.ascii	"tos\000"
 5974 0c78 16       		.byte	0x16
 5975 0c79 5D       		.byte	0x5d
 5976 0c7a BA040000 		.4byte	0x4ba
 5977 0c7e 02       		.byte	0x2
 5978 0c7f 23       		.byte	0x23
 5979 0c80 09       		.uleb128 0x9
 5980 0c81 07       		.uleb128 0x7
 5981 0c82 74746C00 		.ascii	"ttl\000"
 5982 0c86 16       		.byte	0x16
 5983 0c87 5D       		.byte	0x5d
 5984 0c88 BA040000 		.4byte	0x4ba
 5985 0c8c 02       		.byte	0x2
 5986 0c8d 23       		.byte	0x23
 5987 0c8e 0A       		.uleb128 0xa
 5988 0c8f 06       		.uleb128 0x6
 5989 0c90 330E0000 		.4byte	.LASF98
 5990 0c94 16       		.byte	0x16
 5991 0c95 61       		.byte	0x61
 5992 0c96 E40C0000 		.4byte	0xce4
 5993 0c9a 02       		.byte	0x2
 5994 0c9b 23       		.byte	0x23
 5995 0c9c 0C       		.uleb128 0xc
 5996 0c9d 06       		.uleb128 0x6
 5997 0c9e A8040000 		.4byte	.LASF102
 5998 0ca2 16       		.byte	0x16
 5999 0ca3 63       		.byte	0x63
 6000 0ca4 BA040000 		.4byte	0x4ba
 6001 0ca8 02       		.byte	0x2
 6002 0ca9 23       		.byte	0x23
 6003 0caa 10       		.uleb128 0x10
 6004 0cab 06       		.uleb128 0x6
 6005 0cac 70040000 		.4byte	.LASF145
 6006 0cb0 16       		.byte	0x16
 6007 0cb1 65       		.byte	0x65
 6008 0cb2 D0040000 		.4byte	0x4d0
ARM GAS  /tmp/ccPo84yg.s 			page 107


 6009 0cb6 02       		.byte	0x2
 6010 0cb7 23       		.byte	0x23
 6011 0cb8 12       		.uleb128 0x12
 6012 0cb9 06       		.uleb128 0x6
 6013 0cba 80090000 		.4byte	.LASF146
 6014 0cbe 16       		.byte	0x16
 6015 0cbf 65       		.byte	0x65
 6016 0cc0 D0040000 		.4byte	0x4d0
 6017 0cc4 02       		.byte	0x2
 6018 0cc5 23       		.byte	0x23
 6019 0cc6 14       		.uleb128 0x14
 6020 0cc7 06       		.uleb128 0x6
 6021 0cc8 A3080000 		.4byte	.LASF175
 6022 0ccc 16       		.byte	0x16
 6023 0ccd 72       		.byte	0x72
 6024 0cce 220F0000 		.4byte	0xf22
 6025 0cd2 02       		.byte	0x2
 6026 0cd3 23       		.byte	0x23
 6027 0cd4 18       		.uleb128 0x18
 6028 0cd5 06       		.uleb128 0x6
 6029 0cd6 6E0A0000 		.4byte	.LASF184
 6030 0cda 16       		.byte	0x16
 6031 0cdb 74       		.byte	0x74
 6032 0cdc B2020000 		.4byte	0x2b2
 6033 0ce0 02       		.byte	0x2
 6034 0ce1 23       		.byte	0x23
 6035 0ce2 1C       		.uleb128 0x1c
 6036 0ce3 00       		.byte	0
 6037 0ce4 09       		.uleb128 0x9
 6038 0ce5 04       		.byte	0x4
 6039 0ce6 3D0C0000 		.4byte	0xc3d
 6040 0cea 05       		.uleb128 0x5
 6041 0ceb 190D0000 		.4byte	.LASF185
 6042 0cef 1C       		.byte	0x1c
 6043 0cf0 17       		.byte	0x17
 6044 0cf1 3F       		.byte	0x3f
 6045 0cf2 750D0000 		.4byte	0xd75
 6046 0cf6 06       		.uleb128 0x6
 6047 0cf7 7F030000 		.4byte	.LASF138
 6048 0cfb 17       		.byte	0x17
 6049 0cfc 41       		.byte	0x41
 6050 0cfd 17050000 		.4byte	0x517
 6051 0d01 02       		.byte	0x2
 6052 0d02 23       		.byte	0x23
 6053 0d03 00       		.uleb128 0
 6054 0d04 06       		.uleb128 0x6
 6055 0d05 FD0A0000 		.4byte	.LASF139
 6056 0d09 17       		.byte	0x17
 6057 0d0a 41       		.byte	0x41
 6058 0d0b 17050000 		.4byte	0x517
 6059 0d0f 02       		.byte	0x2
 6060 0d10 23       		.byte	0x23
 6061 0d11 04       		.uleb128 0x4
 6062 0d12 06       		.uleb128 0x6
 6063 0d13 F7000000 		.4byte	.LASF140
 6064 0d17 17       		.byte	0x17
 6065 0d18 41       		.byte	0x41
ARM GAS  /tmp/ccPo84yg.s 			page 108


 6066 0d19 BA040000 		.4byte	0x4ba
 6067 0d1d 02       		.byte	0x2
 6068 0d1e 23       		.byte	0x23
 6069 0d1f 08       		.uleb128 0x8
 6070 0d20 07       		.uleb128 0x7
 6071 0d21 746F7300 		.ascii	"tos\000"
 6072 0d25 17       		.byte	0x17
 6073 0d26 41       		.byte	0x41
 6074 0d27 BA040000 		.4byte	0x4ba
 6075 0d2b 02       		.byte	0x2
 6076 0d2c 23       		.byte	0x23
 6077 0d2d 09       		.uleb128 0x9
 6078 0d2e 07       		.uleb128 0x7
 6079 0d2f 74746C00 		.ascii	"ttl\000"
 6080 0d33 17       		.byte	0x17
 6081 0d34 41       		.byte	0x41
 6082 0d35 BA040000 		.4byte	0x4ba
 6083 0d39 02       		.byte	0x2
 6084 0d3a 23       		.byte	0x23
 6085 0d3b 0A       		.uleb128 0xa
 6086 0d3c 06       		.uleb128 0x6
 6087 0d3d 330E0000 		.4byte	.LASF98
 6088 0d41 17       		.byte	0x17
 6089 0d42 43       		.byte	0x43
 6090 0d43 750D0000 		.4byte	0xd75
 6091 0d47 02       		.byte	0x2
 6092 0d48 23       		.byte	0x23
 6093 0d49 0C       		.uleb128 0xc
 6094 0d4a 06       		.uleb128 0x6
 6095 0d4b 08070000 		.4byte	.LASF186
 6096 0d4f 17       		.byte	0x17
 6097 0d50 45       		.byte	0x45
 6098 0d51 BA040000 		.4byte	0x4ba
 6099 0d55 02       		.byte	0x2
 6100 0d56 23       		.byte	0x23
 6101 0d57 10       		.uleb128 0x10
 6102 0d58 06       		.uleb128 0x6
 6103 0d59 A3080000 		.4byte	.LASF175
 6104 0d5d 17       		.byte	0x17
 6105 0d5e 48       		.byte	0x48
 6106 0d5f F20E0000 		.4byte	0xef2
 6107 0d63 02       		.byte	0x2
 6108 0d64 23       		.byte	0x23
 6109 0d65 14       		.uleb128 0x14
 6110 0d66 06       		.uleb128 0x6
 6111 0d67 6E0A0000 		.4byte	.LASF184
 6112 0d6b 17       		.byte	0x17
 6113 0d6c 4A       		.byte	0x4a
 6114 0d6d B2020000 		.4byte	0x2b2
 6115 0d71 02       		.byte	0x2
 6116 0d72 23       		.byte	0x23
 6117 0d73 18       		.uleb128 0x18
 6118 0d74 00       		.byte	0
 6119 0d75 09       		.uleb128 0x9
 6120 0d76 04       		.byte	0x4
 6121 0d77 EA0C0000 		.4byte	0xcea
 6122 0d7b 05       		.uleb128 0x5
ARM GAS  /tmp/ccPo84yg.s 			page 109


 6123 0d7c F10A0000 		.4byte	.LASF187
 6124 0d80 14       		.byte	0x14
 6125 0d81 18       		.byte	0x18
 6126 0d82 3E       		.byte	0x3e
 6127 0d83 B20D0000 		.4byte	0xdb2
 6128 0d87 06       		.uleb128 0x6
 6129 0d88 88010000 		.4byte	.LASF188
 6130 0d8c 18       		.byte	0x18
 6131 0d8d 41       		.byte	0x41
 6132 0d8e E0070000 		.4byte	0x7e0
 6133 0d92 02       		.byte	0x2
 6134 0d93 23       		.byte	0x23
 6135 0d94 00       		.uleb128 0
 6136 0d95 07       		.uleb128 0x7
 6137 0d96 65727200 		.ascii	"err\000"
 6138 0d9a 18       		.byte	0x18
 6139 0d9b 43       		.byte	0x43
 6140 0d9c 4C060000 		.4byte	0x64c
 6141 0da0 02       		.byte	0x2
 6142 0da1 23       		.byte	0x23
 6143 0da2 04       		.uleb128 0x4
 6144 0da3 07       		.uleb128 0x7
 6145 0da4 6D736700 		.ascii	"msg\000"
 6146 0da8 18       		.byte	0x18
 6147 0da9 72       		.byte	0x72
 6148 0daa 30100000 		.4byte	0x1030
 6149 0dae 02       		.byte	0x2
 6150 0daf 23       		.byte	0x23
 6151 0db0 08       		.uleb128 0x8
 6152 0db1 00       		.byte	0
 6153 0db2 09       		.uleb128 0x9
 6154 0db3 04       		.byte	0x4
 6155 0db4 7B0D0000 		.4byte	0xd7b
 6156 0db8 09       		.uleb128 0x9
 6157 0db9 04       		.byte	0x4
 6158 0dba 17050000 		.4byte	0x517
 6159 0dbe 03       		.uleb128 0x3
 6160 0dbf 1E0E0000 		.4byte	.LASF189
 6161 0dc3 15       		.byte	0x15
 6162 0dc4 3D       		.byte	0x3d
 6163 0dc5 C90D0000 		.4byte	0xdc9
 6164 0dc9 09       		.uleb128 0x9
 6165 0dca 04       		.byte	0x4
 6166 0dcb CF0D0000 		.4byte	0xdcf
 6167 0dcf 1A       		.uleb128 0x1a
 6168 0dd0 01       		.byte	0x1
 6169 0dd1 4C060000 		.4byte	0x64c
 6170 0dd5 E90D0000 		.4byte	0xde9
 6171 0dd9 0E       		.uleb128 0xe
 6172 0dda B2020000 		.4byte	0x2b2
 6173 0dde 0E       		.uleb128 0xe
 6174 0ddf 370C0000 		.4byte	0xc37
 6175 0de3 0E       		.uleb128 0xe
 6176 0de4 4C060000 		.4byte	0x64c
 6177 0de8 00       		.byte	0
 6178 0de9 03       		.uleb128 0x3
 6179 0dea AB0C0000 		.4byte	.LASF190
ARM GAS  /tmp/ccPo84yg.s 			page 110


 6180 0dee 15       		.byte	0x15
 6181 0def 49       		.byte	0x49
 6182 0df0 F40D0000 		.4byte	0xdf4
 6183 0df4 09       		.uleb128 0x9
 6184 0df5 04       		.byte	0x4
 6185 0df6 FA0D0000 		.4byte	0xdfa
 6186 0dfa 1A       		.uleb128 0x1a
 6187 0dfb 01       		.byte	0x1
 6188 0dfc 4C060000 		.4byte	0x64c
 6189 0e00 190E0000 		.4byte	0xe19
 6190 0e04 0E       		.uleb128 0xe
 6191 0e05 B2020000 		.4byte	0x2b2
 6192 0e09 0E       		.uleb128 0xe
 6193 0e0a 370C0000 		.4byte	0xc37
 6194 0e0e 0E       		.uleb128 0xe
 6195 0e0f C6060000 		.4byte	0x6c6
 6196 0e13 0E       		.uleb128 0xe
 6197 0e14 4C060000 		.4byte	0x64c
 6198 0e18 00       		.byte	0
 6199 0e19 03       		.uleb128 0x3
 6200 0e1a CE020000 		.4byte	.LASF191
 6201 0e1e 15       		.byte	0x15
 6202 0e1f 57       		.byte	0x57
 6203 0e20 240E0000 		.4byte	0xe24
 6204 0e24 09       		.uleb128 0x9
 6205 0e25 04       		.byte	0x4
 6206 0e26 2A0E0000 		.4byte	0xe2a
 6207 0e2a 1A       		.uleb128 0x1a
 6208 0e2b 01       		.byte	0x1
 6209 0e2c 4C060000 		.4byte	0x64c
 6210 0e30 440E0000 		.4byte	0xe44
 6211 0e34 0E       		.uleb128 0xe
 6212 0e35 B2020000 		.4byte	0x2b2
 6213 0e39 0E       		.uleb128 0xe
 6214 0e3a 370C0000 		.4byte	0xc37
 6215 0e3e 0E       		.uleb128 0xe
 6216 0e3f D0040000 		.4byte	0x4d0
 6217 0e43 00       		.byte	0
 6218 0e44 03       		.uleb128 0x3
 6219 0e45 7C060000 		.4byte	.LASF192
 6220 0e49 15       		.byte	0x15
 6221 0e4a 63       		.byte	0x63
 6222 0e4b 4F0E0000 		.4byte	0xe4f
 6223 0e4f 09       		.uleb128 0x9
 6224 0e50 04       		.byte	0x4
 6225 0e51 550E0000 		.4byte	0xe55
 6226 0e55 1A       		.uleb128 0x1a
 6227 0e56 01       		.byte	0x1
 6228 0e57 4C060000 		.4byte	0x64c
 6229 0e5b 6A0E0000 		.4byte	0xe6a
 6230 0e5f 0E       		.uleb128 0xe
 6231 0e60 B2020000 		.4byte	0x2b2
 6232 0e64 0E       		.uleb128 0xe
 6233 0e65 370C0000 		.4byte	0xc37
 6234 0e69 00       		.byte	0
 6235 0e6a 03       		.uleb128 0x3
 6236 0e6b 11030000 		.4byte	.LASF193
ARM GAS  /tmp/ccPo84yg.s 			page 111


 6237 0e6f 15       		.byte	0x15
 6238 0e70 6F       		.byte	0x6f
 6239 0e71 750E0000 		.4byte	0xe75
 6240 0e75 09       		.uleb128 0x9
 6241 0e76 04       		.byte	0x4
 6242 0e77 7B0E0000 		.4byte	0xe7b
 6243 0e7b 0D       		.uleb128 0xd
 6244 0e7c 01       		.byte	0x1
 6245 0e7d 8C0E0000 		.4byte	0xe8c
 6246 0e81 0E       		.uleb128 0xe
 6247 0e82 B2020000 		.4byte	0x2b2
 6248 0e86 0E       		.uleb128 0xe
 6249 0e87 4C060000 		.4byte	0x64c
 6250 0e8b 00       		.byte	0
 6251 0e8c 03       		.uleb128 0x3
 6252 0e8d 4B090000 		.4byte	.LASF194
 6253 0e91 15       		.byte	0x15
 6254 0e92 7D       		.byte	0x7d
 6255 0e93 C90D0000 		.4byte	0xdc9
 6256 0e97 17       		.uleb128 0x17
 6257 0e98 8D010000 		.4byte	.LASF195
 6258 0e9c 01       		.byte	0x1
 6259 0e9d 15       		.byte	0x15
 6260 0e9e 7F       		.byte	0x7f
 6261 0e9f E60E0000 		.4byte	0xee6
 6262 0ea3 18       		.uleb128 0x18
 6263 0ea4 DB0C0000 		.4byte	.LASF196
 6264 0ea8 00       		.sleb128 0
 6265 0ea9 18       		.uleb128 0x18
 6266 0eaa 33010000 		.4byte	.LASF197
 6267 0eae 01       		.sleb128 1
 6268 0eaf 18       		.uleb128 0x18
 6269 0eb0 F3030000 		.4byte	.LASF198
 6270 0eb4 02       		.sleb128 2
 6271 0eb5 18       		.uleb128 0x18
 6272 0eb6 7F080000 		.4byte	.LASF199
 6273 0eba 03       		.sleb128 3
 6274 0ebb 18       		.uleb128 0x18
 6275 0ebc 96020000 		.4byte	.LASF200
 6276 0ec0 04       		.sleb128 4
 6277 0ec1 18       		.uleb128 0x18
 6278 0ec2 C7030000 		.4byte	.LASF201
 6279 0ec6 05       		.sleb128 5
 6280 0ec7 18       		.uleb128 0x18
 6281 0ec8 D2030000 		.4byte	.LASF202
 6282 0ecc 06       		.sleb128 6
 6283 0ecd 18       		.uleb128 0x18
 6284 0ece 6D050000 		.4byte	.LASF203
 6285 0ed2 07       		.sleb128 7
 6286 0ed3 18       		.uleb128 0x18
 6287 0ed4 F00D0000 		.4byte	.LASF204
 6288 0ed8 08       		.sleb128 8
 6289 0ed9 18       		.uleb128 0x18
 6290 0eda 19040000 		.4byte	.LASF205
 6291 0ede 09       		.sleb128 9
 6292 0edf 18       		.uleb128 0x18
 6293 0ee0 7E010000 		.4byte	.LASF206
ARM GAS  /tmp/ccPo84yg.s 			page 112


 6294 0ee4 0A       		.sleb128 10
 6295 0ee5 00       		.byte	0
 6296 0ee6 1B       		.uleb128 0x1b
 6297 0ee7 440E0000 		.4byte	.LASF342
 6298 0eeb 01       		.byte	0x1
 6299 0eec 09       		.uleb128 0x9
 6300 0eed 04       		.byte	0x4
 6301 0eee E60E0000 		.4byte	0xee6
 6302 0ef2 03       		.uleb128 0x3
 6303 0ef3 B5020000 		.4byte	.LASF207
 6304 0ef7 17       		.byte	0x17
 6305 0ef8 3C       		.byte	0x3c
 6306 0ef9 FD0E0000 		.4byte	0xefd
 6307 0efd 09       		.uleb128 0x9
 6308 0efe 04       		.byte	0x4
 6309 0eff 030F0000 		.4byte	0xf03
 6310 0f03 1A       		.uleb128 0x1a
 6311 0f04 01       		.byte	0x1
 6312 0f05 BA040000 		.4byte	0x4ba
 6313 0f09 220F0000 		.4byte	0xf22
 6314 0f0d 0E       		.uleb128 0xe
 6315 0f0e B2020000 		.4byte	0x2b2
 6316 0f12 0E       		.uleb128 0xe
 6317 0f13 750D0000 		.4byte	0xd75
 6318 0f17 0E       		.uleb128 0xe
 6319 0f18 C6060000 		.4byte	0x6c6
 6320 0f1c 0E       		.uleb128 0xe
 6321 0f1d B80D0000 		.4byte	0xdb8
 6322 0f21 00       		.byte	0
 6323 0f22 03       		.uleb128 0x3
 6324 0f23 12090000 		.4byte	.LASF208
 6325 0f27 16       		.byte	0x16
 6326 0f28 57       		.byte	0x57
 6327 0f29 2D0F0000 		.4byte	0xf2d
 6328 0f2d 09       		.uleb128 0x9
 6329 0f2e 04       		.byte	0x4
 6330 0f2f 330F0000 		.4byte	0xf33
 6331 0f33 0D       		.uleb128 0xd
 6332 0f34 01       		.byte	0x1
 6333 0f35 530F0000 		.4byte	0xf53
 6334 0f39 0E       		.uleb128 0xe
 6335 0f3a B2020000 		.4byte	0x2b2
 6336 0f3e 0E       		.uleb128 0xe
 6337 0f3f E40C0000 		.4byte	0xce4
 6338 0f43 0E       		.uleb128 0xe
 6339 0f44 C6060000 		.4byte	0x6c6
 6340 0f48 0E       		.uleb128 0xe
 6341 0f49 B80D0000 		.4byte	0xdb8
 6342 0f4d 0E       		.uleb128 0xe
 6343 0f4e D0040000 		.4byte	0x4d0
 6344 0f52 00       		.byte	0
 6345 0f53 08       		.uleb128 0x8
 6346 0f54 01       		.byte	0x1
 6347 0f55 18       		.byte	0x18
 6348 0f56 49       		.byte	0x49
 6349 0f57 6A0F0000 		.4byte	0xf6a
 6350 0f5b 06       		.uleb128 0x6
ARM GAS  /tmp/ccPo84yg.s 			page 113


 6351 0f5c B7000000 		.4byte	.LASF209
 6352 0f60 18       		.byte	0x18
 6353 0f61 4A       		.byte	0x4a
 6354 0f62 BA040000 		.4byte	0x4ba
 6355 0f66 02       		.byte	0x2
 6356 0f67 23       		.byte	0x23
 6357 0f68 00       		.uleb128 0
 6358 0f69 00       		.byte	0
 6359 0f6a 08       		.uleb128 0x8
 6360 0f6b 08       		.byte	0x8
 6361 0f6c 18       		.byte	0x18
 6362 0f6d 4D       		.byte	0x4d
 6363 0f6e 8F0F0000 		.4byte	0xf8f
 6364 0f72 06       		.uleb128 0x6
 6365 0f73 D4010000 		.4byte	.LASF210
 6366 0f77 18       		.byte	0x18
 6367 0f78 4E       		.byte	0x4e
 6368 0f79 B80D0000 		.4byte	0xdb8
 6369 0f7d 02       		.byte	0x2
 6370 0f7e 23       		.byte	0x23
 6371 0f7f 00       		.uleb128 0
 6372 0f80 06       		.uleb128 0x6
 6373 0f81 8D0B0000 		.4byte	.LASF104
 6374 0f85 18       		.byte	0x18
 6375 0f86 4F       		.byte	0x4f
 6376 0f87 D0040000 		.4byte	0x4d0
 6377 0f8b 02       		.byte	0x2
 6378 0f8c 23       		.byte	0x23
 6379 0f8d 04       		.uleb128 0x4
 6380 0f8e 00       		.byte	0
 6381 0f8f 08       		.uleb128 0x8
 6382 0f90 0C       		.byte	0xc
 6383 0f91 18       		.byte	0x18
 6384 0f92 52       		.byte	0x52
 6385 0f93 C20F0000 		.4byte	0xfc2
 6386 0f97 06       		.uleb128 0x6
 6387 0f98 D4010000 		.4byte	.LASF210
 6388 0f9c 18       		.byte	0x18
 6389 0f9d 53       		.byte	0x53
 6390 0f9e B80D0000 		.4byte	0xdb8
 6391 0fa2 02       		.byte	0x2
 6392 0fa3 23       		.byte	0x23
 6393 0fa4 00       		.uleb128 0
 6394 0fa5 06       		.uleb128 0x6
 6395 0fa6 8D0B0000 		.4byte	.LASF104
 6396 0faa 18       		.byte	0x18
 6397 0fab 54       		.byte	0x54
 6398 0fac C20F0000 		.4byte	0xfc2
 6399 0fb0 02       		.byte	0x2
 6400 0fb1 23       		.byte	0x23
 6401 0fb2 04       		.uleb128 0x4
 6402 0fb3 06       		.uleb128 0x6
 6403 0fb4 6E010000 		.4byte	.LASF211
 6404 0fb8 18       		.byte	0x18
 6405 0fb9 55       		.byte	0x55
 6406 0fba BA040000 		.4byte	0x4ba
 6407 0fbe 02       		.byte	0x2
ARM GAS  /tmp/ccPo84yg.s 			page 114


 6408 0fbf 23       		.byte	0x23
 6409 0fc0 08       		.uleb128 0x8
 6410 0fc1 00       		.byte	0
 6411 0fc2 09       		.uleb128 0x9
 6412 0fc3 04       		.byte	0x4
 6413 0fc4 D0040000 		.4byte	0x4d0
 6414 0fc8 08       		.uleb128 0x8
 6415 0fc9 0C       		.byte	0xc
 6416 0fca 18       		.byte	0x18
 6417 0fcb 58       		.byte	0x58
 6418 0fcc FB0F0000 		.4byte	0xffb
 6419 0fd0 06       		.uleb128 0x6
 6420 0fd1 4C0D0000 		.4byte	.LASF212
 6421 0fd5 18       		.byte	0x18
 6422 0fd6 59       		.byte	0x59
 6423 0fd7 FB0F0000 		.4byte	0xffb
 6424 0fdb 02       		.byte	0x2
 6425 0fdc 23       		.byte	0x23
 6426 0fdd 00       		.uleb128 0
 6427 0fde 07       		.uleb128 0x7
 6428 0fdf 6C656E00 		.ascii	"len\000"
 6429 0fe3 18       		.byte	0x18
 6430 0fe4 5A       		.byte	0x5a
 6431 0fe5 30000000 		.4byte	0x30
 6432 0fe9 02       		.byte	0x2
 6433 0fea 23       		.byte	0x23
 6434 0feb 04       		.uleb128 0x4
 6435 0fec 06       		.uleb128 0x6
 6436 0fed 6C0C0000 		.4byte	.LASF213
 6437 0ff1 18       		.byte	0x18
 6438 0ff2 5B       		.byte	0x5b
 6439 0ff3 BA040000 		.4byte	0x4ba
 6440 0ff7 02       		.byte	0x2
 6441 0ff8 23       		.byte	0x23
 6442 0ff9 08       		.uleb128 0x8
 6443 0ffa 00       		.byte	0
 6444 0ffb 09       		.uleb128 0x9
 6445 0ffc 04       		.byte	0x4
 6446 0ffd 01100000 		.4byte	0x1001
 6447 1001 1C       		.uleb128 0x1c
 6448 1002 08       		.uleb128 0x8
 6449 1003 04       		.byte	0x4
 6450 1004 18       		.byte	0x18
 6451 1005 5E       		.byte	0x5e
 6452 1006 19100000 		.4byte	0x1019
 6453 100a 07       		.uleb128 0x7
 6454 100b 6C656E00 		.ascii	"len\000"
 6455 100f 18       		.byte	0x18
 6456 1010 5F       		.byte	0x5f
 6457 1011 E6040000 		.4byte	0x4e6
 6458 1015 02       		.byte	0x2
 6459 1016 23       		.byte	0x23
 6460 1017 00       		.uleb128 0
 6461 1018 00       		.byte	0
 6462 1019 08       		.uleb128 0x8
 6463 101a 01       		.byte	0x1
 6464 101b 18       		.byte	0x18
ARM GAS  /tmp/ccPo84yg.s 			page 115


 6465 101c 62       		.byte	0x62
 6466 101d 30100000 		.4byte	0x1030
 6467 1021 06       		.uleb128 0x6
 6468 1022 F0040000 		.4byte	.LASF214
 6469 1026 18       		.byte	0x18
 6470 1027 63       		.byte	0x63
 6471 1028 BA040000 		.4byte	0x4ba
 6472 102c 02       		.byte	0x2
 6473 102d 23       		.byte	0x23
 6474 102e 00       		.uleb128 0
 6475 102f 00       		.byte	0
 6476 1030 10       		.uleb128 0x10
 6477 1031 0C       		.byte	0xc
 6478 1032 18       		.byte	0x18
 6479 1033 45       		.byte	0x45
 6480 1034 7B100000 		.4byte	0x107b
 6481 1038 19       		.uleb128 0x19
 6482 1039 6200     		.ascii	"b\000"
 6483 103b 18       		.byte	0x18
 6484 103c 47       		.byte	0x47
 6485 103d 7B100000 		.4byte	0x107b
 6486 1041 19       		.uleb128 0x19
 6487 1042 6E00     		.ascii	"n\000"
 6488 1044 18       		.byte	0x18
 6489 1045 4B       		.byte	0x4b
 6490 1046 530F0000 		.4byte	0xf53
 6491 104a 19       		.uleb128 0x19
 6492 104b 626300   		.ascii	"bc\000"
 6493 104e 18       		.byte	0x18
 6494 104f 50       		.byte	0x50
 6495 1050 6A0F0000 		.4byte	0xf6a
 6496 1054 19       		.uleb128 0x19
 6497 1055 616400   		.ascii	"ad\000"
 6498 1058 18       		.byte	0x18
 6499 1059 56       		.byte	0x56
 6500 105a 8F0F0000 		.4byte	0xf8f
 6501 105e 19       		.uleb128 0x19
 6502 105f 7700     		.ascii	"w\000"
 6503 1061 18       		.byte	0x18
 6504 1062 5C       		.byte	0x5c
 6505 1063 C80F0000 		.4byte	0xfc8
 6506 1067 19       		.uleb128 0x19
 6507 1068 7200     		.ascii	"r\000"
 6508 106a 18       		.byte	0x18
 6509 106b 60       		.byte	0x60
 6510 106c 02100000 		.4byte	0x1002
 6511 1070 19       		.uleb128 0x19
 6512 1071 736400   		.ascii	"sd\000"
 6513 1074 18       		.byte	0x18
 6514 1075 64       		.byte	0x64
 6515 1076 19100000 		.4byte	0x1019
 6516 107a 00       		.byte	0
 6517 107b 09       		.uleb128 0x9
 6518 107c 04       		.byte	0x4
 6519 107d CC060000 		.4byte	0x6cc
 6520 1081 03       		.uleb128 0x3
 6521 1082 6D080000 		.4byte	.LASF215
ARM GAS  /tmp/ccPo84yg.s 			page 116


 6522 1086 19       		.byte	0x19
 6523 1087 4E       		.byte	0x4e
 6524 1088 6C030000 		.4byte	0x36c
 6525 108c 09       		.uleb128 0x9
 6526 108d 04       		.byte	0x4
 6527 108e 0F070000 		.4byte	0x70f
 6528 1092 05       		.uleb128 0x5
 6529 1093 D7040000 		.4byte	.LASF216
 6530 1097 18       		.byte	0x18
 6531 1098 01       		.byte	0x1
 6532 1099 40       		.byte	0x40
 6533 109a 0F110000 		.4byte	0x110f
 6534 109e 06       		.uleb128 0x6
 6535 109f 88010000 		.4byte	.LASF188
 6536 10a3 01       		.byte	0x1
 6537 10a4 42       		.byte	0x42
 6538 10a5 E0070000 		.4byte	0x7e0
 6539 10a9 02       		.byte	0x2
 6540 10aa 23       		.byte	0x23
 6541 10ab 00       		.uleb128 0
 6542 10ac 06       		.uleb128 0x6
 6543 10ad 4B010000 		.4byte	.LASF217
 6544 10b1 01       		.byte	0x1
 6545 10b2 44       		.byte	0x44
 6546 10b3 B2020000 		.4byte	0x2b2
 6547 10b7 02       		.byte	0x2
 6548 10b8 23       		.byte	0x23
 6549 10b9 04       		.uleb128 0x4
 6550 10ba 06       		.uleb128 0x6
 6551 10bb 06030000 		.4byte	.LASF218
 6552 10bf 01       		.byte	0x1
 6553 10c0 46       		.byte	0x46
 6554 10c1 D0040000 		.4byte	0x4d0
 6555 10c5 02       		.byte	0x2
 6556 10c6 23       		.byte	0x23
 6557 10c7 08       		.uleb128 0x8
 6558 10c8 06       		.uleb128 0x6
 6559 10c9 100D0000 		.4byte	.LASF219
 6560 10cd 01       		.byte	0x1
 6561 10ce 49       		.byte	0x49
 6562 10cf DB040000 		.4byte	0x4db
 6563 10d3 02       		.byte	0x2
 6564 10d4 23       		.byte	0x23
 6565 10d5 0A       		.uleb128 0xa
 6566 10d6 06       		.uleb128 0x6
 6567 10d7 08080000 		.4byte	.LASF220
 6568 10db 01       		.byte	0x1
 6569 10dc 4C       		.byte	0x4c
 6570 10dd D0040000 		.4byte	0x4d0
 6571 10e1 02       		.byte	0x2
 6572 10e2 23       		.byte	0x23
 6573 10e3 0C       		.uleb128 0xc
 6574 10e4 06       		.uleb128 0x6
 6575 10e5 BE030000 		.4byte	.LASF221
 6576 10e9 01       		.byte	0x1
 6577 10ea 4E       		.byte	0x4e
 6578 10eb D0040000 		.4byte	0x4d0
ARM GAS  /tmp/ccPo84yg.s 			page 117


 6579 10ef 02       		.byte	0x2
 6580 10f0 23       		.byte	0x23
 6581 10f1 0E       		.uleb128 0xe
 6582 10f2 07       		.uleb128 0x7
 6583 10f3 65727200 		.ascii	"err\000"
 6584 10f7 01       		.byte	0x1
 6585 10f8 50       		.byte	0x50
 6586 10f9 29000000 		.4byte	0x29
 6587 10fd 02       		.byte	0x2
 6588 10fe 23       		.byte	0x23
 6589 10ff 10       		.uleb128 0x10
 6590 1100 06       		.uleb128 0x6
 6591 1101 99040000 		.4byte	.LASF222
 6592 1105 01       		.byte	0x1
 6593 1106 52       		.byte	0x52
 6594 1107 29000000 		.4byte	0x29
 6595 110b 02       		.byte	0x2
 6596 110c 23       		.byte	0x23
 6597 110d 14       		.uleb128 0x14
 6598 110e 00       		.byte	0
 6599 110f 05       		.uleb128 0x5
 6600 1110 78050000 		.4byte	.LASF223
 6601 1114 1C       		.byte	0x1c
 6602 1115 01       		.byte	0x1
 6603 1116 56       		.byte	0x56
 6604 1117 7E110000 		.4byte	0x117e
 6605 111b 06       		.uleb128 0x6
 6606 111c 330E0000 		.4byte	.LASF98
 6607 1120 01       		.byte	0x1
 6608 1121 58       		.byte	0x58
 6609 1122 7E110000 		.4byte	0x117e
 6610 1126 02       		.byte	0x2
 6611 1127 23       		.byte	0x23
 6612 1128 00       		.uleb128 0
 6613 1129 06       		.uleb128 0x6
 6614 112a 5C0E0000 		.4byte	.LASF224
 6615 112e 01       		.byte	0x1
 6616 112f 5A       		.byte	0x5a
 6617 1130 7E110000 		.4byte	0x117e
 6618 1134 02       		.byte	0x2
 6619 1135 23       		.byte	0x23
 6620 1136 04       		.uleb128 0x4
 6621 1137 06       		.uleb128 0x6
 6622 1138 34040000 		.4byte	.LASF225
 6623 113c 01       		.byte	0x1
 6624 113d 5C       		.byte	0x5c
 6625 113e 84110000 		.4byte	0x1184
 6626 1142 02       		.byte	0x2
 6627 1143 23       		.byte	0x23
 6628 1144 08       		.uleb128 0x8
 6629 1145 06       		.uleb128 0x6
 6630 1146 2A0B0000 		.4byte	.LASF226
 6631 114a 01       		.byte	0x1
 6632 114b 5E       		.byte	0x5e
 6633 114c 84110000 		.4byte	0x1184
 6634 1150 02       		.byte	0x2
 6635 1151 23       		.byte	0x23
ARM GAS  /tmp/ccPo84yg.s 			page 118


 6636 1152 0C       		.uleb128 0xc
 6637 1153 06       		.uleb128 0x6
 6638 1154 74010000 		.4byte	.LASF227
 6639 1158 01       		.byte	0x1
 6640 1159 60       		.byte	0x60
 6641 115a 84110000 		.4byte	0x1184
 6642 115e 02       		.byte	0x2
 6643 115f 23       		.byte	0x23
 6644 1160 10       		.uleb128 0x10
 6645 1161 06       		.uleb128 0x6
 6646 1162 8A070000 		.4byte	.LASF228
 6647 1166 01       		.byte	0x1
 6648 1167 62       		.byte	0x62
 6649 1168 29000000 		.4byte	0x29
 6650 116c 02       		.byte	0x2
 6651 116d 23       		.byte	0x23
 6652 116e 14       		.uleb128 0x14
 6653 116f 07       		.uleb128 0x7
 6654 1170 73656D00 		.ascii	"sem\000"
 6655 1174 01       		.byte	0x1
 6656 1175 64       		.byte	0x64
 6657 1176 0F070000 		.4byte	0x70f
 6658 117a 02       		.byte	0x2
 6659 117b 23       		.byte	0x23
 6660 117c 18       		.uleb128 0x18
 6661 117d 00       		.byte	0
 6662 117e 09       		.uleb128 0x9
 6663 117f 04       		.byte	0x4
 6664 1180 0F110000 		.4byte	0x110f
 6665 1184 09       		.uleb128 0x9
 6666 1185 04       		.byte	0x4
 6667 1186 14060000 		.4byte	0x614
 6668 118a 05       		.uleb128 0x5
 6669 118b 7C0C0000 		.4byte	.LASF229
 6670 118f 18       		.byte	0x18
 6671 1190 01       		.byte	0x1
 6672 1191 69       		.byte	0x69
 6673 1192 EB110000 		.4byte	0x11eb
 6674 1196 06       		.uleb128 0x6
 6675 1197 FC070000 		.4byte	.LASF230
 6676 119b 01       		.byte	0x1
 6677 119c 6B       		.byte	0x6b
 6678 119d EB110000 		.4byte	0x11eb
 6679 11a1 02       		.byte	0x2
 6680 11a2 23       		.byte	0x23
 6681 11a3 00       		.uleb128 0
 6682 11a4 06       		.uleb128 0x6
 6683 11a5 540D0000 		.4byte	.LASF231
 6684 11a9 01       		.byte	0x1
 6685 11aa 71       		.byte	0x71
 6686 11ab 29000000 		.4byte	0x29
 6687 11af 02       		.byte	0x2
 6688 11b0 23       		.byte	0x23
 6689 11b1 04       		.uleb128 0x4
 6690 11b2 06       		.uleb128 0x6
 6691 11b3 9B080000 		.4byte	.LASF232
 6692 11b7 01       		.byte	0x1
ARM GAS  /tmp/ccPo84yg.s 			page 119


 6693 11b8 73       		.byte	0x73
 6694 11b9 29000000 		.4byte	0x29
 6695 11bd 02       		.byte	0x2
 6696 11be 23       		.byte	0x23
 6697 11bf 08       		.uleb128 0x8
 6698 11c0 06       		.uleb128 0x6
 6699 11c1 12080000 		.4byte	.LASF233
 6700 11c5 01       		.byte	0x1
 6701 11c6 76       		.byte	0x76
 6702 11c7 B2020000 		.4byte	0x2b2
 6703 11cb 02       		.byte	0x2
 6704 11cc 23       		.byte	0x23
 6705 11cd 0C       		.uleb128 0xc
 6706 11ce 06       		.uleb128 0x6
 6707 11cf FB090000 		.4byte	.LASF234
 6708 11d3 01       		.byte	0x1
 6709 11d4 78       		.byte	0x78
 6710 11d5 F1110000 		.4byte	0x11f1
 6711 11d9 02       		.byte	0x2
 6712 11da 23       		.byte	0x23
 6713 11db 10       		.uleb128 0x10
 6714 11dc 07       		.uleb128 0x7
 6715 11dd 65727200 		.ascii	"err\000"
 6716 11e1 01       		.byte	0x1
 6717 11e2 7A       		.byte	0x7a
 6718 11e3 4C060000 		.4byte	0x64c
 6719 11e7 02       		.byte	0x2
 6720 11e8 23       		.byte	0x23
 6721 11e9 14       		.uleb128 0x14
 6722 11ea 00       		.byte	0
 6723 11eb 09       		.uleb128 0x9
 6724 11ec 04       		.byte	0x4
 6725 11ed 92100000 		.4byte	0x1092
 6726 11f1 09       		.uleb128 0x9
 6727 11f2 04       		.byte	0x4
 6728 11f3 E6040000 		.4byte	0x4e6
 6729 11f7 1D       		.uleb128 0x1d
 6730 11f8 A1000000 		.4byte	.LASF235
 6731 11fc 01       		.byte	0x1
 6732 11fd C3       		.byte	0xc3
 6733 11fe 01       		.byte	0x1
 6734 11ff EB110000 		.4byte	0x11eb
 6735 1203 01       		.byte	0x1
 6736 1204 1D120000 		.4byte	0x121d
 6737 1208 1E       		.uleb128 0x1e
 6738 1209 7300     		.ascii	"s\000"
 6739 120b 01       		.byte	0x1
 6740 120c C3       		.byte	0xc3
 6741 120d 29000000 		.4byte	0x29
 6742 1211 1F       		.uleb128 0x1f
 6743 1212 FC070000 		.4byte	.LASF230
 6744 1216 01       		.byte	0x1
 6745 1217 C5       		.byte	0xc5
 6746 1218 EB110000 		.4byte	0x11eb
 6747 121c 00       		.byte	0
 6748 121d 1D       		.uleb128 0x1d
 6749 121e 480C0000 		.4byte	.LASF236
ARM GAS  /tmp/ccPo84yg.s 			page 120


 6750 1222 01       		.byte	0x1
 6751 1223 DF       		.byte	0xdf
 6752 1224 01       		.byte	0x1
 6753 1225 EB110000 		.4byte	0x11eb
 6754 1229 01       		.byte	0x1
 6755 122a 38120000 		.4byte	0x1238
 6756 122e 1E       		.uleb128 0x1e
 6757 122f 7300     		.ascii	"s\000"
 6758 1231 01       		.byte	0x1
 6759 1232 DF       		.byte	0xdf
 6760 1233 29000000 		.4byte	0x29
 6761 1237 00       		.byte	0
 6762 1238 20       		.uleb128 0x20
 6763 1239 FC050000 		.4byte	.LASF245
 6764 123d 01       		.byte	0x1
 6765 123e F3       		.byte	0xf3
 6766 123f 01       		.byte	0x1
 6767 1240 29000000 		.4byte	0x29
 6768 1244 00000000 		.4byte	.LFB10
 6769 1248 68000000 		.4byte	.LFE10
 6770 124c 00000000 		.4byte	.LLST0
 6771 1250 01       		.byte	0x1
 6772 1251 81120000 		.4byte	0x1281
 6773 1255 21       		.uleb128 0x21
 6774 1256 2C020000 		.4byte	.LASF237
 6775 125a 01       		.byte	0x1
 6776 125b F3       		.byte	0xf3
 6777 125c E0070000 		.4byte	0x7e0
 6778 1260 20000000 		.4byte	.LLST1
 6779 1264 21       		.uleb128 0x21
 6780 1265 BB060000 		.4byte	.LASF238
 6781 1269 01       		.byte	0x1
 6782 126a F3       		.byte	0xf3
 6783 126b 29000000 		.4byte	0x29
 6784 126f 4C000000 		.4byte	.LLST2
 6785 1273 22       		.uleb128 0x22
 6786 1274 6900     		.ascii	"i\000"
 6787 1276 01       		.byte	0x1
 6788 1277 F5       		.byte	0xf5
 6789 1278 29000000 		.4byte	0x29
 6790 127c 9F000000 		.4byte	.LLST3
 6791 1280 00       		.byte	0
 6792 1281 23       		.uleb128 0x23
 6793 1282 71070000 		.4byte	.LASF240
 6794 1286 01       		.byte	0x1
 6795 1287 0208     		.2byte	0x802
 6796 1289 01       		.byte	0x1
 6797 128a 00000000 		.4byte	.LFB34
 6798 128e F4000000 		.4byte	.LFE34
 6799 1292 BE000000 		.4byte	.LLST4
 6800 1296 01       		.byte	0x1
 6801 1297 18130000 		.4byte	0x1318
 6802 129b 24       		.uleb128 0x24
 6803 129c 61726700 		.ascii	"arg\000"
 6804 12a0 01       		.byte	0x1
 6805 12a1 0208     		.2byte	0x802
 6806 12a3 B2020000 		.4byte	0x2b2
ARM GAS  /tmp/ccPo84yg.s 			page 121


 6807 12a7 EA000000 		.4byte	.LLST5
 6808 12ab 25       		.uleb128 0x25
 6809 12ac FC070000 		.4byte	.LASF230
 6810 12b0 01       		.byte	0x1
 6811 12b1 0408     		.2byte	0x804
 6812 12b3 EB110000 		.4byte	0x11eb
 6813 12b7 24010000 		.4byte	.LLST6
 6814 12bb 25       		.uleb128 0x25
 6815 12bc 540D0000 		.4byte	.LASF231
 6816 12c0 01       		.byte	0x1
 6817 12c1 0808     		.2byte	0x808
 6818 12c3 29000000 		.4byte	0x29
 6819 12c7 42010000 		.4byte	.LLST7
 6820 12cb 25       		.uleb128 0x25
 6821 12cc 9B080000 		.4byte	.LASF232
 6822 12d0 01       		.byte	0x1
 6823 12d1 0808     		.2byte	0x808
 6824 12d3 29000000 		.4byte	0x29
 6825 12d7 A4010000 		.4byte	.LLST8
 6826 12db 25       		.uleb128 0x25
 6827 12dc 12080000 		.4byte	.LASF233
 6828 12e0 01       		.byte	0x1
 6829 12e1 0908     		.2byte	0x809
 6830 12e3 FB0F0000 		.4byte	0xffb
 6831 12e7 32020000 		.4byte	.LLST9
 6832 12eb 25       		.uleb128 0x25
 6833 12ec 380E0000 		.4byte	.LASF239
 6834 12f0 01       		.byte	0x1
 6835 12f1 0A08     		.2byte	0x80a
 6836 12f3 18130000 		.4byte	0x1318
 6837 12f7 71020000 		.4byte	.LLST10
 6838 12fb 26       		.uleb128 0x26
 6839 12fc 22000000 		.4byte	.LVL16
 6840 1300 152B0000 		.4byte	0x2b15
 6841 1304 27       		.uleb128 0x27
 6842 1305 30000000 		.4byte	.LVL17
 6843 1309 01       		.byte	0x1
 6844 130a 202B0000 		.4byte	0x2b20
 6845 130e 26       		.uleb128 0x26
 6846 130f BC000000 		.4byte	.LVL38
 6847 1313 152B0000 		.4byte	0x2b15
 6848 1317 00       		.byte	0
 6849 1318 09       		.uleb128 0x9
 6850 1319 04       		.byte	0x4
 6851 131a 8A110000 		.4byte	0x118a
 6852 131e 23       		.uleb128 0x23
 6853 131f CA050000 		.4byte	.LASF241
 6854 1323 01       		.byte	0x1
 6855 1324 6806     		.2byte	0x668
 6856 1326 01       		.byte	0x1
 6857 1327 00000000 		.4byte	.LFB32
 6858 132b 10010000 		.4byte	.LFE32
 6859 132f A5020000 		.4byte	.LLST11
 6860 1333 01       		.byte	0x1
 6861 1334 B5130000 		.4byte	0x13b5
 6862 1338 24       		.uleb128 0x24
 6863 1339 61726700 		.ascii	"arg\000"
ARM GAS  /tmp/ccPo84yg.s 			page 122


 6864 133d 01       		.byte	0x1
 6865 133e 6806     		.2byte	0x668
 6866 1340 B2020000 		.4byte	0x2b2
 6867 1344 D1020000 		.4byte	.LLST12
 6868 1348 25       		.uleb128 0x25
 6869 1349 FC070000 		.4byte	.LASF230
 6870 134d 01       		.byte	0x1
 6871 134e 6A06     		.2byte	0x66a
 6872 1350 EB110000 		.4byte	0x11eb
 6873 1354 0B030000 		.4byte	.LLST13
 6874 1358 25       		.uleb128 0x25
 6875 1359 540D0000 		.4byte	.LASF231
 6876 135d 01       		.byte	0x1
 6877 135e 6E06     		.2byte	0x66e
 6878 1360 29000000 		.4byte	0x29
 6879 1364 29030000 		.4byte	.LLST14
 6880 1368 25       		.uleb128 0x25
 6881 1369 9B080000 		.4byte	.LASF232
 6882 136d 01       		.byte	0x1
 6883 136e 6E06     		.2byte	0x66e
 6884 1370 29000000 		.4byte	0x29
 6885 1374 7E030000 		.4byte	.LLST15
 6886 1378 25       		.uleb128 0x25
 6887 1379 12080000 		.4byte	.LASF233
 6888 137d 01       		.byte	0x1
 6889 137e 6F06     		.2byte	0x66f
 6890 1380 B2020000 		.4byte	0x2b2
 6891 1384 BD030000 		.4byte	.LLST16
 6892 1388 25       		.uleb128 0x25
 6893 1389 380E0000 		.4byte	.LASF239
 6894 138d 01       		.byte	0x1
 6895 138e 7006     		.2byte	0x670
 6896 1390 18130000 		.4byte	0x1318
 6897 1394 E6030000 		.4byte	.LLST17
 6898 1398 26       		.uleb128 0x26
 6899 1399 22000000 		.4byte	.LVL54
 6900 139d 152B0000 		.4byte	0x2b15
 6901 13a1 27       		.uleb128 0x27
 6902 13a2 30000000 		.4byte	.LVL55
 6903 13a6 01       		.byte	0x1
 6904 13a7 202B0000 		.4byte	0x2b20
 6905 13ab 26       		.uleb128 0x26
 6906 13ac DC000000 		.4byte	.LVL73
 6907 13b0 152B0000 		.4byte	0x2b15
 6908 13b4 00       		.byte	0
 6909 13b5 23       		.uleb128 0x23
 6910 13b6 A4030000 		.4byte	.LASF242
 6911 13ba 01       		.byte	0x1
 6912 13bb D204     		.2byte	0x4d2
 6913 13bd 01       		.byte	0x1
 6914 13be 00000000 		.4byte	.LFB26
 6915 13c2 F8000000 		.4byte	.LFE26
 6916 13c6 0F040000 		.4byte	.LLST18
 6917 13ca 01       		.byte	0x1
 6918 13cb A8140000 		.4byte	0x14a8
 6919 13cf 28       		.uleb128 0x28
 6920 13d0 88010000 		.4byte	.LASF188
ARM GAS  /tmp/ccPo84yg.s 			page 123


 6921 13d4 01       		.byte	0x1
 6922 13d5 D204     		.2byte	0x4d2
 6923 13d7 E0070000 		.4byte	0x7e0
 6924 13db 2F040000 		.4byte	.LLST19
 6925 13df 24       		.uleb128 0x24
 6926 13e0 65767400 		.ascii	"evt\000"
 6927 13e4 01       		.byte	0x1
 6928 13e5 D204     		.2byte	0x4d2
 6929 13e7 8E070000 		.4byte	0x78e
 6930 13eb 8D040000 		.4byte	.LLST20
 6931 13ef 24       		.uleb128 0x24
 6932 13f0 6C656E00 		.ascii	"len\000"
 6933 13f4 01       		.byte	0x1
 6934 13f5 D204     		.2byte	0x4d2
 6935 13f7 D0040000 		.4byte	0x4d0
 6936 13fb EB040000 		.4byte	.LLST21
 6937 13ff 29       		.uleb128 0x29
 6938 1400 7300     		.ascii	"s\000"
 6939 1402 01       		.byte	0x1
 6940 1403 D404     		.2byte	0x4d4
 6941 1405 29000000 		.4byte	0x29
 6942 1409 30050000 		.4byte	.LLST22
 6943 140d 2A       		.uleb128 0x2a
 6944 140e FC070000 		.4byte	.LASF230
 6945 1412 01       		.byte	0x1
 6946 1413 D504     		.2byte	0x4d5
 6947 1415 EB110000 		.4byte	0x11eb
 6948 1419 01       		.byte	0x1
 6949 141a 58       		.byte	0x58
 6950 141b 29       		.uleb128 0x29
 6951 141c 73636200 		.ascii	"scb\000"
 6952 1420 01       		.byte	0x1
 6953 1421 D604     		.2byte	0x4d6
 6954 1423 7E110000 		.4byte	0x117e
 6955 1427 70050000 		.4byte	.LLST23
 6956 142b 25       		.uleb128 0x25
 6957 142c 54080000 		.4byte	.LASF243
 6958 1430 01       		.byte	0x1
 6959 1431 D704     		.2byte	0x4d7
 6960 1433 29000000 		.4byte	0x29
 6961 1437 8E050000 		.4byte	.LLST24
 6962 143b 2B       		.uleb128 0x2b
 6963 143c FB080000 		.4byte	.LASF343
 6964 1440 01       		.byte	0x1
 6965 1441 1C05     		.2byte	0x51c
 6966 1443 2C       		.uleb128 0x2c
 6967 1444 F7110000 		.4byte	0x11f7
 6968 1448 0C000000 		.4byte	.LBB45
 6969 144c 22000000 		.4byte	.LBE45
 6970 1450 01       		.byte	0x1
 6971 1451 F104     		.2byte	0x4f1
 6972 1453 74140000 		.4byte	0x1474
 6973 1457 2D       		.uleb128 0x2d
 6974 1458 08120000 		.4byte	0x1208
 6975 145c A1050000 		.4byte	.LLST25
 6976 1460 2E       		.uleb128 0x2e
 6977 1461 0C000000 		.4byte	.LBB46
ARM GAS  /tmp/ccPo84yg.s 			page 124


 6978 1465 22000000 		.4byte	.LBE46
 6979 1469 2F       		.uleb128 0x2f
 6980 146a 11120000 		.4byte	0x1211
 6981 146e D5050000 		.4byte	.LLST26
 6982 1472 00       		.byte	0
 6983 1473 00       		.byte	0
 6984 1474 30       		.uleb128 0x30
 6985 1475 00000000 		.4byte	.Ldebug_ranges0+0
 6986 1479 9E140000 		.4byte	0x149e
 6987 147d 25       		.uleb128 0x25
 6988 147e 25080000 		.4byte	.LASF244
 6989 1482 01       		.byte	0x1
 6990 1483 2005     		.2byte	0x520
 6991 1485 29000000 		.4byte	0x29
 6992 1489 F3050000 		.4byte	.LLST27
 6993 148d 31       		.uleb128 0x31
 6994 148e DC000000 		.4byte	.LVL94
 6995 1492 202B0000 		.4byte	0x2b20
 6996 1496 32       		.uleb128 0x32
 6997 1497 01       		.byte	0x1
 6998 1498 50       		.byte	0x50
 6999 1499 02       		.byte	0x2
 7000 149a 74       		.byte	0x74
 7001 149b 18       		.sleb128 24
 7002 149c 00       		.byte	0
 7003 149d 00       		.byte	0
 7004 149e 26       		.uleb128 0x26
 7005 149f D0000000 		.4byte	.LVL92
 7006 14a3 152B0000 		.4byte	0x2b15
 7007 14a7 00       		.byte	0
 7008 14a8 33       		.uleb128 0x33
 7009 14a9 2E090000 		.4byte	.LASF246
 7010 14ad 01       		.byte	0x1
 7011 14ae F503     		.2byte	0x3f5
 7012 14b0 01       		.byte	0x1
 7013 14b1 29000000 		.4byte	0x29
 7014 14b5 00000000 		.4byte	.LFB24
 7015 14b9 2C010000 		.4byte	.LFE24
 7016 14bd 13060000 		.4byte	.LLST28
 7017 14c1 01       		.byte	0x1
 7018 14c2 ED150000 		.4byte	0x15ed
 7019 14c6 28       		.uleb128 0x28
 7020 14c7 5C090000 		.4byte	.LASF247
 7021 14cb 01       		.byte	0x1
 7022 14cc F503     		.2byte	0x3f5
 7023 14ce 29000000 		.4byte	0x29
 7024 14d2 3F060000 		.4byte	.LLST29
 7025 14d6 28       		.uleb128 0x28
 7026 14d7 40010000 		.4byte	.LASF248
 7027 14db 01       		.byte	0x1
 7028 14dc F503     		.2byte	0x3f5
 7029 14de 84110000 		.4byte	0x1184
 7030 14e2 5E060000 		.4byte	.LLST30
 7031 14e6 28       		.uleb128 0x28
 7032 14e7 06040000 		.4byte	.LASF249
 7033 14eb 01       		.byte	0x1
 7034 14ec F503     		.2byte	0x3f5
ARM GAS  /tmp/ccPo84yg.s 			page 125


 7035 14ee 84110000 		.4byte	0x1184
 7036 14f2 8A060000 		.4byte	.LLST31
 7037 14f6 28       		.uleb128 0x28
 7038 14f7 1C050000 		.4byte	.LASF250
 7039 14fb 01       		.byte	0x1
 7040 14fc F503     		.2byte	0x3f5
 7041 14fe 84110000 		.4byte	0x1184
 7042 1502 B6060000 		.4byte	.LLST32
 7043 1506 34       		.uleb128 0x34
 7044 1507 9F0D0000 		.4byte	.LASF251
 7045 150b 01       		.byte	0x1
 7046 150c F603     		.2byte	0x3f6
 7047 150e 84110000 		.4byte	0x1184
 7048 1512 02       		.byte	0x2
 7049 1513 91       		.byte	0x91
 7050 1514 00       		.sleb128 0
 7051 1515 34       		.uleb128 0x34
 7052 1516 CA040000 		.4byte	.LASF252
 7053 151a 01       		.byte	0x1
 7054 151b F603     		.2byte	0x3f6
 7055 151d 84110000 		.4byte	0x1184
 7056 1521 02       		.byte	0x2
 7057 1522 91       		.byte	0x91
 7058 1523 04       		.sleb128 4
 7059 1524 34       		.uleb128 0x34
 7060 1525 DF0B0000 		.4byte	.LASF253
 7061 1529 01       		.byte	0x1
 7062 152a F603     		.2byte	0x3f6
 7063 152c 84110000 		.4byte	0x1184
 7064 1530 02       		.byte	0x2
 7065 1531 91       		.byte	0x91
 7066 1532 08       		.sleb128 8
 7067 1533 29       		.uleb128 0x29
 7068 1534 6900     		.ascii	"i\000"
 7069 1536 01       		.byte	0x1
 7070 1537 F803     		.2byte	0x3f8
 7071 1539 29000000 		.4byte	0x29
 7072 153d E2060000 		.4byte	.LLST33
 7073 1541 25       		.uleb128 0x25
 7074 1542 170E0000 		.4byte	.LASF254
 7075 1546 01       		.byte	0x1
 7076 1547 F803     		.2byte	0x3f8
 7077 1549 29000000 		.4byte	0x29
 7078 154d 01070000 		.4byte	.LLST34
 7079 1551 2A       		.uleb128 0x2a
 7080 1552 3F0B0000 		.4byte	.LASF255
 7081 1556 01       		.byte	0x1
 7082 1557 F903     		.2byte	0x3f9
 7083 1559 14060000 		.4byte	0x614
 7084 155d 02       		.byte	0x2
 7085 155e 91       		.byte	0x91
 7086 155f 54       		.sleb128 -44
 7087 1560 2A       		.uleb128 0x2a
 7088 1561 3B090000 		.4byte	.LASF256
 7089 1565 01       		.byte	0x1
 7090 1566 F903     		.2byte	0x3f9
 7091 1568 14060000 		.4byte	0x614
ARM GAS  /tmp/ccPo84yg.s 			page 126


 7092 156c 02       		.byte	0x2
 7093 156d 91       		.byte	0x91
 7094 156e 58       		.sleb128 -40
 7095 156f 2A       		.uleb128 0x2a
 7096 1570 00000000 		.4byte	.LASF257
 7097 1574 01       		.byte	0x1
 7098 1575 F903     		.2byte	0x3f9
 7099 1577 14060000 		.4byte	0x614
 7100 157b 02       		.byte	0x2
 7101 157c 91       		.byte	0x91
 7102 157d 5C       		.sleb128 -36
 7103 157e 2A       		.uleb128 0x2a
 7104 157f FC070000 		.4byte	.LASF230
 7105 1583 01       		.byte	0x1
 7106 1584 FA03     		.2byte	0x3fa
 7107 1586 EB110000 		.4byte	0x11eb
 7108 158a 01       		.byte	0x1
 7109 158b 55       		.byte	0x55
 7110 158c 35       		.uleb128 0x35
 7111 158d 18000000 		.4byte	.Ldebug_ranges0+0x18
 7112 1591 25       		.uleb128 0x25
 7113 1592 4B010000 		.4byte	.LASF217
 7114 1596 01       		.byte	0x1
 7115 1597 0404     		.2byte	0x404
 7116 1599 B2020000 		.4byte	0x2b2
 7117 159d 20070000 		.4byte	.LLST35
 7118 15a1 25       		.uleb128 0x25
 7119 15a2 100D0000 		.4byte	.LASF219
 7120 15a6 01       		.byte	0x1
 7121 15a7 0504     		.2byte	0x405
 7122 15a9 DB040000 		.4byte	0x4db
 7123 15ad 4B070000 		.4byte	.LLST36
 7124 15b1 25       		.uleb128 0x25
 7125 15b2 08080000 		.4byte	.LASF220
 7126 15b6 01       		.byte	0x1
 7127 15b7 0604     		.2byte	0x406
 7128 15b9 D0040000 		.4byte	0x4d0
 7129 15bd 82070000 		.4byte	.LLST37
 7130 15c1 25       		.uleb128 0x25
 7131 15c2 BE030000 		.4byte	.LASF221
 7132 15c6 01       		.byte	0x1
 7133 15c7 0704     		.2byte	0x407
 7134 15c9 D0040000 		.4byte	0x4d0
 7135 15cd B9070000 		.4byte	.LLST38
 7136 15d1 36       		.uleb128 0x36
 7137 15d2 1D120000 		.4byte	0x121d
 7138 15d6 20000000 		.4byte	.LBB50
 7139 15da 30000000 		.4byte	.Ldebug_ranges0+0x30
 7140 15de 01       		.byte	0x1
 7141 15df 0A04     		.2byte	0x40a
 7142 15e1 2D       		.uleb128 0x2d
 7143 15e2 2E120000 		.4byte	0x122e
 7144 15e6 E4070000 		.4byte	.LLST39
 7145 15ea 00       		.byte	0
 7146 15eb 00       		.byte	0
 7147 15ec 00       		.byte	0
 7148 15ed 33       		.uleb128 0x33
ARM GAS  /tmp/ccPo84yg.s 			page 127


 7149 15ee 58070000 		.4byte	.LASF258
 7150 15f2 01       		.byte	0x1
 7151 15f3 7305     		.2byte	0x573
 7152 15f5 01       		.byte	0x1
 7153 15f6 29000000 		.4byte	0x29
 7154 15fa 00000000 		.4byte	.LFB28
 7155 15fe 78000000 		.4byte	.LFE28
 7156 1602 0F080000 		.4byte	.LLST40
 7157 1606 01       		.byte	0x1
 7158 1607 DC160000 		.4byte	0x16dc
 7159 160b 24       		.uleb128 0x24
 7160 160c 7300     		.ascii	"s\000"
 7161 160e 01       		.byte	0x1
 7162 160f 7305     		.2byte	0x573
 7163 1611 29000000 		.4byte	0x29
 7164 1615 3B080000 		.4byte	.LLST41
 7165 1619 28       		.uleb128 0x28
 7166 161a 800B0000 		.4byte	.LASF259
 7167 161e 01       		.byte	0x1
 7168 161f 7305     		.2byte	0x573
 7169 1621 DC160000 		.4byte	0x16dc
 7170 1625 5C080000 		.4byte	.LLST42
 7171 1629 28       		.uleb128 0x28
 7172 162a 5B030000 		.4byte	.LASF260
 7173 162e 01       		.byte	0x1
 7174 162f 7305     		.2byte	0x573
 7175 1631 F1110000 		.4byte	0x11f1
 7176 1635 90080000 		.4byte	.LLST43
 7177 1639 28       		.uleb128 0x28
 7178 163a 6E010000 		.4byte	.LASF211
 7179 163e 01       		.byte	0x1
 7180 163f 7305     		.2byte	0x573
 7181 1641 BA040000 		.4byte	0x4ba
 7182 1645 AE080000 		.4byte	.LLST44
 7183 1649 2A       		.uleb128 0x2a
 7184 164a FC070000 		.4byte	.LASF230
 7185 164e 01       		.byte	0x1
 7186 164f 7505     		.2byte	0x575
 7187 1651 EB110000 		.4byte	0x11eb
 7188 1655 01       		.byte	0x1
 7189 1656 58       		.byte	0x58
 7190 1657 37       		.uleb128 0x37
 7191 1658 73696E00 		.ascii	"sin\000"
 7192 165c 01       		.byte	0x1
 7193 165d 7605     		.2byte	0x576
 7194 165f 3D050000 		.4byte	0x53d
 7195 1663 02       		.byte	0x2
 7196 1664 91       		.byte	0x91
 7197 1665 58       		.sleb128 -40
 7198 1666 2A       		.uleb128 0x2a
 7199 1667 6C000000 		.4byte	.LASF261
 7200 166b 01       		.byte	0x1
 7201 166c 7705     		.2byte	0x577
 7202 166e 17050000 		.4byte	0x517
 7203 1672 02       		.byte	0x2
 7204 1673 91       		.byte	0x91
 7205 1674 54       		.sleb128 -44
ARM GAS  /tmp/ccPo84yg.s 			page 128


 7206 1675 38       		.uleb128 0x38
 7207 1676 F7110000 		.4byte	0x11f7
 7208 167a 04000000 		.4byte	.LBB55
 7209 167e 48000000 		.4byte	.Ldebug_ranges0+0x48
 7210 1682 01       		.byte	0x1
 7211 1683 7905     		.2byte	0x579
 7212 1685 A2160000 		.4byte	0x16a2
 7213 1689 2D       		.uleb128 0x2d
 7214 168a 08120000 		.4byte	0x1208
 7215 168e 3B080000 		.4byte	.LLST41
 7216 1692 35       		.uleb128 0x35
 7217 1693 68000000 		.4byte	.Ldebug_ranges0+0x68
 7218 1697 2F       		.uleb128 0x2f
 7219 1698 11120000 		.4byte	0x1211
 7220 169c E8080000 		.4byte	.LLST46
 7221 16a0 00       		.byte	0
 7222 16a1 00       		.byte	0
 7223 16a2 39       		.uleb128 0x39
 7224 16a3 3E000000 		.4byte	.LVL123
 7225 16a7 342B0000 		.4byte	0x2b34
 7226 16ab BC160000 		.4byte	0x16bc
 7227 16af 32       		.uleb128 0x32
 7228 16b0 01       		.byte	0x1
 7229 16b1 52       		.byte	0x52
 7230 16b2 02       		.byte	0x2
 7231 16b3 91       		.byte	0x91
 7232 16b4 5A       		.sleb128 -38
 7233 16b5 32       		.uleb128 0x32
 7234 16b6 01       		.byte	0x1
 7235 16b7 51       		.byte	0x51
 7236 16b8 02       		.byte	0x2
 7237 16b9 91       		.byte	0x91
 7238 16ba 54       		.sleb128 -44
 7239 16bb 00       		.byte	0
 7240 16bc 26       		.uleb128 0x26
 7241 16bd 46000000 		.4byte	.LVL124
 7242 16c1 5B2B0000 		.4byte	0x2b5b
 7243 16c5 31       		.uleb128 0x31
 7244 16c6 60000000 		.4byte	.LVL125
 7245 16ca 732B0000 		.4byte	0x2b73
 7246 16ce 32       		.uleb128 0x32
 7247 16cf 01       		.byte	0x1
 7248 16d0 51       		.byte	0x51
 7249 16d1 02       		.byte	0x2
 7250 16d2 91       		.byte	0x91
 7251 16d3 58       		.sleb128 -40
 7252 16d4 32       		.uleb128 0x32
 7253 16d5 01       		.byte	0x1
 7254 16d6 50       		.byte	0x50
 7255 16d7 02       		.byte	0x2
 7256 16d8 75       		.byte	0x75
 7257 16d9 00       		.sleb128 0
 7258 16da 00       		.byte	0
 7259 16db 00       		.byte	0
 7260 16dc 09       		.uleb128 0x9
 7261 16dd 04       		.byte	0x4
 7262 16de A0050000 		.4byte	0x5a0
ARM GAS  /tmp/ccPo84yg.s 			page 129


 7263 16e2 3A       		.uleb128 0x3a
 7264 16e3 01       		.byte	0x1
 7265 16e4 B50B0000 		.4byte	.LASF344
 7266 16e8 01       		.byte	0x1
 7267 16e9 B8       		.byte	0xb8
 7268 16ea 01       		.byte	0x1
 7269 16eb 00000000 		.4byte	.LFB7
 7270 16ef 02000000 		.4byte	.LFE7
 7271 16f3 02       		.byte	0x2
 7272 16f4 7D       		.byte	0x7d
 7273 16f5 00       		.sleb128 0
 7274 16f6 01       		.byte	0x1
 7275 16f7 3B       		.uleb128 0x3b
 7276 16f8 01       		.byte	0x1
 7277 16f9 3E080000 		.4byte	.LASF265
 7278 16fd 01       		.byte	0x1
 7279 16fe 3801     		.2byte	0x138
 7280 1700 01       		.byte	0x1
 7281 1701 29000000 		.4byte	0x29
 7282 1705 00000000 		.4byte	.LFB12
 7283 1709 4C010000 		.4byte	.LFE12
 7284 170d FB080000 		.4byte	.LLST47
 7285 1711 01       		.byte	0x1
 7286 1712 8D180000 		.4byte	0x188d
 7287 1716 24       		.uleb128 0x24
 7288 1717 7300     		.ascii	"s\000"
 7289 1719 01       		.byte	0x1
 7290 171a 3801     		.2byte	0x138
 7291 171c 29000000 		.4byte	0x29
 7292 1720 28090000 		.4byte	.LLST48
 7293 1724 28       		.uleb128 0x28
 7294 1725 C5070000 		.4byte	.LASF77
 7295 1729 01       		.byte	0x1
 7296 172a 3801     		.2byte	0x138
 7297 172c DC160000 		.4byte	0x16dc
 7298 1730 49090000 		.4byte	.LLST49
 7299 1734 28       		.uleb128 0x28
 7300 1735 C2050000 		.4byte	.LASF262
 7301 1739 01       		.byte	0x1
 7302 173a 3801     		.2byte	0x138
 7303 173c F1110000 		.4byte	0x11f1
 7304 1740 93090000 		.4byte	.LLST50
 7305 1744 2A       		.uleb128 0x2a
 7306 1745 FC070000 		.4byte	.LASF230
 7307 1749 01       		.byte	0x1
 7308 174a 3A01     		.2byte	0x13a
 7309 174c EB110000 		.4byte	0x11eb
 7310 1750 01       		.byte	0x1
 7311 1751 55       		.byte	0x55
 7312 1752 25       		.uleb128 0x25
 7313 1753 22040000 		.4byte	.LASF263
 7314 1757 01       		.byte	0x1
 7315 1758 3A01     		.2byte	0x13a
 7316 175a EB110000 		.4byte	0x11eb
 7317 175e 150A0000 		.4byte	.LLST51
 7318 1762 25       		.uleb128 0x25
 7319 1763 2C020000 		.4byte	.LASF237
ARM GAS  /tmp/ccPo84yg.s 			page 130


 7320 1767 01       		.byte	0x1
 7321 1768 3B01     		.2byte	0x13b
 7322 176a E0070000 		.4byte	0x7e0
 7323 176e 280A0000 		.4byte	.LLST52
 7324 1772 2A       		.uleb128 0x2a
 7325 1773 6C000000 		.4byte	.LASF261
 7326 1777 01       		.byte	0x1
 7327 1778 3C01     		.2byte	0x13c
 7328 177a 17050000 		.4byte	0x517
 7329 177e 02       		.byte	0x2
 7330 177f 91       		.byte	0x91
 7331 1780 54       		.sleb128 -44
 7332 1781 25       		.uleb128 0x25
 7333 1782 8D0B0000 		.4byte	.LASF104
 7334 1786 01       		.byte	0x1
 7335 1787 3D01     		.2byte	0x13d
 7336 1789 D0040000 		.4byte	0x4d0
 7337 178d 600A0000 		.4byte	.LLST53
 7338 1791 25       		.uleb128 0x25
 7339 1792 E3050000 		.4byte	.LASF264
 7340 1796 01       		.byte	0x1
 7341 1797 3E01     		.2byte	0x13e
 7342 1799 29000000 		.4byte	0x29
 7343 179d 8C0A0000 		.4byte	.LLST54
 7344 17a1 37       		.uleb128 0x37
 7345 17a2 73696E00 		.ascii	"sin\000"
 7346 17a6 01       		.byte	0x1
 7347 17a7 3F01     		.2byte	0x13f
 7348 17a9 3D050000 		.4byte	0x53d
 7349 17ad 02       		.byte	0x2
 7350 17ae 91       		.byte	0x91
 7351 17af 58       		.sleb128 -40
 7352 17b0 29       		.uleb128 0x29
 7353 17b1 65727200 		.ascii	"err\000"
 7354 17b5 01       		.byte	0x1
 7355 17b6 4001     		.2byte	0x140
 7356 17b8 4C060000 		.4byte	0x64c
 7357 17bc D60A0000 		.4byte	.LLST55
 7358 17c0 38       		.uleb128 0x38
 7359 17c1 F7110000 		.4byte	0x11f7
 7360 17c5 04000000 		.4byte	.LBB61
 7361 17c9 88000000 		.4byte	.Ldebug_ranges0+0x88
 7362 17cd 01       		.byte	0x1
 7363 17ce 4401     		.2byte	0x144
 7364 17d0 ED170000 		.4byte	0x17ed
 7365 17d4 2D       		.uleb128 0x2d
 7366 17d5 08120000 		.4byte	0x1208
 7367 17d9 28090000 		.4byte	.LLST48
 7368 17dd 35       		.uleb128 0x35
 7369 17de A8000000 		.4byte	.Ldebug_ranges0+0xa8
 7370 17e2 2F       		.uleb128 0x2f
 7371 17e3 11120000 		.4byte	0x1211
 7372 17e7 150B0000 		.4byte	.LLST57
 7373 17eb 00       		.byte	0
 7374 17ec 00       		.byte	0
 7375 17ed 39       		.uleb128 0x39
 7376 17ee 36000000 		.4byte	.LVL132
ARM GAS  /tmp/ccPo84yg.s 			page 131


 7377 17f2 942B0000 		.4byte	0x2b94
 7378 17f6 01180000 		.4byte	0x1801
 7379 17fa 32       		.uleb128 0x32
 7380 17fb 01       		.byte	0x1
 7381 17fc 51       		.byte	0x51
 7382 17fd 02       		.byte	0x2
 7383 17fe 91       		.byte	0x91
 7384 17ff 50       		.sleb128 -48
 7385 1800 00       		.byte	0
 7386 1801 39       		.uleb128 0x39
 7387 1802 54000000 		.4byte	.LVL135
 7388 1806 342B0000 		.4byte	0x2b34
 7389 180a 20180000 		.4byte	0x1820
 7390 180e 32       		.uleb128 0x32
 7391 180f 01       		.byte	0x1
 7392 1810 53       		.byte	0x53
 7393 1811 01       		.byte	0x1
 7394 1812 30       		.byte	0x30
 7395 1813 32       		.uleb128 0x32
 7396 1814 01       		.byte	0x1
 7397 1815 52       		.byte	0x52
 7398 1816 02       		.byte	0x2
 7399 1817 91       		.byte	0x91
 7400 1818 4E       		.sleb128 -50
 7401 1819 32       		.uleb128 0x32
 7402 181a 01       		.byte	0x1
 7403 181b 51       		.byte	0x51
 7404 181c 02       		.byte	0x2
 7405 181d 91       		.byte	0x91
 7406 181e 54       		.sleb128 -44
 7407 181f 00       		.byte	0
 7408 1820 26       		.uleb128 0x26
 7409 1821 80000000 		.4byte	.LVL138
 7410 1825 5B2B0000 		.4byte	0x2b5b
 7411 1829 39       		.uleb128 0x39
 7412 182a 9C000000 		.4byte	.LVL139
 7413 182e 732B0000 		.4byte	0x2b73
 7414 1832 43180000 		.4byte	0x1843
 7415 1836 32       		.uleb128 0x32
 7416 1837 01       		.byte	0x1
 7417 1838 51       		.byte	0x51
 7418 1839 02       		.byte	0x2
 7419 183a 91       		.byte	0x91
 7420 183b 58       		.sleb128 -40
 7421 183c 32       		.uleb128 0x32
 7422 183d 01       		.byte	0x1
 7423 183e 50       		.byte	0x50
 7424 183f 02       		.byte	0x2
 7425 1840 77       		.byte	0x77
 7426 1841 00       		.sleb128 0
 7427 1842 00       		.byte	0
 7428 1843 39       		.uleb128 0x39
 7429 1844 A4000000 		.4byte	.LVL140
 7430 1848 38120000 		.4byte	0x1238
 7431 184c 56180000 		.4byte	0x1856
 7432 1850 32       		.uleb128 0x32
 7433 1851 01       		.byte	0x1
ARM GAS  /tmp/ccPo84yg.s 			page 132


 7434 1852 51       		.byte	0x51
 7435 1853 01       		.byte	0x1
 7436 1854 31       		.byte	0x31
 7437 1855 00       		.byte	0
 7438 1856 26       		.uleb128 0x26
 7439 1857 BC000000 		.4byte	.LVL143
 7440 185b 152B0000 		.4byte	0x2b15
 7441 185f 26       		.uleb128 0x26
 7442 1860 E8000000 		.4byte	.LVL148
 7443 1864 152B0000 		.4byte	0x2b15
 7444 1868 26       		.uleb128 0x26
 7445 1869 EE000000 		.4byte	.LVL150
 7446 186d 152B0000 		.4byte	0x2b15
 7447 1871 26       		.uleb128 0x26
 7448 1872 F6000000 		.4byte	.LVL152
 7449 1876 152B0000 		.4byte	0x2b15
 7450 187a 26       		.uleb128 0x26
 7451 187b 18010000 		.4byte	.LVL160
 7452 187f B72B0000 		.4byte	0x2bb7
 7453 1883 26       		.uleb128 0x26
 7454 1884 38010000 		.4byte	.LVL164
 7455 1888 B72B0000 		.4byte	0x2bb7
 7456 188c 00       		.byte	0
 7457 188d 3B       		.uleb128 0x3b
 7458 188e 01       		.byte	0x1
 7459 188f F10C0000 		.4byte	.LASF266
 7460 1893 01       		.byte	0x1
 7461 1894 9101     		.2byte	0x191
 7462 1896 01       		.byte	0x1
 7463 1897 29000000 		.4byte	0x29
 7464 189b 00000000 		.4byte	.LFB13
 7465 189f 78000000 		.4byte	.LFE13
 7466 18a3 330B0000 		.4byte	.LLST58
 7467 18a7 01       		.byte	0x1
 7468 18a8 81190000 		.4byte	0x1981
 7469 18ac 24       		.uleb128 0x24
 7470 18ad 7300     		.ascii	"s\000"
 7471 18af 01       		.byte	0x1
 7472 18b0 9101     		.2byte	0x191
 7473 18b2 29000000 		.4byte	0x29
 7474 18b6 5F0B0000 		.4byte	.LLST59
 7475 18ba 28       		.uleb128 0x28
 7476 18bb 800B0000 		.4byte	.LASF259
 7477 18bf 01       		.byte	0x1
 7478 18c0 9101     		.2byte	0x191
 7479 18c2 81190000 		.4byte	0x1981
 7480 18c6 800B0000 		.4byte	.LLST60
 7481 18ca 28       		.uleb128 0x28
 7482 18cb 5B030000 		.4byte	.LASF260
 7483 18cf 01       		.byte	0x1
 7484 18d0 9101     		.2byte	0x191
 7485 18d2 E6040000 		.4byte	0x4e6
 7486 18d6 D30B0000 		.4byte	.LLST61
 7487 18da 2A       		.uleb128 0x2a
 7488 18db FC070000 		.4byte	.LASF230
 7489 18df 01       		.byte	0x1
 7490 18e0 9301     		.2byte	0x193
ARM GAS  /tmp/ccPo84yg.s 			page 133


 7491 18e2 EB110000 		.4byte	0x11eb
 7492 18e6 01       		.byte	0x1
 7493 18e7 56       		.byte	0x56
 7494 18e8 2A       		.uleb128 0x2a
 7495 18e9 D0000000 		.4byte	.LASF267
 7496 18ed 01       		.byte	0x1
 7497 18ee 9401     		.2byte	0x194
 7498 18f0 17050000 		.4byte	0x517
 7499 18f4 02       		.byte	0x2
 7500 18f5 91       		.byte	0x91
 7501 18f6 6C       		.sleb128 -20
 7502 18f7 25       		.uleb128 0x25
 7503 18f8 70040000 		.4byte	.LASF145
 7504 18fc 01       		.byte	0x1
 7505 18fd 9501     		.2byte	0x195
 7506 18ff D0040000 		.4byte	0x4d0
 7507 1903 0D0C0000 		.4byte	.LLST62
 7508 1907 29       		.uleb128 0x29
 7509 1908 65727200 		.ascii	"err\000"
 7510 190c 01       		.byte	0x1
 7511 190d 9601     		.2byte	0x196
 7512 190f 4C060000 		.4byte	0x64c
 7513 1913 210C0000 		.4byte	.LLST63
 7514 1917 25       		.uleb128 0x25
 7515 1918 4E0A0000 		.4byte	.LASF268
 7516 191c 01       		.byte	0x1
 7517 191d 9701     		.2byte	0x197
 7518 191f 8C190000 		.4byte	0x198c
 7519 1923 3F0C0000 		.4byte	.LLST64
 7520 1927 38       		.uleb128 0x38
 7521 1928 F7110000 		.4byte	0x11f7
 7522 192c 02000000 		.4byte	.LBB67
 7523 1930 C8000000 		.4byte	.Ldebug_ranges0+0xc8
 7524 1934 01       		.byte	0x1
 7525 1935 9901     		.2byte	0x199
 7526 1937 54190000 		.4byte	0x1954
 7527 193b 2D       		.uleb128 0x2d
 7528 193c 08120000 		.4byte	0x1208
 7529 1940 5F0B0000 		.4byte	.LLST59
 7530 1944 35       		.uleb128 0x35
 7531 1945 E8000000 		.4byte	.Ldebug_ranges0+0xe8
 7532 1949 2F       		.uleb128 0x2f
 7533 194a 11120000 		.4byte	0x1211
 7534 194e 6E0C0000 		.4byte	.LLST66
 7535 1952 00       		.byte	0
 7536 1953 00       		.byte	0
 7537 1954 26       		.uleb128 0x26
 7538 1955 32000000 		.4byte	.LVL171
 7539 1959 CF2B0000 		.4byte	0x2bcf
 7540 195d 39       		.uleb128 0x39
 7541 195e 3C000000 		.4byte	.LVL172
 7542 1962 E72B0000 		.4byte	0x2be7
 7543 1966 77190000 		.4byte	0x1977
 7544 196a 32       		.uleb128 0x32
 7545 196b 01       		.byte	0x1
 7546 196c 51       		.byte	0x51
 7547 196d 02       		.byte	0x2
ARM GAS  /tmp/ccPo84yg.s 			page 134


 7548 196e 74       		.byte	0x74
 7549 196f 00       		.sleb128 0
 7550 1970 32       		.uleb128 0x32
 7551 1971 01       		.byte	0x1
 7552 1972 50       		.byte	0x50
 7553 1973 02       		.byte	0x2
 7554 1974 75       		.byte	0x75
 7555 1975 00       		.sleb128 0
 7556 1976 00       		.byte	0
 7557 1977 26       		.uleb128 0x26
 7558 1978 4E000000 		.4byte	.LVL176
 7559 197c 152B0000 		.4byte	0x2b15
 7560 1980 00       		.byte	0
 7561 1981 09       		.uleb128 0x9
 7562 1982 04       		.byte	0x4
 7563 1983 87190000 		.4byte	0x1987
 7564 1987 12       		.uleb128 0x12
 7565 1988 A0050000 		.4byte	0x5a0
 7566 198c 09       		.uleb128 0x9
 7567 198d 04       		.byte	0x4
 7568 198e 92190000 		.4byte	0x1992
 7569 1992 12       		.uleb128 0x12
 7570 1993 3D050000 		.4byte	0x53d
 7571 1997 3C       		.uleb128 0x3c
 7572 1998 330B0000 		.4byte	.LASF345
 7573 199c 01       		.byte	0x1
 7574 199d 1801     		.2byte	0x118
 7575 199f 01       		.byte	0x1
 7576 19a0 01       		.byte	0x1
 7577 19a1 CA190000 		.4byte	0x19ca
 7578 19a5 3D       		.uleb128 0x3d
 7579 19a6 FC070000 		.4byte	.LASF230
 7580 19aa 01       		.byte	0x1
 7581 19ab 1801     		.2byte	0x118
 7582 19ad EB110000 		.4byte	0x11eb
 7583 19b1 3D       		.uleb128 0x3d
 7584 19b2 000E0000 		.4byte	.LASF269
 7585 19b6 01       		.byte	0x1
 7586 19b7 1801     		.2byte	0x118
 7587 19b9 29000000 		.4byte	0x29
 7588 19bd 3E       		.uleb128 0x3e
 7589 19be 4B010000 		.4byte	.LASF217
 7590 19c2 01       		.byte	0x1
 7591 19c3 1A01     		.2byte	0x11a
 7592 19c5 B2020000 		.4byte	0x2b2
 7593 19c9 00       		.byte	0
 7594 19ca 3B       		.uleb128 0x3b
 7595 19cb 01       		.byte	0x1
 7596 19cc E4000000 		.4byte	.LASF270
 7597 19d0 01       		.byte	0x1
 7598 19d1 B901     		.2byte	0x1b9
 7599 19d3 01       		.byte	0x1
 7600 19d4 29000000 		.4byte	0x29
 7601 19d8 00000000 		.4byte	.LFB14
 7602 19dc 58000000 		.4byte	.LFE14
 7603 19e0 8C0C0000 		.4byte	.LLST67
 7604 19e4 01       		.byte	0x1
ARM GAS  /tmp/ccPo84yg.s 			page 135


 7605 19e5 941A0000 		.4byte	0x1a94
 7606 19e9 24       		.uleb128 0x24
 7607 19ea 7300     		.ascii	"s\000"
 7608 19ec 01       		.byte	0x1
 7609 19ed B901     		.2byte	0x1b9
 7610 19ef 29000000 		.4byte	0x29
 7611 19f3 AC0C0000 		.4byte	.LLST68
 7612 19f7 2A       		.uleb128 0x2a
 7613 19f8 FC070000 		.4byte	.LASF230
 7614 19fc 01       		.byte	0x1
 7615 19fd BB01     		.2byte	0x1bb
 7616 19ff EB110000 		.4byte	0x11eb
 7617 1a03 01       		.byte	0x1
 7618 1a04 55       		.byte	0x55
 7619 1a05 25       		.uleb128 0x25
 7620 1a06 000E0000 		.4byte	.LASF269
 7621 1a0a 01       		.byte	0x1
 7622 1a0b BC01     		.2byte	0x1bc
 7623 1a0d 29000000 		.4byte	0x29
 7624 1a11 CD0C0000 		.4byte	.LLST69
 7625 1a15 38       		.uleb128 0x38
 7626 1a16 F7110000 		.4byte	0x11f7
 7627 1a1a 00000000 		.4byte	.LBB77
 7628 1a1e 08010000 		.4byte	.Ldebug_ranges0+0x108
 7629 1a22 01       		.byte	0x1
 7630 1a23 C001     		.2byte	0x1c0
 7631 1a25 421A0000 		.4byte	0x1a42
 7632 1a29 2D       		.uleb128 0x2d
 7633 1a2a 08120000 		.4byte	0x1208
 7634 1a2e AC0C0000 		.4byte	.LLST68
 7635 1a32 35       		.uleb128 0x35
 7636 1a33 28010000 		.4byte	.Ldebug_ranges0+0x128
 7637 1a37 2F       		.uleb128 0x2f
 7638 1a38 11120000 		.4byte	0x1211
 7639 1a3c 170D0000 		.4byte	.LLST71
 7640 1a40 00       		.byte	0
 7641 1a41 00       		.byte	0
 7642 1a42 38       		.uleb128 0x38
 7643 1a43 97190000 		.4byte	0x1997
 7644 1a47 20000000 		.4byte	.LBB82
 7645 1a4b 48010000 		.4byte	.Ldebug_ranges0+0x148
 7646 1a4f 01       		.byte	0x1
 7647 1a50 CD01     		.2byte	0x1cd
 7648 1a52 8A1A0000 		.4byte	0x1a8a
 7649 1a56 2D       		.uleb128 0x2d
 7650 1a57 B1190000 		.4byte	0x19b1
 7651 1a5b 350D0000 		.4byte	.LLST72
 7652 1a5f 2D       		.uleb128 0x2d
 7653 1a60 A5190000 		.4byte	0x19a5
 7654 1a64 670D0000 		.4byte	.LLST73
 7655 1a68 35       		.uleb128 0x35
 7656 1a69 60010000 		.4byte	.Ldebug_ranges0+0x160
 7657 1a6d 2F       		.uleb128 0x2f
 7658 1a6e BD190000 		.4byte	0x19bd
 7659 1a72 850D0000 		.4byte	.LLST74
 7660 1a76 26       		.uleb128 0x26
 7661 1a77 38000000 		.4byte	.LVL185
ARM GAS  /tmp/ccPo84yg.s 			page 136


 7662 1a7b 092C0000 		.4byte	0x2c09
 7663 1a7f 26       		.uleb128 0x26
 7664 1a80 4E000000 		.4byte	.LVL188
 7665 1a84 1D2C0000 		.4byte	0x2c1d
 7666 1a88 00       		.byte	0
 7667 1a89 00       		.byte	0
 7668 1a8a 26       		.uleb128 0x26
 7669 1a8b 20000000 		.4byte	.LVL183
 7670 1a8f B72B0000 		.4byte	0x2bb7
 7671 1a93 00       		.byte	0
 7672 1a94 3B       		.uleb128 0x3b
 7673 1a95 01       		.byte	0x1
 7674 1a96 AE040000 		.4byte	.LASF271
 7675 1a9a 01       		.byte	0x1
 7676 1a9b D301     		.2byte	0x1d3
 7677 1a9d 01       		.byte	0x1
 7678 1a9e 29000000 		.4byte	0x29
 7679 1aa2 00000000 		.4byte	.LFB15
 7680 1aa6 78000000 		.4byte	.LFE15
 7681 1aaa A30D0000 		.4byte	.LLST75
 7682 1aae 01       		.byte	0x1
 7683 1aaf 921B0000 		.4byte	0x1b92
 7684 1ab3 24       		.uleb128 0x24
 7685 1ab4 7300     		.ascii	"s\000"
 7686 1ab6 01       		.byte	0x1
 7687 1ab7 D301     		.2byte	0x1d3
 7688 1ab9 29000000 		.4byte	0x29
 7689 1abd CF0D0000 		.4byte	.LLST76
 7690 1ac1 28       		.uleb128 0x28
 7691 1ac2 800B0000 		.4byte	.LASF259
 7692 1ac6 01       		.byte	0x1
 7693 1ac7 D301     		.2byte	0x1d3
 7694 1ac9 81190000 		.4byte	0x1981
 7695 1acd F00D0000 		.4byte	.LLST77
 7696 1ad1 28       		.uleb128 0x28
 7697 1ad2 5B030000 		.4byte	.LASF260
 7698 1ad6 01       		.byte	0x1
 7699 1ad7 D301     		.2byte	0x1d3
 7700 1ad9 E6040000 		.4byte	0x4e6
 7701 1add 430E0000 		.4byte	.LLST78
 7702 1ae1 2A       		.uleb128 0x2a
 7703 1ae2 FC070000 		.4byte	.LASF230
 7704 1ae6 01       		.byte	0x1
 7705 1ae7 D501     		.2byte	0x1d5
 7706 1ae9 EB110000 		.4byte	0x11eb
 7707 1aed 01       		.byte	0x1
 7708 1aee 55       		.byte	0x55
 7709 1aef 29       		.uleb128 0x29
 7710 1af0 65727200 		.ascii	"err\000"
 7711 1af4 01       		.byte	0x1
 7712 1af5 D601     		.2byte	0x1d6
 7713 1af7 4C060000 		.4byte	0x64c
 7714 1afb 960E0000 		.4byte	.LLST79
 7715 1aff 25       		.uleb128 0x25
 7716 1b00 4E0A0000 		.4byte	.LASF268
 7717 1b04 01       		.byte	0x1
 7718 1b05 D701     		.2byte	0x1d7
ARM GAS  /tmp/ccPo84yg.s 			page 137


 7719 1b07 8C190000 		.4byte	0x198c
 7720 1b0b B40E0000 		.4byte	.LLST80
 7721 1b0f 38       		.uleb128 0x38
 7722 1b10 F7110000 		.4byte	0x11f7
 7723 1b14 02000000 		.4byte	.LBB87
 7724 1b18 78010000 		.4byte	.Ldebug_ranges0+0x178
 7725 1b1c 01       		.byte	0x1
 7726 1b1d D901     		.2byte	0x1d9
 7727 1b1f 3C1B0000 		.4byte	0x1b3c
 7728 1b23 2D       		.uleb128 0x2d
 7729 1b24 08120000 		.4byte	0x1208
 7730 1b28 CF0D0000 		.4byte	.LLST76
 7731 1b2c 35       		.uleb128 0x35
 7732 1b2d 98010000 		.4byte	.Ldebug_ranges0+0x198
 7733 1b31 2F       		.uleb128 0x2f
 7734 1b32 11120000 		.4byte	0x1211
 7735 1b36 E30E0000 		.4byte	.LLST82
 7736 1b3a 00       		.byte	0
 7737 1b3b 00       		.byte	0
 7738 1b3c 3F       		.uleb128 0x3f
 7739 1b3d 24000000 		.4byte	.LBB92
 7740 1b41 3C000000 		.4byte	.LBE92
 7741 1b45 881B0000 		.4byte	0x1b88
 7742 1b49 2A       		.uleb128 0x2a
 7743 1b4a 70060000 		.4byte	.LASF272
 7744 1b4e 01       		.byte	0x1
 7745 1b4f E801     		.2byte	0x1e8
 7746 1b51 17050000 		.4byte	0x517
 7747 1b55 02       		.byte	0x2
 7748 1b56 91       		.byte	0x91
 7749 1b57 6C       		.sleb128 -20
 7750 1b58 25       		.uleb128 0x25
 7751 1b59 80090000 		.4byte	.LASF146
 7752 1b5d 01       		.byte	0x1
 7753 1b5e E901     		.2byte	0x1e9
 7754 1b60 D0040000 		.4byte	0x4d0
 7755 1b64 010F0000 		.4byte	.LLST83
 7756 1b68 26       		.uleb128 0x26
 7757 1b69 32000000 		.4byte	.LVL194
 7758 1b6d CF2B0000 		.4byte	0x2bcf
 7759 1b71 31       		.uleb128 0x31
 7760 1b72 3C000000 		.4byte	.LVL195
 7761 1b76 352C0000 		.4byte	0x2c35
 7762 1b7a 32       		.uleb128 0x32
 7763 1b7b 01       		.byte	0x1
 7764 1b7c 51       		.byte	0x51
 7765 1b7d 02       		.byte	0x2
 7766 1b7e 74       		.byte	0x74
 7767 1b7f 00       		.sleb128 0
 7768 1b80 32       		.uleb128 0x32
 7769 1b81 01       		.byte	0x1
 7770 1b82 50       		.byte	0x50
 7771 1b83 02       		.byte	0x2
 7772 1b84 76       		.byte	0x76
 7773 1b85 00       		.sleb128 0
 7774 1b86 00       		.byte	0
 7775 1b87 00       		.byte	0
ARM GAS  /tmp/ccPo84yg.s 			page 138


 7776 1b88 26       		.uleb128 0x26
 7777 1b89 4E000000 		.4byte	.LVL199
 7778 1b8d 152B0000 		.4byte	0x2b15
 7779 1b91 00       		.byte	0
 7780 1b92 3B       		.uleb128 0x3b
 7781 1b93 01       		.byte	0x1
 7782 1b94 DF060000 		.4byte	.LASF273
 7783 1b98 01       		.byte	0x1
 7784 1b99 0902     		.2byte	0x209
 7785 1b9b 01       		.byte	0x1
 7786 1b9c 29000000 		.4byte	0x29
 7787 1ba0 00000000 		.4byte	.LFB16
 7788 1ba4 50000000 		.4byte	.LFE16
 7789 1ba8 150F0000 		.4byte	.LLST84
 7790 1bac 01       		.byte	0x1
 7791 1bad 241C0000 		.4byte	0x1c24
 7792 1bb1 24       		.uleb128 0x24
 7793 1bb2 7300     		.ascii	"s\000"
 7794 1bb4 01       		.byte	0x1
 7795 1bb5 0902     		.2byte	0x209
 7796 1bb7 29000000 		.4byte	0x29
 7797 1bbb 350F0000 		.4byte	.LLST85
 7798 1bbf 28       		.uleb128 0x28
 7799 1bc0 FE020000 		.4byte	.LASF274
 7800 1bc4 01       		.byte	0x1
 7801 1bc5 0902     		.2byte	0x209
 7802 1bc7 29000000 		.4byte	0x29
 7803 1bcb 560F0000 		.4byte	.LLST86
 7804 1bcf 2A       		.uleb128 0x2a
 7805 1bd0 FC070000 		.4byte	.LASF230
 7806 1bd4 01       		.byte	0x1
 7807 1bd5 0B02     		.2byte	0x20b
 7808 1bd7 EB110000 		.4byte	0x11eb
 7809 1bdb 01       		.byte	0x1
 7810 1bdc 54       		.byte	0x54
 7811 1bdd 29       		.uleb128 0x29
 7812 1bde 65727200 		.ascii	"err\000"
 7813 1be2 01       		.byte	0x1
 7814 1be3 0C02     		.2byte	0x20c
 7815 1be5 4C060000 		.4byte	0x64c
 7816 1be9 820F0000 		.4byte	.LLST87
 7817 1bed 38       		.uleb128 0x38
 7818 1bee F7110000 		.4byte	0x11f7
 7819 1bf2 00000000 		.4byte	.LBB94
 7820 1bf6 B8010000 		.4byte	.Ldebug_ranges0+0x1b8
 7821 1bfa 01       		.byte	0x1
 7822 1bfb 1002     		.2byte	0x210
 7823 1bfd 1A1C0000 		.4byte	0x1c1a
 7824 1c01 2D       		.uleb128 0x2d
 7825 1c02 08120000 		.4byte	0x1208
 7826 1c06 350F0000 		.4byte	.LLST85
 7827 1c0a 35       		.uleb128 0x35
 7828 1c0b D8010000 		.4byte	.Ldebug_ranges0+0x1d8
 7829 1c0f 2F       		.uleb128 0x2f
 7830 1c10 11120000 		.4byte	0x1211
 7831 1c14 A00F0000 		.4byte	.LLST89
 7832 1c18 00       		.byte	0
ARM GAS  /tmp/ccPo84yg.s 			page 139


 7833 1c19 00       		.byte	0
 7834 1c1a 26       		.uleb128 0x26
 7835 1c1b 1E000000 		.4byte	.LVL206
 7836 1c1f 572C0000 		.4byte	0x2c57
 7837 1c23 00       		.byte	0
 7838 1c24 3B       		.uleb128 0x3b
 7839 1c25 01       		.byte	0x1
 7840 1c26 4A070000 		.4byte	.LASF275
 7841 1c2a 01       		.byte	0x1
 7842 1c2b 2502     		.2byte	0x225
 7843 1c2d 01       		.byte	0x1
 7844 1c2e 29000000 		.4byte	0x29
 7845 1c32 00000000 		.4byte	.LFB17
 7846 1c36 14020000 		.4byte	.LFE17
 7847 1c3a BE0F0000 		.4byte	.LLST90
 7848 1c3e 01       		.byte	0x1
 7849 1c3f 511E0000 		.4byte	0x1e51
 7850 1c43 24       		.uleb128 0x24
 7851 1c44 7300     		.ascii	"s\000"
 7852 1c46 01       		.byte	0x1
 7853 1c47 2502     		.2byte	0x225
 7854 1c49 29000000 		.4byte	0x29
 7855 1c4d EB0F0000 		.4byte	.LLST91
 7856 1c51 24       		.uleb128 0x24
 7857 1c52 6D656D00 		.ascii	"mem\000"
 7858 1c56 01       		.byte	0x1
 7859 1c57 2502     		.2byte	0x225
 7860 1c59 B2020000 		.4byte	0x2b2
 7861 1c5d 0C100000 		.4byte	.LLST92
 7862 1c61 24       		.uleb128 0x24
 7863 1c62 6C656E00 		.ascii	"len\000"
 7864 1c66 01       		.byte	0x1
 7865 1c67 2502     		.2byte	0x225
 7866 1c69 30000000 		.4byte	0x30
 7867 1c6d 44100000 		.4byte	.LLST93
 7868 1c71 28       		.uleb128 0x28
 7869 1c72 A8040000 		.4byte	.LASF102
 7870 1c76 01       		.byte	0x1
 7871 1c77 2502     		.2byte	0x225
 7872 1c79 29000000 		.4byte	0x29
 7873 1c7d 93100000 		.4byte	.LLST94
 7874 1c81 34       		.uleb128 0x34
 7875 1c82 2E010000 		.4byte	.LASF276
 7876 1c86 01       		.byte	0x1
 7877 1c87 2602     		.2byte	0x226
 7878 1c89 DC160000 		.4byte	0x16dc
 7879 1c8d 02       		.byte	0x2
 7880 1c8e 91       		.byte	0x91
 7881 1c8f 00       		.sleb128 0
 7882 1c90 34       		.uleb128 0x34
 7883 1c91 A8080000 		.4byte	.LASF277
 7884 1c95 01       		.byte	0x1
 7885 1c96 2602     		.2byte	0x226
 7886 1c98 F1110000 		.4byte	0x11f1
 7887 1c9c 02       		.byte	0x2
 7888 1c9d 91       		.byte	0x91
 7889 1c9e 04       		.sleb128 4
ARM GAS  /tmp/ccPo84yg.s 			page 140


 7890 1c9f 2A       		.uleb128 0x2a
 7891 1ca0 FC070000 		.4byte	.LASF230
 7892 1ca4 01       		.byte	0x1
 7893 1ca5 2802     		.2byte	0x228
 7894 1ca7 EB110000 		.4byte	0x11eb
 7895 1cab 01       		.byte	0x1
 7896 1cac 55       		.byte	0x55
 7897 1cad 37       		.uleb128 0x37
 7898 1cae 62756600 		.ascii	"buf\000"
 7899 1cb2 01       		.byte	0x1
 7900 1cb3 2902     		.2byte	0x229
 7901 1cb5 B2020000 		.4byte	0x2b2
 7902 1cb9 02       		.byte	0x2
 7903 1cba 91       		.byte	0x91
 7904 1cbb 40       		.sleb128 -64
 7905 1cbc 29       		.uleb128 0x29
 7906 1cbd 7000     		.ascii	"p\000"
 7907 1cbf 01       		.byte	0x1
 7908 1cc0 2A02     		.2byte	0x22a
 7909 1cc2 C6060000 		.4byte	0x6c6
 7910 1cc6 E4100000 		.4byte	.LLST95
 7911 1cca 25       		.uleb128 0x25
 7912 1ccb DF070000 		.4byte	.LASF278
 7913 1ccf 01       		.byte	0x1
 7914 1cd0 2B02     		.2byte	0x22b
 7915 1cd2 D0040000 		.4byte	0x4d0
 7916 1cd6 0D110000 		.4byte	.LLST96
 7917 1cda 25       		.uleb128 0x25
 7918 1cdb 6F030000 		.4byte	.LASF279
 7919 1cdf 01       		.byte	0x1
 7920 1ce0 2B02     		.2byte	0x22b
 7921 1ce2 D0040000 		.4byte	0x4d0
 7922 1ce6 58110000 		.4byte	.LLST97
 7923 1cea 29       		.uleb128 0x29
 7924 1ceb 6F666600 		.ascii	"off\000"
 7925 1cef 01       		.byte	0x1
 7926 1cf0 2C02     		.2byte	0x22c
 7927 1cf2 29000000 		.4byte	0x29
 7928 1cf6 8C110000 		.4byte	.LLST98
 7929 1cfa 25       		.uleb128 0x25
 7930 1cfb C5070000 		.4byte	.LASF77
 7931 1cff 01       		.byte	0x1
 7932 1d00 2D02     		.2byte	0x22d
 7933 1d02 B80D0000 		.4byte	0xdb8
 7934 1d06 CD110000 		.4byte	.LLST99
 7935 1d0a 25       		.uleb128 0x25
 7936 1d0b 8D0B0000 		.4byte	.LASF104
 7937 1d0f 01       		.byte	0x1
 7938 1d10 2E02     		.2byte	0x22e
 7939 1d12 D0040000 		.4byte	0x4d0
 7940 1d16 10120000 		.4byte	.LLST100
 7941 1d1a 25       		.uleb128 0x25
 7942 1d1b 4F080000 		.4byte	.LASF280
 7943 1d1f 01       		.byte	0x1
 7944 1d20 2F02     		.2byte	0x22f
 7945 1d22 BA040000 		.4byte	0x4ba
 7946 1d26 32120000 		.4byte	.LLST101
ARM GAS  /tmp/ccPo84yg.s 			page 141


 7947 1d2a 29       		.uleb128 0x29
 7948 1d2b 65727200 		.ascii	"err\000"
 7949 1d2f 01       		.byte	0x1
 7950 1d30 3002     		.2byte	0x230
 7951 1d32 4C060000 		.4byte	0x64c
 7952 1d36 9A120000 		.4byte	.LLST102
 7953 1d3a 38       		.uleb128 0x38
 7954 1d3b F7110000 		.4byte	0x11f7
 7955 1d3f 08000000 		.4byte	.LBB100
 7956 1d43 F8010000 		.4byte	.Ldebug_ranges0+0x1f8
 7957 1d47 01       		.byte	0x1
 7958 1d48 3302     		.2byte	0x233
 7959 1d4a 671D0000 		.4byte	0x1d67
 7960 1d4e 2D       		.uleb128 0x2d
 7961 1d4f 08120000 		.4byte	0x1208
 7962 1d53 CE120000 		.4byte	.LLST103
 7963 1d57 35       		.uleb128 0x35
 7964 1d58 18020000 		.4byte	.Ldebug_ranges0+0x218
 7965 1d5c 2F       		.uleb128 0x2f
 7966 1d5d 11120000 		.4byte	0x1211
 7967 1d61 EF120000 		.4byte	.LLST104
 7968 1d65 00       		.byte	0
 7969 1d66 00       		.byte	0
 7970 1d67 30       		.uleb128 0x30
 7971 1d68 38020000 		.4byte	.Ldebug_ranges0+0x238
 7972 1d6c D61D0000 		.4byte	0x1dd6
 7973 1d70 2A       		.uleb128 0x2a
 7974 1d71 25090000 		.4byte	.LASF281
 7975 1d75 01       		.byte	0x1
 7976 1d76 9302     		.2byte	0x293
 7977 1d78 17050000 		.4byte	0x517
 7978 1d7c 02       		.byte	0x2
 7979 1d7d 91       		.byte	0x91
 7980 1d7e 44       		.sleb128 -60
 7981 1d7f 35       		.uleb128 0x35
 7982 1d80 60020000 		.4byte	.Ldebug_ranges0+0x260
 7983 1d84 37       		.uleb128 0x37
 7984 1d85 73696E00 		.ascii	"sin\000"
 7985 1d89 01       		.byte	0x1
 7986 1d8a 9502     		.2byte	0x295
 7987 1d8c 3D050000 		.4byte	0x53d
 7988 1d90 02       		.byte	0x2
 7989 1d91 91       		.byte	0x91
 7990 1d92 48       		.sleb128 -56
 7991 1d93 26       		.uleb128 0x26
 7992 1d94 C0000000 		.4byte	.LVL230
 7993 1d98 5B2B0000 		.4byte	0x2b5b
 7994 1d9c 39       		.uleb128 0x39
 7995 1d9d E2000000 		.4byte	.LVL231
 7996 1da1 732B0000 		.4byte	0x2b73
 7997 1da5 B71D0000 		.4byte	0x1db7
 7998 1da9 32       		.uleb128 0x32
 7999 1daa 01       		.byte	0x1
 8000 1dab 51       		.byte	0x51
 8001 1dac 02       		.byte	0x2
 8002 1dad 91       		.byte	0x91
 8003 1dae 48       		.sleb128 -56
ARM GAS  /tmp/ccPo84yg.s 			page 142


 8004 1daf 32       		.uleb128 0x32
 8005 1db0 01       		.byte	0x1
 8006 1db1 50       		.byte	0x50
 8007 1db2 03       		.byte	0x3
 8008 1db3 91       		.byte	0x91
 8009 1db4 00       		.sleb128 0
 8010 1db5 06       		.byte	0x6
 8011 1db6 00       		.byte	0
 8012 1db7 31       		.uleb128 0x31
 8013 1db8 CC010000 		.4byte	.LVL258
 8014 1dbc 342B0000 		.4byte	0x2b34
 8015 1dc0 32       		.uleb128 0x32
 8016 1dc1 01       		.byte	0x1
 8017 1dc2 53       		.byte	0x53
 8018 1dc3 02       		.byte	0x2
 8019 1dc4 79       		.byte	0x79
 8020 1dc5 00       		.sleb128 0
 8021 1dc6 32       		.uleb128 0x32
 8022 1dc7 01       		.byte	0x1
 8023 1dc8 52       		.byte	0x52
 8024 1dc9 03       		.byte	0x3
 8025 1dca 91       		.byte	0x91
 8026 1dcb BE7F     		.sleb128 -66
 8027 1dcd 32       		.uleb128 0x32
 8028 1dce 01       		.byte	0x1
 8029 1dcf 51       		.byte	0x51
 8030 1dd0 02       		.byte	0x2
 8031 1dd1 91       		.byte	0x91
 8032 1dd2 44       		.sleb128 -60
 8033 1dd3 00       		.byte	0
 8034 1dd4 00       		.byte	0
 8035 1dd5 00       		.byte	0
 8036 1dd6 39       		.uleb128 0x39
 8037 1dd7 6A000000 		.4byte	.LVL225
 8038 1ddb 742C0000 		.4byte	0x2c74
 8039 1ddf FB1D0000 		.4byte	0x1dfb
 8040 1de3 32       		.uleb128 0x32
 8041 1de4 01       		.byte	0x1
 8042 1de5 52       		.byte	0x52
 8043 1de6 02       		.byte	0x2
 8044 1de7 7B       		.byte	0x7b
 8045 1de8 00       		.sleb128 0
 8046 1de9 32       		.uleb128 0x32
 8047 1dea 01       		.byte	0x1
 8048 1deb 51       		.byte	0x51
 8049 1dec 07       		.byte	0x7
 8050 1ded 91       		.byte	0x91
 8051 1dee AC7F     		.sleb128 -84
 8052 1df0 06       		.byte	0x6
 8053 1df1 76       		.byte	0x76
 8054 1df2 00       		.sleb128 0
 8055 1df3 22       		.byte	0x22
 8056 1df4 32       		.uleb128 0x32
 8057 1df5 01       		.byte	0x1
 8058 1df6 50       		.byte	0x50
 8059 1df7 02       		.byte	0x2
 8060 1df8 74       		.byte	0x74
ARM GAS  /tmp/ccPo84yg.s 			page 143


 8061 1df9 00       		.sleb128 0
 8062 1dfa 00       		.byte	0
 8063 1dfb 39       		.uleb128 0x39
 8064 1dfc EE000000 		.4byte	.LVL234
 8065 1e00 9B2C0000 		.4byte	0x2c9b
 8066 1e04 0F1E0000 		.4byte	0x1e0f
 8067 1e08 32       		.uleb128 0x32
 8068 1e09 01       		.byte	0x1
 8069 1e0a 51       		.byte	0x51
 8070 1e0b 02       		.byte	0x2
 8071 1e0c 76       		.byte	0x76
 8072 1e0d 00       		.sleb128 0
 8073 1e0e 00       		.byte	0
 8074 1e0f 26       		.uleb128 0x26
 8075 1e10 18010000 		.4byte	.LVL239
 8076 1e14 092C0000 		.4byte	0x2c09
 8077 1e18 39       		.uleb128 0x39
 8078 1e19 48010000 		.4byte	.LVL242
 8079 1e1d B42C0000 		.4byte	0x2cb4
 8080 1e21 2C1E0000 		.4byte	0x1e2c
 8081 1e25 32       		.uleb128 0x32
 8082 1e26 01       		.byte	0x1
 8083 1e27 51       		.byte	0x51
 8084 1e28 02       		.byte	0x2
 8085 1e29 91       		.byte	0x91
 8086 1e2a 40       		.sleb128 -64
 8087 1e2b 00       		.byte	0
 8088 1e2c 26       		.uleb128 0x26
 8089 1e2d A4010000 		.4byte	.LVL251
 8090 1e31 152B0000 		.4byte	0x2b15
 8091 1e35 26       		.uleb128 0x26
 8092 1e36 AA010000 		.4byte	.LVL253
 8093 1e3a D72C0000 		.4byte	0x2cd7
 8094 1e3e 26       		.uleb128 0x26
 8095 1e3f BA010000 		.4byte	.LVL255
 8096 1e43 1D2C0000 		.4byte	0x2c1d
 8097 1e47 26       		.uleb128 0x26
 8098 1e48 D4010000 		.4byte	.LVL261
 8099 1e4c 152B0000 		.4byte	0x2b15
 8100 1e50 00       		.byte	0
 8101 1e51 3B       		.uleb128 0x3b
 8102 1e52 01       		.byte	0x1
 8103 1e53 440A0000 		.4byte	.LASF282
 8104 1e57 01       		.byte	0x1
 8105 1e58 DE02     		.2byte	0x2de
 8106 1e5a 01       		.byte	0x1
 8107 1e5b 29000000 		.4byte	0x29
 8108 1e5f 00000000 		.4byte	.LFB18
 8109 1e63 12000000 		.4byte	.LFE18
 8110 1e67 0D130000 		.4byte	.LLST105
 8111 1e6b 01       		.byte	0x1
 8112 1e6c CF1E0000 		.4byte	0x1ecf
 8113 1e70 24       		.uleb128 0x24
 8114 1e71 7300     		.ascii	"s\000"
 8115 1e73 01       		.byte	0x1
 8116 1e74 DE02     		.2byte	0x2de
 8117 1e76 29000000 		.4byte	0x29
ARM GAS  /tmp/ccPo84yg.s 			page 144


 8118 1e7a 39130000 		.4byte	.LLST106
 8119 1e7e 24       		.uleb128 0x24
 8120 1e7f 6D656D00 		.ascii	"mem\000"
 8121 1e83 01       		.byte	0x1
 8122 1e84 DE02     		.2byte	0x2de
 8123 1e86 B2020000 		.4byte	0x2b2
 8124 1e8a 5A130000 		.4byte	.LLST107
 8125 1e8e 24       		.uleb128 0x24
 8126 1e8f 6C656E00 		.ascii	"len\000"
 8127 1e93 01       		.byte	0x1
 8128 1e94 DE02     		.2byte	0x2de
 8129 1e96 30000000 		.4byte	0x30
 8130 1e9a 7B130000 		.4byte	.LLST108
 8131 1e9e 31       		.uleb128 0x31
 8132 1e9f 0E000000 		.4byte	.LVL268
 8133 1ea3 241C0000 		.4byte	0x1c24
 8134 1ea7 32       		.uleb128 0x32
 8135 1ea8 01       		.byte	0x1
 8136 1ea9 53       		.byte	0x53
 8137 1eaa 01       		.byte	0x1
 8138 1eab 30       		.byte	0x30
 8139 1eac 32       		.uleb128 0x32
 8140 1ead 01       		.byte	0x1
 8141 1eae 52       		.byte	0x52
 8142 1eaf 03       		.byte	0x3
 8143 1eb0 F3       		.byte	0xf3
 8144 1eb1 01       		.uleb128 0x1
 8145 1eb2 52       		.byte	0x52
 8146 1eb3 32       		.uleb128 0x32
 8147 1eb4 01       		.byte	0x1
 8148 1eb5 51       		.byte	0x51
 8149 1eb6 03       		.byte	0x3
 8150 1eb7 F3       		.byte	0xf3
 8151 1eb8 01       		.uleb128 0x1
 8152 1eb9 51       		.byte	0x51
 8153 1eba 32       		.uleb128 0x32
 8154 1ebb 01       		.byte	0x1
 8155 1ebc 50       		.byte	0x50
 8156 1ebd 03       		.byte	0x3
 8157 1ebe F3       		.byte	0xf3
 8158 1ebf 01       		.uleb128 0x1
 8159 1ec0 50       		.byte	0x50
 8160 1ec1 32       		.uleb128 0x32
 8161 1ec2 02       		.byte	0x2
 8162 1ec3 7D       		.byte	0x7d
 8163 1ec4 04       		.sleb128 4
 8164 1ec5 01       		.byte	0x1
 8165 1ec6 30       		.byte	0x30
 8166 1ec7 32       		.uleb128 0x32
 8167 1ec8 02       		.byte	0x2
 8168 1ec9 7D       		.byte	0x7d
 8169 1eca 00       		.sleb128 0
 8170 1ecb 01       		.byte	0x1
 8171 1ecc 30       		.byte	0x30
 8172 1ecd 00       		.byte	0
 8173 1ece 00       		.byte	0
 8174 1ecf 3B       		.uleb128 0x3b
ARM GAS  /tmp/ccPo84yg.s 			page 145


 8175 1ed0 01       		.byte	0x1
 8176 1ed1 5F0B0000 		.4byte	.LASF283
 8177 1ed5 01       		.byte	0x1
 8178 1ed6 E402     		.2byte	0x2e4
 8179 1ed8 01       		.byte	0x1
 8180 1ed9 29000000 		.4byte	0x29
 8181 1edd 00000000 		.4byte	.LFB19
 8182 1ee1 12000000 		.4byte	.LFE19
 8183 1ee5 9C130000 		.4byte	.LLST109
 8184 1ee9 01       		.byte	0x1
 8185 1eea 611F0000 		.4byte	0x1f61
 8186 1eee 24       		.uleb128 0x24
 8187 1eef 7300     		.ascii	"s\000"
 8188 1ef1 01       		.byte	0x1
 8189 1ef2 E402     		.2byte	0x2e4
 8190 1ef4 29000000 		.4byte	0x29
 8191 1ef8 C8130000 		.4byte	.LLST110
 8192 1efc 24       		.uleb128 0x24
 8193 1efd 6D656D00 		.ascii	"mem\000"
 8194 1f01 01       		.byte	0x1
 8195 1f02 E402     		.2byte	0x2e4
 8196 1f04 B2020000 		.4byte	0x2b2
 8197 1f08 E9130000 		.4byte	.LLST111
 8198 1f0c 24       		.uleb128 0x24
 8199 1f0d 6C656E00 		.ascii	"len\000"
 8200 1f11 01       		.byte	0x1
 8201 1f12 E402     		.2byte	0x2e4
 8202 1f14 30000000 		.4byte	0x30
 8203 1f18 0A140000 		.4byte	.LLST112
 8204 1f1c 28       		.uleb128 0x28
 8205 1f1d A8040000 		.4byte	.LASF102
 8206 1f21 01       		.byte	0x1
 8207 1f22 E402     		.2byte	0x2e4
 8208 1f24 29000000 		.4byte	0x29
 8209 1f28 2B140000 		.4byte	.LLST113
 8210 1f2c 31       		.uleb128 0x31
 8211 1f2d 0E000000 		.4byte	.LVL270
 8212 1f31 241C0000 		.4byte	0x1c24
 8213 1f35 32       		.uleb128 0x32
 8214 1f36 01       		.byte	0x1
 8215 1f37 53       		.byte	0x53
 8216 1f38 03       		.byte	0x3
 8217 1f39 F3       		.byte	0xf3
 8218 1f3a 01       		.uleb128 0x1
 8219 1f3b 53       		.byte	0x53
 8220 1f3c 32       		.uleb128 0x32
 8221 1f3d 01       		.byte	0x1
 8222 1f3e 52       		.byte	0x52
 8223 1f3f 03       		.byte	0x3
 8224 1f40 F3       		.byte	0xf3
 8225 1f41 01       		.uleb128 0x1
 8226 1f42 52       		.byte	0x52
 8227 1f43 32       		.uleb128 0x32
 8228 1f44 01       		.byte	0x1
 8229 1f45 51       		.byte	0x51
 8230 1f46 03       		.byte	0x3
 8231 1f47 F3       		.byte	0xf3
ARM GAS  /tmp/ccPo84yg.s 			page 146


 8232 1f48 01       		.uleb128 0x1
 8233 1f49 51       		.byte	0x51
 8234 1f4a 32       		.uleb128 0x32
 8235 1f4b 01       		.byte	0x1
 8236 1f4c 50       		.byte	0x50
 8237 1f4d 03       		.byte	0x3
 8238 1f4e F3       		.byte	0xf3
 8239 1f4f 01       		.uleb128 0x1
 8240 1f50 50       		.byte	0x50
 8241 1f51 32       		.uleb128 0x32
 8242 1f52 02       		.byte	0x2
 8243 1f53 7D       		.byte	0x7d
 8244 1f54 04       		.sleb128 4
 8245 1f55 02       		.byte	0x2
 8246 1f56 74       		.byte	0x74
 8247 1f57 00       		.sleb128 0
 8248 1f58 32       		.uleb128 0x32
 8249 1f59 02       		.byte	0x2
 8250 1f5a 7D       		.byte	0x7d
 8251 1f5b 00       		.sleb128 0
 8252 1f5c 02       		.byte	0x2
 8253 1f5d 74       		.byte	0x74
 8254 1f5e 00       		.sleb128 0
 8255 1f5f 00       		.byte	0
 8256 1f60 00       		.byte	0
 8257 1f61 3B       		.uleb128 0x3b
 8258 1f62 01       		.byte	0x1
 8259 1f63 740B0000 		.4byte	.LASF284
 8260 1f67 01       		.byte	0x1
 8261 1f68 1403     		.2byte	0x314
 8262 1f6a 01       		.byte	0x1
 8263 1f6b 29000000 		.4byte	0x29
 8264 1f6f 00000000 		.4byte	.LFB21
 8265 1f73 D8000000 		.4byte	.LFE21
 8266 1f77 4C140000 		.4byte	.LLST114
 8267 1f7b 01       		.byte	0x1
 8268 1f7c D2200000 		.4byte	0x20d2
 8269 1f80 24       		.uleb128 0x24
 8270 1f81 7300     		.ascii	"s\000"
 8271 1f83 01       		.byte	0x1
 8272 1f84 1403     		.2byte	0x314
 8273 1f86 29000000 		.4byte	0x29
 8274 1f8a 78140000 		.4byte	.LLST115
 8275 1f8e 28       		.uleb128 0x28
 8276 1f8f 380E0000 		.4byte	.LASF239
 8277 1f93 01       		.byte	0x1
 8278 1f94 1403     		.2byte	0x314
 8279 1f96 FB0F0000 		.4byte	0xffb
 8280 1f9a CB140000 		.4byte	.LLST116
 8281 1f9e 28       		.uleb128 0x28
 8282 1f9f 64090000 		.4byte	.LASF285
 8283 1fa3 01       		.byte	0x1
 8284 1fa4 1403     		.2byte	0x314
 8285 1fa6 30000000 		.4byte	0x30
 8286 1faa 15150000 		.4byte	.LLST117
 8287 1fae 28       		.uleb128 0x28
 8288 1faf A8040000 		.4byte	.LASF102
ARM GAS  /tmp/ccPo84yg.s 			page 147


 8289 1fb3 01       		.byte	0x1
 8290 1fb4 1403     		.2byte	0x314
 8291 1fb6 29000000 		.4byte	0x29
 8292 1fba 5F150000 		.4byte	.LLST118
 8293 1fbe 40       		.uleb128 0x40
 8294 1fbf 746F00   		.ascii	"to\000"
 8295 1fc2 01       		.byte	0x1
 8296 1fc3 1503     		.2byte	0x315
 8297 1fc5 81190000 		.4byte	0x1981
 8298 1fc9 02       		.byte	0x2
 8299 1fca 91       		.byte	0x91
 8300 1fcb 00       		.sleb128 0
 8301 1fcc 34       		.uleb128 0x34
 8302 1fcd 560E0000 		.4byte	.LASF286
 8303 1fd1 01       		.byte	0x1
 8304 1fd2 1503     		.2byte	0x315
 8305 1fd4 E6040000 		.4byte	0x4e6
 8306 1fd8 02       		.byte	0x2
 8307 1fd9 91       		.byte	0x91
 8308 1fda 04       		.sleb128 4
 8309 1fdb 2A       		.uleb128 0x2a
 8310 1fdc FC070000 		.4byte	.LASF230
 8311 1fe0 01       		.byte	0x1
 8312 1fe1 1703     		.2byte	0x317
 8313 1fe3 EB110000 		.4byte	0x11eb
 8314 1fe7 01       		.byte	0x1
 8315 1fe8 59       		.byte	0x59
 8316 1fe9 29       		.uleb128 0x29
 8317 1fea 65727200 		.ascii	"err\000"
 8318 1fee 01       		.byte	0x1
 8319 1fef 1803     		.2byte	0x318
 8320 1ff1 4C060000 		.4byte	0x64c
 8321 1ff5 B2150000 		.4byte	.LLST119
 8322 1ff9 25       		.uleb128 0x25
 8323 1ffa BA0A0000 		.4byte	.LASF287
 8324 1ffe 01       		.byte	0x1
 8325 1fff 1903     		.2byte	0x319
 8326 2001 D0040000 		.4byte	0x4d0
 8327 2005 E6150000 		.4byte	.LLST120
 8328 2009 25       		.uleb128 0x25
 8329 200a C0080000 		.4byte	.LASF288
 8330 200e 01       		.byte	0x1
 8331 200f 1A03     		.2byte	0x31a
 8332 2011 8C190000 		.4byte	0x198c
 8333 2015 1A160000 		.4byte	.LLST121
 8334 2019 25       		.uleb128 0x25
 8335 201a 80090000 		.4byte	.LASF146
 8336 201e 01       		.byte	0x1
 8337 201f 1B03     		.2byte	0x31b
 8338 2021 D0040000 		.4byte	0x4d0
 8339 2025 2D160000 		.4byte	.LLST122
 8340 2029 37       		.uleb128 0x37
 8341 202a 62756600 		.ascii	"buf\000"
 8342 202e 01       		.byte	0x1
 8343 202f 1D03     		.2byte	0x31d
 8344 2031 CC060000 		.4byte	0x6cc
 8345 2035 02       		.byte	0x2
ARM GAS  /tmp/ccPo84yg.s 			page 148


 8346 2036 91       		.byte	0x91
 8347 2037 50       		.sleb128 -48
 8348 2038 38       		.uleb128 0x38
 8349 2039 F7110000 		.4byte	0x11f7
 8350 203d 06000000 		.4byte	.LBB114
 8351 2041 88020000 		.4byte	.Ldebug_ranges0+0x288
 8352 2045 01       		.byte	0x1
 8353 2046 2003     		.2byte	0x320
 8354 2048 65200000 		.4byte	0x2065
 8355 204c 2D       		.uleb128 0x2d
 8356 204d 08120000 		.4byte	0x1208
 8357 2051 4C160000 		.4byte	.LLST123
 8358 2055 35       		.uleb128 0x35
 8359 2056 A0020000 		.4byte	.Ldebug_ranges0+0x2a0
 8360 205a 2F       		.uleb128 0x2f
 8361 205b 11120000 		.4byte	0x1211
 8362 205f 9F160000 		.4byte	.LLST124
 8363 2063 00       		.byte	0
 8364 2064 00       		.byte	0
 8365 2065 26       		.uleb128 0x26
 8366 2066 64000000 		.4byte	.LVL277
 8367 206a CF2B0000 		.4byte	0x2bcf
 8368 206e 39       		.uleb128 0x39
 8369 206f 72000000 		.4byte	.LVL279
 8370 2073 FA2C0000 		.4byte	0x2cfa
 8371 2077 8E200000 		.4byte	0x208e
 8372 207b 32       		.uleb128 0x32
 8373 207c 01       		.byte	0x1
 8374 207d 52       		.byte	0x52
 8375 207e 02       		.byte	0x2
 8376 207f 77       		.byte	0x77
 8377 2080 00       		.sleb128 0
 8378 2081 32       		.uleb128 0x32
 8379 2082 01       		.byte	0x1
 8380 2083 51       		.byte	0x51
 8381 2084 02       		.byte	0x2
 8382 2085 78       		.byte	0x78
 8383 2086 00       		.sleb128 0
 8384 2087 32       		.uleb128 0x32
 8385 2088 01       		.byte	0x1
 8386 2089 50       		.byte	0x50
 8387 208a 02       		.byte	0x2
 8388 208b 7D       		.byte	0x7d
 8389 208c 00       		.sleb128 0
 8390 208d 00       		.byte	0
 8391 208e 39       		.uleb128 0x39
 8392 208f 7C000000 		.4byte	.LVL281
 8393 2093 1C2D0000 		.4byte	0x2d1c
 8394 2097 A2200000 		.4byte	0x20a2
 8395 209b 32       		.uleb128 0x32
 8396 209c 01       		.byte	0x1
 8397 209d 50       		.byte	0x50
 8398 209e 02       		.byte	0x2
 8399 209f 7D       		.byte	0x7d
 8400 20a0 00       		.sleb128 0
 8401 20a1 00       		.byte	0
 8402 20a2 26       		.uleb128 0x26
ARM GAS  /tmp/ccPo84yg.s 			page 149


 8403 20a3 AE000000 		.4byte	.LVL286
 8404 20a7 152B0000 		.4byte	0x2b15
 8405 20ab 39       		.uleb128 0x39
 8406 20ac BA000000 		.4byte	.LVL289
 8407 20b0 302D0000 		.4byte	0x2d30
 8408 20b4 BF200000 		.4byte	0x20bf
 8409 20b8 32       		.uleb128 0x32
 8410 20b9 01       		.byte	0x1
 8411 20ba 51       		.byte	0x51
 8412 20bb 02       		.byte	0x2
 8413 20bc 7D       		.byte	0x7d
 8414 20bd 00       		.sleb128 0
 8415 20be 00       		.byte	0
 8416 20bf 26       		.uleb128 0x26
 8417 20c0 C2000000 		.4byte	.LVL292
 8418 20c4 D2200000 		.4byte	0x20d2
 8419 20c8 26       		.uleb128 0x26
 8420 20c9 C8000000 		.4byte	.LVL294
 8421 20cd 152B0000 		.4byte	0x2b15
 8422 20d1 00       		.byte	0
 8423 20d2 3B       		.uleb128 0x3b
 8424 20d3 01       		.byte	0x1
 8425 20d4 48030000 		.4byte	.LASF289
 8426 20d8 01       		.byte	0x1
 8427 20d9 EA02     		.2byte	0x2ea
 8428 20db 01       		.byte	0x1
 8429 20dc 29000000 		.4byte	0x29
 8430 20e0 00000000 		.4byte	.LFB20
 8431 20e4 A0000000 		.4byte	.LFE20
 8432 20e8 BD160000 		.4byte	.LLST125
 8433 20ec 01       		.byte	0x1
 8434 20ed DB210000 		.4byte	0x21db
 8435 20f1 24       		.uleb128 0x24
 8436 20f2 7300     		.ascii	"s\000"
 8437 20f4 01       		.byte	0x1
 8438 20f5 EA02     		.2byte	0x2ea
 8439 20f7 29000000 		.4byte	0x29
 8440 20fb E9160000 		.4byte	.LLST126
 8441 20ff 28       		.uleb128 0x28
 8442 2100 380E0000 		.4byte	.LASF239
 8443 2104 01       		.byte	0x1
 8444 2105 EA02     		.2byte	0x2ea
 8445 2107 FB0F0000 		.4byte	0xffb
 8446 210b 3C170000 		.4byte	.LLST127
 8447 210f 28       		.uleb128 0x28
 8448 2110 64090000 		.4byte	.LASF285
 8449 2114 01       		.byte	0x1
 8450 2115 EA02     		.2byte	0x2ea
 8451 2117 30000000 		.4byte	0x30
 8452 211b 86170000 		.4byte	.LLST128
 8453 211f 28       		.uleb128 0x28
 8454 2120 A8040000 		.4byte	.LASF102
 8455 2124 01       		.byte	0x1
 8456 2125 EA02     		.2byte	0x2ea
 8457 2127 29000000 		.4byte	0x29
 8458 212b BA170000 		.4byte	.LLST129
 8459 212f 2A       		.uleb128 0x2a
ARM GAS  /tmp/ccPo84yg.s 			page 150


 8460 2130 FC070000 		.4byte	.LASF230
 8461 2134 01       		.byte	0x1
 8462 2135 EC02     		.2byte	0x2ec
 8463 2137 EB110000 		.4byte	0x11eb
 8464 213b 01       		.byte	0x1
 8465 213c 58       		.byte	0x58
 8466 213d 29       		.uleb128 0x29
 8467 213e 65727200 		.ascii	"err\000"
 8468 2142 01       		.byte	0x1
 8469 2143 ED02     		.2byte	0x2ed
 8470 2145 4C060000 		.4byte	0x64c
 8471 2149 15180000 		.4byte	.LLST130
 8472 214d 25       		.uleb128 0x25
 8473 214e 66020000 		.4byte	.LASF290
 8474 2152 01       		.byte	0x1
 8475 2153 EE02     		.2byte	0x2ee
 8476 2155 BA040000 		.4byte	0x4ba
 8477 2159 28180000 		.4byte	.LLST131
 8478 215d 38       		.uleb128 0x38
 8479 215e F7110000 		.4byte	0x11f7
 8480 2162 04000000 		.4byte	.LBB118
 8481 2166 B8020000 		.4byte	.Ldebug_ranges0+0x2b8
 8482 216a 01       		.byte	0x1
 8483 216b F302     		.2byte	0x2f3
 8484 216d 8A210000 		.4byte	0x218a
 8485 2171 2D       		.uleb128 0x2d
 8486 2172 08120000 		.4byte	0x1208
 8487 2176 5F180000 		.4byte	.LLST132
 8488 217a 35       		.uleb128 0x35
 8489 217b D0020000 		.4byte	.Ldebug_ranges0+0x2d0
 8490 217f 2F       		.uleb128 0x2f
 8491 2180 11120000 		.4byte	0x1211
 8492 2184 B2180000 		.4byte	.LLST133
 8493 2188 00       		.byte	0
 8494 2189 00       		.byte	0
 8495 218a 39       		.uleb128 0x39
 8496 218b 5E000000 		.4byte	.LVL304
 8497 218f 4D2D0000 		.4byte	0x2d4d
 8498 2193 C2210000 		.4byte	0x21c2
 8499 2197 32       		.uleb128 0x32
 8500 2198 01       		.byte	0x1
 8501 2199 53       		.byte	0x53
 8502 219a 14       		.byte	0x14
 8503 219b 31       		.byte	0x31
 8504 219c 33       		.byte	0x33
 8505 219d F3       		.byte	0xf3
 8506 219e 01       		.uleb128 0x1
 8507 219f 53       		.byte	0x53
 8508 21a0 09       		.byte	0x9
 8509 21a1 FF       		.byte	0xff
 8510 21a2 24       		.byte	0x24
 8511 21a3 33       		.byte	0x33
 8512 21a4 25       		.byte	0x25
 8513 21a5 30       		.byte	0x30
 8514 21a6 29       		.byte	0x29
 8515 21a7 28       		.byte	0x28
 8516 21a8 0100     		.2byte	0x1
ARM GAS  /tmp/ccPo84yg.s 			page 151


 8517 21aa 16       		.byte	0x16
 8518 21ab 13       		.byte	0x13
 8519 21ac 75       		.byte	0x75
 8520 21ad 00       		.sleb128 0
 8521 21ae 21       		.byte	0x21
 8522 21af 32       		.uleb128 0x32
 8523 21b0 01       		.byte	0x1
 8524 21b1 52       		.byte	0x52
 8525 21b2 02       		.byte	0x2
 8526 21b3 76       		.byte	0x76
 8527 21b4 00       		.sleb128 0
 8528 21b5 32       		.uleb128 0x32
 8529 21b6 01       		.byte	0x1
 8530 21b7 51       		.byte	0x51
 8531 21b8 02       		.byte	0x2
 8532 21b9 77       		.byte	0x77
 8533 21ba 00       		.sleb128 0
 8534 21bb 32       		.uleb128 0x32
 8535 21bc 01       		.byte	0x1
 8536 21bd 50       		.byte	0x50
 8537 21be 02       		.byte	0x2
 8538 21bf 74       		.byte	0x74
 8539 21c0 00       		.sleb128 0
 8540 21c1 00       		.byte	0
 8541 21c2 31       		.uleb128 0x31
 8542 21c3 96000000 		.4byte	.LVL309
 8543 21c7 611F0000 		.4byte	0x1f61
 8544 21cb 32       		.uleb128 0x32
 8545 21cc 02       		.byte	0x2
 8546 21cd 7D       		.byte	0x7d
 8547 21ce 04       		.sleb128 4
 8548 21cf 02       		.byte	0x2
 8549 21d0 74       		.byte	0x74
 8550 21d1 00       		.sleb128 0
 8551 21d2 32       		.uleb128 0x32
 8552 21d3 02       		.byte	0x2
 8553 21d4 7D       		.byte	0x7d
 8554 21d5 00       		.sleb128 0
 8555 21d6 02       		.byte	0x2
 8556 21d7 74       		.byte	0x74
 8557 21d8 00       		.sleb128 0
 8558 21d9 00       		.byte	0
 8559 21da 00       		.byte	0
 8560 21db 3B       		.uleb128 0x3b
 8561 21dc 01       		.byte	0x1
 8562 21dd 88080000 		.4byte	.LASF291
 8563 21e1 01       		.byte	0x1
 8564 21e2 A703     		.2byte	0x3a7
 8565 21e4 01       		.byte	0x1
 8566 21e5 29000000 		.4byte	0x29
 8567 21e9 00000000 		.4byte	.LFB22
 8568 21ed 78000000 		.4byte	.LFE22
 8569 21f1 D0180000 		.4byte	.LLST134
 8570 21f5 01       		.byte	0x1
 8571 21f6 DF220000 		.4byte	0x22df
 8572 21fa 28       		.uleb128 0x28
 8573 21fb A2020000 		.4byte	.LASF292
ARM GAS  /tmp/ccPo84yg.s 			page 152


 8574 21ff 01       		.byte	0x1
 8575 2200 A703     		.2byte	0x3a7
 8576 2202 29000000 		.4byte	0x29
 8577 2206 F0180000 		.4byte	.LLST135
 8578 220a 28       		.uleb128 0x28
 8579 220b 5D010000 		.4byte	.LASF101
 8580 220f 01       		.byte	0x1
 8581 2210 A703     		.2byte	0x3a7
 8582 2212 29000000 		.4byte	0x29
 8583 2216 5C190000 		.4byte	.LLST136
 8584 221a 28       		.uleb128 0x28
 8585 221b 08070000 		.4byte	.LASF186
 8586 221f 01       		.byte	0x1
 8587 2220 A703     		.2byte	0x3a7
 8588 2222 29000000 		.4byte	0x29
 8589 2226 C8190000 		.4byte	.LLST137
 8590 222a 25       		.uleb128 0x25
 8591 222b 88010000 		.4byte	.LASF188
 8592 222f 01       		.byte	0x1
 8593 2230 A903     		.2byte	0x3a9
 8594 2232 E0070000 		.4byte	0x7e0
 8595 2236 341A0000 		.4byte	.LLST138
 8596 223a 29       		.uleb128 0x29
 8597 223b 6900     		.ascii	"i\000"
 8598 223d 01       		.byte	0x1
 8599 223e AA03     		.2byte	0x3aa
 8600 2240 29000000 		.4byte	0x29
 8601 2244 681A0000 		.4byte	.LLST139
 8602 2248 39       		.uleb128 0x39
 8603 2249 20000000 		.4byte	.LVL316
 8604 224d 742D0000 		.4byte	0x2d74
 8605 2251 69220000 		.4byte	0x2269
 8606 2255 32       		.uleb128 0x32
 8607 2256 01       		.byte	0x1
 8608 2257 52       		.byte	0x52
 8609 2258 05       		.byte	0x5
 8610 2259 03       		.byte	0x3
 8611 225a 00000000 		.4byte	event_callback
 8612 225e 32       		.uleb128 0x32
 8613 225f 01       		.byte	0x1
 8614 2260 51       		.byte	0x51
 8615 2261 01       		.byte	0x1
 8616 2262 30       		.byte	0x30
 8617 2263 32       		.uleb128 0x32
 8618 2264 01       		.byte	0x1
 8619 2265 50       		.byte	0x50
 8620 2266 01       		.byte	0x1
 8621 2267 40       		.byte	0x40
 8622 2268 00       		.byte	0
 8623 2269 39       		.uleb128 0x39
 8624 226a 36000000 		.4byte	.LVL318
 8625 226e 38120000 		.4byte	0x1238
 8626 2272 82220000 		.4byte	0x2282
 8627 2276 32       		.uleb128 0x32
 8628 2277 01       		.byte	0x1
 8629 2278 51       		.byte	0x51
 8630 2279 01       		.byte	0x1
ARM GAS  /tmp/ccPo84yg.s 			page 153


 8631 227a 30       		.byte	0x30
 8632 227b 32       		.uleb128 0x32
 8633 227c 01       		.byte	0x1
 8634 227d 50       		.byte	0x50
 8635 227e 02       		.byte	0x2
 8636 227f 75       		.byte	0x75
 8637 2280 00       		.sleb128 0
 8638 2281 00       		.byte	0
 8639 2282 39       		.uleb128 0x39
 8640 2283 46000000 		.4byte	.LVL321
 8641 2287 B72B0000 		.4byte	0x2bb7
 8642 228b 96220000 		.4byte	0x2296
 8643 228f 32       		.uleb128 0x32
 8644 2290 01       		.byte	0x1
 8645 2291 50       		.byte	0x50
 8646 2292 02       		.byte	0x2
 8647 2293 75       		.byte	0x75
 8648 2294 00       		.sleb128 0
 8649 2295 00       		.byte	0
 8650 2296 39       		.uleb128 0x39
 8651 2297 52000000 		.4byte	.LVL326
 8652 229b 742D0000 		.4byte	0x2d74
 8653 229f B3220000 		.4byte	0x22b3
 8654 22a3 32       		.uleb128 0x32
 8655 22a4 01       		.byte	0x1
 8656 22a5 52       		.byte	0x52
 8657 22a6 05       		.byte	0x5
 8658 22a7 03       		.byte	0x3
 8659 22a8 00000000 		.4byte	event_callback
 8660 22ac 32       		.uleb128 0x32
 8661 22ad 01       		.byte	0x1
 8662 22ae 50       		.byte	0x50
 8663 22af 02       		.byte	0x2
 8664 22b0 08       		.byte	0x8
 8665 22b1 40       		.byte	0x40
 8666 22b2 00       		.byte	0
 8667 22b3 31       		.uleb128 0x31
 8668 22b4 6A000000 		.4byte	.LVL332
 8669 22b8 742D0000 		.4byte	0x2d74
 8670 22bc 32       		.uleb128 0x32
 8671 22bd 01       		.byte	0x1
 8672 22be 52       		.byte	0x52
 8673 22bf 05       		.byte	0x5
 8674 22c0 03       		.byte	0x3
 8675 22c1 00000000 		.4byte	event_callback
 8676 22c5 32       		.uleb128 0x32
 8677 22c6 01       		.byte	0x1
 8678 22c7 51       		.byte	0x51
 8679 22c8 01       		.byte	0x1
 8680 22c9 30       		.byte	0x30
 8681 22ca 32       		.uleb128 0x32
 8682 22cb 01       		.byte	0x1
 8683 22cc 50       		.byte	0x50
 8684 22cd 0F       		.byte	0xf
 8685 22ce 08       		.byte	0x8
 8686 22cf 20       		.byte	0x20
 8687 22d0 08       		.byte	0x8
ARM GAS  /tmp/ccPo84yg.s 			page 154


 8688 22d1 21       		.byte	0x21
 8689 22d2 F3       		.byte	0xf3
 8690 22d3 01       		.uleb128 0x1
 8691 22d4 52       		.byte	0x52
 8692 22d5 08       		.byte	0x8
 8693 22d6 88       		.byte	0x88
 8694 22d7 2E       		.byte	0x2e
 8695 22d8 28       		.byte	0x28
 8696 22d9 0100     		.2byte	0x1
 8697 22db 16       		.byte	0x16
 8698 22dc 13       		.byte	0x13
 8699 22dd 00       		.byte	0
 8700 22de 00       		.byte	0
 8701 22df 41       		.uleb128 0x41
 8702 22e0 01       		.byte	0x1
 8703 22e1 690B0000 		.4byte	.LASF293
 8704 22e5 01       		.byte	0x1
 8705 22e6 DF03     		.2byte	0x3df
 8706 22e8 01       		.byte	0x1
 8707 22e9 29000000 		.4byte	0x29
 8708 22ed 00000000 		.4byte	.LFB23
 8709 22f1 06000000 		.4byte	.LFE23
 8710 22f5 02       		.byte	0x2
 8711 22f6 7D       		.byte	0x7d
 8712 22f7 00       		.sleb128 0
 8713 22f8 01       		.byte	0x1
 8714 22f9 51230000 		.4byte	0x2351
 8715 22fd 24       		.uleb128 0x24
 8716 22fe 7300     		.ascii	"s\000"
 8717 2300 01       		.byte	0x1
 8718 2301 DF03     		.2byte	0x3df
 8719 2303 29000000 		.4byte	0x29
 8720 2307 861A0000 		.4byte	.LLST140
 8721 230b 28       		.uleb128 0x28
 8722 230c 380E0000 		.4byte	.LASF239
 8723 2310 01       		.byte	0x1
 8724 2311 DF03     		.2byte	0x3df
 8725 2313 FB0F0000 		.4byte	0xffb
 8726 2317 A71A0000 		.4byte	.LLST141
 8727 231b 28       		.uleb128 0x28
 8728 231c 64090000 		.4byte	.LASF285
 8729 2320 01       		.byte	0x1
 8730 2321 DF03     		.2byte	0x3df
 8731 2323 30000000 		.4byte	0x30
 8732 2327 C81A0000 		.4byte	.LLST142
 8733 232b 42       		.uleb128 0x42
 8734 232c 06000000 		.4byte	.LVL335
 8735 2330 01       		.byte	0x1
 8736 2331 D2200000 		.4byte	0x20d2
 8737 2335 32       		.uleb128 0x32
 8738 2336 01       		.byte	0x1
 8739 2337 53       		.byte	0x53
 8740 2338 01       		.byte	0x1
 8741 2339 30       		.byte	0x30
 8742 233a 32       		.uleb128 0x32
 8743 233b 01       		.byte	0x1
 8744 233c 52       		.byte	0x52
ARM GAS  /tmp/ccPo84yg.s 			page 155


 8745 233d 03       		.byte	0x3
 8746 233e F3       		.byte	0xf3
 8747 233f 01       		.uleb128 0x1
 8748 2340 52       		.byte	0x52
 8749 2341 32       		.uleb128 0x32
 8750 2342 01       		.byte	0x1
 8751 2343 51       		.byte	0x51
 8752 2344 03       		.byte	0x3
 8753 2345 F3       		.byte	0xf3
 8754 2346 01       		.uleb128 0x1
 8755 2347 51       		.byte	0x51
 8756 2348 32       		.uleb128 0x32
 8757 2349 01       		.byte	0x1
 8758 234a 50       		.byte	0x50
 8759 234b 03       		.byte	0x3
 8760 234c F3       		.byte	0xf3
 8761 234d 01       		.uleb128 0x1
 8762 234e 50       		.byte	0x50
 8763 234f 00       		.byte	0
 8764 2350 00       		.byte	0
 8765 2351 3B       		.uleb128 0x3b
 8766 2352 01       		.byte	0x1
 8767 2353 64060000 		.4byte	.LASF294
 8768 2357 01       		.byte	0x1
 8769 2358 3304     		.2byte	0x433
 8770 235a 01       		.byte	0x1
 8771 235b 29000000 		.4byte	0x29
 8772 235f 00000000 		.4byte	.LFB25
 8773 2363 F8020000 		.4byte	.LFE25
 8774 2367 E91A0000 		.4byte	.LLST143
 8775 236b 01       		.byte	0x1
 8776 236c F0250000 		.4byte	0x25f0
 8777 2370 28       		.uleb128 0x28
 8778 2371 5C090000 		.4byte	.LASF247
 8779 2375 01       		.byte	0x1
 8780 2376 3304     		.2byte	0x433
 8781 2378 29000000 		.4byte	0x29
 8782 237c 161B0000 		.4byte	.LLST144
 8783 2380 28       		.uleb128 0x28
 8784 2381 34040000 		.4byte	.LASF225
 8785 2385 01       		.byte	0x1
 8786 2386 3304     		.2byte	0x433
 8787 2388 84110000 		.4byte	0x1184
 8788 238c 601B0000 		.4byte	.LLST145
 8789 2390 28       		.uleb128 0x28
 8790 2391 2A0B0000 		.4byte	.LASF226
 8791 2395 01       		.byte	0x1
 8792 2396 3304     		.2byte	0x433
 8793 2398 84110000 		.4byte	0x1184
 8794 239c AA1B0000 		.4byte	.LLST146
 8795 23a0 28       		.uleb128 0x28
 8796 23a1 74010000 		.4byte	.LASF227
 8797 23a5 01       		.byte	0x1
 8798 23a6 3304     		.2byte	0x433
 8799 23a8 84110000 		.4byte	0x1184
 8800 23ac 0A1C0000 		.4byte	.LLST147
 8801 23b0 34       		.uleb128 0x34
ARM GAS  /tmp/ccPo84yg.s 			page 156


 8802 23b1 A5070000 		.4byte	.LASF295
 8803 23b5 01       		.byte	0x1
 8804 23b6 3404     		.2byte	0x434
 8805 23b8 F0250000 		.4byte	0x25f0
 8806 23bc 02       		.byte	0x2
 8807 23bd 91       		.byte	0x91
 8808 23be 00       		.sleb128 0
 8809 23bf 25       		.uleb128 0x25
 8810 23c0 91040000 		.4byte	.LASF296
 8811 23c4 01       		.byte	0x1
 8812 23c5 3604     		.2byte	0x436
 8813 23c7 E6040000 		.4byte	0x4e6
 8814 23cb 281C0000 		.4byte	.LLST148
 8815 23cf 25       		.uleb128 0x25
 8816 23d0 170E0000 		.4byte	.LASF254
 8817 23d4 01       		.byte	0x1
 8818 23d5 3704     		.2byte	0x437
 8819 23d7 29000000 		.4byte	0x29
 8820 23db 851C0000 		.4byte	.LLST149
 8821 23df 2A       		.uleb128 0x2a
 8822 23e0 3F0B0000 		.4byte	.LASF255
 8823 23e4 01       		.byte	0x1
 8824 23e5 3804     		.2byte	0x438
 8825 23e7 14060000 		.4byte	0x614
 8826 23eb 03       		.byte	0x3
 8827 23ec 91       		.byte	0x91
 8828 23ed B07F     		.sleb128 -80
 8829 23ef 2A       		.uleb128 0x2a
 8830 23f0 3B090000 		.4byte	.LASF256
 8831 23f4 01       		.byte	0x1
 8832 23f5 3804     		.2byte	0x438
 8833 23f7 14060000 		.4byte	0x614
 8834 23fb 03       		.byte	0x3
 8835 23fc 91       		.byte	0x91
 8836 23fd B47F     		.sleb128 -76
 8837 23ff 2A       		.uleb128 0x2a
 8838 2400 00000000 		.4byte	.LASF257
 8839 2404 01       		.byte	0x1
 8840 2405 3804     		.2byte	0x438
 8841 2407 14060000 		.4byte	0x614
 8842 240b 03       		.byte	0x3
 8843 240c 91       		.byte	0x91
 8844 240d B87F     		.sleb128 -72
 8845 240f 25       		.uleb128 0x25
 8846 2410 620A0000 		.4byte	.LASF297
 8847 2414 01       		.byte	0x1
 8848 2415 3904     		.2byte	0x439
 8849 2417 E6040000 		.4byte	0x4e6
 8850 241b 0A1D0000 		.4byte	.LLST150
 8851 241f 2A       		.uleb128 0x2a
 8852 2420 250A0000 		.4byte	.LASF298
 8853 2424 01       		.byte	0x1
 8854 2425 3A04     		.2byte	0x43a
 8855 2427 0F110000 		.4byte	0x110f
 8856 242b 03       		.byte	0x3
 8857 242c 91       		.byte	0x91
 8858 242d BC7F     		.sleb128 -68
ARM GAS  /tmp/ccPo84yg.s 			page 157


 8859 242f 29       		.uleb128 0x29
 8860 2430 65727200 		.ascii	"err\000"
 8861 2434 01       		.byte	0x1
 8862 2435 3B04     		.2byte	0x43b
 8863 2437 4C060000 		.4byte	0x64c
 8864 243b 1D1D0000 		.4byte	.LLST151
 8865 243f 29       		.uleb128 0x29
 8866 2440 6900     		.ascii	"i\000"
 8867 2442 01       		.byte	0x1
 8868 2443 3C04     		.2byte	0x43c
 8869 2445 29000000 		.4byte	0x29
 8870 2449 3B1D0000 		.4byte	.LLST152
 8871 244d 43       		.uleb128 0x43
 8872 244e 49020000 		.4byte	.LASF346
 8873 2452 01       		.byte	0x1
 8874 2453 BD04     		.2byte	0x4bd
 8875 2455 02020000 		.4byte	.L433
 8876 2459 30       		.uleb128 0x30
 8877 245a E8020000 		.4byte	.Ldebug_ranges0+0x2e8
 8878 245e A1240000 		.4byte	0x24a1
 8879 2462 2A       		.uleb128 0x2a
 8880 2463 FC070000 		.4byte	.LASF230
 8881 2467 01       		.byte	0x1
 8882 2468 7704     		.2byte	0x477
 8883 246a EB110000 		.4byte	0x11eb
 8884 246e 01       		.byte	0x1
 8885 246f 52       		.byte	0x52
 8886 2470 38       		.uleb128 0x38
 8887 2471 1D120000 		.4byte	0x121d
 8888 2475 90000000 		.4byte	.LBB123
 8889 2479 08030000 		.4byte	.Ldebug_ranges0+0x308
 8890 247d 01       		.byte	0x1
 8891 247e 7704     		.2byte	0x477
 8892 2480 8E240000 		.4byte	0x248e
 8893 2484 2D       		.uleb128 0x2d
 8894 2485 2E120000 		.4byte	0x122e
 8895 2489 711D0000 		.4byte	.LLST153
 8896 248d 00       		.byte	0
 8897 248e 26       		.uleb128 0x26
 8898 248f 76020000 		.4byte	.LVL371
 8899 2493 152B0000 		.4byte	0x2b15
 8900 2497 26       		.uleb128 0x26
 8901 2498 8C020000 		.4byte	.LVL372
 8902 249c 152B0000 		.4byte	0x2b15
 8903 24a0 00       		.byte	0
 8904 24a1 30       		.uleb128 0x30
 8905 24a2 28030000 		.4byte	.Ldebug_ranges0+0x328
 8906 24a6 E9240000 		.4byte	0x24e9
 8907 24aa 2A       		.uleb128 0x2a
 8908 24ab FC070000 		.4byte	.LASF230
 8909 24af 01       		.byte	0x1
 8910 24b0 9704     		.2byte	0x497
 8911 24b2 EB110000 		.4byte	0x11eb
 8912 24b6 01       		.byte	0x1
 8913 24b7 53       		.byte	0x53
 8914 24b8 38       		.uleb128 0x38
 8915 24b9 1D120000 		.4byte	0x121d
ARM GAS  /tmp/ccPo84yg.s 			page 158


 8916 24bd 38010000 		.4byte	.LBB131
 8917 24c1 48030000 		.4byte	.Ldebug_ranges0+0x348
 8918 24c5 01       		.byte	0x1
 8919 24c6 9704     		.2byte	0x497
 8920 24c8 D6240000 		.4byte	0x24d6
 8921 24cc 2D       		.uleb128 0x2d
 8922 24cd 2E120000 		.4byte	0x122e
 8923 24d1 8F1D0000 		.4byte	.LLST154
 8924 24d5 00       		.byte	0
 8925 24d6 26       		.uleb128 0x26
 8926 24d7 B6020000 		.4byte	.LVL375
 8927 24db 152B0000 		.4byte	0x2b15
 8928 24df 26       		.uleb128 0x26
 8929 24e0 CC020000 		.4byte	.LVL376
 8930 24e4 152B0000 		.4byte	0x2b15
 8931 24e8 00       		.byte	0
 8932 24e9 39       		.uleb128 0x39
 8933 24ea 1E000000 		.4byte	.LVL337
 8934 24ee A8140000 		.4byte	0x14a8
 8935 24f2 24250000 		.4byte	0x2524
 8936 24f6 32       		.uleb128 0x32
 8937 24f7 01       		.byte	0x1
 8938 24f8 53       		.byte	0x53
 8939 24f9 02       		.byte	0x2
 8940 24fa 7A       		.byte	0x7a
 8941 24fb 00       		.sleb128 0
 8942 24fc 32       		.uleb128 0x32
 8943 24fd 01       		.byte	0x1
 8944 24fe 52       		.byte	0x52
 8945 24ff 02       		.byte	0x2
 8946 2500 79       		.byte	0x79
 8947 2501 00       		.sleb128 0
 8948 2502 32       		.uleb128 0x32
 8949 2503 01       		.byte	0x1
 8950 2504 51       		.byte	0x51
 8951 2505 02       		.byte	0x2
 8952 2506 78       		.byte	0x78
 8953 2507 00       		.sleb128 0
 8954 2508 32       		.uleb128 0x32
 8955 2509 01       		.byte	0x1
 8956 250a 50       		.byte	0x50
 8957 250b 02       		.byte	0x2
 8958 250c 7B       		.byte	0x7b
 8959 250d 00       		.sleb128 0
 8960 250e 32       		.uleb128 0x32
 8961 250f 02       		.byte	0x2
 8962 2510 7D       		.byte	0x7d
 8963 2511 08       		.sleb128 8
 8964 2512 02       		.byte	0x2
 8965 2513 74       		.byte	0x74
 8966 2514 00       		.sleb128 0
 8967 2515 32       		.uleb128 0x32
 8968 2516 02       		.byte	0x2
 8969 2517 7D       		.byte	0x7d
 8970 2518 04       		.sleb128 4
 8971 2519 02       		.byte	0x2
 8972 251a 76       		.byte	0x76
ARM GAS  /tmp/ccPo84yg.s 			page 159


 8973 251b 00       		.sleb128 0
 8974 251c 32       		.uleb128 0x32
 8975 251d 02       		.byte	0x2
 8976 251e 7D       		.byte	0x7d
 8977 251f 00       		.sleb128 0
 8978 2520 02       		.byte	0x2
 8979 2521 77       		.byte	0x77
 8980 2522 00       		.sleb128 0
 8981 2523 00       		.byte	0
 8982 2524 39       		.uleb128 0x39
 8983 2525 56000000 		.4byte	.LVL339
 8984 2529 962D0000 		.4byte	0x2d96
 8985 252d 3D250000 		.4byte	0x253d
 8986 2531 32       		.uleb128 0x32
 8987 2532 01       		.byte	0x1
 8988 2533 51       		.byte	0x51
 8989 2534 01       		.byte	0x1
 8990 2535 30       		.byte	0x30
 8991 2536 32       		.uleb128 0x32
 8992 2537 01       		.byte	0x1
 8993 2538 50       		.byte	0x50
 8994 2539 02       		.byte	0x2
 8995 253a 91       		.byte	0x91
 8996 253b 54       		.sleb128 -44
 8997 253c 00       		.byte	0
 8998 253d 39       		.uleb128 0x39
 8999 253e EE000000 		.4byte	.LVL346
 9000 2542 A8140000 		.4byte	0x14a8
 9001 2546 79250000 		.4byte	0x2579
 9002 254a 32       		.uleb128 0x32
 9003 254b 01       		.byte	0x1
 9004 254c 53       		.byte	0x53
 9005 254d 02       		.byte	0x2
 9006 254e 7A       		.byte	0x7a
 9007 254f 00       		.sleb128 0
 9008 2550 32       		.uleb128 0x32
 9009 2551 01       		.byte	0x1
 9010 2552 52       		.byte	0x52
 9011 2553 02       		.byte	0x2
 9012 2554 79       		.byte	0x79
 9013 2555 00       		.sleb128 0
 9014 2556 32       		.uleb128 0x32
 9015 2557 01       		.byte	0x1
 9016 2558 51       		.byte	0x51
 9017 2559 02       		.byte	0x2
 9018 255a 78       		.byte	0x78
 9019 255b 00       		.sleb128 0
 9020 255c 32       		.uleb128 0x32
 9021 255d 01       		.byte	0x1
 9022 255e 50       		.byte	0x50
 9023 255f 02       		.byte	0x2
 9024 2560 7B       		.byte	0x7b
 9025 2561 00       		.sleb128 0
 9026 2562 32       		.uleb128 0x32
 9027 2563 02       		.byte	0x2
 9028 2564 7D       		.byte	0x7d
 9029 2565 08       		.sleb128 8
ARM GAS  /tmp/ccPo84yg.s 			page 160


 9030 2566 03       		.byte	0x3
 9031 2567 91       		.byte	0x91
 9032 2568 B87F     		.sleb128 -72
 9033 256a 32       		.uleb128 0x32
 9034 256b 02       		.byte	0x2
 9035 256c 7D       		.byte	0x7d
 9036 256d 04       		.sleb128 4
 9037 256e 02       		.byte	0x2
 9038 256f 76       		.byte	0x76
 9039 2570 00       		.sleb128 0
 9040 2571 32       		.uleb128 0x32
 9041 2572 02       		.byte	0x2
 9042 2573 7D       		.byte	0x7d
 9043 2574 00       		.sleb128 0
 9044 2575 02       		.byte	0x2
 9045 2576 77       		.byte	0x77
 9046 2577 00       		.sleb128 0
 9047 2578 00       		.byte	0
 9048 2579 39       		.uleb128 0x39
 9049 257a 26010000 		.4byte	.LVL351
 9050 257e B32D0000 		.4byte	0x2db3
 9051 2582 8D250000 		.4byte	0x258d
 9052 2586 32       		.uleb128 0x32
 9053 2587 01       		.byte	0x1
 9054 2588 50       		.byte	0x50
 9055 2589 02       		.byte	0x2
 9056 258a 91       		.byte	0x91
 9057 258b 54       		.sleb128 -44
 9058 258c 00       		.byte	0
 9059 258d 39       		.uleb128 0x39
 9060 258e E6010000 		.4byte	.LVL365
 9061 2592 D02D0000 		.4byte	0x2dd0
 9062 2596 A1250000 		.4byte	0x25a1
 9063 259a 32       		.uleb128 0x32
 9064 259b 01       		.byte	0x1
 9065 259c 50       		.byte	0x50
 9066 259d 02       		.byte	0x2
 9067 259e 91       		.byte	0x91
 9068 259f 54       		.sleb128 -44
 9069 25a0 00       		.byte	0
 9070 25a1 39       		.uleb128 0x39
 9071 25a2 00020000 		.4byte	.LVL366
 9072 25a6 A8140000 		.4byte	0x14a8
 9073 25aa DD250000 		.4byte	0x25dd
 9074 25ae 32       		.uleb128 0x32
 9075 25af 01       		.byte	0x1
 9076 25b0 53       		.byte	0x53
 9077 25b1 02       		.byte	0x2
 9078 25b2 7A       		.byte	0x7a
 9079 25b3 00       		.sleb128 0
 9080 25b4 32       		.uleb128 0x32
 9081 25b5 01       		.byte	0x1
 9082 25b6 52       		.byte	0x52
 9083 25b7 02       		.byte	0x2
 9084 25b8 79       		.byte	0x79
 9085 25b9 00       		.sleb128 0
 9086 25ba 32       		.uleb128 0x32
ARM GAS  /tmp/ccPo84yg.s 			page 161


 9087 25bb 01       		.byte	0x1
 9088 25bc 51       		.byte	0x51
 9089 25bd 02       		.byte	0x2
 9090 25be 78       		.byte	0x78
 9091 25bf 00       		.sleb128 0
 9092 25c0 32       		.uleb128 0x32
 9093 25c1 01       		.byte	0x1
 9094 25c2 50       		.byte	0x50
 9095 25c3 02       		.byte	0x2
 9096 25c4 7B       		.byte	0x7b
 9097 25c5 00       		.sleb128 0
 9098 25c6 32       		.uleb128 0x32
 9099 25c7 02       		.byte	0x2
 9100 25c8 7D       		.byte	0x7d
 9101 25c9 08       		.sleb128 8
 9102 25ca 03       		.byte	0x3
 9103 25cb 91       		.byte	0x91
 9104 25cc B87F     		.sleb128 -72
 9105 25ce 32       		.uleb128 0x32
 9106 25cf 02       		.byte	0x2
 9107 25d0 7D       		.byte	0x7d
 9108 25d1 04       		.sleb128 4
 9109 25d2 02       		.byte	0x2
 9110 25d3 76       		.byte	0x76
 9111 25d4 00       		.sleb128 0
 9112 25d5 32       		.uleb128 0x32
 9113 25d6 02       		.byte	0x2
 9114 25d7 7D       		.byte	0x7d
 9115 25d8 00       		.sleb128 0
 9116 25d9 02       		.byte	0x2
 9117 25da 77       		.byte	0x77
 9118 25db 00       		.sleb128 0
 9119 25dc 00       		.byte	0
 9120 25dd 26       		.uleb128 0x26
 9121 25de D6020000 		.4byte	.LVL378
 9122 25e2 152B0000 		.4byte	0x2b15
 9123 25e6 26       		.uleb128 0x26
 9124 25e7 E8020000 		.4byte	.LVL379
 9125 25eb 152B0000 		.4byte	0x2b15
 9126 25ef 00       		.byte	0
 9127 25f0 09       		.uleb128 0x9
 9128 25f1 04       		.byte	0x4
 9129 25f2 20060000 		.4byte	0x620
 9130 25f6 3B       		.uleb128 0x3b
 9131 25f7 01       		.byte	0x1
 9132 25f8 62040000 		.4byte	.LASF299
 9133 25fc 01       		.byte	0x1
 9134 25fd 4A05     		.2byte	0x54a
 9135 25ff 01       		.byte	0x1
 9136 2600 29000000 		.4byte	0x29
 9137 2604 00000000 		.4byte	.LFB27
 9138 2608 70000000 		.4byte	.LFE27
 9139 260c AD1D0000 		.4byte	.LLST155
 9140 2610 01       		.byte	0x1
 9141 2611 A8260000 		.4byte	0x26a8
 9142 2615 24       		.uleb128 0x24
 9143 2616 7300     		.ascii	"s\000"
ARM GAS  /tmp/ccPo84yg.s 			page 162


 9144 2618 01       		.byte	0x1
 9145 2619 4A05     		.2byte	0x54a
 9146 261b 29000000 		.4byte	0x29
 9147 261f CD1D0000 		.4byte	.LLST156
 9148 2623 24       		.uleb128 0x24
 9149 2624 686F7700 		.ascii	"how\000"
 9150 2628 01       		.byte	0x1
 9151 2629 4A05     		.2byte	0x54a
 9152 262b 29000000 		.4byte	0x29
 9153 262f EE1D0000 		.4byte	.LLST157
 9154 2633 2A       		.uleb128 0x2a
 9155 2634 FC070000 		.4byte	.LASF230
 9156 2638 01       		.byte	0x1
 9157 2639 4C05     		.2byte	0x54c
 9158 263b EB110000 		.4byte	0x11eb
 9159 263f 01       		.byte	0x1
 9160 2640 54       		.byte	0x54
 9161 2641 29       		.uleb128 0x29
 9162 2642 65727200 		.ascii	"err\000"
 9163 2646 01       		.byte	0x1
 9164 2647 4D05     		.2byte	0x54d
 9165 2649 4C060000 		.4byte	0x64c
 9166 264d 3E1E0000 		.4byte	.LLST158
 9167 2651 25       		.uleb128 0x25
 9168 2652 CE080000 		.4byte	.LASF300
 9169 2656 01       		.byte	0x1
 9170 2657 4E05     		.2byte	0x54e
 9171 2659 BA040000 		.4byte	0x4ba
 9172 265d 511E0000 		.4byte	.LLST159
 9173 2661 25       		.uleb128 0x25
 9174 2662 0F0E0000 		.4byte	.LASF301
 9175 2666 01       		.byte	0x1
 9176 2667 4E05     		.2byte	0x54e
 9177 2669 BA040000 		.4byte	0x4ba
 9178 266d 7C1E0000 		.4byte	.LLST160
 9179 2671 38       		.uleb128 0x38
 9180 2672 F7110000 		.4byte	0x11f7
 9181 2676 00000000 		.4byte	.LBB140
 9182 267a 68030000 		.4byte	.Ldebug_ranges0+0x368
 9183 267e 01       		.byte	0x1
 9184 267f 5205     		.2byte	0x552
 9185 2681 9E260000 		.4byte	0x269e
 9186 2685 2D       		.uleb128 0x2d
 9187 2686 08120000 		.4byte	0x1208
 9188 268a CD1D0000 		.4byte	.LLST156
 9189 268e 35       		.uleb128 0x35
 9190 268f 88030000 		.4byte	.Ldebug_ranges0+0x388
 9191 2693 2F       		.uleb128 0x2f
 9192 2694 11120000 		.4byte	0x1211
 9193 2698 A71E0000 		.4byte	.LLST162
 9194 269c 00       		.byte	0
 9195 269d 00       		.byte	0
 9196 269e 26       		.uleb128 0x26
 9197 269f 3E000000 		.4byte	.LVL388
 9198 26a3 E42D0000 		.4byte	0x2de4
 9199 26a7 00       		.byte	0
 9200 26a8 41       		.uleb128 0x41
ARM GAS  /tmp/ccPo84yg.s 			page 163


 9201 26a9 01       		.byte	0x1
 9202 26aa EB050000 		.4byte	.LASF302
 9203 26ae 01       		.byte	0x1
 9204 26af 9605     		.2byte	0x596
 9205 26b1 01       		.byte	0x1
 9206 26b2 29000000 		.4byte	0x29
 9207 26b6 00000000 		.4byte	.LFB29
 9208 26ba 06000000 		.4byte	.LFE29
 9209 26be 02       		.byte	0x2
 9210 26bf 7D       		.byte	0x7d
 9211 26c0 00       		.sleb128 0
 9212 26c1 01       		.byte	0x1
 9213 26c2 1A270000 		.4byte	0x271a
 9214 26c6 24       		.uleb128 0x24
 9215 26c7 7300     		.ascii	"s\000"
 9216 26c9 01       		.byte	0x1
 9217 26ca 9605     		.2byte	0x596
 9218 26cc 29000000 		.4byte	0x29
 9219 26d0 C51E0000 		.4byte	.LLST163
 9220 26d4 28       		.uleb128 0x28
 9221 26d5 800B0000 		.4byte	.LASF259
 9222 26d9 01       		.byte	0x1
 9223 26da 9605     		.2byte	0x596
 9224 26dc DC160000 		.4byte	0x16dc
 9225 26e0 E61E0000 		.4byte	.LLST164
 9226 26e4 28       		.uleb128 0x28
 9227 26e5 5B030000 		.4byte	.LASF260
 9228 26e9 01       		.byte	0x1
 9229 26ea 9605     		.2byte	0x596
 9230 26ec F1110000 		.4byte	0x11f1
 9231 26f0 071F0000 		.4byte	.LLST165
 9232 26f4 42       		.uleb128 0x42
 9233 26f5 06000000 		.4byte	.LVL395
 9234 26f9 01       		.byte	0x1
 9235 26fa ED150000 		.4byte	0x15ed
 9236 26fe 32       		.uleb128 0x32
 9237 26ff 01       		.byte	0x1
 9238 2700 53       		.byte	0x53
 9239 2701 01       		.byte	0x1
 9240 2702 30       		.byte	0x30
 9241 2703 32       		.uleb128 0x32
 9242 2704 01       		.byte	0x1
 9243 2705 52       		.byte	0x52
 9244 2706 03       		.byte	0x3
 9245 2707 F3       		.byte	0xf3
 9246 2708 01       		.uleb128 0x1
 9247 2709 52       		.byte	0x52
 9248 270a 32       		.uleb128 0x32
 9249 270b 01       		.byte	0x1
 9250 270c 51       		.byte	0x51
 9251 270d 03       		.byte	0x3
 9252 270e F3       		.byte	0xf3
 9253 270f 01       		.uleb128 0x1
 9254 2710 51       		.byte	0x51
 9255 2711 32       		.uleb128 0x32
 9256 2712 01       		.byte	0x1
 9257 2713 50       		.byte	0x50
ARM GAS  /tmp/ccPo84yg.s 			page 164


 9258 2714 03       		.byte	0x3
 9259 2715 F3       		.byte	0xf3
 9260 2716 01       		.uleb128 0x1
 9261 2717 50       		.byte	0x50
 9262 2718 00       		.byte	0
 9263 2719 00       		.byte	0
 9264 271a 41       		.uleb128 0x41
 9265 271b 01       		.byte	0x1
 9266 271c EA080000 		.4byte	.LASF303
 9267 2720 01       		.byte	0x1
 9268 2721 9C05     		.2byte	0x59c
 9269 2723 01       		.byte	0x1
 9270 2724 29000000 		.4byte	0x29
 9271 2728 00000000 		.4byte	.LFB30
 9272 272c 06000000 		.4byte	.LFE30
 9273 2730 02       		.byte	0x2
 9274 2731 7D       		.byte	0x7d
 9275 2732 00       		.sleb128 0
 9276 2733 01       		.byte	0x1
 9277 2734 8C270000 		.4byte	0x278c
 9278 2738 24       		.uleb128 0x24
 9279 2739 7300     		.ascii	"s\000"
 9280 273b 01       		.byte	0x1
 9281 273c 9C05     		.2byte	0x59c
 9282 273e 29000000 		.4byte	0x29
 9283 2742 281F0000 		.4byte	.LLST166
 9284 2746 28       		.uleb128 0x28
 9285 2747 800B0000 		.4byte	.LASF259
 9286 274b 01       		.byte	0x1
 9287 274c 9C05     		.2byte	0x59c
 9288 274e DC160000 		.4byte	0x16dc
 9289 2752 491F0000 		.4byte	.LLST167
 9290 2756 28       		.uleb128 0x28
 9291 2757 5B030000 		.4byte	.LASF260
 9292 275b 01       		.byte	0x1
 9293 275c 9C05     		.2byte	0x59c
 9294 275e F1110000 		.4byte	0x11f1
 9295 2762 6A1F0000 		.4byte	.LLST168
 9296 2766 42       		.uleb128 0x42
 9297 2767 06000000 		.4byte	.LVL397
 9298 276b 01       		.byte	0x1
 9299 276c ED150000 		.4byte	0x15ed
 9300 2770 32       		.uleb128 0x32
 9301 2771 01       		.byte	0x1
 9302 2772 53       		.byte	0x53
 9303 2773 01       		.byte	0x1
 9304 2774 31       		.byte	0x31
 9305 2775 32       		.uleb128 0x32
 9306 2776 01       		.byte	0x1
 9307 2777 52       		.byte	0x52
 9308 2778 03       		.byte	0x3
 9309 2779 F3       		.byte	0xf3
 9310 277a 01       		.uleb128 0x1
 9311 277b 52       		.byte	0x52
 9312 277c 32       		.uleb128 0x32
 9313 277d 01       		.byte	0x1
 9314 277e 51       		.byte	0x51
ARM GAS  /tmp/ccPo84yg.s 			page 165


 9315 277f 03       		.byte	0x3
 9316 2780 F3       		.byte	0xf3
 9317 2781 01       		.uleb128 0x1
 9318 2782 51       		.byte	0x51
 9319 2783 32       		.uleb128 0x32
 9320 2784 01       		.byte	0x1
 9321 2785 50       		.byte	0x50
 9322 2786 03       		.byte	0x3
 9323 2787 F3       		.byte	0xf3
 9324 2788 01       		.uleb128 0x1
 9325 2789 50       		.byte	0x50
 9326 278a 00       		.byte	0
 9327 278b 00       		.byte	0
 9328 278c 3B       		.uleb128 0x3b
 9329 278d 01       		.byte	0x1
 9330 278e 31050000 		.4byte	.LASF304
 9331 2792 01       		.byte	0x1
 9332 2793 A205     		.2byte	0x5a2
 9333 2795 01       		.byte	0x1
 9334 2796 29000000 		.4byte	0x29
 9335 279a 00000000 		.4byte	.LFB31
 9336 279e 00010000 		.4byte	.LFE31
 9337 27a2 8B1F0000 		.4byte	.LLST169
 9338 27a6 01       		.byte	0x1
 9339 27a7 85280000 		.4byte	0x2885
 9340 27ab 24       		.uleb128 0x24
 9341 27ac 7300     		.ascii	"s\000"
 9342 27ae 01       		.byte	0x1
 9343 27af A205     		.2byte	0x5a2
 9344 27b1 29000000 		.4byte	0x29
 9345 27b5 B71F0000 		.4byte	.LLST170
 9346 27b9 28       		.uleb128 0x28
 9347 27ba 540D0000 		.4byte	.LASF231
 9348 27be 01       		.byte	0x1
 9349 27bf A205     		.2byte	0x5a2
 9350 27c1 29000000 		.4byte	0x29
 9351 27c5 D81F0000 		.4byte	.LLST171
 9352 27c9 28       		.uleb128 0x28
 9353 27ca 9B080000 		.4byte	.LASF232
 9354 27ce 01       		.byte	0x1
 9355 27cf A205     		.2byte	0x5a2
 9356 27d1 29000000 		.4byte	0x29
 9357 27d5 F61F0000 		.4byte	.LLST172
 9358 27d9 28       		.uleb128 0x28
 9359 27da 12080000 		.4byte	.LASF233
 9360 27de 01       		.byte	0x1
 9361 27df A205     		.2byte	0x5a2
 9362 27e1 B2020000 		.4byte	0x2b2
 9363 27e5 14200000 		.4byte	.LLST173
 9364 27e9 34       		.uleb128 0x34
 9365 27ea FB090000 		.4byte	.LASF234
 9366 27ee 01       		.byte	0x1
 9367 27ef A205     		.2byte	0x5a2
 9368 27f1 F1110000 		.4byte	0x11f1
 9369 27f5 02       		.byte	0x2
 9370 27f6 91       		.byte	0x91
 9371 27f7 00       		.sleb128 0
ARM GAS  /tmp/ccPo84yg.s 			page 166


 9372 27f8 29       		.uleb128 0x29
 9373 27f9 65727200 		.ascii	"err\000"
 9374 27fd 01       		.byte	0x1
 9375 27fe A405     		.2byte	0x5a4
 9376 2800 4C060000 		.4byte	0x64c
 9377 2804 B2200000 		.4byte	.LLST174
 9378 2808 2A       		.uleb128 0x2a
 9379 2809 FC070000 		.4byte	.LASF230
 9380 280d 01       		.byte	0x1
 9381 280e A505     		.2byte	0x5a5
 9382 2810 EB110000 		.4byte	0x11eb
 9383 2814 01       		.byte	0x1
 9384 2815 56       		.byte	0x56
 9385 2816 2A       		.uleb128 0x2a
 9386 2817 380E0000 		.4byte	.LASF239
 9387 281b 01       		.byte	0x1
 9388 281c A605     		.2byte	0x5a6
 9389 281e 8A110000 		.4byte	0x118a
 9390 2822 02       		.byte	0x2
 9391 2823 91       		.byte	0x91
 9392 2824 50       		.sleb128 -48
 9393 2825 38       		.uleb128 0x38
 9394 2826 F7110000 		.4byte	0x11f7
 9395 282a 06000000 		.4byte	.LBB146
 9396 282e A8030000 		.4byte	.Ldebug_ranges0+0x3a8
 9397 2832 01       		.byte	0x1
 9398 2833 A505     		.2byte	0x5a5
 9399 2835 52280000 		.4byte	0x2852
 9400 2839 2D       		.uleb128 0x2d
 9401 283a 08120000 		.4byte	0x1208
 9402 283e B71F0000 		.4byte	.LLST170
 9403 2842 35       		.uleb128 0x35
 9404 2843 C0030000 		.4byte	.Ldebug_ranges0+0x3c0
 9405 2847 2F       		.uleb128 0x2f
 9406 2848 11120000 		.4byte	0x1211
 9407 284c 0D210000 		.4byte	.LLST176
 9408 2850 00       		.byte	0
 9409 2851 00       		.byte	0
 9410 2852 39       		.uleb128 0x39
 9411 2853 7E000000 		.4byte	.LVL407
 9412 2857 062E0000 		.4byte	0x2e06
 9413 285b 74280000 		.4byte	0x2874
 9414 285f 32       		.uleb128 0x32
 9415 2860 01       		.byte	0x1
 9416 2861 52       		.byte	0x52
 9417 2862 01       		.byte	0x1
 9418 2863 31       		.byte	0x31
 9419 2864 32       		.uleb128 0x32
 9420 2865 01       		.byte	0x1
 9421 2866 51       		.byte	0x51
 9422 2867 02       		.byte	0x2
 9423 2868 7D       		.byte	0x7d
 9424 2869 00       		.sleb128 0
 9425 286a 32       		.uleb128 0x32
 9426 286b 01       		.byte	0x1
 9427 286c 50       		.byte	0x50
 9428 286d 05       		.byte	0x5
ARM GAS  /tmp/ccPo84yg.s 			page 167


 9429 286e 03       		.byte	0x3
 9430 286f 00000000 		.4byte	lwip_getsockopt_internal
 9431 2873 00       		.byte	0
 9432 2874 31       		.uleb128 0x31
 9433 2875 88000000 		.4byte	.LVL408
 9434 2879 B32D0000 		.4byte	0x2db3
 9435 287d 32       		.uleb128 0x32
 9436 287e 01       		.byte	0x1
 9437 287f 51       		.byte	0x51
 9438 2880 02       		.byte	0x2
 9439 2881 78       		.byte	0x78
 9440 2882 00       		.sleb128 0
 9441 2883 00       		.byte	0
 9442 2884 00       		.byte	0
 9443 2885 3B       		.uleb128 0x3b
 9444 2886 01       		.byte	0x1
 9445 2887 9B0C0000 		.4byte	.LASF305
 9446 288b 01       		.byte	0x1
 9447 288c 3307     		.2byte	0x733
 9448 288e 01       		.byte	0x1
 9449 288f 29000000 		.4byte	0x29
 9450 2893 00000000 		.4byte	.LFB33
 9451 2897 DC000000 		.4byte	.LFE33
 9452 289b 2B210000 		.4byte	.LLST177
 9453 289f 01       		.byte	0x1
 9454 28a0 7E290000 		.4byte	0x297e
 9455 28a4 24       		.uleb128 0x24
 9456 28a5 7300     		.ascii	"s\000"
 9457 28a7 01       		.byte	0x1
 9458 28a8 3307     		.2byte	0x733
 9459 28aa 29000000 		.4byte	0x29
 9460 28ae 57210000 		.4byte	.LLST178
 9461 28b2 28       		.uleb128 0x28
 9462 28b3 540D0000 		.4byte	.LASF231
 9463 28b7 01       		.byte	0x1
 9464 28b8 3307     		.2byte	0x733
 9465 28ba 29000000 		.4byte	0x29
 9466 28be 78210000 		.4byte	.LLST179
 9467 28c2 28       		.uleb128 0x28
 9468 28c3 9B080000 		.4byte	.LASF232
 9469 28c7 01       		.byte	0x1
 9470 28c8 3307     		.2byte	0x733
 9471 28ca 29000000 		.4byte	0x29
 9472 28ce 96210000 		.4byte	.LLST180
 9473 28d2 28       		.uleb128 0x28
 9474 28d3 12080000 		.4byte	.LASF233
 9475 28d7 01       		.byte	0x1
 9476 28d8 3307     		.2byte	0x733
 9477 28da FB0F0000 		.4byte	0xffb
 9478 28de B4210000 		.4byte	.LLST181
 9479 28e2 34       		.uleb128 0x34
 9480 28e3 FB090000 		.4byte	.LASF234
 9481 28e7 01       		.byte	0x1
 9482 28e8 3307     		.2byte	0x733
 9483 28ea E6040000 		.4byte	0x4e6
 9484 28ee 02       		.byte	0x2
 9485 28ef 91       		.byte	0x91
ARM GAS  /tmp/ccPo84yg.s 			page 168


 9486 28f0 00       		.sleb128 0
 9487 28f1 2A       		.uleb128 0x2a
 9488 28f2 FC070000 		.4byte	.LASF230
 9489 28f6 01       		.byte	0x1
 9490 28f7 3507     		.2byte	0x735
 9491 28f9 EB110000 		.4byte	0x11eb
 9492 28fd 01       		.byte	0x1
 9493 28fe 55       		.byte	0x55
 9494 28ff 29       		.uleb128 0x29
 9495 2900 65727200 		.ascii	"err\000"
 9496 2904 01       		.byte	0x1
 9497 2905 3607     		.2byte	0x736
 9498 2907 4C060000 		.4byte	0x64c
 9499 290b 5E220000 		.4byte	.LLST182
 9500 290f 2A       		.uleb128 0x2a
 9501 2910 380E0000 		.4byte	.LASF239
 9502 2914 01       		.byte	0x1
 9503 2915 3707     		.2byte	0x737
 9504 2917 8A110000 		.4byte	0x118a
 9505 291b 02       		.byte	0x2
 9506 291c 91       		.byte	0x91
 9507 291d 50       		.sleb128 -48
 9508 291e 38       		.uleb128 0x38
 9509 291f F7110000 		.4byte	0x11f7
 9510 2923 02000000 		.4byte	.LBB150
 9511 2927 D8030000 		.4byte	.Ldebug_ranges0+0x3d8
 9512 292b 01       		.byte	0x1
 9513 292c 3507     		.2byte	0x735
 9514 292e 4B290000 		.4byte	0x294b
 9515 2932 2D       		.uleb128 0x2d
 9516 2933 08120000 		.4byte	0x1208
 9517 2937 57210000 		.4byte	.LLST178
 9518 293b 35       		.uleb128 0x35
 9519 293c F0030000 		.4byte	.Ldebug_ranges0+0x3f0
 9520 2940 2F       		.uleb128 0x2f
 9521 2941 11120000 		.4byte	0x1211
 9522 2945 B9220000 		.4byte	.LLST184
 9523 2949 00       		.byte	0
 9524 294a 00       		.byte	0
 9525 294b 39       		.uleb128 0x39
 9526 294c 88000000 		.4byte	.LVL432
 9527 2950 062E0000 		.4byte	0x2e06
 9528 2954 6D290000 		.4byte	0x296d
 9529 2958 32       		.uleb128 0x32
 9530 2959 01       		.byte	0x1
 9531 295a 52       		.byte	0x52
 9532 295b 01       		.byte	0x1
 9533 295c 31       		.byte	0x31
 9534 295d 32       		.uleb128 0x32
 9535 295e 01       		.byte	0x1
 9536 295f 51       		.byte	0x51
 9537 2960 02       		.byte	0x2
 9538 2961 7D       		.byte	0x7d
 9539 2962 00       		.sleb128 0
 9540 2963 32       		.uleb128 0x32
 9541 2964 01       		.byte	0x1
 9542 2965 50       		.byte	0x50
ARM GAS  /tmp/ccPo84yg.s 			page 169


 9543 2966 05       		.byte	0x5
 9544 2967 03       		.byte	0x3
 9545 2968 00000000 		.4byte	lwip_setsockopt_internal
 9546 296c 00       		.byte	0
 9547 296d 31       		.uleb128 0x31
 9548 296e 92000000 		.4byte	.LVL433
 9549 2972 B32D0000 		.4byte	0x2db3
 9550 2976 32       		.uleb128 0x32
 9551 2977 01       		.byte	0x1
 9552 2978 51       		.byte	0x51
 9553 2979 02       		.byte	0x2
 9554 297a 77       		.byte	0x77
 9555 297b 00       		.sleb128 0
 9556 297c 00       		.byte	0
 9557 297d 00       		.byte	0
 9558 297e 3B       		.uleb128 0x3b
 9559 297f 01       		.byte	0x1
 9560 2980 B3030000 		.4byte	.LASF306
 9561 2984 01       		.byte	0x1
 9562 2985 CE08     		.2byte	0x8ce
 9563 2987 01       		.byte	0x1
 9564 2988 29000000 		.4byte	0x29
 9565 298c 00000000 		.4byte	.LFB35
 9566 2990 54000000 		.4byte	.LFE35
 9567 2994 D7220000 		.4byte	.LLST185
 9568 2998 01       		.byte	0x1
 9569 2999 112A0000 		.4byte	0x2a11
 9570 299d 24       		.uleb128 0x24
 9571 299e 7300     		.ascii	"s\000"
 9572 29a0 01       		.byte	0x1
 9573 29a1 CE08     		.2byte	0x8ce
 9574 29a3 29000000 		.4byte	0x29
 9575 29a7 F7220000 		.4byte	.LLST186
 9576 29ab 40       		.uleb128 0x40
 9577 29ac 636D6400 		.ascii	"cmd\000"
 9578 29b0 01       		.byte	0x1
 9579 29b1 CE08     		.2byte	0x8ce
 9580 29b3 95000000 		.4byte	0x95
 9581 29b7 01       		.byte	0x1
 9582 29b8 51       		.byte	0x51
 9583 29b9 28       		.uleb128 0x28
 9584 29ba B6060000 		.4byte	.LASF307
 9585 29be 01       		.byte	0x1
 9586 29bf CE08     		.2byte	0x8ce
 9587 29c1 B2020000 		.4byte	0x2b2
 9588 29c5 18230000 		.4byte	.LLST187
 9589 29c9 2A       		.uleb128 0x2a
 9590 29ca FC070000 		.4byte	.LASF230
 9591 29ce 01       		.byte	0x1
 9592 29cf D008     		.2byte	0x8d0
 9593 29d1 EB110000 		.4byte	0x11eb
 9594 29d5 01       		.byte	0x1
 9595 29d6 54       		.byte	0x54
 9596 29d7 29       		.uleb128 0x29
 9597 29d8 76616C00 		.ascii	"val\000"
 9598 29dc 01       		.byte	0x1
 9599 29dd D108     		.2byte	0x8d1
ARM GAS  /tmp/ccPo84yg.s 			page 170


 9600 29df BA040000 		.4byte	0x4ba
 9601 29e3 52230000 		.4byte	.LLST188
 9602 29e7 36       		.uleb128 0x36
 9603 29e8 F7110000 		.4byte	0x11f7
 9604 29ec 00000000 		.4byte	.LBB154
 9605 29f0 08040000 		.4byte	.Ldebug_ranges0+0x408
 9606 29f4 01       		.byte	0x1
 9607 29f5 D008     		.2byte	0x8d0
 9608 29f7 2D       		.uleb128 0x2d
 9609 29f8 08120000 		.4byte	0x1208
 9610 29fc F7220000 		.4byte	.LLST186
 9611 2a00 35       		.uleb128 0x35
 9612 2a01 28040000 		.4byte	.Ldebug_ranges0+0x428
 9613 2a05 2F       		.uleb128 0x2f
 9614 2a06 11120000 		.4byte	0x1211
 9615 2a0a 7E230000 		.4byte	.LLST190
 9616 2a0e 00       		.byte	0
 9617 2a0f 00       		.byte	0
 9618 2a10 00       		.byte	0
 9619 2a11 41       		.uleb128 0x41
 9620 2a12 01       		.byte	0x1
 9621 2a13 480B0000 		.4byte	.LASF308
 9622 2a17 01       		.byte	0x1
 9623 2a18 1009     		.2byte	0x910
 9624 2a1a 01       		.byte	0x1
 9625 2a1b 29000000 		.4byte	0x29
 9626 2a1f 00000000 		.4byte	.LFB36
 9627 2a23 4C000000 		.4byte	.LFE36
 9628 2a27 02       		.byte	0x2
 9629 2a28 7D       		.byte	0x7d
 9630 2a29 00       		.sleb128 0
 9631 2a2a 01       		.byte	0x1
 9632 2a2b A72A0000 		.4byte	0x2aa7
 9633 2a2f 24       		.uleb128 0x24
 9634 2a30 7300     		.ascii	"s\000"
 9635 2a32 01       		.byte	0x1
 9636 2a33 1009     		.2byte	0x910
 9637 2a35 29000000 		.4byte	0x29
 9638 2a39 9C230000 		.4byte	.LLST191
 9639 2a3d 24       		.uleb128 0x24
 9640 2a3e 636D6400 		.ascii	"cmd\000"
 9641 2a42 01       		.byte	0x1
 9642 2a43 1009     		.2byte	0x910
 9643 2a45 29000000 		.4byte	0x29
 9644 2a49 BD230000 		.4byte	.LLST192
 9645 2a4d 24       		.uleb128 0x24
 9646 2a4e 76616C00 		.ascii	"val\000"
 9647 2a52 01       		.byte	0x1
 9648 2a53 1009     		.2byte	0x910
 9649 2a55 29000000 		.4byte	0x29
 9650 2a59 02240000 		.4byte	.LLST193
 9651 2a5d 3E       		.uleb128 0x3e
 9652 2a5e FC070000 		.4byte	.LASF230
 9653 2a62 01       		.byte	0x1
 9654 2a63 1209     		.2byte	0x912
 9655 2a65 EB110000 		.4byte	0x11eb
 9656 2a69 29       		.uleb128 0x29
ARM GAS  /tmp/ccPo84yg.s 			page 171


 9657 2a6a 72657400 		.ascii	"ret\000"
 9658 2a6e 01       		.byte	0x1
 9659 2a6f 1309     		.2byte	0x913
 9660 2a71 29000000 		.4byte	0x29
 9661 2a75 2E240000 		.4byte	.LLST194
 9662 2a79 44       		.uleb128 0x44
 9663 2a7a F7110000 		.4byte	0x11f7
 9664 2a7e 00000000 		.4byte	.LBB160
 9665 2a82 10000000 		.4byte	.LBE160
 9666 2a86 01       		.byte	0x1
 9667 2a87 1209     		.2byte	0x912
 9668 2a89 2D       		.uleb128 0x2d
 9669 2a8a 08120000 		.4byte	0x1208
 9670 2a8e 9C230000 		.4byte	.LLST191
 9671 2a92 2E       		.uleb128 0x2e
 9672 2a93 00000000 		.4byte	.LBB161
 9673 2a97 10000000 		.4byte	.LBE161
 9674 2a9b 2F       		.uleb128 0x2f
 9675 2a9c 11120000 		.4byte	0x1211
 9676 2aa0 5B240000 		.4byte	.LLST196
 9677 2aa4 00       		.byte	0
 9678 2aa5 00       		.byte	0
 9679 2aa6 00       		.byte	0
 9680 2aa7 13       		.uleb128 0x13
 9681 2aa8 92100000 		.4byte	0x1092
 9682 2aac B72A0000 		.4byte	0x2ab7
 9683 2ab0 14       		.uleb128 0x14
 9684 2ab1 65030000 		.4byte	0x365
 9685 2ab5 03       		.byte	0x3
 9686 2ab6 00       		.byte	0
 9687 2ab7 45       		.uleb128 0x45
 9688 2ab8 A1050000 		.4byte	.LASF309
 9689 2abc 01       		.byte	0x1
 9690 2abd 7E       		.byte	0x7e
 9691 2abe A72A0000 		.4byte	0x2aa7
 9692 2ac2 05       		.byte	0x5
 9693 2ac3 03       		.byte	0x3
 9694 2ac4 00000000 		.4byte	sockets
 9695 2ac8 45       		.uleb128 0x45
 9696 2ac9 2F080000 		.4byte	.LASF310
 9697 2acd 01       		.byte	0x1
 9698 2ace 80       		.byte	0x80
 9699 2acf 7E110000 		.4byte	0x117e
 9700 2ad3 05       		.byte	0x5
 9701 2ad4 03       		.byte	0x3
 9702 2ad5 00000000 		.4byte	select_cb_list
 9703 2ad9 45       		.uleb128 0x45
 9704 2ada AC0A0000 		.4byte	.LASF311
 9705 2ade 01       		.byte	0x1
 9706 2adf 83       		.byte	0x83
 9707 2ae0 EA2A0000 		.4byte	0x2aea
 9708 2ae4 05       		.byte	0x5
 9709 2ae5 03       		.byte	0x3
 9710 2ae6 00000000 		.4byte	select_cb_ctr
 9711 2aea 0F       		.uleb128 0xf
 9712 2aeb 29000000 		.4byte	0x29
 9713 2aef 13       		.uleb128 0x13
ARM GAS  /tmp/ccPo84yg.s 			page 172


 9714 2af0 29000000 		.4byte	0x29
 9715 2af4 FF2A0000 		.4byte	0x2aff
 9716 2af8 14       		.uleb128 0x14
 9717 2af9 65030000 		.4byte	0x365
 9718 2afd 0F       		.byte	0xf
 9719 2afe 00       		.byte	0
 9720 2aff 45       		.uleb128 0x45
 9721 2b00 02010000 		.4byte	.LASF312
 9722 2b04 01       		.byte	0x1
 9723 2b05 87       		.byte	0x87
 9724 2b06 102B0000 		.4byte	0x2b10
 9725 2b0a 05       		.byte	0x5
 9726 2b0b 03       		.byte	0x3
 9727 2b0c 00000000 		.4byte	err_to_errno_table
 9728 2b10 12       		.uleb128 0x12
 9729 2b11 EF2A0000 		.4byte	0x2aef
 9730 2b15 46       		.uleb128 0x46
 9731 2b16 01       		.byte	0x1
 9732 2b17 E9030000 		.4byte	.LASF347
 9733 2b1b 07       		.byte	0x7
 9734 2b1c FA01     		.2byte	0x1fa
 9735 2b1e 01       		.byte	0x1
 9736 2b1f 01       		.byte	0x1
 9737 2b20 47       		.uleb128 0x47
 9738 2b21 01       		.byte	0x1
 9739 2b22 DB010000 		.4byte	.LASF315
 9740 2b26 1B       		.byte	0x1b
 9741 2b27 88       		.byte	0x88
 9742 2b28 01       		.byte	0x1
 9743 2b29 01       		.byte	0x1
 9744 2b2a 342B0000 		.4byte	0x2b34
 9745 2b2e 0E       		.uleb128 0xe
 9746 2b2f 8C100000 		.4byte	0x108c
 9747 2b33 00       		.byte	0
 9748 2b34 48       		.uleb128 0x48
 9749 2b35 01       		.byte	0x1
 9750 2b36 DC090000 		.4byte	.LASF313
 9751 2b3a 13       		.byte	0x13
 9752 2b3b D8       		.byte	0xd8
 9753 2b3c 01       		.byte	0x1
 9754 2b3d 4C060000 		.4byte	0x64c
 9755 2b41 01       		.byte	0x1
 9756 2b42 5B2B0000 		.4byte	0x2b5b
 9757 2b46 0E       		.uleb128 0xe
 9758 2b47 E0070000 		.4byte	0x7e0
 9759 2b4b 0E       		.uleb128 0xe
 9760 2b4c B80D0000 		.4byte	0xdb8
 9761 2b50 0E       		.uleb128 0xe
 9762 2b51 C20F0000 		.4byte	0xfc2
 9763 2b55 0E       		.uleb128 0xe
 9764 2b56 BA040000 		.4byte	0x4ba
 9765 2b5a 00       		.byte	0
 9766 2b5b 48       		.uleb128 0x48
 9767 2b5c 01       		.byte	0x1
 9768 2b5d 21020000 		.4byte	.LASF314
 9769 2b61 1A       		.byte	0x1a
 9770 2b62 67       		.byte	0x67
ARM GAS  /tmp/ccPo84yg.s 			page 173


 9771 2b63 01       		.byte	0x1
 9772 2b64 D0040000 		.4byte	0x4d0
 9773 2b68 01       		.byte	0x1
 9774 2b69 732B0000 		.4byte	0x2b73
 9775 2b6d 0E       		.uleb128 0xe
 9776 2b6e D0040000 		.4byte	0x4d0
 9777 2b72 00       		.byte	0
 9778 2b73 49       		.uleb128 0x49
 9779 2b74 01       		.byte	0x1
 9780 2b75 010D0000 		.4byte	.LASF316
 9781 2b79 01       		.byte	0x1
 9782 2b7a B2020000 		.4byte	0x2b2
 9783 2b7e 01       		.byte	0x1
 9784 2b7f 01       		.byte	0x1
 9785 2b80 942B0000 		.4byte	0x2b94
 9786 2b84 0E       		.uleb128 0xe
 9787 2b85 B2020000 		.4byte	0x2b2
 9788 2b89 0E       		.uleb128 0xe
 9789 2b8a FB0F0000 		.4byte	0xffb
 9790 2b8e 0E       		.uleb128 0xe
 9791 2b8f 65030000 		.4byte	0x365
 9792 2b93 00       		.byte	0
 9793 2b94 48       		.uleb128 0x48
 9794 2b95 01       		.byte	0x1
 9795 2b96 1F010000 		.4byte	.LASF317
 9796 2b9a 13       		.byte	0x13
 9797 2b9b E2       		.byte	0xe2
 9798 2b9c 01       		.byte	0x1
 9799 2b9d 4C060000 		.4byte	0x64c
 9800 2ba1 01       		.byte	0x1
 9801 2ba2 B12B0000 		.4byte	0x2bb1
 9802 2ba6 0E       		.uleb128 0xe
 9803 2ba7 E0070000 		.4byte	0x7e0
 9804 2bab 0E       		.uleb128 0xe
 9805 2bac B12B0000 		.4byte	0x2bb1
 9806 2bb0 00       		.byte	0
 9807 2bb1 09       		.uleb128 0x9
 9808 2bb2 04       		.byte	0x4
 9809 2bb3 E0070000 		.4byte	0x7e0
 9810 2bb7 48       		.uleb128 0x48
 9811 2bb8 01       		.byte	0x1
 9812 2bb9 43040000 		.4byte	.LASF318
 9813 2bbd 13       		.byte	0x13
 9814 2bbe D4       		.byte	0xd4
 9815 2bbf 01       		.byte	0x1
 9816 2bc0 4C060000 		.4byte	0x64c
 9817 2bc4 01       		.byte	0x1
 9818 2bc5 CF2B0000 		.4byte	0x2bcf
 9819 2bc9 0E       		.uleb128 0xe
 9820 2bca E0070000 		.4byte	0x7e0
 9821 2bce 00       		.byte	0
 9822 2bcf 48       		.uleb128 0x48
 9823 2bd0 01       		.byte	0x1
 9824 2bd1 96000000 		.4byte	.LASF319
 9825 2bd5 1A       		.byte	0x1a
 9826 2bd6 68       		.byte	0x68
 9827 2bd7 01       		.byte	0x1
ARM GAS  /tmp/ccPo84yg.s 			page 174


 9828 2bd8 D0040000 		.4byte	0x4d0
 9829 2bdc 01       		.byte	0x1
 9830 2bdd E72B0000 		.4byte	0x2be7
 9831 2be1 0E       		.uleb128 0xe
 9832 2be2 D0040000 		.4byte	0x4d0
 9833 2be6 00       		.byte	0
 9834 2be7 48       		.uleb128 0x48
 9835 2be8 01       		.byte	0x1
 9836 2be9 C1020000 		.4byte	.LASF320
 9837 2bed 13       		.byte	0x13
 9838 2bee DD       		.byte	0xdd
 9839 2bef 01       		.byte	0x1
 9840 2bf0 4C060000 		.4byte	0x64c
 9841 2bf4 01       		.byte	0x1
 9842 2bf5 092C0000 		.4byte	0x2c09
 9843 2bf9 0E       		.uleb128 0xe
 9844 2bfa E0070000 		.4byte	0x7e0
 9845 2bfe 0E       		.uleb128 0xe
 9846 2bff B80D0000 		.4byte	0xdb8
 9847 2c03 0E       		.uleb128 0xe
 9848 2c04 D0040000 		.4byte	0x4d0
 9849 2c08 00       		.byte	0
 9850 2c09 47       		.uleb128 0x47
 9851 2c0a 01       		.byte	0x1
 9852 2c0b 88030000 		.4byte	.LASF321
 9853 2c0f 11       		.byte	0x11
 9854 2c10 41       		.byte	0x41
 9855 2c11 01       		.byte	0x1
 9856 2c12 01       		.byte	0x1
 9857 2c13 1D2C0000 		.4byte	0x2c1d
 9858 2c17 0E       		.uleb128 0xe
 9859 2c18 7B100000 		.4byte	0x107b
 9860 2c1c 00       		.byte	0
 9861 2c1d 48       		.uleb128 0x48
 9862 2c1e 01       		.byte	0x1
 9863 2c1f D50A0000 		.4byte	.LASF322
 9864 2c23 10       		.byte	0x10
 9865 2c24 83       		.byte	0x83
 9866 2c25 01       		.byte	0x1
 9867 2c26 BA040000 		.4byte	0x4ba
 9868 2c2a 01       		.byte	0x1
 9869 2c2b 352C0000 		.4byte	0x2c35
 9870 2c2f 0E       		.uleb128 0xe
 9871 2c30 C6060000 		.4byte	0x6c6
 9872 2c34 00       		.byte	0
 9873 2c35 48       		.uleb128 0x48
 9874 2c36 01       		.byte	0x1
 9875 2c37 9C0A0000 		.4byte	.LASF323
 9876 2c3b 13       		.byte	0x13
 9877 2c3c DE       		.byte	0xde
 9878 2c3d 01       		.byte	0x1
 9879 2c3e 4C060000 		.4byte	0x64c
 9880 2c42 01       		.byte	0x1
 9881 2c43 572C0000 		.4byte	0x2c57
 9882 2c47 0E       		.uleb128 0xe
 9883 2c48 E0070000 		.4byte	0x7e0
 9884 2c4c 0E       		.uleb128 0xe
ARM GAS  /tmp/ccPo84yg.s 			page 175


 9885 2c4d B80D0000 		.4byte	0xdb8
 9886 2c51 0E       		.uleb128 0xe
 9887 2c52 D0040000 		.4byte	0x4d0
 9888 2c56 00       		.byte	0
 9889 2c57 48       		.uleb128 0x48
 9890 2c58 01       		.byte	0x1
 9891 2c59 BA090000 		.4byte	.LASF324
 9892 2c5d 13       		.byte	0x13
 9893 2c5e E0       		.byte	0xe0
 9894 2c5f 01       		.byte	0x1
 9895 2c60 4C060000 		.4byte	0x64c
 9896 2c64 01       		.byte	0x1
 9897 2c65 742C0000 		.4byte	0x2c74
 9898 2c69 0E       		.uleb128 0xe
 9899 2c6a E0070000 		.4byte	0x7e0
 9900 2c6e 0E       		.uleb128 0xe
 9901 2c6f BA040000 		.4byte	0x4ba
 9902 2c73 00       		.byte	0
 9903 2c74 48       		.uleb128 0x48
 9904 2c75 01       		.byte	0x1
 9905 2c76 3D060000 		.4byte	.LASF325
 9906 2c7a 10       		.byte	0x10
 9907 2c7b 89       		.byte	0x89
 9908 2c7c 01       		.byte	0x1
 9909 2c7d D0040000 		.4byte	0x4d0
 9910 2c81 01       		.byte	0x1
 9911 2c82 9B2C0000 		.4byte	0x2c9b
 9912 2c86 0E       		.uleb128 0xe
 9913 2c87 C6060000 		.4byte	0x6c6
 9914 2c8b 0E       		.uleb128 0xe
 9915 2c8c B2020000 		.4byte	0x2b2
 9916 2c90 0E       		.uleb128 0xe
 9917 2c91 D0040000 		.4byte	0x4d0
 9918 2c95 0E       		.uleb128 0xe
 9919 2c96 D0040000 		.4byte	0x4d0
 9920 2c9a 00       		.byte	0
 9921 2c9b 47       		.uleb128 0x47
 9922 2c9c 01       		.byte	0x1
 9923 2c9d 730D0000 		.4byte	.LASF326
 9924 2ca1 13       		.byte	0x13
 9925 2ca2 E5       		.byte	0xe5
 9926 2ca3 01       		.byte	0x1
 9927 2ca4 01       		.byte	0x1
 9928 2ca5 B42C0000 		.4byte	0x2cb4
 9929 2ca9 0E       		.uleb128 0xe
 9930 2caa E0070000 		.4byte	0x7e0
 9931 2cae 0E       		.uleb128 0xe
 9932 2caf E6040000 		.4byte	0x4e6
 9933 2cb3 00       		.byte	0
 9934 2cb4 48       		.uleb128 0x48
 9935 2cb5 01       		.byte	0x1
 9936 2cb6 3B0C0000 		.4byte	.LASF327
 9937 2cba 13       		.byte	0x13
 9938 2cbb E3       		.byte	0xe3
 9939 2cbc 01       		.byte	0x1
 9940 2cbd 4C060000 		.4byte	0x64c
 9941 2cc1 01       		.byte	0x1
ARM GAS  /tmp/ccPo84yg.s 			page 176


 9942 2cc2 D12C0000 		.4byte	0x2cd1
 9943 2cc6 0E       		.uleb128 0xe
 9944 2cc7 E0070000 		.4byte	0x7e0
 9945 2ccb 0E       		.uleb128 0xe
 9946 2ccc D12C0000 		.4byte	0x2cd1
 9947 2cd0 00       		.byte	0
 9948 2cd1 09       		.uleb128 0x9
 9949 2cd2 04       		.byte	0x4
 9950 2cd3 7B100000 		.4byte	0x107b
 9951 2cd7 48       		.uleb128 0x48
 9952 2cd8 01       		.byte	0x1
 9953 2cd9 AB0D0000 		.4byte	.LASF328
 9954 2cdd 13       		.byte	0x13
 9955 2cde E4       		.byte	0xe4
 9956 2cdf 01       		.byte	0x1
 9957 2ce0 4C060000 		.4byte	0x64c
 9958 2ce4 01       		.byte	0x1
 9959 2ce5 F42C0000 		.4byte	0x2cf4
 9960 2ce9 0E       		.uleb128 0xe
 9961 2cea E0070000 		.4byte	0x7e0
 9962 2cee 0E       		.uleb128 0xe
 9963 2cef F42C0000 		.4byte	0x2cf4
 9964 2cf3 00       		.byte	0
 9965 2cf4 09       		.uleb128 0x9
 9966 2cf5 04       		.byte	0x4
 9967 2cf6 C6060000 		.4byte	0x6c6
 9968 2cfa 48       		.uleb128 0x48
 9969 2cfb 01       		.byte	0x1
 9970 2cfc C10D0000 		.4byte	.LASF329
 9971 2d00 11       		.byte	0x11
 9972 2d01 44       		.byte	0x44
 9973 2d02 01       		.byte	0x1
 9974 2d03 4C060000 		.4byte	0x64c
 9975 2d07 01       		.byte	0x1
 9976 2d08 1C2D0000 		.4byte	0x2d1c
 9977 2d0c 0E       		.uleb128 0xe
 9978 2d0d 7B100000 		.4byte	0x107b
 9979 2d11 0E       		.uleb128 0xe
 9980 2d12 FB0F0000 		.4byte	0xffb
 9981 2d16 0E       		.uleb128 0xe
 9982 2d17 D0040000 		.4byte	0x4d0
 9983 2d1b 00       		.byte	0
 9984 2d1c 47       		.uleb128 0x47
 9985 2d1d 01       		.byte	0x1
 9986 2d1e 670D0000 		.4byte	.LASF330
 9987 2d22 11       		.byte	0x11
 9988 2d23 43       		.byte	0x43
 9989 2d24 01       		.byte	0x1
 9990 2d25 01       		.byte	0x1
 9991 2d26 302D0000 		.4byte	0x2d30
 9992 2d2a 0E       		.uleb128 0xe
 9993 2d2b 7B100000 		.4byte	0x107b
 9994 2d2f 00       		.byte	0
 9995 2d30 48       		.uleb128 0x48
 9996 2d31 01       		.byte	0x1
 9997 2d32 AD090000 		.4byte	.LASF331
 9998 2d36 13       		.byte	0x13
ARM GAS  /tmp/ccPo84yg.s 			page 177


 9999 2d37 E8       		.byte	0xe8
 10000 2d38 01       		.byte	0x1
 10001 2d39 4C060000 		.4byte	0x64c
 10002 2d3d 01       		.byte	0x1
 10003 2d3e 4D2D0000 		.4byte	0x2d4d
 10004 2d42 0E       		.uleb128 0xe
 10005 2d43 E0070000 		.4byte	0x7e0
 10006 2d47 0E       		.uleb128 0xe
 10007 2d48 7B100000 		.4byte	0x107b
 10008 2d4c 00       		.byte	0
 10009 2d4d 48       		.uleb128 0x48
 10010 2d4e 01       		.byte	0x1
 10011 2d4f 3C070000 		.4byte	.LASF332
 10012 2d53 13       		.byte	0x13
 10013 2d54 E9       		.byte	0xe9
 10014 2d55 01       		.byte	0x1
 10015 2d56 4C060000 		.4byte	0x64c
 10016 2d5a 01       		.byte	0x1
 10017 2d5b 742D0000 		.4byte	0x2d74
 10018 2d5f 0E       		.uleb128 0xe
 10019 2d60 E0070000 		.4byte	0x7e0
 10020 2d64 0E       		.uleb128 0xe
 10021 2d65 FB0F0000 		.4byte	0xffb
 10022 2d69 0E       		.uleb128 0xe
 10023 2d6a 30000000 		.4byte	0x30
 10024 2d6e 0E       		.uleb128 0xe
 10025 2d6f BA040000 		.4byte	0x4ba
 10026 2d73 00       		.byte	0
 10027 2d74 48       		.uleb128 0x48
 10028 2d75 01       		.byte	0x1
 10029 2d76 DA020000 		.4byte	.LASF333
 10030 2d7a 13       		.byte	0x13
 10031 2d7b D2       		.byte	0xd2
 10032 2d7c 01       		.byte	0x1
 10033 2d7d E0070000 		.4byte	0x7e0
 10034 2d81 01       		.byte	0x1
 10035 2d82 962D0000 		.4byte	0x2d96
 10036 2d86 0E       		.uleb128 0xe
 10037 2d87 31070000 		.4byte	0x731
 10038 2d8b 0E       		.uleb128 0xe
 10039 2d8c BA040000 		.4byte	0x4ba
 10040 2d90 0E       		.uleb128 0xe
 10041 2d91 B9070000 		.4byte	0x7b9
 10042 2d95 00       		.byte	0
 10043 2d96 48       		.uleb128 0x48
 10044 2d97 01       		.byte	0x1
 10045 2d98 980B0000 		.4byte	.LASF334
 10046 2d9c 1B       		.byte	0x1b
 10047 2d9d 85       		.byte	0x85
 10048 2d9e 01       		.byte	0x1
 10049 2d9f 4C060000 		.4byte	0x64c
 10050 2da3 01       		.byte	0x1
 10051 2da4 B32D0000 		.4byte	0x2db3
 10052 2da8 0E       		.uleb128 0xe
 10053 2da9 8C100000 		.4byte	0x108c
 10054 2dad 0E       		.uleb128 0xe
 10055 2dae BA040000 		.4byte	0x4ba
ARM GAS  /tmp/ccPo84yg.s 			page 178


 10056 2db2 00       		.byte	0
 10057 2db3 48       		.uleb128 0x48
 10058 2db4 01       		.byte	0x1
 10059 2db5 DF0A0000 		.4byte	.LASF335
 10060 2db9 1B       		.byte	0x1b
 10061 2dba 8E       		.byte	0x8e
 10062 2dbb 01       		.byte	0x1
 10063 2dbc E6040000 		.4byte	0x4e6
 10064 2dc0 01       		.byte	0x1
 10065 2dc1 D02D0000 		.4byte	0x2dd0
 10066 2dc5 0E       		.uleb128 0xe
 10067 2dc6 8C100000 		.4byte	0x108c
 10068 2dca 0E       		.uleb128 0xe
 10069 2dcb E6040000 		.4byte	0x4e6
 10070 2dcf 00       		.byte	0
 10071 2dd0 47       		.uleb128 0x47
 10072 2dd1 01       		.byte	0x1
 10073 2dd2 A4060000 		.4byte	.LASF336
 10074 2dd6 1B       		.byte	0x1b
 10075 2dd7 91       		.byte	0x91
 10076 2dd8 01       		.byte	0x1
 10077 2dd9 01       		.byte	0x1
 10078 2dda E42D0000 		.4byte	0x2de4
 10079 2dde 0E       		.uleb128 0xe
 10080 2ddf 8C100000 		.4byte	0x108c
 10081 2de3 00       		.byte	0
 10082 2de4 48       		.uleb128 0x48
 10083 2de5 01       		.byte	0x1
 10084 2de6 5B0C0000 		.4byte	.LASF337
 10085 2dea 13       		.byte	0x13
 10086 2deb EC       		.byte	0xec
 10087 2dec 01       		.byte	0x1
 10088 2ded 4C060000 		.4byte	0x64c
 10089 2df1 01       		.byte	0x1
 10090 2df2 062E0000 		.4byte	0x2e06
 10091 2df6 0E       		.uleb128 0xe
 10092 2df7 E0070000 		.4byte	0x7e0
 10093 2dfb 0E       		.uleb128 0xe
 10094 2dfc BA040000 		.4byte	0x4ba
 10095 2e00 0E       		.uleb128 0xe
 10096 2e01 BA040000 		.4byte	0x4ba
 10097 2e05 00       		.byte	0
 10098 2e06 4A       		.uleb128 0x4a
 10099 2e07 01       		.byte	0x1
 10100 2e08 47050000 		.4byte	.LASF338
 10101 2e0c 19       		.byte	0x19
 10102 2e0d 62       		.byte	0x62
 10103 2e0e 01       		.byte	0x1
 10104 2e0f 4C060000 		.4byte	0x64c
 10105 2e13 01       		.byte	0x1
 10106 2e14 0E       		.uleb128 0xe
 10107 2e15 81100000 		.4byte	0x1081
 10108 2e19 0E       		.uleb128 0xe
 10109 2e1a B2020000 		.4byte	0x2b2
 10110 2e1e 0E       		.uleb128 0xe
 10111 2e1f BA040000 		.4byte	0x4ba
 10112 2e23 00       		.byte	0
ARM GAS  /tmp/ccPo84yg.s 			page 179


 10113 2e24 00       		.byte	0
 10114              		.section	.debug_abbrev,"",%progbits
 10115              	.Ldebug_abbrev0:
 10116 0000 01       		.uleb128 0x1
 10117 0001 11       		.uleb128 0x11
 10118 0002 01       		.byte	0x1
 10119 0003 25       		.uleb128 0x25
 10120 0004 0E       		.uleb128 0xe
 10121 0005 13       		.uleb128 0x13
 10122 0006 0B       		.uleb128 0xb
 10123 0007 03       		.uleb128 0x3
 10124 0008 0E       		.uleb128 0xe
 10125 0009 1B       		.uleb128 0x1b
 10126 000a 0E       		.uleb128 0xe
 10127 000b 55       		.uleb128 0x55
 10128 000c 06       		.uleb128 0x6
 10129 000d 11       		.uleb128 0x11
 10130 000e 01       		.uleb128 0x1
 10131 000f 52       		.uleb128 0x52
 10132 0010 01       		.uleb128 0x1
 10133 0011 10       		.uleb128 0x10
 10134 0012 06       		.uleb128 0x6
 10135 0013 00       		.byte	0
 10136 0014 00       		.byte	0
 10137 0015 02       		.uleb128 0x2
 10138 0016 24       		.uleb128 0x24
 10139 0017 00       		.byte	0
 10140 0018 0B       		.uleb128 0xb
 10141 0019 0B       		.uleb128 0xb
 10142 001a 3E       		.uleb128 0x3e
 10143 001b 0B       		.uleb128 0xb
 10144 001c 03       		.uleb128 0x3
 10145 001d 08       		.uleb128 0x8
 10146 001e 00       		.byte	0
 10147 001f 00       		.byte	0
 10148 0020 03       		.uleb128 0x3
 10149 0021 16       		.uleb128 0x16
 10150 0022 00       		.byte	0
 10151 0023 03       		.uleb128 0x3
 10152 0024 0E       		.uleb128 0xe
 10153 0025 3A       		.uleb128 0x3a
 10154 0026 0B       		.uleb128 0xb
 10155 0027 3B       		.uleb128 0x3b
 10156 0028 0B       		.uleb128 0xb
 10157 0029 49       		.uleb128 0x49
 10158 002a 13       		.uleb128 0x13
 10159 002b 00       		.byte	0
 10160 002c 00       		.byte	0
 10161 002d 04       		.uleb128 0x4
 10162 002e 24       		.uleb128 0x24
 10163 002f 00       		.byte	0
 10164 0030 0B       		.uleb128 0xb
 10165 0031 0B       		.uleb128 0xb
 10166 0032 3E       		.uleb128 0x3e
 10167 0033 0B       		.uleb128 0xb
 10168 0034 03       		.uleb128 0x3
 10169 0035 0E       		.uleb128 0xe
ARM GAS  /tmp/ccPo84yg.s 			page 180


 10170 0036 00       		.byte	0
 10171 0037 00       		.byte	0
 10172 0038 05       		.uleb128 0x5
 10173 0039 13       		.uleb128 0x13
 10174 003a 01       		.byte	0x1
 10175 003b 03       		.uleb128 0x3
 10176 003c 0E       		.uleb128 0xe
 10177 003d 0B       		.uleb128 0xb
 10178 003e 0B       		.uleb128 0xb
 10179 003f 3A       		.uleb128 0x3a
 10180 0040 0B       		.uleb128 0xb
 10181 0041 3B       		.uleb128 0x3b
 10182 0042 0B       		.uleb128 0xb
 10183 0043 01       		.uleb128 0x1
 10184 0044 13       		.uleb128 0x13
 10185 0045 00       		.byte	0
 10186 0046 00       		.byte	0
 10187 0047 06       		.uleb128 0x6
 10188 0048 0D       		.uleb128 0xd
 10189 0049 00       		.byte	0
 10190 004a 03       		.uleb128 0x3
 10191 004b 0E       		.uleb128 0xe
 10192 004c 3A       		.uleb128 0x3a
 10193 004d 0B       		.uleb128 0xb
 10194 004e 3B       		.uleb128 0x3b
 10195 004f 0B       		.uleb128 0xb
 10196 0050 49       		.uleb128 0x49
 10197 0051 13       		.uleb128 0x13
 10198 0052 38       		.uleb128 0x38
 10199 0053 0A       		.uleb128 0xa
 10200 0054 00       		.byte	0
 10201 0055 00       		.byte	0
 10202 0056 07       		.uleb128 0x7
 10203 0057 0D       		.uleb128 0xd
 10204 0058 00       		.byte	0
 10205 0059 03       		.uleb128 0x3
 10206 005a 08       		.uleb128 0x8
 10207 005b 3A       		.uleb128 0x3a
 10208 005c 0B       		.uleb128 0xb
 10209 005d 3B       		.uleb128 0x3b
 10210 005e 0B       		.uleb128 0xb
 10211 005f 49       		.uleb128 0x49
 10212 0060 13       		.uleb128 0x13
 10213 0061 38       		.uleb128 0x38
 10214 0062 0A       		.uleb128 0xa
 10215 0063 00       		.byte	0
 10216 0064 00       		.byte	0
 10217 0065 08       		.uleb128 0x8
 10218 0066 13       		.uleb128 0x13
 10219 0067 01       		.byte	0x1
 10220 0068 0B       		.uleb128 0xb
 10221 0069 0B       		.uleb128 0xb
 10222 006a 3A       		.uleb128 0x3a
 10223 006b 0B       		.uleb128 0xb
 10224 006c 3B       		.uleb128 0x3b
 10225 006d 0B       		.uleb128 0xb
 10226 006e 01       		.uleb128 0x1
ARM GAS  /tmp/ccPo84yg.s 			page 181


 10227 006f 13       		.uleb128 0x13
 10228 0070 00       		.byte	0
 10229 0071 00       		.byte	0
 10230 0072 09       		.uleb128 0x9
 10231 0073 0F       		.uleb128 0xf
 10232 0074 00       		.byte	0
 10233 0075 0B       		.uleb128 0xb
 10234 0076 0B       		.uleb128 0xb
 10235 0077 49       		.uleb128 0x49
 10236 0078 13       		.uleb128 0x13
 10237 0079 00       		.byte	0
 10238 007a 00       		.byte	0
 10239 007b 0A       		.uleb128 0xa
 10240 007c 0F       		.uleb128 0xf
 10241 007d 00       		.byte	0
 10242 007e 0B       		.uleb128 0xb
 10243 007f 0B       		.uleb128 0xb
 10244 0080 00       		.byte	0
 10245 0081 00       		.byte	0
 10246 0082 0B       		.uleb128 0xb
 10247 0083 13       		.uleb128 0x13
 10248 0084 01       		.byte	0x1
 10249 0085 03       		.uleb128 0x3
 10250 0086 0E       		.uleb128 0xe
 10251 0087 0B       		.uleb128 0xb
 10252 0088 0B       		.uleb128 0xb
 10253 0089 3A       		.uleb128 0x3a
 10254 008a 0B       		.uleb128 0xb
 10255 008b 3B       		.uleb128 0x3b
 10256 008c 05       		.uleb128 0x5
 10257 008d 01       		.uleb128 0x1
 10258 008e 13       		.uleb128 0x13
 10259 008f 00       		.byte	0
 10260 0090 00       		.byte	0
 10261 0091 0C       		.uleb128 0xc
 10262 0092 0D       		.uleb128 0xd
 10263 0093 00       		.byte	0
 10264 0094 03       		.uleb128 0x3
 10265 0095 08       		.uleb128 0x8
 10266 0096 3A       		.uleb128 0x3a
 10267 0097 0B       		.uleb128 0xb
 10268 0098 3B       		.uleb128 0x3b
 10269 0099 05       		.uleb128 0x5
 10270 009a 49       		.uleb128 0x49
 10271 009b 13       		.uleb128 0x13
 10272 009c 38       		.uleb128 0x38
 10273 009d 0A       		.uleb128 0xa
 10274 009e 00       		.byte	0
 10275 009f 00       		.byte	0
 10276 00a0 0D       		.uleb128 0xd
 10277 00a1 15       		.uleb128 0x15
 10278 00a2 01       		.byte	0x1
 10279 00a3 27       		.uleb128 0x27
 10280 00a4 0C       		.uleb128 0xc
 10281 00a5 01       		.uleb128 0x1
 10282 00a6 13       		.uleb128 0x13
 10283 00a7 00       		.byte	0
ARM GAS  /tmp/ccPo84yg.s 			page 182


 10284 00a8 00       		.byte	0
 10285 00a9 0E       		.uleb128 0xe
 10286 00aa 05       		.uleb128 0x5
 10287 00ab 00       		.byte	0
 10288 00ac 49       		.uleb128 0x49
 10289 00ad 13       		.uleb128 0x13
 10290 00ae 00       		.byte	0
 10291 00af 00       		.byte	0
 10292 00b0 0F       		.uleb128 0xf
 10293 00b1 35       		.uleb128 0x35
 10294 00b2 00       		.byte	0
 10295 00b3 49       		.uleb128 0x49
 10296 00b4 13       		.uleb128 0x13
 10297 00b5 00       		.byte	0
 10298 00b6 00       		.byte	0
 10299 00b7 10       		.uleb128 0x10
 10300 00b8 17       		.uleb128 0x17
 10301 00b9 01       		.byte	0x1
 10302 00ba 0B       		.uleb128 0xb
 10303 00bb 0B       		.uleb128 0xb
 10304 00bc 3A       		.uleb128 0x3a
 10305 00bd 0B       		.uleb128 0xb
 10306 00be 3B       		.uleb128 0x3b
 10307 00bf 0B       		.uleb128 0xb
 10308 00c0 01       		.uleb128 0x1
 10309 00c1 13       		.uleb128 0x13
 10310 00c2 00       		.byte	0
 10311 00c3 00       		.byte	0
 10312 00c4 11       		.uleb128 0x11
 10313 00c5 0D       		.uleb128 0xd
 10314 00c6 00       		.byte	0
 10315 00c7 03       		.uleb128 0x3
 10316 00c8 0E       		.uleb128 0xe
 10317 00c9 3A       		.uleb128 0x3a
 10318 00ca 0B       		.uleb128 0xb
 10319 00cb 3B       		.uleb128 0x3b
 10320 00cc 0B       		.uleb128 0xb
 10321 00cd 49       		.uleb128 0x49
 10322 00ce 13       		.uleb128 0x13
 10323 00cf 00       		.byte	0
 10324 00d0 00       		.byte	0
 10325 00d1 12       		.uleb128 0x12
 10326 00d2 26       		.uleb128 0x26
 10327 00d3 00       		.byte	0
 10328 00d4 49       		.uleb128 0x49
 10329 00d5 13       		.uleb128 0x13
 10330 00d6 00       		.byte	0
 10331 00d7 00       		.byte	0
 10332 00d8 13       		.uleb128 0x13
 10333 00d9 01       		.uleb128 0x1
 10334 00da 01       		.byte	0x1
 10335 00db 49       		.uleb128 0x49
 10336 00dc 13       		.uleb128 0x13
 10337 00dd 01       		.uleb128 0x1
 10338 00de 13       		.uleb128 0x13
 10339 00df 00       		.byte	0
 10340 00e0 00       		.byte	0
ARM GAS  /tmp/ccPo84yg.s 			page 183


 10341 00e1 14       		.uleb128 0x14
 10342 00e2 21       		.uleb128 0x21
 10343 00e3 00       		.byte	0
 10344 00e4 49       		.uleb128 0x49
 10345 00e5 13       		.uleb128 0x13
 10346 00e6 2F       		.uleb128 0x2f
 10347 00e7 0B       		.uleb128 0xb
 10348 00e8 00       		.byte	0
 10349 00e9 00       		.byte	0
 10350 00ea 15       		.uleb128 0x15
 10351 00eb 0D       		.uleb128 0xd
 10352 00ec 00       		.byte	0
 10353 00ed 03       		.uleb128 0x3
 10354 00ee 0E       		.uleb128 0xe
 10355 00ef 3A       		.uleb128 0x3a
 10356 00f0 0B       		.uleb128 0xb
 10357 00f1 3B       		.uleb128 0x3b
 10358 00f2 05       		.uleb128 0x5
 10359 00f3 49       		.uleb128 0x49
 10360 00f4 13       		.uleb128 0x13
 10361 00f5 38       		.uleb128 0x38
 10362 00f6 0A       		.uleb128 0xa
 10363 00f7 00       		.byte	0
 10364 00f8 00       		.byte	0
 10365 00f9 16       		.uleb128 0x16
 10366 00fa 16       		.uleb128 0x16
 10367 00fb 00       		.byte	0
 10368 00fc 03       		.uleb128 0x3
 10369 00fd 0E       		.uleb128 0xe
 10370 00fe 3A       		.uleb128 0x3a
 10371 00ff 0B       		.uleb128 0xb
 10372 0100 3B       		.uleb128 0x3b
 10373 0101 05       		.uleb128 0x5
 10374 0102 49       		.uleb128 0x49
 10375 0103 13       		.uleb128 0x13
 10376 0104 00       		.byte	0
 10377 0105 00       		.byte	0
 10378 0106 17       		.uleb128 0x17
 10379 0107 04       		.uleb128 0x4
 10380 0108 01       		.byte	0x1
 10381 0109 03       		.uleb128 0x3
 10382 010a 0E       		.uleb128 0xe
 10383 010b 0B       		.uleb128 0xb
 10384 010c 0B       		.uleb128 0xb
 10385 010d 3A       		.uleb128 0x3a
 10386 010e 0B       		.uleb128 0xb
 10387 010f 3B       		.uleb128 0x3b
 10388 0110 0B       		.uleb128 0xb
 10389 0111 01       		.uleb128 0x1
 10390 0112 13       		.uleb128 0x13
 10391 0113 00       		.byte	0
 10392 0114 00       		.byte	0
 10393 0115 18       		.uleb128 0x18
 10394 0116 28       		.uleb128 0x28
 10395 0117 00       		.byte	0
 10396 0118 03       		.uleb128 0x3
 10397 0119 0E       		.uleb128 0xe
ARM GAS  /tmp/ccPo84yg.s 			page 184


 10398 011a 1C       		.uleb128 0x1c
 10399 011b 0D       		.uleb128 0xd
 10400 011c 00       		.byte	0
 10401 011d 00       		.byte	0
 10402 011e 19       		.uleb128 0x19
 10403 011f 0D       		.uleb128 0xd
 10404 0120 00       		.byte	0
 10405 0121 03       		.uleb128 0x3
 10406 0122 08       		.uleb128 0x8
 10407 0123 3A       		.uleb128 0x3a
 10408 0124 0B       		.uleb128 0xb
 10409 0125 3B       		.uleb128 0x3b
 10410 0126 0B       		.uleb128 0xb
 10411 0127 49       		.uleb128 0x49
 10412 0128 13       		.uleb128 0x13
 10413 0129 00       		.byte	0
 10414 012a 00       		.byte	0
 10415 012b 1A       		.uleb128 0x1a
 10416 012c 15       		.uleb128 0x15
 10417 012d 01       		.byte	0x1
 10418 012e 27       		.uleb128 0x27
 10419 012f 0C       		.uleb128 0xc
 10420 0130 49       		.uleb128 0x49
 10421 0131 13       		.uleb128 0x13
 10422 0132 01       		.uleb128 0x1
 10423 0133 13       		.uleb128 0x13
 10424 0134 00       		.byte	0
 10425 0135 00       		.byte	0
 10426 0136 1B       		.uleb128 0x1b
 10427 0137 13       		.uleb128 0x13
 10428 0138 00       		.byte	0
 10429 0139 03       		.uleb128 0x3
 10430 013a 0E       		.uleb128 0xe
 10431 013b 3C       		.uleb128 0x3c
 10432 013c 0C       		.uleb128 0xc
 10433 013d 00       		.byte	0
 10434 013e 00       		.byte	0
 10435 013f 1C       		.uleb128 0x1c
 10436 0140 26       		.uleb128 0x26
 10437 0141 00       		.byte	0
 10438 0142 00       		.byte	0
 10439 0143 00       		.byte	0
 10440 0144 1D       		.uleb128 0x1d
 10441 0145 2E       		.uleb128 0x2e
 10442 0146 01       		.byte	0x1
 10443 0147 03       		.uleb128 0x3
 10444 0148 0E       		.uleb128 0xe
 10445 0149 3A       		.uleb128 0x3a
 10446 014a 0B       		.uleb128 0xb
 10447 014b 3B       		.uleb128 0x3b
 10448 014c 0B       		.uleb128 0xb
 10449 014d 27       		.uleb128 0x27
 10450 014e 0C       		.uleb128 0xc
 10451 014f 49       		.uleb128 0x49
 10452 0150 13       		.uleb128 0x13
 10453 0151 20       		.uleb128 0x20
 10454 0152 0B       		.uleb128 0xb
ARM GAS  /tmp/ccPo84yg.s 			page 185


 10455 0153 01       		.uleb128 0x1
 10456 0154 13       		.uleb128 0x13
 10457 0155 00       		.byte	0
 10458 0156 00       		.byte	0
 10459 0157 1E       		.uleb128 0x1e
 10460 0158 05       		.uleb128 0x5
 10461 0159 00       		.byte	0
 10462 015a 03       		.uleb128 0x3
 10463 015b 08       		.uleb128 0x8
 10464 015c 3A       		.uleb128 0x3a
 10465 015d 0B       		.uleb128 0xb
 10466 015e 3B       		.uleb128 0x3b
 10467 015f 0B       		.uleb128 0xb
 10468 0160 49       		.uleb128 0x49
 10469 0161 13       		.uleb128 0x13
 10470 0162 00       		.byte	0
 10471 0163 00       		.byte	0
 10472 0164 1F       		.uleb128 0x1f
 10473 0165 34       		.uleb128 0x34
 10474 0166 00       		.byte	0
 10475 0167 03       		.uleb128 0x3
 10476 0168 0E       		.uleb128 0xe
 10477 0169 3A       		.uleb128 0x3a
 10478 016a 0B       		.uleb128 0xb
 10479 016b 3B       		.uleb128 0x3b
 10480 016c 0B       		.uleb128 0xb
 10481 016d 49       		.uleb128 0x49
 10482 016e 13       		.uleb128 0x13
 10483 016f 00       		.byte	0
 10484 0170 00       		.byte	0
 10485 0171 20       		.uleb128 0x20
 10486 0172 2E       		.uleb128 0x2e
 10487 0173 01       		.byte	0x1
 10488 0174 03       		.uleb128 0x3
 10489 0175 0E       		.uleb128 0xe
 10490 0176 3A       		.uleb128 0x3a
 10491 0177 0B       		.uleb128 0xb
 10492 0178 3B       		.uleb128 0x3b
 10493 0179 0B       		.uleb128 0xb
 10494 017a 27       		.uleb128 0x27
 10495 017b 0C       		.uleb128 0xc
 10496 017c 49       		.uleb128 0x49
 10497 017d 13       		.uleb128 0x13
 10498 017e 11       		.uleb128 0x11
 10499 017f 01       		.uleb128 0x1
 10500 0180 12       		.uleb128 0x12
 10501 0181 01       		.uleb128 0x1
 10502 0182 40       		.uleb128 0x40
 10503 0183 06       		.uleb128 0x6
 10504 0184 9742     		.uleb128 0x2117
 10505 0186 0C       		.uleb128 0xc
 10506 0187 01       		.uleb128 0x1
 10507 0188 13       		.uleb128 0x13
 10508 0189 00       		.byte	0
 10509 018a 00       		.byte	0
 10510 018b 21       		.uleb128 0x21
 10511 018c 05       		.uleb128 0x5
ARM GAS  /tmp/ccPo84yg.s 			page 186


 10512 018d 00       		.byte	0
 10513 018e 03       		.uleb128 0x3
 10514 018f 0E       		.uleb128 0xe
 10515 0190 3A       		.uleb128 0x3a
 10516 0191 0B       		.uleb128 0xb
 10517 0192 3B       		.uleb128 0x3b
 10518 0193 0B       		.uleb128 0xb
 10519 0194 49       		.uleb128 0x49
 10520 0195 13       		.uleb128 0x13
 10521 0196 02       		.uleb128 0x2
 10522 0197 06       		.uleb128 0x6
 10523 0198 00       		.byte	0
 10524 0199 00       		.byte	0
 10525 019a 22       		.uleb128 0x22
 10526 019b 34       		.uleb128 0x34
 10527 019c 00       		.byte	0
 10528 019d 03       		.uleb128 0x3
 10529 019e 08       		.uleb128 0x8
 10530 019f 3A       		.uleb128 0x3a
 10531 01a0 0B       		.uleb128 0xb
 10532 01a1 3B       		.uleb128 0x3b
 10533 01a2 0B       		.uleb128 0xb
 10534 01a3 49       		.uleb128 0x49
 10535 01a4 13       		.uleb128 0x13
 10536 01a5 02       		.uleb128 0x2
 10537 01a6 06       		.uleb128 0x6
 10538 01a7 00       		.byte	0
 10539 01a8 00       		.byte	0
 10540 01a9 23       		.uleb128 0x23
 10541 01aa 2E       		.uleb128 0x2e
 10542 01ab 01       		.byte	0x1
 10543 01ac 03       		.uleb128 0x3
 10544 01ad 0E       		.uleb128 0xe
 10545 01ae 3A       		.uleb128 0x3a
 10546 01af 0B       		.uleb128 0xb
 10547 01b0 3B       		.uleb128 0x3b
 10548 01b1 05       		.uleb128 0x5
 10549 01b2 27       		.uleb128 0x27
 10550 01b3 0C       		.uleb128 0xc
 10551 01b4 11       		.uleb128 0x11
 10552 01b5 01       		.uleb128 0x1
 10553 01b6 12       		.uleb128 0x12
 10554 01b7 01       		.uleb128 0x1
 10555 01b8 40       		.uleb128 0x40
 10556 01b9 06       		.uleb128 0x6
 10557 01ba 9742     		.uleb128 0x2117
 10558 01bc 0C       		.uleb128 0xc
 10559 01bd 01       		.uleb128 0x1
 10560 01be 13       		.uleb128 0x13
 10561 01bf 00       		.byte	0
 10562 01c0 00       		.byte	0
 10563 01c1 24       		.uleb128 0x24
 10564 01c2 05       		.uleb128 0x5
 10565 01c3 00       		.byte	0
 10566 01c4 03       		.uleb128 0x3
 10567 01c5 08       		.uleb128 0x8
 10568 01c6 3A       		.uleb128 0x3a
ARM GAS  /tmp/ccPo84yg.s 			page 187


 10569 01c7 0B       		.uleb128 0xb
 10570 01c8 3B       		.uleb128 0x3b
 10571 01c9 05       		.uleb128 0x5
 10572 01ca 49       		.uleb128 0x49
 10573 01cb 13       		.uleb128 0x13
 10574 01cc 02       		.uleb128 0x2
 10575 01cd 06       		.uleb128 0x6
 10576 01ce 00       		.byte	0
 10577 01cf 00       		.byte	0
 10578 01d0 25       		.uleb128 0x25
 10579 01d1 34       		.uleb128 0x34
 10580 01d2 00       		.byte	0
 10581 01d3 03       		.uleb128 0x3
 10582 01d4 0E       		.uleb128 0xe
 10583 01d5 3A       		.uleb128 0x3a
 10584 01d6 0B       		.uleb128 0xb
 10585 01d7 3B       		.uleb128 0x3b
 10586 01d8 05       		.uleb128 0x5
 10587 01d9 49       		.uleb128 0x49
 10588 01da 13       		.uleb128 0x13
 10589 01db 02       		.uleb128 0x2
 10590 01dc 06       		.uleb128 0x6
 10591 01dd 00       		.byte	0
 10592 01de 00       		.byte	0
 10593 01df 26       		.uleb128 0x26
 10594 01e0 898201   		.uleb128 0x4109
 10595 01e3 00       		.byte	0
 10596 01e4 11       		.uleb128 0x11
 10597 01e5 01       		.uleb128 0x1
 10598 01e6 31       		.uleb128 0x31
 10599 01e7 13       		.uleb128 0x13
 10600 01e8 00       		.byte	0
 10601 01e9 00       		.byte	0
 10602 01ea 27       		.uleb128 0x27
 10603 01eb 898201   		.uleb128 0x4109
 10604 01ee 00       		.byte	0
 10605 01ef 11       		.uleb128 0x11
 10606 01f0 01       		.uleb128 0x1
 10607 01f1 9542     		.uleb128 0x2115
 10608 01f3 0C       		.uleb128 0xc
 10609 01f4 31       		.uleb128 0x31
 10610 01f5 13       		.uleb128 0x13
 10611 01f6 00       		.byte	0
 10612 01f7 00       		.byte	0
 10613 01f8 28       		.uleb128 0x28
 10614 01f9 05       		.uleb128 0x5
 10615 01fa 00       		.byte	0
 10616 01fb 03       		.uleb128 0x3
 10617 01fc 0E       		.uleb128 0xe
 10618 01fd 3A       		.uleb128 0x3a
 10619 01fe 0B       		.uleb128 0xb
 10620 01ff 3B       		.uleb128 0x3b
 10621 0200 05       		.uleb128 0x5
 10622 0201 49       		.uleb128 0x49
 10623 0202 13       		.uleb128 0x13
 10624 0203 02       		.uleb128 0x2
 10625 0204 06       		.uleb128 0x6
ARM GAS  /tmp/ccPo84yg.s 			page 188


 10626 0205 00       		.byte	0
 10627 0206 00       		.byte	0
 10628 0207 29       		.uleb128 0x29
 10629 0208 34       		.uleb128 0x34
 10630 0209 00       		.byte	0
 10631 020a 03       		.uleb128 0x3
 10632 020b 08       		.uleb128 0x8
 10633 020c 3A       		.uleb128 0x3a
 10634 020d 0B       		.uleb128 0xb
 10635 020e 3B       		.uleb128 0x3b
 10636 020f 05       		.uleb128 0x5
 10637 0210 49       		.uleb128 0x49
 10638 0211 13       		.uleb128 0x13
 10639 0212 02       		.uleb128 0x2
 10640 0213 06       		.uleb128 0x6
 10641 0214 00       		.byte	0
 10642 0215 00       		.byte	0
 10643 0216 2A       		.uleb128 0x2a
 10644 0217 34       		.uleb128 0x34
 10645 0218 00       		.byte	0
 10646 0219 03       		.uleb128 0x3
 10647 021a 0E       		.uleb128 0xe
 10648 021b 3A       		.uleb128 0x3a
 10649 021c 0B       		.uleb128 0xb
 10650 021d 3B       		.uleb128 0x3b
 10651 021e 05       		.uleb128 0x5
 10652 021f 49       		.uleb128 0x49
 10653 0220 13       		.uleb128 0x13
 10654 0221 02       		.uleb128 0x2
 10655 0222 0A       		.uleb128 0xa
 10656 0223 00       		.byte	0
 10657 0224 00       		.byte	0
 10658 0225 2B       		.uleb128 0x2b
 10659 0226 0A       		.uleb128 0xa
 10660 0227 00       		.byte	0
 10661 0228 03       		.uleb128 0x3
 10662 0229 0E       		.uleb128 0xe
 10663 022a 3A       		.uleb128 0x3a
 10664 022b 0B       		.uleb128 0xb
 10665 022c 3B       		.uleb128 0x3b
 10666 022d 05       		.uleb128 0x5
 10667 022e 00       		.byte	0
 10668 022f 00       		.byte	0
 10669 0230 2C       		.uleb128 0x2c
 10670 0231 1D       		.uleb128 0x1d
 10671 0232 01       		.byte	0x1
 10672 0233 31       		.uleb128 0x31
 10673 0234 13       		.uleb128 0x13
 10674 0235 11       		.uleb128 0x11
 10675 0236 01       		.uleb128 0x1
 10676 0237 12       		.uleb128 0x12
 10677 0238 01       		.uleb128 0x1
 10678 0239 58       		.uleb128 0x58
 10679 023a 0B       		.uleb128 0xb
 10680 023b 59       		.uleb128 0x59
 10681 023c 05       		.uleb128 0x5
 10682 023d 01       		.uleb128 0x1
ARM GAS  /tmp/ccPo84yg.s 			page 189


 10683 023e 13       		.uleb128 0x13
 10684 023f 00       		.byte	0
 10685 0240 00       		.byte	0
 10686 0241 2D       		.uleb128 0x2d
 10687 0242 05       		.uleb128 0x5
 10688 0243 00       		.byte	0
 10689 0244 31       		.uleb128 0x31
 10690 0245 13       		.uleb128 0x13
 10691 0246 02       		.uleb128 0x2
 10692 0247 06       		.uleb128 0x6
 10693 0248 00       		.byte	0
 10694 0249 00       		.byte	0
 10695 024a 2E       		.uleb128 0x2e
 10696 024b 0B       		.uleb128 0xb
 10697 024c 01       		.byte	0x1
 10698 024d 11       		.uleb128 0x11
 10699 024e 01       		.uleb128 0x1
 10700 024f 12       		.uleb128 0x12
 10701 0250 01       		.uleb128 0x1
 10702 0251 00       		.byte	0
 10703 0252 00       		.byte	0
 10704 0253 2F       		.uleb128 0x2f
 10705 0254 34       		.uleb128 0x34
 10706 0255 00       		.byte	0
 10707 0256 31       		.uleb128 0x31
 10708 0257 13       		.uleb128 0x13
 10709 0258 02       		.uleb128 0x2
 10710 0259 06       		.uleb128 0x6
 10711 025a 00       		.byte	0
 10712 025b 00       		.byte	0
 10713 025c 30       		.uleb128 0x30
 10714 025d 0B       		.uleb128 0xb
 10715 025e 01       		.byte	0x1
 10716 025f 55       		.uleb128 0x55
 10717 0260 06       		.uleb128 0x6
 10718 0261 01       		.uleb128 0x1
 10719 0262 13       		.uleb128 0x13
 10720 0263 00       		.byte	0
 10721 0264 00       		.byte	0
 10722 0265 31       		.uleb128 0x31
 10723 0266 898201   		.uleb128 0x4109
 10724 0269 01       		.byte	0x1
 10725 026a 11       		.uleb128 0x11
 10726 026b 01       		.uleb128 0x1
 10727 026c 31       		.uleb128 0x31
 10728 026d 13       		.uleb128 0x13
 10729 026e 00       		.byte	0
 10730 026f 00       		.byte	0
 10731 0270 32       		.uleb128 0x32
 10732 0271 8A8201   		.uleb128 0x410a
 10733 0274 00       		.byte	0
 10734 0275 02       		.uleb128 0x2
 10735 0276 0A       		.uleb128 0xa
 10736 0277 9142     		.uleb128 0x2111
 10737 0279 0A       		.uleb128 0xa
 10738 027a 00       		.byte	0
 10739 027b 00       		.byte	0
ARM GAS  /tmp/ccPo84yg.s 			page 190


 10740 027c 33       		.uleb128 0x33
 10741 027d 2E       		.uleb128 0x2e
 10742 027e 01       		.byte	0x1
 10743 027f 03       		.uleb128 0x3
 10744 0280 0E       		.uleb128 0xe
 10745 0281 3A       		.uleb128 0x3a
 10746 0282 0B       		.uleb128 0xb
 10747 0283 3B       		.uleb128 0x3b
 10748 0284 05       		.uleb128 0x5
 10749 0285 27       		.uleb128 0x27
 10750 0286 0C       		.uleb128 0xc
 10751 0287 49       		.uleb128 0x49
 10752 0288 13       		.uleb128 0x13
 10753 0289 11       		.uleb128 0x11
 10754 028a 01       		.uleb128 0x1
 10755 028b 12       		.uleb128 0x12
 10756 028c 01       		.uleb128 0x1
 10757 028d 40       		.uleb128 0x40
 10758 028e 06       		.uleb128 0x6
 10759 028f 9742     		.uleb128 0x2117
 10760 0291 0C       		.uleb128 0xc
 10761 0292 01       		.uleb128 0x1
 10762 0293 13       		.uleb128 0x13
 10763 0294 00       		.byte	0
 10764 0295 00       		.byte	0
 10765 0296 34       		.uleb128 0x34
 10766 0297 05       		.uleb128 0x5
 10767 0298 00       		.byte	0
 10768 0299 03       		.uleb128 0x3
 10769 029a 0E       		.uleb128 0xe
 10770 029b 3A       		.uleb128 0x3a
 10771 029c 0B       		.uleb128 0xb
 10772 029d 3B       		.uleb128 0x3b
 10773 029e 05       		.uleb128 0x5
 10774 029f 49       		.uleb128 0x49
 10775 02a0 13       		.uleb128 0x13
 10776 02a1 02       		.uleb128 0x2
 10777 02a2 0A       		.uleb128 0xa
 10778 02a3 00       		.byte	0
 10779 02a4 00       		.byte	0
 10780 02a5 35       		.uleb128 0x35
 10781 02a6 0B       		.uleb128 0xb
 10782 02a7 01       		.byte	0x1
 10783 02a8 55       		.uleb128 0x55
 10784 02a9 06       		.uleb128 0x6
 10785 02aa 00       		.byte	0
 10786 02ab 00       		.byte	0
 10787 02ac 36       		.uleb128 0x36
 10788 02ad 1D       		.uleb128 0x1d
 10789 02ae 01       		.byte	0x1
 10790 02af 31       		.uleb128 0x31
 10791 02b0 13       		.uleb128 0x13
 10792 02b1 52       		.uleb128 0x52
 10793 02b2 01       		.uleb128 0x1
 10794 02b3 55       		.uleb128 0x55
 10795 02b4 06       		.uleb128 0x6
 10796 02b5 58       		.uleb128 0x58
ARM GAS  /tmp/ccPo84yg.s 			page 191


 10797 02b6 0B       		.uleb128 0xb
 10798 02b7 59       		.uleb128 0x59
 10799 02b8 05       		.uleb128 0x5
 10800 02b9 00       		.byte	0
 10801 02ba 00       		.byte	0
 10802 02bb 37       		.uleb128 0x37
 10803 02bc 34       		.uleb128 0x34
 10804 02bd 00       		.byte	0
 10805 02be 03       		.uleb128 0x3
 10806 02bf 08       		.uleb128 0x8
 10807 02c0 3A       		.uleb128 0x3a
 10808 02c1 0B       		.uleb128 0xb
 10809 02c2 3B       		.uleb128 0x3b
 10810 02c3 05       		.uleb128 0x5
 10811 02c4 49       		.uleb128 0x49
 10812 02c5 13       		.uleb128 0x13
 10813 02c6 02       		.uleb128 0x2
 10814 02c7 0A       		.uleb128 0xa
 10815 02c8 00       		.byte	0
 10816 02c9 00       		.byte	0
 10817 02ca 38       		.uleb128 0x38
 10818 02cb 1D       		.uleb128 0x1d
 10819 02cc 01       		.byte	0x1
 10820 02cd 31       		.uleb128 0x31
 10821 02ce 13       		.uleb128 0x13
 10822 02cf 52       		.uleb128 0x52
 10823 02d0 01       		.uleb128 0x1
 10824 02d1 55       		.uleb128 0x55
 10825 02d2 06       		.uleb128 0x6
 10826 02d3 58       		.uleb128 0x58
 10827 02d4 0B       		.uleb128 0xb
 10828 02d5 59       		.uleb128 0x59
 10829 02d6 05       		.uleb128 0x5
 10830 02d7 01       		.uleb128 0x1
 10831 02d8 13       		.uleb128 0x13
 10832 02d9 00       		.byte	0
 10833 02da 00       		.byte	0
 10834 02db 39       		.uleb128 0x39
 10835 02dc 898201   		.uleb128 0x4109
 10836 02df 01       		.byte	0x1
 10837 02e0 11       		.uleb128 0x11
 10838 02e1 01       		.uleb128 0x1
 10839 02e2 31       		.uleb128 0x31
 10840 02e3 13       		.uleb128 0x13
 10841 02e4 01       		.uleb128 0x1
 10842 02e5 13       		.uleb128 0x13
 10843 02e6 00       		.byte	0
 10844 02e7 00       		.byte	0
 10845 02e8 3A       		.uleb128 0x3a
 10846 02e9 2E       		.uleb128 0x2e
 10847 02ea 00       		.byte	0
 10848 02eb 3F       		.uleb128 0x3f
 10849 02ec 0C       		.uleb128 0xc
 10850 02ed 03       		.uleb128 0x3
 10851 02ee 0E       		.uleb128 0xe
 10852 02ef 3A       		.uleb128 0x3a
 10853 02f0 0B       		.uleb128 0xb
ARM GAS  /tmp/ccPo84yg.s 			page 192


 10854 02f1 3B       		.uleb128 0x3b
 10855 02f2 0B       		.uleb128 0xb
 10856 02f3 27       		.uleb128 0x27
 10857 02f4 0C       		.uleb128 0xc
 10858 02f5 11       		.uleb128 0x11
 10859 02f6 01       		.uleb128 0x1
 10860 02f7 12       		.uleb128 0x12
 10861 02f8 01       		.uleb128 0x1
 10862 02f9 40       		.uleb128 0x40
 10863 02fa 0A       		.uleb128 0xa
 10864 02fb 9742     		.uleb128 0x2117
 10865 02fd 0C       		.uleb128 0xc
 10866 02fe 00       		.byte	0
 10867 02ff 00       		.byte	0
 10868 0300 3B       		.uleb128 0x3b
 10869 0301 2E       		.uleb128 0x2e
 10870 0302 01       		.byte	0x1
 10871 0303 3F       		.uleb128 0x3f
 10872 0304 0C       		.uleb128 0xc
 10873 0305 03       		.uleb128 0x3
 10874 0306 0E       		.uleb128 0xe
 10875 0307 3A       		.uleb128 0x3a
 10876 0308 0B       		.uleb128 0xb
 10877 0309 3B       		.uleb128 0x3b
 10878 030a 05       		.uleb128 0x5
 10879 030b 27       		.uleb128 0x27
 10880 030c 0C       		.uleb128 0xc
 10881 030d 49       		.uleb128 0x49
 10882 030e 13       		.uleb128 0x13
 10883 030f 11       		.uleb128 0x11
 10884 0310 01       		.uleb128 0x1
 10885 0311 12       		.uleb128 0x12
 10886 0312 01       		.uleb128 0x1
 10887 0313 40       		.uleb128 0x40
 10888 0314 06       		.uleb128 0x6
 10889 0315 9742     		.uleb128 0x2117
 10890 0317 0C       		.uleb128 0xc
 10891 0318 01       		.uleb128 0x1
 10892 0319 13       		.uleb128 0x13
 10893 031a 00       		.byte	0
 10894 031b 00       		.byte	0
 10895 031c 3C       		.uleb128 0x3c
 10896 031d 2E       		.uleb128 0x2e
 10897 031e 01       		.byte	0x1
 10898 031f 03       		.uleb128 0x3
 10899 0320 0E       		.uleb128 0xe
 10900 0321 3A       		.uleb128 0x3a
 10901 0322 0B       		.uleb128 0xb
 10902 0323 3B       		.uleb128 0x3b
 10903 0324 05       		.uleb128 0x5
 10904 0325 27       		.uleb128 0x27
 10905 0326 0C       		.uleb128 0xc
 10906 0327 20       		.uleb128 0x20
 10907 0328 0B       		.uleb128 0xb
 10908 0329 01       		.uleb128 0x1
 10909 032a 13       		.uleb128 0x13
 10910 032b 00       		.byte	0
ARM GAS  /tmp/ccPo84yg.s 			page 193


 10911 032c 00       		.byte	0
 10912 032d 3D       		.uleb128 0x3d
 10913 032e 05       		.uleb128 0x5
 10914 032f 00       		.byte	0
 10915 0330 03       		.uleb128 0x3
 10916 0331 0E       		.uleb128 0xe
 10917 0332 3A       		.uleb128 0x3a
 10918 0333 0B       		.uleb128 0xb
 10919 0334 3B       		.uleb128 0x3b
 10920 0335 05       		.uleb128 0x5
 10921 0336 49       		.uleb128 0x49
 10922 0337 13       		.uleb128 0x13
 10923 0338 00       		.byte	0
 10924 0339 00       		.byte	0
 10925 033a 3E       		.uleb128 0x3e
 10926 033b 34       		.uleb128 0x34
 10927 033c 00       		.byte	0
 10928 033d 03       		.uleb128 0x3
 10929 033e 0E       		.uleb128 0xe
 10930 033f 3A       		.uleb128 0x3a
 10931 0340 0B       		.uleb128 0xb
 10932 0341 3B       		.uleb128 0x3b
 10933 0342 05       		.uleb128 0x5
 10934 0343 49       		.uleb128 0x49
 10935 0344 13       		.uleb128 0x13
 10936 0345 00       		.byte	0
 10937 0346 00       		.byte	0
 10938 0347 3F       		.uleb128 0x3f
 10939 0348 0B       		.uleb128 0xb
 10940 0349 01       		.byte	0x1
 10941 034a 11       		.uleb128 0x11
 10942 034b 01       		.uleb128 0x1
 10943 034c 12       		.uleb128 0x12
 10944 034d 01       		.uleb128 0x1
 10945 034e 01       		.uleb128 0x1
 10946 034f 13       		.uleb128 0x13
 10947 0350 00       		.byte	0
 10948 0351 00       		.byte	0
 10949 0352 40       		.uleb128 0x40
 10950 0353 05       		.uleb128 0x5
 10951 0354 00       		.byte	0
 10952 0355 03       		.uleb128 0x3
 10953 0356 08       		.uleb128 0x8
 10954 0357 3A       		.uleb128 0x3a
 10955 0358 0B       		.uleb128 0xb
 10956 0359 3B       		.uleb128 0x3b
 10957 035a 05       		.uleb128 0x5
 10958 035b 49       		.uleb128 0x49
 10959 035c 13       		.uleb128 0x13
 10960 035d 02       		.uleb128 0x2
 10961 035e 0A       		.uleb128 0xa
 10962 035f 00       		.byte	0
 10963 0360 00       		.byte	0
 10964 0361 41       		.uleb128 0x41
 10965 0362 2E       		.uleb128 0x2e
 10966 0363 01       		.byte	0x1
 10967 0364 3F       		.uleb128 0x3f
ARM GAS  /tmp/ccPo84yg.s 			page 194


 10968 0365 0C       		.uleb128 0xc
 10969 0366 03       		.uleb128 0x3
 10970 0367 0E       		.uleb128 0xe
 10971 0368 3A       		.uleb128 0x3a
 10972 0369 0B       		.uleb128 0xb
 10973 036a 3B       		.uleb128 0x3b
 10974 036b 05       		.uleb128 0x5
 10975 036c 27       		.uleb128 0x27
 10976 036d 0C       		.uleb128 0xc
 10977 036e 49       		.uleb128 0x49
 10978 036f 13       		.uleb128 0x13
 10979 0370 11       		.uleb128 0x11
 10980 0371 01       		.uleb128 0x1
 10981 0372 12       		.uleb128 0x12
 10982 0373 01       		.uleb128 0x1
 10983 0374 40       		.uleb128 0x40
 10984 0375 0A       		.uleb128 0xa
 10985 0376 9742     		.uleb128 0x2117
 10986 0378 0C       		.uleb128 0xc
 10987 0379 01       		.uleb128 0x1
 10988 037a 13       		.uleb128 0x13
 10989 037b 00       		.byte	0
 10990 037c 00       		.byte	0
 10991 037d 42       		.uleb128 0x42
 10992 037e 898201   		.uleb128 0x4109
 10993 0381 01       		.byte	0x1
 10994 0382 11       		.uleb128 0x11
 10995 0383 01       		.uleb128 0x1
 10996 0384 9542     		.uleb128 0x2115
 10997 0386 0C       		.uleb128 0xc
 10998 0387 31       		.uleb128 0x31
 10999 0388 13       		.uleb128 0x13
 11000 0389 00       		.byte	0
 11001 038a 00       		.byte	0
 11002 038b 43       		.uleb128 0x43
 11003 038c 0A       		.uleb128 0xa
 11004 038d 00       		.byte	0
 11005 038e 03       		.uleb128 0x3
 11006 038f 0E       		.uleb128 0xe
 11007 0390 3A       		.uleb128 0x3a
 11008 0391 0B       		.uleb128 0xb
 11009 0392 3B       		.uleb128 0x3b
 11010 0393 05       		.uleb128 0x5
 11011 0394 11       		.uleb128 0x11
 11012 0395 01       		.uleb128 0x1
 11013 0396 00       		.byte	0
 11014 0397 00       		.byte	0
 11015 0398 44       		.uleb128 0x44
 11016 0399 1D       		.uleb128 0x1d
 11017 039a 01       		.byte	0x1
 11018 039b 31       		.uleb128 0x31
 11019 039c 13       		.uleb128 0x13
 11020 039d 11       		.uleb128 0x11
 11021 039e 01       		.uleb128 0x1
 11022 039f 12       		.uleb128 0x12
 11023 03a0 01       		.uleb128 0x1
 11024 03a1 58       		.uleb128 0x58
ARM GAS  /tmp/ccPo84yg.s 			page 195


 11025 03a2 0B       		.uleb128 0xb
 11026 03a3 59       		.uleb128 0x59
 11027 03a4 05       		.uleb128 0x5
 11028 03a5 00       		.byte	0
 11029 03a6 00       		.byte	0
 11030 03a7 45       		.uleb128 0x45
 11031 03a8 34       		.uleb128 0x34
 11032 03a9 00       		.byte	0
 11033 03aa 03       		.uleb128 0x3
 11034 03ab 0E       		.uleb128 0xe
 11035 03ac 3A       		.uleb128 0x3a
 11036 03ad 0B       		.uleb128 0xb
 11037 03ae 3B       		.uleb128 0x3b
 11038 03af 0B       		.uleb128 0xb
 11039 03b0 49       		.uleb128 0x49
 11040 03b1 13       		.uleb128 0x13
 11041 03b2 02       		.uleb128 0x2
 11042 03b3 0A       		.uleb128 0xa
 11043 03b4 00       		.byte	0
 11044 03b5 00       		.byte	0
 11045 03b6 46       		.uleb128 0x46
 11046 03b7 2E       		.uleb128 0x2e
 11047 03b8 00       		.byte	0
 11048 03b9 3F       		.uleb128 0x3f
 11049 03ba 0C       		.uleb128 0xc
 11050 03bb 03       		.uleb128 0x3
 11051 03bc 0E       		.uleb128 0xe
 11052 03bd 3A       		.uleb128 0x3a
 11053 03be 0B       		.uleb128 0xb
 11054 03bf 3B       		.uleb128 0x3b
 11055 03c0 05       		.uleb128 0x5
 11056 03c1 27       		.uleb128 0x27
 11057 03c2 0C       		.uleb128 0xc
 11058 03c3 3C       		.uleb128 0x3c
 11059 03c4 0C       		.uleb128 0xc
 11060 03c5 00       		.byte	0
 11061 03c6 00       		.byte	0
 11062 03c7 47       		.uleb128 0x47
 11063 03c8 2E       		.uleb128 0x2e
 11064 03c9 01       		.byte	0x1
 11065 03ca 3F       		.uleb128 0x3f
 11066 03cb 0C       		.uleb128 0xc
 11067 03cc 03       		.uleb128 0x3
 11068 03cd 0E       		.uleb128 0xe
 11069 03ce 3A       		.uleb128 0x3a
 11070 03cf 0B       		.uleb128 0xb
 11071 03d0 3B       		.uleb128 0x3b
 11072 03d1 0B       		.uleb128 0xb
 11073 03d2 27       		.uleb128 0x27
 11074 03d3 0C       		.uleb128 0xc
 11075 03d4 3C       		.uleb128 0x3c
 11076 03d5 0C       		.uleb128 0xc
 11077 03d6 01       		.uleb128 0x1
 11078 03d7 13       		.uleb128 0x13
 11079 03d8 00       		.byte	0
 11080 03d9 00       		.byte	0
 11081 03da 48       		.uleb128 0x48
ARM GAS  /tmp/ccPo84yg.s 			page 196


 11082 03db 2E       		.uleb128 0x2e
 11083 03dc 01       		.byte	0x1
 11084 03dd 3F       		.uleb128 0x3f
 11085 03de 0C       		.uleb128 0xc
 11086 03df 03       		.uleb128 0x3
 11087 03e0 0E       		.uleb128 0xe
 11088 03e1 3A       		.uleb128 0x3a
 11089 03e2 0B       		.uleb128 0xb
 11090 03e3 3B       		.uleb128 0x3b
 11091 03e4 0B       		.uleb128 0xb
 11092 03e5 27       		.uleb128 0x27
 11093 03e6 0C       		.uleb128 0xc
 11094 03e7 49       		.uleb128 0x49
 11095 03e8 13       		.uleb128 0x13
 11096 03e9 3C       		.uleb128 0x3c
 11097 03ea 0C       		.uleb128 0xc
 11098 03eb 01       		.uleb128 0x1
 11099 03ec 13       		.uleb128 0x13
 11100 03ed 00       		.byte	0
 11101 03ee 00       		.byte	0
 11102 03ef 49       		.uleb128 0x49
 11103 03f0 2E       		.uleb128 0x2e
 11104 03f1 01       		.byte	0x1
 11105 03f2 3F       		.uleb128 0x3f
 11106 03f3 0C       		.uleb128 0xc
 11107 03f4 03       		.uleb128 0x3
 11108 03f5 0E       		.uleb128 0xe
 11109 03f6 27       		.uleb128 0x27
 11110 03f7 0C       		.uleb128 0xc
 11111 03f8 49       		.uleb128 0x49
 11112 03f9 13       		.uleb128 0x13
 11113 03fa 34       		.uleb128 0x34
 11114 03fb 0C       		.uleb128 0xc
 11115 03fc 3C       		.uleb128 0x3c
 11116 03fd 0C       		.uleb128 0xc
 11117 03fe 01       		.uleb128 0x1
 11118 03ff 13       		.uleb128 0x13
 11119 0400 00       		.byte	0
 11120 0401 00       		.byte	0
 11121 0402 4A       		.uleb128 0x4a
 11122 0403 2E       		.uleb128 0x2e
 11123 0404 01       		.byte	0x1
 11124 0405 3F       		.uleb128 0x3f
 11125 0406 0C       		.uleb128 0xc
 11126 0407 03       		.uleb128 0x3
 11127 0408 0E       		.uleb128 0xe
 11128 0409 3A       		.uleb128 0x3a
 11129 040a 0B       		.uleb128 0xb
 11130 040b 3B       		.uleb128 0x3b
 11131 040c 0B       		.uleb128 0xb
 11132 040d 27       		.uleb128 0x27
 11133 040e 0C       		.uleb128 0xc
 11134 040f 49       		.uleb128 0x49
 11135 0410 13       		.uleb128 0x13
 11136 0411 3C       		.uleb128 0x3c
 11137 0412 0C       		.uleb128 0xc
 11138 0413 00       		.byte	0
ARM GAS  /tmp/ccPo84yg.s 			page 197


 11139 0414 00       		.byte	0
 11140 0415 00       		.byte	0
 11141              		.section	.debug_loc,"",%progbits
 11142              	.Ldebug_loc0:
 11143              	.LLST0:
 11144 0000 00000000 		.4byte	.LFB10
 11145 0004 04000000 		.4byte	.LCFI0
 11146 0008 0200     		.2byte	0x2
 11147 000a 7D       		.byte	0x7d
 11148 000b 00       		.sleb128 0
 11149 000c 04000000 		.4byte	.LCFI0
 11150 0010 68000000 		.4byte	.LFE10
 11151 0014 0200     		.2byte	0x2
 11152 0016 7D       		.byte	0x7d
 11153 0017 14       		.sleb128 20
 11154 0018 00000000 		.4byte	0
 11155 001c 00000000 		.4byte	0
 11156              	.LLST1:
 11157 0020 00000000 		.4byte	.LVL0
 11158 0024 1E000000 		.4byte	.LVL4
 11159 0028 0100     		.2byte	0x1
 11160 002a 50       		.byte	0x50
 11161 002b 1E000000 		.4byte	.LVL4
 11162 002f 24000000 		.4byte	.LVL5
 11163 0033 0400     		.2byte	0x4
 11164 0035 F3       		.byte	0xf3
 11165 0036 01       		.uleb128 0x1
 11166 0037 50       		.byte	0x50
 11167 0038 9F       		.byte	0x9f
 11168 0039 24000000 		.4byte	.LVL5
 11169 003d 68000000 		.4byte	.LFE10
 11170 0041 0100     		.2byte	0x1
 11171 0043 50       		.byte	0x50
 11172 0044 00000000 		.4byte	0
 11173 0048 00000000 		.4byte	0
 11174              	.LLST2:
 11175 004c 00000000 		.4byte	.LVL0
 11176 0050 1C000000 		.4byte	.LVL3
 11177 0054 0100     		.2byte	0x1
 11178 0056 51       		.byte	0x51
 11179 0057 1C000000 		.4byte	.LVL3
 11180 005b 24000000 		.4byte	.LVL5
 11181 005f 0400     		.2byte	0x4
 11182 0061 F3       		.byte	0xf3
 11183 0062 01       		.uleb128 0x1
 11184 0063 51       		.byte	0x51
 11185 0064 9F       		.byte	0x9f
 11186 0065 24000000 		.4byte	.LVL5
 11187 0069 48000000 		.4byte	.LVL6
 11188 006d 0100     		.2byte	0x1
 11189 006f 51       		.byte	0x51
 11190 0070 48000000 		.4byte	.LVL6
 11191 0074 5A000000 		.4byte	.LVL7
 11192 0078 0400     		.2byte	0x4
 11193 007a F3       		.byte	0xf3
 11194 007b 01       		.uleb128 0x1
 11195 007c 51       		.byte	0x51
ARM GAS  /tmp/ccPo84yg.s 			page 198


 11196 007d 9F       		.byte	0x9f
 11197 007e 5A000000 		.4byte	.LVL7
 11198 0082 60000000 		.4byte	.LVL8
 11199 0086 0100     		.2byte	0x1
 11200 0088 51       		.byte	0x51
 11201 0089 60000000 		.4byte	.LVL8
 11202 008d 68000000 		.4byte	.LFE10
 11203 0091 0400     		.2byte	0x4
 11204 0093 F3       		.byte	0xf3
 11205 0094 01       		.uleb128 0x1
 11206 0095 51       		.byte	0x51
 11207 0096 9F       		.byte	0x9f
 11208 0097 00000000 		.4byte	0
 11209 009b 00000000 		.4byte	0
 11210              	.LLST3:
 11211 009f 00000000 		.4byte	.LVL0
 11212 00a3 0A000000 		.4byte	.LVL1
 11213 00a7 0200     		.2byte	0x2
 11214 00a9 30       		.byte	0x30
 11215 00aa 9F       		.byte	0x9f
 11216 00ab 14000000 		.4byte	.LVL2
 11217 00af 1C000000 		.4byte	.LVL3
 11218 00b3 0100     		.2byte	0x1
 11219 00b5 53       		.byte	0x53
 11220 00b6 00000000 		.4byte	0
 11221 00ba 00000000 		.4byte	0
 11222              	.LLST4:
 11223 00be 00000000 		.4byte	.LFB34
 11224 00c2 02000000 		.4byte	.LCFI1
 11225 00c6 0200     		.2byte	0x2
 11226 00c8 7D       		.byte	0x7d
 11227 00c9 00       		.sleb128 0
 11228 00ca 02000000 		.4byte	.LCFI1
 11229 00ce 04000000 		.4byte	.LCFI2
 11230 00d2 0200     		.2byte	0x2
 11231 00d4 7D       		.byte	0x7d
 11232 00d5 08       		.sleb128 8
 11233 00d6 04000000 		.4byte	.LCFI2
 11234 00da F4000000 		.4byte	.LFE34
 11235 00de 0200     		.2byte	0x2
 11236 00e0 7D       		.byte	0x7d
 11237 00e1 10       		.sleb128 16
 11238 00e2 00000000 		.4byte	0
 11239 00e6 00000000 		.4byte	0
 11240              	.LLST5:
 11241 00ea 00000000 		.4byte	.LVL9
 11242 00ee 08000000 		.4byte	.LVL10
 11243 00f2 0100     		.2byte	0x1
 11244 00f4 50       		.byte	0x50
 11245 00f5 08000000 		.4byte	.LVL10
 11246 00f9 B6000000 		.4byte	.LVL37
 11247 00fd 0400     		.2byte	0x4
 11248 00ff F3       		.byte	0xf3
 11249 0100 01       		.uleb128 0x1
 11250 0101 50       		.byte	0x50
 11251 0102 9F       		.byte	0x9f
 11252 0103 B6000000 		.4byte	.LVL37
ARM GAS  /tmp/ccPo84yg.s 			page 199


 11253 0107 BB000000 		.4byte	.LVL38-1
 11254 010b 0100     		.2byte	0x1
 11255 010d 50       		.byte	0x50
 11256 010e BB000000 		.4byte	.LVL38-1
 11257 0112 F4000000 		.4byte	.LFE34
 11258 0116 0400     		.2byte	0x4
 11259 0118 F3       		.byte	0xf3
 11260 0119 01       		.uleb128 0x1
 11261 011a 50       		.byte	0x50
 11262 011b 9F       		.byte	0x9f
 11263 011c 00000000 		.4byte	0
 11264 0120 00000000 		.4byte	0
 11265              	.LLST6:
 11266 0124 0C000000 		.4byte	.LVL11
 11267 0128 B6000000 		.4byte	.LVL37
 11268 012c 0100     		.2byte	0x1
 11269 012e 54       		.byte	0x54
 11270 012f C0000000 		.4byte	.LVL39
 11271 0133 F4000000 		.4byte	.LFE34
 11272 0137 0100     		.2byte	0x1
 11273 0139 54       		.byte	0x54
 11274 013a 00000000 		.4byte	0
 11275 013e 00000000 		.4byte	0
 11276              	.LLST7:
 11277 0142 0C000000 		.4byte	.LVL11
 11278 0146 1E000000 		.4byte	.LVL15
 11279 014a 0100     		.2byte	0x1
 11280 014c 53       		.byte	0x53
 11281 014d 30000000 		.4byte	.LVL17
 11282 0151 3A000000 		.4byte	.LVL18
 11283 0155 0100     		.2byte	0x1
 11284 0157 53       		.byte	0x53
 11285 0158 44000000 		.4byte	.LVL20
 11286 015c 4C000000 		.4byte	.LVL21
 11287 0160 0100     		.2byte	0x1
 11288 0162 53       		.byte	0x53
 11289 0163 68000000 		.4byte	.LVL24
 11290 0167 76000000 		.4byte	.LVL27
 11291 016b 0100     		.2byte	0x1
 11292 016d 53       		.byte	0x53
 11293 016e 7C000000 		.4byte	.LVL28
 11294 0172 7E000000 		.4byte	.LVL29
 11295 0176 0100     		.2byte	0x1
 11296 0178 53       		.byte	0x53
 11297 0179 7E000000 		.4byte	.LVL29
 11298 017d 94000000 		.4byte	.LVL31
 11299 0181 0200     		.2byte	0x2
 11300 0183 70       		.byte	0x70
 11301 0184 04       		.sleb128 4
 11302 0185 96000000 		.4byte	.LVL32
 11303 0189 98000000 		.4byte	.LVL33
 11304 018d 0100     		.2byte	0x1
 11305 018f 53       		.byte	0x53
 11306 0190 E0000000 		.4byte	.LVL44
 11307 0194 F2000000 		.4byte	.LVL46
 11308 0198 0200     		.2byte	0x2
 11309 019a 70       		.byte	0x70
ARM GAS  /tmp/ccPo84yg.s 			page 200


 11310 019b 04       		.sleb128 4
 11311 019c 00000000 		.4byte	0
 11312 01a0 00000000 		.4byte	0
 11313              	.LLST8:
 11314 01a4 0E000000 		.4byte	.LVL12
 11315 01a8 21000000 		.4byte	.LVL16-1
 11316 01ac 0100     		.2byte	0x1
 11317 01ae 52       		.byte	0x52
 11318 01af 30000000 		.4byte	.LVL17
 11319 01b3 3C000000 		.4byte	.LVL19
 11320 01b7 0100     		.2byte	0x1
 11321 01b9 52       		.byte	0x52
 11322 01ba 44000000 		.4byte	.LVL20
 11323 01be 62000000 		.4byte	.LVL23
 11324 01c2 0100     		.2byte	0x1
 11325 01c4 52       		.byte	0x52
 11326 01c5 68000000 		.4byte	.LVL24
 11327 01c9 74000000 		.4byte	.LVL26
 11328 01cd 0100     		.2byte	0x1
 11329 01cf 52       		.byte	0x52
 11330 01d0 7C000000 		.4byte	.LVL28
 11331 01d4 8A000000 		.4byte	.LVL30
 11332 01d8 0100     		.2byte	0x1
 11333 01da 52       		.byte	0x52
 11334 01db 8A000000 		.4byte	.LVL30
 11335 01df 94000000 		.4byte	.LVL31
 11336 01e3 0200     		.2byte	0x2
 11337 01e5 70       		.byte	0x70
 11338 01e6 08       		.sleb128 8
 11339 01e7 96000000 		.4byte	.LVL32
 11340 01eb 9A000000 		.4byte	.LVL34
 11341 01ef 0100     		.2byte	0x1
 11342 01f1 52       		.byte	0x52
 11343 01f2 A2000000 		.4byte	.LVL35
 11344 01f6 AC000000 		.4byte	.LVL36
 11345 01fa 0100     		.2byte	0x1
 11346 01fc 52       		.byte	0x52
 11347 01fd C0000000 		.4byte	.LVL39
 11348 0201 C6000000 		.4byte	.LVL40
 11349 0205 0100     		.2byte	0x1
 11350 0207 52       		.byte	0x52
 11351 0208 D0000000 		.4byte	.LVL41
 11352 020c DA000000 		.4byte	.LVL43
 11353 0210 0100     		.2byte	0x1
 11354 0212 52       		.byte	0x52
 11355 0213 E0000000 		.4byte	.LVL44
 11356 0217 E8000000 		.4byte	.LVL45
 11357 021b 0100     		.2byte	0x1
 11358 021d 52       		.byte	0x52
 11359 021e E8000000 		.4byte	.LVL45
 11360 0222 F2000000 		.4byte	.LVL46
 11361 0226 0200     		.2byte	0x2
 11362 0228 70       		.byte	0x70
 11363 0229 08       		.sleb128 8
 11364 022a 00000000 		.4byte	0
 11365 022e 00000000 		.4byte	0
 11366              	.LLST9:
ARM GAS  /tmp/ccPo84yg.s 			page 201


 11367 0232 10000000 		.4byte	.LVL13
 11368 0236 21000000 		.4byte	.LVL16-1
 11369 023a 0100     		.2byte	0x1
 11370 023c 51       		.byte	0x51
 11371 023d 30000000 		.4byte	.LVL17
 11372 0241 60000000 		.4byte	.LVL22
 11373 0245 0100     		.2byte	0x1
 11374 0247 51       		.byte	0x51
 11375 0248 68000000 		.4byte	.LVL24
 11376 024c B6000000 		.4byte	.LVL37
 11377 0250 0100     		.2byte	0x1
 11378 0252 51       		.byte	0x51
 11379 0253 C0000000 		.4byte	.LVL39
 11380 0257 D6000000 		.4byte	.LVL42
 11381 025b 0100     		.2byte	0x1
 11382 025d 51       		.byte	0x51
 11383 025e E0000000 		.4byte	.LVL44
 11384 0262 F4000000 		.4byte	.LFE34
 11385 0266 0100     		.2byte	0x1
 11386 0268 51       		.byte	0x51
 11387 0269 00000000 		.4byte	0
 11388 026d 00000000 		.4byte	0
 11389              	.LLST10:
 11390 0271 08000000 		.4byte	.LVL10
 11391 0275 18000000 		.4byte	.LVL14
 11392 0279 0100     		.2byte	0x1
 11393 027b 50       		.byte	0x50
 11394 027c 68000000 		.4byte	.LVL24
 11395 0280 72000000 		.4byte	.LVL25
 11396 0284 0100     		.2byte	0x1
 11397 0286 50       		.byte	0x50
 11398 0287 7C000000 		.4byte	.LVL28
 11399 028b 94000000 		.4byte	.LVL31
 11400 028f 0100     		.2byte	0x1
 11401 0291 50       		.byte	0x50
 11402 0292 E0000000 		.4byte	.LVL44
 11403 0296 F2000000 		.4byte	.LVL46
 11404 029a 0100     		.2byte	0x1
 11405 029c 50       		.byte	0x50
 11406 029d 00000000 		.4byte	0
 11407 02a1 00000000 		.4byte	0
 11408              	.LLST11:
 11409 02a5 00000000 		.4byte	.LFB32
 11410 02a9 02000000 		.4byte	.LCFI3
 11411 02ad 0200     		.2byte	0x2
 11412 02af 7D       		.byte	0x7d
 11413 02b0 00       		.sleb128 0
 11414 02b1 02000000 		.4byte	.LCFI3
 11415 02b5 04000000 		.4byte	.LCFI4
 11416 02b9 0200     		.2byte	0x2
 11417 02bb 7D       		.byte	0x7d
 11418 02bc 08       		.sleb128 8
 11419 02bd 04000000 		.4byte	.LCFI4
 11420 02c1 10010000 		.4byte	.LFE32
 11421 02c5 0200     		.2byte	0x2
 11422 02c7 7D       		.byte	0x7d
 11423 02c8 10       		.sleb128 16
ARM GAS  /tmp/ccPo84yg.s 			page 202


 11424 02c9 00000000 		.4byte	0
 11425 02cd 00000000 		.4byte	0
 11426              	.LLST12:
 11427 02d1 00000000 		.4byte	.LVL47
 11428 02d5 08000000 		.4byte	.LVL48
 11429 02d9 0100     		.2byte	0x1
 11430 02db 50       		.byte	0x50
 11431 02dc 08000000 		.4byte	.LVL48
 11432 02e0 D6000000 		.4byte	.LVL72
 11433 02e4 0400     		.2byte	0x4
 11434 02e6 F3       		.byte	0xf3
 11435 02e7 01       		.uleb128 0x1
 11436 02e8 50       		.byte	0x50
 11437 02e9 9F       		.byte	0x9f
 11438 02ea D6000000 		.4byte	.LVL72
 11439 02ee DB000000 		.4byte	.LVL73-1
 11440 02f2 0100     		.2byte	0x1
 11441 02f4 50       		.byte	0x50
 11442 02f5 DB000000 		.4byte	.LVL73-1
 11443 02f9 10010000 		.4byte	.LFE32
 11444 02fd 0400     		.2byte	0x4
 11445 02ff F3       		.byte	0xf3
 11446 0300 01       		.uleb128 0x1
 11447 0301 50       		.byte	0x50
 11448 0302 9F       		.byte	0x9f
 11449 0303 00000000 		.4byte	0
 11450 0307 00000000 		.4byte	0
 11451              	.LLST13:
 11452 030b 0C000000 		.4byte	.LVL49
 11453 030f D6000000 		.4byte	.LVL72
 11454 0313 0100     		.2byte	0x1
 11455 0315 54       		.byte	0x54
 11456 0316 E0000000 		.4byte	.LVL74
 11457 031a 10010000 		.4byte	.LFE32
 11458 031e 0100     		.2byte	0x1
 11459 0320 54       		.byte	0x54
 11460 0321 00000000 		.4byte	0
 11461 0325 00000000 		.4byte	0
 11462              	.LLST14:
 11463 0329 0C000000 		.4byte	.LVL49
 11464 032d 1E000000 		.4byte	.LVL53
 11465 0331 0100     		.2byte	0x1
 11466 0333 53       		.byte	0x53
 11467 0334 30000000 		.4byte	.LVL55
 11468 0338 3C000000 		.4byte	.LVL56
 11469 033c 0100     		.2byte	0x1
 11470 033e 53       		.byte	0x53
 11471 033f 42000000 		.4byte	.LVL57
 11472 0343 54000000 		.4byte	.LVL58
 11473 0347 0100     		.2byte	0x1
 11474 0349 53       		.byte	0x53
 11475 034a 5C000000 		.4byte	.LVL60
 11476 034e 68000000 		.4byte	.LVL62
 11477 0352 0100     		.2byte	0x1
 11478 0354 53       		.byte	0x53
 11479 0355 70000000 		.4byte	.LVL63
 11480 0359 74000000 		.4byte	.LVL65
ARM GAS  /tmp/ccPo84yg.s 			page 203


 11481 035d 0100     		.2byte	0x1
 11482 035f 53       		.byte	0x53
 11483 0360 80000000 		.4byte	.LVL66
 11484 0364 84000000 		.4byte	.LVL67
 11485 0368 0100     		.2byte	0x1
 11486 036a 53       		.byte	0x53
 11487 036b 8A000000 		.4byte	.LVL68
 11488 036f 8E000000 		.4byte	.LVL69
 11489 0373 0100     		.2byte	0x1
 11490 0375 53       		.byte	0x53
 11491 0376 00000000 		.4byte	0
 11492 037a 00000000 		.4byte	0
 11493              	.LLST15:
 11494 037e 0E000000 		.4byte	.LVL50
 11495 0382 21000000 		.4byte	.LVL54-1
 11496 0386 0100     		.2byte	0x1
 11497 0388 52       		.byte	0x52
 11498 0389 30000000 		.4byte	.LVL55
 11499 038d 58000000 		.4byte	.LVL59
 11500 0391 0100     		.2byte	0x1
 11501 0393 52       		.byte	0x52
 11502 0394 5C000000 		.4byte	.LVL60
 11503 0398 B8000000 		.4byte	.LVL70
 11504 039c 0100     		.2byte	0x1
 11505 039e 52       		.byte	0x52
 11506 039f C8000000 		.4byte	.LVL71
 11507 03a3 D6000000 		.4byte	.LVL72
 11508 03a7 0100     		.2byte	0x1
 11509 03a9 52       		.byte	0x52
 11510 03aa E0000000 		.4byte	.LVL74
 11511 03ae E4000000 		.4byte	.LVL75
 11512 03b2 0100     		.2byte	0x1
 11513 03b4 52       		.byte	0x52
 11514 03b5 00000000 		.4byte	0
 11515 03b9 00000000 		.4byte	0
 11516              	.LLST16:
 11517 03bd 10000000 		.4byte	.LVL51
 11518 03c1 21000000 		.4byte	.LVL54-1
 11519 03c5 0100     		.2byte	0x1
 11520 03c7 51       		.byte	0x51
 11521 03c8 30000000 		.4byte	.LVL55
 11522 03cc D6000000 		.4byte	.LVL72
 11523 03d0 0100     		.2byte	0x1
 11524 03d2 51       		.byte	0x51
 11525 03d3 E0000000 		.4byte	.LVL74
 11526 03d7 10010000 		.4byte	.LFE32
 11527 03db 0100     		.2byte	0x1
 11528 03dd 51       		.byte	0x51
 11529 03de 00000000 		.4byte	0
 11530 03e2 00000000 		.4byte	0
 11531              	.LLST17:
 11532 03e6 08000000 		.4byte	.LVL48
 11533 03ea 18000000 		.4byte	.LVL52
 11534 03ee 0100     		.2byte	0x1
 11535 03f0 50       		.byte	0x50
 11536 03f1 5C000000 		.4byte	.LVL60
 11537 03f5 66000000 		.4byte	.LVL61
ARM GAS  /tmp/ccPo84yg.s 			page 204


 11538 03f9 0100     		.2byte	0x1
 11539 03fb 50       		.byte	0x50
 11540 03fc 70000000 		.4byte	.LVL63
 11541 0400 72000000 		.4byte	.LVL64
 11542 0404 0100     		.2byte	0x1
 11543 0406 50       		.byte	0x50
 11544 0407 00000000 		.4byte	0
 11545 040b 00000000 		.4byte	0
 11546              	.LLST18:
 11547 040f 00000000 		.4byte	.LFB26
 11548 0413 04000000 		.4byte	.LCFI5
 11549 0417 0200     		.2byte	0x2
 11550 0419 7D       		.byte	0x7d
 11551 041a 00       		.sleb128 0
 11552 041b 04000000 		.4byte	.LCFI5
 11553 041f F8000000 		.4byte	.LFE26
 11554 0423 0200     		.2byte	0x2
 11555 0425 7D       		.byte	0x7d
 11556 0426 20       		.sleb128 32
 11557 0427 00000000 		.4byte	0
 11558 042b 00000000 		.4byte	0
 11559              	.LLST19:
 11560 042f 00000000 		.4byte	.LVL76
 11561 0433 34000000 		.4byte	.LVL82
 11562 0437 0100     		.2byte	0x1
 11563 0439 50       		.byte	0x50
 11564 043a 34000000 		.4byte	.LVL82
 11565 043e 38000000 		.4byte	.LVL83
 11566 0442 0400     		.2byte	0x4
 11567 0444 F3       		.byte	0xf3
 11568 0445 01       		.uleb128 0x1
 11569 0446 50       		.byte	0x50
 11570 0447 9F       		.byte	0x9f
 11571 0448 38000000 		.4byte	.LVL83
 11572 044c 3E000000 		.4byte	.LVL84
 11573 0450 0100     		.2byte	0x1
 11574 0452 50       		.byte	0x50
 11575 0453 3E000000 		.4byte	.LVL84
 11576 0457 A4000000 		.4byte	.LVL91
 11577 045b 0400     		.2byte	0x4
 11578 045d F3       		.byte	0xf3
 11579 045e 01       		.uleb128 0x1
 11580 045f 50       		.byte	0x50
 11581 0460 9F       		.byte	0x9f
 11582 0461 A4000000 		.4byte	.LVL91
 11583 0465 CF000000 		.4byte	.LVL92-1
 11584 0469 0100     		.2byte	0x1
 11585 046b 50       		.byte	0x50
 11586 046c CF000000 		.4byte	.LVL92-1
 11587 0470 DE000000 		.4byte	.LVL95
 11588 0474 0400     		.2byte	0x4
 11589 0476 F3       		.byte	0xf3
 11590 0477 01       		.uleb128 0x1
 11591 0478 50       		.byte	0x50
 11592 0479 9F       		.byte	0x9f
 11593 047a DE000000 		.4byte	.LVL95
 11594 047e F8000000 		.4byte	.LFE26
ARM GAS  /tmp/ccPo84yg.s 			page 205


 11595 0482 0100     		.2byte	0x1
 11596 0484 50       		.byte	0x50
 11597 0485 00000000 		.4byte	0
 11598 0489 00000000 		.4byte	0
 11599              	.LLST20:
 11600 048d 00000000 		.4byte	.LVL76
 11601 0491 34000000 		.4byte	.LVL82
 11602 0495 0100     		.2byte	0x1
 11603 0497 51       		.byte	0x51
 11604 0498 34000000 		.4byte	.LVL82
 11605 049c 38000000 		.4byte	.LVL83
 11606 04a0 0400     		.2byte	0x4
 11607 04a2 F3       		.byte	0xf3
 11608 04a3 01       		.uleb128 0x1
 11609 04a4 51       		.byte	0x51
 11610 04a5 9F       		.byte	0x9f
 11611 04a6 38000000 		.4byte	.LVL83
 11612 04aa 3E000000 		.4byte	.LVL84
 11613 04ae 0100     		.2byte	0x1
 11614 04b0 51       		.byte	0x51
 11615 04b1 3E000000 		.4byte	.LVL84
 11616 04b5 A4000000 		.4byte	.LVL91
 11617 04b9 0400     		.2byte	0x4
 11618 04bb F3       		.byte	0xf3
 11619 04bc 01       		.uleb128 0x1
 11620 04bd 51       		.byte	0x51
 11621 04be 9F       		.byte	0x9f
 11622 04bf A4000000 		.4byte	.LVL91
 11623 04c3 CF000000 		.4byte	.LVL92-1
 11624 04c7 0100     		.2byte	0x1
 11625 04c9 51       		.byte	0x51
 11626 04ca CF000000 		.4byte	.LVL92-1
 11627 04ce DE000000 		.4byte	.LVL95
 11628 04d2 0400     		.2byte	0x4
 11629 04d4 F3       		.byte	0xf3
 11630 04d5 01       		.uleb128 0x1
 11631 04d6 51       		.byte	0x51
 11632 04d7 9F       		.byte	0x9f
 11633 04d8 DE000000 		.4byte	.LVL95
 11634 04dc F8000000 		.4byte	.LFE26
 11635 04e0 0100     		.2byte	0x1
 11636 04e2 51       		.byte	0x51
 11637 04e3 00000000 		.4byte	0
 11638 04e7 00000000 		.4byte	0
 11639              	.LLST21:
 11640 04eb 00000000 		.4byte	.LVL76
 11641 04ef 16000000 		.4byte	.LVL79
 11642 04f3 0100     		.2byte	0x1
 11643 04f5 52       		.byte	0x52
 11644 04f6 16000000 		.4byte	.LVL79
 11645 04fa 30000000 		.4byte	.LVL81
 11646 04fe 0400     		.2byte	0x4
 11647 0500 F3       		.byte	0xf3
 11648 0501 01       		.uleb128 0x1
 11649 0502 52       		.byte	0x52
 11650 0503 9F       		.byte	0x9f
 11651 0504 30000000 		.4byte	.LVL81
ARM GAS  /tmp/ccPo84yg.s 			page 206


 11652 0508 34000000 		.4byte	.LVL82
 11653 050c 0100     		.2byte	0x1
 11654 050e 52       		.byte	0x52
 11655 050f 34000000 		.4byte	.LVL82
 11656 0513 E2000000 		.4byte	.LVL96
 11657 0517 0400     		.2byte	0x4
 11658 0519 F3       		.byte	0xf3
 11659 051a 01       		.uleb128 0x1
 11660 051b 52       		.byte	0x52
 11661 051c 9F       		.byte	0x9f
 11662 051d E2000000 		.4byte	.LVL96
 11663 0521 F8000000 		.4byte	.LFE26
 11664 0525 0100     		.2byte	0x1
 11665 0527 52       		.byte	0x52
 11666 0528 00000000 		.4byte	0
 11667 052c 00000000 		.4byte	0
 11668              	.LLST22:
 11669 0530 08000000 		.4byte	.LVL77
 11670 0534 34000000 		.4byte	.LVL82
 11671 0538 0100     		.2byte	0x1
 11672 053a 54       		.byte	0x54
 11673 053b 38000000 		.4byte	.LVL83
 11674 053f 50000000 		.4byte	.LVL85
 11675 0543 0100     		.2byte	0x1
 11676 0545 54       		.byte	0x54
 11677 0546 A4000000 		.4byte	.LVL91
 11678 054a D2000000 		.4byte	.LVL93
 11679 054e 0100     		.2byte	0x1
 11680 0550 54       		.byte	0x54
 11681 0551 DE000000 		.4byte	.LVL95
 11682 0555 E4000000 		.4byte	.LVL97
 11683 0559 0100     		.2byte	0x1
 11684 055b 54       		.byte	0x54
 11685 055c E4000000 		.4byte	.LVL97
 11686 0560 F8000000 		.4byte	.LFE26
 11687 0564 0200     		.2byte	0x2
 11688 0566 70       		.byte	0x70
 11689 0567 18       		.sleb128 24
 11690 0568 00000000 		.4byte	0
 11691 056c 00000000 		.4byte	0
 11692              	.LLST23:
 11693 0570 52000000 		.4byte	.LVL86
 11694 0574 A4000000 		.4byte	.LVL91
 11695 0578 0100     		.2byte	0x1
 11696 057a 54       		.byte	0x54
 11697 057b D2000000 		.4byte	.LVL93
 11698 057f DE000000 		.4byte	.LVL95
 11699 0583 0100     		.2byte	0x1
 11700 0585 54       		.byte	0x54
 11701 0586 00000000 		.4byte	0
 11702 058a 00000000 		.4byte	0
 11703              	.LLST24:
 11704 058e 94000000 		.4byte	.LVL89
 11705 0592 A4000000 		.4byte	.LVL91
 11706 0596 0100     		.2byte	0x1
 11707 0598 52       		.byte	0x52
 11708 0599 00000000 		.4byte	0
ARM GAS  /tmp/ccPo84yg.s 			page 207


 11709 059d 00000000 		.4byte	0
 11710              	.LLST25:
 11711 05a1 0C000000 		.4byte	.LVL78
 11712 05a5 30000000 		.4byte	.LVL81
 11713 05a9 0100     		.2byte	0x1
 11714 05ab 54       		.byte	0x54
 11715 05ac 38000000 		.4byte	.LVL83
 11716 05b0 50000000 		.4byte	.LVL85
 11717 05b4 0100     		.2byte	0x1
 11718 05b6 54       		.byte	0x54
 11719 05b7 A4000000 		.4byte	.LVL91
 11720 05bb D2000000 		.4byte	.LVL93
 11721 05bf 0100     		.2byte	0x1
 11722 05c1 54       		.byte	0x54
 11723 05c2 DE000000 		.4byte	.LVL95
 11724 05c6 E2000000 		.4byte	.LVL96
 11725 05ca 0100     		.2byte	0x1
 11726 05cc 54       		.byte	0x54
 11727 05cd 00000000 		.4byte	0
 11728 05d1 00000000 		.4byte	0
 11729              	.LLST26:
 11730 05d5 1C000000 		.4byte	.LVL80
 11731 05d9 30000000 		.4byte	.LVL81
 11732 05dd 0100     		.2byte	0x1
 11733 05df 58       		.byte	0x58
 11734 05e0 38000000 		.4byte	.LVL83
 11735 05e4 E2000000 		.4byte	.LVL96
 11736 05e8 0100     		.2byte	0x1
 11737 05ea 58       		.byte	0x58
 11738 05eb 00000000 		.4byte	0
 11739 05ef 00000000 		.4byte	0
 11740              	.LLST27:
 11741 05f3 5A000000 		.4byte	.LVL87
 11742 05f7 92000000 		.4byte	.LVL88
 11743 05fb 0200     		.2byte	0x2
 11744 05fd 30       		.byte	0x30
 11745 05fe 9F       		.byte	0x9f
 11746 05ff D2000000 		.4byte	.LVL93
 11747 0603 DE000000 		.4byte	.LVL95
 11748 0607 0200     		.2byte	0x2
 11749 0609 30       		.byte	0x30
 11750 060a 9F       		.byte	0x9f
 11751 060b 00000000 		.4byte	0
 11752 060f 00000000 		.4byte	0
 11753              	.LLST28:
 11754 0613 00000000 		.4byte	.LFB24
 11755 0617 04000000 		.4byte	.LCFI6
 11756 061b 0200     		.2byte	0x2
 11757 061d 7D       		.byte	0x7d
 11758 061e 00       		.sleb128 0
 11759 061f 04000000 		.4byte	.LCFI6
 11760 0623 06000000 		.4byte	.LCFI7
 11761 0627 0200     		.2byte	0x2
 11762 0629 7D       		.byte	0x7d
 11763 062a 20       		.sleb128 32
 11764 062b 06000000 		.4byte	.LCFI7
 11765 062f 2C010000 		.4byte	.LFE24
ARM GAS  /tmp/ccPo84yg.s 			page 208


 11766 0633 0200     		.2byte	0x2
 11767 0635 7D       		.byte	0x7d
 11768 0636 38       		.sleb128 56
 11769 0637 00000000 		.4byte	0
 11770 063b 00000000 		.4byte	0
 11771              	.LLST29:
 11772 063f 00000000 		.4byte	.LVL98
 11773 0643 1A000000 		.4byte	.LVL100
 11774 0647 0100     		.2byte	0x1
 11775 0649 50       		.byte	0x50
 11776 064a 1A000000 		.4byte	.LVL100
 11777 064e 2C010000 		.4byte	.LFE24
 11778 0652 0200     		.2byte	0x2
 11779 0654 91       		.byte	0x91
 11780 0655 4C       		.sleb128 -52
 11781 0656 00000000 		.4byte	0
 11782 065a 00000000 		.4byte	0
 11783              	.LLST30:
 11784 065e 00000000 		.4byte	.LVL98
 11785 0662 04010000 		.4byte	.LVL115
 11786 0666 0100     		.2byte	0x1
 11787 0668 51       		.byte	0x51
 11788 0669 04010000 		.4byte	.LVL115
 11789 066d 1A010000 		.4byte	.LVL117
 11790 0671 0400     		.2byte	0x4
 11791 0673 F3       		.byte	0xf3
 11792 0674 01       		.uleb128 0x1
 11793 0675 51       		.byte	0x51
 11794 0676 9F       		.byte	0x9f
 11795 0677 1A010000 		.4byte	.LVL117
 11796 067b 2C010000 		.4byte	.LFE24
 11797 067f 0100     		.2byte	0x1
 11798 0681 51       		.byte	0x51
 11799 0682 00000000 		.4byte	0
 11800 0686 00000000 		.4byte	0
 11801              	.LLST31:
 11802 068a 00000000 		.4byte	.LVL98
 11803 068e 0C010000 		.4byte	.LVL116
 11804 0692 0100     		.2byte	0x1
 11805 0694 52       		.byte	0x52
 11806 0695 0C010000 		.4byte	.LVL116
 11807 0699 1A010000 		.4byte	.LVL117
 11808 069d 0400     		.2byte	0x4
 11809 069f F3       		.byte	0xf3
 11810 06a0 01       		.uleb128 0x1
 11811 06a1 52       		.byte	0x52
 11812 06a2 9F       		.byte	0x9f
 11813 06a3 1A010000 		.4byte	.LVL117
 11814 06a7 2C010000 		.4byte	.LFE24
 11815 06ab 0100     		.2byte	0x1
 11816 06ad 52       		.byte	0x52
 11817 06ae 00000000 		.4byte	0
 11818 06b2 00000000 		.4byte	0
 11819              	.LLST32:
 11820 06b6 00000000 		.4byte	.LVL98
 11821 06ba FC000000 		.4byte	.LVL114
 11822 06be 0100     		.2byte	0x1
ARM GAS  /tmp/ccPo84yg.s 			page 209


 11823 06c0 53       		.byte	0x53
 11824 06c1 FC000000 		.4byte	.LVL114
 11825 06c5 1A010000 		.4byte	.LVL117
 11826 06c9 0400     		.2byte	0x4
 11827 06cb F3       		.byte	0xf3
 11828 06cc 01       		.uleb128 0x1
 11829 06cd 53       		.byte	0x53
 11830 06ce 9F       		.byte	0x9f
 11831 06cf 1A010000 		.4byte	.LVL117
 11832 06d3 2C010000 		.4byte	.LFE24
 11833 06d7 0100     		.2byte	0x1
 11834 06d9 53       		.byte	0x53
 11835 06da 00000000 		.4byte	0
 11836 06de 00000000 		.4byte	0
 11837              	.LLST33:
 11838 06e2 18000000 		.4byte	.LVL99
 11839 06e6 20000000 		.4byte	.LVL101
 11840 06ea 0200     		.2byte	0x2
 11841 06ec 30       		.byte	0x30
 11842 06ed 9F       		.byte	0x9f
 11843 06ee F2000000 		.4byte	.LVL112
 11844 06f2 FA000000 		.4byte	.LVL113
 11845 06f6 0100     		.2byte	0x1
 11846 06f8 54       		.byte	0x54
 11847 06f9 00000000 		.4byte	0
 11848 06fd 00000000 		.4byte	0
 11849              	.LLST34:
 11850 0701 00000000 		.4byte	.LVL98
 11851 0705 20000000 		.4byte	.LVL101
 11852 0709 0200     		.2byte	0x2
 11853 070b 30       		.byte	0x30
 11854 070c 9F       		.byte	0x9f
 11855 070d 8C000000 		.4byte	.LVL107
 11856 0711 FA000000 		.4byte	.LVL113
 11857 0715 0100     		.2byte	0x1
 11858 0717 5B       		.byte	0x5b
 11859 0718 00000000 		.4byte	0
 11860 071c 00000000 		.4byte	0
 11861              	.LLST35:
 11862 0720 20000000 		.4byte	.LVL101
 11863 0724 3E000000 		.4byte	.LVL102
 11864 0728 0200     		.2byte	0x2
 11865 072a 30       		.byte	0x30
 11866 072b 9F       		.byte	0x9f
 11867 072c 3E000000 		.4byte	.LVL102
 11868 0730 FA000000 		.4byte	.LVL113
 11869 0734 0100     		.2byte	0x1
 11870 0736 59       		.byte	0x59
 11871 0737 1A010000 		.4byte	.LVL117
 11872 073b 2C010000 		.4byte	.LFE24
 11873 073f 0200     		.2byte	0x2
 11874 0741 30       		.byte	0x30
 11875 0742 9F       		.byte	0x9f
 11876 0743 00000000 		.4byte	0
 11877 0747 00000000 		.4byte	0
 11878              	.LLST36:
 11879 074b 20000000 		.4byte	.LVL101
ARM GAS  /tmp/ccPo84yg.s 			page 210


 11880 074f 42000000 		.4byte	.LVL103
 11881 0753 0200     		.2byte	0x2
 11882 0755 30       		.byte	0x30
 11883 0756 9F       		.byte	0x9f
 11884 0757 42000000 		.4byte	.LVL103
 11885 075b 46000000 		.4byte	.LVL105
 11886 075f 0200     		.2byte	0x2
 11887 0761 75       		.byte	0x75
 11888 0762 0A       		.sleb128 10
 11889 0763 46000000 		.4byte	.LVL105
 11890 0767 62000000 		.4byte	.LVL106
 11891 076b 0100     		.2byte	0x1
 11892 076d 5A       		.byte	0x5a
 11893 076e 1A010000 		.4byte	.LVL117
 11894 0772 2C010000 		.4byte	.LFE24
 11895 0776 0200     		.2byte	0x2
 11896 0778 30       		.byte	0x30
 11897 0779 9F       		.byte	0x9f
 11898 077a 00000000 		.4byte	0
 11899 077e 00000000 		.4byte	0
 11900              	.LLST37:
 11901 0782 20000000 		.4byte	.LVL101
 11902 0786 44000000 		.4byte	.LVL104
 11903 078a 0200     		.2byte	0x2
 11904 078c 30       		.byte	0x30
 11905 078d 9F       		.byte	0x9f
 11906 078e 44000000 		.4byte	.LVL104
 11907 0792 46000000 		.4byte	.LVL105
 11908 0796 0200     		.2byte	0x2
 11909 0798 75       		.byte	0x75
 11910 0799 0C       		.sleb128 12
 11911 079a 46000000 		.4byte	.LVL105
 11912 079e A8000000 		.4byte	.LVL108
 11913 07a2 0100     		.2byte	0x1
 11914 07a4 50       		.byte	0x50
 11915 07a5 1A010000 		.4byte	.LVL117
 11916 07a9 2C010000 		.4byte	.LFE24
 11917 07ad 0200     		.2byte	0x2
 11918 07af 30       		.byte	0x30
 11919 07b0 9F       		.byte	0x9f
 11920 07b1 00000000 		.4byte	0
 11921 07b5 00000000 		.4byte	0
 11922              	.LLST38:
 11923 07b9 20000000 		.4byte	.LVL101
 11924 07bd 46000000 		.4byte	.LVL105
 11925 07c1 0200     		.2byte	0x2
 11926 07c3 30       		.byte	0x30
 11927 07c4 9F       		.byte	0x9f
 11928 07c5 46000000 		.4byte	.LVL105
 11929 07c9 D8000000 		.4byte	.LVL110
 11930 07cd 0100     		.2byte	0x1
 11931 07cf 55       		.byte	0x55
 11932 07d0 1A010000 		.4byte	.LVL117
 11933 07d4 2C010000 		.4byte	.LFE24
 11934 07d8 0200     		.2byte	0x2
 11935 07da 30       		.byte	0x30
 11936 07db 9F       		.byte	0x9f
ARM GAS  /tmp/ccPo84yg.s 			page 211


 11937 07dc 00000000 		.4byte	0
 11938 07e0 00000000 		.4byte	0
 11939              	.LLST39:
 11940 07e4 20000000 		.4byte	.LVL101
 11941 07e8 F2000000 		.4byte	.LVL112
 11942 07ec 0100     		.2byte	0x1
 11943 07ee 54       		.byte	0x54
 11944 07ef F2000000 		.4byte	.LVL112
 11945 07f3 FA000000 		.4byte	.LVL113
 11946 07f7 0300     		.2byte	0x3
 11947 07f9 74       		.byte	0x74
 11948 07fa 7F       		.sleb128 -1
 11949 07fb 9F       		.byte	0x9f
 11950 07fc 1A010000 		.4byte	.LVL117
 11951 0800 2C010000 		.4byte	.LFE24
 11952 0804 0100     		.2byte	0x1
 11953 0806 54       		.byte	0x54
 11954 0807 00000000 		.4byte	0
 11955 080b 00000000 		.4byte	0
 11956              	.LLST40:
 11957 080f 00000000 		.4byte	.LFB28
 11958 0813 04000000 		.4byte	.LCFI8
 11959 0817 0200     		.2byte	0x2
 11960 0819 7D       		.byte	0x7d
 11961 081a 00       		.sleb128 0
 11962 081b 04000000 		.4byte	.LCFI8
 11963 081f 08000000 		.4byte	.LCFI9
 11964 0823 0200     		.2byte	0x2
 11965 0825 7D       		.byte	0x7d
 11966 0826 18       		.sleb128 24
 11967 0827 08000000 		.4byte	.LCFI9
 11968 082b 78000000 		.4byte	.LFE28
 11969 082f 0200     		.2byte	0x2
 11970 0831 7D       		.byte	0x7d
 11971 0832 30       		.sleb128 48
 11972 0833 00000000 		.4byte	0
 11973 0837 00000000 		.4byte	0
 11974              	.LLST41:
 11975 083b 00000000 		.4byte	.LVL118
 11976 083f 12000000 		.4byte	.LVL119
 11977 0843 0100     		.2byte	0x1
 11978 0845 50       		.byte	0x50
 11979 0846 12000000 		.4byte	.LVL119
 11980 084a 78000000 		.4byte	.LFE28
 11981 084e 0400     		.2byte	0x4
 11982 0850 F3       		.byte	0xf3
 11983 0851 01       		.uleb128 0x1
 11984 0852 50       		.byte	0x50
 11985 0853 9F       		.byte	0x9f
 11986 0854 00000000 		.4byte	0
 11987 0858 00000000 		.4byte	0
 11988              	.LLST42:
 11989 085c 00000000 		.4byte	.LVL118
 11990 0860 26000000 		.4byte	.LVL122
 11991 0864 0100     		.2byte	0x1
 11992 0866 51       		.byte	0x51
 11993 0867 26000000 		.4byte	.LVL122
ARM GAS  /tmp/ccPo84yg.s 			page 212


 11994 086b 68000000 		.4byte	.LVL126
 11995 086f 0100     		.2byte	0x1
 11996 0871 55       		.byte	0x55
 11997 0872 68000000 		.4byte	.LVL126
 11998 0876 6C000000 		.4byte	.LVL127
 11999 087a 0100     		.2byte	0x1
 12000 087c 51       		.byte	0x51
 12001 087d 6C000000 		.4byte	.LVL127
 12002 0881 78000000 		.4byte	.LFE28
 12003 0885 0100     		.2byte	0x1
 12004 0887 55       		.byte	0x55
 12005 0888 00000000 		.4byte	0
 12006 088c 00000000 		.4byte	0
 12007              	.LLST43:
 12008 0890 00000000 		.4byte	.LVL118
 12009 0894 14000000 		.4byte	.LVL120
 12010 0898 0100     		.2byte	0x1
 12011 089a 52       		.byte	0x52
 12012 089b 14000000 		.4byte	.LVL120
 12013 089f 78000000 		.4byte	.LFE28
 12014 08a3 0100     		.2byte	0x1
 12015 08a5 56       		.byte	0x56
 12016 08a6 00000000 		.4byte	0
 12017 08aa 00000000 		.4byte	0
 12018              	.LLST44:
 12019 08ae 00000000 		.4byte	.LVL118
 12020 08b2 3D000000 		.4byte	.LVL123-1
 12021 08b6 0100     		.2byte	0x1
 12022 08b8 53       		.byte	0x53
 12023 08b9 3D000000 		.4byte	.LVL123-1
 12024 08bd 68000000 		.4byte	.LVL126
 12025 08c1 0400     		.2byte	0x4
 12026 08c3 F3       		.byte	0xf3
 12027 08c4 01       		.uleb128 0x1
 12028 08c5 53       		.byte	0x53
 12029 08c6 9F       		.byte	0x9f
 12030 08c7 68000000 		.4byte	.LVL126
 12031 08cb 6C000000 		.4byte	.LVL127
 12032 08cf 0100     		.2byte	0x1
 12033 08d1 53       		.byte	0x53
 12034 08d2 6C000000 		.4byte	.LVL127
 12035 08d6 78000000 		.4byte	.LFE28
 12036 08da 0400     		.2byte	0x4
 12037 08dc F3       		.byte	0xf3
 12038 08dd 01       		.uleb128 0x1
 12039 08de 53       		.byte	0x53
 12040 08df 9F       		.byte	0x9f
 12041 08e0 00000000 		.4byte	0
 12042 08e4 00000000 		.4byte	0
 12043              	.LLST46:
 12044 08e8 1A000000 		.4byte	.LVL121
 12045 08ec 68000000 		.4byte	.LVL126
 12046 08f0 0100     		.2byte	0x1
 12047 08f2 58       		.byte	0x58
 12048 08f3 00000000 		.4byte	0
 12049 08f7 00000000 		.4byte	0
 12050              	.LLST47:
ARM GAS  /tmp/ccPo84yg.s 			page 213


 12051 08fb 00000000 		.4byte	.LFB12
 12052 08ff 04000000 		.4byte	.LCFI10
 12053 0903 0200     		.2byte	0x2
 12054 0905 7D       		.byte	0x7d
 12055 0906 00       		.sleb128 0
 12056 0907 04000000 		.4byte	.LCFI10
 12057 090b 08000000 		.4byte	.LCFI11
 12058 090f 0200     		.2byte	0x2
 12059 0911 7D       		.byte	0x7d
 12060 0912 18       		.sleb128 24
 12061 0913 08000000 		.4byte	.LCFI11
 12062 0917 4C010000 		.4byte	.LFE12
 12063 091b 0300     		.2byte	0x3
 12064 091d 7D       		.byte	0x7d
 12065 091e C000     		.sleb128 64
 12066 0920 00000000 		.4byte	0
 12067 0924 00000000 		.4byte	0
 12068              	.LLST48:
 12069 0928 00000000 		.4byte	.LVL128
 12070 092c 12000000 		.4byte	.LVL129
 12071 0930 0100     		.2byte	0x1
 12072 0932 50       		.byte	0x50
 12073 0933 12000000 		.4byte	.LVL129
 12074 0937 4C010000 		.4byte	.LFE12
 12075 093b 0400     		.2byte	0x4
 12076 093d F3       		.byte	0xf3
 12077 093e 01       		.uleb128 0x1
 12078 093f 50       		.byte	0x50
 12079 0940 9F       		.byte	0x9f
 12080 0941 00000000 		.4byte	0
 12081 0945 00000000 		.4byte	0
 12082              	.LLST49:
 12083 0949 00000000 		.4byte	.LVL128
 12084 094d 32000000 		.4byte	.LVL131
 12085 0951 0100     		.2byte	0x1
 12086 0953 51       		.byte	0x51
 12087 0954 32000000 		.4byte	.LVL131
 12088 0958 D8000000 		.4byte	.LVL145
 12089 095c 0100     		.2byte	0x1
 12090 095e 57       		.byte	0x57
 12091 095f D8000000 		.4byte	.LVL145
 12092 0963 DC000000 		.4byte	.LVL146
 12093 0967 0100     		.2byte	0x1
 12094 0969 51       		.byte	0x51
 12095 096a DC000000 		.4byte	.LVL146
 12096 096e 28010000 		.4byte	.LVL161
 12097 0972 0100     		.2byte	0x1
 12098 0974 57       		.byte	0x57
 12099 0975 28010000 		.4byte	.LVL161
 12100 0979 32010000 		.4byte	.LVL162
 12101 097d 0100     		.2byte	0x1
 12102 097f 51       		.byte	0x51
 12103 0980 32010000 		.4byte	.LVL162
 12104 0984 4C010000 		.4byte	.LFE12
 12105 0988 0100     		.2byte	0x1
 12106 098a 57       		.byte	0x57
 12107 098b 00000000 		.4byte	0
ARM GAS  /tmp/ccPo84yg.s 			page 214


 12108 098f 00000000 		.4byte	0
 12109              	.LLST50:
 12110 0993 00000000 		.4byte	.LVL128
 12111 0997 35000000 		.4byte	.LVL132-1
 12112 099b 0100     		.2byte	0x1
 12113 099d 52       		.byte	0x52
 12114 099e 35000000 		.4byte	.LVL132-1
 12115 09a2 A8000000 		.4byte	.LVL141
 12116 09a6 0100     		.2byte	0x1
 12117 09a8 54       		.byte	0x54
 12118 09a9 A8000000 		.4byte	.LVL141
 12119 09ad D8000000 		.4byte	.LVL145
 12120 09b1 0400     		.2byte	0x4
 12121 09b3 F3       		.byte	0xf3
 12122 09b4 01       		.uleb128 0x1
 12123 09b5 52       		.byte	0x52
 12124 09b6 9F       		.byte	0x9f
 12125 09b7 D8000000 		.4byte	.LVL145
 12126 09bb DC000000 		.4byte	.LVL146
 12127 09bf 0100     		.2byte	0x1
 12128 09c1 52       		.byte	0x52
 12129 09c2 DC000000 		.4byte	.LVL146
 12130 09c6 EA000000 		.4byte	.LVL149
 12131 09ca 0400     		.2byte	0x4
 12132 09cc F3       		.byte	0xf3
 12133 09cd 01       		.uleb128 0x1
 12134 09ce 52       		.byte	0x52
 12135 09cf 9F       		.byte	0x9f
 12136 09d0 EA000000 		.4byte	.LVL149
 12137 09d4 0A010000 		.4byte	.LVL156
 12138 09d8 0100     		.2byte	0x1
 12139 09da 54       		.byte	0x54
 12140 09db 0A010000 		.4byte	.LVL156
 12141 09df 0C010000 		.4byte	.LVL157
 12142 09e3 0400     		.2byte	0x4
 12143 09e5 F3       		.byte	0xf3
 12144 09e6 01       		.uleb128 0x1
 12145 09e7 52       		.byte	0x52
 12146 09e8 9F       		.byte	0x9f
 12147 09e9 0C010000 		.4byte	.LVL157
 12148 09ed 28010000 		.4byte	.LVL161
 12149 09f1 0100     		.2byte	0x1
 12150 09f3 54       		.byte	0x54
 12151 09f4 28010000 		.4byte	.LVL161
 12152 09f8 32010000 		.4byte	.LVL162
 12153 09fc 0100     		.2byte	0x1
 12154 09fe 52       		.byte	0x52
 12155 09ff 32010000 		.4byte	.LVL162
 12156 0a03 4C010000 		.4byte	.LFE12
 12157 0a07 0400     		.2byte	0x4
 12158 0a09 F3       		.byte	0xf3
 12159 0a0a 01       		.uleb128 0x1
 12160 0a0b 52       		.byte	0x52
 12161 0a0c 9F       		.byte	0x9f
 12162 0a0d 00000000 		.4byte	0
 12163 0a11 00000000 		.4byte	0
 12164              	.LLST51:
ARM GAS  /tmp/ccPo84yg.s 			page 215


 12165 0a15 C6000000 		.4byte	.LVL144
 12166 0a19 D8000000 		.4byte	.LVL145
 12167 0a1d 0100     		.2byte	0x1
 12168 0a1f 52       		.byte	0x52
 12169 0a20 00000000 		.4byte	0
 12170 0a24 00000000 		.4byte	0
 12171              	.LLST52:
 12172 0a28 3A000000 		.4byte	.LVL133
 12173 0a2c D8000000 		.4byte	.LVL145
 12174 0a30 0200     		.2byte	0x2
 12175 0a32 91       		.byte	0x91
 12176 0a33 50       		.sleb128 -48
 12177 0a34 DC000000 		.4byte	.LVL146
 12178 0a38 F8000000 		.4byte	.LVL153
 12179 0a3c 0200     		.2byte	0x2
 12180 0a3e 91       		.byte	0x91
 12181 0a3f 50       		.sleb128 -48
 12182 0a40 04010000 		.4byte	.LVL155
 12183 0a44 28010000 		.4byte	.LVL161
 12184 0a48 0200     		.2byte	0x2
 12185 0a4a 91       		.byte	0x91
 12186 0a4b 50       		.sleb128 -48
 12187 0a4c 32010000 		.4byte	.LVL162
 12188 0a50 4C010000 		.4byte	.LFE12
 12189 0a54 0200     		.2byte	0x2
 12190 0a56 91       		.byte	0x91
 12191 0a57 50       		.sleb128 -48
 12192 0a58 00000000 		.4byte	0
 12193 0a5c 00000000 		.4byte	0
 12194              	.LLST53:
 12195 0a60 6E000000 		.4byte	.LVL137
 12196 0a64 D8000000 		.4byte	.LVL145
 12197 0a68 0200     		.2byte	0x2
 12198 0a6a 91       		.byte	0x91
 12199 0a6b 4E       		.sleb128 -50
 12200 0a6c DC000000 		.4byte	.LVL146
 12201 0a70 EA000000 		.4byte	.LVL149
 12202 0a74 0200     		.2byte	0x2
 12203 0a76 91       		.byte	0x91
 12204 0a77 4E       		.sleb128 -50
 12205 0a78 32010000 		.4byte	.LVL162
 12206 0a7c 4C010000 		.4byte	.LFE12
 12207 0a80 0200     		.2byte	0x2
 12208 0a82 91       		.byte	0x91
 12209 0a83 4E       		.sleb128 -50
 12210 0a84 00000000 		.4byte	0
 12211 0a88 00000000 		.4byte	0
 12212              	.LLST54:
 12213 0a8c A8000000 		.4byte	.LVL141
 12214 0a90 AE000000 		.4byte	.LVL142
 12215 0a94 0100     		.2byte	0x1
 12216 0a96 50       		.byte	0x50
 12217 0a97 AE000000 		.4byte	.LVL142
 12218 0a9b D8000000 		.4byte	.LVL145
 12219 0a9f 0100     		.2byte	0x1
 12220 0aa1 54       		.byte	0x54
 12221 0aa2 E4000000 		.4byte	.LVL147
ARM GAS  /tmp/ccPo84yg.s 			page 216


 12222 0aa6 E7000000 		.4byte	.LVL148-1
 12223 0aaa 0100     		.2byte	0x1
 12224 0aac 50       		.byte	0x50
 12225 0aad E7000000 		.4byte	.LVL148-1
 12226 0ab1 EA000000 		.4byte	.LVL149
 12227 0ab5 0100     		.2byte	0x1
 12228 0ab7 54       		.byte	0x54
 12229 0ab8 32010000 		.4byte	.LVL162
 12230 0abc 34010000 		.4byte	.LVL163
 12231 0ac0 0100     		.2byte	0x1
 12232 0ac2 50       		.byte	0x50
 12233 0ac3 34010000 		.4byte	.LVL163
 12234 0ac7 4C010000 		.4byte	.LFE12
 12235 0acb 0100     		.2byte	0x1
 12236 0acd 54       		.byte	0x54
 12237 0ace 00000000 		.4byte	0
 12238 0ad2 00000000 		.4byte	0
 12239              	.LLST55:
 12240 0ad6 36000000 		.4byte	.LVL132
 12241 0ada 3C000000 		.4byte	.LVL134
 12242 0ade 0100     		.2byte	0x1
 12243 0ae0 50       		.byte	0x50
 12244 0ae1 54000000 		.4byte	.LVL135
 12245 0ae5 60000000 		.4byte	.LVL136
 12246 0ae9 0100     		.2byte	0x1
 12247 0aeb 50       		.byte	0x50
 12248 0aec F2000000 		.4byte	.LVL151
 12249 0af0 F5000000 		.4byte	.LVL152-1
 12250 0af4 0100     		.2byte	0x1
 12251 0af6 50       		.byte	0x50
 12252 0af7 F8000000 		.4byte	.LVL153
 12253 0afb FA000000 		.4byte	.LVL154
 12254 0aff 0100     		.2byte	0x1
 12255 0b01 50       		.byte	0x50
 12256 0b02 10010000 		.4byte	.LVL158
 12257 0b06 12010000 		.4byte	.LVL159
 12258 0b0a 0100     		.2byte	0x1
 12259 0b0c 50       		.byte	0x50
 12260 0b0d 00000000 		.4byte	0
 12261 0b11 00000000 		.4byte	0
 12262              	.LLST57:
 12263 0b15 18000000 		.4byte	.LVL130
 12264 0b19 D8000000 		.4byte	.LVL145
 12265 0b1d 0100     		.2byte	0x1
 12266 0b1f 55       		.byte	0x55
 12267 0b20 E4000000 		.4byte	.LVL147
 12268 0b24 4C010000 		.4byte	.LFE12
 12269 0b28 0100     		.2byte	0x1
 12270 0b2a 55       		.byte	0x55
 12271 0b2b 00000000 		.4byte	0
 12272 0b2f 00000000 		.4byte	0
 12273              	.LLST58:
 12274 0b33 00000000 		.4byte	.LFB13
 12275 0b37 02000000 		.4byte	.LCFI12
 12276 0b3b 0200     		.2byte	0x2
 12277 0b3d 7D       		.byte	0x7d
 12278 0b3e 00       		.sleb128 0
ARM GAS  /tmp/ccPo84yg.s 			page 217


 12279 0b3f 02000000 		.4byte	.LCFI12
 12280 0b43 06000000 		.4byte	.LCFI13
 12281 0b47 0200     		.2byte	0x2
 12282 0b49 7D       		.byte	0x7d
 12283 0b4a 10       		.sleb128 16
 12284 0b4b 06000000 		.4byte	.LCFI13
 12285 0b4f 78000000 		.4byte	.LFE13
 12286 0b53 0200     		.2byte	0x2
 12287 0b55 7D       		.byte	0x7d
 12288 0b56 18       		.sleb128 24
 12289 0b57 00000000 		.4byte	0
 12290 0b5b 00000000 		.4byte	0
 12291              	.LLST59:
 12292 0b5f 00000000 		.4byte	.LVL165
 12293 0b63 0C000000 		.4byte	.LVL166
 12294 0b67 0100     		.2byte	0x1
 12295 0b69 50       		.byte	0x50
 12296 0b6a 0C000000 		.4byte	.LVL166
 12297 0b6e 78000000 		.4byte	.LFE13
 12298 0b72 0400     		.2byte	0x4
 12299 0b74 F3       		.byte	0xf3
 12300 0b75 01       		.uleb128 0x1
 12301 0b76 50       		.byte	0x50
 12302 0b77 9F       		.byte	0x9f
 12303 0b78 00000000 		.4byte	0
 12304 0b7c 00000000 		.4byte	0
 12305              	.LLST60:
 12306 0b80 00000000 		.4byte	.LVL165
 12307 0b84 31000000 		.4byte	.LVL171-1
 12308 0b88 0100     		.2byte	0x1
 12309 0b8a 51       		.byte	0x51
 12310 0b8b 31000000 		.4byte	.LVL171-1
 12311 0b8f 42000000 		.4byte	.LVL173
 12312 0b93 0400     		.2byte	0x4
 12313 0b95 F3       		.byte	0xf3
 12314 0b96 01       		.uleb128 0x1
 12315 0b97 51       		.byte	0x51
 12316 0b98 9F       		.byte	0x9f
 12317 0b99 42000000 		.4byte	.LVL173
 12318 0b9d 46000000 		.4byte	.LVL174
 12319 0ba1 0100     		.2byte	0x1
 12320 0ba3 51       		.byte	0x51
 12321 0ba4 46000000 		.4byte	.LVL174
 12322 0ba8 4A000000 		.4byte	.LVL175
 12323 0bac 0400     		.2byte	0x4
 12324 0bae F3       		.byte	0xf3
 12325 0baf 01       		.uleb128 0x1
 12326 0bb0 51       		.byte	0x51
 12327 0bb1 9F       		.byte	0x9f
 12328 0bb2 4A000000 		.4byte	.LVL175
 12329 0bb6 4D000000 		.4byte	.LVL176-1
 12330 0bba 0100     		.2byte	0x1
 12331 0bbc 51       		.byte	0x51
 12332 0bbd 4D000000 		.4byte	.LVL176-1
 12333 0bc1 78000000 		.4byte	.LFE13
 12334 0bc5 0400     		.2byte	0x4
 12335 0bc7 F3       		.byte	0xf3
ARM GAS  /tmp/ccPo84yg.s 			page 218


 12336 0bc8 01       		.uleb128 0x1
 12337 0bc9 51       		.byte	0x51
 12338 0bca 9F       		.byte	0x9f
 12339 0bcb 00000000 		.4byte	0
 12340 0bcf 00000000 		.4byte	0
 12341              	.LLST61:
 12342 0bd3 00000000 		.4byte	.LVL165
 12343 0bd7 22000000 		.4byte	.LVL168
 12344 0bdb 0100     		.2byte	0x1
 12345 0bdd 52       		.byte	0x52
 12346 0bde 22000000 		.4byte	.LVL168
 12347 0be2 42000000 		.4byte	.LVL173
 12348 0be6 0400     		.2byte	0x4
 12349 0be8 F3       		.byte	0xf3
 12350 0be9 01       		.uleb128 0x1
 12351 0bea 52       		.byte	0x52
 12352 0beb 9F       		.byte	0x9f
 12353 0bec 42000000 		.4byte	.LVL173
 12354 0bf0 46000000 		.4byte	.LVL174
 12355 0bf4 0100     		.2byte	0x1
 12356 0bf6 52       		.byte	0x52
 12357 0bf7 46000000 		.4byte	.LVL174
 12358 0bfb 78000000 		.4byte	.LFE13
 12359 0bff 0400     		.2byte	0x4
 12360 0c01 F3       		.byte	0xf3
 12361 0c02 01       		.uleb128 0x1
 12362 0c03 52       		.byte	0x52
 12363 0c04 9F       		.byte	0x9f
 12364 0c05 00000000 		.4byte	0
 12365 0c09 00000000 		.4byte	0
 12366              	.LLST62:
 12367 0c0d 2E000000 		.4byte	.LVL170
 12368 0c11 31000000 		.4byte	.LVL171-1
 12369 0c15 0200     		.2byte	0x2
 12370 0c17 71       		.byte	0x71
 12371 0c18 02       		.sleb128 2
 12372 0c19 00000000 		.4byte	0
 12373 0c1d 00000000 		.4byte	0
 12374              	.LLST63:
 12375 0c21 3C000000 		.4byte	.LVL172
 12376 0c25 42000000 		.4byte	.LVL173
 12377 0c29 0100     		.2byte	0x1
 12378 0c2b 50       		.byte	0x50
 12379 0c2c 58000000 		.4byte	.LVL177
 12380 0c30 5A000000 		.4byte	.LVL178
 12381 0c34 0100     		.2byte	0x1
 12382 0c36 50       		.byte	0x50
 12383 0c37 00000000 		.4byte	0
 12384 0c3b 00000000 		.4byte	0
 12385              	.LLST64:
 12386 0c3f 24000000 		.4byte	.LVL169
 12387 0c43 31000000 		.4byte	.LVL171-1
 12388 0c47 0100     		.2byte	0x1
 12389 0c49 51       		.byte	0x51
 12390 0c4a 31000000 		.4byte	.LVL171-1
 12391 0c4e 42000000 		.4byte	.LVL173
 12392 0c52 0400     		.2byte	0x4
ARM GAS  /tmp/ccPo84yg.s 			page 219


 12393 0c54 F3       		.byte	0xf3
 12394 0c55 01       		.uleb128 0x1
 12395 0c56 51       		.byte	0x51
 12396 0c57 9F       		.byte	0x9f
 12397 0c58 58000000 		.4byte	.LVL177
 12398 0c5c 78000000 		.4byte	.LFE13
 12399 0c60 0400     		.2byte	0x4
 12400 0c62 F3       		.byte	0xf3
 12401 0c63 01       		.uleb128 0x1
 12402 0c64 51       		.byte	0x51
 12403 0c65 9F       		.byte	0x9f
 12404 0c66 00000000 		.4byte	0
 12405 0c6a 00000000 		.4byte	0
 12406              	.LLST66:
 12407 0c6e 12000000 		.4byte	.LVL167
 12408 0c72 42000000 		.4byte	.LVL173
 12409 0c76 0100     		.2byte	0x1
 12410 0c78 56       		.byte	0x56
 12411 0c79 4A000000 		.4byte	.LVL175
 12412 0c7d 78000000 		.4byte	.LFE13
 12413 0c81 0100     		.2byte	0x1
 12414 0c83 56       		.byte	0x56
 12415 0c84 00000000 		.4byte	0
 12416 0c88 00000000 		.4byte	0
 12417              	.LLST67:
 12418 0c8c 00000000 		.4byte	.LFB14
 12419 0c90 06000000 		.4byte	.LCFI14
 12420 0c94 0200     		.2byte	0x2
 12421 0c96 7D       		.byte	0x7d
 12422 0c97 00       		.sleb128 0
 12423 0c98 06000000 		.4byte	.LCFI14
 12424 0c9c 58000000 		.4byte	.LFE14
 12425 0ca0 0200     		.2byte	0x2
 12426 0ca2 7D       		.byte	0x7d
 12427 0ca3 18       		.sleb128 24
 12428 0ca4 00000000 		.4byte	0
 12429 0ca8 00000000 		.4byte	0
 12430              	.LLST68:
 12431 0cac 00000000 		.4byte	.LVL179
 12432 0cb0 0C000000 		.4byte	.LVL180
 12433 0cb4 0100     		.2byte	0x1
 12434 0cb6 50       		.byte	0x50
 12435 0cb7 0C000000 		.4byte	.LVL180
 12436 0cbb 58000000 		.4byte	.LFE14
 12437 0cbf 0400     		.2byte	0x4
 12438 0cc1 F3       		.byte	0xf3
 12439 0cc2 01       		.uleb128 0x1
 12440 0cc3 50       		.byte	0x50
 12441 0cc4 9F       		.byte	0x9f
 12442 0cc5 00000000 		.4byte	0
 12443 0cc9 00000000 		.4byte	0
 12444              	.LLST69:
 12445 0ccd 00000000 		.4byte	.LVL179
 12446 0cd1 1C000000 		.4byte	.LVL182
 12447 0cd5 0200     		.2byte	0x2
 12448 0cd7 30       		.byte	0x30
 12449 0cd8 9F       		.byte	0x9f
ARM GAS  /tmp/ccPo84yg.s 			page 220


 12450 0cd9 1C000000 		.4byte	.LVL182
 12451 0cdd 3E000000 		.4byte	.LVL186
 12452 0ce1 0B00     		.2byte	0xb
 12453 0ce3 78       		.byte	0x78
 12454 0ce4 00       		.sleb128 0
 12455 0ce5 08       		.byte	0x8
 12456 0ce6 FF       		.byte	0xff
 12457 0ce7 1A       		.byte	0x1a
 12458 0ce8 40       		.byte	0x40
 12459 0ce9 29       		.byte	0x29
 12460 0cea 08       		.byte	0x8
 12461 0ceb FF       		.byte	0xff
 12462 0cec 1A       		.byte	0x1a
 12463 0ced 9F       		.byte	0x9f
 12464 0cee 3E000000 		.4byte	.LVL186
 12465 0cf2 46000000 		.4byte	.LVL187
 12466 0cf6 0200     		.2byte	0x2
 12467 0cf8 30       		.byte	0x30
 12468 0cf9 9F       		.byte	0x9f
 12469 0cfa 46000000 		.4byte	.LVL187
 12470 0cfe 58000000 		.4byte	.LFE14
 12471 0d02 0B00     		.2byte	0xb
 12472 0d04 78       		.byte	0x78
 12473 0d05 00       		.sleb128 0
 12474 0d06 08       		.byte	0x8
 12475 0d07 FF       		.byte	0xff
 12476 0d08 1A       		.byte	0x1a
 12477 0d09 40       		.byte	0x40
 12478 0d0a 29       		.byte	0x29
 12479 0d0b 08       		.byte	0x8
 12480 0d0c FF       		.byte	0xff
 12481 0d0d 1A       		.byte	0x1a
 12482 0d0e 9F       		.byte	0x9f
 12483 0d0f 00000000 		.4byte	0
 12484 0d13 00000000 		.4byte	0
 12485              	.LLST71:
 12486 0d17 12000000 		.4byte	.LVL181
 12487 0d1b 3E000000 		.4byte	.LVL186
 12488 0d1f 0100     		.2byte	0x1
 12489 0d21 55       		.byte	0x55
 12490 0d22 46000000 		.4byte	.LVL187
 12491 0d26 58000000 		.4byte	.LFE14
 12492 0d2a 0100     		.2byte	0x1
 12493 0d2c 55       		.byte	0x55
 12494 0d2d 00000000 		.4byte	0
 12495 0d31 00000000 		.4byte	0
 12496              	.LLST72:
 12497 0d35 20000000 		.4byte	.LVL183
 12498 0d39 3E000000 		.4byte	.LVL186
 12499 0d3d 0B00     		.2byte	0xb
 12500 0d3f 78       		.byte	0x78
 12501 0d40 00       		.sleb128 0
 12502 0d41 08       		.byte	0x8
 12503 0d42 FF       		.byte	0xff
 12504 0d43 1A       		.byte	0x1a
 12505 0d44 40       		.byte	0x40
 12506 0d45 29       		.byte	0x29
ARM GAS  /tmp/ccPo84yg.s 			page 221


 12507 0d46 08       		.byte	0x8
 12508 0d47 FF       		.byte	0xff
 12509 0d48 1A       		.byte	0x1a
 12510 0d49 9F       		.byte	0x9f
 12511 0d4a 46000000 		.4byte	.LVL187
 12512 0d4e 58000000 		.4byte	.LFE14
 12513 0d52 0B00     		.2byte	0xb
 12514 0d54 78       		.byte	0x78
 12515 0d55 00       		.sleb128 0
 12516 0d56 08       		.byte	0x8
 12517 0d57 FF       		.byte	0xff
 12518 0d58 1A       		.byte	0x1a
 12519 0d59 40       		.byte	0x40
 12520 0d5a 29       		.byte	0x29
 12521 0d5b 08       		.byte	0x8
 12522 0d5c FF       		.byte	0xff
 12523 0d5d 1A       		.byte	0x1a
 12524 0d5e 9F       		.byte	0x9f
 12525 0d5f 00000000 		.4byte	0
 12526 0d63 00000000 		.4byte	0
 12527              	.LLST73:
 12528 0d67 20000000 		.4byte	.LVL183
 12529 0d6b 3E000000 		.4byte	.LVL186
 12530 0d6f 0100     		.2byte	0x1
 12531 0d71 55       		.byte	0x55
 12532 0d72 46000000 		.4byte	.LVL187
 12533 0d76 58000000 		.4byte	.LFE14
 12534 0d7a 0100     		.2byte	0x1
 12535 0d7c 55       		.byte	0x55
 12536 0d7d 00000000 		.4byte	0
 12537 0d81 00000000 		.4byte	0
 12538              	.LLST74:
 12539 0d85 22000000 		.4byte	.LVL184
 12540 0d89 37000000 		.4byte	.LVL185-1
 12541 0d8d 0100     		.2byte	0x1
 12542 0d8f 50       		.byte	0x50
 12543 0d90 46000000 		.4byte	.LVL187
 12544 0d94 4D000000 		.4byte	.LVL188-1
 12545 0d98 0100     		.2byte	0x1
 12546 0d9a 50       		.byte	0x50
 12547 0d9b 00000000 		.4byte	0
 12548 0d9f 00000000 		.4byte	0
 12549              	.LLST75:
 12550 0da3 00000000 		.4byte	.LFB15
 12551 0da7 02000000 		.4byte	.LCFI15
 12552 0dab 0200     		.2byte	0x2
 12553 0dad 7D       		.byte	0x7d
 12554 0dae 00       		.sleb128 0
 12555 0daf 02000000 		.4byte	.LCFI15
 12556 0db3 06000000 		.4byte	.LCFI16
 12557 0db7 0200     		.2byte	0x2
 12558 0db9 7D       		.byte	0x7d
 12559 0dba 10       		.sleb128 16
 12560 0dbb 06000000 		.4byte	.LCFI16
 12561 0dbf 78000000 		.4byte	.LFE15
 12562 0dc3 0200     		.2byte	0x2
 12563 0dc5 7D       		.byte	0x7d
ARM GAS  /tmp/ccPo84yg.s 			page 222


 12564 0dc6 18       		.sleb128 24
 12565 0dc7 00000000 		.4byte	0
 12566 0dcb 00000000 		.4byte	0
 12567              	.LLST76:
 12568 0dcf 00000000 		.4byte	.LVL189
 12569 0dd3 0C000000 		.4byte	.LVL190
 12570 0dd7 0100     		.2byte	0x1
 12571 0dd9 50       		.byte	0x50
 12572 0dda 0C000000 		.4byte	.LVL190
 12573 0dde 78000000 		.4byte	.LFE15
 12574 0de2 0400     		.2byte	0x4
 12575 0de4 F3       		.byte	0xf3
 12576 0de5 01       		.uleb128 0x1
 12577 0de6 50       		.byte	0x50
 12578 0de7 9F       		.byte	0x9f
 12579 0de8 00000000 		.4byte	0
 12580 0dec 00000000 		.4byte	0
 12581              	.LLST77:
 12582 0df0 00000000 		.4byte	.LVL189
 12583 0df4 31000000 		.4byte	.LVL194-1
 12584 0df8 0100     		.2byte	0x1
 12585 0dfa 51       		.byte	0x51
 12586 0dfb 31000000 		.4byte	.LVL194-1
 12587 0dff 42000000 		.4byte	.LVL196
 12588 0e03 0400     		.2byte	0x4
 12589 0e05 F3       		.byte	0xf3
 12590 0e06 01       		.uleb128 0x1
 12591 0e07 51       		.byte	0x51
 12592 0e08 9F       		.byte	0x9f
 12593 0e09 42000000 		.4byte	.LVL196
 12594 0e0d 46000000 		.4byte	.LVL197
 12595 0e11 0100     		.2byte	0x1
 12596 0e13 51       		.byte	0x51
 12597 0e14 46000000 		.4byte	.LVL197
 12598 0e18 4A000000 		.4byte	.LVL198
 12599 0e1c 0400     		.2byte	0x4
 12600 0e1e F3       		.byte	0xf3
 12601 0e1f 01       		.uleb128 0x1
 12602 0e20 51       		.byte	0x51
 12603 0e21 9F       		.byte	0x9f
 12604 0e22 4A000000 		.4byte	.LVL198
 12605 0e26 4D000000 		.4byte	.LVL199-1
 12606 0e2a 0100     		.2byte	0x1
 12607 0e2c 51       		.byte	0x51
 12608 0e2d 4D000000 		.4byte	.LVL199-1
 12609 0e31 78000000 		.4byte	.LFE15
 12610 0e35 0400     		.2byte	0x4
 12611 0e37 F3       		.byte	0xf3
 12612 0e38 01       		.uleb128 0x1
 12613 0e39 51       		.byte	0x51
 12614 0e3a 9F       		.byte	0x9f
 12615 0e3b 00000000 		.4byte	0
 12616 0e3f 00000000 		.4byte	0
 12617              	.LLST78:
 12618 0e43 00000000 		.4byte	.LVL189
 12619 0e47 31000000 		.4byte	.LVL194-1
 12620 0e4b 0100     		.2byte	0x1
ARM GAS  /tmp/ccPo84yg.s 			page 223


 12621 0e4d 52       		.byte	0x52
 12622 0e4e 31000000 		.4byte	.LVL194-1
 12623 0e52 42000000 		.4byte	.LVL196
 12624 0e56 0400     		.2byte	0x4
 12625 0e58 F3       		.byte	0xf3
 12626 0e59 01       		.uleb128 0x1
 12627 0e5a 52       		.byte	0x52
 12628 0e5b 9F       		.byte	0x9f
 12629 0e5c 42000000 		.4byte	.LVL196
 12630 0e60 46000000 		.4byte	.LVL197
 12631 0e64 0100     		.2byte	0x1
 12632 0e66 52       		.byte	0x52
 12633 0e67 46000000 		.4byte	.LVL197
 12634 0e6b 4A000000 		.4byte	.LVL198
 12635 0e6f 0400     		.2byte	0x4
 12636 0e71 F3       		.byte	0xf3
 12637 0e72 01       		.uleb128 0x1
 12638 0e73 52       		.byte	0x52
 12639 0e74 9F       		.byte	0x9f
 12640 0e75 4A000000 		.4byte	.LVL198
 12641 0e79 4D000000 		.4byte	.LVL199-1
 12642 0e7d 0100     		.2byte	0x1
 12643 0e7f 52       		.byte	0x52
 12644 0e80 4D000000 		.4byte	.LVL199-1
 12645 0e84 78000000 		.4byte	.LFE15
 12646 0e88 0400     		.2byte	0x4
 12647 0e8a F3       		.byte	0xf3
 12648 0e8b 01       		.uleb128 0x1
 12649 0e8c 52       		.byte	0x52
 12650 0e8d 9F       		.byte	0x9f
 12651 0e8e 00000000 		.4byte	0
 12652 0e92 00000000 		.4byte	0
 12653              	.LLST79:
 12654 0e96 3C000000 		.4byte	.LVL195
 12655 0e9a 42000000 		.4byte	.LVL196
 12656 0e9e 0100     		.2byte	0x1
 12657 0ea0 50       		.byte	0x50
 12658 0ea1 58000000 		.4byte	.LVL200
 12659 0ea5 5A000000 		.4byte	.LVL201
 12660 0ea9 0100     		.2byte	0x1
 12661 0eab 50       		.byte	0x50
 12662 0eac 00000000 		.4byte	0
 12663 0eb0 00000000 		.4byte	0
 12664              	.LLST80:
 12665 0eb4 24000000 		.4byte	.LVL192
 12666 0eb8 31000000 		.4byte	.LVL194-1
 12667 0ebc 0100     		.2byte	0x1
 12668 0ebe 51       		.byte	0x51
 12669 0ebf 31000000 		.4byte	.LVL194-1
 12670 0ec3 42000000 		.4byte	.LVL196
 12671 0ec7 0400     		.2byte	0x4
 12672 0ec9 F3       		.byte	0xf3
 12673 0eca 01       		.uleb128 0x1
 12674 0ecb 51       		.byte	0x51
 12675 0ecc 9F       		.byte	0x9f
 12676 0ecd 58000000 		.4byte	.LVL200
 12677 0ed1 78000000 		.4byte	.LFE15
ARM GAS  /tmp/ccPo84yg.s 			page 224


 12678 0ed5 0400     		.2byte	0x4
 12679 0ed7 F3       		.byte	0xf3
 12680 0ed8 01       		.uleb128 0x1
 12681 0ed9 51       		.byte	0x51
 12682 0eda 9F       		.byte	0x9f
 12683 0edb 00000000 		.4byte	0
 12684 0edf 00000000 		.4byte	0
 12685              	.LLST82:
 12686 0ee3 12000000 		.4byte	.LVL191
 12687 0ee7 42000000 		.4byte	.LVL196
 12688 0eeb 0100     		.2byte	0x1
 12689 0eed 55       		.byte	0x55
 12690 0eee 4A000000 		.4byte	.LVL198
 12691 0ef2 78000000 		.4byte	.LFE15
 12692 0ef6 0100     		.2byte	0x1
 12693 0ef8 55       		.byte	0x55
 12694 0ef9 00000000 		.4byte	0
 12695 0efd 00000000 		.4byte	0
 12696              	.LLST83:
 12697 0f01 2E000000 		.4byte	.LVL193
 12698 0f05 31000000 		.4byte	.LVL194-1
 12699 0f09 0200     		.2byte	0x2
 12700 0f0b 71       		.byte	0x71
 12701 0f0c 02       		.sleb128 2
 12702 0f0d 00000000 		.4byte	0
 12703 0f11 00000000 		.4byte	0
 12704              	.LLST84:
 12705 0f15 00000000 		.4byte	.LFB16
 12706 0f19 04000000 		.4byte	.LCFI17
 12707 0f1d 0200     		.2byte	0x2
 12708 0f1f 7D       		.byte	0x7d
 12709 0f20 00       		.sleb128 0
 12710 0f21 04000000 		.4byte	.LCFI17
 12711 0f25 50000000 		.4byte	.LFE16
 12712 0f29 0200     		.2byte	0x2
 12713 0f2b 7D       		.byte	0x7d
 12714 0f2c 08       		.sleb128 8
 12715 0f2d 00000000 		.4byte	0
 12716 0f31 00000000 		.4byte	0
 12717              	.LLST85:
 12718 0f35 00000000 		.4byte	.LVL202
 12719 0f39 0A000000 		.4byte	.LVL203
 12720 0f3d 0100     		.2byte	0x1
 12721 0f3f 50       		.byte	0x50
 12722 0f40 0A000000 		.4byte	.LVL203
 12723 0f44 50000000 		.4byte	.LFE16
 12724 0f48 0400     		.2byte	0x4
 12725 0f4a F3       		.byte	0xf3
 12726 0f4b 01       		.uleb128 0x1
 12727 0f4c 50       		.byte	0x50
 12728 0f4d 9F       		.byte	0x9f
 12729 0f4e 00000000 		.4byte	0
 12730 0f52 00000000 		.4byte	0
 12731              	.LLST86:
 12732 0f56 00000000 		.4byte	.LVL202
 12733 0f5a 1A000000 		.4byte	.LVL205
 12734 0f5e 0100     		.2byte	0x1
ARM GAS  /tmp/ccPo84yg.s 			page 225


 12735 0f60 51       		.byte	0x51
 12736 0f61 24000000 		.4byte	.LVL207
 12737 0f65 2E000000 		.4byte	.LVL209
 12738 0f69 0100     		.2byte	0x1
 12739 0f6b 51       		.byte	0x51
 12740 0f6c 2E000000 		.4byte	.LVL209
 12741 0f70 32000000 		.4byte	.LVL210
 12742 0f74 0400     		.2byte	0x4
 12743 0f76 F3       		.byte	0xf3
 12744 0f77 01       		.uleb128 0x1
 12745 0f78 51       		.byte	0x51
 12746 0f79 9F       		.byte	0x9f
 12747 0f7a 00000000 		.4byte	0
 12748 0f7e 00000000 		.4byte	0
 12749              	.LLST87:
 12750 0f82 1E000000 		.4byte	.LVL206
 12751 0f86 24000000 		.4byte	.LVL207
 12752 0f8a 0100     		.2byte	0x1
 12753 0f8c 50       		.byte	0x50
 12754 0f8d 32000000 		.4byte	.LVL210
 12755 0f91 34000000 		.4byte	.LVL211
 12756 0f95 0100     		.2byte	0x1
 12757 0f97 50       		.byte	0x50
 12758 0f98 00000000 		.4byte	0
 12759 0f9c 00000000 		.4byte	0
 12760              	.LLST89:
 12761 0fa0 10000000 		.4byte	.LVL204
 12762 0fa4 24000000 		.4byte	.LVL207
 12763 0fa8 0100     		.2byte	0x1
 12764 0faa 54       		.byte	0x54
 12765 0fab 2A000000 		.4byte	.LVL208
 12766 0faf 50000000 		.4byte	.LFE16
 12767 0fb3 0100     		.2byte	0x1
 12768 0fb5 54       		.byte	0x54
 12769 0fb6 00000000 		.4byte	0
 12770 0fba 00000000 		.4byte	0
 12771              	.LLST90:
 12772 0fbe 00000000 		.4byte	.LFB17
 12773 0fc2 04000000 		.4byte	.LCFI18
 12774 0fc6 0200     		.2byte	0x2
 12775 0fc8 7D       		.byte	0x7d
 12776 0fc9 00       		.sleb128 0
 12777 0fca 04000000 		.4byte	.LCFI18
 12778 0fce 06000000 		.4byte	.LCFI19
 12779 0fd2 0200     		.2byte	0x2
 12780 0fd4 7D       		.byte	0x7d
 12781 0fd5 24       		.sleb128 36
 12782 0fd6 06000000 		.4byte	.LCFI19
 12783 0fda 14020000 		.4byte	.LFE17
 12784 0fde 0300     		.2byte	0x3
 12785 0fe0 7D       		.byte	0x7d
 12786 0fe1 D800     		.sleb128 88
 12787 0fe3 00000000 		.4byte	0
 12788 0fe7 00000000 		.4byte	0
 12789              	.LLST91:
 12790 0feb 00000000 		.4byte	.LVL212
 12791 0fef 18000000 		.4byte	.LVL214
ARM GAS  /tmp/ccPo84yg.s 			page 226


 12792 0ff3 0100     		.2byte	0x1
 12793 0ff5 50       		.byte	0x50
 12794 0ff6 18000000 		.4byte	.LVL214
 12795 0ffa 14020000 		.4byte	.LFE17
 12796 0ffe 0400     		.2byte	0x4
 12797 1000 F3       		.byte	0xf3
 12798 1001 01       		.uleb128 0x1
 12799 1002 50       		.byte	0x50
 12800 1003 9F       		.byte	0x9f
 12801 1004 00000000 		.4byte	0
 12802 1008 00000000 		.4byte	0
 12803              	.LLST92:
 12804 100c 00000000 		.4byte	.LVL212
 12805 1010 3A000000 		.4byte	.LVL219
 12806 1014 0100     		.2byte	0x1
 12807 1016 51       		.byte	0x51
 12808 1017 3A000000 		.4byte	.LVL219
 12809 101b F4000000 		.4byte	.LVL235
 12810 101f 0300     		.2byte	0x3
 12811 1021 91       		.byte	0x91
 12812 1022 AC7F     		.sleb128 -84
 12813 1024 F4000000 		.4byte	.LVL235
 12814 1028 F8000000 		.4byte	.LVL236
 12815 102c 0100     		.2byte	0x1
 12816 102e 51       		.byte	0x51
 12817 102f F8000000 		.4byte	.LVL236
 12818 1033 14020000 		.4byte	.LFE17
 12819 1037 0300     		.2byte	0x3
 12820 1039 91       		.byte	0x91
 12821 103a AC7F     		.sleb128 -84
 12822 103c 00000000 		.4byte	0
 12823 1040 00000000 		.4byte	0
 12824              	.LLST93:
 12825 1044 00000000 		.4byte	.LVL212
 12826 1048 2E000000 		.4byte	.LVL218
 12827 104c 0100     		.2byte	0x1
 12828 104e 52       		.byte	0x52
 12829 104f 2E000000 		.4byte	.LVL218
 12830 1053 F4000000 		.4byte	.LVL235
 12831 1057 0100     		.2byte	0x1
 12832 1059 57       		.byte	0x57
 12833 105a F4000000 		.4byte	.LVL235
 12834 105e F8000000 		.4byte	.LVL236
 12835 1062 0100     		.2byte	0x1
 12836 1064 52       		.byte	0x52
 12837 1065 F8000000 		.4byte	.LVL236
 12838 1069 5A010000 		.4byte	.LVL245
 12839 106d 0100     		.2byte	0x1
 12840 106f 57       		.byte	0x57
 12841 1070 5A010000 		.4byte	.LVL245
 12842 1074 5E010000 		.4byte	.LVL246
 12843 1078 0600     		.2byte	0x6
 12844 107a 77       		.byte	0x77
 12845 107b 00       		.sleb128 0
 12846 107c 7B       		.byte	0x7b
 12847 107d 00       		.sleb128 0
 12848 107e 1C       		.byte	0x1c
ARM GAS  /tmp/ccPo84yg.s 			page 227


 12849 107f 9F       		.byte	0x9f
 12850 1080 5E010000 		.4byte	.LVL246
 12851 1084 14020000 		.4byte	.LFE17
 12852 1088 0100     		.2byte	0x1
 12853 108a 57       		.byte	0x57
 12854 108b 00000000 		.4byte	0
 12855 108f 00000000 		.4byte	0
 12856              	.LLST94:
 12857 1093 00000000 		.4byte	.LVL212
 12858 1097 1A000000 		.4byte	.LVL215
 12859 109b 0100     		.2byte	0x1
 12860 109d 53       		.byte	0x53
 12861 109e 1A000000 		.4byte	.LVL215
 12862 10a2 3A000000 		.4byte	.LVL219
 12863 10a6 0100     		.2byte	0x1
 12864 10a8 5B       		.byte	0x5b
 12865 10a9 3A000000 		.4byte	.LVL219
 12866 10ad F4000000 		.4byte	.LVL235
 12867 10b1 0300     		.2byte	0x3
 12868 10b3 91       		.byte	0x91
 12869 10b4 B07F     		.sleb128 -80
 12870 10b6 F4000000 		.4byte	.LVL235
 12871 10ba F8000000 		.4byte	.LVL236
 12872 10be 0100     		.2byte	0x1
 12873 10c0 5B       		.byte	0x5b
 12874 10c1 F8000000 		.4byte	.LVL236
 12875 10c5 00010000 		.4byte	.LVL237
 12876 10c9 0400     		.2byte	0x4
 12877 10cb F3       		.byte	0xf3
 12878 10cc 01       		.uleb128 0x1
 12879 10cd 53       		.byte	0x53
 12880 10ce 9F       		.byte	0x9f
 12881 10cf 00010000 		.4byte	.LVL237
 12882 10d3 14020000 		.4byte	.LFE17
 12883 10d7 0300     		.2byte	0x3
 12884 10d9 91       		.byte	0x91
 12885 10da B07F     		.sleb128 -80
 12886 10dc 00000000 		.4byte	0
 12887 10e0 00000000 		.4byte	0
 12888              	.LLST95:
 12889 10e4 48000000 		.4byte	.LVL220
 12890 10e8 74000000 		.4byte	.LVL227
 12891 10ec 0100     		.2byte	0x1
 12892 10ee 54       		.byte	0x54
 12893 10ef 56010000 		.4byte	.LVL244
 12894 10f3 64010000 		.4byte	.LVL247
 12895 10f7 0100     		.2byte	0x1
 12896 10f9 54       		.byte	0x54
 12897 10fa A0010000 		.4byte	.LVL250
 12898 10fe A6010000 		.4byte	.LVL252
 12899 1102 0100     		.2byte	0x1
 12900 1104 54       		.byte	0x54
 12901 1105 00000000 		.4byte	0
 12902 1109 00000000 		.4byte	0
 12903              	.LLST96:
 12904 110d 4E000000 		.4byte	.LVL221
 12905 1111 56000000 		.4byte	.LVL222
ARM GAS  /tmp/ccPo84yg.s 			page 228


 12906 1115 0200     		.2byte	0x2
 12907 1117 74       		.byte	0x74
 12908 1118 08       		.sleb128 8
 12909 1119 56000000 		.4byte	.LVL222
 12910 111d E4000000 		.4byte	.LVL232
 12911 1121 0100     		.2byte	0x1
 12912 1123 58       		.byte	0x58
 12913 1124 00010000 		.4byte	.LVL237
 12914 1128 1C010000 		.4byte	.LVL240
 12915 112c 0100     		.2byte	0x1
 12916 112e 58       		.byte	0x58
 12917 112f 56010000 		.4byte	.LVL244
 12918 1133 86010000 		.4byte	.LVL249
 12919 1137 0100     		.2byte	0x1
 12920 1139 58       		.byte	0x58
 12921 113a A0010000 		.4byte	.LVL250
 12922 113e A6010000 		.4byte	.LVL252
 12923 1142 0100     		.2byte	0x1
 12924 1144 58       		.byte	0x58
 12925 1145 C0010000 		.4byte	.LVL256
 12926 1149 D0010000 		.4byte	.LVL260
 12927 114d 0100     		.2byte	0x1
 12928 114f 58       		.byte	0x58
 12929 1150 00000000 		.4byte	0
 12930 1154 00000000 		.4byte	0
 12931              	.LLST97:
 12932 1158 5E000000 		.4byte	.LVL223
 12933 115c E6000000 		.4byte	.LVL233
 12934 1160 0100     		.2byte	0x1
 12935 1162 5B       		.byte	0x5b
 12936 1163 00010000 		.4byte	.LVL237
 12937 1167 22010000 		.4byte	.LVL241
 12938 116b 0100     		.2byte	0x1
 12939 116d 5B       		.byte	0x5b
 12940 116e 56010000 		.4byte	.LVL244
 12941 1172 A6010000 		.4byte	.LVL252
 12942 1176 0100     		.2byte	0x1
 12943 1178 5B       		.byte	0x5b
 12944 1179 AC010000 		.4byte	.LVL254
 12945 117d D0010000 		.4byte	.LVL260
 12946 1181 0100     		.2byte	0x1
 12947 1183 5B       		.byte	0x5b
 12948 1184 00000000 		.4byte	0
 12949 1188 00000000 		.4byte	0
 12950              	.LLST98:
 12951 118c 0C000000 		.4byte	.LVL213
 12952 1190 24000000 		.4byte	.LVL217
 12953 1194 0200     		.2byte	0x2
 12954 1196 30       		.byte	0x30
 12955 1197 9F       		.byte	0x9f
 12956 1198 24000000 		.4byte	.LVL217
 12957 119c F4000000 		.4byte	.LVL235
 12958 11a0 0100     		.2byte	0x1
 12959 11a2 56       		.byte	0x56
 12960 11a3 F4000000 		.4byte	.LVL235
 12961 11a7 F8000000 		.4byte	.LVL236
 12962 11ab 0200     		.2byte	0x2
ARM GAS  /tmp/ccPo84yg.s 			page 229


 12963 11ad 30       		.byte	0x30
 12964 11ae 9F       		.byte	0x9f
 12965 11af 00010000 		.4byte	.LVL237
 12966 11b3 FA010000 		.4byte	.LVL264
 12967 11b7 0100     		.2byte	0x1
 12968 11b9 56       		.byte	0x56
 12969 11ba FC010000 		.4byte	.LVL265
 12970 11be 0A020000 		.4byte	.LVL266
 12971 11c2 0100     		.2byte	0x1
 12972 11c4 56       		.byte	0x56
 12973 11c5 00000000 		.4byte	0
 12974 11c9 00000000 		.4byte	0
 12975              	.LLST99:
 12976 11cd 96000000 		.4byte	.LVL229
 12977 11d1 BF000000 		.4byte	.LVL230-1
 12978 11d5 0100     		.2byte	0x1
 12979 11d7 53       		.byte	0x53
 12980 11d8 C0010000 		.4byte	.LVL256
 12981 11dc C4010000 		.4byte	.LVL257
 12982 11e0 0300     		.2byte	0x3
 12983 11e2 91       		.byte	0x91
 12984 11e3 44       		.sleb128 -60
 12985 11e4 9F       		.byte	0x9f
 12986 11e5 C4010000 		.4byte	.LVL257
 12987 11e9 CB010000 		.4byte	.LVL258-1
 12988 11ed 0100     		.2byte	0x1
 12989 11ef 51       		.byte	0x51
 12990 11f0 CB010000 		.4byte	.LVL258-1
 12991 11f4 CE010000 		.4byte	.LVL259
 12992 11f8 0300     		.2byte	0x3
 12993 11fa 91       		.byte	0x91
 12994 11fb 44       		.sleb128 -60
 12995 11fc 9F       		.byte	0x9f
 12996 11fd CE010000 		.4byte	.LVL259
 12997 1201 D0010000 		.4byte	.LVL260
 12998 1205 0100     		.2byte	0x1
 12999 1207 53       		.byte	0x53
 13000 1208 00000000 		.4byte	0
 13001 120c 00000000 		.4byte	0
 13002              	.LLST100:
 13003 1210 3A000000 		.4byte	.LVL219
 13004 1214 F4000000 		.4byte	.LVL235
 13005 1218 0300     		.2byte	0x3
 13006 121a 91       		.byte	0x91
 13007 121b BE7F     		.sleb128 -66
 13008 121d F8000000 		.4byte	.LVL236
 13009 1221 14020000 		.4byte	.LFE17
 13010 1225 0300     		.2byte	0x3
 13011 1227 91       		.byte	0x91
 13012 1228 BE7F     		.sleb128 -66
 13013 122a 00000000 		.4byte	0
 13014 122e 00000000 		.4byte	0
 13015              	.LLST101:
 13016 1232 0C000000 		.4byte	.LVL213
 13017 1236 7A000000 		.4byte	.LVL228
 13018 123a 0200     		.2byte	0x2
 13019 123c 30       		.byte	0x30
ARM GAS  /tmp/ccPo84yg.s 			page 230


 13020 123d 9F       		.byte	0x9f
 13021 123e 7A000000 		.4byte	.LVL228
 13022 1242 E4000000 		.4byte	.LVL232
 13023 1246 0200     		.2byte	0x2
 13024 1248 31       		.byte	0x31
 13025 1249 9F       		.byte	0x9f
 13026 124a F4000000 		.4byte	.LVL235
 13027 124e F8000000 		.4byte	.LVL236
 13028 1252 0200     		.2byte	0x2
 13029 1254 30       		.byte	0x30
 13030 1255 9F       		.byte	0x9f
 13031 1256 00010000 		.4byte	.LVL237
 13032 125a 02010000 		.4byte	.LVL238
 13033 125e 0200     		.2byte	0x2
 13034 1260 31       		.byte	0x31
 13035 1261 9F       		.byte	0x9f
 13036 1262 1C010000 		.4byte	.LVL240
 13037 1266 82010000 		.4byte	.LVL248
 13038 126a 0200     		.2byte	0x2
 13039 126c 30       		.byte	0x30
 13040 126d 9F       		.byte	0x9f
 13041 126e A0010000 		.4byte	.LVL250
 13042 1272 AC010000 		.4byte	.LVL254
 13043 1276 0200     		.2byte	0x2
 13044 1278 30       		.byte	0x30
 13045 1279 9F       		.byte	0x9f
 13046 127a C0010000 		.4byte	.LVL256
 13047 127e D0010000 		.4byte	.LVL260
 13048 1282 0200     		.2byte	0x2
 13049 1284 31       		.byte	0x31
 13050 1285 9F       		.byte	0x9f
 13051 1286 D0010000 		.4byte	.LVL260
 13052 128a 14020000 		.4byte	.LFE17
 13053 128e 0200     		.2byte	0x2
 13054 1290 30       		.byte	0x30
 13055 1291 9F       		.byte	0x9f
 13056 1292 00000000 		.4byte	0
 13057 1296 00000000 		.4byte	0
 13058              	.LLST102:
 13059 129a 48010000 		.4byte	.LVL242
 13060 129e 52010000 		.4byte	.LVL243
 13061 12a2 0100     		.2byte	0x1
 13062 12a4 50       		.byte	0x50
 13063 12a5 AA010000 		.4byte	.LVL253
 13064 12a9 AC010000 		.4byte	.LVL254
 13065 12ad 0100     		.2byte	0x1
 13066 12af 50       		.byte	0x50
 13067 12b0 D0010000 		.4byte	.LVL260
 13068 12b4 D3010000 		.4byte	.LVL261-1
 13069 12b8 0100     		.2byte	0x1
 13070 12ba 50       		.byte	0x50
 13071 12bb D8010000 		.4byte	.LVL262
 13072 12bf DE010000 		.4byte	.LVL263
 13073 12c3 0100     		.2byte	0x1
 13074 12c5 50       		.byte	0x50
 13075 12c6 00000000 		.4byte	0
 13076 12ca 00000000 		.4byte	0
ARM GAS  /tmp/ccPo84yg.s 			page 231


 13077              	.LLST103:
 13078 12ce 0C000000 		.4byte	.LVL213
 13079 12d2 18000000 		.4byte	.LVL214
 13080 12d6 0100     		.2byte	0x1
 13081 12d8 50       		.byte	0x50
 13082 12d9 18000000 		.4byte	.LVL214
 13083 12dd 14020000 		.4byte	.LFE17
 13084 12e1 0400     		.2byte	0x4
 13085 12e3 F3       		.byte	0xf3
 13086 12e4 01       		.uleb128 0x1
 13087 12e5 50       		.byte	0x50
 13088 12e6 9F       		.byte	0x9f
 13089 12e7 00000000 		.4byte	0
 13090 12eb 00000000 		.4byte	0
 13091              	.LLST104:
 13092 12ef 1E000000 		.4byte	.LVL216
 13093 12f3 F4000000 		.4byte	.LVL235
 13094 12f7 0100     		.2byte	0x1
 13095 12f9 55       		.byte	0x55
 13096 12fa 00010000 		.4byte	.LVL237
 13097 12fe 14020000 		.4byte	.LFE17
 13098 1302 0100     		.2byte	0x1
 13099 1304 55       		.byte	0x55
 13100 1305 00000000 		.4byte	0
 13101 1309 00000000 		.4byte	0
 13102              	.LLST105:
 13103 130d 00000000 		.4byte	.LFB18
 13104 1311 02000000 		.4byte	.LCFI20
 13105 1315 0200     		.2byte	0x2
 13106 1317 7D       		.byte	0x7d
 13107 1318 00       		.sleb128 0
 13108 1319 02000000 		.4byte	.LCFI20
 13109 131d 04000000 		.4byte	.LCFI21
 13110 1321 0200     		.2byte	0x2
 13111 1323 7D       		.byte	0x7d
 13112 1324 04       		.sleb128 4
 13113 1325 04000000 		.4byte	.LCFI21
 13114 1329 12000000 		.4byte	.LFE18
 13115 132d 0200     		.2byte	0x2
 13116 132f 7D       		.byte	0x7d
 13117 1330 10       		.sleb128 16
 13118 1331 00000000 		.4byte	0
 13119 1335 00000000 		.4byte	0
 13120              	.LLST106:
 13121 1339 00000000 		.4byte	.LVL267
 13122 133d 0D000000 		.4byte	.LVL268-1
 13123 1341 0100     		.2byte	0x1
 13124 1343 50       		.byte	0x50
 13125 1344 0D000000 		.4byte	.LVL268-1
 13126 1348 12000000 		.4byte	.LFE18
 13127 134c 0400     		.2byte	0x4
 13128 134e F3       		.byte	0xf3
 13129 134f 01       		.uleb128 0x1
 13130 1350 50       		.byte	0x50
 13131 1351 9F       		.byte	0x9f
 13132 1352 00000000 		.4byte	0
 13133 1356 00000000 		.4byte	0
ARM GAS  /tmp/ccPo84yg.s 			page 232


 13134              	.LLST107:
 13135 135a 00000000 		.4byte	.LVL267
 13136 135e 0D000000 		.4byte	.LVL268-1
 13137 1362 0100     		.2byte	0x1
 13138 1364 51       		.byte	0x51
 13139 1365 0D000000 		.4byte	.LVL268-1
 13140 1369 12000000 		.4byte	.LFE18
 13141 136d 0400     		.2byte	0x4
 13142 136f F3       		.byte	0xf3
 13143 1370 01       		.uleb128 0x1
 13144 1371 51       		.byte	0x51
 13145 1372 9F       		.byte	0x9f
 13146 1373 00000000 		.4byte	0
 13147 1377 00000000 		.4byte	0
 13148              	.LLST108:
 13149 137b 00000000 		.4byte	.LVL267
 13150 137f 0D000000 		.4byte	.LVL268-1
 13151 1383 0100     		.2byte	0x1
 13152 1385 52       		.byte	0x52
 13153 1386 0D000000 		.4byte	.LVL268-1
 13154 138a 12000000 		.4byte	.LFE18
 13155 138e 0400     		.2byte	0x4
 13156 1390 F3       		.byte	0xf3
 13157 1391 01       		.uleb128 0x1
 13158 1392 52       		.byte	0x52
 13159 1393 9F       		.byte	0x9f
 13160 1394 00000000 		.4byte	0
 13161 1398 00000000 		.4byte	0
 13162              	.LLST109:
 13163 139c 00000000 		.4byte	.LFB19
 13164 13a0 02000000 		.4byte	.LCFI22
 13165 13a4 0200     		.2byte	0x2
 13166 13a6 7D       		.byte	0x7d
 13167 13a7 00       		.sleb128 0
 13168 13a8 02000000 		.4byte	.LCFI22
 13169 13ac 04000000 		.4byte	.LCFI23
 13170 13b0 0200     		.2byte	0x2
 13171 13b2 7D       		.byte	0x7d
 13172 13b3 08       		.sleb128 8
 13173 13b4 04000000 		.4byte	.LCFI23
 13174 13b8 12000000 		.4byte	.LFE19
 13175 13bc 0200     		.2byte	0x2
 13176 13be 7D       		.byte	0x7d
 13177 13bf 10       		.sleb128 16
 13178 13c0 00000000 		.4byte	0
 13179 13c4 00000000 		.4byte	0
 13180              	.LLST110:
 13181 13c8 00000000 		.4byte	.LVL269
 13182 13cc 0D000000 		.4byte	.LVL270-1
 13183 13d0 0100     		.2byte	0x1
 13184 13d2 50       		.byte	0x50
 13185 13d3 0D000000 		.4byte	.LVL270-1
 13186 13d7 12000000 		.4byte	.LFE19
 13187 13db 0400     		.2byte	0x4
 13188 13dd F3       		.byte	0xf3
 13189 13de 01       		.uleb128 0x1
 13190 13df 50       		.byte	0x50
ARM GAS  /tmp/ccPo84yg.s 			page 233


 13191 13e0 9F       		.byte	0x9f
 13192 13e1 00000000 		.4byte	0
 13193 13e5 00000000 		.4byte	0
 13194              	.LLST111:
 13195 13e9 00000000 		.4byte	.LVL269
 13196 13ed 0D000000 		.4byte	.LVL270-1
 13197 13f1 0100     		.2byte	0x1
 13198 13f3 51       		.byte	0x51
 13199 13f4 0D000000 		.4byte	.LVL270-1
 13200 13f8 12000000 		.4byte	.LFE19
 13201 13fc 0400     		.2byte	0x4
 13202 13fe F3       		.byte	0xf3
 13203 13ff 01       		.uleb128 0x1
 13204 1400 51       		.byte	0x51
 13205 1401 9F       		.byte	0x9f
 13206 1402 00000000 		.4byte	0
 13207 1406 00000000 		.4byte	0
 13208              	.LLST112:
 13209 140a 00000000 		.4byte	.LVL269
 13210 140e 0D000000 		.4byte	.LVL270-1
 13211 1412 0100     		.2byte	0x1
 13212 1414 52       		.byte	0x52
 13213 1415 0D000000 		.4byte	.LVL270-1
 13214 1419 12000000 		.4byte	.LFE19
 13215 141d 0400     		.2byte	0x4
 13216 141f F3       		.byte	0xf3
 13217 1420 01       		.uleb128 0x1
 13218 1421 52       		.byte	0x52
 13219 1422 9F       		.byte	0x9f
 13220 1423 00000000 		.4byte	0
 13221 1427 00000000 		.4byte	0
 13222              	.LLST113:
 13223 142b 00000000 		.4byte	.LVL269
 13224 142f 0D000000 		.4byte	.LVL270-1
 13225 1433 0100     		.2byte	0x1
 13226 1435 53       		.byte	0x53
 13227 1436 0D000000 		.4byte	.LVL270-1
 13228 143a 12000000 		.4byte	.LFE19
 13229 143e 0400     		.2byte	0x4
 13230 1440 F3       		.byte	0xf3
 13231 1441 01       		.uleb128 0x1
 13232 1442 53       		.byte	0x53
 13233 1443 9F       		.byte	0x9f
 13234 1444 00000000 		.4byte	0
 13235 1448 00000000 		.4byte	0
 13236              	.LLST114:
 13237 144c 00000000 		.4byte	.LFB21
 13238 1450 04000000 		.4byte	.LCFI24
 13239 1454 0200     		.2byte	0x2
 13240 1456 7D       		.byte	0x7d
 13241 1457 00       		.sleb128 0
 13242 1458 04000000 		.4byte	.LCFI24
 13243 145c 06000000 		.4byte	.LCFI25
 13244 1460 0200     		.2byte	0x2
 13245 1462 7D       		.byte	0x7d
 13246 1463 1C       		.sleb128 28
 13247 1464 06000000 		.4byte	.LCFI25
ARM GAS  /tmp/ccPo84yg.s 			page 234


 13248 1468 D8000000 		.4byte	.LFE21
 13249 146c 0200     		.2byte	0x2
 13250 146e 7D       		.byte	0x7d
 13251 146f 30       		.sleb128 48
 13252 1470 00000000 		.4byte	0
 13253 1474 00000000 		.4byte	0
 13254              	.LLST115:
 13255 1478 00000000 		.4byte	.LVL271
 13256 147c 36000000 		.4byte	.LVL274
 13257 1480 0100     		.2byte	0x1
 13258 1482 50       		.byte	0x50
 13259 1483 36000000 		.4byte	.LVL274
 13260 1487 AA000000 		.4byte	.LVL285
 13261 148b 0400     		.2byte	0x4
 13262 148d F3       		.byte	0xf3
 13263 148e 01       		.uleb128 0x1
 13264 148f 50       		.byte	0x50
 13265 1490 9F       		.byte	0x9f
 13266 1491 AA000000 		.4byte	.LVL285
 13267 1495 AD000000 		.4byte	.LVL286-1
 13268 1499 0100     		.2byte	0x1
 13269 149b 50       		.byte	0x50
 13270 149c AD000000 		.4byte	.LVL286-1
 13271 14a0 BE000000 		.4byte	.LVL291
 13272 14a4 0400     		.2byte	0x4
 13273 14a6 F3       		.byte	0xf3
 13274 14a7 01       		.uleb128 0x1
 13275 14a8 50       		.byte	0x50
 13276 14a9 9F       		.byte	0x9f
 13277 14aa BE000000 		.4byte	.LVL291
 13278 14ae C1000000 		.4byte	.LVL292-1
 13279 14b2 0100     		.2byte	0x1
 13280 14b4 50       		.byte	0x50
 13281 14b5 C1000000 		.4byte	.LVL292-1
 13282 14b9 D8000000 		.4byte	.LFE21
 13283 14bd 0400     		.2byte	0x4
 13284 14bf F3       		.byte	0xf3
 13285 14c0 01       		.uleb128 0x1
 13286 14c1 50       		.byte	0x50
 13287 14c2 9F       		.byte	0x9f
 13288 14c3 00000000 		.4byte	0
 13289 14c7 00000000 		.4byte	0
 13290              	.LLST116:
 13291 14cb 00000000 		.4byte	.LVL271
 13292 14cf 36000000 		.4byte	.LVL274
 13293 14d3 0100     		.2byte	0x1
 13294 14d5 51       		.byte	0x51
 13295 14d6 36000000 		.4byte	.LVL274
 13296 14da AA000000 		.4byte	.LVL285
 13297 14de 0100     		.2byte	0x1
 13298 14e0 58       		.byte	0x58
 13299 14e1 AA000000 		.4byte	.LVL285
 13300 14e5 AD000000 		.4byte	.LVL286-1
 13301 14e9 0100     		.2byte	0x1
 13302 14eb 51       		.byte	0x51
 13303 14ec AD000000 		.4byte	.LVL286-1
 13304 14f0 BE000000 		.4byte	.LVL291
ARM GAS  /tmp/ccPo84yg.s 			page 235


 13305 14f4 0100     		.2byte	0x1
 13306 14f6 58       		.byte	0x58
 13307 14f7 BE000000 		.4byte	.LVL291
 13308 14fb C1000000 		.4byte	.LVL292-1
 13309 14ff 0100     		.2byte	0x1
 13310 1501 51       		.byte	0x51
 13311 1502 C1000000 		.4byte	.LVL292-1
 13312 1506 D8000000 		.4byte	.LFE21
 13313 150a 0100     		.2byte	0x1
 13314 150c 58       		.byte	0x58
 13315 150d 00000000 		.4byte	0
 13316 1511 00000000 		.4byte	0
 13317              	.LLST117:
 13318 1515 00000000 		.4byte	.LVL271
 13319 1519 36000000 		.4byte	.LVL274
 13320 151d 0100     		.2byte	0x1
 13321 151f 52       		.byte	0x52
 13322 1520 36000000 		.4byte	.LVL274
 13323 1524 AA000000 		.4byte	.LVL285
 13324 1528 0100     		.2byte	0x1
 13325 152a 56       		.byte	0x56
 13326 152b AA000000 		.4byte	.LVL285
 13327 152f AD000000 		.4byte	.LVL286-1
 13328 1533 0100     		.2byte	0x1
 13329 1535 52       		.byte	0x52
 13330 1536 AD000000 		.4byte	.LVL286-1
 13331 153a BE000000 		.4byte	.LVL291
 13332 153e 0100     		.2byte	0x1
 13333 1540 56       		.byte	0x56
 13334 1541 BE000000 		.4byte	.LVL291
 13335 1545 C1000000 		.4byte	.LVL292-1
 13336 1549 0100     		.2byte	0x1
 13337 154b 52       		.byte	0x52
 13338 154c C1000000 		.4byte	.LVL292-1
 13339 1550 D8000000 		.4byte	.LFE21
 13340 1554 0100     		.2byte	0x1
 13341 1556 56       		.byte	0x56
 13342 1557 00000000 		.4byte	0
 13343 155b 00000000 		.4byte	0
 13344              	.LLST118:
 13345 155f 00000000 		.4byte	.LVL271
 13346 1563 36000000 		.4byte	.LVL274
 13347 1567 0100     		.2byte	0x1
 13348 1569 53       		.byte	0x53
 13349 156a 36000000 		.4byte	.LVL274
 13350 156e AA000000 		.4byte	.LVL285
 13351 1572 0400     		.2byte	0x4
 13352 1574 F3       		.byte	0xf3
 13353 1575 01       		.uleb128 0x1
 13354 1576 53       		.byte	0x53
 13355 1577 9F       		.byte	0x9f
 13356 1578 AA000000 		.4byte	.LVL285
 13357 157c AD000000 		.4byte	.LVL286-1
 13358 1580 0100     		.2byte	0x1
 13359 1582 53       		.byte	0x53
 13360 1583 AD000000 		.4byte	.LVL286-1
 13361 1587 BE000000 		.4byte	.LVL291
ARM GAS  /tmp/ccPo84yg.s 			page 236


 13362 158b 0400     		.2byte	0x4
 13363 158d F3       		.byte	0xf3
 13364 158e 01       		.uleb128 0x1
 13365 158f 53       		.byte	0x53
 13366 1590 9F       		.byte	0x9f
 13367 1591 BE000000 		.4byte	.LVL291
 13368 1595 C1000000 		.4byte	.LVL292-1
 13369 1599 0100     		.2byte	0x1
 13370 159b 53       		.byte	0x53
 13371 159c C1000000 		.4byte	.LVL292-1
 13372 15a0 D8000000 		.4byte	.LFE21
 13373 15a4 0400     		.2byte	0x4
 13374 15a6 F3       		.byte	0xf3
 13375 15a7 01       		.uleb128 0x1
 13376 15a8 53       		.byte	0x53
 13377 15a9 9F       		.byte	0x9f
 13378 15aa 00000000 		.4byte	0
 13379 15ae 00000000 		.4byte	0
 13380              	.LLST119:
 13381 15b2 72000000 		.4byte	.LVL279
 13382 15b6 76000000 		.4byte	.LVL280
 13383 15ba 0100     		.2byte	0x1
 13384 15bc 50       		.byte	0x50
 13385 15bd 76000000 		.4byte	.LVL280
 13386 15c1 94000000 		.4byte	.LVL282
 13387 15c5 0100     		.2byte	0x1
 13388 15c7 54       		.byte	0x54
 13389 15c8 B0000000 		.4byte	.LVL287
 13390 15cc B4000000 		.4byte	.LVL288
 13391 15d0 0100     		.2byte	0x1
 13392 15d2 50       		.byte	0x50
 13393 15d3 BC000000 		.4byte	.LVL290
 13394 15d7 BE000000 		.4byte	.LVL291
 13395 15db 0100     		.2byte	0x1
 13396 15dd 50       		.byte	0x50
 13397 15de 00000000 		.4byte	0
 13398 15e2 00000000 		.4byte	0
 13399              	.LLST120:
 13400 15e6 3E000000 		.4byte	.LVL275
 13401 15ea 94000000 		.4byte	.LVL282
 13402 15ee 0100     		.2byte	0x1
 13403 15f0 56       		.byte	0x56
 13404 15f1 9E000000 		.4byte	.LVL283
 13405 15f5 AA000000 		.4byte	.LVL285
 13406 15f9 0100     		.2byte	0x1
 13407 15fb 56       		.byte	0x56
 13408 15fc B0000000 		.4byte	.LVL287
 13409 1600 BE000000 		.4byte	.LVL291
 13410 1604 0100     		.2byte	0x1
 13411 1606 56       		.byte	0x56
 13412 1607 C4000000 		.4byte	.LVL293
 13413 160b D8000000 		.4byte	.LFE21
 13414 160f 0100     		.2byte	0x1
 13415 1611 56       		.byte	0x56
 13416 1612 00000000 		.4byte	0
 13417 1616 00000000 		.4byte	0
 13418              	.LLST121:
ARM GAS  /tmp/ccPo84yg.s 			page 237


 13419 161a 56000000 		.4byte	.LVL276
 13420 161e 68000000 		.4byte	.LVL278
 13421 1622 0100     		.2byte	0x1
 13422 1624 54       		.byte	0x54
 13423 1625 00000000 		.4byte	0
 13424 1629 00000000 		.4byte	0
 13425              	.LLST122:
 13426 162d 64000000 		.4byte	.LVL277
 13427 1631 68000000 		.4byte	.LVL278
 13428 1635 0100     		.2byte	0x1
 13429 1637 50       		.byte	0x50
 13430 1638 A2000000 		.4byte	.LVL284
 13431 163c AA000000 		.4byte	.LVL285
 13432 1640 0200     		.2byte	0x2
 13433 1642 30       		.byte	0x30
 13434 1643 9F       		.byte	0x9f
 13435 1644 00000000 		.4byte	0
 13436 1648 00000000 		.4byte	0
 13437              	.LLST123:
 13438 164c 0A000000 		.4byte	.LVL272
 13439 1650 36000000 		.4byte	.LVL274
 13440 1654 0100     		.2byte	0x1
 13441 1656 50       		.byte	0x50
 13442 1657 36000000 		.4byte	.LVL274
 13443 165b AA000000 		.4byte	.LVL285
 13444 165f 0400     		.2byte	0x4
 13445 1661 F3       		.byte	0xf3
 13446 1662 01       		.uleb128 0x1
 13447 1663 50       		.byte	0x50
 13448 1664 9F       		.byte	0x9f
 13449 1665 AA000000 		.4byte	.LVL285
 13450 1669 AD000000 		.4byte	.LVL286-1
 13451 166d 0100     		.2byte	0x1
 13452 166f 50       		.byte	0x50
 13453 1670 AD000000 		.4byte	.LVL286-1
 13454 1674 BE000000 		.4byte	.LVL291
 13455 1678 0400     		.2byte	0x4
 13456 167a F3       		.byte	0xf3
 13457 167b 01       		.uleb128 0x1
 13458 167c 50       		.byte	0x50
 13459 167d 9F       		.byte	0x9f
 13460 167e BE000000 		.4byte	.LVL291
 13461 1682 C1000000 		.4byte	.LVL292-1
 13462 1686 0100     		.2byte	0x1
 13463 1688 50       		.byte	0x50
 13464 1689 C1000000 		.4byte	.LVL292-1
 13465 168d D8000000 		.4byte	.LFE21
 13466 1691 0400     		.2byte	0x4
 13467 1693 F3       		.byte	0xf3
 13468 1694 01       		.uleb128 0x1
 13469 1695 50       		.byte	0x50
 13470 1696 9F       		.byte	0x9f
 13471 1697 00000000 		.4byte	0
 13472 169b 00000000 		.4byte	0
 13473              	.LLST124:
 13474 169f 22000000 		.4byte	.LVL273
 13475 16a3 94000000 		.4byte	.LVL282
ARM GAS  /tmp/ccPo84yg.s 			page 238


 13476 16a7 0100     		.2byte	0x1
 13477 16a9 59       		.byte	0x59
 13478 16aa 9E000000 		.4byte	.LVL283
 13479 16ae D8000000 		.4byte	.LFE21
 13480 16b2 0100     		.2byte	0x1
 13481 16b4 59       		.byte	0x59
 13482 16b5 00000000 		.4byte	0
 13483 16b9 00000000 		.4byte	0
 13484              	.LLST125:
 13485 16bd 00000000 		.4byte	.LFB20
 13486 16c1 04000000 		.4byte	.LCFI26
 13487 16c5 0200     		.2byte	0x2
 13488 16c7 7D       		.byte	0x7d
 13489 16c8 00       		.sleb128 0
 13490 16c9 04000000 		.4byte	.LCFI26
 13491 16cd 08000000 		.4byte	.LCFI27
 13492 16d1 0200     		.2byte	0x2
 13493 16d3 7D       		.byte	0x7d
 13494 16d4 18       		.sleb128 24
 13495 16d5 08000000 		.4byte	.LCFI27
 13496 16d9 A0000000 		.4byte	.LFE20
 13497 16dd 0200     		.2byte	0x2
 13498 16df 7D       		.byte	0x7d
 13499 16e0 20       		.sleb128 32
 13500 16e1 00000000 		.4byte	0
 13501 16e5 00000000 		.4byte	0
 13502              	.LLST126:
 13503 16e9 00000000 		.4byte	.LVL295
 13504 16ed 58000000 		.4byte	.LVL302
 13505 16f1 0100     		.2byte	0x1
 13506 16f3 50       		.byte	0x50
 13507 16f4 58000000 		.4byte	.LVL302
 13508 16f8 76000000 		.4byte	.LVL306
 13509 16fc 0400     		.2byte	0x4
 13510 16fe F3       		.byte	0xf3
 13511 16ff 01       		.uleb128 0x1
 13512 1700 50       		.byte	0x50
 13513 1701 9F       		.byte	0x9f
 13514 1702 76000000 		.4byte	.LVL306
 13515 1706 82000000 		.4byte	.LVL307
 13516 170a 0100     		.2byte	0x1
 13517 170c 50       		.byte	0x50
 13518 170d 82000000 		.4byte	.LVL307
 13519 1711 8C000000 		.4byte	.LVL308
 13520 1715 0400     		.2byte	0x4
 13521 1717 F3       		.byte	0xf3
 13522 1718 01       		.uleb128 0x1
 13523 1719 50       		.byte	0x50
 13524 171a 9F       		.byte	0x9f
 13525 171b 8C000000 		.4byte	.LVL308
 13526 171f 95000000 		.4byte	.LVL309-1
 13527 1723 0100     		.2byte	0x1
 13528 1725 50       		.byte	0x50
 13529 1726 95000000 		.4byte	.LVL309-1
 13530 172a A0000000 		.4byte	.LFE20
 13531 172e 0400     		.2byte	0x4
 13532 1730 F3       		.byte	0xf3
ARM GAS  /tmp/ccPo84yg.s 			page 239


 13533 1731 01       		.uleb128 0x1
 13534 1732 50       		.byte	0x50
 13535 1733 9F       		.byte	0x9f
 13536 1734 00000000 		.4byte	0
 13537 1738 00000000 		.4byte	0
 13538              	.LLST127:
 13539 173c 00000000 		.4byte	.LVL295
 13540 1740 5A000000 		.4byte	.LVL303
 13541 1744 0100     		.2byte	0x1
 13542 1746 51       		.byte	0x51
 13543 1747 5A000000 		.4byte	.LVL303
 13544 174b 76000000 		.4byte	.LVL306
 13545 174f 0100     		.2byte	0x1
 13546 1751 57       		.byte	0x57
 13547 1752 76000000 		.4byte	.LVL306
 13548 1756 82000000 		.4byte	.LVL307
 13549 175a 0100     		.2byte	0x1
 13550 175c 51       		.byte	0x51
 13551 175d 82000000 		.4byte	.LVL307
 13552 1761 8C000000 		.4byte	.LVL308
 13553 1765 0100     		.2byte	0x1
 13554 1767 57       		.byte	0x57
 13555 1768 8C000000 		.4byte	.LVL308
 13556 176c 95000000 		.4byte	.LVL309-1
 13557 1770 0100     		.2byte	0x1
 13558 1772 51       		.byte	0x51
 13559 1773 95000000 		.4byte	.LVL309-1
 13560 1777 A0000000 		.4byte	.LFE20
 13561 177b 0100     		.2byte	0x1
 13562 177d 57       		.byte	0x57
 13563 177e 00000000 		.4byte	0
 13564 1782 00000000 		.4byte	0
 13565              	.LLST128:
 13566 1786 00000000 		.4byte	.LVL295
 13567 178a 34000000 		.4byte	.LVL298
 13568 178e 0100     		.2byte	0x1
 13569 1790 52       		.byte	0x52
 13570 1791 34000000 		.4byte	.LVL298
 13571 1795 8C000000 		.4byte	.LVL308
 13572 1799 0100     		.2byte	0x1
 13573 179b 56       		.byte	0x56
 13574 179c 8C000000 		.4byte	.LVL308
 13575 17a0 95000000 		.4byte	.LVL309-1
 13576 17a4 0100     		.2byte	0x1
 13577 17a6 52       		.byte	0x52
 13578 17a7 95000000 		.4byte	.LVL309-1
 13579 17ab A0000000 		.4byte	.LFE20
 13580 17af 0100     		.2byte	0x1
 13581 17b1 56       		.byte	0x56
 13582 17b2 00000000 		.4byte	0
 13583 17b6 00000000 		.4byte	0
 13584              	.LLST129:
 13585 17ba 00000000 		.4byte	.LVL295
 13586 17be 38000000 		.4byte	.LVL299
 13587 17c2 0100     		.2byte	0x1
 13588 17c4 53       		.byte	0x53
 13589 17c5 38000000 		.4byte	.LVL299
ARM GAS  /tmp/ccPo84yg.s 			page 240


 13590 17c9 52000000 		.4byte	.LVL300
 13591 17cd 0100     		.2byte	0x1
 13592 17cf 55       		.byte	0x55
 13593 17d0 52000000 		.4byte	.LVL300
 13594 17d4 76000000 		.4byte	.LVL306
 13595 17d8 0400     		.2byte	0x4
 13596 17da F3       		.byte	0xf3
 13597 17db 01       		.uleb128 0x1
 13598 17dc 53       		.byte	0x53
 13599 17dd 9F       		.byte	0x9f
 13600 17de 76000000 		.4byte	.LVL306
 13601 17e2 82000000 		.4byte	.LVL307
 13602 17e6 0100     		.2byte	0x1
 13603 17e8 55       		.byte	0x55
 13604 17e9 82000000 		.4byte	.LVL307
 13605 17ed 8C000000 		.4byte	.LVL308
 13606 17f1 0400     		.2byte	0x4
 13607 17f3 F3       		.byte	0xf3
 13608 17f4 01       		.uleb128 0x1
 13609 17f5 53       		.byte	0x53
 13610 17f6 9F       		.byte	0x9f
 13611 17f7 8C000000 		.4byte	.LVL308
 13612 17fb 95000000 		.4byte	.LVL309-1
 13613 17ff 0100     		.2byte	0x1
 13614 1801 53       		.byte	0x53
 13615 1802 95000000 		.4byte	.LVL309-1
 13616 1806 A0000000 		.4byte	.LFE20
 13617 180a 0100     		.2byte	0x1
 13618 180c 55       		.byte	0x55
 13619 180d 00000000 		.4byte	0
 13620 1811 00000000 		.4byte	0
 13621              	.LLST130:
 13622 1815 5E000000 		.4byte	.LVL304
 13623 1819 74000000 		.4byte	.LVL305
 13624 181d 0100     		.2byte	0x1
 13625 181f 50       		.byte	0x50
 13626 1820 00000000 		.4byte	0
 13627 1824 00000000 		.4byte	0
 13628              	.LLST131:
 13629 1828 52000000 		.4byte	.LVL300
 13630 182c 54000000 		.4byte	.LVL301
 13631 1830 0600     		.2byte	0x6
 13632 1832 75       		.byte	0x75
 13633 1833 00       		.sleb128 0
 13634 1834 73       		.byte	0x73
 13635 1835 00       		.sleb128 0
 13636 1836 21       		.byte	0x21
 13637 1837 9F       		.byte	0x9f
 13638 1838 54000000 		.4byte	.LVL301
 13639 183c 76000000 		.4byte	.LVL306
 13640 1840 1500     		.2byte	0x15
 13641 1842 31       		.byte	0x31
 13642 1843 33       		.byte	0x33
 13643 1844 F3       		.byte	0xf3
 13644 1845 01       		.uleb128 0x1
 13645 1846 53       		.byte	0x53
 13646 1847 09       		.byte	0x9
ARM GAS  /tmp/ccPo84yg.s 			page 241


 13647 1848 FF       		.byte	0xff
 13648 1849 24       		.byte	0x24
 13649 184a 33       		.byte	0x33
 13650 184b 25       		.byte	0x25
 13651 184c 30       		.byte	0x30
 13652 184d 29       		.byte	0x29
 13653 184e 28       		.byte	0x28
 13654 184f 0100     		.2byte	0x1
 13655 1851 16       		.byte	0x16
 13656 1852 13       		.byte	0x13
 13657 1853 75       		.byte	0x75
 13658 1854 00       		.sleb128 0
 13659 1855 21       		.byte	0x21
 13660 1856 9F       		.byte	0x9f
 13661 1857 00000000 		.4byte	0
 13662 185b 00000000 		.4byte	0
 13663              	.LLST132:
 13664 185f 0A000000 		.4byte	.LVL296
 13665 1863 58000000 		.4byte	.LVL302
 13666 1867 0100     		.2byte	0x1
 13667 1869 50       		.byte	0x50
 13668 186a 58000000 		.4byte	.LVL302
 13669 186e 76000000 		.4byte	.LVL306
 13670 1872 0400     		.2byte	0x4
 13671 1874 F3       		.byte	0xf3
 13672 1875 01       		.uleb128 0x1
 13673 1876 50       		.byte	0x50
 13674 1877 9F       		.byte	0x9f
 13675 1878 76000000 		.4byte	.LVL306
 13676 187c 82000000 		.4byte	.LVL307
 13677 1880 0100     		.2byte	0x1
 13678 1882 50       		.byte	0x50
 13679 1883 82000000 		.4byte	.LVL307
 13680 1887 8C000000 		.4byte	.LVL308
 13681 188b 0400     		.2byte	0x4
 13682 188d F3       		.byte	0xf3
 13683 188e 01       		.uleb128 0x1
 13684 188f 50       		.byte	0x50
 13685 1890 9F       		.byte	0x9f
 13686 1891 8C000000 		.4byte	.LVL308
 13687 1895 95000000 		.4byte	.LVL309-1
 13688 1899 0100     		.2byte	0x1
 13689 189b 50       		.byte	0x50
 13690 189c 95000000 		.4byte	.LVL309-1
 13691 18a0 A0000000 		.4byte	.LFE20
 13692 18a4 0400     		.2byte	0x4
 13693 18a6 F3       		.byte	0xf3
 13694 18a7 01       		.uleb128 0x1
 13695 18a8 50       		.byte	0x50
 13696 18a9 9F       		.byte	0x9f
 13697 18aa 00000000 		.4byte	0
 13698 18ae 00000000 		.4byte	0
 13699              	.LLST133:
 13700 18b2 20000000 		.4byte	.LVL297
 13701 18b6 82000000 		.4byte	.LVL307
 13702 18ba 0100     		.2byte	0x1
 13703 18bc 58       		.byte	0x58
ARM GAS  /tmp/ccPo84yg.s 			page 242


 13704 18bd 8C000000 		.4byte	.LVL308
 13705 18c1 A0000000 		.4byte	.LFE20
 13706 18c5 0100     		.2byte	0x1
 13707 18c7 58       		.byte	0x58
 13708 18c8 00000000 		.4byte	0
 13709 18cc 00000000 		.4byte	0
 13710              	.LLST134:
 13711 18d0 00000000 		.4byte	.LFB22
 13712 18d4 04000000 		.4byte	.LCFI28
 13713 18d8 0200     		.2byte	0x2
 13714 18da 7D       		.byte	0x7d
 13715 18db 00       		.sleb128 0
 13716 18dc 04000000 		.4byte	.LCFI28
 13717 18e0 78000000 		.4byte	.LFE22
 13718 18e4 0200     		.2byte	0x2
 13719 18e6 7D       		.byte	0x7d
 13720 18e7 10       		.sleb128 16
 13721 18e8 00000000 		.4byte	0
 13722 18ec 00000000 		.4byte	0
 13723              	.LLST135:
 13724 18f0 00000000 		.4byte	.LVL310
 13725 18f4 0E000000 		.4byte	.LVL311
 13726 18f8 0100     		.2byte	0x1
 13727 18fa 50       		.byte	0x50
 13728 18fb 0E000000 		.4byte	.LVL311
 13729 18ff 16000000 		.4byte	.LVL312
 13730 1903 0400     		.2byte	0x4
 13731 1905 F3       		.byte	0xf3
 13732 1906 01       		.uleb128 0x1
 13733 1907 50       		.byte	0x50
 13734 1908 9F       		.byte	0x9f
 13735 1909 16000000 		.4byte	.LVL312
 13736 190d 18000000 		.4byte	.LVL313
 13737 1911 0100     		.2byte	0x1
 13738 1913 50       		.byte	0x50
 13739 1914 18000000 		.4byte	.LVL313
 13740 1918 48000000 		.4byte	.LVL322
 13741 191c 0400     		.2byte	0x4
 13742 191e F3       		.byte	0xf3
 13743 191f 01       		.uleb128 0x1
 13744 1920 50       		.byte	0x50
 13745 1921 9F       		.byte	0x9f
 13746 1922 48000000 		.4byte	.LVL322
 13747 1926 4C000000 		.4byte	.LVL324
 13748 192a 0100     		.2byte	0x1
 13749 192c 50       		.byte	0x50
 13750 192d 4C000000 		.4byte	.LVL324
 13751 1931 5A000000 		.4byte	.LVL328
 13752 1935 0400     		.2byte	0x4
 13753 1937 F3       		.byte	0xf3
 13754 1938 01       		.uleb128 0x1
 13755 1939 50       		.byte	0x50
 13756 193a 9F       		.byte	0x9f
 13757 193b 5A000000 		.4byte	.LVL328
 13758 193f 62000000 		.4byte	.LVL329
 13759 1943 0100     		.2byte	0x1
 13760 1945 50       		.byte	0x50
ARM GAS  /tmp/ccPo84yg.s 			page 243


 13761 1946 62000000 		.4byte	.LVL329
 13762 194a 78000000 		.4byte	.LFE22
 13763 194e 0400     		.2byte	0x4
 13764 1950 F3       		.byte	0xf3
 13765 1951 01       		.uleb128 0x1
 13766 1952 50       		.byte	0x50
 13767 1953 9F       		.byte	0x9f
 13768 1954 00000000 		.4byte	0
 13769 1958 00000000 		.4byte	0
 13770              	.LLST136:
 13771 195c 00000000 		.4byte	.LVL310
 13772 1960 0E000000 		.4byte	.LVL311
 13773 1964 0100     		.2byte	0x1
 13774 1966 51       		.byte	0x51
 13775 1967 0E000000 		.4byte	.LVL311
 13776 196b 16000000 		.4byte	.LVL312
 13777 196f 0400     		.2byte	0x4
 13778 1971 F3       		.byte	0xf3
 13779 1972 01       		.uleb128 0x1
 13780 1973 51       		.byte	0x51
 13781 1974 9F       		.byte	0x9f
 13782 1975 16000000 		.4byte	.LVL312
 13783 1979 1A000000 		.4byte	.LVL314
 13784 197d 0100     		.2byte	0x1
 13785 197f 51       		.byte	0x51
 13786 1980 1A000000 		.4byte	.LVL314
 13787 1984 48000000 		.4byte	.LVL322
 13788 1988 0400     		.2byte	0x4
 13789 198a F3       		.byte	0xf3
 13790 198b 01       		.uleb128 0x1
 13791 198c 51       		.byte	0x51
 13792 198d 9F       		.byte	0x9f
 13793 198e 48000000 		.4byte	.LVL322
 13794 1992 4A000000 		.4byte	.LVL323
 13795 1996 0100     		.2byte	0x1
 13796 1998 51       		.byte	0x51
 13797 1999 4A000000 		.4byte	.LVL323
 13798 199d 5A000000 		.4byte	.LVL328
 13799 19a1 0400     		.2byte	0x4
 13800 19a3 F3       		.byte	0xf3
 13801 19a4 01       		.uleb128 0x1
 13802 19a5 51       		.byte	0x51
 13803 19a6 9F       		.byte	0x9f
 13804 19a7 5A000000 		.4byte	.LVL328
 13805 19ab 64000000 		.4byte	.LVL330
 13806 19af 0100     		.2byte	0x1
 13807 19b1 51       		.byte	0x51
 13808 19b2 64000000 		.4byte	.LVL330
 13809 19b6 78000000 		.4byte	.LFE22
 13810 19ba 0400     		.2byte	0x4
 13811 19bc F3       		.byte	0xf3
 13812 19bd 01       		.uleb128 0x1
 13813 19be 51       		.byte	0x51
 13814 19bf 9F       		.byte	0x9f
 13815 19c0 00000000 		.4byte	0
 13816 19c4 00000000 		.4byte	0
 13817              	.LLST137:
ARM GAS  /tmp/ccPo84yg.s 			page 244


 13818 19c8 00000000 		.4byte	.LVL310
 13819 19cc 0E000000 		.4byte	.LVL311
 13820 19d0 0100     		.2byte	0x1
 13821 19d2 52       		.byte	0x52
 13822 19d3 0E000000 		.4byte	.LVL311
 13823 19d7 16000000 		.4byte	.LVL312
 13824 19db 0400     		.2byte	0x4
 13825 19dd F3       		.byte	0xf3
 13826 19de 01       		.uleb128 0x1
 13827 19df 52       		.byte	0x52
 13828 19e0 9F       		.byte	0x9f
 13829 19e1 16000000 		.4byte	.LVL312
 13830 19e5 1C000000 		.4byte	.LVL315
 13831 19e9 0100     		.2byte	0x1
 13832 19eb 52       		.byte	0x52
 13833 19ec 1C000000 		.4byte	.LVL315
 13834 19f0 48000000 		.4byte	.LVL322
 13835 19f4 0400     		.2byte	0x4
 13836 19f6 F3       		.byte	0xf3
 13837 19f7 01       		.uleb128 0x1
 13838 19f8 52       		.byte	0x52
 13839 19f9 9F       		.byte	0x9f
 13840 19fa 48000000 		.4byte	.LVL322
 13841 19fe 4E000000 		.4byte	.LVL325
 13842 1a02 0100     		.2byte	0x1
 13843 1a04 52       		.byte	0x52
 13844 1a05 4E000000 		.4byte	.LVL325
 13845 1a09 5A000000 		.4byte	.LVL328
 13846 1a0d 0400     		.2byte	0x4
 13847 1a0f F3       		.byte	0xf3
 13848 1a10 01       		.uleb128 0x1
 13849 1a11 52       		.byte	0x52
 13850 1a12 9F       		.byte	0x9f
 13851 1a13 5A000000 		.4byte	.LVL328
 13852 1a17 66000000 		.4byte	.LVL331
 13853 1a1b 0100     		.2byte	0x1
 13854 1a1d 52       		.byte	0x52
 13855 1a1e 66000000 		.4byte	.LVL331
 13856 1a22 78000000 		.4byte	.LFE22
 13857 1a26 0400     		.2byte	0x4
 13858 1a28 F3       		.byte	0xf3
 13859 1a29 01       		.uleb128 0x1
 13860 1a2a 52       		.byte	0x52
 13861 1a2b 9F       		.byte	0x9f
 13862 1a2c 00000000 		.4byte	0
 13863 1a30 00000000 		.4byte	0
 13864              	.LLST138:
 13865 1a34 20000000 		.4byte	.LVL316
 13866 1a38 32000000 		.4byte	.LVL317
 13867 1a3c 0100     		.2byte	0x1
 13868 1a3e 50       		.byte	0x50
 13869 1a3f 32000000 		.4byte	.LVL317
 13870 1a43 48000000 		.4byte	.LVL322
 13871 1a47 0100     		.2byte	0x1
 13872 1a49 55       		.byte	0x55
 13873 1a4a 54000000 		.4byte	.LVL327
 13874 1a4e 5A000000 		.4byte	.LVL328
ARM GAS  /tmp/ccPo84yg.s 			page 245


 13875 1a52 0100     		.2byte	0x1
 13876 1a54 50       		.byte	0x50
 13877 1a55 6C000000 		.4byte	.LVL333
 13878 1a59 78000000 		.4byte	.LFE22
 13879 1a5d 0100     		.2byte	0x1
 13880 1a5f 50       		.byte	0x50
 13881 1a60 00000000 		.4byte	0
 13882 1a64 00000000 		.4byte	0
 13883              	.LLST139:
 13884 1a68 3A000000 		.4byte	.LVL319
 13885 1a6c 42000000 		.4byte	.LVL320
 13886 1a70 0100     		.2byte	0x1
 13887 1a72 50       		.byte	0x50
 13888 1a73 42000000 		.4byte	.LVL320
 13889 1a77 48000000 		.4byte	.LVL322
 13890 1a7b 0100     		.2byte	0x1
 13891 1a7d 54       		.byte	0x54
 13892 1a7e 00000000 		.4byte	0
 13893 1a82 00000000 		.4byte	0
 13894              	.LLST140:
 13895 1a86 00000000 		.4byte	.LVL334
 13896 1a8a 05000000 		.4byte	.LVL335-1
 13897 1a8e 0100     		.2byte	0x1
 13898 1a90 50       		.byte	0x50
 13899 1a91 05000000 		.4byte	.LVL335-1
 13900 1a95 06000000 		.4byte	.LFE23
 13901 1a99 0400     		.2byte	0x4
 13902 1a9b F3       		.byte	0xf3
 13903 1a9c 01       		.uleb128 0x1
 13904 1a9d 50       		.byte	0x50
 13905 1a9e 9F       		.byte	0x9f
 13906 1a9f 00000000 		.4byte	0
 13907 1aa3 00000000 		.4byte	0
 13908              	.LLST141:
 13909 1aa7 00000000 		.4byte	.LVL334
 13910 1aab 05000000 		.4byte	.LVL335-1
 13911 1aaf 0100     		.2byte	0x1
 13912 1ab1 51       		.byte	0x51
 13913 1ab2 05000000 		.4byte	.LVL335-1
 13914 1ab6 06000000 		.4byte	.LFE23
 13915 1aba 0400     		.2byte	0x4
 13916 1abc F3       		.byte	0xf3
 13917 1abd 01       		.uleb128 0x1
 13918 1abe 51       		.byte	0x51
 13919 1abf 9F       		.byte	0x9f
 13920 1ac0 00000000 		.4byte	0
 13921 1ac4 00000000 		.4byte	0
 13922              	.LLST142:
 13923 1ac8 00000000 		.4byte	.LVL334
 13924 1acc 05000000 		.4byte	.LVL335-1
 13925 1ad0 0100     		.2byte	0x1
 13926 1ad2 52       		.byte	0x52
 13927 1ad3 05000000 		.4byte	.LVL335-1
 13928 1ad7 06000000 		.4byte	.LFE23
 13929 1adb 0400     		.2byte	0x4
 13930 1add F3       		.byte	0xf3
 13931 1ade 01       		.uleb128 0x1
ARM GAS  /tmp/ccPo84yg.s 			page 246


 13932 1adf 52       		.byte	0x52
 13933 1ae0 9F       		.byte	0x9f
 13934 1ae1 00000000 		.4byte	0
 13935 1ae5 00000000 		.4byte	0
 13936              	.LLST143:
 13937 1ae9 00000000 		.4byte	.LFB25
 13938 1aed 04000000 		.4byte	.LCFI29
 13939 1af1 0200     		.2byte	0x2
 13940 1af3 7D       		.byte	0x7d
 13941 1af4 00       		.sleb128 0
 13942 1af5 04000000 		.4byte	.LCFI29
 13943 1af9 06000000 		.4byte	.LCFI30
 13944 1afd 0200     		.2byte	0x2
 13945 1aff 7D       		.byte	0x7d
 13946 1b00 24       		.sleb128 36
 13947 1b01 06000000 		.4byte	.LCFI30
 13948 1b05 F8020000 		.4byte	.LFE25
 13949 1b09 0300     		.2byte	0x3
 13950 1b0b 7D       		.byte	0x7d
 13951 1b0c F000     		.sleb128 112
 13952 1b0e 00000000 		.4byte	0
 13953 1b12 00000000 		.4byte	0
 13954              	.LLST144:
 13955 1b16 00000000 		.4byte	.LVL336
 13956 1b1a 1D000000 		.4byte	.LVL337-1
 13957 1b1e 0100     		.2byte	0x1
 13958 1b20 50       		.byte	0x50
 13959 1b21 1D000000 		.4byte	.LVL337-1
 13960 1b25 46010000 		.4byte	.LVL358
 13961 1b29 0100     		.2byte	0x1
 13962 1b2b 5B       		.byte	0x5b
 13963 1b2c 46010000 		.4byte	.LVL358
 13964 1b30 AC010000 		.4byte	.LVL363
 13965 1b34 0100     		.2byte	0x1
 13966 1b36 58       		.byte	0x58
 13967 1b37 AC010000 		.4byte	.LVL363
 13968 1b3b 90020000 		.4byte	.LVL373
 13969 1b3f 0100     		.2byte	0x1
 13970 1b41 5B       		.byte	0x5b
 13971 1b42 90020000 		.4byte	.LVL373
 13972 1b46 D0020000 		.4byte	.LVL377
 13973 1b4a 0100     		.2byte	0x1
 13974 1b4c 58       		.byte	0x58
 13975 1b4d D0020000 		.4byte	.LVL377
 13976 1b51 F8020000 		.4byte	.LFE25
 13977 1b55 0100     		.2byte	0x1
 13978 1b57 5B       		.byte	0x5b
 13979 1b58 00000000 		.4byte	0
 13980 1b5c 00000000 		.4byte	0
 13981              	.LLST145:
 13982 1b60 00000000 		.4byte	.LVL336
 13983 1b64 1D000000 		.4byte	.LVL337-1
 13984 1b68 0100     		.2byte	0x1
 13985 1b6a 51       		.byte	0x51
 13986 1b6b 1D000000 		.4byte	.LVL337-1
 13987 1b6f 42010000 		.4byte	.LVL356
 13988 1b73 0100     		.2byte	0x1
ARM GAS  /tmp/ccPo84yg.s 			page 247


 13989 1b75 58       		.byte	0x58
 13990 1b76 42010000 		.4byte	.LVL356
 13991 1b7a AE010000 		.4byte	.LVL364
 13992 1b7e 0100     		.2byte	0x1
 13993 1b80 59       		.byte	0x59
 13994 1b81 AE010000 		.4byte	.LVL364
 13995 1b85 90020000 		.4byte	.LVL373
 13996 1b89 0100     		.2byte	0x1
 13997 1b8b 58       		.byte	0x58
 13998 1b8c 90020000 		.4byte	.LVL373
 13999 1b90 D0020000 		.4byte	.LVL377
 14000 1b94 0100     		.2byte	0x1
 14001 1b96 59       		.byte	0x59
 14002 1b97 D0020000 		.4byte	.LVL377
 14003 1b9b F8020000 		.4byte	.LFE25
 14004 1b9f 0100     		.2byte	0x1
 14005 1ba1 58       		.byte	0x58
 14006 1ba2 00000000 		.4byte	0
 14007 1ba6 00000000 		.4byte	0
 14008              	.LLST146:
 14009 1baa 00000000 		.4byte	.LVL336
 14010 1bae 1D000000 		.4byte	.LVL337-1
 14011 1bb2 0100     		.2byte	0x1
 14012 1bb4 52       		.byte	0x52
 14013 1bb5 1D000000 		.4byte	.LVL337-1
 14014 1bb9 3E010000 		.4byte	.LVL355
 14015 1bbd 0100     		.2byte	0x1
 14016 1bbf 59       		.byte	0x59
 14017 1bc0 3E010000 		.4byte	.LVL355
 14018 1bc4 46010000 		.4byte	.LVL358
 14019 1bc8 0100     		.2byte	0x1
 14020 1bca 53       		.byte	0x53
 14021 1bcb 46010000 		.4byte	.LVL358
 14022 1bcf AA010000 		.4byte	.LVL362
 14023 1bd3 0100     		.2byte	0x1
 14024 1bd5 5B       		.byte	0x5b
 14025 1bd6 AA010000 		.4byte	.LVL362
 14026 1bda AE010000 		.4byte	.LVL364
 14027 1bde 0100     		.2byte	0x1
 14028 1be0 53       		.byte	0x53
 14029 1be1 AE010000 		.4byte	.LVL364
 14030 1be5 90020000 		.4byte	.LVL373
 14031 1be9 0100     		.2byte	0x1
 14032 1beb 59       		.byte	0x59
 14033 1bec 90020000 		.4byte	.LVL373
 14034 1bf0 D0020000 		.4byte	.LVL377
 14035 1bf4 0100     		.2byte	0x1
 14036 1bf6 5B       		.byte	0x5b
 14037 1bf7 D0020000 		.4byte	.LVL377
 14038 1bfb F8020000 		.4byte	.LFE25
 14039 1bff 0100     		.2byte	0x1
 14040 1c01 59       		.byte	0x59
 14041 1c02 00000000 		.4byte	0
 14042 1c06 00000000 		.4byte	0
 14043              	.LLST147:
 14044 1c0a 00000000 		.4byte	.LVL336
 14045 1c0e 1D000000 		.4byte	.LVL337-1
ARM GAS  /tmp/ccPo84yg.s 			page 248


 14046 1c12 0100     		.2byte	0x1
 14047 1c14 53       		.byte	0x53
 14048 1c15 1D000000 		.4byte	.LVL337-1
 14049 1c19 F8020000 		.4byte	.LFE25
 14050 1c1d 0100     		.2byte	0x1
 14051 1c1f 5A       		.byte	0x5a
 14052 1c20 00000000 		.4byte	0
 14053 1c24 00000000 		.4byte	0
 14054              	.LLST148:
 14055 1c28 00000000 		.4byte	.LVL336
 14056 1c2c 28010000 		.4byte	.LVL352
 14057 1c30 0200     		.2byte	0x2
 14058 1c32 30       		.byte	0x30
 14059 1c33 9F       		.byte	0x9f
 14060 1c34 28010000 		.4byte	.LVL352
 14061 1c38 2A010000 		.4byte	.LVL353
 14062 1c3c 0100     		.2byte	0x1
 14063 1c3e 50       		.byte	0x50
 14064 1c3f 2A010000 		.4byte	.LVL353
 14065 1c43 2E010000 		.4byte	.LVL354
 14066 1c47 0200     		.2byte	0x2
 14067 1c49 30       		.byte	0x30
 14068 1c4a 9F       		.byte	0x9f
 14069 1c4b 2E010000 		.4byte	.LVL354
 14070 1c4f 02020000 		.4byte	.LVL367
 14071 1c53 0300     		.2byte	0x3
 14072 1c55 91       		.byte	0x91
 14073 1c56 A87F     		.sleb128 -88
 14074 1c58 34020000 		.4byte	.LVL369
 14075 1c5c 90020000 		.4byte	.LVL373
 14076 1c60 0200     		.2byte	0x2
 14077 1c62 30       		.byte	0x30
 14078 1c63 9F       		.byte	0x9f
 14079 1c64 90020000 		.4byte	.LVL373
 14080 1c68 EE020000 		.4byte	.LVL380
 14081 1c6c 0300     		.2byte	0x3
 14082 1c6e 91       		.byte	0x91
 14083 1c6f A87F     		.sleb128 -88
 14084 1c71 EE020000 		.4byte	.LVL380
 14085 1c75 F8020000 		.4byte	.LFE25
 14086 1c79 0200     		.2byte	0x2
 14087 1c7b 30       		.byte	0x30
 14088 1c7c 9F       		.byte	0x9f
 14089 1c7d 00000000 		.4byte	0
 14090 1c81 00000000 		.4byte	0
 14091              	.LLST149:
 14092 1c85 1E000000 		.4byte	.LVL337
 14093 1c89 3C000000 		.4byte	.LVL338
 14094 1c8d 0100     		.2byte	0x1
 14095 1c8f 50       		.byte	0x50
 14096 1c90 3C000000 		.4byte	.LVL338
 14097 1c94 94000000 		.4byte	.LVL341
 14098 1c98 0100     		.2byte	0x1
 14099 1c9a 55       		.byte	0x55
 14100 1c9b EE000000 		.4byte	.LVL346
 14101 1c9f 00010000 		.4byte	.LVL347
 14102 1ca3 0100     		.2byte	0x1
ARM GAS  /tmp/ccPo84yg.s 			page 249


 14103 1ca5 50       		.byte	0x50
 14104 1ca6 00010000 		.4byte	.LVL347
 14105 1caa 16010000 		.4byte	.LVL348
 14106 1cae 0100     		.2byte	0x1
 14107 1cb0 51       		.byte	0x51
 14108 1cb1 16010000 		.4byte	.LVL348
 14109 1cb5 2A010000 		.4byte	.LVL353
 14110 1cb9 0100     		.2byte	0x1
 14111 1cbb 55       		.byte	0x55
 14112 1cbc 2A010000 		.4byte	.LVL353
 14113 1cc0 2E010000 		.4byte	.LVL354
 14114 1cc4 0100     		.2byte	0x1
 14115 1cc6 50       		.byte	0x50
 14116 1cc7 2E010000 		.4byte	.LVL354
 14117 1ccb 44010000 		.4byte	.LVL357
 14118 1ccf 0100     		.2byte	0x1
 14119 1cd1 55       		.byte	0x55
 14120 1cd2 44010000 		.4byte	.LVL357
 14121 1cd6 AE010000 		.4byte	.LVL364
 14122 1cda 0300     		.2byte	0x3
 14123 1cdc 91       		.byte	0x91
 14124 1cdd AC7F     		.sleb128 -84
 14125 1cdf 02020000 		.4byte	.LVL367
 14126 1ce3 2C020000 		.4byte	.LVL368
 14127 1ce7 0100     		.2byte	0x1
 14128 1ce9 55       		.byte	0x55
 14129 1cea 90020000 		.4byte	.LVL373
 14130 1cee D0020000 		.4byte	.LVL377
 14131 1cf2 0300     		.2byte	0x3
 14132 1cf4 91       		.byte	0x91
 14133 1cf5 AC7F     		.sleb128 -84
 14134 1cf7 EE020000 		.4byte	.LVL380
 14135 1cfb F2020000 		.4byte	.LVL381
 14136 1cff 0100     		.2byte	0x1
 14137 1d01 55       		.byte	0x55
 14138 1d02 00000000 		.4byte	0
 14139 1d06 00000000 		.4byte	0
 14140              	.LLST150:
 14141 1d0a 1A010000 		.4byte	.LVL349
 14142 1d0e 25010000 		.4byte	.LVL351-1
 14143 1d12 0100     		.2byte	0x1
 14144 1d14 51       		.byte	0x51
 14145 1d15 00000000 		.4byte	0
 14146 1d19 00000000 		.4byte	0
 14147              	.LLST151:
 14148 1d1d 56000000 		.4byte	.LVL339
 14149 1d21 94000000 		.4byte	.LVL341
 14150 1d25 0100     		.2byte	0x1
 14151 1d27 50       		.byte	0x50
 14152 1d28 EE020000 		.4byte	.LVL380
 14153 1d2c F8020000 		.4byte	.LFE25
 14154 1d30 0100     		.2byte	0x1
 14155 1d32 50       		.byte	0x50
 14156 1d33 00000000 		.4byte	0
 14157 1d37 00000000 		.4byte	0
 14158              	.LLST152:
 14159 1d3b 8C000000 		.4byte	.LVL340
ARM GAS  /tmp/ccPo84yg.s 			page 250


 14160 1d3f 94000000 		.4byte	.LVL341
 14161 1d43 0200     		.2byte	0x2
 14162 1d45 30       		.byte	0x30
 14163 1d46 9F       		.byte	0x9f
 14164 1d47 D4000000 		.4byte	.LVL344
 14165 1d4b DA000000 		.4byte	.LVL345
 14166 1d4f 0100     		.2byte	0x1
 14167 1d51 55       		.byte	0x55
 14168 1d52 2E010000 		.4byte	.LVL354
 14169 1d56 46010000 		.4byte	.LVL358
 14170 1d5a 0200     		.2byte	0x2
 14171 1d5c 30       		.byte	0x30
 14172 1d5d 9F       		.byte	0x9f
 14173 1d5e 9E010000 		.4byte	.LVL361
 14174 1d62 AE010000 		.4byte	.LVL364
 14175 1d66 0100     		.2byte	0x1
 14176 1d68 54       		.byte	0x54
 14177 1d69 00000000 		.4byte	0
 14178 1d6d 00000000 		.4byte	0
 14179              	.LLST153:
 14180 1d71 B0000000 		.4byte	.LVL342
 14181 1d75 D2000000 		.4byte	.LVL343
 14182 1d79 0100     		.2byte	0x1
 14183 1d7b 55       		.byte	0x55
 14184 1d7c 6A020000 		.4byte	.LVL370
 14185 1d80 90020000 		.4byte	.LVL373
 14186 1d84 0100     		.2byte	0x1
 14187 1d86 55       		.byte	0x55
 14188 1d87 00000000 		.4byte	0
 14189 1d8b 00000000 		.4byte	0
 14190              	.LLST154:
 14191 1d8f 7A010000 		.4byte	.LVL359
 14192 1d93 9C010000 		.4byte	.LVL360
 14193 1d97 0100     		.2byte	0x1
 14194 1d99 54       		.byte	0x54
 14195 1d9a AA020000 		.4byte	.LVL374
 14196 1d9e D0020000 		.4byte	.LVL377
 14197 1da2 0100     		.2byte	0x1
 14198 1da4 54       		.byte	0x54
 14199 1da5 00000000 		.4byte	0
 14200 1da9 00000000 		.4byte	0
 14201              	.LLST155:
 14202 1dad 00000000 		.4byte	.LFB27
 14203 1db1 04000000 		.4byte	.LCFI31
 14204 1db5 0200     		.2byte	0x2
 14205 1db7 7D       		.byte	0x7d
 14206 1db8 00       		.sleb128 0
 14207 1db9 04000000 		.4byte	.LCFI31
 14208 1dbd 70000000 		.4byte	.LFE27
 14209 1dc1 0200     		.2byte	0x2
 14210 1dc3 7D       		.byte	0x7d
 14211 1dc4 08       		.sleb128 8
 14212 1dc5 00000000 		.4byte	0
 14213 1dc9 00000000 		.4byte	0
 14214              	.LLST156:
 14215 1dcd 00000000 		.4byte	.LVL382
 14216 1dd1 0A000000 		.4byte	.LVL383
ARM GAS  /tmp/ccPo84yg.s 			page 251


 14217 1dd5 0100     		.2byte	0x1
 14218 1dd7 50       		.byte	0x50
 14219 1dd8 0A000000 		.4byte	.LVL383
 14220 1ddc 70000000 		.4byte	.LFE27
 14221 1de0 0400     		.2byte	0x4
 14222 1de2 F3       		.byte	0xf3
 14223 1de3 01       		.uleb128 0x1
 14224 1de4 50       		.byte	0x50
 14225 1de5 9F       		.byte	0x9f
 14226 1de6 00000000 		.4byte	0
 14227 1dea 00000000 		.4byte	0
 14228              	.LLST157:
 14229 1dee 00000000 		.4byte	.LVL382
 14230 1df2 3A000000 		.4byte	.LVL387
 14231 1df6 0100     		.2byte	0x1
 14232 1df8 51       		.byte	0x51
 14233 1df9 3A000000 		.4byte	.LVL387
 14234 1dfd 5A000000 		.4byte	.LVL390
 14235 1e01 0400     		.2byte	0x4
 14236 1e03 F3       		.byte	0xf3
 14237 1e04 01       		.uleb128 0x1
 14238 1e05 51       		.byte	0x51
 14239 1e06 9F       		.byte	0x9f
 14240 1e07 5A000000 		.4byte	.LVL390
 14241 1e0b 5E000000 		.4byte	.LVL391
 14242 1e0f 0100     		.2byte	0x1
 14243 1e11 51       		.byte	0x51
 14244 1e12 5E000000 		.4byte	.LVL391
 14245 1e16 60000000 		.4byte	.LVL392
 14246 1e1a 0100     		.2byte	0x1
 14247 1e1c 52       		.byte	0x52
 14248 1e1d 60000000 		.4byte	.LVL392
 14249 1e21 64000000 		.4byte	.LVL393
 14250 1e25 0100     		.2byte	0x1
 14251 1e27 51       		.byte	0x51
 14252 1e28 64000000 		.4byte	.LVL393
 14253 1e2c 70000000 		.4byte	.LFE27
 14254 1e30 0400     		.2byte	0x4
 14255 1e32 F3       		.byte	0xf3
 14256 1e33 01       		.uleb128 0x1
 14257 1e34 51       		.byte	0x51
 14258 1e35 9F       		.byte	0x9f
 14259 1e36 00000000 		.4byte	0
 14260 1e3a 00000000 		.4byte	0
 14261              	.LLST158:
 14262 1e3e 3E000000 		.4byte	.LVL388
 14263 1e42 58000000 		.4byte	.LVL389
 14264 1e46 0100     		.2byte	0x1
 14265 1e48 50       		.byte	0x50
 14266 1e49 00000000 		.4byte	0
 14267 1e4d 00000000 		.4byte	0
 14268              	.LLST159:
 14269 1e51 00000000 		.4byte	.LVL382
 14270 1e55 3A000000 		.4byte	.LVL387
 14271 1e59 0200     		.2byte	0x2
 14272 1e5b 30       		.byte	0x30
 14273 1e5c 9F       		.byte	0x9f
ARM GAS  /tmp/ccPo84yg.s 			page 252


 14274 1e5d 3A000000 		.4byte	.LVL387
 14275 1e61 3D000000 		.4byte	.LVL388-1
 14276 1e65 0100     		.2byte	0x1
 14277 1e67 51       		.byte	0x51
 14278 1e68 5A000000 		.4byte	.LVL390
 14279 1e6c 70000000 		.4byte	.LFE27
 14280 1e70 0200     		.2byte	0x2
 14281 1e72 30       		.byte	0x30
 14282 1e73 9F       		.byte	0x9f
 14283 1e74 00000000 		.4byte	0
 14284 1e78 00000000 		.4byte	0
 14285              	.LLST160:
 14286 1e7c 00000000 		.4byte	.LVL382
 14287 1e80 3A000000 		.4byte	.LVL387
 14288 1e84 0200     		.2byte	0x2
 14289 1e86 30       		.byte	0x30
 14290 1e87 9F       		.byte	0x9f
 14291 1e88 3A000000 		.4byte	.LVL387
 14292 1e8c 3D000000 		.4byte	.LVL388-1
 14293 1e90 0100     		.2byte	0x1
 14294 1e92 52       		.byte	0x52
 14295 1e93 5A000000 		.4byte	.LVL390
 14296 1e97 70000000 		.4byte	.LFE27
 14297 1e9b 0200     		.2byte	0x2
 14298 1e9d 30       		.byte	0x30
 14299 1e9e 9F       		.byte	0x9f
 14300 1e9f 00000000 		.4byte	0
 14301 1ea3 00000000 		.4byte	0
 14302              	.LLST162:
 14303 1ea7 10000000 		.4byte	.LVL384
 14304 1eab 20000000 		.4byte	.LVL385
 14305 1eaf 0100     		.2byte	0x1
 14306 1eb1 54       		.byte	0x54
 14307 1eb2 26000000 		.4byte	.LVL386
 14308 1eb6 70000000 		.4byte	.LFE27
 14309 1eba 0100     		.2byte	0x1
 14310 1ebc 54       		.byte	0x54
 14311 1ebd 00000000 		.4byte	0
 14312 1ec1 00000000 		.4byte	0
 14313              	.LLST163:
 14314 1ec5 00000000 		.4byte	.LVL394
 14315 1ec9 05000000 		.4byte	.LVL395-1
 14316 1ecd 0100     		.2byte	0x1
 14317 1ecf 50       		.byte	0x50
 14318 1ed0 05000000 		.4byte	.LVL395-1
 14319 1ed4 06000000 		.4byte	.LFE29
 14320 1ed8 0400     		.2byte	0x4
 14321 1eda F3       		.byte	0xf3
 14322 1edb 01       		.uleb128 0x1
 14323 1edc 50       		.byte	0x50
 14324 1edd 9F       		.byte	0x9f
 14325 1ede 00000000 		.4byte	0
 14326 1ee2 00000000 		.4byte	0
 14327              	.LLST164:
 14328 1ee6 00000000 		.4byte	.LVL394
 14329 1eea 05000000 		.4byte	.LVL395-1
 14330 1eee 0100     		.2byte	0x1
ARM GAS  /tmp/ccPo84yg.s 			page 253


 14331 1ef0 51       		.byte	0x51
 14332 1ef1 05000000 		.4byte	.LVL395-1
 14333 1ef5 06000000 		.4byte	.LFE29
 14334 1ef9 0400     		.2byte	0x4
 14335 1efb F3       		.byte	0xf3
 14336 1efc 01       		.uleb128 0x1
 14337 1efd 51       		.byte	0x51
 14338 1efe 9F       		.byte	0x9f
 14339 1eff 00000000 		.4byte	0
 14340 1f03 00000000 		.4byte	0
 14341              	.LLST165:
 14342 1f07 00000000 		.4byte	.LVL394
 14343 1f0b 05000000 		.4byte	.LVL395-1
 14344 1f0f 0100     		.2byte	0x1
 14345 1f11 52       		.byte	0x52
 14346 1f12 05000000 		.4byte	.LVL395-1
 14347 1f16 06000000 		.4byte	.LFE29
 14348 1f1a 0400     		.2byte	0x4
 14349 1f1c F3       		.byte	0xf3
 14350 1f1d 01       		.uleb128 0x1
 14351 1f1e 52       		.byte	0x52
 14352 1f1f 9F       		.byte	0x9f
 14353 1f20 00000000 		.4byte	0
 14354 1f24 00000000 		.4byte	0
 14355              	.LLST166:
 14356 1f28 00000000 		.4byte	.LVL396
 14357 1f2c 05000000 		.4byte	.LVL397-1
 14358 1f30 0100     		.2byte	0x1
 14359 1f32 50       		.byte	0x50
 14360 1f33 05000000 		.4byte	.LVL397-1
 14361 1f37 06000000 		.4byte	.LFE30
 14362 1f3b 0400     		.2byte	0x4
 14363 1f3d F3       		.byte	0xf3
 14364 1f3e 01       		.uleb128 0x1
 14365 1f3f 50       		.byte	0x50
 14366 1f40 9F       		.byte	0x9f
 14367 1f41 00000000 		.4byte	0
 14368 1f45 00000000 		.4byte	0
 14369              	.LLST167:
 14370 1f49 00000000 		.4byte	.LVL396
 14371 1f4d 05000000 		.4byte	.LVL397-1
 14372 1f51 0100     		.2byte	0x1
 14373 1f53 51       		.byte	0x51
 14374 1f54 05000000 		.4byte	.LVL397-1
 14375 1f58 06000000 		.4byte	.LFE30
 14376 1f5c 0400     		.2byte	0x4
 14377 1f5e F3       		.byte	0xf3
 14378 1f5f 01       		.uleb128 0x1
 14379 1f60 51       		.byte	0x51
 14380 1f61 9F       		.byte	0x9f
 14381 1f62 00000000 		.4byte	0
 14382 1f66 00000000 		.4byte	0
 14383              	.LLST168:
 14384 1f6a 00000000 		.4byte	.LVL396
 14385 1f6e 05000000 		.4byte	.LVL397-1
 14386 1f72 0100     		.2byte	0x1
 14387 1f74 52       		.byte	0x52
ARM GAS  /tmp/ccPo84yg.s 			page 254


 14388 1f75 05000000 		.4byte	.LVL397-1
 14389 1f79 06000000 		.4byte	.LFE30
 14390 1f7d 0400     		.2byte	0x4
 14391 1f7f F3       		.byte	0xf3
 14392 1f80 01       		.uleb128 0x1
 14393 1f81 52       		.byte	0x52
 14394 1f82 9F       		.byte	0x9f
 14395 1f83 00000000 		.4byte	0
 14396 1f87 00000000 		.4byte	0
 14397              	.LLST169:
 14398 1f8b 00000000 		.4byte	.LFB31
 14399 1f8f 04000000 		.4byte	.LCFI32
 14400 1f93 0200     		.2byte	0x2
 14401 1f95 7D       		.byte	0x7d
 14402 1f96 00       		.sleb128 0
 14403 1f97 04000000 		.4byte	.LCFI32
 14404 1f9b 06000000 		.4byte	.LCFI33
 14405 1f9f 0200     		.2byte	0x2
 14406 1fa1 7D       		.byte	0x7d
 14407 1fa2 18       		.sleb128 24
 14408 1fa3 06000000 		.4byte	.LCFI33
 14409 1fa7 00010000 		.4byte	.LFE31
 14410 1fab 0200     		.2byte	0x2
 14411 1fad 7D       		.byte	0x7d
 14412 1fae 30       		.sleb128 48
 14413 1faf 00000000 		.4byte	0
 14414 1fb3 00000000 		.4byte	0
 14415              	.LLST170:
 14416 1fb7 00000000 		.4byte	.LVL398
 14417 1fbb 14000000 		.4byte	.LVL399
 14418 1fbf 0100     		.2byte	0x1
 14419 1fc1 50       		.byte	0x50
 14420 1fc2 14000000 		.4byte	.LVL399
 14421 1fc6 00010000 		.4byte	.LFE31
 14422 1fca 0400     		.2byte	0x4
 14423 1fcc F3       		.byte	0xf3
 14424 1fcd 01       		.uleb128 0x1
 14425 1fce 50       		.byte	0x50
 14426 1fcf 9F       		.byte	0x9f
 14427 1fd0 00000000 		.4byte	0
 14428 1fd4 00000000 		.4byte	0
 14429              	.LLST171:
 14430 1fd8 00000000 		.4byte	.LVL398
 14431 1fdc 1C000000 		.4byte	.LVL402
 14432 1fe0 0100     		.2byte	0x1
 14433 1fe2 51       		.byte	0x51
 14434 1fe3 1C000000 		.4byte	.LVL402
 14435 1fe7 00010000 		.4byte	.LFE31
 14436 1feb 0100     		.2byte	0x1
 14437 1fed 54       		.byte	0x54
 14438 1fee 00000000 		.4byte	0
 14439 1ff2 00000000 		.4byte	0
 14440              	.LLST172:
 14441 1ff6 00000000 		.4byte	.LVL398
 14442 1ffa 16000000 		.4byte	.LVL400
 14443 1ffe 0100     		.2byte	0x1
 14444 2000 52       		.byte	0x52
ARM GAS  /tmp/ccPo84yg.s 			page 255


 14445 2001 16000000 		.4byte	.LVL400
 14446 2005 00010000 		.4byte	.LFE31
 14447 2009 0100     		.2byte	0x1
 14448 200b 57       		.byte	0x57
 14449 200c 00000000 		.4byte	0
 14450 2010 00000000 		.4byte	0
 14451              	.LLST173:
 14452 2014 00000000 		.4byte	.LVL398
 14453 2018 42000000 		.4byte	.LVL403
 14454 201c 0100     		.2byte	0x1
 14455 201e 53       		.byte	0x53
 14456 201f 42000000 		.4byte	.LVL403
 14457 2023 4E000000 		.4byte	.LVL405
 14458 2027 0400     		.2byte	0x4
 14459 2029 F3       		.byte	0xf3
 14460 202a 01       		.uleb128 0x1
 14461 202b 53       		.byte	0x53
 14462 202c 9F       		.byte	0x9f
 14463 202d 4E000000 		.4byte	.LVL405
 14464 2031 7D000000 		.4byte	.LVL407-1
 14465 2035 0100     		.2byte	0x1
 14466 2037 53       		.byte	0x53
 14467 2038 7D000000 		.4byte	.LVL407-1
 14468 203c 96000000 		.4byte	.LVL410
 14469 2040 0400     		.2byte	0x4
 14470 2042 F3       		.byte	0xf3
 14471 2043 01       		.uleb128 0x1
 14472 2044 53       		.byte	0x53
 14473 2045 9F       		.byte	0x9f
 14474 2046 96000000 		.4byte	.LVL410
 14475 204a 9E000000 		.4byte	.LVL411
 14476 204e 0100     		.2byte	0x1
 14477 2050 53       		.byte	0x53
 14478 2051 9E000000 		.4byte	.LVL411
 14479 2055 A0000000 		.4byte	.LVL412
 14480 2059 0400     		.2byte	0x4
 14481 205b F3       		.byte	0xf3
 14482 205c 01       		.uleb128 0x1
 14483 205d 53       		.byte	0x53
 14484 205e 9F       		.byte	0x9f
 14485 205f A0000000 		.4byte	.LVL412
 14486 2063 D4000000 		.4byte	.LVL414
 14487 2067 0100     		.2byte	0x1
 14488 2069 53       		.byte	0x53
 14489 206a D4000000 		.4byte	.LVL414
 14490 206e D6000000 		.4byte	.LVL415
 14491 2072 0400     		.2byte	0x4
 14492 2074 F3       		.byte	0xf3
 14493 2075 01       		.uleb128 0x1
 14494 2076 53       		.byte	0x53
 14495 2077 9F       		.byte	0x9f
 14496 2078 D6000000 		.4byte	.LVL415
 14497 207c EA000000 		.4byte	.LVL416
 14498 2080 0100     		.2byte	0x1
 14499 2082 53       		.byte	0x53
 14500 2083 EA000000 		.4byte	.LVL416
 14501 2087 EC000000 		.4byte	.LVL417
ARM GAS  /tmp/ccPo84yg.s 			page 256


 14502 208b 0400     		.2byte	0x4
 14503 208d F3       		.byte	0xf3
 14504 208e 01       		.uleb128 0x1
 14505 208f 53       		.byte	0x53
 14506 2090 9F       		.byte	0x9f
 14507 2091 EC000000 		.4byte	.LVL417
 14508 2095 EE000000 		.4byte	.LVL418
 14509 2099 0100     		.2byte	0x1
 14510 209b 53       		.byte	0x53
 14511 209c EE000000 		.4byte	.LVL418
 14512 20a0 00010000 		.4byte	.LFE31
 14513 20a4 0400     		.2byte	0x4
 14514 20a6 F3       		.byte	0xf3
 14515 20a7 01       		.uleb128 0x1
 14516 20a8 53       		.byte	0x53
 14517 20a9 9F       		.byte	0x9f
 14518 20aa 00000000 		.4byte	0
 14519 20ae 00000000 		.4byte	0
 14520              	.LLST174:
 14521 20b2 00000000 		.4byte	.LVL398
 14522 20b6 42000000 		.4byte	.LVL403
 14523 20ba 0200     		.2byte	0x2
 14524 20bc 30       		.byte	0x30
 14525 20bd 9F       		.byte	0x9f
 14526 20be 4E000000 		.4byte	.LVL405
 14527 20c2 62000000 		.4byte	.LVL406
 14528 20c6 0200     		.2byte	0x2
 14529 20c8 30       		.byte	0x30
 14530 20c9 9F       		.byte	0x9f
 14531 20ca 8C000000 		.4byte	.LVL409
 14532 20ce 96000000 		.4byte	.LVL410
 14533 20d2 0200     		.2byte	0x2
 14534 20d4 91       		.byte	0x91
 14535 20d5 64       		.sleb128 -28
 14536 20d6 96000000 		.4byte	.LVL410
 14537 20da 9E000000 		.4byte	.LVL411
 14538 20de 0200     		.2byte	0x2
 14539 20e0 30       		.byte	0x30
 14540 20e1 9F       		.byte	0x9f
 14541 20e2 A0000000 		.4byte	.LVL412
 14542 20e6 CE000000 		.4byte	.LVL413
 14543 20ea 0200     		.2byte	0x2
 14544 20ec 30       		.byte	0x30
 14545 20ed 9F       		.byte	0x9f
 14546 20ee CE000000 		.4byte	.LVL413
 14547 20f2 EC000000 		.4byte	.LVL417
 14548 20f6 0100     		.2byte	0x1
 14549 20f8 52       		.byte	0x52
 14550 20f9 EC000000 		.4byte	.LVL417
 14551 20fd 00010000 		.4byte	.LFE31
 14552 2101 0200     		.2byte	0x2
 14553 2103 30       		.byte	0x30
 14554 2104 9F       		.byte	0x9f
 14555 2105 00000000 		.4byte	0
 14556 2109 00000000 		.4byte	0
 14557              	.LLST176:
 14558 210d 1A000000 		.4byte	.LVL401
ARM GAS  /tmp/ccPo84yg.s 			page 257


 14559 2111 44000000 		.4byte	.LVL404
 14560 2115 0100     		.2byte	0x1
 14561 2117 56       		.byte	0x56
 14562 2118 4E000000 		.4byte	.LVL405
 14563 211c 00010000 		.4byte	.LFE31
 14564 2120 0100     		.2byte	0x1
 14565 2122 56       		.byte	0x56
 14566 2123 00000000 		.4byte	0
 14567 2127 00000000 		.4byte	0
 14568              	.LLST177:
 14569 212b 00000000 		.4byte	.LFB33
 14570 212f 02000000 		.4byte	.LCFI34
 14571 2133 0200     		.2byte	0x2
 14572 2135 7D       		.byte	0x7d
 14573 2136 00       		.sleb128 0
 14574 2137 02000000 		.4byte	.LCFI34
 14575 213b 06000000 		.4byte	.LCFI35
 14576 213f 0200     		.2byte	0x2
 14577 2141 7D       		.byte	0x7d
 14578 2142 14       		.sleb128 20
 14579 2143 06000000 		.4byte	.LCFI35
 14580 2147 DC000000 		.4byte	.LFE33
 14581 214b 0200     		.2byte	0x2
 14582 214d 7D       		.byte	0x7d
 14583 214e 30       		.sleb128 48
 14584 214f 00000000 		.4byte	0
 14585 2153 00000000 		.4byte	0
 14586              	.LLST178:
 14587 2157 00000000 		.4byte	.LVL419
 14588 215b 10000000 		.4byte	.LVL420
 14589 215f 0100     		.2byte	0x1
 14590 2161 50       		.byte	0x50
 14591 2162 10000000 		.4byte	.LVL420
 14592 2166 DC000000 		.4byte	.LFE33
 14593 216a 0400     		.2byte	0x4
 14594 216c F3       		.byte	0xf3
 14595 216d 01       		.uleb128 0x1
 14596 216e 50       		.byte	0x50
 14597 216f 9F       		.byte	0x9f
 14598 2170 00000000 		.4byte	0
 14599 2174 00000000 		.4byte	0
 14600              	.LLST179:
 14601 2178 00000000 		.4byte	.LVL419
 14602 217c 18000000 		.4byte	.LVL423
 14603 2180 0100     		.2byte	0x1
 14604 2182 51       		.byte	0x51
 14605 2183 18000000 		.4byte	.LVL423
 14606 2187 DC000000 		.4byte	.LFE33
 14607 218b 0100     		.2byte	0x1
 14608 218d 54       		.byte	0x54
 14609 218e 00000000 		.4byte	0
 14610 2192 00000000 		.4byte	0
 14611              	.LLST180:
 14612 2196 00000000 		.4byte	.LVL419
 14613 219a 12000000 		.4byte	.LVL421
 14614 219e 0100     		.2byte	0x1
 14615 21a0 52       		.byte	0x52
ARM GAS  /tmp/ccPo84yg.s 			page 258


 14616 21a1 12000000 		.4byte	.LVL421
 14617 21a5 DC000000 		.4byte	.LFE33
 14618 21a9 0100     		.2byte	0x1
 14619 21ab 56       		.byte	0x56
 14620 21ac 00000000 		.4byte	0
 14621 21b0 00000000 		.4byte	0
 14622              	.LLST181:
 14623 21b4 00000000 		.4byte	.LVL419
 14624 21b8 34000000 		.4byte	.LVL425
 14625 21bc 0100     		.2byte	0x1
 14626 21be 53       		.byte	0x53
 14627 21bf 34000000 		.4byte	.LVL425
 14628 21c3 3E000000 		.4byte	.LVL427
 14629 21c7 0400     		.2byte	0x4
 14630 21c9 F3       		.byte	0xf3
 14631 21ca 01       		.uleb128 0x1
 14632 21cb 53       		.byte	0x53
 14633 21cc 9F       		.byte	0x9f
 14634 21cd 3E000000 		.4byte	.LVL427
 14635 21d1 56000000 		.4byte	.LVL428
 14636 21d5 0100     		.2byte	0x1
 14637 21d7 53       		.byte	0x53
 14638 21d8 56000000 		.4byte	.LVL428
 14639 21dc 58000000 		.4byte	.LVL429
 14640 21e0 0400     		.2byte	0x4
 14641 21e2 F3       		.byte	0xf3
 14642 21e3 01       		.uleb128 0x1
 14643 21e4 53       		.byte	0x53
 14644 21e5 9F       		.byte	0x9f
 14645 21e6 58000000 		.4byte	.LVL429
 14646 21ea 7A000000 		.4byte	.LVL431
 14647 21ee 0100     		.2byte	0x1
 14648 21f0 53       		.byte	0x53
 14649 21f1 7A000000 		.4byte	.LVL431
 14650 21f5 87000000 		.4byte	.LVL432-1
 14651 21f9 0200     		.2byte	0x2
 14652 21fb 73       		.byte	0x73
 14653 21fc 5C       		.sleb128 -36
 14654 21fd 87000000 		.4byte	.LVL432-1
 14655 2201 A0000000 		.4byte	.LVL435
 14656 2205 0400     		.2byte	0x4
 14657 2207 F3       		.byte	0xf3
 14658 2208 01       		.uleb128 0x1
 14659 2209 53       		.byte	0x53
 14660 220a 9F       		.byte	0x9f
 14661 220b A0000000 		.4byte	.LVL435
 14662 220f B2000000 		.4byte	.LVL437
 14663 2213 0100     		.2byte	0x1
 14664 2215 53       		.byte	0x53
 14665 2216 B2000000 		.4byte	.LVL437
 14666 221a B4000000 		.4byte	.LVL438
 14667 221e 0400     		.2byte	0x4
 14668 2220 F3       		.byte	0xf3
 14669 2221 01       		.uleb128 0x1
 14670 2222 53       		.byte	0x53
 14671 2223 9F       		.byte	0x9f
 14672 2224 B4000000 		.4byte	.LVL438
ARM GAS  /tmp/ccPo84yg.s 			page 259


 14673 2228 C8000000 		.4byte	.LVL439
 14674 222c 0100     		.2byte	0x1
 14675 222e 53       		.byte	0x53
 14676 222f C8000000 		.4byte	.LVL439
 14677 2233 CA000000 		.4byte	.LVL440
 14678 2237 0400     		.2byte	0x4
 14679 2239 F3       		.byte	0xf3
 14680 223a 01       		.uleb128 0x1
 14681 223b 53       		.byte	0x53
 14682 223c 9F       		.byte	0x9f
 14683 223d CA000000 		.4byte	.LVL440
 14684 2241 CC000000 		.4byte	.LVL441
 14685 2245 0100     		.2byte	0x1
 14686 2247 53       		.byte	0x53
 14687 2248 CC000000 		.4byte	.LVL441
 14688 224c DC000000 		.4byte	.LFE33
 14689 2250 0400     		.2byte	0x4
 14690 2252 F3       		.byte	0xf3
 14691 2253 01       		.uleb128 0x1
 14692 2254 53       		.byte	0x53
 14693 2255 9F       		.byte	0x9f
 14694 2256 00000000 		.4byte	0
 14695 225a 00000000 		.4byte	0
 14696              	.LLST182:
 14697 225e 1A000000 		.4byte	.LVL424
 14698 2262 34000000 		.4byte	.LVL425
 14699 2266 0200     		.2byte	0x2
 14700 2268 30       		.byte	0x30
 14701 2269 9F       		.byte	0x9f
 14702 226a 3E000000 		.4byte	.LVL427
 14703 226e 56000000 		.4byte	.LVL428
 14704 2272 0200     		.2byte	0x2
 14705 2274 30       		.byte	0x30
 14706 2275 9F       		.byte	0x9f
 14707 2276 58000000 		.4byte	.LVL429
 14708 227a 6C000000 		.4byte	.LVL430
 14709 227e 0200     		.2byte	0x2
 14710 2280 30       		.byte	0x30
 14711 2281 9F       		.byte	0x9f
 14712 2282 96000000 		.4byte	.LVL434
 14713 2286 A0000000 		.4byte	.LVL435
 14714 228a 0200     		.2byte	0x2
 14715 228c 91       		.byte	0x91
 14716 228d 64       		.sleb128 -28
 14717 228e A0000000 		.4byte	.LVL435
 14718 2292 AC000000 		.4byte	.LVL436
 14719 2296 0200     		.2byte	0x2
 14720 2298 30       		.byte	0x30
 14721 2299 9F       		.byte	0x9f
 14722 229a AC000000 		.4byte	.LVL436
 14723 229e CA000000 		.4byte	.LVL440
 14724 22a2 0100     		.2byte	0x1
 14725 22a4 52       		.byte	0x52
 14726 22a5 CA000000 		.4byte	.LVL440
 14727 22a9 DC000000 		.4byte	.LFE33
 14728 22ad 0200     		.2byte	0x2
 14729 22af 30       		.byte	0x30
ARM GAS  /tmp/ccPo84yg.s 			page 260


 14730 22b0 9F       		.byte	0x9f
 14731 22b1 00000000 		.4byte	0
 14732 22b5 00000000 		.4byte	0
 14733              	.LLST184:
 14734 22b9 16000000 		.4byte	.LVL422
 14735 22bd 36000000 		.4byte	.LVL426
 14736 22c1 0100     		.2byte	0x1
 14737 22c3 55       		.byte	0x55
 14738 22c4 3E000000 		.4byte	.LVL427
 14739 22c8 DC000000 		.4byte	.LFE33
 14740 22cc 0100     		.2byte	0x1
 14741 22ce 55       		.byte	0x55
 14742 22cf 00000000 		.4byte	0
 14743 22d3 00000000 		.4byte	0
 14744              	.LLST185:
 14745 22d7 00000000 		.4byte	.LFB35
 14746 22db 04000000 		.4byte	.LCFI36
 14747 22df 0200     		.2byte	0x2
 14748 22e1 7D       		.byte	0x7d
 14749 22e2 00       		.sleb128 0
 14750 22e3 04000000 		.4byte	.LCFI36
 14751 22e7 54000000 		.4byte	.LFE35
 14752 22eb 0200     		.2byte	0x2
 14753 22ed 7D       		.byte	0x7d
 14754 22ee 04       		.sleb128 4
 14755 22ef 00000000 		.4byte	0
 14756 22f3 00000000 		.4byte	0
 14757              	.LLST186:
 14758 22f7 00000000 		.4byte	.LVL442
 14759 22fb 0A000000 		.4byte	.LVL443
 14760 22ff 0100     		.2byte	0x1
 14761 2301 50       		.byte	0x50
 14762 2302 0A000000 		.4byte	.LVL443
 14763 2306 54000000 		.4byte	.LFE35
 14764 230a 0400     		.2byte	0x4
 14765 230c F3       		.byte	0xf3
 14766 230d 01       		.uleb128 0x1
 14767 230e 50       		.byte	0x50
 14768 230f 9F       		.byte	0x9f
 14769 2310 00000000 		.4byte	0
 14770 2314 00000000 		.4byte	0
 14771              	.LLST187:
 14772 2318 00000000 		.4byte	.LVL442
 14773 231c 2E000000 		.4byte	.LVL446
 14774 2320 0100     		.2byte	0x1
 14775 2322 52       		.byte	0x52
 14776 2323 2E000000 		.4byte	.LVL446
 14777 2327 32000000 		.4byte	.LVL447
 14778 232b 0400     		.2byte	0x4
 14779 232d F3       		.byte	0xf3
 14780 232e 01       		.uleb128 0x1
 14781 232f 52       		.byte	0x52
 14782 2330 9F       		.byte	0x9f
 14783 2331 32000000 		.4byte	.LVL447
 14784 2335 36000000 		.4byte	.LVL448
 14785 2339 0100     		.2byte	0x1
 14786 233b 52       		.byte	0x52
ARM GAS  /tmp/ccPo84yg.s 			page 261


 14787 233c 36000000 		.4byte	.LVL448
 14788 2340 54000000 		.4byte	.LFE35
 14789 2344 0400     		.2byte	0x4
 14790 2346 F3       		.byte	0xf3
 14791 2347 01       		.uleb128 0x1
 14792 2348 52       		.byte	0x52
 14793 2349 9F       		.byte	0x9f
 14794 234a 00000000 		.4byte	0
 14795 234e 00000000 		.4byte	0
 14796              	.LLST188:
 14797 2352 32000000 		.4byte	.LVL447
 14798 2356 38000000 		.4byte	.LVL449
 14799 235a 0200     		.2byte	0x2
 14800 235c 30       		.byte	0x30
 14801 235d 9F       		.byte	0x9f
 14802 235e 38000000 		.4byte	.LVL449
 14803 2362 40000000 		.4byte	.LVL450
 14804 2366 0200     		.2byte	0x2
 14805 2368 31       		.byte	0x31
 14806 2369 9F       		.byte	0x9f
 14807 236a 46000000 		.4byte	.LVL451
 14808 236e 54000000 		.4byte	.LFE35
 14809 2372 0200     		.2byte	0x2
 14810 2374 30       		.byte	0x30
 14811 2375 9F       		.byte	0x9f
 14812 2376 00000000 		.4byte	0
 14813 237a 00000000 		.4byte	0
 14814              	.LLST190:
 14815 237e 10000000 		.4byte	.LVL444
 14816 2382 2A000000 		.4byte	.LVL445
 14817 2386 0100     		.2byte	0x1
 14818 2388 54       		.byte	0x54
 14819 2389 32000000 		.4byte	.LVL447
 14820 238d 54000000 		.4byte	.LFE35
 14821 2391 0100     		.2byte	0x1
 14822 2393 54       		.byte	0x54
 14823 2394 00000000 		.4byte	0
 14824 2398 00000000 		.4byte	0
 14825              	.LLST191:
 14826 239c 00000000 		.4byte	.LVL452
 14827 23a0 08000000 		.4byte	.LVL454
 14828 23a4 0100     		.2byte	0x1
 14829 23a6 50       		.byte	0x50
 14830 23a7 08000000 		.4byte	.LVL454
 14831 23ab 4C000000 		.4byte	.LFE36
 14832 23af 0400     		.2byte	0x4
 14833 23b1 F3       		.byte	0xf3
 14834 23b2 01       		.uleb128 0x1
 14835 23b3 50       		.byte	0x50
 14836 23b4 9F       		.byte	0x9f
 14837 23b5 00000000 		.4byte	0
 14838 23b9 00000000 		.4byte	0
 14839              	.LLST192:
 14840 23bd 00000000 		.4byte	.LVL452
 14841 23c1 18000000 		.4byte	.LVL456
 14842 23c5 0100     		.2byte	0x1
 14843 23c7 51       		.byte	0x51
ARM GAS  /tmp/ccPo84yg.s 			page 262


 14844 23c8 18000000 		.4byte	.LVL456
 14845 23cc 1E000000 		.4byte	.LVL457
 14846 23d0 0400     		.2byte	0x4
 14847 23d2 F3       		.byte	0xf3
 14848 23d3 01       		.uleb128 0x1
 14849 23d4 51       		.byte	0x51
 14850 23d5 9F       		.byte	0x9f
 14851 23d6 1E000000 		.4byte	.LVL457
 14852 23da 22000000 		.4byte	.LVL458
 14853 23de 0100     		.2byte	0x1
 14854 23e0 51       		.byte	0x51
 14855 23e1 22000000 		.4byte	.LVL458
 14856 23e5 3E000000 		.4byte	.LVL460
 14857 23e9 0400     		.2byte	0x4
 14858 23eb F3       		.byte	0xf3
 14859 23ec 01       		.uleb128 0x1
 14860 23ed 51       		.byte	0x51
 14861 23ee 9F       		.byte	0x9f
 14862 23ef 3E000000 		.4byte	.LVL460
 14863 23f3 4C000000 		.4byte	.LFE36
 14864 23f7 0100     		.2byte	0x1
 14865 23f9 51       		.byte	0x51
 14866 23fa 00000000 		.4byte	0
 14867 23fe 00000000 		.4byte	0
 14868              	.LLST193:
 14869 2402 00000000 		.4byte	.LVL452
 14870 2406 2A000000 		.4byte	.LVL459
 14871 240a 0100     		.2byte	0x1
 14872 240c 52       		.byte	0x52
 14873 240d 2A000000 		.4byte	.LVL459
 14874 2411 3E000000 		.4byte	.LVL460
 14875 2415 0400     		.2byte	0x4
 14876 2417 F3       		.byte	0xf3
 14877 2418 01       		.uleb128 0x1
 14878 2419 52       		.byte	0x52
 14879 241a 9F       		.byte	0x9f
 14880 241b 3E000000 		.4byte	.LVL460
 14881 241f 4C000000 		.4byte	.LFE36
 14882 2423 0100     		.2byte	0x1
 14883 2425 52       		.byte	0x52
 14884 2426 00000000 		.4byte	0
 14885 242a 00000000 		.4byte	0
 14886              	.LLST194:
 14887 242e 10000000 		.4byte	.LVL455
 14888 2432 18000000 		.4byte	.LVL456
 14889 2436 0300     		.2byte	0x3
 14890 2438 09       		.byte	0x9
 14891 2439 FF       		.byte	0xff
 14892 243a 9F       		.byte	0x9f
 14893 243b 1E000000 		.4byte	.LVL457
 14894 243f 44000000 		.4byte	.LVL461
 14895 2443 0300     		.2byte	0x3
 14896 2445 09       		.byte	0x9
 14897 2446 FF       		.byte	0xff
 14898 2447 9F       		.byte	0x9f
 14899 2448 44000000 		.4byte	.LVL461
 14900 244c 4C000000 		.4byte	.LFE36
ARM GAS  /tmp/ccPo84yg.s 			page 263


 14901 2450 0100     		.2byte	0x1
 14902 2452 50       		.byte	0x50
 14903 2453 00000000 		.4byte	0
 14904 2457 00000000 		.4byte	0
 14905              	.LLST196:
 14906 245b 04000000 		.4byte	.LVL453
 14907 245f 08000000 		.4byte	.LVL454
 14908 2463 0B00     		.2byte	0xb
 14909 2465 70       		.byte	0x70
 14910 2466 00       		.sleb128 0
 14911 2467 48       		.byte	0x48
 14912 2468 1E       		.byte	0x1e
 14913 2469 03       		.byte	0x3
 14914 246a 00000000 		.4byte	sockets
 14915 246e 22       		.byte	0x22
 14916 246f 9F       		.byte	0x9f
 14917 2470 08000000 		.4byte	.LVL454
 14918 2474 18000000 		.4byte	.LVL456
 14919 2478 0C00     		.2byte	0xc
 14920 247a F3       		.byte	0xf3
 14921 247b 01       		.uleb128 0x1
 14922 247c 50       		.byte	0x50
 14923 247d 48       		.byte	0x48
 14924 247e 1E       		.byte	0x1e
 14925 247f 03       		.byte	0x3
 14926 2480 00000000 		.4byte	sockets
 14927 2484 22       		.byte	0x22
 14928 2485 9F       		.byte	0x9f
 14929 2486 1E000000 		.4byte	.LVL457
 14930 248a 4C000000 		.4byte	.LFE36
 14931 248e 0C00     		.2byte	0xc
 14932 2490 F3       		.byte	0xf3
 14933 2491 01       		.uleb128 0x1
 14934 2492 50       		.byte	0x50
 14935 2493 48       		.byte	0x48
 14936 2494 1E       		.byte	0x1e
 14937 2495 03       		.byte	0x3
 14938 2496 00000000 		.4byte	sockets
 14939 249a 22       		.byte	0x22
 14940 249b 9F       		.byte	0x9f
 14941 249c 00000000 		.4byte	0
 14942 24a0 00000000 		.4byte	0
 14943              		.section	.debug_aranges,"",%progbits
 14944 0000 EC000000 		.4byte	0xec
 14945 0004 0200     		.2byte	0x2
 14946 0006 00000000 		.4byte	.Ldebug_info0
 14947 000a 04       		.byte	0x4
 14948 000b 00       		.byte	0
 14949 000c 0000     		.2byte	0
 14950 000e 0000     		.2byte	0
 14951 0010 00000000 		.4byte	.LFB10
 14952 0014 68000000 		.4byte	.LFE10-.LFB10
 14953 0018 00000000 		.4byte	.LFB34
 14954 001c F4000000 		.4byte	.LFE34-.LFB34
 14955 0020 00000000 		.4byte	.LFB32
 14956 0024 10010000 		.4byte	.LFE32-.LFB32
 14957 0028 00000000 		.4byte	.LFB26
ARM GAS  /tmp/ccPo84yg.s 			page 264


 14958 002c F8000000 		.4byte	.LFE26-.LFB26
 14959 0030 00000000 		.4byte	.LFB24
 14960 0034 2C010000 		.4byte	.LFE24-.LFB24
 14961 0038 00000000 		.4byte	.LFB28
 14962 003c 78000000 		.4byte	.LFE28-.LFB28
 14963 0040 00000000 		.4byte	.LFB7
 14964 0044 02000000 		.4byte	.LFE7-.LFB7
 14965 0048 00000000 		.4byte	.LFB12
 14966 004c 4C010000 		.4byte	.LFE12-.LFB12
 14967 0050 00000000 		.4byte	.LFB13
 14968 0054 78000000 		.4byte	.LFE13-.LFB13
 14969 0058 00000000 		.4byte	.LFB14
 14970 005c 58000000 		.4byte	.LFE14-.LFB14
 14971 0060 00000000 		.4byte	.LFB15
 14972 0064 78000000 		.4byte	.LFE15-.LFB15
 14973 0068 00000000 		.4byte	.LFB16
 14974 006c 50000000 		.4byte	.LFE16-.LFB16
 14975 0070 00000000 		.4byte	.LFB17
 14976 0074 14020000 		.4byte	.LFE17-.LFB17
 14977 0078 00000000 		.4byte	.LFB18
 14978 007c 12000000 		.4byte	.LFE18-.LFB18
 14979 0080 00000000 		.4byte	.LFB19
 14980 0084 12000000 		.4byte	.LFE19-.LFB19
 14981 0088 00000000 		.4byte	.LFB21
 14982 008c D8000000 		.4byte	.LFE21-.LFB21
 14983 0090 00000000 		.4byte	.LFB20
 14984 0094 A0000000 		.4byte	.LFE20-.LFB20
 14985 0098 00000000 		.4byte	.LFB22
 14986 009c 78000000 		.4byte	.LFE22-.LFB22
 14987 00a0 00000000 		.4byte	.LFB23
 14988 00a4 06000000 		.4byte	.LFE23-.LFB23
 14989 00a8 00000000 		.4byte	.LFB25
 14990 00ac F8020000 		.4byte	.LFE25-.LFB25
 14991 00b0 00000000 		.4byte	.LFB27
 14992 00b4 70000000 		.4byte	.LFE27-.LFB27
 14993 00b8 00000000 		.4byte	.LFB29
 14994 00bc 06000000 		.4byte	.LFE29-.LFB29
 14995 00c0 00000000 		.4byte	.LFB30
 14996 00c4 06000000 		.4byte	.LFE30-.LFB30
 14997 00c8 00000000 		.4byte	.LFB31
 14998 00cc 00010000 		.4byte	.LFE31-.LFB31
 14999 00d0 00000000 		.4byte	.LFB33
 15000 00d4 DC000000 		.4byte	.LFE33-.LFB33
 15001 00d8 00000000 		.4byte	.LFB35
 15002 00dc 54000000 		.4byte	.LFE35-.LFB35
 15003 00e0 00000000 		.4byte	.LFB36
 15004 00e4 4C000000 		.4byte	.LFE36-.LFB36
 15005 00e8 00000000 		.4byte	0
 15006 00ec 00000000 		.4byte	0
 15007              		.section	.debug_ranges,"",%progbits
 15008              	.Ldebug_ranges0:
 15009 0000 5A000000 		.4byte	.LBB47
 15010 0004 92000000 		.4byte	.LBE47
 15011 0008 D2000000 		.4byte	.LBB48
 15012 000c E2000000 		.4byte	.LBE48
 15013 0010 00000000 		.4byte	0
 15014 0014 00000000 		.4byte	0
ARM GAS  /tmp/ccPo84yg.s 			page 265


 15015 0018 1E000000 		.4byte	.LBB49
 15016 001c EE000000 		.4byte	.LBE49
 15017 0020 1A010000 		.4byte	.LBB54
 15018 0024 2C010000 		.4byte	.LBE54
 15019 0028 00000000 		.4byte	0
 15020 002c 00000000 		.4byte	0
 15021 0030 20000000 		.4byte	.LBB50
 15022 0034 3A000000 		.4byte	.LBE50
 15023 0038 1A010000 		.4byte	.LBB53
 15024 003c 2C010000 		.4byte	.LBE53
 15025 0040 00000000 		.4byte	0
 15026 0044 00000000 		.4byte	0
 15027 0048 04000000 		.4byte	.LBB55
 15028 004c 06000000 		.4byte	.LBE55
 15029 0050 0C000000 		.4byte	.LBB59
 15030 0054 1E000000 		.4byte	.LBE59
 15031 0058 68000000 		.4byte	.LBB60
 15032 005c 6C000000 		.4byte	.LBE60
 15033 0060 00000000 		.4byte	0
 15034 0064 00000000 		.4byte	0
 15035 0068 04000000 		.4byte	.LBB56
 15036 006c 06000000 		.4byte	.LBE56
 15037 0070 0C000000 		.4byte	.LBB57
 15038 0074 1E000000 		.4byte	.LBE57
 15039 0078 68000000 		.4byte	.LBB58
 15040 007c 6C000000 		.4byte	.LBE58
 15041 0080 00000000 		.4byte	0
 15042 0084 00000000 		.4byte	0
 15043 0088 04000000 		.4byte	.LBB61
 15044 008c 06000000 		.4byte	.LBE61
 15045 0090 0C000000 		.4byte	.LBB65
 15046 0094 1E000000 		.4byte	.LBE65
 15047 0098 D8000000 		.4byte	.LBB66
 15048 009c DC000000 		.4byte	.LBE66
 15049 00a0 00000000 		.4byte	0
 15050 00a4 00000000 		.4byte	0
 15051 00a8 04000000 		.4byte	.LBB62
 15052 00ac 06000000 		.4byte	.LBE62
 15053 00b0 0C000000 		.4byte	.LBB63
 15054 00b4 1E000000 		.4byte	.LBE63
 15055 00b8 D8000000 		.4byte	.LBB64
 15056 00bc DC000000 		.4byte	.LBE64
 15057 00c0 00000000 		.4byte	0
 15058 00c4 00000000 		.4byte	0
 15059 00c8 02000000 		.4byte	.LBB67
 15060 00cc 04000000 		.4byte	.LBE67
 15061 00d0 06000000 		.4byte	.LBB71
 15062 00d4 16000000 		.4byte	.LBE71
 15063 00d8 42000000 		.4byte	.LBB72
 15064 00dc 46000000 		.4byte	.LBE72
 15065 00e0 00000000 		.4byte	0
 15066 00e4 00000000 		.4byte	0
 15067 00e8 02000000 		.4byte	.LBB68
 15068 00ec 04000000 		.4byte	.LBE68
 15069 00f0 06000000 		.4byte	.LBB69
 15070 00f4 16000000 		.4byte	.LBE69
 15071 00f8 42000000 		.4byte	.LBB70
ARM GAS  /tmp/ccPo84yg.s 			page 266


 15072 00fc 46000000 		.4byte	.LBE70
 15073 0100 00000000 		.4byte	0
 15074 0104 00000000 		.4byte	0
 15075 0108 00000000 		.4byte	.LBB77
 15076 010c 02000000 		.4byte	.LBE77
 15077 0110 06000000 		.4byte	.LBB81
 15078 0114 16000000 		.4byte	.LBE81
 15079 0118 3E000000 		.4byte	.LBB85
 15080 011c 46000000 		.4byte	.LBE85
 15081 0120 00000000 		.4byte	0
 15082 0124 00000000 		.4byte	0
 15083 0128 00000000 		.4byte	.LBB78
 15084 012c 02000000 		.4byte	.LBE78
 15085 0130 06000000 		.4byte	.LBB79
 15086 0134 16000000 		.4byte	.LBE79
 15087 0138 3E000000 		.4byte	.LBB80
 15088 013c 46000000 		.4byte	.LBE80
 15089 0140 00000000 		.4byte	0
 15090 0144 00000000 		.4byte	0
 15091 0148 20000000 		.4byte	.LBB82
 15092 014c 3E000000 		.4byte	.LBE82
 15093 0150 4A000000 		.4byte	.LBB86
 15094 0154 58000000 		.4byte	.LBE86
 15095 0158 00000000 		.4byte	0
 15096 015c 00000000 		.4byte	0
 15097 0160 20000000 		.4byte	.LBB83
 15098 0164 3E000000 		.4byte	.LBE83
 15099 0168 4A000000 		.4byte	.LBB84
 15100 016c 58000000 		.4byte	.LBE84
 15101 0170 00000000 		.4byte	0
 15102 0174 00000000 		.4byte	0
 15103 0178 02000000 		.4byte	.LBB87
 15104 017c 04000000 		.4byte	.LBE87
 15105 0180 06000000 		.4byte	.LBB91
 15106 0184 16000000 		.4byte	.LBE91
 15107 0188 42000000 		.4byte	.LBB93
 15108 018c 46000000 		.4byte	.LBE93
 15109 0190 00000000 		.4byte	0
 15110 0194 00000000 		.4byte	0
 15111 0198 02000000 		.4byte	.LBB88
 15112 019c 04000000 		.4byte	.LBE88
 15113 01a0 06000000 		.4byte	.LBB89
 15114 01a4 16000000 		.4byte	.LBE89
 15115 01a8 42000000 		.4byte	.LBB90
 15116 01ac 46000000 		.4byte	.LBE90
 15117 01b0 00000000 		.4byte	0
 15118 01b4 00000000 		.4byte	0
 15119 01b8 00000000 		.4byte	.LBB94
 15120 01bc 02000000 		.4byte	.LBE94
 15121 01c0 04000000 		.4byte	.LBB98
 15122 01c4 14000000 		.4byte	.LBE98
 15123 01c8 24000000 		.4byte	.LBB99
 15124 01cc 2A000000 		.4byte	.LBE99
 15125 01d0 00000000 		.4byte	0
 15126 01d4 00000000 		.4byte	0
 15127 01d8 00000000 		.4byte	.LBB95
 15128 01dc 02000000 		.4byte	.LBE95
ARM GAS  /tmp/ccPo84yg.s 			page 267


 15129 01e0 04000000 		.4byte	.LBB96
 15130 01e4 14000000 		.4byte	.LBE96
 15131 01e8 24000000 		.4byte	.LBB97
 15132 01ec 2A000000 		.4byte	.LBE97
 15133 01f0 00000000 		.4byte	0
 15134 01f4 00000000 		.4byte	0
 15135 01f8 08000000 		.4byte	.LBB100
 15136 01fc 0A000000 		.4byte	.LBE100
 15137 0200 12000000 		.4byte	.LBB104
 15138 0204 24000000 		.4byte	.LBE104
 15139 0208 F4000000 		.4byte	.LBB112
 15140 020c F8000000 		.4byte	.LBE112
 15141 0210 00000000 		.4byte	0
 15142 0214 00000000 		.4byte	0
 15143 0218 08000000 		.4byte	.LBB101
 15144 021c 0A000000 		.4byte	.LBE101
 15145 0220 12000000 		.4byte	.LBB102
 15146 0224 24000000 		.4byte	.LBE102
 15147 0228 F4000000 		.4byte	.LBB103
 15148 022c F8000000 		.4byte	.LBE103
 15149 0230 00000000 		.4byte	0
 15150 0234 00000000 		.4byte	0
 15151 0238 26000000 		.4byte	.LBB105
 15152 023c 2A000000 		.4byte	.LBE105
 15153 0240 30000000 		.4byte	.LBB110
 15154 0244 36000000 		.4byte	.LBE110
 15155 0248 7A000000 		.4byte	.LBB111
 15156 024c E2000000 		.4byte	.LBE111
 15157 0250 C0010000 		.4byte	.LBB113
 15158 0254 D0010000 		.4byte	.LBE113
 15159 0258 00000000 		.4byte	0
 15160 025c 00000000 		.4byte	0
 15161 0260 26000000 		.4byte	.LBB106
 15162 0264 2A000000 		.4byte	.LBE106
 15163 0268 30000000 		.4byte	.LBB107
 15164 026c 36000000 		.4byte	.LBE107
 15165 0270 86000000 		.4byte	.LBB108
 15166 0274 E2000000 		.4byte	.LBE108
 15167 0278 C0010000 		.4byte	.LBB109
 15168 027c D0010000 		.4byte	.LBE109
 15169 0280 00000000 		.4byte	0
 15170 0284 00000000 		.4byte	0
 15171 0288 06000000 		.4byte	.LBB114
 15172 028c 08000000 		.4byte	.LBE114
 15173 0290 12000000 		.4byte	.LBB117
 15174 0294 2A000000 		.4byte	.LBE117
 15175 0298 00000000 		.4byte	0
 15176 029c 00000000 		.4byte	0
 15177 02a0 06000000 		.4byte	.LBB115
 15178 02a4 08000000 		.4byte	.LBE115
 15179 02a8 12000000 		.4byte	.LBB116
 15180 02ac 2A000000 		.4byte	.LBE116
 15181 02b0 00000000 		.4byte	0
 15182 02b4 00000000 		.4byte	0
 15183 02b8 04000000 		.4byte	.LBB118
 15184 02bc 06000000 		.4byte	.LBE118
 15185 02c0 10000000 		.4byte	.LBB121
ARM GAS  /tmp/ccPo84yg.s 			page 268


 15186 02c4 26000000 		.4byte	.LBE121
 15187 02c8 00000000 		.4byte	0
 15188 02cc 00000000 		.4byte	0
 15189 02d0 04000000 		.4byte	.LBB119
 15190 02d4 06000000 		.4byte	.LBE119
 15191 02d8 10000000 		.4byte	.LBB120
 15192 02dc 26000000 		.4byte	.LBE120
 15193 02e0 00000000 		.4byte	0
 15194 02e4 00000000 		.4byte	0
 15195 02e8 90000000 		.4byte	.LBB122
 15196 02ec 92000000 		.4byte	.LBE122
 15197 02f0 B0000000 		.4byte	.LBB129
 15198 02f4 D2000000 		.4byte	.LBE129
 15199 02f8 6A020000 		.4byte	.LBB138
 15200 02fc 90020000 		.4byte	.LBE138
 15201 0300 00000000 		.4byte	0
 15202 0304 00000000 		.4byte	0
 15203 0308 90000000 		.4byte	.LBB123
 15204 030c 92000000 		.4byte	.LBE123
 15205 0310 B0000000 		.4byte	.LBB127
 15206 0314 C6000000 		.4byte	.LBE127
 15207 0318 6A020000 		.4byte	.LBB128
 15208 031c 70020000 		.4byte	.LBE128
 15209 0320 00000000 		.4byte	0
 15210 0324 00000000 		.4byte	0
 15211 0328 38010000 		.4byte	.LBB130
 15212 032c 3A010000 		.4byte	.LBE130
 15213 0330 7A010000 		.4byte	.LBB137
 15214 0334 9C010000 		.4byte	.LBE137
 15215 0338 AA020000 		.4byte	.LBB139
 15216 033c D0020000 		.4byte	.LBE139
 15217 0340 00000000 		.4byte	0
 15218 0344 00000000 		.4byte	0
 15219 0348 38010000 		.4byte	.LBB131
 15220 034c 3A010000 		.4byte	.LBE131
 15221 0350 7A010000 		.4byte	.LBB135
 15222 0354 90010000 		.4byte	.LBE135
 15223 0358 AA020000 		.4byte	.LBB136
 15224 035c B0020000 		.4byte	.LBE136
 15225 0360 00000000 		.4byte	0
 15226 0364 00000000 		.4byte	0
 15227 0368 00000000 		.4byte	.LBB140
 15228 036c 02000000 		.4byte	.LBE140
 15229 0370 04000000 		.4byte	.LBB144
 15230 0374 14000000 		.4byte	.LBE144
 15231 0378 20000000 		.4byte	.LBB145
 15232 037c 26000000 		.4byte	.LBE145
 15233 0380 00000000 		.4byte	0
 15234 0384 00000000 		.4byte	0
 15235 0388 00000000 		.4byte	.LBB141
 15236 038c 02000000 		.4byte	.LBE141
 15237 0390 04000000 		.4byte	.LBB142
 15238 0394 14000000 		.4byte	.LBE142
 15239 0398 20000000 		.4byte	.LBB143
 15240 039c 26000000 		.4byte	.LBE143
 15241 03a0 00000000 		.4byte	0
 15242 03a4 00000000 		.4byte	0
ARM GAS  /tmp/ccPo84yg.s 			page 269


 15243 03a8 06000000 		.4byte	.LBB146
 15244 03ac 08000000 		.4byte	.LBE146
 15245 03b0 0E000000 		.4byte	.LBB149
 15246 03b4 1E000000 		.4byte	.LBE149
 15247 03b8 00000000 		.4byte	0
 15248 03bc 00000000 		.4byte	0
 15249 03c0 06000000 		.4byte	.LBB147
 15250 03c4 08000000 		.4byte	.LBE147
 15251 03c8 0E000000 		.4byte	.LBB148
 15252 03cc 1E000000 		.4byte	.LBE148
 15253 03d0 00000000 		.4byte	0
 15254 03d4 00000000 		.4byte	0
 15255 03d8 02000000 		.4byte	.LBB150
 15256 03dc 04000000 		.4byte	.LBE150
 15257 03e0 0A000000 		.4byte	.LBB153
 15258 03e4 1A000000 		.4byte	.LBE153
 15259 03e8 00000000 		.4byte	0
 15260 03ec 00000000 		.4byte	0
 15261 03f0 02000000 		.4byte	.LBB151
 15262 03f4 04000000 		.4byte	.LBE151
 15263 03f8 0A000000 		.4byte	.LBB152
 15264 03fc 1A000000 		.4byte	.LBE152
 15265 0400 00000000 		.4byte	0
 15266 0404 00000000 		.4byte	0
 15267 0408 00000000 		.4byte	.LBB154
 15268 040c 02000000 		.4byte	.LBE154
 15269 0410 04000000 		.4byte	.LBB158
 15270 0414 14000000 		.4byte	.LBE158
 15271 0418 2A000000 		.4byte	.LBB159
 15272 041c 2E000000 		.4byte	.LBE159
 15273 0420 00000000 		.4byte	0
 15274 0424 00000000 		.4byte	0
 15275 0428 00000000 		.4byte	.LBB155
 15276 042c 02000000 		.4byte	.LBE155
 15277 0430 04000000 		.4byte	.LBB156
 15278 0434 14000000 		.4byte	.LBE156
 15279 0438 2A000000 		.4byte	.LBB157
 15280 043c 2E000000 		.4byte	.LBE157
 15281 0440 00000000 		.4byte	0
 15282 0444 00000000 		.4byte	0
 15283 0448 00000000 		.4byte	.LFB10
 15284 044c 68000000 		.4byte	.LFE10
 15285 0450 00000000 		.4byte	.LFB34
 15286 0454 F4000000 		.4byte	.LFE34
 15287 0458 00000000 		.4byte	.LFB32
 15288 045c 10010000 		.4byte	.LFE32
 15289 0460 00000000 		.4byte	.LFB26
 15290 0464 F8000000 		.4byte	.LFE26
 15291 0468 00000000 		.4byte	.LFB24
 15292 046c 2C010000 		.4byte	.LFE24
 15293 0470 00000000 		.4byte	.LFB28
 15294 0474 78000000 		.4byte	.LFE28
 15295 0478 00000000 		.4byte	.LFB7
 15296 047c 02000000 		.4byte	.LFE7
 15297 0480 00000000 		.4byte	.LFB12
 15298 0484 4C010000 		.4byte	.LFE12
 15299 0488 00000000 		.4byte	.LFB13
ARM GAS  /tmp/ccPo84yg.s 			page 270


 15300 048c 78000000 		.4byte	.LFE13
 15301 0490 00000000 		.4byte	.LFB14
 15302 0494 58000000 		.4byte	.LFE14
 15303 0498 00000000 		.4byte	.LFB15
 15304 049c 78000000 		.4byte	.LFE15
 15305 04a0 00000000 		.4byte	.LFB16
 15306 04a4 50000000 		.4byte	.LFE16
 15307 04a8 00000000 		.4byte	.LFB17
 15308 04ac 14020000 		.4byte	.LFE17
 15309 04b0 00000000 		.4byte	.LFB18
 15310 04b4 12000000 		.4byte	.LFE18
 15311 04b8 00000000 		.4byte	.LFB19
 15312 04bc 12000000 		.4byte	.LFE19
 15313 04c0 00000000 		.4byte	.LFB21
 15314 04c4 D8000000 		.4byte	.LFE21
 15315 04c8 00000000 		.4byte	.LFB20
 15316 04cc A0000000 		.4byte	.LFE20
 15317 04d0 00000000 		.4byte	.LFB22
 15318 04d4 78000000 		.4byte	.LFE22
 15319 04d8 00000000 		.4byte	.LFB23
 15320 04dc 06000000 		.4byte	.LFE23
 15321 04e0 00000000 		.4byte	.LFB25
 15322 04e4 F8020000 		.4byte	.LFE25
 15323 04e8 00000000 		.4byte	.LFB27
 15324 04ec 70000000 		.4byte	.LFE27
 15325 04f0 00000000 		.4byte	.LFB29
 15326 04f4 06000000 		.4byte	.LFE29
 15327 04f8 00000000 		.4byte	.LFB30
 15328 04fc 06000000 		.4byte	.LFE30
 15329 0500 00000000 		.4byte	.LFB31
 15330 0504 00010000 		.4byte	.LFE31
 15331 0508 00000000 		.4byte	.LFB33
 15332 050c DC000000 		.4byte	.LFE33
 15333 0510 00000000 		.4byte	.LFB35
 15334 0514 54000000 		.4byte	.LFE35
 15335 0518 00000000 		.4byte	.LFB36
 15336 051c 4C000000 		.4byte	.LFE36
 15337 0520 00000000 		.4byte	0
 15338 0524 00000000 		.4byte	0
 15339              		.section	.debug_line,"",%progbits
 15340              	.Ldebug_line0:
 15341 0000 4A0B0000 		.section	.debug_str,"MS",%progbits,1
 15341      0200BA02 
 15341      00000201 
 15341      FB0E0D00 
 15341      01010101 
 15342              	.LASF257:
 15343 0000 6C657863 		.ascii	"lexceptset\000"
 15343      65707473 
 15343      657400
 15344              	.LASF341:
 15345 000b 2F686F6D 		.ascii	"/home/kwilson/Sandbox/ChibiOS_2.5.1/demos/ARMCM4-ST"
 15345      652F6B77 
 15345      696C736F 
 15345      6E2F5361 
 15345      6E64626F 
 15346 003e 4D333246 		.ascii	"M32F407-LWIP-FATFS-USB\000"
ARM GAS  /tmp/ccPo84yg.s 			page 271


 15346      3430372D 
 15346      4C574950 
 15346      2D464154 
 15346      46532D55 
 15347              	.LASF2:
 15348 0055 696E7438 		.ascii	"int8_t\000"
 15348      5F7400
 15349              	.LASF1:
 15350 005c 73697A65 		.ascii	"size_t\000"
 15350      5F7400
 15351              	.LASF50:
 15352 0063 73697A65 		.ascii	"sizetype\000"
 15352      74797065 
 15352      00
 15353              	.LASF261:
 15354 006c 6E616464 		.ascii	"naddr\000"
 15354      7200
 15355              	.LASF23:
 15356 0072 73797374 		.ascii	"systime_t\000"
 15356      696D655F 
 15356      7400
 15357              	.LASF149:
 15358 007c 7263765F 		.ascii	"rcv_ann_wnd\000"
 15358      616E6E5F 
 15358      776E6400 
 15359              	.LASF29:
 15360 0088 705F6374 		.ascii	"p_ctx\000"
 15360      7800
 15361              	.LASF20:
 15362 008e 74707269 		.ascii	"tprio_t\000"
 15362      6F5F7400 
 15363              	.LASF319:
 15364 0096 6C776970 		.ascii	"lwip_ntohs\000"
 15364      5F6E746F 
 15364      687300
 15365              	.LASF235:
 15366 00a1 6765745F 		.ascii	"get_socket\000"
 15366      736F636B 
 15366      657400
 15367              	.LASF39:
 15368 00ac 705F6D73 		.ascii	"p_msgqueue\000"
 15368      67717565 
 15368      756500
 15369              	.LASF209:
 15370 00b7 70726F74 		.ascii	"proto\000"
 15370      6F00
 15371              	.LASF10:
 15372 00bd 696E7433 		.ascii	"int32_t\000"
 15372      325F7400 
 15373              	.LASF83:
 15374 00c5 73696E5F 		.ascii	"sin_family\000"
 15374      66616D69 
 15374      6C7900
 15375              	.LASF267:
 15376 00d0 6C6F6361 		.ascii	"local_addr\000"
 15376      6C5F6164 
 15376      647200
ARM GAS  /tmp/ccPo84yg.s 			page 272


 15377              	.LASF85:
 15378 00db 73696E5F 		.ascii	"sin_addr\000"
 15378      61646472 
 15378      00
 15379              	.LASF270:
 15380 00e4 6C776970 		.ascii	"lwip_close\000"
 15380      5F636C6F 
 15380      736500
 15381              	.LASF148:
 15382 00ef 7263765F 		.ascii	"rcv_wnd\000"
 15382      776E6400 
 15383              	.LASF140:
 15384 00f7 736F5F6F 		.ascii	"so_options\000"
 15384      7074696F 
 15384      6E7300
 15385              	.LASF312:
 15386 0102 6572725F 		.ascii	"err_to_errno_table\000"
 15386      746F5F65 
 15386      72726E6F 
 15386      5F746162 
 15386      6C6500
 15387              	.LASF58:
 15388 0115 6D625F62 		.ascii	"mb_buffer\000"
 15388      75666665 
 15388      7200
 15389              	.LASF317:
 15390 011f 6E657463 		.ascii	"netconn_accept\000"
 15390      6F6E6E5F 
 15390      61636365 
 15390      707400
 15391              	.LASF276:
 15392 012e 66726F6D 		.ascii	"from\000"
 15392      00
 15393              	.LASF197:
 15394 0133 4C495354 		.ascii	"LISTEN\000"
 15394      454E00
 15395              	.LASF128:
 15396 013a 73746174 		.ascii	"state\000"
 15396      6500
 15397              	.LASF248:
 15398 0140 72656164 		.ascii	"readset_in\000"
 15398      7365745F 
 15398      696E00
 15399              	.LASF217:
 15400 014b 6C617374 		.ascii	"lastdata\000"
 15400      64617461 
 15400      00
 15401              	.LASF160:
 15402 0154 73737468 		.ascii	"ssthresh\000"
 15402      72657368 
 15402      00
 15403              	.LASF101:
 15404 015d 74797065 		.ascii	"type\000"
 15404      00
 15405              	.LASF339:
 15406 0162 474E5520 		.ascii	"GNU C 4.7.2\000"
 15406      4320342E 
ARM GAS  /tmp/ccPo84yg.s 			page 273


 15406      372E3200 
 15407              	.LASF211:
 15408 016e 6C6F6361 		.ascii	"local\000"
 15408      6C00
 15409              	.LASF227:
 15410 0174 65786365 		.ascii	"exceptset\000"
 15410      70747365 
 15410      7400
 15411              	.LASF206:
 15412 017e 54494D45 		.ascii	"TIME_WAIT\000"
 15412      5F574149 
 15412      5400
 15413              	.LASF188:
 15414 0188 636F6E6E 		.ascii	"conn\000"
 15414      00
 15415              	.LASF195:
 15416 018d 7463705F 		.ascii	"tcp_state\000"
 15416      73746174 
 15416      6500
 15417              	.LASF107:
 15418 0197 4E455443 		.ascii	"NETCONN_INVALID\000"
 15418      4F4E4E5F 
 15418      494E5641 
 15418      4C494400 
 15419              	.LASF142:
 15420 01a7 7072696F 		.ascii	"prio\000"
 15420      00
 15421              	.LASF56:
 15422 01ac 6D5F6F77 		.ascii	"m_owner\000"
 15422      6E657200 
 15423              	.LASF151:
 15424 01b4 706F6C6C 		.ascii	"polltmr\000"
 15424      746D7200 
 15425              	.LASF66:
 15426 01bc 65786974 		.ascii	"exitcode\000"
 15426      636F6465 
 15426      00
 15427              	.LASF68:
 15428 01c5 65776D61 		.ascii	"ewmask\000"
 15428      736B00
 15429              	.LASF127:
 15430 01cc 6E657463 		.ascii	"netconn\000"
 15430      6F6E6E00 
 15431              	.LASF210:
 15432 01d4 69706164 		.ascii	"ipaddr\000"
 15432      647200
 15433              	.LASF315:
 15434 01db 7379735F 		.ascii	"sys_sem_signal\000"
 15434      73656D5F 
 15434      7369676E 
 15434      616C00
 15435              	.LASF130:
 15436 01ea 6F705F63 		.ascii	"op_completed\000"
 15436      6F6D706C 
 15436      65746564 
 15436      00
 15437              	.LASF30:
ARM GAS  /tmp/ccPo84yg.s 			page 274


 15438 01f7 705F6E65 		.ascii	"p_newer\000"
 15438      77657200 
 15439              	.LASF125:
 15440 01ff 4E455443 		.ascii	"NETCONN_EVT_ERROR\000"
 15440      4F4E4E5F 
 15440      4556545F 
 15440      4552524F 
 15440      5200
 15441              	.LASF11:
 15442 0211 6C6F6E67 		.ascii	"long int\000"
 15442      20696E74 
 15442      00
 15443              	.LASF26:
 15444 021a 705F6E65 		.ascii	"p_next\000"
 15444      787400
 15445              	.LASF314:
 15446 0221 6C776970 		.ascii	"lwip_htons\000"
 15446      5F68746F 
 15446      6E7300
 15447              	.LASF237:
 15448 022c 6E657763 		.ascii	"newconn\000"
 15448      6F6E6E00 
 15449              	.LASF27:
 15450 0234 705F7072 		.ascii	"p_prev\000"
 15450      657600
 15451              	.LASF116:
 15452 023b 4E455443 		.ascii	"NETCONN_WRITE\000"
 15452      4F4E4E5F 
 15452      57524954 
 15452      4500
 15453              	.LASF346:
 15454 0249 72657475 		.ascii	"return_copy_fdsets\000"
 15454      726E5F63 
 15454      6F70795F 
 15454      66647365 
 15454      747300
 15455              	.LASF105:
 15456 025c 7379735F 		.ascii	"sys_sem_t\000"
 15456      73656D5F 
 15456      7400
 15457              	.LASF290:
 15458 0266 77726974 		.ascii	"write_flags\000"
 15458      655F666C 
 15458      61677300 
 15459              	.LASF17:
 15460 0272 74737461 		.ascii	"tstate_t\000"
 15460      74655F74 
 15460      00
 15461              	.LASF42:
 15462 027b 705F6D74 		.ascii	"p_mtxlist\000"
 15462      786C6973 
 15462      7400
 15463              	.LASF82:
 15464 0285 73696E5F 		.ascii	"sin_len\000"
 15464      6C656E00 
 15465              	.LASF47:
 15466 028d 72656761 		.ascii	"regarm_t\000"
ARM GAS  /tmp/ccPo84yg.s 			page 275


 15466      726D5F74 
 15466      00
 15467              	.LASF200:
 15468 0296 45535441 		.ascii	"ESTABLISHED\000"
 15468      424C4953 
 15468      48454400 
 15469              	.LASF292:
 15470 02a2 646F6D61 		.ascii	"domain\000"
 15470      696E00
 15471              	.LASF120:
 15472 02a9 6E657463 		.ascii	"netconn_evt\000"
 15472      6F6E6E5F 
 15472      65767400 
 15473              	.LASF207:
 15474 02b5 7261775F 		.ascii	"raw_recv_fn\000"
 15474      72656376 
 15474      5F666E00 
 15475              	.LASF320:
 15476 02c1 6E657463 		.ascii	"netconn_bind\000"
 15476      6F6E6E5F 
 15476      62696E64 
 15476      00
 15477              	.LASF191:
 15478 02ce 7463705F 		.ascii	"tcp_sent_fn\000"
 15478      73656E74 
 15478      5F666E00 
 15479              	.LASF333:
 15480 02da 6E657463 		.ascii	"netconn_new_with_proto_and_callback\000"
 15480      6F6E6E5F 
 15480      6E65775F 
 15480      77697468 
 15480      5F70726F 
 15481              	.LASF274:
 15482 02fe 6261636B 		.ascii	"backlog\000"
 15482      6C6F6700 
 15483              	.LASF218:
 15484 0306 6C617374 		.ascii	"lastoffset\000"
 15484      6F666673 
 15484      657400
 15485              	.LASF193:
 15486 0311 7463705F 		.ascii	"tcp_err_fn\000"
 15486      6572725F 
 15486      666E00
 15487              	.LASF3:
 15488 031c 7369676E 		.ascii	"signed char\000"
 15488      65642063 
 15488      68617200 
 15489              	.LASF36:
 15490 0328 705F7072 		.ascii	"p_preempt\000"
 15490      65656D70 
 15490      7400
 15491              	.LASF4:
 15492 0332 75696E74 		.ascii	"uint8_t\000"
 15492      385F7400 
 15493              	.LASF182:
 15494 033a 6B656570 		.ascii	"keep_cnt_sent\000"
 15494      5F636E74 
ARM GAS  /tmp/ccPo84yg.s 			page 276


 15494      5F73656E 
 15494      7400
 15495              	.LASF289:
 15496 0348 6C776970 		.ascii	"lwip_send\000"
 15496      5F73656E 
 15496      6400
 15497              	.LASF61:
 15498 0352 6D625F72 		.ascii	"mb_rdptr\000"
 15498      64707472 
 15498      00
 15499              	.LASF260:
 15500 035b 6E616D65 		.ascii	"namelen\000"
 15500      6C656E00 
 15501              	.LASF22:
 15502 0363 6576656E 		.ascii	"eventmask_t\000"
 15502      746D6173 
 15502      6B5F7400 
 15503              	.LASF279:
 15504 036f 636F7079 		.ascii	"copylen\000"
 15504      6C656E00 
 15505              	.LASF49:
 15506 0377 636F6E74 		.ascii	"context\000"
 15506      65787400 
 15507              	.LASF138:
 15508 037f 6C6F6361 		.ascii	"local_ip\000"
 15508      6C5F6970 
 15508      00
 15509              	.LASF321:
 15510 0388 6E657462 		.ascii	"netbuf_delete\000"
 15510      75665F64 
 15510      656C6574 
 15510      6500
 15511              	.LASF5:
 15512 0396 756E7369 		.ascii	"unsigned char\000"
 15512      676E6564 
 15512      20636861 
 15512      7200
 15513              	.LASF242:
 15514 03a4 6576656E 		.ascii	"event_callback\000"
 15514      745F6361 
 15514      6C6C6261 
 15514      636B00
 15515              	.LASF306:
 15516 03b3 6C776970 		.ascii	"lwip_ioctl\000"
 15516      5F696F63 
 15516      746C00
 15517              	.LASF221:
 15518 03be 65727265 		.ascii	"errevent\000"
 15518      76656E74 
 15518      00
 15519              	.LASF201:
 15520 03c7 46494E5F 		.ascii	"FIN_WAIT_1\000"
 15520      57414954 
 15520      5F3100
 15521              	.LASF202:
 15522 03d2 46494E5F 		.ascii	"FIN_WAIT_2\000"
 15522      57414954 
ARM GAS  /tmp/ccPo84yg.s 			page 277


 15522      5F3200
 15523              	.LASF108:
 15524 03dd 4E455443 		.ascii	"NETCONN_TCP\000"
 15524      4F4E4E5F 
 15524      54435000 
 15525              	.LASF347:
 15526 03e9 706F7274 		.ascii	"port_halt\000"
 15526      5F68616C 
 15526      7400
 15527              	.LASF198:
 15528 03f3 53594E5F 		.ascii	"SYN_SENT\000"
 15528      53454E54 
 15528      00
 15529              	.LASF69:
 15530 03fc 63686172 		.ascii	"char\000"
 15530      00
 15531              	.LASF97:
 15532 0401 70627566 		.ascii	"pbuf\000"
 15532      00
 15533              	.LASF249:
 15534 0406 77726974 		.ascii	"writeset_in\000"
 15534      65736574 
 15534      5F696E00 
 15535              	.LASF28:
 15536 0412 705F7072 		.ascii	"p_prio\000"
 15536      696F00
 15537              	.LASF205:
 15538 0419 4C415354 		.ascii	"LAST_ACK\000"
 15538      5F41434B 
 15538      00
 15539              	.LASF263:
 15540 0422 6E736F63 		.ascii	"nsock\000"
 15540      6B00
 15541              	.LASF63:
 15542 0428 6D625F65 		.ascii	"mb_emptysem\000"
 15542      6D707479 
 15542      73656D00 
 15543              	.LASF225:
 15544 0434 72656164 		.ascii	"readset\000"
 15544      73657400 
 15545              	.LASF67:
 15546 043c 77746F62 		.ascii	"wtobjp\000"
 15546      6A7000
 15547              	.LASF318:
 15548 0443 6E657463 		.ascii	"netconn_delete\000"
 15548      6F6E6E5F 
 15548      64656C65 
 15548      746500
 15549              	.LASF93:
 15550 0452 74696D65 		.ascii	"timeval\000"
 15550      76616C00 
 15551              	.LASF183:
 15552 045a 7564705F 		.ascii	"udp_pcb\000"
 15552      70636200 
 15553              	.LASF299:
 15554 0462 6C776970 		.ascii	"lwip_shutdown\000"
 15554      5F736875 
ARM GAS  /tmp/ccPo84yg.s 			page 278


 15554      74646F77 
 15554      6E00
 15555              	.LASF145:
 15556 0470 6C6F6361 		.ascii	"local_port\000"
 15556      6C5F706F 
 15556      727400
 15557              	.LASF84:
 15558 047b 73696E5F 		.ascii	"sin_port\000"
 15558      706F7274 
 15558      00
 15559              	.LASF113:
 15560 0484 6E657463 		.ascii	"netconn_type\000"
 15560      6F6E6E5F 
 15560      74797065 
 15560      00
 15561              	.LASF296:
 15562 0491 77616974 		.ascii	"waitres\000"
 15562      72657300 
 15563              	.LASF222:
 15564 0499 73656C65 		.ascii	"select_waiting\000"
 15564      63745F77 
 15564      61697469 
 15564      6E6700
 15565              	.LASF102:
 15566 04a8 666C6167 		.ascii	"flags\000"
 15566      7300
 15567              	.LASF271:
 15568 04ae 6C776970 		.ascii	"lwip_connect\000"
 15568      5F636F6E 
 15568      6E656374 
 15568      00
 15569              	.LASF141:
 15570 04bb 7463705F 		.ascii	"tcp_pcb\000"
 15570      70636200 
 15571              	.LASF103:
 15572 04c3 6E657462 		.ascii	"netbuf\000"
 15572      756600
 15573              	.LASF252:
 15574 04ca 77726974 		.ascii	"writeset_out\000"
 15574      65736574 
 15574      5F6F7574 
 15574      00
 15575              	.LASF216:
 15576 04d7 6C776970 		.ascii	"lwip_sock\000"
 15576      5F736F63 
 15576      6B00
 15577              	.LASF154:
 15578 04e1 72747465 		.ascii	"rttest\000"
 15578      737400
 15579              	.LASF76:
 15580 04e8 69705F61 		.ascii	"ip_addr\000"
 15580      64647200 
 15581              	.LASF214:
 15582 04f0 73687574 		.ascii	"shut\000"
 15582      00
 15583              	.LASF89:
 15584 04f5 73615F66 		.ascii	"sa_family\000"
ARM GAS  /tmp/ccPo84yg.s 			page 279


 15584      616D696C 
 15584      7900
 15585              	.LASF86:
 15586 04ff 73696E5F 		.ascii	"sin_zero\000"
 15586      7A65726F 
 15586      00
 15587              	.LASF111:
 15588 0508 4E455443 		.ascii	"NETCONN_UDPNOCHKSUM\000"
 15588      4F4E4E5F 
 15588      5544504E 
 15588      4F43484B 
 15588      53554D00 
 15589              	.LASF250:
 15590 051c 65786365 		.ascii	"exceptset_in\000"
 15590      70747365 
 15590      745F696E 
 15590      00
 15591              	.LASF165:
 15592 0529 736E645F 		.ascii	"snd_lbb\000"
 15592      6C626200 
 15593              	.LASF304:
 15594 0531 6C776970 		.ascii	"lwip_getsockopt\000"
 15594      5F676574 
 15594      736F636B 
 15594      6F707400 
 15595              	.LASF24:
 15596 0541 636E745F 		.ascii	"cnt_t\000"
 15596      7400
 15597              	.LASF338:
 15598 0547 74637069 		.ascii	"tcpip_callback_with_block\000"
 15598      705F6361 
 15598      6C6C6261 
 15598      636B5F77 
 15598      6974685F 
 15599              	.LASF180:
 15600 0561 70657273 		.ascii	"persist_cnt\000"
 15600      6973745F 
 15600      636E7400 
 15601              	.LASF203:
 15602 056d 434C4F53 		.ascii	"CLOSE_WAIT\000"
 15602      455F5741 
 15602      495400
 15603              	.LASF223:
 15604 0578 6C776970 		.ascii	"lwip_select_cb\000"
 15604      5F73656C 
 15604      6563745F 
 15604      636200
 15605              	.LASF150:
 15606 0587 7263765F 		.ascii	"rcv_ann_right_edge\000"
 15606      616E6E5F 
 15606      72696768 
 15606      745F6564 
 15606      676500
 15607              	.LASF48:
 15608 059a 696E7463 		.ascii	"intctx\000"
 15608      747800
 15609              	.LASF309:
ARM GAS  /tmp/ccPo84yg.s 			page 280


 15610 05a1 736F636B 		.ascii	"sockets\000"
 15610      65747300 
 15611              	.LASF95:
 15612 05a9 74765F75 		.ascii	"tv_usec\000"
 15612      73656300 
 15613              	.LASF41:
 15614 05b1 705F6570 		.ascii	"p_epending\000"
 15614      656E6469 
 15614      6E6700
 15615              	.LASF155:
 15616 05bc 72747365 		.ascii	"rtseq\000"
 15616      7100
 15617              	.LASF262:
 15618 05c2 61646472 		.ascii	"addrlen\000"
 15618      6C656E00 
 15619              	.LASF241:
 15620 05ca 6C776970 		.ascii	"lwip_getsockopt_internal\000"
 15620      5F676574 
 15620      736F636B 
 15620      6F70745F 
 15620      696E7465 
 15621              	.LASF264:
 15622 05e3 6E657773 		.ascii	"newsock\000"
 15622      6F636B00 
 15623              	.LASF302:
 15624 05eb 6C776970 		.ascii	"lwip_getpeername\000"
 15624      5F676574 
 15624      70656572 
 15624      6E616D65 
 15624      00
 15625              	.LASF245:
 15626 05fc 616C6C6F 		.ascii	"alloc_socket\000"
 15626      635F736F 
 15626      636B6574 
 15626      00
 15627              	.LASF64:
 15628 0609 4D61696C 		.ascii	"Mailbox\000"
 15628      626F7800 
 15629              	.LASF119:
 15630 0611 4E455443 		.ascii	"NETCONN_CLOSE\000"
 15630      4F4E4E5F 
 15630      434C4F53 
 15630      4500
 15631              	.LASF135:
 15632 061f 63757272 		.ascii	"current_msg\000"
 15632      656E745F 
 15632      6D736700 
 15633              	.LASF13:
 15634 062b 6C6F6E67 		.ascii	"long unsigned int\000"
 15634      20756E73 
 15634      69676E65 
 15634      6420696E 
 15634      7400
 15635              	.LASF325:
 15636 063d 70627566 		.ascii	"pbuf_copy_partial\000"
 15636      5F636F70 
 15636      795F7061 
ARM GAS  /tmp/ccPo84yg.s 			page 281


 15636      72746961 
 15636      6C00
 15637              	.LASF123:
 15638 064f 4E455443 		.ascii	"NETCONN_EVT_SENDPLUS\000"
 15638      4F4E4E5F 
 15638      4556545F 
 15638      53454E44 
 15638      504C5553 
 15639              	.LASF294:
 15640 0664 6C776970 		.ascii	"lwip_select\000"
 15640      5F73656C 
 15640      65637400 
 15641              	.LASF272:
 15642 0670 72656D6F 		.ascii	"remote_addr\000"
 15642      74655F61 
 15642      64647200 
 15643              	.LASF192:
 15644 067c 7463705F 		.ascii	"tcp_poll_fn\000"
 15644      706F6C6C 
 15644      5F666E00 
 15645              	.LASF132:
 15646 0688 61636365 		.ascii	"acceptmbox\000"
 15646      70746D62 
 15646      6F7800
 15647              	.LASF136:
 15648 0693 63616C6C 		.ascii	"callback\000"
 15648      6261636B 
 15648      00
 15649              	.LASF99:
 15650 069c 7061796C 		.ascii	"payload\000"
 15650      6F616400 
 15651              	.LASF336:
 15652 06a4 7379735F 		.ascii	"sys_sem_free\000"
 15652      73656D5F 
 15652      66726565 
 15652      00
 15653              	.LASF156:
 15654 06b1 6E727478 		.ascii	"nrtx\000"
 15654      00
 15655              	.LASF307:
 15656 06b6 61726770 		.ascii	"argp\000"
 15656      00
 15657              	.LASF238:
 15658 06bb 61636365 		.ascii	"accepted\000"
 15658      70746564 
 15658      00
 15659              	.LASF62:
 15660 06c4 6D625F66 		.ascii	"mb_fullsem\000"
 15660      756C6C73 
 15660      656D00
 15661              	.LASF157:
 15662 06cf 6C617374 		.ascii	"lastack\000"
 15662      61636B00 
 15663              	.LASF161:
 15664 06d7 736E645F 		.ascii	"snd_nxt\000"
 15664      6E787400 
 15665              	.LASF273:
ARM GAS  /tmp/ccPo84yg.s 			page 282


 15666 06df 6C776970 		.ascii	"lwip_listen\000"
 15666      5F6C6973 
 15666      74656E00 
 15667              	.LASF106:
 15668 06eb 7379735F 		.ascii	"sys_mbox_t\000"
 15668      6D626F78 
 15668      5F7400
 15669              	.LASF54:
 15670 06f6 4D757465 		.ascii	"Mutex\000"
 15670      7800
 15671              	.LASF109:
 15672 06fc 4E455443 		.ascii	"NETCONN_UDP\000"
 15672      4F4E4E5F 
 15672      55445000 
 15673              	.LASF186:
 15674 0708 70726F74 		.ascii	"protocol\000"
 15674      6F636F6C 
 15674      00
 15675              	.LASF174:
 15676 0711 73656E74 		.ascii	"sent\000"
 15676      00
 15677              	.LASF14:
 15678 0716 6C6F6E67 		.ascii	"long long int\000"
 15678      206C6F6E 
 15678      6720696E 
 15678      7400
 15679              	.LASF137:
 15680 0724 69705F70 		.ascii	"ip_pcb\000"
 15680      636200
 15681              	.LASF55:
 15682 072b 6D5F7175 		.ascii	"m_queue\000"
 15682      65756500 
 15683              	.LASF60:
 15684 0733 6D625F77 		.ascii	"mb_wrptr\000"
 15684      72707472 
 15684      00
 15685              	.LASF332:
 15686 073c 6E657463 		.ascii	"netconn_write\000"
 15686      6F6E6E5F 
 15686      77726974 
 15686      6500
 15687              	.LASF275:
 15688 074a 6C776970 		.ascii	"lwip_recvfrom\000"
 15688      5F726563 
 15688      7666726F 
 15688      6D00
 15689              	.LASF258:
 15690 0758 6C776970 		.ascii	"lwip_getaddrname\000"
 15690      5F676574 
 15690      61646472 
 15690      6E616D65 
 15690      00
 15691              	.LASF92:
 15692 0769 66645F62 		.ascii	"fd_bits\000"
 15692      69747300 
 15693              	.LASF240:
 15694 0771 6C776970 		.ascii	"lwip_setsockopt_internal\000"
ARM GAS  /tmp/ccPo84yg.s 			page 283


 15694      5F736574 
 15694      736F636B 
 15694      6F70745F 
 15694      696E7465 
 15695              	.LASF228:
 15696 078a 73656D5F 		.ascii	"sem_signalled\000"
 15696      7369676E 
 15696      616C6C65 
 15696      6400
 15697              	.LASF152:
 15698 0798 706F6C6C 		.ascii	"pollinterval\000"
 15698      696E7465 
 15698      7276616C 
 15698      00
 15699              	.LASF295:
 15700 07a5 74696D65 		.ascii	"timeout\000"
 15700      6F757400 
 15701              	.LASF114:
 15702 07ad 6E657463 		.ascii	"netconn_state\000"
 15702      6F6E6E5F 
 15702      73746174 
 15702      6500
 15703              	.LASF38:
 15704 07bb 705F7761 		.ascii	"p_waiting\000"
 15704      6974696E 
 15704      6700
 15705              	.LASF77:
 15706 07c5 61646472 		.ascii	"addr\000"
 15706      00
 15707              	.LASF34:
 15708 07ca 705F666C 		.ascii	"p_flags\000"
 15708      61677300 
 15709              	.LASF0:
 15710 07d2 756E7369 		.ascii	"unsigned int\000"
 15710      676E6564 
 15710      20696E74 
 15710      00
 15711              	.LASF278:
 15712 07df 6275666C 		.ascii	"buflen\000"
 15712      656E00
 15713              	.LASF72:
 15714 07e6 7531365F 		.ascii	"u16_t\000"
 15714      7400
 15715              	.LASF44:
 15716 07ec 705F6D70 		.ascii	"p_mpool\000"
 15716      6F6F6C00 
 15717              	.LASF147:
 15718 07f4 7263765F 		.ascii	"rcv_nxt\000"
 15718      6E787400 
 15719              	.LASF230:
 15720 07fc 736F636B 		.ascii	"sock\000"
 15720      00
 15721              	.LASF35:
 15722 0801 705F7265 		.ascii	"p_refs\000"
 15722      667300
 15723              	.LASF220:
 15724 0808 73656E64 		.ascii	"sendevent\000"
ARM GAS  /tmp/ccPo84yg.s 			page 284


 15724      6576656E 
 15724      7400
 15725              	.LASF233:
 15726 0812 6F707476 		.ascii	"optval\000"
 15726      616C00
 15727              	.LASF46:
 15728 0819 54687265 		.ascii	"ThreadsList\000"
 15728      6164734C 
 15728      69737400 
 15729              	.LASF244:
 15730 0825 646F5F73 		.ascii	"do_signal\000"
 15730      69676E61 
 15730      6C00
 15731              	.LASF310:
 15732 082f 73656C65 		.ascii	"select_cb_list\000"
 15732      63745F63 
 15732      625F6C69 
 15732      737400
 15733              	.LASF265:
 15734 083e 6C776970 		.ascii	"lwip_accept\000"
 15734      5F616363 
 15734      65707400 
 15735              	.LASF177:
 15736 084a 706F6C6C 		.ascii	"poll\000"
 15736      00
 15737              	.LASF280:
 15738 084f 646F6E65 		.ascii	"done\000"
 15738      00
 15739              	.LASF243:
 15740 0854 6C617374 		.ascii	"last_select_cb_ctr\000"
 15740      5F73656C 
 15740      6563745F 
 15740      63625F63 
 15740      747200
 15741              	.LASF153:
 15742 0867 7274696D 		.ascii	"rtime\000"
 15742      6500
 15743              	.LASF215:
 15744 086d 74637069 		.ascii	"tcpip_callback_fn\000"
 15744      705F6361 
 15744      6C6C6261 
 15744      636B5F66 
 15744      6E00
 15745              	.LASF199:
 15746 087f 53594E5F 		.ascii	"SYN_RCVD\000"
 15746      52435644 
 15746      00
 15747              	.LASF291:
 15748 0888 6C776970 		.ascii	"lwip_socket\000"
 15748      5F736F63 
 15748      6B657400 
 15749              	.LASF37:
 15750 0894 705F7469 		.ascii	"p_time\000"
 15750      6D6500
 15751              	.LASF232:
 15752 089b 6F70746E 		.ascii	"optname\000"
 15752      616D6500 
ARM GAS  /tmp/ccPo84yg.s 			page 285


 15753              	.LASF175:
 15754 08a3 72656376 		.ascii	"recv\000"
 15754      00
 15755              	.LASF277:
 15756 08a8 66726F6D 		.ascii	"fromlen\000"
 15756      6C656E00 
 15757              	.LASF118:
 15758 08b0 4E455443 		.ascii	"NETCONN_CONNECT\000"
 15758      4F4E4E5F 
 15758      434F4E4E 
 15758      45435400 
 15759              	.LASF288:
 15760 08c0 746F5F69 		.ascii	"to_in\000"
 15760      6E00
 15761              	.LASF100:
 15762 08c6 746F745F 		.ascii	"tot_len\000"
 15762      6C656E00 
 15763              	.LASF300:
 15764 08ce 73687574 		.ascii	"shut_rx\000"
 15764      5F727800 
 15765              	.LASF78:
 15766 08d6 69705F61 		.ascii	"ip_addr_t\000"
 15766      6464725F 
 15766      7400
 15767              	.LASF51:
 15768 08e0 53656D61 		.ascii	"Semaphore\000"
 15768      70686F72 
 15768      6500
 15769              	.LASF303:
 15770 08ea 6C776970 		.ascii	"lwip_getsockname\000"
 15770      5F676574 
 15770      736F636B 
 15770      6E616D65 
 15770      00
 15771              	.LASF343:
 15772 08fb 61676169 		.ascii	"again\000"
 15772      6E00
 15773              	.LASF43:
 15774 0901 705F7265 		.ascii	"p_realprio\000"
 15774      616C7072 
 15774      696F00
 15775              	.LASF96:
 15776 090c 6572725F 		.ascii	"err_t\000"
 15776      7400
 15777              	.LASF208:
 15778 0912 7564705F 		.ascii	"udp_recv_fn\000"
 15778      72656376 
 15778      5F666E00 
 15779              	.LASF59:
 15780 091e 6D625F74 		.ascii	"mb_top\000"
 15780      6F7000
 15781              	.LASF281:
 15782 0925 66726F6D 		.ascii	"fromaddr\000"
 15782      61646472 
 15782      00
 15783              	.LASF246:
 15784 092e 6C776970 		.ascii	"lwip_selscan\000"
ARM GAS  /tmp/ccPo84yg.s 			page 286


 15784      5F73656C 
 15784      7363616E 
 15784      00
 15785              	.LASF256:
 15786 093b 6C777269 		.ascii	"lwriteset\000"
 15786      74657365 
 15786      7400
 15787              	.LASF53:
 15788 0945 735F636E 		.ascii	"s_cnt\000"
 15788      7400
 15789              	.LASF194:
 15790 094b 7463705F 		.ascii	"tcp_connected_fn\000"
 15790      636F6E6E 
 15790      65637465 
 15790      645F666E 
 15790      00
 15791              	.LASF247:
 15792 095c 6D617866 		.ascii	"maxfdp1\000"
 15792      64703100 
 15793              	.LASF285:
 15794 0964 73697A65 		.ascii	"size\000"
 15794      00
 15795              	.LASF15:
 15796 0969 6C6F6E67 		.ascii	"long long unsigned int\000"
 15796      206C6F6E 
 15796      6720756E 
 15796      7369676E 
 15796      65642069 
 15797              	.LASF146:
 15798 0980 72656D6F 		.ascii	"remote_port\000"
 15798      74655F70 
 15798      6F727400 
 15799              	.LASF31:
 15800 098c 705F6F6C 		.ascii	"p_older\000"
 15800      64657200 
 15801              	.LASF8:
 15802 0994 75696E74 		.ascii	"uint16_t\000"
 15802      31365F74 
 15802      00
 15803              	.LASF181:
 15804 099d 70657273 		.ascii	"persist_backoff\000"
 15804      6973745F 
 15804      6261636B 
 15804      6F666600 
 15805              	.LASF331:
 15806 09ad 6E657463 		.ascii	"netconn_send\000"
 15806      6F6E6E5F 
 15806      73656E64 
 15806      00
 15807              	.LASF324:
 15808 09ba 6E657463 		.ascii	"netconn_listen_with_backlog\000"
 15808      6F6E6E5F 
 15808      6C697374 
 15808      656E5F77 
 15808      6974685F 
 15809              	.LASF21:
 15810 09d6 6D73675F 		.ascii	"msg_t\000"
ARM GAS  /tmp/ccPo84yg.s 			page 287


 15810      7400
 15811              	.LASF313:
 15812 09dc 6E657463 		.ascii	"netconn_getaddr\000"
 15812      6F6E6E5F 
 15812      67657461 
 15812      64647200 
 15813              	.LASF159:
 15814 09ec 63776E64 		.ascii	"cwnd\000"
 15814      00
 15815              	.LASF19:
 15816 09f1 74736C69 		.ascii	"tslices_t\000"
 15816      6365735F 
 15816      7400
 15817              	.LASF234:
 15818 09fb 6F70746C 		.ascii	"optlen\000"
 15818      656E00
 15819              	.LASF173:
 15820 0a02 72656675 		.ascii	"refused_data\000"
 15820      7365645F 
 15820      64617461 
 15820      00
 15821              	.LASF124:
 15822 0a0f 4E455443 		.ascii	"NETCONN_EVT_SENDMINUS\000"
 15822      4F4E4E5F 
 15822      4556545F 
 15822      53454E44 
 15822      4D494E55 
 15823              	.LASF298:
 15824 0a25 73656C65 		.ascii	"select_cb\000"
 15824      63745F63 
 15824      6200
 15825              	.LASF90:
 15826 0a2f 73615F64 		.ascii	"sa_data\000"
 15826      61746100 
 15827              	.LASF168:
 15828 0a37 736E645F 		.ascii	"snd_queuelen\000"
 15828      71756575 
 15828      656C656E 
 15828      00
 15829              	.LASF282:
 15830 0a44 6C776970 		.ascii	"lwip_read\000"
 15830      5F726561 
 15830      6400
 15831              	.LASF268:
 15832 0a4e 6E616D65 		.ascii	"name_in\000"
 15832      5F696E00 
 15833              	.LASF81:
 15834 0a56 736F636B 		.ascii	"sockaddr_in\000"
 15834      61646472 
 15834      5F696E00 
 15835              	.LASF297:
 15836 0a62 6D736563 		.ascii	"msectimeout\000"
 15836      74696D65 
 15836      6F757400 
 15837              	.LASF184:
 15838 0a6e 72656376 		.ascii	"recv_arg\000"
 15838      5F617267 
ARM GAS  /tmp/ccPo84yg.s 			page 288


 15838      00
 15839              	.LASF87:
 15840 0a77 736F636B 		.ascii	"sockaddr\000"
 15840      61646472 
 15840      00
 15841              	.LASF122:
 15842 0a80 4E455443 		.ascii	"NETCONN_EVT_RCVMINUS\000"
 15842      4F4E4E5F 
 15842      4556545F 
 15842      5243564D 
 15842      494E5553 
 15843              	.LASF170:
 15844 0a95 756E7365 		.ascii	"unsent\000"
 15844      6E7400
 15845              	.LASF323:
 15846 0a9c 6E657463 		.ascii	"netconn_connect\000"
 15846      6F6E6E5F 
 15846      636F6E6E 
 15846      65637400 
 15847              	.LASF311:
 15848 0aac 73656C65 		.ascii	"select_cb_ctr\000"
 15848      63745F63 
 15848      625F6374 
 15848      7200
 15849              	.LASF287:
 15850 0aba 73686F72 		.ascii	"short_size\000"
 15850      745F7369 
 15850      7A6500
 15851              	.LASF169:
 15852 0ac5 756E7365 		.ascii	"unsent_oversize\000"
 15852      6E745F6F 
 15852      76657273 
 15852      697A6500 
 15853              	.LASF322:
 15854 0ad5 70627566 		.ascii	"pbuf_free\000"
 15854      5F667265 
 15854      6500
 15855              	.LASF335:
 15856 0adf 7379735F 		.ascii	"sys_arch_sem_wait\000"
 15856      61726368 
 15856      5F73656D 
 15856      5F776169 
 15856      7400
 15857              	.LASF187:
 15858 0af1 6170695F 		.ascii	"api_msg_msg\000"
 15858      6D73675F 
 15858      6D736700 
 15859              	.LASF139:
 15860 0afd 72656D6F 		.ascii	"remote_ip\000"
 15860      74655F69 
 15860      7000
 15861              	.LASF79:
 15862 0b07 696E5F61 		.ascii	"in_addr\000"
 15862      64647200 
 15863              	.LASF74:
 15864 0b0f 7533325F 		.ascii	"u32_t\000"
 15864      7400
ARM GAS  /tmp/ccPo84yg.s 			page 289


 15865              	.LASF16:
 15866 0b15 746D6F64 		.ascii	"tmode_t\000"
 15866      655F7400 
 15867              	.LASF134:
 15868 0b1d 77726974 		.ascii	"write_offset\000"
 15868      655F6F66 
 15868      66736574 
 15868      00
 15869              	.LASF226:
 15870 0b2a 77726974 		.ascii	"writeset\000"
 15870      65736574 
 15870      00
 15871              	.LASF345:
 15872 0b33 66726565 		.ascii	"free_socket\000"
 15872      5F736F63 
 15872      6B657400 
 15873              	.LASF255:
 15874 0b3f 6C726561 		.ascii	"lreadset\000"
 15874      64736574 
 15874      00
 15875              	.LASF308:
 15876 0b48 6C776970 		.ascii	"lwip_fcntl\000"
 15876      5F66636E 
 15876      746C00
 15877              	.LASF112:
 15878 0b53 4E455443 		.ascii	"NETCONN_RAW\000"
 15878      4F4E4E5F 
 15878      52415700 
 15879              	.LASF283:
 15880 0b5f 6C776970 		.ascii	"lwip_recv\000"
 15880      5F726563 
 15880      7600
 15881              	.LASF293:
 15882 0b69 6C776970 		.ascii	"lwip_write\000"
 15882      5F777269 
 15882      746500
 15883              	.LASF284:
 15884 0b74 6C776970 		.ascii	"lwip_sendto\000"
 15884      5F73656E 
 15884      64746F00 
 15885              	.LASF259:
 15886 0b80 6E616D65 		.ascii	"name\000"
 15886      00
 15887              	.LASF52:
 15888 0b85 735F7175 		.ascii	"s_queue\000"
 15888      65756500 
 15889              	.LASF104:
 15890 0b8d 706F7274 		.ascii	"port\000"
 15890      00
 15891              	.LASF166:
 15892 0b92 61636B65 		.ascii	"acked\000"
 15892      6400
 15893              	.LASF334:
 15894 0b98 7379735F 		.ascii	"sys_sem_new\000"
 15894      73656D5F 
 15894      6E657700 
 15895              	.LASF88:
ARM GAS  /tmp/ccPo84yg.s 			page 290


 15896 0ba4 73615F6C 		.ascii	"sa_len\000"
 15896      656E00
 15897              	.LASF179:
 15898 0bab 6B656570 		.ascii	"keep_idle\000"
 15898      5F69646C 
 15898      6500
 15899              	.LASF344:
 15900 0bb5 6C776970 		.ascii	"lwip_socket_init\000"
 15900      5F736F63 
 15900      6B65745F 
 15900      696E6974 
 15900      00
 15901              	.LASF7:
 15902 0bc6 73686F72 		.ascii	"short int\000"
 15902      7420696E 
 15902      7400
 15903              	.LASF117:
 15904 0bd0 4E455443 		.ascii	"NETCONN_LISTEN\000"
 15904      4F4E4E5F 
 15904      4C495354 
 15904      454E00
 15905              	.LASF253:
 15906 0bdf 65786365 		.ascii	"exceptset_out\000"
 15906      70747365 
 15906      745F6F75 
 15906      7400
 15907              	.LASF110:
 15908 0bed 4E455443 		.ascii	"NETCONN_UDPLITE\000"
 15908      4F4E4E5F 
 15908      5544504C 
 15908      49544500 
 15909              	.LASF340:
 15910 0bfd 2E2E2F2E 		.ascii	"../../ext/lwip/src/api/sockets.c\000"
 15910      2E2F6578 
 15910      742F6C77 
 15910      69702F73 
 15910      72632F61 
 15911              	.LASF171:
 15912 0c1e 756E6163 		.ascii	"unacked\000"
 15912      6B656400 
 15913              	.LASF6:
 15914 0c26 696E7431 		.ascii	"int16_t\000"
 15914      365F7400 
 15915              	.LASF143:
 15916 0c2e 63616C6C 		.ascii	"callback_arg\000"
 15916      6261636B 
 15916      5F617267 
 15916      00
 15917              	.LASF327:
 15918 0c3b 6E657463 		.ascii	"netconn_recv\000"
 15918      6F6E6E5F 
 15918      72656376 
 15918      00
 15919              	.LASF236:
 15920 0c48 74727967 		.ascii	"tryget_socket\000"
 15920      65745F73 
 15920      6F636B65 
ARM GAS  /tmp/ccPo84yg.s 			page 291


 15920      7400
 15921              	.LASF178:
 15922 0c56 65727266 		.ascii	"errf\000"
 15922      00
 15923              	.LASF337:
 15924 0c5b 6E657463 		.ascii	"netconn_shutdown\000"
 15924      6F6E6E5F 
 15924      73687574 
 15924      646F776E 
 15924      00
 15925              	.LASF213:
 15926 0c6c 61706966 		.ascii	"apiflags\000"
 15926      6C616773 
 15926      00
 15927              	.LASF144:
 15928 0c75 61636365 		.ascii	"accept\000"
 15928      707400
 15929              	.LASF229:
 15930 0c7c 6C776970 		.ascii	"lwip_setgetsockopt_data\000"
 15930      5F736574 
 15930      67657473 
 15930      6F636B6F 
 15930      70745F64 
 15931              	.LASF25:
 15932 0c94 54687265 		.ascii	"Thread\000"
 15932      616400
 15933              	.LASF305:
 15934 0c9b 6C776970 		.ascii	"lwip_setsockopt\000"
 15934      5F736574 
 15934      736F636B 
 15934      6F707400 
 15935              	.LASF190:
 15936 0cab 7463705F 		.ascii	"tcp_recv_fn\000"
 15936      72656376 
 15936      5F666E00 
 15937              	.LASF115:
 15938 0cb7 4E455443 		.ascii	"NETCONN_NONE\000"
 15938      4F4E4E5F 
 15938      4E4F4E45 
 15938      00
 15939              	.LASF163:
 15940 0cc4 736E645F 		.ascii	"snd_wl1\000"
 15940      776C3100 
 15941              	.LASF164:
 15942 0ccc 736E645F 		.ascii	"snd_wl2\000"
 15942      776C3200 
 15943              	.LASF91:
 15944 0cd4 66645F73 		.ascii	"fd_set\000"
 15944      657400
 15945              	.LASF196:
 15946 0cdb 434C4F53 		.ascii	"CLOSED\000"
 15946      454400
 15947              	.LASF133:
 15948 0ce2 736F636B 		.ascii	"socket\000"
 15948      657400
 15949              	.LASF158:
 15950 0ce9 64757061 		.ascii	"dupacks\000"
ARM GAS  /tmp/ccPo84yg.s 			page 292


 15950      636B7300 
 15951              	.LASF266:
 15952 0cf1 6C776970 		.ascii	"lwip_bind\000"
 15952      5F62696E 
 15952      6400
 15953              	.LASF73:
 15954 0cfb 7331365F 		.ascii	"s16_t\000"
 15954      7400
 15955              	.LASF316:
 15956 0d01 6D656D63 		.ascii	"memcpy\000"
 15956      707900
 15957              	.LASF18:
 15958 0d08 74726566 		.ascii	"trefs_t\000"
 15958      735F7400 
 15959              	.LASF219:
 15960 0d10 72637665 		.ascii	"rcvevent\000"
 15960      76656E74 
 15960      00
 15961              	.LASF185:
 15962 0d19 7261775F 		.ascii	"raw_pcb\000"
 15962      70636200 
 15963              	.LASF75:
 15964 0d21 6D656D5F 		.ascii	"mem_ptr_t\000"
 15964      7074725F 
 15964      7400
 15965              	.LASF80:
 15966 0d2b 735F6164 		.ascii	"s_addr\000"
 15966      647200
 15967              	.LASF12:
 15968 0d32 75696E74 		.ascii	"uint32_t\000"
 15968      33325F74 
 15968      00
 15969              	.LASF126:
 15970 0d3b 6E657463 		.ascii	"netconn_callback\000"
 15970      6F6E6E5F 
 15970      63616C6C 
 15970      6261636B 
 15970      00
 15971              	.LASF212:
 15972 0d4c 64617461 		.ascii	"dataptr\000"
 15972      70747200 
 15973              	.LASF231:
 15974 0d54 6C657665 		.ascii	"level\000"
 15974      6C00
 15975              	.LASF45:
 15976 0d5a 54687265 		.ascii	"ThreadsQueue\000"
 15976      61647351 
 15976      75657565 
 15976      00
 15977              	.LASF330:
 15978 0d67 6E657462 		.ascii	"netbuf_free\000"
 15978      75665F66 
 15978      72656500 
 15979              	.LASF326:
 15980 0d73 6E657463 		.ascii	"netconn_recved\000"
 15980      6F6E6E5F 
 15980      72656376 
ARM GAS  /tmp/ccPo84yg.s 			page 293


 15980      656400
 15981              	.LASF131:
 15982 0d82 72656376 		.ascii	"recvmbox\000"
 15982      6D626F78 
 15982      00
 15983              	.LASF121:
 15984 0d8b 4E455443 		.ascii	"NETCONN_EVT_RCVPLUS\000"
 15984      4F4E4E5F 
 15984      4556545F 
 15984      52435650 
 15984      4C555300 
 15985              	.LASF251:
 15986 0d9f 72656164 		.ascii	"readset_out\000"
 15986      7365745F 
 15986      6F757400 
 15987              	.LASF328:
 15988 0dab 6E657463 		.ascii	"netconn_recv_tcp_pbuf\000"
 15988      6F6E6E5F 
 15988      72656376 
 15988      5F746370 
 15988      5F706275 
 15989              	.LASF329:
 15990 0dc1 6E657462 		.ascii	"netbuf_ref\000"
 15990      75665F72 
 15990      656600
 15991              	.LASF65:
 15992 0dcc 7264796D 		.ascii	"rdymsg\000"
 15992      736700
 15993              	.LASF9:
 15994 0dd3 73686F72 		.ascii	"short unsigned int\000"
 15994      7420756E 
 15994      7369676E 
 15994      65642069 
 15994      6E7400
 15995              	.LASF71:
 15996 0de6 73385F74 		.ascii	"s8_t\000"
 15996      00
 15997              	.LASF70:
 15998 0deb 75385F74 		.ascii	"u8_t\000"
 15998      00
 15999              	.LASF204:
 16000 0df0 434C4F53 		.ascii	"CLOSING\000"
 16000      494E4700 
 16001              	.LASF167:
 16002 0df8 736E645F 		.ascii	"snd_buf\000"
 16002      62756600 
 16003              	.LASF269:
 16004 0e00 69735F74 		.ascii	"is_tcp\000"
 16004      637000
 16005              	.LASF162:
 16006 0e07 736E645F 		.ascii	"snd_wnd\000"
 16006      776E6400 
 16007              	.LASF301:
 16008 0e0f 73687574 		.ascii	"shut_tx\000"
 16008      5F747800 
 16009              	.LASF254:
 16010 0e17 6E726561 		.ascii	"nready\000"
ARM GAS  /tmp/ccPo84yg.s 			page 294


 16010      647900
 16011              	.LASF189:
 16012 0e1e 7463705F 		.ascii	"tcp_accept_fn\000"
 16012      61636365 
 16012      70745F66 
 16012      6E00
 16013              	.LASF32:
 16014 0e2c 705F6E61 		.ascii	"p_name\000"
 16014      6D6500
 16015              	.LASF98:
 16016 0e33 6E657874 		.ascii	"next\000"
 16016      00
 16017              	.LASF239:
 16018 0e38 64617461 		.ascii	"data\000"
 16018      00
 16019              	.LASF57:
 16020 0e3d 6D5F6E65 		.ascii	"m_next\000"
 16020      787400
 16021              	.LASF342:
 16022 0e44 7463705F 		.ascii	"tcp_seg\000"
 16022      73656700 
 16023              	.LASF176:
 16024 0e4c 636F6E6E 		.ascii	"connected\000"
 16024      65637465 
 16024      6400
 16025              	.LASF286:
 16026 0e56 746F6C65 		.ascii	"tolen\000"
 16026      6E00
 16027              	.LASF224:
 16028 0e5c 70726576 		.ascii	"prev\000"
 16028      00
 16029              	.LASF94:
 16030 0e61 74765F73 		.ascii	"tv_sec\000"
 16030      656300
 16031              	.LASF129:
 16032 0e68 6C617374 		.ascii	"last_err\000"
 16032      5F657272 
 16032      00
 16033              	.LASF172:
 16034 0e71 6F6F7365 		.ascii	"ooseq\000"
 16034      7100
 16035              	.LASF40:
 16036 0e77 705F6D73 		.ascii	"p_msg\000"
 16036      6700
 16037              	.LASF33:
 16038 0e7d 705F7374 		.ascii	"p_state\000"
 16038      61746500 
 16039              		.ident	"GCC: (crosstool-NG 1.17.0 - PSAS ST32F4 GFE) 4.7.2"
ARM GAS  /tmp/ccPo84yg.s 			page 295


DEFINED SYMBOLS
                            *ABS*:0000000000000000 sockets.c
     /tmp/ccPo84yg.s:21     .text.alloc_socket:0000000000000000 $t
     /tmp/ccPo84yg.s:26     .text.alloc_socket:0000000000000000 alloc_socket
     /tmp/ccPo84yg.s:119    .text.alloc_socket:0000000000000064 $d
     /tmp/ccPo84yg.s:124    .text.lwip_setsockopt_internal:0000000000000000 $t
     /tmp/ccPo84yg.s:129    .text.lwip_setsockopt_internal:0000000000000000 lwip_setsockopt_internal
     /tmp/ccPo84yg.s:332    .text.lwip_getsockopt_internal:0000000000000000 $t
     /tmp/ccPo84yg.s:337    .text.lwip_getsockopt_internal:0000000000000000 lwip_getsockopt_internal
     /tmp/ccPo84yg.s:559    .text.lwip_getsockopt_internal:000000000000010c $d
     /tmp/ccPo84yg.s:564    .text.event_callback:0000000000000000 $t
     /tmp/ccPo84yg.s:569    .text.event_callback:0000000000000000 event_callback
     /tmp/ccPo84yg.s:619    .text.event_callback:000000000000002a $d
     /tmp/ccPo84yg.s:765    .text.event_callback:00000000000000ec $d
     /tmp/ccPo84yg.s:772    .text.lwip_selscan:0000000000000000 $t
     /tmp/ccPo84yg.s:777    .text.lwip_selscan:0000000000000000 lwip_selscan
     /tmp/ccPo84yg.s:4216   .bss.sockets:0000000000000000 .LANCHOR0
     /tmp/ccPo84yg.s:986    .text.lwip_getaddrname:0000000000000000 $t
     /tmp/ccPo84yg.s:991    .text.lwip_getaddrname:0000000000000000 lwip_getaddrname
     /tmp/ccPo84yg.s:1104   .text.lwip_getaddrname:0000000000000074 $d
     /tmp/ccPo84yg.s:1109   .text.lwip_socket_init:0000000000000000 $t
     /tmp/ccPo84yg.s:1115   .text.lwip_socket_init:0000000000000000 lwip_socket_init
     /tmp/ccPo84yg.s:1127   .text.lwip_accept:0000000000000000 $t
     /tmp/ccPo84yg.s:1133   .text.lwip_accept:0000000000000000 lwip_accept
     /tmp/ccPo84yg.s:1406   .text.lwip_accept:0000000000000140 $d
     /tmp/ccPo84yg.s:1413   .text.lwip_bind:0000000000000000 $t
     /tmp/ccPo84yg.s:1419   .text.lwip_bind:0000000000000000 lwip_bind
     /tmp/ccPo84yg.s:1531   .text.lwip_bind:0000000000000070 $d
     /tmp/ccPo84yg.s:1537   .text.lwip_close:0000000000000000 $t
     /tmp/ccPo84yg.s:1543   .text.lwip_close:0000000000000000 lwip_close
     /tmp/ccPo84yg.s:1642   .text.lwip_close:0000000000000054 $d
     /tmp/ccPo84yg.s:1649   .text.lwip_connect:0000000000000000 $t
     /tmp/ccPo84yg.s:1655   .text.lwip_connect:0000000000000000 lwip_connect
     /tmp/ccPo84yg.s:1769   .text.lwip_connect:0000000000000070 $d
     /tmp/ccPo84yg.s:1775   .text.lwip_listen:0000000000000000 $t
     /tmp/ccPo84yg.s:1781   .text.lwip_listen:0000000000000000 lwip_listen
     /tmp/ccPo84yg.s:1864   .text.lwip_listen:0000000000000048 $d
     /tmp/ccPo84yg.s:1870   .text.lwip_recvfrom:0000000000000000 $t
     /tmp/ccPo84yg.s:1876   .text.lwip_recvfrom:0000000000000000 lwip_recvfrom
     /tmp/ccPo84yg.s:2321   .text.lwip_recvfrom:000000000000020c $d
     /tmp/ccPo84yg.s:2327   .text.lwip_read:0000000000000000 $t
     /tmp/ccPo84yg.s:2333   .text.lwip_read:0000000000000000 lwip_read
     /tmp/ccPo84yg.s:2360   .text.lwip_recv:0000000000000000 $t
     /tmp/ccPo84yg.s:2366   .text.lwip_recv:0000000000000000 lwip_recv
     /tmp/ccPo84yg.s:2394   .text.lwip_sendto:0000000000000000 $t
     /tmp/ccPo84yg.s:2400   .text.lwip_sendto:0000000000000000 lwip_sendto
     /tmp/ccPo84yg.s:2590   .text.lwip_send:0000000000000000 lwip_send
     /tmp/ccPo84yg.s:2578   .text.lwip_sendto:00000000000000d0 $d
     /tmp/ccPo84yg.s:2584   .text.lwip_send:0000000000000000 $t
     /tmp/ccPo84yg.s:2714   .text.lwip_send:0000000000000098 $d
     /tmp/ccPo84yg.s:2720   .text.lwip_socket:0000000000000000 $t
     /tmp/ccPo84yg.s:2726   .text.lwip_socket:0000000000000000 lwip_socket
     /tmp/ccPo84yg.s:2840   .text.lwip_socket:0000000000000074 $d
     /tmp/ccPo84yg.s:2845   .text.lwip_write:0000000000000000 $t
     /tmp/ccPo84yg.s:2851   .text.lwip_write:0000000000000000 lwip_write
     /tmp/ccPo84yg.s:2869   .text.lwip_select:0000000000000000 $t
     /tmp/ccPo84yg.s:2875   .text.lwip_select:0000000000000000 lwip_select
ARM GAS  /tmp/ccPo84yg.s 			page 296


     /tmp/ccPo84yg.s:4209   .bss.select_cb_list:0000000000000000 .LANCHOR2
     /tmp/ccPo84yg.s:4223   .bss.select_cb_ctr:0000000000000000 .LANCHOR3
     /tmp/ccPo84yg.s:3401   .text.lwip_select:00000000000002f4 $d
     /tmp/ccPo84yg.s:3406   .text.lwip_shutdown:0000000000000000 $t
     /tmp/ccPo84yg.s:3412   .text.lwip_shutdown:0000000000000000 lwip_shutdown
     /tmp/ccPo84yg.s:3524   .text.lwip_shutdown:0000000000000068 $d
     /tmp/ccPo84yg.s:3530   .text.lwip_getpeername:0000000000000000 $t
     /tmp/ccPo84yg.s:3536   .text.lwip_getpeername:0000000000000000 lwip_getpeername
     /tmp/ccPo84yg.s:3554   .text.lwip_getsockname:0000000000000000 $t
     /tmp/ccPo84yg.s:3560   .text.lwip_getsockname:0000000000000000 lwip_getsockname
     /tmp/ccPo84yg.s:3578   .text.lwip_getsockopt:0000000000000000 $t
     /tmp/ccPo84yg.s:3584   .text.lwip_getsockopt:0000000000000000 lwip_getsockopt
     /tmp/ccPo84yg.s:3794   .text.lwip_getsockopt:00000000000000f8 $d
     /tmp/ccPo84yg.s:3800   .text.lwip_setsockopt:0000000000000000 $t
     /tmp/ccPo84yg.s:3806   .text.lwip_setsockopt:0000000000000000 lwip_setsockopt
     /tmp/ccPo84yg.s:4004   .text.lwip_setsockopt:00000000000000d4 $d
     /tmp/ccPo84yg.s:4010   .text.lwip_ioctl:0000000000000000 $t
     /tmp/ccPo84yg.s:4016   .text.lwip_ioctl:0000000000000000 lwip_ioctl
     /tmp/ccPo84yg.s:4105   .text.lwip_ioctl:0000000000000050 $d
     /tmp/ccPo84yg.s:4110   .text.lwip_fcntl:0000000000000000 $t
     /tmp/ccPo84yg.s:4116   .text.lwip_fcntl:0000000000000000 lwip_fcntl
     /tmp/ccPo84yg.s:4181   .text.lwip_fcntl:0000000000000048 $d
     /tmp/ccPo84yg.s:4186   .rodata.err_to_errno_table:0000000000000000 $d
     /tmp/ccPo84yg.s:4190   .rodata.err_to_errno_table:0000000000000000 err_to_errno_table
     /tmp/ccPo84yg.s:4208   .bss.select_cb_list:0000000000000000 $d
     /tmp/ccPo84yg.s:4212   .bss.select_cb_list:0000000000000000 select_cb_list
     /tmp/ccPo84yg.s:4215   .bss.sockets:0000000000000000 $d
     /tmp/ccPo84yg.s:4219   .bss.sockets:0000000000000000 sockets
     /tmp/ccPo84yg.s:4222   .bss.select_cb_ctr:0000000000000000 $d
     /tmp/ccPo84yg.s:4226   .bss.select_cb_ctr:0000000000000000 select_cb_ctr
                     .debug_frame:0000000000000010 $d
     /tmp/ccPo84yg.s:123    .text.alloc_socket:0000000000000068 $t
     /tmp/ccPo84yg.s:771    .text.event_callback:00000000000000f8 $t
     /tmp/ccPo84yg.s:1108   .text.lwip_getaddrname:0000000000000078 $t
     /tmp/ccPo84yg.s:1412   .text.lwip_accept:000000000000014c $t
     /tmp/ccPo84yg.s:1536   .text.lwip_bind:0000000000000078 $t
     /tmp/ccPo84yg.s:1648   .text.lwip_close:0000000000000058 $t
     /tmp/ccPo84yg.s:1774   .text.lwip_connect:0000000000000078 $t
     /tmp/ccPo84yg.s:2326   .text.lwip_recvfrom:0000000000000214 $t
     /tmp/ccPo84yg.s:2583   .text.lwip_sendto:00000000000000d8 $t
     /tmp/ccPo84yg.s:2844   .text.lwip_socket:0000000000000078 $t
     /tmp/ccPo84yg.s:3405   .text.lwip_select:00000000000002f8 $t
     /tmp/ccPo84yg.s:4009   .text.lwip_setsockopt:00000000000000dc $t
     /tmp/ccPo84yg.s:4109   .text.lwip_ioctl:0000000000000054 $t
     /tmp/ccPo84yg.s:4185   .text.lwip_fcntl:000000000000004c $t
     /tmp/ccPo84yg.s:624    .text.event_callback:000000000000002f $d
     /tmp/ccPo84yg.s:624    .text.event_callback:0000000000000030 $t

UNDEFINED SYMBOLS
port_halt
sys_sem_signal
netconn_getaddr
lwip_htons
memcpy
netconn_accept
netconn_delete
lwip_ntohs
ARM GAS  /tmp/ccPo84yg.s 			page 297


netconn_bind
netbuf_delete
pbuf_free
netconn_connect
netconn_listen_with_backlog
pbuf_copy_partial
netconn_recved
netconn_recv
netconn_recv_tcp_pbuf
netbuf_ref
netbuf_free
netconn_send
netconn_write
netconn_new_with_proto_and_callback
sys_sem_new
sys_arch_sem_wait
sys_sem_free
netconn_shutdown
tcpip_callback_with_block
