ARM GAS  /tmp/ccGifACe.s 			page 1


   1              		.syntax unified
   2              		.cpu cortex-m4
   3              		.eabi_attribute 27, 3
   4              		.eabi_attribute 28, 1
   5              		.fpu fpv4-sp-d16
   6              		.eabi_attribute 20, 1
   7              		.eabi_attribute 21, 1
   8              		.eabi_attribute 23, 3
   9              		.eabi_attribute 24, 1
  10              		.eabi_attribute 25, 1
  11              		.eabi_attribute 26, 1
  12              		.eabi_attribute 30, 2
  13              		.eabi_attribute 34, 1
  14              		.eabi_attribute 18, 4
  15              		.thumb
  16              		.file	"stm32_dma.c"
  17              		.text
  18              	.Ltext0:
  19              		.cfi_sections	.debug_frame
  20              		.section	.text.Vector6C,"ax",%progbits
  21              		.align	2
  22              		.p2align 4,,15
  23              		.global	Vector6C
  24              		.thumb
  25              		.thumb_func
  26              		.type	Vector6C, %function
  27              	Vector6C:
  28              	.LFB118:
  29              		.file 1 "../../os/hal/platforms/STM32F4xx/stm32_dma.c"
  30              		.loc 1 132 0
  31              		.cfi_startproc
  32              		@ args = 0, pretend = 0, frame = 0
  33              		@ frame_needed = 0, uses_anonymous_args = 0
  34              		.loc 1 137 0
  35 0000 4FF4C043 		mov	r3, #24576
  36 0004 C4F20203 		movt	r3, 16386
  37              		.loc 1 139 0
  38 0008 0748     		ldr	r0, .L7
  39              		.loc 1 137 0
  40 000a 1968     		ldr	r1, [r3, #0]
  41              		.loc 1 139 0
  42 000c 0268     		ldr	r2, [r0, #0]
  43              		.loc 1 132 0
  44 000e 10B5     		push	{r4, lr}
  45              	.LCFI0:
  46              		.cfi_def_cfa_offset 8
  47              		.cfi_offset 4, -8
  48              		.cfi_offset 14, -4
  49              		.loc 1 138 0
  50 0010 3D24     		movs	r4, #61
  51              		.loc 1 137 0
  52 0012 01F03D01 		and	r1, r1, #61
  53              	.LVL0:
  54              		.loc 1 138 0
  55 0016 9C60     		str	r4, [r3, #8]
  56              		.loc 1 139 0
  57 0018 0AB1     		cbz	r2, .L2
ARM GAS  /tmp/ccGifACe.s 			page 2


  58              		.loc 1 140 0
  59 001a 4068     		ldr	r0, [r0, #4]
  60 001c 9047     		blx	r2
  61              	.LVL1:
  62              	.L2:
  63              		.loc 1 143 0
  64 001e BDE81040 		pop	{r4, lr}
  65              		.loc 1 142 0
  66 0022 FFF7FEBF 		b	_port_irq_epilogue
  67              	.LVL2:
  68              	.L8:
  69 0026 00BF     		.align	2
  70              	.L7:
  71 0028 00000000 		.word	.LANCHOR0
  72              		.cfi_endproc
  73              	.LFE118:
  74              		.size	Vector6C, .-Vector6C
  75 002c AFF30080 		.section	.text.Vector70,"ax",%progbits
  76              		.align	2
  77              		.p2align 4,,15
  78              		.global	Vector70
  79              		.thumb
  80              		.thumb_func
  81              		.type	Vector70, %function
  82              	Vector70:
  83              	.LFB119:
  84              		.loc 1 150 0
  85              		.cfi_startproc
  86              		@ args = 0, pretend = 0, frame = 0
  87              		@ frame_needed = 0, uses_anonymous_args = 0
  88              		.loc 1 155 0
  89 0000 4FF4C043 		mov	r3, #24576
  90 0004 C4F20203 		movt	r3, 16386
  91              		.loc 1 157 0
  92 0008 0848     		ldr	r0, .L14
  93              		.loc 1 155 0
  94 000a 1968     		ldr	r1, [r3, #0]
  95              		.loc 1 157 0
  96 000c 8268     		ldr	r2, [r0, #8]
  97              		.loc 1 150 0
  98 000e 10B5     		push	{r4, lr}
  99              	.LCFI1:
 100              		.cfi_def_cfa_offset 8
 101              		.cfi_offset 4, -8
 102              		.cfi_offset 14, -4
 103              		.loc 1 155 0
 104 0010 8909     		lsrs	r1, r1, #6
 105              		.loc 1 156 0
 106 0012 4FF47464 		mov	r4, #3904
 107              		.loc 1 155 0
 108 0016 01F03D01 		and	r1, r1, #61
 109              	.LVL3:
 110              		.loc 1 156 0
 111 001a 9C60     		str	r4, [r3, #8]
 112              		.loc 1 157 0
 113 001c 0AB1     		cbz	r2, .L10
 114              		.loc 1 158 0
ARM GAS  /tmp/ccGifACe.s 			page 3


 115 001e C068     		ldr	r0, [r0, #12]
 116 0020 9047     		blx	r2
 117              	.LVL4:
 118              	.L10:
 119              		.loc 1 161 0
 120 0022 BDE81040 		pop	{r4, lr}
 121              		.loc 1 160 0
 122 0026 FFF7FEBF 		b	_port_irq_epilogue
 123              	.LVL5:
 124              	.L15:
 125 002a 00BF     		.align	2
 126              	.L14:
 127 002c 00000000 		.word	.LANCHOR0
 128              		.cfi_endproc
 129              	.LFE119:
 130              		.size	Vector70, .-Vector70
 131              		.section	.text.Vector74,"ax",%progbits
 132              		.align	2
 133              		.p2align 4,,15
 134              		.global	Vector74
 135              		.thumb
 136              		.thumb_func
 137              		.type	Vector74, %function
 138              	Vector74:
 139              	.LFB120:
 140              		.loc 1 168 0
 141              		.cfi_startproc
 142              		@ args = 0, pretend = 0, frame = 0
 143              		@ frame_needed = 0, uses_anonymous_args = 0
 144              		.loc 1 173 0
 145 0000 4FF4C043 		mov	r3, #24576
 146 0004 C4F20203 		movt	r3, 16386
 147              		.loc 1 175 0
 148 0008 0848     		ldr	r0, .L21
 149              		.loc 1 173 0
 150 000a 1968     		ldr	r1, [r3, #0]
 151              		.loc 1 175 0
 152 000c 0269     		ldr	r2, [r0, #16]
 153              		.loc 1 168 0
 154 000e 10B5     		push	{r4, lr}
 155              	.LCFI2:
 156              		.cfi_def_cfa_offset 8
 157              		.cfi_offset 4, -8
 158              		.cfi_offset 14, -4
 159              		.loc 1 173 0
 160 0010 090C     		lsrs	r1, r1, #16
 161              		.loc 1 174 0
 162 0012 4FF47414 		mov	r4, #3997696
 163              		.loc 1 173 0
 164 0016 01F03D01 		and	r1, r1, #61
 165              	.LVL6:
 166              		.loc 1 174 0
 167 001a 9C60     		str	r4, [r3, #8]
 168              		.loc 1 175 0
 169 001c 0AB1     		cbz	r2, .L17
 170              		.loc 1 176 0
 171 001e 4069     		ldr	r0, [r0, #20]
ARM GAS  /tmp/ccGifACe.s 			page 4


 172 0020 9047     		blx	r2
 173              	.LVL7:
 174              	.L17:
 175              		.loc 1 179 0
 176 0022 BDE81040 		pop	{r4, lr}
 177              		.loc 1 178 0
 178 0026 FFF7FEBF 		b	_port_irq_epilogue
 179              	.LVL8:
 180              	.L22:
 181 002a 00BF     		.align	2
 182              	.L21:
 183 002c 00000000 		.word	.LANCHOR0
 184              		.cfi_endproc
 185              	.LFE120:
 186              		.size	Vector74, .-Vector74
 187              		.section	.text.Vector78,"ax",%progbits
 188              		.align	2
 189              		.p2align 4,,15
 190              		.global	Vector78
 191              		.thumb
 192              		.thumb_func
 193              		.type	Vector78, %function
 194              	Vector78:
 195              	.LFB121:
 196              		.loc 1 186 0
 197              		.cfi_startproc
 198              		@ args = 0, pretend = 0, frame = 0
 199              		@ frame_needed = 0, uses_anonymous_args = 0
 200              		.loc 1 191 0
 201 0000 4FF4C043 		mov	r3, #24576
 202 0004 C4F20203 		movt	r3, 16386
 203              		.loc 1 193 0
 204 0008 0848     		ldr	r0, .L28
 205              		.loc 1 191 0
 206 000a 1968     		ldr	r1, [r3, #0]
 207              		.loc 1 193 0
 208 000c 8269     		ldr	r2, [r0, #24]
 209              		.loc 1 186 0
 210 000e 10B5     		push	{r4, lr}
 211              	.LCFI3:
 212              		.cfi_def_cfa_offset 8
 213              		.cfi_offset 4, -8
 214              		.cfi_offset 14, -4
 215              		.loc 1 191 0
 216 0010 890D     		lsrs	r1, r1, #22
 217              		.loc 1 192 0
 218 0012 4FF07464 		mov	r4, #255852544
 219              		.loc 1 191 0
 220 0016 01F03D01 		and	r1, r1, #61
 221              	.LVL9:
 222              		.loc 1 192 0
 223 001a 9C60     		str	r4, [r3, #8]
 224              		.loc 1 193 0
 225 001c 0AB1     		cbz	r2, .L24
 226              		.loc 1 194 0
 227 001e C069     		ldr	r0, [r0, #28]
 228 0020 9047     		blx	r2
ARM GAS  /tmp/ccGifACe.s 			page 5


 229              	.LVL10:
 230              	.L24:
 231              		.loc 1 197 0
 232 0022 BDE81040 		pop	{r4, lr}
 233              		.loc 1 196 0
 234 0026 FFF7FEBF 		b	_port_irq_epilogue
 235              	.LVL11:
 236              	.L29:
 237 002a 00BF     		.align	2
 238              	.L28:
 239 002c 00000000 		.word	.LANCHOR0
 240              		.cfi_endproc
 241              	.LFE121:
 242              		.size	Vector78, .-Vector78
 243              		.section	.text.Vector7C,"ax",%progbits
 244              		.align	2
 245              		.p2align 4,,15
 246              		.global	Vector7C
 247              		.thumb
 248              		.thumb_func
 249              		.type	Vector7C, %function
 250              	Vector7C:
 251              	.LFB122:
 252              		.loc 1 204 0
 253              		.cfi_startproc
 254              		@ args = 0, pretend = 0, frame = 0
 255              		@ frame_needed = 0, uses_anonymous_args = 0
 256              		.loc 1 209 0
 257 0000 4FF4C043 		mov	r3, #24576
 258 0004 C4F20203 		movt	r3, 16386
 259              		.loc 1 211 0
 260 0008 0748     		ldr	r0, .L35
 261              		.loc 1 209 0
 262 000a 5968     		ldr	r1, [r3, #4]
 263              		.loc 1 211 0
 264 000c 026A     		ldr	r2, [r0, #32]
 265              		.loc 1 204 0
 266 000e 10B5     		push	{r4, lr}
 267              	.LCFI4:
 268              		.cfi_def_cfa_offset 8
 269              		.cfi_offset 4, -8
 270              		.cfi_offset 14, -4
 271              		.loc 1 210 0
 272 0010 3D24     		movs	r4, #61
 273              		.loc 1 209 0
 274 0012 01F03D01 		and	r1, r1, #61
 275              	.LVL12:
 276              		.loc 1 210 0
 277 0016 DC60     		str	r4, [r3, #12]
 278              		.loc 1 211 0
 279 0018 0AB1     		cbz	r2, .L31
 280              		.loc 1 212 0
 281 001a 406A     		ldr	r0, [r0, #36]
 282 001c 9047     		blx	r2
 283              	.LVL13:
 284              	.L31:
 285              		.loc 1 215 0
ARM GAS  /tmp/ccGifACe.s 			page 6


 286 001e BDE81040 		pop	{r4, lr}
 287              		.loc 1 214 0
 288 0022 FFF7FEBF 		b	_port_irq_epilogue
 289              	.LVL14:
 290              	.L36:
 291 0026 00BF     		.align	2
 292              	.L35:
 293 0028 00000000 		.word	.LANCHOR0
 294              		.cfi_endproc
 295              	.LFE122:
 296              		.size	Vector7C, .-Vector7C
 297 002c AFF30080 		.section	.text.Vector80,"ax",%progbits
 298              		.align	2
 299              		.p2align 4,,15
 300              		.global	Vector80
 301              		.thumb
 302              		.thumb_func
 303              		.type	Vector80, %function
 304              	Vector80:
 305              	.LFB123:
 306              		.loc 1 222 0
 307              		.cfi_startproc
 308              		@ args = 0, pretend = 0, frame = 0
 309              		@ frame_needed = 0, uses_anonymous_args = 0
 310              		.loc 1 227 0
 311 0000 4FF4C043 		mov	r3, #24576
 312 0004 C4F20203 		movt	r3, 16386
 313              		.loc 1 229 0
 314 0008 0848     		ldr	r0, .L42
 315              		.loc 1 227 0
 316 000a 5968     		ldr	r1, [r3, #4]
 317              		.loc 1 229 0
 318 000c 826A     		ldr	r2, [r0, #40]
 319              		.loc 1 222 0
 320 000e 10B5     		push	{r4, lr}
 321              	.LCFI5:
 322              		.cfi_def_cfa_offset 8
 323              		.cfi_offset 4, -8
 324              		.cfi_offset 14, -4
 325              		.loc 1 227 0
 326 0010 8909     		lsrs	r1, r1, #6
 327              		.loc 1 228 0
 328 0012 4FF47464 		mov	r4, #3904
 329              		.loc 1 227 0
 330 0016 01F03D01 		and	r1, r1, #61
 331              	.LVL15:
 332              		.loc 1 228 0
 333 001a DC60     		str	r4, [r3, #12]
 334              		.loc 1 229 0
 335 001c 0AB1     		cbz	r2, .L38
 336              		.loc 1 230 0
 337 001e C06A     		ldr	r0, [r0, #44]
 338 0020 9047     		blx	r2
 339              	.LVL16:
 340              	.L38:
 341              		.loc 1 233 0
 342 0022 BDE81040 		pop	{r4, lr}
ARM GAS  /tmp/ccGifACe.s 			page 7


 343              		.loc 1 232 0
 344 0026 FFF7FEBF 		b	_port_irq_epilogue
 345              	.LVL17:
 346              	.L43:
 347 002a 00BF     		.align	2
 348              	.L42:
 349 002c 00000000 		.word	.LANCHOR0
 350              		.cfi_endproc
 351              	.LFE123:
 352              		.size	Vector80, .-Vector80
 353              		.section	.text.Vector84,"ax",%progbits
 354              		.align	2
 355              		.p2align 4,,15
 356              		.global	Vector84
 357              		.thumb
 358              		.thumb_func
 359              		.type	Vector84, %function
 360              	Vector84:
 361              	.LFB124:
 362              		.loc 1 240 0
 363              		.cfi_startproc
 364              		@ args = 0, pretend = 0, frame = 0
 365              		@ frame_needed = 0, uses_anonymous_args = 0
 366              		.loc 1 245 0
 367 0000 4FF4C043 		mov	r3, #24576
 368 0004 C4F20203 		movt	r3, 16386
 369              		.loc 1 247 0
 370 0008 0848     		ldr	r0, .L49
 371              		.loc 1 245 0
 372 000a 5968     		ldr	r1, [r3, #4]
 373              		.loc 1 247 0
 374 000c 026B     		ldr	r2, [r0, #48]
 375              		.loc 1 240 0
 376 000e 10B5     		push	{r4, lr}
 377              	.LCFI6:
 378              		.cfi_def_cfa_offset 8
 379              		.cfi_offset 4, -8
 380              		.cfi_offset 14, -4
 381              		.loc 1 245 0
 382 0010 090C     		lsrs	r1, r1, #16
 383              		.loc 1 246 0
 384 0012 4FF47414 		mov	r4, #3997696
 385              		.loc 1 245 0
 386 0016 01F03D01 		and	r1, r1, #61
 387              	.LVL18:
 388              		.loc 1 246 0
 389 001a DC60     		str	r4, [r3, #12]
 390              		.loc 1 247 0
 391 001c 0AB1     		cbz	r2, .L45
 392              		.loc 1 248 0
 393 001e 406B     		ldr	r0, [r0, #52]
 394 0020 9047     		blx	r2
 395              	.LVL19:
 396              	.L45:
 397              		.loc 1 251 0
 398 0022 BDE81040 		pop	{r4, lr}
 399              		.loc 1 250 0
ARM GAS  /tmp/ccGifACe.s 			page 8


 400 0026 FFF7FEBF 		b	_port_irq_epilogue
 401              	.LVL20:
 402              	.L50:
 403 002a 00BF     		.align	2
 404              	.L49:
 405 002c 00000000 		.word	.LANCHOR0
 406              		.cfi_endproc
 407              	.LFE124:
 408              		.size	Vector84, .-Vector84
 409              		.section	.text.VectorFC,"ax",%progbits
 410              		.align	2
 411              		.p2align 4,,15
 412              		.global	VectorFC
 413              		.thumb
 414              		.thumb_func
 415              		.type	VectorFC, %function
 416              	VectorFC:
 417              	.LFB125:
 418              		.loc 1 258 0
 419              		.cfi_startproc
 420              		@ args = 0, pretend = 0, frame = 0
 421              		@ frame_needed = 0, uses_anonymous_args = 0
 422              		.loc 1 263 0
 423 0000 4FF4C043 		mov	r3, #24576
 424 0004 C4F20203 		movt	r3, 16386
 425              		.loc 1 265 0
 426 0008 0848     		ldr	r0, .L56
 427              		.loc 1 263 0
 428 000a 5968     		ldr	r1, [r3, #4]
 429              		.loc 1 265 0
 430 000c 826B     		ldr	r2, [r0, #56]
 431              		.loc 1 258 0
 432 000e 10B5     		push	{r4, lr}
 433              	.LCFI7:
 434              		.cfi_def_cfa_offset 8
 435              		.cfi_offset 4, -8
 436              		.cfi_offset 14, -4
 437              		.loc 1 263 0
 438 0010 890D     		lsrs	r1, r1, #22
 439              		.loc 1 264 0
 440 0012 4FF07464 		mov	r4, #255852544
 441              		.loc 1 263 0
 442 0016 01F03D01 		and	r1, r1, #61
 443              	.LVL21:
 444              		.loc 1 264 0
 445 001a DC60     		str	r4, [r3, #12]
 446              		.loc 1 265 0
 447 001c 0AB1     		cbz	r2, .L52
 448              		.loc 1 266 0
 449 001e C06B     		ldr	r0, [r0, #60]
 450 0020 9047     		blx	r2
 451              	.LVL22:
 452              	.L52:
 453              		.loc 1 269 0
 454 0022 BDE81040 		pop	{r4, lr}
 455              		.loc 1 268 0
 456 0026 FFF7FEBF 		b	_port_irq_epilogue
ARM GAS  /tmp/ccGifACe.s 			page 9


 457              	.LVL23:
 458              	.L57:
 459 002a 00BF     		.align	2
 460              	.L56:
 461 002c 00000000 		.word	.LANCHOR0
 462              		.cfi_endproc
 463              	.LFE125:
 464              		.size	VectorFC, .-VectorFC
 465              		.section	.text.Vector120,"ax",%progbits
 466              		.align	2
 467              		.p2align 4,,15
 468              		.global	Vector120
 469              		.thumb
 470              		.thumb_func
 471              		.type	Vector120, %function
 472              	Vector120:
 473              	.LFB126:
 474              		.loc 1 276 0
 475              		.cfi_startproc
 476              		@ args = 0, pretend = 0, frame = 0
 477              		@ frame_needed = 0, uses_anonymous_args = 0
 478              		.loc 1 281 0
 479 0000 4FF4C843 		mov	r3, #25600
 480 0004 C4F20203 		movt	r3, 16386
 481              		.loc 1 283 0
 482 0008 0748     		ldr	r0, .L63
 483              		.loc 1 281 0
 484 000a 1968     		ldr	r1, [r3, #0]
 485              		.loc 1 283 0
 486 000c 026C     		ldr	r2, [r0, #64]
 487              		.loc 1 276 0
 488 000e 10B5     		push	{r4, lr}
 489              	.LCFI8:
 490              		.cfi_def_cfa_offset 8
 491              		.cfi_offset 4, -8
 492              		.cfi_offset 14, -4
 493              		.loc 1 282 0
 494 0010 3D24     		movs	r4, #61
 495              		.loc 1 281 0
 496 0012 01F03D01 		and	r1, r1, #61
 497              	.LVL24:
 498              		.loc 1 282 0
 499 0016 9C60     		str	r4, [r3, #8]
 500              		.loc 1 283 0
 501 0018 0AB1     		cbz	r2, .L59
 502              		.loc 1 284 0
 503 001a 406C     		ldr	r0, [r0, #68]
 504 001c 9047     		blx	r2
 505              	.LVL25:
 506              	.L59:
 507              		.loc 1 287 0
 508 001e BDE81040 		pop	{r4, lr}
 509              		.loc 1 286 0
 510 0022 FFF7FEBF 		b	_port_irq_epilogue
 511              	.LVL26:
 512              	.L64:
 513 0026 00BF     		.align	2
ARM GAS  /tmp/ccGifACe.s 			page 10


 514              	.L63:
 515 0028 00000000 		.word	.LANCHOR0
 516              		.cfi_endproc
 517              	.LFE126:
 518              		.size	Vector120, .-Vector120
 519 002c AFF30080 		.section	.text.Vector124,"ax",%progbits
 520              		.align	2
 521              		.p2align 4,,15
 522              		.global	Vector124
 523              		.thumb
 524              		.thumb_func
 525              		.type	Vector124, %function
 526              	Vector124:
 527              	.LFB127:
 528              		.loc 1 294 0
 529              		.cfi_startproc
 530              		@ args = 0, pretend = 0, frame = 0
 531              		@ frame_needed = 0, uses_anonymous_args = 0
 532              		.loc 1 299 0
 533 0000 4FF4C843 		mov	r3, #25600
 534 0004 C4F20203 		movt	r3, 16386
 535              		.loc 1 301 0
 536 0008 0848     		ldr	r0, .L70
 537              		.loc 1 299 0
 538 000a 1968     		ldr	r1, [r3, #0]
 539              		.loc 1 301 0
 540 000c 826C     		ldr	r2, [r0, #72]
 541              		.loc 1 294 0
 542 000e 10B5     		push	{r4, lr}
 543              	.LCFI9:
 544              		.cfi_def_cfa_offset 8
 545              		.cfi_offset 4, -8
 546              		.cfi_offset 14, -4
 547              		.loc 1 299 0
 548 0010 8909     		lsrs	r1, r1, #6
 549              		.loc 1 300 0
 550 0012 4FF47464 		mov	r4, #3904
 551              		.loc 1 299 0
 552 0016 01F03D01 		and	r1, r1, #61
 553              	.LVL27:
 554              		.loc 1 300 0
 555 001a 9C60     		str	r4, [r3, #8]
 556              		.loc 1 301 0
 557 001c 0AB1     		cbz	r2, .L66
 558              		.loc 1 302 0
 559 001e C06C     		ldr	r0, [r0, #76]
 560 0020 9047     		blx	r2
 561              	.LVL28:
 562              	.L66:
 563              		.loc 1 305 0
 564 0022 BDE81040 		pop	{r4, lr}
 565              		.loc 1 304 0
 566 0026 FFF7FEBF 		b	_port_irq_epilogue
 567              	.LVL29:
 568              	.L71:
 569 002a 00BF     		.align	2
 570              	.L70:
ARM GAS  /tmp/ccGifACe.s 			page 11


 571 002c 00000000 		.word	.LANCHOR0
 572              		.cfi_endproc
 573              	.LFE127:
 574              		.size	Vector124, .-Vector124
 575              		.section	.text.Vector128,"ax",%progbits
 576              		.align	2
 577              		.p2align 4,,15
 578              		.global	Vector128
 579              		.thumb
 580              		.thumb_func
 581              		.type	Vector128, %function
 582              	Vector128:
 583              	.LFB128:
 584              		.loc 1 312 0
 585              		.cfi_startproc
 586              		@ args = 0, pretend = 0, frame = 0
 587              		@ frame_needed = 0, uses_anonymous_args = 0
 588              		.loc 1 317 0
 589 0000 4FF4C843 		mov	r3, #25600
 590 0004 C4F20203 		movt	r3, 16386
 591              		.loc 1 319 0
 592 0008 0848     		ldr	r0, .L77
 593              		.loc 1 317 0
 594 000a 1968     		ldr	r1, [r3, #0]
 595              		.loc 1 319 0
 596 000c 026D     		ldr	r2, [r0, #80]
 597              		.loc 1 312 0
 598 000e 10B5     		push	{r4, lr}
 599              	.LCFI10:
 600              		.cfi_def_cfa_offset 8
 601              		.cfi_offset 4, -8
 602              		.cfi_offset 14, -4
 603              		.loc 1 317 0
 604 0010 090C     		lsrs	r1, r1, #16
 605              		.loc 1 318 0
 606 0012 4FF47414 		mov	r4, #3997696
 607              		.loc 1 317 0
 608 0016 01F03D01 		and	r1, r1, #61
 609              	.LVL30:
 610              		.loc 1 318 0
 611 001a 9C60     		str	r4, [r3, #8]
 612              		.loc 1 319 0
 613 001c 0AB1     		cbz	r2, .L73
 614              		.loc 1 320 0
 615 001e 406D     		ldr	r0, [r0, #84]
 616 0020 9047     		blx	r2
 617              	.LVL31:
 618              	.L73:
 619              		.loc 1 323 0
 620 0022 BDE81040 		pop	{r4, lr}
 621              		.loc 1 322 0
 622 0026 FFF7FEBF 		b	_port_irq_epilogue
 623              	.LVL32:
 624              	.L78:
 625 002a 00BF     		.align	2
 626              	.L77:
 627 002c 00000000 		.word	.LANCHOR0
ARM GAS  /tmp/ccGifACe.s 			page 12


 628              		.cfi_endproc
 629              	.LFE128:
 630              		.size	Vector128, .-Vector128
 631              		.section	.text.Vector12C,"ax",%progbits
 632              		.align	2
 633              		.p2align 4,,15
 634              		.global	Vector12C
 635              		.thumb
 636              		.thumb_func
 637              		.type	Vector12C, %function
 638              	Vector12C:
 639              	.LFB129:
 640              		.loc 1 330 0
 641              		.cfi_startproc
 642              		@ args = 0, pretend = 0, frame = 0
 643              		@ frame_needed = 0, uses_anonymous_args = 0
 644              		.loc 1 335 0
 645 0000 4FF4C843 		mov	r3, #25600
 646 0004 C4F20203 		movt	r3, 16386
 647              		.loc 1 337 0
 648 0008 0848     		ldr	r0, .L84
 649              		.loc 1 335 0
 650 000a 1968     		ldr	r1, [r3, #0]
 651              		.loc 1 337 0
 652 000c 826D     		ldr	r2, [r0, #88]
 653              		.loc 1 330 0
 654 000e 10B5     		push	{r4, lr}
 655              	.LCFI11:
 656              		.cfi_def_cfa_offset 8
 657              		.cfi_offset 4, -8
 658              		.cfi_offset 14, -4
 659              		.loc 1 335 0
 660 0010 890D     		lsrs	r1, r1, #22
 661              		.loc 1 336 0
 662 0012 4FF07464 		mov	r4, #255852544
 663              		.loc 1 335 0
 664 0016 01F03D01 		and	r1, r1, #61
 665              	.LVL33:
 666              		.loc 1 336 0
 667 001a 9C60     		str	r4, [r3, #8]
 668              		.loc 1 337 0
 669 001c 0AB1     		cbz	r2, .L80
 670              		.loc 1 338 0
 671 001e C06D     		ldr	r0, [r0, #92]
 672 0020 9047     		blx	r2
 673              	.LVL34:
 674              	.L80:
 675              		.loc 1 341 0
 676 0022 BDE81040 		pop	{r4, lr}
 677              		.loc 1 340 0
 678 0026 FFF7FEBF 		b	_port_irq_epilogue
 679              	.LVL35:
 680              	.L85:
 681 002a 00BF     		.align	2
 682              	.L84:
 683 002c 00000000 		.word	.LANCHOR0
 684              		.cfi_endproc
ARM GAS  /tmp/ccGifACe.s 			page 13


 685              	.LFE129:
 686              		.size	Vector12C, .-Vector12C
 687              		.section	.text.Vector130,"ax",%progbits
 688              		.align	2
 689              		.p2align 4,,15
 690              		.global	Vector130
 691              		.thumb
 692              		.thumb_func
 693              		.type	Vector130, %function
 694              	Vector130:
 695              	.LFB130:
 696              		.loc 1 348 0
 697              		.cfi_startproc
 698              		@ args = 0, pretend = 0, frame = 0
 699              		@ frame_needed = 0, uses_anonymous_args = 0
 700              		.loc 1 353 0
 701 0000 4FF4C843 		mov	r3, #25600
 702 0004 C4F20203 		movt	r3, 16386
 703              		.loc 1 355 0
 704 0008 0748     		ldr	r0, .L91
 705              		.loc 1 353 0
 706 000a 5968     		ldr	r1, [r3, #4]
 707              		.loc 1 355 0
 708 000c 026E     		ldr	r2, [r0, #96]
 709              		.loc 1 348 0
 710 000e 10B5     		push	{r4, lr}
 711              	.LCFI12:
 712              		.cfi_def_cfa_offset 8
 713              		.cfi_offset 4, -8
 714              		.cfi_offset 14, -4
 715              		.loc 1 354 0
 716 0010 3D24     		movs	r4, #61
 717              		.loc 1 353 0
 718 0012 01F03D01 		and	r1, r1, #61
 719              	.LVL36:
 720              		.loc 1 354 0
 721 0016 DC60     		str	r4, [r3, #12]
 722              		.loc 1 355 0
 723 0018 0AB1     		cbz	r2, .L87
 724              		.loc 1 356 0
 725 001a 406E     		ldr	r0, [r0, #100]
 726 001c 9047     		blx	r2
 727              	.LVL37:
 728              	.L87:
 729              		.loc 1 359 0
 730 001e BDE81040 		pop	{r4, lr}
 731              		.loc 1 358 0
 732 0022 FFF7FEBF 		b	_port_irq_epilogue
 733              	.LVL38:
 734              	.L92:
 735 0026 00BF     		.align	2
 736              	.L91:
 737 0028 00000000 		.word	.LANCHOR0
 738              		.cfi_endproc
 739              	.LFE130:
 740              		.size	Vector130, .-Vector130
 741 002c AFF30080 		.section	.text.Vector150,"ax",%progbits
ARM GAS  /tmp/ccGifACe.s 			page 14


 742              		.align	2
 743              		.p2align 4,,15
 744              		.global	Vector150
 745              		.thumb
 746              		.thumb_func
 747              		.type	Vector150, %function
 748              	Vector150:
 749              	.LFB131:
 750              		.loc 1 366 0
 751              		.cfi_startproc
 752              		@ args = 0, pretend = 0, frame = 0
 753              		@ frame_needed = 0, uses_anonymous_args = 0
 754              		.loc 1 371 0
 755 0000 4FF4C843 		mov	r3, #25600
 756 0004 C4F20203 		movt	r3, 16386
 757              		.loc 1 373 0
 758 0008 0848     		ldr	r0, .L98
 759              		.loc 1 371 0
 760 000a 5968     		ldr	r1, [r3, #4]
 761              		.loc 1 373 0
 762 000c 826E     		ldr	r2, [r0, #104]
 763              		.loc 1 366 0
 764 000e 10B5     		push	{r4, lr}
 765              	.LCFI13:
 766              		.cfi_def_cfa_offset 8
 767              		.cfi_offset 4, -8
 768              		.cfi_offset 14, -4
 769              		.loc 1 371 0
 770 0010 8909     		lsrs	r1, r1, #6
 771              		.loc 1 372 0
 772 0012 4FF47464 		mov	r4, #3904
 773              		.loc 1 371 0
 774 0016 01F03D01 		and	r1, r1, #61
 775              	.LVL39:
 776              		.loc 1 372 0
 777 001a DC60     		str	r4, [r3, #12]
 778              		.loc 1 373 0
 779 001c 0AB1     		cbz	r2, .L94
 780              		.loc 1 374 0
 781 001e C06E     		ldr	r0, [r0, #108]
 782 0020 9047     		blx	r2
 783              	.LVL40:
 784              	.L94:
 785              		.loc 1 377 0
 786 0022 BDE81040 		pop	{r4, lr}
 787              		.loc 1 376 0
 788 0026 FFF7FEBF 		b	_port_irq_epilogue
 789              	.LVL41:
 790              	.L99:
 791 002a 00BF     		.align	2
 792              	.L98:
 793 002c 00000000 		.word	.LANCHOR0
 794              		.cfi_endproc
 795              	.LFE131:
 796              		.size	Vector150, .-Vector150
 797              		.section	.text.Vector154,"ax",%progbits
 798              		.align	2
ARM GAS  /tmp/ccGifACe.s 			page 15


 799              		.p2align 4,,15
 800              		.global	Vector154
 801              		.thumb
 802              		.thumb_func
 803              		.type	Vector154, %function
 804              	Vector154:
 805              	.LFB132:
 806              		.loc 1 384 0
 807              		.cfi_startproc
 808              		@ args = 0, pretend = 0, frame = 0
 809              		@ frame_needed = 0, uses_anonymous_args = 0
 810              		.loc 1 389 0
 811 0000 4FF4C843 		mov	r3, #25600
 812 0004 C4F20203 		movt	r3, 16386
 813              		.loc 1 391 0
 814 0008 0848     		ldr	r0, .L105
 815              		.loc 1 389 0
 816 000a 5968     		ldr	r1, [r3, #4]
 817              		.loc 1 391 0
 818 000c 026F     		ldr	r2, [r0, #112]
 819              		.loc 1 384 0
 820 000e 10B5     		push	{r4, lr}
 821              	.LCFI14:
 822              		.cfi_def_cfa_offset 8
 823              		.cfi_offset 4, -8
 824              		.cfi_offset 14, -4
 825              		.loc 1 389 0
 826 0010 090C     		lsrs	r1, r1, #16
 827              		.loc 1 390 0
 828 0012 4FF47414 		mov	r4, #3997696
 829              		.loc 1 389 0
 830 0016 01F03D01 		and	r1, r1, #61
 831              	.LVL42:
 832              		.loc 1 390 0
 833 001a DC60     		str	r4, [r3, #12]
 834              		.loc 1 391 0
 835 001c 0AB1     		cbz	r2, .L101
 836              		.loc 1 392 0
 837 001e 406F     		ldr	r0, [r0, #116]
 838 0020 9047     		blx	r2
 839              	.LVL43:
 840              	.L101:
 841              		.loc 1 395 0
 842 0022 BDE81040 		pop	{r4, lr}
 843              		.loc 1 394 0
 844 0026 FFF7FEBF 		b	_port_irq_epilogue
 845              	.LVL44:
 846              	.L106:
 847 002a 00BF     		.align	2
 848              	.L105:
 849 002c 00000000 		.word	.LANCHOR0
 850              		.cfi_endproc
 851              	.LFE132:
 852              		.size	Vector154, .-Vector154
 853              		.section	.text.Vector158,"ax",%progbits
 854              		.align	2
 855              		.p2align 4,,15
ARM GAS  /tmp/ccGifACe.s 			page 16


 856              		.global	Vector158
 857              		.thumb
 858              		.thumb_func
 859              		.type	Vector158, %function
 860              	Vector158:
 861              	.LFB133:
 862              		.loc 1 402 0
 863              		.cfi_startproc
 864              		@ args = 0, pretend = 0, frame = 0
 865              		@ frame_needed = 0, uses_anonymous_args = 0
 866              		.loc 1 407 0
 867 0000 4FF4C843 		mov	r3, #25600
 868 0004 C4F20203 		movt	r3, 16386
 869              		.loc 1 409 0
 870 0008 0848     		ldr	r0, .L112
 871              		.loc 1 407 0
 872 000a 5968     		ldr	r1, [r3, #4]
 873              		.loc 1 409 0
 874 000c 826F     		ldr	r2, [r0, #120]
 875              		.loc 1 402 0
 876 000e 10B5     		push	{r4, lr}
 877              	.LCFI15:
 878              		.cfi_def_cfa_offset 8
 879              		.cfi_offset 4, -8
 880              		.cfi_offset 14, -4
 881              		.loc 1 407 0
 882 0010 890D     		lsrs	r1, r1, #22
 883              		.loc 1 408 0
 884 0012 4FF07464 		mov	r4, #255852544
 885              		.loc 1 407 0
 886 0016 01F03D01 		and	r1, r1, #61
 887              	.LVL45:
 888              		.loc 1 408 0
 889 001a DC60     		str	r4, [r3, #12]
 890              		.loc 1 409 0
 891 001c 0AB1     		cbz	r2, .L108
 892              		.loc 1 410 0
 893 001e C06F     		ldr	r0, [r0, #124]
 894 0020 9047     		blx	r2
 895              	.LVL46:
 896              	.L108:
 897              		.loc 1 413 0
 898 0022 BDE81040 		pop	{r4, lr}
 899              		.loc 1 412 0
 900 0026 FFF7FEBF 		b	_port_irq_epilogue
 901              	.LVL47:
 902              	.L113:
 903 002a 00BF     		.align	2
 904              	.L112:
 905 002c 00000000 		.word	.LANCHOR0
 906              		.cfi_endproc
 907              	.LFE133:
 908              		.size	Vector158, .-Vector158
 909              		.section	.text.dmaInit,"ax",%progbits
 910              		.align	2
 911              		.p2align 4,,15
 912              		.global	dmaInit
ARM GAS  /tmp/ccGifACe.s 			page 17


 913              		.thumb
 914              		.thumb_func
 915              		.type	dmaInit, %function
 916              	dmaInit:
 917              	.LFB134:
 918              		.loc 1 424 0
 919              		.cfi_startproc
 920              		@ args = 0, pretend = 0, frame = 0
 921              		@ frame_needed = 0, uses_anonymous_args = 0
 922              		@ link register save eliminated.
 923              		.loc 1 427 0
 924 0000 0F4B     		ldr	r3, .L117
 925              		.loc 1 424 0
 926 0002 30B4     		push	{r4, r5}
 927              	.LCFI16:
 928              		.cfi_def_cfa_offset 8
 929              		.cfi_offset 4, -8
 930              		.cfi_offset 5, -4
 931              		.loc 1 427 0
 932 0004 0022     		movs	r2, #0
 933 0006 0F4D     		ldr	r5, .L117+4
 934 0008 0F4C     		ldr	r4, .L117+8
 935 000a 1A60     		str	r2, [r3, #0]
 936              	.LVL48:
 937              		.loc 1 429 0
 938 000c 1146     		mov	r1, r2
 939              		.loc 1 427 0
 940 000e 1346     		mov	r3, r2
 941              	.LVL49:
 942              	.L115:
 943              		.loc 1 429 0 discriminator 2
 944 0010 E858     		ldr	r0, [r5, r3]
 945 0012 0C33     		adds	r3, r3, #12
 946 0014 0160     		str	r1, [r0, #0]
 947              		.loc 1 430 0 discriminator 2
 948 0016 A150     		str	r1, [r4, r2]
 949 0018 0832     		adds	r2, r2, #8
 950              		.loc 1 428 0 discriminator 2
 951 001a C02B     		cmp	r3, #192
 952 001c F8D1     		bne	.L115
 953              		.loc 1 432 0
 954 001e 4FF4C041 		mov	r1, #24576
 955              		.loc 1 434 0
 956 0022 4FF4C842 		mov	r2, #25600
 957              		.loc 1 432 0
 958 0026 C4F20201 		movt	r1, 16386
 959              		.loc 1 434 0
 960 002a C4F20202 		movt	r2, 16386
 961              		.loc 1 432 0
 962 002e 4FF0FF33 		mov	r3, #-1
 963 0032 8B60     		str	r3, [r1, #8]
 964              		.loc 1 433 0
 965 0034 CB60     		str	r3, [r1, #12]
 966              		.loc 1 434 0
 967 0036 9360     		str	r3, [r2, #8]
 968              		.loc 1 435 0
 969 0038 D360     		str	r3, [r2, #12]
ARM GAS  /tmp/ccGifACe.s 			page 18


 970              		.loc 1 436 0
 971 003a 30BC     		pop	{r4, r5}
 972 003c 7047     		bx	lr
 973              	.L118:
 974 003e 00BF     		.align	2
 975              	.L117:
 976 0040 00000000 		.word	.LANCHOR1
 977 0044 00000000 		.word	.LANCHOR2
 978 0048 00000000 		.word	.LANCHOR0
 979              		.cfi_endproc
 980              	.LFE134:
 981              		.size	dmaInit, .-dmaInit
 982 004c AFF30080 		.section	.text.dmaStreamAllocate,"ax",%progbits
 983              		.align	2
 984              		.p2align 4,,15
 985              		.global	dmaStreamAllocate
 986              		.thumb
 987              		.thumb_func
 988              		.type	dmaStreamAllocate, %function
 989              	dmaStreamAllocate:
 990              	.LFB135:
 991              		.loc 1 465 0
 992              		.cfi_startproc
 993              		@ args = 0, pretend = 0, frame = 0
 994              		@ frame_needed = 0, uses_anonymous_args = 0
 995              	.LVL50:
 996 0000 2DE9F041 		push	{r4, r5, r6, r7, r8, lr}
 997              	.LCFI17:
 998              		.cfi_def_cfa_offset 24
 999              		.cfi_offset 4, -24
 1000              		.cfi_offset 5, -20
 1001              		.cfi_offset 6, -16
 1002              		.cfi_offset 7, -12
 1003              		.cfi_offset 8, -8
 1004              		.cfi_offset 14, -4
 1005              		.loc 1 470 0
 1006 0004 254E     		ldr	r6, .L133
 1007 0006 447A     		ldrb	r4, [r0, #9]	@ zero_extendqisi2
 1008 0008 3768     		ldr	r7, [r6, #0]
 1009 000a 0125     		movs	r5, #1
 1010 000c 05FA04FC 		lsl	ip, r5, r4
 1011 0010 1CEA070F 		tst	ip, r7
 1012 0014 3BD1     		bne	.L124
 1013              		.loc 1 474 0
 1014 0016 224D     		ldr	r5, .L133+4
 1015              		.loc 1 476 0
 1016 0018 4CEA0707 		orr	r7, ip, r7
 1017              		.loc 1 475 0
 1018 001c 05EBC408 		add	r8, r5, r4, lsl #3
 1019              		.loc 1 479 0
 1020 0020 17F0FF0F 		tst	r7, #255
 1021              		.loc 1 475 0
 1022 0024 C8F80430 		str	r3, [r8, #4]
 1023              		.loc 1 480 0
 1024 0028 1CBF     		itt	ne
 1025 002a 4FF46053 		movne	r3, #14336
 1026              	.LVL51:
ARM GAS  /tmp/ccGifACe.s 			page 19


 1027 002e C4F20203 		movtne	r3, 16386
 1028              		.loc 1 476 0
 1029 0032 3760     		str	r7, [r6, #0]
 1030              		.loc 1 474 0
 1031 0034 45F83420 		str	r2, [r5, r4, lsl #3]
 1032              		.loc 1 480 0
 1033 0038 1EBF     		ittt	ne
 1034 003a 1C6B     		ldrne	r4, [r3, #48]
 1035 003c 44F40014 		orrne	r4, r4, #2097152
 1036 0040 1C63     		strne	r4, [r3, #48]
 1037              		.loc 1 481 0
 1038 0042 17F47F4F 		tst	r7, #65280
 1039              		.loc 1 482 0
 1040 0046 1FBF     		itttt	ne
 1041 0048 4FF46053 		movne	r3, #14336
 1042 004c C4F20203 		movtne	r3, 16386
 1043 0050 1C6B     		ldrne	r4, [r3, #48]
 1044 0052 44F48004 		orrne	r4, r4, #4194304
 1045 0056 18BF     		it	ne
 1046 0058 1C63     		strne	r4, [r3, #48]
 1047              		.loc 1 485 0
 1048 005a 0468     		ldr	r4, [r0, #0]
 1049 005c 2368     		ldr	r3, [r4, #0]
 1050 005e 23F00103 		bic	r3, r3, #1
 1051 0062 2360     		str	r3, [r4, #0]
 1052              	.L123:
 1053              		.loc 1 485 0 is_stmt 0 discriminator 1
 1054 0064 2368     		ldr	r3, [r4, #0]
 1055 0066 13F00105 		ands	r5, r3, #1
 1056 006a FBD1     		bne	.L123
 1057              		.loc 1 485 0 discriminator 2
 1058 006c 067A     		ldrb	r6, [r0, #8]	@ zero_extendqisi2
 1059 006e 4368     		ldr	r3, [r0, #4]
 1060 0070 3D27     		movs	r7, #61
 1061 0072 07FA06F6 		lsl	r6, r7, r6
 1062 0076 1E60     		str	r6, [r3, #0]
 1063              		.loc 1 487 0 is_stmt 1 discriminator 2
 1064 0078 2123     		movs	r3, #33
 1065              		.loc 1 486 0 discriminator 2
 1066 007a 2560     		str	r5, [r4, #0]
 1067              		.loc 1 487 0 discriminator 2
 1068 007c 6361     		str	r3, [r4, #20]
 1069              		.loc 1 490 0 discriminator 2
 1070 007e 4AB1     		cbz	r2, .L125
 1071              		.loc 1 491 0
 1072 0080 807A     		ldrb	r0, [r0, #10]	@ zero_extendqisi2
 1073              	.LVL52:
 1074 0082 0901     		lsls	r1, r1, #4
 1075              	.LVL53:
 1076 0084 FFF7FEFF 		bl	nvicEnableVector
 1077              	.LVL54:
 1078              		.loc 1 493 0
 1079 0088 2846     		mov	r0, r5
 1080 008a BDE8F081 		pop	{r4, r5, r6, r7, r8, pc}
 1081              	.LVL55:
 1082              	.L124:
 1083              		.loc 1 471 0
ARM GAS  /tmp/ccGifACe.s 			page 20


 1084 008e 2846     		mov	r0, r5
 1085              	.LVL56:
 1086 0090 BDE8F081 		pop	{r4, r5, r6, r7, r8, pc}
 1087              	.LVL57:
 1088              	.L125:
 1089              		.loc 1 493 0
 1090 0094 1046     		mov	r0, r2
 1091              	.LVL58:
 1092              		.loc 1 494 0
 1093 0096 BDE8F081 		pop	{r4, r5, r6, r7, r8, pc}
 1094              	.L134:
 1095 009a 00BF     		.align	2
 1096              	.L133:
 1097 009c 00000000 		.word	.LANCHOR1
 1098 00a0 00000000 		.word	.LANCHOR0
 1099              		.cfi_endproc
 1100              	.LFE135:
 1101              		.size	dmaStreamAllocate, .-dmaStreamAllocate
 1102 00a4 AFF30080 		.section	.text.dmaStreamRelease,"ax",%progbits
 1102      AFF30080 
 1102      AFF30080 
 1103              		.align	2
 1104              		.p2align 4,,15
 1105              		.global	dmaStreamRelease
 1106              		.thumb
 1107              		.thumb_func
 1108              		.type	dmaStreamRelease, %function
 1109              	dmaStreamRelease:
 1110              	.LFB136:
 1111              		.loc 1 509 0
 1112              		.cfi_startproc
 1113              		@ args = 0, pretend = 0, frame = 0
 1114              		@ frame_needed = 0, uses_anonymous_args = 0
 1115              	.LVL59:
 1116 0000 10B5     		push	{r4, lr}
 1117              	.LCFI18:
 1118              		.cfi_def_cfa_offset 8
 1119              		.cfi_offset 4, -8
 1120              		.cfi_offset 14, -4
 1121              		.loc 1 509 0
 1122 0002 0446     		mov	r4, r0
 1123              		.loc 1 518 0
 1124 0004 807A     		ldrb	r0, [r0, #10]	@ zero_extendqisi2
 1125              	.LVL60:
 1126 0006 FFF7FEFF 		bl	nvicDisableVector
 1127              	.LVL61:
 1128              		.loc 1 521 0
 1129 000a 114A     		ldr	r2, .L138
 1130 000c 637A     		ldrb	r3, [r4, #9]	@ zero_extendqisi2
 1131 000e 1168     		ldr	r1, [r2, #0]
 1132 0010 0120     		movs	r0, #1
 1133 0012 00FA03F3 		lsl	r3, r0, r3
 1134 0016 21EA0303 		bic	r3, r1, r3
 1135              		.loc 1 524 0
 1136 001a 13F0FF0F 		tst	r3, #255
 1137              		.loc 1 521 0
 1138 001e 1360     		str	r3, [r2, #0]
ARM GAS  /tmp/ccGifACe.s 			page 21


 1139              		.loc 1 525 0
 1140 0020 01BF     		itttt	eq
 1141 0022 4FF46052 		moveq	r2, #14336
 1142 0026 C4F20202 		movteq	r2, 16386
 1143 002a 116B     		ldreq	r1, [r2, #48]
 1144 002c 21F40011 		biceq	r1, r1, #2097152
 1145 0030 08BF     		it	eq
 1146 0032 1163     		streq	r1, [r2, #48]
 1147              		.loc 1 526 0
 1148 0034 13F47F4F 		tst	r3, #65280
 1149              		.loc 1 527 0
 1150 0038 01BF     		itttt	eq
 1151 003a 4FF46053 		moveq	r3, #14336
 1152 003e C4F20203 		movteq	r3, 16386
 1153 0042 1A6B     		ldreq	r2, [r3, #48]
 1154 0044 22F48002 		biceq	r2, r2, #4194304
 1155 0048 08BF     		it	eq
 1156 004a 1A63     		streq	r2, [r3, #48]
 1157 004c 10BD     		pop	{r4, pc}
 1158              	.L139:
 1159 004e 00BF     		.align	2
 1160              	.L138:
 1161 0050 00000000 		.word	.LANCHOR1
 1162              		.cfi_endproc
 1163              	.LFE136:
 1164              		.size	dmaStreamRelease, .-dmaStreamRelease
 1165              		.global	_stm32_dma_streams
 1166 0054 AFF30080 		.section	.bss.dma_isr_redir,"aw",%nobits
 1166      AFF30080 
 1166      AFF30080 
 1167              		.align	2
 1168              		.set	.LANCHOR0,. + 0
 1169              		.type	dma_isr_redir, %object
 1170              		.size	dma_isr_redir, 128
 1171              	dma_isr_redir:
 1172 0000 00000000 		.space	128
 1172      00000000 
 1172      00000000 
 1172      00000000 
 1172      00000000 
 1173              		.section	.rodata._stm32_dma_streams,"a",%progbits
 1174              		.align	2
 1175              		.set	.LANCHOR2,. + 0
 1176              		.type	_stm32_dma_streams, %object
 1177              		.size	_stm32_dma_streams, 192
 1178              	_stm32_dma_streams:
 1179 0000 10600240 		.word	1073897488
 1180 0004 08600240 		.word	1073897480
 1181 0008 00       		.byte	0
 1182 0009 00       		.byte	0
 1183 000a 0B       		.byte	11
 1184 000b 00       		.space	1
 1185 000c 28600240 		.word	1073897512
 1186 0010 08600240 		.word	1073897480
 1187 0014 06       		.byte	6
 1188 0015 01       		.byte	1
 1189 0016 0C       		.byte	12
ARM GAS  /tmp/ccGifACe.s 			page 22


 1190 0017 00       		.space	1
 1191 0018 40600240 		.word	1073897536
 1192 001c 08600240 		.word	1073897480
 1193 0020 10       		.byte	16
 1194 0021 02       		.byte	2
 1195 0022 0D       		.byte	13
 1196 0023 00       		.space	1
 1197 0024 58600240 		.word	1073897560
 1198 0028 08600240 		.word	1073897480
 1199 002c 16       		.byte	22
 1200 002d 03       		.byte	3
 1201 002e 0E       		.byte	14
 1202 002f 00       		.space	1
 1203 0030 70600240 		.word	1073897584
 1204 0034 0C600240 		.word	1073897484
 1205 0038 00       		.byte	0
 1206 0039 04       		.byte	4
 1207 003a 0F       		.byte	15
 1208 003b 00       		.space	1
 1209 003c 88600240 		.word	1073897608
 1210 0040 0C600240 		.word	1073897484
 1211 0044 06       		.byte	6
 1212 0045 05       		.byte	5
 1213 0046 10       		.byte	16
 1214 0047 00       		.space	1
 1215 0048 A0600240 		.word	1073897632
 1216 004c 0C600240 		.word	1073897484
 1217 0050 10       		.byte	16
 1218 0051 06       		.byte	6
 1219 0052 11       		.byte	17
 1220 0053 00       		.space	1
 1221 0054 B8600240 		.word	1073897656
 1222 0058 0C600240 		.word	1073897484
 1223 005c 16       		.byte	22
 1224 005d 07       		.byte	7
 1225 005e 2F       		.byte	47
 1226 005f 00       		.space	1
 1227 0060 10640240 		.word	1073898512
 1228 0064 08640240 		.word	1073898504
 1229 0068 00       		.byte	0
 1230 0069 08       		.byte	8
 1231 006a 38       		.byte	56
 1232 006b 00       		.space	1
 1233 006c 28640240 		.word	1073898536
 1234 0070 08640240 		.word	1073898504
 1235 0074 06       		.byte	6
 1236 0075 09       		.byte	9
 1237 0076 39       		.byte	57
 1238 0077 00       		.space	1
 1239 0078 40640240 		.word	1073898560
 1240 007c 08640240 		.word	1073898504
 1241 0080 10       		.byte	16
 1242 0081 0A       		.byte	10
 1243 0082 3A       		.byte	58
 1244 0083 00       		.space	1
 1245 0084 58640240 		.word	1073898584
 1246 0088 08640240 		.word	1073898504
ARM GAS  /tmp/ccGifACe.s 			page 23


 1247 008c 16       		.byte	22
 1248 008d 0B       		.byte	11
 1249 008e 3B       		.byte	59
 1250 008f 00       		.space	1
 1251 0090 70640240 		.word	1073898608
 1252 0094 0C640240 		.word	1073898508
 1253 0098 00       		.byte	0
 1254 0099 0C       		.byte	12
 1255 009a 3C       		.byte	60
 1256 009b 00       		.space	1
 1257 009c 88640240 		.word	1073898632
 1258 00a0 0C640240 		.word	1073898508
 1259 00a4 06       		.byte	6
 1260 00a5 0D       		.byte	13
 1261 00a6 44       		.byte	68
 1262 00a7 00       		.space	1
 1263 00a8 A0640240 		.word	1073898656
 1264 00ac 0C640240 		.word	1073898508
 1265 00b0 10       		.byte	16
 1266 00b1 0E       		.byte	14
 1267 00b2 45       		.byte	69
 1268 00b3 00       		.space	1
 1269 00b4 B8640240 		.word	1073898680
 1270 00b8 0C640240 		.word	1073898508
 1271 00bc 16       		.byte	22
 1272 00bd 0F       		.byte	15
 1273 00be 46       		.byte	70
 1274 00bf 00       		.space	1
 1275              		.section	.bss.dma_streams_mask,"aw",%nobits
 1276              		.align	2
 1277              		.set	.LANCHOR1,. + 0
 1278              		.type	dma_streams_mask, %object
 1279              		.size	dma_streams_mask, 4
 1280              	dma_streams_mask:
 1281 0000 00000000 		.space	4
 1282              		.text
 1283              	.Letext0:
 1284              		.file 2 "/opt/psas/x-tools/stm32f407/arm-psas-eabi/bin/../lib/gcc/arm-psas-eabi/4.7.2/../../../../
 1285              		.file 3 "../../os/ports/GCC/ARMCMx/chtypes.h"
 1286              		.file 4 "../../os/hal/platforms/STM32F4xx/stm32f4xx.h"
 1287              		.file 5 "../../os/hal/platforms/STM32F4xx/stm32_dma.h"
 1288              		.file 6 "../../os/ports/common/ARMCMx/CMSIS/include/core_cm4.h"
 1289              		.file 7 "../../os/ports/GCC/ARMCMx/chcore_v7m.h"
 1290              		.file 8 "../../os/ports/common/ARMCMx/nvic.h"
 1291              		.section	.debug_info,"",%progbits
 1292              	.Ldebug_info0:
 1293 0000 1B0B0000 		.4byte	0xb1b
 1294 0004 0200     		.2byte	0x2
 1295 0006 00000000 		.4byte	.Ldebug_abbrev0
 1296 000a 04       		.byte	0x4
 1297 000b 01       		.uleb128 0x1
 1298 000c 52050000 		.4byte	.LASF179
 1299 0010 01       		.byte	0x1
 1300 0011 75000000 		.4byte	.LASF180
 1301 0015 FE030000 		.4byte	.LASF181
 1302 0019 00000000 		.4byte	.Ldebug_ranges0+0
 1303 001d 00000000 		.4byte	0
ARM GAS  /tmp/ccGifACe.s 			page 24


 1304 0021 00000000 		.4byte	0
 1305 0025 00000000 		.4byte	.Ldebug_line0
 1306 0029 02       		.uleb128 0x2
 1307 002a 04       		.byte	0x4
 1308 002b 05       		.byte	0x5
 1309 002c 696E7400 		.ascii	"int\000"
 1310 0030 03       		.uleb128 0x3
 1311 0031 04       		.byte	0x4
 1312 0032 07       		.byte	0x7
 1313 0033 B0020000 		.4byte	.LASF0
 1314 0037 03       		.uleb128 0x3
 1315 0038 01       		.byte	0x1
 1316 0039 06       		.byte	0x6
 1317 003a 8F010000 		.4byte	.LASF1
 1318 003e 04       		.uleb128 0x4
 1319 003f 40080000 		.4byte	.LASF5
 1320 0043 02       		.byte	0x2
 1321 0044 2A       		.byte	0x2a
 1322 0045 49000000 		.4byte	0x49
 1323 0049 03       		.uleb128 0x3
 1324 004a 01       		.byte	0x1
 1325 004b 08       		.byte	0x8
 1326 004c 03060000 		.4byte	.LASF2
 1327 0050 03       		.uleb128 0x3
 1328 0051 02       		.byte	0x2
 1329 0052 05       		.byte	0x5
 1330 0053 4A060000 		.4byte	.LASF3
 1331 0057 03       		.uleb128 0x3
 1332 0058 02       		.byte	0x2
 1333 0059 07       		.byte	0x7
 1334 005a 75030000 		.4byte	.LASF4
 1335 005e 04       		.uleb128 0x4
 1336 005f FB050000 		.4byte	.LASF6
 1337 0063 02       		.byte	0x2
 1338 0064 4F       		.byte	0x4f
 1339 0065 69000000 		.4byte	0x69
 1340 0069 03       		.uleb128 0x3
 1341 006a 04       		.byte	0x4
 1342 006b 05       		.byte	0x5
 1343 006c E6010000 		.4byte	.LASF7
 1344 0070 04       		.uleb128 0x4
 1345 0071 1D020000 		.4byte	.LASF8
 1346 0075 02       		.byte	0x2
 1347 0076 50       		.byte	0x50
 1348 0077 7B000000 		.4byte	0x7b
 1349 007b 03       		.uleb128 0x3
 1350 007c 04       		.byte	0x4
 1351 007d 07       		.byte	0x7
 1352 007e 27030000 		.4byte	.LASF9
 1353 0082 03       		.uleb128 0x3
 1354 0083 08       		.byte	0x8
 1355 0084 05       		.byte	0x5
 1356 0085 81010000 		.4byte	.LASF10
 1357 0089 03       		.uleb128 0x3
 1358 008a 08       		.byte	0x8
 1359 008b 07       		.byte	0x7
 1360 008c E0000000 		.4byte	.LASF11
ARM GAS  /tmp/ccGifACe.s 			page 25


 1361 0090 04       		.uleb128 0x4
 1362 0091 C6010000 		.4byte	.LASF12
 1363 0095 03       		.byte	0x3
 1364 0096 27       		.byte	0x27
 1365 0097 5E000000 		.4byte	0x5e
 1366 009b 05       		.uleb128 0x5
 1367 009c 04       		.byte	0x4
 1368 009d 06       		.uleb128 0x6
 1369 009e 70000000 		.4byte	0x70
 1370 00a2 03       		.uleb128 0x3
 1371 00a3 04       		.byte	0x4
 1372 00a4 07       		.byte	0x7
 1373 00a5 99040000 		.4byte	.LASF13
 1374 00a9 03       		.uleb128 0x3
 1375 00aa 01       		.byte	0x1
 1376 00ab 08       		.byte	0x8
 1377 00ac 1B070000 		.4byte	.LASF14
 1378 00b0 07       		.uleb128 0x7
 1379 00b1 8E040000 		.4byte	.LASF182
 1380 00b5 01       		.byte	0x1
 1381 00b6 04       		.byte	0x4
 1382 00b7 8C       		.byte	0x8c
 1383 00b8 EB020000 		.4byte	0x2eb
 1384 00bc 08       		.uleb128 0x8
 1385 00bd 65070000 		.4byte	.LASF15
 1386 00c1 72       		.sleb128 -14
 1387 00c2 08       		.uleb128 0x8
 1388 00c3 F5020000 		.4byte	.LASF16
 1389 00c7 74       		.sleb128 -12
 1390 00c8 08       		.uleb128 0x8
 1391 00c9 3A070000 		.4byte	.LASF17
 1392 00cd 75       		.sleb128 -11
 1393 00ce 08       		.uleb128 0x8
 1394 00cf E0060000 		.4byte	.LASF18
 1395 00d3 76       		.sleb128 -10
 1396 00d4 08       		.uleb128 0x8
 1397 00d5 69030000 		.4byte	.LASF19
 1398 00d9 7B       		.sleb128 -5
 1399 00da 08       		.uleb128 0x8
 1400 00db BA070000 		.4byte	.LASF20
 1401 00df 7C       		.sleb128 -4
 1402 00e0 08       		.uleb128 0x8
 1403 00e1 58020000 		.4byte	.LASF21
 1404 00e5 7E       		.sleb128 -2
 1405 00e6 08       		.uleb128 0x8
 1406 00e7 5C040000 		.4byte	.LASF22
 1407 00eb 7F       		.sleb128 -1
 1408 00ec 08       		.uleb128 0x8
 1409 00ed 45010000 		.4byte	.LASF23
 1410 00f1 00       		.sleb128 0
 1411 00f2 08       		.uleb128 0x8
 1412 00f3 28000000 		.4byte	.LASF24
 1413 00f7 01       		.sleb128 1
 1414 00f8 08       		.uleb128 0x8
 1415 00f9 99070000 		.4byte	.LASF25
 1416 00fd 02       		.sleb128 2
 1417 00fe 08       		.uleb128 0x8
ARM GAS  /tmp/ccGifACe.s 			page 26


 1418 00ff 37010000 		.4byte	.LASF26
 1419 0103 03       		.sleb128 3
 1420 0104 08       		.uleb128 0x8
 1421 0105 A6060000 		.4byte	.LASF27
 1422 0109 04       		.sleb128 4
 1423 010a 08       		.uleb128 0x8
 1424 010b F8080000 		.4byte	.LASF28
 1425 010f 05       		.sleb128 5
 1426 0110 08       		.uleb128 0x8
 1427 0111 11080000 		.4byte	.LASF29
 1428 0115 06       		.sleb128 6
 1429 0116 08       		.uleb128 0x8
 1430 0117 1C090000 		.4byte	.LASF30
 1431 011b 07       		.sleb128 7
 1432 011c 08       		.uleb128 0x8
 1433 011d 8B060000 		.4byte	.LASF31
 1434 0121 08       		.sleb128 8
 1435 0122 08       		.uleb128 0x8
 1436 0123 0B050000 		.4byte	.LASF32
 1437 0127 09       		.sleb128 9
 1438 0128 08       		.uleb128 0x8
 1439 0129 31060000 		.4byte	.LASF33
 1440 012d 0A       		.sleb128 10
 1441 012e 08       		.uleb128 0x8
 1442 012f 27090000 		.4byte	.LASF34
 1443 0133 0B       		.sleb128 11
 1444 0134 08       		.uleb128 0x8
 1445 0135 D4030000 		.4byte	.LASF35
 1446 0139 0C       		.sleb128 12
 1447 013a 08       		.uleb128 0x8
 1448 013b 20050000 		.4byte	.LASF36
 1449 013f 0D       		.sleb128 13
 1450 0140 08       		.uleb128 0x8
 1451 0141 C7020000 		.4byte	.LASF37
 1452 0145 0E       		.sleb128 14
 1453 0146 08       		.uleb128 0x8
 1454 0147 DD040000 		.4byte	.LASF38
 1455 014b 0F       		.sleb128 15
 1456 014c 08       		.uleb128 0x8
 1457 014d F8010000 		.4byte	.LASF39
 1458 0151 10       		.sleb128 16
 1459 0152 08       		.uleb128 0x8
 1460 0153 D9020000 		.4byte	.LASF40
 1461 0157 11       		.sleb128 17
 1462 0158 08       		.uleb128 0x8
 1463 0159 9F080000 		.4byte	.LASF41
 1464 015d 12       		.sleb128 18
 1465 015e 08       		.uleb128 0x8
 1466 015f A5030000 		.4byte	.LASF42
 1467 0163 13       		.sleb128 19
 1468 0164 08       		.uleb128 0x8
 1469 0165 1A000000 		.4byte	.LASF43
 1470 0169 14       		.sleb128 20
 1471 016a 08       		.uleb128 0x8
 1472 016b D2000000 		.4byte	.LASF44
 1473 016f 15       		.sleb128 21
 1474 0170 08       		.uleb128 0x8
ARM GAS  /tmp/ccGifACe.s 			page 27


 1475 0171 CA080000 		.4byte	.LASF45
 1476 0175 16       		.sleb128 22
 1477 0176 08       		.uleb128 0x8
 1478 0177 56000000 		.4byte	.LASF46
 1479 017b 17       		.sleb128 23
 1480 017c 08       		.uleb128 0x8
 1481 017d 11060000 		.4byte	.LASF47
 1482 0181 18       		.sleb128 24
 1483 0182 08       		.uleb128 0x8
 1484 0183 AB040000 		.4byte	.LASF48
 1485 0187 19       		.sleb128 25
 1486 0188 08       		.uleb128 0x8
 1487 0189 69060000 		.4byte	.LASF49
 1488 018d 1A       		.sleb128 26
 1489 018e 08       		.uleb128 0x8
 1490 018f 69040000 		.4byte	.LASF50
 1491 0193 1B       		.sleb128 27
 1492 0194 08       		.uleb128 0x8
 1493 0195 07080000 		.4byte	.LASF51
 1494 0199 1C       		.sleb128 28
 1495 019a 08       		.uleb128 0x8
 1496 019b 12090000 		.4byte	.LASF52
 1497 019f 1D       		.sleb128 29
 1498 01a0 08       		.uleb128 0x8
 1499 01a1 2D010000 		.4byte	.LASF53
 1500 01a5 1E       		.sleb128 30
 1501 01a6 08       		.uleb128 0x8
 1502 01a7 A2000000 		.4byte	.LASF54
 1503 01ab 1F       		.sleb128 31
 1504 01ac 08       		.uleb128 0x8
 1505 01ad 92080000 		.4byte	.LASF55
 1506 01b1 20       		.sleb128 32
 1507 01b2 08       		.uleb128 0x8
 1508 01b3 D0040000 		.4byte	.LASF56
 1509 01b7 21       		.sleb128 33
 1510 01b8 08       		.uleb128 0x8
 1511 01b9 20010000 		.4byte	.LASF57
 1512 01bd 22       		.sleb128 34
 1513 01be 08       		.uleb128 0x8
 1514 01bf CA030000 		.4byte	.LASF58
 1515 01c3 23       		.sleb128 35
 1516 01c4 08       		.uleb128 0x8
 1517 01c5 16050000 		.4byte	.LASF59
 1518 01c9 24       		.sleb128 36
 1519 01ca 08       		.uleb128 0x8
 1520 01cb 1C080000 		.4byte	.LASF60
 1521 01cf 25       		.sleb128 37
 1522 01d0 08       		.uleb128 0x8
 1523 01d1 D4060000 		.4byte	.LASF61
 1524 01d5 26       		.sleb128 38
 1525 01d6 08       		.uleb128 0x8
 1526 01d7 EC070000 		.4byte	.LASF62
 1527 01db 27       		.sleb128 39
 1528 01dc 08       		.uleb128 0x8
 1529 01dd BB030000 		.4byte	.LASF63
 1530 01e1 28       		.sleb128 40
 1531 01e2 08       		.uleb128 0x8
ARM GAS  /tmp/ccGifACe.s 			page 28


 1532 01e3 F7000000 		.4byte	.LASF64
 1533 01e7 29       		.sleb128 41
 1534 01e8 08       		.uleb128 0x8
 1535 01e9 47020000 		.4byte	.LASF65
 1536 01ed 2A       		.sleb128 42
 1537 01ee 08       		.uleb128 0x8
 1538 01ef 48040000 		.4byte	.LASF66
 1539 01f3 2B       		.sleb128 43
 1540 01f4 08       		.uleb128 0x8
 1541 01f5 64020000 		.4byte	.LASF67
 1542 01f9 2C       		.sleb128 44
 1543 01fa 08       		.uleb128 0x8
 1544 01fb 76040000 		.4byte	.LASF68
 1545 01ff 2D       		.sleb128 45
 1546 0200 08       		.uleb128 0x8
 1547 0201 74010000 		.4byte	.LASF69
 1548 0205 2E       		.sleb128 46
 1549 0206 08       		.uleb128 0x8
 1550 0207 09070000 		.4byte	.LASF70
 1551 020b 2F       		.sleb128 47
 1552 020c 08       		.uleb128 0x8
 1553 020d F1050000 		.4byte	.LASF71
 1554 0211 30       		.sleb128 48
 1555 0212 08       		.uleb128 0x8
 1556 0213 4F010000 		.4byte	.LASF72
 1557 0217 31       		.sleb128 49
 1558 0218 08       		.uleb128 0x8
 1559 0219 01050000 		.4byte	.LASF73
 1560 021d 32       		.sleb128 50
 1561 021e 08       		.uleb128 0x8
 1562 021f CC050000 		.4byte	.LASF74
 1563 0223 33       		.sleb128 51
 1564 0224 08       		.uleb128 0x8
 1565 0225 3C020000 		.4byte	.LASF75
 1566 0229 34       		.sleb128 52
 1567 022a 08       		.uleb128 0x8
 1568 022b 5E060000 		.4byte	.LASF76
 1569 022f 35       		.sleb128 53
 1570 0230 08       		.uleb128 0x8
 1571 0231 26020000 		.4byte	.LASF77
 1572 0235 36       		.sleb128 54
 1573 0236 08       		.uleb128 0x8
 1574 0237 48070000 		.4byte	.LASF78
 1575 023b 37       		.sleb128 55
 1576 023c 08       		.uleb128 0x8
 1577 023d CC070000 		.4byte	.LASF79
 1578 0241 38       		.sleb128 56
 1579 0242 08       		.uleb128 0x8
 1580 0243 A8080000 		.4byte	.LASF80
 1581 0247 39       		.sleb128 57
 1582 0248 08       		.uleb128 0x8
 1583 0249 88030000 		.4byte	.LASF81
 1584 024d 3A       		.sleb128 58
 1585 024e 08       		.uleb128 0x8
 1586 024f BE040000 		.4byte	.LASF82
 1587 0253 3B       		.sleb128 59
 1588 0254 08       		.uleb128 0x8
ARM GAS  /tmp/ccGifACe.s 			page 29


 1589 0255 DF050000 		.4byte	.LASF83
 1590 0259 3C       		.sleb128 60
 1591 025a 08       		.uleb128 0x8
 1592 025b A2040000 		.4byte	.LASF84
 1593 025f 3D       		.sleb128 61
 1594 0260 08       		.uleb128 0x8
 1595 0261 0F020000 		.4byte	.LASF85
 1596 0265 3E       		.sleb128 62
 1597 0266 08       		.uleb128 0x8
 1598 0267 32050000 		.4byte	.LASF86
 1599 026b 3F       		.sleb128 63
 1600 026c 08       		.uleb128 0x8
 1601 026d 31000000 		.4byte	.LASF87
 1602 0271 C000     		.sleb128 64
 1603 0273 08       		.uleb128 0x8
 1604 0274 9B010000 		.4byte	.LASF88
 1605 0278 C100     		.sleb128 65
 1606 027a 08       		.uleb128 0x8
 1607 027b EA080000 		.4byte	.LASF89
 1608 027f C200     		.sleb128 66
 1609 0281 08       		.uleb128 0x8
 1610 0282 BF060000 		.4byte	.LASF90
 1611 0286 C300     		.sleb128 67
 1612 0288 08       		.uleb128 0x8
 1613 0289 AF000000 		.4byte	.LASF91
 1614 028d C400     		.sleb128 68
 1615 028f 08       		.uleb128 0x8
 1616 0290 44000000 		.4byte	.LASF92
 1617 0294 C500     		.sleb128 69
 1618 0296 08       		.uleb128 0x8
 1619 0297 8A020000 		.4byte	.LASF93
 1620 029b C600     		.sleb128 70
 1621 029d 08       		.uleb128 0x8
 1622 029e EF040000 		.4byte	.LASF94
 1623 02a2 C700     		.sleb128 71
 1624 02a4 08       		.uleb128 0x8
 1625 02a5 1A030000 		.4byte	.LASF95
 1626 02a9 C800     		.sleb128 72
 1627 02ab 08       		.uleb128 0x8
 1628 02ac 63000000 		.4byte	.LASF96
 1629 02b0 C900     		.sleb128 73
 1630 02b2 08       		.uleb128 0x8
 1631 02b3 55030000 		.4byte	.LASF97
 1632 02b7 CA00     		.sleb128 74
 1633 02b9 08       		.uleb128 0x8
 1634 02ba 52070000 		.4byte	.LASF98
 1635 02be CB00     		.sleb128 75
 1636 02c0 08       		.uleb128 0x8
 1637 02c1 01090000 		.4byte	.LASF99
 1638 02c5 CC00     		.sleb128 76
 1639 02c7 08       		.uleb128 0x8
 1640 02c8 67050000 		.4byte	.LASF100
 1641 02cc CD00     		.sleb128 77
 1642 02ce 08       		.uleb128 0x8
 1643 02cf 4E080000 		.4byte	.LASF101
 1644 02d3 CE00     		.sleb128 78
 1645 02d5 08       		.uleb128 0x8
ARM GAS  /tmp/ccGifACe.s 			page 30


 1646 02d6 A9010000 		.4byte	.LASF102
 1647 02da CF00     		.sleb128 79
 1648 02dc 08       		.uleb128 0x8
 1649 02dd 3C060000 		.4byte	.LASF103
 1650 02e1 D000     		.sleb128 80
 1651 02e3 08       		.uleb128 0x8
 1652 02e4 70080000 		.4byte	.LASF104
 1653 02e8 D100     		.sleb128 81
 1654 02ea 00       		.byte	0
 1655 02eb 09       		.uleb128 0x9
 1656 02ec 70000000 		.4byte	0x70
 1657 02f0 FB020000 		.4byte	0x2fb
 1658 02f4 0A       		.uleb128 0xa
 1659 02f5 A2000000 		.4byte	0xa2
 1660 02f9 01       		.byte	0x1
 1661 02fa 00       		.byte	0
 1662 02fb 06       		.uleb128 0x6
 1663 02fc 5E000000 		.4byte	0x5e
 1664 0300 0B       		.uleb128 0xb
 1665 0301 18       		.byte	0x18
 1666 0302 04       		.byte	0x4
 1667 0303 D301     		.2byte	0x1d3
 1668 0305 63030000 		.4byte	0x363
 1669 0309 0C       		.uleb128 0xc
 1670 030a 435200   		.ascii	"CR\000"
 1671 030d 04       		.byte	0x4
 1672 030e D501     		.2byte	0x1d5
 1673 0310 9D000000 		.4byte	0x9d
 1674 0314 02       		.byte	0x2
 1675 0315 23       		.byte	0x23
 1676 0316 00       		.uleb128 0
 1677 0317 0D       		.uleb128 0xd
 1678 0318 79070000 		.4byte	.LASF105
 1679 031c 04       		.byte	0x4
 1680 031d D601     		.2byte	0x1d6
 1681 031f 9D000000 		.4byte	0x9d
 1682 0323 02       		.byte	0x2
 1683 0324 23       		.byte	0x23
 1684 0325 04       		.uleb128 0x4
 1685 0326 0C       		.uleb128 0xc
 1686 0327 50415200 		.ascii	"PAR\000"
 1687 032b 04       		.byte	0x4
 1688 032c D701     		.2byte	0x1d7
 1689 032e 9D000000 		.4byte	0x9d
 1690 0332 02       		.byte	0x2
 1691 0333 23       		.byte	0x23
 1692 0334 08       		.uleb128 0x8
 1693 0335 0D       		.uleb128 0xd
 1694 0336 3F000000 		.4byte	.LASF106
 1695 033a 04       		.byte	0x4
 1696 033b D801     		.2byte	0x1d8
 1697 033d 9D000000 		.4byte	0x9d
 1698 0341 02       		.byte	0x2
 1699 0342 23       		.byte	0x23
 1700 0343 0C       		.uleb128 0xc
 1701 0344 0D       		.uleb128 0xd
 1702 0345 DE070000 		.4byte	.LASF107
ARM GAS  /tmp/ccGifACe.s 			page 31


 1703 0349 04       		.byte	0x4
 1704 034a D901     		.2byte	0x1d9
 1705 034c 9D000000 		.4byte	0x9d
 1706 0350 02       		.byte	0x2
 1707 0351 23       		.byte	0x23
 1708 0352 10       		.uleb128 0x10
 1709 0353 0C       		.uleb128 0xc
 1710 0354 46435200 		.ascii	"FCR\000"
 1711 0358 04       		.byte	0x4
 1712 0359 DA01     		.2byte	0x1da
 1713 035b 9D000000 		.4byte	0x9d
 1714 035f 02       		.byte	0x2
 1715 0360 23       		.byte	0x23
 1716 0361 14       		.uleb128 0x14
 1717 0362 00       		.byte	0
 1718 0363 0E       		.uleb128 0xe
 1719 0364 7E070000 		.4byte	.LASF108
 1720 0368 04       		.byte	0x4
 1721 0369 DB01     		.2byte	0x1db
 1722 036b 00030000 		.4byte	0x300
 1723 036f 0B       		.uleb128 0xb
 1724 0370 10       		.byte	0x10
 1725 0371 04       		.byte	0x4
 1726 0372 DD01     		.2byte	0x1dd
 1727 0374 B5030000 		.4byte	0x3b5
 1728 0378 0D       		.uleb128 0xd
 1729 0379 70000000 		.4byte	.LASF109
 1730 037d 04       		.byte	0x4
 1731 037e DF01     		.2byte	0x1df
 1732 0380 9D000000 		.4byte	0x9d
 1733 0384 02       		.byte	0x2
 1734 0385 23       		.byte	0x23
 1735 0386 00       		.uleb128 0
 1736 0387 0D       		.uleb128 0xd
 1737 0388 EF030000 		.4byte	.LASF110
 1738 038c 04       		.byte	0x4
 1739 038d E001     		.2byte	0x1e0
 1740 038f 9D000000 		.4byte	0x9d
 1741 0393 02       		.byte	0x2
 1742 0394 23       		.byte	0x23
 1743 0395 04       		.uleb128 0x4
 1744 0396 0D       		.uleb128 0xd
 1745 0397 93040000 		.4byte	.LASF111
 1746 039b 04       		.byte	0x4
 1747 039c E101     		.2byte	0x1e1
 1748 039e 9D000000 		.4byte	0x9d
 1749 03a2 02       		.byte	0x2
 1750 03a3 23       		.byte	0x23
 1751 03a4 08       		.uleb128 0x8
 1752 03a5 0D       		.uleb128 0xd
 1753 03a6 C4080000 		.4byte	.LASF112
 1754 03aa 04       		.byte	0x4
 1755 03ab E201     		.2byte	0x1e2
 1756 03ad 9D000000 		.4byte	0x9d
 1757 03b1 02       		.byte	0x2
 1758 03b2 23       		.byte	0x23
 1759 03b3 0C       		.uleb128 0xc
ARM GAS  /tmp/ccGifACe.s 			page 32


 1760 03b4 00       		.byte	0
 1761 03b5 0E       		.uleb128 0xe
 1762 03b6 A4020000 		.4byte	.LASF113
 1763 03ba 04       		.byte	0x4
 1764 03bb E301     		.2byte	0x1e3
 1765 03bd 6F030000 		.4byte	0x36f
 1766 03c1 0B       		.uleb128 0xb
 1767 03c2 88       		.byte	0x88
 1768 03c3 04       		.byte	0x4
 1769 03c4 DB02     		.2byte	0x2db
 1770 03c6 8E050000 		.4byte	0x58e
 1771 03ca 0C       		.uleb128 0xc
 1772 03cb 435200   		.ascii	"CR\000"
 1773 03ce 04       		.byte	0x4
 1774 03cf DD02     		.2byte	0x2dd
 1775 03d1 9D000000 		.4byte	0x9d
 1776 03d5 02       		.byte	0x2
 1777 03d6 23       		.byte	0x23
 1778 03d7 00       		.uleb128 0
 1779 03d8 0D       		.uleb128 0xd
 1780 03d9 34020000 		.4byte	.LASF114
 1781 03dd 04       		.byte	0x4
 1782 03de DE02     		.2byte	0x2de
 1783 03e0 9D000000 		.4byte	0x9d
 1784 03e4 02       		.byte	0x2
 1785 03e5 23       		.byte	0x23
 1786 03e6 04       		.uleb128 0x4
 1787 03e7 0D       		.uleb128 0xd
 1788 03e8 79080000 		.4byte	.LASF115
 1789 03ec 04       		.byte	0x4
 1790 03ed DF02     		.2byte	0x2df
 1791 03ef 9D000000 		.4byte	0x9d
 1792 03f3 02       		.byte	0x2
 1793 03f4 23       		.byte	0x23
 1794 03f5 08       		.uleb128 0x8
 1795 03f6 0C       		.uleb128 0xc
 1796 03f7 43495200 		.ascii	"CIR\000"
 1797 03fb 04       		.byte	0x4
 1798 03fc E002     		.2byte	0x2e0
 1799 03fe 9D000000 		.4byte	0x9d
 1800 0402 02       		.byte	0x2
 1801 0403 23       		.byte	0x23
 1802 0404 0C       		.uleb128 0xc
 1803 0405 0D       		.uleb128 0xd
 1804 0406 B3010000 		.4byte	.LASF116
 1805 040a 04       		.byte	0x4
 1806 040b E102     		.2byte	0x2e1
 1807 040d 9D000000 		.4byte	0x9d
 1808 0411 02       		.byte	0x2
 1809 0412 23       		.byte	0x23
 1810 0413 10       		.uleb128 0x10
 1811 0414 0D       		.uleb128 0xd
 1812 0415 77020000 		.4byte	.LASF117
 1813 0419 04       		.byte	0x4
 1814 041a E202     		.2byte	0x2e2
 1815 041c 9D000000 		.4byte	0x9d
 1816 0420 02       		.byte	0x2
ARM GAS  /tmp/ccGifACe.s 			page 33


 1817 0421 23       		.byte	0x23
 1818 0422 14       		.uleb128 0x14
 1819 0423 0D       		.uleb128 0xd
 1820 0424 B2030000 		.4byte	.LASF118
 1821 0428 04       		.byte	0x4
 1822 0429 E302     		.2byte	0x2e3
 1823 042b 9D000000 		.4byte	0x9d
 1824 042f 02       		.byte	0x2
 1825 0430 23       		.byte	0x23
 1826 0431 18       		.uleb128 0x18
 1827 0432 0D       		.uleb128 0xd
 1828 0433 73050000 		.4byte	.LASF119
 1829 0437 04       		.byte	0x4
 1830 0438 E402     		.2byte	0x2e4
 1831 043a 70000000 		.4byte	0x70
 1832 043e 02       		.byte	0x2
 1833 043f 23       		.byte	0x23
 1834 0440 1C       		.uleb128 0x1c
 1835 0441 0D       		.uleb128 0xd
 1836 0442 5E050000 		.4byte	.LASF120
 1837 0446 04       		.byte	0x4
 1838 0447 E502     		.2byte	0x2e5
 1839 0449 9D000000 		.4byte	0x9d
 1840 044d 02       		.byte	0x2
 1841 044e 23       		.byte	0x23
 1842 044f 20       		.uleb128 0x20
 1843 0450 0D       		.uleb128 0xd
 1844 0451 EF010000 		.4byte	.LASF121
 1845 0455 04       		.byte	0x4
 1846 0456 E602     		.2byte	0x2e6
 1847 0458 9D000000 		.4byte	0x9d
 1848 045c 02       		.byte	0x2
 1849 045d 23       		.byte	0x23
 1850 045e 24       		.uleb128 0x24
 1851 045f 0D       		.uleb128 0xd
 1852 0460 7D050000 		.4byte	.LASF122
 1853 0464 04       		.byte	0x4
 1854 0465 E702     		.2byte	0x2e7
 1855 0467 EB020000 		.4byte	0x2eb
 1856 046b 02       		.byte	0x2
 1857 046c 23       		.byte	0x23
 1858 046d 28       		.uleb128 0x28
 1859 046e 0D       		.uleb128 0xd
 1860 046f 9C020000 		.4byte	.LASF123
 1861 0473 04       		.byte	0x4
 1862 0474 E802     		.2byte	0x2e8
 1863 0476 9D000000 		.4byte	0x9d
 1864 047a 02       		.byte	0x2
 1865 047b 23       		.byte	0x23
 1866 047c 30       		.uleb128 0x30
 1867 047d 0D       		.uleb128 0xd
 1868 047e 91070000 		.4byte	.LASF124
 1869 0482 04       		.byte	0x4
 1870 0483 E902     		.2byte	0x2e9
 1871 0485 9D000000 		.4byte	0x9d
 1872 0489 02       		.byte	0x2
 1873 048a 23       		.byte	0x23
ARM GAS  /tmp/ccGifACe.s 			page 34


 1874 048b 34       		.uleb128 0x34
 1875 048c 0D       		.uleb128 0xd
 1876 048d 9E060000 		.4byte	.LASF125
 1877 0491 04       		.byte	0x4
 1878 0492 EA02     		.2byte	0x2ea
 1879 0494 9D000000 		.4byte	0x9d
 1880 0498 02       		.byte	0x2
 1881 0499 23       		.byte	0x23
 1882 049a 38       		.uleb128 0x38
 1883 049b 0D       		.uleb128 0xd
 1884 049c 87050000 		.4byte	.LASF126
 1885 04a0 04       		.byte	0x4
 1886 04a1 EB02     		.2byte	0x2eb
 1887 04a3 70000000 		.4byte	0x70
 1888 04a7 02       		.byte	0x2
 1889 04a8 23       		.byte	0x23
 1890 04a9 3C       		.uleb128 0x3c
 1891 04aa 0D       		.uleb128 0xd
 1892 04ab F9060000 		.4byte	.LASF127
 1893 04af 04       		.byte	0x4
 1894 04b0 EC02     		.2byte	0x2ec
 1895 04b2 9D000000 		.4byte	0x9d
 1896 04b6 02       		.byte	0x2
 1897 04b7 23       		.byte	0x23
 1898 04b8 40       		.uleb128 0x40
 1899 04b9 0D       		.uleb128 0xd
 1900 04ba 96060000 		.4byte	.LASF128
 1901 04be 04       		.byte	0x4
 1902 04bf ED02     		.2byte	0x2ed
 1903 04c1 9D000000 		.4byte	0x9d
 1904 04c5 02       		.byte	0x2
 1905 04c6 23       		.byte	0x23
 1906 04c7 44       		.uleb128 0x44
 1907 04c8 0D       		.uleb128 0xd
 1908 04c9 91050000 		.4byte	.LASF129
 1909 04cd 04       		.byte	0x4
 1910 04ce EE02     		.2byte	0x2ee
 1911 04d0 EB020000 		.4byte	0x2eb
 1912 04d4 02       		.byte	0x2
 1913 04d5 23       		.byte	0x23
 1914 04d6 48       		.uleb128 0x48
 1915 04d7 0D       		.uleb128 0xd
 1916 04d8 59010000 		.4byte	.LASF130
 1917 04dc 04       		.byte	0x4
 1918 04dd EF02     		.2byte	0x2ef
 1919 04df 9D000000 		.4byte	0x9d
 1920 04e3 02       		.byte	0x2
 1921 04e4 23       		.byte	0x23
 1922 04e5 50       		.uleb128 0x50
 1923 04e6 0D       		.uleb128 0xd
 1924 04e7 3F050000 		.4byte	.LASF131
 1925 04eb 04       		.byte	0x4
 1926 04ec F002     		.2byte	0x2f0
 1927 04ee 9D000000 		.4byte	0x9d
 1928 04f2 02       		.byte	0x2
 1929 04f3 23       		.byte	0x23
 1930 04f4 54       		.uleb128 0x54
ARM GAS  /tmp/ccGifACe.s 			page 35


 1931 04f5 0D       		.uleb128 0xd
 1932 04f6 54060000 		.4byte	.LASF132
 1933 04fa 04       		.byte	0x4
 1934 04fb F102     		.2byte	0x2f1
 1935 04fd 9D000000 		.4byte	0x9d
 1936 0501 02       		.byte	0x2
 1937 0502 23       		.byte	0x23
 1938 0503 58       		.uleb128 0x58
 1939 0504 0D       		.uleb128 0xd
 1940 0505 9B050000 		.4byte	.LASF133
 1941 0509 04       		.byte	0x4
 1942 050a F202     		.2byte	0x2f2
 1943 050c 70000000 		.4byte	0x70
 1944 0510 02       		.byte	0x2
 1945 0511 23       		.byte	0x23
 1946 0512 5C       		.uleb128 0x5c
 1947 0513 0D       		.uleb128 0xd
 1948 0514 10000000 		.4byte	.LASF134
 1949 0518 04       		.byte	0x4
 1950 0519 F302     		.2byte	0x2f3
 1951 051b 9D000000 		.4byte	0x9d
 1952 051f 02       		.byte	0x2
 1953 0520 23       		.byte	0x23
 1954 0521 60       		.uleb128 0x60
 1955 0522 0D       		.uleb128 0xd
 1956 0523 F4030000 		.4byte	.LASF135
 1957 0527 04       		.byte	0x4
 1958 0528 F402     		.2byte	0x2f4
 1959 052a 9D000000 		.4byte	0x9d
 1960 052e 02       		.byte	0x2
 1961 052f 23       		.byte	0x23
 1962 0530 64       		.uleb128 0x64
 1963 0531 0D       		.uleb128 0xd
 1964 0532 A5050000 		.4byte	.LASF136
 1965 0536 04       		.byte	0x4
 1966 0537 F502     		.2byte	0x2f5
 1967 0539 EB020000 		.4byte	0x2eb
 1968 053d 02       		.byte	0x2
 1969 053e 23       		.byte	0x23
 1970 053f 68       		.uleb128 0x68
 1971 0540 0D       		.uleb128 0xd
 1972 0541 28080000 		.4byte	.LASF137
 1973 0545 04       		.byte	0x4
 1974 0546 F602     		.2byte	0x2f6
 1975 0548 9D000000 		.4byte	0x9d
 1976 054c 02       		.byte	0x2
 1977 054d 23       		.byte	0x23
 1978 054e 70       		.uleb128 0x70
 1979 054f 0C       		.uleb128 0xc
 1980 0550 43535200 		.ascii	"CSR\000"
 1981 0554 04       		.byte	0x4
 1982 0555 F702     		.2byte	0x2f7
 1983 0557 9D000000 		.4byte	0x9d
 1984 055b 02       		.byte	0x2
 1985 055c 23       		.byte	0x23
 1986 055d 74       		.uleb128 0x74
 1987 055e 0D       		.uleb128 0xd
ARM GAS  /tmp/ccGifACe.s 			page 36


 1988 055f AF050000 		.4byte	.LASF138
 1989 0563 04       		.byte	0x4
 1990 0564 F802     		.2byte	0x2f8
 1991 0566 EB020000 		.4byte	0x2eb
 1992 056a 02       		.byte	0x2
 1993 056b 23       		.byte	0x23
 1994 056c 78       		.uleb128 0x78
 1995 056d 0D       		.uleb128 0xd
 1996 056e F8070000 		.4byte	.LASF139
 1997 0572 04       		.byte	0x4
 1998 0573 F902     		.2byte	0x2f9
 1999 0575 9D000000 		.4byte	0x9d
 2000 0579 03       		.byte	0x3
 2001 057a 23       		.byte	0x23
 2002 057b 8001     		.uleb128 0x80
 2003 057d 0D       		.uleb128 0xd
 2004 057e 9A030000 		.4byte	.LASF140
 2005 0582 04       		.byte	0x4
 2006 0583 FA02     		.2byte	0x2fa
 2007 0585 9D000000 		.4byte	0x9d
 2008 0589 03       		.byte	0x3
 2009 058a 23       		.byte	0x23
 2010 058b 8401     		.uleb128 0x84
 2011 058d 00       		.byte	0
 2012 058e 0E       		.uleb128 0xe
 2013 058f 39030000 		.4byte	.LASF141
 2014 0593 04       		.byte	0x4
 2015 0594 FB02     		.2byte	0x2fb
 2016 0596 C1030000 		.4byte	0x3c1
 2017 059a 0F       		.uleb128 0xf
 2018 059b 0C       		.byte	0xc
 2019 059c 05       		.byte	0x5
 2020 059d DE       		.byte	0xde
 2021 059e E9050000 		.4byte	0x5e9
 2022 05a2 10       		.uleb128 0x10
 2023 05a3 CB000000 		.4byte	.LASF142
 2024 05a7 05       		.byte	0x5
 2025 05a8 DF       		.byte	0xdf
 2026 05a9 E9050000 		.4byte	0x5e9
 2027 05ad 02       		.byte	0x2
 2028 05ae 23       		.byte	0x23
 2029 05af 00       		.uleb128 0
 2030 05b0 10       		.uleb128 0x10
 2031 05b1 B1060000 		.4byte	.LASF143
 2032 05b5 05       		.byte	0x5
 2033 05b6 E0       		.byte	0xe0
 2034 05b7 EF050000 		.4byte	0x5ef
 2035 05bb 02       		.byte	0x2
 2036 05bc 23       		.byte	0x23
 2037 05bd 04       		.uleb128 0x4
 2038 05be 10       		.uleb128 0x10
 2039 05bf 45030000 		.4byte	.LASF144
 2040 05c3 05       		.byte	0x5
 2041 05c4 E1       		.byte	0xe1
 2042 05c5 3E000000 		.4byte	0x3e
 2043 05c9 02       		.byte	0x2
 2044 05ca 23       		.byte	0x23
ARM GAS  /tmp/ccGifACe.s 			page 37


 2045 05cb 08       		.uleb128 0x8
 2046 05cc 10       		.uleb128 0x10
 2047 05cd 80020000 		.4byte	.LASF145
 2048 05d1 05       		.byte	0x5
 2049 05d2 E3       		.byte	0xe3
 2050 05d3 3E000000 		.4byte	0x3e
 2051 05d7 02       		.byte	0x2
 2052 05d8 23       		.byte	0x23
 2053 05d9 09       		.uleb128 0x9
 2054 05da 10       		.uleb128 0x10
 2055 05db 06010000 		.4byte	.LASF146
 2056 05df 05       		.byte	0x5
 2057 05e0 E4       		.byte	0xe4
 2058 05e1 3E000000 		.4byte	0x3e
 2059 05e5 02       		.byte	0x2
 2060 05e6 23       		.byte	0x23
 2061 05e7 0A       		.uleb128 0xa
 2062 05e8 00       		.byte	0
 2063 05e9 11       		.uleb128 0x11
 2064 05ea 04       		.byte	0x4
 2065 05eb 63030000 		.4byte	0x363
 2066 05ef 11       		.uleb128 0x11
 2067 05f0 04       		.byte	0x4
 2068 05f1 9D000000 		.4byte	0x9d
 2069 05f5 04       		.uleb128 0x4
 2070 05f6 B9050000 		.4byte	.LASF147
 2071 05fa 05       		.byte	0x5
 2072 05fb E5       		.byte	0xe5
 2073 05fc 9A050000 		.4byte	0x59a
 2074 0600 04       		.uleb128 0x4
 2075 0601 0B030000 		.4byte	.LASF148
 2076 0605 05       		.byte	0x5
 2077 0606 EE       		.byte	0xee
 2078 0607 0B060000 		.4byte	0x60b
 2079 060b 11       		.uleb128 0x11
 2080 060c 04       		.byte	0x4
 2081 060d 11060000 		.4byte	0x611
 2082 0611 12       		.uleb128 0x12
 2083 0612 01       		.byte	0x1
 2084 0613 22060000 		.4byte	0x622
 2085 0617 13       		.uleb128 0x13
 2086 0618 9B000000 		.4byte	0x9b
 2087 061c 13       		.uleb128 0x13
 2088 061d 70000000 		.4byte	0x70
 2089 0621 00       		.byte	0
 2090 0622 11       		.uleb128 0x11
 2091 0623 04       		.byte	0x4
 2092 0624 28060000 		.4byte	0x628
 2093 0628 14       		.uleb128 0x14
 2094 0629 F5050000 		.4byte	0x5f5
 2095 062d 0F       		.uleb128 0xf
 2096 062e 08       		.byte	0x8
 2097 062f 01       		.byte	0x1
 2098 0630 68       		.byte	0x68
 2099 0631 52060000 		.4byte	0x652
 2100 0635 10       		.uleb128 0x10
 2101 0636 49050000 		.4byte	.LASF149
ARM GAS  /tmp/ccGifACe.s 			page 38


 2102 063a 01       		.byte	0x1
 2103 063b 69       		.byte	0x69
 2104 063c 00060000 		.4byte	0x600
 2105 0640 02       		.byte	0x2
 2106 0641 23       		.byte	0x23
 2107 0642 00       		.uleb128 0
 2108 0643 10       		.uleb128 0x10
 2109 0644 81060000 		.4byte	.LASF150
 2110 0648 01       		.byte	0x1
 2111 0649 6A       		.byte	0x6a
 2112 064a 9B000000 		.4byte	0x9b
 2113 064e 02       		.byte	0x2
 2114 064f 23       		.byte	0x23
 2115 0650 04       		.uleb128 0x4
 2116 0651 00       		.byte	0
 2117 0652 04       		.uleb128 0x4
 2118 0653 00000000 		.4byte	.LASF151
 2119 0657 01       		.byte	0x1
 2120 0658 6B       		.byte	0x6b
 2121 0659 2D060000 		.4byte	0x62d
 2122 065d 15       		.uleb128 0x15
 2123 065e 01       		.byte	0x1
 2124 065f D6050000 		.4byte	.LASF152
 2125 0663 01       		.byte	0x1
 2126 0664 84       		.byte	0x84
 2127 0665 01       		.byte	0x1
 2128 0666 00000000 		.4byte	.LFB118
 2129 066a 2C000000 		.4byte	.LFE118
 2130 066e 00000000 		.4byte	.LLST0
 2131 0672 01       		.byte	0x1
 2132 0673 91060000 		.4byte	0x691
 2133 0677 16       		.uleb128 0x16
 2134 0678 48080000 		.4byte	.LASF154
 2135 067c 01       		.byte	0x1
 2136 067d 85       		.byte	0x85
 2137 067e 70000000 		.4byte	0x70
 2138 0682 20000000 		.4byte	.LLST1
 2139 0686 17       		.uleb128 0x17
 2140 0687 26000000 		.4byte	.LVL2
 2141 068b 01       		.byte	0x1
 2142 068c E80A0000 		.4byte	0xae8
 2143 0690 00       		.byte	0
 2144 0691 15       		.uleb128 0x15
 2145 0692 01       		.byte	0x1
 2146 0693 B6060000 		.4byte	.LASF153
 2147 0697 01       		.byte	0x1
 2148 0698 96       		.byte	0x96
 2149 0699 01       		.byte	0x1
 2150 069a 00000000 		.4byte	.LFB119
 2151 069e 30000000 		.4byte	.LFE119
 2152 06a2 33000000 		.4byte	.LLST2
 2153 06a6 01       		.byte	0x1
 2154 06a7 C5060000 		.4byte	0x6c5
 2155 06ab 16       		.uleb128 0x16
 2156 06ac 48080000 		.4byte	.LASF154
 2157 06b0 01       		.byte	0x1
 2158 06b1 97       		.byte	0x97
ARM GAS  /tmp/ccGifACe.s 			page 39


 2159 06b2 70000000 		.4byte	0x70
 2160 06b6 53000000 		.4byte	.LLST3
 2161 06ba 17       		.uleb128 0x17
 2162 06bb 2A000000 		.4byte	.LVL5
 2163 06bf 01       		.byte	0x1
 2164 06c0 E80A0000 		.4byte	0xae8
 2165 06c4 00       		.byte	0
 2166 06c5 15       		.uleb128 0x15
 2167 06c6 01       		.byte	0x1
 2168 06c7 CB060000 		.4byte	.LASF155
 2169 06cb 01       		.byte	0x1
 2170 06cc A8       		.byte	0xa8
 2171 06cd 01       		.byte	0x1
 2172 06ce 00000000 		.4byte	.LFB120
 2173 06d2 30000000 		.4byte	.LFE120
 2174 06d6 66000000 		.4byte	.LLST4
 2175 06da 01       		.byte	0x1
 2176 06db F9060000 		.4byte	0x6f9
 2177 06df 16       		.uleb128 0x16
 2178 06e0 48080000 		.4byte	.LASF154
 2179 06e4 01       		.byte	0x1
 2180 06e5 A9       		.byte	0xa9
 2181 06e6 70000000 		.4byte	0x70
 2182 06ea 86000000 		.4byte	.LLST5
 2183 06ee 17       		.uleb128 0x17
 2184 06ef 2A000000 		.4byte	.LVL8
 2185 06f3 01       		.byte	0x1
 2186 06f4 E80A0000 		.4byte	0xae8
 2187 06f8 00       		.byte	0
 2188 06f9 15       		.uleb128 0x15
 2189 06fa 01       		.byte	0x1
 2190 06fb F0060000 		.4byte	.LASF156
 2191 06ff 01       		.byte	0x1
 2192 0700 BA       		.byte	0xba
 2193 0701 01       		.byte	0x1
 2194 0702 00000000 		.4byte	.LFB121
 2195 0706 30000000 		.4byte	.LFE121
 2196 070a 99000000 		.4byte	.LLST6
 2197 070e 01       		.byte	0x1
 2198 070f 2D070000 		.4byte	0x72d
 2199 0713 16       		.uleb128 0x16
 2200 0714 48080000 		.4byte	.LASF154
 2201 0718 01       		.byte	0x1
 2202 0719 BB       		.byte	0xbb
 2203 071a 70000000 		.4byte	0x70
 2204 071e B9000000 		.4byte	.LLST7
 2205 0722 17       		.uleb128 0x17
 2206 0723 2A000000 		.4byte	.LVL11
 2207 0727 01       		.byte	0x1
 2208 0728 E80A0000 		.4byte	0xae8
 2209 072c 00       		.byte	0
 2210 072d 15       		.uleb128 0x15
 2211 072e 01       		.byte	0x1
 2212 072f 31070000 		.4byte	.LASF157
 2213 0733 01       		.byte	0x1
 2214 0734 CC       		.byte	0xcc
 2215 0735 01       		.byte	0x1
ARM GAS  /tmp/ccGifACe.s 			page 40


 2216 0736 00000000 		.4byte	.LFB122
 2217 073a 2C000000 		.4byte	.LFE122
 2218 073e CC000000 		.4byte	.LLST8
 2219 0742 01       		.byte	0x1
 2220 0743 61070000 		.4byte	0x761
 2221 0747 16       		.uleb128 0x16
 2222 0748 48080000 		.4byte	.LASF154
 2223 074c 01       		.byte	0x1
 2224 074d CD       		.byte	0xcd
 2225 074e 70000000 		.4byte	0x70
 2226 0752 EC000000 		.4byte	.LLST9
 2227 0756 17       		.uleb128 0x17
 2228 0757 26000000 		.4byte	.LVL14
 2229 075b 01       		.byte	0x1
 2230 075c E80A0000 		.4byte	0xae8
 2231 0760 00       		.byte	0
 2232 0761 15       		.uleb128 0x15
 2233 0762 01       		.byte	0x1
 2234 0763 E3070000 		.4byte	.LASF158
 2235 0767 01       		.byte	0x1
 2236 0768 DE       		.byte	0xde
 2237 0769 01       		.byte	0x1
 2238 076a 00000000 		.4byte	.LFB123
 2239 076e 30000000 		.4byte	.LFE123
 2240 0772 FF000000 		.4byte	.LLST10
 2241 0776 01       		.byte	0x1
 2242 0777 95070000 		.4byte	0x795
 2243 077b 16       		.uleb128 0x16
 2244 077c 48080000 		.4byte	.LASF154
 2245 0780 01       		.byte	0x1
 2246 0781 DF       		.byte	0xdf
 2247 0782 70000000 		.4byte	0x70
 2248 0786 1F010000 		.4byte	.LLST11
 2249 078a 17       		.uleb128 0x17
 2250 078b 2A000000 		.4byte	.LVL17
 2251 078f 01       		.byte	0x1
 2252 0790 E80A0000 		.4byte	0xae8
 2253 0794 00       		.byte	0
 2254 0795 15       		.uleb128 0x15
 2255 0796 01       		.byte	0x1
 2256 0797 FE070000 		.4byte	.LASF159
 2257 079b 01       		.byte	0x1
 2258 079c F0       		.byte	0xf0
 2259 079d 01       		.byte	0x1
 2260 079e 00000000 		.4byte	.LFB124
 2261 07a2 30000000 		.4byte	.LFE124
 2262 07a6 32010000 		.4byte	.LLST12
 2263 07aa 01       		.byte	0x1
 2264 07ab C9070000 		.4byte	0x7c9
 2265 07af 16       		.uleb128 0x16
 2266 07b0 48080000 		.4byte	.LASF154
 2267 07b4 01       		.byte	0x1
 2268 07b5 F1       		.byte	0xf1
 2269 07b6 70000000 		.4byte	0x70
 2270 07ba 52010000 		.4byte	.LLST13
 2271 07be 17       		.uleb128 0x17
 2272 07bf 2A000000 		.4byte	.LVL20
ARM GAS  /tmp/ccGifACe.s 			page 41


 2273 07c3 01       		.byte	0x1
 2274 07c4 E80A0000 		.4byte	0xae8
 2275 07c8 00       		.byte	0
 2276 07c9 18       		.uleb128 0x18
 2277 07ca 01       		.byte	0x1
 2278 07cb 4C030000 		.4byte	.LASF160
 2279 07cf 01       		.byte	0x1
 2280 07d0 0201     		.2byte	0x102
 2281 07d2 01       		.byte	0x1
 2282 07d3 00000000 		.4byte	.LFB125
 2283 07d7 30000000 		.4byte	.LFE125
 2284 07db 65010000 		.4byte	.LLST14
 2285 07df 01       		.byte	0x1
 2286 07e0 FF070000 		.4byte	0x7ff
 2287 07e4 19       		.uleb128 0x19
 2288 07e5 48080000 		.4byte	.LASF154
 2289 07e9 01       		.byte	0x1
 2290 07ea 0301     		.2byte	0x103
 2291 07ec 70000000 		.4byte	0x70
 2292 07f0 85010000 		.4byte	.LLST15
 2293 07f4 17       		.uleb128 0x17
 2294 07f5 2A000000 		.4byte	.LVL23
 2295 07f9 01       		.byte	0x1
 2296 07fa E80A0000 		.4byte	0xae8
 2297 07fe 00       		.byte	0
 2298 07ff 18       		.uleb128 0x18
 2299 0800 01       		.byte	0x1
 2300 0801 66080000 		.4byte	.LASF161
 2301 0805 01       		.byte	0x1
 2302 0806 1401     		.2byte	0x114
 2303 0808 01       		.byte	0x1
 2304 0809 00000000 		.4byte	.LFB126
 2305 080d 2C000000 		.4byte	.LFE126
 2306 0811 98010000 		.4byte	.LLST16
 2307 0815 01       		.byte	0x1
 2308 0816 35080000 		.4byte	0x835
 2309 081a 19       		.uleb128 0x19
 2310 081b 48080000 		.4byte	.LASF154
 2311 081f 01       		.byte	0x1
 2312 0820 1501     		.2byte	0x115
 2313 0822 70000000 		.4byte	0x70
 2314 0826 B8010000 		.4byte	.LLST17
 2315 082a 17       		.uleb128 0x17
 2316 082b 26000000 		.4byte	.LVL26
 2317 082f 01       		.byte	0x1
 2318 0830 E80A0000 		.4byte	0xae8
 2319 0834 00       		.byte	0
 2320 0835 18       		.uleb128 0x18
 2321 0836 01       		.byte	0x1
 2322 0837 7E080000 		.4byte	.LASF162
 2323 083b 01       		.byte	0x1
 2324 083c 2601     		.2byte	0x126
 2325 083e 01       		.byte	0x1
 2326 083f 00000000 		.4byte	.LFB127
 2327 0843 30000000 		.4byte	.LFE127
 2328 0847 CB010000 		.4byte	.LLST18
 2329 084b 01       		.byte	0x1
ARM GAS  /tmp/ccGifACe.s 			page 42


 2330 084c 6B080000 		.4byte	0x86b
 2331 0850 19       		.uleb128 0x19
 2332 0851 48080000 		.4byte	.LASF154
 2333 0855 01       		.byte	0x1
 2334 0856 2701     		.2byte	0x127
 2335 0858 70000000 		.4byte	0x70
 2336 085c EB010000 		.4byte	.LLST19
 2337 0860 17       		.uleb128 0x17
 2338 0861 2A000000 		.4byte	.LVL29
 2339 0865 01       		.byte	0x1
 2340 0866 E80A0000 		.4byte	0xae8
 2341 086a 00       		.byte	0
 2342 086b 18       		.uleb128 0x18
 2343 086c 01       		.byte	0x1
 2344 086d 88080000 		.4byte	.LASF163
 2345 0871 01       		.byte	0x1
 2346 0872 3801     		.2byte	0x138
 2347 0874 01       		.byte	0x1
 2348 0875 00000000 		.4byte	.LFB128
 2349 0879 30000000 		.4byte	.LFE128
 2350 087d FE010000 		.4byte	.LLST20
 2351 0881 01       		.byte	0x1
 2352 0882 A1080000 		.4byte	0x8a1
 2353 0886 19       		.uleb128 0x19
 2354 0887 48080000 		.4byte	.LASF154
 2355 088b 01       		.byte	0x1
 2356 088c 3901     		.2byte	0x139
 2357 088e 70000000 		.4byte	0x70
 2358 0892 1E020000 		.4byte	.LLST21
 2359 0896 17       		.uleb128 0x17
 2360 0897 2A000000 		.4byte	.LVL32
 2361 089b 01       		.byte	0x1
 2362 089c E80A0000 		.4byte	0xae8
 2363 08a0 00       		.byte	0
 2364 08a1 18       		.uleb128 0x18
 2365 08a2 01       		.byte	0x1
 2366 08a3 BA080000 		.4byte	.LASF164
 2367 08a7 01       		.byte	0x1
 2368 08a8 4A01     		.2byte	0x14a
 2369 08aa 01       		.byte	0x1
 2370 08ab 00000000 		.4byte	.LFB129
 2371 08af 30000000 		.4byte	.LFE129
 2372 08b3 31020000 		.4byte	.LLST22
 2373 08b7 01       		.byte	0x1
 2374 08b8 D7080000 		.4byte	0x8d7
 2375 08bc 19       		.uleb128 0x19
 2376 08bd 48080000 		.4byte	.LASF154
 2377 08c1 01       		.byte	0x1
 2378 08c2 4B01     		.2byte	0x14b
 2379 08c4 70000000 		.4byte	0x70
 2380 08c8 51020000 		.4byte	.LLST23
 2381 08cc 17       		.uleb128 0x17
 2382 08cd 2A000000 		.4byte	.LVL35
 2383 08d1 01       		.byte	0x1
 2384 08d2 E80A0000 		.4byte	0xae8
 2385 08d6 00       		.byte	0
 2386 08d7 18       		.uleb128 0x18
ARM GAS  /tmp/ccGifACe.s 			page 43


 2387 08d8 01       		.byte	0x1
 2388 08d9 C1000000 		.4byte	.LASF165
 2389 08dd 01       		.byte	0x1
 2390 08de 5C01     		.2byte	0x15c
 2391 08e0 01       		.byte	0x1
 2392 08e1 00000000 		.4byte	.LFB130
 2393 08e5 2C000000 		.4byte	.LFE130
 2394 08e9 64020000 		.4byte	.LLST24
 2395 08ed 01       		.byte	0x1
 2396 08ee 0D090000 		.4byte	0x90d
 2397 08f2 19       		.uleb128 0x19
 2398 08f3 48080000 		.4byte	.LASF154
 2399 08f7 01       		.byte	0x1
 2400 08f8 5D01     		.2byte	0x15d
 2401 08fa 70000000 		.4byte	0x70
 2402 08fe 84020000 		.4byte	.LLST25
 2403 0902 17       		.uleb128 0x17
 2404 0903 26000000 		.4byte	.LVL38
 2405 0907 01       		.byte	0x1
 2406 0908 E80A0000 		.4byte	0xae8
 2407 090c 00       		.byte	0
 2408 090d 18       		.uleb128 0x18
 2409 090e 01       		.byte	0x1
 2410 090f BD020000 		.4byte	.LASF166
 2411 0913 01       		.byte	0x1
 2412 0914 6E01     		.2byte	0x16e
 2413 0916 01       		.byte	0x1
 2414 0917 00000000 		.4byte	.LFB131
 2415 091b 30000000 		.4byte	.LFE131
 2416 091f 97020000 		.4byte	.LLST26
 2417 0923 01       		.byte	0x1
 2418 0924 43090000 		.4byte	0x943
 2419 0928 19       		.uleb128 0x19
 2420 0929 48080000 		.4byte	.LASF154
 2421 092d 01       		.byte	0x1
 2422 092e 6F01     		.2byte	0x16f
 2423 0930 70000000 		.4byte	0x70
 2424 0934 B7020000 		.4byte	.LLST27
 2425 0938 17       		.uleb128 0x17
 2426 0939 2A000000 		.4byte	.LVL41
 2427 093d 01       		.byte	0x1
 2428 093e E80A0000 		.4byte	0xae8
 2429 0942 00       		.byte	0
 2430 0943 18       		.uleb128 0x18
 2431 0944 01       		.byte	0x1
 2432 0945 EB020000 		.4byte	.LASF167
 2433 0949 01       		.byte	0x1
 2434 094a 8001     		.2byte	0x180
 2435 094c 01       		.byte	0x1
 2436 094d 00000000 		.4byte	.LFB132
 2437 0951 30000000 		.4byte	.LFE132
 2438 0955 CA020000 		.4byte	.LLST28
 2439 0959 01       		.byte	0x1
 2440 095a 79090000 		.4byte	0x979
 2441 095e 19       		.uleb128 0x19
 2442 095f 48080000 		.4byte	.LASF154
 2443 0963 01       		.byte	0x1
ARM GAS  /tmp/ccGifACe.s 			page 44


 2444 0964 8101     		.2byte	0x181
 2445 0966 70000000 		.4byte	0x70
 2446 096a EA020000 		.4byte	.LLST29
 2447 096e 17       		.uleb128 0x17
 2448 096f 2A000000 		.4byte	.LVL44
 2449 0973 01       		.byte	0x1
 2450 0974 E80A0000 		.4byte	0xae8
 2451 0978 00       		.byte	0
 2452 0979 18       		.uleb128 0x18
 2453 097a 01       		.byte	0x1
 2454 097b BC010000 		.4byte	.LASF168
 2455 097f 01       		.byte	0x1
 2456 0980 9201     		.2byte	0x192
 2457 0982 01       		.byte	0x1
 2458 0983 00000000 		.4byte	.LFB133
 2459 0987 30000000 		.4byte	.LFE133
 2460 098b FD020000 		.4byte	.LLST30
 2461 098f 01       		.byte	0x1
 2462 0990 AF090000 		.4byte	0x9af
 2463 0994 19       		.uleb128 0x19
 2464 0995 48080000 		.4byte	.LASF154
 2465 0999 01       		.byte	0x1
 2466 099a 9301     		.2byte	0x193
 2467 099c 70000000 		.4byte	0x70
 2468 09a0 1D030000 		.4byte	.LLST31
 2469 09a4 17       		.uleb128 0x17
 2470 09a5 2A000000 		.4byte	.LVL47
 2471 09a9 01       		.byte	0x1
 2472 09aa E80A0000 		.4byte	0xae8
 2473 09ae 00       		.byte	0
 2474 09af 1A       		.uleb128 0x1a
 2475 09b0 01       		.byte	0x1
 2476 09b1 01070000 		.4byte	.LASF169
 2477 09b5 01       		.byte	0x1
 2478 09b6 A801     		.2byte	0x1a8
 2479 09b8 01       		.byte	0x1
 2480 09b9 00000000 		.4byte	.LFB134
 2481 09bd 4C000000 		.4byte	.LFE134
 2482 09c1 30030000 		.4byte	.LLST32
 2483 09c5 01       		.byte	0x1
 2484 09c6 D9090000 		.4byte	0x9d9
 2485 09ca 1B       		.uleb128 0x1b
 2486 09cb 6900     		.ascii	"i\000"
 2487 09cd 01       		.byte	0x1
 2488 09ce A901     		.2byte	0x1a9
 2489 09d0 29000000 		.4byte	0x29
 2490 09d4 50030000 		.4byte	.LLST33
 2491 09d8 00       		.byte	0
 2492 09d9 1C       		.uleb128 0x1c
 2493 09da 01       		.byte	0x1
 2494 09db D8080000 		.4byte	.LASF183
 2495 09df 01       		.byte	0x1
 2496 09e0 CE01     		.2byte	0x1ce
 2497 09e2 01       		.byte	0x1
 2498 09e3 90000000 		.4byte	0x90
 2499 09e7 00000000 		.4byte	.LFB135
 2500 09eb A4000000 		.4byte	.LFE135
ARM GAS  /tmp/ccGifACe.s 			page 45


 2501 09ef 64030000 		.4byte	.LLST34
 2502 09f3 01       		.byte	0x1
 2503 09f4 4C0A0000 		.4byte	0xa4c
 2504 09f8 1D       		.uleb128 0x1d
 2505 09f9 DF010000 		.4byte	.LASF170
 2506 09fd 01       		.byte	0x1
 2507 09fe CE01     		.2byte	0x1ce
 2508 0a00 22060000 		.4byte	0x622
 2509 0a04 84030000 		.4byte	.LLST35
 2510 0a08 1D       		.uleb128 0x1d
 2511 0a09 E6030000 		.4byte	.LASF171
 2512 0a0d 01       		.byte	0x1
 2513 0a0e CF01     		.2byte	0x1cf
 2514 0a10 70000000 		.4byte	0x70
 2515 0a14 D7030000 		.4byte	.LLST36
 2516 0a18 1D       		.uleb128 0x1d
 2517 0a19 0A020000 		.4byte	.LASF172
 2518 0a1d 01       		.byte	0x1
 2519 0a1e D001     		.2byte	0x1d0
 2520 0a20 00060000 		.4byte	0x600
 2521 0a24 03040000 		.4byte	.LLST37
 2522 0a28 1D       		.uleb128 0x1d
 2523 0a29 FB040000 		.4byte	.LASF173
 2524 0a2d 01       		.byte	0x1
 2525 0a2e D101     		.2byte	0x1d1
 2526 0a30 9B000000 		.4byte	0x9b
 2527 0a34 2F040000 		.4byte	.LLST38
 2528 0a38 1E       		.uleb128 0x1e
 2529 0a39 88000000 		.4byte	.LVL54
 2530 0a3d F30A0000 		.4byte	0xaf3
 2531 0a41 1F       		.uleb128 0x1f
 2532 0a42 01       		.byte	0x1
 2533 0a43 51       		.byte	0x51
 2534 0a44 05       		.byte	0x5
 2535 0a45 F3       		.byte	0xf3
 2536 0a46 01       		.uleb128 0x1
 2537 0a47 51       		.byte	0x51
 2538 0a48 34       		.byte	0x34
 2539 0a49 24       		.byte	0x24
 2540 0a4a 00       		.byte	0
 2541 0a4b 00       		.byte	0
 2542 0a4c 1A       		.uleb128 0x1a
 2543 0a4d 01       		.byte	0x1
 2544 0a4e 20070000 		.4byte	.LASF174
 2545 0a52 01       		.byte	0x1
 2546 0a53 FD01     		.2byte	0x1fd
 2547 0a55 01       		.byte	0x1
 2548 0a56 00000000 		.4byte	.LFB136
 2549 0a5a 54000000 		.4byte	.LFE136
 2550 0a5e 73040000 		.4byte	.LLST39
 2551 0a62 01       		.byte	0x1
 2552 0a63 810A0000 		.4byte	0xa81
 2553 0a67 1D       		.uleb128 0x1d
 2554 0a68 DF010000 		.4byte	.LASF170
 2555 0a6c 01       		.byte	0x1
 2556 0a6d FD01     		.2byte	0x1fd
 2557 0a6f 22060000 		.4byte	0x622
ARM GAS  /tmp/ccGifACe.s 			page 46


 2558 0a73 93040000 		.4byte	.LLST40
 2559 0a77 20       		.uleb128 0x20
 2560 0a78 0A000000 		.4byte	.LVL61
 2561 0a7c 0D0B0000 		.4byte	0xb0d
 2562 0a80 00       		.byte	0
 2563 0a81 21       		.uleb128 0x21
 2564 0a82 A9070000 		.4byte	.LASF175
 2565 0a86 01       		.byte	0x1
 2566 0a87 70       		.byte	0x70
 2567 0a88 70000000 		.4byte	0x70
 2568 0a8c 05       		.byte	0x5
 2569 0a8d 03       		.byte	0x3
 2570 0a8e 00000000 		.4byte	dma_streams_mask
 2571 0a92 09       		.uleb128 0x9
 2572 0a93 52060000 		.4byte	0x652
 2573 0a97 A20A0000 		.4byte	0xaa2
 2574 0a9b 0A       		.uleb128 0xa
 2575 0a9c A2000000 		.4byte	0xa2
 2576 0aa0 0F       		.byte	0xf
 2577 0aa1 00       		.byte	0
 2578 0aa2 21       		.uleb128 0x21
 2579 0aa3 58080000 		.4byte	.LASF176
 2580 0aa7 01       		.byte	0x1
 2581 0aa8 75       		.byte	0x75
 2582 0aa9 920A0000 		.4byte	0xa92
 2583 0aad 05       		.byte	0x5
 2584 0aae 03       		.byte	0x3
 2585 0aaf 00000000 		.4byte	dma_isr_redir
 2586 0ab3 22       		.uleb128 0x22
 2587 0ab4 24060000 		.4byte	.LASF177
 2588 0ab8 06       		.byte	0x6
 2589 0ab9 9806     		.2byte	0x698
 2590 0abb FB020000 		.4byte	0x2fb
 2591 0abf 01       		.byte	0x1
 2592 0ac0 01       		.byte	0x1
 2593 0ac1 09       		.uleb128 0x9
 2594 0ac2 F5050000 		.4byte	0x5f5
 2595 0ac6 D10A0000 		.4byte	0xad1
 2596 0aca 0A       		.uleb128 0xa
 2597 0acb A2000000 		.4byte	0xa2
 2598 0acf 0F       		.byte	0xf
 2599 0ad0 00       		.byte	0
 2600 0ad1 23       		.uleb128 0x23
 2601 0ad2 0D010000 		.4byte	.LASF178
 2602 0ad6 01       		.byte	0x1
 2603 0ad7 4E       		.byte	0x4e
 2604 0ad8 E30A0000 		.4byte	0xae3
 2605 0adc 01       		.byte	0x1
 2606 0add 05       		.byte	0x5
 2607 0ade 03       		.byte	0x3
 2608 0adf 00000000 		.4byte	_stm32_dma_streams
 2609 0ae3 14       		.uleb128 0x14
 2610 0ae4 C10A0000 		.4byte	0xac1
 2611 0ae8 24       		.uleb128 0x24
 2612 0ae9 01       		.byte	0x1
 2613 0aea 2D080000 		.4byte	.LASF184
 2614 0aee 07       		.byte	0x7
ARM GAS  /tmp/ccGifACe.s 			page 47


 2615 0aef FC01     		.2byte	0x1fc
 2616 0af1 01       		.byte	0x1
 2617 0af2 01       		.byte	0x1
 2618 0af3 25       		.uleb128 0x25
 2619 0af4 01       		.byte	0x1
 2620 0af5 63010000 		.4byte	.LASF185
 2621 0af9 08       		.byte	0x8
 2622 0afa 1C01     		.2byte	0x11c
 2623 0afc 01       		.byte	0x1
 2624 0afd 01       		.byte	0x1
 2625 0afe 0D0B0000 		.4byte	0xb0d
 2626 0b02 13       		.uleb128 0x13
 2627 0b03 70000000 		.4byte	0x70
 2628 0b07 13       		.uleb128 0x13
 2629 0b08 70000000 		.4byte	0x70
 2630 0b0c 00       		.byte	0
 2631 0b0d 26       		.uleb128 0x26
 2632 0b0e 01       		.byte	0x1
 2633 0b0f CD010000 		.4byte	.LASF186
 2634 0b13 08       		.byte	0x8
 2635 0b14 1D01     		.2byte	0x11d
 2636 0b16 01       		.byte	0x1
 2637 0b17 01       		.byte	0x1
 2638 0b18 13       		.uleb128 0x13
 2639 0b19 70000000 		.4byte	0x70
 2640 0b1d 00       		.byte	0
 2641 0b1e 00       		.byte	0
 2642              		.section	.debug_abbrev,"",%progbits
 2643              	.Ldebug_abbrev0:
 2644 0000 01       		.uleb128 0x1
 2645 0001 11       		.uleb128 0x11
 2646 0002 01       		.byte	0x1
 2647 0003 25       		.uleb128 0x25
 2648 0004 0E       		.uleb128 0xe
 2649 0005 13       		.uleb128 0x13
 2650 0006 0B       		.uleb128 0xb
 2651 0007 03       		.uleb128 0x3
 2652 0008 0E       		.uleb128 0xe
 2653 0009 1B       		.uleb128 0x1b
 2654 000a 0E       		.uleb128 0xe
 2655 000b 55       		.uleb128 0x55
 2656 000c 06       		.uleb128 0x6
 2657 000d 11       		.uleb128 0x11
 2658 000e 01       		.uleb128 0x1
 2659 000f 52       		.uleb128 0x52
 2660 0010 01       		.uleb128 0x1
 2661 0011 10       		.uleb128 0x10
 2662 0012 06       		.uleb128 0x6
 2663 0013 00       		.byte	0
 2664 0014 00       		.byte	0
 2665 0015 02       		.uleb128 0x2
 2666 0016 24       		.uleb128 0x24
 2667 0017 00       		.byte	0
 2668 0018 0B       		.uleb128 0xb
 2669 0019 0B       		.uleb128 0xb
 2670 001a 3E       		.uleb128 0x3e
 2671 001b 0B       		.uleb128 0xb
ARM GAS  /tmp/ccGifACe.s 			page 48


 2672 001c 03       		.uleb128 0x3
 2673 001d 08       		.uleb128 0x8
 2674 001e 00       		.byte	0
 2675 001f 00       		.byte	0
 2676 0020 03       		.uleb128 0x3
 2677 0021 24       		.uleb128 0x24
 2678 0022 00       		.byte	0
 2679 0023 0B       		.uleb128 0xb
 2680 0024 0B       		.uleb128 0xb
 2681 0025 3E       		.uleb128 0x3e
 2682 0026 0B       		.uleb128 0xb
 2683 0027 03       		.uleb128 0x3
 2684 0028 0E       		.uleb128 0xe
 2685 0029 00       		.byte	0
 2686 002a 00       		.byte	0
 2687 002b 04       		.uleb128 0x4
 2688 002c 16       		.uleb128 0x16
 2689 002d 00       		.byte	0
 2690 002e 03       		.uleb128 0x3
 2691 002f 0E       		.uleb128 0xe
 2692 0030 3A       		.uleb128 0x3a
 2693 0031 0B       		.uleb128 0xb
 2694 0032 3B       		.uleb128 0x3b
 2695 0033 0B       		.uleb128 0xb
 2696 0034 49       		.uleb128 0x49
 2697 0035 13       		.uleb128 0x13
 2698 0036 00       		.byte	0
 2699 0037 00       		.byte	0
 2700 0038 05       		.uleb128 0x5
 2701 0039 0F       		.uleb128 0xf
 2702 003a 00       		.byte	0
 2703 003b 0B       		.uleb128 0xb
 2704 003c 0B       		.uleb128 0xb
 2705 003d 00       		.byte	0
 2706 003e 00       		.byte	0
 2707 003f 06       		.uleb128 0x6
 2708 0040 35       		.uleb128 0x35
 2709 0041 00       		.byte	0
 2710 0042 49       		.uleb128 0x49
 2711 0043 13       		.uleb128 0x13
 2712 0044 00       		.byte	0
 2713 0045 00       		.byte	0
 2714 0046 07       		.uleb128 0x7
 2715 0047 04       		.uleb128 0x4
 2716 0048 01       		.byte	0x1
 2717 0049 03       		.uleb128 0x3
 2718 004a 0E       		.uleb128 0xe
 2719 004b 0B       		.uleb128 0xb
 2720 004c 0B       		.uleb128 0xb
 2721 004d 3A       		.uleb128 0x3a
 2722 004e 0B       		.uleb128 0xb
 2723 004f 3B       		.uleb128 0x3b
 2724 0050 0B       		.uleb128 0xb
 2725 0051 01       		.uleb128 0x1
 2726 0052 13       		.uleb128 0x13
 2727 0053 00       		.byte	0
 2728 0054 00       		.byte	0
ARM GAS  /tmp/ccGifACe.s 			page 49


 2729 0055 08       		.uleb128 0x8
 2730 0056 28       		.uleb128 0x28
 2731 0057 00       		.byte	0
 2732 0058 03       		.uleb128 0x3
 2733 0059 0E       		.uleb128 0xe
 2734 005a 1C       		.uleb128 0x1c
 2735 005b 0D       		.uleb128 0xd
 2736 005c 00       		.byte	0
 2737 005d 00       		.byte	0
 2738 005e 09       		.uleb128 0x9
 2739 005f 01       		.uleb128 0x1
 2740 0060 01       		.byte	0x1
 2741 0061 49       		.uleb128 0x49
 2742 0062 13       		.uleb128 0x13
 2743 0063 01       		.uleb128 0x1
 2744 0064 13       		.uleb128 0x13
 2745 0065 00       		.byte	0
 2746 0066 00       		.byte	0
 2747 0067 0A       		.uleb128 0xa
 2748 0068 21       		.uleb128 0x21
 2749 0069 00       		.byte	0
 2750 006a 49       		.uleb128 0x49
 2751 006b 13       		.uleb128 0x13
 2752 006c 2F       		.uleb128 0x2f
 2753 006d 0B       		.uleb128 0xb
 2754 006e 00       		.byte	0
 2755 006f 00       		.byte	0
 2756 0070 0B       		.uleb128 0xb
 2757 0071 13       		.uleb128 0x13
 2758 0072 01       		.byte	0x1
 2759 0073 0B       		.uleb128 0xb
 2760 0074 0B       		.uleb128 0xb
 2761 0075 3A       		.uleb128 0x3a
 2762 0076 0B       		.uleb128 0xb
 2763 0077 3B       		.uleb128 0x3b
 2764 0078 05       		.uleb128 0x5
 2765 0079 01       		.uleb128 0x1
 2766 007a 13       		.uleb128 0x13
 2767 007b 00       		.byte	0
 2768 007c 00       		.byte	0
 2769 007d 0C       		.uleb128 0xc
 2770 007e 0D       		.uleb128 0xd
 2771 007f 00       		.byte	0
 2772 0080 03       		.uleb128 0x3
 2773 0081 08       		.uleb128 0x8
 2774 0082 3A       		.uleb128 0x3a
 2775 0083 0B       		.uleb128 0xb
 2776 0084 3B       		.uleb128 0x3b
 2777 0085 05       		.uleb128 0x5
 2778 0086 49       		.uleb128 0x49
 2779 0087 13       		.uleb128 0x13
 2780 0088 38       		.uleb128 0x38
 2781 0089 0A       		.uleb128 0xa
 2782 008a 00       		.byte	0
 2783 008b 00       		.byte	0
 2784 008c 0D       		.uleb128 0xd
 2785 008d 0D       		.uleb128 0xd
ARM GAS  /tmp/ccGifACe.s 			page 50


 2786 008e 00       		.byte	0
 2787 008f 03       		.uleb128 0x3
 2788 0090 0E       		.uleb128 0xe
 2789 0091 3A       		.uleb128 0x3a
 2790 0092 0B       		.uleb128 0xb
 2791 0093 3B       		.uleb128 0x3b
 2792 0094 05       		.uleb128 0x5
 2793 0095 49       		.uleb128 0x49
 2794 0096 13       		.uleb128 0x13
 2795 0097 38       		.uleb128 0x38
 2796 0098 0A       		.uleb128 0xa
 2797 0099 00       		.byte	0
 2798 009a 00       		.byte	0
 2799 009b 0E       		.uleb128 0xe
 2800 009c 16       		.uleb128 0x16
 2801 009d 00       		.byte	0
 2802 009e 03       		.uleb128 0x3
 2803 009f 0E       		.uleb128 0xe
 2804 00a0 3A       		.uleb128 0x3a
 2805 00a1 0B       		.uleb128 0xb
 2806 00a2 3B       		.uleb128 0x3b
 2807 00a3 05       		.uleb128 0x5
 2808 00a4 49       		.uleb128 0x49
 2809 00a5 13       		.uleb128 0x13
 2810 00a6 00       		.byte	0
 2811 00a7 00       		.byte	0
 2812 00a8 0F       		.uleb128 0xf
 2813 00a9 13       		.uleb128 0x13
 2814 00aa 01       		.byte	0x1
 2815 00ab 0B       		.uleb128 0xb
 2816 00ac 0B       		.uleb128 0xb
 2817 00ad 3A       		.uleb128 0x3a
 2818 00ae 0B       		.uleb128 0xb
 2819 00af 3B       		.uleb128 0x3b
 2820 00b0 0B       		.uleb128 0xb
 2821 00b1 01       		.uleb128 0x1
 2822 00b2 13       		.uleb128 0x13
 2823 00b3 00       		.byte	0
 2824 00b4 00       		.byte	0
 2825 00b5 10       		.uleb128 0x10
 2826 00b6 0D       		.uleb128 0xd
 2827 00b7 00       		.byte	0
 2828 00b8 03       		.uleb128 0x3
 2829 00b9 0E       		.uleb128 0xe
 2830 00ba 3A       		.uleb128 0x3a
 2831 00bb 0B       		.uleb128 0xb
 2832 00bc 3B       		.uleb128 0x3b
 2833 00bd 0B       		.uleb128 0xb
 2834 00be 49       		.uleb128 0x49
 2835 00bf 13       		.uleb128 0x13
 2836 00c0 38       		.uleb128 0x38
 2837 00c1 0A       		.uleb128 0xa
 2838 00c2 00       		.byte	0
 2839 00c3 00       		.byte	0
 2840 00c4 11       		.uleb128 0x11
 2841 00c5 0F       		.uleb128 0xf
 2842 00c6 00       		.byte	0
ARM GAS  /tmp/ccGifACe.s 			page 51


 2843 00c7 0B       		.uleb128 0xb
 2844 00c8 0B       		.uleb128 0xb
 2845 00c9 49       		.uleb128 0x49
 2846 00ca 13       		.uleb128 0x13
 2847 00cb 00       		.byte	0
 2848 00cc 00       		.byte	0
 2849 00cd 12       		.uleb128 0x12
 2850 00ce 15       		.uleb128 0x15
 2851 00cf 01       		.byte	0x1
 2852 00d0 27       		.uleb128 0x27
 2853 00d1 0C       		.uleb128 0xc
 2854 00d2 01       		.uleb128 0x1
 2855 00d3 13       		.uleb128 0x13
 2856 00d4 00       		.byte	0
 2857 00d5 00       		.byte	0
 2858 00d6 13       		.uleb128 0x13
 2859 00d7 05       		.uleb128 0x5
 2860 00d8 00       		.byte	0
 2861 00d9 49       		.uleb128 0x49
 2862 00da 13       		.uleb128 0x13
 2863 00db 00       		.byte	0
 2864 00dc 00       		.byte	0
 2865 00dd 14       		.uleb128 0x14
 2866 00de 26       		.uleb128 0x26
 2867 00df 00       		.byte	0
 2868 00e0 49       		.uleb128 0x49
 2869 00e1 13       		.uleb128 0x13
 2870 00e2 00       		.byte	0
 2871 00e3 00       		.byte	0
 2872 00e4 15       		.uleb128 0x15
 2873 00e5 2E       		.uleb128 0x2e
 2874 00e6 01       		.byte	0x1
 2875 00e7 3F       		.uleb128 0x3f
 2876 00e8 0C       		.uleb128 0xc
 2877 00e9 03       		.uleb128 0x3
 2878 00ea 0E       		.uleb128 0xe
 2879 00eb 3A       		.uleb128 0x3a
 2880 00ec 0B       		.uleb128 0xb
 2881 00ed 3B       		.uleb128 0x3b
 2882 00ee 0B       		.uleb128 0xb
 2883 00ef 27       		.uleb128 0x27
 2884 00f0 0C       		.uleb128 0xc
 2885 00f1 11       		.uleb128 0x11
 2886 00f2 01       		.uleb128 0x1
 2887 00f3 12       		.uleb128 0x12
 2888 00f4 01       		.uleb128 0x1
 2889 00f5 40       		.uleb128 0x40
 2890 00f6 06       		.uleb128 0x6
 2891 00f7 9642     		.uleb128 0x2116
 2892 00f9 0C       		.uleb128 0xc
 2893 00fa 01       		.uleb128 0x1
 2894 00fb 13       		.uleb128 0x13
 2895 00fc 00       		.byte	0
 2896 00fd 00       		.byte	0
 2897 00fe 16       		.uleb128 0x16
 2898 00ff 34       		.uleb128 0x34
 2899 0100 00       		.byte	0
ARM GAS  /tmp/ccGifACe.s 			page 52


 2900 0101 03       		.uleb128 0x3
 2901 0102 0E       		.uleb128 0xe
 2902 0103 3A       		.uleb128 0x3a
 2903 0104 0B       		.uleb128 0xb
 2904 0105 3B       		.uleb128 0x3b
 2905 0106 0B       		.uleb128 0xb
 2906 0107 49       		.uleb128 0x49
 2907 0108 13       		.uleb128 0x13
 2908 0109 02       		.uleb128 0x2
 2909 010a 06       		.uleb128 0x6
 2910 010b 00       		.byte	0
 2911 010c 00       		.byte	0
 2912 010d 17       		.uleb128 0x17
 2913 010e 898201   		.uleb128 0x4109
 2914 0111 00       		.byte	0
 2915 0112 11       		.uleb128 0x11
 2916 0113 01       		.uleb128 0x1
 2917 0114 9542     		.uleb128 0x2115
 2918 0116 0C       		.uleb128 0xc
 2919 0117 31       		.uleb128 0x31
 2920 0118 13       		.uleb128 0x13
 2921 0119 00       		.byte	0
 2922 011a 00       		.byte	0
 2923 011b 18       		.uleb128 0x18
 2924 011c 2E       		.uleb128 0x2e
 2925 011d 01       		.byte	0x1
 2926 011e 3F       		.uleb128 0x3f
 2927 011f 0C       		.uleb128 0xc
 2928 0120 03       		.uleb128 0x3
 2929 0121 0E       		.uleb128 0xe
 2930 0122 3A       		.uleb128 0x3a
 2931 0123 0B       		.uleb128 0xb
 2932 0124 3B       		.uleb128 0x3b
 2933 0125 05       		.uleb128 0x5
 2934 0126 27       		.uleb128 0x27
 2935 0127 0C       		.uleb128 0xc
 2936 0128 11       		.uleb128 0x11
 2937 0129 01       		.uleb128 0x1
 2938 012a 12       		.uleb128 0x12
 2939 012b 01       		.uleb128 0x1
 2940 012c 40       		.uleb128 0x40
 2941 012d 06       		.uleb128 0x6
 2942 012e 9642     		.uleb128 0x2116
 2943 0130 0C       		.uleb128 0xc
 2944 0131 01       		.uleb128 0x1
 2945 0132 13       		.uleb128 0x13
 2946 0133 00       		.byte	0
 2947 0134 00       		.byte	0
 2948 0135 19       		.uleb128 0x19
 2949 0136 34       		.uleb128 0x34
 2950 0137 00       		.byte	0
 2951 0138 03       		.uleb128 0x3
 2952 0139 0E       		.uleb128 0xe
 2953 013a 3A       		.uleb128 0x3a
 2954 013b 0B       		.uleb128 0xb
 2955 013c 3B       		.uleb128 0x3b
 2956 013d 05       		.uleb128 0x5
ARM GAS  /tmp/ccGifACe.s 			page 53


 2957 013e 49       		.uleb128 0x49
 2958 013f 13       		.uleb128 0x13
 2959 0140 02       		.uleb128 0x2
 2960 0141 06       		.uleb128 0x6
 2961 0142 00       		.byte	0
 2962 0143 00       		.byte	0
 2963 0144 1A       		.uleb128 0x1a
 2964 0145 2E       		.uleb128 0x2e
 2965 0146 01       		.byte	0x1
 2966 0147 3F       		.uleb128 0x3f
 2967 0148 0C       		.uleb128 0xc
 2968 0149 03       		.uleb128 0x3
 2969 014a 0E       		.uleb128 0xe
 2970 014b 3A       		.uleb128 0x3a
 2971 014c 0B       		.uleb128 0xb
 2972 014d 3B       		.uleb128 0x3b
 2973 014e 05       		.uleb128 0x5
 2974 014f 27       		.uleb128 0x27
 2975 0150 0C       		.uleb128 0xc
 2976 0151 11       		.uleb128 0x11
 2977 0152 01       		.uleb128 0x1
 2978 0153 12       		.uleb128 0x12
 2979 0154 01       		.uleb128 0x1
 2980 0155 40       		.uleb128 0x40
 2981 0156 06       		.uleb128 0x6
 2982 0157 9742     		.uleb128 0x2117
 2983 0159 0C       		.uleb128 0xc
 2984 015a 01       		.uleb128 0x1
 2985 015b 13       		.uleb128 0x13
 2986 015c 00       		.byte	0
 2987 015d 00       		.byte	0
 2988 015e 1B       		.uleb128 0x1b
 2989 015f 34       		.uleb128 0x34
 2990 0160 00       		.byte	0
 2991 0161 03       		.uleb128 0x3
 2992 0162 08       		.uleb128 0x8
 2993 0163 3A       		.uleb128 0x3a
 2994 0164 0B       		.uleb128 0xb
 2995 0165 3B       		.uleb128 0x3b
 2996 0166 05       		.uleb128 0x5
 2997 0167 49       		.uleb128 0x49
 2998 0168 13       		.uleb128 0x13
 2999 0169 02       		.uleb128 0x2
 3000 016a 06       		.uleb128 0x6
 3001 016b 00       		.byte	0
 3002 016c 00       		.byte	0
 3003 016d 1C       		.uleb128 0x1c
 3004 016e 2E       		.uleb128 0x2e
 3005 016f 01       		.byte	0x1
 3006 0170 3F       		.uleb128 0x3f
 3007 0171 0C       		.uleb128 0xc
 3008 0172 03       		.uleb128 0x3
 3009 0173 0E       		.uleb128 0xe
 3010 0174 3A       		.uleb128 0x3a
 3011 0175 0B       		.uleb128 0xb
 3012 0176 3B       		.uleb128 0x3b
 3013 0177 05       		.uleb128 0x5
ARM GAS  /tmp/ccGifACe.s 			page 54


 3014 0178 27       		.uleb128 0x27
 3015 0179 0C       		.uleb128 0xc
 3016 017a 49       		.uleb128 0x49
 3017 017b 13       		.uleb128 0x13
 3018 017c 11       		.uleb128 0x11
 3019 017d 01       		.uleb128 0x1
 3020 017e 12       		.uleb128 0x12
 3021 017f 01       		.uleb128 0x1
 3022 0180 40       		.uleb128 0x40
 3023 0181 06       		.uleb128 0x6
 3024 0182 9742     		.uleb128 0x2117
 3025 0184 0C       		.uleb128 0xc
 3026 0185 01       		.uleb128 0x1
 3027 0186 13       		.uleb128 0x13
 3028 0187 00       		.byte	0
 3029 0188 00       		.byte	0
 3030 0189 1D       		.uleb128 0x1d
 3031 018a 05       		.uleb128 0x5
 3032 018b 00       		.byte	0
 3033 018c 03       		.uleb128 0x3
 3034 018d 0E       		.uleb128 0xe
 3035 018e 3A       		.uleb128 0x3a
 3036 018f 0B       		.uleb128 0xb
 3037 0190 3B       		.uleb128 0x3b
 3038 0191 05       		.uleb128 0x5
 3039 0192 49       		.uleb128 0x49
 3040 0193 13       		.uleb128 0x13
 3041 0194 02       		.uleb128 0x2
 3042 0195 06       		.uleb128 0x6
 3043 0196 00       		.byte	0
 3044 0197 00       		.byte	0
 3045 0198 1E       		.uleb128 0x1e
 3046 0199 898201   		.uleb128 0x4109
 3047 019c 01       		.byte	0x1
 3048 019d 11       		.uleb128 0x11
 3049 019e 01       		.uleb128 0x1
 3050 019f 31       		.uleb128 0x31
 3051 01a0 13       		.uleb128 0x13
 3052 01a1 00       		.byte	0
 3053 01a2 00       		.byte	0
 3054 01a3 1F       		.uleb128 0x1f
 3055 01a4 8A8201   		.uleb128 0x410a
 3056 01a7 00       		.byte	0
 3057 01a8 02       		.uleb128 0x2
 3058 01a9 0A       		.uleb128 0xa
 3059 01aa 9142     		.uleb128 0x2111
 3060 01ac 0A       		.uleb128 0xa
 3061 01ad 00       		.byte	0
 3062 01ae 00       		.byte	0
 3063 01af 20       		.uleb128 0x20
 3064 01b0 898201   		.uleb128 0x4109
 3065 01b3 00       		.byte	0
 3066 01b4 11       		.uleb128 0x11
 3067 01b5 01       		.uleb128 0x1
 3068 01b6 31       		.uleb128 0x31
 3069 01b7 13       		.uleb128 0x13
 3070 01b8 00       		.byte	0
ARM GAS  /tmp/ccGifACe.s 			page 55


 3071 01b9 00       		.byte	0
 3072 01ba 21       		.uleb128 0x21
 3073 01bb 34       		.uleb128 0x34
 3074 01bc 00       		.byte	0
 3075 01bd 03       		.uleb128 0x3
 3076 01be 0E       		.uleb128 0xe
 3077 01bf 3A       		.uleb128 0x3a
 3078 01c0 0B       		.uleb128 0xb
 3079 01c1 3B       		.uleb128 0x3b
 3080 01c2 0B       		.uleb128 0xb
 3081 01c3 49       		.uleb128 0x49
 3082 01c4 13       		.uleb128 0x13
 3083 01c5 02       		.uleb128 0x2
 3084 01c6 0A       		.uleb128 0xa
 3085 01c7 00       		.byte	0
 3086 01c8 00       		.byte	0
 3087 01c9 22       		.uleb128 0x22
 3088 01ca 34       		.uleb128 0x34
 3089 01cb 00       		.byte	0
 3090 01cc 03       		.uleb128 0x3
 3091 01cd 0E       		.uleb128 0xe
 3092 01ce 3A       		.uleb128 0x3a
 3093 01cf 0B       		.uleb128 0xb
 3094 01d0 3B       		.uleb128 0x3b
 3095 01d1 05       		.uleb128 0x5
 3096 01d2 49       		.uleb128 0x49
 3097 01d3 13       		.uleb128 0x13
 3098 01d4 3F       		.uleb128 0x3f
 3099 01d5 0C       		.uleb128 0xc
 3100 01d6 3C       		.uleb128 0x3c
 3101 01d7 0C       		.uleb128 0xc
 3102 01d8 00       		.byte	0
 3103 01d9 00       		.byte	0
 3104 01da 23       		.uleb128 0x23
 3105 01db 34       		.uleb128 0x34
 3106 01dc 00       		.byte	0
 3107 01dd 03       		.uleb128 0x3
 3108 01de 0E       		.uleb128 0xe
 3109 01df 3A       		.uleb128 0x3a
 3110 01e0 0B       		.uleb128 0xb
 3111 01e1 3B       		.uleb128 0x3b
 3112 01e2 0B       		.uleb128 0xb
 3113 01e3 49       		.uleb128 0x49
 3114 01e4 13       		.uleb128 0x13
 3115 01e5 3F       		.uleb128 0x3f
 3116 01e6 0C       		.uleb128 0xc
 3117 01e7 02       		.uleb128 0x2
 3118 01e8 0A       		.uleb128 0xa
 3119 01e9 00       		.byte	0
 3120 01ea 00       		.byte	0
 3121 01eb 24       		.uleb128 0x24
 3122 01ec 2E       		.uleb128 0x2e
 3123 01ed 00       		.byte	0
 3124 01ee 3F       		.uleb128 0x3f
 3125 01ef 0C       		.uleb128 0xc
 3126 01f0 03       		.uleb128 0x3
 3127 01f1 0E       		.uleb128 0xe
ARM GAS  /tmp/ccGifACe.s 			page 56


 3128 01f2 3A       		.uleb128 0x3a
 3129 01f3 0B       		.uleb128 0xb
 3130 01f4 3B       		.uleb128 0x3b
 3131 01f5 05       		.uleb128 0x5
 3132 01f6 27       		.uleb128 0x27
 3133 01f7 0C       		.uleb128 0xc
 3134 01f8 3C       		.uleb128 0x3c
 3135 01f9 0C       		.uleb128 0xc
 3136 01fa 00       		.byte	0
 3137 01fb 00       		.byte	0
 3138 01fc 25       		.uleb128 0x25
 3139 01fd 2E       		.uleb128 0x2e
 3140 01fe 01       		.byte	0x1
 3141 01ff 3F       		.uleb128 0x3f
 3142 0200 0C       		.uleb128 0xc
 3143 0201 03       		.uleb128 0x3
 3144 0202 0E       		.uleb128 0xe
 3145 0203 3A       		.uleb128 0x3a
 3146 0204 0B       		.uleb128 0xb
 3147 0205 3B       		.uleb128 0x3b
 3148 0206 05       		.uleb128 0x5
 3149 0207 27       		.uleb128 0x27
 3150 0208 0C       		.uleb128 0xc
 3151 0209 3C       		.uleb128 0x3c
 3152 020a 0C       		.uleb128 0xc
 3153 020b 01       		.uleb128 0x1
 3154 020c 13       		.uleb128 0x13
 3155 020d 00       		.byte	0
 3156 020e 00       		.byte	0
 3157 020f 26       		.uleb128 0x26
 3158 0210 2E       		.uleb128 0x2e
 3159 0211 01       		.byte	0x1
 3160 0212 3F       		.uleb128 0x3f
 3161 0213 0C       		.uleb128 0xc
 3162 0214 03       		.uleb128 0x3
 3163 0215 0E       		.uleb128 0xe
 3164 0216 3A       		.uleb128 0x3a
 3165 0217 0B       		.uleb128 0xb
 3166 0218 3B       		.uleb128 0x3b
 3167 0219 05       		.uleb128 0x5
 3168 021a 27       		.uleb128 0x27
 3169 021b 0C       		.uleb128 0xc
 3170 021c 3C       		.uleb128 0x3c
 3171 021d 0C       		.uleb128 0xc
 3172 021e 00       		.byte	0
 3173 021f 00       		.byte	0
 3174 0220 00       		.byte	0
 3175              		.section	.debug_loc,"",%progbits
 3176              	.Ldebug_loc0:
 3177              	.LLST0:
 3178 0000 00000000 		.4byte	.LFB118
 3179 0004 10000000 		.4byte	.LCFI0
 3180 0008 0200     		.2byte	0x2
 3181 000a 7D       		.byte	0x7d
 3182 000b 00       		.sleb128 0
 3183 000c 10000000 		.4byte	.LCFI0
 3184 0010 2C000000 		.4byte	.LFE118
ARM GAS  /tmp/ccGifACe.s 			page 57


 3185 0014 0200     		.2byte	0x2
 3186 0016 7D       		.byte	0x7d
 3187 0017 08       		.sleb128 8
 3188 0018 00000000 		.4byte	0
 3189 001c 00000000 		.4byte	0
 3190              	.LLST1:
 3191 0020 16000000 		.4byte	.LVL0
 3192 0024 1D000000 		.4byte	.LVL1-1
 3193 0028 0100     		.2byte	0x1
 3194 002a 51       		.byte	0x51
 3195 002b 00000000 		.4byte	0
 3196 002f 00000000 		.4byte	0
 3197              	.LLST2:
 3198 0033 00000000 		.4byte	.LFB119
 3199 0037 10000000 		.4byte	.LCFI1
 3200 003b 0200     		.2byte	0x2
 3201 003d 7D       		.byte	0x7d
 3202 003e 00       		.sleb128 0
 3203 003f 10000000 		.4byte	.LCFI1
 3204 0043 30000000 		.4byte	.LFE119
 3205 0047 0200     		.2byte	0x2
 3206 0049 7D       		.byte	0x7d
 3207 004a 08       		.sleb128 8
 3208 004b 00000000 		.4byte	0
 3209 004f 00000000 		.4byte	0
 3210              	.LLST3:
 3211 0053 1A000000 		.4byte	.LVL3
 3212 0057 21000000 		.4byte	.LVL4-1
 3213 005b 0100     		.2byte	0x1
 3214 005d 51       		.byte	0x51
 3215 005e 00000000 		.4byte	0
 3216 0062 00000000 		.4byte	0
 3217              	.LLST4:
 3218 0066 00000000 		.4byte	.LFB120
 3219 006a 10000000 		.4byte	.LCFI2
 3220 006e 0200     		.2byte	0x2
 3221 0070 7D       		.byte	0x7d
 3222 0071 00       		.sleb128 0
 3223 0072 10000000 		.4byte	.LCFI2
 3224 0076 30000000 		.4byte	.LFE120
 3225 007a 0200     		.2byte	0x2
 3226 007c 7D       		.byte	0x7d
 3227 007d 08       		.sleb128 8
 3228 007e 00000000 		.4byte	0
 3229 0082 00000000 		.4byte	0
 3230              	.LLST5:
 3231 0086 1A000000 		.4byte	.LVL6
 3232 008a 21000000 		.4byte	.LVL7-1
 3233 008e 0100     		.2byte	0x1
 3234 0090 51       		.byte	0x51
 3235 0091 00000000 		.4byte	0
 3236 0095 00000000 		.4byte	0
 3237              	.LLST6:
 3238 0099 00000000 		.4byte	.LFB121
 3239 009d 10000000 		.4byte	.LCFI3
 3240 00a1 0200     		.2byte	0x2
 3241 00a3 7D       		.byte	0x7d
ARM GAS  /tmp/ccGifACe.s 			page 58


 3242 00a4 00       		.sleb128 0
 3243 00a5 10000000 		.4byte	.LCFI3
 3244 00a9 30000000 		.4byte	.LFE121
 3245 00ad 0200     		.2byte	0x2
 3246 00af 7D       		.byte	0x7d
 3247 00b0 08       		.sleb128 8
 3248 00b1 00000000 		.4byte	0
 3249 00b5 00000000 		.4byte	0
 3250              	.LLST7:
 3251 00b9 1A000000 		.4byte	.LVL9
 3252 00bd 21000000 		.4byte	.LVL10-1
 3253 00c1 0100     		.2byte	0x1
 3254 00c3 51       		.byte	0x51
 3255 00c4 00000000 		.4byte	0
 3256 00c8 00000000 		.4byte	0
 3257              	.LLST8:
 3258 00cc 00000000 		.4byte	.LFB122
 3259 00d0 10000000 		.4byte	.LCFI4
 3260 00d4 0200     		.2byte	0x2
 3261 00d6 7D       		.byte	0x7d
 3262 00d7 00       		.sleb128 0
 3263 00d8 10000000 		.4byte	.LCFI4
 3264 00dc 2C000000 		.4byte	.LFE122
 3265 00e0 0200     		.2byte	0x2
 3266 00e2 7D       		.byte	0x7d
 3267 00e3 08       		.sleb128 8
 3268 00e4 00000000 		.4byte	0
 3269 00e8 00000000 		.4byte	0
 3270              	.LLST9:
 3271 00ec 16000000 		.4byte	.LVL12
 3272 00f0 1D000000 		.4byte	.LVL13-1
 3273 00f4 0100     		.2byte	0x1
 3274 00f6 51       		.byte	0x51
 3275 00f7 00000000 		.4byte	0
 3276 00fb 00000000 		.4byte	0
 3277              	.LLST10:
 3278 00ff 00000000 		.4byte	.LFB123
 3279 0103 10000000 		.4byte	.LCFI5
 3280 0107 0200     		.2byte	0x2
 3281 0109 7D       		.byte	0x7d
 3282 010a 00       		.sleb128 0
 3283 010b 10000000 		.4byte	.LCFI5
 3284 010f 30000000 		.4byte	.LFE123
 3285 0113 0200     		.2byte	0x2
 3286 0115 7D       		.byte	0x7d
 3287 0116 08       		.sleb128 8
 3288 0117 00000000 		.4byte	0
 3289 011b 00000000 		.4byte	0
 3290              	.LLST11:
 3291 011f 1A000000 		.4byte	.LVL15
 3292 0123 21000000 		.4byte	.LVL16-1
 3293 0127 0100     		.2byte	0x1
 3294 0129 51       		.byte	0x51
 3295 012a 00000000 		.4byte	0
 3296 012e 00000000 		.4byte	0
 3297              	.LLST12:
 3298 0132 00000000 		.4byte	.LFB124
ARM GAS  /tmp/ccGifACe.s 			page 59


 3299 0136 10000000 		.4byte	.LCFI6
 3300 013a 0200     		.2byte	0x2
 3301 013c 7D       		.byte	0x7d
 3302 013d 00       		.sleb128 0
 3303 013e 10000000 		.4byte	.LCFI6
 3304 0142 30000000 		.4byte	.LFE124
 3305 0146 0200     		.2byte	0x2
 3306 0148 7D       		.byte	0x7d
 3307 0149 08       		.sleb128 8
 3308 014a 00000000 		.4byte	0
 3309 014e 00000000 		.4byte	0
 3310              	.LLST13:
 3311 0152 1A000000 		.4byte	.LVL18
 3312 0156 21000000 		.4byte	.LVL19-1
 3313 015a 0100     		.2byte	0x1
 3314 015c 51       		.byte	0x51
 3315 015d 00000000 		.4byte	0
 3316 0161 00000000 		.4byte	0
 3317              	.LLST14:
 3318 0165 00000000 		.4byte	.LFB125
 3319 0169 10000000 		.4byte	.LCFI7
 3320 016d 0200     		.2byte	0x2
 3321 016f 7D       		.byte	0x7d
 3322 0170 00       		.sleb128 0
 3323 0171 10000000 		.4byte	.LCFI7
 3324 0175 30000000 		.4byte	.LFE125
 3325 0179 0200     		.2byte	0x2
 3326 017b 7D       		.byte	0x7d
 3327 017c 08       		.sleb128 8
 3328 017d 00000000 		.4byte	0
 3329 0181 00000000 		.4byte	0
 3330              	.LLST15:
 3331 0185 1A000000 		.4byte	.LVL21
 3332 0189 21000000 		.4byte	.LVL22-1
 3333 018d 0100     		.2byte	0x1
 3334 018f 51       		.byte	0x51
 3335 0190 00000000 		.4byte	0
 3336 0194 00000000 		.4byte	0
 3337              	.LLST16:
 3338 0198 00000000 		.4byte	.LFB126
 3339 019c 10000000 		.4byte	.LCFI8
 3340 01a0 0200     		.2byte	0x2
 3341 01a2 7D       		.byte	0x7d
 3342 01a3 00       		.sleb128 0
 3343 01a4 10000000 		.4byte	.LCFI8
 3344 01a8 2C000000 		.4byte	.LFE126
 3345 01ac 0200     		.2byte	0x2
 3346 01ae 7D       		.byte	0x7d
 3347 01af 08       		.sleb128 8
 3348 01b0 00000000 		.4byte	0
 3349 01b4 00000000 		.4byte	0
 3350              	.LLST17:
 3351 01b8 16000000 		.4byte	.LVL24
 3352 01bc 1D000000 		.4byte	.LVL25-1
 3353 01c0 0100     		.2byte	0x1
 3354 01c2 51       		.byte	0x51
 3355 01c3 00000000 		.4byte	0
ARM GAS  /tmp/ccGifACe.s 			page 60


 3356 01c7 00000000 		.4byte	0
 3357              	.LLST18:
 3358 01cb 00000000 		.4byte	.LFB127
 3359 01cf 10000000 		.4byte	.LCFI9
 3360 01d3 0200     		.2byte	0x2
 3361 01d5 7D       		.byte	0x7d
 3362 01d6 00       		.sleb128 0
 3363 01d7 10000000 		.4byte	.LCFI9
 3364 01db 30000000 		.4byte	.LFE127
 3365 01df 0200     		.2byte	0x2
 3366 01e1 7D       		.byte	0x7d
 3367 01e2 08       		.sleb128 8
 3368 01e3 00000000 		.4byte	0
 3369 01e7 00000000 		.4byte	0
 3370              	.LLST19:
 3371 01eb 1A000000 		.4byte	.LVL27
 3372 01ef 21000000 		.4byte	.LVL28-1
 3373 01f3 0100     		.2byte	0x1
 3374 01f5 51       		.byte	0x51
 3375 01f6 00000000 		.4byte	0
 3376 01fa 00000000 		.4byte	0
 3377              	.LLST20:
 3378 01fe 00000000 		.4byte	.LFB128
 3379 0202 10000000 		.4byte	.LCFI10
 3380 0206 0200     		.2byte	0x2
 3381 0208 7D       		.byte	0x7d
 3382 0209 00       		.sleb128 0
 3383 020a 10000000 		.4byte	.LCFI10
 3384 020e 30000000 		.4byte	.LFE128
 3385 0212 0200     		.2byte	0x2
 3386 0214 7D       		.byte	0x7d
 3387 0215 08       		.sleb128 8
 3388 0216 00000000 		.4byte	0
 3389 021a 00000000 		.4byte	0
 3390              	.LLST21:
 3391 021e 1A000000 		.4byte	.LVL30
 3392 0222 21000000 		.4byte	.LVL31-1
 3393 0226 0100     		.2byte	0x1
 3394 0228 51       		.byte	0x51
 3395 0229 00000000 		.4byte	0
 3396 022d 00000000 		.4byte	0
 3397              	.LLST22:
 3398 0231 00000000 		.4byte	.LFB129
 3399 0235 10000000 		.4byte	.LCFI11
 3400 0239 0200     		.2byte	0x2
 3401 023b 7D       		.byte	0x7d
 3402 023c 00       		.sleb128 0
 3403 023d 10000000 		.4byte	.LCFI11
 3404 0241 30000000 		.4byte	.LFE129
 3405 0245 0200     		.2byte	0x2
 3406 0247 7D       		.byte	0x7d
 3407 0248 08       		.sleb128 8
 3408 0249 00000000 		.4byte	0
 3409 024d 00000000 		.4byte	0
 3410              	.LLST23:
 3411 0251 1A000000 		.4byte	.LVL33
 3412 0255 21000000 		.4byte	.LVL34-1
ARM GAS  /tmp/ccGifACe.s 			page 61


 3413 0259 0100     		.2byte	0x1
 3414 025b 51       		.byte	0x51
 3415 025c 00000000 		.4byte	0
 3416 0260 00000000 		.4byte	0
 3417              	.LLST24:
 3418 0264 00000000 		.4byte	.LFB130
 3419 0268 10000000 		.4byte	.LCFI12
 3420 026c 0200     		.2byte	0x2
 3421 026e 7D       		.byte	0x7d
 3422 026f 00       		.sleb128 0
 3423 0270 10000000 		.4byte	.LCFI12
 3424 0274 2C000000 		.4byte	.LFE130
 3425 0278 0200     		.2byte	0x2
 3426 027a 7D       		.byte	0x7d
 3427 027b 08       		.sleb128 8
 3428 027c 00000000 		.4byte	0
 3429 0280 00000000 		.4byte	0
 3430              	.LLST25:
 3431 0284 16000000 		.4byte	.LVL36
 3432 0288 1D000000 		.4byte	.LVL37-1
 3433 028c 0100     		.2byte	0x1
 3434 028e 51       		.byte	0x51
 3435 028f 00000000 		.4byte	0
 3436 0293 00000000 		.4byte	0
 3437              	.LLST26:
 3438 0297 00000000 		.4byte	.LFB131
 3439 029b 10000000 		.4byte	.LCFI13
 3440 029f 0200     		.2byte	0x2
 3441 02a1 7D       		.byte	0x7d
 3442 02a2 00       		.sleb128 0
 3443 02a3 10000000 		.4byte	.LCFI13
 3444 02a7 30000000 		.4byte	.LFE131
 3445 02ab 0200     		.2byte	0x2
 3446 02ad 7D       		.byte	0x7d
 3447 02ae 08       		.sleb128 8
 3448 02af 00000000 		.4byte	0
 3449 02b3 00000000 		.4byte	0
 3450              	.LLST27:
 3451 02b7 1A000000 		.4byte	.LVL39
 3452 02bb 21000000 		.4byte	.LVL40-1
 3453 02bf 0100     		.2byte	0x1
 3454 02c1 51       		.byte	0x51
 3455 02c2 00000000 		.4byte	0
 3456 02c6 00000000 		.4byte	0
 3457              	.LLST28:
 3458 02ca 00000000 		.4byte	.LFB132
 3459 02ce 10000000 		.4byte	.LCFI14
 3460 02d2 0200     		.2byte	0x2
 3461 02d4 7D       		.byte	0x7d
 3462 02d5 00       		.sleb128 0
 3463 02d6 10000000 		.4byte	.LCFI14
 3464 02da 30000000 		.4byte	.LFE132
 3465 02de 0200     		.2byte	0x2
 3466 02e0 7D       		.byte	0x7d
 3467 02e1 08       		.sleb128 8
 3468 02e2 00000000 		.4byte	0
 3469 02e6 00000000 		.4byte	0
ARM GAS  /tmp/ccGifACe.s 			page 62


 3470              	.LLST29:
 3471 02ea 1A000000 		.4byte	.LVL42
 3472 02ee 21000000 		.4byte	.LVL43-1
 3473 02f2 0100     		.2byte	0x1
 3474 02f4 51       		.byte	0x51
 3475 02f5 00000000 		.4byte	0
 3476 02f9 00000000 		.4byte	0
 3477              	.LLST30:
 3478 02fd 00000000 		.4byte	.LFB133
 3479 0301 10000000 		.4byte	.LCFI15
 3480 0305 0200     		.2byte	0x2
 3481 0307 7D       		.byte	0x7d
 3482 0308 00       		.sleb128 0
 3483 0309 10000000 		.4byte	.LCFI15
 3484 030d 30000000 		.4byte	.LFE133
 3485 0311 0200     		.2byte	0x2
 3486 0313 7D       		.byte	0x7d
 3487 0314 08       		.sleb128 8
 3488 0315 00000000 		.4byte	0
 3489 0319 00000000 		.4byte	0
 3490              	.LLST31:
 3491 031d 1A000000 		.4byte	.LVL45
 3492 0321 21000000 		.4byte	.LVL46-1
 3493 0325 0100     		.2byte	0x1
 3494 0327 51       		.byte	0x51
 3495 0328 00000000 		.4byte	0
 3496 032c 00000000 		.4byte	0
 3497              	.LLST32:
 3498 0330 00000000 		.4byte	.LFB134
 3499 0334 04000000 		.4byte	.LCFI16
 3500 0338 0200     		.2byte	0x2
 3501 033a 7D       		.byte	0x7d
 3502 033b 00       		.sleb128 0
 3503 033c 04000000 		.4byte	.LCFI16
 3504 0340 4C000000 		.4byte	.LFE134
 3505 0344 0200     		.2byte	0x2
 3506 0346 7D       		.byte	0x7d
 3507 0347 08       		.sleb128 8
 3508 0348 00000000 		.4byte	0
 3509 034c 00000000 		.4byte	0
 3510              	.LLST33:
 3511 0350 0C000000 		.4byte	.LVL48
 3512 0354 10000000 		.4byte	.LVL49
 3513 0358 0200     		.2byte	0x2
 3514 035a 30       		.byte	0x30
 3515 035b 9F       		.byte	0x9f
 3516 035c 00000000 		.4byte	0
 3517 0360 00000000 		.4byte	0
 3518              	.LLST34:
 3519 0364 00000000 		.4byte	.LFB135
 3520 0368 04000000 		.4byte	.LCFI17
 3521 036c 0200     		.2byte	0x2
 3522 036e 7D       		.byte	0x7d
 3523 036f 00       		.sleb128 0
 3524 0370 04000000 		.4byte	.LCFI17
 3525 0374 A4000000 		.4byte	.LFE135
 3526 0378 0200     		.2byte	0x2
ARM GAS  /tmp/ccGifACe.s 			page 63


 3527 037a 7D       		.byte	0x7d
 3528 037b 18       		.sleb128 24
 3529 037c 00000000 		.4byte	0
 3530 0380 00000000 		.4byte	0
 3531              	.LLST35:
 3532 0384 00000000 		.4byte	.LVL50
 3533 0388 82000000 		.4byte	.LVL52
 3534 038c 0100     		.2byte	0x1
 3535 038e 50       		.byte	0x50
 3536 038f 82000000 		.4byte	.LVL52
 3537 0393 8E000000 		.4byte	.LVL55
 3538 0397 0400     		.2byte	0x4
 3539 0399 F3       		.byte	0xf3
 3540 039a 01       		.uleb128 0x1
 3541 039b 50       		.byte	0x50
 3542 039c 9F       		.byte	0x9f
 3543 039d 8E000000 		.4byte	.LVL55
 3544 03a1 90000000 		.4byte	.LVL56
 3545 03a5 0100     		.2byte	0x1
 3546 03a7 50       		.byte	0x50
 3547 03a8 90000000 		.4byte	.LVL56
 3548 03ac 94000000 		.4byte	.LVL57
 3549 03b0 0400     		.2byte	0x4
 3550 03b2 F3       		.byte	0xf3
 3551 03b3 01       		.uleb128 0x1
 3552 03b4 50       		.byte	0x50
 3553 03b5 9F       		.byte	0x9f
 3554 03b6 94000000 		.4byte	.LVL57
 3555 03ba 96000000 		.4byte	.LVL58
 3556 03be 0100     		.2byte	0x1
 3557 03c0 50       		.byte	0x50
 3558 03c1 96000000 		.4byte	.LVL58
 3559 03c5 A4000000 		.4byte	.LFE135
 3560 03c9 0400     		.2byte	0x4
 3561 03cb F3       		.byte	0xf3
 3562 03cc 01       		.uleb128 0x1
 3563 03cd 50       		.byte	0x50
 3564 03ce 9F       		.byte	0x9f
 3565 03cf 00000000 		.4byte	0
 3566 03d3 00000000 		.4byte	0
 3567              	.LLST36:
 3568 03d7 00000000 		.4byte	.LVL50
 3569 03db 84000000 		.4byte	.LVL53
 3570 03df 0100     		.2byte	0x1
 3571 03e1 51       		.byte	0x51
 3572 03e2 84000000 		.4byte	.LVL53
 3573 03e6 8E000000 		.4byte	.LVL55
 3574 03ea 0400     		.2byte	0x4
 3575 03ec F3       		.byte	0xf3
 3576 03ed 01       		.uleb128 0x1
 3577 03ee 51       		.byte	0x51
 3578 03ef 9F       		.byte	0x9f
 3579 03f0 8E000000 		.4byte	.LVL55
 3580 03f4 A4000000 		.4byte	.LFE135
 3581 03f8 0100     		.2byte	0x1
 3582 03fa 51       		.byte	0x51
 3583 03fb 00000000 		.4byte	0
ARM GAS  /tmp/ccGifACe.s 			page 64


 3584 03ff 00000000 		.4byte	0
 3585              	.LLST37:
 3586 0403 00000000 		.4byte	.LVL50
 3587 0407 87000000 		.4byte	.LVL54-1
 3588 040b 0100     		.2byte	0x1
 3589 040d 52       		.byte	0x52
 3590 040e 87000000 		.4byte	.LVL54-1
 3591 0412 8E000000 		.4byte	.LVL55
 3592 0416 0400     		.2byte	0x4
 3593 0418 F3       		.byte	0xf3
 3594 0419 01       		.uleb128 0x1
 3595 041a 52       		.byte	0x52
 3596 041b 9F       		.byte	0x9f
 3597 041c 8E000000 		.4byte	.LVL55
 3598 0420 A4000000 		.4byte	.LFE135
 3599 0424 0100     		.2byte	0x1
 3600 0426 52       		.byte	0x52
 3601 0427 00000000 		.4byte	0
 3602 042b 00000000 		.4byte	0
 3603              	.LLST38:
 3604 042f 00000000 		.4byte	.LVL50
 3605 0433 2E000000 		.4byte	.LVL51
 3606 0437 0100     		.2byte	0x1
 3607 0439 53       		.byte	0x53
 3608 043a 2E000000 		.4byte	.LVL51
 3609 043e 87000000 		.4byte	.LVL54-1
 3610 0442 0200     		.2byte	0x2
 3611 0444 78       		.byte	0x78
 3612 0445 04       		.sleb128 4
 3613 0446 87000000 		.4byte	.LVL54-1
 3614 044a 8E000000 		.4byte	.LVL55
 3615 044e 0400     		.2byte	0x4
 3616 0450 F3       		.byte	0xf3
 3617 0451 01       		.uleb128 0x1
 3618 0452 53       		.byte	0x53
 3619 0453 9F       		.byte	0x9f
 3620 0454 8E000000 		.4byte	.LVL55
 3621 0458 94000000 		.4byte	.LVL57
 3622 045c 0100     		.2byte	0x1
 3623 045e 53       		.byte	0x53
 3624 045f 94000000 		.4byte	.LVL57
 3625 0463 A4000000 		.4byte	.LFE135
 3626 0467 0200     		.2byte	0x2
 3627 0469 78       		.byte	0x78
 3628 046a 04       		.sleb128 4
 3629 046b 00000000 		.4byte	0
 3630 046f 00000000 		.4byte	0
 3631              	.LLST39:
 3632 0473 00000000 		.4byte	.LFB136
 3633 0477 02000000 		.4byte	.LCFI18
 3634 047b 0200     		.2byte	0x2
 3635 047d 7D       		.byte	0x7d
 3636 047e 00       		.sleb128 0
 3637 047f 02000000 		.4byte	.LCFI18
 3638 0483 54000000 		.4byte	.LFE136
 3639 0487 0200     		.2byte	0x2
 3640 0489 7D       		.byte	0x7d
ARM GAS  /tmp/ccGifACe.s 			page 65


 3641 048a 08       		.sleb128 8
 3642 048b 00000000 		.4byte	0
 3643 048f 00000000 		.4byte	0
 3644              	.LLST40:
 3645 0493 00000000 		.4byte	.LVL59
 3646 0497 06000000 		.4byte	.LVL60
 3647 049b 0100     		.2byte	0x1
 3648 049d 50       		.byte	0x50
 3649 049e 06000000 		.4byte	.LVL60
 3650 04a2 54000000 		.4byte	.LFE136
 3651 04a6 0100     		.2byte	0x1
 3652 04a8 54       		.byte	0x54
 3653 04a9 00000000 		.4byte	0
 3654 04ad 00000000 		.4byte	0
 3655              		.section	.debug_aranges,"",%progbits
 3656 0000 AC000000 		.4byte	0xac
 3657 0004 0200     		.2byte	0x2
 3658 0006 00000000 		.4byte	.Ldebug_info0
 3659 000a 04       		.byte	0x4
 3660 000b 00       		.byte	0
 3661 000c 0000     		.2byte	0
 3662 000e 0000     		.2byte	0
 3663 0010 00000000 		.4byte	.LFB118
 3664 0014 2C000000 		.4byte	.LFE118-.LFB118
 3665 0018 00000000 		.4byte	.LFB119
 3666 001c 30000000 		.4byte	.LFE119-.LFB119
 3667 0020 00000000 		.4byte	.LFB120
 3668 0024 30000000 		.4byte	.LFE120-.LFB120
 3669 0028 00000000 		.4byte	.LFB121
 3670 002c 30000000 		.4byte	.LFE121-.LFB121
 3671 0030 00000000 		.4byte	.LFB122
 3672 0034 2C000000 		.4byte	.LFE122-.LFB122
 3673 0038 00000000 		.4byte	.LFB123
 3674 003c 30000000 		.4byte	.LFE123-.LFB123
 3675 0040 00000000 		.4byte	.LFB124
 3676 0044 30000000 		.4byte	.LFE124-.LFB124
 3677 0048 00000000 		.4byte	.LFB125
 3678 004c 30000000 		.4byte	.LFE125-.LFB125
 3679 0050 00000000 		.4byte	.LFB126
 3680 0054 2C000000 		.4byte	.LFE126-.LFB126
 3681 0058 00000000 		.4byte	.LFB127
 3682 005c 30000000 		.4byte	.LFE127-.LFB127
 3683 0060 00000000 		.4byte	.LFB128
 3684 0064 30000000 		.4byte	.LFE128-.LFB128
 3685 0068 00000000 		.4byte	.LFB129
 3686 006c 30000000 		.4byte	.LFE129-.LFB129
 3687 0070 00000000 		.4byte	.LFB130
 3688 0074 2C000000 		.4byte	.LFE130-.LFB130
 3689 0078 00000000 		.4byte	.LFB131
 3690 007c 30000000 		.4byte	.LFE131-.LFB131
 3691 0080 00000000 		.4byte	.LFB132
 3692 0084 30000000 		.4byte	.LFE132-.LFB132
 3693 0088 00000000 		.4byte	.LFB133
 3694 008c 30000000 		.4byte	.LFE133-.LFB133
 3695 0090 00000000 		.4byte	.LFB134
 3696 0094 4C000000 		.4byte	.LFE134-.LFB134
 3697 0098 00000000 		.4byte	.LFB135
ARM GAS  /tmp/ccGifACe.s 			page 66


 3698 009c A4000000 		.4byte	.LFE135-.LFB135
 3699 00a0 00000000 		.4byte	.LFB136
 3700 00a4 54000000 		.4byte	.LFE136-.LFB136
 3701 00a8 00000000 		.4byte	0
 3702 00ac 00000000 		.4byte	0
 3703              		.section	.debug_ranges,"",%progbits
 3704              	.Ldebug_ranges0:
 3705 0000 00000000 		.4byte	.LFB118
 3706 0004 2C000000 		.4byte	.LFE118
 3707 0008 00000000 		.4byte	.LFB119
 3708 000c 30000000 		.4byte	.LFE119
 3709 0010 00000000 		.4byte	.LFB120
 3710 0014 30000000 		.4byte	.LFE120
 3711 0018 00000000 		.4byte	.LFB121
 3712 001c 30000000 		.4byte	.LFE121
 3713 0020 00000000 		.4byte	.LFB122
 3714 0024 2C000000 		.4byte	.LFE122
 3715 0028 00000000 		.4byte	.LFB123
 3716 002c 30000000 		.4byte	.LFE123
 3717 0030 00000000 		.4byte	.LFB124
 3718 0034 30000000 		.4byte	.LFE124
 3719 0038 00000000 		.4byte	.LFB125
 3720 003c 30000000 		.4byte	.LFE125
 3721 0040 00000000 		.4byte	.LFB126
 3722 0044 2C000000 		.4byte	.LFE126
 3723 0048 00000000 		.4byte	.LFB127
 3724 004c 30000000 		.4byte	.LFE127
 3725 0050 00000000 		.4byte	.LFB128
 3726 0054 30000000 		.4byte	.LFE128
 3727 0058 00000000 		.4byte	.LFB129
 3728 005c 30000000 		.4byte	.LFE129
 3729 0060 00000000 		.4byte	.LFB130
 3730 0064 2C000000 		.4byte	.LFE130
 3731 0068 00000000 		.4byte	.LFB131
 3732 006c 30000000 		.4byte	.LFE131
 3733 0070 00000000 		.4byte	.LFB132
 3734 0074 30000000 		.4byte	.LFE132
 3735 0078 00000000 		.4byte	.LFB133
 3736 007c 30000000 		.4byte	.LFE133
 3737 0080 00000000 		.4byte	.LFB134
 3738 0084 4C000000 		.4byte	.LFE134
 3739 0088 00000000 		.4byte	.LFB135
 3740 008c A4000000 		.4byte	.LFE135
 3741 0090 00000000 		.4byte	.LFB136
 3742 0094 54000000 		.4byte	.LFE136
 3743 0098 00000000 		.4byte	0
 3744 009c 00000000 		.4byte	0
 3745              		.section	.debug_line,"",%progbits
 3746              	.Ldebug_line0:
 3747 0000 F2030000 		.section	.debug_str,"MS",%progbits,1
 3747      02007301 
 3747      00000201 
 3747      FB0E0D00 
 3747      01010101 
 3748              	.LASF151:
 3749 0000 646D615F 		.ascii	"dma_isr_redir_t\000"
 3749      6973725F 
ARM GAS  /tmp/ccGifACe.s 			page 67


 3749      72656469 
 3749      725F7400 
 3750              	.LASF134:
 3751 0010 41504231 		.ascii	"APB1LPENR\000"
 3751      4C50454E 
 3751      5200
 3752              	.LASF43:
 3753 001a 43414E31 		.ascii	"CAN1_RX0_IRQn\000"
 3753      5F525830 
 3753      5F495251 
 3753      6E00
 3754              	.LASF24:
 3755 0028 5056445F 		.ascii	"PVD_IRQn\000"
 3755      4952516E 
 3755      00
 3756              	.LASF87:
 3757 0031 43414E32 		.ascii	"CAN2_RX0_IRQn\000"
 3757      5F525830 
 3757      5F495251 
 3757      6E00
 3758              	.LASF106:
 3759 003f 4D304152 		.ascii	"M0AR\000"
 3759      00
 3760              	.LASF92:
 3761 0044 444D4132 		.ascii	"DMA2_Stream6_IRQn\000"
 3761      5F537472 
 3761      65616D36 
 3761      5F495251 
 3761      6E00
 3762              	.LASF46:
 3763 0056 45585449 		.ascii	"EXTI9_5_IRQn\000"
 3763      395F355F 
 3763      4952516E 
 3763      00
 3764              	.LASF96:
 3765 0063 49324333 		.ascii	"I2C3_ER_IRQn\000"
 3765      5F45525F 
 3765      4952516E 
 3765      00
 3766              	.LASF109:
 3767 0070 4C495352 		.ascii	"LISR\000"
 3767      00
 3768              	.LASF180:
 3769 0075 2E2E2F2E 		.ascii	"../../os/hal/platforms/STM32F4xx/stm32_dma.c\000"
 3769      2E2F6F73 
 3769      2F68616C 
 3769      2F706C61 
 3769      74666F72 
 3770              	.LASF54:
 3771 00a2 49324331 		.ascii	"I2C1_EV_IRQn\000"
 3771      5F45565F 
 3771      4952516E 
 3771      00
 3772              	.LASF91:
 3773 00af 444D4132 		.ascii	"DMA2_Stream5_IRQn\000"
 3773      5F537472 
 3773      65616D35 
ARM GAS  /tmp/ccGifACe.s 			page 68


 3773      5F495251 
 3773      6E00
 3774              	.LASF165:
 3775 00c1 56656374 		.ascii	"Vector130\000"
 3775      6F723133 
 3775      3000
 3776              	.LASF142:
 3777 00cb 73747265 		.ascii	"stream\000"
 3777      616D00
 3778              	.LASF44:
 3779 00d2 43414E31 		.ascii	"CAN1_RX1_IRQn\000"
 3779      5F525831 
 3779      5F495251 
 3779      6E00
 3780              	.LASF11:
 3781 00e0 6C6F6E67 		.ascii	"long long unsigned int\000"
 3781      206C6F6E 
 3781      6720756E 
 3781      7369676E 
 3781      65642069 
 3782              	.LASF64:
 3783 00f7 5254435F 		.ascii	"RTC_Alarm_IRQn\000"
 3783      416C6172 
 3783      6D5F4952 
 3783      516E00
 3784              	.LASF146:
 3785 0106 76656374 		.ascii	"vector\000"
 3785      6F7200
 3786              	.LASF178:
 3787 010d 5F73746D 		.ascii	"_stm32_dma_streams\000"
 3787      33325F64 
 3787      6D615F73 
 3787      74726561 
 3787      6D7300
 3788              	.LASF57:
 3789 0120 49324332 		.ascii	"I2C2_ER_IRQn\000"
 3789      5F45525F 
 3789      4952516E 
 3789      00
 3790              	.LASF53:
 3791 012d 54494D34 		.ascii	"TIM4_IRQn\000"
 3791      5F495251 
 3791      6E00
 3792              	.LASF26:
 3793 0137 5254435F 		.ascii	"RTC_WKUP_IRQn\000"
 3793      574B5550 
 3793      5F495251 
 3793      6E00
 3794              	.LASF23:
 3795 0145 57574447 		.ascii	"WWDG_IRQn\000"
 3795      5F495251 
 3795      6E00
 3796              	.LASF72:
 3797 014f 5344494F 		.ascii	"SDIO_IRQn\000"
 3797      5F495251 
 3797      6E00
 3798              	.LASF130:
ARM GAS  /tmp/ccGifACe.s 			page 69


 3799 0159 41484231 		.ascii	"AHB1LPENR\000"
 3799      4C50454E 
 3799      5200
 3800              	.LASF185:
 3801 0163 6E766963 		.ascii	"nvicEnableVector\000"
 3801      456E6162 
 3801      6C655665 
 3801      63746F72 
 3801      00
 3802              	.LASF69:
 3803 0174 54494D38 		.ascii	"TIM8_CC_IRQn\000"
 3803      5F43435F 
 3803      4952516E 
 3803      00
 3804              	.LASF10:
 3805 0181 6C6F6E67 		.ascii	"long long int\000"
 3805      206C6F6E 
 3805      6720696E 
 3805      7400
 3806              	.LASF1:
 3807 018f 7369676E 		.ascii	"signed char\000"
 3807      65642063 
 3807      68617200 
 3808              	.LASF88:
 3809 019b 43414E32 		.ascii	"CAN2_RX1_IRQn\000"
 3809      5F525831 
 3809      5F495251 
 3809      6E00
 3810              	.LASF102:
 3811 01a9 43525950 		.ascii	"CRYP_IRQn\000"
 3811      5F495251 
 3811      6E00
 3812              	.LASF116:
 3813 01b3 41484231 		.ascii	"AHB1RSTR\000"
 3813      52535452 
 3813      00
 3814              	.LASF168:
 3815 01bc 56656374 		.ascii	"Vector158\000"
 3815      6F723135 
 3815      3800
 3816              	.LASF12:
 3817 01c6 626F6F6C 		.ascii	"bool_t\000"
 3817      5F7400
 3818              	.LASF186:
 3819 01cd 6E766963 		.ascii	"nvicDisableVector\000"
 3819      44697361 
 3819      626C6556 
 3819      6563746F 
 3819      7200
 3820              	.LASF170:
 3821 01df 646D6173 		.ascii	"dmastp\000"
 3821      747000
 3822              	.LASF7:
 3823 01e6 6C6F6E67 		.ascii	"long int\000"
 3823      20696E74 
 3823      00
 3824              	.LASF121:
ARM GAS  /tmp/ccGifACe.s 			page 70


 3825 01ef 41504232 		.ascii	"APB2RSTR\000"
 3825      52535452 
 3825      00
 3826              	.LASF39:
 3827 01f8 444D4131 		.ascii	"DMA1_Stream5_IRQn\000"
 3827      5F537472 
 3827      65616D35 
 3827      5F495251 
 3827      6E00
 3828              	.LASF172:
 3829 020a 66756E63 		.ascii	"func\000"
 3829      00
 3830              	.LASF85:
 3831 020f 4554485F 		.ascii	"ETH_WKUP_IRQn\000"
 3831      574B5550 
 3831      5F495251 
 3831      6E00
 3832              	.LASF8:
 3833 021d 75696E74 		.ascii	"uint32_t\000"
 3833      33325F74 
 3833      00
 3834              	.LASF77:
 3835 0226 54494D36 		.ascii	"TIM6_DAC_IRQn\000"
 3835      5F444143 
 3835      5F495251 
 3835      6E00
 3836              	.LASF114:
 3837 0234 504C4C43 		.ascii	"PLLCFGR\000"
 3837      46475200 
 3838              	.LASF75:
 3839 023c 55415254 		.ascii	"UART4_IRQn\000"
 3839      345F4952 
 3839      516E00
 3840              	.LASF65:
 3841 0247 4F54475F 		.ascii	"OTG_FS_WKUP_IRQn\000"
 3841      46535F57 
 3841      4B55505F 
 3841      4952516E 
 3841      00
 3842              	.LASF21:
 3843 0258 50656E64 		.ascii	"PendSV_IRQn\000"
 3843      53565F49 
 3843      52516E00 
 3844              	.LASF67:
 3845 0264 54494D38 		.ascii	"TIM8_UP_TIM13_IRQn\000"
 3845      5F55505F 
 3845      54494D31 
 3845      335F4952 
 3845      516E00
 3846              	.LASF117:
 3847 0277 41484232 		.ascii	"AHB2RSTR\000"
 3847      52535452 
 3847      00
 3848              	.LASF145:
 3849 0280 73656C66 		.ascii	"selfindex\000"
 3849      696E6465 
 3849      7800
ARM GAS  /tmp/ccGifACe.s 			page 71


 3850              	.LASF93:
 3851 028a 444D4132 		.ascii	"DMA2_Stream7_IRQn\000"
 3851      5F537472 
 3851      65616D37 
 3851      5F495251 
 3851      6E00
 3852              	.LASF123:
 3853 029c 41484231 		.ascii	"AHB1ENR\000"
 3853      454E5200 
 3854              	.LASF113:
 3855 02a4 444D415F 		.ascii	"DMA_TypeDef\000"
 3855      54797065 
 3855      44656600 
 3856              	.LASF0:
 3857 02b0 756E7369 		.ascii	"unsigned int\000"
 3857      676E6564 
 3857      20696E74 
 3857      00
 3858              	.LASF166:
 3859 02bd 56656374 		.ascii	"Vector150\000"
 3859      6F723135 
 3859      3000
 3860              	.LASF37:
 3861 02c7 444D4131 		.ascii	"DMA1_Stream3_IRQn\000"
 3861      5F537472 
 3861      65616D33 
 3861      5F495251 
 3861      6E00
 3862              	.LASF40:
 3863 02d9 444D4131 		.ascii	"DMA1_Stream6_IRQn\000"
 3863      5F537472 
 3863      65616D36 
 3863      5F495251 
 3863      6E00
 3864              	.LASF167:
 3865 02eb 56656374 		.ascii	"Vector154\000"
 3865      6F723135 
 3865      3400
 3866              	.LASF16:
 3867 02f5 4D656D6F 		.ascii	"MemoryManagement_IRQn\000"
 3867      72794D61 
 3867      6E616765 
 3867      6D656E74 
 3867      5F495251 
 3868              	.LASF148:
 3869 030b 73746D33 		.ascii	"stm32_dmaisr_t\000"
 3869      325F646D 
 3869      61697372 
 3869      5F7400
 3870              	.LASF95:
 3871 031a 49324333 		.ascii	"I2C3_EV_IRQn\000"
 3871      5F45565F 
 3871      4952516E 
 3871      00
 3872              	.LASF9:
 3873 0327 6C6F6E67 		.ascii	"long unsigned int\000"
 3873      20756E73 
ARM GAS  /tmp/ccGifACe.s 			page 72


 3873      69676E65 
 3873      6420696E 
 3873      7400
 3874              	.LASF141:
 3875 0339 5243435F 		.ascii	"RCC_TypeDef\000"
 3875      54797065 
 3875      44656600 
 3876              	.LASF144:
 3877 0345 69736869 		.ascii	"ishift\000"
 3877      667400
 3878              	.LASF160:
 3879 034c 56656374 		.ascii	"VectorFC\000"
 3879      6F724643 
 3879      00
 3880              	.LASF97:
 3881 0355 4F54475F 		.ascii	"OTG_HS_EP1_OUT_IRQn\000"
 3881      48535F45 
 3881      50315F4F 
 3881      55545F49 
 3881      52516E00 
 3882              	.LASF19:
 3883 0369 53564361 		.ascii	"SVCall_IRQn\000"
 3883      6C6C5F49 
 3883      52516E00 
 3884              	.LASF4:
 3885 0375 73686F72 		.ascii	"short unsigned int\000"
 3885      7420756E 
 3885      7369676E 
 3885      65642069 
 3885      6E7400
 3886              	.LASF81:
 3887 0388 444D4132 		.ascii	"DMA2_Stream2_IRQn\000"
 3887      5F537472 
 3887      65616D32 
 3887      5F495251 
 3887      6E00
 3888              	.LASF140:
 3889 039a 504C4C49 		.ascii	"PLLI2SCFGR\000"
 3889      32534346 
 3889      475200
 3890              	.LASF42:
 3891 03a5 43414E31 		.ascii	"CAN1_TX_IRQn\000"
 3891      5F54585F 
 3891      4952516E 
 3891      00
 3892              	.LASF118:
 3893 03b2 41484233 		.ascii	"AHB3RSTR\000"
 3893      52535452 
 3893      00
 3894              	.LASF63:
 3895 03bb 45585449 		.ascii	"EXTI15_10_IRQn\000"
 3895      31355F31 
 3895      305F4952 
 3895      516E00
 3896              	.LASF58:
 3897 03ca 53504931 		.ascii	"SPI1_IRQn\000"
 3897      5F495251 
ARM GAS  /tmp/ccGifACe.s 			page 73


 3897      6E00
 3898              	.LASF35:
 3899 03d4 444D4131 		.ascii	"DMA1_Stream1_IRQn\000"
 3899      5F537472 
 3899      65616D31 
 3899      5F495251 
 3899      6E00
 3900              	.LASF171:
 3901 03e6 7072696F 		.ascii	"priority\000"
 3901      72697479 
 3901      00
 3902              	.LASF110:
 3903 03ef 48495352 		.ascii	"HISR\000"
 3903      00
 3904              	.LASF135:
 3905 03f4 41504232 		.ascii	"APB2LPENR\000"
 3905      4C50454E 
 3905      5200
 3906              	.LASF181:
 3907 03fe 2F686F6D 		.ascii	"/home/kwilson/Sandbox/ChibiOS_2.5.1/demos/ARMCM4-ST"
 3907      652F6B77 
 3907      696C736F 
 3907      6E2F5361 
 3907      6E64626F 
 3908 0431 4D333246 		.ascii	"M32F407-LWIP-FATFS-USB\000"
 3908      3430372D 
 3908      4C574950 
 3908      2D464154 
 3908      46532D55 
 3909              	.LASF66:
 3910 0448 54494D38 		.ascii	"TIM8_BRK_TIM12_IRQn\000"
 3910      5F42524B 
 3910      5F54494D 
 3910      31325F49 
 3910      52516E00 
 3911              	.LASF22:
 3912 045c 53797354 		.ascii	"SysTick_IRQn\000"
 3912      69636B5F 
 3912      4952516E 
 3912      00
 3913              	.LASF50:
 3914 0469 54494D31 		.ascii	"TIM1_CC_IRQn\000"
 3914      5F43435F 
 3914      4952516E 
 3914      00
 3915              	.LASF68:
 3916 0476 54494D38 		.ascii	"TIM8_TRG_COM_TIM14_IRQn\000"
 3916      5F545247 
 3916      5F434F4D 
 3916      5F54494D 
 3916      31345F49 
 3917              	.LASF182:
 3918 048e 4952516E 		.ascii	"IRQn\000"
 3918      00
 3919              	.LASF111:
 3920 0493 4C494643 		.ascii	"LIFCR\000"
 3920      5200
ARM GAS  /tmp/ccGifACe.s 			page 74


 3921              	.LASF13:
 3922 0499 73697A65 		.ascii	"sizetype\000"
 3922      74797065 
 3922      00
 3923              	.LASF84:
 3924 04a2 4554485F 		.ascii	"ETH_IRQn\000"
 3924      4952516E 
 3924      00
 3925              	.LASF48:
 3926 04ab 54494D31 		.ascii	"TIM1_UP_TIM10_IRQn\000"
 3926      5F55505F 
 3926      54494D31 
 3926      305F4952 
 3926      516E00
 3927              	.LASF82:
 3928 04be 444D4132 		.ascii	"DMA2_Stream3_IRQn\000"
 3928      5F537472 
 3928      65616D33 
 3928      5F495251 
 3928      6E00
 3929              	.LASF56:
 3930 04d0 49324332 		.ascii	"I2C2_EV_IRQn\000"
 3930      5F45565F 
 3930      4952516E 
 3930      00
 3931              	.LASF38:
 3932 04dd 444D4131 		.ascii	"DMA1_Stream4_IRQn\000"
 3932      5F537472 
 3932      65616D34 
 3932      5F495251 
 3932      6E00
 3933              	.LASF94:
 3934 04ef 55534152 		.ascii	"USART6_IRQn\000"
 3934      54365F49 
 3934      52516E00 
 3935              	.LASF173:
 3936 04fb 70617261 		.ascii	"param\000"
 3936      6D00
 3937              	.LASF73:
 3938 0501 54494D35 		.ascii	"TIM5_IRQn\000"
 3938      5F495251 
 3938      6E00
 3939              	.LASF32:
 3940 050b 45585449 		.ascii	"EXTI3_IRQn\000"
 3940      335F4952 
 3940      516E00
 3941              	.LASF59:
 3942 0516 53504932 		.ascii	"SPI2_IRQn\000"
 3942      5F495251 
 3942      6E00
 3943              	.LASF36:
 3944 0520 444D4131 		.ascii	"DMA1_Stream2_IRQn\000"
 3944      5F537472 
 3944      65616D32 
 3944      5F495251 
 3944      6E00
 3945              	.LASF86:
ARM GAS  /tmp/ccGifACe.s 			page 75


 3946 0532 43414E32 		.ascii	"CAN2_TX_IRQn\000"
 3946      5F54585F 
 3946      4952516E 
 3946      00
 3947              	.LASF131:
 3948 053f 41484232 		.ascii	"AHB2LPENR\000"
 3948      4C50454E 
 3948      5200
 3949              	.LASF149:
 3950 0549 646D615F 		.ascii	"dma_func\000"
 3950      66756E63 
 3950      00
 3951              	.LASF179:
 3952 0552 474E5520 		.ascii	"GNU C 4.7.2\000"
 3952      4320342E 
 3952      372E3200 
 3953              	.LASF120:
 3954 055e 41504231 		.ascii	"APB1RSTR\000"
 3954      52535452 
 3954      00
 3955              	.LASF100:
 3956 0567 4F54475F 		.ascii	"OTG_HS_IRQn\000"
 3956      48535F49 
 3956      52516E00 
 3957              	.LASF119:
 3958 0573 52455345 		.ascii	"RESERVED0\000"
 3958      52564544 
 3958      3000
 3959              	.LASF122:
 3960 057d 52455345 		.ascii	"RESERVED1\000"
 3960      52564544 
 3960      3100
 3961              	.LASF126:
 3962 0587 52455345 		.ascii	"RESERVED2\000"
 3962      52564544 
 3962      3200
 3963              	.LASF129:
 3964 0591 52455345 		.ascii	"RESERVED3\000"
 3964      52564544 
 3964      3300
 3965              	.LASF133:
 3966 059b 52455345 		.ascii	"RESERVED4\000"
 3966      52564544 
 3966      3400
 3967              	.LASF136:
 3968 05a5 52455345 		.ascii	"RESERVED5\000"
 3968      52564544 
 3968      3500
 3969              	.LASF138:
 3970 05af 52455345 		.ascii	"RESERVED6\000"
 3970      52564544 
 3970      3600
 3971              	.LASF147:
 3972 05b9 73746D33 		.ascii	"stm32_dma_stream_t\000"
 3972      325F646D 
 3972      615F7374 
 3972      7265616D 
ARM GAS  /tmp/ccGifACe.s 			page 76


 3972      5F7400
 3973              	.LASF74:
 3974 05cc 53504933 		.ascii	"SPI3_IRQn\000"
 3974      5F495251 
 3974      6E00
 3975              	.LASF152:
 3976 05d6 56656374 		.ascii	"Vector6C\000"
 3976      6F723643 
 3976      00
 3977              	.LASF83:
 3978 05df 444D4132 		.ascii	"DMA2_Stream4_IRQn\000"
 3978      5F537472 
 3978      65616D34 
 3978      5F495251 
 3978      6E00
 3979              	.LASF71:
 3980 05f1 46534D43 		.ascii	"FSMC_IRQn\000"
 3980      5F495251 
 3980      6E00
 3981              	.LASF6:
 3982 05fb 696E7433 		.ascii	"int32_t\000"
 3982      325F7400 
 3983              	.LASF2:
 3984 0603 756E7369 		.ascii	"unsigned char\000"
 3984      676E6564 
 3984      20636861 
 3984      7200
 3985              	.LASF47:
 3986 0611 54494D31 		.ascii	"TIM1_BRK_TIM9_IRQn\000"
 3986      5F42524B 
 3986      5F54494D 
 3986      395F4952 
 3986      516E00
 3987              	.LASF177:
 3988 0624 49544D5F 		.ascii	"ITM_RxBuffer\000"
 3988      52784275 
 3988      66666572 
 3988      00
 3989              	.LASF33:
 3990 0631 45585449 		.ascii	"EXTI4_IRQn\000"
 3990      345F4952 
 3990      516E00
 3991              	.LASF103:
 3992 063c 48415348 		.ascii	"HASH_RNG_IRQn\000"
 3992      5F524E47 
 3992      5F495251 
 3992      6E00
 3993              	.LASF3:
 3994 064a 73686F72 		.ascii	"short int\000"
 3994      7420696E 
 3994      7400
 3995              	.LASF132:
 3996 0654 41484233 		.ascii	"AHB3LPENR\000"
 3996      4C50454E 
 3996      5200
 3997              	.LASF76:
 3998 065e 55415254 		.ascii	"UART5_IRQn\000"
ARM GAS  /tmp/ccGifACe.s 			page 77


 3998      355F4952 
 3998      516E00
 3999              	.LASF49:
 4000 0669 54494D31 		.ascii	"TIM1_TRG_COM_TIM11_IRQn\000"
 4000      5F545247 
 4000      5F434F4D 
 4000      5F54494D 
 4000      31315F49 
 4001              	.LASF150:
 4002 0681 646D615F 		.ascii	"dma_param\000"
 4002      70617261 
 4002      6D00
 4003              	.LASF31:
 4004 068b 45585449 		.ascii	"EXTI2_IRQn\000"
 4004      325F4952 
 4004      516E00
 4005              	.LASF128:
 4006 0696 41504232 		.ascii	"APB2ENR\000"
 4006      454E5200 
 4007              	.LASF125:
 4008 069e 41484233 		.ascii	"AHB3ENR\000"
 4008      454E5200 
 4009              	.LASF27:
 4010 06a6 464C4153 		.ascii	"FLASH_IRQn\000"
 4010      485F4952 
 4010      516E00
 4011              	.LASF143:
 4012 06b1 69666372 		.ascii	"ifcr\000"
 4012      00
 4013              	.LASF153:
 4014 06b6 56656374 		.ascii	"Vector70\000"
 4014      6F723730 
 4014      00
 4015              	.LASF90:
 4016 06bf 4F54475F 		.ascii	"OTG_FS_IRQn\000"
 4016      46535F49 
 4016      52516E00 
 4017              	.LASF155:
 4018 06cb 56656374 		.ascii	"Vector74\000"
 4018      6F723734 
 4018      00
 4019              	.LASF61:
 4020 06d4 55534152 		.ascii	"USART2_IRQn\000"
 4020      54325F49 
 4020      52516E00 
 4021              	.LASF18:
 4022 06e0 55736167 		.ascii	"UsageFault_IRQn\000"
 4022      65466175 
 4022      6C745F49 
 4022      52516E00 
 4023              	.LASF156:
 4024 06f0 56656374 		.ascii	"Vector78\000"
 4024      6F723738 
 4024      00
 4025              	.LASF127:
 4026 06f9 41504231 		.ascii	"APB1ENR\000"
 4026      454E5200 
ARM GAS  /tmp/ccGifACe.s 			page 78


 4027              	.LASF169:
 4028 0701 646D6149 		.ascii	"dmaInit\000"
 4028      6E697400 
 4029              	.LASF70:
 4030 0709 444D4131 		.ascii	"DMA1_Stream7_IRQn\000"
 4030      5F537472 
 4030      65616D37 
 4030      5F495251 
 4030      6E00
 4031              	.LASF14:
 4032 071b 63686172 		.ascii	"char\000"
 4032      00
 4033              	.LASF174:
 4034 0720 646D6153 		.ascii	"dmaStreamRelease\000"
 4034      74726561 
 4034      6D52656C 
 4034      65617365 
 4034      00
 4035              	.LASF157:
 4036 0731 56656374 		.ascii	"Vector7C\000"
 4036      6F723743 
 4036      00
 4037              	.LASF17:
 4038 073a 42757346 		.ascii	"BusFault_IRQn\000"
 4038      61756C74 
 4038      5F495251 
 4038      6E00
 4039              	.LASF78:
 4040 0748 54494D37 		.ascii	"TIM7_IRQn\000"
 4040      5F495251 
 4040      6E00
 4041              	.LASF98:
 4042 0752 4F54475F 		.ascii	"OTG_HS_EP1_IN_IRQn\000"
 4042      48535F45 
 4042      50315F49 
 4042      4E5F4952 
 4042      516E00
 4043              	.LASF15:
 4044 0765 4E6F6E4D 		.ascii	"NonMaskableInt_IRQn\000"
 4044      61736B61 
 4044      626C6549 
 4044      6E745F49 
 4044      52516E00 
 4045              	.LASF105:
 4046 0779 4E445452 		.ascii	"NDTR\000"
 4046      00
 4047              	.LASF108:
 4048 077e 444D415F 		.ascii	"DMA_Stream_TypeDef\000"
 4048      53747265 
 4048      616D5F54 
 4048      79706544 
 4048      656600
 4049              	.LASF124:
 4050 0791 41484232 		.ascii	"AHB2ENR\000"
 4050      454E5200 
 4051              	.LASF25:
 4052 0799 54414D50 		.ascii	"TAMP_STAMP_IRQn\000"
ARM GAS  /tmp/ccGifACe.s 			page 79


 4052      5F535441 
 4052      4D505F49 
 4052      52516E00 
 4053              	.LASF175:
 4054 07a9 646D615F 		.ascii	"dma_streams_mask\000"
 4054      73747265 
 4054      616D735F 
 4054      6D61736B 
 4054      00
 4055              	.LASF20:
 4056 07ba 44656275 		.ascii	"DebugMonitor_IRQn\000"
 4056      674D6F6E 
 4056      69746F72 
 4056      5F495251 
 4056      6E00
 4057              	.LASF79:
 4058 07cc 444D4132 		.ascii	"DMA2_Stream0_IRQn\000"
 4058      5F537472 
 4058      65616D30 
 4058      5F495251 
 4058      6E00
 4059              	.LASF107:
 4060 07de 4D314152 		.ascii	"M1AR\000"
 4060      00
 4061              	.LASF158:
 4062 07e3 56656374 		.ascii	"Vector80\000"
 4062      6F723830 
 4062      00
 4063              	.LASF62:
 4064 07ec 55534152 		.ascii	"USART3_IRQn\000"
 4064      54335F49 
 4064      52516E00 
 4065              	.LASF139:
 4066 07f8 53534347 		.ascii	"SSCGR\000"
 4066      5200
 4067              	.LASF159:
 4068 07fe 56656374 		.ascii	"Vector84\000"
 4068      6F723834 
 4068      00
 4069              	.LASF51:
 4070 0807 54494D32 		.ascii	"TIM2_IRQn\000"
 4070      5F495251 
 4070      6E00
 4071              	.LASF29:
 4072 0811 45585449 		.ascii	"EXTI0_IRQn\000"
 4072      305F4952 
 4072      516E00
 4073              	.LASF60:
 4074 081c 55534152 		.ascii	"USART1_IRQn\000"
 4074      54315F49 
 4074      52516E00 
 4075              	.LASF137:
 4076 0828 42444352 		.ascii	"BDCR\000"
 4076      00
 4077              	.LASF184:
 4078 082d 5F706F72 		.ascii	"_port_irq_epilogue\000"
 4078      745F6972 
ARM GAS  /tmp/ccGifACe.s 			page 80


 4078      715F6570 
 4078      696C6F67 
 4078      756500
 4079              	.LASF5:
 4080 0840 75696E74 		.ascii	"uint8_t\000"
 4080      385F7400 
 4081              	.LASF154:
 4082 0848 666C6167 		.ascii	"flags\000"
 4082      7300
 4083              	.LASF101:
 4084 084e 44434D49 		.ascii	"DCMI_IRQn\000"
 4084      5F495251 
 4084      6E00
 4085              	.LASF176:
 4086 0858 646D615F 		.ascii	"dma_isr_redir\000"
 4086      6973725F 
 4086      72656469 
 4086      7200
 4087              	.LASF161:
 4088 0866 56656374 		.ascii	"Vector120\000"
 4088      6F723132 
 4088      3000
 4089              	.LASF104:
 4090 0870 4650555F 		.ascii	"FPU_IRQn\000"
 4090      4952516E 
 4090      00
 4091              	.LASF115:
 4092 0879 43464752 		.ascii	"CFGR\000"
 4092      00
 4093              	.LASF162:
 4094 087e 56656374 		.ascii	"Vector124\000"
 4094      6F723132 
 4094      3400
 4095              	.LASF163:
 4096 0888 56656374 		.ascii	"Vector128\000"
 4096      6F723132 
 4096      3800
 4097              	.LASF55:
 4098 0892 49324331 		.ascii	"I2C1_ER_IRQn\000"
 4098      5F45525F 
 4098      4952516E 
 4098      00
 4099              	.LASF41:
 4100 089f 4144435F 		.ascii	"ADC_IRQn\000"
 4100      4952516E 
 4100      00
 4101              	.LASF80:
 4102 08a8 444D4132 		.ascii	"DMA2_Stream1_IRQn\000"
 4102      5F537472 
 4102      65616D31 
 4102      5F495251 
 4102      6E00
 4103              	.LASF164:
 4104 08ba 56656374 		.ascii	"Vector12C\000"
 4104      6F723132 
 4104      4300
 4105              	.LASF112:
ARM GAS  /tmp/ccGifACe.s 			page 81


 4106 08c4 48494643 		.ascii	"HIFCR\000"
 4106      5200
 4107              	.LASF45:
 4108 08ca 43414E31 		.ascii	"CAN1_SCE_IRQn\000"
 4108      5F534345 
 4108      5F495251 
 4108      6E00
 4109              	.LASF183:
 4110 08d8 646D6153 		.ascii	"dmaStreamAllocate\000"
 4110      74726561 
 4110      6D416C6C 
 4110      6F636174 
 4110      6500
 4111              	.LASF89:
 4112 08ea 43414E32 		.ascii	"CAN2_SCE_IRQn\000"
 4112      5F534345 
 4112      5F495251 
 4112      6E00
 4113              	.LASF28:
 4114 08f8 5243435F 		.ascii	"RCC_IRQn\000"
 4114      4952516E 
 4114      00
 4115              	.LASF99:
 4116 0901 4F54475F 		.ascii	"OTG_HS_WKUP_IRQn\000"
 4116      48535F57 
 4116      4B55505F 
 4116      4952516E 
 4116      00
 4117              	.LASF52:
 4118 0912 54494D33 		.ascii	"TIM3_IRQn\000"
 4118      5F495251 
 4118      6E00
 4119              	.LASF30:
 4120 091c 45585449 		.ascii	"EXTI1_IRQn\000"
 4120      315F4952 
 4120      516E00
 4121              	.LASF34:
 4122 0927 444D4131 		.ascii	"DMA1_Stream0_IRQn\000"
 4122      5F537472 
 4122      65616D30 
 4122      5F495251 
 4122      6E00
 4123              		.ident	"GCC: (crosstool-NG 1.17.0 - PSAS ST32F4 GFE) 4.7.2"
ARM GAS  /tmp/ccGifACe.s 			page 82


DEFINED SYMBOLS
                            *ABS*:0000000000000000 stm32_dma.c
     /tmp/ccGifACe.s:21     .text.Vector6C:0000000000000000 $t
     /tmp/ccGifACe.s:27     .text.Vector6C:0000000000000000 Vector6C
     /tmp/ccGifACe.s:71     .text.Vector6C:0000000000000028 $d
     /tmp/ccGifACe.s:76     .text.Vector70:0000000000000000 $t
     /tmp/ccGifACe.s:82     .text.Vector70:0000000000000000 Vector70
     /tmp/ccGifACe.s:127    .text.Vector70:000000000000002c $d
     /tmp/ccGifACe.s:132    .text.Vector74:0000000000000000 $t
     /tmp/ccGifACe.s:138    .text.Vector74:0000000000000000 Vector74
     /tmp/ccGifACe.s:183    .text.Vector74:000000000000002c $d
     /tmp/ccGifACe.s:188    .text.Vector78:0000000000000000 $t
     /tmp/ccGifACe.s:194    .text.Vector78:0000000000000000 Vector78
     /tmp/ccGifACe.s:239    .text.Vector78:000000000000002c $d
     /tmp/ccGifACe.s:244    .text.Vector7C:0000000000000000 $t
     /tmp/ccGifACe.s:250    .text.Vector7C:0000000000000000 Vector7C
     /tmp/ccGifACe.s:293    .text.Vector7C:0000000000000028 $d
     /tmp/ccGifACe.s:298    .text.Vector80:0000000000000000 $t
     /tmp/ccGifACe.s:304    .text.Vector80:0000000000000000 Vector80
     /tmp/ccGifACe.s:349    .text.Vector80:000000000000002c $d
     /tmp/ccGifACe.s:354    .text.Vector84:0000000000000000 $t
     /tmp/ccGifACe.s:360    .text.Vector84:0000000000000000 Vector84
     /tmp/ccGifACe.s:405    .text.Vector84:000000000000002c $d
     /tmp/ccGifACe.s:410    .text.VectorFC:0000000000000000 $t
     /tmp/ccGifACe.s:416    .text.VectorFC:0000000000000000 VectorFC
     /tmp/ccGifACe.s:461    .text.VectorFC:000000000000002c $d
     /tmp/ccGifACe.s:466    .text.Vector120:0000000000000000 $t
     /tmp/ccGifACe.s:472    .text.Vector120:0000000000000000 Vector120
     /tmp/ccGifACe.s:515    .text.Vector120:0000000000000028 $d
     /tmp/ccGifACe.s:520    .text.Vector124:0000000000000000 $t
     /tmp/ccGifACe.s:526    .text.Vector124:0000000000000000 Vector124
     /tmp/ccGifACe.s:571    .text.Vector124:000000000000002c $d
     /tmp/ccGifACe.s:576    .text.Vector128:0000000000000000 $t
     /tmp/ccGifACe.s:582    .text.Vector128:0000000000000000 Vector128
     /tmp/ccGifACe.s:627    .text.Vector128:000000000000002c $d
     /tmp/ccGifACe.s:632    .text.Vector12C:0000000000000000 $t
     /tmp/ccGifACe.s:638    .text.Vector12C:0000000000000000 Vector12C
     /tmp/ccGifACe.s:683    .text.Vector12C:000000000000002c $d
     /tmp/ccGifACe.s:688    .text.Vector130:0000000000000000 $t
     /tmp/ccGifACe.s:694    .text.Vector130:0000000000000000 Vector130
     /tmp/ccGifACe.s:737    .text.Vector130:0000000000000028 $d
     /tmp/ccGifACe.s:742    .text.Vector150:0000000000000000 $t
     /tmp/ccGifACe.s:748    .text.Vector150:0000000000000000 Vector150
     /tmp/ccGifACe.s:793    .text.Vector150:000000000000002c $d
     /tmp/ccGifACe.s:798    .text.Vector154:0000000000000000 $t
     /tmp/ccGifACe.s:804    .text.Vector154:0000000000000000 Vector154
     /tmp/ccGifACe.s:849    .text.Vector154:000000000000002c $d
     /tmp/ccGifACe.s:854    .text.Vector158:0000000000000000 $t
     /tmp/ccGifACe.s:860    .text.Vector158:0000000000000000 Vector158
     /tmp/ccGifACe.s:905    .text.Vector158:000000000000002c $d
     /tmp/ccGifACe.s:910    .text.dmaInit:0000000000000000 $t
     /tmp/ccGifACe.s:916    .text.dmaInit:0000000000000000 dmaInit
     /tmp/ccGifACe.s:976    .text.dmaInit:0000000000000040 $d
     /tmp/ccGifACe.s:983    .text.dmaStreamAllocate:0000000000000000 $t
     /tmp/ccGifACe.s:989    .text.dmaStreamAllocate:0000000000000000 dmaStreamAllocate
     /tmp/ccGifACe.s:1097   .text.dmaStreamAllocate:000000000000009c $d
     /tmp/ccGifACe.s:1103   .text.dmaStreamRelease:0000000000000000 $t
ARM GAS  /tmp/ccGifACe.s 			page 83


     /tmp/ccGifACe.s:1109   .text.dmaStreamRelease:0000000000000000 dmaStreamRelease
     /tmp/ccGifACe.s:1161   .text.dmaStreamRelease:0000000000000050 $d
     /tmp/ccGifACe.s:1178   .rodata._stm32_dma_streams:0000000000000000 _stm32_dma_streams
     /tmp/ccGifACe.s:1167   .bss.dma_isr_redir:0000000000000000 $d
     /tmp/ccGifACe.s:1171   .bss.dma_isr_redir:0000000000000000 dma_isr_redir
     /tmp/ccGifACe.s:1174   .rodata._stm32_dma_streams:0000000000000000 $d
     /tmp/ccGifACe.s:1276   .bss.dma_streams_mask:0000000000000000 $d
     /tmp/ccGifACe.s:1280   .bss.dma_streams_mask:0000000000000000 dma_streams_mask
                     .debug_frame:0000000000000010 $d
     /tmp/ccGifACe.s:75     .text.Vector6C:000000000000002c $t
     /tmp/ccGifACe.s:297    .text.Vector7C:000000000000002c $t
     /tmp/ccGifACe.s:519    .text.Vector120:000000000000002c $t
     /tmp/ccGifACe.s:741    .text.Vector130:000000000000002c $t
     /tmp/ccGifACe.s:982    .text.dmaInit:000000000000004c $t
     /tmp/ccGifACe.s:1102   .text.dmaStreamAllocate:00000000000000a4 $t
     /tmp/ccGifACe.s:1166   .text.dmaStreamRelease:0000000000000054 $t

UNDEFINED SYMBOLS
_port_irq_epilogue
nvicEnableVector
nvicDisableVector
