ARM GAS  /tmp/ccGifACe.s 			page 1


   1              		.syntax unified
   2              		.cpu cortex-m4
   3              		.eabi_attribute 27, 3
   4              		.eabi_attribute 28, 1
   5              		.fpu fpv4-sp-d16
   6              		.eabi_attribute 20, 1
   7              		.eabi_attribute 21, 1
   8              		.eabi_attribute 23, 3
   9              		.eabi_attribute 24, 1
  10              		.eabi_attribute 25, 1
  11              		.eabi_attribute 26, 1
  12              		.eabi_attribute 30, 2
  13              		.eabi_attribute 34, 1
  14              		.eabi_attribute 18, 4
  15              		.thumb
  16              		.file	"stm32_dma.c"
  17              		.text
  18              	.Ltext0:
  19              		.cfi_sections	.debug_frame
  20              		.section	.text.Vector6C,"ax",%progbits
  21              		.align	2
  22              		.p2align 4,,15
  23              		.global	Vector6C
  24              		.thumb
  25              		.thumb_func
  26              		.type	Vector6C, %function
  27              	Vector6C:
  28              	.LFB118:
  29              		.file 1 "../../os/hal/platforms/STM32F4xx/stm32_dma.c"
  30              		.loc 1 132 0
  31              		.cfi_startproc
  32              		@ args = 0, pretend = 0, frame = 0
  33              		@ frame_needed = 0, uses_anonymous_args = 0
  34              		.loc 1 137 0
  35 0000 4FF4C043 		mov	r3, #24576
  36 0004 C4F20203 		movt	r3, 16386
  37              		.loc 1 139 0
  38 0008 0748     		ldr	r0, .L7
  39              		.loc 1 137 0
  40 000a 1968     		ldr	r1, [r3, #0]
  41              		.loc 1 139 0
  42 000c 0268     		ldr	r2, [r0, #0]
  43              		.loc 1 132 0
  44 000e 10B5     		push	{r4, lr}
  45              	.LCFI0:
  46              		.cfi_def_cfa_offset 8
  47              		.cfi_offset 4, -8
  48              		.cfi_offset 14, -4
  49              		.loc 1 138 0
  50 0010 3D24     		movs	r4, #61
  51              		.loc 1 137 0
  52 0012 01F03D01 		and	r1, r1, #61
  53              	.LVL0:
  54              		.loc 1 138 0
  55 0016 9C60     		str	r4, [r3, #8]
  56              		.loc 1 139 0
  57 0018 0AB1     		cbz	r2, .L2
ARM GAS  /tmp/ccGifACe.s 			page 2


  58              		.loc 1 140 0
  59 001a 4068     		ldr	r0, [r0, #4]
  60 001c 9047     		blx	r2
  61              	.LVL1:
  62              	.L2:
  63              		.loc 1 143 0
  64 001e BDE81040 		pop	{r4, lr}
  65              		.loc 1 142 0
  66 0022 FFF7FEBF 		b	_port_irq_epilogue
  67              	.LVL2:
  68              	.L8:
  69 0026 00BF     		.align	2
  70              	.L7:
  71 0028 00000000 		.word	.LANCHOR0
  72              		.cfi_endproc
  73              	.LFE118:
  74              		.size	Vector6C, .-Vector6C
  75 002c AFF30080 		.section	.text.Vector70,"ax",%progbits
  76              		.align	2
  77              		.p2align 4,,15
  78              		.global	Vector70
  79              		.thumb
  80              		.thumb_func
  81              		.type	Vector70, %function
  82              	Vector70:
  83              	.LFB119:
  84              		.loc 1 150 0
  85              		.cfi_startproc
  86              		@ args = 0, pretend = 0, frame = 0
  87              		@ frame_needed = 0, uses_anonymous_args = 0
  88              		.loc 1 155 0
  89 0000 4FF4C043 		mov	r3, #24576
  90 0004 C4F20203 		movt	r3, 16386
  91              		.loc 1 157 0
  92 0008 0848     		ldr	r0, .L14
  93              		.loc 1 155 0
  94 000a 1968     		ldr	r1, [r3, #0]
  95              		.loc 1 157 0
  96 000c 8268     		ldr	r2, [r0, #8]
  97              		.loc 1 150 0
  98 000e 10B5     		push	{r4, lr}
  99              	.LCFI1:
 100              		.cfi_def_cfa_offset 8
 101              		.cfi_offset 4, -8
 102              		.cfi_offset 14, -4
 103              		.loc 1 155 0
 104 0010 8909     		lsrs	r1, r1, #6
 105              		.loc 1 156 0
 106 0012 4FF47464 		mov	r4, #3904
 107              		.loc 1 155 0
 108 0016 01F03D01 		and	r1, r1, #61
 109              	.LVL3:
 110              		.loc 1 156 0
 111 001a 9C60     		str	r4, [r3, #8]
 112              		.loc 1 157 0
 113 001c 0AB1     		cbz	r2, .L10
 114              		.loc 1 158 0
ARM GAS  /tmp/ccGifACe.s 			page 3


 115 001e C068     		ldr	r0, [r0, #12]
 116 0020 9047     		blx	r2
 117              	.LVL4:
 118              	.L10:
 119              		.loc 1 161 0
 120 0022 BDE81040 		pop	{r4, lr}
 121              		.loc 1 160 0
 122 0026 FFF7FEBF 		b	_port_irq_epilogue
 123              	.LVL5:
 124              	.L15:
 125 002a 00BF     		.align	2
 126              	.L14:
 127 002c 00000000 		.word	.LANCHOR0
 128              		.cfi_endproc
 129              	.LFE119:
 130              		.size	Vector70, .-Vector70
 131              		.section	.text.Vector74,"ax",%progbits
 132              		.align	2
 133              		.p2align 4,,15
 134              		.global	Vector74
 135              		.thumb
 136              		.thumb_func
 137              		.type	Vector74, %function
 138              	Vector74:
 139              	.LFB120:
 140              		.loc 1 168 0
 141              		.cfi_startproc
 142              		@ args = 0, pretend = 0, frame = 0
 143              		@ frame_needed = 0, uses_anonymous_args = 0
 144              		.loc 1 173 0
 145 0000 4FF4C043 		mov	r3, #24576
 146 0004 C4F20203 		movt	r3, 16386
 147              		.loc 1 175 0
 148 0008 0848     		ldr	r0, .L21
 149              		.loc 1 173 0
 150 000a 1968     		ldr	r1, [r3, #0]
 151              		.loc 1 175 0
 152 000c 0269     		ldr	r2, [r0, #16]
 153              		.loc 1 168 0
 154 000e 10B5     		push	{r4, lr}
 155              	.LCFI2:
 156              		.cfi_def_cfa_offset 8
 157              		.cfi_offset 4, -8
 158              		.cfi_offset 14, -4
 159              		.loc 1 173 0
 160 0010 090C     		lsrs	r1, r1, #16
 161              		.loc 1 174 0
 162 0012 4FF47414 		mov	r4, #3997696
 163              		.loc 1 173 0
 164 0016 01F03D01 		and	r1, r1, #61
 165              	.LVL6:
 166              		.loc 1 174 0
 167 001a 9C60     		str	r4, [r3, #8]
 168              		.loc 1 175 0
 169 001c 0AB1     		cbz	r2, .L17
 170              		.loc 1 176 0
 171 001e 4069     		ldr	r0, [r0, #20]
ARM GAS  /tmp/ccGifACe.s 			page 4


 172 0020 9047     		blx	r2
 173              	.LVL7:
 174              	.L17:
 175              		.loc 1 179 0
 176 0022 BDE81040 		pop	{r4, lr}
 177              		.loc 1 178 0
 178 0026 FFF7FEBF 		b	_port_irq_epilogue
 179              	.LVL8:
 180              	.L22:
 181 002a 00BF     		.align	2
 182              	.L21:
 183 002c 00000000 		.word	.LANCHOR0
 184              		.cfi_endproc
 185              	.LFE120:
 186              		.size	Vector74, .-Vector74
 187              		.section	.text.Vector78,"ax",%progbits
 188              		.align	2
 189              		.p2align 4,,15
 190              		.global	Vector78
 191              		.thumb
 192              		.thumb_func
 193              		.type	Vector78, %function
 194              	Vector78:
 195              	.LFB121:
 196              		.loc 1 186 0
 197              		.cfi_startproc
 198              		@ args = 0, pretend = 0, frame = 0
 199              		@ frame_needed = 0, uses_anonymous_args = 0
 200              		.loc 1 191 0
 201 0000 4FF4C043 		mov	r3, #24576
 202 0004 C4F20203 		movt	r3, 16386
 203              		.loc 1 193 0
 204 0008 0848     		ldr	r0, .L28
 205              		.loc 1 191 0
 206 000a 1968     		ldr	r1, [r3, #0]
 207              		.loc 1 193 0
 208 000c 8269     		ldr	r2, [r0, #24]
 209              		.loc 1 186 0
 210 000e 10B5     		push	{r4, lr}
 211              	.LCFI3:
 212              		.cfi_def_cfa_offset 8
 213              		.cfi_offset 4, -8
 214              		.cfi_offset 14, -4
 215              		.loc 1 191 0
 216 0010 890D     		lsrs	r1, r1, #22
 217              		.loc 1 192 0
 218 0012 4FF07464 		mov	r4, #255852544
 219              		.loc 1 191 0
 220 0016 01F03D01 		and	r1, r1, #61
 221              	.LVL9:
 222              		.loc 1 192 0
 223 001a 9C60     		str	r4, [r3, #8]
 224              		.loc 1 193 0
 225 001c 0AB1     		cbz	r2, .L24
 226              		.loc 1 194 0
 227 001e C069     		ldr	r0, [r0, #28]
 228 0020 9047     		blx	r2
ARM GAS  /tmp/ccGifACe.s 			page 5


 229              	.LVL10:
 230              	.L24:
 231              		.loc 1 197 0
 232 0022 BDE81040 		pop	{r4, lr}
 233              		.loc 1 196 0
 234 0026 FFF7FEBF 		b	_port_irq_epilogue
 235              	.LVL11:
 236              	.L29:
 237 002a 00BF     		.align	2
 238              	.L28:
 239 002c 00000000 		.word	.LANCHOR0
 240              		.cfi_endproc
 241              	.LFE121:
 242              		.size	Vector78, .-Vector78
 243              		.section	.text.Vector7C,"ax",%progbits
 244              		.align	2
 245              		.p2align 4,,15
 246              		.global	Vector7C
 247              		.thumb
 248              		.thumb_func
 249              		.type	Vector7C, %function
 250              	Vector7C:
 251              	.LFB122:
 252              		.loc 1 204 0
 253              		.cfi_startproc
 254              		@ args = 0, pretend = 0, frame = 0
 255              		@ frame_needed = 0, uses_anonymous_args = 0
 256              		.loc 1 209 0
 257 0000 4FF4C043 		mov	r3, #24576
 258 0004 C4F20203 		movt	r3, 16386
 259              		.loc 1 211 0
 260 0008 0748     		ldr	r0, .L35
 261              		.loc 1 209 0
 262 000a 5968     		ldr	r1, [r3, #4]
 263              		.loc 1 211 0
 264 000c 026A     		ldr	r2, [r0, #32]
 265              		.loc 1 204 0
 266 000e 10B5     		push	{r4, lr}
 267              	.LCFI4:
 268              		.cfi_def_cfa_offset 8
 269              		.cfi_offset 4, -8
 270              		.cfi_offset 14, -4
 271              		.loc 1 210 0
 272 0010 3D24     		movs	r4, #61
 273              		.loc 1 209 0
 274 0012 01F03D01 		and	r1, r1, #61
 275              	.LVL12:
 276              		.loc 1 210 0
 277 0016 DC60     		str	r4, [r3, #12]
 278              		.loc 1 211 0
 279 0018 0AB1     		cbz	r2, .L31
 280              		.loc 1 212 0
 281 001a 406A     		ldr	r0, [r0, #36]
 282 001c 9047     		blx	r2
 283              	.LVL13:
 284              	.L31:
 285              		.loc 1 215 0
ARM GAS  /tmp/ccGifACe.s 			page 6


 286 001e BDE81040 		pop	{r4, lr}
 287              		.loc 1 214 0
 288 0022 FFF7FEBF 		b	_port_irq_epilogue
 289              	.LVL14:
 290              	.L36:
 291 0026 00BF     		.align	2
 292              	.L35:
 293 0028 00000000 		.word	.LANCHOR0
 294              		.cfi_endproc
 295              	.LFE122:
 296              		.size	Vector7C, .-Vector7C
 297 002c AFF30080 		.section	.text.Vector80,"ax",%progbits
 298              		.align	2
 299              		.p2align 4,,15
 300              		.global	Vector80
 301              		.thumb
 302              		.thumb_func
 303              		.type	Vector80, %function
 304              	Vector80:
 305              	.LFB123:
 306              		.loc 1 222 0
 307              		.cfi_startproc
 308              		@ args = 0, pretend = 0, frame = 0
 309              		@ frame_needed = 0, uses_anonymous_args = 0
 310              		.loc 1 227 0
 311 0000 4FF4C043 		mov	r3, #24576
 312 0004 C4F20203 		movt	r3, 16386
 313              		.loc 1 229 0
 314 0008 0848     		ldr	r0, .L42
 315              		.loc 1 227 0
 316 000a 5968     		ldr	r1, [r3, #4]
 317              		.loc 1 229 0
 318 000c 826A     		ldr	r2, [r0, #40]
 319              		.loc 1 222 0
 320 000e 10B5     		push	{r4, lr}
 321              	.LCFI5:
 322              		.cfi_def_cfa_offset 8
 323              		.cfi_offset 4, -8
 324              		.cfi_offset 14, -4
 325              		.loc 1 227 0
 326 0010 8909     		lsrs	r1, r1, #6
 327              		.loc 1 228 0
 328 0012 4FF47464 		mov	r4, #3904
 329              		.loc 1 227 0
 330 0016 01F03D01 		and	r1, r1, #61
 331              	.LVL15:
 332              		.loc 1 228 0
 333 001a DC60     		str	r4, [r3, #12]
 334              		.loc 1 229 0
 335 001c 0AB1     		cbz	r2, .L38
 336              		.loc 1 230 0
 337 001e C06A     		ldr	r0, [r0, #44]
 338 0020 9047     		blx	r2
 339              	.LVL16:
 340              	.L38:
 341              		.loc 1 233 0
 342 0022 BDE81040 		pop	{r4, lr}
ARM GAS  /tmp/ccGifACe.s 			page 7


 343              		.loc 1 232 0
 344 0026 FFF7FEBF 		b	_port_irq_epilogue
 345              	.LVL17:
 346              	.L43:
 347 002a 00BF     		.align	2
 348              	.L42:
 349 002c 00000000 		.word	.LANCHOR0
 350              		.cfi_endproc
 351              	.LFE123:
 352              		.size	Vector80, .-Vector80
 353              		.section	.text.Vector84,"ax",%progbits
 354              		.align	2
 355              		.p2align 4,,15
 356              		.global	Vector84
 357              		.thumb
 358              		.thumb_func
 359              		.type	Vector84, %function
 360              	Vector84:
 361              	.LFB124:
 362              		.loc 1 240 0
 363              		.cfi_startproc
 364              		@ args = 0, pretend = 0, frame = 0
 365              		@ frame_needed = 0, uses_anonymous_args = 0
 366              		.loc 1 245 0
 367 0000 4FF4C043 		mov	r3, #24576
 368 0004 C4F20203 		movt	r3, 16386
 369              		.loc 1 247 0
 370 0008 0848     		ldr	r0, .L49
 371              		.loc 1 245 0
 372 000a 5968     		ldr	r1, [r3, #4]
 373              		.loc 1 247 0
 374 000c 026B     		ldr	r2, [r0, #48]
 375              		.loc 1 240 0
 376 000e 10B5     		push	{r4, lr}
 377              	.LCFI6:
 378              		.cfi_def_cfa_offset 8
 379              		.cfi_offset 4, -8
 380              		.cfi_offset 14, -4
 381              		.loc 1 245 0
 382 0010 090C     		lsrs	r1, r1, #16
 383              		.loc 1 246 0
 384 0012 4FF47414 		mov	r4, #3997696
 385              		.loc 1 245 0
 386 0016 01F03D01 		and	r1, r1, #61
 387              	.LVL18:
 388              		.loc 1 246 0
 389 001a DC60     		str	r4, [r3, #12]
 390              		.loc 1 247 0
 391 001c 0AB1     		cbz	r2, .L45
 392              		.loc 1 248 0
 393 001e 406B     		ldr	r0, [r0, #52]
 394 0020 9047     		blx	r2
 395              	.LVL19:
 396              	.L45:
 397              		.loc 1 251 0
 398 0022 BDE81040 		pop	{r4, lr}
 399              		.loc 1 250 0
ARM GAS  /tmp/ccGifACe.s 			page 8


 400 0026 FFF7FEBF 		b	_port_irq_epilogue
 401              	.LVL20:
 402              	.L50:
 403 002a 00BF     		.align	2
 404              	.L49:
 405 002c 00000000 		.word	.LANCHOR0
 406              		.cfi_endproc
 407              	.LFE124:
 408              		.size	Vector84, .-Vector84
 409              		.section	.text.VectorFC,"ax",%progbits
 410              		.align	2
 411              		.p2align 4,,15
 412              		.global	VectorFC
 413              		.thumb
 414              		.thumb_func
 415              		.type	VectorFC, %function
 416              	VectorFC:
 417              	.LFB125:
 418              		.loc 1 258 0
 419              		.cfi_startproc
 420              		@ args = 0, pretend = 0, frame = 0
 421              		@ frame_needed = 0, uses_anonymous_args = 0
 422              		.loc 1 263 0
 423 0000 4FF4C043 		mov	r3, #24576
 424 0004 C4F20203 		movt	r3, 16386
 425              		.loc 1 265 0
 426 0008 0848     		ldr	r0, .L56
 427              		.loc 1 263 0
 428 000a 5968     		ldr	r1, [r3, #4]
 429              		.loc 1 265 0
 430 000c 826B     		ldr	r2, [r0, #56]
 431              		.loc 1 258 0
 432 000e 10B5     		push	{r4, lr}
 433              	.LCFI7:
 434              		.cfi_def_cfa_offset 8
 435              		.cfi_offset 4, -8
 436              		.cfi_offset 14, -4
 437              		.loc 1 263 0
 438 0010 890D     		lsrs	r1, r1, #22
 439              		.loc 1 264 0
 440 0012 4FF07464 		mov	r4, #255852544
 441              		.loc 1 263 0
 442 0016 01F03D01 		and	r1, r1, #61
 443              	.LVL21:
 444              		.loc 1 264 0
 445 001a DC60     		str	r4, [r3, #12]
 446              		.loc 1 265 0
 447 001c 0AB1     		cbz	r2, .L52
 448              		.loc 1 266 0
 449 001e C06B     		ldr	r0, [r0, #60]
 450 0020 9047     		blx	r2
 451              	.LVL22:
 452              	.L52:
 453              		.loc 1 269 0
 454 0022 BDE81040 		pop	{r4, lr}
 455              		.loc 1 268 0
 456 0026 FFF7FEBF 		b	_port_irq_epilogue
ARM GAS  /tmp/ccGifACe.s 			page 9


 457              	.LVL23:
 458              	.L57:
 459 002a 00BF     		.align	2
 460              	.L56:
 461 002c 00000000 		.word	.LANCHOR0
 462              		.cfi_endproc
 463              	.LFE125:
 464              		.size	VectorFC, .-VectorFC
 465              		.section	.text.Vector120,"ax",%progbits
 466              		.align	2
 467              		.p2align 4,,15
 468              		.global	Vector120
 469              		.thumb
 470              		.thumb_func
 471              		.type	Vector120, %function
 472              	Vector120:
 473              	.LFB126:
 474              		.loc 1 276 0
 475              		.cfi_startproc
 476              		@ args = 0, pretend = 0, frame = 0
 477              		@ frame_needed = 0, uses_anonymous_args = 0
 478              		.loc 1 281 0
 479 0000 4FF4C843 		mov	r3, #25600
 480 0004 C4F20203 		movt	r3, 16386
 481              		.loc 1 283 0
 482 0008 0748     		ldr	r0, .L63
 483              		.loc 1 281 0
 484 000a 1968     		ldr	r1, [r3, #0]
 485              		.loc 1 283 0
 486 000c 026C     		ldr	r2, [r0, #64]
 487              		.loc 1 276 0
 488 000e 10B5     		push	{r4, lr}
 489              	.LCFI8:
 490              		.cfi_def_cfa_offset 8
 491              		.cfi_offset 4, -8
 492              		.cfi_offset 14, -4
 493              		.loc 1 282 0
 494 0010 3D24     		movs	r4, #61
 495              		.loc 1 281 0
 496 0012 01F03D01 		and	r1, r1, #61
 497              	.LVL24:
 498              		.loc 1 282 0
 499 0016 9C60     		str	r4, [r3, #8]
 500              		.loc 1 283 0
 501 0018 0AB1     		cbz	r2, .L59
 502              		.loc 1 284 0
 503 001a 406C     		ldr	r0, [r0, #68]
 504 001c 9047     		blx	r2
 505              	.LVL25:
 506              	.L59:
 507              		.loc 1 287 0
 508 001e BDE81040 		pop	{r4, lr}
 509              		.loc 1 286 0
 510 0022 FFF7FEBF 		b	_port_irq_epilogue
 511              	.LVL26:
 512              	.L64:
 513 0026 00BF     		.align	2
ARM GAS  /tmp/ccGifACe.s 			page 10


 514              	.L63:
 515 0028 00000000 		.word	.LANCHOR0
 516              		.cfi_endproc
 517              	.LFE126:
 518              		.size	Vector120, .-Vector120
 519 002c AFF30080 		.section	.text.Vector124,"ax",%progbits
 520              		.align	2
 521              		.p2align 4,,15
 522              		.global	Vector124
 523              		.thumb
 524              		.thumb_func
 525              		.type	Vector124, %function
 526              	Vector124:
 527              	.LFB127:
 528              		.loc 1 294 0
 529              		.cfi_startproc
 530              		@ args = 0, pretend = 0, frame = 0
 531              		@ frame_needed = 0, uses_anonymous_args = 0
 532              		.loc 1 299 0
 533 0000 4FF4C843 		mov	r3, #25600
 534 0004 C4F20203 		movt	r3, 16386
 535              		.loc 1 301 0
 536 0008 0848     		ldr	r0, .L70
 537              		.loc 1 299 0
 538 000a 1968     		ldr	r1, [r3, #0]
 539              		.loc 1 301 0
 540 000c 826C     		ldr	r2, [r0, #72]
 541              		.loc 1 294 0
 542 000e 10B5     		push	{r4, lr}
 543              	.LCFI9:
 544              		.cfi_def_cfa_offset 8
 545              		.cfi_offset 4, -8
 546              		.cfi_offset 14, -4
 547              		.loc 1 299 0
 548 0010 8909     		lsrs	r1, r1, #6
 549              		.loc 1 300 0
 550 0012 4FF47464 		mov	r4, #3904
 551              		.loc 1 299 0
 552 0016 01F03D01 		and	r1, r1, #61
 553              	.LVL27:
 554              		.loc 1 300 0
 555 001a 9C60     		str	r4, [r3, #8]
 556              		.loc 1 301 0
 557 001c 0AB1     		cbz	r2, .L66
 558              		.loc 1 302 0
 559 001e C06C     		ldr	r0, [r0, #76]
 560 0020 9047     		blx	r2
 561              	.LVL28:
 562              	.L66:
 563              		.loc 1 305 0
 564 0022 BDE81040 		pop	{r4, lr}
 565              		.loc 1 304 0
 566 0026 FFF7FEBF 		b	_port_irq_epilogue
 567              	.LVL29:
 568              	.L71:
 569 002a 00BF     		.align	2
 570              	.L70:
ARM GAS  /tmp/ccGifACe.s 			page 11


 571 002c 00000000 		.word	.LANCHOR0
 572              		.cfi_endproc
 573              	.LFE127:
 574              		.size	Vector124, .-Vector124
 575              		.section	.text.Vector128,"ax",%progbits
 576              		.align	2
 577              		.p2align 4,,15
 578              		.global	Vector128
 579              		.thumb
 580              		.thumb_func
 581              		.type	Vector128, %function
 582              	Vector128:
 583              	.LFB128:
 584              		.loc 1 312 0
 585              		.cfi_startproc
 586              		@ args = 0, pretend = 0, frame = 0
 587              		@ frame_needed = 0, uses_anonymous_args = 0
 588              		.loc 1 317 0
 589 0000 4FF4C843 		mov	r3, #25600
 590 0004 C4F20203 		movt	r3, 16386
 591              		.loc 1 319 0
 592 0008 0848     		ldr	r0, .L77
 593              		.loc 1 317 0
 594 000a 1968     		ldr	r1, [r3, #0]
 595              		.loc 1 319 0
 596 000c 026D     		ldr	r2, [r0, #80]
 597              		.loc 1 312 0
 598 000e 10B5     		push	{r4, lr}
 599              	.LCFI10:
 600              		.cfi_def_cfa_offset 8
 601              		.cfi_offset 4, -8
 602              		.cfi_offset 14, -4
 603              		.loc 1 317 0
 604 0010 090C     		lsrs	r1, r1, #16
 605              		.loc 1 318 0
 606 0012 4FF47414 		mov	r4, #3997696
 607              		.loc 1 317 0
 608 0016 01F03D01 		and	r1, r1, #61
 609              	.LVL30:
 610              		.loc 1 318 0
 611 001a 9C60     		str	r4, [r3, #8]
 612              		.loc 1 319 0
 613 001c 0AB1     		cbz	r2, .L73
 614              		.loc 1 320 0
 615 001e 406D     		ldr	r0, [r0, #84]
 616 0020 9047     		blx	r2
 617              	.LVL31:
 618              	.L73:
 619              		.loc 1 323 0
 620 0022 BDE81040 		pop	{r4, lr}
 621              		.loc 1 322 0
 622 0026 FFF7FEBF 		b	_port_irq_epilogue
 623              	.LVL32:
 624              	.L78:
 625 002a 00BF     		.align	2
 626              	.L77:
 627 002c 00000000 		.word	.LANCHOR0
ARM GAS  /tmp/ccGifACe.s 			page 12


 628              		.cfi_endproc
 629              	.LFE128:
 630              		.size	Vector128, .-Vector128
 631              		.section	.text.Vector12C,"ax",%progbits
 632              		.align	2
 633              		.p2align 4,,15
 634              		.global	Vector12C
 635              		.thumb
 636              		.thumb_func
 637              		.type	Vector12C, %function
 638              	Vector12C:
 639              	.LFB129:
 640              		.loc 1 330 0
 641              		.cfi_startproc
 642              		@ args = 0, pretend = 0, frame = 0
 643              		@ frame_needed = 0, uses_anonymous_args = 0
 644              		.loc 1 335 0
 645 0000 4FF4C843 		mov	r3, #25600
 646 0004 C4F20203 		movt	r3, 16386
 647              		.loc 1 337 0
 648 0008 0848     		ldr	r0, .L84
 649              		.loc 1 335 0
 650 000a 1968     		ldr	r1, [r3, #0]
 651              		.loc 1 337 0
 652 000c 826D     		ldr	r2, [r0, #88]
 653              		.loc 1 330 0
 654 000e 10B5     		push	{r4, lr}
 655              	.LCFI11:
 656              		.cfi_def_cfa_offset 8
 657              		.cfi_offset 4, -8
 658              		.cfi_offset 14, -4
 659              		.loc 1 335 0
 660 0010 890D     		lsrs	r1, r1, #22
 661              		.loc 1 336 0
 662 0012 4FF07464 		mov	r4, #255852544
 663              		.loc 1 335 0
 664 0016 01F03D01 		and	r1, r1, #61
 665              	.LVL33:
 666              		.loc 1 336 0
 667 001a 9C60     		str	r4, [r3, #8]
 668              		.loc 1 337 0
 669 001c 0AB1     		cbz	r2, .L80
 670              		.loc 1 338 0
 671 001e C06D     		ldr	r0, [r0, #92]
 672 0020 9047     		blx	r2
 673              	.LVL34:
 674              	.L80:
 675              		.loc 1 341 0
 676 0022 BDE81040 		pop	{r4, lr}
 677              		.loc 1 340 0
 678 0026 FFF7FEBF 		b	_port_irq_epilogue
 679              	.LVL35:
 680              	.L85:
 681 002a 00BF     		.align	2
 682              	.L84:
 683 002c 00000000 		.word	.LANCHOR0
 684              		.cfi_endproc
ARM GAS  /tmp/ccGifACe.s 			page 13


 685              	.LFE129:
 686              		.size	Vector12C, .-Vector12C
 687              		.section	.text.Vector130,"ax",%progbits
 688              		.align	2
 689              		.p2align 4,,15
 690              		.global	Vector130
 691              		.thumb
 692              		.thumb_func
 693              		.type	Vector130, %function
 694              	Vector130:
 695              	.LFB130:
 696              		.loc 1 348 0
 697              		.cfi_startproc
 698              		@ args = 0, pretend = 0, frame = 0
 699              		@ frame_needed = 0, uses_anonymous_args = 0
 700              		.loc 1 353 0
 701 0000 4FF4C843 		mov	r3, #25600
 702 0004 C4F20203 		movt	r3, 16386
 703              		.loc 1 355 0
 704 0008 0748     		ldr	r0, .L91
 705              		.loc 1 353 0
 706 000a 5968     		ldr	r1, [r3, #4]
 707              		.loc 1 355 0
 708 000c 026E     		ldr	r2, [r0, #96]
 709              		.loc 1 348 0
 710 000e 10B5     		push	{r4, lr}
 711              	.LCFI12:
 712              		.cfi_def_cfa_offset 8
 713              		.cfi_offset 4, -8
 714              		.cfi_offset 14, -4
 715              		.loc 1 354 0
 716 0010 3D24     		movs	r4, #61
 717              		.loc 1 353 0
 718 0012 01F03D01 		and	r1, r1, #61
 719              	.LVL36:
 720              		.loc 1 354 0
 721 0016 DC60     		str	r4, [r3, #12]
 722              		.loc 1 355 0
 723 0018 0AB1     		cbz	r2, .L87
 724              		.loc 1 356 0
 725 001a 406E     		ldr	r0, [r0, #100]
 726 001c 9047     		blx	r2
 727              	.LVL37:
 728              	.L87:
 729              		.loc 1 359 0
 730 001e BDE81040 		pop	{r4, lr}
 731              		.loc 1 358 0
 732 0022 FFF7FEBF 		b	_port_irq_epilogue
 733              	.LVL38:
 734              	.L92:
 735 0026 00BF     		.align	2
 736              	.L91:
 737 0028 00000000 		.word	.LANCHOR0
 738              		.cfi_endproc
 739              	.LFE130:
 740              		.size	Vector130, .-Vector130
 741 002c AFF30080 		.section	.text.Vector150,"ax",%progbits
ARM GAS  /tmp/ccGifACe.s 			page 14


 742              		.align	2
 743              		.p2align 4,,15
 744              		.global	Vector150
 745              		.thumb
 746              		.thumb_func
 747              		.type	Vector150, %function
 748              	Vector150:
 749              	.LFB131:
 750              		.loc 1 366 0
 751              		.cfi_startproc
 752              		@ args = 0, pretend = 0, frame = 0
 753              		@ frame_needed = 0, uses_anonymous_args = 0
 754              		.loc 1 371 0
 755 0000 4FF4C843 		mov	r3, #25600
 756 0004 C4F20203 		movt	r3, 16386
 757              		.loc 1 373 0
 758 0008 0848     		ldr	r0, .L98
 759              		.loc 1 371 0
 760 000a 5968     		ldr	r1, [r3, #4]
 761              		.loc 1 373 0
 762 000c 826E     		ldr	r2, [r0, #104]
 763              		.loc 1 366 0
 764 000e 10B5     		push	{r4, lr}
 765              	.LCFI13:
 766              		.cfi_def_cfa_offset 8
 767              		.cfi_offset 4, -8
 768              		.cfi_offset 14, -4
 769              		.loc 1 371 0
 770 0010 8909     		lsrs	r1, r1, #6
 771              		.loc 1 372 0
 772 0012 4FF47464 		mov	r4, #3904
 773              		.loc 1 371 0
 774 0016 01F03D01 		and	r1, r1, #61
 775              	.LVL39:
 776              		.loc 1 372 0
 777 001a DC60     		str	r4, [r3, #12]
 778              		.loc 1 373 0
 779 001c 0AB1     		cbz	r2, .L94
 780              		.loc 1 374 0
 781 001e C06E     		ldr	r0, [r0, #108]
 782 0020 9047     		blx	r2
 783              	.LVL40:
 784              	.L94:
 785              		.loc 1 377 0
 786 0022 BDE81040 		pop	{r4, lr}
 787              		.loc 1 376 0
 788 0026 FFF7FEBF 		b	_port_irq_epilogue
 789              	.LVL41:
 790              	.L99:
 791 002a 00BF     		.align	2
 792              	.L98:
 793 002c 00000000 		.word	.LANCHOR0
 794              		.cfi_endproc
 795              	.LFE131:
 796              		.size	Vector150, .-Vector150
 797              		.section	.text.Vector154,"ax",%progbits
 798              		.align	2
ARM GAS  /tmp/ccGifACe.s 			page 15


 799              		.p2align 4,,15
 800              		.global	Vector154
 801              		.thumb
 802              		.thumb_func
 803              		.type	Vector154, %function
 804              	Vector154:
 805              	.LFB132:
 806              		.loc 1 384 0
 807              		.cfi_startproc
 808              		@ args = 0, pretend = 0, frame = 0
 809              		@ frame_needed = 0, uses_anonymous_args = 0
 810              		.loc 1 389 0
 811 0000 4FF4C843 		mov	r3, #25600
 812 0004 C4F20203 		movt	r3, 16386
 813              		.loc 1 391 0
 814 0008 0848     		ldr	r0, .L105
 815              		.loc 1 389 0
 816 000a 5968     		ldr	r1, [r3, #4]
 817              		.loc 1 391 0
 818 000c 026F     		ldr	r2, [r0, #112]
 819              		.loc 1 384 0
 820 000e 10B5     		push	{r4, lr}
 821              	.LCFI14:
 822              		.cfi_def_cfa_offset 8
 823              		.cfi_offset 4, -8
 824              		.cfi_offset 14, -4
 825              		.loc 1 389 0
 826 0010 090C     		lsrs	r1, r1, #16
 827              		.loc 1 390 0
 828 0012 4FF47414 		mov	r4, #3997696
 829              		.loc 1 389 0
 830 0016 01F03D01 		and	r1, r1, #61
 831              	.LVL42:
 832              		.loc 1 390 0
 833 001a DC60     		str	r4, [r3, #12]
 834              		.loc 1 391 0
 835 001c 0AB1     		cbz	r2, .L101
 836              		.loc 1 392 0
 837 001e 406F     		ldr	r0, [r0, #116]
 838 0020 9047     		blx	r2
 839              	.LVL43:
 840              	.L101:
 841              		.loc 1 395 0
 842 0022 BDE81040 		pop	{r4, lr}
 843              		.loc 1 394 0
 844 0026 FFF7FEBF 		b	_port_irq_epilogue
 845              	.LVL44:
 846              	.L106:
 847 002a 00BF     		.align	2
 848              	.L105:
 849 002c 00000000 		.word	.LANCHOR0
 850              		.cfi_endproc
 851              	.LFE132:
 852              		.size	Vector154, .-Vector154
 853              		.section	.text.Vector158,"ax",%progbits
 854              		.align	2
 855              		.p2align 4,,15
ARM GAS  /tmp/ccGifACe.s 			page 16


 856              		.global	Vector158
 857              		.thumb
 858              		.thumb_func
 859              		.type	Vector158, %function
 860              	Vector158:
 861              	.LFB133:
 862              		.loc 1 402 0
 863              		.cfi_startproc
 864              		@ args = 0, pretend = 0, frame = 0
 865              		@ frame_needed = 0, uses_anonymous_args = 0
 866              		.loc 1 407 0
 867 0000 4FF4C843 		mov	r3, #25600
 868 0004 C4F20203 		movt	r3, 16386
 869              		.loc 1 409 0
 870 0008 0848     		ldr	r0, .L112
 871              		.loc 1 407 0
 872 000a 5968     		ldr	r1, [r3, #4]
 873              		.loc 1 409 0
 874 000c 826F     		ldr	r2, [r0, #120]
 875              		.loc 1 402 0
 876 000e 10B5     		push	{r4, lr}
 877              	.LCFI15:
 878              		.cfi_def_cfa_offset 8
 879              		.cfi_offset 4, -8
 880              		.cfi_offset 14, -4
 881              		.loc 1 407 0
 882 0010 890D     		lsrs	r1, r1, #22
 883              		.loc 1 408 0
 884 0012 4FF07464 		mov	r4, #255852544
 885              		.loc 1 407 0
 886 0016 01F03D01 		and	r1, r1, #61
 887              	.LVL45:
 888              		.loc 1 408 0
 889 001a DC60     		str	r4, [r3, #12]
 890              		.loc 1 409 0
 891 001c 0AB1     		cbz	r2, .L108
 892              		.loc 1 410 0
 893 001e C06F     		ldr	r0, [r0, #124]
 894 0020 9047     		blx	r2
 895              	.LVL46:
 896              	.L108:
 897              		.loc 1 413 0
 898 0022 BDE81040 		pop	{r4, lr}
 899              		.loc 1 412 0
 900 0026 FFF7FEBF 		b	_port_irq_epilogue
 901              	.LVL47:
 902              	.L113:
 903 002a 00BF     		.align	2
 904              	.L112:
 905 002c 00000000 		.word	.LANCHOR0
 906              		.cfi_endproc
 907              	.LFE133:
 908              		.size	Vector158, .-Vector158
 909              		.section	.text.dmaInit,"ax",%progbits
 910              		.align	2
 911              		.p2align 4,,15
 912              		.global	dmaInit
ARM GAS  /tmp/ccGifACe.s 			page 17


 913              		.thumb
 914              		.thumb_func
 915              		.type	dmaInit, %function
 916              	dmaInit:
 917              	.LFB134:
 918              		.loc 1 424 0
 919              		.cfi_startproc
 920              		@ args = 0, pretend = 0, frame = 0
 921              		@ frame_needed = 0, uses_anonymous_args = 0
 922              		@ link register save eliminated.
 923              		.loc 1 427 0
 924 0000 0F4B     		ldr	r3, .L117
 925              		.loc 1 424 0
 926 0002 30B4     		push	{r4, r5}
 927              	.LCFI16:
 928              		.cfi_def_cfa_offset 8
 929              		.cfi_offset 4, -8
 930              		.cfi_offset 5, -4
 931              		.loc 1 427 0
 932 0004 0022     		movs	r2, #0
 933 0006 0F4D     		ldr	r5, .L117+4
 934 0008 0F4C     		ldr	r4, .L117+8
 935 000a 1A60     		str	r2, [r3, #0]
 936              	.LVL48:
 937              		.loc 1 429 0
 938 000c 1146     		mov	r1, r2
 939              		.loc 1 427 0
 940 000e 1346     		mov	r3, r2
 941              	.LVL49:
 942              	.L115:
 943              		.loc 1 429 0 discriminator 2
 944 0010 E858     		ldr	r0, [r5, r3]
 945 0012 0C33     		adds	r3, r3, #12
 946 0014 0160     		str	r1, [r0, #0]
 947              		.loc 1 430 0 discriminator 2
 948 0016 A150     		str	r1, [r4, r2]
 949 0018 0832     		adds	r2, r2, #8
 950              		.loc 1 428 0 discriminator 2
 951 001a C02B     		cmp	r3, #192
 952 001c F8D1     		bne	.L115
 953              		.loc 1 432 0
 954 001e 4FF4C041 		mov	r1, #24576
 955              		.loc 1 434 0
 956 0022 4FF4C842 		mov	r2, #25600
 957              		.loc 1 432 0
 958 0026 C4F20201 		movt	r1, 16386
 959              		.loc 1 434 0
 960 002a C4F20202 		movt	r2, 16386
 961              		.loc 1 432 0
 962 002e 4FF0FF33 		mov	r3, #-1
 963 0032 8B60     		str	r3, [r1, #8]
 964              		.loc 1 433 0
 965 0034 CB60     		str	r3, [r1, #12]
 966              		.loc 1 434 0
 967 0036 9360     		str	r3, [r2, #8]
 968              		.loc 1 435 0
 969 0038 D360     		str	r3, [r2, #12]
ARM GAS  /tmp/ccGifACe.s 			page 18


 970              		.loc 1 436 0
 971 003a 30BC     		pop	{r4, r5}
 972 003c 7047     		bx	lr
 973              	.L118:
 974 003e 00BF     		.align	2
 975              	.L117:
 976 0040 00000000 		.word	.LANCHOR1
 977 0044 00000000 		.word	.LANCHOR2
 978 0048 00000000 		.word	.LANCHOR0
 979              		.cfi_endproc
 980              	.LFE134:
 981              		.size	dmaInit, .-dmaInit
 982 004c AFF30080 		.section	.text.dmaStreamAllocate,"ax",%progbits
 983              		.align	2
 984              		.p2align 4,,15
 985              		.global	dmaStreamAllocate
 986              		.thumb
 987              		.thumb_func
 988              		.type	dmaStreamAllocate, %function
 989              	dmaStreamAllocate:
 990              	.LFB135:
 991              		.loc 1 465 0
 992              		.cfi_startproc
 993              		@ args = 0, pretend = 0, frame = 0
 994              		@ frame_needed = 0, uses_anonymous_args = 0
 995              	.LVL50:
 996 0000 2DE9F041 		push	{r4, r5, r6, r7, r8, lr}
 997              	.LCFI17:
 998              		.cfi_def_cfa_offset 24
 999              		.cfi_offset 4, -24
 1000              		.cfi_offset 5, -20
 1001              		.cfi_offset 6, -16
 1002              		.cfi_offset 7, -12
 1003              		.cfi_offset 8, -8
 1004              		.cfi_offset 14, -4
 1005              		.loc 1 470 0
 1006 0004 254E     		ldr	r6, .L133
 1007 0006 447A     		ldrb	r4, [r0, #9]	@ zero_extendqisi2
 1008 0008 3768     		ldr	r7, [r6, #0]
 1009 000a 0125     		movs	r5, #1
 1010 000c 05FA04FC 		lsl	ip, r5, r4
 1011 0010 1CEA070F 		tst	ip, r7
 1012 0014 3BD1     		bne	.L124
 1013              		.loc 1 474 0
 1014 0016 224D     		ldr	r5, .L133+4
 1015              		.loc 1 476 0
 1016 0018 4CEA0707 		orr	r7, ip, r7
 1017              		.loc 1 475 0
 1018 001c 05EBC408 		add	r8, r5, r4, lsl #3
 1019              		.loc 1 479 0
 1020 0020 17F0FF0F 		tst	r7, #255
 1021              		.loc 1 475 0
 1022 0024 C8F80430 		str	r3, [r8, #4]
 1023              		.loc 1 480 0
 1024 0028 1CBF     		itt	ne
 1025 002a 4FF46053 		movne	r3, #14336
 1026              	.LVL51:
ARM GAS  /tmp/ccGifACe.s 			page 19


 1027 002e C4F20203 		movtne	r3, 16386
 1028              		.loc 1 476 0
 1029 0032 3760     		str	r7, [r6, #0]
 1030              		.loc 1 474 0
 1031 0034 45F83420 		str	r2, [r5, r4, lsl #3]
 1032              		.loc 1 480 0
 1033 0038 1EBF     		ittt	ne
 1034 003a 1C6B     		ldrne	r4, [r3, #48]
 1035 003c 44F40014 		orrne	r4, r4, #2097152
 1036 0040 1C63     		strne	r4, [r3, #48]
 1037              		.loc 1 481 0
 1038 0042 17F47F4F 		tst	r7, #65280
 1039              		.loc 1 482 0
 1040 0046 1FBF     		itttt	ne
 1041 0048 4FF46053 		movne	r3, #14336
 1042 004c C4F20203 		movtne	r3, 16386
 1043 0050 1C6B     		ldrne	r4, [r3, #48]
 1044 0052 44F48004 		orrne	r4, r4, #4194304
 1045 0056 18BF     		it	ne
 1046 0058 1C63     		strne	r4, [r3, #48]
 1047              		.loc 1 485 0
 1048 005a 0468     		ldr	r4, [r0, #0]
 1049 005c 2368     		ldr	r3, [r4, #0]
 1050 005e 23F00103 		bic	r3, r3, #1
 1051 0062 2360     		str	r3, [r4, #0]
 1052              	.L123:
 1053              		.loc 1 485 0 is_stmt 0 discriminator 1
 1054 0064 2368     		ldr	r3, [r4, #0]
 1055 0066 13F00105 		ands	r5, r3, #1
 1056 006a FBD1     		bne	.L123
 1057              		.loc 1 485 0 discriminator 2
 1058 006c 067A     		ldrb	r6, [r0, #8]	@ zero_extendqisi2
 1059 006e 4368     		ldr	r3, [r0, #4]
 1060 0070 3D27     		movs	r7, #61
 1061 0072 07FA06F6 		lsl	r6, r7, r6
 1062 0076 1E60     		str	r6, [r3, #0]
 1063              		.loc 1 487 0 is_stmt 1 discriminator 2
 1064 0078 2123     		movs	r3, #33
 1065              		.loc 1 486 0 discriminator 2
 1066 007a 2560     		str	r5, [r4, #0]
 1067              		.loc 1 487 0 discriminator 2
 1068 007c 6361     		str	r3, [r4, #20]
 1069              		.loc 1 490 0 discriminator 2
 1070 007e 4AB1     		cbz	r2, .L125
 1071              		.loc 1 491 0
 1072 0080 807A     		ldrb	r0, [r0, #10]	@ zero_extendqisi2
 1073              	.LVL52:
 1074 0082 0901     		lsls	r1, r1, #4
 1075              	.LVL53:
 1076 0084 FFF7FEFF 		bl	nvicEnableVector
 1077              	.LVL54:
 1078              		.loc 1 493 0
 1079 0088 2846     		mov	r0, r5
 1080 008a BDE8F081 		pop	{r4, r5, r6, r7, r8, pc}
 1081              	.LVL55:
 1082              	.L124:
 1083              		.loc 1 471 0
ARM GAS  /tmp/ccGifACe.s 			page 20


 1084 008e 2846     		mov	r0, r5
 1085              	.LVL56:
 1086 0090 BDE8F081 		pop	{r4, r5, r6, r7, r8, pc}
 1087              	.LVL57:
 1088              	.L125:
 1089              		.loc 1 493 0
 1090 0094 1046     		mov	r0, r2
 1091              	.LVL58:
 1092              		.loc 1 494 0
 1093 0096 BDE8F081 		pop	{r4, r5, r6, r7, r8, pc}
 1094              	.L134:
 1095 009a 00BF     		.align	2
 1096              	.L133:
 1097 009c 00000000 		.word	.LANCHOR1
 1098 00a0 00000000 		.word	.LANCHOR0
 1099              		.cfi_endproc
 1100              	.LFE135:
 1101              		.size	dmaStreamAllocate, .-dmaStreamAllocate
 1102 00a4 AFF30080 		.section	.text.dmaStreamRelease,"ax",%progbits
 1102      AFF30080 
 1102      AFF30080 
 1103              		.align	2
 1104              		.p2align 4,,15
 1105              		.global	dmaStreamRelease
 1106              		.thumb
 1107              		.thumb_func
 1108              		.type	dmaStreamRelease, %function
 1109              	dmaStreamRelease:
 1110              	.LFB136:
 1111              		.loc 1 509 0
 1112              		.cfi_startproc
 1113              		@ args = 0, pretend = 0, frame = 0
 1114              		@ frame_needed = 0, uses_anonymous_args = 0
 1115              	.LVL59:
 1116 0000 10B5     		push	{r4, lr}
 1117              	.LCFI18:
 1118              		.cfi_def_cfa_offset 8
 1119              		.cfi_offset 4, -8
 1120              		.cfi_offset 14, -4
 1121              		.loc 1 509 0
 1122 0002 0446     		mov	r4, r0
 1123              		.loc 1 518 0
 1124 0004 807A     		ldrb	r0, [r0, #10]	@ zero_extendqisi2
 1125              	.LVL60:
 1126 0006 FFF7FEFF 		bl	nvicDisableVector
 1127              	.LVL61:
 1128              		.loc 1 521 0
 1129 000a 114A     		ldr	r2, .L138
 1130 000c 637A     		ldrb	r3, [r4, #9]	@ zero_extendqisi2
 1131 000e 1168     		ldr	r1, [r2, #0]
 1132 0010 0120     		movs	r0, #1
 1133 0012 00FA03F3 		lsl	r3, r0, r3
 1134 0016 21EA0303 		bic	r3, r1, r3
 1135              		.loc 1 524 0
 1136 001a 13F0FF0F 		tst	r3, #255
 1137              		.loc 1 521 0
 1138 001e 1360     		str	r3, [r2, #0]
ARM GAS  /tmp/ccGifACe.s 			page 21


 1139              		.loc 1 525 0
 1140 0020 01BF     		itttt	eq
 1141 0022 4FF46052 		moveq	r2, #14336
 1142 0026 C4F20202 		movteq	r2, 16386
 1143 002a 116B     		ldreq	r1, [r2, #48]
 1144 002c 21F40011 		biceq	r1, r1, #2097152
 1145 0030 08BF     		it	eq
 1146 0032 1163     		streq	r1, [r2, #48]
 1147              		.loc 1 526 0
 1148 0034 13F47F4F 		tst	r3, #65280
 1149              		.loc 1 527 0
 1150 0038 01BF     		itttt	eq
 1151 003a 4FF46053 		moveq	r3, #14336
 1152 003e C4F20203 		movteq	r3, 16386
 1153 0042 1A6B     		ldreq	r2, [r3, #48]
 1154 0044 22F48002 		biceq	r2, r2, #4194304
 1155 0048 08BF     		it	eq
 1156 004a 1A63     		streq	r2, [r3, #48]
 1157 004c 10BD     		pop	{r4, pc}
 1158              	.L139:
 1159 004e 00BF     		.align	2
 1160              	.L138:
 1161 0050 00000000 		.word	.LANCHOR1
 1162              		.cfi_endproc
 1163              	.LFE136:
 1164              		.size	dmaStreamRelease, .-dmaStreamRelease
 1165              		.global	_stm32_dma_streams
 1166 0054 AFF30080 		.section	.bss.dma_isr_redir,"aw",%nobits
 1166      AFF30080 
 1166      AFF30080 
 1167              		.align	2
 1168              		.set	.LANCHOR0,. + 0
 1169              		.type	dma_isr_redir, %object
 1170              		.size	dma_isr_redir, 128
 1171              	dma_isr_redir:
 1172 0000 00000000 		.space	128
 1172      00000000 
 1172      00000000 
 1172      00000000 
 1172      00000000 
 1173              		.section	.rodata._stm32_dma_streams,"a",%progbits
 1174              		.align	2
 1175              		.set	.LANCHOR2,. + 0
 1176              		.type	_stm32_dma_streams, %object
 1177              		.size	_stm32_dma_streams, 192
 1178              	_stm32_dma_streams:
 1179 0000 10600240 		.word	1073897488
 1180 0004 08600240 		.word	1073897480
 1181 0008 00       		.byte	0
 1182 0009 00       		.byte	0
 1183 000a 0B       		.byte	11
 1184 000b 00       		.space	1
 1185 000c 28600240 		.word	1073897512
 1186 0010 08600240 		.word	1073897480
 1187 0014 06       		.byte	6
 1188 0015 01       		.byte	1
 1189 0016 0C       		.byte	12
ARM GAS  /tmp/ccGifACe.s 			page 22


 1190 0017 00       		.space	1
 1191 0018 40600240 		.word	1073897536
 1192 001c 08600240 		.word	1073897480
 1193 0020 10       		.byte	16
 1194 0021 02       		.byte	2
 1195 0022 0D       		.byte	13
 1196 0023 00       		.space	1
 1197 0024 58600240 		.word	1073897560
 1198 0028 08600240 		.word	1073897480
 1199 002c 16       		.byte	22
 1200 002d 03       		.byte	3
 1201 002e 0E       		.byte	14
 1202 002f 00       		.space	1
 1203 0030 70600240 		.word	1073897584
 1204 0034 0C600240 		.word	1073897484
 1205 0038 00       		.byte	0
 1206 0039 04       		.byte	4
 1207 003a 0F       		.byte	15
 1208 003b 00       		.space	1
 1209 003c 88600240 		.word	1073897608
 1210 0040 0C600240 		.word	1073897484
 1211 0044 06       		.byte	6
 1212 0045 05       		.byte	5
 1213 0046 10       		.byte	16
 1214 0047 00       		.space	1
 1215 0048 A0600240 		.word	1073897632
 1216 004c 0C600240 		.word	1073897484
 1217 0050 10       		.byte	16
 1218 0051 06       		.byte	6
 1219 0052 11       		.byte	17
 1220 0053 00       		.space	1
 1221 0054 B8600240 		.word	1073897656
 1222 0058 0C600240 		.word	1073897484
 1223 005c 16       		.byte	22
 1224 005d 07       		.byte	7
 1225 005e 2F       		.byte	47
 1226 005f 00       		.space	1
 1227 0060 10640240 		.word	1073898512
 1228 0064 08640240 		.word	1073898504
 1229 0068 00       		.byte	0
 1230 0069 08       		.byte	8
 1231 006a 38       		.byte	56
 1232 006b 00       		.space	1
 1233 006c 28640240 		.word	1073898536
 1234 0070 08640240 		.word	1073898504
 1235 0074 06       		.byte	6
 1236 0075 09       		.byte	9
 1237 0076 39       		.byte	57
 1238 0077 00       		.space	1
 1239 0078 40640240 		.word	1073898560
 1240 007c 08640240 		.word	1073898504
 1241 0080 10       		.byte	16
 1242 0081 0A       		.byte	10
 1243 0082 3A       		.byte	58
 1244 0083 00       		.space	1
 1245 0084 58640240 		.word	1073898584
 1246 0088 08640240 		.word	1073898504
ARM GAS  /tmp/ccGifACe.s 			page 23


 1247 008c 16       		.byte	22
 1248 008d 0B       		.byte	11
 1249 008e 3B       		.byte	59
 1250 008f 00       		.space	1
 1251 0090 70640240 		.word	1073898608
 1252 0094 0C640240 		.word	1073898508
 1253 0098 00       		.byte	0
 1254 0099 0C       		.byte	12
 1255 009a 3C       		.byte	60
 1256 009b 00       		.space	1
 1257 009c 88640240 		.word	1073898632
 1258 00a0 0C640240 		.word	1073898508
 1259 00a4 06       		.byte	6
 1260 00a5 0D       		.byte	13
 1261 00a6 44       		.byte	68
 1262 00a7 00       		.space	1
 1263 00a8 A0640240 		.word	1073898656
 1264 00ac 0C640240 		.word	1073898508
 1265 00b0 10       		.byte	16
 1266 00b1 0E       		.byte	14
 1267 00b2 45       		.byte	69
 1268 00b3 00       		.space	1
 1269 00b4 B8640240 		.word	1073898680
 1270 00b8 0C640240 		.word	1073898508
 1271 00bc 16       		.byte	22
 1272 00bd 0F       		.byte	15
 1273 00be 46       		.byte	70
 1274 00bf 00       		.space	1
 1275              		.section	.bss.dma_streams_mask,"aw",%nobits
 1276              		.align	2
 1277              		.set	.LANCHOR1,. + 0
 1278              		.type	dma_streams_mask, %object
 1279              		.size	dma_streams_mask, 4
 1280              	dma_streams_mask:
 1281 0000 00000000 		.space	4
 1282              		.text
 1283              	.Letext0:
 1284              		.file 2 "/opt/psas/x-tools/stm32f407/arm-psas-eabi/bin/../lib/gcc/arm-psas-eabi/4.7.2/../../../../
 1285              		.file 3 "../../os/ports/GCC/ARMCMx/chtypes.h"
 1286              		.file 4 "../../os/hal/platforms/STM32F4xx/stm32f4xx.h"
 1287              		.file 5 "../../os/hal/platforms/STM32F4xx/stm32_dma.h"
 1288              		.file 6 "../../os/ports/common/ARMCMx/CMSIS/include/core_cm4.h"
 1289              		.file 7 "../../os/ports/GCC/ARMCMx/chcore_v7m.h"
 1290              		.file 8 "../../os/ports/common/ARMCMx/nvic.h"