ARM GAS  /tmp/cclVkWWf.s 			page 1


   1              		.syntax unified
   2              		.cpu cortex-m4
   3              		.eabi_attribute 27, 3
   4              		.eabi_attribute 28, 1
   5              		.fpu fpv4-sp-d16
   6              		.eabi_attribute 20, 1
   7              		.eabi_attribute 21, 1
   8              		.eabi_attribute 23, 3
   9              		.eabi_attribute 24, 1
  10              		.eabi_attribute 25, 1
  11              		.eabi_attribute 26, 1
  12              		.eabi_attribute 30, 2
  13              		.eabi_attribute 34, 1
  14              		.eabi_attribute 18, 4
  15              		.thumb
  16              		.file	"sys.c"
  17              		.text
  18              	.Ltext0:
  19              		.cfi_sections	.debug_frame
  20              		.section	.text.sys_msleep,"ax",%progbits
  21              		.align	2
  22              		.p2align 4,,15
  23              		.global	sys_msleep
  24              		.thumb
  25              		.thumb_func
  26              		.type	sys_msleep, %function
  27              	sys_msleep:
  28              	.LFB7:
  29              		.file 1 "../../ext/lwip/src/core/sys.c"
  30              		.loc 1 55 0
  31              		.cfi_startproc
  32              		@ args = 0, pretend = 0, frame = 8
  33              		@ frame_needed = 0, uses_anonymous_args = 0
  34              	.LVL0:
  35 0000 10B5     		push	{r4, lr}
  36              	.LCFI0:
  37              		.cfi_def_cfa_offset 8
  38              		.cfi_offset 4, -8
  39              		.cfi_offset 14, -4
  40              		.loc 1 56 0
  41 0002 0446     		mov	r4, r0
  42              		.loc 1 55 0
  43 0004 82B0     		sub	sp, sp, #8
  44              	.LCFI1:
  45              		.cfi_def_cfa_offset 16
  46              		.loc 1 56 0
  47 0006 08B9     		cbnz	r0, .L8
  48              	.LVL1:
  49              	.L1:
  50              		.loc 1 64 0
  51 0008 02B0     		add	sp, sp, #8
  52 000a 10BD     		pop	{r4, pc}
  53              	.LVL2:
  54              	.L8:
  55              	.LBB2:
  56              		.loc 1 58 0
  57 000c 01A8     		add	r0, sp, #4
ARM GAS  /tmp/cclVkWWf.s 			page 2


  58              	.LVL3:
  59 000e 0021     		movs	r1, #0
  60 0010 FFF7FEFF 		bl	sys_sem_new
  61              	.LVL4:
  62              		.loc 1 59 0
  63 0014 0028     		cmp	r0, #0
  64 0016 F7D1     		bne	.L1
  65              		.loc 1 60 0
  66 0018 01A8     		add	r0, sp, #4
  67              	.LVL5:
  68 001a 2146     		mov	r1, r4
  69 001c FFF7FEFF 		bl	sys_arch_sem_wait
  70              	.LVL6:
  71              		.loc 1 61 0
  72 0020 01A8     		add	r0, sp, #4
  73 0022 FFF7FEFF 		bl	sys_sem_free
  74              	.LVL7:
  75 0026 EFE7     		b	.L1
  76              	.LBE2:
  77              		.cfi_endproc
  78              	.LFE7:
  79              		.size	sys_msleep, .-sys_msleep
  80 0028 AFF30080 		.text
  80      AFF30080 
  81              	.Letext0:
  82              		.file 2 "/opt/psas/x-tools/stm32f407/arm-psas-eabi/bin/../lib/gcc/arm-psas-eabi/4.7.2/../../../../
  83              		.file 3 "../../os/ports/GCC/ARMCMx/chtypes.h"
  84              		.file 4 "../../os/kernel/include/chlists.h"
  85              		.file 5 "../../os/kernel/include/chthreads.h"
  86              		.file 6 "../../os/ports/GCC/ARMCMx/chcore_v7m.h"
  87              		.file 7 "../../os/kernel/include/chsem.h"
  88              		.file 8 "../../os/kernel/include/chmtx.h"
  89              		.file 9 "../../os/various/lwip_bindings/arch/cc.h"
  90              		.file 10 "../../ext/lwip/src/include/lwip/err.h"
  91              		.file 11 "../../os/various/lwip_bindings/arch/sys_arch.h"
  92              		.file 12 "../../ext/lwip/src/include/lwip/sys.h"
  93              		.section	.debug_info,"",%progbits
  94              	.Ldebug_info0:
  95 0000 36050000 		.4byte	0x536
  96 0004 0200     		.2byte	0x2
  97 0006 00000000 		.4byte	.Ldebug_abbrev0
  98 000a 04       		.byte	0x4
  99 000b 01       		.uleb128 0x1
 100 000c E0010000 		.4byte	.LASF68
 101 0010 01       		.byte	0x1
 102 0011 68000000 		.4byte	.LASF69
 103 0015 5A010000 		.4byte	.LASF70
 104 0019 00000000 		.4byte	.Ldebug_ranges0+0
 105 001d 00000000 		.4byte	0
 106 0021 00000000 		.4byte	0
 107 0025 00000000 		.4byte	.Ldebug_line0
 108 0029 02       		.uleb128 0x2
 109 002a 04       		.byte	0x4
 110 002b 05       		.byte	0x5
 111 002c 696E7400 		.ascii	"int\000"
 112 0030 03       		.uleb128 0x3
 113 0031 04       		.byte	0x4
ARM GAS  /tmp/cclVkWWf.s 			page 3


 114 0032 07       		.byte	0x7
 115 0033 E3000000 		.4byte	.LASF0
 116 0037 04       		.uleb128 0x4
 117 0038 9D020000 		.4byte	.LASF2
 118 003c 02       		.byte	0x2
 119 003d 29       		.byte	0x29
 120 003e 42000000 		.4byte	0x42
 121 0042 03       		.uleb128 0x3
 122 0043 01       		.byte	0x1
 123 0044 06       		.byte	0x6
 124 0045 5C000000 		.4byte	.LASF1
 125 0049 04       		.uleb128 0x4
 126 004a CC020000 		.4byte	.LASF3
 127 004e 02       		.byte	0x2
 128 004f 2A       		.byte	0x2a
 129 0050 54000000 		.4byte	0x54
 130 0054 03       		.uleb128 0x3
 131 0055 01       		.byte	0x1
 132 0056 08       		.byte	0x8
 133 0057 0B020000 		.4byte	.LASF4
 134 005b 03       		.uleb128 0x3
 135 005c 02       		.byte	0x2
 136 005d 05       		.byte	0x5
 137 005e 23020000 		.4byte	.LASF5
 138 0062 03       		.uleb128 0x3
 139 0063 02       		.byte	0x2
 140 0064 07       		.byte	0x7
 141 0065 21010000 		.4byte	.LASF6
 142 0069 04       		.uleb128 0x4
 143 006a 03020000 		.4byte	.LASF7
 144 006e 02       		.byte	0x2
 145 006f 4F       		.byte	0x4f
 146 0070 74000000 		.4byte	0x74
 147 0074 03       		.uleb128 0x3
 148 0075 04       		.byte	0x4
 149 0076 05       		.byte	0x5
 150 0077 A0000000 		.4byte	.LASF8
 151 007b 04       		.uleb128 0x4
 152 007c 6C020000 		.4byte	.LASF9
 153 0080 02       		.byte	0x2
 154 0081 50       		.byte	0x50
 155 0082 86000000 		.4byte	0x86
 156 0086 03       		.uleb128 0x3
 157 0087 04       		.byte	0x4
 158 0088 07       		.byte	0x7
 159 0089 FB000000 		.4byte	.LASF10
 160 008d 03       		.uleb128 0x3
 161 008e 08       		.byte	0x8
 162 008f 05       		.byte	0x5
 163 0090 4E000000 		.4byte	.LASF11
 164 0094 03       		.uleb128 0x3
 165 0095 08       		.byte	0x8
 166 0096 07       		.byte	0x7
 167 0097 1D000000 		.4byte	.LASF12
 168 009b 04       		.uleb128 0x4
 169 009c 3A010000 		.4byte	.LASF13
 170 00a0 03       		.byte	0x3
ARM GAS  /tmp/cclVkWWf.s 			page 4


 171 00a1 28       		.byte	0x28
 172 00a2 49000000 		.4byte	0x49
 173 00a6 04       		.uleb128 0x4
 174 00a7 A9000000 		.4byte	.LASF14
 175 00ab 03       		.byte	0x3
 176 00ac 29       		.byte	0x29
 177 00ad 49000000 		.4byte	0x49
 178 00b1 04       		.uleb128 0x4
 179 00b2 EC010000 		.4byte	.LASF15
 180 00b6 03       		.byte	0x3
 181 00b7 2A       		.byte	0x2a
 182 00b8 49000000 		.4byte	0x49
 183 00bc 04       		.uleb128 0x4
 184 00bd 96000000 		.4byte	.LASF16
 185 00c1 03       		.byte	0x3
 186 00c2 2B       		.byte	0x2b
 187 00c3 49000000 		.4byte	0x49
 188 00c7 04       		.uleb128 0x4
 189 00c8 FB010000 		.4byte	.LASF17
 190 00cc 03       		.byte	0x3
 191 00cd 2C       		.byte	0x2c
 192 00ce 7B000000 		.4byte	0x7b
 193 00d2 04       		.uleb128 0x4
 194 00d3 34010000 		.4byte	.LASF18
 195 00d7 03       		.byte	0x3
 196 00d8 2D       		.byte	0x2d
 197 00d9 69000000 		.4byte	0x69
 198 00dd 04       		.uleb128 0x4
 199 00de 4E010000 		.4byte	.LASF19
 200 00e2 03       		.byte	0x3
 201 00e3 2F       		.byte	0x2f
 202 00e4 7B000000 		.4byte	0x7b
 203 00e8 04       		.uleb128 0x4
 204 00e9 81020000 		.4byte	.LASF20
 205 00ed 03       		.byte	0x3
 206 00ee 31       		.byte	0x31
 207 00ef 7B000000 		.4byte	0x7b
 208 00f3 04       		.uleb128 0x4
 209 00f4 DD000000 		.4byte	.LASF21
 210 00f8 03       		.byte	0x3
 211 00f9 32       		.byte	0x32
 212 00fa 69000000 		.4byte	0x69
 213 00fe 04       		.uleb128 0x4
 214 00ff 55020000 		.4byte	.LASF22
 215 0103 04       		.byte	0x4
 216 0104 23       		.byte	0x23
 217 0105 09010000 		.4byte	0x109
 218 0109 05       		.uleb128 0x5
 219 010a 55020000 		.4byte	.LASF22
 220 010e 48       		.byte	0x48
 221 010f 05       		.byte	0x5
 222 0110 57       		.byte	0x57
 223 0111 2E020000 		.4byte	0x22e
 224 0115 06       		.uleb128 0x6
 225 0116 46020000 		.4byte	.LASF23
 226 011a 05       		.byte	0x5
 227 011b 58       		.byte	0x58
ARM GAS  /tmp/cclVkWWf.s 			page 5


 228 011c 53020000 		.4byte	0x253
 229 0120 02       		.byte	0x2
 230 0121 23       		.byte	0x23
 231 0122 00       		.uleb128 0
 232 0123 06       		.uleb128 0x6
 233 0124 F4010000 		.4byte	.LASF24
 234 0128 05       		.byte	0x5
 235 0129 5A       		.byte	0x5a
 236 012a 53020000 		.4byte	0x253
 237 012e 02       		.byte	0x2
 238 012f 23       		.byte	0x23
 239 0130 04       		.uleb128 0x4
 240 0131 06       		.uleb128 0x6
 241 0132 3D000000 		.4byte	.LASF25
 242 0136 05       		.byte	0x5
 243 0137 5C       		.byte	0x5c
 244 0138 C7000000 		.4byte	0xc7
 245 013c 02       		.byte	0x2
 246 013d 23       		.byte	0x23
 247 013e 08       		.uleb128 0x8
 248 013f 06       		.uleb128 0x6
 249 0140 EA020000 		.4byte	.LASF26
 250 0144 05       		.byte	0x5
 251 0145 5D       		.byte	0x5d
 252 0146 21030000 		.4byte	0x321
 253 014a 02       		.byte	0x2
 254 014b 23       		.byte	0x23
 255 014c 0C       		.uleb128 0xc
 256 014d 06       		.uleb128 0x6
 257 014e B2000000 		.4byte	.LASF27
 258 0152 05       		.byte	0x5
 259 0153 5F       		.byte	0x5f
 260 0154 53020000 		.4byte	0x253
 261 0158 02       		.byte	0x2
 262 0159 23       		.byte	0x23
 263 015a 10       		.uleb128 0x10
 264 015b 06       		.uleb128 0x6
 265 015c CB010000 		.4byte	.LASF28
 266 0160 05       		.byte	0x5
 267 0161 60       		.byte	0x60
 268 0162 53020000 		.4byte	0x253
 269 0166 02       		.byte	0x2
 270 0167 23       		.byte	0x23
 271 0168 14       		.uleb128 0x14
 272 0169 06       		.uleb128 0x6
 273 016a DB020000 		.4byte	.LASF29
 274 016e 05       		.byte	0x5
 275 016f 67       		.byte	0x67
 276 0170 01040000 		.4byte	0x401
 277 0174 02       		.byte	0x2
 278 0175 23       		.byte	0x23
 279 0176 18       		.uleb128 0x18
 280 0177 06       		.uleb128 0x6
 281 0178 2D020000 		.4byte	.LASF30
 282 017c 05       		.byte	0x5
 283 017d 72       		.byte	0x72
 284 017e A6000000 		.4byte	0xa6
ARM GAS  /tmp/cclVkWWf.s 			page 6


 285 0182 02       		.byte	0x2
 286 0183 23       		.byte	0x23
 287 0184 1C       		.uleb128 0x1c
 288 0185 06       		.uleb128 0x6
 289 0186 4D020000 		.4byte	.LASF31
 290 018a 05       		.byte	0x5
 291 018b 76       		.byte	0x76
 292 018c 9B000000 		.4byte	0x9b
 293 0190 02       		.byte	0x2
 294 0191 23       		.byte	0x23
 295 0192 1D       		.uleb128 0x1d
 296 0193 06       		.uleb128 0x6
 297 0194 C5020000 		.4byte	.LASF32
 298 0198 05       		.byte	0x5
 299 0199 7B       		.byte	0x7b
 300 019a B1000000 		.4byte	0xb1
 301 019e 02       		.byte	0x2
 302 019f 23       		.byte	0x23
 303 01a0 1E       		.uleb128 0x1e
 304 01a1 06       		.uleb128 0x6
 305 01a2 35020000 		.4byte	.LASF33
 306 01a6 05       		.byte	0x5
 307 01a7 81       		.byte	0x81
 308 01a8 BC000000 		.4byte	0xbc
 309 01ac 02       		.byte	0x2
 310 01ad 23       		.byte	0x23
 311 01ae 1F       		.uleb128 0x1f
 312 01af 06       		.uleb128 0x6
 313 01b0 96020000 		.4byte	.LASF34
 314 01b4 05       		.byte	0x5
 315 01b5 88       		.byte	0x88
 316 01b6 4B030000 		.4byte	0x34b
 317 01ba 02       		.byte	0x2
 318 01bb 23       		.byte	0x23
 319 01bc 20       		.uleb128 0x20
 320 01bd 07       		.uleb128 0x7
 321 01be 705F7500 		.ascii	"p_u\000"
 322 01c2 05       		.byte	0x5
 323 01c3 AD       		.byte	0xad
 324 01c4 CC030000 		.4byte	0x3cc
 325 01c8 02       		.byte	0x2
 326 01c9 23       		.byte	0x23
 327 01ca 24       		.uleb128 0x24
 328 01cb 06       		.uleb128 0x6
 329 01cc F0020000 		.4byte	.LASF35
 330 01d0 05       		.byte	0x5
 331 01d1 B2       		.byte	0xb2
 332 01d2 7B020000 		.4byte	0x27b
 333 01d6 02       		.byte	0x2
 334 01d7 23       		.byte	0x23
 335 01d8 28       		.uleb128 0x28
 336 01d9 06       		.uleb128 0x6
 337 01da A4020000 		.4byte	.LASF36
 338 01de 05       		.byte	0x5
 339 01df B8       		.byte	0xb8
 340 01e0 59020000 		.4byte	0x259
 341 01e4 02       		.byte	0x2
ARM GAS  /tmp/cclVkWWf.s 			page 7


 342 01e5 23       		.byte	0x23
 343 01e6 2C       		.uleb128 0x2c
 344 01e7 06       		.uleb128 0x6
 345 01e8 07000000 		.4byte	.LASF37
 346 01ec 05       		.byte	0x5
 347 01ed BC       		.byte	0xbc
 348 01ee D2000000 		.4byte	0xd2
 349 01f2 02       		.byte	0x2
 350 01f3 23       		.byte	0x23
 351 01f4 34       		.uleb128 0x34
 352 01f5 06       		.uleb128 0x6
 353 01f6 61020000 		.4byte	.LASF38
 354 01fa 05       		.byte	0x5
 355 01fb C2       		.byte	0xc2
 356 01fc DD000000 		.4byte	0xdd
 357 0200 02       		.byte	0x2
 358 0201 23       		.byte	0x23
 359 0202 38       		.uleb128 0x38
 360 0203 06       		.uleb128 0x6
 361 0204 19020000 		.4byte	.LASF39
 362 0208 05       		.byte	0x5
 363 0209 C9       		.byte	0xc9
 364 020a 13040000 		.4byte	0x413
 365 020e 02       		.byte	0x2
 366 020f 23       		.byte	0x23
 367 0210 3C       		.uleb128 0x3c
 368 0211 06       		.uleb128 0x6
 369 0212 8B020000 		.4byte	.LASF40
 370 0216 05       		.byte	0x5
 371 0217 CD       		.byte	0xcd
 372 0218 C7000000 		.4byte	0xc7
 373 021c 02       		.byte	0x2
 374 021d 23       		.byte	0x23
 375 021e 40       		.uleb128 0x40
 376 021f 06       		.uleb128 0x6
 377 0220 86000000 		.4byte	.LASF41
 378 0224 05       		.byte	0x5
 379 0225 D3       		.byte	0xd3
 380 0226 91020000 		.4byte	0x291
 381 022a 02       		.byte	0x2
 382 022b 23       		.byte	0x23
 383 022c 44       		.uleb128 0x44
 384 022d 00       		.byte	0
 385 022e 08       		.uleb128 0x8
 386 022f 08       		.byte	0x8
 387 0230 04       		.byte	0x4
 388 0231 5A       		.byte	0x5a
 389 0232 53020000 		.4byte	0x253
 390 0236 06       		.uleb128 0x6
 391 0237 46020000 		.4byte	.LASF23
 392 023b 04       		.byte	0x4
 393 023c 5B       		.byte	0x5b
 394 023d 53020000 		.4byte	0x253
 395 0241 02       		.byte	0x2
 396 0242 23       		.byte	0x23
 397 0243 00       		.uleb128 0
 398 0244 06       		.uleb128 0x6
ARM GAS  /tmp/cclVkWWf.s 			page 8


 399 0245 F4010000 		.4byte	.LASF24
 400 0249 04       		.byte	0x4
 401 024a 5D       		.byte	0x5d
 402 024b 53020000 		.4byte	0x253
 403 024f 02       		.byte	0x2
 404 0250 23       		.byte	0x23
 405 0251 04       		.uleb128 0x4
 406 0252 00       		.byte	0
 407 0253 09       		.uleb128 0x9
 408 0254 04       		.byte	0x4
 409 0255 FE000000 		.4byte	0xfe
 410 0259 04       		.uleb128 0x4
 411 025a D3010000 		.4byte	.LASF42
 412 025e 04       		.byte	0x4
 413 025f 5F       		.byte	0x5f
 414 0260 2E020000 		.4byte	0x22e
 415 0264 08       		.uleb128 0x8
 416 0265 04       		.byte	0x4
 417 0266 04       		.byte	0x4
 418 0267 64       		.byte	0x64
 419 0268 7B020000 		.4byte	0x27b
 420 026c 06       		.uleb128 0x6
 421 026d 46020000 		.4byte	.LASF23
 422 0271 04       		.byte	0x4
 423 0272 66       		.byte	0x66
 424 0273 53020000 		.4byte	0x253
 425 0277 02       		.byte	0x2
 426 0278 23       		.byte	0x23
 427 0279 00       		.uleb128 0
 428 027a 00       		.byte	0
 429 027b 04       		.uleb128 0x4
 430 027c 42010000 		.4byte	.LASF43
 431 0280 04       		.byte	0x4
 432 0281 69       		.byte	0x69
 433 0282 64020000 		.4byte	0x264
 434 0286 04       		.uleb128 0x4
 435 0287 D4000000 		.4byte	.LASF44
 436 028b 06       		.byte	0x6
 437 028c DE       		.byte	0xde
 438 028d 91020000 		.4byte	0x291
 439 0291 0A       		.uleb128 0xa
 440 0292 04       		.byte	0x4
 441 0293 0B       		.uleb128 0xb
 442 0294 00000000 		.4byte	.LASF45
 443 0298 24       		.byte	0x24
 444 0299 06       		.byte	0x6
 445 029a 0501     		.2byte	0x105
 446 029c 21030000 		.4byte	0x321
 447 02a0 0C       		.uleb128 0xc
 448 02a1 723400   		.ascii	"r4\000"
 449 02a4 06       		.byte	0x6
 450 02a5 1801     		.2byte	0x118
 451 02a7 86020000 		.4byte	0x286
 452 02ab 02       		.byte	0x2
 453 02ac 23       		.byte	0x23
 454 02ad 00       		.uleb128 0
 455 02ae 0C       		.uleb128 0xc
ARM GAS  /tmp/cclVkWWf.s 			page 9


 456 02af 723500   		.ascii	"r5\000"
 457 02b2 06       		.byte	0x6
 458 02b3 1901     		.2byte	0x119
 459 02b5 86020000 		.4byte	0x286
 460 02b9 02       		.byte	0x2
 461 02ba 23       		.byte	0x23
 462 02bb 04       		.uleb128 0x4
 463 02bc 0C       		.uleb128 0xc
 464 02bd 723600   		.ascii	"r6\000"
 465 02c0 06       		.byte	0x6
 466 02c1 1A01     		.2byte	0x11a
 467 02c3 86020000 		.4byte	0x286
 468 02c7 02       		.byte	0x2
 469 02c8 23       		.byte	0x23
 470 02c9 08       		.uleb128 0x8
 471 02ca 0C       		.uleb128 0xc
 472 02cb 723700   		.ascii	"r7\000"
 473 02ce 06       		.byte	0x6
 474 02cf 1B01     		.2byte	0x11b
 475 02d1 86020000 		.4byte	0x286
 476 02d5 02       		.byte	0x2
 477 02d6 23       		.byte	0x23
 478 02d7 0C       		.uleb128 0xc
 479 02d8 0C       		.uleb128 0xc
 480 02d9 723800   		.ascii	"r8\000"
 481 02dc 06       		.byte	0x6
 482 02dd 1C01     		.2byte	0x11c
 483 02df 86020000 		.4byte	0x286
 484 02e3 02       		.byte	0x2
 485 02e4 23       		.byte	0x23
 486 02e5 10       		.uleb128 0x10
 487 02e6 0C       		.uleb128 0xc
 488 02e7 723900   		.ascii	"r9\000"
 489 02ea 06       		.byte	0x6
 490 02eb 1D01     		.2byte	0x11d
 491 02ed 86020000 		.4byte	0x286
 492 02f1 02       		.byte	0x2
 493 02f2 23       		.byte	0x23
 494 02f3 14       		.uleb128 0x14
 495 02f4 0C       		.uleb128 0xc
 496 02f5 72313000 		.ascii	"r10\000"
 497 02f9 06       		.byte	0x6
 498 02fa 1E01     		.2byte	0x11e
 499 02fc 86020000 		.4byte	0x286
 500 0300 02       		.byte	0x2
 501 0301 23       		.byte	0x23
 502 0302 18       		.uleb128 0x18
 503 0303 0C       		.uleb128 0xc
 504 0304 72313100 		.ascii	"r11\000"
 505 0308 06       		.byte	0x6
 506 0309 1F01     		.2byte	0x11f
 507 030b 86020000 		.4byte	0x286
 508 030f 02       		.byte	0x2
 509 0310 23       		.byte	0x23
 510 0311 1C       		.uleb128 0x1c
 511 0312 0C       		.uleb128 0xc
 512 0313 6C7200   		.ascii	"lr\000"
ARM GAS  /tmp/cclVkWWf.s 			page 10


 513 0316 06       		.byte	0x6
 514 0317 2001     		.2byte	0x120
 515 0319 86020000 		.4byte	0x286
 516 031d 02       		.byte	0x2
 517 031e 23       		.byte	0x23
 518 031f 20       		.uleb128 0x20
 519 0320 00       		.byte	0
 520 0321 0B       		.uleb128 0xb
 521 0322 19010000 		.4byte	.LASF46
 522 0326 04       		.byte	0x4
 523 0327 06       		.byte	0x6
 524 0328 2A01     		.2byte	0x12a
 525 032a 3E030000 		.4byte	0x33e
 526 032e 0C       		.uleb128 0xc
 527 032f 72313300 		.ascii	"r13\000"
 528 0333 06       		.byte	0x6
 529 0334 2B01     		.2byte	0x12b
 530 0336 3E030000 		.4byte	0x33e
 531 033a 02       		.byte	0x2
 532 033b 23       		.byte	0x23
 533 033c 00       		.uleb128 0
 534 033d 00       		.byte	0
 535 033e 09       		.uleb128 0x9
 536 033f 04       		.byte	0x4
 537 0340 93020000 		.4byte	0x293
 538 0344 03       		.uleb128 0x3
 539 0345 04       		.byte	0x4
 540 0346 07       		.byte	0x7
 541 0347 C2010000 		.4byte	.LASF47
 542 034b 0D       		.uleb128 0xd
 543 034c E8000000 		.4byte	0xe8
 544 0350 05       		.uleb128 0x5
 545 0351 AF020000 		.4byte	.LASF48
 546 0355 0C       		.byte	0xc
 547 0356 07       		.byte	0x7
 548 0357 25       		.byte	0x25
 549 0358 79030000 		.4byte	0x379
 550 035c 06       		.uleb128 0x6
 551 035d BA000000 		.4byte	.LASF49
 552 0361 07       		.byte	0x7
 553 0362 26       		.byte	0x26
 554 0363 59020000 		.4byte	0x259
 555 0367 02       		.byte	0x2
 556 0368 23       		.byte	0x23
 557 0369 00       		.uleb128 0
 558 036a 06       		.uleb128 0x6
 559 036b 13010000 		.4byte	.LASF50
 560 036f 07       		.byte	0x7
 561 0370 28       		.byte	0x28
 562 0371 F3000000 		.4byte	0xf3
 563 0375 02       		.byte	0x2
 564 0376 23       		.byte	0x23
 565 0377 08       		.uleb128 0x8
 566 0378 00       		.byte	0
 567 0379 04       		.uleb128 0x4
 568 037a AF020000 		.4byte	.LASF48
 569 037e 07       		.byte	0x7
ARM GAS  /tmp/cclVkWWf.s 			page 11


 570 037f 29       		.byte	0x29
 571 0380 50030000 		.4byte	0x350
 572 0384 05       		.uleb128 0x5
 573 0385 A4010000 		.4byte	.LASF51
 574 0389 10       		.byte	0x10
 575 038a 08       		.byte	0x8
 576 038b 25       		.byte	0x25
 577 038c BB030000 		.4byte	0x3bb
 578 0390 06       		.uleb128 0x6
 579 0391 8E000000 		.4byte	.LASF52
 580 0395 08       		.byte	0x8
 581 0396 26       		.byte	0x26
 582 0397 59020000 		.4byte	0x259
 583 039b 02       		.byte	0x2
 584 039c 23       		.byte	0x23
 585 039d 00       		.uleb128 0
 586 039e 06       		.uleb128 0x6
 587 039f E2020000 		.4byte	.LASF53
 588 03a3 08       		.byte	0x8
 589 03a4 28       		.byte	0x28
 590 03a5 53020000 		.4byte	0x253
 591 03a9 02       		.byte	0x2
 592 03aa 23       		.byte	0x23
 593 03ab 08       		.uleb128 0x8
 594 03ac 06       		.uleb128 0x6
 595 03ad 7A020000 		.4byte	.LASF54
 596 03b1 08       		.byte	0x8
 597 03b2 2A       		.byte	0x2a
 598 03b3 BB030000 		.4byte	0x3bb
 599 03b7 02       		.byte	0x2
 600 03b8 23       		.byte	0x23
 601 03b9 0C       		.uleb128 0xc
 602 03ba 00       		.byte	0
 603 03bb 09       		.uleb128 0x9
 604 03bc 04       		.byte	0x4
 605 03bd 84030000 		.4byte	0x384
 606 03c1 04       		.uleb128 0x4
 607 03c2 A4010000 		.4byte	.LASF51
 608 03c6 08       		.byte	0x8
 609 03c7 2C       		.byte	0x2c
 610 03c8 84030000 		.4byte	0x384
 611 03cc 0E       		.uleb128 0xe
 612 03cd 04       		.byte	0x4
 613 03ce 05       		.byte	0x5
 614 03cf 8F       		.byte	0x8f
 615 03d0 01040000 		.4byte	0x401
 616 03d4 0F       		.uleb128 0xf
 617 03d5 0D000000 		.4byte	.LASF55
 618 03d9 05       		.byte	0x5
 619 03da 96       		.byte	0x96
 620 03db D2000000 		.4byte	0xd2
 621 03df 0F       		.uleb128 0xf
 622 03e0 34000000 		.4byte	.LASF56
 623 03e4 05       		.byte	0x5
 624 03e5 9D       		.byte	0x9d
 625 03e6 D2000000 		.4byte	0xd2
 626 03ea 0F       		.uleb128 0xf
ARM GAS  /tmp/cclVkWWf.s 			page 12


 627 03eb D4020000 		.4byte	.LASF57
 628 03ef 05       		.byte	0x5
 629 03f0 A4       		.byte	0xa4
 630 03f1 91020000 		.4byte	0x291
 631 03f5 0F       		.uleb128 0xf
 632 03f6 3F020000 		.4byte	.LASF58
 633 03fa 05       		.byte	0x5
 634 03fb AB       		.byte	0xab
 635 03fc DD000000 		.4byte	0xdd
 636 0400 00       		.byte	0
 637 0401 09       		.uleb128 0x9
 638 0402 04       		.byte	0x4
 639 0403 07040000 		.4byte	0x407
 640 0407 10       		.uleb128 0x10
 641 0408 0C040000 		.4byte	0x40c
 642 040c 03       		.uleb128 0x3
 643 040d 01       		.byte	0x1
 644 040e 08       		.byte	0x8
 645 040f 75020000 		.4byte	.LASF59
 646 0413 09       		.uleb128 0x9
 647 0414 04       		.byte	0x4
 648 0415 C1030000 		.4byte	0x3c1
 649 0419 04       		.uleb128 0x4
 650 041a BD010000 		.4byte	.LASF60
 651 041e 09       		.byte	0x9
 652 041f 3C       		.byte	0x3c
 653 0420 49000000 		.4byte	0x49
 654 0424 04       		.uleb128 0x4
 655 0425 5C020000 		.4byte	.LASF61
 656 0429 09       		.byte	0x9
 657 042a 3D       		.byte	0x3d
 658 042b 37000000 		.4byte	0x37
 659 042f 04       		.uleb128 0x4
 660 0430 0D010000 		.4byte	.LASF62
 661 0434 09       		.byte	0x9
 662 0435 40       		.byte	0x40
 663 0436 7B000000 		.4byte	0x7b
 664 043a 04       		.uleb128 0x4
 665 043b B7010000 		.4byte	.LASF63
 666 043f 0A       		.byte	0xa
 667 0440 2F       		.byte	0x2f
 668 0441 24040000 		.4byte	0x424
 669 0445 04       		.uleb128 0x4
 670 0446 44000000 		.4byte	.LASF64
 671 044a 0B       		.byte	0xb
 672 044b 3C       		.byte	0x3c
 673 044c 50040000 		.4byte	0x450
 674 0450 09       		.uleb128 0x9
 675 0451 04       		.byte	0x4
 676 0452 79030000 		.4byte	0x379
 677 0456 11       		.uleb128 0x11
 678 0457 01       		.byte	0x1
 679 0458 F0000000 		.4byte	.LASF71
 680 045c 01       		.byte	0x1
 681 045d 36       		.byte	0x36
 682 045e 01       		.byte	0x1
 683 045f 00000000 		.4byte	.LFB7
ARM GAS  /tmp/cclVkWWf.s 			page 13


 684 0463 28000000 		.4byte	.LFE7
 685 0467 00000000 		.4byte	.LLST0
 686 046b 01       		.byte	0x1
 687 046c E9040000 		.4byte	0x4e9
 688 0470 12       		.uleb128 0x12
 689 0471 6D7300   		.ascii	"ms\000"
 690 0474 01       		.byte	0x1
 691 0475 36       		.byte	0x36
 692 0476 2F040000 		.4byte	0x42f
 693 047a 2C000000 		.4byte	.LLST1
 694 047e 13       		.uleb128 0x13
 695 047f 0C000000 		.4byte	.LBB2
 696 0483 28000000 		.4byte	.LBE2
 697 0487 14       		.uleb128 0x14
 698 0488 14000000 		.4byte	.LASF65
 699 048c 01       		.byte	0x1
 700 048d 39       		.byte	0x39
 701 048e 45040000 		.4byte	0x445
 702 0492 02       		.byte	0x2
 703 0493 91       		.byte	0x91
 704 0494 74       		.sleb128 -12
 705 0495 15       		.uleb128 0x15
 706 0496 65727200 		.ascii	"err\000"
 707 049a 01       		.byte	0x1
 708 049b 3A       		.byte	0x3a
 709 049c 3A040000 		.4byte	0x43a
 710 04a0 60000000 		.4byte	.LLST2
 711 04a4 16       		.uleb128 0x16
 712 04a5 14000000 		.4byte	.LVL4
 713 04a9 E9040000 		.4byte	0x4e9
 714 04ad BD040000 		.4byte	0x4bd
 715 04b1 17       		.uleb128 0x17
 716 04b2 01       		.byte	0x1
 717 04b3 51       		.byte	0x51
 718 04b4 01       		.byte	0x1
 719 04b5 30       		.byte	0x30
 720 04b6 17       		.uleb128 0x17
 721 04b7 01       		.byte	0x1
 722 04b8 50       		.byte	0x50
 723 04b9 02       		.byte	0x2
 724 04ba 91       		.byte	0x91
 725 04bb 74       		.sleb128 -12
 726 04bc 00       		.byte	0
 727 04bd 16       		.uleb128 0x16
 728 04be 20000000 		.4byte	.LVL6
 729 04c2 0C050000 		.4byte	0x50c
 730 04c6 D7040000 		.4byte	0x4d7
 731 04ca 17       		.uleb128 0x17
 732 04cb 01       		.byte	0x1
 733 04cc 51       		.byte	0x51
 734 04cd 02       		.byte	0x2
 735 04ce 74       		.byte	0x74
 736 04cf 00       		.sleb128 0
 737 04d0 17       		.uleb128 0x17
 738 04d1 01       		.byte	0x1
 739 04d2 50       		.byte	0x50
 740 04d3 02       		.byte	0x2
ARM GAS  /tmp/cclVkWWf.s 			page 14


 741 04d4 91       		.byte	0x91
 742 04d5 74       		.sleb128 -12
 743 04d6 00       		.byte	0
 744 04d7 18       		.uleb128 0x18
 745 04d8 26000000 		.4byte	.LVL7
 746 04dc 29050000 		.4byte	0x529
 747 04e0 17       		.uleb128 0x17
 748 04e1 01       		.byte	0x1
 749 04e2 50       		.byte	0x50
 750 04e3 02       		.byte	0x2
 751 04e4 91       		.byte	0x91
 752 04e5 74       		.sleb128 -12
 753 04e6 00       		.byte	0
 754 04e7 00       		.byte	0
 755 04e8 00       		.byte	0
 756 04e9 19       		.uleb128 0x19
 757 04ea 01       		.byte	0x1
 758 04eb B9020000 		.4byte	.LASF66
 759 04ef 0C       		.byte	0xc
 760 04f0 85       		.byte	0x85
 761 04f1 01       		.byte	0x1
 762 04f2 3A040000 		.4byte	0x43a
 763 04f6 01       		.byte	0x1
 764 04f7 06050000 		.4byte	0x506
 765 04fb 1A       		.uleb128 0x1a
 766 04fc 06050000 		.4byte	0x506
 767 0500 1A       		.uleb128 0x1a
 768 0501 19040000 		.4byte	0x419
 769 0505 00       		.byte	0
 770 0506 09       		.uleb128 0x9
 771 0507 04       		.byte	0x4
 772 0508 45040000 		.4byte	0x445
 773 050c 19       		.uleb128 0x19
 774 050d 01       		.byte	0x1
 775 050e C2000000 		.4byte	.LASF67
 776 0512 0C       		.byte	0xc
 777 0513 8E       		.byte	0x8e
 778 0514 01       		.byte	0x1
 779 0515 2F040000 		.4byte	0x42f
 780 0519 01       		.byte	0x1
 781 051a 29050000 		.4byte	0x529
 782 051e 1A       		.uleb128 0x1a
 783 051f 06050000 		.4byte	0x506
 784 0523 1A       		.uleb128 0x1a
 785 0524 2F040000 		.4byte	0x42f
 786 0528 00       		.byte	0
 787 0529 1B       		.uleb128 0x1b
 788 052a 01       		.byte	0x1
 789 052b AA010000 		.4byte	.LASF72
 790 052f 0C       		.byte	0xc
 791 0530 91       		.byte	0x91
 792 0531 01       		.byte	0x1
 793 0532 01       		.byte	0x1
 794 0533 1A       		.uleb128 0x1a
 795 0534 06050000 		.4byte	0x506
 796 0538 00       		.byte	0
 797 0539 00       		.byte	0
ARM GAS  /tmp/cclVkWWf.s 			page 15


 798              		.section	.debug_abbrev,"",%progbits
 799              	.Ldebug_abbrev0:
 800 0000 01       		.uleb128 0x1
 801 0001 11       		.uleb128 0x11
 802 0002 01       		.byte	0x1
 803 0003 25       		.uleb128 0x25
 804 0004 0E       		.uleb128 0xe
 805 0005 13       		.uleb128 0x13
 806 0006 0B       		.uleb128 0xb
 807 0007 03       		.uleb128 0x3
 808 0008 0E       		.uleb128 0xe
 809 0009 1B       		.uleb128 0x1b
 810 000a 0E       		.uleb128 0xe
 811 000b 55       		.uleb128 0x55
 812 000c 06       		.uleb128 0x6
 813 000d 11       		.uleb128 0x11
 814 000e 01       		.uleb128 0x1
 815 000f 52       		.uleb128 0x52
 816 0010 01       		.uleb128 0x1
 817 0011 10       		.uleb128 0x10
 818 0012 06       		.uleb128 0x6
 819 0013 00       		.byte	0
 820 0014 00       		.byte	0
 821 0015 02       		.uleb128 0x2
 822 0016 24       		.uleb128 0x24
 823 0017 00       		.byte	0
 824 0018 0B       		.uleb128 0xb
 825 0019 0B       		.uleb128 0xb
 826 001a 3E       		.uleb128 0x3e
 827 001b 0B       		.uleb128 0xb
 828 001c 03       		.uleb128 0x3
 829 001d 08       		.uleb128 0x8
 830 001e 00       		.byte	0
 831 001f 00       		.byte	0
 832 0020 03       		.uleb128 0x3
 833 0021 24       		.uleb128 0x24
 834 0022 00       		.byte	0
 835 0023 0B       		.uleb128 0xb
 836 0024 0B       		.uleb128 0xb
 837 0025 3E       		.uleb128 0x3e
 838 0026 0B       		.uleb128 0xb
 839 0027 03       		.uleb128 0x3
 840 0028 0E       		.uleb128 0xe
 841 0029 00       		.byte	0
 842 002a 00       		.byte	0
 843 002b 04       		.uleb128 0x4
 844 002c 16       		.uleb128 0x16
 845 002d 00       		.byte	0
 846 002e 03       		.uleb128 0x3
 847 002f 0E       		.uleb128 0xe
 848 0030 3A       		.uleb128 0x3a
 849 0031 0B       		.uleb128 0xb
 850 0032 3B       		.uleb128 0x3b
 851 0033 0B       		.uleb128 0xb
 852 0034 49       		.uleb128 0x49
 853 0035 13       		.uleb128 0x13
 854 0036 00       		.byte	0
ARM GAS  /tmp/cclVkWWf.s 			page 16


 855 0037 00       		.byte	0
 856 0038 05       		.uleb128 0x5
 857 0039 13       		.uleb128 0x13
 858 003a 01       		.byte	0x1
 859 003b 03       		.uleb128 0x3
 860 003c 0E       		.uleb128 0xe
 861 003d 0B       		.uleb128 0xb
 862 003e 0B       		.uleb128 0xb
 863 003f 3A       		.uleb128 0x3a
 864 0040 0B       		.uleb128 0xb
 865 0041 3B       		.uleb128 0x3b
 866 0042 0B       		.uleb128 0xb
 867 0043 01       		.uleb128 0x1
 868 0044 13       		.uleb128 0x13
 869 0045 00       		.byte	0
 870 0046 00       		.byte	0
 871 0047 06       		.uleb128 0x6
 872 0048 0D       		.uleb128 0xd
 873 0049 00       		.byte	0
 874 004a 03       		.uleb128 0x3
 875 004b 0E       		.uleb128 0xe
 876 004c 3A       		.uleb128 0x3a
 877 004d 0B       		.uleb128 0xb
 878 004e 3B       		.uleb128 0x3b
 879 004f 0B       		.uleb128 0xb
 880 0050 49       		.uleb128 0x49
 881 0051 13       		.uleb128 0x13
 882 0052 38       		.uleb128 0x38
 883 0053 0A       		.uleb128 0xa
 884 0054 00       		.byte	0
 885 0055 00       		.byte	0
 886 0056 07       		.uleb128 0x7
 887 0057 0D       		.uleb128 0xd
 888 0058 00       		.byte	0
 889 0059 03       		.uleb128 0x3
 890 005a 08       		.uleb128 0x8
 891 005b 3A       		.uleb128 0x3a
 892 005c 0B       		.uleb128 0xb
 893 005d 3B       		.uleb128 0x3b
 894 005e 0B       		.uleb128 0xb
 895 005f 49       		.uleb128 0x49
 896 0060 13       		.uleb128 0x13
 897 0061 38       		.uleb128 0x38
 898 0062 0A       		.uleb128 0xa
 899 0063 00       		.byte	0
 900 0064 00       		.byte	0
 901 0065 08       		.uleb128 0x8
 902 0066 13       		.uleb128 0x13
 903 0067 01       		.byte	0x1
 904 0068 0B       		.uleb128 0xb
 905 0069 0B       		.uleb128 0xb
 906 006a 3A       		.uleb128 0x3a
 907 006b 0B       		.uleb128 0xb
 908 006c 3B       		.uleb128 0x3b
 909 006d 0B       		.uleb128 0xb
 910 006e 01       		.uleb128 0x1
 911 006f 13       		.uleb128 0x13
ARM GAS  /tmp/cclVkWWf.s 			page 17


 912 0070 00       		.byte	0
 913 0071 00       		.byte	0
 914 0072 09       		.uleb128 0x9
 915 0073 0F       		.uleb128 0xf
 916 0074 00       		.byte	0
 917 0075 0B       		.uleb128 0xb
 918 0076 0B       		.uleb128 0xb
 919 0077 49       		.uleb128 0x49
 920 0078 13       		.uleb128 0x13
 921 0079 00       		.byte	0
 922 007a 00       		.byte	0
 923 007b 0A       		.uleb128 0xa
 924 007c 0F       		.uleb128 0xf
 925 007d 00       		.byte	0
 926 007e 0B       		.uleb128 0xb
 927 007f 0B       		.uleb128 0xb
 928 0080 00       		.byte	0
 929 0081 00       		.byte	0
 930 0082 0B       		.uleb128 0xb
 931 0083 13       		.uleb128 0x13
 932 0084 01       		.byte	0x1
 933 0085 03       		.uleb128 0x3
 934 0086 0E       		.uleb128 0xe
 935 0087 0B       		.uleb128 0xb
 936 0088 0B       		.uleb128 0xb
 937 0089 3A       		.uleb128 0x3a
 938 008a 0B       		.uleb128 0xb
 939 008b 3B       		.uleb128 0x3b
 940 008c 05       		.uleb128 0x5
 941 008d 01       		.uleb128 0x1
 942 008e 13       		.uleb128 0x13
 943 008f 00       		.byte	0
 944 0090 00       		.byte	0
 945 0091 0C       		.uleb128 0xc
 946 0092 0D       		.uleb128 0xd
 947 0093 00       		.byte	0
 948 0094 03       		.uleb128 0x3
 949 0095 08       		.uleb128 0x8
 950 0096 3A       		.uleb128 0x3a
 951 0097 0B       		.uleb128 0xb
 952 0098 3B       		.uleb128 0x3b
 953 0099 05       		.uleb128 0x5
 954 009a 49       		.uleb128 0x49
 955 009b 13       		.uleb128 0x13
 956 009c 38       		.uleb128 0x38
 957 009d 0A       		.uleb128 0xa
 958 009e 00       		.byte	0
 959 009f 00       		.byte	0
 960 00a0 0D       		.uleb128 0xd
 961 00a1 35       		.uleb128 0x35
 962 00a2 00       		.byte	0
 963 00a3 49       		.uleb128 0x49
 964 00a4 13       		.uleb128 0x13
 965 00a5 00       		.byte	0
 966 00a6 00       		.byte	0
 967 00a7 0E       		.uleb128 0xe
 968 00a8 17       		.uleb128 0x17
ARM GAS  /tmp/cclVkWWf.s 			page 18


 969 00a9 01       		.byte	0x1
 970 00aa 0B       		.uleb128 0xb
 971 00ab 0B       		.uleb128 0xb
 972 00ac 3A       		.uleb128 0x3a
 973 00ad 0B       		.uleb128 0xb
 974 00ae 3B       		.uleb128 0x3b
 975 00af 0B       		.uleb128 0xb
 976 00b0 01       		.uleb128 0x1
 977 00b1 13       		.uleb128 0x13
 978 00b2 00       		.byte	0
 979 00b3 00       		.byte	0
 980 00b4 0F       		.uleb128 0xf
 981 00b5 0D       		.uleb128 0xd
 982 00b6 00       		.byte	0
 983 00b7 03       		.uleb128 0x3
 984 00b8 0E       		.uleb128 0xe
 985 00b9 3A       		.uleb128 0x3a
 986 00ba 0B       		.uleb128 0xb
 987 00bb 3B       		.uleb128 0x3b
 988 00bc 0B       		.uleb128 0xb
 989 00bd 49       		.uleb128 0x49
 990 00be 13       		.uleb128 0x13
 991 00bf 00       		.byte	0
 992 00c0 00       		.byte	0
 993 00c1 10       		.uleb128 0x10
 994 00c2 26       		.uleb128 0x26
 995 00c3 00       		.byte	0
 996 00c4 49       		.uleb128 0x49
 997 00c5 13       		.uleb128 0x13
 998 00c6 00       		.byte	0
 999 00c7 00       		.byte	0
 1000 00c8 11       		.uleb128 0x11
 1001 00c9 2E       		.uleb128 0x2e
 1002 00ca 01       		.byte	0x1
 1003 00cb 3F       		.uleb128 0x3f
 1004 00cc 0C       		.uleb128 0xc
 1005 00cd 03       		.uleb128 0x3
 1006 00ce 0E       		.uleb128 0xe
 1007 00cf 3A       		.uleb128 0x3a
 1008 00d0 0B       		.uleb128 0xb
 1009 00d1 3B       		.uleb128 0x3b
 1010 00d2 0B       		.uleb128 0xb
 1011 00d3 27       		.uleb128 0x27
 1012 00d4 0C       		.uleb128 0xc
 1013 00d5 11       		.uleb128 0x11
 1014 00d6 01       		.uleb128 0x1
 1015 00d7 12       		.uleb128 0x12
 1016 00d8 01       		.uleb128 0x1
 1017 00d9 40       		.uleb128 0x40
 1018 00da 06       		.uleb128 0x6
 1019 00db 9742     		.uleb128 0x2117
 1020 00dd 0C       		.uleb128 0xc
 1021 00de 01       		.uleb128 0x1
 1022 00df 13       		.uleb128 0x13
 1023 00e0 00       		.byte	0
 1024 00e1 00       		.byte	0
 1025 00e2 12       		.uleb128 0x12
ARM GAS  /tmp/cclVkWWf.s 			page 19


 1026 00e3 05       		.uleb128 0x5
 1027 00e4 00       		.byte	0
 1028 00e5 03       		.uleb128 0x3
 1029 00e6 08       		.uleb128 0x8
 1030 00e7 3A       		.uleb128 0x3a
 1031 00e8 0B       		.uleb128 0xb
 1032 00e9 3B       		.uleb128 0x3b
 1033 00ea 0B       		.uleb128 0xb
 1034 00eb 49       		.uleb128 0x49
 1035 00ec 13       		.uleb128 0x13
 1036 00ed 02       		.uleb128 0x2
 1037 00ee 06       		.uleb128 0x6
 1038 00ef 00       		.byte	0
 1039 00f0 00       		.byte	0
 1040 00f1 13       		.uleb128 0x13
 1041 00f2 0B       		.uleb128 0xb
 1042 00f3 01       		.byte	0x1
 1043 00f4 11       		.uleb128 0x11
 1044 00f5 01       		.uleb128 0x1
 1045 00f6 12       		.uleb128 0x12
 1046 00f7 01       		.uleb128 0x1
 1047 00f8 00       		.byte	0
 1048 00f9 00       		.byte	0
 1049 00fa 14       		.uleb128 0x14
 1050 00fb 34       		.uleb128 0x34
 1051 00fc 00       		.byte	0
 1052 00fd 03       		.uleb128 0x3
 1053 00fe 0E       		.uleb128 0xe
 1054 00ff 3A       		.uleb128 0x3a
 1055 0100 0B       		.uleb128 0xb
 1056 0101 3B       		.uleb128 0x3b
 1057 0102 0B       		.uleb128 0xb
 1058 0103 49       		.uleb128 0x49
 1059 0104 13       		.uleb128 0x13
 1060 0105 02       		.uleb128 0x2
 1061 0106 0A       		.uleb128 0xa
 1062 0107 00       		.byte	0
 1063 0108 00       		.byte	0
 1064 0109 15       		.uleb128 0x15
 1065 010a 34       		.uleb128 0x34
 1066 010b 00       		.byte	0
 1067 010c 03       		.uleb128 0x3
 1068 010d 08       		.uleb128 0x8
 1069 010e 3A       		.uleb128 0x3a
 1070 010f 0B       		.uleb128 0xb
 1071 0110 3B       		.uleb128 0x3b
 1072 0111 0B       		.uleb128 0xb
 1073 0112 49       		.uleb128 0x49
 1074 0113 13       		.uleb128 0x13
 1075 0114 02       		.uleb128 0x2
 1076 0115 06       		.uleb128 0x6
 1077 0116 00       		.byte	0
 1078 0117 00       		.byte	0
 1079 0118 16       		.uleb128 0x16
 1080 0119 898201   		.uleb128 0x4109
 1081 011c 01       		.byte	0x1
 1082 011d 11       		.uleb128 0x11
ARM GAS  /tmp/cclVkWWf.s 			page 20


 1083 011e 01       		.uleb128 0x1
 1084 011f 31       		.uleb128 0x31
 1085 0120 13       		.uleb128 0x13
 1086 0121 01       		.uleb128 0x1
 1087 0122 13       		.uleb128 0x13
 1088 0123 00       		.byte	0
 1089 0124 00       		.byte	0
 1090 0125 17       		.uleb128 0x17
 1091 0126 8A8201   		.uleb128 0x410a
 1092 0129 00       		.byte	0
 1093 012a 02       		.uleb128 0x2
 1094 012b 0A       		.uleb128 0xa
 1095 012c 9142     		.uleb128 0x2111
 1096 012e 0A       		.uleb128 0xa
 1097 012f 00       		.byte	0
 1098 0130 00       		.byte	0
 1099 0131 18       		.uleb128 0x18
 1100 0132 898201   		.uleb128 0x4109
 1101 0135 01       		.byte	0x1
 1102 0136 11       		.uleb128 0x11
 1103 0137 01       		.uleb128 0x1
 1104 0138 31       		.uleb128 0x31
 1105 0139 13       		.uleb128 0x13
 1106 013a 00       		.byte	0
 1107 013b 00       		.byte	0
 1108 013c 19       		.uleb128 0x19
 1109 013d 2E       		.uleb128 0x2e
 1110 013e 01       		.byte	0x1
 1111 013f 3F       		.uleb128 0x3f
 1112 0140 0C       		.uleb128 0xc
 1113 0141 03       		.uleb128 0x3
 1114 0142 0E       		.uleb128 0xe
 1115 0143 3A       		.uleb128 0x3a
 1116 0144 0B       		.uleb128 0xb
 1117 0145 3B       		.uleb128 0x3b
 1118 0146 0B       		.uleb128 0xb
 1119 0147 27       		.uleb128 0x27
 1120 0148 0C       		.uleb128 0xc
 1121 0149 49       		.uleb128 0x49
 1122 014a 13       		.uleb128 0x13
 1123 014b 3C       		.uleb128 0x3c
 1124 014c 0C       		.uleb128 0xc
 1125 014d 01       		.uleb128 0x1
 1126 014e 13       		.uleb128 0x13
 1127 014f 00       		.byte	0
 1128 0150 00       		.byte	0
 1129 0151 1A       		.uleb128 0x1a
 1130 0152 05       		.uleb128 0x5
 1131 0153 00       		.byte	0
 1132 0154 49       		.uleb128 0x49
 1133 0155 13       		.uleb128 0x13
 1134 0156 00       		.byte	0
 1135 0157 00       		.byte	0
 1136 0158 1B       		.uleb128 0x1b
 1137 0159 2E       		.uleb128 0x2e
 1138 015a 01       		.byte	0x1
 1139 015b 3F       		.uleb128 0x3f
ARM GAS  /tmp/cclVkWWf.s 			page 21


 1140 015c 0C       		.uleb128 0xc
 1141 015d 03       		.uleb128 0x3
 1142 015e 0E       		.uleb128 0xe
 1143 015f 3A       		.uleb128 0x3a
 1144 0160 0B       		.uleb128 0xb
 1145 0161 3B       		.uleb128 0x3b
 1146 0162 0B       		.uleb128 0xb
 1147 0163 27       		.uleb128 0x27
 1148 0164 0C       		.uleb128 0xc
 1149 0165 3C       		.uleb128 0x3c
 1150 0166 0C       		.uleb128 0xc
 1151 0167 00       		.byte	0
 1152 0168 00       		.byte	0
 1153 0169 00       		.byte	0
 1154              		.section	.debug_loc,"",%progbits
 1155              	.Ldebug_loc0:
 1156              	.LLST0:
 1157 0000 00000000 		.4byte	.LFB7
 1158 0004 02000000 		.4byte	.LCFI0
 1159 0008 0200     		.2byte	0x2
 1160 000a 7D       		.byte	0x7d
 1161 000b 00       		.sleb128 0
 1162 000c 02000000 		.4byte	.LCFI0
 1163 0010 06000000 		.4byte	.LCFI1
 1164 0014 0200     		.2byte	0x2
 1165 0016 7D       		.byte	0x7d
 1166 0017 08       		.sleb128 8
 1167 0018 06000000 		.4byte	.LCFI1
 1168 001c 28000000 		.4byte	.LFE7
 1169 0020 0200     		.2byte	0x2
 1170 0022 7D       		.byte	0x7d
 1171 0023 10       		.sleb128 16
 1172 0024 00000000 		.4byte	0
 1173 0028 00000000 		.4byte	0
 1174              	.LLST1:
 1175 002c 00000000 		.4byte	.LVL0
 1176 0030 08000000 		.4byte	.LVL1
 1177 0034 0100     		.2byte	0x1
 1178 0036 50       		.byte	0x50
 1179 0037 08000000 		.4byte	.LVL1
 1180 003b 0C000000 		.4byte	.LVL2
 1181 003f 0100     		.2byte	0x1
 1182 0041 54       		.byte	0x54
 1183 0042 0C000000 		.4byte	.LVL2
 1184 0046 0E000000 		.4byte	.LVL3
 1185 004a 0100     		.2byte	0x1
 1186 004c 50       		.byte	0x50
 1187 004d 0E000000 		.4byte	.LVL3
 1188 0051 28000000 		.4byte	.LFE7
 1189 0055 0100     		.2byte	0x1
 1190 0057 54       		.byte	0x54
 1191 0058 00000000 		.4byte	0
 1192 005c 00000000 		.4byte	0
 1193              	.LLST2:
 1194 0060 14000000 		.4byte	.LVL4
 1195 0064 1A000000 		.4byte	.LVL5
 1196 0068 0100     		.2byte	0x1
ARM GAS  /tmp/cclVkWWf.s 			page 22


 1197 006a 50       		.byte	0x50
 1198 006b 00000000 		.4byte	0
 1199 006f 00000000 		.4byte	0
 1200              		.section	.debug_aranges,"",%progbits
 1201 0000 1C000000 		.4byte	0x1c
 1202 0004 0200     		.2byte	0x2
 1203 0006 00000000 		.4byte	.Ldebug_info0
 1204 000a 04       		.byte	0x4
 1205 000b 00       		.byte	0
 1206 000c 0000     		.2byte	0
 1207 000e 0000     		.2byte	0
 1208 0010 00000000 		.4byte	.LFB7
 1209 0014 28000000 		.4byte	.LFE7-.LFB7
 1210 0018 00000000 		.4byte	0
 1211 001c 00000000 		.4byte	0
 1212              		.section	.debug_ranges,"",%progbits
 1213              	.Ldebug_ranges0:
 1214 0000 00000000 		.4byte	.LFB7
 1215 0004 28000000 		.4byte	.LFE7
 1216 0008 00000000 		.4byte	0
 1217 000c 00000000 		.4byte	0
 1218              		.section	.debug_line,"",%progbits
 1219              	.Ldebug_line0:
 1220 0000 BB010000 		.section	.debug_str,"MS",%progbits,1
 1220      02009C01 
 1220      00000201 
 1220      FB0E0D00 
 1220      01010101 
 1221              	.LASF45:
 1222 0000 696E7463 		.ascii	"intctx\000"
 1222      747800
 1223              	.LASF37:
 1224 0007 705F6D73 		.ascii	"p_msg\000"
 1224      6700
 1225              	.LASF55:
 1226 000d 7264796D 		.ascii	"rdymsg\000"
 1226      736700
 1227              	.LASF65:
 1228 0014 64656C61 		.ascii	"delaysem\000"
 1228      7973656D 
 1228      00
 1229              	.LASF12:
 1230 001d 6C6F6E67 		.ascii	"long long unsigned int\000"
 1230      206C6F6E 
 1230      6720756E 
 1230      7369676E 
 1230      65642069 
 1231              	.LASF56:
 1232 0034 65786974 		.ascii	"exitcode\000"
 1232      636F6465 
 1232      00
 1233              	.LASF25:
 1234 003d 705F7072 		.ascii	"p_prio\000"
 1234      696F00
 1235              	.LASF64:
 1236 0044 7379735F 		.ascii	"sys_sem_t\000"
 1236      73656D5F 
ARM GAS  /tmp/cclVkWWf.s 			page 23


 1236      7400
 1237              	.LASF11:
 1238 004e 6C6F6E67 		.ascii	"long long int\000"
 1238      206C6F6E 
 1238      6720696E 
 1238      7400
 1239              	.LASF1:
 1240 005c 7369676E 		.ascii	"signed char\000"
 1240      65642063 
 1240      68617200 
 1241              	.LASF69:
 1242 0068 2E2E2F2E 		.ascii	"../../ext/lwip/src/core/sys.c\000"
 1242      2E2F6578 
 1242      742F6C77 
 1242      69702F73 
 1242      72632F63 
 1243              	.LASF41:
 1244 0086 705F6D70 		.ascii	"p_mpool\000"
 1244      6F6F6C00 
 1245              	.LASF52:
 1246 008e 6D5F7175 		.ascii	"m_queue\000"
 1246      65756500 
 1247              	.LASF16:
 1248 0096 74736C69 		.ascii	"tslices_t\000"
 1248      6365735F 
 1248      7400
 1249              	.LASF8:
 1250 00a0 6C6F6E67 		.ascii	"long int\000"
 1250      20696E74 
 1250      00
 1251              	.LASF14:
 1252 00a9 74737461 		.ascii	"tstate_t\000"
 1252      74655F74 
 1252      00
 1253              	.LASF27:
 1254 00b2 705F6E65 		.ascii	"p_newer\000"
 1254      77657200 
 1255              	.LASF49:
 1256 00ba 735F7175 		.ascii	"s_queue\000"
 1256      65756500 
 1257              	.LASF67:
 1258 00c2 7379735F 		.ascii	"sys_arch_sem_wait\000"
 1258      61726368 
 1258      5F73656D 
 1258      5F776169 
 1258      7400
 1259              	.LASF44:
 1260 00d4 72656761 		.ascii	"regarm_t\000"
 1260      726D5F74 
 1260      00
 1261              	.LASF21:
 1262 00dd 636E745F 		.ascii	"cnt_t\000"
 1262      7400
 1263              	.LASF0:
 1264 00e3 756E7369 		.ascii	"unsigned int\000"
 1264      676E6564 
 1264      20696E74 
ARM GAS  /tmp/cclVkWWf.s 			page 24


 1264      00
 1265              	.LASF71:
 1266 00f0 7379735F 		.ascii	"sys_msleep\000"
 1266      6D736C65 
 1266      657000
 1267              	.LASF10:
 1268 00fb 6C6F6E67 		.ascii	"long unsigned int\000"
 1268      20756E73 
 1268      69676E65 
 1268      6420696E 
 1268      7400
 1269              	.LASF62:
 1270 010d 7533325F 		.ascii	"u32_t\000"
 1270      7400
 1271              	.LASF50:
 1272 0113 735F636E 		.ascii	"s_cnt\000"
 1272      7400
 1273              	.LASF46:
 1274 0119 636F6E74 		.ascii	"context\000"
 1274      65787400 
 1275              	.LASF6:
 1276 0121 73686F72 		.ascii	"short unsigned int\000"
 1276      7420756E 
 1276      7369676E 
 1276      65642069 
 1276      6E7400
 1277              	.LASF18:
 1278 0134 6D73675F 		.ascii	"msg_t\000"
 1278      7400
 1279              	.LASF13:
 1280 013a 746D6F64 		.ascii	"tmode_t\000"
 1280      655F7400 
 1281              	.LASF43:
 1282 0142 54687265 		.ascii	"ThreadsList\000"
 1282      6164734C 
 1282      69737400 
 1283              	.LASF19:
 1284 014e 6576656E 		.ascii	"eventmask_t\000"
 1284      746D6173 
 1284      6B5F7400 
 1285              	.LASF70:
 1286 015a 2F686F6D 		.ascii	"/home/kwilson/Sandbox/ChibiOS_2.5.1/demos/ARMCM4-ST"
 1286      652F6B77 
 1286      696C736F 
 1286      6E2F5361 
 1286      6E64626F 
 1287 018d 4D333246 		.ascii	"M32F407-LWIP-FATFS-USB\000"
 1287      3430372D 
 1287      4C574950 
 1287      2D464154 
 1287      46532D55 
 1288              	.LASF51:
 1289 01a4 4D757465 		.ascii	"Mutex\000"
 1289      7800
 1290              	.LASF72:
 1291 01aa 7379735F 		.ascii	"sys_sem_free\000"
 1291      73656D5F 
ARM GAS  /tmp/cclVkWWf.s 			page 25


 1291      66726565 
 1291      00
 1292              	.LASF63:
 1293 01b7 6572725F 		.ascii	"err_t\000"
 1293      7400
 1294              	.LASF60:
 1295 01bd 75385F74 		.ascii	"u8_t\000"
 1295      00
 1296              	.LASF47:
 1297 01c2 73697A65 		.ascii	"sizetype\000"
 1297      74797065 
 1297      00
 1298              	.LASF28:
 1299 01cb 705F6F6C 		.ascii	"p_older\000"
 1299      64657200 
 1300              	.LASF42:
 1301 01d3 54687265 		.ascii	"ThreadsQueue\000"
 1301      61647351 
 1301      75657565 
 1301      00
 1302              	.LASF68:
 1303 01e0 474E5520 		.ascii	"GNU C 4.7.2\000"
 1303      4320342E 
 1303      372E3200 
 1304              	.LASF15:
 1305 01ec 74726566 		.ascii	"trefs_t\000"
 1305      735F7400 
 1306              	.LASF24:
 1307 01f4 705F7072 		.ascii	"p_prev\000"
 1307      657600
 1308              	.LASF17:
 1309 01fb 74707269 		.ascii	"tprio_t\000"
 1309      6F5F7400 
 1310              	.LASF7:
 1311 0203 696E7433 		.ascii	"int32_t\000"
 1311      325F7400 
 1312              	.LASF4:
 1313 020b 756E7369 		.ascii	"unsigned char\000"
 1313      676E6564 
 1313      20636861 
 1313      7200
 1314              	.LASF39:
 1315 0219 705F6D74 		.ascii	"p_mtxlist\000"
 1315      786C6973 
 1315      7400
 1316              	.LASF5:
 1317 0223 73686F72 		.ascii	"short int\000"
 1317      7420696E 
 1317      7400
 1318              	.LASF30:
 1319 022d 705F7374 		.ascii	"p_state\000"
 1319      61746500 
 1320              	.LASF33:
 1321 0235 705F7072 		.ascii	"p_preempt\000"
 1321      65656D70 
 1321      7400
 1322              	.LASF58:
ARM GAS  /tmp/cclVkWWf.s 			page 26


 1323 023f 65776D61 		.ascii	"ewmask\000"
 1323      736B00
 1324              	.LASF23:
 1325 0246 705F6E65 		.ascii	"p_next\000"
 1325      787400
 1326              	.LASF31:
 1327 024d 705F666C 		.ascii	"p_flags\000"
 1327      61677300 
 1328              	.LASF22:
 1329 0255 54687265 		.ascii	"Thread\000"
 1329      616400
 1330              	.LASF61:
 1331 025c 73385F74 		.ascii	"s8_t\000"
 1331      00
 1332              	.LASF38:
 1333 0261 705F6570 		.ascii	"p_epending\000"
 1333      656E6469 
 1333      6E6700
 1334              	.LASF9:
 1335 026c 75696E74 		.ascii	"uint32_t\000"
 1335      33325F74 
 1335      00
 1336              	.LASF59:
 1337 0275 63686172 		.ascii	"char\000"
 1337      00
 1338              	.LASF54:
 1339 027a 6D5F6E65 		.ascii	"m_next\000"
 1339      787400
 1340              	.LASF20:
 1341 0281 73797374 		.ascii	"systime_t\000"
 1341      696D655F 
 1341      7400
 1342              	.LASF40:
 1343 028b 705F7265 		.ascii	"p_realprio\000"
 1343      616C7072 
 1343      696F00
 1344              	.LASF34:
 1345 0296 705F7469 		.ascii	"p_time\000"
 1345      6D6500
 1346              	.LASF2:
 1347 029d 696E7438 		.ascii	"int8_t\000"
 1347      5F7400
 1348              	.LASF36:
 1349 02a4 705F6D73 		.ascii	"p_msgqueue\000"
 1349      67717565 
 1349      756500
 1350              	.LASF48:
 1351 02af 53656D61 		.ascii	"Semaphore\000"
 1351      70686F72 
 1351      6500
 1352              	.LASF66:
 1353 02b9 7379735F 		.ascii	"sys_sem_new\000"
 1353      73656D5F 
 1353      6E657700 
 1354              	.LASF32:
 1355 02c5 705F7265 		.ascii	"p_refs\000"
 1355      667300
ARM GAS  /tmp/cclVkWWf.s 			page 27


 1356              	.LASF3:
 1357 02cc 75696E74 		.ascii	"uint8_t\000"
 1357      385F7400 
 1358              	.LASF57:
 1359 02d4 77746F62 		.ascii	"wtobjp\000"
 1359      6A7000
 1360              	.LASF29:
 1361 02db 705F6E61 		.ascii	"p_name\000"
 1361      6D6500
 1362              	.LASF53:
 1363 02e2 6D5F6F77 		.ascii	"m_owner\000"
 1363      6E657200 
 1364              	.LASF26:
 1365 02ea 705F6374 		.ascii	"p_ctx\000"
 1365      7800
 1366              	.LASF35:
 1367 02f0 705F7761 		.ascii	"p_waiting\000"
 1367      6974696E 
 1367      6700
 1368              		.ident	"GCC: (crosstool-NG 1.17.0 - PSAS ST32F4 GFE) 4.7.2"
ARM GAS  /tmp/cclVkWWf.s 			page 28


DEFINED SYMBOLS
                            *ABS*:0000000000000000 sys.c
     /tmp/cclVkWWf.s:21     .text.sys_msleep:0000000000000000 $t
     /tmp/cclVkWWf.s:27     .text.sys_msleep:0000000000000000 sys_msleep
                     .debug_frame:0000000000000010 $d

UNDEFINED SYMBOLS
sys_sem_new
sys_arch_sem_wait
sys_sem_free
