ARM GAS  /tmp/ccXATerv.s 			page 1


   1              		.syntax unified
   2              		.cpu cortex-m4
   3              		.eabi_attribute 27, 3
   4              		.eabi_attribute 28, 1
   5              		.fpu fpv4-sp-d16
   6              		.eabi_attribute 20, 1
   7              		.eabi_attribute 21, 1
   8              		.eabi_attribute 23, 3
   9              		.eabi_attribute 24, 1
  10              		.eabi_attribute 25, 1
  11              		.eabi_attribute 26, 1
  12              		.eabi_attribute 30, 2
  13              		.eabi_attribute 34, 1
  14              		.eabi_attribute 18, 4
  15              		.thumb
  16              		.file	"sys_arch.c"
  17              		.text
  18              	.Ltext0:
  19              		.cfi_sections	.debug_frame
  20              		.section	.text.sys_init,"ax",%progbits
  21              		.align	2
  22              		.p2align 4,,15
  23              		.global	sys_init
  24              		.thumb
  25              		.thumb_func
  26              		.type	sys_init, %function
  27              	sys_init:
  28              	.LFB7:
  29              		.file 1 "../../os/various/lwip_bindings/arch/sys_arch.c"
  30              		.loc 1 67 0
  31              		.cfi_startproc
  32              		@ args = 0, pretend = 0, frame = 0
  33              		@ frame_needed = 0, uses_anonymous_args = 0
  34              		@ link register save eliminated.
  35 0000 7047     		bx	lr
  36              		.cfi_endproc
  37              	.LFE7:
  38              		.size	sys_init, .-sys_init
  39 0002 00BFAFF3 		.section	.text.sys_sem_new,"ax",%progbits
  39      0080AFF3 
  39      0080AFF3 
  39      0080
  40              		.align	2
  41              		.p2align 4,,15
  42              		.global	sys_sem_new
  43              		.thumb
  44              		.thumb_func
  45              		.type	sys_sem_new, %function
  46              	sys_sem_new:
  47              	.LFB8:
  48              		.loc 1 71 0
  49              		.cfi_startproc
  50              		@ args = 0, pretend = 0, frame = 0
  51              		@ frame_needed = 0, uses_anonymous_args = 0
  52              	.LVL0:
  53              		.loc 1 71 0
  54 0000 38B5     		push	{r3, r4, r5, lr}
ARM GAS  /tmp/ccXATerv.s 			page 2


  55              	.LCFI0:
  56              		.cfi_def_cfa_offset 16
  57              		.cfi_offset 3, -16
  58              		.cfi_offset 4, -12
  59              		.cfi_offset 5, -8
  60              		.cfi_offset 14, -4
  61              		.loc 1 71 0
  62 0002 0446     		mov	r4, r0
  63 0004 0D46     		mov	r5, r1
  64              		.loc 1 73 0
  65 0006 0020     		movs	r0, #0
  66              	.LVL1:
  67 0008 0C21     		movs	r1, #12
  68              	.LVL2:
  69 000a FFF7FEFF 		bl	chHeapAlloc
  70              	.LVL3:
  71 000e 2060     		str	r0, [r4, #0]
  72              		.loc 1 74 0
  73 0010 90B1     		cbz	r0, .L7
  74              		.loc 1 79 0
  75 0012 2946     		mov	r1, r5
  76 0014 FFF7FEFF 		bl	chSemInit
  77              	.LVL4:
  78              		.loc 1 80 0
  79 0018 0B4B     		ldr	r3, .L8
  80 001a B3F83E21 		ldrh	r2, [r3, #318]
  81 001e B3F84011 		ldrh	r1, [r3, #320]
  82 0022 0132     		adds	r2, r2, #1
  83 0024 92B2     		uxth	r2, r2
  84 0026 9142     		cmp	r1, r2
  85 0028 38BF     		it	cc
  86 002a A3F84021 		strhcc	r2, [r3, #320]	@ movhi
  87 002e A3F83E21 		strh	r2, [r3, #318]	@ movhi
  88              		.loc 1 81 0
  89 0032 0020     		movs	r0, #0
  90              	.L4:
  91              		.loc 1 83 0
  92 0034 40B2     		sxtb	r0, r0
  93 0036 38BD     		pop	{r3, r4, r5, pc}
  94              	.L7:
  95              		.loc 1 75 0
  96 0038 034B     		ldr	r3, .L8
  97 003a B3F84221 		ldrh	r2, [r3, #322]
  98 003e 0132     		adds	r2, r2, #1
  99 0040 A3F84221 		strh	r2, [r3, #322]	@ movhi
 100              		.loc 1 76 0
 101 0044 FF20     		movs	r0, #255
 102 0046 F5E7     		b	.L4
 103              	.L9:
 104              		.align	2
 105              	.L8:
 106 0048 00000000 		.word	lwip_stats
 107              		.cfi_endproc
 108              	.LFE8:
 109              		.size	sys_sem_new, .-sys_sem_new
 110 004c AFF30080 		.section	.text.sys_sem_free,"ax",%progbits
 111              		.align	2
ARM GAS  /tmp/ccXATerv.s 			page 3


 112              		.p2align 4,,15
 113              		.global	sys_sem_free
 114              		.thumb
 115              		.thumb_func
 116              		.type	sys_sem_free, %function
 117              	sys_sem_free:
 118              	.LFB9:
 119              		.loc 1 85 0
 120              		.cfi_startproc
 121              		@ args = 0, pretend = 0, frame = 0
 122              		@ frame_needed = 0, uses_anonymous_args = 0
 123              	.LVL5:
 124 0000 10B5     		push	{r4, lr}
 125              	.LCFI1:
 126              		.cfi_def_cfa_offset 8
 127              		.cfi_offset 4, -8
 128              		.cfi_offset 14, -4
 129              		.loc 1 85 0
 130 0002 0446     		mov	r4, r0
 131              		.loc 1 87 0
 132 0004 0068     		ldr	r0, [r0, #0]
 133              	.LVL6:
 134 0006 FFF7FEFF 		bl	chHeapFree
 135              	.LVL7:
 136              		.loc 1 89 0
 137 000a 40F20003 		movw	r3, #:lower16:lwip_stats
 138 000e C0F20003 		movt	r3, #:upper16:lwip_stats
 139              		.loc 1 88 0
 140 0012 0021     		movs	r1, #0
 141              		.loc 1 89 0
 142 0014 B3F83E21 		ldrh	r2, [r3, #318]
 143              		.loc 1 88 0
 144 0018 2160     		str	r1, [r4, #0]
 145              		.loc 1 89 0
 146 001a 013A     		subs	r2, r2, #1
 147 001c A3F83E21 		strh	r2, [r3, #318]	@ movhi
 148 0020 10BD     		pop	{r4, pc}
 149              		.cfi_endproc
 150              	.LFE9:
 151              		.size	sys_sem_free, .-sys_sem_free
 152 0022 00BFAFF3 		.section	.text.sys_sem_signal,"ax",%progbits
 152      0080AFF3 
 152      0080AFF3 
 152      0080
 153              		.align	2
 154              		.p2align 4,,15
 155              		.global	sys_sem_signal
 156              		.thumb
 157              		.thumb_func
 158              		.type	sys_sem_signal, %function
 159              	sys_sem_signal:
 160              	.LFB10:
 161              		.loc 1 92 0
 162              		.cfi_startproc
 163              		@ args = 0, pretend = 0, frame = 0
 164              		@ frame_needed = 0, uses_anonymous_args = 0
 165              		@ link register save eliminated.
ARM GAS  /tmp/ccXATerv.s 			page 4


 166              	.LVL8:
 167              		.loc 1 94 0
 168 0000 0068     		ldr	r0, [r0, #0]
 169              	.LVL9:
 170              		.loc 1 95 0
 171              		.loc 1 94 0
 172 0002 FFF7FEBF 		b	chSemSignal
 173              	.LVL10:
 174              		.cfi_endproc
 175              	.LFE10:
 176              		.size	sys_sem_signal, .-sys_sem_signal
 177 0006 00BFAFF3 		.section	.text.sys_arch_sem_wait,"ax",%progbits
 177      0080AFF3 
 177      0080
 178              		.align	2
 179              		.p2align 4,,15
 180              		.global	sys_arch_sem_wait
 181              		.thumb
 182              		.thumb_func
 183              		.type	sys_arch_sem_wait, %function
 184              	sys_arch_sem_wait:
 185              	.LFB11:
 186              		.loc 1 97 0
 187              		.cfi_startproc
 188              		@ args = 0, pretend = 0, frame = 0
 189              		@ frame_needed = 0, uses_anonymous_args = 0
 190              	.LVL11:
 191 0000 38B5     		push	{r3, r4, r5, lr}
 192              	.LCFI2:
 193              		.cfi_def_cfa_offset 16
 194              		.cfi_offset 3, -16
 195              		.cfi_offset 4, -12
 196              		.cfi_offset 5, -8
 197              		.cfi_offset 14, -4
 198              	.LBB2:
 199              		.loc 1 100 0
 200 0002 2023     		movs	r3, #32
 201              	.LVL12:
 202              	@ 100 "../../os/various/lwip_bindings/arch/sys_arch.c" 1
 203 0004 83F31188 		msr     BASEPRI, r3
 204              	@ 0 "" 2
 205              	.LVL13:
 206              		.thumb
 207              	.LBE2:
 208              		.loc 1 102 0
 209 0008 094C     		ldr	r4, .L18
 210              		.loc 1 103 0
 211 000a 0068     		ldr	r0, [r0, #0]
 212              	.LVL14:
 213              		.loc 1 102 0
 214 000c E568     		ldr	r5, [r4, #12]
 215              	.LVL15:
 216              		.loc 1 103 0
 217 000e 0029     		cmp	r1, #0
 218 0010 08BF     		it	eq
 219 0012 4FF0FF31 		moveq	r1, #-1
 220              	.LVL16:
ARM GAS  /tmp/ccXATerv.s 			page 5


 221 0016 FFF7FEFF 		bl	chSemWaitTimeoutS
 222              	.LVL17:
 223 001a 28B1     		cbz	r0, .L17
 224              		.loc 1 104 0
 225 001c 4FF0FF30 		mov	r0, #-1
 226              	.LVL18:
 227              	.L14:
 228              	.LBB3:
 229              		.loc 1 107 0
 230 0020 0023     		movs	r3, #0
 231              	.LVL19:
 232              	@ 107 "../../os/various/lwip_bindings/arch/sys_arch.c" 1
 233 0022 83F31188 		msr     BASEPRI, r3
 234              	@ 0 "" 2
 235              	.LVL20:
 236              		.thumb
 237              	.LBE3:
 238              		.loc 1 109 0
 239 0026 38BD     		pop	{r3, r4, r5, pc}
 240              	.LVL21:
 241              	.L17:
 242              		.loc 1 106 0
 243 0028 E068     		ldr	r0, [r4, #12]
 244 002a 401B     		subs	r0, r0, r5
 245              	.LVL22:
 246 002c F8E7     		b	.L14
 247              	.L19:
 248 002e 00BF     		.align	2
 249              	.L18:
 250 0030 00000000 		.word	vtlist
 251              		.cfi_endproc
 252              	.LFE11:
 253              		.size	sys_arch_sem_wait, .-sys_arch_sem_wait
 254 0034 AFF30080 		.section	.text.sys_sem_valid,"ax",%progbits
 254      AFF30080 
 254      AFF30080 
 255              		.align	2
 256              		.p2align 4,,15
 257              		.global	sys_sem_valid
 258              		.thumb
 259              		.thumb_func
 260              		.type	sys_sem_valid, %function
 261              	sys_sem_valid:
 262              	.LFB12:
 263              		.loc 1 111 0
 264              		.cfi_startproc
 265              		@ args = 0, pretend = 0, frame = 0
 266              		@ frame_needed = 0, uses_anonymous_args = 0
 267              		@ link register save eliminated.
 268              	.LVL23:
 269              		.loc 1 112 0
 270 0000 0068     		ldr	r0, [r0, #0]
 271              	.LVL24:
 272              		.loc 1 113 0
 273 0002 0030     		adds	r0, r0, #0
 274 0004 18BF     		it	ne
 275 0006 0120     		movne	r0, #1
ARM GAS  /tmp/ccXATerv.s 			page 6


 276 0008 7047     		bx	lr
 277              		.cfi_endproc
 278              	.LFE12:
 279              		.size	sys_sem_valid, .-sys_sem_valid
 280 000a 00BFAFF3 		.section	.text.sys_sem_set_invalid,"ax",%progbits
 280      0080
 281              		.align	2
 282              		.p2align 4,,15
 283              		.global	sys_sem_set_invalid
 284              		.thumb
 285              		.thumb_func
 286              		.type	sys_sem_set_invalid, %function
 287              	sys_sem_set_invalid:
 288              	.LFB13:
 289              		.loc 1 117 0
 290              		.cfi_startproc
 291              		@ args = 0, pretend = 0, frame = 0
 292              		@ frame_needed = 0, uses_anonymous_args = 0
 293              		@ link register save eliminated.
 294              	.LVL25:
 295              		.loc 1 118 0
 296 0000 0023     		movs	r3, #0
 297 0002 0360     		str	r3, [r0, #0]
 298 0004 7047     		bx	lr
 299              		.cfi_endproc
 300              	.LFE13:
 301              		.size	sys_sem_set_invalid, .-sys_sem_set_invalid
 302 0006 00BFAFF3 		.section	.text.sys_mbox_new,"ax",%progbits
 302      0080AFF3 
 302      0080
 303              		.align	2
 304              		.p2align 4,,15
 305              		.global	sys_mbox_new
 306              		.thumb
 307              		.thumb_func
 308              		.type	sys_mbox_new, %function
 309              	sys_mbox_new:
 310              	.LFB14:
 311              		.loc 1 121 0
 312              		.cfi_startproc
 313              		@ args = 0, pretend = 0, frame = 0
 314              		@ frame_needed = 0, uses_anonymous_args = 0
 315              	.LVL26:
 316 0000 38B5     		push	{r3, r4, r5, lr}
 317              	.LCFI3:
 318              		.cfi_def_cfa_offset 16
 319              		.cfi_offset 3, -16
 320              		.cfi_offset 4, -12
 321              		.cfi_offset 5, -8
 322              		.cfi_offset 14, -4
 323              		.loc 1 121 0
 324 0002 0C46     		mov	r4, r1
 325              		.loc 1 123 0
 326 0004 01F10A01 		add	r1, r1, #10
 327              	.LVL27:
 328              		.loc 1 121 0
 329 0008 0546     		mov	r5, r0
ARM GAS  /tmp/ccXATerv.s 			page 7


 330              		.loc 1 123 0
 331 000a 8900     		lsls	r1, r1, #2
 332 000c 0020     		movs	r0, #0
 333              	.LVL28:
 334 000e FFF7FEFF 		bl	chHeapAlloc
 335              	.LVL29:
 336 0012 0146     		mov	r1, r0
 337 0014 2860     		str	r0, [r5, #0]
 338              		.loc 1 124 0
 339 0016 60B1     		cbz	r0, .L25
 340              		.loc 1 129 0
 341 0018 2246     		mov	r2, r4
 342 001a 2831     		adds	r1, r1, #40
 343 001c FFF7FEFF 		bl	chMBInit
 344              	.LVL30:
 345              		.loc 1 130 0
 346 0020 084B     		ldr	r3, .L26
 347 0022 B3F84A21 		ldrh	r2, [r3, #330]
 348 0026 0132     		adds	r2, r2, #1
 349 0028 A3F84A21 		strh	r2, [r3, #330]	@ movhi
 350              		.loc 1 131 0
 351 002c 0020     		movs	r0, #0
 352              	.L24:
 353              		.loc 1 133 0
 354 002e 40B2     		sxtb	r0, r0
 355 0030 38BD     		pop	{r3, r4, r5, pc}
 356              	.L25:
 357              		.loc 1 125 0
 358 0032 044B     		ldr	r3, .L26
 359 0034 B3F84E21 		ldrh	r2, [r3, #334]
 360 0038 0132     		adds	r2, r2, #1
 361 003a A3F84E21 		strh	r2, [r3, #334]	@ movhi
 362              		.loc 1 126 0
 363 003e FF20     		movs	r0, #255
 364 0040 F5E7     		b	.L24
 365              	.L27:
 366 0042 00BF     		.align	2
 367              	.L26:
 368 0044 00000000 		.word	lwip_stats
 369              		.cfi_endproc
 370              	.LFE14:
 371              		.size	sys_mbox_new, .-sys_mbox_new
 372 0048 AFF30080 		.section	.text.sys_mbox_free,"ax",%progbits
 372      AFF30080 
 373              		.align	2
 374              		.p2align 4,,15
 375              		.global	sys_mbox_free
 376              		.thumb
 377              		.thumb_func
 378              		.type	sys_mbox_free, %function
 379              	sys_mbox_free:
 380              	.LFB15:
 381              		.loc 1 135 0
 382              		.cfi_startproc
 383              		@ args = 0, pretend = 0, frame = 0
 384              		@ frame_needed = 0, uses_anonymous_args = 0
 385              	.LVL31:
ARM GAS  /tmp/ccXATerv.s 			page 8


 386 0000 38B5     		push	{r3, r4, r5, lr}
 387              	.LCFI4:
 388              		.cfi_def_cfa_offset 16
 389              		.cfi_offset 3, -16
 390              		.cfi_offset 4, -12
 391              		.cfi_offset 5, -8
 392              		.cfi_offset 14, -4
 393              		.loc 1 135 0
 394 0002 0546     		mov	r5, r0
 395              		.loc 1 137 0
 396 0004 0068     		ldr	r0, [r0, #0]
 397              	.LVL32:
 398              		.loc 1 141 0
 399 0006 0A4C     		ldr	r4, .L33
 400              		.loc 1 137 0
 401 0008 8369     		ldr	r3, [r0, #24]
 402 000a 3BB1     		cbz	r3, .L29
 403              		.loc 1 141 0
 404 000c B4F84E31 		ldrh	r3, [r4, #334]
 405 0010 0133     		adds	r3, r3, #1
 406 0012 A4F84E31 		strh	r3, [r4, #334]	@ movhi
 407              		.loc 1 142 0
 408 0016 FFF7FEFF 		bl	chMBReset
 409              	.LVL33:
 410 001a 2868     		ldr	r0, [r5, #0]
 411              	.L29:
 412              		.loc 1 144 0
 413 001c FFF7FEFF 		bl	chHeapFree
 414              	.LVL34:
 415              		.loc 1 146 0
 416 0020 B4F84A31 		ldrh	r3, [r4, #330]
 417              		.loc 1 145 0
 418 0024 0022     		movs	r2, #0
 419              		.loc 1 146 0
 420 0026 013B     		subs	r3, r3, #1
 421              		.loc 1 145 0
 422 0028 2A60     		str	r2, [r5, #0]
 423              		.loc 1 146 0
 424 002a A4F84A31 		strh	r3, [r4, #330]	@ movhi
 425 002e 38BD     		pop	{r3, r4, r5, pc}
 426              	.L34:
 427              		.align	2
 428              	.L33:
 429 0030 00000000 		.word	lwip_stats
 430              		.cfi_endproc
 431              	.LFE15:
 432              		.size	sys_mbox_free, .-sys_mbox_free
 433 0034 AFF30080 		.section	.text.sys_mbox_post,"ax",%progbits
 433      AFF30080 
 433      AFF30080 
 434              		.align	2
 435              		.p2align 4,,15
 436              		.global	sys_mbox_post
 437              		.thumb
 438              		.thumb_func
 439              		.type	sys_mbox_post, %function
 440              	sys_mbox_post:
ARM GAS  /tmp/ccXATerv.s 			page 9


 441              	.LFB16:
 442              		.loc 1 149 0
 443              		.cfi_startproc
 444              		@ args = 0, pretend = 0, frame = 0
 445              		@ frame_needed = 0, uses_anonymous_args = 0
 446              		@ link register save eliminated.
 447              	.LVL35:
 448              		.loc 1 151 0
 449 0000 0068     		ldr	r0, [r0, #0]
 450              	.LVL36:
 451 0002 4FF0FF32 		mov	r2, #-1
 452              		.loc 1 152 0
 453              		.loc 1 151 0
 454 0006 FFF7FEBF 		b	chMBPost
 455              	.LVL37:
 456              		.cfi_endproc
 457              	.LFE16:
 458              		.size	sys_mbox_post, .-sys_mbox_post
 459 000a 00BFAFF3 		.section	.text.sys_mbox_trypost,"ax",%progbits
 459      0080
 460              		.align	2
 461              		.p2align 4,,15
 462              		.global	sys_mbox_trypost
 463              		.thumb
 464              		.thumb_func
 465              		.type	sys_mbox_trypost, %function
 466              	sys_mbox_trypost:
 467              	.LFB17:
 468              		.loc 1 154 0
 469              		.cfi_startproc
 470              		@ args = 0, pretend = 0, frame = 0
 471              		@ frame_needed = 0, uses_anonymous_args = 0
 472              	.LVL38:
 473              		.loc 1 156 0
 474 0000 0022     		movs	r2, #0
 475              		.loc 1 154 0
 476 0002 08B5     		push	{r3, lr}
 477              	.LCFI5:
 478              		.cfi_def_cfa_offset 8
 479              		.cfi_offset 3, -8
 480              		.cfi_offset 14, -4
 481              		.loc 1 156 0
 482 0004 0068     		ldr	r0, [r0, #0]
 483              	.LVL39:
 484 0006 FFF7FEFF 		bl	chMBPost
 485              	.LVL40:
 486 000a 0130     		adds	r0, r0, #1
 487 000c 02D0     		beq	.L39
 488              		.loc 1 160 0
 489 000e 0020     		movs	r0, #0
 490              	.L37:
 491              		.loc 1 161 0
 492 0010 40B2     		sxtb	r0, r0
 493 0012 08BD     		pop	{r3, pc}
 494              	.L39:
 495              		.loc 1 157 0
 496 0014 034B     		ldr	r3, .L40
ARM GAS  /tmp/ccXATerv.s 			page 10


 497 0016 B3F84E21 		ldrh	r2, [r3, #334]
 498 001a 0132     		adds	r2, r2, #1
 499 001c A3F84E21 		strh	r2, [r3, #334]	@ movhi
 500              		.loc 1 158 0
 501 0020 FF20     		movs	r0, #255
 502 0022 F5E7     		b	.L37
 503              	.L41:
 504              		.align	2
 505              	.L40:
 506 0024 00000000 		.word	lwip_stats
 507              		.cfi_endproc
 508              	.LFE17:
 509              		.size	sys_mbox_trypost, .-sys_mbox_trypost
 510 0028 AFF30080 		.section	.text.sys_arch_mbox_fetch,"ax",%progbits
 510      AFF30080 
 511              		.align	2
 512              		.p2align 4,,15
 513              		.global	sys_arch_mbox_fetch
 514              		.thumb
 515              		.thumb_func
 516              		.type	sys_arch_mbox_fetch, %function
 517              	sys_arch_mbox_fetch:
 518              	.LFB18:
 519              		.loc 1 163 0
 520              		.cfi_startproc
 521              		@ args = 0, pretend = 0, frame = 0
 522              		@ frame_needed = 0, uses_anonymous_args = 0
 523              	.LVL41:
 524 0000 38B5     		push	{r3, r4, r5, lr}
 525              	.LCFI6:
 526              		.cfi_def_cfa_offset 16
 527              		.cfi_offset 3, -16
 528              		.cfi_offset 4, -12
 529              		.cfi_offset 5, -8
 530              		.cfi_offset 14, -4
 531              	.LBB4:
 532              		.loc 1 166 0
 533 0002 2023     		movs	r3, #32
 534              	.LVL42:
 535              	@ 166 "../../os/various/lwip_bindings/arch/sys_arch.c" 1
 536 0004 83F31188 		msr     BASEPRI, r3
 537              	@ 0 "" 2
 538              	.LVL43:
 539              		.thumb
 540              	.LBE4:
 541              		.loc 1 168 0
 542 0008 094C     		ldr	r4, .L48
 543              		.loc 1 169 0
 544 000a 0068     		ldr	r0, [r0, #0]
 545              	.LVL44:
 546              		.loc 1 168 0
 547 000c E568     		ldr	r5, [r4, #12]
 548              	.LVL45:
 549              		.loc 1 169 0
 550 000e 002A     		cmp	r2, #0
 551 0010 08BF     		it	eq
 552 0012 4FF0FF32 		moveq	r2, #-1
ARM GAS  /tmp/ccXATerv.s 			page 11


 553              	.LVL46:
 554 0016 FFF7FEFF 		bl	chMBFetchS
 555              	.LVL47:
 556 001a 28B1     		cbz	r0, .L47
 557              		.loc 1 170 0
 558 001c 4FF0FF30 		mov	r0, #-1
 559              	.LVL48:
 560              	.L44:
 561              	.LBB5:
 562              		.loc 1 173 0
 563 0020 0023     		movs	r3, #0
 564              	.LVL49:
 565              	@ 173 "../../os/various/lwip_bindings/arch/sys_arch.c" 1
 566 0022 83F31188 		msr     BASEPRI, r3
 567              	@ 0 "" 2
 568              	.LVL50:
 569              		.thumb
 570              	.LBE5:
 571              		.loc 1 175 0
 572 0026 38BD     		pop	{r3, r4, r5, pc}
 573              	.LVL51:
 574              	.L47:
 575              		.loc 1 172 0
 576 0028 E068     		ldr	r0, [r4, #12]
 577 002a 401B     		subs	r0, r0, r5
 578              	.LVL52:
 579 002c F8E7     		b	.L44
 580              	.L49:
 581 002e 00BF     		.align	2
 582              	.L48:
 583 0030 00000000 		.word	vtlist
 584              		.cfi_endproc
 585              	.LFE18:
 586              		.size	sys_arch_mbox_fetch, .-sys_arch_mbox_fetch
 587 0034 AFF30080 		.section	.text.sys_arch_mbox_tryfetch,"ax",%progbits
 587      AFF30080 
 587      AFF30080 
 588              		.align	2
 589              		.p2align 4,,15
 590              		.global	sys_arch_mbox_tryfetch
 591              		.thumb
 592              		.thumb_func
 593              		.type	sys_arch_mbox_tryfetch, %function
 594              	sys_arch_mbox_tryfetch:
 595              	.LFB19:
 596              		.loc 1 177 0
 597              		.cfi_startproc
 598              		@ args = 0, pretend = 0, frame = 0
 599              		@ frame_needed = 0, uses_anonymous_args = 0
 600              	.LVL53:
 601 0000 08B5     		push	{r3, lr}
 602              	.LCFI7:
 603              		.cfi_def_cfa_offset 8
 604              		.cfi_offset 3, -8
 605              		.cfi_offset 14, -4
 606              		.loc 1 179 0
 607 0002 0022     		movs	r2, #0
ARM GAS  /tmp/ccXATerv.s 			page 12


 608 0004 0068     		ldr	r0, [r0, #0]
 609              	.LVL54:
 610 0006 FFF7FEFF 		bl	chMBFetch
 611              	.LVL55:
 612              		.loc 1 182 0
 613 000a B0F1FF3F 		cmp	r0, #-1
 614 000e 0CBF     		ite	eq
 615 0010 4FF0FF30 		moveq	r0, #-1
 616 0014 0020     		movne	r0, #0
 617 0016 08BD     		pop	{r3, pc}
 618              		.cfi_endproc
 619              	.LFE19:
 620              		.size	sys_arch_mbox_tryfetch, .-sys_arch_mbox_tryfetch
 621 0018 AFF30080 		.section	.text.sys_mbox_valid,"ax",%progbits
 621      AFF30080 
 622              		.align	2
 623              		.p2align 4,,15
 624              		.global	sys_mbox_valid
 625              		.thumb
 626              		.thumb_func
 627              		.type	sys_mbox_valid, %function
 628              	sys_mbox_valid:
 629              	.LFB20:
 630              		.loc 1 184 0
 631              		.cfi_startproc
 632              		@ args = 0, pretend = 0, frame = 0
 633              		@ frame_needed = 0, uses_anonymous_args = 0
 634              		@ link register save eliminated.
 635              	.LVL56:
 636              		.loc 1 185 0
 637 0000 0068     		ldr	r0, [r0, #0]
 638              	.LVL57:
 639              		.loc 1 186 0
 640 0002 0030     		adds	r0, r0, #0
 641 0004 18BF     		it	ne
 642 0006 0120     		movne	r0, #1
 643 0008 7047     		bx	lr
 644              		.cfi_endproc
 645              	.LFE20:
 646              		.size	sys_mbox_valid, .-sys_mbox_valid
 647 000a 00BFAFF3 		.section	.text.sys_mbox_set_invalid,"ax",%progbits
 647      0080
 648              		.align	2
 649              		.p2align 4,,15
 650              		.global	sys_mbox_set_invalid
 651              		.thumb
 652              		.thumb_func
 653              		.type	sys_mbox_set_invalid, %function
 654              	sys_mbox_set_invalid:
 655              	.LFB21:
 656              		.loc 1 190 0
 657              		.cfi_startproc
 658              		@ args = 0, pretend = 0, frame = 0
 659              		@ frame_needed = 0, uses_anonymous_args = 0
 660              		@ link register save eliminated.
 661              	.LVL58:
 662              		.loc 1 191 0
ARM GAS  /tmp/ccXATerv.s 			page 13


 663 0000 0023     		movs	r3, #0
 664 0002 0360     		str	r3, [r0, #0]
 665 0004 7047     		bx	lr
 666              		.cfi_endproc
 667              	.LFE21:
 668              		.size	sys_mbox_set_invalid, .-sys_mbox_set_invalid
 669 0006 00BFAFF3 		.section	.text.sys_thread_new,"ax",%progbits
 669      0080AFF3 
 669      0080
 670              		.align	2
 671              		.p2align 4,,15
 672              		.global	sys_thread_new
 673              		.thumb
 674              		.thumb_func
 675              		.type	sys_thread_new, %function
 676              	sys_thread_new:
 677              	.LFB22:
 678              		.loc 1 195 0
 679              		.cfi_startproc
 680              		@ args = 4, pretend = 0, frame = 0
 681              		@ frame_needed = 0, uses_anonymous_args = 0
 682              	.LVL59:
 683              		.loc 1 201 0
 684 0000 AB33     		adds	r3, r3, #171
 685              	.LVL60:
 686              		.loc 1 195 0
 687 0002 2DE9F041 		push	{r4, r5, r6, r7, r8, lr}
 688              	.LCFI8:
 689              		.cfi_def_cfa_offset 24
 690              		.cfi_offset 4, -24
 691              		.cfi_offset 5, -20
 692              		.cfi_offset 6, -16
 693              		.cfi_offset 7, -12
 694              		.cfi_offset 8, -8
 695              		.cfi_offset 14, -4
 696              		.loc 1 201 0
 697 0006 43F00704 		orr	r4, r3, #7
 698 000a 0134     		adds	r4, r4, #1
 699              	.LVL61:
 700              		.loc 1 202 0
 701 000c 2046     		mov	r0, r4
 702              	.LVL62:
 703              		.loc 1 195 0
 704 000e 0D46     		mov	r5, r1
 705 0010 1746     		mov	r7, r2
 706 0012 069E     		ldr	r6, [sp, #24]
 707              		.loc 1 202 0
 708 0014 FFF7FEFF 		bl	chCoreAlloc
 709              	.LVL63:
 710              		.loc 1 203 0
 711 0018 38B1     		cbz	r0, .L56
 712              		.loc 1 205 0
 713 001a 2146     		mov	r1, r4
 714 001c 3246     		mov	r2, r6
 715 001e 2B46     		mov	r3, r5
 716 0020 0697     		str	r7, [sp, #24]
 717              		.loc 1 206 0
ARM GAS  /tmp/ccXATerv.s 			page 14


 718 0022 BDE8F041 		pop	{r4, r5, r6, r7, r8, lr}
 719              		.loc 1 205 0
 720 0026 FFF7FEBF 		b	chThdCreateStatic
 721              	.LVL64:
 722              	.L56:
 723              		.loc 1 206 0
 724 002a BDE8F081 		pop	{r4, r5, r6, r7, r8, pc}
 725              		.cfi_endproc
 726              	.LFE22:
 727              		.size	sys_thread_new, .-sys_thread_new
 728 002e 00BF     		.section	.text.sys_arch_protect,"ax",%progbits
 729              		.align	2
 730              		.p2align 4,,15
 731              		.global	sys_arch_protect
 732              		.thumb
 733              		.thumb_func
 734              		.type	sys_arch_protect, %function
 735              	sys_arch_protect:
 736              	.LFB23:
 737              		.loc 1 208 0
 738              		.cfi_startproc
 739              		@ args = 0, pretend = 0, frame = 0
 740              		@ frame_needed = 0, uses_anonymous_args = 0
 741              		@ link register save eliminated.
 742              	.LBB6:
 743              		.loc 1 210 0
 744 0000 2023     		movs	r3, #32
 745              	.LVL65:
 746              	@ 210 "../../os/various/lwip_bindings/arch/sys_arch.c" 1
 747 0002 83F31188 		msr     BASEPRI, r3
 748              	@ 0 "" 2
 749              	.LVL66:
 750              		.thumb
 751              	.LBE6:
 752              		.loc 1 212 0
 753 0006 0020     		movs	r0, #0
 754 0008 7047     		bx	lr
 755              		.cfi_endproc
 756              	.LFE23:
 757              		.size	sys_arch_protect, .-sys_arch_protect
 758 000a 00BFAFF3 		.section	.text.sys_arch_unprotect,"ax",%progbits
 758      0080
 759              		.align	2
 760              		.p2align 4,,15
 761              		.global	sys_arch_unprotect
 762              		.thumb
 763              		.thumb_func
 764              		.type	sys_arch_unprotect, %function
 765              	sys_arch_unprotect:
 766              	.LFB24:
 767              		.loc 1 214 0
 768              		.cfi_startproc
 769              		@ args = 0, pretend = 0, frame = 0
 770              		@ frame_needed = 0, uses_anonymous_args = 0
 771              		@ link register save eliminated.
 772              	.LVL67:
 773              	.LBB7:
ARM GAS  /tmp/ccXATerv.s 			page 15


 774              		.loc 1 217 0
 775 0000 0023     		movs	r3, #0
 776              	.LVL68:
 777              	@ 217 "../../os/various/lwip_bindings/arch/sys_arch.c" 1
 778 0002 83F31188 		msr     BASEPRI, r3
 779              	@ 0 "" 2
 780              	.LVL69:
 781              		.thumb
 782 0006 7047     		bx	lr
 783              	.LBE7:
 784              		.cfi_endproc
 785              	.LFE24:
 786              		.size	sys_arch_unprotect, .-sys_arch_unprotect
 787 0008 AFF30080 		.text
 787      AFF30080 
 788              	.Letext0:
 789              		.file 2 "/opt/psas/x-tools/stm32f407/arm-psas-eabi/bin/../lib/gcc/arm-psas-eabi/4.7.2/include/stdd
 790              		.file 3 "/opt/psas/x-tools/stm32f407/arm-psas-eabi/bin/../lib/gcc/arm-psas-eabi/4.7.2/../../../../
 791              		.file 4 "../../os/ports/GCC/ARMCMx/chtypes.h"
 792              		.file 5 "../../os/kernel/include/chlists.h"
 793              		.file 6 "../../os/kernel/include/chthreads.h"
 794              		.file 7 "../../os/ports/GCC/ARMCMx/chcore_v7m.h"
 795              		.file 8 "../../os/kernel/include/chvt.h"
 796              		.file 9 "../../os/kernel/include/chsem.h"
 797              		.file 10 "../../os/kernel/include/chmtx.h"
 798              		.file 11 "../../os/kernel/include/chmboxes.h"
 799              		.file 12 "../../os/kernel/include/chmemcore.h"
 800              		.file 13 "../../os/kernel/include/chheap.h"
 801              		.file 14 "../../os/various/lwip_bindings/arch/cc.h"
 802              		.file 15 "../../ext/lwip/src/include/lwip/mem.h"
 803              		.file 16 "../../ext/lwip/src/include/lwip/err.h"
 804              		.file 17 "../../os/various/lwip_bindings/arch/sys_arch.h"
 805              		.file 18 "../../ext/lwip/src/include/lwip/sys.h"
 806              		.file 19 "../../ext/lwip/src/include/lwip/stats.h"