ARM GAS  /tmp/ccXATerv.s 			page 1


   1              		.syntax unified
   2              		.cpu cortex-m4
   3              		.eabi_attribute 27, 3
   4              		.eabi_attribute 28, 1
   5              		.fpu fpv4-sp-d16
   6              		.eabi_attribute 20, 1
   7              		.eabi_attribute 21, 1
   8              		.eabi_attribute 23, 3
   9              		.eabi_attribute 24, 1
  10              		.eabi_attribute 25, 1
  11              		.eabi_attribute 26, 1
  12              		.eabi_attribute 30, 2
  13              		.eabi_attribute 34, 1
  14              		.eabi_attribute 18, 4
  15              		.thumb
  16              		.file	"sys_arch.c"
  17              		.text
  18              	.Ltext0:
  19              		.cfi_sections	.debug_frame
  20              		.section	.text.sys_init,"ax",%progbits
  21              		.align	2
  22              		.p2align 4,,15
  23              		.global	sys_init
  24              		.thumb
  25              		.thumb_func
  26              		.type	sys_init, %function
  27              	sys_init:
  28              	.LFB7:
  29              		.file 1 "../../os/various/lwip_bindings/arch/sys_arch.c"
  30              		.loc 1 67 0
  31              		.cfi_startproc
  32              		@ args = 0, pretend = 0, frame = 0
  33              		@ frame_needed = 0, uses_anonymous_args = 0
  34              		@ link register save eliminated.
  35 0000 7047     		bx	lr
  36              		.cfi_endproc
  37              	.LFE7:
  38              		.size	sys_init, .-sys_init
  39 0002 00BFAFF3 		.section	.text.sys_sem_new,"ax",%progbits
  39      0080AFF3 
  39      0080AFF3 
  39      0080
  40              		.align	2
  41              		.p2align 4,,15
  42              		.global	sys_sem_new
  43              		.thumb
  44              		.thumb_func
  45              		.type	sys_sem_new, %function
  46              	sys_sem_new:
  47              	.LFB8:
  48              		.loc 1 71 0
  49              		.cfi_startproc
  50              		@ args = 0, pretend = 0, frame = 0
  51              		@ frame_needed = 0, uses_anonymous_args = 0
  52              	.LVL0:
  53              		.loc 1 71 0
  54 0000 38B5     		push	{r3, r4, r5, lr}
ARM GAS  /tmp/ccXATerv.s 			page 2


  55              	.LCFI0:
  56              		.cfi_def_cfa_offset 16
  57              		.cfi_offset 3, -16
  58              		.cfi_offset 4, -12
  59              		.cfi_offset 5, -8
  60              		.cfi_offset 14, -4
  61              		.loc 1 71 0
  62 0002 0446     		mov	r4, r0
  63 0004 0D46     		mov	r5, r1
  64              		.loc 1 73 0
  65 0006 0020     		movs	r0, #0
  66              	.LVL1:
  67 0008 0C21     		movs	r1, #12
  68              	.LVL2:
  69 000a FFF7FEFF 		bl	chHeapAlloc
  70              	.LVL3:
  71 000e 2060     		str	r0, [r4, #0]
  72              		.loc 1 74 0
  73 0010 90B1     		cbz	r0, .L7
  74              		.loc 1 79 0
  75 0012 2946     		mov	r1, r5
  76 0014 FFF7FEFF 		bl	chSemInit
  77              	.LVL4:
  78              		.loc 1 80 0
  79 0018 0B4B     		ldr	r3, .L8
  80 001a B3F83E21 		ldrh	r2, [r3, #318]
  81 001e B3F84011 		ldrh	r1, [r3, #320]
  82 0022 0132     		adds	r2, r2, #1
  83 0024 92B2     		uxth	r2, r2
  84 0026 9142     		cmp	r1, r2
  85 0028 38BF     		it	cc
  86 002a A3F84021 		strhcc	r2, [r3, #320]	@ movhi
  87 002e A3F83E21 		strh	r2, [r3, #318]	@ movhi
  88              		.loc 1 81 0
  89 0032 0020     		movs	r0, #0
  90              	.L4:
  91              		.loc 1 83 0
  92 0034 40B2     		sxtb	r0, r0
  93 0036 38BD     		pop	{r3, r4, r5, pc}
  94              	.L7:
  95              		.loc 1 75 0
  96 0038 034B     		ldr	r3, .L8
  97 003a B3F84221 		ldrh	r2, [r3, #322]
  98 003e 0132     		adds	r2, r2, #1
  99 0040 A3F84221 		strh	r2, [r3, #322]	@ movhi
 100              		.loc 1 76 0
 101 0044 FF20     		movs	r0, #255
 102 0046 F5E7     		b	.L4
 103              	.L9:
 104              		.align	2
 105              	.L8:
 106 0048 00000000 		.word	lwip_stats
 107              		.cfi_endproc
 108              	.LFE8:
 109              		.size	sys_sem_new, .-sys_sem_new
 110 004c AFF30080 		.section	.text.sys_sem_free,"ax",%progbits
 111              		.align	2
ARM GAS  /tmp/ccXATerv.s 			page 3


 112              		.p2align 4,,15
 113              		.global	sys_sem_free
 114              		.thumb
 115              		.thumb_func
 116              		.type	sys_sem_free, %function
 117              	sys_sem_free:
 118              	.LFB9:
 119              		.loc 1 85 0
 120              		.cfi_startproc
 121              		@ args = 0, pretend = 0, frame = 0
 122              		@ frame_needed = 0, uses_anonymous_args = 0
 123              	.LVL5:
 124 0000 10B5     		push	{r4, lr}
 125              	.LCFI1:
 126              		.cfi_def_cfa_offset 8
 127              		.cfi_offset 4, -8
 128              		.cfi_offset 14, -4
 129              		.loc 1 85 0
 130 0002 0446     		mov	r4, r0
 131              		.loc 1 87 0
 132 0004 0068     		ldr	r0, [r0, #0]
 133              	.LVL6:
 134 0006 FFF7FEFF 		bl	chHeapFree
 135              	.LVL7:
 136              		.loc 1 89 0
 137 000a 40F20003 		movw	r3, #:lower16:lwip_stats
 138 000e C0F20003 		movt	r3, #:upper16:lwip_stats
 139              		.loc 1 88 0
 140 0012 0021     		movs	r1, #0
 141              		.loc 1 89 0
 142 0014 B3F83E21 		ldrh	r2, [r3, #318]
 143              		.loc 1 88 0
 144 0018 2160     		str	r1, [r4, #0]
 145              		.loc 1 89 0
 146 001a 013A     		subs	r2, r2, #1
 147 001c A3F83E21 		strh	r2, [r3, #318]	@ movhi
 148 0020 10BD     		pop	{r4, pc}
 149              		.cfi_endproc
 150              	.LFE9:
 151              		.size	sys_sem_free, .-sys_sem_free
 152 0022 00BFAFF3 		.section	.text.sys_sem_signal,"ax",%progbits
 152      0080AFF3 
 152      0080AFF3 
 152      0080
 153              		.align	2
 154              		.p2align 4,,15
 155              		.global	sys_sem_signal
 156              		.thumb
 157              		.thumb_func
 158              		.type	sys_sem_signal, %function
 159              	sys_sem_signal:
 160              	.LFB10:
 161              		.loc 1 92 0
 162              		.cfi_startproc
 163              		@ args = 0, pretend = 0, frame = 0
 164              		@ frame_needed = 0, uses_anonymous_args = 0
 165              		@ link register save eliminated.
ARM GAS  /tmp/ccXATerv.s 			page 4


 166              	.LVL8:
 167              		.loc 1 94 0
 168 0000 0068     		ldr	r0, [r0, #0]
 169              	.LVL9:
 170              		.loc 1 95 0
 171              		.loc 1 94 0
 172 0002 FFF7FEBF 		b	chSemSignal
 173              	.LVL10:
 174              		.cfi_endproc
 175              	.LFE10:
 176              		.size	sys_sem_signal, .-sys_sem_signal
 177 0006 00BFAFF3 		.section	.text.sys_arch_sem_wait,"ax",%progbits
 177      0080AFF3 
 177      0080
 178              		.align	2
 179              		.p2align 4,,15
 180              		.global	sys_arch_sem_wait
 181              		.thumb
 182              		.thumb_func
 183              		.type	sys_arch_sem_wait, %function
 184              	sys_arch_sem_wait:
 185              	.LFB11:
 186              		.loc 1 97 0
 187              		.cfi_startproc
 188              		@ args = 0, pretend = 0, frame = 0
 189              		@ frame_needed = 0, uses_anonymous_args = 0
 190              	.LVL11:
 191 0000 38B5     		push	{r3, r4, r5, lr}
 192              	.LCFI2:
 193              		.cfi_def_cfa_offset 16
 194              		.cfi_offset 3, -16
 195              		.cfi_offset 4, -12
 196              		.cfi_offset 5, -8
 197              		.cfi_offset 14, -4
 198              	.LBB2:
 199              		.loc 1 100 0
 200 0002 2023     		movs	r3, #32
 201              	.LVL12:
 202              	@ 100 "../../os/various/lwip_bindings/arch/sys_arch.c" 1
 203 0004 83F31188 		msr     BASEPRI, r3
 204              	@ 0 "" 2
 205              	.LVL13:
 206              		.thumb
 207              	.LBE2:
 208              		.loc 1 102 0
 209 0008 094C     		ldr	r4, .L18
 210              		.loc 1 103 0
 211 000a 0068     		ldr	r0, [r0, #0]
 212              	.LVL14:
 213              		.loc 1 102 0
 214 000c E568     		ldr	r5, [r4, #12]
 215              	.LVL15:
 216              		.loc 1 103 0
 217 000e 0029     		cmp	r1, #0
 218 0010 08BF     		it	eq
 219 0012 4FF0FF31 		moveq	r1, #-1
 220              	.LVL16:
ARM GAS  /tmp/ccXATerv.s 			page 5


 221 0016 FFF7FEFF 		bl	chSemWaitTimeoutS
 222              	.LVL17:
 223 001a 28B1     		cbz	r0, .L17
 224              		.loc 1 104 0
 225 001c 4FF0FF30 		mov	r0, #-1
 226              	.LVL18:
 227              	.L14:
 228              	.LBB3:
 229              		.loc 1 107 0
 230 0020 0023     		movs	r3, #0
 231              	.LVL19:
 232              	@ 107 "../../os/various/lwip_bindings/arch/sys_arch.c" 1
 233 0022 83F31188 		msr     BASEPRI, r3
 234              	@ 0 "" 2
 235              	.LVL20:
 236              		.thumb
 237              	.LBE3:
 238              		.loc 1 109 0
 239 0026 38BD     		pop	{r3, r4, r5, pc}
 240              	.LVL21:
 241              	.L17:
 242              		.loc 1 106 0
 243 0028 E068     		ldr	r0, [r4, #12]
 244 002a 401B     		subs	r0, r0, r5
 245              	.LVL22:
 246 002c F8E7     		b	.L14
 247              	.L19:
 248 002e 00BF     		.align	2
 249              	.L18:
 250 0030 00000000 		.word	vtlist
 251              		.cfi_endproc
 252              	.LFE11:
 253              		.size	sys_arch_sem_wait, .-sys_arch_sem_wait
 254 0034 AFF30080 		.section	.text.sys_sem_valid,"ax",%progbits
 254      AFF30080 
 254      AFF30080 
 255              		.align	2
 256              		.p2align 4,,15
 257              		.global	sys_sem_valid
 258              		.thumb
 259              		.thumb_func
 260              		.type	sys_sem_valid, %function
 261              	sys_sem_valid:
 262              	.LFB12:
 263              		.loc 1 111 0
 264              		.cfi_startproc
 265              		@ args = 0, pretend = 0, frame = 0
 266              		@ frame_needed = 0, uses_anonymous_args = 0
 267              		@ link register save eliminated.
 268              	.LVL23:
 269              		.loc 1 112 0
 270 0000 0068     		ldr	r0, [r0, #0]
 271              	.LVL24:
 272              		.loc 1 113 0
 273 0002 0030     		adds	r0, r0, #0
 274 0004 18BF     		it	ne
 275 0006 0120     		movne	r0, #1
ARM GAS  /tmp/ccXATerv.s 			page 6


 276 0008 7047     		bx	lr
 277              		.cfi_endproc
 278              	.LFE12:
 279              		.size	sys_sem_valid, .-sys_sem_valid
 280 000a 00BFAFF3 		.section	.text.sys_sem_set_invalid,"ax",%progbits
 280      0080
 281              		.align	2
 282              		.p2align 4,,15
 283              		.global	sys_sem_set_invalid
 284              		.thumb
 285              		.thumb_func
 286              		.type	sys_sem_set_invalid, %function
 287              	sys_sem_set_invalid:
 288              	.LFB13:
 289              		.loc 1 117 0
 290              		.cfi_startproc
 291              		@ args = 0, pretend = 0, frame = 0
 292              		@ frame_needed = 0, uses_anonymous_args = 0
 293              		@ link register save eliminated.
 294              	.LVL25:
 295              		.loc 1 118 0
 296 0000 0023     		movs	r3, #0
 297 0002 0360     		str	r3, [r0, #0]
 298 0004 7047     		bx	lr
 299              		.cfi_endproc
 300              	.LFE13:
 301              		.size	sys_sem_set_invalid, .-sys_sem_set_invalid
 302 0006 00BFAFF3 		.section	.text.sys_mbox_new,"ax",%progbits
 302      0080AFF3 
 302      0080
 303              		.align	2
 304              		.p2align 4,,15
 305              		.global	sys_mbox_new
 306              		.thumb
 307              		.thumb_func
 308              		.type	sys_mbox_new, %function
 309              	sys_mbox_new:
 310              	.LFB14:
 311              		.loc 1 121 0
 312              		.cfi_startproc
 313              		@ args = 0, pretend = 0, frame = 0
 314              		@ frame_needed = 0, uses_anonymous_args = 0
 315              	.LVL26:
 316 0000 38B5     		push	{r3, r4, r5, lr}
 317              	.LCFI3:
 318              		.cfi_def_cfa_offset 16
 319              		.cfi_offset 3, -16
 320              		.cfi_offset 4, -12
 321              		.cfi_offset 5, -8
 322              		.cfi_offset 14, -4
 323              		.loc 1 121 0
 324 0002 0C46     		mov	r4, r1
 325              		.loc 1 123 0
 326 0004 01F10A01 		add	r1, r1, #10
 327              	.LVL27:
 328              		.loc 1 121 0
 329 0008 0546     		mov	r5, r0
ARM GAS  /tmp/ccXATerv.s 			page 7


 330              		.loc 1 123 0
 331 000a 8900     		lsls	r1, r1, #2
 332 000c 0020     		movs	r0, #0
 333              	.LVL28:
 334 000e FFF7FEFF 		bl	chHeapAlloc
 335              	.LVL29:
 336 0012 0146     		mov	r1, r0
 337 0014 2860     		str	r0, [r5, #0]
 338              		.loc 1 124 0
 339 0016 60B1     		cbz	r0, .L25
 340              		.loc 1 129 0
 341 0018 2246     		mov	r2, r4
 342 001a 2831     		adds	r1, r1, #40
 343 001c FFF7FEFF 		bl	chMBInit
 344              	.LVL30:
 345              		.loc 1 130 0
 346 0020 084B     		ldr	r3, .L26
 347 0022 B3F84A21 		ldrh	r2, [r3, #330]
 348 0026 0132     		adds	r2, r2, #1
 349 0028 A3F84A21 		strh	r2, [r3, #330]	@ movhi
 350              		.loc 1 131 0
 351 002c 0020     		movs	r0, #0
 352              	.L24:
 353              		.loc 1 133 0
 354 002e 40B2     		sxtb	r0, r0
 355 0030 38BD     		pop	{r3, r4, r5, pc}
 356              	.L25:
 357              		.loc 1 125 0
 358 0032 044B     		ldr	r3, .L26
 359 0034 B3F84E21 		ldrh	r2, [r3, #334]
 360 0038 0132     		adds	r2, r2, #1
 361 003a A3F84E21 		strh	r2, [r3, #334]	@ movhi
 362              		.loc 1 126 0
 363 003e FF20     		movs	r0, #255
 364 0040 F5E7     		b	.L24
 365              	.L27:
 366 0042 00BF     		.align	2
 367              	.L26:
 368 0044 00000000 		.word	lwip_stats
 369              		.cfi_endproc
 370              	.LFE14:
 371              		.size	sys_mbox_new, .-sys_mbox_new
 372 0048 AFF30080 		.section	.text.sys_mbox_free,"ax",%progbits
 372      AFF30080 
 373              		.align	2
 374              		.p2align 4,,15
 375              		.global	sys_mbox_free
 376              		.thumb
 377              		.thumb_func
 378              		.type	sys_mbox_free, %function
 379              	sys_mbox_free:
 380              	.LFB15:
 381              		.loc 1 135 0
 382              		.cfi_startproc
 383              		@ args = 0, pretend = 0, frame = 0
 384              		@ frame_needed = 0, uses_anonymous_args = 0
 385              	.LVL31:
ARM GAS  /tmp/ccXATerv.s 			page 8


 386 0000 38B5     		push	{r3, r4, r5, lr}
 387              	.LCFI4:
 388              		.cfi_def_cfa_offset 16
 389              		.cfi_offset 3, -16
 390              		.cfi_offset 4, -12
 391              		.cfi_offset 5, -8
 392              		.cfi_offset 14, -4
 393              		.loc 1 135 0
 394 0002 0546     		mov	r5, r0
 395              		.loc 1 137 0
 396 0004 0068     		ldr	r0, [r0, #0]
 397              	.LVL32:
 398              		.loc 1 141 0
 399 0006 0A4C     		ldr	r4, .L33
 400              		.loc 1 137 0
 401 0008 8369     		ldr	r3, [r0, #24]
 402 000a 3BB1     		cbz	r3, .L29
 403              		.loc 1 141 0
 404 000c B4F84E31 		ldrh	r3, [r4, #334]
 405 0010 0133     		adds	r3, r3, #1
 406 0012 A4F84E31 		strh	r3, [r4, #334]	@ movhi
 407              		.loc 1 142 0
 408 0016 FFF7FEFF 		bl	chMBReset
 409              	.LVL33:
 410 001a 2868     		ldr	r0, [r5, #0]
 411              	.L29:
 412              		.loc 1 144 0
 413 001c FFF7FEFF 		bl	chHeapFree
 414              	.LVL34:
 415              		.loc 1 146 0
 416 0020 B4F84A31 		ldrh	r3, [r4, #330]
 417              		.loc 1 145 0
 418 0024 0022     		movs	r2, #0
 419              		.loc 1 146 0
 420 0026 013B     		subs	r3, r3, #1
 421              		.loc 1 145 0
 422 0028 2A60     		str	r2, [r5, #0]
 423              		.loc 1 146 0
 424 002a A4F84A31 		strh	r3, [r4, #330]	@ movhi
 425 002e 38BD     		pop	{r3, r4, r5, pc}
 426              	.L34:
 427              		.align	2
 428              	.L33:
 429 0030 00000000 		.word	lwip_stats
 430              		.cfi_endproc
 431              	.LFE15:
 432              		.size	sys_mbox_free, .-sys_mbox_free
 433 0034 AFF30080 		.section	.text.sys_mbox_post,"ax",%progbits
 433      AFF30080 
 433      AFF30080 
 434              		.align	2
 435              		.p2align 4,,15
 436              		.global	sys_mbox_post
 437              		.thumb
 438              		.thumb_func
 439              		.type	sys_mbox_post, %function
 440              	sys_mbox_post:
ARM GAS  /tmp/ccXATerv.s 			page 9


 441              	.LFB16:
 442              		.loc 1 149 0
 443              		.cfi_startproc
 444              		@ args = 0, pretend = 0, frame = 0
 445              		@ frame_needed = 0, uses_anonymous_args = 0
 446              		@ link register save eliminated.
 447              	.LVL35:
 448              		.loc 1 151 0
 449 0000 0068     		ldr	r0, [r0, #0]
 450              	.LVL36:
 451 0002 4FF0FF32 		mov	r2, #-1
 452              		.loc 1 152 0
 453              		.loc 1 151 0
 454 0006 FFF7FEBF 		b	chMBPost
 455              	.LVL37:
 456              		.cfi_endproc
 457              	.LFE16:
 458              		.size	sys_mbox_post, .-sys_mbox_post
 459 000a 00BFAFF3 		.section	.text.sys_mbox_trypost,"ax",%progbits
 459      0080
 460              		.align	2
 461              		.p2align 4,,15
 462              		.global	sys_mbox_trypost
 463              		.thumb
 464              		.thumb_func
 465              		.type	sys_mbox_trypost, %function
 466              	sys_mbox_trypost:
 467              	.LFB17:
 468              		.loc 1 154 0
 469              		.cfi_startproc
 470              		@ args = 0, pretend = 0, frame = 0
 471              		@ frame_needed = 0, uses_anonymous_args = 0
 472              	.LVL38:
 473              		.loc 1 156 0
 474 0000 0022     		movs	r2, #0
 475              		.loc 1 154 0
 476 0002 08B5     		push	{r3, lr}
 477              	.LCFI5:
 478              		.cfi_def_cfa_offset 8
 479              		.cfi_offset 3, -8
 480              		.cfi_offset 14, -4
 481              		.loc 1 156 0
 482 0004 0068     		ldr	r0, [r0, #0]
 483              	.LVL39:
 484 0006 FFF7FEFF 		bl	chMBPost
 485              	.LVL40:
 486 000a 0130     		adds	r0, r0, #1
 487 000c 02D0     		beq	.L39
 488              		.loc 1 160 0
 489 000e 0020     		movs	r0, #0
 490              	.L37:
 491              		.loc 1 161 0
 492 0010 40B2     		sxtb	r0, r0
 493 0012 08BD     		pop	{r3, pc}
 494              	.L39:
 495              		.loc 1 157 0
 496 0014 034B     		ldr	r3, .L40
ARM GAS  /tmp/ccXATerv.s 			page 10


 497 0016 B3F84E21 		ldrh	r2, [r3, #334]
 498 001a 0132     		adds	r2, r2, #1
 499 001c A3F84E21 		strh	r2, [r3, #334]	@ movhi
 500              		.loc 1 158 0
 501 0020 FF20     		movs	r0, #255
 502 0022 F5E7     		b	.L37
 503              	.L41:
 504              		.align	2
 505              	.L40:
 506 0024 00000000 		.word	lwip_stats
 507              		.cfi_endproc
 508              	.LFE17:
 509              		.size	sys_mbox_trypost, .-sys_mbox_trypost
 510 0028 AFF30080 		.section	.text.sys_arch_mbox_fetch,"ax",%progbits
 510      AFF30080 
 511              		.align	2
 512              		.p2align 4,,15
 513              		.global	sys_arch_mbox_fetch
 514              		.thumb
 515              		.thumb_func
 516              		.type	sys_arch_mbox_fetch, %function
 517              	sys_arch_mbox_fetch:
 518              	.LFB18:
 519              		.loc 1 163 0
 520              		.cfi_startproc
 521              		@ args = 0, pretend = 0, frame = 0
 522              		@ frame_needed = 0, uses_anonymous_args = 0
 523              	.LVL41:
 524 0000 38B5     		push	{r3, r4, r5, lr}
 525              	.LCFI6:
 526              		.cfi_def_cfa_offset 16
 527              		.cfi_offset 3, -16
 528              		.cfi_offset 4, -12
 529              		.cfi_offset 5, -8
 530              		.cfi_offset 14, -4
 531              	.LBB4:
 532              		.loc 1 166 0
 533 0002 2023     		movs	r3, #32
 534              	.LVL42:
 535              	@ 166 "../../os/various/lwip_bindings/arch/sys_arch.c" 1
 536 0004 83F31188 		msr     BASEPRI, r3
 537              	@ 0 "" 2
 538              	.LVL43:
 539              		.thumb
 540              	.LBE4:
 541              		.loc 1 168 0
 542 0008 094C     		ldr	r4, .L48
 543              		.loc 1 169 0
 544 000a 0068     		ldr	r0, [r0, #0]
 545              	.LVL44:
 546              		.loc 1 168 0
 547 000c E568     		ldr	r5, [r4, #12]
 548              	.LVL45:
 549              		.loc 1 169 0
 550 000e 002A     		cmp	r2, #0
 551 0010 08BF     		it	eq
 552 0012 4FF0FF32 		moveq	r2, #-1
ARM GAS  /tmp/ccXATerv.s 			page 11


 553              	.LVL46:
 554 0016 FFF7FEFF 		bl	chMBFetchS
 555              	.LVL47:
 556 001a 28B1     		cbz	r0, .L47
 557              		.loc 1 170 0
 558 001c 4FF0FF30 		mov	r0, #-1
 559              	.LVL48:
 560              	.L44:
 561              	.LBB5:
 562              		.loc 1 173 0
 563 0020 0023     		movs	r3, #0
 564              	.LVL49:
 565              	@ 173 "../../os/various/lwip_bindings/arch/sys_arch.c" 1
 566 0022 83F31188 		msr     BASEPRI, r3
 567              	@ 0 "" 2
 568              	.LVL50:
 569              		.thumb
 570              	.LBE5:
 571              		.loc 1 175 0
 572 0026 38BD     		pop	{r3, r4, r5, pc}
 573              	.LVL51:
 574              	.L47:
 575              		.loc 1 172 0
 576 0028 E068     		ldr	r0, [r4, #12]
 577 002a 401B     		subs	r0, r0, r5
 578              	.LVL52:
 579 002c F8E7     		b	.L44
 580              	.L49:
 581 002e 00BF     		.align	2
 582              	.L48:
 583 0030 00000000 		.word	vtlist
 584              		.cfi_endproc
 585              	.LFE18:
 586              		.size	sys_arch_mbox_fetch, .-sys_arch_mbox_fetch
 587 0034 AFF30080 		.section	.text.sys_arch_mbox_tryfetch,"ax",%progbits
 587      AFF30080 
 587      AFF30080 
 588              		.align	2
 589              		.p2align 4,,15
 590              		.global	sys_arch_mbox_tryfetch
 591              		.thumb
 592              		.thumb_func
 593              		.type	sys_arch_mbox_tryfetch, %function
 594              	sys_arch_mbox_tryfetch:
 595              	.LFB19:
 596              		.loc 1 177 0
 597              		.cfi_startproc
 598              		@ args = 0, pretend = 0, frame = 0
 599              		@ frame_needed = 0, uses_anonymous_args = 0
 600              	.LVL53:
 601 0000 08B5     		push	{r3, lr}
 602              	.LCFI7:
 603              		.cfi_def_cfa_offset 8
 604              		.cfi_offset 3, -8
 605              		.cfi_offset 14, -4
 606              		.loc 1 179 0
 607 0002 0022     		movs	r2, #0
ARM GAS  /tmp/ccXATerv.s 			page 12


 608 0004 0068     		ldr	r0, [r0, #0]
 609              	.LVL54:
 610 0006 FFF7FEFF 		bl	chMBFetch
 611              	.LVL55:
 612              		.loc 1 182 0
 613 000a B0F1FF3F 		cmp	r0, #-1
 614 000e 0CBF     		ite	eq
 615 0010 4FF0FF30 		moveq	r0, #-1
 616 0014 0020     		movne	r0, #0
 617 0016 08BD     		pop	{r3, pc}
 618              		.cfi_endproc
 619              	.LFE19:
 620              		.size	sys_arch_mbox_tryfetch, .-sys_arch_mbox_tryfetch
 621 0018 AFF30080 		.section	.text.sys_mbox_valid,"ax",%progbits
 621      AFF30080 
 622              		.align	2
 623              		.p2align 4,,15
 624              		.global	sys_mbox_valid
 625              		.thumb
 626              		.thumb_func
 627              		.type	sys_mbox_valid, %function
 628              	sys_mbox_valid:
 629              	.LFB20:
 630              		.loc 1 184 0
 631              		.cfi_startproc
 632              		@ args = 0, pretend = 0, frame = 0
 633              		@ frame_needed = 0, uses_anonymous_args = 0
 634              		@ link register save eliminated.
 635              	.LVL56:
 636              		.loc 1 185 0
 637 0000 0068     		ldr	r0, [r0, #0]
 638              	.LVL57:
 639              		.loc 1 186 0
 640 0002 0030     		adds	r0, r0, #0
 641 0004 18BF     		it	ne
 642 0006 0120     		movne	r0, #1
 643 0008 7047     		bx	lr
 644              		.cfi_endproc
 645              	.LFE20:
 646              		.size	sys_mbox_valid, .-sys_mbox_valid
 647 000a 00BFAFF3 		.section	.text.sys_mbox_set_invalid,"ax",%progbits
 647      0080
 648              		.align	2
 649              		.p2align 4,,15
 650              		.global	sys_mbox_set_invalid
 651              		.thumb
 652              		.thumb_func
 653              		.type	sys_mbox_set_invalid, %function
 654              	sys_mbox_set_invalid:
 655              	.LFB21:
 656              		.loc 1 190 0
 657              		.cfi_startproc
 658              		@ args = 0, pretend = 0, frame = 0
 659              		@ frame_needed = 0, uses_anonymous_args = 0
 660              		@ link register save eliminated.
 661              	.LVL58:
 662              		.loc 1 191 0
ARM GAS  /tmp/ccXATerv.s 			page 13


 663 0000 0023     		movs	r3, #0
 664 0002 0360     		str	r3, [r0, #0]
 665 0004 7047     		bx	lr
 666              		.cfi_endproc
 667              	.LFE21:
 668              		.size	sys_mbox_set_invalid, .-sys_mbox_set_invalid
 669 0006 00BFAFF3 		.section	.text.sys_thread_new,"ax",%progbits
 669      0080AFF3 
 669      0080
 670              		.align	2
 671              		.p2align 4,,15
 672              		.global	sys_thread_new
 673              		.thumb
 674              		.thumb_func
 675              		.type	sys_thread_new, %function
 676              	sys_thread_new:
 677              	.LFB22:
 678              		.loc 1 195 0
 679              		.cfi_startproc
 680              		@ args = 4, pretend = 0, frame = 0
 681              		@ frame_needed = 0, uses_anonymous_args = 0
 682              	.LVL59:
 683              		.loc 1 201 0
 684 0000 AB33     		adds	r3, r3, #171
 685              	.LVL60:
 686              		.loc 1 195 0
 687 0002 2DE9F041 		push	{r4, r5, r6, r7, r8, lr}
 688              	.LCFI8:
 689              		.cfi_def_cfa_offset 24
 690              		.cfi_offset 4, -24
 691              		.cfi_offset 5, -20
 692              		.cfi_offset 6, -16
 693              		.cfi_offset 7, -12
 694              		.cfi_offset 8, -8
 695              		.cfi_offset 14, -4
 696              		.loc 1 201 0
 697 0006 43F00704 		orr	r4, r3, #7
 698 000a 0134     		adds	r4, r4, #1
 699              	.LVL61:
 700              		.loc 1 202 0
 701 000c 2046     		mov	r0, r4
 702              	.LVL62:
 703              		.loc 1 195 0
 704 000e 0D46     		mov	r5, r1
 705 0010 1746     		mov	r7, r2
 706 0012 069E     		ldr	r6, [sp, #24]
 707              		.loc 1 202 0
 708 0014 FFF7FEFF 		bl	chCoreAlloc
 709              	.LVL63:
 710              		.loc 1 203 0
 711 0018 38B1     		cbz	r0, .L56
 712              		.loc 1 205 0
 713 001a 2146     		mov	r1, r4
 714 001c 3246     		mov	r2, r6
 715 001e 2B46     		mov	r3, r5
 716 0020 0697     		str	r7, [sp, #24]
 717              		.loc 1 206 0
ARM GAS  /tmp/ccXATerv.s 			page 14


 718 0022 BDE8F041 		pop	{r4, r5, r6, r7, r8, lr}
 719              		.loc 1 205 0
 720 0026 FFF7FEBF 		b	chThdCreateStatic
 721              	.LVL64:
 722              	.L56:
 723              		.loc 1 206 0
 724 002a BDE8F081 		pop	{r4, r5, r6, r7, r8, pc}
 725              		.cfi_endproc
 726              	.LFE22:
 727              		.size	sys_thread_new, .-sys_thread_new
 728 002e 00BF     		.section	.text.sys_arch_protect,"ax",%progbits
 729              		.align	2
 730              		.p2align 4,,15
 731              		.global	sys_arch_protect
 732              		.thumb
 733              		.thumb_func
 734              		.type	sys_arch_protect, %function
 735              	sys_arch_protect:
 736              	.LFB23:
 737              		.loc 1 208 0
 738              		.cfi_startproc
 739              		@ args = 0, pretend = 0, frame = 0
 740              		@ frame_needed = 0, uses_anonymous_args = 0
 741              		@ link register save eliminated.
 742              	.LBB6:
 743              		.loc 1 210 0
 744 0000 2023     		movs	r3, #32
 745              	.LVL65:
 746              	@ 210 "../../os/various/lwip_bindings/arch/sys_arch.c" 1
 747 0002 83F31188 		msr     BASEPRI, r3
 748              	@ 0 "" 2
 749              	.LVL66:
 750              		.thumb
 751              	.LBE6:
 752              		.loc 1 212 0
 753 0006 0020     		movs	r0, #0
 754 0008 7047     		bx	lr
 755              		.cfi_endproc
 756              	.LFE23:
 757              		.size	sys_arch_protect, .-sys_arch_protect
 758 000a 00BFAFF3 		.section	.text.sys_arch_unprotect,"ax",%progbits
 758      0080
 759              		.align	2
 760              		.p2align 4,,15
 761              		.global	sys_arch_unprotect
 762              		.thumb
 763              		.thumb_func
 764              		.type	sys_arch_unprotect, %function
 765              	sys_arch_unprotect:
 766              	.LFB24:
 767              		.loc 1 214 0
 768              		.cfi_startproc
 769              		@ args = 0, pretend = 0, frame = 0
 770              		@ frame_needed = 0, uses_anonymous_args = 0
 771              		@ link register save eliminated.
 772              	.LVL67:
 773              	.LBB7:
ARM GAS  /tmp/ccXATerv.s 			page 15


 774              		.loc 1 217 0
 775 0000 0023     		movs	r3, #0
 776              	.LVL68:
 777              	@ 217 "../../os/various/lwip_bindings/arch/sys_arch.c" 1
 778 0002 83F31188 		msr     BASEPRI, r3
 779              	@ 0 "" 2
 780              	.LVL69:
 781              		.thumb
 782 0006 7047     		bx	lr
 783              	.LBE7:
 784              		.cfi_endproc
 785              	.LFE24:
 786              		.size	sys_arch_unprotect, .-sys_arch_unprotect
 787 0008 AFF30080 		.text
 787      AFF30080 
 788              	.Letext0:
 789              		.file 2 "/opt/psas/x-tools/stm32f407/arm-psas-eabi/bin/../lib/gcc/arm-psas-eabi/4.7.2/include/stdd
 790              		.file 3 "/opt/psas/x-tools/stm32f407/arm-psas-eabi/bin/../lib/gcc/arm-psas-eabi/4.7.2/../../../../
 791              		.file 4 "../../os/ports/GCC/ARMCMx/chtypes.h"
 792              		.file 5 "../../os/kernel/include/chlists.h"
 793              		.file 6 "../../os/kernel/include/chthreads.h"
 794              		.file 7 "../../os/ports/GCC/ARMCMx/chcore_v7m.h"
 795              		.file 8 "../../os/kernel/include/chvt.h"
 796              		.file 9 "../../os/kernel/include/chsem.h"
 797              		.file 10 "../../os/kernel/include/chmtx.h"
 798              		.file 11 "../../os/kernel/include/chmboxes.h"
 799              		.file 12 "../../os/kernel/include/chmemcore.h"
 800              		.file 13 "../../os/kernel/include/chheap.h"
 801              		.file 14 "../../os/various/lwip_bindings/arch/cc.h"
 802              		.file 15 "../../ext/lwip/src/include/lwip/mem.h"
 803              		.file 16 "../../ext/lwip/src/include/lwip/err.h"
 804              		.file 17 "../../os/various/lwip_bindings/arch/sys_arch.h"
 805              		.file 18 "../../ext/lwip/src/include/lwip/sys.h"
 806              		.file 19 "../../ext/lwip/src/include/lwip/stats.h"
 807              		.section	.debug_info,"",%progbits
 808              	.Ldebug_info0:
 809 0000 67100000 		.4byte	0x1067
 810 0004 0200     		.2byte	0x2
 811 0006 00000000 		.4byte	.Ldebug_abbrev0
 812 000a 04       		.byte	0x4
 813 000b 01       		.uleb128 0x1
 814 000c 40010000 		.4byte	.LASF166
 815 0010 01       		.byte	0x1
 816 0011 0E020000 		.4byte	.LASF167
 817 0015 F2030000 		.4byte	.LASF168
 818 0019 00000000 		.4byte	.Ldebug_ranges0+0
 819 001d 00000000 		.4byte	0
 820 0021 00000000 		.4byte	0
 821 0025 00000000 		.4byte	.Ldebug_line0
 822 0029 02       		.uleb128 0x2
 823 002a 04       		.byte	0x4
 824 002b 05       		.byte	0x5
 825 002c 696E7400 		.ascii	"int\000"
 826 0030 03       		.uleb128 0x3
 827 0031 49020000 		.4byte	.LASF1
 828 0035 02       		.byte	0x2
 829 0036 D5       		.byte	0xd5
ARM GAS  /tmp/ccXATerv.s 			page 16


 830 0037 3B000000 		.4byte	0x3b
 831 003b 04       		.uleb128 0x4
 832 003c 04       		.byte	0x4
 833 003d 07       		.byte	0x7
 834 003e 86000000 		.4byte	.LASF0
 835 0042 03       		.uleb128 0x3
 836 0043 2D010000 		.4byte	.LASF2
 837 0047 03       		.byte	0x3
 838 0048 29       		.byte	0x29
 839 0049 4D000000 		.4byte	0x4d
 840 004d 04       		.uleb128 0x4
 841 004e 01       		.byte	0x1
 842 004f 06       		.byte	0x6
 843 0050 72060000 		.4byte	.LASF3
 844 0054 03       		.uleb128 0x3
 845 0055 26030000 		.4byte	.LASF4
 846 0059 03       		.byte	0x3
 847 005a 2A       		.byte	0x2a
 848 005b 5F000000 		.4byte	0x5f
 849 005f 04       		.uleb128 0x4
 850 0060 01       		.byte	0x1
 851 0061 08       		.byte	0x8
 852 0062 11060000 		.4byte	.LASF5
 853 0066 04       		.uleb128 0x4
 854 0067 02       		.byte	0x2
 855 0068 05       		.byte	0x5
 856 0069 D0040000 		.4byte	.LASF6
 857 006d 03       		.uleb128 0x3
 858 006e 9A040000 		.4byte	.LASF7
 859 0072 03       		.byte	0x3
 860 0073 36       		.byte	0x36
 861 0074 78000000 		.4byte	0x78
 862 0078 04       		.uleb128 0x4
 863 0079 02       		.byte	0x2
 864 007a 07       		.byte	0x7
 865 007b 7E060000 		.4byte	.LASF8
 866 007f 03       		.uleb128 0x3
 867 0080 E2050000 		.4byte	.LASF9
 868 0084 03       		.byte	0x3
 869 0085 4F       		.byte	0x4f
 870 0086 8A000000 		.4byte	0x8a
 871 008a 04       		.uleb128 0x4
 872 008b 04       		.byte	0x4
 873 008c 05       		.byte	0x5
 874 008d 02050000 		.4byte	.LASF10
 875 0091 03       		.uleb128 0x3
 876 0092 24010000 		.4byte	.LASF11
 877 0096 03       		.byte	0x3
 878 0097 50       		.byte	0x50
 879 0098 9C000000 		.4byte	0x9c
 880 009c 04       		.uleb128 0x4
 881 009d 04       		.byte	0x4
 882 009e 07       		.byte	0x7
 883 009f C6050000 		.4byte	.LASF12
 884 00a3 04       		.uleb128 0x4
 885 00a4 08       		.byte	0x8
 886 00a5 05       		.byte	0x5
ARM GAS  /tmp/ccXATerv.s 			page 17


 887 00a6 6C030000 		.4byte	.LASF13
 888 00aa 03       		.uleb128 0x3
 889 00ab 1E050000 		.4byte	.LASF14
 890 00af 03       		.byte	0x3
 891 00b0 78       		.byte	0x78
 892 00b1 B5000000 		.4byte	0xb5
 893 00b5 04       		.uleb128 0x4
 894 00b6 08       		.byte	0x8
 895 00b7 07       		.byte	0x7
 896 00b8 9A010000 		.4byte	.LASF15
 897 00bc 03       		.uleb128 0x3
 898 00bd 6C040000 		.4byte	.LASF16
 899 00c1 04       		.byte	0x4
 900 00c2 28       		.byte	0x28
 901 00c3 54000000 		.4byte	0x54
 902 00c7 03       		.uleb128 0x3
 903 00c8 FA020000 		.4byte	.LASF17
 904 00cc 04       		.byte	0x4
 905 00cd 29       		.byte	0x29
 906 00ce 54000000 		.4byte	0x54
 907 00d2 03       		.uleb128 0x3
 908 00d3 BE050000 		.4byte	.LASF18
 909 00d7 04       		.byte	0x4
 910 00d8 2A       		.byte	0x2a
 911 00d9 54000000 		.4byte	0x54
 912 00dd 03       		.uleb128 0x3
 913 00de 43040000 		.4byte	.LASF19
 914 00e2 04       		.byte	0x4
 915 00e3 2B       		.byte	0x2b
 916 00e4 54000000 		.4byte	0x54
 917 00e8 03       		.uleb128 0x3
 918 00e9 68010000 		.4byte	.LASF20
 919 00ed 04       		.byte	0x4
 920 00ee 2C       		.byte	0x2c
 921 00ef 91000000 		.4byte	0x91
 922 00f3 03       		.uleb128 0x3
 923 00f4 9A030000 		.4byte	.LASF21
 924 00f8 04       		.byte	0x4
 925 00f9 2D       		.byte	0x2d
 926 00fa 7F000000 		.4byte	0x7f
 927 00fe 03       		.uleb128 0x3
 928 00ff 34010000 		.4byte	.LASF22
 929 0103 04       		.byte	0x4
 930 0104 2F       		.byte	0x2f
 931 0105 91000000 		.4byte	0x91
 932 0109 03       		.uleb128 0x3
 933 010a 41000000 		.4byte	.LASF23
 934 010e 04       		.byte	0x4
 935 010f 31       		.byte	0x31
 936 0110 91000000 		.4byte	0x91
 937 0114 03       		.uleb128 0x3
 938 0115 B1010000 		.4byte	.LASF24
 939 0119 04       		.byte	0x4
 940 011a 32       		.byte	0x32
 941 011b 7F000000 		.4byte	0x7f
 942 011f 03       		.uleb128 0x3
 943 0120 F3020000 		.4byte	.LASF25
ARM GAS  /tmp/ccXATerv.s 			page 18


 944 0124 05       		.byte	0x5
 945 0125 23       		.byte	0x23
 946 0126 2A010000 		.4byte	0x12a
 947 012a 05       		.uleb128 0x5
 948 012b F3020000 		.4byte	.LASF25
 949 012f 48       		.byte	0x48
 950 0130 06       		.byte	0x6
 951 0131 57       		.byte	0x57
 952 0132 4F020000 		.4byte	0x24f
 953 0136 06       		.uleb128 0x6
 954 0137 17050000 		.4byte	.LASF26
 955 013b 06       		.byte	0x6
 956 013c 58       		.byte	0x58
 957 013d 74020000 		.4byte	0x274
 958 0141 02       		.byte	0x2
 959 0142 23       		.byte	0x23
 960 0143 00       		.uleb128 0
 961 0144 06       		.uleb128 0x6
 962 0145 AE050000 		.4byte	.LASF27
 963 0149 06       		.byte	0x6
 964 014a 5A       		.byte	0x5a
 965 014b 74020000 		.4byte	0x274
 966 014f 02       		.byte	0x2
 967 0150 23       		.byte	0x23
 968 0151 04       		.uleb128 0x4
 969 0152 06       		.uleb128 0x6
 970 0153 3A000000 		.4byte	.LASF28
 971 0157 06       		.byte	0x6
 972 0158 5C       		.byte	0x5c
 973 0159 E8000000 		.4byte	0xe8
 974 015d 02       		.byte	0x2
 975 015e 23       		.byte	0x23
 976 015f 08       		.uleb128 0x8
 977 0160 06       		.uleb128 0x6
 978 0161 27050000 		.4byte	.LASF29
 979 0165 06       		.byte	0x6
 980 0166 5D       		.byte	0x5d
 981 0167 4D030000 		.4byte	0x34d
 982 016b 02       		.byte	0x2
 983 016c 23       		.byte	0x23
 984 016d 0C       		.uleb128 0xc
 985 016e 06       		.uleb128 0x6
 986 016f CB010000 		.4byte	.LASF30
 987 0173 06       		.byte	0x6
 988 0174 5F       		.byte	0x5f
 989 0175 74020000 		.4byte	0x274
 990 0179 02       		.byte	0x2
 991 017a 23       		.byte	0x23
 992 017b 10       		.uleb128 0x10
 993 017c 06       		.uleb128 0x6
 994 017d 0A030000 		.4byte	.LASF31
 995 0181 06       		.byte	0x6
 996 0182 60       		.byte	0x60
 997 0183 74020000 		.4byte	0x274
 998 0187 02       		.byte	0x2
 999 0188 23       		.byte	0x23
 1000 0189 14       		.uleb128 0x14
ARM GAS  /tmp/ccXATerv.s 			page 19


 1001 018a 06       		.uleb128 0x6
 1002 018b A8020000 		.4byte	.LASF32
 1003 018f 06       		.byte	0x6
 1004 0190 67       		.byte	0x67
 1005 0191 3A060000 		.4byte	0x63a
 1006 0195 02       		.byte	0x2
 1007 0196 23       		.byte	0x23
 1008 0197 18       		.uleb128 0x18
 1009 0198 06       		.uleb128 0x6
 1010 0199 12030000 		.4byte	.LASF33
 1011 019d 06       		.byte	0x6
 1012 019e 72       		.byte	0x72
 1013 019f C7000000 		.4byte	0xc7
 1014 01a3 02       		.byte	0x2
 1015 01a4 23       		.byte	0x23
 1016 01a5 1C       		.uleb128 0x1c
 1017 01a6 06       		.uleb128 0x6
 1018 01a7 B8030000 		.4byte	.LASF34
 1019 01ab 06       		.byte	0x6
 1020 01ac 76       		.byte	0x76
 1021 01ad BC000000 		.4byte	0xbc
 1022 01b1 02       		.byte	0x2
 1023 01b2 23       		.byte	0x23
 1024 01b3 1D       		.uleb128 0x1d
 1025 01b4 06       		.uleb128 0x6
 1026 01b5 1F060000 		.4byte	.LASF35
 1027 01b9 06       		.byte	0x6
 1028 01ba 7B       		.byte	0x7b
 1029 01bb D2000000 		.4byte	0xd2
 1030 01bf 02       		.byte	0x2
 1031 01c0 23       		.byte	0x23
 1032 01c1 1E       		.uleb128 0x1e
 1033 01c2 06       		.uleb128 0x6
 1034 01c3 34060000 		.4byte	.LASF36
 1035 01c7 06       		.byte	0x6
 1036 01c8 81       		.byte	0x81
 1037 01c9 DD000000 		.4byte	0xdd
 1038 01cd 02       		.byte	0x2
 1039 01ce 23       		.byte	0x23
 1040 01cf 1F       		.uleb128 0x1f
 1041 01d0 06       		.uleb128 0x6
 1042 01d1 2A000000 		.4byte	.LASF37
 1043 01d5 06       		.byte	0x6
 1044 01d6 88       		.byte	0x88
 1045 01d7 39040000 		.4byte	0x439
 1046 01db 02       		.byte	0x2
 1047 01dc 23       		.byte	0x23
 1048 01dd 20       		.uleb128 0x20
 1049 01de 07       		.uleb128 0x7
 1050 01df 705F7500 		.ascii	"p_u\000"
 1051 01e3 06       		.byte	0x6
 1052 01e4 AD       		.byte	0xad
 1053 01e5 05060000 		.4byte	0x605
 1054 01e9 02       		.byte	0x2
 1055 01ea 23       		.byte	0x23
 1056 01eb 24       		.uleb128 0x24
 1057 01ec 06       		.uleb128 0x6
ARM GAS  /tmp/ccXATerv.s 			page 20


 1058 01ed 15000000 		.4byte	.LASF38
 1059 01f1 06       		.byte	0x6
 1060 01f2 B2       		.byte	0xb2
 1061 01f3 9C020000 		.4byte	0x29c
 1062 01f7 02       		.byte	0x2
 1063 01f8 23       		.byte	0x23
 1064 01f9 28       		.uleb128 0x28
 1065 01fa 06       		.uleb128 0x6
 1066 01fb 7B000000 		.4byte	.LASF39
 1067 01ff 06       		.byte	0x6
 1068 0200 B8       		.byte	0xb8
 1069 0201 7A020000 		.4byte	0x27a
 1070 0205 02       		.byte	0x2
 1071 0206 23       		.byte	0x23
 1072 0207 2C       		.uleb128 0x2c
 1073 0208 06       		.uleb128 0x6
 1074 0209 66040000 		.4byte	.LASF40
 1075 020d 06       		.byte	0x6
 1076 020e BC       		.byte	0xbc
 1077 020f F3000000 		.4byte	0xf3
 1078 0213 02       		.byte	0x2
 1079 0214 23       		.byte	0x23
 1080 0215 34       		.uleb128 0x34
 1081 0216 06       		.uleb128 0x6
 1082 0217 EF040000 		.4byte	.LASF41
 1083 021b 06       		.byte	0x6
 1084 021c C2       		.byte	0xc2
 1085 021d FE000000 		.4byte	0xfe
 1086 0221 02       		.byte	0x2
 1087 0222 23       		.byte	0x23
 1088 0223 38       		.uleb128 0x38
 1089 0224 06       		.uleb128 0x6
 1090 0225 5C030000 		.4byte	.LASF42
 1091 0229 06       		.byte	0x6
 1092 022a C9       		.byte	0xc9
 1093 022b 4C060000 		.4byte	0x64c
 1094 022f 02       		.byte	0x2
 1095 0230 23       		.byte	0x23
 1096 0231 3C       		.uleb128 0x3c
 1097 0232 06       		.uleb128 0x6
 1098 0233 BF040000 		.4byte	.LASF43
 1099 0237 06       		.byte	0x6
 1100 0238 CD       		.byte	0xcd
 1101 0239 E8000000 		.4byte	0xe8
 1102 023d 02       		.byte	0x2
 1103 023e 23       		.byte	0x23
 1104 023f 40       		.uleb128 0x40
 1105 0240 06       		.uleb128 0x6
 1106 0241 54030000 		.4byte	.LASF44
 1107 0245 06       		.byte	0x6
 1108 0246 D3       		.byte	0xd3
 1109 0247 B2020000 		.4byte	0x2b2
 1110 024b 02       		.byte	0x2
 1111 024c 23       		.byte	0x23
 1112 024d 44       		.uleb128 0x44
 1113 024e 00       		.byte	0
 1114 024f 08       		.uleb128 0x8
ARM GAS  /tmp/ccXATerv.s 			page 21


 1115 0250 08       		.byte	0x8
 1116 0251 05       		.byte	0x5
 1117 0252 5A       		.byte	0x5a
 1118 0253 74020000 		.4byte	0x274
 1119 0257 06       		.uleb128 0x6
 1120 0258 17050000 		.4byte	.LASF26
 1121 025c 05       		.byte	0x5
 1122 025d 5B       		.byte	0x5b
 1123 025e 74020000 		.4byte	0x274
 1124 0262 02       		.byte	0x2
 1125 0263 23       		.byte	0x23
 1126 0264 00       		.uleb128 0
 1127 0265 06       		.uleb128 0x6
 1128 0266 AE050000 		.4byte	.LASF27
 1129 026a 05       		.byte	0x5
 1130 026b 5D       		.byte	0x5d
 1131 026c 74020000 		.4byte	0x274
 1132 0270 02       		.byte	0x2
 1133 0271 23       		.byte	0x23
 1134 0272 04       		.uleb128 0x4
 1135 0273 00       		.byte	0
 1136 0274 09       		.uleb128 0x9
 1137 0275 04       		.byte	0x4
 1138 0276 1F010000 		.4byte	0x11f
 1139 027a 03       		.uleb128 0x3
 1140 027b BF020000 		.4byte	.LASF45
 1141 027f 05       		.byte	0x5
 1142 0280 5F       		.byte	0x5f
 1143 0281 4F020000 		.4byte	0x24f
 1144 0285 08       		.uleb128 0x8
 1145 0286 04       		.byte	0x4
 1146 0287 05       		.byte	0x5
 1147 0288 64       		.byte	0x64
 1148 0289 9C020000 		.4byte	0x29c
 1149 028d 06       		.uleb128 0x6
 1150 028e 17050000 		.4byte	.LASF26
 1151 0292 05       		.byte	0x5
 1152 0293 66       		.byte	0x66
 1153 0294 74020000 		.4byte	0x274
 1154 0298 02       		.byte	0x2
 1155 0299 23       		.byte	0x23
 1156 029a 00       		.uleb128 0
 1157 029b 00       		.byte	0
 1158 029c 03       		.uleb128 0x3
 1159 029d 09000000 		.4byte	.LASF46
 1160 02a1 05       		.byte	0x5
 1161 02a2 69       		.byte	0x69
 1162 02a3 85020000 		.4byte	0x285
 1163 02a7 03       		.uleb128 0x3
 1164 02a8 31000000 		.4byte	.LASF47
 1165 02ac 07       		.byte	0x7
 1166 02ad DE       		.byte	0xde
 1167 02ae B2020000 		.4byte	0x2b2
 1168 02b2 0A       		.uleb128 0xa
 1169 02b3 04       		.byte	0x4
 1170 02b4 03       		.uleb128 0x3
 1171 02b5 91060000 		.4byte	.LASF48
ARM GAS  /tmp/ccXATerv.s 			page 22


 1172 02b9 07       		.byte	0x7
 1173 02ba E4       		.byte	0xe4
 1174 02bb AA000000 		.4byte	0xaa
 1175 02bf 0B       		.uleb128 0xb
 1176 02c0 A3040000 		.4byte	.LASF49
 1177 02c4 24       		.byte	0x24
 1178 02c5 07       		.byte	0x7
 1179 02c6 0501     		.2byte	0x105
 1180 02c8 4D030000 		.4byte	0x34d
 1181 02cc 0C       		.uleb128 0xc
 1182 02cd 723400   		.ascii	"r4\000"
 1183 02d0 07       		.byte	0x7
 1184 02d1 1801     		.2byte	0x118
 1185 02d3 A7020000 		.4byte	0x2a7
 1186 02d7 02       		.byte	0x2
 1187 02d8 23       		.byte	0x23
 1188 02d9 00       		.uleb128 0
 1189 02da 0C       		.uleb128 0xc
 1190 02db 723500   		.ascii	"r5\000"
 1191 02de 07       		.byte	0x7
 1192 02df 1901     		.2byte	0x119
 1193 02e1 A7020000 		.4byte	0x2a7
 1194 02e5 02       		.byte	0x2
 1195 02e6 23       		.byte	0x23
 1196 02e7 04       		.uleb128 0x4
 1197 02e8 0C       		.uleb128 0xc
 1198 02e9 723600   		.ascii	"r6\000"
 1199 02ec 07       		.byte	0x7
 1200 02ed 1A01     		.2byte	0x11a
 1201 02ef A7020000 		.4byte	0x2a7
 1202 02f3 02       		.byte	0x2
 1203 02f4 23       		.byte	0x23
 1204 02f5 08       		.uleb128 0x8
 1205 02f6 0C       		.uleb128 0xc
 1206 02f7 723700   		.ascii	"r7\000"
 1207 02fa 07       		.byte	0x7
 1208 02fb 1B01     		.2byte	0x11b
 1209 02fd A7020000 		.4byte	0x2a7
 1210 0301 02       		.byte	0x2
 1211 0302 23       		.byte	0x23
 1212 0303 0C       		.uleb128 0xc
 1213 0304 0C       		.uleb128 0xc
 1214 0305 723800   		.ascii	"r8\000"
 1215 0308 07       		.byte	0x7
 1216 0309 1C01     		.2byte	0x11c
 1217 030b A7020000 		.4byte	0x2a7
 1218 030f 02       		.byte	0x2
 1219 0310 23       		.byte	0x23
 1220 0311 10       		.uleb128 0x10
 1221 0312 0C       		.uleb128 0xc
 1222 0313 723900   		.ascii	"r9\000"
 1223 0316 07       		.byte	0x7
 1224 0317 1D01     		.2byte	0x11d
 1225 0319 A7020000 		.4byte	0x2a7
 1226 031d 02       		.byte	0x2
 1227 031e 23       		.byte	0x23
 1228 031f 14       		.uleb128 0x14
ARM GAS  /tmp/ccXATerv.s 			page 23


 1229 0320 0C       		.uleb128 0xc
 1230 0321 72313000 		.ascii	"r10\000"
 1231 0325 07       		.byte	0x7
 1232 0326 1E01     		.2byte	0x11e
 1233 0328 A7020000 		.4byte	0x2a7
 1234 032c 02       		.byte	0x2
 1235 032d 23       		.byte	0x23
 1236 032e 18       		.uleb128 0x18
 1237 032f 0C       		.uleb128 0xc
 1238 0330 72313100 		.ascii	"r11\000"
 1239 0334 07       		.byte	0x7
 1240 0335 1F01     		.2byte	0x11f
 1241 0337 A7020000 		.4byte	0x2a7
 1242 033b 02       		.byte	0x2
 1243 033c 23       		.byte	0x23
 1244 033d 1C       		.uleb128 0x1c
 1245 033e 0C       		.uleb128 0xc
 1246 033f 6C7200   		.ascii	"lr\000"
 1247 0342 07       		.byte	0x7
 1248 0343 2001     		.2byte	0x120
 1249 0345 A7020000 		.4byte	0x2a7
 1250 0349 02       		.byte	0x2
 1251 034a 23       		.byte	0x23
 1252 034b 20       		.uleb128 0x20
 1253 034c 00       		.byte	0
 1254 034d 0B       		.uleb128 0xb
 1255 034e AB030000 		.4byte	.LASF50
 1256 0352 04       		.byte	0x4
 1257 0353 07       		.byte	0x7
 1258 0354 2A01     		.2byte	0x12a
 1259 0356 6A030000 		.4byte	0x36a
 1260 035a 0C       		.uleb128 0xc
 1261 035b 72313300 		.ascii	"r13\000"
 1262 035f 07       		.byte	0x7
 1263 0360 2B01     		.2byte	0x12b
 1264 0362 6A030000 		.4byte	0x36a
 1265 0366 02       		.byte	0x2
 1266 0367 23       		.byte	0x23
 1267 0368 00       		.uleb128 0
 1268 0369 00       		.byte	0
 1269 036a 09       		.uleb128 0x9
 1270 036b 04       		.byte	0x4
 1271 036c BF020000 		.4byte	0x2bf
 1272 0370 04       		.uleb128 0x4
 1273 0371 04       		.byte	0x4
 1274 0372 07       		.byte	0x7
 1275 0373 B5050000 		.4byte	.LASF51
 1276 0377 03       		.uleb128 0x3
 1277 0378 00000000 		.4byte	.LASF52
 1278 037c 08       		.byte	0x8
 1279 037d 4E       		.byte	0x4e
 1280 037e 82030000 		.4byte	0x382
 1281 0382 09       		.uleb128 0x9
 1282 0383 04       		.byte	0x4
 1283 0384 88030000 		.4byte	0x388
 1284 0388 0D       		.uleb128 0xd
 1285 0389 01       		.byte	0x1
ARM GAS  /tmp/ccXATerv.s 			page 24


 1286 038a 94030000 		.4byte	0x394
 1287 038e 0E       		.uleb128 0xe
 1288 038f B2020000 		.4byte	0x2b2
 1289 0393 00       		.byte	0
 1290 0394 03       		.uleb128 0x3
 1291 0395 4D050000 		.4byte	.LASF53
 1292 0399 08       		.byte	0x8
 1293 039a 53       		.byte	0x53
 1294 039b 9F030000 		.4byte	0x39f
 1295 039f 05       		.uleb128 0x5
 1296 03a0 4D050000 		.4byte	.LASF53
 1297 03a4 14       		.byte	0x14
 1298 03a5 08       		.byte	0x8
 1299 03a6 5A       		.byte	0x5a
 1300 03a7 F2030000 		.4byte	0x3f2
 1301 03ab 06       		.uleb128 0x6
 1302 03ac 43060000 		.4byte	.LASF54
 1303 03b0 08       		.byte	0x8
 1304 03b1 5B       		.byte	0x5b
 1305 03b2 F2030000 		.4byte	0x3f2
 1306 03b6 02       		.byte	0x2
 1307 03b7 23       		.byte	0x23
 1308 03b8 00       		.uleb128 0
 1309 03b9 06       		.uleb128 0x6
 1310 03ba B4060000 		.4byte	.LASF55
 1311 03be 08       		.byte	0x8
 1312 03bf 5D       		.byte	0x5d
 1313 03c0 F2030000 		.4byte	0x3f2
 1314 03c4 02       		.byte	0x2
 1315 03c5 23       		.byte	0x23
 1316 03c6 04       		.uleb128 0x4
 1317 03c7 06       		.uleb128 0x6
 1318 03c8 1C010000 		.4byte	.LASF56
 1319 03cc 08       		.byte	0x8
 1320 03cd 5F       		.byte	0x5f
 1321 03ce 09010000 		.4byte	0x109
 1322 03d2 02       		.byte	0x2
 1323 03d3 23       		.byte	0x23
 1324 03d4 08       		.uleb128 0x8
 1325 03d5 06       		.uleb128 0x6
 1326 03d6 AC060000 		.4byte	.LASF57
 1327 03da 08       		.byte	0x8
 1328 03db 60       		.byte	0x60
 1329 03dc 77030000 		.4byte	0x377
 1330 03e0 02       		.byte	0x2
 1331 03e1 23       		.byte	0x23
 1332 03e2 0C       		.uleb128 0xc
 1333 03e3 06       		.uleb128 0x6
 1334 03e4 4C010000 		.4byte	.LASF58
 1335 03e8 08       		.byte	0x8
 1336 03e9 62       		.byte	0x62
 1337 03ea B2020000 		.4byte	0x2b2
 1338 03ee 02       		.byte	0x2
 1339 03ef 23       		.byte	0x23
 1340 03f0 10       		.uleb128 0x10
 1341 03f1 00       		.byte	0
 1342 03f2 09       		.uleb128 0x9
ARM GAS  /tmp/ccXATerv.s 			page 25


 1343 03f3 04       		.byte	0x4
 1344 03f4 94030000 		.4byte	0x394
 1345 03f8 08       		.uleb128 0x8
 1346 03f9 10       		.byte	0x10
 1347 03fa 08       		.byte	0x8
 1348 03fb 6C       		.byte	0x6c
 1349 03fc 39040000 		.4byte	0x439
 1350 0400 06       		.uleb128 0x6
 1351 0401 43060000 		.4byte	.LASF54
 1352 0405 08       		.byte	0x8
 1353 0406 6D       		.byte	0x6d
 1354 0407 F2030000 		.4byte	0x3f2
 1355 040b 02       		.byte	0x2
 1356 040c 23       		.byte	0x23
 1357 040d 00       		.uleb128 0
 1358 040e 06       		.uleb128 0x6
 1359 040f B4060000 		.4byte	.LASF55
 1360 0413 08       		.byte	0x8
 1361 0414 6F       		.byte	0x6f
 1362 0415 F2030000 		.4byte	0x3f2
 1363 0419 02       		.byte	0x2
 1364 041a 23       		.byte	0x23
 1365 041b 04       		.uleb128 0x4
 1366 041c 06       		.uleb128 0x6
 1367 041d 1C010000 		.4byte	.LASF56
 1368 0421 08       		.byte	0x8
 1369 0422 71       		.byte	0x71
 1370 0423 09010000 		.4byte	0x109
 1371 0427 02       		.byte	0x2
 1372 0428 23       		.byte	0x23
 1373 0429 08       		.uleb128 0x8
 1374 042a 06       		.uleb128 0x6
 1375 042b 5B000000 		.4byte	.LASF59
 1376 042f 08       		.byte	0x8
 1377 0430 72       		.byte	0x72
 1378 0431 39040000 		.4byte	0x439
 1379 0435 02       		.byte	0x2
 1380 0436 23       		.byte	0x23
 1381 0437 0C       		.uleb128 0xc
 1382 0438 00       		.byte	0
 1383 0439 0F       		.uleb128 0xf
 1384 043a 09010000 		.4byte	0x109
 1385 043e 03       		.uleb128 0x3
 1386 043f 03030000 		.4byte	.LASF60
 1387 0443 08       		.byte	0x8
 1388 0444 73       		.byte	0x73
 1389 0445 F8030000 		.4byte	0x3f8
 1390 0449 05       		.uleb128 0x5
 1391 044a 5A050000 		.4byte	.LASF61
 1392 044e 0C       		.byte	0xc
 1393 044f 09       		.byte	0x9
 1394 0450 25       		.byte	0x25
 1395 0451 72040000 		.4byte	0x472
 1396 0455 06       		.uleb128 0x6
 1397 0456 53000000 		.4byte	.LASF62
 1398 045a 09       		.byte	0x9
 1399 045b 26       		.byte	0x26
ARM GAS  /tmp/ccXATerv.s 			page 26


 1400 045c 7A020000 		.4byte	0x27a
 1401 0460 02       		.byte	0x2
 1402 0461 23       		.byte	0x23
 1403 0462 00       		.uleb128 0
 1404 0463 06       		.uleb128 0x6
 1405 0464 EB000000 		.4byte	.LASF63
 1406 0468 09       		.byte	0x9
 1407 0469 28       		.byte	0x28
 1408 046a 14010000 		.4byte	0x114
 1409 046e 02       		.byte	0x2
 1410 046f 23       		.byte	0x23
 1411 0470 08       		.uleb128 0x8
 1412 0471 00       		.byte	0
 1413 0472 03       		.uleb128 0x3
 1414 0473 5A050000 		.4byte	.LASF61
 1415 0477 09       		.byte	0x9
 1416 0478 29       		.byte	0x29
 1417 0479 49040000 		.4byte	0x449
 1418 047d 05       		.uleb128 0x5
 1419 047e 79020000 		.4byte	.LASF64
 1420 0482 10       		.byte	0x10
 1421 0483 0A       		.byte	0xa
 1422 0484 25       		.byte	0x25
 1423 0485 B4040000 		.4byte	0x4b4
 1424 0489 06       		.uleb128 0x6
 1425 048a FA040000 		.4byte	.LASF65
 1426 048e 0A       		.byte	0xa
 1427 048f 26       		.byte	0x26
 1428 0490 7A020000 		.4byte	0x27a
 1429 0494 02       		.byte	0x2
 1430 0495 23       		.byte	0x23
 1431 0496 00       		.uleb128 0
 1432 0497 06       		.uleb128 0x6
 1433 0498 4B000000 		.4byte	.LASF66
 1434 049c 0A       		.byte	0xa
 1435 049d 28       		.byte	0x28
 1436 049e 74020000 		.4byte	0x274
 1437 04a2 02       		.byte	0x2
 1438 04a3 23       		.byte	0x23
 1439 04a4 08       		.uleb128 0x8
 1440 04a5 06       		.uleb128 0x6
 1441 04a6 6B060000 		.4byte	.LASF67
 1442 04aa 0A       		.byte	0xa
 1443 04ab 2A       		.byte	0x2a
 1444 04ac B4040000 		.4byte	0x4b4
 1445 04b0 02       		.byte	0x2
 1446 04b1 23       		.byte	0x23
 1447 04b2 0C       		.uleb128 0xc
 1448 04b3 00       		.byte	0
 1449 04b4 09       		.uleb128 0x9
 1450 04b5 04       		.byte	0x4
 1451 04b6 7D040000 		.4byte	0x47d
 1452 04ba 03       		.uleb128 0x3
 1453 04bb 79020000 		.4byte	.LASF64
 1454 04bf 0A       		.byte	0xa
 1455 04c0 2C       		.byte	0x2c
 1456 04c1 7D040000 		.4byte	0x47d
ARM GAS  /tmp/ccXATerv.s 			page 27


 1457 04c5 08       		.uleb128 0x8
 1458 04c6 28       		.byte	0x28
 1459 04c7 0B       		.byte	0xb
 1460 04c8 2C       		.byte	0x2c
 1461 04c9 22050000 		.4byte	0x522
 1462 04cd 06       		.uleb128 0x6
 1463 04ce D8050000 		.4byte	.LASF68
 1464 04d2 0B       		.byte	0xb
 1465 04d3 2D       		.byte	0x2d
 1466 04d4 22050000 		.4byte	0x522
 1467 04d8 02       		.byte	0x2
 1468 04d9 23       		.byte	0x23
 1469 04da 00       		.uleb128 0
 1470 04db 06       		.uleb128 0x6
 1471 04dc DC030000 		.4byte	.LASF69
 1472 04e0 0B       		.byte	0xb
 1473 04e1 2F       		.byte	0x2f
 1474 04e2 22050000 		.4byte	0x522
 1475 04e6 02       		.byte	0x2
 1476 04e7 23       		.byte	0x23
 1477 04e8 04       		.uleb128 0x4
 1478 04e9 06       		.uleb128 0x6
 1479 04ea E6040000 		.4byte	.LASF70
 1480 04ee 0B       		.byte	0xb
 1481 04ef 31       		.byte	0x31
 1482 04f0 22050000 		.4byte	0x522
 1483 04f4 02       		.byte	0x2
 1484 04f5 23       		.byte	0x23
 1485 04f6 08       		.uleb128 0x8
 1486 04f7 06       		.uleb128 0x6
 1487 04f8 57020000 		.4byte	.LASF71
 1488 04fc 0B       		.byte	0xb
 1489 04fd 32       		.byte	0x32
 1490 04fe 22050000 		.4byte	0x522
 1491 0502 02       		.byte	0x2
 1492 0503 23       		.byte	0x23
 1493 0504 0C       		.uleb128 0xc
 1494 0505 06       		.uleb128 0x6
 1495 0506 2E030000 		.4byte	.LASF72
 1496 050a 0B       		.byte	0xb
 1497 050b 33       		.byte	0x33
 1498 050c 72040000 		.4byte	0x472
 1499 0510 02       		.byte	0x2
 1500 0511 23       		.byte	0x23
 1501 0512 10       		.uleb128 0x10
 1502 0513 06       		.uleb128 0x6
 1503 0514 7F020000 		.4byte	.LASF73
 1504 0518 0B       		.byte	0xb
 1505 0519 35       		.byte	0x35
 1506 051a 72040000 		.4byte	0x472
 1507 051e 02       		.byte	0x2
 1508 051f 23       		.byte	0x23
 1509 0520 1C       		.uleb128 0x1c
 1510 0521 00       		.byte	0
 1511 0522 09       		.uleb128 0x9
 1512 0523 04       		.byte	0x4
 1513 0524 F3000000 		.4byte	0xf3
ARM GAS  /tmp/ccXATerv.s 			page 28


 1514 0528 03       		.uleb128 0x3
 1515 0529 D8000000 		.4byte	.LASF74
 1516 052d 0B       		.byte	0xb
 1517 052e 37       		.byte	0x37
 1518 052f C5040000 		.4byte	0x4c5
 1519 0533 03       		.uleb128 0x3
 1520 0534 64050000 		.4byte	.LASF75
 1521 0538 0C       		.byte	0xc
 1522 0539 25       		.byte	0x25
 1523 053a 3E050000 		.4byte	0x53e
 1524 053e 09       		.uleb128 0x9
 1525 053f 04       		.byte	0x4
 1526 0540 44050000 		.4byte	0x544
 1527 0544 10       		.uleb128 0x10
 1528 0545 01       		.byte	0x1
 1529 0546 B2020000 		.4byte	0x2b2
 1530 054a 54050000 		.4byte	0x554
 1531 054e 0E       		.uleb128 0xe
 1532 054f 30000000 		.4byte	0x30
 1533 0553 00       		.byte	0
 1534 0554 03       		.uleb128 0x3
 1535 0555 9C060000 		.4byte	.LASF76
 1536 0559 0D       		.byte	0xd
 1537 055a 2D       		.byte	0x2d
 1538 055b 5F050000 		.4byte	0x55f
 1539 055f 05       		.uleb128 0x5
 1540 0560 DA040000 		.4byte	.LASF77
 1541 0564 20       		.byte	0x20
 1542 0565 0D       		.byte	0xd
 1543 0566 40       		.byte	0x40
 1544 0567 96050000 		.4byte	0x596
 1545 056b 06       		.uleb128 0x6
 1546 056c B4020000 		.4byte	.LASF78
 1547 0570 0D       		.byte	0xd
 1548 0571 41       		.byte	0x41
 1549 0572 33050000 		.4byte	0x533
 1550 0576 02       		.byte	0x2
 1551 0577 23       		.byte	0x23
 1552 0578 00       		.uleb128 0
 1553 0579 06       		.uleb128 0x6
 1554 057a AD000000 		.4byte	.LASF79
 1555 057e 0D       		.byte	0xd
 1556 057f 43       		.byte	0x43
 1557 0580 B5050000 		.4byte	0x5b5
 1558 0584 02       		.byte	0x2
 1559 0585 23       		.byte	0x23
 1560 0586 08       		.uleb128 0x8
 1561 0587 06       		.uleb128 0x6
 1562 0588 66030000 		.4byte	.LASF80
 1563 058c 0D       		.byte	0xd
 1564 058d 45       		.byte	0x45
 1565 058e BA040000 		.4byte	0x4ba
 1566 0592 02       		.byte	0x2
 1567 0593 23       		.byte	0x23
 1568 0594 10       		.uleb128 0x10
 1569 0595 00       		.byte	0
 1570 0596 11       		.uleb128 0x11
ARM GAS  /tmp/ccXATerv.s 			page 29


 1571 0597 04       		.byte	0x4
 1572 0598 0D       		.byte	0xd
 1573 0599 35       		.byte	0x35
 1574 059a B5050000 		.4byte	0x5b5
 1575 059e 12       		.uleb128 0x12
 1576 059f 93000000 		.4byte	.LASF81
 1577 05a3 0D       		.byte	0xd
 1578 05a4 36       		.byte	0x36
 1579 05a5 D6050000 		.4byte	0x5d6
 1580 05a9 12       		.uleb128 0x12
 1581 05aa B4000000 		.4byte	.LASF82
 1582 05ae 0D       		.byte	0xd
 1583 05af 37       		.byte	0x37
 1584 05b0 DC050000 		.4byte	0x5dc
 1585 05b4 00       		.byte	0
 1586 05b5 13       		.uleb128 0x13
 1587 05b6 3D020000 		.4byte	.LASF169
 1588 05ba 08       		.byte	0x8
 1589 05bb 0D       		.byte	0xd
 1590 05bc 32       		.byte	0x32
 1591 05bd D6050000 		.4byte	0x5d6
 1592 05c1 12       		.uleb128 0x12
 1593 05c2 BC060000 		.4byte	.LASF83
 1594 05c6 0D       		.byte	0xd
 1595 05c7 33       		.byte	0x33
 1596 05c8 B4020000 		.4byte	0x2b4
 1597 05cc 14       		.uleb128 0x14
 1598 05cd 6800     		.ascii	"h\000"
 1599 05cf 0D       		.byte	0xd
 1600 05d0 3A       		.byte	0x3a
 1601 05d1 E2050000 		.4byte	0x5e2
 1602 05d5 00       		.byte	0
 1603 05d6 09       		.uleb128 0x9
 1604 05d7 04       		.byte	0x4
 1605 05d8 B5050000 		.4byte	0x5b5
 1606 05dc 09       		.uleb128 0x9
 1607 05dd 04       		.byte	0x4
 1608 05de 54050000 		.4byte	0x554
 1609 05e2 08       		.uleb128 0x8
 1610 05e3 08       		.byte	0x8
 1611 05e4 0D       		.byte	0xd
 1612 05e5 34       		.byte	0x34
 1613 05e6 05060000 		.4byte	0x605
 1614 05ea 07       		.uleb128 0x7
 1615 05eb 7500     		.ascii	"u\000"
 1616 05ed 0D       		.byte	0xd
 1617 05ee 38       		.byte	0x38
 1618 05ef 96050000 		.4byte	0x596
 1619 05f3 02       		.byte	0x2
 1620 05f4 23       		.byte	0x23
 1621 05f5 00       		.uleb128 0
 1622 05f6 06       		.uleb128 0x6
 1623 05f7 D7030000 		.4byte	.LASF84
 1624 05fb 0D       		.byte	0xd
 1625 05fc 39       		.byte	0x39
 1626 05fd 30000000 		.4byte	0x30
 1627 0601 02       		.byte	0x2
ARM GAS  /tmp/ccXATerv.s 			page 30


 1628 0602 23       		.byte	0x23
 1629 0603 04       		.uleb128 0x4
 1630 0604 00       		.byte	0
 1631 0605 11       		.uleb128 0x11
 1632 0606 04       		.byte	0x4
 1633 0607 06       		.byte	0x6
 1634 0608 8F       		.byte	0x8f
 1635 0609 3A060000 		.4byte	0x63a
 1636 060d 12       		.uleb128 0x12
 1637 060e 50020000 		.4byte	.LASF85
 1638 0612 06       		.byte	0x6
 1639 0613 96       		.byte	0x96
 1640 0614 F3000000 		.4byte	0xf3
 1641 0618 12       		.uleb128 0x12
 1642 0619 C2060000 		.4byte	.LASF86
 1643 061d 06       		.byte	0x6
 1644 061e 9D       		.byte	0x9d
 1645 061f F3000000 		.4byte	0xf3
 1646 0623 12       		.uleb128 0x12
 1647 0624 B9000000 		.4byte	.LASF87
 1648 0628 06       		.byte	0x6
 1649 0629 A4       		.byte	0xa4
 1650 062a B2020000 		.4byte	0x2b2
 1651 062e 12       		.uleb128 0x12
 1652 062f D1000000 		.4byte	.LASF88
 1653 0633 06       		.byte	0x6
 1654 0634 AB       		.byte	0xab
 1655 0635 FE000000 		.4byte	0xfe
 1656 0639 00       		.byte	0
 1657 063a 09       		.uleb128 0x9
 1658 063b 04       		.byte	0x4
 1659 063c 40060000 		.4byte	0x640
 1660 0640 15       		.uleb128 0x15
 1661 0641 45060000 		.4byte	0x645
 1662 0645 04       		.uleb128 0x4
 1663 0646 01       		.byte	0x1
 1664 0647 08       		.byte	0x8
 1665 0648 CC020000 		.4byte	.LASF89
 1666 064c 09       		.uleb128 0x9
 1667 064d 04       		.byte	0x4
 1668 064e BA040000 		.4byte	0x4ba
 1669 0652 03       		.uleb128 0x3
 1670 0653 8B010000 		.4byte	.LASF90
 1671 0657 06       		.byte	0x6
 1672 0658 DE       		.byte	0xde
 1673 0659 5D060000 		.4byte	0x65d
 1674 065d 09       		.uleb128 0x9
 1675 065e 04       		.byte	0x4
 1676 065f 63060000 		.4byte	0x663
 1677 0663 10       		.uleb128 0x10
 1678 0664 01       		.byte	0x1
 1679 0665 F3000000 		.4byte	0xf3
 1680 0669 73060000 		.4byte	0x673
 1681 066d 0E       		.uleb128 0xe
 1682 066e B2020000 		.4byte	0x2b2
 1683 0672 00       		.byte	0
 1684 0673 03       		.uleb128 0x3
ARM GAS  /tmp/ccXATerv.s 			page 31


 1685 0674 B3030000 		.4byte	.LASF91
 1686 0678 0E       		.byte	0xe
 1687 0679 3C       		.byte	0x3c
 1688 067a 54000000 		.4byte	0x54
 1689 067e 03       		.uleb128 0x3
 1690 067f 6A020000 		.4byte	.LASF92
 1691 0683 0E       		.byte	0xe
 1692 0684 3D       		.byte	0x3d
 1693 0685 42000000 		.4byte	0x42
 1694 0689 03       		.uleb128 0x3
 1695 068a AA040000 		.4byte	.LASF93
 1696 068e 0E       		.byte	0xe
 1697 068f 3E       		.byte	0x3e
 1698 0690 6D000000 		.4byte	0x6d
 1699 0694 03       		.uleb128 0x3
 1700 0695 CA040000 		.4byte	.LASF94
 1701 0699 0E       		.byte	0xe
 1702 069a 40       		.byte	0x40
 1703 069b 91000000 		.4byte	0x91
 1704 069f 03       		.uleb128 0x3
 1705 06a0 D1020000 		.4byte	.LASF95
 1706 06a4 0F       		.byte	0xf
 1707 06a5 4B       		.byte	0x4b
 1708 06a6 89060000 		.4byte	0x689
 1709 06aa 03       		.uleb128 0x3
 1710 06ab A7000000 		.4byte	.LASF96
 1711 06af 10       		.byte	0x10
 1712 06b0 2F       		.byte	0x2f
 1713 06b1 7E060000 		.4byte	0x67e
 1714 06b5 03       		.uleb128 0x3
 1715 06b6 60020000 		.4byte	.LASF97
 1716 06ba 11       		.byte	0x11
 1717 06bb 3C       		.byte	0x3c
 1718 06bc C0060000 		.4byte	0x6c0
 1719 06c0 09       		.uleb128 0x9
 1720 06c1 04       		.byte	0x4
 1721 06c2 72040000 		.4byte	0x472
 1722 06c6 03       		.uleb128 0x3
 1723 06c7 1F000000 		.4byte	.LASF98
 1724 06cb 11       		.byte	0x11
 1725 06cc 3D       		.byte	0x3d
 1726 06cd D1060000 		.4byte	0x6d1
 1727 06d1 09       		.uleb128 0x9
 1728 06d2 04       		.byte	0x4
 1729 06d3 28050000 		.4byte	0x528
 1730 06d7 03       		.uleb128 0x3
 1731 06d8 7E010000 		.4byte	.LASF99
 1732 06dc 11       		.byte	0x11
 1733 06dd 3E       		.byte	0x3e
 1734 06de 74020000 		.4byte	0x274
 1735 06e2 03       		.uleb128 0x3
 1736 06e3 E8020000 		.4byte	.LASF100
 1737 06e7 11       		.byte	0x11
 1738 06e8 3F       		.byte	0x3f
 1739 06e9 29000000 		.4byte	0x29
 1740 06ed 03       		.uleb128 0x3
 1741 06ee B7010000 		.4byte	.LASF101
ARM GAS  /tmp/ccXATerv.s 			page 32


 1742 06f2 12       		.byte	0x12
 1743 06f3 53       		.byte	0x53
 1744 06f4 82030000 		.4byte	0x382
 1745 06f8 05       		.uleb128 0x5
 1746 06f9 DC020000 		.4byte	.LASF102
 1747 06fd 18       		.byte	0x18
 1748 06fe 13       		.byte	0x13
 1749 06ff 3A       		.byte	0x3a
 1750 0700 AC070000 		.4byte	0x7ac
 1751 0704 06       		.uleb128 0x6
 1752 0705 A7060000 		.4byte	.LASF103
 1753 0709 13       		.byte	0x13
 1754 070a 3B       		.byte	0x3b
 1755 070b 89060000 		.4byte	0x689
 1756 070f 02       		.byte	0x2
 1757 0710 23       		.byte	0x23
 1758 0711 00       		.uleb128 0
 1759 0712 06       		.uleb128 0x6
 1760 0713 66060000 		.4byte	.LASF104
 1761 0717 13       		.byte	0x13
 1762 0718 3C       		.byte	0x3c
 1763 0719 89060000 		.4byte	0x689
 1764 071d 02       		.byte	0x2
 1765 071e 23       		.byte	0x23
 1766 071f 02       		.uleb128 0x2
 1767 0720 07       		.uleb128 0x7
 1768 0721 667700   		.ascii	"fw\000"
 1769 0724 13       		.byte	0x13
 1770 0725 3D       		.byte	0x3d
 1771 0726 89060000 		.4byte	0x689
 1772 072a 02       		.byte	0x2
 1773 072b 23       		.byte	0x23
 1774 072c 04       		.uleb128 0x4
 1775 072d 06       		.uleb128 0x6
 1776 072e 3E060000 		.4byte	.LASF105
 1777 0732 13       		.byte	0x13
 1778 0733 3E       		.byte	0x3e
 1779 0734 89060000 		.4byte	0x689
 1780 0738 02       		.byte	0x2
 1781 0739 23       		.byte	0x23
 1782 073a 06       		.uleb128 0x6
 1783 073b 06       		.uleb128 0x6
 1784 073c 3C040000 		.4byte	.LASF106
 1785 0740 13       		.byte	0x13
 1786 0741 3F       		.byte	0x3f
 1787 0742 89060000 		.4byte	0x689
 1788 0746 02       		.byte	0x2
 1789 0747 23       		.byte	0x23
 1790 0748 08       		.uleb128 0x8
 1791 0749 06       		.uleb128 0x6
 1792 074a B8040000 		.4byte	.LASF107
 1793 074e 13       		.byte	0x13
 1794 074f 40       		.byte	0x40
 1795 0750 89060000 		.4byte	0x689
 1796 0754 02       		.byte	0x2
 1797 0755 23       		.byte	0x23
 1798 0756 0A       		.uleb128 0xa
ARM GAS  /tmp/ccXATerv.s 			page 33


 1799 0757 06       		.uleb128 0x6
 1800 0758 4D040000 		.4byte	.LASF108
 1801 075c 13       		.byte	0x13
 1802 075d 41       		.byte	0x41
 1803 075e 89060000 		.4byte	0x689
 1804 0762 02       		.byte	0x2
 1805 0763 23       		.byte	0x23
 1806 0764 0C       		.uleb128 0xc
 1807 0765 06       		.uleb128 0x6
 1808 0766 0B050000 		.4byte	.LASF109
 1809 076a 13       		.byte	0x13
 1810 076b 42       		.byte	0x42
 1811 076c 89060000 		.4byte	0x689
 1812 0770 02       		.byte	0x2
 1813 0771 23       		.byte	0x23
 1814 0772 0E       		.uleb128 0xe
 1815 0773 06       		.uleb128 0x6
 1816 0774 F1050000 		.4byte	.LASF110
 1817 0778 13       		.byte	0x13
 1818 0779 43       		.byte	0x43
 1819 077a 89060000 		.4byte	0x689
 1820 077e 02       		.byte	0x2
 1821 077f 23       		.byte	0x23
 1822 0780 10       		.uleb128 0x10
 1823 0781 06       		.uleb128 0x6
 1824 0782 53010000 		.4byte	.LASF111
 1825 0786 13       		.byte	0x13
 1826 0787 44       		.byte	0x44
 1827 0788 89060000 		.4byte	0x689
 1828 078c 02       		.byte	0x2
 1829 078d 23       		.byte	0x23
 1830 078e 12       		.uleb128 0x12
 1831 078f 07       		.uleb128 0x7
 1832 0790 65727200 		.ascii	"err\000"
 1833 0794 13       		.byte	0x13
 1834 0795 45       		.byte	0x45
 1835 0796 89060000 		.4byte	0x689
 1836 079a 02       		.byte	0x2
 1837 079b 23       		.byte	0x23
 1838 079c 14       		.uleb128 0x14
 1839 079d 06       		.uleb128 0x6
 1840 079e 44050000 		.4byte	.LASF112
 1841 07a2 13       		.byte	0x13
 1842 07a3 46       		.byte	0x46
 1843 07a4 89060000 		.4byte	0x689
 1844 07a8 02       		.byte	0x2
 1845 07a9 23       		.byte	0x23
 1846 07aa 16       		.uleb128 0x16
 1847 07ab 00       		.byte	0
 1848 07ac 05       		.uleb128 0x5
 1849 07ad C7000000 		.4byte	.LASF113
 1850 07b1 0A       		.byte	0xa
 1851 07b2 13       		.byte	0x13
 1852 07b3 5A       		.byte	0x5a
 1853 07b4 FF070000 		.4byte	0x7ff
 1854 07b8 06       		.uleb128 0x6
 1855 07b9 11050000 		.4byte	.LASF114
ARM GAS  /tmp/ccXATerv.s 			page 34


 1856 07bd 13       		.byte	0x13
 1857 07be 5E       		.byte	0x5e
 1858 07bf 9F060000 		.4byte	0x69f
 1859 07c3 02       		.byte	0x2
 1860 07c4 23       		.byte	0x23
 1861 07c5 00       		.uleb128 0
 1862 07c6 06       		.uleb128 0x6
 1863 07c7 E2010000 		.4byte	.LASF115
 1864 07cb 13       		.byte	0x13
 1865 07cc 5F       		.byte	0x5f
 1866 07cd 9F060000 		.4byte	0x69f
 1867 07d1 02       		.byte	0x2
 1868 07d2 23       		.byte	0x23
 1869 07d3 02       		.uleb128 0x2
 1870 07d4 07       		.uleb128 0x7
 1871 07d5 6D617800 		.ascii	"max\000"
 1872 07d9 13       		.byte	0x13
 1873 07da 60       		.byte	0x60
 1874 07db 9F060000 		.4byte	0x69f
 1875 07df 02       		.byte	0x2
 1876 07e0 23       		.byte	0x23
 1877 07e1 04       		.uleb128 0x4
 1878 07e2 07       		.uleb128 0x7
 1879 07e3 65727200 		.ascii	"err\000"
 1880 07e7 13       		.byte	0x13
 1881 07e8 61       		.byte	0x61
 1882 07e9 89060000 		.4byte	0x689
 1883 07ed 02       		.byte	0x2
 1884 07ee 23       		.byte	0x23
 1885 07ef 06       		.uleb128 0x6
 1886 07f0 06       		.uleb128 0x6
 1887 07f1 76010000 		.4byte	.LASF116
 1888 07f5 13       		.byte	0x13
 1889 07f6 62       		.byte	0x62
 1890 07f7 89060000 		.4byte	0x689
 1891 07fb 02       		.byte	0x2
 1892 07fc 23       		.byte	0x23
 1893 07fd 08       		.uleb128 0x8
 1894 07fe 00       		.byte	0
 1895 07ff 05       		.uleb128 0x5
 1896 0800 F1000000 		.4byte	.LASF117
 1897 0804 06       		.byte	0x6
 1898 0805 13       		.byte	0x13
 1899 0806 65       		.byte	0x65
 1900 0807 36080000 		.4byte	0x836
 1901 080b 06       		.uleb128 0x6
 1902 080c E2010000 		.4byte	.LASF115
 1903 0810 13       		.byte	0x13
 1904 0811 66       		.byte	0x66
 1905 0812 89060000 		.4byte	0x689
 1906 0816 02       		.byte	0x2
 1907 0817 23       		.byte	0x23
 1908 0818 00       		.uleb128 0
 1909 0819 07       		.uleb128 0x7
 1910 081a 6D617800 		.ascii	"max\000"
 1911 081e 13       		.byte	0x13
 1912 081f 67       		.byte	0x67
ARM GAS  /tmp/ccXATerv.s 			page 35


 1913 0820 89060000 		.4byte	0x689
 1914 0824 02       		.byte	0x2
 1915 0825 23       		.byte	0x23
 1916 0826 02       		.uleb128 0x2
 1917 0827 07       		.uleb128 0x7
 1918 0828 65727200 		.ascii	"err\000"
 1919 082c 13       		.byte	0x13
 1920 082d 68       		.byte	0x68
 1921 082e 89060000 		.4byte	0x689
 1922 0832 02       		.byte	0x2
 1923 0833 23       		.byte	0x23
 1924 0834 04       		.uleb128 0x4
 1925 0835 00       		.byte	0
 1926 0836 05       		.uleb128 0x5
 1927 0837 07060000 		.4byte	.LASF118
 1928 083b 12       		.byte	0x12
 1929 083c 13       		.byte	0x13
 1930 083d 6B       		.byte	0x6b
 1931 083e 6D080000 		.4byte	0x86d
 1932 0842 07       		.uleb128 0x7
 1933 0843 73656D00 		.ascii	"sem\000"
 1934 0847 13       		.byte	0x13
 1935 0848 6C       		.byte	0x6c
 1936 0849 FF070000 		.4byte	0x7ff
 1937 084d 02       		.byte	0x2
 1938 084e 23       		.byte	0x23
 1939 084f 00       		.uleb128 0
 1940 0850 06       		.uleb128 0x6
 1941 0851 5A010000 		.4byte	.LASF119
 1942 0855 13       		.byte	0x13
 1943 0856 6D       		.byte	0x6d
 1944 0857 FF070000 		.4byte	0x7ff
 1945 085b 02       		.byte	0x2
 1946 085c 23       		.byte	0x23
 1947 085d 06       		.uleb128 0x6
 1948 085e 06       		.uleb128 0x6
 1949 085f 2D050000 		.4byte	.LASF120
 1950 0863 13       		.byte	0x13
 1951 0864 6E       		.byte	0x6e
 1952 0865 FF070000 		.4byte	0x7ff
 1953 0869 02       		.byte	0x2
 1954 086a 23       		.byte	0x23
 1955 086b 0C       		.uleb128 0xc
 1956 086c 00       		.byte	0
 1957 086d 16       		.uleb128 0x16
 1958 086e E7010000 		.4byte	.LASF121
 1959 0872 5001     		.2byte	0x150
 1960 0874 13       		.byte	0x13
 1961 0875 71       		.byte	0x71
 1962 0876 0A090000 		.4byte	0x90a
 1963 087a 06       		.uleb128 0x6
 1964 087b 26060000 		.4byte	.LASF122
 1965 087f 13       		.byte	0x13
 1966 0880 73       		.byte	0x73
 1967 0881 F8060000 		.4byte	0x6f8
 1968 0885 02       		.byte	0x2
 1969 0886 23       		.byte	0x23
ARM GAS  /tmp/ccXATerv.s 			page 36


 1970 0887 00       		.uleb128 0
 1971 0888 06       		.uleb128 0x6
 1972 0889 93010000 		.4byte	.LASF123
 1973 088d 13       		.byte	0x13
 1974 088e 76       		.byte	0x76
 1975 088f F8060000 		.4byte	0x6f8
 1976 0893 02       		.byte	0x2
 1977 0894 23       		.byte	0x23
 1978 0895 18       		.uleb128 0x18
 1979 0896 06       		.uleb128 0x6
 1980 0897 60010000 		.4byte	.LASF124
 1981 089b 13       		.byte	0x13
 1982 089c 79       		.byte	0x79
 1983 089d F8060000 		.4byte	0x6f8
 1984 08a1 02       		.byte	0x2
 1985 08a2 23       		.byte	0x23
 1986 08a3 30       		.uleb128 0x30
 1987 08a4 07       		.uleb128 0x7
 1988 08a5 697000   		.ascii	"ip\000"
 1989 08a8 13       		.byte	0x13
 1990 08a9 7C       		.byte	0x7c
 1991 08aa F8060000 		.4byte	0x6f8
 1992 08ae 02       		.byte	0x2
 1993 08af 23       		.byte	0x23
 1994 08b0 48       		.uleb128 0x48
 1995 08b1 06       		.uleb128 0x6
 1996 08b2 CB060000 		.4byte	.LASF125
 1997 08b6 13       		.byte	0x13
 1998 08b7 7F       		.byte	0x7f
 1999 08b8 F8060000 		.4byte	0x6f8
 2000 08bc 02       		.byte	0x2
 2001 08bd 23       		.byte	0x23
 2002 08be 60       		.uleb128 0x60
 2003 08bf 07       		.uleb128 0x7
 2004 08c0 75647000 		.ascii	"udp\000"
 2005 08c4 13       		.byte	0x13
 2006 08c5 85       		.byte	0x85
 2007 08c6 F8060000 		.4byte	0x6f8
 2008 08ca 02       		.byte	0x2
 2009 08cb 23       		.byte	0x23
 2010 08cc 78       		.uleb128 0x78
 2011 08cd 07       		.uleb128 0x7
 2012 08ce 74637000 		.ascii	"tcp\000"
 2013 08d2 13       		.byte	0x13
 2014 08d3 88       		.byte	0x88
 2015 08d4 F8060000 		.4byte	0x6f8
 2016 08d8 03       		.byte	0x3
 2017 08d9 23       		.byte	0x23
 2018 08da 9001     		.uleb128 0x90
 2019 08dc 07       		.uleb128 0x7
 2020 08dd 6D656D00 		.ascii	"mem\000"
 2021 08e1 13       		.byte	0x13
 2022 08e2 8B       		.byte	0x8b
 2023 08e3 AC070000 		.4byte	0x7ac
 2024 08e7 03       		.byte	0x3
 2025 08e8 23       		.byte	0x23
 2026 08e9 A801     		.uleb128 0xa8
ARM GAS  /tmp/ccXATerv.s 			page 37


 2027 08eb 06       		.uleb128 0x6
 2028 08ec A9050000 		.4byte	.LASF126
 2029 08f0 13       		.byte	0x13
 2030 08f1 8E       		.byte	0x8e
 2031 08f2 0A090000 		.4byte	0x90a
 2032 08f6 03       		.byte	0x3
 2033 08f7 23       		.byte	0x23
 2034 08f8 B201     		.uleb128 0xb2
 2035 08fa 07       		.uleb128 0x7
 2036 08fb 73797300 		.ascii	"sys\000"
 2037 08ff 13       		.byte	0x13
 2038 0900 91       		.byte	0x91
 2039 0901 36080000 		.4byte	0x836
 2040 0905 03       		.byte	0x3
 2041 0906 23       		.byte	0x23
 2042 0907 BE02     		.uleb128 0x13e
 2043 0909 00       		.byte	0
 2044 090a 17       		.uleb128 0x17
 2045 090b AC070000 		.4byte	0x7ac
 2046 090f 1A090000 		.4byte	0x91a
 2047 0913 18       		.uleb128 0x18
 2048 0914 70030000 		.4byte	0x370
 2049 0918 0D       		.byte	0xd
 2050 0919 00       		.byte	0
 2051 091a 19       		.uleb128 0x19
 2052 091b 01       		.byte	0x1
 2053 091c 9F020000 		.4byte	.LASF170
 2054 0920 01       		.byte	0x1
 2055 0921 43       		.byte	0x43
 2056 0922 01       		.byte	0x1
 2057 0923 00000000 		.4byte	.LFB7
 2058 0927 02000000 		.4byte	.LFE7
 2059 092b 02       		.byte	0x2
 2060 092c 7D       		.byte	0x7d
 2061 092d 00       		.sleb128 0
 2062 092e 01       		.byte	0x1
 2063 092f 1A       		.uleb128 0x1a
 2064 0930 01       		.byte	0x1
 2065 0931 8E030000 		.4byte	.LASF130
 2066 0935 01       		.byte	0x1
 2067 0936 47       		.byte	0x47
 2068 0937 01       		.byte	0x1
 2069 0938 AA060000 		.4byte	0x6aa
 2070 093c 00000000 		.4byte	.LFB8
 2071 0940 4C000000 		.4byte	.LFE8
 2072 0944 00000000 		.4byte	.LLST0
 2073 0948 01       		.byte	0x1
 2074 0949 94090000 		.4byte	0x994
 2075 094d 1B       		.uleb128 0x1b
 2076 094e 73656D00 		.ascii	"sem\000"
 2077 0952 01       		.byte	0x1
 2078 0953 47       		.byte	0x47
 2079 0954 94090000 		.4byte	0x994
 2080 0958 20000000 		.4byte	.LLST1
 2081 095c 1C       		.uleb128 0x1c
 2082 095d 70010000 		.4byte	.LASF127
 2083 0961 01       		.byte	0x1
ARM GAS  /tmp/ccXATerv.s 			page 38


 2084 0962 47       		.byte	0x47
 2085 0963 73060000 		.4byte	0x673
 2086 0967 3E000000 		.4byte	.LLST2
 2087 096b 1D       		.uleb128 0x1d
 2088 096c 0E000000 		.4byte	.LVL3
 2089 0970 160F0000 		.4byte	0xf16
 2090 0974 83090000 		.4byte	0x983
 2091 0978 1E       		.uleb128 0x1e
 2092 0979 01       		.byte	0x1
 2093 097a 51       		.byte	0x51
 2094 097b 01       		.byte	0x1
 2095 097c 3C       		.byte	0x3c
 2096 097d 1E       		.uleb128 0x1e
 2097 097e 01       		.byte	0x1
 2098 097f 50       		.byte	0x50
 2099 0980 01       		.byte	0x1
 2100 0981 30       		.byte	0x30
 2101 0982 00       		.byte	0
 2102 0983 1F       		.uleb128 0x1f
 2103 0984 18000000 		.4byte	.LVL4
 2104 0988 330F0000 		.4byte	0xf33
 2105 098c 1E       		.uleb128 0x1e
 2106 098d 01       		.byte	0x1
 2107 098e 51       		.byte	0x51
 2108 098f 02       		.byte	0x2
 2109 0990 75       		.byte	0x75
 2110 0991 00       		.sleb128 0
 2111 0992 00       		.byte	0
 2112 0993 00       		.byte	0
 2113 0994 09       		.uleb128 0x9
 2114 0995 04       		.byte	0x4
 2115 0996 B5060000 		.4byte	0x6b5
 2116 099a 20       		.uleb128 0x20
 2117 099b 01       		.byte	0x1
 2118 099c 9C050000 		.4byte	.LASF128
 2119 09a0 01       		.byte	0x1
 2120 09a1 55       		.byte	0x55
 2121 09a2 01       		.byte	0x1
 2122 09a3 00000000 		.4byte	.LFB9
 2123 09a7 22000000 		.4byte	.LFE9
 2124 09ab 5F000000 		.4byte	.LLST3
 2125 09af 01       		.byte	0x1
 2126 09b0 CD090000 		.4byte	0x9cd
 2127 09b4 1B       		.uleb128 0x1b
 2128 09b5 73656D00 		.ascii	"sem\000"
 2129 09b9 01       		.byte	0x1
 2130 09ba 55       		.byte	0x55
 2131 09bb 94090000 		.4byte	0x994
 2132 09bf 7F000000 		.4byte	.LLST4
 2133 09c3 21       		.uleb128 0x21
 2134 09c4 0A000000 		.4byte	.LVL7
 2135 09c8 4C0F0000 		.4byte	0xf4c
 2136 09cc 00       		.byte	0
 2137 09cd 22       		.uleb128 0x22
 2138 09ce 01       		.byte	0x1
 2139 09cf D3010000 		.4byte	.LASF129
 2140 09d3 01       		.byte	0x1
ARM GAS  /tmp/ccXATerv.s 			page 39


 2141 09d4 5C       		.byte	0x5c
 2142 09d5 01       		.byte	0x1
 2143 09d6 00000000 		.4byte	.LFB10
 2144 09da 06000000 		.4byte	.LFE10
 2145 09de 02       		.byte	0x2
 2146 09df 7D       		.byte	0x7d
 2147 09e0 00       		.sleb128 0
 2148 09e1 01       		.byte	0x1
 2149 09e2 000A0000 		.4byte	0xa00
 2150 09e6 1B       		.uleb128 0x1b
 2151 09e7 73656D00 		.ascii	"sem\000"
 2152 09eb 01       		.byte	0x1
 2153 09ec 5C       		.byte	0x5c
 2154 09ed 94090000 		.4byte	0x994
 2155 09f1 9D000000 		.4byte	.LLST5
 2156 09f5 23       		.uleb128 0x23
 2157 09f6 06000000 		.4byte	.LVL10
 2158 09fa 01       		.byte	0x1
 2159 09fb 600F0000 		.4byte	0xf60
 2160 09ff 00       		.byte	0
 2161 0a00 1A       		.uleb128 0x1a
 2162 0a01 01       		.byte	0x1
 2163 0a02 32050000 		.4byte	.LASF131
 2164 0a06 01       		.byte	0x1
 2165 0a07 61       		.byte	0x61
 2166 0a08 01       		.byte	0x1
 2167 0a09 94060000 		.4byte	0x694
 2168 0a0d 00000000 		.4byte	.LFB11
 2169 0a11 34000000 		.4byte	.LFE11
 2170 0a15 BE000000 		.4byte	.LLST6
 2171 0a19 01       		.byte	0x1
 2172 0a1a B20A0000 		.4byte	0xab2
 2173 0a1e 1B       		.uleb128 0x1b
 2174 0a1f 73656D00 		.ascii	"sem\000"
 2175 0a23 01       		.byte	0x1
 2176 0a24 61       		.byte	0x61
 2177 0a25 94090000 		.4byte	0x994
 2178 0a29 DE000000 		.4byte	.LLST7
 2179 0a2d 1C       		.uleb128 0x1c
 2180 0a2e B0040000 		.4byte	.LASF132
 2181 0a32 01       		.byte	0x1
 2182 0a33 61       		.byte	0x61
 2183 0a34 94060000 		.4byte	0x694
 2184 0a38 FF000000 		.4byte	.LLST8
 2185 0a3c 24       		.uleb128 0x24
 2186 0a3d C6010000 		.4byte	.LASF133
 2187 0a41 01       		.byte	0x1
 2188 0a42 62       		.byte	0x62
 2189 0a43 09010000 		.4byte	0x109
 2190 0a47 20010000 		.4byte	.LLST9
 2191 0a4b 25       		.uleb128 0x25
 2192 0a4c 746D6F00 		.ascii	"tmo\000"
 2193 0a50 01       		.byte	0x1
 2194 0a51 62       		.byte	0x62
 2195 0a52 09010000 		.4byte	0x109
 2196 0a56 54010000 		.4byte	.LLST10
 2197 0a5a 26       		.uleb128 0x26
ARM GAS  /tmp/ccXATerv.s 			page 40


 2198 0a5b 02000000 		.4byte	.LBB2
 2199 0a5f 08000000 		.4byte	.LBE2
 2200 0a63 770A0000 		.4byte	0xa77
 2201 0a67 25       		.uleb128 0x25
 2202 0a68 746D7000 		.ascii	"tmp\000"
 2203 0a6c 01       		.byte	0x1
 2204 0a6d 64       		.byte	0x64
 2205 0a6e 91000000 		.4byte	0x91
 2206 0a72 99010000 		.4byte	.LLST11
 2207 0a76 00       		.byte	0
 2208 0a77 26       		.uleb128 0x26
 2209 0a78 20000000 		.4byte	.LBB3
 2210 0a7c 26000000 		.4byte	.LBE3
 2211 0a80 940A0000 		.4byte	0xa94
 2212 0a84 25       		.uleb128 0x25
 2213 0a85 746D7000 		.ascii	"tmp\000"
 2214 0a89 01       		.byte	0x1
 2215 0a8a 6B       		.byte	0x6b
 2216 0a8b 91000000 		.4byte	0x91
 2217 0a8f AC010000 		.4byte	.LLST12
 2218 0a93 00       		.byte	0
 2219 0a94 1F       		.uleb128 0x1f
 2220 0a95 1A000000 		.4byte	.LVL17
 2221 0a99 740F0000 		.4byte	0xf74
 2222 0a9d 1E       		.uleb128 0x1e
 2223 0a9e 01       		.byte	0x1
 2224 0a9f 51       		.byte	0x51
 2225 0aa0 0F       		.byte	0xf
 2226 0aa1 F3       		.byte	0xf3
 2227 0aa2 01       		.uleb128 0x1
 2228 0aa3 51       		.byte	0x51
 2229 0aa4 09       		.byte	0x9
 2230 0aa5 FF       		.byte	0xff
 2231 0aa6 F3       		.byte	0xf3
 2232 0aa7 01       		.uleb128 0x1
 2233 0aa8 51       		.byte	0x51
 2234 0aa9 30       		.byte	0x30
 2235 0aaa 2E       		.byte	0x2e
 2236 0aab 28       		.byte	0x28
 2237 0aac 0100     		.2byte	0x1
 2238 0aae 16       		.byte	0x16
 2239 0aaf 13       		.byte	0x13
 2240 0ab0 00       		.byte	0
 2241 0ab1 00       		.byte	0
 2242 0ab2 27       		.uleb128 0x27
 2243 0ab3 01       		.byte	0x1
 2244 0ab4 4B060000 		.4byte	.LASF134
 2245 0ab8 01       		.byte	0x1
 2246 0ab9 6F       		.byte	0x6f
 2247 0aba 01       		.byte	0x1
 2248 0abb 29000000 		.4byte	0x29
 2249 0abf 00000000 		.4byte	.LFB12
 2250 0ac3 0A000000 		.4byte	.LFE12
 2251 0ac7 02       		.byte	0x2
 2252 0ac8 7D       		.byte	0x7d
 2253 0ac9 00       		.sleb128 0
 2254 0aca 01       		.byte	0x1
ARM GAS  /tmp/ccXATerv.s 			page 41


 2255 0acb DF0A0000 		.4byte	0xadf
 2256 0acf 1B       		.uleb128 0x1b
 2257 0ad0 73656D00 		.ascii	"sem\000"
 2258 0ad4 01       		.byte	0x1
 2259 0ad5 6F       		.byte	0x6f
 2260 0ad6 94090000 		.4byte	0x994
 2261 0ada BF010000 		.4byte	.LLST13
 2262 0ade 00       		.byte	0
 2263 0adf 22       		.uleb128 0x22
 2264 0ae0 01       		.byte	0x1
 2265 0ae1 8B020000 		.4byte	.LASF135
 2266 0ae5 01       		.byte	0x1
 2267 0ae6 75       		.byte	0x75
 2268 0ae7 01       		.byte	0x1
 2269 0ae8 00000000 		.4byte	.LFB13
 2270 0aec 06000000 		.4byte	.LFE13
 2271 0af0 02       		.byte	0x2
 2272 0af1 7D       		.byte	0x7d
 2273 0af2 00       		.sleb128 0
 2274 0af3 01       		.byte	0x1
 2275 0af4 060B0000 		.4byte	0xb06
 2276 0af8 28       		.uleb128 0x28
 2277 0af9 73656D00 		.ascii	"sem\000"
 2278 0afd 01       		.byte	0x1
 2279 0afe 75       		.byte	0x75
 2280 0aff 94090000 		.4byte	0x994
 2281 0b03 01       		.byte	0x1
 2282 0b04 50       		.byte	0x50
 2283 0b05 00       		.byte	0
 2284 0b06 1A       		.uleb128 0x1a
 2285 0b07 01       		.byte	0x1
 2286 0b08 59060000 		.4byte	.LASF136
 2287 0b0c 01       		.byte	0x1
 2288 0b0d 79       		.byte	0x79
 2289 0b0e 01       		.byte	0x1
 2290 0b0f AA060000 		.4byte	0x6aa
 2291 0b13 00000000 		.4byte	.LFB14
 2292 0b17 48000000 		.4byte	.LFE14
 2293 0b1b E0010000 		.4byte	.LLST14
 2294 0b1f 01       		.byte	0x1
 2295 0b20 6E0B0000 		.4byte	0xb6e
 2296 0b24 1C       		.uleb128 0x1c
 2297 0b25 2D050000 		.4byte	.LASF120
 2298 0b29 01       		.byte	0x1
 2299 0b2a 79       		.byte	0x79
 2300 0b2b 6E0B0000 		.4byte	0xb6e
 2301 0b2f 00020000 		.4byte	.LLST15
 2302 0b33 1C       		.uleb128 0x1c
 2303 0b34 D7030000 		.4byte	.LASF84
 2304 0b38 01       		.byte	0x1
 2305 0b39 79       		.byte	0x79
 2306 0b3a 29000000 		.4byte	0x29
 2307 0b3e 1E020000 		.4byte	.LLST16
 2308 0b42 1D       		.uleb128 0x1d
 2309 0b43 12000000 		.4byte	.LVL29
 2310 0b47 160F0000 		.4byte	0xf16
 2311 0b4b 5D0B0000 		.4byte	0xb5d
ARM GAS  /tmp/ccXATerv.s 			page 42


 2312 0b4f 1E       		.uleb128 0x1e
 2313 0b50 01       		.byte	0x1
 2314 0b51 51       		.byte	0x51
 2315 0b52 04       		.byte	0x4
 2316 0b53 74       		.byte	0x74
 2317 0b54 0A       		.sleb128 10
 2318 0b55 32       		.byte	0x32
 2319 0b56 24       		.byte	0x24
 2320 0b57 1E       		.uleb128 0x1e
 2321 0b58 01       		.byte	0x1
 2322 0b59 50       		.byte	0x50
 2323 0b5a 01       		.byte	0x1
 2324 0b5b 30       		.byte	0x30
 2325 0b5c 00       		.byte	0
 2326 0b5d 1F       		.uleb128 0x1f
 2327 0b5e 20000000 		.4byte	.LVL30
 2328 0b62 910F0000 		.4byte	0xf91
 2329 0b66 1E       		.uleb128 0x1e
 2330 0b67 01       		.byte	0x1
 2331 0b68 52       		.byte	0x52
 2332 0b69 02       		.byte	0x2
 2333 0b6a 74       		.byte	0x74
 2334 0b6b 00       		.sleb128 0
 2335 0b6c 00       		.byte	0
 2336 0b6d 00       		.byte	0
 2337 0b6e 09       		.uleb128 0x9
 2338 0b6f 04       		.byte	0x4
 2339 0b70 C6060000 		.4byte	0x6c6
 2340 0b74 20       		.uleb128 0x20
 2341 0b75 01       		.byte	0x1
 2342 0b76 EE010000 		.4byte	.LASF137
 2343 0b7a 01       		.byte	0x1
 2344 0b7b 87       		.byte	0x87
 2345 0b7c 01       		.byte	0x1
 2346 0b7d 00000000 		.4byte	.LFB15
 2347 0b81 34000000 		.4byte	.LFE15
 2348 0b85 3C020000 		.4byte	.LLST17
 2349 0b89 01       		.byte	0x1
 2350 0b8a B00B0000 		.4byte	0xbb0
 2351 0b8e 1C       		.uleb128 0x1c
 2352 0b8f 2D050000 		.4byte	.LASF120
 2353 0b93 01       		.byte	0x1
 2354 0b94 87       		.byte	0x87
 2355 0b95 6E0B0000 		.4byte	0xb6e
 2356 0b99 5C020000 		.4byte	.LLST18
 2357 0b9d 21       		.uleb128 0x21
 2358 0b9e 1A000000 		.4byte	.LVL33
 2359 0ba2 AF0F0000 		.4byte	0xfaf
 2360 0ba6 21       		.uleb128 0x21
 2361 0ba7 20000000 		.4byte	.LVL34
 2362 0bab 4C0F0000 		.4byte	0xf4c
 2363 0baf 00       		.byte	0
 2364 0bb0 22       		.uleb128 0x22
 2365 0bb1 01       		.byte	0x1
 2366 0bb2 F9050000 		.4byte	.LASF138
 2367 0bb6 01       		.byte	0x1
 2368 0bb7 95       		.byte	0x95
ARM GAS  /tmp/ccXATerv.s 			page 43


 2369 0bb8 01       		.byte	0x1
 2370 0bb9 00000000 		.4byte	.LFB16
 2371 0bbd 0A000000 		.4byte	.LFE16
 2372 0bc1 02       		.byte	0x2
 2373 0bc2 7D       		.byte	0x7d
 2374 0bc3 00       		.sleb128 0
 2375 0bc4 01       		.byte	0x1
 2376 0bc5 000C0000 		.4byte	0xc00
 2377 0bc9 1C       		.uleb128 0x1c
 2378 0bca 2D050000 		.4byte	.LASF120
 2379 0bce 01       		.byte	0x1
 2380 0bcf 95       		.byte	0x95
 2381 0bd0 6E0B0000 		.4byte	0xb6e
 2382 0bd4 7A020000 		.4byte	.LLST19
 2383 0bd8 1B       		.uleb128 0x1b
 2384 0bd9 6D736700 		.ascii	"msg\000"
 2385 0bdd 01       		.byte	0x1
 2386 0bde 95       		.byte	0x95
 2387 0bdf B2020000 		.4byte	0x2b2
 2388 0be3 9B020000 		.4byte	.LLST20
 2389 0be7 29       		.uleb128 0x29
 2390 0be8 0A000000 		.4byte	.LVL37
 2391 0bec 01       		.byte	0x1
 2392 0bed C30F0000 		.4byte	0xfc3
 2393 0bf1 1E       		.uleb128 0x1e
 2394 0bf2 01       		.byte	0x1
 2395 0bf3 52       		.byte	0x52
 2396 0bf4 02       		.byte	0x2
 2397 0bf5 09       		.byte	0x9
 2398 0bf6 FF       		.byte	0xff
 2399 0bf7 1E       		.uleb128 0x1e
 2400 0bf8 01       		.byte	0x1
 2401 0bf9 51       		.byte	0x51
 2402 0bfa 03       		.byte	0x3
 2403 0bfb F3       		.byte	0xf3
 2404 0bfc 01       		.uleb128 0x1
 2405 0bfd 51       		.byte	0x51
 2406 0bfe 00       		.byte	0
 2407 0bff 00       		.byte	0
 2408 0c00 1A       		.uleb128 0x1a
 2409 0c01 01       		.byte	0x1
 2410 0c02 7F040000 		.4byte	.LASF139
 2411 0c06 01       		.byte	0x1
 2412 0c07 9A       		.byte	0x9a
 2413 0c08 01       		.byte	0x1
 2414 0c09 AA060000 		.4byte	0x6aa
 2415 0c0d 00000000 		.4byte	.LFB17
 2416 0c11 28000000 		.4byte	.LFE17
 2417 0c15 BC020000 		.4byte	.LLST21
 2418 0c19 01       		.byte	0x1
 2419 0c1a 530C0000 		.4byte	0xc53
 2420 0c1e 1C       		.uleb128 0x1c
 2421 0c1f 2D050000 		.4byte	.LASF120
 2422 0c23 01       		.byte	0x1
 2423 0c24 9A       		.byte	0x9a
 2424 0c25 6E0B0000 		.4byte	0xb6e
 2425 0c29 DC020000 		.4byte	.LLST22
ARM GAS  /tmp/ccXATerv.s 			page 44


 2426 0c2d 1B       		.uleb128 0x1b
 2427 0c2e 6D736700 		.ascii	"msg\000"
 2428 0c32 01       		.byte	0x1
 2429 0c33 9A       		.byte	0x9a
 2430 0c34 B2020000 		.4byte	0x2b2
 2431 0c38 FD020000 		.4byte	.LLST23
 2432 0c3c 1F       		.uleb128 0x1f
 2433 0c3d 0A000000 		.4byte	.LVL40
 2434 0c41 C30F0000 		.4byte	0xfc3
 2435 0c45 1E       		.uleb128 0x1e
 2436 0c46 01       		.byte	0x1
 2437 0c47 52       		.byte	0x52
 2438 0c48 01       		.byte	0x1
 2439 0c49 30       		.byte	0x30
 2440 0c4a 1E       		.uleb128 0x1e
 2441 0c4b 01       		.byte	0x1
 2442 0c4c 51       		.byte	0x51
 2443 0c4d 03       		.byte	0x3
 2444 0c4e F3       		.byte	0xf3
 2445 0c4f 01       		.uleb128 0x1
 2446 0c50 51       		.byte	0x51
 2447 0c51 00       		.byte	0
 2448 0c52 00       		.byte	0
 2449 0c53 1A       		.uleb128 0x1a
 2450 0c54 01       		.byte	0x1
 2451 0c55 7A030000 		.4byte	.LASF140
 2452 0c59 01       		.byte	0x1
 2453 0c5a A3       		.byte	0xa3
 2454 0c5b 01       		.byte	0x1
 2455 0c5c 94060000 		.4byte	0x694
 2456 0c60 00000000 		.4byte	.LFB18
 2457 0c64 34000000 		.4byte	.LFE18
 2458 0c68 1E030000 		.4byte	.LLST24
 2459 0c6c 01       		.byte	0x1
 2460 0c6d 1B0D0000 		.4byte	0xd1b
 2461 0c71 1C       		.uleb128 0x1c
 2462 0c72 2D050000 		.4byte	.LASF120
 2463 0c76 01       		.byte	0x1
 2464 0c77 A3       		.byte	0xa3
 2465 0c78 6E0B0000 		.4byte	0xb6e
 2466 0c7c 3E030000 		.4byte	.LLST25
 2467 0c80 1B       		.uleb128 0x1b
 2468 0c81 6D736700 		.ascii	"msg\000"
 2469 0c85 01       		.byte	0x1
 2470 0c86 A3       		.byte	0xa3
 2471 0c87 1B0D0000 		.4byte	0xd1b
 2472 0c8b 5F030000 		.4byte	.LLST26
 2473 0c8f 1C       		.uleb128 0x1c
 2474 0c90 B0040000 		.4byte	.LASF132
 2475 0c94 01       		.byte	0x1
 2476 0c95 A3       		.byte	0xa3
 2477 0c96 94060000 		.4byte	0x694
 2478 0c9a 80030000 		.4byte	.LLST27
 2479 0c9e 24       		.uleb128 0x24
 2480 0c9f C6010000 		.4byte	.LASF133
 2481 0ca3 01       		.byte	0x1
 2482 0ca4 A4       		.byte	0xa4
ARM GAS  /tmp/ccXATerv.s 			page 45


 2483 0ca5 09010000 		.4byte	0x109
 2484 0ca9 A1030000 		.4byte	.LLST28
 2485 0cad 25       		.uleb128 0x25
 2486 0cae 746D6F00 		.ascii	"tmo\000"
 2487 0cb2 01       		.byte	0x1
 2488 0cb3 A4       		.byte	0xa4
 2489 0cb4 09010000 		.4byte	0x109
 2490 0cb8 D5030000 		.4byte	.LLST29
 2491 0cbc 26       		.uleb128 0x26
 2492 0cbd 02000000 		.4byte	.LBB4
 2493 0cc1 08000000 		.4byte	.LBE4
 2494 0cc5 D90C0000 		.4byte	0xcd9
 2495 0cc9 25       		.uleb128 0x25
 2496 0cca 746D7000 		.ascii	"tmp\000"
 2497 0cce 01       		.byte	0x1
 2498 0ccf A6       		.byte	0xa6
 2499 0cd0 91000000 		.4byte	0x91
 2500 0cd4 1A040000 		.4byte	.LLST30
 2501 0cd8 00       		.byte	0
 2502 0cd9 26       		.uleb128 0x26
 2503 0cda 20000000 		.4byte	.LBB5
 2504 0cde 26000000 		.4byte	.LBE5
 2505 0ce2 F60C0000 		.4byte	0xcf6
 2506 0ce6 25       		.uleb128 0x25
 2507 0ce7 746D7000 		.ascii	"tmp\000"
 2508 0ceb 01       		.byte	0x1
 2509 0cec AD       		.byte	0xad
 2510 0ced 91000000 		.4byte	0x91
 2511 0cf1 2D040000 		.4byte	.LLST31
 2512 0cf5 00       		.byte	0
 2513 0cf6 1F       		.uleb128 0x1f
 2514 0cf7 1A000000 		.4byte	.LVL47
 2515 0cfb E50F0000 		.4byte	0xfe5
 2516 0cff 1E       		.uleb128 0x1e
 2517 0d00 01       		.byte	0x1
 2518 0d01 52       		.byte	0x52
 2519 0d02 0F       		.byte	0xf
 2520 0d03 F3       		.byte	0xf3
 2521 0d04 01       		.uleb128 0x1
 2522 0d05 52       		.byte	0x52
 2523 0d06 09       		.byte	0x9
 2524 0d07 FF       		.byte	0xff
 2525 0d08 F3       		.byte	0xf3
 2526 0d09 01       		.uleb128 0x1
 2527 0d0a 52       		.byte	0x52
 2528 0d0b 30       		.byte	0x30
 2529 0d0c 2E       		.byte	0x2e
 2530 0d0d 28       		.byte	0x28
 2531 0d0e 0100     		.2byte	0x1
 2532 0d10 16       		.byte	0x16
 2533 0d11 13       		.byte	0x13
 2534 0d12 1E       		.uleb128 0x1e
 2535 0d13 01       		.byte	0x1
 2536 0d14 51       		.byte	0x51
 2537 0d15 03       		.byte	0x3
 2538 0d16 F3       		.byte	0xf3
 2539 0d17 01       		.uleb128 0x1
ARM GAS  /tmp/ccXATerv.s 			page 46


 2540 0d18 51       		.byte	0x51
 2541 0d19 00       		.byte	0
 2542 0d1a 00       		.byte	0
 2543 0d1b 09       		.uleb128 0x9
 2544 0d1c 04       		.byte	0x4
 2545 0d1d B2020000 		.4byte	0x2b2
 2546 0d21 1A       		.uleb128 0x1a
 2547 0d22 01       		.byte	0x1
 2548 0d23 C0030000 		.4byte	.LASF141
 2549 0d27 01       		.byte	0x1
 2550 0d28 B1       		.byte	0xb1
 2551 0d29 01       		.byte	0x1
 2552 0d2a 94060000 		.4byte	0x694
 2553 0d2e 00000000 		.4byte	.LFB19
 2554 0d32 18000000 		.4byte	.LFE19
 2555 0d36 40040000 		.4byte	.LLST32
 2556 0d3a 01       		.byte	0x1
 2557 0d3b 740D0000 		.4byte	0xd74
 2558 0d3f 1C       		.uleb128 0x1c
 2559 0d40 2D050000 		.4byte	.LASF120
 2560 0d44 01       		.byte	0x1
 2561 0d45 B1       		.byte	0xb1
 2562 0d46 6E0B0000 		.4byte	0xb6e
 2563 0d4a 60040000 		.4byte	.LLST33
 2564 0d4e 1B       		.uleb128 0x1b
 2565 0d4f 6D736700 		.ascii	"msg\000"
 2566 0d53 01       		.byte	0x1
 2567 0d54 B1       		.byte	0xb1
 2568 0d55 1B0D0000 		.4byte	0xd1b
 2569 0d59 81040000 		.4byte	.LLST34
 2570 0d5d 1F       		.uleb128 0x1f
 2571 0d5e 0A000000 		.4byte	.LVL55
 2572 0d62 07100000 		.4byte	0x1007
 2573 0d66 1E       		.uleb128 0x1e
 2574 0d67 01       		.byte	0x1
 2575 0d68 52       		.byte	0x52
 2576 0d69 01       		.byte	0x1
 2577 0d6a 30       		.byte	0x30
 2578 0d6b 1E       		.uleb128 0x1e
 2579 0d6c 01       		.byte	0x1
 2580 0d6d 51       		.byte	0x51
 2581 0d6e 03       		.byte	0x3
 2582 0d6f F3       		.byte	0xf3
 2583 0d70 01       		.uleb128 0x1
 2584 0d71 51       		.byte	0x51
 2585 0d72 00       		.byte	0
 2586 0d73 00       		.byte	0
 2587 0d74 27       		.uleb128 0x27
 2588 0d75 01       		.byte	0x1
 2589 0d76 E3030000 		.4byte	.LASF142
 2590 0d7a 01       		.byte	0x1
 2591 0d7b B8       		.byte	0xb8
 2592 0d7c 01       		.byte	0x1
 2593 0d7d 29000000 		.4byte	0x29
 2594 0d81 00000000 		.4byte	.LFB20
 2595 0d85 0A000000 		.4byte	.LFE20
 2596 0d89 02       		.byte	0x2
ARM GAS  /tmp/ccXATerv.s 			page 47


 2597 0d8a 7D       		.byte	0x7d
 2598 0d8b 00       		.sleb128 0
 2599 0d8c 01       		.byte	0x1
 2600 0d8d A10D0000 		.4byte	0xda1
 2601 0d91 1C       		.uleb128 0x1c
 2602 0d92 2D050000 		.4byte	.LASF120
 2603 0d96 01       		.byte	0x1
 2604 0d97 B8       		.byte	0xb8
 2605 0d98 6E0B0000 		.4byte	0xb6e
 2606 0d9c A2040000 		.4byte	.LLST35
 2607 0da0 00       		.byte	0
 2608 0da1 22       		.uleb128 0x22
 2609 0da2 01       		.byte	0x1
 2610 0da3 66000000 		.4byte	.LASF143
 2611 0da7 01       		.byte	0x1
 2612 0da8 BE       		.byte	0xbe
 2613 0da9 01       		.byte	0x1
 2614 0daa 00000000 		.4byte	.LFB21
 2615 0dae 06000000 		.4byte	.LFE21
 2616 0db2 02       		.byte	0x2
 2617 0db3 7D       		.byte	0x7d
 2618 0db4 00       		.sleb128 0
 2619 0db5 01       		.byte	0x1
 2620 0db6 C80D0000 		.4byte	0xdc8
 2621 0dba 2A       		.uleb128 0x2a
 2622 0dbb 2D050000 		.4byte	.LASF120
 2623 0dbf 01       		.byte	0x1
 2624 0dc0 BE       		.byte	0xbe
 2625 0dc1 6E0B0000 		.4byte	0xb6e
 2626 0dc5 01       		.byte	0x1
 2627 0dc6 50       		.byte	0x50
 2628 0dc7 00       		.byte	0
 2629 0dc8 1A       		.uleb128 0x1a
 2630 0dc9 01       		.byte	0x1
 2631 0dca 98000000 		.4byte	.LASF144
 2632 0dce 01       		.byte	0x1
 2633 0dcf C2       		.byte	0xc2
 2634 0dd0 01       		.byte	0x1
 2635 0dd1 D7060000 		.4byte	0x6d7
 2636 0dd5 00000000 		.4byte	.LFB22
 2637 0dd9 2E000000 		.4byte	.LFE22
 2638 0ddd C3040000 		.4byte	.LLST36
 2639 0de1 01       		.byte	0x1
 2640 0de2 850E0000 		.4byte	0xe85
 2641 0de6 1C       		.uleb128 0x1c
 2642 0de7 71050000 		.4byte	.LASF145
 2643 0deb 01       		.byte	0x1
 2644 0dec C2       		.byte	0xc2
 2645 0ded 3A060000 		.4byte	0x63a
 2646 0df1 E3040000 		.4byte	.LLST37
 2647 0df5 1C       		.uleb128 0x1c
 2648 0df6 EA050000 		.4byte	.LASF146
 2649 0dfa 01       		.byte	0x1
 2650 0dfb C2       		.byte	0xc2
 2651 0dfc ED060000 		.4byte	0x6ed
 2652 0e00 04050000 		.4byte	.LLST38
 2653 0e04 1B       		.uleb128 0x1b
ARM GAS  /tmp/ccXATerv.s 			page 48


 2654 0e05 61726700 		.ascii	"arg\000"
 2655 0e09 01       		.byte	0x1
 2656 0e0a C3       		.byte	0xc3
 2657 0e0b B2020000 		.4byte	0x2b2
 2658 0e0f 22050000 		.4byte	.LLST39
 2659 0e13 1C       		.uleb128 0x1c
 2660 0e14 3E030000 		.4byte	.LASF147
 2661 0e18 01       		.byte	0x1
 2662 0e19 C3       		.byte	0xc3
 2663 0e1a 29000000 		.4byte	0x29
 2664 0e1e 40050000 		.4byte	.LLST40
 2665 0e22 2A       		.uleb128 0x2a
 2666 0e23 AF020000 		.4byte	.LASF148
 2667 0e27 01       		.byte	0x1
 2668 0e28 C3       		.byte	0xc3
 2669 0e29 29000000 		.4byte	0x29
 2670 0e2d 02       		.byte	0x2
 2671 0e2e 91       		.byte	0x91
 2672 0e2f 00       		.sleb128 0
 2673 0e30 2B       		.uleb128 0x2b
 2674 0e31 77737A00 		.ascii	"wsz\000"
 2675 0e35 01       		.byte	0x1
 2676 0e36 C5       		.byte	0xc5
 2677 0e37 30000000 		.4byte	0x30
 2678 0e3b 01       		.byte	0x1
 2679 0e3c 54       		.byte	0x54
 2680 0e3d 25       		.uleb128 0x25
 2681 0e3e 77737000 		.ascii	"wsp\000"
 2682 0e42 01       		.byte	0x1
 2683 0e43 C6       		.byte	0xc6
 2684 0e44 B2020000 		.4byte	0x2b2
 2685 0e48 6F050000 		.4byte	.LLST41
 2686 0e4c 1D       		.uleb128 0x1d
 2687 0e4d 18000000 		.4byte	.LVL63
 2688 0e51 29100000 		.4byte	0x1029
 2689 0e55 600E0000 		.4byte	0xe60
 2690 0e59 1E       		.uleb128 0x1e
 2691 0e5a 01       		.byte	0x1
 2692 0e5b 50       		.byte	0x50
 2693 0e5c 02       		.byte	0x2
 2694 0e5d 74       		.byte	0x74
 2695 0e5e 00       		.sleb128 0
 2696 0e5f 00       		.byte	0
 2697 0e60 29       		.uleb128 0x29
 2698 0e61 2A000000 		.4byte	.LVL64
 2699 0e65 01       		.byte	0x1
 2700 0e66 41100000 		.4byte	0x1041
 2701 0e6a 1E       		.uleb128 0x1e
 2702 0e6b 01       		.byte	0x1
 2703 0e6c 53       		.byte	0x53
 2704 0e6d 02       		.byte	0x2
 2705 0e6e 75       		.byte	0x75
 2706 0e6f 00       		.sleb128 0
 2707 0e70 1E       		.uleb128 0x1e
 2708 0e71 01       		.byte	0x1
 2709 0e72 52       		.byte	0x52
 2710 0e73 02       		.byte	0x2
ARM GAS  /tmp/ccXATerv.s 			page 49


 2711 0e74 76       		.byte	0x76
 2712 0e75 00       		.sleb128 0
 2713 0e76 1E       		.uleb128 0x1e
 2714 0e77 01       		.byte	0x1
 2715 0e78 51       		.byte	0x51
 2716 0e79 02       		.byte	0x2
 2717 0e7a 74       		.byte	0x74
 2718 0e7b 00       		.sleb128 0
 2719 0e7c 1E       		.uleb128 0x1e
 2720 0e7d 02       		.byte	0x2
 2721 0e7e 91       		.byte	0x91
 2722 0e7f 00       		.sleb128 0
 2723 0e80 02       		.byte	0x2
 2724 0e81 77       		.byte	0x77
 2725 0e82 00       		.sleb128 0
 2726 0e83 00       		.byte	0
 2727 0e84 00       		.byte	0
 2728 0e85 27       		.uleb128 0x27
 2729 0e86 01       		.byte	0x1
 2730 0e87 8B050000 		.4byte	.LASF149
 2731 0e8b 01       		.byte	0x1
 2732 0e8c D0       		.byte	0xd0
 2733 0e8d 01       		.byte	0x1
 2734 0e8e E2060000 		.4byte	0x6e2
 2735 0e92 00000000 		.4byte	.LFB23
 2736 0e96 0A000000 		.4byte	.LFE23
 2737 0e9a 02       		.byte	0x2
 2738 0e9b 7D       		.byte	0x7d
 2739 0e9c 00       		.sleb128 0
 2740 0e9d 01       		.byte	0x1
 2741 0e9e BC0E0000 		.4byte	0xebc
 2742 0ea2 2C       		.uleb128 0x2c
 2743 0ea3 00000000 		.4byte	.LBB6
 2744 0ea7 06000000 		.4byte	.LBE6
 2745 0eab 25       		.uleb128 0x25
 2746 0eac 746D7000 		.ascii	"tmp\000"
 2747 0eb0 01       		.byte	0x1
 2748 0eb1 D2       		.byte	0xd2
 2749 0eb2 91000000 		.4byte	0x91
 2750 0eb6 8D050000 		.4byte	.LLST42
 2751 0eba 00       		.byte	0
 2752 0ebb 00       		.byte	0
 2753 0ebc 22       		.uleb128 0x22
 2754 0ebd 01       		.byte	0x1
 2755 0ebe FF000000 		.4byte	.LASF150
 2756 0ec2 01       		.byte	0x1
 2757 0ec3 D6       		.byte	0xd6
 2758 0ec4 01       		.byte	0x1
 2759 0ec5 00000000 		.4byte	.LFB24
 2760 0ec9 08000000 		.4byte	.LFE24
 2761 0ecd 02       		.byte	0x2
 2762 0ece 7D       		.byte	0x7d
 2763 0ecf 00       		.sleb128 0
 2764 0ed0 01       		.byte	0x1
 2765 0ed1 FC0E0000 		.4byte	0xefc
 2766 0ed5 2A       		.uleb128 0x2a
 2767 0ed6 39030000 		.4byte	.LASF151
ARM GAS  /tmp/ccXATerv.s 			page 50


 2768 0eda 01       		.byte	0x1
 2769 0edb D6       		.byte	0xd6
 2770 0edc E2060000 		.4byte	0x6e2
 2771 0ee0 01       		.byte	0x1
 2772 0ee1 50       		.byte	0x50
 2773 0ee2 2C       		.uleb128 0x2c
 2774 0ee3 00000000 		.4byte	.LBB7
 2775 0ee7 08000000 		.4byte	.LBE7
 2776 0eeb 25       		.uleb128 0x25
 2777 0eec 746D7000 		.ascii	"tmp\000"
 2778 0ef0 01       		.byte	0x1
 2779 0ef1 D9       		.byte	0xd9
 2780 0ef2 91000000 		.4byte	0x91
 2781 0ef6 A0050000 		.4byte	.LLST43
 2782 0efa 00       		.byte	0
 2783 0efb 00       		.byte	0
 2784 0efc 2D       		.uleb128 0x2d
 2785 0efd C0000000 		.4byte	.LASF152
 2786 0f01 08       		.byte	0x8
 2787 0f02 D1       		.byte	0xd1
 2788 0f03 3E040000 		.4byte	0x43e
 2789 0f07 01       		.byte	0x1
 2790 0f08 01       		.byte	0x1
 2791 0f09 2D       		.uleb128 0x2d
 2792 0f0a E0000000 		.4byte	.LASF153
 2793 0f0e 13       		.byte	0x13
 2794 0f0f 95       		.byte	0x95
 2795 0f10 6D080000 		.4byte	0x86d
 2796 0f14 01       		.byte	0x1
 2797 0f15 01       		.byte	0x1
 2798 0f16 2E       		.uleb128 0x2e
 2799 0f17 01       		.byte	0x1
 2800 0f18 48030000 		.4byte	.LASF157
 2801 0f1c 0D       		.byte	0xd
 2802 0f1d 52       		.byte	0x52
 2803 0f1e 01       		.byte	0x1
 2804 0f1f B2020000 		.4byte	0x2b2
 2805 0f23 01       		.byte	0x1
 2806 0f24 330F0000 		.4byte	0xf33
 2807 0f28 0E       		.uleb128 0xe
 2808 0f29 DC050000 		.4byte	0x5dc
 2809 0f2d 0E       		.uleb128 0xe
 2810 0f2e 30000000 		.4byte	0x30
 2811 0f32 00       		.byte	0
 2812 0f33 2F       		.uleb128 0x2f
 2813 0f34 01       		.byte	0x1
 2814 0f35 6F020000 		.4byte	.LASF154
 2815 0f39 09       		.byte	0x9
 2816 0f3a 2E       		.byte	0x2e
 2817 0f3b 01       		.byte	0x1
 2818 0f3c 01       		.byte	0x1
 2819 0f3d 4C0F0000 		.4byte	0xf4c
 2820 0f41 0E       		.uleb128 0xe
 2821 0f42 C0060000 		.4byte	0x6c0
 2822 0f46 0E       		.uleb128 0xe
 2823 0f47 14010000 		.4byte	0x114
 2824 0f4b 00       		.byte	0
ARM GAS  /tmp/ccXATerv.s 			page 51


 2825 0f4c 2F       		.uleb128 0x2f
 2826 0f4d 01       		.byte	0x1
 2827 0f4e A0030000 		.4byte	.LASF155
 2828 0f52 0D       		.byte	0xd
 2829 0f53 53       		.byte	0x53
 2830 0f54 01       		.byte	0x1
 2831 0f55 01       		.byte	0x1
 2832 0f56 600F0000 		.4byte	0xf60
 2833 0f5a 0E       		.uleb128 0xe
 2834 0f5b B2020000 		.4byte	0x2b2
 2835 0f5f 00       		.byte	0
 2836 0f60 2F       		.uleb128 0x2f
 2837 0f61 01       		.byte	0x1
 2838 0f62 7F050000 		.4byte	.LASF156
 2839 0f66 09       		.byte	0x9
 2840 0f67 35       		.byte	0x35
 2841 0f68 01       		.byte	0x1
 2842 0f69 01       		.byte	0x1
 2843 0f6a 740F0000 		.4byte	0xf74
 2844 0f6e 0E       		.uleb128 0xe
 2845 0f6f C0060000 		.4byte	0x6c0
 2846 0f73 00       		.byte	0
 2847 0f74 2E       		.uleb128 0x2e
 2848 0f75 01       		.byte	0x1
 2849 0f76 FC010000 		.4byte	.LASF158
 2850 0f7a 09       		.byte	0x9
 2851 0f7b 34       		.byte	0x34
 2852 0f7c 01       		.byte	0x1
 2853 0f7d F3000000 		.4byte	0xf3
 2854 0f81 01       		.byte	0x1
 2855 0f82 910F0000 		.4byte	0xf91
 2856 0f86 0E       		.uleb128 0xe
 2857 0f87 C0060000 		.4byte	0x6c0
 2858 0f8b 0E       		.uleb128 0xe
 2859 0f8c 09010000 		.4byte	0x109
 2860 0f90 00       		.byte	0
 2861 0f91 2F       		.uleb128 0x2f
 2862 0f92 01       		.byte	0x1
 2863 0f93 76050000 		.4byte	.LASF159
 2864 0f97 0B       		.byte	0xb
 2865 0f98 3C       		.byte	0x3c
 2866 0f99 01       		.byte	0x1
 2867 0f9a 01       		.byte	0x1
 2868 0f9b AF0F0000 		.4byte	0xfaf
 2869 0f9f 0E       		.uleb128 0xe
 2870 0fa0 D1060000 		.4byte	0x6d1
 2871 0fa4 0E       		.uleb128 0xe
 2872 0fa5 22050000 		.4byte	0x522
 2873 0fa9 0E       		.uleb128 0xe
 2874 0faa 14010000 		.4byte	0x114
 2875 0fae 00       		.byte	0
 2876 0faf 2F       		.uleb128 0x2f
 2877 0fb0 01       		.byte	0x1
 2878 0fb1 12010000 		.4byte	.LASF160
 2879 0fb5 0B       		.byte	0xb
 2880 0fb6 3D       		.byte	0x3d
 2881 0fb7 01       		.byte	0x1
ARM GAS  /tmp/ccXATerv.s 			page 52


 2882 0fb8 01       		.byte	0x1
 2883 0fb9 C30F0000 		.4byte	0xfc3
 2884 0fbd 0E       		.uleb128 0xe
 2885 0fbe D1060000 		.4byte	0x6d1
 2886 0fc2 00       		.byte	0
 2887 0fc3 2E       		.uleb128 0x2e
 2888 0fc4 01       		.byte	0x1
 2889 0fc5 2B060000 		.4byte	.LASF161
 2890 0fc9 0B       		.byte	0xb
 2891 0fca 3E       		.byte	0x3e
 2892 0fcb 01       		.byte	0x1
 2893 0fcc F3000000 		.4byte	0xf3
 2894 0fd0 01       		.byte	0x1
 2895 0fd1 E50F0000 		.4byte	0xfe5
 2896 0fd5 0E       		.uleb128 0xe
 2897 0fd6 D1060000 		.4byte	0x6d1
 2898 0fda 0E       		.uleb128 0xe
 2899 0fdb F3000000 		.4byte	0xf3
 2900 0fdf 0E       		.uleb128 0xe
 2901 0fe0 09010000 		.4byte	0x109
 2902 0fe4 00       		.byte	0
 2903 0fe5 2E       		.uleb128 0x2e
 2904 0fe6 01       		.byte	0x1
 2905 0fe7 74040000 		.4byte	.LASF162
 2906 0feb 0B       		.byte	0xb
 2907 0fec 45       		.byte	0x45
 2908 0fed 01       		.byte	0x1
 2909 0fee F3000000 		.4byte	0xf3
 2910 0ff2 01       		.byte	0x1
 2911 0ff3 07100000 		.4byte	0x1007
 2912 0ff7 0E       		.uleb128 0xe
 2913 0ff8 D1060000 		.4byte	0x6d1
 2914 0ffc 0E       		.uleb128 0xe
 2915 0ffd 22050000 		.4byte	0x522
 2916 1001 0E       		.uleb128 0xe
 2917 1002 09010000 		.4byte	0x109
 2918 1006 00       		.byte	0
 2919 1007 2E       		.uleb128 0x2e
 2920 1008 01       		.byte	0x1
 2921 1009 90040000 		.4byte	.LASF163
 2922 100d 0B       		.byte	0xb
 2923 100e 44       		.byte	0x44
 2924 100f 01       		.byte	0x1
 2925 1010 F3000000 		.4byte	0xf3
 2926 1014 01       		.byte	0x1
 2927 1015 29100000 		.4byte	0x1029
 2928 1019 0E       		.uleb128 0xe
 2929 101a D1060000 		.4byte	0x6d1
 2930 101e 0E       		.uleb128 0xe
 2931 101f 22050000 		.4byte	0x522
 2932 1023 0E       		.uleb128 0xe
 2933 1024 09010000 		.4byte	0x109
 2934 1028 00       		.byte	0
 2935 1029 2E       		.uleb128 0x2e
 2936 102a 01       		.byte	0x1
 2937 102b 1A030000 		.4byte	.LASF164
 2938 102f 0C       		.byte	0xc
ARM GAS  /tmp/ccXATerv.s 			page 53


 2939 1030 4B       		.byte	0x4b
 2940 1031 01       		.byte	0x1
 2941 1032 B2020000 		.4byte	0x2b2
 2942 1036 01       		.byte	0x1
 2943 1037 41100000 		.4byte	0x1041
 2944 103b 0E       		.uleb128 0xe
 2945 103c 30000000 		.4byte	0x30
 2946 1040 00       		.byte	0
 2947 1041 30       		.uleb128 0x30
 2948 1042 01       		.byte	0x1
 2949 1043 54040000 		.4byte	.LASF165
 2950 1047 06       		.byte	0x6
 2951 1048 6901     		.2byte	0x169
 2952 104a 01       		.byte	0x1
 2953 104b 74020000 		.4byte	0x274
 2954 104f 01       		.byte	0x1
 2955 1050 0E       		.uleb128 0xe
 2956 1051 B2020000 		.4byte	0x2b2
 2957 1055 0E       		.uleb128 0xe
 2958 1056 30000000 		.4byte	0x30
 2959 105a 0E       		.uleb128 0xe
 2960 105b E8000000 		.4byte	0xe8
 2961 105f 0E       		.uleb128 0xe
 2962 1060 52060000 		.4byte	0x652
 2963 1064 0E       		.uleb128 0xe
 2964 1065 B2020000 		.4byte	0x2b2
 2965 1069 00       		.byte	0
 2966 106a 00       		.byte	0
 2967              		.section	.debug_abbrev,"",%progbits
 2968              	.Ldebug_abbrev0:
 2969 0000 01       		.uleb128 0x1
 2970 0001 11       		.uleb128 0x11
 2971 0002 01       		.byte	0x1
 2972 0003 25       		.uleb128 0x25
 2973 0004 0E       		.uleb128 0xe
 2974 0005 13       		.uleb128 0x13
 2975 0006 0B       		.uleb128 0xb
 2976 0007 03       		.uleb128 0x3
 2977 0008 0E       		.uleb128 0xe
 2978 0009 1B       		.uleb128 0x1b
 2979 000a 0E       		.uleb128 0xe
 2980 000b 55       		.uleb128 0x55
 2981 000c 06       		.uleb128 0x6
 2982 000d 11       		.uleb128 0x11
 2983 000e 01       		.uleb128 0x1
 2984 000f 52       		.uleb128 0x52
 2985 0010 01       		.uleb128 0x1
 2986 0011 10       		.uleb128 0x10
 2987 0012 06       		.uleb128 0x6
 2988 0013 00       		.byte	0
 2989 0014 00       		.byte	0
 2990 0015 02       		.uleb128 0x2
 2991 0016 24       		.uleb128 0x24
 2992 0017 00       		.byte	0
 2993 0018 0B       		.uleb128 0xb
 2994 0019 0B       		.uleb128 0xb
 2995 001a 3E       		.uleb128 0x3e
ARM GAS  /tmp/ccXATerv.s 			page 54


 2996 001b 0B       		.uleb128 0xb
 2997 001c 03       		.uleb128 0x3
 2998 001d 08       		.uleb128 0x8
 2999 001e 00       		.byte	0
 3000 001f 00       		.byte	0
 3001 0020 03       		.uleb128 0x3
 3002 0021 16       		.uleb128 0x16
 3003 0022 00       		.byte	0
 3004 0023 03       		.uleb128 0x3
 3005 0024 0E       		.uleb128 0xe
 3006 0025 3A       		.uleb128 0x3a
 3007 0026 0B       		.uleb128 0xb
 3008 0027 3B       		.uleb128 0x3b
 3009 0028 0B       		.uleb128 0xb
 3010 0029 49       		.uleb128 0x49
 3011 002a 13       		.uleb128 0x13
 3012 002b 00       		.byte	0
 3013 002c 00       		.byte	0
 3014 002d 04       		.uleb128 0x4
 3015 002e 24       		.uleb128 0x24
 3016 002f 00       		.byte	0
 3017 0030 0B       		.uleb128 0xb
 3018 0031 0B       		.uleb128 0xb
 3019 0032 3E       		.uleb128 0x3e
 3020 0033 0B       		.uleb128 0xb
 3021 0034 03       		.uleb128 0x3
 3022 0035 0E       		.uleb128 0xe
 3023 0036 00       		.byte	0
 3024 0037 00       		.byte	0
 3025 0038 05       		.uleb128 0x5
 3026 0039 13       		.uleb128 0x13
 3027 003a 01       		.byte	0x1
 3028 003b 03       		.uleb128 0x3
 3029 003c 0E       		.uleb128 0xe
 3030 003d 0B       		.uleb128 0xb
 3031 003e 0B       		.uleb128 0xb
 3032 003f 3A       		.uleb128 0x3a
 3033 0040 0B       		.uleb128 0xb
 3034 0041 3B       		.uleb128 0x3b
 3035 0042 0B       		.uleb128 0xb
 3036 0043 01       		.uleb128 0x1
 3037 0044 13       		.uleb128 0x13
 3038 0045 00       		.byte	0
 3039 0046 00       		.byte	0
 3040 0047 06       		.uleb128 0x6
 3041 0048 0D       		.uleb128 0xd
 3042 0049 00       		.byte	0
 3043 004a 03       		.uleb128 0x3
 3044 004b 0E       		.uleb128 0xe
 3045 004c 3A       		.uleb128 0x3a
 3046 004d 0B       		.uleb128 0xb
 3047 004e 3B       		.uleb128 0x3b
 3048 004f 0B       		.uleb128 0xb
 3049 0050 49       		.uleb128 0x49
 3050 0051 13       		.uleb128 0x13
 3051 0052 38       		.uleb128 0x38
 3052 0053 0A       		.uleb128 0xa
ARM GAS  /tmp/ccXATerv.s 			page 55


 3053 0054 00       		.byte	0
 3054 0055 00       		.byte	0
 3055 0056 07       		.uleb128 0x7
 3056 0057 0D       		.uleb128 0xd
 3057 0058 00       		.byte	0
 3058 0059 03       		.uleb128 0x3
 3059 005a 08       		.uleb128 0x8
 3060 005b 3A       		.uleb128 0x3a
 3061 005c 0B       		.uleb128 0xb
 3062 005d 3B       		.uleb128 0x3b
 3063 005e 0B       		.uleb128 0xb
 3064 005f 49       		.uleb128 0x49
 3065 0060 13       		.uleb128 0x13
 3066 0061 38       		.uleb128 0x38
 3067 0062 0A       		.uleb128 0xa
 3068 0063 00       		.byte	0
 3069 0064 00       		.byte	0
 3070 0065 08       		.uleb128 0x8
 3071 0066 13       		.uleb128 0x13
 3072 0067 01       		.byte	0x1
 3073 0068 0B       		.uleb128 0xb
 3074 0069 0B       		.uleb128 0xb
 3075 006a 3A       		.uleb128 0x3a
 3076 006b 0B       		.uleb128 0xb
 3077 006c 3B       		.uleb128 0x3b
 3078 006d 0B       		.uleb128 0xb
 3079 006e 01       		.uleb128 0x1
 3080 006f 13       		.uleb128 0x13
 3081 0070 00       		.byte	0
 3082 0071 00       		.byte	0
 3083 0072 09       		.uleb128 0x9
 3084 0073 0F       		.uleb128 0xf
 3085 0074 00       		.byte	0
 3086 0075 0B       		.uleb128 0xb
 3087 0076 0B       		.uleb128 0xb
 3088 0077 49       		.uleb128 0x49
 3089 0078 13       		.uleb128 0x13
 3090 0079 00       		.byte	0
 3091 007a 00       		.byte	0
 3092 007b 0A       		.uleb128 0xa
 3093 007c 0F       		.uleb128 0xf
 3094 007d 00       		.byte	0
 3095 007e 0B       		.uleb128 0xb
 3096 007f 0B       		.uleb128 0xb
 3097 0080 00       		.byte	0
 3098 0081 00       		.byte	0
 3099 0082 0B       		.uleb128 0xb
 3100 0083 13       		.uleb128 0x13
 3101 0084 01       		.byte	0x1
 3102 0085 03       		.uleb128 0x3
 3103 0086 0E       		.uleb128 0xe
 3104 0087 0B       		.uleb128 0xb
 3105 0088 0B       		.uleb128 0xb
 3106 0089 3A       		.uleb128 0x3a
 3107 008a 0B       		.uleb128 0xb
 3108 008b 3B       		.uleb128 0x3b
 3109 008c 05       		.uleb128 0x5
ARM GAS  /tmp/ccXATerv.s 			page 56


 3110 008d 01       		.uleb128 0x1
 3111 008e 13       		.uleb128 0x13
 3112 008f 00       		.byte	0
 3113 0090 00       		.byte	0
 3114 0091 0C       		.uleb128 0xc
 3115 0092 0D       		.uleb128 0xd
 3116 0093 00       		.byte	0
 3117 0094 03       		.uleb128 0x3
 3118 0095 08       		.uleb128 0x8
 3119 0096 3A       		.uleb128 0x3a
 3120 0097 0B       		.uleb128 0xb
 3121 0098 3B       		.uleb128 0x3b
 3122 0099 05       		.uleb128 0x5
 3123 009a 49       		.uleb128 0x49
 3124 009b 13       		.uleb128 0x13
 3125 009c 38       		.uleb128 0x38
 3126 009d 0A       		.uleb128 0xa
 3127 009e 00       		.byte	0
 3128 009f 00       		.byte	0
 3129 00a0 0D       		.uleb128 0xd
 3130 00a1 15       		.uleb128 0x15
 3131 00a2 01       		.byte	0x1
 3132 00a3 27       		.uleb128 0x27
 3133 00a4 0C       		.uleb128 0xc
 3134 00a5 01       		.uleb128 0x1
 3135 00a6 13       		.uleb128 0x13
 3136 00a7 00       		.byte	0
 3137 00a8 00       		.byte	0
 3138 00a9 0E       		.uleb128 0xe
 3139 00aa 05       		.uleb128 0x5
 3140 00ab 00       		.byte	0
 3141 00ac 49       		.uleb128 0x49
 3142 00ad 13       		.uleb128 0x13
 3143 00ae 00       		.byte	0
 3144 00af 00       		.byte	0
 3145 00b0 0F       		.uleb128 0xf
 3146 00b1 35       		.uleb128 0x35
 3147 00b2 00       		.byte	0
 3148 00b3 49       		.uleb128 0x49
 3149 00b4 13       		.uleb128 0x13
 3150 00b5 00       		.byte	0
 3151 00b6 00       		.byte	0
 3152 00b7 10       		.uleb128 0x10
 3153 00b8 15       		.uleb128 0x15
 3154 00b9 01       		.byte	0x1
 3155 00ba 27       		.uleb128 0x27
 3156 00bb 0C       		.uleb128 0xc
 3157 00bc 49       		.uleb128 0x49
 3158 00bd 13       		.uleb128 0x13
 3159 00be 01       		.uleb128 0x1
 3160 00bf 13       		.uleb128 0x13
 3161 00c0 00       		.byte	0
 3162 00c1 00       		.byte	0
 3163 00c2 11       		.uleb128 0x11
 3164 00c3 17       		.uleb128 0x17
 3165 00c4 01       		.byte	0x1
 3166 00c5 0B       		.uleb128 0xb
ARM GAS  /tmp/ccXATerv.s 			page 57


 3167 00c6 0B       		.uleb128 0xb
 3168 00c7 3A       		.uleb128 0x3a
 3169 00c8 0B       		.uleb128 0xb
 3170 00c9 3B       		.uleb128 0x3b
 3171 00ca 0B       		.uleb128 0xb
 3172 00cb 01       		.uleb128 0x1
 3173 00cc 13       		.uleb128 0x13
 3174 00cd 00       		.byte	0
 3175 00ce 00       		.byte	0
 3176 00cf 12       		.uleb128 0x12
 3177 00d0 0D       		.uleb128 0xd
 3178 00d1 00       		.byte	0
 3179 00d2 03       		.uleb128 0x3
 3180 00d3 0E       		.uleb128 0xe
 3181 00d4 3A       		.uleb128 0x3a
 3182 00d5 0B       		.uleb128 0xb
 3183 00d6 3B       		.uleb128 0x3b
 3184 00d7 0B       		.uleb128 0xb
 3185 00d8 49       		.uleb128 0x49
 3186 00d9 13       		.uleb128 0x13
 3187 00da 00       		.byte	0
 3188 00db 00       		.byte	0
 3189 00dc 13       		.uleb128 0x13
 3190 00dd 17       		.uleb128 0x17
 3191 00de 01       		.byte	0x1
 3192 00df 03       		.uleb128 0x3
 3193 00e0 0E       		.uleb128 0xe
 3194 00e1 0B       		.uleb128 0xb
 3195 00e2 0B       		.uleb128 0xb
 3196 00e3 3A       		.uleb128 0x3a
 3197 00e4 0B       		.uleb128 0xb
 3198 00e5 3B       		.uleb128 0x3b
 3199 00e6 0B       		.uleb128 0xb
 3200 00e7 01       		.uleb128 0x1
 3201 00e8 13       		.uleb128 0x13
 3202 00e9 00       		.byte	0
 3203 00ea 00       		.byte	0
 3204 00eb 14       		.uleb128 0x14
 3205 00ec 0D       		.uleb128 0xd
 3206 00ed 00       		.byte	0
 3207 00ee 03       		.uleb128 0x3
 3208 00ef 08       		.uleb128 0x8
 3209 00f0 3A       		.uleb128 0x3a
 3210 00f1 0B       		.uleb128 0xb
 3211 00f2 3B       		.uleb128 0x3b
 3212 00f3 0B       		.uleb128 0xb
 3213 00f4 49       		.uleb128 0x49
 3214 00f5 13       		.uleb128 0x13
 3215 00f6 00       		.byte	0
 3216 00f7 00       		.byte	0
 3217 00f8 15       		.uleb128 0x15
 3218 00f9 26       		.uleb128 0x26
 3219 00fa 00       		.byte	0
 3220 00fb 49       		.uleb128 0x49
 3221 00fc 13       		.uleb128 0x13
 3222 00fd 00       		.byte	0
 3223 00fe 00       		.byte	0
ARM GAS  /tmp/ccXATerv.s 			page 58


 3224 00ff 16       		.uleb128 0x16
 3225 0100 13       		.uleb128 0x13
 3226 0101 01       		.byte	0x1
 3227 0102 03       		.uleb128 0x3
 3228 0103 0E       		.uleb128 0xe
 3229 0104 0B       		.uleb128 0xb
 3230 0105 05       		.uleb128 0x5
 3231 0106 3A       		.uleb128 0x3a
 3232 0107 0B       		.uleb128 0xb
 3233 0108 3B       		.uleb128 0x3b
 3234 0109 0B       		.uleb128 0xb
 3235 010a 01       		.uleb128 0x1
 3236 010b 13       		.uleb128 0x13
 3237 010c 00       		.byte	0
 3238 010d 00       		.byte	0
 3239 010e 17       		.uleb128 0x17
 3240 010f 01       		.uleb128 0x1
 3241 0110 01       		.byte	0x1
 3242 0111 49       		.uleb128 0x49
 3243 0112 13       		.uleb128 0x13
 3244 0113 01       		.uleb128 0x1
 3245 0114 13       		.uleb128 0x13
 3246 0115 00       		.byte	0
 3247 0116 00       		.byte	0
 3248 0117 18       		.uleb128 0x18
 3249 0118 21       		.uleb128 0x21
 3250 0119 00       		.byte	0
 3251 011a 49       		.uleb128 0x49
 3252 011b 13       		.uleb128 0x13
 3253 011c 2F       		.uleb128 0x2f
 3254 011d 0B       		.uleb128 0xb
 3255 011e 00       		.byte	0
 3256 011f 00       		.byte	0
 3257 0120 19       		.uleb128 0x19
 3258 0121 2E       		.uleb128 0x2e
 3259 0122 00       		.byte	0
 3260 0123 3F       		.uleb128 0x3f
 3261 0124 0C       		.uleb128 0xc
 3262 0125 03       		.uleb128 0x3
 3263 0126 0E       		.uleb128 0xe
 3264 0127 3A       		.uleb128 0x3a
 3265 0128 0B       		.uleb128 0xb
 3266 0129 3B       		.uleb128 0x3b
 3267 012a 0B       		.uleb128 0xb
 3268 012b 27       		.uleb128 0x27
 3269 012c 0C       		.uleb128 0xc
 3270 012d 11       		.uleb128 0x11
 3271 012e 01       		.uleb128 0x1
 3272 012f 12       		.uleb128 0x12
 3273 0130 01       		.uleb128 0x1
 3274 0131 40       		.uleb128 0x40
 3275 0132 0A       		.uleb128 0xa
 3276 0133 9742     		.uleb128 0x2117
 3277 0135 0C       		.uleb128 0xc
 3278 0136 00       		.byte	0
 3279 0137 00       		.byte	0
 3280 0138 1A       		.uleb128 0x1a
ARM GAS  /tmp/ccXATerv.s 			page 59


 3281 0139 2E       		.uleb128 0x2e
 3282 013a 01       		.byte	0x1
 3283 013b 3F       		.uleb128 0x3f
 3284 013c 0C       		.uleb128 0xc
 3285 013d 03       		.uleb128 0x3
 3286 013e 0E       		.uleb128 0xe
 3287 013f 3A       		.uleb128 0x3a
 3288 0140 0B       		.uleb128 0xb
 3289 0141 3B       		.uleb128 0x3b
 3290 0142 0B       		.uleb128 0xb
 3291 0143 27       		.uleb128 0x27
 3292 0144 0C       		.uleb128 0xc
 3293 0145 49       		.uleb128 0x49
 3294 0146 13       		.uleb128 0x13
 3295 0147 11       		.uleb128 0x11
 3296 0148 01       		.uleb128 0x1
 3297 0149 12       		.uleb128 0x12
 3298 014a 01       		.uleb128 0x1
 3299 014b 40       		.uleb128 0x40
 3300 014c 06       		.uleb128 0x6
 3301 014d 9742     		.uleb128 0x2117
 3302 014f 0C       		.uleb128 0xc
 3303 0150 01       		.uleb128 0x1
 3304 0151 13       		.uleb128 0x13
 3305 0152 00       		.byte	0
 3306 0153 00       		.byte	0
 3307 0154 1B       		.uleb128 0x1b
 3308 0155 05       		.uleb128 0x5
 3309 0156 00       		.byte	0
 3310 0157 03       		.uleb128 0x3
 3311 0158 08       		.uleb128 0x8
 3312 0159 3A       		.uleb128 0x3a
 3313 015a 0B       		.uleb128 0xb
 3314 015b 3B       		.uleb128 0x3b
 3315 015c 0B       		.uleb128 0xb
 3316 015d 49       		.uleb128 0x49
 3317 015e 13       		.uleb128 0x13
 3318 015f 02       		.uleb128 0x2
 3319 0160 06       		.uleb128 0x6
 3320 0161 00       		.byte	0
 3321 0162 00       		.byte	0
 3322 0163 1C       		.uleb128 0x1c
 3323 0164 05       		.uleb128 0x5
 3324 0165 00       		.byte	0
 3325 0166 03       		.uleb128 0x3
 3326 0167 0E       		.uleb128 0xe
 3327 0168 3A       		.uleb128 0x3a
 3328 0169 0B       		.uleb128 0xb
 3329 016a 3B       		.uleb128 0x3b
 3330 016b 0B       		.uleb128 0xb
 3331 016c 49       		.uleb128 0x49
 3332 016d 13       		.uleb128 0x13
 3333 016e 02       		.uleb128 0x2
 3334 016f 06       		.uleb128 0x6
 3335 0170 00       		.byte	0
 3336 0171 00       		.byte	0
 3337 0172 1D       		.uleb128 0x1d
ARM GAS  /tmp/ccXATerv.s 			page 60


 3338 0173 898201   		.uleb128 0x4109
 3339 0176 01       		.byte	0x1
 3340 0177 11       		.uleb128 0x11
 3341 0178 01       		.uleb128 0x1
 3342 0179 31       		.uleb128 0x31
 3343 017a 13       		.uleb128 0x13
 3344 017b 01       		.uleb128 0x1
 3345 017c 13       		.uleb128 0x13
 3346 017d 00       		.byte	0
 3347 017e 00       		.byte	0
 3348 017f 1E       		.uleb128 0x1e
 3349 0180 8A8201   		.uleb128 0x410a
 3350 0183 00       		.byte	0
 3351 0184 02       		.uleb128 0x2
 3352 0185 0A       		.uleb128 0xa
 3353 0186 9142     		.uleb128 0x2111
 3354 0188 0A       		.uleb128 0xa
 3355 0189 00       		.byte	0
 3356 018a 00       		.byte	0
 3357 018b 1F       		.uleb128 0x1f
 3358 018c 898201   		.uleb128 0x4109
 3359 018f 01       		.byte	0x1
 3360 0190 11       		.uleb128 0x11
 3361 0191 01       		.uleb128 0x1
 3362 0192 31       		.uleb128 0x31
 3363 0193 13       		.uleb128 0x13
 3364 0194 00       		.byte	0
 3365 0195 00       		.byte	0
 3366 0196 20       		.uleb128 0x20
 3367 0197 2E       		.uleb128 0x2e
 3368 0198 01       		.byte	0x1
 3369 0199 3F       		.uleb128 0x3f
 3370 019a 0C       		.uleb128 0xc
 3371 019b 03       		.uleb128 0x3
 3372 019c 0E       		.uleb128 0xe
 3373 019d 3A       		.uleb128 0x3a
 3374 019e 0B       		.uleb128 0xb
 3375 019f 3B       		.uleb128 0x3b
 3376 01a0 0B       		.uleb128 0xb
 3377 01a1 27       		.uleb128 0x27
 3378 01a2 0C       		.uleb128 0xc
 3379 01a3 11       		.uleb128 0x11
 3380 01a4 01       		.uleb128 0x1
 3381 01a5 12       		.uleb128 0x12
 3382 01a6 01       		.uleb128 0x1
 3383 01a7 40       		.uleb128 0x40
 3384 01a8 06       		.uleb128 0x6
 3385 01a9 9742     		.uleb128 0x2117
 3386 01ab 0C       		.uleb128 0xc
 3387 01ac 01       		.uleb128 0x1
 3388 01ad 13       		.uleb128 0x13
 3389 01ae 00       		.byte	0
 3390 01af 00       		.byte	0
 3391 01b0 21       		.uleb128 0x21
 3392 01b1 898201   		.uleb128 0x4109
 3393 01b4 00       		.byte	0
 3394 01b5 11       		.uleb128 0x11
ARM GAS  /tmp/ccXATerv.s 			page 61


 3395 01b6 01       		.uleb128 0x1
 3396 01b7 31       		.uleb128 0x31
 3397 01b8 13       		.uleb128 0x13
 3398 01b9 00       		.byte	0
 3399 01ba 00       		.byte	0
 3400 01bb 22       		.uleb128 0x22
 3401 01bc 2E       		.uleb128 0x2e
 3402 01bd 01       		.byte	0x1
 3403 01be 3F       		.uleb128 0x3f
 3404 01bf 0C       		.uleb128 0xc
 3405 01c0 03       		.uleb128 0x3
 3406 01c1 0E       		.uleb128 0xe
 3407 01c2 3A       		.uleb128 0x3a
 3408 01c3 0B       		.uleb128 0xb
 3409 01c4 3B       		.uleb128 0x3b
 3410 01c5 0B       		.uleb128 0xb
 3411 01c6 27       		.uleb128 0x27
 3412 01c7 0C       		.uleb128 0xc
 3413 01c8 11       		.uleb128 0x11
 3414 01c9 01       		.uleb128 0x1
 3415 01ca 12       		.uleb128 0x12
 3416 01cb 01       		.uleb128 0x1
 3417 01cc 40       		.uleb128 0x40
 3418 01cd 0A       		.uleb128 0xa
 3419 01ce 9742     		.uleb128 0x2117
 3420 01d0 0C       		.uleb128 0xc
 3421 01d1 01       		.uleb128 0x1
 3422 01d2 13       		.uleb128 0x13
 3423 01d3 00       		.byte	0
 3424 01d4 00       		.byte	0
 3425 01d5 23       		.uleb128 0x23
 3426 01d6 898201   		.uleb128 0x4109
 3427 01d9 00       		.byte	0
 3428 01da 11       		.uleb128 0x11
 3429 01db 01       		.uleb128 0x1
 3430 01dc 9542     		.uleb128 0x2115
 3431 01de 0C       		.uleb128 0xc
 3432 01df 31       		.uleb128 0x31
 3433 01e0 13       		.uleb128 0x13
 3434 01e1 00       		.byte	0
 3435 01e2 00       		.byte	0
 3436 01e3 24       		.uleb128 0x24
 3437 01e4 34       		.uleb128 0x34
 3438 01e5 00       		.byte	0
 3439 01e6 03       		.uleb128 0x3
 3440 01e7 0E       		.uleb128 0xe
 3441 01e8 3A       		.uleb128 0x3a
 3442 01e9 0B       		.uleb128 0xb
 3443 01ea 3B       		.uleb128 0x3b
 3444 01eb 0B       		.uleb128 0xb
 3445 01ec 49       		.uleb128 0x49
 3446 01ed 13       		.uleb128 0x13
 3447 01ee 02       		.uleb128 0x2
 3448 01ef 06       		.uleb128 0x6
 3449 01f0 00       		.byte	0
 3450 01f1 00       		.byte	0
 3451 01f2 25       		.uleb128 0x25
ARM GAS  /tmp/ccXATerv.s 			page 62


 3452 01f3 34       		.uleb128 0x34
 3453 01f4 00       		.byte	0
 3454 01f5 03       		.uleb128 0x3
 3455 01f6 08       		.uleb128 0x8
 3456 01f7 3A       		.uleb128 0x3a
 3457 01f8 0B       		.uleb128 0xb
 3458 01f9 3B       		.uleb128 0x3b
 3459 01fa 0B       		.uleb128 0xb
 3460 01fb 49       		.uleb128 0x49
 3461 01fc 13       		.uleb128 0x13
 3462 01fd 02       		.uleb128 0x2
 3463 01fe 06       		.uleb128 0x6
 3464 01ff 00       		.byte	0
 3465 0200 00       		.byte	0
 3466 0201 26       		.uleb128 0x26
 3467 0202 0B       		.uleb128 0xb
 3468 0203 01       		.byte	0x1
 3469 0204 11       		.uleb128 0x11
 3470 0205 01       		.uleb128 0x1
 3471 0206 12       		.uleb128 0x12
 3472 0207 01       		.uleb128 0x1
 3473 0208 01       		.uleb128 0x1
 3474 0209 13       		.uleb128 0x13
 3475 020a 00       		.byte	0
 3476 020b 00       		.byte	0
 3477 020c 27       		.uleb128 0x27
 3478 020d 2E       		.uleb128 0x2e
 3479 020e 01       		.byte	0x1
 3480 020f 3F       		.uleb128 0x3f
 3481 0210 0C       		.uleb128 0xc
 3482 0211 03       		.uleb128 0x3
 3483 0212 0E       		.uleb128 0xe
 3484 0213 3A       		.uleb128 0x3a
 3485 0214 0B       		.uleb128 0xb
 3486 0215 3B       		.uleb128 0x3b
 3487 0216 0B       		.uleb128 0xb
 3488 0217 27       		.uleb128 0x27
 3489 0218 0C       		.uleb128 0xc
 3490 0219 49       		.uleb128 0x49
 3491 021a 13       		.uleb128 0x13
 3492 021b 11       		.uleb128 0x11
 3493 021c 01       		.uleb128 0x1
 3494 021d 12       		.uleb128 0x12
 3495 021e 01       		.uleb128 0x1
 3496 021f 40       		.uleb128 0x40
 3497 0220 0A       		.uleb128 0xa
 3498 0221 9742     		.uleb128 0x2117
 3499 0223 0C       		.uleb128 0xc
 3500 0224 01       		.uleb128 0x1
 3501 0225 13       		.uleb128 0x13
 3502 0226 00       		.byte	0
 3503 0227 00       		.byte	0
 3504 0228 28       		.uleb128 0x28
 3505 0229 05       		.uleb128 0x5
 3506 022a 00       		.byte	0
 3507 022b 03       		.uleb128 0x3
 3508 022c 08       		.uleb128 0x8
ARM GAS  /tmp/ccXATerv.s 			page 63


 3509 022d 3A       		.uleb128 0x3a
 3510 022e 0B       		.uleb128 0xb
 3511 022f 3B       		.uleb128 0x3b
 3512 0230 0B       		.uleb128 0xb
 3513 0231 49       		.uleb128 0x49
 3514 0232 13       		.uleb128 0x13
 3515 0233 02       		.uleb128 0x2
 3516 0234 0A       		.uleb128 0xa
 3517 0235 00       		.byte	0
 3518 0236 00       		.byte	0
 3519 0237 29       		.uleb128 0x29
 3520 0238 898201   		.uleb128 0x4109
 3521 023b 01       		.byte	0x1
 3522 023c 11       		.uleb128 0x11
 3523 023d 01       		.uleb128 0x1
 3524 023e 9542     		.uleb128 0x2115
 3525 0240 0C       		.uleb128 0xc
 3526 0241 31       		.uleb128 0x31
 3527 0242 13       		.uleb128 0x13
 3528 0243 00       		.byte	0
 3529 0244 00       		.byte	0
 3530 0245 2A       		.uleb128 0x2a
 3531 0246 05       		.uleb128 0x5
 3532 0247 00       		.byte	0
 3533 0248 03       		.uleb128 0x3
 3534 0249 0E       		.uleb128 0xe
 3535 024a 3A       		.uleb128 0x3a
 3536 024b 0B       		.uleb128 0xb
 3537 024c 3B       		.uleb128 0x3b
 3538 024d 0B       		.uleb128 0xb
 3539 024e 49       		.uleb128 0x49
 3540 024f 13       		.uleb128 0x13
 3541 0250 02       		.uleb128 0x2
 3542 0251 0A       		.uleb128 0xa
 3543 0252 00       		.byte	0
 3544 0253 00       		.byte	0
 3545 0254 2B       		.uleb128 0x2b
 3546 0255 34       		.uleb128 0x34
 3547 0256 00       		.byte	0
 3548 0257 03       		.uleb128 0x3
 3549 0258 08       		.uleb128 0x8
 3550 0259 3A       		.uleb128 0x3a
 3551 025a 0B       		.uleb128 0xb
 3552 025b 3B       		.uleb128 0x3b
 3553 025c 0B       		.uleb128 0xb
 3554 025d 49       		.uleb128 0x49
 3555 025e 13       		.uleb128 0x13
 3556 025f 02       		.uleb128 0x2
 3557 0260 0A       		.uleb128 0xa
 3558 0261 00       		.byte	0
 3559 0262 00       		.byte	0
 3560 0263 2C       		.uleb128 0x2c
 3561 0264 0B       		.uleb128 0xb
 3562 0265 01       		.byte	0x1
 3563 0266 11       		.uleb128 0x11
 3564 0267 01       		.uleb128 0x1
 3565 0268 12       		.uleb128 0x12
ARM GAS  /tmp/ccXATerv.s 			page 64


 3566 0269 01       		.uleb128 0x1
 3567 026a 00       		.byte	0
 3568 026b 00       		.byte	0
 3569 026c 2D       		.uleb128 0x2d
 3570 026d 34       		.uleb128 0x34
 3571 026e 00       		.byte	0
 3572 026f 03       		.uleb128 0x3
 3573 0270 0E       		.uleb128 0xe
 3574 0271 3A       		.uleb128 0x3a
 3575 0272 0B       		.uleb128 0xb
 3576 0273 3B       		.uleb128 0x3b
 3577 0274 0B       		.uleb128 0xb
 3578 0275 49       		.uleb128 0x49
 3579 0276 13       		.uleb128 0x13
 3580 0277 3F       		.uleb128 0x3f
 3581 0278 0C       		.uleb128 0xc
 3582 0279 3C       		.uleb128 0x3c
 3583 027a 0C       		.uleb128 0xc
 3584 027b 00       		.byte	0
 3585 027c 00       		.byte	0
 3586 027d 2E       		.uleb128 0x2e
 3587 027e 2E       		.uleb128 0x2e
 3588 027f 01       		.byte	0x1
 3589 0280 3F       		.uleb128 0x3f
 3590 0281 0C       		.uleb128 0xc
 3591 0282 03       		.uleb128 0x3
 3592 0283 0E       		.uleb128 0xe
 3593 0284 3A       		.uleb128 0x3a
 3594 0285 0B       		.uleb128 0xb
 3595 0286 3B       		.uleb128 0x3b
 3596 0287 0B       		.uleb128 0xb
 3597 0288 27       		.uleb128 0x27
 3598 0289 0C       		.uleb128 0xc
 3599 028a 49       		.uleb128 0x49
 3600 028b 13       		.uleb128 0x13
 3601 028c 3C       		.uleb128 0x3c
 3602 028d 0C       		.uleb128 0xc
 3603 028e 01       		.uleb128 0x1
 3604 028f 13       		.uleb128 0x13
 3605 0290 00       		.byte	0
 3606 0291 00       		.byte	0
 3607 0292 2F       		.uleb128 0x2f
 3608 0293 2E       		.uleb128 0x2e
 3609 0294 01       		.byte	0x1
 3610 0295 3F       		.uleb128 0x3f
 3611 0296 0C       		.uleb128 0xc
 3612 0297 03       		.uleb128 0x3
 3613 0298 0E       		.uleb128 0xe
 3614 0299 3A       		.uleb128 0x3a
 3615 029a 0B       		.uleb128 0xb
 3616 029b 3B       		.uleb128 0x3b
 3617 029c 0B       		.uleb128 0xb
 3618 029d 27       		.uleb128 0x27
 3619 029e 0C       		.uleb128 0xc
 3620 029f 3C       		.uleb128 0x3c
 3621 02a0 0C       		.uleb128 0xc
 3622 02a1 01       		.uleb128 0x1
ARM GAS  /tmp/ccXATerv.s 			page 65


 3623 02a2 13       		.uleb128 0x13
 3624 02a3 00       		.byte	0
 3625 02a4 00       		.byte	0
 3626 02a5 30       		.uleb128 0x30
 3627 02a6 2E       		.uleb128 0x2e
 3628 02a7 01       		.byte	0x1
 3629 02a8 3F       		.uleb128 0x3f
 3630 02a9 0C       		.uleb128 0xc
 3631 02aa 03       		.uleb128 0x3
 3632 02ab 0E       		.uleb128 0xe
 3633 02ac 3A       		.uleb128 0x3a
 3634 02ad 0B       		.uleb128 0xb
 3635 02ae 3B       		.uleb128 0x3b
 3636 02af 05       		.uleb128 0x5
 3637 02b0 27       		.uleb128 0x27
 3638 02b1 0C       		.uleb128 0xc
 3639 02b2 49       		.uleb128 0x49
 3640 02b3 13       		.uleb128 0x13
 3641 02b4 3C       		.uleb128 0x3c
 3642 02b5 0C       		.uleb128 0xc
 3643 02b6 00       		.byte	0
 3644 02b7 00       		.byte	0
 3645 02b8 00       		.byte	0
 3646              		.section	.debug_loc,"",%progbits
 3647              	.Ldebug_loc0:
 3648              	.LLST0:
 3649 0000 00000000 		.4byte	.LFB8
 3650 0004 02000000 		.4byte	.LCFI0
 3651 0008 0200     		.2byte	0x2
 3652 000a 7D       		.byte	0x7d
 3653 000b 00       		.sleb128 0
 3654 000c 02000000 		.4byte	.LCFI0
 3655 0010 4C000000 		.4byte	.LFE8
 3656 0014 0200     		.2byte	0x2
 3657 0016 7D       		.byte	0x7d
 3658 0017 10       		.sleb128 16
 3659 0018 00000000 		.4byte	0
 3660 001c 00000000 		.4byte	0
 3661              	.LLST1:
 3662 0020 00000000 		.4byte	.LVL0
 3663 0024 08000000 		.4byte	.LVL1
 3664 0028 0100     		.2byte	0x1
 3665 002a 50       		.byte	0x50
 3666 002b 08000000 		.4byte	.LVL1
 3667 002f 4C000000 		.4byte	.LFE8
 3668 0033 0100     		.2byte	0x1
 3669 0035 54       		.byte	0x54
 3670 0036 00000000 		.4byte	0
 3671 003a 00000000 		.4byte	0
 3672              	.LLST2:
 3673 003e 00000000 		.4byte	.LVL0
 3674 0042 0A000000 		.4byte	.LVL2
 3675 0046 0100     		.2byte	0x1
 3676 0048 51       		.byte	0x51
 3677 0049 0A000000 		.4byte	.LVL2
 3678 004d 4C000000 		.4byte	.LFE8
 3679 0051 0400     		.2byte	0x4
ARM GAS  /tmp/ccXATerv.s 			page 66


 3680 0053 F3       		.byte	0xf3
 3681 0054 01       		.uleb128 0x1
 3682 0055 51       		.byte	0x51
 3683 0056 9F       		.byte	0x9f
 3684 0057 00000000 		.4byte	0
 3685 005b 00000000 		.4byte	0
 3686              	.LLST3:
 3687 005f 00000000 		.4byte	.LFB9
 3688 0063 02000000 		.4byte	.LCFI1
 3689 0067 0200     		.2byte	0x2
 3690 0069 7D       		.byte	0x7d
 3691 006a 00       		.sleb128 0
 3692 006b 02000000 		.4byte	.LCFI1
 3693 006f 22000000 		.4byte	.LFE9
 3694 0073 0200     		.2byte	0x2
 3695 0075 7D       		.byte	0x7d
 3696 0076 08       		.sleb128 8
 3697 0077 00000000 		.4byte	0
 3698 007b 00000000 		.4byte	0
 3699              	.LLST4:
 3700 007f 00000000 		.4byte	.LVL5
 3701 0083 06000000 		.4byte	.LVL6
 3702 0087 0100     		.2byte	0x1
 3703 0089 50       		.byte	0x50
 3704 008a 06000000 		.4byte	.LVL6
 3705 008e 22000000 		.4byte	.LFE9
 3706 0092 0100     		.2byte	0x1
 3707 0094 54       		.byte	0x54
 3708 0095 00000000 		.4byte	0
 3709 0099 00000000 		.4byte	0
 3710              	.LLST5:
 3711 009d 00000000 		.4byte	.LVL8
 3712 00a1 02000000 		.4byte	.LVL9
 3713 00a5 0100     		.2byte	0x1
 3714 00a7 50       		.byte	0x50
 3715 00a8 02000000 		.4byte	.LVL9
 3716 00ac 06000000 		.4byte	.LFE10
 3717 00b0 0400     		.2byte	0x4
 3718 00b2 F3       		.byte	0xf3
 3719 00b3 01       		.uleb128 0x1
 3720 00b4 50       		.byte	0x50
 3721 00b5 9F       		.byte	0x9f
 3722 00b6 00000000 		.4byte	0
 3723 00ba 00000000 		.4byte	0
 3724              	.LLST6:
 3725 00be 00000000 		.4byte	.LFB11
 3726 00c2 02000000 		.4byte	.LCFI2
 3727 00c6 0200     		.2byte	0x2
 3728 00c8 7D       		.byte	0x7d
 3729 00c9 00       		.sleb128 0
 3730 00ca 02000000 		.4byte	.LCFI2
 3731 00ce 34000000 		.4byte	.LFE11
 3732 00d2 0200     		.2byte	0x2
 3733 00d4 7D       		.byte	0x7d
 3734 00d5 10       		.sleb128 16
 3735 00d6 00000000 		.4byte	0
 3736 00da 00000000 		.4byte	0
ARM GAS  /tmp/ccXATerv.s 			page 67


 3737              	.LLST7:
 3738 00de 00000000 		.4byte	.LVL11
 3739 00e2 0C000000 		.4byte	.LVL14
 3740 00e6 0100     		.2byte	0x1
 3741 00e8 50       		.byte	0x50
 3742 00e9 0C000000 		.4byte	.LVL14
 3743 00ed 34000000 		.4byte	.LFE11
 3744 00f1 0400     		.2byte	0x4
 3745 00f3 F3       		.byte	0xf3
 3746 00f4 01       		.uleb128 0x1
 3747 00f5 50       		.byte	0x50
 3748 00f6 9F       		.byte	0x9f
 3749 00f7 00000000 		.4byte	0
 3750 00fb 00000000 		.4byte	0
 3751              	.LLST8:
 3752 00ff 00000000 		.4byte	.LVL11
 3753 0103 16000000 		.4byte	.LVL16
 3754 0107 0100     		.2byte	0x1
 3755 0109 51       		.byte	0x51
 3756 010a 16000000 		.4byte	.LVL16
 3757 010e 34000000 		.4byte	.LFE11
 3758 0112 0400     		.2byte	0x4
 3759 0114 F3       		.byte	0xf3
 3760 0115 01       		.uleb128 0x1
 3761 0116 51       		.byte	0x51
 3762 0117 9F       		.byte	0x9f
 3763 0118 00000000 		.4byte	0
 3764 011c 00000000 		.4byte	0
 3765              	.LLST9:
 3766 0120 0E000000 		.4byte	.LVL15
 3767 0124 20000000 		.4byte	.LVL18
 3768 0128 0100     		.2byte	0x1
 3769 012a 55       		.byte	0x55
 3770 012b 20000000 		.4byte	.LVL18
 3771 012f 28000000 		.4byte	.LVL21
 3772 0133 0100     		.2byte	0x1
 3773 0135 50       		.byte	0x50
 3774 0136 28000000 		.4byte	.LVL21
 3775 013a 2C000000 		.4byte	.LVL22
 3776 013e 0100     		.2byte	0x1
 3777 0140 55       		.byte	0x55
 3778 0141 2C000000 		.4byte	.LVL22
 3779 0145 34000000 		.4byte	.LFE11
 3780 0149 0100     		.2byte	0x1
 3781 014b 50       		.byte	0x50
 3782 014c 00000000 		.4byte	0
 3783 0150 00000000 		.4byte	0
 3784              	.LLST10:
 3785 0154 08000000 		.4byte	.LVL13
 3786 0158 16000000 		.4byte	.LVL16
 3787 015c 0E00     		.2byte	0xe
 3788 015e 71       		.byte	0x71
 3789 015f 00       		.sleb128 0
 3790 0160 09       		.byte	0x9
 3791 0161 FF       		.byte	0xff
 3792 0162 71       		.byte	0x71
 3793 0163 00       		.sleb128 0
ARM GAS  /tmp/ccXATerv.s 			page 68


 3794 0164 30       		.byte	0x30
 3795 0165 2E       		.byte	0x2e
 3796 0166 28       		.byte	0x28
 3797 0167 0100     		.2byte	0x1
 3798 0169 16       		.byte	0x16
 3799 016a 13       		.byte	0x13
 3800 016b 9F       		.byte	0x9f
 3801 016c 16000000 		.4byte	.LVL16
 3802 0170 19000000 		.4byte	.LVL17-1
 3803 0174 0100     		.2byte	0x1
 3804 0176 51       		.byte	0x51
 3805 0177 19000000 		.4byte	.LVL17-1
 3806 017b 34000000 		.4byte	.LFE11
 3807 017f 1000     		.2byte	0x10
 3808 0181 F3       		.byte	0xf3
 3809 0182 01       		.uleb128 0x1
 3810 0183 51       		.byte	0x51
 3811 0184 09       		.byte	0x9
 3812 0185 FF       		.byte	0xff
 3813 0186 F3       		.byte	0xf3
 3814 0187 01       		.uleb128 0x1
 3815 0188 51       		.byte	0x51
 3816 0189 30       		.byte	0x30
 3817 018a 2E       		.byte	0x2e
 3818 018b 28       		.byte	0x28
 3819 018c 0100     		.2byte	0x1
 3820 018e 16       		.byte	0x16
 3821 018f 13       		.byte	0x13
 3822 0190 9F       		.byte	0x9f
 3823 0191 00000000 		.4byte	0
 3824 0195 00000000 		.4byte	0
 3825              	.LLST11:
 3826 0199 08000000 		.4byte	.LVL13
 3827 019d 19000000 		.4byte	.LVL17-1
 3828 01a1 0100     		.2byte	0x1
 3829 01a3 53       		.byte	0x53
 3830 01a4 00000000 		.4byte	0
 3831 01a8 00000000 		.4byte	0
 3832              	.LLST12:
 3833 01ac 26000000 		.4byte	.LVL20
 3834 01b0 28000000 		.4byte	.LVL21
 3835 01b4 0100     		.2byte	0x1
 3836 01b6 53       		.byte	0x53
 3837 01b7 00000000 		.4byte	0
 3838 01bb 00000000 		.4byte	0
 3839              	.LLST13:
 3840 01bf 00000000 		.4byte	.LVL23
 3841 01c3 02000000 		.4byte	.LVL24
 3842 01c7 0100     		.2byte	0x1
 3843 01c9 50       		.byte	0x50
 3844 01ca 02000000 		.4byte	.LVL24
 3845 01ce 0A000000 		.4byte	.LFE12
 3846 01d2 0400     		.2byte	0x4
 3847 01d4 F3       		.byte	0xf3
 3848 01d5 01       		.uleb128 0x1
 3849 01d6 50       		.byte	0x50
 3850 01d7 9F       		.byte	0x9f
ARM GAS  /tmp/ccXATerv.s 			page 69


 3851 01d8 00000000 		.4byte	0
 3852 01dc 00000000 		.4byte	0
 3853              	.LLST14:
 3854 01e0 00000000 		.4byte	.LFB14
 3855 01e4 02000000 		.4byte	.LCFI3
 3856 01e8 0200     		.2byte	0x2
 3857 01ea 7D       		.byte	0x7d
 3858 01eb 00       		.sleb128 0
 3859 01ec 02000000 		.4byte	.LCFI3
 3860 01f0 48000000 		.4byte	.LFE14
 3861 01f4 0200     		.2byte	0x2
 3862 01f6 7D       		.byte	0x7d
 3863 01f7 10       		.sleb128 16
 3864 01f8 00000000 		.4byte	0
 3865 01fc 00000000 		.4byte	0
 3866              	.LLST15:
 3867 0200 00000000 		.4byte	.LVL26
 3868 0204 0E000000 		.4byte	.LVL28
 3869 0208 0100     		.2byte	0x1
 3870 020a 50       		.byte	0x50
 3871 020b 0E000000 		.4byte	.LVL28
 3872 020f 48000000 		.4byte	.LFE14
 3873 0213 0100     		.2byte	0x1
 3874 0215 55       		.byte	0x55
 3875 0216 00000000 		.4byte	0
 3876 021a 00000000 		.4byte	0
 3877              	.LLST16:
 3878 021e 00000000 		.4byte	.LVL26
 3879 0222 08000000 		.4byte	.LVL27
 3880 0226 0100     		.2byte	0x1
 3881 0228 51       		.byte	0x51
 3882 0229 08000000 		.4byte	.LVL27
 3883 022d 48000000 		.4byte	.LFE14
 3884 0231 0100     		.2byte	0x1
 3885 0233 54       		.byte	0x54
 3886 0234 00000000 		.4byte	0
 3887 0238 00000000 		.4byte	0
 3888              	.LLST17:
 3889 023c 00000000 		.4byte	.LFB15
 3890 0240 02000000 		.4byte	.LCFI4
 3891 0244 0200     		.2byte	0x2
 3892 0246 7D       		.byte	0x7d
 3893 0247 00       		.sleb128 0
 3894 0248 02000000 		.4byte	.LCFI4
 3895 024c 34000000 		.4byte	.LFE15
 3896 0250 0200     		.2byte	0x2
 3897 0252 7D       		.byte	0x7d
 3898 0253 10       		.sleb128 16
 3899 0254 00000000 		.4byte	0
 3900 0258 00000000 		.4byte	0
 3901              	.LLST18:
 3902 025c 00000000 		.4byte	.LVL31
 3903 0260 06000000 		.4byte	.LVL32
 3904 0264 0100     		.2byte	0x1
 3905 0266 50       		.byte	0x50
 3906 0267 06000000 		.4byte	.LVL32
 3907 026b 34000000 		.4byte	.LFE15
ARM GAS  /tmp/ccXATerv.s 			page 70


 3908 026f 0100     		.2byte	0x1
 3909 0271 55       		.byte	0x55
 3910 0272 00000000 		.4byte	0
 3911 0276 00000000 		.4byte	0
 3912              	.LLST19:
 3913 027a 00000000 		.4byte	.LVL35
 3914 027e 02000000 		.4byte	.LVL36
 3915 0282 0100     		.2byte	0x1
 3916 0284 50       		.byte	0x50
 3917 0285 02000000 		.4byte	.LVL36
 3918 0289 0A000000 		.4byte	.LFE16
 3919 028d 0400     		.2byte	0x4
 3920 028f F3       		.byte	0xf3
 3921 0290 01       		.uleb128 0x1
 3922 0291 50       		.byte	0x50
 3923 0292 9F       		.byte	0x9f
 3924 0293 00000000 		.4byte	0
 3925 0297 00000000 		.4byte	0
 3926              	.LLST20:
 3927 029b 00000000 		.4byte	.LVL35
 3928 029f 09000000 		.4byte	.LVL37-1
 3929 02a3 0100     		.2byte	0x1
 3930 02a5 51       		.byte	0x51
 3931 02a6 09000000 		.4byte	.LVL37-1
 3932 02aa 0A000000 		.4byte	.LFE16
 3933 02ae 0400     		.2byte	0x4
 3934 02b0 F3       		.byte	0xf3
 3935 02b1 01       		.uleb128 0x1
 3936 02b2 51       		.byte	0x51
 3937 02b3 9F       		.byte	0x9f
 3938 02b4 00000000 		.4byte	0
 3939 02b8 00000000 		.4byte	0
 3940              	.LLST21:
 3941 02bc 00000000 		.4byte	.LFB17
 3942 02c0 04000000 		.4byte	.LCFI5
 3943 02c4 0200     		.2byte	0x2
 3944 02c6 7D       		.byte	0x7d
 3945 02c7 00       		.sleb128 0
 3946 02c8 04000000 		.4byte	.LCFI5
 3947 02cc 28000000 		.4byte	.LFE17
 3948 02d0 0200     		.2byte	0x2
 3949 02d2 7D       		.byte	0x7d
 3950 02d3 08       		.sleb128 8
 3951 02d4 00000000 		.4byte	0
 3952 02d8 00000000 		.4byte	0
 3953              	.LLST22:
 3954 02dc 00000000 		.4byte	.LVL38
 3955 02e0 06000000 		.4byte	.LVL39
 3956 02e4 0100     		.2byte	0x1
 3957 02e6 50       		.byte	0x50
 3958 02e7 06000000 		.4byte	.LVL39
 3959 02eb 28000000 		.4byte	.LFE17
 3960 02ef 0400     		.2byte	0x4
 3961 02f1 F3       		.byte	0xf3
 3962 02f2 01       		.uleb128 0x1
 3963 02f3 50       		.byte	0x50
 3964 02f4 9F       		.byte	0x9f
ARM GAS  /tmp/ccXATerv.s 			page 71


 3965 02f5 00000000 		.4byte	0
 3966 02f9 00000000 		.4byte	0
 3967              	.LLST23:
 3968 02fd 00000000 		.4byte	.LVL38
 3969 0301 09000000 		.4byte	.LVL40-1
 3970 0305 0100     		.2byte	0x1
 3971 0307 51       		.byte	0x51
 3972 0308 09000000 		.4byte	.LVL40-1
 3973 030c 28000000 		.4byte	.LFE17
 3974 0310 0400     		.2byte	0x4
 3975 0312 F3       		.byte	0xf3
 3976 0313 01       		.uleb128 0x1
 3977 0314 51       		.byte	0x51
 3978 0315 9F       		.byte	0x9f
 3979 0316 00000000 		.4byte	0
 3980 031a 00000000 		.4byte	0
 3981              	.LLST24:
 3982 031e 00000000 		.4byte	.LFB18
 3983 0322 02000000 		.4byte	.LCFI6
 3984 0326 0200     		.2byte	0x2
 3985 0328 7D       		.byte	0x7d
 3986 0329 00       		.sleb128 0
 3987 032a 02000000 		.4byte	.LCFI6
 3988 032e 34000000 		.4byte	.LFE18
 3989 0332 0200     		.2byte	0x2
 3990 0334 7D       		.byte	0x7d
 3991 0335 10       		.sleb128 16
 3992 0336 00000000 		.4byte	0
 3993 033a 00000000 		.4byte	0
 3994              	.LLST25:
 3995 033e 00000000 		.4byte	.LVL41
 3996 0342 0C000000 		.4byte	.LVL44
 3997 0346 0100     		.2byte	0x1
 3998 0348 50       		.byte	0x50
 3999 0349 0C000000 		.4byte	.LVL44
 4000 034d 34000000 		.4byte	.LFE18
 4001 0351 0400     		.2byte	0x4
 4002 0353 F3       		.byte	0xf3
 4003 0354 01       		.uleb128 0x1
 4004 0355 50       		.byte	0x50
 4005 0356 9F       		.byte	0x9f
 4006 0357 00000000 		.4byte	0
 4007 035b 00000000 		.4byte	0
 4008              	.LLST26:
 4009 035f 00000000 		.4byte	.LVL41
 4010 0363 19000000 		.4byte	.LVL47-1
 4011 0367 0100     		.2byte	0x1
 4012 0369 51       		.byte	0x51
 4013 036a 19000000 		.4byte	.LVL47-1
 4014 036e 34000000 		.4byte	.LFE18
 4015 0372 0400     		.2byte	0x4
 4016 0374 F3       		.byte	0xf3
 4017 0375 01       		.uleb128 0x1
 4018 0376 51       		.byte	0x51
 4019 0377 9F       		.byte	0x9f
 4020 0378 00000000 		.4byte	0
 4021 037c 00000000 		.4byte	0
ARM GAS  /tmp/ccXATerv.s 			page 72


 4022              	.LLST27:
 4023 0380 00000000 		.4byte	.LVL41
 4024 0384 16000000 		.4byte	.LVL46
 4025 0388 0100     		.2byte	0x1
 4026 038a 52       		.byte	0x52
 4027 038b 16000000 		.4byte	.LVL46
 4028 038f 34000000 		.4byte	.LFE18
 4029 0393 0400     		.2byte	0x4
 4030 0395 F3       		.byte	0xf3
 4031 0396 01       		.uleb128 0x1
 4032 0397 52       		.byte	0x52
 4033 0398 9F       		.byte	0x9f
 4034 0399 00000000 		.4byte	0
 4035 039d 00000000 		.4byte	0
 4036              	.LLST28:
 4037 03a1 0E000000 		.4byte	.LVL45
 4038 03a5 20000000 		.4byte	.LVL48
 4039 03a9 0100     		.2byte	0x1
 4040 03ab 55       		.byte	0x55
 4041 03ac 20000000 		.4byte	.LVL48
 4042 03b0 28000000 		.4byte	.LVL51
 4043 03b4 0100     		.2byte	0x1
 4044 03b6 50       		.byte	0x50
 4045 03b7 28000000 		.4byte	.LVL51
 4046 03bb 2C000000 		.4byte	.LVL52
 4047 03bf 0100     		.2byte	0x1
 4048 03c1 55       		.byte	0x55
 4049 03c2 2C000000 		.4byte	.LVL52
 4050 03c6 34000000 		.4byte	.LFE18
 4051 03ca 0100     		.2byte	0x1
 4052 03cc 50       		.byte	0x50
 4053 03cd 00000000 		.4byte	0
 4054 03d1 00000000 		.4byte	0
 4055              	.LLST29:
 4056 03d5 08000000 		.4byte	.LVL43
 4057 03d9 16000000 		.4byte	.LVL46
 4058 03dd 0E00     		.2byte	0xe
 4059 03df 72       		.byte	0x72
 4060 03e0 00       		.sleb128 0
 4061 03e1 09       		.byte	0x9
 4062 03e2 FF       		.byte	0xff
 4063 03e3 72       		.byte	0x72
 4064 03e4 00       		.sleb128 0
 4065 03e5 30       		.byte	0x30
 4066 03e6 2E       		.byte	0x2e
 4067 03e7 28       		.byte	0x28
 4068 03e8 0100     		.2byte	0x1
 4069 03ea 16       		.byte	0x16
 4070 03eb 13       		.byte	0x13
 4071 03ec 9F       		.byte	0x9f
 4072 03ed 16000000 		.4byte	.LVL46
 4073 03f1 19000000 		.4byte	.LVL47-1
 4074 03f5 0100     		.2byte	0x1
 4075 03f7 52       		.byte	0x52
 4076 03f8 19000000 		.4byte	.LVL47-1
 4077 03fc 34000000 		.4byte	.LFE18
 4078 0400 1000     		.2byte	0x10
ARM GAS  /tmp/ccXATerv.s 			page 73


 4079 0402 F3       		.byte	0xf3
 4080 0403 01       		.uleb128 0x1
 4081 0404 52       		.byte	0x52
 4082 0405 09       		.byte	0x9
 4083 0406 FF       		.byte	0xff
 4084 0407 F3       		.byte	0xf3
 4085 0408 01       		.uleb128 0x1
 4086 0409 52       		.byte	0x52
 4087 040a 30       		.byte	0x30
 4088 040b 2E       		.byte	0x2e
 4089 040c 28       		.byte	0x28
 4090 040d 0100     		.2byte	0x1
 4091 040f 16       		.byte	0x16
 4092 0410 13       		.byte	0x13
 4093 0411 9F       		.byte	0x9f
 4094 0412 00000000 		.4byte	0
 4095 0416 00000000 		.4byte	0
 4096              	.LLST30:
 4097 041a 08000000 		.4byte	.LVL43
 4098 041e 19000000 		.4byte	.LVL47-1
 4099 0422 0100     		.2byte	0x1
 4100 0424 53       		.byte	0x53
 4101 0425 00000000 		.4byte	0
 4102 0429 00000000 		.4byte	0
 4103              	.LLST31:
 4104 042d 26000000 		.4byte	.LVL50
 4105 0431 28000000 		.4byte	.LVL51
 4106 0435 0100     		.2byte	0x1
 4107 0437 53       		.byte	0x53
 4108 0438 00000000 		.4byte	0
 4109 043c 00000000 		.4byte	0
 4110              	.LLST32:
 4111 0440 00000000 		.4byte	.LFB19
 4112 0444 02000000 		.4byte	.LCFI7
 4113 0448 0200     		.2byte	0x2
 4114 044a 7D       		.byte	0x7d
 4115 044b 00       		.sleb128 0
 4116 044c 02000000 		.4byte	.LCFI7
 4117 0450 18000000 		.4byte	.LFE19
 4118 0454 0200     		.2byte	0x2
 4119 0456 7D       		.byte	0x7d
 4120 0457 08       		.sleb128 8
 4121 0458 00000000 		.4byte	0
 4122 045c 00000000 		.4byte	0
 4123              	.LLST33:
 4124 0460 00000000 		.4byte	.LVL53
 4125 0464 06000000 		.4byte	.LVL54
 4126 0468 0100     		.2byte	0x1
 4127 046a 50       		.byte	0x50
 4128 046b 06000000 		.4byte	.LVL54
 4129 046f 18000000 		.4byte	.LFE19
 4130 0473 0400     		.2byte	0x4
 4131 0475 F3       		.byte	0xf3
 4132 0476 01       		.uleb128 0x1
 4133 0477 50       		.byte	0x50
 4134 0478 9F       		.byte	0x9f
 4135 0479 00000000 		.4byte	0
ARM GAS  /tmp/ccXATerv.s 			page 74


 4136 047d 00000000 		.4byte	0
 4137              	.LLST34:
 4138 0481 00000000 		.4byte	.LVL53
 4139 0485 09000000 		.4byte	.LVL55-1
 4140 0489 0100     		.2byte	0x1
 4141 048b 51       		.byte	0x51
 4142 048c 09000000 		.4byte	.LVL55-1
 4143 0490 18000000 		.4byte	.LFE19
 4144 0494 0400     		.2byte	0x4
 4145 0496 F3       		.byte	0xf3
 4146 0497 01       		.uleb128 0x1
 4147 0498 51       		.byte	0x51
 4148 0499 9F       		.byte	0x9f
 4149 049a 00000000 		.4byte	0
 4150 049e 00000000 		.4byte	0
 4151              	.LLST35:
 4152 04a2 00000000 		.4byte	.LVL56
 4153 04a6 02000000 		.4byte	.LVL57
 4154 04aa 0100     		.2byte	0x1
 4155 04ac 50       		.byte	0x50
 4156 04ad 02000000 		.4byte	.LVL57
 4157 04b1 0A000000 		.4byte	.LFE20
 4158 04b5 0400     		.2byte	0x4
 4159 04b7 F3       		.byte	0xf3
 4160 04b8 01       		.uleb128 0x1
 4161 04b9 50       		.byte	0x50
 4162 04ba 9F       		.byte	0x9f
 4163 04bb 00000000 		.4byte	0
 4164 04bf 00000000 		.4byte	0
 4165              	.LLST36:
 4166 04c3 00000000 		.4byte	.LFB22
 4167 04c7 06000000 		.4byte	.LCFI8
 4168 04cb 0200     		.2byte	0x2
 4169 04cd 7D       		.byte	0x7d
 4170 04ce 00       		.sleb128 0
 4171 04cf 06000000 		.4byte	.LCFI8
 4172 04d3 2E000000 		.4byte	.LFE22
 4173 04d7 0200     		.2byte	0x2
 4174 04d9 7D       		.byte	0x7d
 4175 04da 18       		.sleb128 24
 4176 04db 00000000 		.4byte	0
 4177 04df 00000000 		.4byte	0
 4178              	.LLST37:
 4179 04e3 00000000 		.4byte	.LVL59
 4180 04e7 0E000000 		.4byte	.LVL62
 4181 04eb 0100     		.2byte	0x1
 4182 04ed 50       		.byte	0x50
 4183 04ee 0E000000 		.4byte	.LVL62
 4184 04f2 2E000000 		.4byte	.LFE22
 4185 04f6 0400     		.2byte	0x4
 4186 04f8 F3       		.byte	0xf3
 4187 04f9 01       		.uleb128 0x1
 4188 04fa 50       		.byte	0x50
 4189 04fb 9F       		.byte	0x9f
 4190 04fc 00000000 		.4byte	0
 4191 0500 00000000 		.4byte	0
 4192              	.LLST38:
ARM GAS  /tmp/ccXATerv.s 			page 75


 4193 0504 00000000 		.4byte	.LVL59
 4194 0508 17000000 		.4byte	.LVL63-1
 4195 050c 0100     		.2byte	0x1
 4196 050e 51       		.byte	0x51
 4197 050f 17000000 		.4byte	.LVL63-1
 4198 0513 2E000000 		.4byte	.LFE22
 4199 0517 0100     		.2byte	0x1
 4200 0519 55       		.byte	0x55
 4201 051a 00000000 		.4byte	0
 4202 051e 00000000 		.4byte	0
 4203              	.LLST39:
 4204 0522 00000000 		.4byte	.LVL59
 4205 0526 17000000 		.4byte	.LVL63-1
 4206 052a 0100     		.2byte	0x1
 4207 052c 52       		.byte	0x52
 4208 052d 17000000 		.4byte	.LVL63-1
 4209 0531 2E000000 		.4byte	.LFE22
 4210 0535 0100     		.2byte	0x1
 4211 0537 57       		.byte	0x57
 4212 0538 00000000 		.4byte	0
 4213 053c 00000000 		.4byte	0
 4214              	.LLST40:
 4215 0540 00000000 		.4byte	.LVL59
 4216 0544 02000000 		.4byte	.LVL60
 4217 0548 0100     		.2byte	0x1
 4218 054a 53       		.byte	0x53
 4219 054b 02000000 		.4byte	.LVL60
 4220 054f 17000000 		.4byte	.LVL63-1
 4221 0553 0400     		.2byte	0x4
 4222 0555 73       		.byte	0x73
 4223 0556 D57E     		.sleb128 -171
 4224 0558 9F       		.byte	0x9f
 4225 0559 17000000 		.4byte	.LVL63-1
 4226 055d 2E000000 		.4byte	.LFE22
 4227 0561 0400     		.2byte	0x4
 4228 0563 F3       		.byte	0xf3
 4229 0564 01       		.uleb128 0x1
 4230 0565 53       		.byte	0x53
 4231 0566 9F       		.byte	0x9f
 4232 0567 00000000 		.4byte	0
 4233 056b 00000000 		.4byte	0
 4234              	.LLST41:
 4235 056f 18000000 		.4byte	.LVL63
 4236 0573 29000000 		.4byte	.LVL64-1
 4237 0577 0100     		.2byte	0x1
 4238 0579 50       		.byte	0x50
 4239 057a 2A000000 		.4byte	.LVL64
 4240 057e 2E000000 		.4byte	.LFE22
 4241 0582 0100     		.2byte	0x1
 4242 0584 50       		.byte	0x50
 4243 0585 00000000 		.4byte	0
 4244 0589 00000000 		.4byte	0
 4245              	.LLST42:
 4246 058d 06000000 		.4byte	.LVL66
 4247 0591 0A000000 		.4byte	.LFE23
 4248 0595 0100     		.2byte	0x1
 4249 0597 53       		.byte	0x53
ARM GAS  /tmp/ccXATerv.s 			page 76


 4250 0598 00000000 		.4byte	0
 4251 059c 00000000 		.4byte	0
 4252              	.LLST43:
 4253 05a0 06000000 		.4byte	.LVL69
 4254 05a4 08000000 		.4byte	.LFE24
 4255 05a8 0100     		.2byte	0x1
 4256 05aa 53       		.byte	0x53
 4257 05ab 00000000 		.4byte	0
 4258 05af 00000000 		.4byte	0
 4259              		.section	.debug_aranges,"",%progbits
 4260 0000 A4000000 		.4byte	0xa4
 4261 0004 0200     		.2byte	0x2
 4262 0006 00000000 		.4byte	.Ldebug_info0
 4263 000a 04       		.byte	0x4
 4264 000b 00       		.byte	0
 4265 000c 0000     		.2byte	0
 4266 000e 0000     		.2byte	0
 4267 0010 00000000 		.4byte	.LFB7
 4268 0014 02000000 		.4byte	.LFE7-.LFB7
 4269 0018 00000000 		.4byte	.LFB8
 4270 001c 4C000000 		.4byte	.LFE8-.LFB8
 4271 0020 00000000 		.4byte	.LFB9
 4272 0024 22000000 		.4byte	.LFE9-.LFB9
 4273 0028 00000000 		.4byte	.LFB10
 4274 002c 06000000 		.4byte	.LFE10-.LFB10
 4275 0030 00000000 		.4byte	.LFB11
 4276 0034 34000000 		.4byte	.LFE11-.LFB11
 4277 0038 00000000 		.4byte	.LFB12
 4278 003c 0A000000 		.4byte	.LFE12-.LFB12
 4279 0040 00000000 		.4byte	.LFB13
 4280 0044 06000000 		.4byte	.LFE13-.LFB13
 4281 0048 00000000 		.4byte	.LFB14
 4282 004c 48000000 		.4byte	.LFE14-.LFB14
 4283 0050 00000000 		.4byte	.LFB15
 4284 0054 34000000 		.4byte	.LFE15-.LFB15
 4285 0058 00000000 		.4byte	.LFB16
 4286 005c 0A000000 		.4byte	.LFE16-.LFB16
 4287 0060 00000000 		.4byte	.LFB17
 4288 0064 28000000 		.4byte	.LFE17-.LFB17
 4289 0068 00000000 		.4byte	.LFB18
 4290 006c 34000000 		.4byte	.LFE18-.LFB18
 4291 0070 00000000 		.4byte	.LFB19
 4292 0074 18000000 		.4byte	.LFE19-.LFB19
 4293 0078 00000000 		.4byte	.LFB20
 4294 007c 0A000000 		.4byte	.LFE20-.LFB20
 4295 0080 00000000 		.4byte	.LFB21
 4296 0084 06000000 		.4byte	.LFE21-.LFB21
 4297 0088 00000000 		.4byte	.LFB22
 4298 008c 2E000000 		.4byte	.LFE22-.LFB22
 4299 0090 00000000 		.4byte	.LFB23
 4300 0094 0A000000 		.4byte	.LFE23-.LFB23
 4301 0098 00000000 		.4byte	.LFB24
 4302 009c 08000000 		.4byte	.LFE24-.LFB24
 4303 00a0 00000000 		.4byte	0
 4304 00a4 00000000 		.4byte	0
 4305              		.section	.debug_ranges,"",%progbits
 4306              	.Ldebug_ranges0:
ARM GAS  /tmp/ccXATerv.s 			page 77


 4307 0000 00000000 		.4byte	.LFB7
 4308 0004 02000000 		.4byte	.LFE7
 4309 0008 00000000 		.4byte	.LFB8
 4310 000c 4C000000 		.4byte	.LFE8
 4311 0010 00000000 		.4byte	.LFB9
 4312 0014 22000000 		.4byte	.LFE9
 4313 0018 00000000 		.4byte	.LFB10
 4314 001c 06000000 		.4byte	.LFE10
 4315 0020 00000000 		.4byte	.LFB11
 4316 0024 34000000 		.4byte	.LFE11
 4317 0028 00000000 		.4byte	.LFB12
 4318 002c 0A000000 		.4byte	.LFE12
 4319 0030 00000000 		.4byte	.LFB13
 4320 0034 06000000 		.4byte	.LFE13
 4321 0038 00000000 		.4byte	.LFB14
 4322 003c 48000000 		.4byte	.LFE14
 4323 0040 00000000 		.4byte	.LFB15
 4324 0044 34000000 		.4byte	.LFE15
 4325 0048 00000000 		.4byte	.LFB16
 4326 004c 0A000000 		.4byte	.LFE16
 4327 0050 00000000 		.4byte	.LFB17
 4328 0054 28000000 		.4byte	.LFE17
 4329 0058 00000000 		.4byte	.LFB18
 4330 005c 34000000 		.4byte	.LFE18
 4331 0060 00000000 		.4byte	.LFB19
 4332 0064 18000000 		.4byte	.LFE19
 4333 0068 00000000 		.4byte	.LFB20
 4334 006c 0A000000 		.4byte	.LFE20
 4335 0070 00000000 		.4byte	.LFB21
 4336 0074 06000000 		.4byte	.LFE21
 4337 0078 00000000 		.4byte	.LFB22
 4338 007c 2E000000 		.4byte	.LFE22
 4339 0080 00000000 		.4byte	.LFB23
 4340 0084 0A000000 		.4byte	.LFE23
 4341 0088 00000000 		.4byte	.LFB24
 4342 008c 08000000 		.4byte	.LFE24
 4343 0090 00000000 		.4byte	0
 4344 0094 00000000 		.4byte	0
 4345              		.section	.debug_line,"",%progbits
 4346              	.Ldebug_line0:
 4347 0000 BC030000 		.section	.debug_str,"MS",%progbits,1
 4347      02003102 
 4347      00000201 
 4347      FB0E0D00 
 4347      01010101 
 4348              	.LASF52:
 4349 0000 76746675 		.ascii	"vtfunc_t\000"
 4349      6E635F74 
 4349      00
 4350              	.LASF46:
 4351 0009 54687265 		.ascii	"ThreadsList\000"
 4351      6164734C 
 4351      69737400 
 4352              	.LASF38:
 4353 0015 705F7761 		.ascii	"p_waiting\000"
 4353      6974696E 
 4353      6700
ARM GAS  /tmp/ccXATerv.s 			page 78


 4354              	.LASF98:
 4355 001f 7379735F 		.ascii	"sys_mbox_t\000"
 4355      6D626F78 
 4355      5F7400
 4356              	.LASF37:
 4357 002a 705F7469 		.ascii	"p_time\000"
 4357      6D6500
 4358              	.LASF47:
 4359 0031 72656761 		.ascii	"regarm_t\000"
 4359      726D5F74 
 4359      00
 4360              	.LASF28:
 4361 003a 705F7072 		.ascii	"p_prio\000"
 4361      696F00
 4362              	.LASF23:
 4363 0041 73797374 		.ascii	"systime_t\000"
 4363      696D655F 
 4363      7400
 4364              	.LASF66:
 4365 004b 6D5F6F77 		.ascii	"m_owner\000"
 4365      6E657200 
 4366              	.LASF62:
 4367 0053 735F7175 		.ascii	"s_queue\000"
 4367      65756500 
 4368              	.LASF59:
 4369 005b 76745F73 		.ascii	"vt_systime\000"
 4369      79737469 
 4369      6D6500
 4370              	.LASF143:
 4371 0066 7379735F 		.ascii	"sys_mbox_set_invalid\000"
 4371      6D626F78 
 4371      5F736574 
 4371      5F696E76 
 4371      616C6964 
 4372              	.LASF39:
 4373 007b 705F6D73 		.ascii	"p_msgqueue\000"
 4373      67717565 
 4373      756500
 4374              	.LASF0:
 4375 0086 756E7369 		.ascii	"unsigned int\000"
 4375      676E6564 
 4375      20696E74 
 4375      00
 4376              	.LASF81:
 4377 0093 6E657874 		.ascii	"next\000"
 4377      00
 4378              	.LASF144:
 4379 0098 7379735F 		.ascii	"sys_thread_new\000"
 4379      74687265 
 4379      61645F6E 
 4379      657700
 4380              	.LASF96:
 4381 00a7 6572725F 		.ascii	"err_t\000"
 4381      7400
 4382              	.LASF79:
 4383 00ad 685F6672 		.ascii	"h_free\000"
 4383      656500
ARM GAS  /tmp/ccXATerv.s 			page 79


 4384              	.LASF82:
 4385 00b4 68656170 		.ascii	"heap\000"
 4385      00
 4386              	.LASF87:
 4387 00b9 77746F62 		.ascii	"wtobjp\000"
 4387      6A7000
 4388              	.LASF152:
 4389 00c0 76746C69 		.ascii	"vtlist\000"
 4389      737400
 4390              	.LASF113:
 4391 00c7 73746174 		.ascii	"stats_mem\000"
 4391      735F6D65 
 4391      6D00
 4392              	.LASF88:
 4393 00d1 65776D61 		.ascii	"ewmask\000"
 4393      736B00
 4394              	.LASF74:
 4395 00d8 4D61696C 		.ascii	"Mailbox\000"
 4395      626F7800 
 4396              	.LASF153:
 4397 00e0 6C776970 		.ascii	"lwip_stats\000"
 4397      5F737461 
 4397      747300
 4398              	.LASF63:
 4399 00eb 735F636E 		.ascii	"s_cnt\000"
 4399      7400
 4400              	.LASF117:
 4401 00f1 73746174 		.ascii	"stats_syselem\000"
 4401      735F7379 
 4401      73656C65 
 4401      6D00
 4402              	.LASF150:
 4403 00ff 7379735F 		.ascii	"sys_arch_unprotect\000"
 4403      61726368 
 4403      5F756E70 
 4403      726F7465 
 4403      637400
 4404              	.LASF160:
 4405 0112 63684D42 		.ascii	"chMBReset\000"
 4405      52657365 
 4405      7400
 4406              	.LASF56:
 4407 011c 76745F74 		.ascii	"vt_time\000"
 4407      696D6500 
 4408              	.LASF11:
 4409 0124 75696E74 		.ascii	"uint32_t\000"
 4409      33325F74 
 4409      00
 4410              	.LASF2:
 4411 012d 696E7438 		.ascii	"int8_t\000"
 4411      5F7400
 4412              	.LASF22:
 4413 0134 6576656E 		.ascii	"eventmask_t\000"
 4413      746D6173 
 4413      6B5F7400 
 4414              	.LASF166:
 4415 0140 474E5520 		.ascii	"GNU C 4.7.2\000"
ARM GAS  /tmp/ccXATerv.s 			page 80


 4415      4320342E 
 4415      372E3200 
 4416              	.LASF58:
 4417 014c 76745F70 		.ascii	"vt_par\000"
 4417      617200
 4418              	.LASF111:
 4419 0153 6F707465 		.ascii	"opterr\000"
 4419      727200
 4420              	.LASF119:
 4421 015a 6D757465 		.ascii	"mutex\000"
 4421      7800
 4422              	.LASF124:
 4423 0160 69705F66 		.ascii	"ip_frag\000"
 4423      72616700 
 4424              	.LASF20:
 4425 0168 74707269 		.ascii	"tprio_t\000"
 4425      6F5F7400 
 4426              	.LASF127:
 4427 0170 636F756E 		.ascii	"count\000"
 4427      7400
 4428              	.LASF116:
 4429 0176 696C6C65 		.ascii	"illegal\000"
 4429      67616C00 
 4430              	.LASF99:
 4431 017e 7379735F 		.ascii	"sys_thread_t\000"
 4431      74687265 
 4431      61645F74 
 4431      00
 4432              	.LASF90:
 4433 018b 7466756E 		.ascii	"tfunc_t\000"
 4433      635F7400 
 4434              	.LASF123:
 4435 0193 65746861 		.ascii	"etharp\000"
 4435      727000
 4436              	.LASF15:
 4437 019a 6C6F6E67 		.ascii	"long long unsigned int\000"
 4437      206C6F6E 
 4437      6720756E 
 4437      7369676E 
 4437      65642069 
 4438              	.LASF24:
 4439 01b1 636E745F 		.ascii	"cnt_t\000"
 4439      7400
 4440              	.LASF101:
 4441 01b7 6C776970 		.ascii	"lwip_thread_fn\000"
 4441      5F746872 
 4441      6561645F 
 4441      666E00
 4442              	.LASF133:
 4443 01c6 74696D65 		.ascii	"time\000"
 4443      00
 4444              	.LASF30:
 4445 01cb 705F6E65 		.ascii	"p_newer\000"
 4445      77657200 
 4446              	.LASF129:
 4447 01d3 7379735F 		.ascii	"sys_sem_signal\000"
 4447      73656D5F 
ARM GAS  /tmp/ccXATerv.s 			page 81


 4447      7369676E 
 4447      616C00
 4448              	.LASF115:
 4449 01e2 75736564 		.ascii	"used\000"
 4449      00
 4450              	.LASF121:
 4451 01e7 73746174 		.ascii	"stats_\000"
 4451      735F00
 4452              	.LASF137:
 4453 01ee 7379735F 		.ascii	"sys_mbox_free\000"
 4453      6D626F78 
 4453      5F667265 
 4453      6500
 4454              	.LASF158:
 4455 01fc 63685365 		.ascii	"chSemWaitTimeoutS\000"
 4455      6D576169 
 4455      7454696D 
 4455      656F7574 
 4455      5300
 4456              	.LASF167:
 4457 020e 2E2E2F2E 		.ascii	"../../os/various/lwip_bindings/arch/sys_arch.c\000"
 4457      2E2F6F73 
 4457      2F766172 
 4457      696F7573 
 4457      2F6C7769 
 4458              	.LASF169:
 4459 023d 68656170 		.ascii	"heap_header\000"
 4459      5F686561 
 4459      64657200 
 4460              	.LASF1:
 4461 0249 73697A65 		.ascii	"size_t\000"
 4461      5F7400
 4462              	.LASF85:
 4463 0250 7264796D 		.ascii	"rdymsg\000"
 4463      736700
 4464              	.LASF71:
 4465 0257 6D625F72 		.ascii	"mb_rdptr\000"
 4465      64707472 
 4465      00
 4466              	.LASF97:
 4467 0260 7379735F 		.ascii	"sys_sem_t\000"
 4467      73656D5F 
 4467      7400
 4468              	.LASF92:
 4469 026a 73385F74 		.ascii	"s8_t\000"
 4469      00
 4470              	.LASF154:
 4471 026f 63685365 		.ascii	"chSemInit\000"
 4471      6D496E69 
 4471      7400
 4472              	.LASF64:
 4473 0279 4D757465 		.ascii	"Mutex\000"
 4473      7800
 4474              	.LASF73:
 4475 027f 6D625F65 		.ascii	"mb_emptysem\000"
 4475      6D707479 
 4475      73656D00 
ARM GAS  /tmp/ccXATerv.s 			page 82


 4476              	.LASF135:
 4477 028b 7379735F 		.ascii	"sys_sem_set_invalid\000"
 4477      73656D5F 
 4477      7365745F 
 4477      696E7661 
 4477      6C696400 
 4478              	.LASF170:
 4479 029f 7379735F 		.ascii	"sys_init\000"
 4479      696E6974 
 4479      00
 4480              	.LASF32:
 4481 02a8 705F6E61 		.ascii	"p_name\000"
 4481      6D6500
 4482              	.LASF148:
 4483 02af 7072696F 		.ascii	"prio\000"
 4483      00
 4484              	.LASF78:
 4485 02b4 685F7072 		.ascii	"h_provider\000"
 4485      6F766964 
 4485      657200
 4486              	.LASF45:
 4487 02bf 54687265 		.ascii	"ThreadsQueue\000"
 4487      61647351 
 4487      75657565 
 4487      00
 4488              	.LASF89:
 4489 02cc 63686172 		.ascii	"char\000"
 4489      00
 4490              	.LASF95:
 4491 02d1 6D656D5F 		.ascii	"mem_size_t\000"
 4491      73697A65 
 4491      5F7400
 4492              	.LASF102:
 4493 02dc 73746174 		.ascii	"stats_proto\000"
 4493      735F7072 
 4493      6F746F00 
 4494              	.LASF100:
 4495 02e8 7379735F 		.ascii	"sys_prot_t\000"
 4495      70726F74 
 4495      5F7400
 4496              	.LASF25:
 4497 02f3 54687265 		.ascii	"Thread\000"
 4497      616400
 4498              	.LASF17:
 4499 02fa 74737461 		.ascii	"tstate_t\000"
 4499      74655F74 
 4499      00
 4500              	.LASF60:
 4501 0303 56544C69 		.ascii	"VTList\000"
 4501      737400
 4502              	.LASF31:
 4503 030a 705F6F6C 		.ascii	"p_older\000"
 4503      64657200 
 4504              	.LASF33:
 4505 0312 705F7374 		.ascii	"p_state\000"
 4505      61746500 
 4506              	.LASF164:
ARM GAS  /tmp/ccXATerv.s 			page 83


 4507 031a 6368436F 		.ascii	"chCoreAlloc\000"
 4507      7265416C 
 4507      6C6F6300 
 4508              	.LASF4:
 4509 0326 75696E74 		.ascii	"uint8_t\000"
 4509      385F7400 
 4510              	.LASF72:
 4511 032e 6D625F66 		.ascii	"mb_fullsem\000"
 4511      756C6C73 
 4511      656D00
 4512              	.LASF151:
 4513 0339 7076616C 		.ascii	"pval\000"
 4513      00
 4514              	.LASF147:
 4515 033e 73746163 		.ascii	"stacksize\000"
 4515      6B73697A 
 4515      6500
 4516              	.LASF157:
 4517 0348 63684865 		.ascii	"chHeapAlloc\000"
 4517      6170416C 
 4517      6C6F6300 
 4518              	.LASF44:
 4519 0354 705F6D70 		.ascii	"p_mpool\000"
 4519      6F6F6C00 
 4520              	.LASF42:
 4521 035c 705F6D74 		.ascii	"p_mtxlist\000"
 4521      786C6973 
 4521      7400
 4522              	.LASF80:
 4523 0366 685F6D74 		.ascii	"h_mtx\000"
 4523      7800
 4524              	.LASF13:
 4525 036c 6C6F6E67 		.ascii	"long long int\000"
 4525      206C6F6E 
 4525      6720696E 
 4525      7400
 4526              	.LASF140:
 4527 037a 7379735F 		.ascii	"sys_arch_mbox_fetch\000"
 4527      61726368 
 4527      5F6D626F 
 4527      785F6665 
 4527      74636800 
 4528              	.LASF130:
 4529 038e 7379735F 		.ascii	"sys_sem_new\000"
 4529      73656D5F 
 4529      6E657700 
 4530              	.LASF21:
 4531 039a 6D73675F 		.ascii	"msg_t\000"
 4531      7400
 4532              	.LASF155:
 4533 03a0 63684865 		.ascii	"chHeapFree\000"
 4533      61704672 
 4533      656500
 4534              	.LASF50:
 4535 03ab 636F6E74 		.ascii	"context\000"
 4535      65787400 
 4536              	.LASF91:
ARM GAS  /tmp/ccXATerv.s 			page 84


 4537 03b3 75385F74 		.ascii	"u8_t\000"
 4537      00
 4538              	.LASF34:
 4539 03b8 705F666C 		.ascii	"p_flags\000"
 4539      61677300 
 4540              	.LASF141:
 4541 03c0 7379735F 		.ascii	"sys_arch_mbox_tryfetch\000"
 4541      61726368 
 4541      5F6D626F 
 4541      785F7472 
 4541      79666574 
 4542              	.LASF84:
 4543 03d7 73697A65 		.ascii	"size\000"
 4543      00
 4544              	.LASF69:
 4545 03dc 6D625F74 		.ascii	"mb_top\000"
 4545      6F7000
 4546              	.LASF142:
 4547 03e3 7379735F 		.ascii	"sys_mbox_valid\000"
 4547      6D626F78 
 4547      5F76616C 
 4547      696400
 4548              	.LASF168:
 4549 03f2 2F686F6D 		.ascii	"/home/kwilson/Sandbox/ChibiOS_2.5.1/demos/ARMCM4-ST"
 4549      652F6B77 
 4549      696C736F 
 4549      6E2F5361 
 4549      6E64626F 
 4550 0425 4D333246 		.ascii	"M32F407-LWIP-FATFS-USB\000"
 4550      3430372D 
 4550      4C574950 
 4550      2D464154 
 4550      46532D55 
 4551              	.LASF106:
 4552 043c 63686B65 		.ascii	"chkerr\000"
 4552      727200
 4553              	.LASF19:
 4554 0443 74736C69 		.ascii	"tslices_t\000"
 4554      6365735F 
 4554      7400
 4555              	.LASF108:
 4556 044d 6D656D65 		.ascii	"memerr\000"
 4556      727200
 4557              	.LASF165:
 4558 0454 63685468 		.ascii	"chThdCreateStatic\000"
 4558      64437265 
 4558      61746553 
 4558      74617469 
 4558      6300
 4559              	.LASF40:
 4560 0466 705F6D73 		.ascii	"p_msg\000"
 4560      6700
 4561              	.LASF16:
 4562 046c 746D6F64 		.ascii	"tmode_t\000"
 4562      655F7400 
 4563              	.LASF162:
 4564 0474 63684D42 		.ascii	"chMBFetchS\000"
ARM GAS  /tmp/ccXATerv.s 			page 85


 4564      46657463 
 4564      685300
 4565              	.LASF139:
 4566 047f 7379735F 		.ascii	"sys_mbox_trypost\000"
 4566      6D626F78 
 4566      5F747279 
 4566      706F7374 
 4566      00
 4567              	.LASF163:
 4568 0490 63684D42 		.ascii	"chMBFetch\000"
 4568      46657463 
 4568      6800
 4569              	.LASF7:
 4570 049a 75696E74 		.ascii	"uint16_t\000"
 4570      31365F74 
 4570      00
 4571              	.LASF49:
 4572 04a3 696E7463 		.ascii	"intctx\000"
 4572      747800
 4573              	.LASF93:
 4574 04aa 7531365F 		.ascii	"u16_t\000"
 4574      7400
 4575              	.LASF132:
 4576 04b0 74696D65 		.ascii	"timeout\000"
 4576      6F757400 
 4577              	.LASF107:
 4578 04b8 6C656E65 		.ascii	"lenerr\000"
 4578      727200
 4579              	.LASF43:
 4580 04bf 705F7265 		.ascii	"p_realprio\000"
 4580      616C7072 
 4580      696F00
 4581              	.LASF94:
 4582 04ca 7533325F 		.ascii	"u32_t\000"
 4582      7400
 4583              	.LASF6:
 4584 04d0 73686F72 		.ascii	"short int\000"
 4584      7420696E 
 4584      7400
 4585              	.LASF77:
 4586 04da 6D656D6F 		.ascii	"memory_heap\000"
 4586      72795F68 
 4586      65617000 
 4587              	.LASF70:
 4588 04e6 6D625F77 		.ascii	"mb_wrptr\000"
 4588      72707472 
 4588      00
 4589              	.LASF41:
 4590 04ef 705F6570 		.ascii	"p_epending\000"
 4590      656E6469 
 4590      6E6700
 4591              	.LASF65:
 4592 04fa 6D5F7175 		.ascii	"m_queue\000"
 4592      65756500 
 4593              	.LASF10:
 4594 0502 6C6F6E67 		.ascii	"long int\000"
 4594      20696E74 
ARM GAS  /tmp/ccXATerv.s 			page 86


 4594      00
 4595              	.LASF109:
 4596 050b 72746572 		.ascii	"rterr\000"
 4596      7200
 4597              	.LASF114:
 4598 0511 61766169 		.ascii	"avail\000"
 4598      6C00
 4599              	.LASF26:
 4600 0517 705F6E65 		.ascii	"p_next\000"
 4600      787400
 4601              	.LASF14:
 4602 051e 75696E74 		.ascii	"uint64_t\000"
 4602      36345F74 
 4602      00
 4603              	.LASF29:
 4604 0527 705F6374 		.ascii	"p_ctx\000"
 4604      7800
 4605              	.LASF120:
 4606 052d 6D626F78 		.ascii	"mbox\000"
 4606      00
 4607              	.LASF131:
 4608 0532 7379735F 		.ascii	"sys_arch_sem_wait\000"
 4608      61726368 
 4608      5F73656D 
 4608      5F776169 
 4608      7400
 4609              	.LASF112:
 4610 0544 63616368 		.ascii	"cachehit\000"
 4610      65686974 
 4610      00
 4611              	.LASF53:
 4612 054d 56697274 		.ascii	"VirtualTimer\000"
 4612      75616C54 
 4612      696D6572 
 4612      00
 4613              	.LASF61:
 4614 055a 53656D61 		.ascii	"Semaphore\000"
 4614      70686F72 
 4614      6500
 4615              	.LASF75:
 4616 0564 6D656D67 		.ascii	"memgetfunc_t\000"
 4616      65746675 
 4616      6E635F74 
 4616      00
 4617              	.LASF145:
 4618 0571 6E616D65 		.ascii	"name\000"
 4618      00
 4619              	.LASF159:
 4620 0576 63684D42 		.ascii	"chMBInit\000"
 4620      496E6974 
 4620      00
 4621              	.LASF156:
 4622 057f 63685365 		.ascii	"chSemSignal\000"
 4622      6D536967 
 4622      6E616C00 
 4623              	.LASF149:
 4624 058b 7379735F 		.ascii	"sys_arch_protect\000"
ARM GAS  /tmp/ccXATerv.s 			page 87


 4624      61726368 
 4624      5F70726F 
 4624      74656374 
 4624      00
 4625              	.LASF128:
 4626 059c 7379735F 		.ascii	"sys_sem_free\000"
 4626      73656D5F 
 4626      66726565 
 4626      00
 4627              	.LASF126:
 4628 05a9 6D656D70 		.ascii	"memp\000"
 4628      00
 4629              	.LASF27:
 4630 05ae 705F7072 		.ascii	"p_prev\000"
 4630      657600
 4631              	.LASF51:
 4632 05b5 73697A65 		.ascii	"sizetype\000"
 4632      74797065 
 4632      00
 4633              	.LASF18:
 4634 05be 74726566 		.ascii	"trefs_t\000"
 4634      735F7400 
 4635              	.LASF12:
 4636 05c6 6C6F6E67 		.ascii	"long unsigned int\000"
 4636      20756E73 
 4636      69676E65 
 4636      6420696E 
 4636      7400
 4637              	.LASF68:
 4638 05d8 6D625F62 		.ascii	"mb_buffer\000"
 4638      75666665 
 4638      7200
 4639              	.LASF9:
 4640 05e2 696E7433 		.ascii	"int32_t\000"
 4640      325F7400 
 4641              	.LASF146:
 4642 05ea 74687265 		.ascii	"thread\000"
 4642      616400
 4643              	.LASF110:
 4644 05f1 70726F74 		.ascii	"proterr\000"
 4644      65727200 
 4645              	.LASF138:
 4646 05f9 7379735F 		.ascii	"sys_mbox_post\000"
 4646      6D626F78 
 4646      5F706F73 
 4646      7400
 4647              	.LASF118:
 4648 0607 73746174 		.ascii	"stats_sys\000"
 4648      735F7379 
 4648      7300
 4649              	.LASF5:
 4650 0611 756E7369 		.ascii	"unsigned char\000"
 4650      676E6564 
 4650      20636861 
 4650      7200
 4651              	.LASF35:
 4652 061f 705F7265 		.ascii	"p_refs\000"
ARM GAS  /tmp/ccXATerv.s 			page 88


 4652      667300
 4653              	.LASF122:
 4654 0626 6C696E6B 		.ascii	"link\000"
 4654      00
 4655              	.LASF161:
 4656 062b 63684D42 		.ascii	"chMBPost\000"
 4656      506F7374 
 4656      00
 4657              	.LASF36:
 4658 0634 705F7072 		.ascii	"p_preempt\000"
 4658      65656D70 
 4658      7400
 4659              	.LASF105:
 4660 063e 64726F70 		.ascii	"drop\000"
 4660      00
 4661              	.LASF54:
 4662 0643 76745F6E 		.ascii	"vt_next\000"
 4662      65787400 
 4663              	.LASF134:
 4664 064b 7379735F 		.ascii	"sys_sem_valid\000"
 4664      73656D5F 
 4664      76616C69 
 4664      6400
 4665              	.LASF136:
 4666 0659 7379735F 		.ascii	"sys_mbox_new\000"
 4666      6D626F78 
 4666      5F6E6577 
 4666      00
 4667              	.LASF104:
 4668 0666 72656376 		.ascii	"recv\000"
 4668      00
 4669              	.LASF67:
 4670 066b 6D5F6E65 		.ascii	"m_next\000"
 4670      787400
 4671              	.LASF3:
 4672 0672 7369676E 		.ascii	"signed char\000"
 4672      65642063 
 4672      68617200 
 4673              	.LASF8:
 4674 067e 73686F72 		.ascii	"short unsigned int\000"
 4674      7420756E 
 4674      7369676E 
 4674      65642069 
 4674      6E7400
 4675              	.LASF48:
 4676 0691 73746B61 		.ascii	"stkalign_t\000"
 4676      6C69676E 
 4676      5F7400
 4677              	.LASF76:
 4678 069c 4D656D6F 		.ascii	"MemoryHeap\000"
 4678      72794865 
 4678      617000
 4679              	.LASF103:
 4680 06a7 786D6974 		.ascii	"xmit\000"
 4680      00
 4681              	.LASF57:
 4682 06ac 76745F66 		.ascii	"vt_func\000"
ARM GAS  /tmp/ccXATerv.s 			page 89


 4682      756E6300 
 4683              	.LASF55:
 4684 06b4 76745F70 		.ascii	"vt_prev\000"
 4684      72657600 
 4685              	.LASF83:
 4686 06bc 616C6967 		.ascii	"align\000"
 4686      6E00
 4687              	.LASF86:
 4688 06c2 65786974 		.ascii	"exitcode\000"
 4688      636F6465 
 4688      00
 4689              	.LASF125:
 4690 06cb 69636D70 		.ascii	"icmp\000"
 4690      00
 4691              		.ident	"GCC: (crosstool-NG 1.17.0 - PSAS ST32F4 GFE) 4.7.2"
ARM GAS  /tmp/ccXATerv.s 			page 90


DEFINED SYMBOLS
                            *ABS*:0000000000000000 sys_arch.c
     /tmp/ccXATerv.s:21     .text.sys_init:0000000000000000 $t
     /tmp/ccXATerv.s:27     .text.sys_init:0000000000000000 sys_init
     /tmp/ccXATerv.s:40     .text.sys_sem_new:0000000000000000 $t
     /tmp/ccXATerv.s:46     .text.sys_sem_new:0000000000000000 sys_sem_new
     /tmp/ccXATerv.s:106    .text.sys_sem_new:0000000000000048 $d
     /tmp/ccXATerv.s:111    .text.sys_sem_free:0000000000000000 $t
     /tmp/ccXATerv.s:117    .text.sys_sem_free:0000000000000000 sys_sem_free
     /tmp/ccXATerv.s:153    .text.sys_sem_signal:0000000000000000 $t
     /tmp/ccXATerv.s:159    .text.sys_sem_signal:0000000000000000 sys_sem_signal
     /tmp/ccXATerv.s:178    .text.sys_arch_sem_wait:0000000000000000 $t
     /tmp/ccXATerv.s:184    .text.sys_arch_sem_wait:0000000000000000 sys_arch_sem_wait
     /tmp/ccXATerv.s:250    .text.sys_arch_sem_wait:0000000000000030 $d
     /tmp/ccXATerv.s:255    .text.sys_sem_valid:0000000000000000 $t
     /tmp/ccXATerv.s:261    .text.sys_sem_valid:0000000000000000 sys_sem_valid
     /tmp/ccXATerv.s:281    .text.sys_sem_set_invalid:0000000000000000 $t
     /tmp/ccXATerv.s:287    .text.sys_sem_set_invalid:0000000000000000 sys_sem_set_invalid
     /tmp/ccXATerv.s:303    .text.sys_mbox_new:0000000000000000 $t
     /tmp/ccXATerv.s:309    .text.sys_mbox_new:0000000000000000 sys_mbox_new
     /tmp/ccXATerv.s:368    .text.sys_mbox_new:0000000000000044 $d
     /tmp/ccXATerv.s:373    .text.sys_mbox_free:0000000000000000 $t
     /tmp/ccXATerv.s:379    .text.sys_mbox_free:0000000000000000 sys_mbox_free
     /tmp/ccXATerv.s:429    .text.sys_mbox_free:0000000000000030 $d
     /tmp/ccXATerv.s:434    .text.sys_mbox_post:0000000000000000 $t
     /tmp/ccXATerv.s:440    .text.sys_mbox_post:0000000000000000 sys_mbox_post
     /tmp/ccXATerv.s:460    .text.sys_mbox_trypost:0000000000000000 $t
     /tmp/ccXATerv.s:466    .text.sys_mbox_trypost:0000000000000000 sys_mbox_trypost
     /tmp/ccXATerv.s:506    .text.sys_mbox_trypost:0000000000000024 $d
     /tmp/ccXATerv.s:511    .text.sys_arch_mbox_fetch:0000000000000000 $t
     /tmp/ccXATerv.s:517    .text.sys_arch_mbox_fetch:0000000000000000 sys_arch_mbox_fetch
     /tmp/ccXATerv.s:583    .text.sys_arch_mbox_fetch:0000000000000030 $d
     /tmp/ccXATerv.s:588    .text.sys_arch_mbox_tryfetch:0000000000000000 $t
     /tmp/ccXATerv.s:594    .text.sys_arch_mbox_tryfetch:0000000000000000 sys_arch_mbox_tryfetch
     /tmp/ccXATerv.s:622    .text.sys_mbox_valid:0000000000000000 $t
     /tmp/ccXATerv.s:628    .text.sys_mbox_valid:0000000000000000 sys_mbox_valid
     /tmp/ccXATerv.s:648    .text.sys_mbox_set_invalid:0000000000000000 $t
     /tmp/ccXATerv.s:654    .text.sys_mbox_set_invalid:0000000000000000 sys_mbox_set_invalid
     /tmp/ccXATerv.s:670    .text.sys_thread_new:0000000000000000 $t
     /tmp/ccXATerv.s:676    .text.sys_thread_new:0000000000000000 sys_thread_new
     /tmp/ccXATerv.s:729    .text.sys_arch_protect:0000000000000000 $t
     /tmp/ccXATerv.s:735    .text.sys_arch_protect:0000000000000000 sys_arch_protect
     /tmp/ccXATerv.s:759    .text.sys_arch_unprotect:0000000000000000 $t
     /tmp/ccXATerv.s:765    .text.sys_arch_unprotect:0000000000000000 sys_arch_unprotect
                     .debug_frame:0000000000000010 $d
     /tmp/ccXATerv.s:110    .text.sys_sem_new:000000000000004c $t
     /tmp/ccXATerv.s:254    .text.sys_arch_sem_wait:0000000000000034 $t
     /tmp/ccXATerv.s:372    .text.sys_mbox_new:0000000000000048 $t
     /tmp/ccXATerv.s:433    .text.sys_mbox_free:0000000000000034 $t
     /tmp/ccXATerv.s:510    .text.sys_mbox_trypost:0000000000000028 $t
     /tmp/ccXATerv.s:587    .text.sys_arch_mbox_fetch:0000000000000034 $t

UNDEFINED SYMBOLS
chHeapAlloc
chSemInit
lwip_stats
chHeapFree
ARM GAS  /tmp/ccXATerv.s 			page 91


chSemSignal
chSemWaitTimeoutS
vtlist
chMBInit
chMBReset
chMBPost
chMBFetchS
chMBFetch
chCoreAlloc
chThdCreateStatic
