ARM GAS  /tmp/ccqErZ7k.s 			page 1


   1              		.syntax unified
   2              		.cpu cortex-m4
   3              		.eabi_attribute 27, 3
   4              		.eabi_attribute 28, 1
   5              		.fpu fpv4-sp-d16
   6              		.eabi_attribute 20, 1
   7              		.eabi_attribute 21, 1
   8              		.eabi_attribute 23, 3
   9              		.eabi_attribute 24, 1
  10              		.eabi_attribute 25, 1
  11              		.eabi_attribute 26, 1
  12              		.eabi_attribute 30, 2
  13              		.eabi_attribute 34, 1
  14              		.eabi_attribute 18, 4
  15              		.thumb
  16              		.file	"tcp.c"
  17              		.text
  18              	.Ltext0:
  19              		.cfi_sections	.debug_frame
  20              		.section	.text.tcp_accept_null,"ax",%progbits
  21              		.align	2
  22              		.p2align 4,,15
  23              		.thumb
  24              		.thumb_func
  25              		.type	tcp_accept_null, %function
  26              	tcp_accept_null:
  27              	.LFB14:
  28              		.file 1 "../../ext/lwip/src/core/tcp.c"
  29              		.loc 1 459 0
  30              		.cfi_startproc
  31              		@ args = 0, pretend = 0, frame = 0
  32              		@ frame_needed = 0, uses_anonymous_args = 0
  33              		@ link register save eliminated.
  34              	.LVL0:
  35              		.loc 1 465 0
  36 0000 6FF00900 		mvn	r0, #9
  37              	.LVL1:
  38 0004 7047     		bx	lr
  39              		.cfi_endproc
  40              	.LFE14:
  41              		.size	tcp_accept_null, .-tcp_accept_null
  42 0006 00BFAFF3 		.section	.text.tcp_new_port,"ax",%progbits
  42      0080AFF3 
  42      0080
  43              		.align	2
  44              		.p2align 4,,15
  45              		.thumb
  46              		.thumb_func
  47              		.type	tcp_new_port, %function
  48              	tcp_new_port:
  49              	.LFB18:
  50              		.loc 1 610 0
  51              		.cfi_startproc
  52              		@ args = 0, pretend = 0, frame = 0
  53              		@ frame_needed = 0, uses_anonymous_args = 0
  54              		@ link register save eliminated.
  55              	.L3:
ARM GAS  /tmp/ccqErZ7k.s 			page 2


  56 0000 70B4     		push	{r4, r5, r6}
  57              	.LCFI0:
  58              		.cfi_def_cfa_offset 12
  59              		.cfi_offset 4, -12
  60              		.cfi_offset 5, -8
  61              		.cfi_offset 6, -4
  62 0002 0E4D     		ldr	r5, .L22
  63              		.loc 1 609 0
  64 0004 0E4E     		ldr	r6, .L22+4
  65 0006 2888     		ldrh	r0, [r5, #0]
  66              		.loc 1 622 0
  67 0008 4FF6FF74 		movw	r4, #65535
  68              	.L19:
  69 000c A042     		cmp	r0, r4
  70 000e 08BF     		it	eq
  71 0010 4FF44040 		moveq	r0, #49152
  72 0014 01D0     		beq	.L5
  73 0016 0130     		adds	r0, r0, #1
  74 0018 80B2     		uxth	r0, r0
  75              	.L5:
  76              	.LVL2:
  77              		.loc 1 609 0
  78 001a 0A4A     		ldr	r2, .L22+8
  79              	.LVL3:
  80              	.L11:
  81              		.loc 1 627 0
  82 001c 52F8043F 		ldr	r3, [r2, #4]!
  83 0020 1B68     		ldr	r3, [r3, #0]
  84              	.LVL4:
  85 0022 2BB1     		cbz	r3, .L6
  86              	.L10:
  87              		.loc 1 628 0
  88 0024 998B     		ldrh	r1, [r3, #28]
  89 0026 8142     		cmp	r1, r0
  90 0028 F0D0     		beq	.L19
  91              		.loc 1 627 0
  92 002a DB68     		ldr	r3, [r3, #12]
  93              	.LVL5:
  94 002c 002B     		cmp	r3, #0
  95 002e F9D1     		bne	.L10
  96              	.L6:
  97              		.loc 1 626 0
  98 0030 B242     		cmp	r2, r6
  99 0032 F3D1     		bne	.L11
 100 0034 2880     		strh	r0, [r5, #0]	@ movhi
 101              		.loc 1 634 0
 102 0036 70BC     		pop	{r4, r5, r6}
 103 0038 7047     		bx	lr
 104              	.L23:
 105 003a 00BF     		.align	2
 106              	.L22:
 107 003c 00000000 		.word	.LANCHOR0
 108 0040 0C000000 		.word	.LANCHOR1+12
 109 0044 FCFFFFFF 		.word	.LANCHOR1-4
 110              		.cfi_endproc
 111              	.LFE18:
 112              		.size	tcp_new_port, .-tcp_new_port
ARM GAS  /tmp/ccqErZ7k.s 			page 3


 113 0048 AFF30080 		.section	.text.tcp_bind,"ax",%progbits
 113      AFF30080 
 114              		.align	2
 115              		.p2align 4,,15
 116              		.global	tcp_bind
 117              		.thumb
 118              		.thumb_func
 119              		.type	tcp_bind, %function
 120              	tcp_bind:
 121              	.LFB13:
 122              		.loc 1 401 0
 123              		.cfi_startproc
 124              		@ args = 0, pretend = 0, frame = 0
 125              		@ frame_needed = 0, uses_anonymous_args = 0
 126              	.LVL6:
 127 0000 F8B5     		push	{r3, r4, r5, r6, r7, lr}
 128              	.LCFI1:
 129              		.cfi_def_cfa_offset 24
 130              		.cfi_offset 3, -24
 131              		.cfi_offset 4, -20
 132              		.cfi_offset 5, -16
 133              		.cfi_offset 6, -12
 134              		.cfi_offset 7, -8
 135              		.cfi_offset 14, -4
 136              		.loc 1 406 0
 137 0002 037C     		ldrb	r3, [r0, #16]	@ zero_extendqisi2
 138              		.loc 1 401 0
 139 0004 0746     		mov	r7, r0
 140 0006 0E46     		mov	r6, r1
 141              		.loc 1 406 0
 142 0008 002B     		cmp	r3, #0
 143 000a 2BD1     		bne	.L49
 144              		.loc 1 419 0
 145 000c 32B3     		cbz	r2, .L50
 146              	.LVL7:
 147              	.L27:
 148              		.loc 1 400 0
 149 000e 1749     		ldr	r1, .L51
 150 0010 01F11000 		add	r0, r1, #16
 151              	.LVL8:
 152              	.L31:
 153              		.loc 1 425 0
 154 0014 51F8043F 		ldr	r3, [r1, #4]!
 155 0018 1B68     		ldr	r3, [r3, #0]
 156              	.LVL9:
 157 001a 13B9     		cbnz	r3, .L43
 158 001c 0EE0     		b	.L28
 159              	.L29:
 160 001e DB68     		ldr	r3, [r3, #12]
 161              	.LVL10:
 162 0020 63B1     		cbz	r3, .L28
 163              	.L43:
 164              		.loc 1 426 0
 165 0022 9C8B     		ldrh	r4, [r3, #28]
 166 0024 9442     		cmp	r4, r2
 167 0026 FAD1     		bne	.L29
 168              		.loc 1 435 0
ARM GAS  /tmp/ccqErZ7k.s 			page 4


 169 0028 1C68     		ldr	r4, [r3, #0]
 170 002a 24B1     		cbz	r4, .L36
 171              		.loc 1 435 0 is_stmt 0 discriminator 1
 172 002c 1EB1     		cbz	r6, .L36
 173              		.loc 1 436 0 is_stmt 1
 174 002e 3568     		ldr	r5, [r6, #0]
 175 0030 0DB1     		cbz	r5, .L36
 176              		.loc 1 436 0 is_stmt 0 discriminator 1
 177 0032 AC42     		cmp	r4, r5
 178 0034 F3D1     		bne	.L29
 179              	.L36:
 180              		.loc 1 438 0 is_stmt 1
 181 0036 F820     		movs	r0, #248
 182              	.LVL11:
 183              	.L26:
 184              		.loc 1 452 0
 185 0038 40B2     		sxtb	r0, r0
 186 003a F8BD     		pop	{r3, r4, r5, r6, r7, pc}
 187              	.LVL12:
 188              	.L28:
 189              		.loc 1 424 0
 190 003c 8142     		cmp	r1, r0
 191 003e E9D1     		bne	.L31
 192              		.loc 1 445 0
 193 0040 16B1     		cbz	r6, .L32
 194              		.loc 1 445 0 is_stmt 0 discriminator 1
 195 0042 3368     		ldr	r3, [r6, #0]
 196              	.LVL13:
 197 0044 03B1     		cbz	r3, .L32
 198              		.loc 1 446 0 is_stmt 1
 199 0046 3B60     		str	r3, [r7, #0]
 200              	.L32:
 201              		.loc 1 449 0
 202 0048 094B     		ldr	r3, .L51+4
 203              		.loc 1 448 0
 204 004a BA83     		strh	r2, [r7, #28]	@ movhi
 205              		.loc 1 449 0
 206 004c 1A68     		ldr	r2, [r3, #0]
 207              	.LVL14:
 208 004e 1F60     		str	r7, [r3, #0]
 209 0050 FA60     		str	r2, [r7, #12]
 210 0052 FFF7FEFF 		bl	tcp_timer_needed
 211              	.LVL15:
 212              		.loc 1 451 0
 213 0056 0020     		movs	r0, #0
 214              		.loc 1 452 0
 215 0058 40B2     		sxtb	r0, r0
 216 005a F8BD     		pop	{r3, r4, r5, r6, r7, pc}
 217              	.LVL16:
 218              	.L50:
 219              		.loc 1 420 0
 220 005c FFF7FEFF 		bl	tcp_new_port
 221              	.LVL17:
 222 0060 0246     		mov	r2, r0
 223              	.LVL18:
 224 0062 D4E7     		b	.L27
 225              	.LVL19:
ARM GAS  /tmp/ccqErZ7k.s 			page 5


 226              	.L49:
 227              		.loc 1 406 0 discriminator 1
 228 0064 FFF7FEFF 		bl	port_halt
 229              	.LVL20:
 230 0068 FA20     		movs	r0, #250
 231 006a E5E7     		b	.L26
 232              	.L52:
 233              		.align	2
 234              	.L51:
 235 006c FCFFFFFF 		.word	.LANCHOR1-4
 236 0070 00000000 		.word	.LANCHOR2
 237              		.cfi_endproc
 238              	.LFE13:
 239              		.size	tcp_bind, .-tcp_bind
 240 0074 AFF30080 		.section	.text.tcp_listen_with_backlog,"ax",%progbits
 240      AFF30080 
 240      AFF30080 
 241              		.align	2
 242              		.p2align 4,,15
 243              		.global	tcp_listen_with_backlog
 244              		.thumb
 245              		.thumb_func
 246              		.type	tcp_listen_with_backlog, %function
 247              	tcp_listen_with_backlog:
 248              	.LFB15:
 249              		.loc 1 484 0
 250              		.cfi_startproc
 251              		@ args = 0, pretend = 0, frame = 0
 252              		@ frame_needed = 0, uses_anonymous_args = 0
 253              	.LVL21:
 254 0000 38B5     		push	{r3, r4, r5, lr}
 255              	.LCFI2:
 256              		.cfi_def_cfa_offset 16
 257              		.cfi_offset 3, -16
 258              		.cfi_offset 4, -12
 259              		.cfi_offset 5, -8
 260              		.cfi_offset 14, -4
 261              		.loc 1 488 0
 262 0002 037C     		ldrb	r3, [r0, #16]	@ zero_extendqisi2
 263              		.loc 1 484 0
 264 0004 0446     		mov	r4, r0
 265              		.loc 1 488 0
 266 0006 002B     		cmp	r3, #0
 267 0008 41D1     		bne	.L73
 268              		.loc 1 509 0
 269 000a 0320     		movs	r0, #3
 270              	.LVL22:
 271 000c FFF7FEFF 		bl	memp_malloc
 272              	.LVL23:
 273              		.loc 1 510 0
 274 0010 0546     		mov	r5, r0
 275 0012 0028     		cmp	r0, #0
 276 0014 3DD0     		beq	.L72
 277              		.loc 1 513 0
 278 0016 6369     		ldr	r3, [r4, #20]
 279              		.loc 1 514 0
 280 0018 A28B     		ldrh	r2, [r4, #28]
ARM GAS  /tmp/ccqErZ7k.s 			page 6


 281              		.loc 1 513 0
 282 001a 4361     		str	r3, [r0, #20]
 283              		.loc 1 515 0
 284 001c 0123     		movs	r3, #1
 285              		.loc 1 514 0
 286 001e 8283     		strh	r2, [r0, #28]	@ movhi
 287              		.loc 1 515 0
 288 0020 0374     		strb	r3, [r0, #16]
 289              		.loc 1 516 0
 290 0022 637C     		ldrb	r3, [r4, #17]	@ zero_extendqisi2
 291 0024 4374     		strb	r3, [r0, #17]
 292              		.loc 1 518 0
 293 0026 237A     		ldrb	r3, [r4, #8]	@ zero_extendqisi2
 294 0028 43F00203 		orr	r3, r3, #2
 295 002c 0372     		strb	r3, [r0, #8]
 296              		.loc 1 519 0
 297 002e A37A     		ldrb	r3, [r4, #10]	@ zero_extendqisi2
 298 0030 8372     		strb	r3, [r0, #10]
 299              		.loc 1 520 0
 300 0032 637A     		ldrb	r3, [r4, #9]	@ zero_extendqisi2
 301 0034 4372     		strb	r3, [r0, #9]
 302              		.loc 1 521 0
 303 0036 2368     		ldr	r3, [r4, #0]
 304              		.loc 1 522 0
 305 0038 A28B     		ldrh	r2, [r4, #28]
 306              		.loc 1 521 0
 307 003a 0360     		str	r3, [r0, #0]
 308              		.loc 1 522 0
 309 003c 9AB1     		cbz	r2, .L56
 310              		.loc 1 523 0
 311 003e 184B     		ldr	r3, .L78
 312 0040 1A68     		ldr	r2, [r3, #0]
 313 0042 A242     		cmp	r2, r4
 314 0044 29D0     		beq	.L74
 315              		.loc 1 523 0 is_stmt 0 discriminator 2
 316 0046 1749     		ldr	r1, .L78+4
 317 0048 0A60     		str	r2, [r1, #0]
 318 004a 52B1     		cbz	r2, .L58
 319              		.loc 1 523 0
 320 004c D368     		ldr	r3, [r2, #12]
 321 004e A342     		cmp	r3, r4
 322 0050 21D0     		beq	.L75
 323              		.loc 1 523 0 discriminator 5
 324 0052 2BB1     		cbz	r3, .L76
 325              	.L63:
 326              		.loc 1 523 0 discriminator 7
 327 0054 DA68     		ldr	r2, [r3, #12]
 328 0056 A242     		cmp	r2, r4
 329 0058 13D0     		beq	.L77
 330              		.loc 1 523 0
 331 005a 1346     		mov	r3, r2
 332 005c 002B     		cmp	r3, #0
 333 005e F9D1     		bne	.L63
 334              	.L76:
 335 0060 0B60     		str	r3, [r1, #0]
 336              	.L58:
 337              		.loc 1 523 0 discriminator 6
ARM GAS  /tmp/ccqErZ7k.s 			page 7


 338 0062 0023     		movs	r3, #0
 339 0064 E360     		str	r3, [r4, #12]
 340              	.L56:
 341              		.loc 1 525 0 is_stmt 1
 342 0066 0220     		movs	r0, #2
 343              	.LVL24:
 344 0068 2146     		mov	r1, r4
 345 006a FFF7FEFF 		bl	memp_free
 346              	.LVL25:
 347              		.loc 1 533 0
 348 006e 0E4B     		ldr	r3, .L78+8
 349              		.loc 1 527 0
 350 0070 0E49     		ldr	r1, .L78+12
 351              		.loc 1 533 0
 352 0072 1A68     		ldr	r2, [r3, #0]
 353              		.loc 1 527 0
 354 0074 A961     		str	r1, [r5, #24]
 355              		.loc 1 533 0
 356 0076 EA60     		str	r2, [r5, #12]
 357 0078 1D60     		str	r5, [r3, #0]
 358 007a FFF7FEFF 		bl	tcp_timer_needed
 359              	.LVL26:
 360              		.loc 1 534 0
 361 007e 2846     		mov	r0, r5
 362 0080 38BD     		pop	{r3, r4, r5, pc}
 363              	.LVL27:
 364              	.L77:
 365 0082 0B60     		str	r3, [r1, #0]
 366              	.L60:
 367              		.loc 1 523 0 discriminator 4
 368 0084 E268     		ldr	r2, [r4, #12]
 369 0086 DA60     		str	r2, [r3, #12]
 370 0088 0023     		movs	r3, #0
 371 008a E360     		str	r3, [r4, #12]
 372 008c EBE7     		b	.L56
 373              	.LVL28:
 374              	.L73:
 375              		.loc 1 488 0 discriminator 1
 376 008e FFF7FEFF 		bl	port_halt
 377              	.LVL29:
 378              	.L72:
 379 0092 0020     		movs	r0, #0
 380 0094 38BD     		pop	{r3, r4, r5, pc}
 381              	.LVL30:
 382              	.L75:
 383              		.loc 1 523 0
 384 0096 1346     		mov	r3, r2
 385 0098 F4E7     		b	.L60
 386              	.L74:
 387              		.loc 1 523 0 is_stmt 0 discriminator 1
 388 009a E268     		ldr	r2, [r4, #12]
 389 009c 1A60     		str	r2, [r3, #0]
 390 009e E0E7     		b	.L58
 391              	.L79:
 392              		.align	2
 393              	.L78:
 394 00a0 00000000 		.word	.LANCHOR2
ARM GAS  /tmp/ccqErZ7k.s 			page 8


 395 00a4 00000000 		.word	.LANCHOR3
 396 00a8 00000000 		.word	.LANCHOR4
 397 00ac 00000000 		.word	tcp_accept_null
 398              		.cfi_endproc
 399              	.LFE15:
 400              		.size	tcp_listen_with_backlog, .-tcp_listen_with_backlog
 401              		.section	.text.tcp_update_rcv_ann_wnd,"ax",%progbits
 402              		.align	2
 403              		.p2align 4,,15
 404              		.global	tcp_update_rcv_ann_wnd
 405              		.thumb
 406              		.thumb_func
 407              		.type	tcp_update_rcv_ann_wnd, %function
 408              	tcp_update_rcv_ann_wnd:
 409              	.LFB16:
 410              		.loc 1 544 0 is_stmt 1
 411              		.cfi_startproc
 412              		@ args = 0, pretend = 0, frame = 0
 413              		@ frame_needed = 0, uses_anonymous_args = 0
 414              	.LVL31:
 415 0000 38B5     		push	{r3, r4, r5, lr}
 416              	.LCFI3:
 417              		.cfi_def_cfa_offset 16
 418              		.cfi_offset 3, -16
 419              		.cfi_offset 4, -12
 420              		.cfi_offset 5, -8
 421              		.cfi_offset 14, -4
 422              		.loc 1 547 0
 423 0002 C16A     		ldr	r1, [r0, #44]
 424              		.loc 1 545 0
 425 0004 038D     		ldrh	r3, [r0, #40]
 426 0006 426A     		ldr	r2, [r0, #36]
 427              	.LVL32:
 428              		.loc 1 547 0
 429 0008 058F     		ldrh	r5, [r0, #56]
 430              		.loc 1 544 0
 431 000a 0446     		mov	r4, r0
 432              		.loc 1 545 0
 433 000c 581A     		subs	r0, r3, r1
 434              	.LVL33:
 435              		.loc 1 547 0
 436 000e B5F5866F 		cmp	r5, #1072
 437 0012 28BF     		it	cs
 438 0014 4FF48665 		movcs	r5, #1072
 439 0018 8018     		adds	r0, r0, r2
 440 001a 451B     		subs	r5, r0, r5
 441 001c 002D     		cmp	r5, #0
 442 001e 01DB     		blt	.L82
 443              		.loc 1 549 0
 444 0020 6385     		strh	r3, [r4, #42]	@ movhi
 445              		.loc 1 550 0
 446 0022 38BD     		pop	{r3, r4, r5, pc}
 447              	.L82:
 448              		.loc 1 552 0
 449 0024 531A     		subs	r3, r2, r1
 450              	.LVL34:
 451 0026 002B     		cmp	r3, #0
ARM GAS  /tmp/ccqErZ7k.s 			page 9


 452 0028 02DD     		ble	.L84
 453              		.loc 1 555 0
 454 002a 0020     		movs	r0, #0
 455 002c 6085     		strh	r0, [r4, #42]	@ movhi
 456 002e 38BD     		pop	{r3, r4, r5, pc}
 457              	.L84:
 458              	.LBB7:
 459              		.loc 1 558 0
 460 0030 8D1A     		subs	r5, r1, r2
 461              	.LVL35:
 462              		.loc 1 559 0
 463 0032 B5F5803F 		cmp	r5, #65536
 464 0036 02D2     		bcs	.L87
 465              	.LVL36:
 466              	.L85:
 467              		.loc 1 560 0
 468 0038 6585     		strh	r5, [r4, #42]	@ movhi
 469              		.loc 1 562 0
 470 003a 0020     		movs	r0, #0
 471              	.LBE7:
 472              		.loc 1 564 0
 473 003c 38BD     		pop	{r3, r4, r5, pc}
 474              	.LVL37:
 475              	.L87:
 476              	.LBB8:
 477              		.loc 1 559 0 discriminator 1
 478 003e FFF7FEFF 		bl	port_halt
 479              	.LVL38:
 480 0042 F9E7     		b	.L85
 481              	.LBE8:
 482              		.cfi_endproc
 483              	.LFE16:
 484              		.size	tcp_update_rcv_ann_wnd, .-tcp_update_rcv_ann_wnd
 485 0044 AFF30080 		.section	.text.tcp_recved,"ax",%progbits
 485      AFF30080 
 485      AFF30080 
 486              		.align	2
 487              		.p2align 4,,15
 488              		.global	tcp_recved
 489              		.thumb
 490              		.thumb_func
 491              		.type	tcp_recved, %function
 492              	tcp_recved:
 493              	.LFB17:
 494              		.loc 1 576 0
 495              		.cfi_startproc
 496              		@ args = 0, pretend = 0, frame = 0
 497              		@ frame_needed = 0, uses_anonymous_args = 0
 498              	.LVL39:
 499              		.loc 1 579 0
 500 0000 028D     		ldrh	r2, [r0, #40]
 501              		.loc 1 576 0
 502 0002 38B5     		push	{r3, r4, r5, lr}
 503              	.LCFI4:
 504              		.cfi_def_cfa_offset 16
 505              		.cfi_offset 3, -16
 506              		.cfi_offset 4, -12
ARM GAS  /tmp/ccqErZ7k.s 			page 10


 507              		.cfi_offset 5, -8
 508              		.cfi_offset 14, -4
 509              		.loc 1 579 0
 510 0004 C2F57F43 		rsb	r3, r2, #65280
 511 0008 FF33     		adds	r3, r3, #255
 512 000a 8B42     		cmp	r3, r1
 513              		.loc 1 576 0
 514 000c 0446     		mov	r4, r0
 515 000e 0D46     		mov	r5, r1
 516              		.loc 1 579 0
 517 0010 1ADB     		blt	.L93
 518              	.LVL40:
 519              	.L89:
 520              		.loc 1 582 0
 521 0012 5219     		adds	r2, r2, r5
 522 0014 92B2     		uxth	r2, r2
 523              		.loc 1 583 0
 524 0016 B2F5066F 		cmp	r2, #2144
 525              		.loc 1 584 0
 526 001a 8ABF     		itet	hi
 527 001c 4FF40663 		movhi	r3, #2144
 528              		.loc 1 582 0
 529 0020 2285     		strhls	r2, [r4, #40]	@ movhi
 530              		.loc 1 584 0
 531 0022 2385     		strhhi	r3, [r4, #40]	@ movhi
 532              		.loc 1 587 0
 533 0024 2046     		mov	r0, r4
 534 0026 FFF7FEFF 		bl	tcp_update_rcv_ann_wnd
 535              	.LVL41:
 536              		.loc 1 593 0
 537 002a B0F5067F 		cmp	r0, #536
 538 002e 00DA     		bge	.L94
 539 0030 38BD     		pop	{r3, r4, r5, pc}
 540              	.L94:
 541              		.loc 1 594 0
 542 0032 94F82030 		ldrb	r3, [r4, #32]	@ zero_extendqisi2
 543              		.loc 1 595 0
 544 0036 2046     		mov	r0, r4
 545              	.LVL42:
 546              		.loc 1 594 0
 547 0038 43F00203 		orr	r3, r3, #2
 548 003c 84F82030 		strb	r3, [r4, #32]
 549              		.loc 1 600 0
 550 0040 BDE83840 		pop	{r3, r4, r5, lr}
 551              		.loc 1 595 0
 552 0044 FFF7FEBF 		b	tcp_output
 553              	.LVL43:
 554              	.L93:
 555              		.loc 1 579 0 discriminator 1
 556 0048 FFF7FEFF 		bl	port_halt
 557              	.LVL44:
 558 004c 228D     		ldrh	r2, [r4, #40]
 559 004e E0E7     		b	.L89
 560              		.cfi_endproc
 561              	.LFE17:
 562              		.size	tcp_recved, .-tcp_recved
 563              		.section	.text.tcp_seg_free,"ax",%progbits
ARM GAS  /tmp/ccqErZ7k.s 			page 11


 564              		.align	2
 565              		.p2align 4,,15
 566              		.global	tcp_seg_free
 567              		.thumb
 568              		.thumb_func
 569              		.type	tcp_seg_free, %function
 570              	tcp_seg_free:
 571              	.LFB23:
 572              		.loc 1 1047 0
 573              		.cfi_startproc
 574              		@ args = 0, pretend = 0, frame = 0
 575              		@ frame_needed = 0, uses_anonymous_args = 0
 576              	.LVL45:
 577 0000 10B5     		push	{r4, lr}
 578              	.LCFI5:
 579              		.cfi_def_cfa_offset 8
 580              		.cfi_offset 4, -8
 581              		.cfi_offset 14, -4
 582              		.loc 1 1048 0
 583 0002 0446     		mov	r4, r0
 584 0004 48B1     		cbz	r0, .L95
 585              		.loc 1 1049 0
 586 0006 4068     		ldr	r0, [r0, #4]
 587              	.LVL46:
 588 0008 08B1     		cbz	r0, .L97
 589              		.loc 1 1050 0
 590 000a FFF7FEFF 		bl	pbuf_free
 591              	.LVL47:
 592              	.L97:
 593              		.loc 1 1055 0
 594 000e 0420     		movs	r0, #4
 595 0010 2146     		mov	r1, r4
 596              		.loc 1 1057 0
 597 0012 BDE81040 		pop	{r4, lr}
 598              		.loc 1 1055 0
 599 0016 FFF7FEBF 		b	memp_free
 600              	.LVL48:
 601              	.L95:
 602 001a 10BD     		pop	{r4, pc}
 603              		.cfi_endproc
 604              	.LFE23:
 605              		.size	tcp_seg_free, .-tcp_seg_free
 606 001c AFF30080 		.section	.text.tcp_segs_free,"ax",%progbits
 607              		.align	2
 608              		.p2align 4,,15
 609              		.global	tcp_segs_free
 610              		.thumb
 611              		.thumb_func
 612              		.type	tcp_segs_free, %function
 613              	tcp_segs_free:
 614              	.LFB22:
 615              		.loc 1 1032 0
 616              		.cfi_startproc
 617              		@ args = 0, pretend = 0, frame = 0
 618              		@ frame_needed = 0, uses_anonymous_args = 0
 619              	.LVL49:
 620 0000 10B5     		push	{r4, lr}
ARM GAS  /tmp/ccqErZ7k.s 			page 12


 621              	.LCFI6:
 622              		.cfi_def_cfa_offset 8
 623              		.cfi_offset 4, -8
 624              		.cfi_offset 14, -4
 625              		.loc 1 1033 0
 626 0002 28B1     		cbz	r0, .L101
 627              	.L105:
 628              	.LBB9:
 629              		.loc 1 1034 0
 630 0004 0468     		ldr	r4, [r0, #0]
 631              	.LVL50:
 632              		.loc 1 1035 0
 633 0006 FFF7FEFF 		bl	tcp_seg_free
 634              	.LVL51:
 635              	.LBE9:
 636              		.loc 1 1033 0
 637 000a 2046     		mov	r0, r4
 638 000c 002C     		cmp	r4, #0
 639 000e F9D1     		bne	.L105
 640              	.LVL52:
 641              	.L101:
 642 0010 10BD     		pop	{r4, pc}
 643              		.cfi_endproc
 644              	.LFE22:
 645              		.size	tcp_segs_free, .-tcp_segs_free
 646 0012 00BFAFF3 		.section	.text.tcp_setprio,"ax",%progbits
 646      0080AFF3 
 646      0080AFF3 
 646      0080
 647              		.align	2
 648              		.p2align 4,,15
 649              		.global	tcp_setprio
 650              		.thumb
 651              		.thumb_func
 652              		.type	tcp_setprio, %function
 653              	tcp_setprio:
 654              	.LFB24:
 655              		.loc 1 1067 0
 656              		.cfi_startproc
 657              		@ args = 0, pretend = 0, frame = 0
 658              		@ frame_needed = 0, uses_anonymous_args = 0
 659              		@ link register save eliminated.
 660              	.LVL53:
 661              		.loc 1 1068 0
 662 0000 4174     		strb	r1, [r0, #17]
 663 0002 7047     		bx	lr
 664              		.cfi_endproc
 665              	.LFE24:
 666              		.size	tcp_setprio, .-tcp_setprio
 667 0004 AFF30080 		.section	.text.tcp_seg_copy,"ax",%progbits
 667      AFF30080 
 667      AFF30080 
 668              		.align	2
 669              		.p2align 4,,15
 670              		.global	tcp_seg_copy
 671              		.thumb
 672              		.thumb_func
ARM GAS  /tmp/ccqErZ7k.s 			page 13


 673              		.type	tcp_seg_copy, %function
 674              	tcp_seg_copy:
 675              	.LFB25:
 676              		.loc 1 1081 0
 677              		.cfi_startproc
 678              		@ args = 0, pretend = 0, frame = 0
 679              		@ frame_needed = 0, uses_anonymous_args = 0
 680              	.LVL54:
 681 0000 38B5     		push	{r3, r4, r5, lr}
 682              	.LCFI7:
 683              		.cfi_def_cfa_offset 16
 684              		.cfi_offset 3, -16
 685              		.cfi_offset 4, -12
 686              		.cfi_offset 5, -8
 687              		.cfi_offset 14, -4
 688              		.loc 1 1081 0
 689 0002 0546     		mov	r5, r0
 690              		.loc 1 1084 0
 691 0004 0420     		movs	r0, #4
 692              	.LVL55:
 693 0006 FFF7FEFF 		bl	memp_malloc
 694              	.LVL56:
 695              		.loc 1 1085 0
 696 000a 0446     		mov	r4, r0
 697 000c 50B1     		cbz	r0, .L109
 698              		.loc 1 1088 0
 699 000e 6868     		ldr	r0, [r5, #4]	@ unaligned
 700              	.LVL57:
 701 0010 2968     		ldr	r1, [r5, #0]	@ unaligned
 702 0012 AA68     		ldr	r2, [r5, #8]	@ unaligned
 703 0014 EB68     		ldr	r3, [r5, #12]	@ unaligned
 704 0016 6060     		str	r0, [r4, #4]	@ unaligned
 705 0018 2160     		str	r1, [r4, #0]	@ unaligned
 706 001a A260     		str	r2, [r4, #8]	@ unaligned
 707 001c E360     		str	r3, [r4, #12]	@ unaligned
 708              		.loc 1 1089 0
 709 001e 6068     		ldr	r0, [r4, #4]
 710 0020 FFF7FEFF 		bl	pbuf_ref
 711              	.LVL58:
 712              	.L109:
 713              		.loc 1 1091 0
 714 0024 2046     		mov	r0, r4
 715 0026 38BD     		pop	{r3, r4, r5, pc}
 716              		.cfi_endproc
 717              	.LFE25:
 718              		.size	tcp_seg_copy, .-tcp_seg_copy
 719 0028 AFF30080 		.section	.text.tcp_arg,"ax",%progbits
 719      AFF30080 
 720              		.align	2
 721              		.p2align 4,,15
 722              		.global	tcp_arg
 723              		.thumb
 724              		.thumb_func
 725              		.type	tcp_arg, %function
 726              	tcp_arg:
 727              	.LFB31:
 728              		.loc 1 1278 0
ARM GAS  /tmp/ccqErZ7k.s 			page 14


 729              		.cfi_startproc
 730              		@ args = 0, pretend = 0, frame = 0
 731              		@ frame_needed = 0, uses_anonymous_args = 0
 732              		@ link register save eliminated.
 733              	.LVL59:
 734              		.loc 1 1279 0
 735 0000 4161     		str	r1, [r0, #20]
 736 0002 7047     		bx	lr
 737              		.cfi_endproc
 738              	.LFE31:
 739              		.size	tcp_arg, .-tcp_arg
 740 0004 AFF30080 		.section	.text.tcp_recv,"ax",%progbits
 740      AFF30080 
 740      AFF30080 
 741              		.align	2
 742              		.p2align 4,,15
 743              		.global	tcp_recv
 744              		.thumb
 745              		.thumb_func
 746              		.type	tcp_recv, %function
 747              	tcp_recv:
 748              	.LFB32:
 749              		.loc 1 1292 0
 750              		.cfi_startproc
 751              		@ args = 0, pretend = 0, frame = 0
 752              		@ frame_needed = 0, uses_anonymous_args = 0
 753              		@ link register save eliminated.
 754              	.LVL60:
 755              		.loc 1 1293 0
 756 0000 C0F88810 		str	r1, [r0, #136]
 757 0004 7047     		bx	lr
 758              		.cfi_endproc
 759              	.LFE32:
 760              		.size	tcp_recv, .-tcp_recv
 761 0006 00BFAFF3 		.section	.text.tcp_sent,"ax",%progbits
 761      0080AFF3 
 761      0080
 762              		.align	2
 763              		.p2align 4,,15
 764              		.global	tcp_sent
 765              		.thumb
 766              		.thumb_func
 767              		.type	tcp_sent, %function
 768              	tcp_sent:
 769              	.LFB33:
 770              		.loc 1 1305 0
 771              		.cfi_startproc
 772              		@ args = 0, pretend = 0, frame = 0
 773              		@ frame_needed = 0, uses_anonymous_args = 0
 774              		@ link register save eliminated.
 775              	.LVL61:
 776              		.loc 1 1306 0
 777 0000 C0F88410 		str	r1, [r0, #132]
 778 0004 7047     		bx	lr
 779              		.cfi_endproc
 780              	.LFE33:
 781              		.size	tcp_sent, .-tcp_sent
ARM GAS  /tmp/ccqErZ7k.s 			page 15


 782 0006 00BFAFF3 		.section	.text.tcp_err,"ax",%progbits
 782      0080AFF3 
 782      0080
 783              		.align	2
 784              		.p2align 4,,15
 785              		.global	tcp_err
 786              		.thumb
 787              		.thumb_func
 788              		.type	tcp_err, %function
 789              	tcp_err:
 790              	.LFB34:
 791              		.loc 1 1319 0
 792              		.cfi_startproc
 793              		@ args = 0, pretend = 0, frame = 0
 794              		@ frame_needed = 0, uses_anonymous_args = 0
 795              		@ link register save eliminated.
 796              	.LVL62:
 797              		.loc 1 1320 0
 798 0000 C0F89410 		str	r1, [r0, #148]
 799 0004 7047     		bx	lr
 800              		.cfi_endproc
 801              	.LFE34:
 802              		.size	tcp_err, .-tcp_err
 803 0006 00BFAFF3 		.section	.text.tcp_accept,"ax",%progbits
 803      0080AFF3 
 803      0080
 804              		.align	2
 805              		.p2align 4,,15
 806              		.global	tcp_accept
 807              		.thumb
 808              		.thumb_func
 809              		.type	tcp_accept, %function
 810              	tcp_accept:
 811              	.LFB35:
 812              		.loc 1 1333 0
 813              		.cfi_startproc
 814              		@ args = 0, pretend = 0, frame = 0
 815              		@ frame_needed = 0, uses_anonymous_args = 0
 816              		@ link register save eliminated.
 817              	.LVL63:
 818              		.loc 1 1334 0
 819 0000 8161     		str	r1, [r0, #24]
 820 0002 7047     		bx	lr
 821              		.cfi_endproc
 822              	.LFE35:
 823              		.size	tcp_accept, .-tcp_accept
 824 0004 AFF30080 		.section	.text.tcp_poll,"ax",%progbits
 824      AFF30080 
 824      AFF30080 
 825              		.align	2
 826              		.p2align 4,,15
 827              		.global	tcp_poll
 828              		.thumb
 829              		.thumb_func
 830              		.type	tcp_poll, %function
 831              	tcp_poll:
 832              	.LFB36:
ARM GAS  /tmp/ccqErZ7k.s 			page 16


 833              		.loc 1 1347 0
 834              		.cfi_startproc
 835              		@ args = 0, pretend = 0, frame = 0
 836              		@ frame_needed = 0, uses_anonymous_args = 0
 837              		@ link register save eliminated.
 838              	.LVL64:
 839              		.loc 1 1349 0
 840 0000 C0F89010 		str	r1, [r0, #144]
 841              		.loc 1 1353 0
 842 0004 80F83520 		strb	r2, [r0, #53]
 843 0008 7047     		bx	lr
 844              		.cfi_endproc
 845              	.LFE36:
 846              		.size	tcp_poll, .-tcp_poll
 847 000a 00BFAFF3 		.section	.text.tcp_pcb_purge,"ax",%progbits
 847      0080
 848              		.align	2
 849              		.p2align 4,,15
 850              		.global	tcp_pcb_purge
 851              		.thumb
 852              		.thumb_func
 853              		.type	tcp_pcb_purge, %function
 854              	tcp_pcb_purge:
 855              	.LFB37:
 856              		.loc 1 1364 0
 857              		.cfi_startproc
 858              		@ args = 0, pretend = 0, frame = 0
 859              		@ frame_needed = 0, uses_anonymous_args = 0
 860              	.LVL65:
 861 0000 38B5     		push	{r3, r4, r5, lr}
 862              	.LCFI8:
 863              		.cfi_def_cfa_offset 16
 864              		.cfi_offset 3, -16
 865              		.cfi_offset 4, -12
 866              		.cfi_offset 5, -8
 867              		.cfi_offset 14, -4
 868              		.loc 1 1365 0
 869 0002 037C     		ldrb	r3, [r0, #16]	@ zero_extendqisi2
 870 0004 0A2B     		cmp	r3, #10
 871 0006 18BF     		it	ne
 872 0008 002B     		cmpne	r3, #0
 873              		.loc 1 1364 0
 874 000a 0446     		mov	r4, r0
 875              		.loc 1 1365 0
 876 000c 1BD0     		beq	.L119
 877              		.loc 1 1366 0
 878 000e 012B     		cmp	r3, #1
 879 0010 19D0     		beq	.L119
 880              	.LVL66:
 881              	.LBB12:
 882              	.LBB13:
 883              		.loc 1 1392 0
 884 0012 D0F88000 		ldr	r0, [r0, #128]
 885              	.LVL67:
 886 0016 20B1     		cbz	r0, .L121
 887              		.loc 1 1394 0
 888 0018 FFF7FEFF 		bl	pbuf_free
ARM GAS  /tmp/ccqErZ7k.s 			page 17


 889              	.LVL68:
 890              		.loc 1 1395 0
 891 001c 0023     		movs	r3, #0
 892 001e C4F88030 		str	r3, [r4, #128]
 893              	.L121:
 894              		.loc 1 1407 0
 895 0022 E06F     		ldr	r0, [r4, #124]
 896 0024 FFF7FEFF 		bl	tcp_segs_free
 897              	.LVL69:
 898              		.loc 1 1408 0
 899 0028 0025     		movs	r5, #0
 900              		.loc 1 1413 0
 901 002a 4FF6FF73 		movw	r3, #65535
 902              		.loc 1 1415 0
 903 002e 606F     		ldr	r0, [r4, #116]
 904              		.loc 1 1413 0
 905 0030 E386     		strh	r3, [r4, #54]	@ movhi
 906              		.loc 1 1408 0
 907 0032 E567     		str	r5, [r4, #124]
 908              		.loc 1 1415 0
 909 0034 FFF7FEFF 		bl	tcp_segs_free
 910              	.LVL70:
 911              		.loc 1 1416 0
 912 0038 A06F     		ldr	r0, [r4, #120]
 913 003a FFF7FEFF 		bl	tcp_segs_free
 914              	.LVL71:
 915              		.loc 1 1417 0
 916 003e 6567     		str	r5, [r4, #116]
 917 0040 A567     		str	r5, [r4, #120]
 918              		.loc 1 1419 0
 919 0042 A4F87250 		strh	r5, [r4, #114]	@ movhi
 920              	.LVL72:
 921              	.L119:
 922 0046 38BD     		pop	{r3, r4, r5, pc}
 923              	.LBE13:
 924              	.LBE12:
 925              		.cfi_endproc
 926              	.LFE37:
 927              		.size	tcp_pcb_purge, .-tcp_pcb_purge
 928 0048 AFF30080 		.section	.text.tcp_slowtmr,"ax",%progbits
 928      AFF30080 
 929              		.align	2
 930              		.p2align 4,,15
 931              		.global	tcp_slowtmr
 932              		.thumb
 933              		.thumb_func
 934              		.type	tcp_slowtmr, %function
 935              	tcp_slowtmr:
 936              	.LFB20:
 937              		.loc 1 751 0
 938              		.cfi_startproc
 939              		@ args = 0, pretend = 0, frame = 8
 940              		@ frame_needed = 0, uses_anonymous_args = 0
 941              	.LVL73:
 942 0000 2DE9F04F 		push	{r4, r5, r6, r7, r8, r9, sl, fp, lr}
 943              	.LCFI9:
 944              		.cfi_def_cfa_offset 36
ARM GAS  /tmp/ccqErZ7k.s 			page 18


 945              		.cfi_offset 4, -36
 946              		.cfi_offset 5, -32
 947              		.cfi_offset 6, -28
 948              		.cfi_offset 7, -24
 949              		.cfi_offset 8, -20
 950              		.cfi_offset 9, -16
 951              		.cfi_offset 10, -12
 952              		.cfi_offset 11, -8
 953              		.cfi_offset 14, -4
 954              		.loc 1 760 0
 955 0004 B34D     		ldr	r5, .L219
 956              		.loc 1 764 0
 957 0006 DFF8D4A2 		ldr	sl, .L219+8
 958              		.loc 1 760 0
 959 000a 2B68     		ldr	r3, [r5, #0]
 960              		.loc 1 764 0
 961 000c DAF80040 		ldr	r4, [sl, #0]
 962              		.loc 1 760 0
 963 0010 0133     		adds	r3, r3, #1
 964              		.loc 1 751 0
 965 0012 85B0     		sub	sp, sp, #20
 966              	.LCFI10:
 967              		.cfi_def_cfa_offset 56
 968              		.loc 1 760 0
 969 0014 2B60     		str	r3, [r5, #0]
 970              	.LVL74:
 971              		.loc 1 768 0
 972 0016 002C     		cmp	r4, #0
 973 0018 00F09780 		beq	.L164
 974              		.loc 1 868 0
 975 001c 42F2F84B 		movw	fp, #9464
 976              		.loc 1 768 0
 977 0020 0026     		movs	r6, #0
 978              		.loc 1 852 0
 979 0022 44F6D359 		movw	r9, #19923
 980              		.loc 1 868 0
 981 0026 C0F2010B 		movt	fp, 1
 982              		.loc 1 774 0
 983 002a B046     		mov	r8, r6
 984              		.loc 1 852 0
 985 002c C1F26209 		movt	r9, 4194
 986              		.loc 1 868 0
 987 0030 CDF80CB0 		str	fp, [sp, #12]
 988              	.LVL75:
 989              	.L132:
 990              		.loc 1 770 0
 991 0034 237C     		ldrb	r3, [r4, #16]	@ zero_extendqisi2
 992 0036 002B     		cmp	r3, #0
 993 0038 00F02181 		beq	.L207
 994              		.loc 1 771 0
 995 003c 012B     		cmp	r3, #1
 996 003e 00F02481 		beq	.L208
 997              	.L136:
 998              		.loc 1 772 0
 999 0042 0A2B     		cmp	r3, #10
 1000 0044 00F02781 		beq	.L209
 1001              	.L137:
ARM GAS  /tmp/ccqErZ7k.s 			page 19


 1002              	.LVL76:
 1003              		.loc 1 777 0
 1004 0048 022B     		cmp	r3, #2
 1005 004a 94F84A10 		ldrb	r1, [r4, #74]	@ zero_extendqisi2
 1006 004e 00F02A81 		beq	.L138
 1007              	.L139:
 1008              		.loc 1 781 0
 1009 0052 0C29     		cmp	r1, #12
 1010              		.loc 1 782 0
 1011 0054 08BF     		it	eq
 1012 0056 4FF0010B 		moveq	fp, #1
 1013              		.loc 1 781 0
 1014 005a 20D0     		beq	.L141
 1015              		.loc 1 785 0
 1016 005c 94F8A020 		ldrb	r2, [r4, #160]	@ zero_extendqisi2
 1017 0060 002A     		cmp	r2, #0
 1018 0062 00F0D280 		beq	.L142
 1019              		.loc 1 789 0
 1020 0066 40F20001 		movw	r1, #:lower16:.LANCHOR8
 1021 006a C0F20001 		movt	r1, #:upper16:.LANCHOR8
 1022 006e 8818     		adds	r0, r1, r2
 1023              		.loc 1 788 0
 1024 0070 D4F89C10 		ldr	r1, [r4, #156]
 1025              		.loc 1 789 0
 1026 0074 10F8010C 		ldrb	r0, [r0, #-1]	@ zero_extendqisi2
 1027              		.loc 1 788 0
 1028 0078 0131     		adds	r1, r1, #1
 1029              		.loc 1 789 0
 1030 007a 8142     		cmp	r1, r0
 1031              		.loc 1 788 0
 1032 007c C4F89C10 		str	r1, [r4, #156]
 1033              		.loc 1 789 0
 1034 0080 C0F0B480 		bcc	.L180
 1035              		.loc 1 791 0
 1036 0084 062A     		cmp	r2, #6
 1037              		.loc 1 790 0
 1038 0086 C4F89C80 		str	r8, [r4, #156]
 1039              		.loc 1 791 0
 1040 008a 02D8     		bhi	.L143
 1041              		.loc 1 792 0
 1042 008c 0132     		adds	r2, r2, #1
 1043 008e 84F8A020 		strb	r2, [r4, #160]
 1044              	.L143:
 1045              		.loc 1 794 0
 1046 0092 2046     		mov	r0, r4
 1047 0094 FFF7FEFF 		bl	tcp_zero_window_probe
 1048              	.LVL77:
 1049 0098 237C     		ldrb	r3, [r4, #16]	@ zero_extendqisi2
 1050              		.loc 1 774 0
 1051 009a 4FF0000B 		mov	fp, #0
 1052              	.L141:
 1053              	.LVL78:
 1054              		.loc 1 834 0
 1055 009e 062B     		cmp	r3, #6
 1056 00a0 00F0A980 		beq	.L210
 1057              	.LVL79:
 1058              	.L140:
ARM GAS  /tmp/ccqErZ7k.s 			page 20


 1059              		.loc 1 843 0
 1060 00a4 277A     		ldrb	r7, [r4, #8]	@ zero_extendqisi2
 1061 00a6 07F00807 		and	r7, r7, #8
 1062 00aa FFB2     		uxtb	r7, r7
 1063 00ac D7B1     		cbz	r7, .L147
 1064              		.loc 1 843 0 is_stmt 0 discriminator 1
 1065 00ae 042B     		cmp	r3, #4
 1066 00b0 18BF     		it	ne
 1067 00b2 072B     		cmpne	r3, #7
 1068 00b4 14BF     		ite	ne
 1069 00b6 0027     		movne	r7, #0
 1070 00b8 0127     		moveq	r7, #1
 1071 00ba 13D1     		bne	.L147
 1072              		.loc 1 852 0 is_stmt 1
 1073 00bc D4F89810 		ldr	r1, [r4, #152]
 1074              		.loc 1 851 0
 1075 00c0 2868     		ldr	r0, [r5, #0]
 1076 00c2 236B     		ldr	r3, [r4, #48]
 1077              		.loc 1 852 0
 1078 00c4 01F52427 		add	r7, r1, #671744
 1079 00c8 07F6B847 		addw	r7, r7, #3256
 1080              		.loc 1 851 0
 1081 00cc C31A     		subs	r3, r0, r3
 1082              		.loc 1 852 0
 1083 00ce A9FB0720 		umull	r2, r0, r9, r7
 1084              		.loc 1 851 0
 1085 00d2 B3EB501F 		cmp	r3, r0, lsr #5
 1086 00d6 40F20381 		bls	.L148
 1087              		.loc 1 859 0
 1088 00da 0BF10102 		add	r2, fp, #1
 1089 00de 5FFA82FB 		uxtb	fp, r2
 1090              	.LVL80:
 1091              		.loc 1 860 0
 1092 00e2 0127     		movs	r7, #1
 1093              	.LVL81:
 1094              	.L147:
 1095              		.loc 1 881 0
 1096 00e4 E06F     		ldr	r0, [r4, #124]
 1097 00e6 50B1     		cbz	r0, .L149
 1098              		.loc 1 882 0 discriminator 1
 1099 00e8 2A68     		ldr	r2, [r5, #0]
 1100 00ea 216B     		ldr	r1, [r4, #48]
 1101 00ec B4F94830 		ldrsh	r3, [r4, #72]
 1102 00f0 511A     		subs	r1, r2, r1
 1103 00f2 03EB4303 		add	r3, r3, r3, lsl #1
 1104              		.loc 1 881 0 discriminator 1
 1105 00f6 B1EB430F 		cmp	r1, r3, lsl #1
 1106 00fa 80F0E580 		bcs	.L211
 1107              	.L149:
 1108              		.loc 1 890 0
 1109 00fe 237C     		ldrb	r3, [r4, #16]	@ zero_extendqisi2
 1110 0100 032B     		cmp	r3, #3
 1111 0102 00F0D780 		beq	.L212
 1112              		.loc 1 899 0
 1113 0106 092B     		cmp	r3, #9
 1114 0108 45D0     		beq	.L213
 1115              	.LVL82:
ARM GAS  /tmp/ccqErZ7k.s 			page 21


 1116              	.L152:
 1117              		.loc 1 907 0
 1118 010a BBF1000F 		cmp	fp, #0
 1119 010e 47D1     		bne	.L153
 1120              	.LVL83:
 1121              		.loc 1 935 0
 1122 0110 94F83430 		ldrb	r3, [r4, #52]	@ zero_extendqisi2
 1123              		.loc 1 936 0
 1124 0114 94F83510 		ldrb	r1, [r4, #53]	@ zero_extendqisi2
 1125              		.loc 1 932 0
 1126 0118 E768     		ldr	r7, [r4, #12]
 1127              	.LVL84:
 1128              		.loc 1 935 0
 1129 011a 0133     		adds	r3, r3, #1
 1130 011c DBB2     		uxtb	r3, r3
 1131              		.loc 1 936 0
 1132 011e 9942     		cmp	r1, r3
 1133              		.loc 1 935 0
 1134 0120 84F83430 		strb	r3, [r4, #52]
 1135              		.loc 1 936 0
 1136 0124 0CD8     		bhi	.L184
 1137              		.loc 1 939 0
 1138 0126 D4F89030 		ldr	r3, [r4, #144]
 1139              		.loc 1 937 0
 1140 012a 84F834B0 		strb	fp, [r4, #52]
 1141              		.loc 1 939 0
 1142 012e 002B     		cmp	r3, #0
 1143 0130 00F0EC80 		beq	.L163
 1144              		.loc 1 939 0 is_stmt 0 discriminator 1
 1145 0134 6069     		ldr	r0, [r4, #20]
 1146 0136 2146     		mov	r1, r4
 1147 0138 9847     		blx	r3
 1148              	.LVL85:
 1149              		.loc 1 941 0 is_stmt 1 discriminator 1
 1150 013a 0028     		cmp	r0, #0
 1151 013c 00F0E680 		beq	.L163
 1152              	.LVL86:
 1153              	.L184:
 1154              		.loc 1 936 0
 1155 0140 2646     		mov	r6, r4
 1156              	.LVL87:
 1157              		.loc 1 932 0
 1158 0142 3C46     		mov	r4, r7
 1159              	.LVL88:
 1160              		.loc 1 768 0
 1161 0144 002C     		cmp	r4, #0
 1162 0146 7FF475AF 		bne	.L132
 1163              	.LVL89:
 1164              	.L164:
 1165              		.loc 1 951 0
 1166 014a 634F     		ldr	r7, .L219+4
 1167 014c 3C68     		ldr	r4, [r7, #0]
 1168              	.LVL90:
 1169              		.loc 1 952 0
 1170 014e FCB1     		cbz	r4, .L131
 1171 0150 0026     		movs	r6, #0
 1172              	.LVL91:
ARM GAS  /tmp/ccqErZ7k.s 			page 22


 1173              	.L133:
 1174              		.loc 1 953 0
 1175 0152 237C     		ldrb	r3, [r4, #16]	@ zero_extendqisi2
 1176 0154 0A2B     		cmp	r3, #10
 1177 0156 01D0     		beq	.L165
 1178              		.loc 1 953 0 is_stmt 0 discriminator 1
 1179 0158 FFF7FEFF 		bl	port_halt
 1180              	.LVL92:
 1181              	.L165:
 1182              		.loc 1 957 0 is_stmt 1
 1183 015c 2A68     		ldr	r2, [r5, #0]
 1184 015e 236B     		ldr	r3, [r4, #48]
 1185 0160 D31A     		subs	r3, r2, r3
 1186 0162 F02B     		cmp	r3, #240
 1187 0164 3DD9     		bls	.L214
 1188              	.LVL93:
 1189              	.LBB14:
 1190              		.loc 1 966 0
 1191 0166 2046     		mov	r0, r4
 1192 0168 FFF7FEFF 		bl	tcp_pcb_purge
 1193              	.LVL94:
 1194              		.loc 1 968 0
 1195 016c 002E     		cmp	r6, #0
 1196 016e 00F0E180 		beq	.L215
 1197              		.loc 1 969 0
 1198 0172 3B68     		ldr	r3, [r7, #0]
 1199 0174 9C42     		cmp	r4, r3
 1200 0176 00F0EF80 		beq	.L216
 1201              	.L168:
 1202              		.loc 1 970 0
 1203 017a E368     		ldr	r3, [r4, #12]
 1204 017c F360     		str	r3, [r6, #12]
 1205 017e D4F80C80 		ldr	r8, [r4, #12]
 1206              	.L169:
 1207              	.LVL95:
 1208              		.loc 1 978 0
 1209 0182 2146     		mov	r1, r4
 1210 0184 0220     		movs	r0, #2
 1211              		.loc 1 977 0
 1212 0186 4446     		mov	r4, r8
 1213              	.LVL96:
 1214              		.loc 1 978 0
 1215 0188 FFF7FEFF 		bl	memp_free
 1216              	.LVL97:
 1217              	.LBE14:
 1218              		.loc 1 952 0
 1219 018c 002C     		cmp	r4, #0
 1220 018e E0D1     		bne	.L133
 1221              	.LVL98:
 1222              	.L131:
 1223              		.loc 1 984 0
 1224 0190 05B0     		add	sp, sp, #20
 1225 0192 BDE8F08F 		pop	{r4, r5, r6, r7, r8, r9, sl, fp, pc}
 1226              	.LVL99:
 1227              	.L213:
 1228              		.loc 1 900 0
 1229 0196 2968     		ldr	r1, [r5, #0]
ARM GAS  /tmp/ccqErZ7k.s 			page 23


 1230 0198 236B     		ldr	r3, [r4, #48]
 1231 019a CB1A     		subs	r3, r1, r3
 1232 019c F02B     		cmp	r3, #240
 1233 019e B4D9     		bls	.L152
 1234              	.LVL100:
 1235              	.L153:
 1236              	.LBB15:
 1237              		.loc 1 909 0
 1238 01a0 2046     		mov	r0, r4
 1239 01a2 FFF7FEFF 		bl	tcp_pcb_purge
 1240              	.LVL101:
 1241              		.loc 1 912 0
 1242 01a6 DAF80030 		ldr	r3, [sl, #0]
 1243              		.loc 1 911 0
 1244 01aa 002E     		cmp	r6, #0
 1245 01ac 00F0CC80 		beq	.L155
 1246              		.loc 1 912 0
 1247 01b0 9C42     		cmp	r4, r3
 1248 01b2 00F0D480 		beq	.L217
 1249              	.L156:
 1250              		.loc 1 913 0
 1251 01b6 E368     		ldr	r3, [r4, #12]
 1252 01b8 F360     		str	r3, [r6, #12]
 1253              	.L157:
 1254              		.loc 1 920 0
 1255 01ba D4F89430 		ldr	r3, [r4, #148]
 1256 01be 1BB1     		cbz	r3, .L159
 1257              		.loc 1 920 0 is_stmt 0 discriminator 1
 1258 01c0 6069     		ldr	r0, [r4, #20]
 1259 01c2 6FF00901 		mvn	r1, #9
 1260 01c6 9847     		blx	r3
 1261              	.LVL102:
 1262              	.L159:
 1263              		.loc 1 921 0 is_stmt 1
 1264 01c8 002F     		cmp	r7, #0
 1265 01ca 40F0A880 		bne	.L218
 1266              	.L160:
 1267              	.LVL103:
 1268              		.loc 1 927 0
 1269 01ce E768     		ldr	r7, [r4, #12]
 1270              	.LVL104:
 1271              		.loc 1 928 0
 1272 01d0 2146     		mov	r1, r4
 1273 01d2 0220     		movs	r0, #2
 1274              		.loc 1 927 0
 1275 01d4 3C46     		mov	r4, r7
 1276              	.LVL105:
 1277              		.loc 1 928 0
 1278 01d6 FFF7FEFF 		bl	memp_free
 1279              	.LVL106:
 1280              	.LBE15:
 1281              		.loc 1 768 0
 1282 01da 002C     		cmp	r4, #0
 1283 01dc 7FF42AAF 		bne	.L132
 1284 01e0 B3E7     		b	.L164
 1285              	.LVL107:
 1286              	.L214:
ARM GAS  /tmp/ccqErZ7k.s 			page 24


 1287              		.loc 1 981 0
 1288 01e2 2646     		mov	r6, r4
 1289 01e4 E468     		ldr	r4, [r4, #12]
 1290              	.LVL108:
 1291              		.loc 1 952 0
 1292 01e6 002C     		cmp	r4, #0
 1293 01e8 B3D1     		bne	.L133
 1294 01ea D1E7     		b	.L131
 1295              	.LVL109:
 1296              	.L180:
 1297              		.loc 1 834 0
 1298 01ec 062B     		cmp	r3, #6
 1299              		.loc 1 774 0
 1300 01ee 4FF0000B 		mov	fp, #0
 1301              	.LVL110:
 1302              		.loc 1 834 0
 1303 01f2 7FF457AF 		bne	.L140
 1304              	.LVL111:
 1305              	.L210:
 1306              		.loc 1 835 0
 1307 01f6 2868     		ldr	r0, [r5, #0]
 1308 01f8 216B     		ldr	r1, [r4, #48]
 1309 01fa 411A     		subs	r1, r0, r1
 1310 01fc 2829     		cmp	r1, #40
 1311              		.loc 1 837 0
 1312 01fe 84BF     		itt	hi
 1313 0200 0BF10102 		addhi	r2, fp, #1
 1314 0204 5FFA82FB 		uxtbhi	fp, r2
 1315              	.LVL112:
 1316 0208 4CE7     		b	.L140
 1317              	.LVL113:
 1318              	.L142:
 1319              		.loc 1 798 0
 1320 020a E28E     		ldrh	r2, [r4, #54]
 1321 020c 1004     		lsls	r0, r2, #16
 1322 020e 01D4     		bmi	.L144
 1323              		.loc 1 799 0
 1324 0210 0132     		adds	r2, r2, #1
 1325 0212 E286     		strh	r2, [r4, #54]	@ movhi
 1326              	.L144:
 1327              		.loc 1 801 0
 1328 0214 A26F     		ldr	r2, [r4, #120]
 1329 0216 002A     		cmp	r2, #0
 1330 0218 E8D0     		beq	.L180
 1331              		.loc 1 801 0 is_stmt 0 discriminator 1
 1332 021a B4F93600 		ldrsh	r0, [r4, #54]
 1333 021e B4F94820 		ldrsh	r2, [r4, #72]
 1334 0222 9042     		cmp	r0, r2
 1335 0224 E2DB     		blt	.L180
 1336              		.loc 1 809 0 is_stmt 1
 1337 0226 022B     		cmp	r3, #2
 1338 0228 0ED0     		beq	.L145
 1339              		.loc 1 810 0
 1340 022a 40F20007 		movw	r7, #:lower16:.LANCHOR9
 1341 022e C0F20007 		movt	r7, #:upper16:.LANCHOR9
 1342 0232 B4F94400 		ldrsh	r0, [r4, #68]
 1343 0236 B4F94630 		ldrsh	r3, [r4, #70]
ARM GAS  /tmp/ccqErZ7k.s 			page 25


 1344 023a 7A5C     		ldrb	r2, [r7, r1]	@ zero_extendqisi2
 1345 023c 03EBE003 		add	r3, r3, r0, asr #3
 1346 0240 03FA02F3 		lsl	r3, r3, r2
 1347 0244 A4F84830 		strh	r3, [r4, #72]	@ movhi
 1348              	.L145:
 1349              		.loc 1 817 0
 1350 0248 B4F85210 		ldrh	r1, [r4, #82]
 1351 024c B4F85C20 		ldrh	r2, [r4, #92]
 1352              		.loc 1 819 0
 1353 0250 238F     		ldrh	r3, [r4, #56]
 1354              		.loc 1 814 0
 1355 0252 A4F83680 		strh	r8, [r4, #54]	@ movhi
 1356              	.LVL114:
 1357              		.loc 1 818 0
 1358 0256 9142     		cmp	r1, r2
 1359 0258 38BF     		it	cc
 1360 025a 0A46     		movcc	r2, r1
 1361 025c 5208     		lsrs	r2, r2, #1
 1362              		.loc 1 819 0
 1363 025e 5900     		lsls	r1, r3, #1
 1364 0260 8A42     		cmp	r2, r1
 1365              		.loc 1 818 0
 1366 0262 A4F85420 		strh	r2, [r4, #84]	@ movhi
 1367              		.loc 1 822 0
 1368 0266 A4F85230 		strh	r3, [r4, #82]	@ movhi
 1369              		.loc 1 820 0
 1370 026a B8BF     		it	lt
 1371 026c A4F85410 		strhlt	r1, [r4, #84]	@ movhi
 1372              		.loc 1 829 0
 1373 0270 2046     		mov	r0, r4
 1374 0272 FFF7FEFF 		bl	tcp_rexmit_rto
 1375              	.LVL115:
 1376              		.loc 1 774 0
 1377 0276 4FF0000B 		mov	fp, #0
 1378 027a 237C     		ldrb	r3, [r4, #16]	@ zero_extendqisi2
 1379 027c 0FE7     		b	.L141
 1380              	.LVL116:
 1381              	.L207:
 1382              		.loc 1 770 0 discriminator 1
 1383 027e FFF7FEFF 		bl	port_halt
 1384              	.LVL117:
 1385 0282 237C     		ldrb	r3, [r4, #16]	@ zero_extendqisi2
 1386              		.loc 1 771 0 discriminator 1
 1387 0284 012B     		cmp	r3, #1
 1388 0286 7FF4DCAE 		bne	.L136
 1389              	.L208:
 1390 028a FFF7FEFF 		bl	port_halt
 1391              	.LVL118:
 1392 028e 237C     		ldrb	r3, [r4, #16]	@ zero_extendqisi2
 1393              		.loc 1 772 0 discriminator 1
 1394 0290 0A2B     		cmp	r3, #10
 1395 0292 7FF4D9AE 		bne	.L137
 1396              	.L209:
 1397 0296 FFF7FEFF 		bl	port_halt
 1398              	.LVL119:
 1399 029a 237C     		ldrb	r3, [r4, #16]	@ zero_extendqisi2
 1400              	.LVL120:
ARM GAS  /tmp/ccqErZ7k.s 			page 26


 1401              		.loc 1 777 0 discriminator 1
 1402 029c 94F84A10 		ldrb	r1, [r4, #74]	@ zero_extendqisi2
 1403 02a0 022B     		cmp	r3, #2
 1404 02a2 7FF4D6AE 		bne	.L139
 1405              	.L138:
 1406 02a6 0629     		cmp	r1, #6
 1407              		.loc 1 778 0 discriminator 1
 1408 02a8 08BF     		it	eq
 1409 02aa 4FF0010B 		moveq	fp, #1
 1410              		.loc 1 777 0 discriminator 1
 1411 02ae 7FF4D0AE 		bne	.L139
 1412 02b2 F7E6     		b	.L140
 1413              	.LVL121:
 1414              	.L212:
 1415              		.loc 1 891 0
 1416 02b4 2968     		ldr	r1, [r5, #0]
 1417 02b6 236B     		ldr	r3, [r4, #48]
 1418 02b8 CB1A     		subs	r3, r1, r3
 1419 02ba 282B     		cmp	r3, #40
 1420              		.loc 1 893 0
 1421 02bc 84BF     		itt	hi
 1422 02be 0BF10102 		addhi	r2, fp, #1
 1423 02c2 5FFA82FB 		uxtbhi	fp, r2
 1424              	.LVL122:
 1425 02c6 20E7     		b	.L152
 1426              	.LVL123:
 1427              	.L211:
 1428              		.loc 1 883 0
 1429 02c8 FFF7FEFF 		bl	tcp_segs_free
 1430              	.LVL124:
 1431              		.loc 1 884 0
 1432 02cc C4F87C80 		str	r8, [r4, #124]
 1433 02d0 15E7     		b	.L149
 1434              	.L220:
 1435 02d2 00BF     		.align	2
 1436              	.L219:
 1437 02d4 00000000 		.word	.LANCHOR5
 1438 02d8 00000000 		.word	.LANCHOR7
 1439 02dc 00000000 		.word	.LANCHOR6
 1440              	.LVL125:
 1441              	.L148:
 1442              		.loc 1 868 0
 1443 02e0 039F     		ldr	r7, [sp, #12]
 1444 02e2 94F8A100 		ldrb	r0, [r4, #161]	@ zero_extendqisi2
 1445 02e6 07FB0011 		mla	r1, r7, r0, r1
 1446              		.loc 1 869 0
 1447 02ea A9FB0121 		umull	r2, r1, r9, r1
 1448              		.loc 1 775 0
 1449 02ee 0027     		movs	r7, #0
 1450              		.loc 1 867 0
 1451 02f0 B3EB511F 		cmp	r3, r1, lsr #5
 1452 02f4 7FF6F6AE 		bls	.L147
 1453              		.loc 1 872 0
 1454 02f8 2046     		mov	r0, r4
 1455 02fa FFF7FEFF 		bl	tcp_keepalive
 1456              	.LVL126:
 1457              		.loc 1 873 0
ARM GAS  /tmp/ccqErZ7k.s 			page 27


 1458 02fe 94F8A130 		ldrb	r3, [r4, #161]	@ zero_extendqisi2
 1459 0302 0133     		adds	r3, r3, #1
 1460 0304 84F8A130 		strb	r3, [r4, #161]
 1461              		.loc 1 775 0
 1462 0308 0027     		movs	r7, #0
 1463 030a EBE6     		b	.L147
 1464              	.LVL127:
 1465              	.L163:
 1466              		.loc 1 942 0
 1467 030c 2046     		mov	r0, r4
 1468 030e 2646     		mov	r6, r4
 1469              		.loc 1 932 0
 1470 0310 3C46     		mov	r4, r7
 1471              	.LVL128:
 1472              		.loc 1 942 0
 1473 0312 FFF7FEFF 		bl	tcp_output
 1474              	.LVL129:
 1475              		.loc 1 768 0
 1476 0316 002C     		cmp	r4, #0
 1477 0318 7FF48CAE 		bne	.L132
 1478 031c 15E7     		b	.L164
 1479              	.LVL130:
 1480              	.L218:
 1481              	.LBB16:
 1482              		.loc 1 922 0
 1483 031e A38B     		ldrh	r3, [r4, #28]
 1484 0320 A06D     		ldr	r0, [r4, #88]
 1485 0322 616A     		ldr	r1, [r4, #36]
 1486 0324 0093     		str	r3, [sp, #0]
 1487 0326 E38B     		ldrh	r3, [r4, #30]
 1488 0328 2246     		mov	r2, r4
 1489 032a 0193     		str	r3, [sp, #4]
 1490 032c 231D     		adds	r3, r4, #4
 1491 032e FFF7FEFF 		bl	tcp_rst
 1492              	.LVL131:
 1493 0332 4CE7     		b	.L160
 1494              	.LVL132:
 1495              	.L215:
 1496              	.LBE16:
 1497              	.LBB17:
 1498              		.loc 1 973 0
 1499 0334 3B68     		ldr	r3, [r7, #0]
 1500 0336 A342     		cmp	r3, r4
 1501 0338 01D0     		beq	.L170
 1502              		.loc 1 973 0 is_stmt 0 discriminator 1
 1503 033a FFF7FEFF 		bl	port_halt
 1504              	.LVL133:
 1505              	.L170:
 1506              		.loc 1 974 0 is_stmt 1
 1507 033e D4F80C80 		ldr	r8, [r4, #12]
 1508 0342 C7F80080 		str	r8, [r7, #0]
 1509 0346 1CE7     		b	.L169
 1510              	.LVL134:
 1511              	.L155:
 1512              	.LBE17:
 1513              	.LBB18:
 1514              		.loc 1 916 0
ARM GAS  /tmp/ccqErZ7k.s 			page 28


 1515 0348 A342     		cmp	r3, r4
 1516 034a 01D0     		beq	.L158
 1517              		.loc 1 916 0 is_stmt 0 discriminator 1
 1518 034c FFF7FEFF 		bl	port_halt
 1519              	.LVL135:
 1520              	.L158:
 1521              		.loc 1 917 0 is_stmt 1
 1522 0350 E368     		ldr	r3, [r4, #12]
 1523 0352 CAF80030 		str	r3, [sl, #0]
 1524 0356 30E7     		b	.L157
 1525              	.LVL136:
 1526              	.L216:
 1527              	.LBE18:
 1528              	.LBB19:
 1529              		.loc 1 969 0 discriminator 1
 1530 0358 FFF7FEFF 		bl	port_halt
 1531              	.LVL137:
 1532 035c 0DE7     		b	.L168
 1533              	.LVL138:
 1534              	.L217:
 1535              	.LBE19:
 1536              	.LBB20:
 1537              		.loc 1 912 0 discriminator 1
 1538 035e FFF7FEFF 		bl	port_halt
 1539              	.LVL139:
 1540 0362 28E7     		b	.L156
 1541              	.LBE20:
 1542              		.cfi_endproc
 1543              	.LFE20:
 1544              		.size	tcp_slowtmr, .-tcp_slowtmr
 1545 0364 AFF30080 		.section	.text.tcp_pcb_remove,"ax",%progbits
 1545      AFF30080 
 1545      AFF30080 
 1546              		.align	2
 1547              		.p2align 4,,15
 1548              		.global	tcp_pcb_remove
 1549              		.thumb
 1550              		.thumb_func
 1551              		.type	tcp_pcb_remove, %function
 1552              	tcp_pcb_remove:
 1553              	.LFB38:
 1554              		.loc 1 1432 0
 1555              		.cfi_startproc
 1556              		@ args = 0, pretend = 0, frame = 0
 1557              		@ frame_needed = 0, uses_anonymous_args = 0
 1558              	.LVL140:
 1559              		.loc 1 1433 0
 1560 0000 0268     		ldr	r2, [r0, #0]
 1561 0002 8A42     		cmp	r2, r1
 1562              		.loc 1 1432 0
 1563 0004 10B5     		push	{r4, lr}
 1564              	.LCFI11:
 1565              		.cfi_def_cfa_offset 8
 1566              		.cfi_offset 4, -8
 1567              		.cfi_offset 14, -4
 1568              		.loc 1 1432 0
 1569 0006 0C46     		mov	r4, r1
ARM GAS  /tmp/ccqErZ7k.s 			page 29


 1570              		.loc 1 1433 0
 1571 0008 3BD0     		beq	.L255
 1572              		.loc 1 1433 0 is_stmt 0 discriminator 2
 1573 000a 2049     		ldr	r1, .L260
 1574              	.LVL141:
 1575 000c 0A60     		str	r2, [r1, #0]
 1576 000e 52B1     		cbz	r2, .L223
 1577              		.loc 1 1433 0
 1578 0010 D368     		ldr	r3, [r2, #12]
 1579 0012 A342     		cmp	r3, r4
 1580 0014 38D0     		beq	.L256
 1581              		.loc 1 1433 0 discriminator 5
 1582 0016 2BB1     		cbz	r3, .L257
 1583              	.L228:
 1584              		.loc 1 1433 0 discriminator 7
 1585 0018 DA68     		ldr	r2, [r3, #12]
 1586 001a A242     		cmp	r2, r4
 1587 001c 2DD0     		beq	.L258
 1588              		.loc 1 1433 0
 1589 001e 1346     		mov	r3, r2
 1590 0020 002B     		cmp	r3, #0
 1591 0022 F9D1     		bne	.L228
 1592              	.L257:
 1593 0024 0B60     		str	r3, [r1, #0]
 1594              	.L223:
 1595              		.loc 1 1433 0 discriminator 6
 1596 0026 0023     		movs	r3, #0
 1597 0028 E360     		str	r3, [r4, #12]
 1598              		.loc 1 1435 0 is_stmt 1 discriminator 6
 1599 002a 2046     		mov	r0, r4
 1600              	.LVL142:
 1601 002c FFF7FEFF 		bl	tcp_pcb_purge
 1602              	.LVL143:
 1603              		.loc 1 1438 0 discriminator 6
 1604 0030 237C     		ldrb	r3, [r4, #16]	@ zero_extendqisi2
 1605 0032 012B     		cmp	r3, #1
 1606 0034 18BF     		it	ne
 1607 0036 0A2B     		cmpne	r3, #10
 1608 0038 1AD0     		beq	.L230
 1609              		.loc 1 1440 0
 1610 003a 94F82030 		ldrb	r3, [r4, #32]	@ zero_extendqisi2
 1611              		.loc 1 1439 0
 1612 003e DA07     		lsls	r2, r3, #31
 1613 0040 0ED4     		bmi	.L259
 1614              	.L231:
 1615              		.loc 1 1446 0
 1616 0042 636F     		ldr	r3, [r4, #116]
 1617 0044 0BB1     		cbz	r3, .L233
 1618              		.loc 1 1446 0 is_stmt 0 discriminator 1
 1619 0046 FFF7FEFF 		bl	port_halt
 1620              	.LVL144:
 1621              	.L233:
 1622              		.loc 1 1447 0 is_stmt 1
 1623 004a A36F     		ldr	r3, [r4, #120]
 1624 004c 0BB1     		cbz	r3, .L234
 1625              		.loc 1 1447 0 is_stmt 0 discriminator 1
 1626 004e FFF7FEFF 		bl	port_halt
ARM GAS  /tmp/ccqErZ7k.s 			page 30


 1627              	.LVL145:
 1628              	.L234:
 1629              		.loc 1 1449 0 is_stmt 1
 1630 0052 E36F     		ldr	r3, [r4, #124]
 1631 0054 0BB1     		cbz	r3, .L232
 1632              		.loc 1 1449 0 is_stmt 0 discriminator 1
 1633 0056 FFF7FEFF 		bl	port_halt
 1634              	.LVL146:
 1635              	.L232:
 1636              		.loc 1 1453 0 is_stmt 1
 1637 005a 0023     		movs	r3, #0
 1638 005c 2374     		strb	r3, [r4, #16]
 1639 005e 10BD     		pop	{r4, pc}
 1640              	.L259:
 1641              		.loc 1 1441 0
 1642 0060 43F00203 		orr	r3, r3, #2
 1643 0064 84F82030 		strb	r3, [r4, #32]
 1644              		.loc 1 1442 0
 1645 0068 2046     		mov	r0, r4
 1646 006a FFF7FEFF 		bl	tcp_output
 1647              	.LVL147:
 1648 006e 237C     		ldrb	r3, [r4, #16]	@ zero_extendqisi2
 1649              	.L230:
 1650              		.loc 1 1445 0
 1651 0070 012B     		cmp	r3, #1
 1652 0072 E6D1     		bne	.L231
 1653              		.loc 1 1453 0
 1654 0074 0023     		movs	r3, #0
 1655 0076 2374     		strb	r3, [r4, #16]
 1656 0078 10BD     		pop	{r4, pc}
 1657              	.LVL148:
 1658              	.L258:
 1659 007a 0B60     		str	r3, [r1, #0]
 1660              	.L225:
 1661              		.loc 1 1433 0 discriminator 4
 1662 007c E268     		ldr	r2, [r4, #12]
 1663 007e DA60     		str	r2, [r3, #12]
 1664 0080 D1E7     		b	.L223
 1665              	.LVL149:
 1666              	.L255:
 1667              		.loc 1 1433 0 is_stmt 0 discriminator 1
 1668 0082 CB68     		ldr	r3, [r1, #12]
 1669 0084 0360     		str	r3, [r0, #0]
 1670 0086 CEE7     		b	.L223
 1671              	.LVL150:
 1672              	.L256:
 1673              		.loc 1 1433 0
 1674 0088 1346     		mov	r3, r2
 1675 008a F7E7     		b	.L225
 1676              	.L261:
 1677              		.align	2
 1678              	.L260:
 1679 008c 00000000 		.word	.LANCHOR3
 1680              		.cfi_endproc
 1681              	.LFE38:
 1682              		.size	tcp_pcb_remove, .-tcp_pcb_remove
 1683              		.section	.text.tcp_abandon,"ax",%progbits
ARM GAS  /tmp/ccqErZ7k.s 			page 31


 1684              		.align	2
 1685              		.p2align 4,,15
 1686              		.global	tcp_abandon
 1687              		.thumb
 1688              		.thumb_func
 1689              		.type	tcp_abandon, %function
 1690              	tcp_abandon:
 1691              	.LFB11:
 1692              		.loc 1 319 0 is_stmt 1
 1693              		.cfi_startproc
 1694              		@ args = 0, pretend = 0, frame = 8
 1695              		@ frame_needed = 0, uses_anonymous_args = 0
 1696              	.LVL151:
 1697 0000 2DE9F04F 		push	{r4, r5, r6, r7, r8, r9, sl, fp, lr}
 1698              	.LCFI12:
 1699              		.cfi_def_cfa_offset 36
 1700              		.cfi_offset 4, -36
 1701              		.cfi_offset 5, -32
 1702              		.cfi_offset 6, -28
 1703              		.cfi_offset 7, -24
 1704              		.cfi_offset 8, -20
 1705              		.cfi_offset 9, -16
 1706              		.cfi_offset 10, -12
 1707              		.cfi_offset 11, -8
 1708              		.cfi_offset 14, -4
 1709              		.loc 1 329 0
 1710 0004 037C     		ldrb	r3, [r0, #16]	@ zero_extendqisi2
 1711 0006 012B     		cmp	r3, #1
 1712              		.loc 1 319 0
 1713 0008 85B0     		sub	sp, sp, #20
 1714              	.LCFI13:
 1715              		.cfi_def_cfa_offset 56
 1716              		.loc 1 319 0
 1717 000a 0446     		mov	r4, r0
 1718 000c 0E46     		mov	r6, r1
 1719              		.loc 1 329 0
 1720 000e 41D0     		beq	.L285
 1721              	.LVL152:
 1722              	.L263:
 1723              		.loc 1 334 0
 1724 0010 0A2B     		cmp	r3, #10
 1725 0012 36D0     		beq	.L286
 1726              		.loc 1 341 0
 1727 0014 94E80C00 		ldmia	r4, {r2, r3}
 1728              		.loc 1 348 0
 1729 0018 2048     		ldr	r0, .L288
 1730              		.loc 1 338 0
 1731 001a D4F85890 		ldr	r9, [r4, #88]
 1732              	.LVL153:
 1733              		.loc 1 339 0
 1734 001e D4F82480 		ldr	r8, [r4, #36]
 1735              	.LVL154:
 1736              		.loc 1 340 0
 1737 0022 0392     		str	r2, [sp, #12]
 1738              		.loc 1 348 0
 1739 0024 2146     		mov	r1, r4
 1740              		.loc 1 341 0
ARM GAS  /tmp/ccqErZ7k.s 			page 32


 1741 0026 0293     		str	r3, [sp, #8]
 1742              		.loc 1 342 0
 1743 0028 B4F81CB0 		ldrh	fp, [r4, #28]
 1744              	.LVL155:
 1745              		.loc 1 343 0
 1746 002c B4F81EA0 		ldrh	sl, [r4, #30]
 1747              	.LVL156:
 1748              		.loc 1 345 0
 1749 0030 D4F89450 		ldr	r5, [r4, #148]
 1750              	.LVL157:
 1751              		.loc 1 347 0
 1752 0034 6769     		ldr	r7, [r4, #20]
 1753              	.LVL158:
 1754              		.loc 1 348 0
 1755 0036 FFF7FEFF 		bl	tcp_pcb_remove
 1756              	.LVL159:
 1757              		.loc 1 349 0
 1758 003a A06F     		ldr	r0, [r4, #120]
 1759 003c 08B1     		cbz	r0, .L266
 1760              		.loc 1 350 0
 1761 003e FFF7FEFF 		bl	tcp_segs_free
 1762              	.LVL160:
 1763              	.L266:
 1764              		.loc 1 352 0
 1765 0042 606F     		ldr	r0, [r4, #116]
 1766 0044 08B1     		cbz	r0, .L267
 1767              		.loc 1 353 0
 1768 0046 FFF7FEFF 		bl	tcp_segs_free
 1769              	.LVL161:
 1770              	.L267:
 1771              		.loc 1 356 0
 1772 004a E06F     		ldr	r0, [r4, #124]
 1773 004c 08B1     		cbz	r0, .L268
 1774              		.loc 1 357 0
 1775 004e FFF7FEFF 		bl	tcp_segs_free
 1776              	.LVL162:
 1777              	.L268:
 1778              		.loc 1 360 0
 1779 0052 0220     		movs	r0, #2
 1780 0054 2146     		mov	r1, r4
 1781 0056 FFF7FEFF 		bl	memp_free
 1782              	.LVL163:
 1783              		.loc 1 361 0
 1784 005a 1DB1     		cbz	r5, .L269
 1785              		.loc 1 361 0 is_stmt 0 discriminator 1
 1786 005c 3846     		mov	r0, r7
 1787 005e 6FF00901 		mvn	r1, #9
 1788 0062 A847     		blx	r5
 1789              	.LVL164:
 1790              	.L269:
 1791              		.loc 1 362 0 is_stmt 1
 1792 0064 16B9     		cbnz	r6, .L287
 1793              	.LVL165:
 1794              	.L262:
 1795              		.loc 1 367 0
 1796 0066 05B0     		add	sp, sp, #20
 1797 0068 BDE8F08F 		pop	{r4, r5, r6, r7, r8, r9, sl, fp, pc}
ARM GAS  /tmp/ccqErZ7k.s 			page 33


 1798              	.LVL166:
 1799              	.L287:
 1800              		.loc 1 364 0
 1801 006c CDF800B0 		str	fp, [sp, #0]
 1802 0070 CDF804A0 		str	sl, [sp, #4]
 1803 0074 4846     		mov	r0, r9
 1804 0076 4146     		mov	r1, r8
 1805 0078 03AA     		add	r2, sp, #12
 1806 007a 02AB     		add	r3, sp, #8
 1807 007c FFF7FEFF 		bl	tcp_rst
 1808              	.LVL167:
 1809 0080 F1E7     		b	.L262
 1810              	.LVL168:
 1811              	.L286:
 1812              		.loc 1 335 0
 1813 0082 2146     		mov	r1, r4
 1814 0084 0648     		ldr	r0, .L288+4
 1815 0086 FFF7FEFF 		bl	tcp_pcb_remove
 1816              	.LVL169:
 1817              		.loc 1 336 0
 1818 008a 0220     		movs	r0, #2
 1819 008c 2146     		mov	r1, r4
 1820 008e FFF7FEFF 		bl	memp_free
 1821              	.LVL170:
 1822 0092 E8E7     		b	.L262
 1823              	.LVL171:
 1824              	.L285:
 1825              		.loc 1 329 0 discriminator 1
 1826 0094 FFF7FEFF 		bl	port_halt
 1827              	.LVL172:
 1828 0098 237C     		ldrb	r3, [r4, #16]	@ zero_extendqisi2
 1829 009a B9E7     		b	.L263
 1830              	.L289:
 1831              		.align	2
 1832              	.L288:
 1833 009c 00000000 		.word	.LANCHOR6
 1834 00a0 00000000 		.word	.LANCHOR7
 1835              		.cfi_endproc
 1836              	.LFE11:
 1837              		.size	tcp_abandon, .-tcp_abandon
 1838 00a4 AFF30080 		.section	.text.tcp_abort,"ax",%progbits
 1838      AFF30080 
 1838      AFF30080 
 1839              		.align	2
 1840              		.p2align 4,,15
 1841              		.global	tcp_abort
 1842              		.thumb
 1843              		.thumb_func
 1844              		.type	tcp_abort, %function
 1845              	tcp_abort:
 1846              	.LFB12:
 1847              		.loc 1 381 0
 1848              		.cfi_startproc
 1849              		@ args = 0, pretend = 0, frame = 0
 1850              		@ frame_needed = 0, uses_anonymous_args = 0
 1851              		@ link register save eliminated.
 1852              	.LVL173:
ARM GAS  /tmp/ccqErZ7k.s 			page 34


 1853              		.loc 1 382 0
 1854 0000 0121     		movs	r1, #1
 1855              		.loc 1 383 0
 1856              		.loc 1 382 0
 1857 0002 FFF7FEBF 		b	tcp_abandon
 1858              	.LVL174:
 1859              		.cfi_endproc
 1860              	.LFE12:
 1861              		.size	tcp_abort, .-tcp_abort
 1862 0006 00BFAFF3 		.section	.text.tcp_alloc,"ax",%progbits
 1862      0080AFF3 
 1862      0080
 1863              		.align	2
 1864              		.p2align 4,,15
 1865              		.global	tcp_alloc
 1866              		.thumb
 1867              		.thumb_func
 1868              		.type	tcp_alloc, %function
 1869              	tcp_alloc:
 1870              	.LFB29:
 1871              		.loc 1 1181 0
 1872              		.cfi_startproc
 1873              		@ args = 0, pretend = 0, frame = 0
 1874              		@ frame_needed = 0, uses_anonymous_args = 0
 1875              	.LVL175:
 1876 0000 2DE9F041 		push	{r4, r5, r6, r7, r8, lr}
 1877              	.LCFI14:
 1878              		.cfi_def_cfa_offset 24
 1879              		.cfi_offset 4, -24
 1880              		.cfi_offset 5, -20
 1881              		.cfi_offset 6, -16
 1882              		.cfi_offset 7, -12
 1883              		.cfi_offset 8, -8
 1884              		.cfi_offset 14, -4
 1885              		.loc 1 1181 0
 1886 0004 0746     		mov	r7, r0
 1887              		.loc 1 1185 0
 1888 0006 0220     		movs	r0, #2
 1889              	.LVL176:
 1890 0008 FFF7FEFF 		bl	memp_malloc
 1891              	.LVL177:
 1892              		.loc 1 1186 0
 1893 000c 0446     		mov	r4, r0
 1894 000e 0028     		cmp	r0, #0
 1895 0010 44D0     		beq	.L318
 1896              	.L292:
 1897              		.loc 1 1209 0
 1898 0012 0021     		movs	r1, #0
 1899 0014 A422     		movs	r2, #164
 1900 0016 2046     		mov	r0, r4
 1901 0018 FFF7FEFF 		bl	memset
 1902              	.LVL178:
 1903              	.LBB27:
 1904              	.LBB28:
 1905              		.loc 1 1468 0
 1906 001c 414E     		ldr	r6, .L320
 1907 001e 424A     		ldr	r2, .L320+4
ARM GAS  /tmp/ccqErZ7k.s 			page 35


 1908 0020 3368     		ldr	r3, [r6, #0]
 1909 0022 1568     		ldr	r5, [r2, #0]
 1910              	.LBE28:
 1911              	.LBE27:
 1912              		.loc 1 1210 0
 1913 0024 6774     		strb	r7, [r4, #17]
 1914              	.LBB31:
 1915              	.LBB29:
 1916              		.loc 1 1468 0
 1917 0026 EB18     		adds	r3, r5, r3
 1918              	.LBE29:
 1919              	.LBE31:
 1920              		.loc 1 1212 0
 1921 0028 0021     		movs	r1, #0
 1922              		.loc 1 1213 0
 1923 002a 4FF4066C 		mov	ip, #2144
 1924              		.loc 1 1212 0
 1925 002e 0A46     		mov	r2, r1	@ movhi
 1926              		.loc 1 1239 0
 1927 0030 4FF45D40 		mov	r0, #56576
 1928              		.loc 1 1212 0
 1929 0034 A4F87010 		strh	r1, [r4, #112]	@ movhi
 1930              		.loc 1 1213 0
 1931 0038 A4F828C0 		strh	ip, [r4, #40]	@ movhi
 1932              		.loc 1 1214 0
 1933 003c A4F82AC0 		strh	ip, [r4, #42]	@ movhi
 1934              		.loc 1 1215 0
 1935 0040 6172     		strb	r1, [r4, #9]
 1936              		.loc 1 1216 0
 1937 0042 4FF0FF0C 		mov	ip, #255
 1938              		.loc 1 1221 0
 1939 0046 A4F84410 		strh	r1, [r4, #68]	@ movhi
 1940              	.LBB32:
 1941              	.LBB30:
 1942              		.loc 1 1468 0
 1943 004a 3360     		str	r3, [r6, #0]
 1944              	.LBE30:
 1945              	.LBE32:
 1946              		.loc 1 1223 0
 1947 004c 4FF6FF71 		movw	r1, #65535
 1948              		.loc 1 1226 0
 1949 0050 6366     		str	r3, [r4, #100]
 1950              		.loc 1 1227 0
 1951 0052 A365     		str	r3, [r4, #88]
 1952              		.loc 1 1228 0
 1953 0054 E364     		str	r3, [r4, #76]
 1954              		.loc 1 1229 0
 1955 0056 A366     		str	r3, [r4, #104]
 1956              		.loc 1 1235 0
 1957 0058 344B     		ldr	r3, .L320+8
 1958              		.loc 1 1216 0
 1959 005a 84F80AC0 		strb	ip, [r4, #10]
 1960              		.loc 1 1220 0
 1961 005e 0627     		movs	r7, #6
 1962              		.loc 1 1239 0
 1963 0060 C0F26D00 		movt	r0, 109
 1964              		.loc 1 1211 0
ARM GAS  /tmp/ccqErZ7k.s 			page 36


 1965 0064 4FF48078 		mov	r8, #256
 1966              		.loc 1 1219 0
 1967 0068 4FF4067C 		mov	ip, #536
 1968              		.loc 1 1223 0
 1969 006c E186     		strh	r1, [r4, #54]	@ movhi
 1970              		.loc 1 1224 0
 1971 006e 0121     		movs	r1, #1
 1972              		.loc 1 1211 0
 1973 0070 A4F86E80 		strh	r8, [r4, #110]	@ movhi
 1974              		.loc 1 1219 0
 1975 0074 A4F838C0 		strh	ip, [r4, #56]	@ movhi
 1976              		.loc 1 1220 0
 1977 0078 A4F84870 		strh	r7, [r4, #72]	@ movhi
 1978              		.loc 1 1222 0
 1979 007c A4F84670 		strh	r7, [r4, #70]	@ movhi
 1980              		.loc 1 1224 0
 1981 0080 A4F85210 		strh	r1, [r4, #82]	@ movhi
 1982              		.loc 1 1230 0
 1983 0084 2563     		str	r5, [r4, #48]
 1984              		.loc 1 1232 0
 1985 0086 84F83420 		strb	r2, [r4, #52]
 1986              		.loc 1 1235 0
 1987 008a C4F88830 		str	r3, [r4, #136]
 1988              		.loc 1 1239 0
 1989 008e C4F89800 		str	r0, [r4, #152]
 1990              		.loc 1 1246 0
 1991 0092 84F8A120 		strb	r2, [r4, #161]
 1992              	.L309:
 1993              		.loc 1 1249 0
 1994 0096 2046     		mov	r0, r4
 1995 0098 BDE8F081 		pop	{r4, r5, r6, r7, r8, pc}
 1996              	.LVL179:
 1997              	.L318:
 1998              	.LBB33:
 1999              	.LBB34:
 2000              		.loc 1 1160 0
 2001 009c 244B     		ldr	r3, .L320+12
 2002 009e 1B68     		ldr	r3, [r3, #0]
 2003              	.LVL180:
 2004 00a0 83B1     		cbz	r3, .L294
 2005              		.loc 1 1161 0
 2006 00a2 214A     		ldr	r2, .L320+4
 2007 00a4 196B     		ldr	r1, [r3, #48]
 2008 00a6 1468     		ldr	r4, [r2, #0]
 2009 00a8 1846     		mov	r0, r3
 2010              	.LVL181:
 2011 00aa 611A     		subs	r1, r4, r1
 2012 00ac 05E0     		b	.L317
 2013              	.LVL182:
 2014              	.L296:
 2015 00ae 1A6B     		ldr	r2, [r3, #48]
 2016 00b0 A21A     		subs	r2, r4, r2
 2017 00b2 8A42     		cmp	r2, r1
 2018 00b4 24BF     		itt	cs
 2019 00b6 1146     		movcs	r1, r2
 2020              	.LVL183:
 2021 00b8 1846     		movcs	r0, r3
ARM GAS  /tmp/ccqErZ7k.s 			page 37


 2022              	.L317:
 2023              	.LVL184:
 2024              		.loc 1 1160 0
 2025 00ba DB68     		ldr	r3, [r3, #12]
 2026              	.LVL185:
 2027 00bc 002B     		cmp	r3, #0
 2028 00be F6D1     		bne	.L296
 2029              		.loc 1 1169 0
 2030 00c0 FFF7FEFF 		bl	tcp_abort
 2031              	.LVL186:
 2032              	.L294:
 2033              	.LBE34:
 2034              	.LBE33:
 2035              		.loc 1 1191 0
 2036 00c4 0220     		movs	r0, #2
 2037 00c6 FFF7FEFF 		bl	memp_malloc
 2038              	.LVL187:
 2039              		.loc 1 1192 0
 2040 00ca 0446     		mov	r4, r0
 2041 00cc 30B1     		cbz	r0, .L319
 2042 00ce 194B     		ldr	r3, .L320+16
 2043 00d0 B3F8CC20 		ldrh	r2, [r3, #204]
 2044              	.L302:
 2045              		.loc 1 1205 0
 2046 00d4 013A     		subs	r2, r2, #1
 2047 00d6 A3F8CC20 		strh	r2, [r3, #204]	@ movhi
 2048 00da 9AE7     		b	.L292
 2049              	.L319:
 2050              	.LVL188:
 2051              	.LBB35:
 2052              	.LBB36:
 2053              		.loc 1 1131 0
 2054 00dc 164B     		ldr	r3, .L320+20
 2055 00de 1B68     		ldr	r3, [r3, #0]
 2056              	.LVL189:
 2057 00e0 A3B1     		cbz	r3, .L298
 2058              		.loc 1 1134 0
 2059 00e2 114A     		ldr	r2, .L320+4
 2060 00e4 1668     		ldr	r6, [r2, #0]
 2061              		.loc 1 1126 0
 2062 00e6 7F21     		movs	r1, #127
 2063              	.LVL190:
 2064              	.L300:
 2065              		.loc 1 1132 0
 2066 00e8 5A7C     		ldrb	r2, [r3, #17]	@ zero_extendqisi2
 2067 00ea 9742     		cmp	r7, r2
 2068 00ec 08D3     		bcc	.L299
 2069 00ee 9142     		cmp	r1, r2
 2070 00f0 06D3     		bcc	.L299
 2071              		.loc 1 1134 0
 2072 00f2 1D6B     		ldr	r5, [r3, #48]
 2073 00f4 751B     		subs	r5, r6, r5
 2074              		.loc 1 1133 0
 2075 00f6 AC42     		cmp	r4, r5
 2076 00f8 9EBF     		ittt	ls
 2077 00fa 1846     		movls	r0, r3
 2078 00fc 1146     		movls	r1, r2
ARM GAS  /tmp/ccqErZ7k.s 			page 38


 2079 00fe 2C46     		movls	r4, r5
 2080              	.L299:
 2081              	.LVL191:
 2082              		.loc 1 1131 0
 2083 0100 DB68     		ldr	r3, [r3, #12]
 2084              	.LVL192:
 2085 0102 002B     		cmp	r3, #0
 2086 0104 F0D1     		bne	.L300
 2087              		.loc 1 1140 0
 2088 0106 08B1     		cbz	r0, .L298
 2089              		.loc 1 1143 0
 2090 0108 FFF7FEFF 		bl	tcp_abort
 2091              	.LVL193:
 2092              	.L298:
 2093              	.LBE36:
 2094              	.LBE35:
 2095              		.loc 1 1197 0
 2096 010c 0220     		movs	r0, #2
 2097 010e FFF7FEFF 		bl	memp_malloc
 2098              	.LVL194:
 2099              		.loc 1 1198 0
 2100 0112 0446     		mov	r4, r0
 2101 0114 0028     		cmp	r0, #0
 2102 0116 BED0     		beq	.L309
 2103              		.loc 1 1200 0
 2104 0118 064B     		ldr	r3, .L320+16
 2105 011a B3F8CC20 		ldrh	r2, [r3, #204]
 2106 011e 013A     		subs	r2, r2, #1
 2107 0120 92B2     		uxth	r2, r2
 2108 0122 D7E7     		b	.L302
 2109              	.L321:
 2110              		.align	2
 2111              	.L320:
 2112 0124 00000000 		.word	.LANCHOR10
 2113 0128 00000000 		.word	.LANCHOR5
 2114 012c 00000000 		.word	tcp_recv_null
 2115 0130 00000000 		.word	.LANCHOR7
 2116 0134 00000000 		.word	lwip_stats
 2117 0138 00000000 		.word	.LANCHOR6
 2118              		.cfi_endproc
 2119              	.LFE29:
 2120              		.size	tcp_alloc, .-tcp_alloc
 2121 013c AFF30080 		.section	.text.tcp_new,"ax",%progbits
 2122              		.align	2
 2123              		.p2align 4,,15
 2124              		.global	tcp_new
 2125              		.thumb
 2126              		.thumb_func
 2127              		.type	tcp_new, %function
 2128              	tcp_new:
 2129              	.LFB30:
 2130              		.loc 1 1265 0
 2131              		.cfi_startproc
 2132              		@ args = 0, pretend = 0, frame = 0
 2133              		@ frame_needed = 0, uses_anonymous_args = 0
 2134              		@ link register save eliminated.
 2135              		.loc 1 1266 0
ARM GAS  /tmp/ccqErZ7k.s 			page 39


 2136 0000 4020     		movs	r0, #64
 2137              		.loc 1 1267 0
 2138              		.loc 1 1266 0
 2139 0002 FFF7FEBF 		b	tcp_alloc
 2140              	.LVL195:
 2141              		.cfi_endproc
 2142              	.LFE30:
 2143              		.size	tcp_new, .-tcp_new
 2144 0006 00BFAFF3 		.section	.text.tcp_close_shutdown,"ax",%progbits
 2144      0080AFF3 
 2144      0080
 2145              		.align	2
 2146              		.p2align 4,,15
 2147              		.thumb
 2148              		.thumb_func
 2149              		.type	tcp_close_shutdown, %function
 2150              	tcp_close_shutdown:
 2151              	.LFB8:
 2152              		.loc 1 139 0
 2153              		.cfi_startproc
 2154              		@ args = 0, pretend = 0, frame = 0
 2155              		@ frame_needed = 0, uses_anonymous_args = 0
 2156              	.LVL196:
 2157 0000 30B5     		push	{r4, r5, lr}
 2158              	.LCFI15:
 2159              		.cfi_def_cfa_offset 12
 2160              		.cfi_offset 4, -12
 2161              		.cfi_offset 5, -8
 2162              		.cfi_offset 14, -4
 2163              		.loc 1 142 0
 2164 0002 037C     		ldrb	r3, [r0, #16]	@ zero_extendqisi2
 2165              		.loc 1 139 0
 2166 0004 83B0     		sub	sp, sp, #12
 2167              	.LCFI16:
 2168              		.cfi_def_cfa_offset 24
 2169              		.loc 1 139 0
 2170 0006 0446     		mov	r4, r0
 2171              		.loc 1 142 0
 2172 0008 0029     		cmp	r1, #0
 2173 000a 39D0     		beq	.L327
 2174              		.loc 1 142 0 is_stmt 0 discriminator 1
 2175 000c 012B     		cmp	r3, #1
 2176 000e 4CD0     		beq	.L325
 2177              		.loc 1 143 0 is_stmt 1
 2178 0010 D0F88020 		ldr	r2, [r0, #128]
 2179 0014 002A     		cmp	r2, #0
 2180 0016 2FD0     		beq	.L376
 2181              	.L326:
 2182              		.loc 1 146 0
 2183 0018 94F82030 		ldrb	r3, [r4, #32]	@ zero_extendqisi2
 2184 001c 03F01003 		and	r3, r3, #16
 2185 0020 DBB2     		uxtb	r3, r3
 2186 0022 002B     		cmp	r3, #0
 2187 0024 71D0     		beq	.L377
 2188              	.LVL197:
 2189              	.L328:
 2190              		.loc 1 150 0
ARM GAS  /tmp/ccqErZ7k.s 			page 40


 2191 0026 A38B     		ldrh	r3, [r4, #28]
 2192 0028 E58B     		ldrh	r5, [r4, #30]
 2193 002a A06D     		ldr	r0, [r4, #88]
 2194 002c 616A     		ldr	r1, [r4, #36]
 2195 002e 0093     		str	r3, [sp, #0]
 2196 0030 2246     		mov	r2, r4
 2197 0032 231D     		adds	r3, r4, #4
 2198 0034 0195     		str	r5, [sp, #4]
 2199 0036 FFF7FEFF 		bl	tcp_rst
 2200              	.LVL198:
 2201              		.loc 1 153 0
 2202 003a 2046     		mov	r0, r4
 2203 003c FFF7FEFF 		bl	tcp_pcb_purge
 2204              	.LVL199:
 2205              		.loc 1 158 0
 2206 0040 3C4B     		ldr	r3, .L386
 2207 0042 1A68     		ldr	r2, [r3, #0]
 2208 0044 A242     		cmp	r2, r4
 2209 0046 63D0     		beq	.L378
 2210              		.loc 1 158 0 is_stmt 0 discriminator 2
 2211 0048 3B49     		ldr	r1, .L386+4
 2212 004a 0A60     		str	r2, [r1, #0]
 2213 004c 52B1     		cbz	r2, .L330
 2214              		.loc 1 158 0
 2215 004e D368     		ldr	r3, [r2, #12]
 2216 0050 A342     		cmp	r3, r4
 2217 0052 60D0     		beq	.L379
 2218              		.loc 1 158 0 discriminator 5
 2219 0054 2BB1     		cbz	r3, .L380
 2220              	.L335:
 2221              		.loc 1 158 0 discriminator 7
 2222 0056 DA68     		ldr	r2, [r3, #12]
 2223 0058 A242     		cmp	r2, r4
 2224 005a 52D0     		beq	.L381
 2225              		.loc 1 158 0
 2226 005c 1346     		mov	r3, r2
 2227 005e 002B     		cmp	r3, #0
 2228 0060 F9D1     		bne	.L335
 2229              	.L380:
 2230 0062 0B60     		str	r3, [r1, #0]
 2231              	.L330:
 2232              		.loc 1 160 0 is_stmt 1 discriminator 6
 2233 0064 354B     		ldr	r3, .L386+8
 2234 0066 1A68     		ldr	r2, [r3, #0]
 2235 0068 1C60     		str	r4, [r3, #0]
 2236              		.loc 1 159 0 discriminator 6
 2237 006a 0A23     		movs	r3, #10
 2238 006c 2374     		strb	r3, [r4, #16]
 2239              		.loc 1 160 0 discriminator 6
 2240 006e E260     		str	r2, [r4, #12]
 2241 0070 FFF7FEFF 		bl	tcp_timer_needed
 2242              	.LVL200:
 2243              		.loc 1 162 0 discriminator 6
 2244 0074 0020     		movs	r0, #0
 2245 0076 15E0     		b	.L337
 2246              	.LVL201:
 2247              	.L376:
ARM GAS  /tmp/ccqErZ7k.s 			page 41


 2248              		.loc 1 143 0 discriminator 1
 2249 0078 028D     		ldrh	r2, [r0, #40]
 2250 007a B2F5066F 		cmp	r2, #2144
 2251 007e CBD1     		bne	.L326
 2252              	.L327:
 2253              		.loc 1 166 0
 2254 0080 072B     		cmp	r3, #7
 2255 0082 0ED8     		bhi	.L372
 2256 0084 DFE803F0 		tbb	[pc, r3]
 2257              	.L344:
 2258 0088 1A       		.byte	(.L339-.L344)/2
 2259 0089 11       		.byte	(.L325-.L344)/2
 2260 008a 2C       		.byte	(.L340-.L344)/2
 2261 008b 04       		.byte	(.L342-.L344)/2
 2262 008c 04       		.byte	(.L342-.L344)/2
 2263 008d 0D       		.byte	(.L372-.L344)/2
 2264 008e 0D       		.byte	(.L372-.L344)/2
 2265 008f 35       		.byte	(.L343-.L344)/2
 2266              		.align	1
 2267              	.L342:
 2268              		.loc 1 203 0
 2269 0090 2046     		mov	r0, r4
 2270              	.LVL202:
 2271 0092 FFF7FEFF 		bl	tcp_send_fin
 2272              	.LVL203:
 2273              		.loc 1 204 0
 2274 0096 28B9     		cbnz	r0, .L337
 2275              		.loc 1 206 0
 2276 0098 0523     		movs	r3, #5
 2277 009a 2374     		strb	r3, [r4, #16]
 2278              	.L355:
 2279              	.LVL204:
 2280              		.loc 1 232 0
 2281 009c 2046     		mov	r0, r4
 2282 009e FFF7FEFF 		bl	tcp_output
 2283              	.LVL205:
 2284              	.L372:
 2285 00a2 0020     		movs	r0, #0
 2286              	.L337:
 2287 00a4 40B2     		sxtb	r0, r0
 2288              		.loc 1 235 0
 2289 00a6 03B0     		add	sp, sp, #12
 2290 00a8 30BD     		pop	{r4, r5, pc}
 2291              	.LVL206:
 2292              	.L325:
 2293              		.loc 1 184 0
 2294 00aa 2146     		mov	r1, r4
 2295              	.LVL207:
 2296 00ac 2448     		ldr	r0, .L386+12
 2297              	.LVL208:
 2298 00ae FFF7FEFF 		bl	tcp_pcb_remove
 2299              	.LVL209:
 2300              		.loc 1 185 0
 2301 00b2 0320     		movs	r0, #3
 2302 00b4 2146     		mov	r1, r4
 2303 00b6 FFF7FEFF 		bl	memp_free
 2304              	.LVL210:
ARM GAS  /tmp/ccqErZ7k.s 			page 42


 2305              		.loc 1 187 0
 2306 00ba F2E7     		b	.L372
 2307              	.LVL211:
 2308              	.L339:
 2309              		.loc 1 176 0
 2310 00bc A38B     		ldrh	r3, [r4, #28]
 2311 00be 9BB1     		cbz	r3, .L373
 2312              		.loc 1 177 0
 2313 00c0 204B     		ldr	r3, .L386+16
 2314 00c2 1A68     		ldr	r2, [r3, #0]
 2315 00c4 A242     		cmp	r2, r4
 2316 00c6 32D0     		beq	.L382
 2317              		.loc 1 177 0 is_stmt 0 discriminator 2
 2318 00c8 1B49     		ldr	r1, .L386+4
 2319              	.LVL212:
 2320 00ca 0A60     		str	r2, [r1, #0]
 2321 00cc 42B3     		cbz	r2, .L347
 2322              		.loc 1 177 0
 2323 00ce D368     		ldr	r3, [r2, #12]
 2324 00d0 A342     		cmp	r3, r4
 2325 00d2 22D0     		beq	.L383
 2326              	.L370:
 2327              		.loc 1 177 0 discriminator 5
 2328 00d4 3BB3     		cbz	r3, .L384
 2329              		.loc 1 177 0 discriminator 7
 2330 00d6 DA68     		ldr	r2, [r3, #12]
 2331 00d8 A242     		cmp	r2, r4
 2332 00da 26D0     		beq	.L385
 2333              		.loc 1 177 0
 2334 00dc 1346     		mov	r3, r2
 2335 00de F9E7     		b	.L370
 2336              	.LVL213:
 2337              	.L340:
 2338              		.loc 1 190 0 is_stmt 1
 2339 00e0 2146     		mov	r1, r4
 2340              	.LVL214:
 2341 00e2 1448     		ldr	r0, .L386
 2342              	.LVL215:
 2343 00e4 FFF7FEFF 		bl	tcp_pcb_remove
 2344              	.LVL216:
 2345              	.L373:
 2346              		.loc 1 191 0
 2347 00e8 0220     		movs	r0, #2
 2348 00ea 2146     		mov	r1, r4
 2349 00ec FFF7FEFF 		bl	memp_free
 2350              	.LVL217:
 2351              		.loc 1 194 0
 2352 00f0 D7E7     		b	.L372
 2353              	.LVL218:
 2354              	.L343:
 2355              		.loc 1 210 0
 2356 00f2 2046     		mov	r0, r4
 2357              	.LVL219:
 2358 00f4 FFF7FEFF 		bl	tcp_send_fin
 2359              	.LVL220:
 2360              		.loc 1 211 0
 2361 00f8 0028     		cmp	r0, #0
ARM GAS  /tmp/ccqErZ7k.s 			page 43


 2362 00fa D3D1     		bne	.L337
 2363              		.loc 1 213 0
 2364 00fc 0923     		movs	r3, #9
 2365 00fe 2374     		strb	r3, [r4, #16]
 2366 0100 CCE7     		b	.L355
 2367              	.LVL221:
 2368              	.L381:
 2369 0102 0B60     		str	r3, [r1, #0]
 2370              	.L332:
 2371              		.loc 1 158 0 discriminator 4
 2372 0104 E268     		ldr	r2, [r4, #12]
 2373 0106 DA60     		str	r2, [r3, #12]
 2374 0108 ACE7     		b	.L330
 2375              	.LVL222:
 2376              	.L377:
 2377              		.loc 1 146 0 discriminator 1
 2378 010a FFF7FEFF 		bl	port_halt
 2379              	.LVL223:
 2380 010e 8AE7     		b	.L328
 2381              	.L378:
 2382              		.loc 1 158 0 discriminator 1
 2383 0110 E268     		ldr	r2, [r4, #12]
 2384 0112 1A60     		str	r2, [r3, #0]
 2385 0114 A6E7     		b	.L330
 2386              	.L379:
 2387              		.loc 1 158 0 is_stmt 0
 2388 0116 1346     		mov	r3, r2
 2389 0118 F4E7     		b	.L332
 2390              	.LVL224:
 2391              	.L383:
 2392              		.loc 1 177 0 is_stmt 1
 2393 011a 1346     		mov	r3, r2
 2394              	.L349:
 2395              		.loc 1 177 0 is_stmt 0 discriminator 4
 2396 011c E268     		ldr	r2, [r4, #12]
 2397 011e DA60     		str	r2, [r3, #12]
 2398              	.L347:
 2399              		.loc 1 177 0 discriminator 6
 2400 0120 0023     		movs	r3, #0
 2401 0122 E360     		str	r3, [r4, #12]
 2402 0124 E0E7     		b	.L373
 2403              	.L384:
 2404 0126 0B60     		str	r3, [r1, #0]
 2405 0128 FAE7     		b	.L347
 2406              	.L385:
 2407 012a 0B60     		str	r3, [r1, #0]
 2408 012c F6E7     		b	.L349
 2409              	.LVL225:
 2410              	.L382:
 2411              		.loc 1 177 0 discriminator 1
 2412 012e E268     		ldr	r2, [r4, #12]
 2413 0130 1A60     		str	r2, [r3, #0]
 2414 0132 F5E7     		b	.L347
 2415              	.L387:
 2416              		.align	2
 2417              	.L386:
 2418 0134 00000000 		.word	.LANCHOR6
ARM GAS  /tmp/ccqErZ7k.s 			page 44


 2419 0138 00000000 		.word	.LANCHOR3
 2420 013c 00000000 		.word	.LANCHOR7
 2421 0140 00000000 		.word	.LANCHOR4
 2422 0144 00000000 		.word	.LANCHOR2
 2423              		.cfi_endproc
 2424              	.LFE8:
 2425              		.size	tcp_close_shutdown, .-tcp_close_shutdown
 2426 0148 AFF30080 		.section	.text.tcp_shutdown,"ax",%progbits
 2426      AFF30080 
 2427              		.align	2
 2428              		.p2align 4,,15
 2429              		.global	tcp_shutdown
 2430              		.thumb
 2431              		.thumb_func
 2432              		.type	tcp_shutdown, %function
 2433              	tcp_shutdown:
 2434              	.LFB10:
 2435              		.loc 1 279 0 is_stmt 1
 2436              		.cfi_startproc
 2437              		@ args = 0, pretend = 0, frame = 0
 2438              		@ frame_needed = 0, uses_anonymous_args = 0
 2439              	.LVL226:
 2440 0000 38B5     		push	{r3, r4, r5, lr}
 2441              	.LCFI17:
 2442              		.cfi_def_cfa_offset 16
 2443              		.cfi_offset 3, -16
 2444              		.cfi_offset 4, -12
 2445              		.cfi_offset 5, -8
 2446              		.cfi_offset 14, -4
 2447              		.loc 1 280 0
 2448 0002 037C     		ldrb	r3, [r0, #16]	@ zero_extendqisi2
 2449 0004 012B     		cmp	r3, #1
 2450              		.loc 1 279 0
 2451 0006 0446     		mov	r4, r0
 2452 0008 1546     		mov	r5, r2
 2453              		.loc 1 280 0
 2454 000a 23D0     		beq	.L393
 2455              		.loc 1 283 0
 2456 000c 69B1     		cbz	r1, .L390
 2457              		.loc 1 285 0
 2458 000e D0F88000 		ldr	r0, [r0, #128]
 2459              	.LVL227:
 2460 0012 20B1     		cbz	r0, .L391
 2461              		.loc 1 286 0
 2462 0014 FFF7FEFF 		bl	pbuf_free
 2463              	.LVL228:
 2464              		.loc 1 287 0
 2465 0018 0023     		movs	r3, #0
 2466 001a C4F88030 		str	r3, [r4, #128]
 2467              	.L391:
 2468              		.loc 1 290 0
 2469 001e 94F82030 		ldrb	r3, [r4, #32]	@ zero_extendqisi2
 2470 0022 43F01003 		orr	r3, r3, #16
 2471 0026 84F82030 		strb	r3, [r4, #32]
 2472              	.L390:
 2473              		.loc 1 292 0
 2474 002a 15B1     		cbz	r5, .L395
ARM GAS  /tmp/ccqErZ7k.s 			page 45


 2475              		.loc 1 295 0
 2476 002c 237C     		ldrb	r3, [r4, #16]	@ zero_extendqisi2
 2477 002e 072B     		cmp	r3, #7
 2478 0030 02D9     		bls	.L402
 2479              	.L395:
 2480              		.loc 1 306 0
 2481 0032 0020     		movs	r0, #0
 2482              	.L389:
 2483              		.loc 1 307 0
 2484 0034 40B2     		sxtb	r0, r0
 2485 0036 38BD     		pop	{r3, r4, r5, pc}
 2486              	.L402:
 2487              		.loc 1 295 0
 2488 0038 94F91030 		ldrsb	r3, [r4, #16]
 2489 003c 0122     		movs	r2, #1
 2490 003e 02FA03F3 		lsl	r3, r2, r3
 2491 0042 13F0980F 		tst	r3, #152
 2492 0046 F4D0     		beq	.L395
 2493              		.loc 1 299 0
 2494 0048 2046     		mov	r0, r4
 2495 004a 0021     		movs	r1, #0
 2496              		.loc 1 307 0
 2497 004c BDE83840 		pop	{r3, r4, r5, lr}
 2498              		.loc 1 299 0
 2499 0050 FFF7FEBF 		b	tcp_close_shutdown
 2500              	.LVL229:
 2501              	.L393:
 2502              		.loc 1 281 0
 2503 0054 F320     		movs	r0, #243
 2504              	.LVL230:
 2505 0056 EDE7     		b	.L389
 2506              		.cfi_endproc
 2507              	.LFE10:
 2508              		.size	tcp_shutdown, .-tcp_shutdown
 2509 0058 AFF30080 		.section	.text.tcp_close,"ax",%progbits
 2509      AFF30080 
 2510              		.align	2
 2511              		.p2align 4,,15
 2512              		.global	tcp_close
 2513              		.thumb
 2514              		.thumb_func
 2515              		.type	tcp_close, %function
 2516              	tcp_close:
 2517              	.LFB9:
 2518              		.loc 1 253 0
 2519              		.cfi_startproc
 2520              		@ args = 0, pretend = 0, frame = 0
 2521              		@ frame_needed = 0, uses_anonymous_args = 0
 2522              		@ link register save eliminated.
 2523              	.LVL231:
 2524              		.loc 1 259 0
 2525 0000 037C     		ldrb	r3, [r0, #16]	@ zero_extendqisi2
 2526 0002 012B     		cmp	r3, #1
 2527              		.loc 1 261 0
 2528 0004 1EBF     		ittt	ne
 2529 0006 90F82030 		ldrbne	r3, [r0, #32]	@ zero_extendqisi2
 2530 000a 43F01003 		orrne	r3, r3, #16
ARM GAS  /tmp/ccqErZ7k.s 			page 46


 2531 000e 80F82030 		strbne	r3, [r0, #32]
 2532              		.loc 1 264 0
 2533 0012 0121     		movs	r1, #1
 2534              		.loc 1 265 0
 2535              		.loc 1 264 0
 2536 0014 FFF7FEBF 		b	tcp_close_shutdown
 2537              	.LVL232:
 2538              		.cfi_endproc
 2539              	.LFE9:
 2540              		.size	tcp_close, .-tcp_close
 2541 0018 AFF30080 		.section	.text.tcp_recv_null,"ax",%progbits
 2541      AFF30080 
 2542              		.align	2
 2543              		.p2align 4,,15
 2544              		.global	tcp_recv_null
 2545              		.thumb
 2546              		.thumb_func
 2547              		.type	tcp_recv_null, %function
 2548              	tcp_recv_null:
 2549              	.LFB26:
 2550              		.loc 1 1101 0
 2551              		.cfi_startproc
 2552              		@ args = 0, pretend = 0, frame = 0
 2553              		@ frame_needed = 0, uses_anonymous_args = 0
 2554              	.LVL233:
 2555 0000 10B5     		push	{r4, lr}
 2556              	.LCFI18:
 2557              		.cfi_def_cfa_offset 8
 2558              		.cfi_offset 4, -8
 2559              		.cfi_offset 14, -4
 2560              		.loc 1 1103 0
 2561 0002 1446     		mov	r4, r2
 2562 0004 42B1     		cbz	r2, .L409
 2563              		.loc 1 1104 0
 2564 0006 0846     		mov	r0, r1
 2565              	.LVL234:
 2566 0008 1189     		ldrh	r1, [r2, #8]
 2567              	.LVL235:
 2568 000a FFF7FEFF 		bl	tcp_recved
 2569              	.LVL236:
 2570              		.loc 1 1105 0
 2571 000e 2046     		mov	r0, r4
 2572 0010 FFF7FEFF 		bl	pbuf_free
 2573              	.LVL237:
 2574              	.L410:
 2575              		.loc 1 1110 0
 2576 0014 0020     		movs	r0, #0
 2577 0016 10BD     		pop	{r4, pc}
 2578              	.LVL238:
 2579              	.L409:
 2580              	.LBB39:
 2581              	.LBB40:
 2582              		.loc 1 1106 0
 2583 0018 002B     		cmp	r3, #0
 2584 001a FBD1     		bne	.L410
 2585              		.loc 1 1107 0
 2586 001c 0846     		mov	r0, r1
ARM GAS  /tmp/ccqErZ7k.s 			page 47


 2587              	.LVL239:
 2588              	.LBE40:
 2589              	.LBE39:
 2590              		.loc 1 1110 0
 2591 001e BDE81040 		pop	{r4, lr}
 2592              	.LBB42:
 2593              	.LBB41:
 2594              		.loc 1 1107 0
 2595 0022 FFF7FEBF 		b	tcp_close
 2596              	.LVL240:
 2597              	.LBE41:
 2598              	.LBE42:
 2599              		.cfi_endproc
 2600              	.LFE26:
 2601              		.size	tcp_recv_null, .-tcp_recv_null
 2602 0026 00BFAFF3 		.section	.text.tcp_fasttmr,"ax",%progbits
 2602      0080AFF3 
 2602      0080
 2603              		.align	2
 2604              		.p2align 4,,15
 2605              		.global	tcp_fasttmr
 2606              		.thumb
 2607              		.thumb_func
 2608              		.type	tcp_fasttmr, %function
 2609              	tcp_fasttmr:
 2610              	.LFB21:
 2611              		.loc 1 994 0
 2612              		.cfi_startproc
 2613              		@ args = 0, pretend = 0, frame = 0
 2614              		@ frame_needed = 0, uses_anonymous_args = 0
 2615              		.loc 1 995 0
 2616 0000 1B4B     		ldr	r3, .L431
 2617              		.loc 1 994 0
 2618 0002 70B5     		push	{r4, r5, r6, lr}
 2619              	.LCFI19:
 2620              		.cfi_def_cfa_offset 16
 2621              		.cfi_offset 4, -16
 2622              		.cfi_offset 5, -12
 2623              		.cfi_offset 6, -8
 2624              		.cfi_offset 14, -4
 2625              		.loc 1 995 0
 2626 0004 1C68     		ldr	r4, [r3, #0]
 2627              	.LVL241:
 2628              		.loc 1 997 0
 2629 0006 002C     		cmp	r4, #0
 2630 0008 30D0     		beq	.L412
 2631              	.L426:
 2632              	.LBB43:
 2633              		.loc 1 1000 0
 2634 000a D4F88020 		ldr	r2, [r4, #128]
 2635              		.loc 1 998 0
 2636 000e E668     		ldr	r6, [r4, #12]
 2637              	.LVL242:
 2638              		.loc 1 1000 0
 2639 0010 4AB1     		cbz	r2, .L418
 2640              	.LBB44:
 2641              		.loc 1 1004 0
ARM GAS  /tmp/ccqErZ7k.s 			page 48


 2642 0012 D4F88850 		ldr	r5, [r4, #136]
 2643 0016 1DB3     		cbz	r5, .L415
 2644              		.loc 1 1004 0 is_stmt 0 discriminator 1
 2645 0018 6069     		ldr	r0, [r4, #20]
 2646 001a 2146     		mov	r1, r4
 2647 001c 0023     		movs	r3, #0
 2648 001e A847     		blx	r5
 2649              	.LVL243:
 2650              	.L416:
 2651              		.loc 1 1005 0 is_stmt 1
 2652 0020 48B9     		cbnz	r0, .L417
 2653              		.loc 1 1006 0
 2654 0022 C4F88000 		str	r0, [r4, #128]
 2655              	.LVL244:
 2656              	.L418:
 2657              	.LBE44:
 2658              		.loc 1 1014 0
 2659 0026 94F82030 		ldrb	r3, [r4, #32]	@ zero_extendqisi2
 2660 002a D907     		lsls	r1, r3, #31
 2661 002c 0AD4     		bmi	.L430
 2662              	.L419:
 2663              	.LVL245:
 2664              	.LBE43:
 2665              		.loc 1 997 0 discriminator 1
 2666 002e 3446     		mov	r4, r6
 2667 0030 002E     		cmp	r6, #0
 2668 0032 EAD1     		bne	.L426
 2669              	.LVL246:
 2670 0034 70BD     		pop	{r4, r5, r6, pc}
 2671              	.LVL247:
 2672              	.L417:
 2673              	.LBB47:
 2674              	.LBB45:
 2675              		.loc 1 1007 0
 2676 0036 40B2     		sxtb	r0, r0
 2677              	.LVL248:
 2678 0038 0A30     		adds	r0, r0, #10
 2679 003a F8D0     		beq	.L419
 2680              	.LBE45:
 2681              		.loc 1 1014 0
 2682 003c 94F82030 		ldrb	r3, [r4, #32]	@ zero_extendqisi2
 2683 0040 D907     		lsls	r1, r3, #31
 2684 0042 F4D5     		bpl	.L419
 2685              	.L430:
 2686              		.loc 1 1016 0
 2687 0044 43F00203 		orr	r3, r3, #2
 2688 0048 84F82030 		strb	r3, [r4, #32]
 2689              		.loc 1 1017 0
 2690 004c 2046     		mov	r0, r4
 2691 004e FFF7FEFF 		bl	tcp_output
 2692              	.LVL249:
 2693              		.loc 1 1018 0
 2694 0052 94F82030 		ldrb	r3, [r4, #32]	@ zero_extendqisi2
 2695 0056 23F00303 		bic	r3, r3, #3
 2696 005a 84F82030 		strb	r3, [r4, #32]
 2697 005e E6E7     		b	.L419
 2698              	.L415:
ARM GAS  /tmp/ccqErZ7k.s 			page 49


 2699              	.LBB46:
 2700              		.loc 1 1004 0 discriminator 2
 2701 0060 2846     		mov	r0, r5
 2702 0062 2146     		mov	r1, r4
 2703 0064 2B46     		mov	r3, r5
 2704 0066 FFF7FEFF 		bl	tcp_recv_null
 2705              	.LVL250:
 2706 006a D9E7     		b	.L416
 2707              	.LVL251:
 2708              	.L412:
 2709 006c 70BD     		pop	{r4, r5, r6, pc}
 2710              	.L432:
 2711 006e 00BF     		.align	2
 2712              	.L431:
 2713 0070 00000000 		.word	.LANCHOR6
 2714              	.LBE46:
 2715              	.LBE47:
 2716              		.cfi_endproc
 2717              	.LFE21:
 2718              		.size	tcp_fasttmr, .-tcp_fasttmr
 2719 0074 AFF30080 		.section	.text.tcp_tmr,"ax",%progbits
 2719      AFF30080 
 2719      AFF30080 
 2720              		.align	2
 2721              		.p2align 4,,15
 2722              		.global	tcp_tmr
 2723              		.thumb
 2724              		.thumb_func
 2725              		.type	tcp_tmr, %function
 2726              	tcp_tmr:
 2727              	.LFB7:
 2728              		.loc 1 110 0
 2729              		.cfi_startproc
 2730              		@ args = 0, pretend = 0, frame = 0
 2731              		@ frame_needed = 0, uses_anonymous_args = 0
 2732 0000 08B5     		push	{r3, lr}
 2733              	.LCFI20:
 2734              		.cfi_def_cfa_offset 8
 2735              		.cfi_offset 3, -8
 2736              		.cfi_offset 14, -4
 2737              		.loc 1 112 0
 2738 0002 FFF7FEFF 		bl	tcp_fasttmr
 2739              	.LVL252:
 2740              		.loc 1 114 0
 2741 0006 064A     		ldr	r2, .L436
 2742 0008 1378     		ldrb	r3, [r2, #0]	@ zero_extendqisi2
 2743 000a 0133     		adds	r3, r3, #1
 2744 000c DBB2     		uxtb	r3, r3
 2745 000e D807     		lsls	r0, r3, #31
 2746 0010 1370     		strb	r3, [r2, #0]
 2747 0012 00D4     		bmi	.L435
 2748 0014 08BD     		pop	{r3, pc}
 2749              	.L435:
 2750              		.loc 1 119 0
 2751 0016 BDE80840 		pop	{r3, lr}
 2752              		.loc 1 117 0
 2753 001a FFF7FEBF 		b	tcp_slowtmr
ARM GAS  /tmp/ccqErZ7k.s 			page 50


 2754              	.LVL253:
 2755              	.L437:
 2756 001e 00BF     		.align	2
 2757              	.L436:
 2758 0020 00000000 		.word	.LANCHOR11
 2759              		.cfi_endproc
 2760              	.LFE7:
 2761              		.size	tcp_tmr, .-tcp_tmr
 2762 0024 AFF30080 		.section	.text.tcp_next_iss,"ax",%progbits
 2762      AFF30080 
 2762      AFF30080 
 2763              		.align	2
 2764              		.p2align 4,,15
 2765              		.global	tcp_next_iss
 2766              		.thumb
 2767              		.thumb_func
 2768              		.type	tcp_next_iss, %function
 2769              	tcp_next_iss:
 2770              	.LFB39:
 2771              		.loc 1 1465 0
 2772              		.cfi_startproc
 2773              		@ args = 0, pretend = 0, frame = 0
 2774              		@ frame_needed = 0, uses_anonymous_args = 0
 2775              		@ link register save eliminated.
 2776              		.loc 1 1468 0
 2777 0000 40F20002 		movw	r2, #:lower16:.LANCHOR5
 2778 0004 40F20003 		movw	r3, #:lower16:.LANCHOR10
 2779 0008 C0F20003 		movt	r3, #:upper16:.LANCHOR10
 2780 000c C0F20002 		movt	r2, #:upper16:.LANCHOR5
 2781 0010 1968     		ldr	r1, [r3, #0]
 2782 0012 1068     		ldr	r0, [r2, #0]
 2783 0014 4018     		adds	r0, r0, r1
 2784 0016 1860     		str	r0, [r3, #0]
 2785              		.loc 1 1470 0
 2786 0018 7047     		bx	lr
 2787              		.cfi_endproc
 2788              	.LFE39:
 2789              		.size	tcp_next_iss, .-tcp_next_iss
 2790 001a 00BFAFF3 		.section	.text.tcp_eff_send_mss,"ax",%progbits
 2790      0080
 2791              		.align	2
 2792              		.p2align 4,,15
 2793              		.global	tcp_eff_send_mss
 2794              		.thumb
 2795              		.thumb_func
 2796              		.type	tcp_eff_send_mss, %function
 2797              	tcp_eff_send_mss:
 2798              	.LFB40:
 2799              		.loc 1 1480 0
 2800              		.cfi_startproc
 2801              		@ args = 0, pretend = 0, frame = 0
 2802              		@ frame_needed = 0, uses_anonymous_args = 0
 2803              	.LVL254:
 2804 0000 10B5     		push	{r4, lr}
 2805              	.LCFI21:
 2806              		.cfi_def_cfa_offset 8
 2807              		.cfi_offset 4, -8
ARM GAS  /tmp/ccqErZ7k.s 			page 51


 2808              		.cfi_offset 14, -4
 2809              		.loc 1 1480 0
 2810 0002 0446     		mov	r4, r0
 2811              		.loc 1 1484 0
 2812 0004 0846     		mov	r0, r1
 2813              	.LVL255:
 2814 0006 FFF7FEFF 		bl	ip_route
 2815              	.LVL256:
 2816              		.loc 1 1485 0
 2817 000a 30B1     		cbz	r0, .L440
 2818              		.loc 1 1485 0 is_stmt 0 discriminator 1
 2819 000c 038C     		ldrh	r3, [r0, #32]
 2820 000e 23B1     		cbz	r3, .L440
 2821              	.LVL257:
 2822              		.loc 1 1486 0 is_stmt 1
 2823 0010 283B     		subs	r3, r3, #40
 2824              	.LVL258:
 2825              		.loc 1 1491 0
 2826 0012 9BB2     		uxth	r3, r3
 2827              	.LVL259:
 2828 0014 9C42     		cmp	r4, r3
 2829 0016 28BF     		it	cs
 2830 0018 1C46     		movcs	r4, r3
 2831              	.LVL260:
 2832              	.L440:
 2833              		.loc 1 1494 0
 2834 001a 2046     		mov	r0, r4
 2835              	.LVL261:
 2836 001c 10BD     		pop	{r4, pc}
 2837              		.cfi_endproc
 2838              	.LFE40:
 2839              		.size	tcp_eff_send_mss, .-tcp_eff_send_mss
 2840 001e 00BF     		.section	.text.tcp_connect,"ax",%progbits
 2841              		.align	2
 2842              		.p2align 4,,15
 2843              		.global	tcp_connect
 2844              		.thumb
 2845              		.thumb_func
 2846              		.type	tcp_connect, %function
 2847              	tcp_connect:
 2848              	.LFB19:
 2849              		.loc 1 651 0
 2850              		.cfi_startproc
 2851              		@ args = 0, pretend = 0, frame = 0
 2852              		@ frame_needed = 0, uses_anonymous_args = 0
 2853              	.LVL262:
 2854 0000 2DE9F843 		push	{r3, r4, r5, r6, r7, r8, r9, lr}
 2855              	.LCFI22:
 2856              		.cfi_def_cfa_offset 32
 2857              		.cfi_offset 3, -32
 2858              		.cfi_offset 4, -28
 2859              		.cfi_offset 5, -24
 2860              		.cfi_offset 6, -20
 2861              		.cfi_offset 7, -16
 2862              		.cfi_offset 8, -12
 2863              		.cfi_offset 9, -8
 2864              		.cfi_offset 14, -4
ARM GAS  /tmp/ccqErZ7k.s 			page 52


 2865              		.loc 1 651 0
 2866 0004 0D46     		mov	r5, r1
 2867              		.loc 1 656 0
 2868 0006 017C     		ldrb	r1, [r0, #16]	@ zero_extendqisi2
 2869              	.LVL263:
 2870              		.loc 1 651 0
 2871 0008 0446     		mov	r4, r0
 2872 000a 9946     		mov	r9, r3
 2873              		.loc 1 656 0
 2874 000c 0029     		cmp	r1, #0
 2875 000e 6ED1     		bne	.L469
 2876              		.loc 1 659 0
 2877 0010 002D     		cmp	r5, #0
 2878 0012 70D0     		beq	.L461
 2879              		.loc 1 660 0
 2880 0014 2968     		ldr	r1, [r5, #0]
 2881              		.loc 1 667 0
 2882 0016 0368     		ldr	r3, [r0, #0]
 2883              	.LVL264:
 2884              		.loc 1 660 0
 2885 0018 4160     		str	r1, [r0, #4]
 2886              		.loc 1 664 0
 2887 001a C283     		strh	r2, [r0, #30]	@ movhi
 2888              		.loc 1 667 0
 2889 001c 33B9     		cbnz	r3, .L450
 2890              	.LBB48:
 2891              		.loc 1 669 0
 2892 001e 0430     		adds	r0, r0, #4
 2893              	.LVL265:
 2894 0020 FFF7FEFF 		bl	ip_route
 2895              	.LVL266:
 2896              		.loc 1 670 0
 2897 0024 0028     		cmp	r0, #0
 2898 0026 68D0     		beq	.L462
 2899              		.loc 1 676 0
 2900 0028 4368     		ldr	r3, [r0, #4]
 2901 002a 2360     		str	r3, [r4, #0]
 2902              	.LVL267:
 2903              	.L450:
 2904              	.LBE48:
 2905              		.loc 1 679 0
 2906 002c B4F81C80 		ldrh	r8, [r4, #28]
 2907              	.LVL268:
 2908              		.loc 1 680 0
 2909 0030 B8F1000F 		cmp	r8, #0
 2910 0034 50D0     		beq	.L470
 2911              	.LVL269:
 2912              	.L451:
 2913              	.LBB49:
 2914              	.LBB50:
 2915              		.loc 1 1468 0
 2916 0036 324F     		ldr	r7, .L475
 2917 0038 324A     		ldr	r2, .L475+4
 2918 003a 3B68     		ldr	r3, [r7, #0]
 2919 003c 1268     		ldr	r2, [r2, #0]
 2920 003e D218     		adds	r2, r2, r3
 2921              	.LBE50:
ARM GAS  /tmp/ccqErZ7k.s 			page 53


 2922              	.LBE49:
 2923              		.loc 1 706 0
 2924 0040 02F1FF3E 		add	lr, r2, #-1
 2925              		.loc 1 704 0
 2926 0044 0023     		movs	r3, #0
 2927              		.loc 1 708 0
 2928 0046 4FF40666 		mov	r6, #2144
 2929              		.loc 1 714 0
 2930 004a 4FF40670 		mov	r0, #536
 2931              		.loc 1 716 0
 2932 004e 2946     		mov	r1, r5
 2933              		.loc 1 704 0
 2934 0050 6362     		str	r3, [r4, #36]
 2935              		.loc 1 705 0
 2936 0052 A265     		str	r2, [r4, #88]
 2937              		.loc 1 706 0
 2938 0054 C4F84CE0 		str	lr, [r4, #76]
 2939              		.loc 1 707 0
 2940 0058 C4F868E0 		str	lr, [r4, #104]
 2941              		.loc 1 710 0
 2942 005c E362     		str	r3, [r4, #44]
 2943              		.loc 1 708 0
 2944 005e 2685     		strh	r6, [r4, #40]	@ movhi
 2945              		.loc 1 709 0
 2946 0060 6685     		strh	r6, [r4, #42]	@ movhi
 2947              		.loc 1 711 0
 2948 0062 A4F85C60 		strh	r6, [r4, #92]	@ movhi
 2949              		.loc 1 714 0
 2950 0066 2087     		strh	r0, [r4, #56]	@ movhi
 2951              	.LBB52:
 2952              	.LBB51:
 2953              		.loc 1 1468 0
 2954 0068 3A60     		str	r2, [r7, #0]
 2955              	.LBE51:
 2956              	.LBE52:
 2957              		.loc 1 716 0
 2958 006a FFF7FEFF 		bl	tcp_eff_send_mss
 2959              	.LVL270:
 2960              		.loc 1 719 0
 2961 006e 00EB8003 		add	r3, r0, r0, lsl #2
 2962 0072 5B00     		lsls	r3, r3, #1
 2963              		.loc 1 718 0
 2964 0074 0122     		movs	r2, #1
 2965              		.loc 1 716 0
 2966 0076 2087     		strh	r0, [r4, #56]	@ movhi
 2967              		.loc 1 718 0
 2968 0078 A4F85220 		strh	r2, [r4, #82]	@ movhi
 2969              		.loc 1 719 0
 2970 007c A4F85430 		strh	r3, [r4, #84]	@ movhi
 2971              		.loc 1 721 0
 2972 0080 C4F88C90 		str	r9, [r4, #140]
 2973              		.loc 1 727 0
 2974 0084 2046     		mov	r0, r4
 2975 0086 0221     		movs	r1, #2
 2976 0088 FFF7FEFF 		bl	tcp_enqueue_flags
 2977              	.LVL271:
 2978              		.loc 1 728 0
ARM GAS  /tmp/ccqErZ7k.s 			page 54


 2979 008c 0546     		mov	r5, r0
 2980              	.LVL272:
 2981 008e 00BB     		cbnz	r0, .L449
 2982              		.loc 1 730 0
 2983 0090 0223     		movs	r3, #2
 2984 0092 2374     		strb	r3, [r4, #16]
 2985              		.loc 1 731 0
 2986 0094 B8F1000F 		cmp	r8, #0
 2987 0098 12D0     		beq	.L452
 2988              		.loc 1 732 0
 2989 009a 1B4B     		ldr	r3, .L475+8
 2990 009c 1A68     		ldr	r2, [r3, #0]
 2991 009e A242     		cmp	r2, r4
 2992 00a0 22D0     		beq	.L471
 2993              		.loc 1 732 0 is_stmt 0 discriminator 2
 2994 00a2 1A49     		ldr	r1, .L475+12
 2995 00a4 0A60     		str	r2, [r1, #0]
 2996 00a6 5AB1     		cbz	r2, .L452
 2997              		.loc 1 732 0
 2998 00a8 D368     		ldr	r3, [r2, #12]
 2999 00aa A342     		cmp	r3, r4
 3000 00ac 1AD0     		beq	.L472
 3001              	.L468:
 3002              		.loc 1 732 0 discriminator 5
 3003 00ae BBB1     		cbz	r3, .L473
 3004              		.loc 1 732 0 discriminator 7
 3005 00b0 DA68     		ldr	r2, [r3, #12]
 3006 00b2 A242     		cmp	r2, r4
 3007 00b4 01D0     		beq	.L474
 3008              		.loc 1 732 0
 3009 00b6 1346     		mov	r3, r2
 3010 00b8 F9E7     		b	.L468
 3011              	.L474:
 3012 00ba 0B60     		str	r3, [r1, #0]
 3013              	.L456:
 3014              		.loc 1 732 0 discriminator 4
 3015 00bc E268     		ldr	r2, [r4, #12]
 3016 00be DA60     		str	r2, [r3, #12]
 3017              	.L452:
 3018              		.loc 1 734 0 is_stmt 1
 3019 00c0 134B     		ldr	r3, .L475+16
 3020 00c2 1A68     		ldr	r2, [r3, #0]
 3021 00c4 1C60     		str	r4, [r3, #0]
 3022 00c6 E260     		str	r2, [r4, #12]
 3023 00c8 FFF7FEFF 		bl	tcp_timer_needed
 3024              	.LVL273:
 3025              		.loc 1 737 0
 3026 00cc 2046     		mov	r0, r4
 3027 00ce FFF7FEFF 		bl	tcp_output
 3028              	.LVL274:
 3029              	.L449:
 3030              		.loc 1 740 0
 3031 00d2 68B2     		sxtb	r0, r5
 3032 00d4 BDE8F883 		pop	{r3, r4, r5, r6, r7, r8, r9, pc}
 3033              	.LVL275:
 3034              	.L470:
 3035              		.loc 1 681 0
ARM GAS  /tmp/ccqErZ7k.s 			page 55


 3036 00d8 FFF7FEFF 		bl	tcp_new_port
 3037              	.LVL276:
 3038 00dc A083     		strh	r0, [r4, #28]	@ movhi
 3039 00de AAE7     		b	.L451
 3040              	.LVL277:
 3041              	.L473:
 3042 00e0 0B60     		str	r3, [r1, #0]
 3043 00e2 EDE7     		b	.L452
 3044              	.L472:
 3045              		.loc 1 732 0
 3046 00e4 1346     		mov	r3, r2
 3047 00e6 E9E7     		b	.L456
 3048              	.L471:
 3049              		.loc 1 732 0 is_stmt 0 discriminator 1
 3050 00e8 E268     		ldr	r2, [r4, #12]
 3051 00ea 1A60     		str	r2, [r3, #0]
 3052 00ec E8E7     		b	.L452
 3053              	.LVL278:
 3054              	.L469:
 3055              		.loc 1 656 0 is_stmt 1 discriminator 1
 3056 00ee FFF7FEFF 		bl	port_halt
 3057              	.LVL279:
 3058 00f2 F725     		movs	r5, #247
 3059              	.LVL280:
 3060 00f4 EDE7     		b	.L449
 3061              	.LVL281:
 3062              	.L461:
 3063              		.loc 1 662 0
 3064 00f6 FA25     		movs	r5, #250
 3065              	.LVL282:
 3066 00f8 EBE7     		b	.L449
 3067              	.LVL283:
 3068              	.L462:
 3069              	.LBB53:
 3070              		.loc 1 673 0
 3071 00fa FC25     		movs	r5, #252
 3072              	.LVL284:
 3073 00fc E9E7     		b	.L449
 3074              	.L476:
 3075 00fe 00BF     		.align	2
 3076              	.L475:
 3077 0100 00000000 		.word	.LANCHOR10
 3078 0104 00000000 		.word	.LANCHOR5
 3079 0108 00000000 		.word	.LANCHOR2
 3080 010c 00000000 		.word	.LANCHOR3
 3081 0110 00000000 		.word	.LANCHOR6
 3082              	.LBE53:
 3083              		.cfi_endproc
 3084              	.LFE19:
 3085              		.size	tcp_connect, .-tcp_connect
 3086 0114 AFF30080 		.section	.text.tcp_debug_state_str,"ax",%progbits
 3086      AFF30080 
 3086      AFF30080 
 3087              		.align	2
 3088              		.p2align 4,,15
 3089              		.global	tcp_debug_state_str
 3090              		.thumb
ARM GAS  /tmp/ccqErZ7k.s 			page 56


 3091              		.thumb_func
 3092              		.type	tcp_debug_state_str, %function
 3093              	tcp_debug_state_str:
 3094              	.LFB41:
 3095              		.loc 1 1499 0
 3096              		.cfi_startproc
 3097              		@ args = 0, pretend = 0, frame = 0
 3098              		@ frame_needed = 0, uses_anonymous_args = 0
 3099              		@ link register save eliminated.
 3100              	.LVL285:
 3101              		.loc 1 1500 0
 3102 0000 40F20003 		movw	r3, #:lower16:.LANCHOR12
 3103 0004 C0F20003 		movt	r3, #:upper16:.LANCHOR12
 3104              		.loc 1 1501 0
 3105 0008 53F82000 		ldr	r0, [r3, r0, lsl #2]
 3106              	.LVL286:
 3107 000c 7047     		bx	lr
 3108              		.cfi_endproc
 3109              	.LFE41:
 3110              		.size	tcp_debug_state_str, .-tcp_debug_state_str
 3111              		.global	tcp_tmp_pcb
 3112              		.global	tcp_pcb_lists
 3113              		.global	tcp_tw_pcbs
 3114              		.global	tcp_active_pcbs
 3115              		.global	tcp_listen_pcbs
 3116              		.global	tcp_bound_pcbs
 3117              		.global	tcp_persist_backoff
 3118              		.global	tcp_backoff
 3119              		.global	tcp_ticks
 3120              		.global	tcp_state_str
 3121 000e 00BF     		.section	.rodata.tcp_state_str,"a",%progbits
 3122              		.align	2
 3123              		.set	.LANCHOR12,. + 0
 3124              		.type	tcp_state_str, %object
 3125              		.size	tcp_state_str, 44
 3126              	tcp_state_str:
 3127 0000 00000000 		.word	.LC0
 3128 0004 08000000 		.word	.LC1
 3129 0008 10000000 		.word	.LC2
 3130 000c 1C000000 		.word	.LC3
 3131 0010 28000000 		.word	.LC4
 3132 0014 34000000 		.word	.LC5
 3133 0018 40000000 		.word	.LC6
 3134 001c 4C000000 		.word	.LC7
 3135 0020 58000000 		.word	.LC8
 3136 0024 60000000 		.word	.LC9
 3137 0028 6C000000 		.word	.LC10
 3138              		.section	.rodata.tcp_pcb_lists,"a",%progbits
 3139              		.align	2
 3140              		.set	.LANCHOR1,. + 0
 3141              		.type	tcp_pcb_lists, %object
 3142              		.size	tcp_pcb_lists, 16
 3143              	tcp_pcb_lists:
 3144 0000 00000000 		.word	tcp_listen_pcbs
 3145 0004 00000000 		.word	tcp_bound_pcbs
 3146 0008 00000000 		.word	tcp_active_pcbs
 3147 000c 00000000 		.word	tcp_tw_pcbs
ARM GAS  /tmp/ccqErZ7k.s 			page 57


 3148              		.section	.bss.tcp_ticks,"aw",%nobits
 3149              		.align	2
 3150              		.set	.LANCHOR5,. + 0
 3151              		.type	tcp_ticks, %object
 3152              		.size	tcp_ticks, 4
 3153              	tcp_ticks:
 3154 0000 00000000 		.space	4
 3155              		.section	.data.iss.6043,"aw",%progbits
 3156              		.align	2
 3157              		.set	.LANCHOR10,. + 0
 3158              		.type	iss.6043, %object
 3159              		.size	iss.6043, 4
 3160              	iss.6043:
 3161 0000 6E190000 		.word	6510
 3162              		.section	.bss.tcp_timer,"aw",%nobits
 3163              		.set	.LANCHOR11,. + 0
 3164              		.type	tcp_timer, %object
 3165              		.size	tcp_timer, 1
 3166              	tcp_timer:
 3167 0000 00       		.space	1
 3168              		.section	.bss.tcp_listen_pcbs,"aw",%nobits
 3169              		.align	2
 3170              		.set	.LANCHOR4,. + 0
 3171              		.type	tcp_listen_pcbs, %object
 3172              		.size	tcp_listen_pcbs, 4
 3173              	tcp_listen_pcbs:
 3174 0000 00000000 		.space	4
 3175              		.section	.rodata.tcp_backoff,"a",%progbits
 3176              		.align	2
 3177              		.set	.LANCHOR9,. + 0
 3178              		.type	tcp_backoff, %object
 3179              		.size	tcp_backoff, 13
 3180              	tcp_backoff:
 3181 0000 01       		.byte	1
 3182 0001 02       		.byte	2
 3183 0002 03       		.byte	3
 3184 0003 04       		.byte	4
 3185 0004 05       		.byte	5
 3186 0005 06       		.byte	6
 3187 0006 07       		.byte	7
 3188 0007 07       		.byte	7
 3189 0008 07       		.byte	7
 3190 0009 07       		.byte	7
 3191 000a 07       		.byte	7
 3192 000b 07       		.byte	7
 3193 000c 07       		.byte	7
 3194 000d 000000   		.section	.data.port.5907,"aw",%progbits
 3195              		.align	1
 3196              		.set	.LANCHOR0,. + 0
 3197              		.type	port.5907, %object
 3198              		.size	port.5907, 2
 3199              	port.5907:
 3200 0000 00C0     		.short	-16384
 3201              		.section	.bss.tcp_active_pcbs,"aw",%nobits
 3202              		.align	2
 3203              		.set	.LANCHOR6,. + 0
 3204              		.type	tcp_active_pcbs, %object
ARM GAS  /tmp/ccqErZ7k.s 			page 58


 3205              		.size	tcp_active_pcbs, 4
 3206              	tcp_active_pcbs:
 3207 0000 00000000 		.space	4
 3208              		.section	.bss.tcp_tw_pcbs,"aw",%nobits
 3209              		.align	2
 3210              		.set	.LANCHOR7,. + 0
 3211              		.type	tcp_tw_pcbs, %object
 3212              		.size	tcp_tw_pcbs, 4
 3213              	tcp_tw_pcbs:
 3214 0000 00000000 		.space	4
 3215              		.section	.bss.tcp_tmp_pcb,"aw",%nobits
 3216              		.align	2
 3217              		.set	.LANCHOR3,. + 0
 3218              		.type	tcp_tmp_pcb, %object
 3219              		.size	tcp_tmp_pcb, 4
 3220              	tcp_tmp_pcb:
 3221 0000 00000000 		.space	4
 3222              		.section	.rodata.str1.4,"aMS",%progbits,1
 3223              		.align	2
 3224              	.LC0:
 3225 0000 434C4F53 		.ascii	"CLOSED\000"
 3225      454400
 3226 0007 00       		.space	1
 3227              	.LC1:
 3228 0008 4C495354 		.ascii	"LISTEN\000"
 3228      454E00
 3229 000f 00       		.space	1
 3230              	.LC2:
 3231 0010 53594E5F 		.ascii	"SYN_SENT\000"
 3231      53454E54 
 3231      00
 3232 0019 000000   		.space	3
 3233              	.LC3:
 3234 001c 53594E5F 		.ascii	"SYN_RCVD\000"
 3234      52435644 
 3234      00
 3235 0025 000000   		.space	3
 3236              	.LC4:
 3237 0028 45535441 		.ascii	"ESTABLISHED\000"
 3237      424C4953 
 3237      48454400 
 3238              	.LC5:
 3239 0034 46494E5F 		.ascii	"FIN_WAIT_1\000"
 3239      57414954 
 3239      5F3100
 3240 003f 00       		.space	1
 3241              	.LC6:
 3242 0040 46494E5F 		.ascii	"FIN_WAIT_2\000"
 3242      57414954 
 3242      5F3200
 3243 004b 00       		.space	1
 3244              	.LC7:
 3245 004c 434C4F53 		.ascii	"CLOSE_WAIT\000"
 3245      455F5741 
 3245      495400
 3246 0057 00       		.space	1
 3247              	.LC8:
ARM GAS  /tmp/ccqErZ7k.s 			page 59


 3248 0058 434C4F53 		.ascii	"CLOSING\000"
 3248      494E4700 
 3249              	.LC9:
 3250 0060 4C415354 		.ascii	"LAST_ACK\000"
 3250      5F41434B 
 3250      00
 3251 0069 000000   		.space	3
 3252              	.LC10:
 3253 006c 54494D45 		.ascii	"TIME_WAIT\000"
 3253      5F574149 
 3253      5400
 3254 0076 0000     		.section	.rodata.tcp_persist_backoff,"a",%progbits
 3255              		.align	2
 3256              		.set	.LANCHOR8,. + 0
 3257              		.type	tcp_persist_backoff, %object
 3258              		.size	tcp_persist_backoff, 7
 3259              	tcp_persist_backoff:
 3260 0000 03       		.byte	3
 3261 0001 06       		.byte	6
 3262 0002 0C       		.byte	12
 3263 0003 18       		.byte	24
 3264 0004 30       		.byte	48
 3265 0005 60       		.byte	96
 3266 0006 78       		.byte	120
 3267 0007 00       		.section	.bss.tcp_bound_pcbs,"aw",%nobits
 3268              		.align	2
 3269              		.set	.LANCHOR2,. + 0
 3270              		.type	tcp_bound_pcbs, %object
 3271              		.size	tcp_bound_pcbs, 4
 3272              	tcp_bound_pcbs:
 3273 0000 00000000 		.space	4
 3274              		.text
 3275              	.Letext0:
 3276              		.file 2 "/opt/psas/x-tools/stm32f407/arm-psas-eabi/bin/../lib/gcc/arm-psas-eabi/4.7.2/../../../../
 3277              		.file 3 "../../os/various/lwip_bindings/arch/cc.h"
 3278              		.file 4 "../../ext/lwip/src/include/lwip/mem.h"
 3279              		.file 5 "../../ext/lwip/src/include/lwip/memp.h"
 3280              		.file 6 "../../ext/lwip/src/include/ipv4/lwip/ip_addr.h"
 3281              		.file 7 "../../ext/lwip/src/include/lwip/err.h"
 3282              		.file 8 "../../ext/lwip/src/include/lwip/pbuf.h"
 3283              		.file 9 "../../ext/lwip/src/include/lwip/netif.h"
 3284              		.file 10 "../../ext/lwip/src/include/lwip/tcp.h"
 3285              		.file 11 "../../ext/lwip/src/include/lwip/tcp_impl.h"
 3286              		.file 12 "../../ext/lwip/src/include/lwip/stats.h"
 3287              		.file 13 "../../os/ports/GCC/ARMCMx/chcore_v7m.h"
 3288              		.file 14 "../../ext/lwip/src/include/ipv4/lwip/ip.h"