ARM GAS  /tmp/ccqErZ7k.s 			page 1


   1              		.syntax unified
   2              		.cpu cortex-m4
   3              		.eabi_attribute 27, 3
   4              		.eabi_attribute 28, 1
   5              		.fpu fpv4-sp-d16
   6              		.eabi_attribute 20, 1
   7              		.eabi_attribute 21, 1
   8              		.eabi_attribute 23, 3
   9              		.eabi_attribute 24, 1
  10              		.eabi_attribute 25, 1
  11              		.eabi_attribute 26, 1
  12              		.eabi_attribute 30, 2
  13              		.eabi_attribute 34, 1
  14              		.eabi_attribute 18, 4
  15              		.thumb
  16              		.file	"tcp.c"
  17              		.text
  18              	.Ltext0:
  19              		.cfi_sections	.debug_frame
  20              		.section	.text.tcp_accept_null,"ax",%progbits
  21              		.align	2
  22              		.p2align 4,,15
  23              		.thumb
  24              		.thumb_func
  25              		.type	tcp_accept_null, %function
  26              	tcp_accept_null:
  27              	.LFB14:
  28              		.file 1 "../../ext/lwip/src/core/tcp.c"
  29              		.loc 1 459 0
  30              		.cfi_startproc
  31              		@ args = 0, pretend = 0, frame = 0
  32              		@ frame_needed = 0, uses_anonymous_args = 0
  33              		@ link register save eliminated.
  34              	.LVL0:
  35              		.loc 1 465 0
  36 0000 6FF00900 		mvn	r0, #9
  37              	.LVL1:
  38 0004 7047     		bx	lr
  39              		.cfi_endproc
  40              	.LFE14:
  41              		.size	tcp_accept_null, .-tcp_accept_null
  42 0006 00BFAFF3 		.section	.text.tcp_new_port,"ax",%progbits
  42      0080AFF3 
  42      0080
  43              		.align	2
  44              		.p2align 4,,15
  45              		.thumb
  46              		.thumb_func
  47              		.type	tcp_new_port, %function
  48              	tcp_new_port:
  49              	.LFB18:
  50              		.loc 1 610 0
  51              		.cfi_startproc
  52              		@ args = 0, pretend = 0, frame = 0
  53              		@ frame_needed = 0, uses_anonymous_args = 0
  54              		@ link register save eliminated.
  55              	.L3:
ARM GAS  /tmp/ccqErZ7k.s 			page 2


  56 0000 70B4     		push	{r4, r5, r6}
  57              	.LCFI0:
  58              		.cfi_def_cfa_offset 12
  59              		.cfi_offset 4, -12
  60              		.cfi_offset 5, -8
  61              		.cfi_offset 6, -4
  62 0002 0E4D     		ldr	r5, .L22
  63              		.loc 1 609 0
  64 0004 0E4E     		ldr	r6, .L22+4
  65 0006 2888     		ldrh	r0, [r5, #0]
  66              		.loc 1 622 0
  67 0008 4FF6FF74 		movw	r4, #65535
  68              	.L19:
  69 000c A042     		cmp	r0, r4
  70 000e 08BF     		it	eq
  71 0010 4FF44040 		moveq	r0, #49152
  72 0014 01D0     		beq	.L5
  73 0016 0130     		adds	r0, r0, #1
  74 0018 80B2     		uxth	r0, r0
  75              	.L5:
  76              	.LVL2:
  77              		.loc 1 609 0
  78 001a 0A4A     		ldr	r2, .L22+8
  79              	.LVL3:
  80              	.L11:
  81              		.loc 1 627 0
  82 001c 52F8043F 		ldr	r3, [r2, #4]!
  83 0020 1B68     		ldr	r3, [r3, #0]
  84              	.LVL4:
  85 0022 2BB1     		cbz	r3, .L6
  86              	.L10:
  87              		.loc 1 628 0
  88 0024 998B     		ldrh	r1, [r3, #28]
  89 0026 8142     		cmp	r1, r0
  90 0028 F0D0     		beq	.L19
  91              		.loc 1 627 0
  92 002a DB68     		ldr	r3, [r3, #12]
  93              	.LVL5:
  94 002c 002B     		cmp	r3, #0
  95 002e F9D1     		bne	.L10
  96              	.L6:
  97              		.loc 1 626 0
  98 0030 B242     		cmp	r2, r6
  99 0032 F3D1     		bne	.L11
 100 0034 2880     		strh	r0, [r5, #0]	@ movhi
 101              		.loc 1 634 0
 102 0036 70BC     		pop	{r4, r5, r6}
 103 0038 7047     		bx	lr
 104              	.L23:
 105 003a 00BF     		.align	2
 106              	.L22:
 107 003c 00000000 		.word	.LANCHOR0
 108 0040 0C000000 		.word	.LANCHOR1+12
 109 0044 FCFFFFFF 		.word	.LANCHOR1-4
 110              		.cfi_endproc
 111              	.LFE18:
 112              		.size	tcp_new_port, .-tcp_new_port
ARM GAS  /tmp/ccqErZ7k.s 			page 3


 113 0048 AFF30080 		.section	.text.tcp_bind,"ax",%progbits
 113      AFF30080 
 114              		.align	2
 115              		.p2align 4,,15
 116              		.global	tcp_bind
 117              		.thumb
 118              		.thumb_func
 119              		.type	tcp_bind, %function
 120              	tcp_bind:
 121              	.LFB13:
 122              		.loc 1 401 0
 123              		.cfi_startproc
 124              		@ args = 0, pretend = 0, frame = 0
 125              		@ frame_needed = 0, uses_anonymous_args = 0
 126              	.LVL6:
 127 0000 F8B5     		push	{r3, r4, r5, r6, r7, lr}
 128              	.LCFI1:
 129              		.cfi_def_cfa_offset 24
 130              		.cfi_offset 3, -24
 131              		.cfi_offset 4, -20
 132              		.cfi_offset 5, -16
 133              		.cfi_offset 6, -12
 134              		.cfi_offset 7, -8
 135              		.cfi_offset 14, -4
 136              		.loc 1 406 0
 137 0002 037C     		ldrb	r3, [r0, #16]	@ zero_extendqisi2
 138              		.loc 1 401 0
 139 0004 0746     		mov	r7, r0
 140 0006 0E46     		mov	r6, r1
 141              		.loc 1 406 0
 142 0008 002B     		cmp	r3, #0
 143 000a 2BD1     		bne	.L49
 144              		.loc 1 419 0
 145 000c 32B3     		cbz	r2, .L50
 146              	.LVL7:
 147              	.L27:
 148              		.loc 1 400 0
 149 000e 1749     		ldr	r1, .L51
 150 0010 01F11000 		add	r0, r1, #16
 151              	.LVL8:
 152              	.L31:
 153              		.loc 1 425 0
 154 0014 51F8043F 		ldr	r3, [r1, #4]!
 155 0018 1B68     		ldr	r3, [r3, #0]
 156              	.LVL9:
 157 001a 13B9     		cbnz	r3, .L43
 158 001c 0EE0     		b	.L28
 159              	.L29:
 160 001e DB68     		ldr	r3, [r3, #12]
 161              	.LVL10:
 162 0020 63B1     		cbz	r3, .L28
 163              	.L43:
 164              		.loc 1 426 0
 165 0022 9C8B     		ldrh	r4, [r3, #28]
 166 0024 9442     		cmp	r4, r2
 167 0026 FAD1     		bne	.L29
 168              		.loc 1 435 0
ARM GAS  /tmp/ccqErZ7k.s 			page 4


 169 0028 1C68     		ldr	r4, [r3, #0]
 170 002a 24B1     		cbz	r4, .L36
 171              		.loc 1 435 0 is_stmt 0 discriminator 1
 172 002c 1EB1     		cbz	r6, .L36
 173              		.loc 1 436 0 is_stmt 1
 174 002e 3568     		ldr	r5, [r6, #0]
 175 0030 0DB1     		cbz	r5, .L36
 176              		.loc 1 436 0 is_stmt 0 discriminator 1
 177 0032 AC42     		cmp	r4, r5
 178 0034 F3D1     		bne	.L29
 179              	.L36:
 180              		.loc 1 438 0 is_stmt 1
 181 0036 F820     		movs	r0, #248
 182              	.LVL11:
 183              	.L26:
 184              		.loc 1 452 0
 185 0038 40B2     		sxtb	r0, r0
 186 003a F8BD     		pop	{r3, r4, r5, r6, r7, pc}
 187              	.LVL12:
 188              	.L28:
 189              		.loc 1 424 0
 190 003c 8142     		cmp	r1, r0
 191 003e E9D1     		bne	.L31
 192              		.loc 1 445 0
 193 0040 16B1     		cbz	r6, .L32
 194              		.loc 1 445 0 is_stmt 0 discriminator 1
 195 0042 3368     		ldr	r3, [r6, #0]
 196              	.LVL13:
 197 0044 03B1     		cbz	r3, .L32
 198              		.loc 1 446 0 is_stmt 1
 199 0046 3B60     		str	r3, [r7, #0]
 200              	.L32:
 201              		.loc 1 449 0
 202 0048 094B     		ldr	r3, .L51+4
 203              		.loc 1 448 0
 204 004a BA83     		strh	r2, [r7, #28]	@ movhi
 205              		.loc 1 449 0
 206 004c 1A68     		ldr	r2, [r3, #0]
 207              	.LVL14:
 208 004e 1F60     		str	r7, [r3, #0]
 209 0050 FA60     		str	r2, [r7, #12]
 210 0052 FFF7FEFF 		bl	tcp_timer_needed
 211              	.LVL15:
 212              		.loc 1 451 0
 213 0056 0020     		movs	r0, #0
 214              		.loc 1 452 0
 215 0058 40B2     		sxtb	r0, r0
 216 005a F8BD     		pop	{r3, r4, r5, r6, r7, pc}
 217              	.LVL16:
 218              	.L50:
 219              		.loc 1 420 0
 220 005c FFF7FEFF 		bl	tcp_new_port
 221              	.LVL17:
 222 0060 0246     		mov	r2, r0
 223              	.LVL18:
 224 0062 D4E7     		b	.L27
 225              	.LVL19:
ARM GAS  /tmp/ccqErZ7k.s 			page 5


 226              	.L49:
 227              		.loc 1 406 0 discriminator 1
 228 0064 FFF7FEFF 		bl	port_halt
 229              	.LVL20:
 230 0068 FA20     		movs	r0, #250
 231 006a E5E7     		b	.L26
 232              	.L52:
 233              		.align	2
 234              	.L51:
 235 006c FCFFFFFF 		.word	.LANCHOR1-4
 236 0070 00000000 		.word	.LANCHOR2
 237              		.cfi_endproc
 238              	.LFE13:
 239              		.size	tcp_bind, .-tcp_bind
 240 0074 AFF30080 		.section	.text.tcp_listen_with_backlog,"ax",%progbits
 240      AFF30080 
 240      AFF30080 
 241              		.align	2
 242              		.p2align 4,,15
 243              		.global	tcp_listen_with_backlog
 244              		.thumb
 245              		.thumb_func
 246              		.type	tcp_listen_with_backlog, %function
 247              	tcp_listen_with_backlog:
 248              	.LFB15:
 249              		.loc 1 484 0
 250              		.cfi_startproc
 251              		@ args = 0, pretend = 0, frame = 0
 252              		@ frame_needed = 0, uses_anonymous_args = 0
 253              	.LVL21:
 254 0000 38B5     		push	{r3, r4, r5, lr}
 255              	.LCFI2:
 256              		.cfi_def_cfa_offset 16
 257              		.cfi_offset 3, -16
 258              		.cfi_offset 4, -12
 259              		.cfi_offset 5, -8
 260              		.cfi_offset 14, -4
 261              		.loc 1 488 0
 262 0002 037C     		ldrb	r3, [r0, #16]	@ zero_extendqisi2
 263              		.loc 1 484 0
 264 0004 0446     		mov	r4, r0
 265              		.loc 1 488 0
 266 0006 002B     		cmp	r3, #0
 267 0008 41D1     		bne	.L73
 268              		.loc 1 509 0
 269 000a 0320     		movs	r0, #3
 270              	.LVL22:
 271 000c FFF7FEFF 		bl	memp_malloc
 272              	.LVL23:
 273              		.loc 1 510 0
 274 0010 0546     		mov	r5, r0
 275 0012 0028     		cmp	r0, #0
 276 0014 3DD0     		beq	.L72
 277              		.loc 1 513 0
 278 0016 6369     		ldr	r3, [r4, #20]
 279              		.loc 1 514 0
 280 0018 A28B     		ldrh	r2, [r4, #28]
ARM GAS  /tmp/ccqErZ7k.s 			page 6


 281              		.loc 1 513 0
 282 001a 4361     		str	r3, [r0, #20]
 283              		.loc 1 515 0
 284 001c 0123     		movs	r3, #1
 285              		.loc 1 514 0
 286 001e 8283     		strh	r2, [r0, #28]	@ movhi
 287              		.loc 1 515 0
 288 0020 0374     		strb	r3, [r0, #16]
 289              		.loc 1 516 0
 290 0022 637C     		ldrb	r3, [r4, #17]	@ zero_extendqisi2
 291 0024 4374     		strb	r3, [r0, #17]
 292              		.loc 1 518 0
 293 0026 237A     		ldrb	r3, [r4, #8]	@ zero_extendqisi2
 294 0028 43F00203 		orr	r3, r3, #2
 295 002c 0372     		strb	r3, [r0, #8]
 296              		.loc 1 519 0
 297 002e A37A     		ldrb	r3, [r4, #10]	@ zero_extendqisi2
 298 0030 8372     		strb	r3, [r0, #10]
 299              		.loc 1 520 0
 300 0032 637A     		ldrb	r3, [r4, #9]	@ zero_extendqisi2
 301 0034 4372     		strb	r3, [r0, #9]
 302              		.loc 1 521 0
 303 0036 2368     		ldr	r3, [r4, #0]
 304              		.loc 1 522 0
 305 0038 A28B     		ldrh	r2, [r4, #28]
 306              		.loc 1 521 0
 307 003a 0360     		str	r3, [r0, #0]
 308              		.loc 1 522 0
 309 003c 9AB1     		cbz	r2, .L56
 310              		.loc 1 523 0
 311 003e 184B     		ldr	r3, .L78
 312 0040 1A68     		ldr	r2, [r3, #0]
 313 0042 A242     		cmp	r2, r4
 314 0044 29D0     		beq	.L74
 315              		.loc 1 523 0 is_stmt 0 discriminator 2
 316 0046 1749     		ldr	r1, .L78+4
 317 0048 0A60     		str	r2, [r1, #0]
 318 004a 52B1     		cbz	r2, .L58
 319              		.loc 1 523 0
 320 004c D368     		ldr	r3, [r2, #12]
 321 004e A342     		cmp	r3, r4
 322 0050 21D0     		beq	.L75
 323              		.loc 1 523 0 discriminator 5
 324 0052 2BB1     		cbz	r3, .L76
 325              	.L63:
 326              		.loc 1 523 0 discriminator 7
 327 0054 DA68     		ldr	r2, [r3, #12]
 328 0056 A242     		cmp	r2, r4
 329 0058 13D0     		beq	.L77
 330              		.loc 1 523 0
 331 005a 1346     		mov	r3, r2
 332 005c 002B     		cmp	r3, #0
 333 005e F9D1     		bne	.L63
 334              	.L76:
 335 0060 0B60     		str	r3, [r1, #0]
 336              	.L58:
 337              		.loc 1 523 0 discriminator 6
ARM GAS  /tmp/ccqErZ7k.s 			page 7


 338 0062 0023     		movs	r3, #0
 339 0064 E360     		str	r3, [r4, #12]
 340              	.L56:
 341              		.loc 1 525 0 is_stmt 1
 342 0066 0220     		movs	r0, #2
 343              	.LVL24:
 344 0068 2146     		mov	r1, r4
 345 006a FFF7FEFF 		bl	memp_free
 346              	.LVL25:
 347              		.loc 1 533 0
 348 006e 0E4B     		ldr	r3, .L78+8
 349              		.loc 1 527 0
 350 0070 0E49     		ldr	r1, .L78+12
 351              		.loc 1 533 0
 352 0072 1A68     		ldr	r2, [r3, #0]
 353              		.loc 1 527 0
 354 0074 A961     		str	r1, [r5, #24]
 355              		.loc 1 533 0
 356 0076 EA60     		str	r2, [r5, #12]
 357 0078 1D60     		str	r5, [r3, #0]
 358 007a FFF7FEFF 		bl	tcp_timer_needed
 359              	.LVL26:
 360              		.loc 1 534 0
 361 007e 2846     		mov	r0, r5
 362 0080 38BD     		pop	{r3, r4, r5, pc}
 363              	.LVL27:
 364              	.L77:
 365 0082 0B60     		str	r3, [r1, #0]
 366              	.L60:
 367              		.loc 1 523 0 discriminator 4
 368 0084 E268     		ldr	r2, [r4, #12]
 369 0086 DA60     		str	r2, [r3, #12]
 370 0088 0023     		movs	r3, #0
 371 008a E360     		str	r3, [r4, #12]
 372 008c EBE7     		b	.L56
 373              	.LVL28:
 374              	.L73:
 375              		.loc 1 488 0 discriminator 1
 376 008e FFF7FEFF 		bl	port_halt
 377              	.LVL29:
 378              	.L72:
 379 0092 0020     		movs	r0, #0
 380 0094 38BD     		pop	{r3, r4, r5, pc}
 381              	.LVL30:
 382              	.L75:
 383              		.loc 1 523 0
 384 0096 1346     		mov	r3, r2
 385 0098 F4E7     		b	.L60
 386              	.L74:
 387              		.loc 1 523 0 is_stmt 0 discriminator 1
 388 009a E268     		ldr	r2, [r4, #12]
 389 009c 1A60     		str	r2, [r3, #0]
 390 009e E0E7     		b	.L58
 391              	.L79:
 392              		.align	2
 393              	.L78:
 394 00a0 00000000 		.word	.LANCHOR2
ARM GAS  /tmp/ccqErZ7k.s 			page 8


 395 00a4 00000000 		.word	.LANCHOR3
 396 00a8 00000000 		.word	.LANCHOR4
 397 00ac 00000000 		.word	tcp_accept_null
 398              		.cfi_endproc
 399              	.LFE15:
 400              		.size	tcp_listen_with_backlog, .-tcp_listen_with_backlog
 401              		.section	.text.tcp_update_rcv_ann_wnd,"ax",%progbits
 402              		.align	2
 403              		.p2align 4,,15
 404              		.global	tcp_update_rcv_ann_wnd
 405              		.thumb
 406              		.thumb_func
 407              		.type	tcp_update_rcv_ann_wnd, %function
 408              	tcp_update_rcv_ann_wnd:
 409              	.LFB16:
 410              		.loc 1 544 0 is_stmt 1
 411              		.cfi_startproc
 412              		@ args = 0, pretend = 0, frame = 0
 413              		@ frame_needed = 0, uses_anonymous_args = 0
 414              	.LVL31:
 415 0000 38B5     		push	{r3, r4, r5, lr}
 416              	.LCFI3:
 417              		.cfi_def_cfa_offset 16
 418              		.cfi_offset 3, -16
 419              		.cfi_offset 4, -12
 420              		.cfi_offset 5, -8
 421              		.cfi_offset 14, -4
 422              		.loc 1 547 0
 423 0002 C16A     		ldr	r1, [r0, #44]
 424              		.loc 1 545 0
 425 0004 038D     		ldrh	r3, [r0, #40]
 426 0006 426A     		ldr	r2, [r0, #36]
 427              	.LVL32:
 428              		.loc 1 547 0
 429 0008 058F     		ldrh	r5, [r0, #56]
 430              		.loc 1 544 0
 431 000a 0446     		mov	r4, r0
 432              		.loc 1 545 0
 433 000c 581A     		subs	r0, r3, r1
 434              	.LVL33:
 435              		.loc 1 547 0
 436 000e B5F5866F 		cmp	r5, #1072
 437 0012 28BF     		it	cs
 438 0014 4FF48665 		movcs	r5, #1072
 439 0018 8018     		adds	r0, r0, r2
 440 001a 451B     		subs	r5, r0, r5
 441 001c 002D     		cmp	r5, #0
 442 001e 01DB     		blt	.L82
 443              		.loc 1 549 0
 444 0020 6385     		strh	r3, [r4, #42]	@ movhi
 445              		.loc 1 550 0
 446 0022 38BD     		pop	{r3, r4, r5, pc}
 447              	.L82:
 448              		.loc 1 552 0
 449 0024 531A     		subs	r3, r2, r1
 450              	.LVL34:
 451 0026 002B     		cmp	r3, #0
ARM GAS  /tmp/ccqErZ7k.s 			page 9


 452 0028 02DD     		ble	.L84
 453              		.loc 1 555 0
 454 002a 0020     		movs	r0, #0
 455 002c 6085     		strh	r0, [r4, #42]	@ movhi
 456 002e 38BD     		pop	{r3, r4, r5, pc}
 457              	.L84:
 458              	.LBB7:
 459              		.loc 1 558 0
 460 0030 8D1A     		subs	r5, r1, r2
 461              	.LVL35:
 462              		.loc 1 559 0
 463 0032 B5F5803F 		cmp	r5, #65536
 464 0036 02D2     		bcs	.L87
 465              	.LVL36:
 466              	.L85:
 467              		.loc 1 560 0
 468 0038 6585     		strh	r5, [r4, #42]	@ movhi
 469              		.loc 1 562 0
 470 003a 0020     		movs	r0, #0
 471              	.LBE7:
 472              		.loc 1 564 0
 473 003c 38BD     		pop	{r3, r4, r5, pc}
 474              	.LVL37:
 475              	.L87:
 476              	.LBB8:
 477              		.loc 1 559 0 discriminator 1
 478 003e FFF7FEFF 		bl	port_halt
 479              	.LVL38:
 480 0042 F9E7     		b	.L85
 481              	.LBE8:
 482              		.cfi_endproc
 483              	.LFE16:
 484              		.size	tcp_update_rcv_ann_wnd, .-tcp_update_rcv_ann_wnd
 485 0044 AFF30080 		.section	.text.tcp_recved,"ax",%progbits
 485      AFF30080 
 485      AFF30080 
 486              		.align	2
 487              		.p2align 4,,15
 488              		.global	tcp_recved
 489              		.thumb
 490              		.thumb_func
 491              		.type	tcp_recved, %function
 492              	tcp_recved:
 493              	.LFB17:
 494              		.loc 1 576 0
 495              		.cfi_startproc
 496              		@ args = 0, pretend = 0, frame = 0
 497              		@ frame_needed = 0, uses_anonymous_args = 0
 498              	.LVL39:
 499              		.loc 1 579 0
 500 0000 028D     		ldrh	r2, [r0, #40]
 501              		.loc 1 576 0
 502 0002 38B5     		push	{r3, r4, r5, lr}
 503              	.LCFI4:
 504              		.cfi_def_cfa_offset 16
 505              		.cfi_offset 3, -16
 506              		.cfi_offset 4, -12
ARM GAS  /tmp/ccqErZ7k.s 			page 10


 507              		.cfi_offset 5, -8
 508              		.cfi_offset 14, -4
 509              		.loc 1 579 0
 510 0004 C2F57F43 		rsb	r3, r2, #65280
 511 0008 FF33     		adds	r3, r3, #255
 512 000a 8B42     		cmp	r3, r1
 513              		.loc 1 576 0
 514 000c 0446     		mov	r4, r0
 515 000e 0D46     		mov	r5, r1
 516              		.loc 1 579 0
 517 0010 1ADB     		blt	.L93
 518              	.LVL40:
 519              	.L89:
 520              		.loc 1 582 0
 521 0012 5219     		adds	r2, r2, r5
 522 0014 92B2     		uxth	r2, r2
 523              		.loc 1 583 0
 524 0016 B2F5066F 		cmp	r2, #2144
 525              		.loc 1 584 0
 526 001a 8ABF     		itet	hi
 527 001c 4FF40663 		movhi	r3, #2144
 528              		.loc 1 582 0
 529 0020 2285     		strhls	r2, [r4, #40]	@ movhi
 530              		.loc 1 584 0
 531 0022 2385     		strhhi	r3, [r4, #40]	@ movhi
 532              		.loc 1 587 0
 533 0024 2046     		mov	r0, r4
 534 0026 FFF7FEFF 		bl	tcp_update_rcv_ann_wnd
 535              	.LVL41:
 536              		.loc 1 593 0
 537 002a B0F5067F 		cmp	r0, #536
 538 002e 00DA     		bge	.L94
 539 0030 38BD     		pop	{r3, r4, r5, pc}
 540              	.L94:
 541              		.loc 1 594 0
 542 0032 94F82030 		ldrb	r3, [r4, #32]	@ zero_extendqisi2
 543              		.loc 1 595 0
 544 0036 2046     		mov	r0, r4
 545              	.LVL42:
 546              		.loc 1 594 0
 547 0038 43F00203 		orr	r3, r3, #2
 548 003c 84F82030 		strb	r3, [r4, #32]
 549              		.loc 1 600 0
 550 0040 BDE83840 		pop	{r3, r4, r5, lr}
 551              		.loc 1 595 0
 552 0044 FFF7FEBF 		b	tcp_output
 553              	.LVL43:
 554              	.L93:
 555              		.loc 1 579 0 discriminator 1
 556 0048 FFF7FEFF 		bl	port_halt
 557              	.LVL44:
 558 004c 228D     		ldrh	r2, [r4, #40]
 559 004e E0E7     		b	.L89
 560              		.cfi_endproc
 561              	.LFE17:
 562              		.size	tcp_recved, .-tcp_recved
 563              		.section	.text.tcp_seg_free,"ax",%progbits
ARM GAS  /tmp/ccqErZ7k.s 			page 11


 564              		.align	2
 565              		.p2align 4,,15
 566              		.global	tcp_seg_free
 567              		.thumb
 568              		.thumb_func
 569              		.type	tcp_seg_free, %function
 570              	tcp_seg_free:
 571              	.LFB23:
 572              		.loc 1 1047 0
 573              		.cfi_startproc
 574              		@ args = 0, pretend = 0, frame = 0
 575              		@ frame_needed = 0, uses_anonymous_args = 0
 576              	.LVL45:
 577 0000 10B5     		push	{r4, lr}
 578              	.LCFI5:
 579              		.cfi_def_cfa_offset 8
 580              		.cfi_offset 4, -8
 581              		.cfi_offset 14, -4
 582              		.loc 1 1048 0
 583 0002 0446     		mov	r4, r0
 584 0004 48B1     		cbz	r0, .L95
 585              		.loc 1 1049 0
 586 0006 4068     		ldr	r0, [r0, #4]
 587              	.LVL46:
 588 0008 08B1     		cbz	r0, .L97
 589              		.loc 1 1050 0
 590 000a FFF7FEFF 		bl	pbuf_free
 591              	.LVL47:
 592              	.L97:
 593              		.loc 1 1055 0
 594 000e 0420     		movs	r0, #4
 595 0010 2146     		mov	r1, r4
 596              		.loc 1 1057 0
 597 0012 BDE81040 		pop	{r4, lr}
 598              		.loc 1 1055 0
 599 0016 FFF7FEBF 		b	memp_free
 600              	.LVL48:
 601              	.L95:
 602 001a 10BD     		pop	{r4, pc}
 603              		.cfi_endproc
 604              	.LFE23:
 605              		.size	tcp_seg_free, .-tcp_seg_free
 606 001c AFF30080 		.section	.text.tcp_segs_free,"ax",%progbits
 607              		.align	2
 608              		.p2align 4,,15
 609              		.global	tcp_segs_free
 610              		.thumb
 611              		.thumb_func
 612              		.type	tcp_segs_free, %function
 613              	tcp_segs_free:
 614              	.LFB22:
 615              		.loc 1 1032 0
 616              		.cfi_startproc
 617              		@ args = 0, pretend = 0, frame = 0
 618              		@ frame_needed = 0, uses_anonymous_args = 0
 619              	.LVL49:
 620 0000 10B5     		push	{r4, lr}
ARM GAS  /tmp/ccqErZ7k.s 			page 12


 621              	.LCFI6:
 622              		.cfi_def_cfa_offset 8
 623              		.cfi_offset 4, -8
 624              		.cfi_offset 14, -4
 625              		.loc 1 1033 0
 626 0002 28B1     		cbz	r0, .L101
 627              	.L105:
 628              	.LBB9:
 629              		.loc 1 1034 0
 630 0004 0468     		ldr	r4, [r0, #0]
 631              	.LVL50:
 632              		.loc 1 1035 0
 633 0006 FFF7FEFF 		bl	tcp_seg_free
 634              	.LVL51:
 635              	.LBE9:
 636              		.loc 1 1033 0
 637 000a 2046     		mov	r0, r4
 638 000c 002C     		cmp	r4, #0
 639 000e F9D1     		bne	.L105
 640              	.LVL52:
 641              	.L101:
 642 0010 10BD     		pop	{r4, pc}
 643              		.cfi_endproc
 644              	.LFE22:
 645              		.size	tcp_segs_free, .-tcp_segs_free
 646 0012 00BFAFF3 		.section	.text.tcp_setprio,"ax",%progbits
 646      0080AFF3 
 646      0080AFF3 
 646      0080
 647              		.align	2
 648              		.p2align 4,,15
 649              		.global	tcp_setprio
 650              		.thumb
 651              		.thumb_func
 652              		.type	tcp_setprio, %function
 653              	tcp_setprio:
 654              	.LFB24:
 655              		.loc 1 1067 0
 656              		.cfi_startproc
 657              		@ args = 0, pretend = 0, frame = 0
 658              		@ frame_needed = 0, uses_anonymous_args = 0
 659              		@ link register save eliminated.
 660              	.LVL53:
 661              		.loc 1 1068 0
 662 0000 4174     		strb	r1, [r0, #17]
 663 0002 7047     		bx	lr
 664              		.cfi_endproc
 665              	.LFE24:
 666              		.size	tcp_setprio, .-tcp_setprio
 667 0004 AFF30080 		.section	.text.tcp_seg_copy,"ax",%progbits
 667      AFF30080 
 667      AFF30080 
 668              		.align	2
 669              		.p2align 4,,15
 670              		.global	tcp_seg_copy
 671              		.thumb
 672              		.thumb_func
ARM GAS  /tmp/ccqErZ7k.s 			page 13


 673              		.type	tcp_seg_copy, %function
 674              	tcp_seg_copy:
 675              	.LFB25:
 676              		.loc 1 1081 0
 677              		.cfi_startproc
 678              		@ args = 0, pretend = 0, frame = 0
 679              		@ frame_needed = 0, uses_anonymous_args = 0
 680              	.LVL54:
 681 0000 38B5     		push	{r3, r4, r5, lr}
 682              	.LCFI7:
 683              		.cfi_def_cfa_offset 16
 684              		.cfi_offset 3, -16
 685              		.cfi_offset 4, -12
 686              		.cfi_offset 5, -8
 687              		.cfi_offset 14, -4
 688              		.loc 1 1081 0
 689 0002 0546     		mov	r5, r0
 690              		.loc 1 1084 0
 691 0004 0420     		movs	r0, #4
 692              	.LVL55:
 693 0006 FFF7FEFF 		bl	memp_malloc
 694              	.LVL56:
 695              		.loc 1 1085 0
 696 000a 0446     		mov	r4, r0
 697 000c 50B1     		cbz	r0, .L109
 698              		.loc 1 1088 0
 699 000e 6868     		ldr	r0, [r5, #4]	@ unaligned
 700              	.LVL57:
 701 0010 2968     		ldr	r1, [r5, #0]	@ unaligned
 702 0012 AA68     		ldr	r2, [r5, #8]	@ unaligned
 703 0014 EB68     		ldr	r3, [r5, #12]	@ unaligned
 704 0016 6060     		str	r0, [r4, #4]	@ unaligned
 705 0018 2160     		str	r1, [r4, #0]	@ unaligned
 706 001a A260     		str	r2, [r4, #8]	@ unaligned
 707 001c E360     		str	r3, [r4, #12]	@ unaligned
 708              		.loc 1 1089 0
 709 001e 6068     		ldr	r0, [r4, #4]
 710 0020 FFF7FEFF 		bl	pbuf_ref
 711              	.LVL58:
 712              	.L109:
 713              		.loc 1 1091 0
 714 0024 2046     		mov	r0, r4
 715 0026 38BD     		pop	{r3, r4, r5, pc}
 716              		.cfi_endproc
 717              	.LFE25:
 718              		.size	tcp_seg_copy, .-tcp_seg_copy
 719 0028 AFF30080 		.section	.text.tcp_arg,"ax",%progbits
 719      AFF30080 
 720              		.align	2
 721              		.p2align 4,,15
 722              		.global	tcp_arg
 723              		.thumb
 724              		.thumb_func
 725              		.type	tcp_arg, %function
 726              	tcp_arg:
 727              	.LFB31:
 728              		.loc 1 1278 0
ARM GAS  /tmp/ccqErZ7k.s 			page 14


 729              		.cfi_startproc
 730              		@ args = 0, pretend = 0, frame = 0
 731              		@ frame_needed = 0, uses_anonymous_args = 0
 732              		@ link register save eliminated.
 733              	.LVL59:
 734              		.loc 1 1279 0
 735 0000 4161     		str	r1, [r0, #20]
 736 0002 7047     		bx	lr
 737              		.cfi_endproc
 738              	.LFE31:
 739              		.size	tcp_arg, .-tcp_arg
 740 0004 AFF30080 		.section	.text.tcp_recv,"ax",%progbits
 740      AFF30080 
 740      AFF30080 
 741              		.align	2
 742              		.p2align 4,,15
 743              		.global	tcp_recv
 744              		.thumb
 745              		.thumb_func
 746              		.type	tcp_recv, %function
 747              	tcp_recv:
 748              	.LFB32:
 749              		.loc 1 1292 0
 750              		.cfi_startproc
 751              		@ args = 0, pretend = 0, frame = 0
 752              		@ frame_needed = 0, uses_anonymous_args = 0
 753              		@ link register save eliminated.
 754              	.LVL60:
 755              		.loc 1 1293 0
 756 0000 C0F88810 		str	r1, [r0, #136]
 757 0004 7047     		bx	lr
 758              		.cfi_endproc
 759              	.LFE32:
 760              		.size	tcp_recv, .-tcp_recv
 761 0006 00BFAFF3 		.section	.text.tcp_sent,"ax",%progbits
 761      0080AFF3 
 761      0080
 762              		.align	2
 763              		.p2align 4,,15
 764              		.global	tcp_sent
 765              		.thumb
 766              		.thumb_func
 767              		.type	tcp_sent, %function
 768              	tcp_sent:
 769              	.LFB33:
 770              		.loc 1 1305 0
 771              		.cfi_startproc
 772              		@ args = 0, pretend = 0, frame = 0
 773              		@ frame_needed = 0, uses_anonymous_args = 0
 774              		@ link register save eliminated.
 775              	.LVL61:
 776              		.loc 1 1306 0
 777 0000 C0F88410 		str	r1, [r0, #132]
 778 0004 7047     		bx	lr
 779              		.cfi_endproc
 780              	.LFE33:
 781              		.size	tcp_sent, .-tcp_sent
ARM GAS  /tmp/ccqErZ7k.s 			page 15


 782 0006 00BFAFF3 		.section	.text.tcp_err,"ax",%progbits
 782      0080AFF3 
 782      0080
 783              		.align	2
 784              		.p2align 4,,15
 785              		.global	tcp_err
 786              		.thumb
 787              		.thumb_func
 788              		.type	tcp_err, %function
 789              	tcp_err:
 790              	.LFB34:
 791              		.loc 1 1319 0
 792              		.cfi_startproc
 793              		@ args = 0, pretend = 0, frame = 0
 794              		@ frame_needed = 0, uses_anonymous_args = 0
 795              		@ link register save eliminated.
 796              	.LVL62:
 797              		.loc 1 1320 0
 798 0000 C0F89410 		str	r1, [r0, #148]
 799 0004 7047     		bx	lr
 800              		.cfi_endproc
 801              	.LFE34:
 802              		.size	tcp_err, .-tcp_err
 803 0006 00BFAFF3 		.section	.text.tcp_accept,"ax",%progbits
 803      0080AFF3 
 803      0080
 804              		.align	2
 805              		.p2align 4,,15
 806              		.global	tcp_accept
 807              		.thumb
 808              		.thumb_func
 809              		.type	tcp_accept, %function
 810              	tcp_accept:
 811              	.LFB35:
 812              		.loc 1 1333 0
 813              		.cfi_startproc
 814              		@ args = 0, pretend = 0, frame = 0
 815              		@ frame_needed = 0, uses_anonymous_args = 0
 816              		@ link register save eliminated.
 817              	.LVL63:
 818              		.loc 1 1334 0
 819 0000 8161     		str	r1, [r0, #24]
 820 0002 7047     		bx	lr
 821              		.cfi_endproc
 822              	.LFE35:
 823              		.size	tcp_accept, .-tcp_accept
 824 0004 AFF30080 		.section	.text.tcp_poll,"ax",%progbits
 824      AFF30080 
 824      AFF30080 
 825              		.align	2
 826              		.p2align 4,,15
 827              		.global	tcp_poll
 828              		.thumb
 829              		.thumb_func
 830              		.type	tcp_poll, %function
 831              	tcp_poll:
 832              	.LFB36:
ARM GAS  /tmp/ccqErZ7k.s 			page 16


 833              		.loc 1 1347 0
 834              		.cfi_startproc
 835              		@ args = 0, pretend = 0, frame = 0
 836              		@ frame_needed = 0, uses_anonymous_args = 0
 837              		@ link register save eliminated.
 838              	.LVL64:
 839              		.loc 1 1349 0
 840 0000 C0F89010 		str	r1, [r0, #144]
 841              		.loc 1 1353 0
 842 0004 80F83520 		strb	r2, [r0, #53]
 843 0008 7047     		bx	lr
 844              		.cfi_endproc
 845              	.LFE36:
 846              		.size	tcp_poll, .-tcp_poll
 847 000a 00BFAFF3 		.section	.text.tcp_pcb_purge,"ax",%progbits
 847      0080
 848              		.align	2
 849              		.p2align 4,,15
 850              		.global	tcp_pcb_purge
 851              		.thumb
 852              		.thumb_func
 853              		.type	tcp_pcb_purge, %function
 854              	tcp_pcb_purge:
 855              	.LFB37:
 856              		.loc 1 1364 0
 857              		.cfi_startproc
 858              		@ args = 0, pretend = 0, frame = 0
 859              		@ frame_needed = 0, uses_anonymous_args = 0
 860              	.LVL65:
 861 0000 38B5     		push	{r3, r4, r5, lr}
 862              	.LCFI8:
 863              		.cfi_def_cfa_offset 16
 864              		.cfi_offset 3, -16
 865              		.cfi_offset 4, -12
 866              		.cfi_offset 5, -8
 867              		.cfi_offset 14, -4
 868              		.loc 1 1365 0
 869 0002 037C     		ldrb	r3, [r0, #16]	@ zero_extendqisi2
 870 0004 0A2B     		cmp	r3, #10
 871 0006 18BF     		it	ne
 872 0008 002B     		cmpne	r3, #0
 873              		.loc 1 1364 0
 874 000a 0446     		mov	r4, r0
 875              		.loc 1 1365 0
 876 000c 1BD0     		beq	.L119
 877              		.loc 1 1366 0
 878 000e 012B     		cmp	r3, #1
 879 0010 19D0     		beq	.L119
 880              	.LVL66:
 881              	.LBB12:
 882              	.LBB13:
 883              		.loc 1 1392 0
 884 0012 D0F88000 		ldr	r0, [r0, #128]
 885              	.LVL67:
 886 0016 20B1     		cbz	r0, .L121
 887              		.loc 1 1394 0
 888 0018 FFF7FEFF 		bl	pbuf_free
ARM GAS  /tmp/ccqErZ7k.s 			page 17


 889              	.LVL68:
 890              		.loc 1 1395 0
 891 001c 0023     		movs	r3, #0
 892 001e C4F88030 		str	r3, [r4, #128]
 893              	.L121:
 894              		.loc 1 1407 0
 895 0022 E06F     		ldr	r0, [r4, #124]
 896 0024 FFF7FEFF 		bl	tcp_segs_free
 897              	.LVL69:
 898              		.loc 1 1408 0
 899 0028 0025     		movs	r5, #0
 900              		.loc 1 1413 0
 901 002a 4FF6FF73 		movw	r3, #65535
 902              		.loc 1 1415 0
 903 002e 606F     		ldr	r0, [r4, #116]
 904              		.loc 1 1413 0
 905 0030 E386     		strh	r3, [r4, #54]	@ movhi
 906              		.loc 1 1408 0
 907 0032 E567     		str	r5, [r4, #124]
 908              		.loc 1 1415 0
 909 0034 FFF7FEFF 		bl	tcp_segs_free
 910              	.LVL70:
 911              		.loc 1 1416 0
 912 0038 A06F     		ldr	r0, [r4, #120]
 913 003a FFF7FEFF 		bl	tcp_segs_free
 914              	.LVL71:
 915              		.loc 1 1417 0
 916 003e 6567     		str	r5, [r4, #116]
 917 0040 A567     		str	r5, [r4, #120]
 918              		.loc 1 1419 0
 919 0042 A4F87250 		strh	r5, [r4, #114]	@ movhi
 920              	.LVL72:
 921              	.L119:
 922 0046 38BD     		pop	{r3, r4, r5, pc}
 923              	.LBE13:
 924              	.LBE12:
 925              		.cfi_endproc
 926              	.LFE37:
 927              		.size	tcp_pcb_purge, .-tcp_pcb_purge
 928 0048 AFF30080 		.section	.text.tcp_slowtmr,"ax",%progbits
 928      AFF30080 
 929              		.align	2
 930              		.p2align 4,,15
 931              		.global	tcp_slowtmr
 932              		.thumb
 933              		.thumb_func
 934              		.type	tcp_slowtmr, %function
 935              	tcp_slowtmr:
 936              	.LFB20:
 937              		.loc 1 751 0
 938              		.cfi_startproc
 939              		@ args = 0, pretend = 0, frame = 8
 940              		@ frame_needed = 0, uses_anonymous_args = 0
 941              	.LVL73:
 942 0000 2DE9F04F 		push	{r4, r5, r6, r7, r8, r9, sl, fp, lr}
 943              	.LCFI9:
 944              		.cfi_def_cfa_offset 36
ARM GAS  /tmp/ccqErZ7k.s 			page 18


 945              		.cfi_offset 4, -36
 946              		.cfi_offset 5, -32
 947              		.cfi_offset 6, -28
 948              		.cfi_offset 7, -24
 949              		.cfi_offset 8, -20
 950              		.cfi_offset 9, -16
 951              		.cfi_offset 10, -12
 952              		.cfi_offset 11, -8
 953              		.cfi_offset 14, -4
 954              		.loc 1 760 0
 955 0004 B34D     		ldr	r5, .L219
 956              		.loc 1 764 0
 957 0006 DFF8D4A2 		ldr	sl, .L219+8
 958              		.loc 1 760 0
 959 000a 2B68     		ldr	r3, [r5, #0]
 960              		.loc 1 764 0
 961 000c DAF80040 		ldr	r4, [sl, #0]
 962              		.loc 1 760 0
 963 0010 0133     		adds	r3, r3, #1
 964              		.loc 1 751 0
 965 0012 85B0     		sub	sp, sp, #20
 966              	.LCFI10:
 967              		.cfi_def_cfa_offset 56
 968              		.loc 1 760 0
 969 0014 2B60     		str	r3, [r5, #0]
 970              	.LVL74:
 971              		.loc 1 768 0
 972 0016 002C     		cmp	r4, #0
 973 0018 00F09780 		beq	.L164
 974              		.loc 1 868 0
 975 001c 42F2F84B 		movw	fp, #9464
 976              		.loc 1 768 0
 977 0020 0026     		movs	r6, #0
 978              		.loc 1 852 0
 979 0022 44F6D359 		movw	r9, #19923
 980              		.loc 1 868 0
 981 0026 C0F2010B 		movt	fp, 1
 982              		.loc 1 774 0
 983 002a B046     		mov	r8, r6
 984              		.loc 1 852 0
 985 002c C1F26209 		movt	r9, 4194
 986              		.loc 1 868 0
 987 0030 CDF80CB0 		str	fp, [sp, #12]
 988              	.LVL75:
 989              	.L132:
 990              		.loc 1 770 0
 991 0034 237C     		ldrb	r3, [r4, #16]	@ zero_extendqisi2
 992 0036 002B     		cmp	r3, #0
 993 0038 00F02181 		beq	.L207
 994              		.loc 1 771 0
 995 003c 012B     		cmp	r3, #1
 996 003e 00F02481 		beq	.L208
 997              	.L136:
 998              		.loc 1 772 0
 999 0042 0A2B     		cmp	r3, #10
 1000 0044 00F02781 		beq	.L209
 1001              	.L137:
ARM GAS  /tmp/ccqErZ7k.s 			page 19


 1002              	.LVL76:
 1003              		.loc 1 777 0
 1004 0048 022B     		cmp	r3, #2
 1005 004a 94F84A10 		ldrb	r1, [r4, #74]	@ zero_extendqisi2
 1006 004e 00F02A81 		beq	.L138
 1007              	.L139:
 1008              		.loc 1 781 0
 1009 0052 0C29     		cmp	r1, #12
 1010              		.loc 1 782 0
 1011 0054 08BF     		it	eq
 1012 0056 4FF0010B 		moveq	fp, #1
 1013              		.loc 1 781 0
 1014 005a 20D0     		beq	.L141
 1015              		.loc 1 785 0
 1016 005c 94F8A020 		ldrb	r2, [r4, #160]	@ zero_extendqisi2
 1017 0060 002A     		cmp	r2, #0
 1018 0062 00F0D280 		beq	.L142
 1019              		.loc 1 789 0
 1020 0066 40F20001 		movw	r1, #:lower16:.LANCHOR8
 1021 006a C0F20001 		movt	r1, #:upper16:.LANCHOR8
 1022 006e 8818     		adds	r0, r1, r2
 1023              		.loc 1 788 0
 1024 0070 D4F89C10 		ldr	r1, [r4, #156]
 1025              		.loc 1 789 0
 1026 0074 10F8010C 		ldrb	r0, [r0, #-1]	@ zero_extendqisi2
 1027              		.loc 1 788 0
 1028 0078 0131     		adds	r1, r1, #1
 1029              		.loc 1 789 0
 1030 007a 8142     		cmp	r1, r0
 1031              		.loc 1 788 0
 1032 007c C4F89C10 		str	r1, [r4, #156]
 1033              		.loc 1 789 0
 1034 0080 C0F0B480 		bcc	.L180
 1035              		.loc 1 791 0
 1036 0084 062A     		cmp	r2, #6
 1037              		.loc 1 790 0
 1038 0086 C4F89C80 		str	r8, [r4, #156]
 1039              		.loc 1 791 0
 1040 008a 02D8     		bhi	.L143
 1041              		.loc 1 792 0
 1042 008c 0132     		adds	r2, r2, #1
 1043 008e 84F8A020 		strb	r2, [r4, #160]
 1044              	.L143:
 1045              		.loc 1 794 0
 1046 0092 2046     		mov	r0, r4
 1047 0094 FFF7FEFF 		bl	tcp_zero_window_probe
 1048              	.LVL77:
 1049 0098 237C     		ldrb	r3, [r4, #16]	@ zero_extendqisi2
 1050              		.loc 1 774 0
 1051 009a 4FF0000B 		mov	fp, #0
 1052              	.L141:
 1053              	.LVL78:
 1054              		.loc 1 834 0
 1055 009e 062B     		cmp	r3, #6
 1056 00a0 00F0A980 		beq	.L210
 1057              	.LVL79:
 1058              	.L140:
ARM GAS  /tmp/ccqErZ7k.s 			page 20


 1059              		.loc 1 843 0
 1060 00a4 277A     		ldrb	r7, [r4, #8]	@ zero_extendqisi2
 1061 00a6 07F00807 		and	r7, r7, #8
 1062 00aa FFB2     		uxtb	r7, r7
 1063 00ac D7B1     		cbz	r7, .L147
 1064              		.loc 1 843 0 is_stmt 0 discriminator 1
 1065 00ae 042B     		cmp	r3, #4
 1066 00b0 18BF     		it	ne
 1067 00b2 072B     		cmpne	r3, #7
 1068 00b4 14BF     		ite	ne
 1069 00b6 0027     		movne	r7, #0
 1070 00b8 0127     		moveq	r7, #1
 1071 00ba 13D1     		bne	.L147
 1072              		.loc 1 852 0 is_stmt 1
 1073 00bc D4F89810 		ldr	r1, [r4, #152]
 1074              		.loc 1 851 0
 1075 00c0 2868     		ldr	r0, [r5, #0]
 1076 00c2 236B     		ldr	r3, [r4, #48]
 1077              		.loc 1 852 0
 1078 00c4 01F52427 		add	r7, r1, #671744
 1079 00c8 07F6B847 		addw	r7, r7, #3256
 1080              		.loc 1 851 0
 1081 00cc C31A     		subs	r3, r0, r3
 1082              		.loc 1 852 0
 1083 00ce A9FB0720 		umull	r2, r0, r9, r7
 1084              		.loc 1 851 0
 1085 00d2 B3EB501F 		cmp	r3, r0, lsr #5
 1086 00d6 40F20381 		bls	.L148
 1087              		.loc 1 859 0
 1088 00da 0BF10102 		add	r2, fp, #1
 1089 00de 5FFA82FB 		uxtb	fp, r2
 1090              	.LVL80:
 1091              		.loc 1 860 0
 1092 00e2 0127     		movs	r7, #1
 1093              	.LVL81:
 1094              	.L147:
 1095              		.loc 1 881 0
 1096 00e4 E06F     		ldr	r0, [r4, #124]
 1097 00e6 50B1     		cbz	r0, .L149
 1098              		.loc 1 882 0 discriminator 1
 1099 00e8 2A68     		ldr	r2, [r5, #0]
 1100 00ea 216B     		ldr	r1, [r4, #48]
 1101 00ec B4F94830 		ldrsh	r3, [r4, #72]
 1102 00f0 511A     		subs	r1, r2, r1
 1103 00f2 03EB4303 		add	r3, r3, r3, lsl #1
 1104              		.loc 1 881 0 discriminator 1
 1105 00f6 B1EB430F 		cmp	r1, r3, lsl #1
 1106 00fa 80F0E580 		bcs	.L211
 1107              	.L149:
 1108              		.loc 1 890 0
 1109 00fe 237C     		ldrb	r3, [r4, #16]	@ zero_extendqisi2
 1110 0100 032B     		cmp	r3, #3
 1111 0102 00F0D780 		beq	.L212
 1112              		.loc 1 899 0
 1113 0106 092B     		cmp	r3, #9
 1114 0108 45D0     		beq	.L213
 1115              	.LVL82:
ARM GAS  /tmp/ccqErZ7k.s 			page 21


 1116              	.L152:
 1117              		.loc 1 907 0
 1118 010a BBF1000F 		cmp	fp, #0
 1119 010e 47D1     		bne	.L153
 1120              	.LVL83:
 1121              		.loc 1 935 0
 1122 0110 94F83430 		ldrb	r3, [r4, #52]	@ zero_extendqisi2
 1123              		.loc 1 936 0
 1124 0114 94F83510 		ldrb	r1, [r4, #53]	@ zero_extendqisi2
 1125              		.loc 1 932 0
 1126 0118 E768     		ldr	r7, [r4, #12]
 1127              	.LVL84:
 1128              		.loc 1 935 0
 1129 011a 0133     		adds	r3, r3, #1
 1130 011c DBB2     		uxtb	r3, r3
 1131              		.loc 1 936 0
 1132 011e 9942     		cmp	r1, r3
 1133              		.loc 1 935 0
 1134 0120 84F83430 		strb	r3, [r4, #52]
 1135              		.loc 1 936 0
 1136 0124 0CD8     		bhi	.L184
 1137              		.loc 1 939 0
 1138 0126 D4F89030 		ldr	r3, [r4, #144]
 1139              		.loc 1 937 0
 1140 012a 84F834B0 		strb	fp, [r4, #52]
 1141              		.loc 1 939 0
 1142 012e 002B     		cmp	r3, #0
 1143 0130 00F0EC80 		beq	.L163
 1144              		.loc 1 939 0 is_stmt 0 discriminator 1
 1145 0134 6069     		ldr	r0, [r4, #20]
 1146 0136 2146     		mov	r1, r4
 1147 0138 9847     		blx	r3
 1148              	.LVL85:
 1149              		.loc 1 941 0 is_stmt 1 discriminator 1
 1150 013a 0028     		cmp	r0, #0
 1151 013c 00F0E680 		beq	.L163
 1152              	.LVL86:
 1153              	.L184:
 1154              		.loc 1 936 0
 1155 0140 2646     		mov	r6, r4
 1156              	.LVL87:
 1157              		.loc 1 932 0
 1158 0142 3C46     		mov	r4, r7
 1159              	.LVL88:
 1160              		.loc 1 768 0
 1161 0144 002C     		cmp	r4, #0
 1162 0146 7FF475AF 		bne	.L132
 1163              	.LVL89:
 1164              	.L164:
 1165              		.loc 1 951 0
 1166 014a 634F     		ldr	r7, .L219+4
 1167 014c 3C68     		ldr	r4, [r7, #0]
 1168              	.LVL90:
 1169              		.loc 1 952 0
 1170 014e FCB1     		cbz	r4, .L131
 1171 0150 0026     		movs	r6, #0
 1172              	.LVL91:
ARM GAS  /tmp/ccqErZ7k.s 			page 22


 1173              	.L133:
 1174              		.loc 1 953 0
 1175 0152 237C     		ldrb	r3, [r4, #16]	@ zero_extendqisi2
 1176 0154 0A2B     		cmp	r3, #10
 1177 0156 01D0     		beq	.L165
 1178              		.loc 1 953 0 is_stmt 0 discriminator 1
 1179 0158 FFF7FEFF 		bl	port_halt
 1180              	.LVL92:
 1181              	.L165:
 1182              		.loc 1 957 0 is_stmt 1
 1183 015c 2A68     		ldr	r2, [r5, #0]
 1184 015e 236B     		ldr	r3, [r4, #48]
 1185 0160 D31A     		subs	r3, r2, r3
 1186 0162 F02B     		cmp	r3, #240
 1187 0164 3DD9     		bls	.L214
 1188              	.LVL93:
 1189              	.LBB14:
 1190              		.loc 1 966 0
 1191 0166 2046     		mov	r0, r4
 1192 0168 FFF7FEFF 		bl	tcp_pcb_purge
 1193              	.LVL94:
 1194              		.loc 1 968 0
 1195 016c 002E     		cmp	r6, #0
 1196 016e 00F0E180 		beq	.L215
 1197              		.loc 1 969 0
 1198 0172 3B68     		ldr	r3, [r7, #0]
 1199 0174 9C42     		cmp	r4, r3
 1200 0176 00F0EF80 		beq	.L216
 1201              	.L168:
 1202              		.loc 1 970 0
 1203 017a E368     		ldr	r3, [r4, #12]
 1204 017c F360     		str	r3, [r6, #12]
 1205 017e D4F80C80 		ldr	r8, [r4, #12]
 1206              	.L169:
 1207              	.LVL95:
 1208              		.loc 1 978 0
 1209 0182 2146     		mov	r1, r4
 1210 0184 0220     		movs	r0, #2
 1211              		.loc 1 977 0
 1212 0186 4446     		mov	r4, r8
 1213              	.LVL96:
 1214              		.loc 1 978 0
 1215 0188 FFF7FEFF 		bl	memp_free
 1216              	.LVL97:
 1217              	.LBE14:
 1218              		.loc 1 952 0
 1219 018c 002C     		cmp	r4, #0
 1220 018e E0D1     		bne	.L133
 1221              	.LVL98:
 1222              	.L131:
 1223              		.loc 1 984 0
 1224 0190 05B0     		add	sp, sp, #20
 1225 0192 BDE8F08F 		pop	{r4, r5, r6, r7, r8, r9, sl, fp, pc}
 1226              	.LVL99:
 1227              	.L213:
 1228              		.loc 1 900 0
 1229 0196 2968     		ldr	r1, [r5, #0]
ARM GAS  /tmp/ccqErZ7k.s 			page 23


 1230 0198 236B     		ldr	r3, [r4, #48]
 1231 019a CB1A     		subs	r3, r1, r3
 1232 019c F02B     		cmp	r3, #240
 1233 019e B4D9     		bls	.L152
 1234              	.LVL100:
 1235              	.L153:
 1236              	.LBB15:
 1237              		.loc 1 909 0
 1238 01a0 2046     		mov	r0, r4
 1239 01a2 FFF7FEFF 		bl	tcp_pcb_purge
 1240              	.LVL101:
 1241              		.loc 1 912 0
 1242 01a6 DAF80030 		ldr	r3, [sl, #0]
 1243              		.loc 1 911 0
 1244 01aa 002E     		cmp	r6, #0
 1245 01ac 00F0CC80 		beq	.L155
 1246              		.loc 1 912 0
 1247 01b0 9C42     		cmp	r4, r3
 1248 01b2 00F0D480 		beq	.L217
 1249              	.L156:
 1250              		.loc 1 913 0
 1251 01b6 E368     		ldr	r3, [r4, #12]
 1252 01b8 F360     		str	r3, [r6, #12]
 1253              	.L157:
 1254              		.loc 1 920 0
 1255 01ba D4F89430 		ldr	r3, [r4, #148]
 1256 01be 1BB1     		cbz	r3, .L159
 1257              		.loc 1 920 0 is_stmt 0 discriminator 1
 1258 01c0 6069     		ldr	r0, [r4, #20]
 1259 01c2 6FF00901 		mvn	r1, #9
 1260 01c6 9847     		blx	r3
 1261              	.LVL102:
 1262              	.L159:
 1263              		.loc 1 921 0 is_stmt 1
 1264 01c8 002F     		cmp	r7, #0
 1265 01ca 40F0A880 		bne	.L218
 1266              	.L160:
 1267              	.LVL103:
 1268              		.loc 1 927 0
 1269 01ce E768     		ldr	r7, [r4, #12]
 1270              	.LVL104:
 1271              		.loc 1 928 0
 1272 01d0 2146     		mov	r1, r4
 1273 01d2 0220     		movs	r0, #2
 1274              		.loc 1 927 0
 1275 01d4 3C46     		mov	r4, r7
 1276              	.LVL105:
 1277              		.loc 1 928 0
 1278 01d6 FFF7FEFF 		bl	memp_free
 1279              	.LVL106:
 1280              	.LBE15:
 1281              		.loc 1 768 0
 1282 01da 002C     		cmp	r4, #0
 1283 01dc 7FF42AAF 		bne	.L132
 1284 01e0 B3E7     		b	.L164
 1285              	.LVL107:
 1286              	.L214:
ARM GAS  /tmp/ccqErZ7k.s 			page 24


 1287              		.loc 1 981 0
 1288 01e2 2646     		mov	r6, r4
 1289 01e4 E468     		ldr	r4, [r4, #12]
 1290              	.LVL108:
 1291              		.loc 1 952 0
 1292 01e6 002C     		cmp	r4, #0
 1293 01e8 B3D1     		bne	.L133
 1294 01ea D1E7     		b	.L131
 1295              	.LVL109:
 1296              	.L180:
 1297              		.loc 1 834 0
 1298 01ec 062B     		cmp	r3, #6
 1299              		.loc 1 774 0
 1300 01ee 4FF0000B 		mov	fp, #0
 1301              	.LVL110:
 1302              		.loc 1 834 0
 1303 01f2 7FF457AF 		bne	.L140
 1304              	.LVL111:
 1305              	.L210:
 1306              		.loc 1 835 0
 1307 01f6 2868     		ldr	r0, [r5, #0]
 1308 01f8 216B     		ldr	r1, [r4, #48]
 1309 01fa 411A     		subs	r1, r0, r1
 1310 01fc 2829     		cmp	r1, #40
 1311              		.loc 1 837 0
 1312 01fe 84BF     		itt	hi
 1313 0200 0BF10102 		addhi	r2, fp, #1
 1314 0204 5FFA82FB 		uxtbhi	fp, r2
 1315              	.LVL112:
 1316 0208 4CE7     		b	.L140
 1317              	.LVL113:
 1318              	.L142:
 1319              		.loc 1 798 0
 1320 020a E28E     		ldrh	r2, [r4, #54]
 1321 020c 1004     		lsls	r0, r2, #16
 1322 020e 01D4     		bmi	.L144
 1323              		.loc 1 799 0
 1324 0210 0132     		adds	r2, r2, #1
 1325 0212 E286     		strh	r2, [r4, #54]	@ movhi
 1326              	.L144:
 1327              		.loc 1 801 0
 1328 0214 A26F     		ldr	r2, [r4, #120]
 1329 0216 002A     		cmp	r2, #0
 1330 0218 E8D0     		beq	.L180
 1331              		.loc 1 801 0 is_stmt 0 discriminator 1
 1332 021a B4F93600 		ldrsh	r0, [r4, #54]
 1333 021e B4F94820 		ldrsh	r2, [r4, #72]
 1334 0222 9042     		cmp	r0, r2
 1335 0224 E2DB     		blt	.L180
 1336              		.loc 1 809 0 is_stmt 1
 1337 0226 022B     		cmp	r3, #2
 1338 0228 0ED0     		beq	.L145
 1339              		.loc 1 810 0
 1340 022a 40F20007 		movw	r7, #:lower16:.LANCHOR9
 1341 022e C0F20007 		movt	r7, #:upper16:.LANCHOR9
 1342 0232 B4F94400 		ldrsh	r0, [r4, #68]
 1343 0236 B4F94630 		ldrsh	r3, [r4, #70]
ARM GAS  /tmp/ccqErZ7k.s 			page 25


 1344 023a 7A5C     		ldrb	r2, [r7, r1]	@ zero_extendqisi2
 1345 023c 03EBE003 		add	r3, r3, r0, asr #3
 1346 0240 03FA02F3 		lsl	r3, r3, r2
 1347 0244 A4F84830 		strh	r3, [r4, #72]	@ movhi
 1348              	.L145:
 1349              		.loc 1 817 0
 1350 0248 B4F85210 		ldrh	r1, [r4, #82]
 1351 024c B4F85C20 		ldrh	r2, [r4, #92]
 1352              		.loc 1 819 0
 1353 0250 238F     		ldrh	r3, [r4, #56]
 1354              		.loc 1 814 0
 1355 0252 A4F83680 		strh	r8, [r4, #54]	@ movhi
 1356              	.LVL114:
 1357              		.loc 1 818 0
 1358 0256 9142     		cmp	r1, r2
 1359 0258 38BF     		it	cc
 1360 025a 0A46     		movcc	r2, r1
 1361 025c 5208     		lsrs	r2, r2, #1
 1362              		.loc 1 819 0
 1363 025e 5900     		lsls	r1, r3, #1
 1364 0260 8A42     		cmp	r2, r1
 1365              		.loc 1 818 0
 1366 0262 A4F85420 		strh	r2, [r4, #84]	@ movhi
 1367              		.loc 1 822 0
 1368 0266 A4F85230 		strh	r3, [r4, #82]	@ movhi
 1369              		.loc 1 820 0
 1370 026a B8BF     		it	lt
 1371 026c A4F85410 		strhlt	r1, [r4, #84]	@ movhi
 1372              		.loc 1 829 0
 1373 0270 2046     		mov	r0, r4
 1374 0272 FFF7FEFF 		bl	tcp_rexmit_rto
 1375              	.LVL115:
 1376              		.loc 1 774 0
 1377 0276 4FF0000B 		mov	fp, #0
 1378 027a 237C     		ldrb	r3, [r4, #16]	@ zero_extendqisi2
 1379 027c 0FE7     		b	.L141
 1380              	.LVL116:
 1381              	.L207:
 1382              		.loc 1 770 0 discriminator 1
 1383 027e FFF7FEFF 		bl	port_halt
 1384              	.LVL117:
 1385 0282 237C     		ldrb	r3, [r4, #16]	@ zero_extendqisi2
 1386              		.loc 1 771 0 discriminator 1
 1387 0284 012B     		cmp	r3, #1
 1388 0286 7FF4DCAE 		bne	.L136
 1389              	.L208:
 1390 028a FFF7FEFF 		bl	port_halt
 1391              	.LVL118:
 1392 028e 237C     		ldrb	r3, [r4, #16]	@ zero_extendqisi2
 1393              		.loc 1 772 0 discriminator 1
 1394 0290 0A2B     		cmp	r3, #10
 1395 0292 7FF4D9AE 		bne	.L137
 1396              	.L209:
 1397 0296 FFF7FEFF 		bl	port_halt
 1398              	.LVL119:
 1399 029a 237C     		ldrb	r3, [r4, #16]	@ zero_extendqisi2
 1400              	.LVL120:
ARM GAS  /tmp/ccqErZ7k.s 			page 26


 1401              		.loc 1 777 0 discriminator 1
 1402 029c 94F84A10 		ldrb	r1, [r4, #74]	@ zero_extendqisi2
 1403 02a0 022B     		cmp	r3, #2
 1404 02a2 7FF4D6AE 		bne	.L139
 1405              	.L138:
 1406 02a6 0629     		cmp	r1, #6
 1407              		.loc 1 778 0 discriminator 1
 1408 02a8 08BF     		it	eq
 1409 02aa 4FF0010B 		moveq	fp, #1
 1410              		.loc 1 777 0 discriminator 1
 1411 02ae 7FF4D0AE 		bne	.L139
 1412 02b2 F7E6     		b	.L140
 1413              	.LVL121:
 1414              	.L212:
 1415              		.loc 1 891 0
 1416 02b4 2968     		ldr	r1, [r5, #0]
 1417 02b6 236B     		ldr	r3, [r4, #48]
 1418 02b8 CB1A     		subs	r3, r1, r3
 1419 02ba 282B     		cmp	r3, #40
 1420              		.loc 1 893 0
 1421 02bc 84BF     		itt	hi
 1422 02be 0BF10102 		addhi	r2, fp, #1
 1423 02c2 5FFA82FB 		uxtbhi	fp, r2
 1424              	.LVL122:
 1425 02c6 20E7     		b	.L152
 1426              	.LVL123:
 1427              	.L211:
 1428              		.loc 1 883 0
 1429 02c8 FFF7FEFF 		bl	tcp_segs_free
 1430              	.LVL124:
 1431              		.loc 1 884 0
 1432 02cc C4F87C80 		str	r8, [r4, #124]
 1433 02d0 15E7     		b	.L149
 1434              	.L220:
 1435 02d2 00BF     		.align	2
 1436              	.L219:
 1437 02d4 00000000 		.word	.LANCHOR5
 1438 02d8 00000000 		.word	.LANCHOR7
 1439 02dc 00000000 		.word	.LANCHOR6
 1440              	.LVL125:
 1441              	.L148:
 1442              		.loc 1 868 0
 1443 02e0 039F     		ldr	r7, [sp, #12]
 1444 02e2 94F8A100 		ldrb	r0, [r4, #161]	@ zero_extendqisi2
 1445 02e6 07FB0011 		mla	r1, r7, r0, r1
 1446              		.loc 1 869 0
 1447 02ea A9FB0121 		umull	r2, r1, r9, r1
 1448              		.loc 1 775 0
 1449 02ee 0027     		movs	r7, #0
 1450              		.loc 1 867 0
 1451 02f0 B3EB511F 		cmp	r3, r1, lsr #5
 1452 02f4 7FF6F6AE 		bls	.L147
 1453              		.loc 1 872 0
 1454 02f8 2046     		mov	r0, r4
 1455 02fa FFF7FEFF 		bl	tcp_keepalive
 1456              	.LVL126:
 1457              		.loc 1 873 0
ARM GAS  /tmp/ccqErZ7k.s 			page 27


 1458 02fe 94F8A130 		ldrb	r3, [r4, #161]	@ zero_extendqisi2
 1459 0302 0133     		adds	r3, r3, #1
 1460 0304 84F8A130 		strb	r3, [r4, #161]
 1461              		.loc 1 775 0
 1462 0308 0027     		movs	r7, #0
 1463 030a EBE6     		b	.L147
 1464              	.LVL127:
 1465              	.L163:
 1466              		.loc 1 942 0
 1467 030c 2046     		mov	r0, r4
 1468 030e 2646     		mov	r6, r4
 1469              		.loc 1 932 0
 1470 0310 3C46     		mov	r4, r7
 1471              	.LVL128:
 1472              		.loc 1 942 0
 1473 0312 FFF7FEFF 		bl	tcp_output
 1474              	.LVL129:
 1475              		.loc 1 768 0
 1476 0316 002C     		cmp	r4, #0
 1477 0318 7FF48CAE 		bne	.L132
 1478 031c 15E7     		b	.L164
 1479              	.LVL130:
 1480              	.L218:
 1481              	.LBB16:
 1482              		.loc 1 922 0
 1483 031e A38B     		ldrh	r3, [r4, #28]
 1484 0320 A06D     		ldr	r0, [r4, #88]
 1485 0322 616A     		ldr	r1, [r4, #36]
 1486 0324 0093     		str	r3, [sp, #0]
 1487 0326 E38B     		ldrh	r3, [r4, #30]
 1488 0328 2246     		mov	r2, r4
 1489 032a 0193     		str	r3, [sp, #4]
 1490 032c 231D     		adds	r3, r4, #4
 1491 032e FFF7FEFF 		bl	tcp_rst
 1492              	.LVL131:
 1493 0332 4CE7     		b	.L160
 1494              	.LVL132:
 1495              	.L215:
 1496              	.LBE16:
 1497              	.LBB17:
 1498              		.loc 1 973 0
 1499 0334 3B68     		ldr	r3, [r7, #0]
 1500 0336 A342     		cmp	r3, r4
 1501 0338 01D0     		beq	.L170
 1502              		.loc 1 973 0 is_stmt 0 discriminator 1
 1503 033a FFF7FEFF 		bl	port_halt
 1504              	.LVL133:
 1505              	.L170:
 1506              		.loc 1 974 0 is_stmt 1
 1507 033e D4F80C80 		ldr	r8, [r4, #12]
 1508 0342 C7F80080 		str	r8, [r7, #0]
 1509 0346 1CE7     		b	.L169
 1510              	.LVL134:
 1511              	.L155:
 1512              	.LBE17:
 1513              	.LBB18:
 1514              		.loc 1 916 0
ARM GAS  /tmp/ccqErZ7k.s 			page 28


 1515 0348 A342     		cmp	r3, r4
 1516 034a 01D0     		beq	.L158
 1517              		.loc 1 916 0 is_stmt 0 discriminator 1
 1518 034c FFF7FEFF 		bl	port_halt
 1519              	.LVL135:
 1520              	.L158:
 1521              		.loc 1 917 0 is_stmt 1
 1522 0350 E368     		ldr	r3, [r4, #12]
 1523 0352 CAF80030 		str	r3, [sl, #0]
 1524 0356 30E7     		b	.L157
 1525              	.LVL136:
 1526              	.L216:
 1527              	.LBE18:
 1528              	.LBB19:
 1529              		.loc 1 969 0 discriminator 1
 1530 0358 FFF7FEFF 		bl	port_halt
 1531              	.LVL137:
 1532 035c 0DE7     		b	.L168
 1533              	.LVL138:
 1534              	.L217:
 1535              	.LBE19:
 1536              	.LBB20:
 1537              		.loc 1 912 0 discriminator 1
 1538 035e FFF7FEFF 		bl	port_halt
 1539              	.LVL139:
 1540 0362 28E7     		b	.L156
 1541              	.LBE20:
 1542              		.cfi_endproc
 1543              	.LFE20:
 1544              		.size	tcp_slowtmr, .-tcp_slowtmr
 1545 0364 AFF30080 		.section	.text.tcp_pcb_remove,"ax",%progbits
 1545      AFF30080 
 1545      AFF30080 
 1546              		.align	2
 1547              		.p2align 4,,15
 1548              		.global	tcp_pcb_remove
 1549              		.thumb
 1550              		.thumb_func
 1551              		.type	tcp_pcb_remove, %function
 1552              	tcp_pcb_remove:
 1553              	.LFB38:
 1554              		.loc 1 1432 0
 1555              		.cfi_startproc
 1556              		@ args = 0, pretend = 0, frame = 0
 1557              		@ frame_needed = 0, uses_anonymous_args = 0
 1558              	.LVL140:
 1559              		.loc 1 1433 0
 1560 0000 0268     		ldr	r2, [r0, #0]
 1561 0002 8A42     		cmp	r2, r1
 1562              		.loc 1 1432 0
 1563 0004 10B5     		push	{r4, lr}
 1564              	.LCFI11:
 1565              		.cfi_def_cfa_offset 8
 1566              		.cfi_offset 4, -8
 1567              		.cfi_offset 14, -4
 1568              		.loc 1 1432 0
 1569 0006 0C46     		mov	r4, r1
ARM GAS  /tmp/ccqErZ7k.s 			page 29


 1570              		.loc 1 1433 0
 1571 0008 3BD0     		beq	.L255
 1572              		.loc 1 1433 0 is_stmt 0 discriminator 2
 1573 000a 2049     		ldr	r1, .L260
 1574              	.LVL141:
 1575 000c 0A60     		str	r2, [r1, #0]
 1576 000e 52B1     		cbz	r2, .L223
 1577              		.loc 1 1433 0
 1578 0010 D368     		ldr	r3, [r2, #12]
 1579 0012 A342     		cmp	r3, r4
 1580 0014 38D0     		beq	.L256
 1581              		.loc 1 1433 0 discriminator 5
 1582 0016 2BB1     		cbz	r3, .L257
 1583              	.L228:
 1584              		.loc 1 1433 0 discriminator 7
 1585 0018 DA68     		ldr	r2, [r3, #12]
 1586 001a A242     		cmp	r2, r4
 1587 001c 2DD0     		beq	.L258
 1588              		.loc 1 1433 0
 1589 001e 1346     		mov	r3, r2
 1590 0020 002B     		cmp	r3, #0
 1591 0022 F9D1     		bne	.L228
 1592              	.L257:
 1593 0024 0B60     		str	r3, [r1, #0]
 1594              	.L223:
 1595              		.loc 1 1433 0 discriminator 6
 1596 0026 0023     		movs	r3, #0
 1597 0028 E360     		str	r3, [r4, #12]
 1598              		.loc 1 1435 0 is_stmt 1 discriminator 6
 1599 002a 2046     		mov	r0, r4
 1600              	.LVL142:
 1601 002c FFF7FEFF 		bl	tcp_pcb_purge
 1602              	.LVL143:
 1603              		.loc 1 1438 0 discriminator 6
 1604 0030 237C     		ldrb	r3, [r4, #16]	@ zero_extendqisi2
 1605 0032 012B     		cmp	r3, #1
 1606 0034 18BF     		it	ne
 1607 0036 0A2B     		cmpne	r3, #10
 1608 0038 1AD0     		beq	.L230
 1609              		.loc 1 1440 0
 1610 003a 94F82030 		ldrb	r3, [r4, #32]	@ zero_extendqisi2
 1611              		.loc 1 1439 0
 1612 003e DA07     		lsls	r2, r3, #31
 1613 0040 0ED4     		bmi	.L259
 1614              	.L231:
 1615              		.loc 1 1446 0
 1616 0042 636F     		ldr	r3, [r4, #116]
 1617 0044 0BB1     		cbz	r3, .L233
 1618              		.loc 1 1446 0 is_stmt 0 discriminator 1
 1619 0046 FFF7FEFF 		bl	port_halt
 1620              	.LVL144:
 1621              	.L233:
 1622              		.loc 1 1447 0 is_stmt 1
 1623 004a A36F     		ldr	r3, [r4, #120]
 1624 004c 0BB1     		cbz	r3, .L234
 1625              		.loc 1 1447 0 is_stmt 0 discriminator 1
 1626 004e FFF7FEFF 		bl	port_halt
ARM GAS  /tmp/ccqErZ7k.s 			page 30


 1627              	.LVL145:
 1628              	.L234:
 1629              		.loc 1 1449 0 is_stmt 1
 1630 0052 E36F     		ldr	r3, [r4, #124]
 1631 0054 0BB1     		cbz	r3, .L232
 1632              		.loc 1 1449 0 is_stmt 0 discriminator 1
 1633 0056 FFF7FEFF 		bl	port_halt
 1634              	.LVL146:
 1635              	.L232:
 1636              		.loc 1 1453 0 is_stmt 1
 1637 005a 0023     		movs	r3, #0
 1638 005c 2374     		strb	r3, [r4, #16]
 1639 005e 10BD     		pop	{r4, pc}
 1640              	.L259:
 1641              		.loc 1 1441 0
 1642 0060 43F00203 		orr	r3, r3, #2
 1643 0064 84F82030 		strb	r3, [r4, #32]
 1644              		.loc 1 1442 0
 1645 0068 2046     		mov	r0, r4
 1646 006a FFF7FEFF 		bl	tcp_output
 1647              	.LVL147:
 1648 006e 237C     		ldrb	r3, [r4, #16]	@ zero_extendqisi2
 1649              	.L230:
 1650              		.loc 1 1445 0
 1651 0070 012B     		cmp	r3, #1
 1652 0072 E6D1     		bne	.L231
 1653              		.loc 1 1453 0
 1654 0074 0023     		movs	r3, #0
 1655 0076 2374     		strb	r3, [r4, #16]
 1656 0078 10BD     		pop	{r4, pc}
 1657              	.LVL148:
 1658              	.L258:
 1659 007a 0B60     		str	r3, [r1, #0]
 1660              	.L225:
 1661              		.loc 1 1433 0 discriminator 4
 1662 007c E268     		ldr	r2, [r4, #12]
 1663 007e DA60     		str	r2, [r3, #12]
 1664 0080 D1E7     		b	.L223
 1665              	.LVL149:
 1666              	.L255:
 1667              		.loc 1 1433 0 is_stmt 0 discriminator 1
 1668 0082 CB68     		ldr	r3, [r1, #12]
 1669 0084 0360     		str	r3, [r0, #0]
 1670 0086 CEE7     		b	.L223
 1671              	.LVL150:
 1672              	.L256:
 1673              		.loc 1 1433 0
 1674 0088 1346     		mov	r3, r2
 1675 008a F7E7     		b	.L225
 1676              	.L261:
 1677              		.align	2
 1678              	.L260:
 1679 008c 00000000 		.word	.LANCHOR3
 1680              		.cfi_endproc
 1681              	.LFE38:
 1682              		.size	tcp_pcb_remove, .-tcp_pcb_remove
 1683              		.section	.text.tcp_abandon,"ax",%progbits
ARM GAS  /tmp/ccqErZ7k.s 			page 31


 1684              		.align	2
 1685              		.p2align 4,,15
 1686              		.global	tcp_abandon
 1687              		.thumb
 1688              		.thumb_func
 1689              		.type	tcp_abandon, %function
 1690              	tcp_abandon:
 1691              	.LFB11:
 1692              		.loc 1 319 0 is_stmt 1
 1693              		.cfi_startproc
 1694              		@ args = 0, pretend = 0, frame = 8
 1695              		@ frame_needed = 0, uses_anonymous_args = 0
 1696              	.LVL151:
 1697 0000 2DE9F04F 		push	{r4, r5, r6, r7, r8, r9, sl, fp, lr}
 1698              	.LCFI12:
 1699              		.cfi_def_cfa_offset 36
 1700              		.cfi_offset 4, -36
 1701              		.cfi_offset 5, -32
 1702              		.cfi_offset 6, -28
 1703              		.cfi_offset 7, -24
 1704              		.cfi_offset 8, -20
 1705              		.cfi_offset 9, -16
 1706              		.cfi_offset 10, -12
 1707              		.cfi_offset 11, -8
 1708              		.cfi_offset 14, -4
 1709              		.loc 1 329 0
 1710 0004 037C     		ldrb	r3, [r0, #16]	@ zero_extendqisi2
 1711 0006 012B     		cmp	r3, #1
 1712              		.loc 1 319 0
 1713 0008 85B0     		sub	sp, sp, #20
 1714              	.LCFI13:
 1715              		.cfi_def_cfa_offset 56
 1716              		.loc 1 319 0
 1717 000a 0446     		mov	r4, r0
 1718 000c 0E46     		mov	r6, r1
 1719              		.loc 1 329 0
 1720 000e 41D0     		beq	.L285
 1721              	.LVL152:
 1722              	.L263:
 1723              		.loc 1 334 0
 1724 0010 0A2B     		cmp	r3, #10
 1725 0012 36D0     		beq	.L286
 1726              		.loc 1 341 0
 1727 0014 94E80C00 		ldmia	r4, {r2, r3}
 1728              		.loc 1 348 0
 1729 0018 2048     		ldr	r0, .L288
 1730              		.loc 1 338 0
 1731 001a D4F85890 		ldr	r9, [r4, #88]
 1732              	.LVL153:
 1733              		.loc 1 339 0
 1734 001e D4F82480 		ldr	r8, [r4, #36]
 1735              	.LVL154:
 1736              		.loc 1 340 0
 1737 0022 0392     		str	r2, [sp, #12]
 1738              		.loc 1 348 0
 1739 0024 2146     		mov	r1, r4
 1740              		.loc 1 341 0
ARM GAS  /tmp/ccqErZ7k.s 			page 32


 1741 0026 0293     		str	r3, [sp, #8]
 1742              		.loc 1 342 0
 1743 0028 B4F81CB0 		ldrh	fp, [r4, #28]
 1744              	.LVL155:
 1745              		.loc 1 343 0
 1746 002c B4F81EA0 		ldrh	sl, [r4, #30]
 1747              	.LVL156:
 1748              		.loc 1 345 0
 1749 0030 D4F89450 		ldr	r5, [r4, #148]
 1750              	.LVL157:
 1751              		.loc 1 347 0
 1752 0034 6769     		ldr	r7, [r4, #20]
 1753              	.LVL158:
 1754              		.loc 1 348 0
 1755 0036 FFF7FEFF 		bl	tcp_pcb_remove
 1756              	.LVL159:
 1757              		.loc 1 349 0
 1758 003a A06F     		ldr	r0, [r4, #120]
 1759 003c 08B1     		cbz	r0, .L266
 1760              		.loc 1 350 0
 1761 003e FFF7FEFF 		bl	tcp_segs_free
 1762              	.LVL160:
 1763              	.L266:
 1764              		.loc 1 352 0
 1765 0042 606F     		ldr	r0, [r4, #116]
 1766 0044 08B1     		cbz	r0, .L267
 1767              		.loc 1 353 0
 1768 0046 FFF7FEFF 		bl	tcp_segs_free
 1769              	.LVL161:
 1770              	.L267:
 1771              		.loc 1 356 0
 1772 004a E06F     		ldr	r0, [r4, #124]
 1773 004c 08B1     		cbz	r0, .L268
 1774              		.loc 1 357 0
 1775 004e FFF7FEFF 		bl	tcp_segs_free
 1776              	.LVL162:
 1777              	.L268:
 1778              		.loc 1 360 0
 1779 0052 0220     		movs	r0, #2
 1780 0054 2146     		mov	r1, r4
 1781 0056 FFF7FEFF 		bl	memp_free
 1782              	.LVL163:
 1783              		.loc 1 361 0
 1784 005a 1DB1     		cbz	r5, .L269
 1785              		.loc 1 361 0 is_stmt 0 discriminator 1
 1786 005c 3846     		mov	r0, r7
 1787 005e 6FF00901 		mvn	r1, #9
 1788 0062 A847     		blx	r5
 1789              	.LVL164:
 1790              	.L269:
 1791              		.loc 1 362 0 is_stmt 1
 1792 0064 16B9     		cbnz	r6, .L287
 1793              	.LVL165:
 1794              	.L262:
 1795              		.loc 1 367 0
 1796 0066 05B0     		add	sp, sp, #20
 1797 0068 BDE8F08F 		pop	{r4, r5, r6, r7, r8, r9, sl, fp, pc}
ARM GAS  /tmp/ccqErZ7k.s 			page 33


 1798              	.LVL166:
 1799              	.L287:
 1800              		.loc 1 364 0
 1801 006c CDF800B0 		str	fp, [sp, #0]
 1802 0070 CDF804A0 		str	sl, [sp, #4]
 1803 0074 4846     		mov	r0, r9
 1804 0076 4146     		mov	r1, r8
 1805 0078 03AA     		add	r2, sp, #12
 1806 007a 02AB     		add	r3, sp, #8
 1807 007c FFF7FEFF 		bl	tcp_rst
 1808              	.LVL167:
 1809 0080 F1E7     		b	.L262
 1810              	.LVL168:
 1811              	.L286:
 1812              		.loc 1 335 0
 1813 0082 2146     		mov	r1, r4
 1814 0084 0648     		ldr	r0, .L288+4
 1815 0086 FFF7FEFF 		bl	tcp_pcb_remove
 1816              	.LVL169:
 1817              		.loc 1 336 0
 1818 008a 0220     		movs	r0, #2
 1819 008c 2146     		mov	r1, r4
 1820 008e FFF7FEFF 		bl	memp_free
 1821              	.LVL170:
 1822 0092 E8E7     		b	.L262
 1823              	.LVL171:
 1824              	.L285:
 1825              		.loc 1 329 0 discriminator 1
 1826 0094 FFF7FEFF 		bl	port_halt
 1827              	.LVL172:
 1828 0098 237C     		ldrb	r3, [r4, #16]	@ zero_extendqisi2
 1829 009a B9E7     		b	.L263
 1830              	.L289:
 1831              		.align	2
 1832              	.L288:
 1833 009c 00000000 		.word	.LANCHOR6
 1834 00a0 00000000 		.word	.LANCHOR7
 1835              		.cfi_endproc
 1836              	.LFE11:
 1837              		.size	tcp_abandon, .-tcp_abandon
 1838 00a4 AFF30080 		.section	.text.tcp_abort,"ax",%progbits
 1838      AFF30080 
 1838      AFF30080 
 1839              		.align	2
 1840              		.p2align 4,,15
 1841              		.global	tcp_abort
 1842              		.thumb
 1843              		.thumb_func
 1844              		.type	tcp_abort, %function
 1845              	tcp_abort:
 1846              	.LFB12:
 1847              		.loc 1 381 0
 1848              		.cfi_startproc
 1849              		@ args = 0, pretend = 0, frame = 0
 1850              		@ frame_needed = 0, uses_anonymous_args = 0
 1851              		@ link register save eliminated.
 1852              	.LVL173:
ARM GAS  /tmp/ccqErZ7k.s 			page 34


 1853              		.loc 1 382 0
 1854 0000 0121     		movs	r1, #1
 1855              		.loc 1 383 0
 1856              		.loc 1 382 0
 1857 0002 FFF7FEBF 		b	tcp_abandon
 1858              	.LVL174:
 1859              		.cfi_endproc
 1860              	.LFE12:
 1861              		.size	tcp_abort, .-tcp_abort
 1862 0006 00BFAFF3 		.section	.text.tcp_alloc,"ax",%progbits
 1862      0080AFF3 
 1862      0080
 1863              		.align	2
 1864              		.p2align 4,,15
 1865              		.global	tcp_alloc
 1866              		.thumb
 1867              		.thumb_func
 1868              		.type	tcp_alloc, %function
 1869              	tcp_alloc:
 1870              	.LFB29:
 1871              		.loc 1 1181 0
 1872              		.cfi_startproc
 1873              		@ args = 0, pretend = 0, frame = 0
 1874              		@ frame_needed = 0, uses_anonymous_args = 0
 1875              	.LVL175:
 1876 0000 2DE9F041 		push	{r4, r5, r6, r7, r8, lr}
 1877              	.LCFI14:
 1878              		.cfi_def_cfa_offset 24
 1879              		.cfi_offset 4, -24
 1880              		.cfi_offset 5, -20
 1881              		.cfi_offset 6, -16
 1882              		.cfi_offset 7, -12
 1883              		.cfi_offset 8, -8
 1884              		.cfi_offset 14, -4
 1885              		.loc 1 1181 0
 1886 0004 0746     		mov	r7, r0
 1887              		.loc 1 1185 0
 1888 0006 0220     		movs	r0, #2
 1889              	.LVL176:
 1890 0008 FFF7FEFF 		bl	memp_malloc
 1891              	.LVL177:
 1892              		.loc 1 1186 0
 1893 000c 0446     		mov	r4, r0
 1894 000e 0028     		cmp	r0, #0
 1895 0010 44D0     		beq	.L318
 1896              	.L292:
 1897              		.loc 1 1209 0
 1898 0012 0021     		movs	r1, #0
 1899 0014 A422     		movs	r2, #164
 1900 0016 2046     		mov	r0, r4
 1901 0018 FFF7FEFF 		bl	memset
 1902              	.LVL178:
 1903              	.LBB27:
 1904              	.LBB28:
 1905              		.loc 1 1468 0
 1906 001c 414E     		ldr	r6, .L320
 1907 001e 424A     		ldr	r2, .L320+4
ARM GAS  /tmp/ccqErZ7k.s 			page 35


 1908 0020 3368     		ldr	r3, [r6, #0]
 1909 0022 1568     		ldr	r5, [r2, #0]
 1910              	.LBE28:
 1911              	.LBE27:
 1912              		.loc 1 1210 0
 1913 0024 6774     		strb	r7, [r4, #17]
 1914              	.LBB31:
 1915              	.LBB29:
 1916              		.loc 1 1468 0
 1917 0026 EB18     		adds	r3, r5, r3
 1918              	.LBE29:
 1919              	.LBE31:
 1920              		.loc 1 1212 0
 1921 0028 0021     		movs	r1, #0
 1922              		.loc 1 1213 0
 1923 002a 4FF4066C 		mov	ip, #2144
 1924              		.loc 1 1212 0
 1925 002e 0A46     		mov	r2, r1	@ movhi
 1926              		.loc 1 1239 0
 1927 0030 4FF45D40 		mov	r0, #56576
 1928              		.loc 1 1212 0
 1929 0034 A4F87010 		strh	r1, [r4, #112]	@ movhi
 1930              		.loc 1 1213 0
 1931 0038 A4F828C0 		strh	ip, [r4, #40]	@ movhi
 1932              		.loc 1 1214 0
 1933 003c A4F82AC0 		strh	ip, [r4, #42]	@ movhi
 1934              		.loc 1 1215 0
 1935 0040 6172     		strb	r1, [r4, #9]
 1936              		.loc 1 1216 0
 1937 0042 4FF0FF0C 		mov	ip, #255
 1938              		.loc 1 1221 0
 1939 0046 A4F84410 		strh	r1, [r4, #68]	@ movhi
 1940              	.LBB32:
 1941              	.LBB30:
 1942              		.loc 1 1468 0
 1943 004a 3360     		str	r3, [r6, #0]
 1944              	.LBE30:
 1945              	.LBE32:
 1946              		.loc 1 1223 0
 1947 004c 4FF6FF71 		movw	r1, #65535
 1948              		.loc 1 1226 0
 1949 0050 6366     		str	r3, [r4, #100]
 1950              		.loc 1 1227 0
 1951 0052 A365     		str	r3, [r4, #88]
 1952              		.loc 1 1228 0
 1953 0054 E364     		str	r3, [r4, #76]
 1954              		.loc 1 1229 0
 1955 0056 A366     		str	r3, [r4, #104]
 1956              		.loc 1 1235 0
 1957 0058 344B     		ldr	r3, .L320+8
 1958              		.loc 1 1216 0
 1959 005a 84F80AC0 		strb	ip, [r4, #10]
 1960              		.loc 1 1220 0
 1961 005e 0627     		movs	r7, #6
 1962              		.loc 1 1239 0
 1963 0060 C0F26D00 		movt	r0, 109
 1964              		.loc 1 1211 0
ARM GAS  /tmp/ccqErZ7k.s 			page 36


 1965 0064 4FF48078 		mov	r8, #256
 1966              		.loc 1 1219 0
 1967 0068 4FF4067C 		mov	ip, #536
 1968              		.loc 1 1223 0
 1969 006c E186     		strh	r1, [r4, #54]	@ movhi
 1970              		.loc 1 1224 0
 1971 006e 0121     		movs	r1, #1
 1972              		.loc 1 1211 0
 1973 0070 A4F86E80 		strh	r8, [r4, #110]	@ movhi
 1974              		.loc 1 1219 0
 1975 0074 A4F838C0 		strh	ip, [r4, #56]	@ movhi
 1976              		.loc 1 1220 0
 1977 0078 A4F84870 		strh	r7, [r4, #72]	@ movhi
 1978              		.loc 1 1222 0
 1979 007c A4F84670 		strh	r7, [r4, #70]	@ movhi
 1980              		.loc 1 1224 0
 1981 0080 A4F85210 		strh	r1, [r4, #82]	@ movhi
 1982              		.loc 1 1230 0
 1983 0084 2563     		str	r5, [r4, #48]
 1984              		.loc 1 1232 0
 1985 0086 84F83420 		strb	r2, [r4, #52]
 1986              		.loc 1 1235 0
 1987 008a C4F88830 		str	r3, [r4, #136]
 1988              		.loc 1 1239 0
 1989 008e C4F89800 		str	r0, [r4, #152]
 1990              		.loc 1 1246 0
 1991 0092 84F8A120 		strb	r2, [r4, #161]
 1992              	.L309:
 1993              		.loc 1 1249 0
 1994 0096 2046     		mov	r0, r4
 1995 0098 BDE8F081 		pop	{r4, r5, r6, r7, r8, pc}
 1996              	.LVL179:
 1997              	.L318:
 1998              	.LBB33:
 1999              	.LBB34:
 2000              		.loc 1 1160 0
 2001 009c 244B     		ldr	r3, .L320+12
 2002 009e 1B68     		ldr	r3, [r3, #0]
 2003              	.LVL180:
 2004 00a0 83B1     		cbz	r3, .L294
 2005              		.loc 1 1161 0
 2006 00a2 214A     		ldr	r2, .L320+4
 2007 00a4 196B     		ldr	r1, [r3, #48]
 2008 00a6 1468     		ldr	r4, [r2, #0]
 2009 00a8 1846     		mov	r0, r3
 2010              	.LVL181:
 2011 00aa 611A     		subs	r1, r4, r1
 2012 00ac 05E0     		b	.L317
 2013              	.LVL182:
 2014              	.L296:
 2015 00ae 1A6B     		ldr	r2, [r3, #48]
 2016 00b0 A21A     		subs	r2, r4, r2
 2017 00b2 8A42     		cmp	r2, r1
 2018 00b4 24BF     		itt	cs
 2019 00b6 1146     		movcs	r1, r2
 2020              	.LVL183:
 2021 00b8 1846     		movcs	r0, r3
ARM GAS  /tmp/ccqErZ7k.s 			page 37


 2022              	.L317:
 2023              	.LVL184:
 2024              		.loc 1 1160 0
 2025 00ba DB68     		ldr	r3, [r3, #12]
 2026              	.LVL185:
 2027 00bc 002B     		cmp	r3, #0
 2028 00be F6D1     		bne	.L296
 2029              		.loc 1 1169 0
 2030 00c0 FFF7FEFF 		bl	tcp_abort
 2031              	.LVL186:
 2032              	.L294:
 2033              	.LBE34:
 2034              	.LBE33:
 2035              		.loc 1 1191 0
 2036 00c4 0220     		movs	r0, #2
 2037 00c6 FFF7FEFF 		bl	memp_malloc
 2038              	.LVL187:
 2039              		.loc 1 1192 0
 2040 00ca 0446     		mov	r4, r0
 2041 00cc 30B1     		cbz	r0, .L319
 2042 00ce 194B     		ldr	r3, .L320+16
 2043 00d0 B3F8CC20 		ldrh	r2, [r3, #204]
 2044              	.L302:
 2045              		.loc 1 1205 0
 2046 00d4 013A     		subs	r2, r2, #1
 2047 00d6 A3F8CC20 		strh	r2, [r3, #204]	@ movhi
 2048 00da 9AE7     		b	.L292
 2049              	.L319:
 2050              	.LVL188:
 2051              	.LBB35:
 2052              	.LBB36:
 2053              		.loc 1 1131 0
 2054 00dc 164B     		ldr	r3, .L320+20
 2055 00de 1B68     		ldr	r3, [r3, #0]
 2056              	.LVL189:
 2057 00e0 A3B1     		cbz	r3, .L298
 2058              		.loc 1 1134 0
 2059 00e2 114A     		ldr	r2, .L320+4
 2060 00e4 1668     		ldr	r6, [r2, #0]
 2061              		.loc 1 1126 0
 2062 00e6 7F21     		movs	r1, #127
 2063              	.LVL190:
 2064              	.L300:
 2065              		.loc 1 1132 0
 2066 00e8 5A7C     		ldrb	r2, [r3, #17]	@ zero_extendqisi2
 2067 00ea 9742     		cmp	r7, r2
 2068 00ec 08D3     		bcc	.L299
 2069 00ee 9142     		cmp	r1, r2
 2070 00f0 06D3     		bcc	.L299
 2071              		.loc 1 1134 0
 2072 00f2 1D6B     		ldr	r5, [r3, #48]
 2073 00f4 751B     		subs	r5, r6, r5
 2074              		.loc 1 1133 0
 2075 00f6 AC42     		cmp	r4, r5
 2076 00f8 9EBF     		ittt	ls
 2077 00fa 1846     		movls	r0, r3
 2078 00fc 1146     		movls	r1, r2
ARM GAS  /tmp/ccqErZ7k.s 			page 38


 2079 00fe 2C46     		movls	r4, r5
 2080              	.L299:
 2081              	.LVL191:
 2082              		.loc 1 1131 0
 2083 0100 DB68     		ldr	r3, [r3, #12]
 2084              	.LVL192:
 2085 0102 002B     		cmp	r3, #0
 2086 0104 F0D1     		bne	.L300
 2087              		.loc 1 1140 0
 2088 0106 08B1     		cbz	r0, .L298
 2089              		.loc 1 1143 0
 2090 0108 FFF7FEFF 		bl	tcp_abort
 2091              	.LVL193:
 2092              	.L298:
 2093              	.LBE36:
 2094              	.LBE35:
 2095              		.loc 1 1197 0
 2096 010c 0220     		movs	r0, #2
 2097 010e FFF7FEFF 		bl	memp_malloc
 2098              	.LVL194:
 2099              		.loc 1 1198 0
 2100 0112 0446     		mov	r4, r0
 2101 0114 0028     		cmp	r0, #0
 2102 0116 BED0     		beq	.L309
 2103              		.loc 1 1200 0
 2104 0118 064B     		ldr	r3, .L320+16
 2105 011a B3F8CC20 		ldrh	r2, [r3, #204]
 2106 011e 013A     		subs	r2, r2, #1
 2107 0120 92B2     		uxth	r2, r2
 2108 0122 D7E7     		b	.L302
 2109              	.L321:
 2110              		.align	2
 2111              	.L320:
 2112 0124 00000000 		.word	.LANCHOR10
 2113 0128 00000000 		.word	.LANCHOR5
 2114 012c 00000000 		.word	tcp_recv_null
 2115 0130 00000000 		.word	.LANCHOR7
 2116 0134 00000000 		.word	lwip_stats
 2117 0138 00000000 		.word	.LANCHOR6
 2118              		.cfi_endproc
 2119              	.LFE29:
 2120              		.size	tcp_alloc, .-tcp_alloc
 2121 013c AFF30080 		.section	.text.tcp_new,"ax",%progbits
 2122              		.align	2
 2123              		.p2align 4,,15
 2124              		.global	tcp_new
 2125              		.thumb
 2126              		.thumb_func
 2127              		.type	tcp_new, %function
 2128              	tcp_new:
 2129              	.LFB30:
 2130              		.loc 1 1265 0
 2131              		.cfi_startproc
 2132              		@ args = 0, pretend = 0, frame = 0
 2133              		@ frame_needed = 0, uses_anonymous_args = 0
 2134              		@ link register save eliminated.
 2135              		.loc 1 1266 0
ARM GAS  /tmp/ccqErZ7k.s 			page 39


 2136 0000 4020     		movs	r0, #64
 2137              		.loc 1 1267 0
 2138              		.loc 1 1266 0
 2139 0002 FFF7FEBF 		b	tcp_alloc
 2140              	.LVL195:
 2141              		.cfi_endproc
 2142              	.LFE30:
 2143              		.size	tcp_new, .-tcp_new
 2144 0006 00BFAFF3 		.section	.text.tcp_close_shutdown,"ax",%progbits
 2144      0080AFF3 
 2144      0080
 2145              		.align	2
 2146              		.p2align 4,,15
 2147              		.thumb
 2148              		.thumb_func
 2149              		.type	tcp_close_shutdown, %function
 2150              	tcp_close_shutdown:
 2151              	.LFB8:
 2152              		.loc 1 139 0
 2153              		.cfi_startproc
 2154              		@ args = 0, pretend = 0, frame = 0
 2155              		@ frame_needed = 0, uses_anonymous_args = 0
 2156              	.LVL196:
 2157 0000 30B5     		push	{r4, r5, lr}
 2158              	.LCFI15:
 2159              		.cfi_def_cfa_offset 12
 2160              		.cfi_offset 4, -12
 2161              		.cfi_offset 5, -8
 2162              		.cfi_offset 14, -4
 2163              		.loc 1 142 0
 2164 0002 037C     		ldrb	r3, [r0, #16]	@ zero_extendqisi2
 2165              		.loc 1 139 0
 2166 0004 83B0     		sub	sp, sp, #12
 2167              	.LCFI16:
 2168              		.cfi_def_cfa_offset 24
 2169              		.loc 1 139 0
 2170 0006 0446     		mov	r4, r0
 2171              		.loc 1 142 0
 2172 0008 0029     		cmp	r1, #0
 2173 000a 39D0     		beq	.L327
 2174              		.loc 1 142 0 is_stmt 0 discriminator 1
 2175 000c 012B     		cmp	r3, #1
 2176 000e 4CD0     		beq	.L325
 2177              		.loc 1 143 0 is_stmt 1
 2178 0010 D0F88020 		ldr	r2, [r0, #128]
 2179 0014 002A     		cmp	r2, #0
 2180 0016 2FD0     		beq	.L376
 2181              	.L326:
 2182              		.loc 1 146 0
 2183 0018 94F82030 		ldrb	r3, [r4, #32]	@ zero_extendqisi2
 2184 001c 03F01003 		and	r3, r3, #16
 2185 0020 DBB2     		uxtb	r3, r3
 2186 0022 002B     		cmp	r3, #0
 2187 0024 71D0     		beq	.L377
 2188              	.LVL197:
 2189              	.L328:
 2190              		.loc 1 150 0
ARM GAS  /tmp/ccqErZ7k.s 			page 40


 2191 0026 A38B     		ldrh	r3, [r4, #28]
 2192 0028 E58B     		ldrh	r5, [r4, #30]
 2193 002a A06D     		ldr	r0, [r4, #88]
 2194 002c 616A     		ldr	r1, [r4, #36]
 2195 002e 0093     		str	r3, [sp, #0]
 2196 0030 2246     		mov	r2, r4
 2197 0032 231D     		adds	r3, r4, #4
 2198 0034 0195     		str	r5, [sp, #4]
 2199 0036 FFF7FEFF 		bl	tcp_rst
 2200              	.LVL198:
 2201              		.loc 1 153 0
 2202 003a 2046     		mov	r0, r4
 2203 003c FFF7FEFF 		bl	tcp_pcb_purge
 2204              	.LVL199:
 2205              		.loc 1 158 0
 2206 0040 3C4B     		ldr	r3, .L386
 2207 0042 1A68     		ldr	r2, [r3, #0]
 2208 0044 A242     		cmp	r2, r4
 2209 0046 63D0     		beq	.L378
 2210              		.loc 1 158 0 is_stmt 0 discriminator 2
 2211 0048 3B49     		ldr	r1, .L386+4
 2212 004a 0A60     		str	r2, [r1, #0]
 2213 004c 52B1     		cbz	r2, .L330
 2214              		.loc 1 158 0
 2215 004e D368     		ldr	r3, [r2, #12]
 2216 0050 A342     		cmp	r3, r4
 2217 0052 60D0     		beq	.L379
 2218              		.loc 1 158 0 discriminator 5
 2219 0054 2BB1     		cbz	r3, .L380
 2220              	.L335:
 2221              		.loc 1 158 0 discriminator 7
 2222 0056 DA68     		ldr	r2, [r3, #12]
 2223 0058 A242     		cmp	r2, r4
 2224 005a 52D0     		beq	.L381
 2225              		.loc 1 158 0
 2226 005c 1346     		mov	r3, r2
 2227 005e 002B     		cmp	r3, #0
 2228 0060 F9D1     		bne	.L335
 2229              	.L380:
 2230 0062 0B60     		str	r3, [r1, #0]
 2231              	.L330:
 2232              		.loc 1 160 0 is_stmt 1 discriminator 6
 2233 0064 354B     		ldr	r3, .L386+8
 2234 0066 1A68     		ldr	r2, [r3, #0]
 2235 0068 1C60     		str	r4, [r3, #0]
 2236              		.loc 1 159 0 discriminator 6
 2237 006a 0A23     		movs	r3, #10
 2238 006c 2374     		strb	r3, [r4, #16]
 2239              		.loc 1 160 0 discriminator 6
 2240 006e E260     		str	r2, [r4, #12]
 2241 0070 FFF7FEFF 		bl	tcp_timer_needed
 2242              	.LVL200:
 2243              		.loc 1 162 0 discriminator 6
 2244 0074 0020     		movs	r0, #0
 2245 0076 15E0     		b	.L337
 2246              	.LVL201:
 2247              	.L376:
ARM GAS  /tmp/ccqErZ7k.s 			page 41


 2248              		.loc 1 143 0 discriminator 1
 2249 0078 028D     		ldrh	r2, [r0, #40]
 2250 007a B2F5066F 		cmp	r2, #2144
 2251 007e CBD1     		bne	.L326
 2252              	.L327:
 2253              		.loc 1 166 0
 2254 0080 072B     		cmp	r3, #7
 2255 0082 0ED8     		bhi	.L372
 2256 0084 DFE803F0 		tbb	[pc, r3]
 2257              	.L344:
 2258 0088 1A       		.byte	(.L339-.L344)/2
 2259 0089 11       		.byte	(.L325-.L344)/2
 2260 008a 2C       		.byte	(.L340-.L344)/2
 2261 008b 04       		.byte	(.L342-.L344)/2
 2262 008c 04       		.byte	(.L342-.L344)/2
 2263 008d 0D       		.byte	(.L372-.L344)/2
 2264 008e 0D       		.byte	(.L372-.L344)/2
 2265 008f 35       		.byte	(.L343-.L344)/2
 2266              		.align	1
 2267              	.L342:
 2268              		.loc 1 203 0
 2269 0090 2046     		mov	r0, r4
 2270              	.LVL202:
 2271 0092 FFF7FEFF 		bl	tcp_send_fin
 2272              	.LVL203:
 2273              		.loc 1 204 0
 2274 0096 28B9     		cbnz	r0, .L337
 2275              		.loc 1 206 0
 2276 0098 0523     		movs	r3, #5
 2277 009a 2374     		strb	r3, [r4, #16]
 2278              	.L355:
 2279              	.LVL204:
 2280              		.loc 1 232 0
 2281 009c 2046     		mov	r0, r4
 2282 009e FFF7FEFF 		bl	tcp_output
 2283              	.LVL205:
 2284              	.L372:
 2285 00a2 0020     		movs	r0, #0
 2286              	.L337:
 2287 00a4 40B2     		sxtb	r0, r0
 2288              		.loc 1 235 0
 2289 00a6 03B0     		add	sp, sp, #12
 2290 00a8 30BD     		pop	{r4, r5, pc}
 2291              	.LVL206:
 2292              	.L325:
 2293              		.loc 1 184 0
 2294 00aa 2146     		mov	r1, r4
 2295              	.LVL207:
 2296 00ac 2448     		ldr	r0, .L386+12
 2297              	.LVL208:
 2298 00ae FFF7FEFF 		bl	tcp_pcb_remove
 2299              	.LVL209:
 2300              		.loc 1 185 0
 2301 00b2 0320     		movs	r0, #3
 2302 00b4 2146     		mov	r1, r4
 2303 00b6 FFF7FEFF 		bl	memp_free
 2304              	.LVL210:
ARM GAS  /tmp/ccqErZ7k.s 			page 42


 2305              		.loc 1 187 0
 2306 00ba F2E7     		b	.L372
 2307              	.LVL211:
 2308              	.L339:
 2309              		.loc 1 176 0
 2310 00bc A38B     		ldrh	r3, [r4, #28]
 2311 00be 9BB1     		cbz	r3, .L373
 2312              		.loc 1 177 0
 2313 00c0 204B     		ldr	r3, .L386+16
 2314 00c2 1A68     		ldr	r2, [r3, #0]
 2315 00c4 A242     		cmp	r2, r4
 2316 00c6 32D0     		beq	.L382
 2317              		.loc 1 177 0 is_stmt 0 discriminator 2
 2318 00c8 1B49     		ldr	r1, .L386+4
 2319              	.LVL212:
 2320 00ca 0A60     		str	r2, [r1, #0]
 2321 00cc 42B3     		cbz	r2, .L347
 2322              		.loc 1 177 0
 2323 00ce D368     		ldr	r3, [r2, #12]
 2324 00d0 A342     		cmp	r3, r4
 2325 00d2 22D0     		beq	.L383
 2326              	.L370:
 2327              		.loc 1 177 0 discriminator 5
 2328 00d4 3BB3     		cbz	r3, .L384
 2329              		.loc 1 177 0 discriminator 7
 2330 00d6 DA68     		ldr	r2, [r3, #12]
 2331 00d8 A242     		cmp	r2, r4
 2332 00da 26D0     		beq	.L385
 2333              		.loc 1 177 0
 2334 00dc 1346     		mov	r3, r2
 2335 00de F9E7     		b	.L370
 2336              	.LVL213:
 2337              	.L340:
 2338              		.loc 1 190 0 is_stmt 1
 2339 00e0 2146     		mov	r1, r4
 2340              	.LVL214:
 2341 00e2 1448     		ldr	r0, .L386
 2342              	.LVL215:
 2343 00e4 FFF7FEFF 		bl	tcp_pcb_remove
 2344              	.LVL216:
 2345              	.L373:
 2346              		.loc 1 191 0
 2347 00e8 0220     		movs	r0, #2
 2348 00ea 2146     		mov	r1, r4
 2349 00ec FFF7FEFF 		bl	memp_free
 2350              	.LVL217:
 2351              		.loc 1 194 0
 2352 00f0 D7E7     		b	.L372
 2353              	.LVL218:
 2354              	.L343:
 2355              		.loc 1 210 0
 2356 00f2 2046     		mov	r0, r4
 2357              	.LVL219:
 2358 00f4 FFF7FEFF 		bl	tcp_send_fin
 2359              	.LVL220:
 2360              		.loc 1 211 0
 2361 00f8 0028     		cmp	r0, #0
ARM GAS  /tmp/ccqErZ7k.s 			page 43


 2362 00fa D3D1     		bne	.L337
 2363              		.loc 1 213 0
 2364 00fc 0923     		movs	r3, #9
 2365 00fe 2374     		strb	r3, [r4, #16]
 2366 0100 CCE7     		b	.L355
 2367              	.LVL221:
 2368              	.L381:
 2369 0102 0B60     		str	r3, [r1, #0]
 2370              	.L332:
 2371              		.loc 1 158 0 discriminator 4
 2372 0104 E268     		ldr	r2, [r4, #12]
 2373 0106 DA60     		str	r2, [r3, #12]
 2374 0108 ACE7     		b	.L330
 2375              	.LVL222:
 2376              	.L377:
 2377              		.loc 1 146 0 discriminator 1
 2378 010a FFF7FEFF 		bl	port_halt
 2379              	.LVL223:
 2380 010e 8AE7     		b	.L328
 2381              	.L378:
 2382              		.loc 1 158 0 discriminator 1
 2383 0110 E268     		ldr	r2, [r4, #12]
 2384 0112 1A60     		str	r2, [r3, #0]
 2385 0114 A6E7     		b	.L330
 2386              	.L379:
 2387              		.loc 1 158 0 is_stmt 0
 2388 0116 1346     		mov	r3, r2
 2389 0118 F4E7     		b	.L332
 2390              	.LVL224:
 2391              	.L383:
 2392              		.loc 1 177 0 is_stmt 1
 2393 011a 1346     		mov	r3, r2
 2394              	.L349:
 2395              		.loc 1 177 0 is_stmt 0 discriminator 4
 2396 011c E268     		ldr	r2, [r4, #12]
 2397 011e DA60     		str	r2, [r3, #12]
 2398              	.L347:
 2399              		.loc 1 177 0 discriminator 6
 2400 0120 0023     		movs	r3, #0
 2401 0122 E360     		str	r3, [r4, #12]
 2402 0124 E0E7     		b	.L373
 2403              	.L384:
 2404 0126 0B60     		str	r3, [r1, #0]
 2405 0128 FAE7     		b	.L347
 2406              	.L385:
 2407 012a 0B60     		str	r3, [r1, #0]
 2408 012c F6E7     		b	.L349
 2409              	.LVL225:
 2410              	.L382:
 2411              		.loc 1 177 0 discriminator 1
 2412 012e E268     		ldr	r2, [r4, #12]
 2413 0130 1A60     		str	r2, [r3, #0]
 2414 0132 F5E7     		b	.L347
 2415              	.L387:
 2416              		.align	2
 2417              	.L386:
 2418 0134 00000000 		.word	.LANCHOR6
ARM GAS  /tmp/ccqErZ7k.s 			page 44


 2419 0138 00000000 		.word	.LANCHOR3
 2420 013c 00000000 		.word	.LANCHOR7
 2421 0140 00000000 		.word	.LANCHOR4
 2422 0144 00000000 		.word	.LANCHOR2
 2423              		.cfi_endproc
 2424              	.LFE8:
 2425              		.size	tcp_close_shutdown, .-tcp_close_shutdown
 2426 0148 AFF30080 		.section	.text.tcp_shutdown,"ax",%progbits
 2426      AFF30080 
 2427              		.align	2
 2428              		.p2align 4,,15
 2429              		.global	tcp_shutdown
 2430              		.thumb
 2431              		.thumb_func
 2432              		.type	tcp_shutdown, %function
 2433              	tcp_shutdown:
 2434              	.LFB10:
 2435              		.loc 1 279 0 is_stmt 1
 2436              		.cfi_startproc
 2437              		@ args = 0, pretend = 0, frame = 0
 2438              		@ frame_needed = 0, uses_anonymous_args = 0
 2439              	.LVL226:
 2440 0000 38B5     		push	{r3, r4, r5, lr}
 2441              	.LCFI17:
 2442              		.cfi_def_cfa_offset 16
 2443              		.cfi_offset 3, -16
 2444              		.cfi_offset 4, -12
 2445              		.cfi_offset 5, -8
 2446              		.cfi_offset 14, -4
 2447              		.loc 1 280 0
 2448 0002 037C     		ldrb	r3, [r0, #16]	@ zero_extendqisi2
 2449 0004 012B     		cmp	r3, #1
 2450              		.loc 1 279 0
 2451 0006 0446     		mov	r4, r0
 2452 0008 1546     		mov	r5, r2
 2453              		.loc 1 280 0
 2454 000a 23D0     		beq	.L393
 2455              		.loc 1 283 0
 2456 000c 69B1     		cbz	r1, .L390
 2457              		.loc 1 285 0
 2458 000e D0F88000 		ldr	r0, [r0, #128]
 2459              	.LVL227:
 2460 0012 20B1     		cbz	r0, .L391
 2461              		.loc 1 286 0
 2462 0014 FFF7FEFF 		bl	pbuf_free
 2463              	.LVL228:
 2464              		.loc 1 287 0
 2465 0018 0023     		movs	r3, #0
 2466 001a C4F88030 		str	r3, [r4, #128]
 2467              	.L391:
 2468              		.loc 1 290 0
 2469 001e 94F82030 		ldrb	r3, [r4, #32]	@ zero_extendqisi2
 2470 0022 43F01003 		orr	r3, r3, #16
 2471 0026 84F82030 		strb	r3, [r4, #32]
 2472              	.L390:
 2473              		.loc 1 292 0
 2474 002a 15B1     		cbz	r5, .L395
ARM GAS  /tmp/ccqErZ7k.s 			page 45


 2475              		.loc 1 295 0
 2476 002c 237C     		ldrb	r3, [r4, #16]	@ zero_extendqisi2
 2477 002e 072B     		cmp	r3, #7
 2478 0030 02D9     		bls	.L402
 2479              	.L395:
 2480              		.loc 1 306 0
 2481 0032 0020     		movs	r0, #0
 2482              	.L389:
 2483              		.loc 1 307 0
 2484 0034 40B2     		sxtb	r0, r0
 2485 0036 38BD     		pop	{r3, r4, r5, pc}
 2486              	.L402:
 2487              		.loc 1 295 0
 2488 0038 94F91030 		ldrsb	r3, [r4, #16]
 2489 003c 0122     		movs	r2, #1
 2490 003e 02FA03F3 		lsl	r3, r2, r3
 2491 0042 13F0980F 		tst	r3, #152
 2492 0046 F4D0     		beq	.L395
 2493              		.loc 1 299 0
 2494 0048 2046     		mov	r0, r4
 2495 004a 0021     		movs	r1, #0
 2496              		.loc 1 307 0
 2497 004c BDE83840 		pop	{r3, r4, r5, lr}
 2498              		.loc 1 299 0
 2499 0050 FFF7FEBF 		b	tcp_close_shutdown
 2500              	.LVL229:
 2501              	.L393:
 2502              		.loc 1 281 0
 2503 0054 F320     		movs	r0, #243
 2504              	.LVL230:
 2505 0056 EDE7     		b	.L389
 2506              		.cfi_endproc
 2507              	.LFE10:
 2508              		.size	tcp_shutdown, .-tcp_shutdown
 2509 0058 AFF30080 		.section	.text.tcp_close,"ax",%progbits
 2509      AFF30080 
 2510              		.align	2
 2511              		.p2align 4,,15
 2512              		.global	tcp_close
 2513              		.thumb
 2514              		.thumb_func
 2515              		.type	tcp_close, %function
 2516              	tcp_close:
 2517              	.LFB9:
 2518              		.loc 1 253 0
 2519              		.cfi_startproc
 2520              		@ args = 0, pretend = 0, frame = 0
 2521              		@ frame_needed = 0, uses_anonymous_args = 0
 2522              		@ link register save eliminated.
 2523              	.LVL231:
 2524              		.loc 1 259 0
 2525 0000 037C     		ldrb	r3, [r0, #16]	@ zero_extendqisi2
 2526 0002 012B     		cmp	r3, #1
 2527              		.loc 1 261 0
 2528 0004 1EBF     		ittt	ne
 2529 0006 90F82030 		ldrbne	r3, [r0, #32]	@ zero_extendqisi2
 2530 000a 43F01003 		orrne	r3, r3, #16
ARM GAS  /tmp/ccqErZ7k.s 			page 46


 2531 000e 80F82030 		strbne	r3, [r0, #32]
 2532              		.loc 1 264 0
 2533 0012 0121     		movs	r1, #1
 2534              		.loc 1 265 0
 2535              		.loc 1 264 0
 2536 0014 FFF7FEBF 		b	tcp_close_shutdown
 2537              	.LVL232:
 2538              		.cfi_endproc
 2539              	.LFE9:
 2540              		.size	tcp_close, .-tcp_close
 2541 0018 AFF30080 		.section	.text.tcp_recv_null,"ax",%progbits
 2541      AFF30080 
 2542              		.align	2
 2543              		.p2align 4,,15
 2544              		.global	tcp_recv_null
 2545              		.thumb
 2546              		.thumb_func
 2547              		.type	tcp_recv_null, %function
 2548              	tcp_recv_null:
 2549              	.LFB26:
 2550              		.loc 1 1101 0
 2551              		.cfi_startproc
 2552              		@ args = 0, pretend = 0, frame = 0
 2553              		@ frame_needed = 0, uses_anonymous_args = 0
 2554              	.LVL233:
 2555 0000 10B5     		push	{r4, lr}
 2556              	.LCFI18:
 2557              		.cfi_def_cfa_offset 8
 2558              		.cfi_offset 4, -8
 2559              		.cfi_offset 14, -4
 2560              		.loc 1 1103 0
 2561 0002 1446     		mov	r4, r2
 2562 0004 42B1     		cbz	r2, .L409
 2563              		.loc 1 1104 0
 2564 0006 0846     		mov	r0, r1
 2565              	.LVL234:
 2566 0008 1189     		ldrh	r1, [r2, #8]
 2567              	.LVL235:
 2568 000a FFF7FEFF 		bl	tcp_recved
 2569              	.LVL236:
 2570              		.loc 1 1105 0
 2571 000e 2046     		mov	r0, r4
 2572 0010 FFF7FEFF 		bl	pbuf_free
 2573              	.LVL237:
 2574              	.L410:
 2575              		.loc 1 1110 0
 2576 0014 0020     		movs	r0, #0
 2577 0016 10BD     		pop	{r4, pc}
 2578              	.LVL238:
 2579              	.L409:
 2580              	.LBB39:
 2581              	.LBB40:
 2582              		.loc 1 1106 0
 2583 0018 002B     		cmp	r3, #0
 2584 001a FBD1     		bne	.L410
 2585              		.loc 1 1107 0
 2586 001c 0846     		mov	r0, r1
ARM GAS  /tmp/ccqErZ7k.s 			page 47


 2587              	.LVL239:
 2588              	.LBE40:
 2589              	.LBE39:
 2590              		.loc 1 1110 0
 2591 001e BDE81040 		pop	{r4, lr}
 2592              	.LBB42:
 2593              	.LBB41:
 2594              		.loc 1 1107 0
 2595 0022 FFF7FEBF 		b	tcp_close
 2596              	.LVL240:
 2597              	.LBE41:
 2598              	.LBE42:
 2599              		.cfi_endproc
 2600              	.LFE26:
 2601              		.size	tcp_recv_null, .-tcp_recv_null
 2602 0026 00BFAFF3 		.section	.text.tcp_fasttmr,"ax",%progbits
 2602      0080AFF3 
 2602      0080
 2603              		.align	2
 2604              		.p2align 4,,15
 2605              		.global	tcp_fasttmr
 2606              		.thumb
 2607              		.thumb_func
 2608              		.type	tcp_fasttmr, %function
 2609              	tcp_fasttmr:
 2610              	.LFB21:
 2611              		.loc 1 994 0
 2612              		.cfi_startproc
 2613              		@ args = 0, pretend = 0, frame = 0
 2614              		@ frame_needed = 0, uses_anonymous_args = 0
 2615              		.loc 1 995 0
 2616 0000 1B4B     		ldr	r3, .L431
 2617              		.loc 1 994 0
 2618 0002 70B5     		push	{r4, r5, r6, lr}
 2619              	.LCFI19:
 2620              		.cfi_def_cfa_offset 16
 2621              		.cfi_offset 4, -16
 2622              		.cfi_offset 5, -12
 2623              		.cfi_offset 6, -8
 2624              		.cfi_offset 14, -4
 2625              		.loc 1 995 0
 2626 0004 1C68     		ldr	r4, [r3, #0]
 2627              	.LVL241:
 2628              		.loc 1 997 0
 2629 0006 002C     		cmp	r4, #0
 2630 0008 30D0     		beq	.L412
 2631              	.L426:
 2632              	.LBB43:
 2633              		.loc 1 1000 0
 2634 000a D4F88020 		ldr	r2, [r4, #128]
 2635              		.loc 1 998 0
 2636 000e E668     		ldr	r6, [r4, #12]
 2637              	.LVL242:
 2638              		.loc 1 1000 0
 2639 0010 4AB1     		cbz	r2, .L418
 2640              	.LBB44:
 2641              		.loc 1 1004 0
ARM GAS  /tmp/ccqErZ7k.s 			page 48


 2642 0012 D4F88850 		ldr	r5, [r4, #136]
 2643 0016 1DB3     		cbz	r5, .L415
 2644              		.loc 1 1004 0 is_stmt 0 discriminator 1
 2645 0018 6069     		ldr	r0, [r4, #20]
 2646 001a 2146     		mov	r1, r4
 2647 001c 0023     		movs	r3, #0
 2648 001e A847     		blx	r5
 2649              	.LVL243:
 2650              	.L416:
 2651              		.loc 1 1005 0 is_stmt 1
 2652 0020 48B9     		cbnz	r0, .L417
 2653              		.loc 1 1006 0
 2654 0022 C4F88000 		str	r0, [r4, #128]
 2655              	.LVL244:
 2656              	.L418:
 2657              	.LBE44:
 2658              		.loc 1 1014 0
 2659 0026 94F82030 		ldrb	r3, [r4, #32]	@ zero_extendqisi2
 2660 002a D907     		lsls	r1, r3, #31
 2661 002c 0AD4     		bmi	.L430
 2662              	.L419:
 2663              	.LVL245:
 2664              	.LBE43:
 2665              		.loc 1 997 0 discriminator 1
 2666 002e 3446     		mov	r4, r6
 2667 0030 002E     		cmp	r6, #0
 2668 0032 EAD1     		bne	.L426
 2669              	.LVL246:
 2670 0034 70BD     		pop	{r4, r5, r6, pc}
 2671              	.LVL247:
 2672              	.L417:
 2673              	.LBB47:
 2674              	.LBB45:
 2675              		.loc 1 1007 0
 2676 0036 40B2     		sxtb	r0, r0
 2677              	.LVL248:
 2678 0038 0A30     		adds	r0, r0, #10
 2679 003a F8D0     		beq	.L419
 2680              	.LBE45:
 2681              		.loc 1 1014 0
 2682 003c 94F82030 		ldrb	r3, [r4, #32]	@ zero_extendqisi2
 2683 0040 D907     		lsls	r1, r3, #31
 2684 0042 F4D5     		bpl	.L419
 2685              	.L430:
 2686              		.loc 1 1016 0
 2687 0044 43F00203 		orr	r3, r3, #2
 2688 0048 84F82030 		strb	r3, [r4, #32]
 2689              		.loc 1 1017 0
 2690 004c 2046     		mov	r0, r4
 2691 004e FFF7FEFF 		bl	tcp_output
 2692              	.LVL249:
 2693              		.loc 1 1018 0
 2694 0052 94F82030 		ldrb	r3, [r4, #32]	@ zero_extendqisi2
 2695 0056 23F00303 		bic	r3, r3, #3
 2696 005a 84F82030 		strb	r3, [r4, #32]
 2697 005e E6E7     		b	.L419
 2698              	.L415:
ARM GAS  /tmp/ccqErZ7k.s 			page 49


 2699              	.LBB46:
 2700              		.loc 1 1004 0 discriminator 2
 2701 0060 2846     		mov	r0, r5
 2702 0062 2146     		mov	r1, r4
 2703 0064 2B46     		mov	r3, r5
 2704 0066 FFF7FEFF 		bl	tcp_recv_null
 2705              	.LVL250:
 2706 006a D9E7     		b	.L416
 2707              	.LVL251:
 2708              	.L412:
 2709 006c 70BD     		pop	{r4, r5, r6, pc}
 2710              	.L432:
 2711 006e 00BF     		.align	2
 2712              	.L431:
 2713 0070 00000000 		.word	.LANCHOR6
 2714              	.LBE46:
 2715              	.LBE47:
 2716              		.cfi_endproc
 2717              	.LFE21:
 2718              		.size	tcp_fasttmr, .-tcp_fasttmr
 2719 0074 AFF30080 		.section	.text.tcp_tmr,"ax",%progbits
 2719      AFF30080 
 2719      AFF30080 
 2720              		.align	2
 2721              		.p2align 4,,15
 2722              		.global	tcp_tmr
 2723              		.thumb
 2724              		.thumb_func
 2725              		.type	tcp_tmr, %function
 2726              	tcp_tmr:
 2727              	.LFB7:
 2728              		.loc 1 110 0
 2729              		.cfi_startproc
 2730              		@ args = 0, pretend = 0, frame = 0
 2731              		@ frame_needed = 0, uses_anonymous_args = 0
 2732 0000 08B5     		push	{r3, lr}
 2733              	.LCFI20:
 2734              		.cfi_def_cfa_offset 8
 2735              		.cfi_offset 3, -8
 2736              		.cfi_offset 14, -4
 2737              		.loc 1 112 0
 2738 0002 FFF7FEFF 		bl	tcp_fasttmr
 2739              	.LVL252:
 2740              		.loc 1 114 0
 2741 0006 064A     		ldr	r2, .L436
 2742 0008 1378     		ldrb	r3, [r2, #0]	@ zero_extendqisi2
 2743 000a 0133     		adds	r3, r3, #1
 2744 000c DBB2     		uxtb	r3, r3
 2745 000e D807     		lsls	r0, r3, #31
 2746 0010 1370     		strb	r3, [r2, #0]
 2747 0012 00D4     		bmi	.L435
 2748 0014 08BD     		pop	{r3, pc}
 2749              	.L435:
 2750              		.loc 1 119 0
 2751 0016 BDE80840 		pop	{r3, lr}
 2752              		.loc 1 117 0
 2753 001a FFF7FEBF 		b	tcp_slowtmr
ARM GAS  /tmp/ccqErZ7k.s 			page 50


 2754              	.LVL253:
 2755              	.L437:
 2756 001e 00BF     		.align	2
 2757              	.L436:
 2758 0020 00000000 		.word	.LANCHOR11
 2759              		.cfi_endproc
 2760              	.LFE7:
 2761              		.size	tcp_tmr, .-tcp_tmr
 2762 0024 AFF30080 		.section	.text.tcp_next_iss,"ax",%progbits
 2762      AFF30080 
 2762      AFF30080 
 2763              		.align	2
 2764              		.p2align 4,,15
 2765              		.global	tcp_next_iss
 2766              		.thumb
 2767              		.thumb_func
 2768              		.type	tcp_next_iss, %function
 2769              	tcp_next_iss:
 2770              	.LFB39:
 2771              		.loc 1 1465 0
 2772              		.cfi_startproc
 2773              		@ args = 0, pretend = 0, frame = 0
 2774              		@ frame_needed = 0, uses_anonymous_args = 0
 2775              		@ link register save eliminated.
 2776              		.loc 1 1468 0
 2777 0000 40F20002 		movw	r2, #:lower16:.LANCHOR5
 2778 0004 40F20003 		movw	r3, #:lower16:.LANCHOR10
 2779 0008 C0F20003 		movt	r3, #:upper16:.LANCHOR10
 2780 000c C0F20002 		movt	r2, #:upper16:.LANCHOR5
 2781 0010 1968     		ldr	r1, [r3, #0]
 2782 0012 1068     		ldr	r0, [r2, #0]
 2783 0014 4018     		adds	r0, r0, r1
 2784 0016 1860     		str	r0, [r3, #0]
 2785              		.loc 1 1470 0
 2786 0018 7047     		bx	lr
 2787              		.cfi_endproc
 2788              	.LFE39:
 2789              		.size	tcp_next_iss, .-tcp_next_iss
 2790 001a 00BFAFF3 		.section	.text.tcp_eff_send_mss,"ax",%progbits
 2790      0080
 2791              		.align	2
 2792              		.p2align 4,,15
 2793              		.global	tcp_eff_send_mss
 2794              		.thumb
 2795              		.thumb_func
 2796              		.type	tcp_eff_send_mss, %function
 2797              	tcp_eff_send_mss:
 2798              	.LFB40:
 2799              		.loc 1 1480 0
 2800              		.cfi_startproc
 2801              		@ args = 0, pretend = 0, frame = 0
 2802              		@ frame_needed = 0, uses_anonymous_args = 0
 2803              	.LVL254:
 2804 0000 10B5     		push	{r4, lr}
 2805              	.LCFI21:
 2806              		.cfi_def_cfa_offset 8
 2807              		.cfi_offset 4, -8
ARM GAS  /tmp/ccqErZ7k.s 			page 51


 2808              		.cfi_offset 14, -4
 2809              		.loc 1 1480 0
 2810 0002 0446     		mov	r4, r0
 2811              		.loc 1 1484 0
 2812 0004 0846     		mov	r0, r1
 2813              	.LVL255:
 2814 0006 FFF7FEFF 		bl	ip_route
 2815              	.LVL256:
 2816              		.loc 1 1485 0
 2817 000a 30B1     		cbz	r0, .L440
 2818              		.loc 1 1485 0 is_stmt 0 discriminator 1
 2819 000c 038C     		ldrh	r3, [r0, #32]
 2820 000e 23B1     		cbz	r3, .L440
 2821              	.LVL257:
 2822              		.loc 1 1486 0 is_stmt 1
 2823 0010 283B     		subs	r3, r3, #40
 2824              	.LVL258:
 2825              		.loc 1 1491 0
 2826 0012 9BB2     		uxth	r3, r3
 2827              	.LVL259:
 2828 0014 9C42     		cmp	r4, r3
 2829 0016 28BF     		it	cs
 2830 0018 1C46     		movcs	r4, r3
 2831              	.LVL260:
 2832              	.L440:
 2833              		.loc 1 1494 0
 2834 001a 2046     		mov	r0, r4
 2835              	.LVL261:
 2836 001c 10BD     		pop	{r4, pc}
 2837              		.cfi_endproc
 2838              	.LFE40:
 2839              		.size	tcp_eff_send_mss, .-tcp_eff_send_mss
 2840 001e 00BF     		.section	.text.tcp_connect,"ax",%progbits
 2841              		.align	2
 2842              		.p2align 4,,15
 2843              		.global	tcp_connect
 2844              		.thumb
 2845              		.thumb_func
 2846              		.type	tcp_connect, %function
 2847              	tcp_connect:
 2848              	.LFB19:
 2849              		.loc 1 651 0
 2850              		.cfi_startproc
 2851              		@ args = 0, pretend = 0, frame = 0
 2852              		@ frame_needed = 0, uses_anonymous_args = 0
 2853              	.LVL262:
 2854 0000 2DE9F843 		push	{r3, r4, r5, r6, r7, r8, r9, lr}
 2855              	.LCFI22:
 2856              		.cfi_def_cfa_offset 32
 2857              		.cfi_offset 3, -32
 2858              		.cfi_offset 4, -28
 2859              		.cfi_offset 5, -24
 2860              		.cfi_offset 6, -20
 2861              		.cfi_offset 7, -16
 2862              		.cfi_offset 8, -12
 2863              		.cfi_offset 9, -8
 2864              		.cfi_offset 14, -4
ARM GAS  /tmp/ccqErZ7k.s 			page 52


 2865              		.loc 1 651 0
 2866 0004 0D46     		mov	r5, r1
 2867              		.loc 1 656 0
 2868 0006 017C     		ldrb	r1, [r0, #16]	@ zero_extendqisi2
 2869              	.LVL263:
 2870              		.loc 1 651 0
 2871 0008 0446     		mov	r4, r0
 2872 000a 9946     		mov	r9, r3
 2873              		.loc 1 656 0
 2874 000c 0029     		cmp	r1, #0
 2875 000e 6ED1     		bne	.L469
 2876              		.loc 1 659 0
 2877 0010 002D     		cmp	r5, #0
 2878 0012 70D0     		beq	.L461
 2879              		.loc 1 660 0
 2880 0014 2968     		ldr	r1, [r5, #0]
 2881              		.loc 1 667 0
 2882 0016 0368     		ldr	r3, [r0, #0]
 2883              	.LVL264:
 2884              		.loc 1 660 0
 2885 0018 4160     		str	r1, [r0, #4]
 2886              		.loc 1 664 0
 2887 001a C283     		strh	r2, [r0, #30]	@ movhi
 2888              		.loc 1 667 0
 2889 001c 33B9     		cbnz	r3, .L450
 2890              	.LBB48:
 2891              		.loc 1 669 0
 2892 001e 0430     		adds	r0, r0, #4
 2893              	.LVL265:
 2894 0020 FFF7FEFF 		bl	ip_route
 2895              	.LVL266:
 2896              		.loc 1 670 0
 2897 0024 0028     		cmp	r0, #0
 2898 0026 68D0     		beq	.L462
 2899              		.loc 1 676 0
 2900 0028 4368     		ldr	r3, [r0, #4]
 2901 002a 2360     		str	r3, [r4, #0]
 2902              	.LVL267:
 2903              	.L450:
 2904              	.LBE48:
 2905              		.loc 1 679 0
 2906 002c B4F81C80 		ldrh	r8, [r4, #28]
 2907              	.LVL268:
 2908              		.loc 1 680 0
 2909 0030 B8F1000F 		cmp	r8, #0
 2910 0034 50D0     		beq	.L470
 2911              	.LVL269:
 2912              	.L451:
 2913              	.LBB49:
 2914              	.LBB50:
 2915              		.loc 1 1468 0
 2916 0036 324F     		ldr	r7, .L475
 2917 0038 324A     		ldr	r2, .L475+4
 2918 003a 3B68     		ldr	r3, [r7, #0]
 2919 003c 1268     		ldr	r2, [r2, #0]
 2920 003e D218     		adds	r2, r2, r3
 2921              	.LBE50:
ARM GAS  /tmp/ccqErZ7k.s 			page 53


 2922              	.LBE49:
 2923              		.loc 1 706 0
 2924 0040 02F1FF3E 		add	lr, r2, #-1
 2925              		.loc 1 704 0
 2926 0044 0023     		movs	r3, #0
 2927              		.loc 1 708 0
 2928 0046 4FF40666 		mov	r6, #2144
 2929              		.loc 1 714 0
 2930 004a 4FF40670 		mov	r0, #536
 2931              		.loc 1 716 0
 2932 004e 2946     		mov	r1, r5
 2933              		.loc 1 704 0
 2934 0050 6362     		str	r3, [r4, #36]
 2935              		.loc 1 705 0
 2936 0052 A265     		str	r2, [r4, #88]
 2937              		.loc 1 706 0
 2938 0054 C4F84CE0 		str	lr, [r4, #76]
 2939              		.loc 1 707 0
 2940 0058 C4F868E0 		str	lr, [r4, #104]
 2941              		.loc 1 710 0
 2942 005c E362     		str	r3, [r4, #44]
 2943              		.loc 1 708 0
 2944 005e 2685     		strh	r6, [r4, #40]	@ movhi
 2945              		.loc 1 709 0
 2946 0060 6685     		strh	r6, [r4, #42]	@ movhi
 2947              		.loc 1 711 0
 2948 0062 A4F85C60 		strh	r6, [r4, #92]	@ movhi
 2949              		.loc 1 714 0
 2950 0066 2087     		strh	r0, [r4, #56]	@ movhi
 2951              	.LBB52:
 2952              	.LBB51:
 2953              		.loc 1 1468 0
 2954 0068 3A60     		str	r2, [r7, #0]
 2955              	.LBE51:
 2956              	.LBE52:
 2957              		.loc 1 716 0
 2958 006a FFF7FEFF 		bl	tcp_eff_send_mss
 2959              	.LVL270:
 2960              		.loc 1 719 0
 2961 006e 00EB8003 		add	r3, r0, r0, lsl #2
 2962 0072 5B00     		lsls	r3, r3, #1
 2963              		.loc 1 718 0
 2964 0074 0122     		movs	r2, #1
 2965              		.loc 1 716 0
 2966 0076 2087     		strh	r0, [r4, #56]	@ movhi
 2967              		.loc 1 718 0
 2968 0078 A4F85220 		strh	r2, [r4, #82]	@ movhi
 2969              		.loc 1 719 0
 2970 007c A4F85430 		strh	r3, [r4, #84]	@ movhi
 2971              		.loc 1 721 0
 2972 0080 C4F88C90 		str	r9, [r4, #140]
 2973              		.loc 1 727 0
 2974 0084 2046     		mov	r0, r4
 2975 0086 0221     		movs	r1, #2
 2976 0088 FFF7FEFF 		bl	tcp_enqueue_flags
 2977              	.LVL271:
 2978              		.loc 1 728 0
ARM GAS  /tmp/ccqErZ7k.s 			page 54


 2979 008c 0546     		mov	r5, r0
 2980              	.LVL272:
 2981 008e 00BB     		cbnz	r0, .L449
 2982              		.loc 1 730 0
 2983 0090 0223     		movs	r3, #2
 2984 0092 2374     		strb	r3, [r4, #16]
 2985              		.loc 1 731 0
 2986 0094 B8F1000F 		cmp	r8, #0
 2987 0098 12D0     		beq	.L452
 2988              		.loc 1 732 0
 2989 009a 1B4B     		ldr	r3, .L475+8
 2990 009c 1A68     		ldr	r2, [r3, #0]
 2991 009e A242     		cmp	r2, r4
 2992 00a0 22D0     		beq	.L471
 2993              		.loc 1 732 0 is_stmt 0 discriminator 2
 2994 00a2 1A49     		ldr	r1, .L475+12
 2995 00a4 0A60     		str	r2, [r1, #0]
 2996 00a6 5AB1     		cbz	r2, .L452
 2997              		.loc 1 732 0
 2998 00a8 D368     		ldr	r3, [r2, #12]
 2999 00aa A342     		cmp	r3, r4
 3000 00ac 1AD0     		beq	.L472
 3001              	.L468:
 3002              		.loc 1 732 0 discriminator 5
 3003 00ae BBB1     		cbz	r3, .L473
 3004              		.loc 1 732 0 discriminator 7
 3005 00b0 DA68     		ldr	r2, [r3, #12]
 3006 00b2 A242     		cmp	r2, r4
 3007 00b4 01D0     		beq	.L474
 3008              		.loc 1 732 0
 3009 00b6 1346     		mov	r3, r2
 3010 00b8 F9E7     		b	.L468
 3011              	.L474:
 3012 00ba 0B60     		str	r3, [r1, #0]
 3013              	.L456:
 3014              		.loc 1 732 0 discriminator 4
 3015 00bc E268     		ldr	r2, [r4, #12]
 3016 00be DA60     		str	r2, [r3, #12]
 3017              	.L452:
 3018              		.loc 1 734 0 is_stmt 1
 3019 00c0 134B     		ldr	r3, .L475+16
 3020 00c2 1A68     		ldr	r2, [r3, #0]
 3021 00c4 1C60     		str	r4, [r3, #0]
 3022 00c6 E260     		str	r2, [r4, #12]
 3023 00c8 FFF7FEFF 		bl	tcp_timer_needed
 3024              	.LVL273:
 3025              		.loc 1 737 0
 3026 00cc 2046     		mov	r0, r4
 3027 00ce FFF7FEFF 		bl	tcp_output
 3028              	.LVL274:
 3029              	.L449:
 3030              		.loc 1 740 0
 3031 00d2 68B2     		sxtb	r0, r5
 3032 00d4 BDE8F883 		pop	{r3, r4, r5, r6, r7, r8, r9, pc}
 3033              	.LVL275:
 3034              	.L470:
 3035              		.loc 1 681 0
ARM GAS  /tmp/ccqErZ7k.s 			page 55


 3036 00d8 FFF7FEFF 		bl	tcp_new_port
 3037              	.LVL276:
 3038 00dc A083     		strh	r0, [r4, #28]	@ movhi
 3039 00de AAE7     		b	.L451
 3040              	.LVL277:
 3041              	.L473:
 3042 00e0 0B60     		str	r3, [r1, #0]
 3043 00e2 EDE7     		b	.L452
 3044              	.L472:
 3045              		.loc 1 732 0
 3046 00e4 1346     		mov	r3, r2
 3047 00e6 E9E7     		b	.L456
 3048              	.L471:
 3049              		.loc 1 732 0 is_stmt 0 discriminator 1
 3050 00e8 E268     		ldr	r2, [r4, #12]
 3051 00ea 1A60     		str	r2, [r3, #0]
 3052 00ec E8E7     		b	.L452
 3053              	.LVL278:
 3054              	.L469:
 3055              		.loc 1 656 0 is_stmt 1 discriminator 1
 3056 00ee FFF7FEFF 		bl	port_halt
 3057              	.LVL279:
 3058 00f2 F725     		movs	r5, #247
 3059              	.LVL280:
 3060 00f4 EDE7     		b	.L449
 3061              	.LVL281:
 3062              	.L461:
 3063              		.loc 1 662 0
 3064 00f6 FA25     		movs	r5, #250
 3065              	.LVL282:
 3066 00f8 EBE7     		b	.L449
 3067              	.LVL283:
 3068              	.L462:
 3069              	.LBB53:
 3070              		.loc 1 673 0
 3071 00fa FC25     		movs	r5, #252
 3072              	.LVL284:
 3073 00fc E9E7     		b	.L449
 3074              	.L476:
 3075 00fe 00BF     		.align	2
 3076              	.L475:
 3077 0100 00000000 		.word	.LANCHOR10
 3078 0104 00000000 		.word	.LANCHOR5
 3079 0108 00000000 		.word	.LANCHOR2
 3080 010c 00000000 		.word	.LANCHOR3
 3081 0110 00000000 		.word	.LANCHOR6
 3082              	.LBE53:
 3083              		.cfi_endproc
 3084              	.LFE19:
 3085              		.size	tcp_connect, .-tcp_connect
 3086 0114 AFF30080 		.section	.text.tcp_debug_state_str,"ax",%progbits
 3086      AFF30080 
 3086      AFF30080 
 3087              		.align	2
 3088              		.p2align 4,,15
 3089              		.global	tcp_debug_state_str
 3090              		.thumb
ARM GAS  /tmp/ccqErZ7k.s 			page 56


 3091              		.thumb_func
 3092              		.type	tcp_debug_state_str, %function
 3093              	tcp_debug_state_str:
 3094              	.LFB41:
 3095              		.loc 1 1499 0
 3096              		.cfi_startproc
 3097              		@ args = 0, pretend = 0, frame = 0
 3098              		@ frame_needed = 0, uses_anonymous_args = 0
 3099              		@ link register save eliminated.
 3100              	.LVL285:
 3101              		.loc 1 1500 0
 3102 0000 40F20003 		movw	r3, #:lower16:.LANCHOR12
 3103 0004 C0F20003 		movt	r3, #:upper16:.LANCHOR12
 3104              		.loc 1 1501 0
 3105 0008 53F82000 		ldr	r0, [r3, r0, lsl #2]
 3106              	.LVL286:
 3107 000c 7047     		bx	lr
 3108              		.cfi_endproc
 3109              	.LFE41:
 3110              		.size	tcp_debug_state_str, .-tcp_debug_state_str
 3111              		.global	tcp_tmp_pcb
 3112              		.global	tcp_pcb_lists
 3113              		.global	tcp_tw_pcbs
 3114              		.global	tcp_active_pcbs
 3115              		.global	tcp_listen_pcbs
 3116              		.global	tcp_bound_pcbs
 3117              		.global	tcp_persist_backoff
 3118              		.global	tcp_backoff
 3119              		.global	tcp_ticks
 3120              		.global	tcp_state_str
 3121 000e 00BF     		.section	.rodata.tcp_state_str,"a",%progbits
 3122              		.align	2
 3123              		.set	.LANCHOR12,. + 0
 3124              		.type	tcp_state_str, %object
 3125              		.size	tcp_state_str, 44
 3126              	tcp_state_str:
 3127 0000 00000000 		.word	.LC0
 3128 0004 08000000 		.word	.LC1
 3129 0008 10000000 		.word	.LC2
 3130 000c 1C000000 		.word	.LC3
 3131 0010 28000000 		.word	.LC4
 3132 0014 34000000 		.word	.LC5
 3133 0018 40000000 		.word	.LC6
 3134 001c 4C000000 		.word	.LC7
 3135 0020 58000000 		.word	.LC8
 3136 0024 60000000 		.word	.LC9
 3137 0028 6C000000 		.word	.LC10
 3138              		.section	.rodata.tcp_pcb_lists,"a",%progbits
 3139              		.align	2
 3140              		.set	.LANCHOR1,. + 0
 3141              		.type	tcp_pcb_lists, %object
 3142              		.size	tcp_pcb_lists, 16
 3143              	tcp_pcb_lists:
 3144 0000 00000000 		.word	tcp_listen_pcbs
 3145 0004 00000000 		.word	tcp_bound_pcbs
 3146 0008 00000000 		.word	tcp_active_pcbs
 3147 000c 00000000 		.word	tcp_tw_pcbs
ARM GAS  /tmp/ccqErZ7k.s 			page 57


 3148              		.section	.bss.tcp_ticks,"aw",%nobits
 3149              		.align	2
 3150              		.set	.LANCHOR5,. + 0
 3151              		.type	tcp_ticks, %object
 3152              		.size	tcp_ticks, 4
 3153              	tcp_ticks:
 3154 0000 00000000 		.space	4
 3155              		.section	.data.iss.6043,"aw",%progbits
 3156              		.align	2
 3157              		.set	.LANCHOR10,. + 0
 3158              		.type	iss.6043, %object
 3159              		.size	iss.6043, 4
 3160              	iss.6043:
 3161 0000 6E190000 		.word	6510
 3162              		.section	.bss.tcp_timer,"aw",%nobits
 3163              		.set	.LANCHOR11,. + 0
 3164              		.type	tcp_timer, %object
 3165              		.size	tcp_timer, 1
 3166              	tcp_timer:
 3167 0000 00       		.space	1
 3168              		.section	.bss.tcp_listen_pcbs,"aw",%nobits
 3169              		.align	2
 3170              		.set	.LANCHOR4,. + 0
 3171              		.type	tcp_listen_pcbs, %object
 3172              		.size	tcp_listen_pcbs, 4
 3173              	tcp_listen_pcbs:
 3174 0000 00000000 		.space	4
 3175              		.section	.rodata.tcp_backoff,"a",%progbits
 3176              		.align	2
 3177              		.set	.LANCHOR9,. + 0
 3178              		.type	tcp_backoff, %object
 3179              		.size	tcp_backoff, 13
 3180              	tcp_backoff:
 3181 0000 01       		.byte	1
 3182 0001 02       		.byte	2
 3183 0002 03       		.byte	3
 3184 0003 04       		.byte	4
 3185 0004 05       		.byte	5
 3186 0005 06       		.byte	6
 3187 0006 07       		.byte	7
 3188 0007 07       		.byte	7
 3189 0008 07       		.byte	7
 3190 0009 07       		.byte	7
 3191 000a 07       		.byte	7
 3192 000b 07       		.byte	7
 3193 000c 07       		.byte	7
 3194 000d 000000   		.section	.data.port.5907,"aw",%progbits
 3195              		.align	1
 3196              		.set	.LANCHOR0,. + 0
 3197              		.type	port.5907, %object
 3198              		.size	port.5907, 2
 3199              	port.5907:
 3200 0000 00C0     		.short	-16384
 3201              		.section	.bss.tcp_active_pcbs,"aw",%nobits
 3202              		.align	2
 3203              		.set	.LANCHOR6,. + 0
 3204              		.type	tcp_active_pcbs, %object
ARM GAS  /tmp/ccqErZ7k.s 			page 58


 3205              		.size	tcp_active_pcbs, 4
 3206              	tcp_active_pcbs:
 3207 0000 00000000 		.space	4
 3208              		.section	.bss.tcp_tw_pcbs,"aw",%nobits
 3209              		.align	2
 3210              		.set	.LANCHOR7,. + 0
 3211              		.type	tcp_tw_pcbs, %object
 3212              		.size	tcp_tw_pcbs, 4
 3213              	tcp_tw_pcbs:
 3214 0000 00000000 		.space	4
 3215              		.section	.bss.tcp_tmp_pcb,"aw",%nobits
 3216              		.align	2
 3217              		.set	.LANCHOR3,. + 0
 3218              		.type	tcp_tmp_pcb, %object
 3219              		.size	tcp_tmp_pcb, 4
 3220              	tcp_tmp_pcb:
 3221 0000 00000000 		.space	4
 3222              		.section	.rodata.str1.4,"aMS",%progbits,1
 3223              		.align	2
 3224              	.LC0:
 3225 0000 434C4F53 		.ascii	"CLOSED\000"
 3225      454400
 3226 0007 00       		.space	1
 3227              	.LC1:
 3228 0008 4C495354 		.ascii	"LISTEN\000"
 3228      454E00
 3229 000f 00       		.space	1
 3230              	.LC2:
 3231 0010 53594E5F 		.ascii	"SYN_SENT\000"
 3231      53454E54 
 3231      00
 3232 0019 000000   		.space	3
 3233              	.LC3:
 3234 001c 53594E5F 		.ascii	"SYN_RCVD\000"
 3234      52435644 
 3234      00
 3235 0025 000000   		.space	3
 3236              	.LC4:
 3237 0028 45535441 		.ascii	"ESTABLISHED\000"
 3237      424C4953 
 3237      48454400 
 3238              	.LC5:
 3239 0034 46494E5F 		.ascii	"FIN_WAIT_1\000"
 3239      57414954 
 3239      5F3100
 3240 003f 00       		.space	1
 3241              	.LC6:
 3242 0040 46494E5F 		.ascii	"FIN_WAIT_2\000"
 3242      57414954 
 3242      5F3200
 3243 004b 00       		.space	1
 3244              	.LC7:
 3245 004c 434C4F53 		.ascii	"CLOSE_WAIT\000"
 3245      455F5741 
 3245      495400
 3246 0057 00       		.space	1
 3247              	.LC8:
ARM GAS  /tmp/ccqErZ7k.s 			page 59


 3248 0058 434C4F53 		.ascii	"CLOSING\000"
 3248      494E4700 
 3249              	.LC9:
 3250 0060 4C415354 		.ascii	"LAST_ACK\000"
 3250      5F41434B 
 3250      00
 3251 0069 000000   		.space	3
 3252              	.LC10:
 3253 006c 54494D45 		.ascii	"TIME_WAIT\000"
 3253      5F574149 
 3253      5400
 3254 0076 0000     		.section	.rodata.tcp_persist_backoff,"a",%progbits
 3255              		.align	2
 3256              		.set	.LANCHOR8,. + 0
 3257              		.type	tcp_persist_backoff, %object
 3258              		.size	tcp_persist_backoff, 7
 3259              	tcp_persist_backoff:
 3260 0000 03       		.byte	3
 3261 0001 06       		.byte	6
 3262 0002 0C       		.byte	12
 3263 0003 18       		.byte	24
 3264 0004 30       		.byte	48
 3265 0005 60       		.byte	96
 3266 0006 78       		.byte	120
 3267 0007 00       		.section	.bss.tcp_bound_pcbs,"aw",%nobits
 3268              		.align	2
 3269              		.set	.LANCHOR2,. + 0
 3270              		.type	tcp_bound_pcbs, %object
 3271              		.size	tcp_bound_pcbs, 4
 3272              	tcp_bound_pcbs:
 3273 0000 00000000 		.space	4
 3274              		.text
 3275              	.Letext0:
 3276              		.file 2 "/opt/psas/x-tools/stm32f407/arm-psas-eabi/bin/../lib/gcc/arm-psas-eabi/4.7.2/../../../../
 3277              		.file 3 "../../os/various/lwip_bindings/arch/cc.h"
 3278              		.file 4 "../../ext/lwip/src/include/lwip/mem.h"
 3279              		.file 5 "../../ext/lwip/src/include/lwip/memp.h"
 3280              		.file 6 "../../ext/lwip/src/include/ipv4/lwip/ip_addr.h"
 3281              		.file 7 "../../ext/lwip/src/include/lwip/err.h"
 3282              		.file 8 "../../ext/lwip/src/include/lwip/pbuf.h"
 3283              		.file 9 "../../ext/lwip/src/include/lwip/netif.h"
 3284              		.file 10 "../../ext/lwip/src/include/lwip/tcp.h"
 3285              		.file 11 "../../ext/lwip/src/include/lwip/tcp_impl.h"
 3286              		.file 12 "../../ext/lwip/src/include/lwip/stats.h"
 3287              		.file 13 "../../os/ports/GCC/ARMCMx/chcore_v7m.h"
 3288              		.file 14 "../../ext/lwip/src/include/ipv4/lwip/ip.h"
 3289              		.section	.debug_info,"",%progbits
 3290              	.Ldebug_info0:
 3291 0000 E41F0000 		.4byte	0x1fe4
 3292 0004 0200     		.2byte	0x2
 3293 0006 00000000 		.4byte	.Ldebug_abbrev0
 3294 000a 04       		.byte	0x4
 3295 000b 01       		.uleb128 0x1
 3296 000c 10010000 		.4byte	.LASF251
 3297 0010 01       		.byte	0x1
 3298 0011 40060000 		.4byte	.LASF252
 3299 0015 00000000 		.4byte	.LASF253
ARM GAS  /tmp/ccqErZ7k.s 			page 60


 3300 0019 50010000 		.4byte	.Ldebug_ranges0+0x150
 3301 001d 00000000 		.4byte	0
 3302 0021 00000000 		.4byte	0
 3303 0025 00000000 		.4byte	.Ldebug_line0
 3304 0029 02       		.uleb128 0x2
 3305 002a 04       		.byte	0x4
 3306 002b 05       		.byte	0x5
 3307 002c 696E7400 		.ascii	"int\000"
 3308 0030 03       		.uleb128 0x3
 3309 0031 04       		.byte	0x4
 3310 0032 07       		.byte	0x7
 3311 0033 94050000 		.4byte	.LASF0
 3312 0037 04       		.uleb128 0x4
 3313 0038 4A000000 		.4byte	.LASF2
 3314 003c 02       		.byte	0x2
 3315 003d 29       		.byte	0x29
 3316 003e 42000000 		.4byte	0x42
 3317 0042 03       		.uleb128 0x3
 3318 0043 01       		.byte	0x1
 3319 0044 06       		.byte	0x6
 3320 0045 18020000 		.4byte	.LASF1
 3321 0049 04       		.uleb128 0x4
 3322 004a 24020000 		.4byte	.LASF3
 3323 004e 02       		.byte	0x2
 3324 004f 2A       		.byte	0x2a
 3325 0050 54000000 		.4byte	0x54
 3326 0054 03       		.uleb128 0x3
 3327 0055 01       		.byte	0x1
 3328 0056 08       		.byte	0x8
 3329 0057 4F020000 		.4byte	.LASF4
 3330 005b 04       		.uleb128 0x4
 3331 005c 1E090000 		.4byte	.LASF5
 3332 0060 02       		.byte	0x2
 3333 0061 35       		.byte	0x35
 3334 0062 66000000 		.4byte	0x66
 3335 0066 03       		.uleb128 0x3
 3336 0067 02       		.byte	0x2
 3337 0068 05       		.byte	0x5
 3338 0069 FC080000 		.4byte	.LASF6
 3339 006d 04       		.uleb128 0x4
 3340 006e 3B070000 		.4byte	.LASF7
 3341 0072 02       		.byte	0x2
 3342 0073 36       		.byte	0x36
 3343 0074 78000000 		.4byte	0x78
 3344 0078 03       		.uleb128 0x3
 3345 0079 02       		.byte	0x2
 3346 007a 07       		.byte	0x7
 3347 007b E9090000 		.4byte	.LASF8
 3348 007f 04       		.uleb128 0x4
 3349 0080 A2000000 		.4byte	.LASF9
 3350 0084 02       		.byte	0x2
 3351 0085 4F       		.byte	0x4f
 3352 0086 8A000000 		.4byte	0x8a
 3353 008a 03       		.uleb128 0x3
 3354 008b 04       		.byte	0x4
 3355 008c 05       		.byte	0x5
 3356 008d 8A010000 		.4byte	.LASF10
ARM GAS  /tmp/ccqErZ7k.s 			page 61


 3357 0091 04       		.uleb128 0x4
 3358 0092 A9090000 		.4byte	.LASF11
 3359 0096 02       		.byte	0x2
 3360 0097 50       		.byte	0x50
 3361 0098 9C000000 		.4byte	0x9c
 3362 009c 03       		.uleb128 0x3
 3363 009d 04       		.byte	0x4
 3364 009e 07       		.byte	0x7
 3365 009f 56040000 		.4byte	.LASF12
 3366 00a3 03       		.uleb128 0x3
 3367 00a4 08       		.byte	0x8
 3368 00a5 05       		.byte	0x5
 3369 00a6 1E050000 		.4byte	.LASF13
 3370 00aa 03       		.uleb128 0x3
 3371 00ab 08       		.byte	0x8
 3372 00ac 07       		.byte	0x7
 3373 00ad FE060000 		.4byte	.LASF14
 3374 00b1 05       		.uleb128 0x5
 3375 00b2 04       		.byte	0x4
 3376 00b3 03       		.uleb128 0x3
 3377 00b4 04       		.byte	0x4
 3378 00b5 07       		.byte	0x7
 3379 00b6 59000000 		.4byte	.LASF15
 3380 00ba 06       		.uleb128 0x6
 3381 00bb 04       		.byte	0x4
 3382 00bc C0000000 		.4byte	0xc0
 3383 00c0 07       		.uleb128 0x7
 3384 00c1 C5000000 		.4byte	0xc5
 3385 00c5 03       		.uleb128 0x3
 3386 00c6 01       		.byte	0x1
 3387 00c7 08       		.byte	0x8
 3388 00c8 F4020000 		.4byte	.LASF16
 3389 00cc 04       		.uleb128 0x4
 3390 00cd 0D0A0000 		.4byte	.LASF17
 3391 00d1 03       		.byte	0x3
 3392 00d2 3C       		.byte	0x3c
 3393 00d3 49000000 		.4byte	0x49
 3394 00d7 04       		.uleb128 0x4
 3395 00d8 FC090000 		.4byte	.LASF18
 3396 00dc 03       		.byte	0x3
 3397 00dd 3D       		.byte	0x3d
 3398 00de 37000000 		.4byte	0x37
 3399 00e2 04       		.uleb128 0x4
 3400 00e3 A9050000 		.4byte	.LASF19
 3401 00e7 03       		.byte	0x3
 3402 00e8 3E       		.byte	0x3e
 3403 00e9 6D000000 		.4byte	0x6d
 3404 00ed 04       		.uleb128 0x4
 3405 00ee 8B090000 		.4byte	.LASF20
 3406 00f2 03       		.byte	0x3
 3407 00f3 3F       		.byte	0x3f
 3408 00f4 5B000000 		.4byte	0x5b
 3409 00f8 04       		.uleb128 0x4
 3410 00f9 43080000 		.4byte	.LASF21
 3411 00fd 03       		.byte	0x3
 3412 00fe 40       		.byte	0x40
 3413 00ff 91000000 		.4byte	0x91
ARM GAS  /tmp/ccqErZ7k.s 			page 62


 3414 0103 04       		.uleb128 0x4
 3415 0104 F0000000 		.4byte	.LASF22
 3416 0108 03       		.byte	0x3
 3417 0109 41       		.byte	0x41
 3418 010a 7F000000 		.4byte	0x7f
 3419 010e 04       		.uleb128 0x4
 3420 010f 4A030000 		.4byte	.LASF23
 3421 0113 04       		.byte	0x4
 3422 0114 4B       		.byte	0x4b
 3423 0115 E2000000 		.4byte	0xe2
 3424 0119 08       		.uleb128 0x8
 3425 011a 01       		.byte	0x1
 3426 011b 05       		.byte	0x5
 3427 011c 2B       		.byte	0x2b
 3428 011d 7C010000 		.4byte	0x17c
 3429 0121 09       		.uleb128 0x9
 3430 0122 18030000 		.4byte	.LASF24
 3431 0126 00       		.sleb128 0
 3432 0127 09       		.uleb128 0x9
 3433 0128 15070000 		.4byte	.LASF25
 3434 012c 01       		.sleb128 1
 3435 012d 09       		.uleb128 0x9
 3436 012e 81000000 		.4byte	.LASF26
 3437 0132 02       		.sleb128 2
 3438 0133 09       		.uleb128 0x9
 3439 0134 7E0A0000 		.4byte	.LASF27
 3440 0138 03       		.sleb128 3
 3441 0139 09       		.uleb128 0x9
 3442 013a 2E070000 		.4byte	.LASF28
 3443 013e 04       		.sleb128 4
 3444 013f 09       		.uleb128 0x9
 3445 0140 BE060000 		.4byte	.LASF29
 3446 0144 05       		.sleb128 5
 3447 0145 09       		.uleb128 0x9
 3448 0146 EF060000 		.4byte	.LASF30
 3449 014a 06       		.sleb128 6
 3450 014b 09       		.uleb128 0x9
 3451 014c 8A020000 		.4byte	.LASF31
 3452 0150 07       		.sleb128 7
 3453 0151 09       		.uleb128 0x9
 3454 0152 D0030000 		.4byte	.LASF32
 3455 0156 08       		.sleb128 8
 3456 0157 09       		.uleb128 0x9
 3457 0158 BD030000 		.4byte	.LASF33
 3458 015c 09       		.sleb128 9
 3459 015d 09       		.uleb128 0x9
 3460 015e 54070000 		.4byte	.LASF34
 3461 0162 0A       		.sleb128 10
 3462 0163 09       		.uleb128 0x9
 3463 0164 CD000000 		.4byte	.LASF35
 3464 0168 0B       		.sleb128 11
 3465 0169 09       		.uleb128 0x9
 3466 016a D0080000 		.4byte	.LASF36
 3467 016e 0C       		.sleb128 12
 3468 016f 09       		.uleb128 0x9
 3469 0170 09020000 		.4byte	.LASF37
 3470 0174 0D       		.sleb128 13
ARM GAS  /tmp/ccqErZ7k.s 			page 63


 3471 0175 09       		.uleb128 0x9
 3472 0176 08080000 		.4byte	.LASF38
 3473 017a 0E       		.sleb128 14
 3474 017b 00       		.byte	0
 3475 017c 04       		.uleb128 0x4
 3476 017d 060A0000 		.4byte	.LASF39
 3477 0181 05       		.byte	0x5
 3478 0182 2F       		.byte	0x2f
 3479 0183 19010000 		.4byte	0x119
 3480 0187 0A       		.uleb128 0xa
 3481 0188 65030000 		.4byte	.LASF42
 3482 018c 04       		.byte	0x4
 3483 018d 06       		.byte	0x6
 3484 018e 2C       		.byte	0x2c
 3485 018f A2010000 		.4byte	0x1a2
 3486 0193 0B       		.uleb128 0xb
 3487 0194 86050000 		.4byte	.LASF44
 3488 0198 06       		.byte	0x6
 3489 0199 2D       		.byte	0x2d
 3490 019a F8000000 		.4byte	0xf8
 3491 019e 02       		.byte	0x2
 3492 019f 23       		.byte	0x23
 3493 01a0 00       		.uleb128 0
 3494 01a1 00       		.byte	0
 3495 01a2 04       		.uleb128 0x4
 3496 01a3 7B060000 		.4byte	.LASF40
 3497 01a7 06       		.byte	0x6
 3498 01a8 40       		.byte	0x40
 3499 01a9 87010000 		.4byte	0x187
 3500 01ad 04       		.uleb128 0x4
 3501 01ae 93060000 		.4byte	.LASF41
 3502 01b2 07       		.byte	0x7
 3503 01b3 2F       		.byte	0x2f
 3504 01b4 D7000000 		.4byte	0xd7
 3505 01b8 0A       		.uleb128 0xa
 3506 01b9 07030000 		.4byte	.LASF43
 3507 01bd 10       		.byte	0x10
 3508 01be 08       		.byte	0x8
 3509 01bf 49       		.byte	0x49
 3510 01c0 27020000 		.4byte	0x227
 3511 01c4 0B       		.uleb128 0xb
 3512 01c5 5B0A0000 		.4byte	.LASF45
 3513 01c9 08       		.byte	0x8
 3514 01ca 4B       		.byte	0x4b
 3515 01cb 27020000 		.4byte	0x227
 3516 01cf 02       		.byte	0x2
 3517 01d0 23       		.byte	0x23
 3518 01d1 00       		.uleb128 0
 3519 01d2 0B       		.uleb128 0xb
 3520 01d3 DA040000 		.4byte	.LASF46
 3521 01d7 08       		.byte	0x8
 3522 01d8 4E       		.byte	0x4e
 3523 01d9 B1000000 		.4byte	0xb1
 3524 01dd 02       		.byte	0x2
 3525 01de 23       		.byte	0x23
 3526 01df 04       		.uleb128 0x4
 3527 01e0 0B       		.uleb128 0xb
ARM GAS  /tmp/ccqErZ7k.s 			page 64


 3528 01e1 73060000 		.4byte	.LASF47
 3529 01e5 08       		.byte	0x8
 3530 01e6 57       		.byte	0x57
 3531 01e7 E2000000 		.4byte	0xe2
 3532 01eb 02       		.byte	0x2
 3533 01ec 23       		.byte	0x23
 3534 01ed 08       		.uleb128 0x8
 3535 01ee 0C       		.uleb128 0xc
 3536 01ef 6C656E00 		.ascii	"len\000"
 3537 01f3 08       		.byte	0x8
 3538 01f4 5A       		.byte	0x5a
 3539 01f5 E2000000 		.4byte	0xe2
 3540 01f9 02       		.byte	0x2
 3541 01fa 23       		.byte	0x23
 3542 01fb 0A       		.uleb128 0xa
 3543 01fc 0B       		.uleb128 0xb
 3544 01fd FF000000 		.4byte	.LASF48
 3545 0201 08       		.byte	0x8
 3546 0202 5D       		.byte	0x5d
 3547 0203 CC000000 		.4byte	0xcc
 3548 0207 02       		.byte	0x2
 3549 0208 23       		.byte	0x23
 3550 0209 0C       		.uleb128 0xc
 3551 020a 0B       		.uleb128 0xb
 3552 020b 3C030000 		.4byte	.LASF49
 3553 020f 08       		.byte	0x8
 3554 0210 60       		.byte	0x60
 3555 0211 CC000000 		.4byte	0xcc
 3556 0215 02       		.byte	0x2
 3557 0216 23       		.byte	0x23
 3558 0217 0D       		.uleb128 0xd
 3559 0218 0C       		.uleb128 0xc
 3560 0219 72656600 		.ascii	"ref\000"
 3561 021d 08       		.byte	0x8
 3562 021e 67       		.byte	0x67
 3563 021f E2000000 		.4byte	0xe2
 3564 0223 02       		.byte	0x2
 3565 0224 23       		.byte	0x23
 3566 0225 0E       		.uleb128 0xe
 3567 0226 00       		.byte	0
 3568 0227 06       		.uleb128 0x6
 3569 0228 04       		.byte	0x4
 3570 0229 B8010000 		.4byte	0x1b8
 3571 022d 06       		.uleb128 0x6
 3572 022e 04       		.byte	0x4
 3573 022f 33020000 		.4byte	0x233
 3574 0233 0A       		.uleb128 0xa
 3575 0234 68040000 		.4byte	.LASF50
 3576 0238 30       		.byte	0x30
 3577 0239 09       		.byte	0x9
 3578 023a 88       		.byte	0x88
 3579 023b 03030000 		.4byte	0x303
 3580 023f 0B       		.uleb128 0xb
 3581 0240 5B0A0000 		.4byte	.LASF45
 3582 0244 09       		.byte	0x9
 3583 0245 8A       		.byte	0x8a
 3584 0246 2D020000 		.4byte	0x22d
ARM GAS  /tmp/ccqErZ7k.s 			page 65


 3585 024a 02       		.byte	0x2
 3586 024b 23       		.byte	0x23
 3587 024c 00       		.uleb128 0
 3588 024d 0B       		.uleb128 0xb
 3589 024e 65030000 		.4byte	.LASF42
 3590 0252 09       		.byte	0x9
 3591 0253 8D       		.byte	0x8d
 3592 0254 A2010000 		.4byte	0x1a2
 3593 0258 02       		.byte	0x2
 3594 0259 23       		.byte	0x23
 3595 025a 04       		.uleb128 0x4
 3596 025b 0B       		.uleb128 0xb
 3597 025c 46050000 		.4byte	.LASF51
 3598 0260 09       		.byte	0x9
 3599 0261 8E       		.byte	0x8e
 3600 0262 A2010000 		.4byte	0x1a2
 3601 0266 02       		.byte	0x2
 3602 0267 23       		.byte	0x23
 3603 0268 08       		.uleb128 0x8
 3604 0269 0C       		.uleb128 0xc
 3605 026a 677700   		.ascii	"gw\000"
 3606 026d 09       		.byte	0x9
 3607 026e 8F       		.byte	0x8f
 3608 026f A2010000 		.4byte	0x1a2
 3609 0273 02       		.byte	0x2
 3610 0274 23       		.byte	0x23
 3611 0275 0C       		.uleb128 0xc
 3612 0276 0B       		.uleb128 0xb
 3613 0277 77030000 		.4byte	.LASF52
 3614 027b 09       		.byte	0x9
 3615 027c 93       		.byte	0x93
 3616 027d 03030000 		.4byte	0x303
 3617 0281 02       		.byte	0x2
 3618 0282 23       		.byte	0x23
 3619 0283 10       		.uleb128 0x10
 3620 0284 0B       		.uleb128 0xb
 3621 0285 F9020000 		.4byte	.LASF53
 3622 0289 09       		.byte	0x9
 3623 028a 97       		.byte	0x97
 3624 028b 29030000 		.4byte	0x329
 3625 028f 02       		.byte	0x2
 3626 0290 23       		.byte	0x23
 3627 0291 14       		.uleb128 0x14
 3628 0292 0B       		.uleb128 0xb
 3629 0293 EB010000 		.4byte	.LASF54
 3630 0297 09       		.byte	0x9
 3631 0298 9B       		.byte	0x9b
 3632 0299 5A030000 		.4byte	0x35a
 3633 029d 02       		.byte	0x2
 3634 029e 23       		.byte	0x23
 3635 029f 18       		.uleb128 0x18
 3636 02a0 0B       		.uleb128 0xb
 3637 02a1 E5000000 		.4byte	.LASF55
 3638 02a5 09       		.byte	0x9
 3639 02a6 A8       		.byte	0xa8
 3640 02a7 B1000000 		.4byte	0xb1
 3641 02ab 02       		.byte	0x2
ARM GAS  /tmp/ccqErZ7k.s 			page 66


 3642 02ac 23       		.byte	0x23
 3643 02ad 1C       		.uleb128 0x1c
 3644 02ae 0C       		.uleb128 0xc
 3645 02af 6D747500 		.ascii	"mtu\000"
 3646 02b3 09       		.byte	0x9
 3647 02b4 B6       		.byte	0xb6
 3648 02b5 E2000000 		.4byte	0xe2
 3649 02b9 02       		.byte	0x2
 3650 02ba 23       		.byte	0x23
 3651 02bb 20       		.uleb128 0x20
 3652 02bc 0B       		.uleb128 0xb
 3653 02bd FE010000 		.4byte	.LASF56
 3654 02c1 09       		.byte	0x9
 3655 02c2 B8       		.byte	0xb8
 3656 02c3 CC000000 		.4byte	0xcc
 3657 02c7 02       		.byte	0x2
 3658 02c8 23       		.byte	0x23
 3659 02c9 22       		.uleb128 0x22
 3660 02ca 0B       		.uleb128 0xb
 3661 02cb 8A040000 		.4byte	.LASF57
 3662 02cf 09       		.byte	0x9
 3663 02d0 BA       		.byte	0xba
 3664 02d1 80030000 		.4byte	0x380
 3665 02d5 02       		.byte	0x2
 3666 02d6 23       		.byte	0x23
 3667 02d7 23       		.uleb128 0x23
 3668 02d8 0B       		.uleb128 0xb
 3669 02d9 3C030000 		.4byte	.LASF49
 3670 02dd 09       		.byte	0x9
 3671 02de BC       		.byte	0xbc
 3672 02df CC000000 		.4byte	0xcc
 3673 02e3 02       		.byte	0x2
 3674 02e4 23       		.byte	0x23
 3675 02e5 29       		.uleb128 0x29
 3676 02e6 0B       		.uleb128 0xb
 3677 02e7 C6080000 		.4byte	.LASF58
 3678 02eb 09       		.byte	0x9
 3679 02ec BE       		.byte	0xbe
 3680 02ed 90030000 		.4byte	0x390
 3681 02f1 02       		.byte	0x2
 3682 02f2 23       		.byte	0x23
 3683 02f3 2A       		.uleb128 0x2a
 3684 02f4 0C       		.uleb128 0xc
 3685 02f5 6E756D00 		.ascii	"num\000"
 3686 02f9 09       		.byte	0x9
 3687 02fa C0       		.byte	0xc0
 3688 02fb CC000000 		.4byte	0xcc
 3689 02ff 02       		.byte	0x2
 3690 0300 23       		.byte	0x23
 3691 0301 2C       		.uleb128 0x2c
 3692 0302 00       		.byte	0
 3693 0303 04       		.uleb128 0x4
 3694 0304 D1050000 		.4byte	.LASF59
 3695 0308 09       		.byte	0x9
 3696 0309 6D       		.byte	0x6d
 3697 030a 0E030000 		.4byte	0x30e
 3698 030e 06       		.uleb128 0x6
ARM GAS  /tmp/ccqErZ7k.s 			page 67


 3699 030f 04       		.byte	0x4
 3700 0310 14030000 		.4byte	0x314
 3701 0314 0D       		.uleb128 0xd
 3702 0315 01       		.byte	0x1
 3703 0316 AD010000 		.4byte	0x1ad
 3704 031a 29030000 		.4byte	0x329
 3705 031e 0E       		.uleb128 0xe
 3706 031f 27020000 		.4byte	0x227
 3707 0323 0E       		.uleb128 0xe
 3708 0324 2D020000 		.4byte	0x22d
 3709 0328 00       		.byte	0
 3710 0329 04       		.uleb128 0x4
 3711 032a 5E060000 		.4byte	.LASF60
 3712 032e 09       		.byte	0x9
 3713 032f 76       		.byte	0x76
 3714 0330 34030000 		.4byte	0x334
 3715 0334 06       		.uleb128 0x6
 3716 0335 04       		.byte	0x4
 3717 0336 3A030000 		.4byte	0x33a
 3718 033a 0D       		.uleb128 0xd
 3719 033b 01       		.byte	0x1
 3720 033c AD010000 		.4byte	0x1ad
 3721 0340 54030000 		.4byte	0x354
 3722 0344 0E       		.uleb128 0xe
 3723 0345 2D020000 		.4byte	0x22d
 3724 0349 0E       		.uleb128 0xe
 3725 034a 27020000 		.4byte	0x227
 3726 034e 0E       		.uleb128 0xe
 3727 034f 54030000 		.4byte	0x354
 3728 0353 00       		.byte	0
 3729 0354 06       		.uleb128 0x6
 3730 0355 04       		.byte	0x4
 3731 0356 A2010000 		.4byte	0x1a2
 3732 035a 04       		.uleb128 0x4
 3733 035b 17060000 		.4byte	.LASF61
 3734 035f 09       		.byte	0x9
 3735 0360 7E       		.byte	0x7e
 3736 0361 65030000 		.4byte	0x365
 3737 0365 06       		.uleb128 0x6
 3738 0366 04       		.byte	0x4
 3739 0367 6B030000 		.4byte	0x36b
 3740 036b 0D       		.uleb128 0xd
 3741 036c 01       		.byte	0x1
 3742 036d AD010000 		.4byte	0x1ad
 3743 0371 80030000 		.4byte	0x380
 3744 0375 0E       		.uleb128 0xe
 3745 0376 2D020000 		.4byte	0x22d
 3746 037a 0E       		.uleb128 0xe
 3747 037b 27020000 		.4byte	0x227
 3748 037f 00       		.byte	0
 3749 0380 0F       		.uleb128 0xf
 3750 0381 CC000000 		.4byte	0xcc
 3751 0385 90030000 		.4byte	0x390
 3752 0389 10       		.uleb128 0x10
 3753 038a B3000000 		.4byte	0xb3
 3754 038e 05       		.byte	0x5
 3755 038f 00       		.byte	0
ARM GAS  /tmp/ccqErZ7k.s 			page 68


 3756 0390 0F       		.uleb128 0xf
 3757 0391 C5000000 		.4byte	0xc5
 3758 0395 A0030000 		.4byte	0x3a0
 3759 0399 10       		.uleb128 0x10
 3760 039a B3000000 		.4byte	0xb3
 3761 039e 01       		.byte	0x1
 3762 039f 00       		.byte	0
 3763 03a0 04       		.uleb128 0x4
 3764 03a1 470A0000 		.4byte	.LASF62
 3765 03a5 0A       		.byte	0xa
 3766 03a6 3D       		.byte	0x3d
 3767 03a7 AB030000 		.4byte	0x3ab
 3768 03ab 06       		.uleb128 0x6
 3769 03ac 04       		.byte	0x4
 3770 03ad B1030000 		.4byte	0x3b1
 3771 03b1 0D       		.uleb128 0xd
 3772 03b2 01       		.byte	0x1
 3773 03b3 AD010000 		.4byte	0x1ad
 3774 03b7 CB030000 		.4byte	0x3cb
 3775 03bb 0E       		.uleb128 0xe
 3776 03bc B1000000 		.4byte	0xb1
 3777 03c0 0E       		.uleb128 0xe
 3778 03c1 CB030000 		.4byte	0x3cb
 3779 03c5 0E       		.uleb128 0xe
 3780 03c6 AD010000 		.4byte	0x1ad
 3781 03ca 00       		.byte	0
 3782 03cb 06       		.uleb128 0x6
 3783 03cc 04       		.byte	0x4
 3784 03cd D1030000 		.4byte	0x3d1
 3785 03d1 0A       		.uleb128 0xa
 3786 03d2 42030000 		.4byte	.LASF63
 3787 03d6 A4       		.byte	0xa4
 3788 03d7 0A       		.byte	0xa
 3789 03d8 A9       		.byte	0xa9
 3790 03d9 E0060000 		.4byte	0x6e0
 3791 03dd 0B       		.uleb128 0xb
 3792 03de 3A020000 		.4byte	.LASF64
 3793 03e2 0A       		.byte	0xa
 3794 03e3 AB       		.byte	0xab
 3795 03e4 A2010000 		.4byte	0x1a2
 3796 03e8 02       		.byte	0x2
 3797 03e9 23       		.byte	0x23
 3798 03ea 00       		.uleb128 0
 3799 03eb 0B       		.uleb128 0xb
 3800 03ec 28080000 		.4byte	.LASF65
 3801 03f0 0A       		.byte	0xa
 3802 03f1 AB       		.byte	0xab
 3803 03f2 A2010000 		.4byte	0x1a2
 3804 03f6 02       		.byte	0x2
 3805 03f7 23       		.byte	0x23
 3806 03f8 04       		.uleb128 0x4
 3807 03f9 0B       		.uleb128 0xb
 3808 03fa C2000000 		.4byte	.LASF66
 3809 03fe 0A       		.byte	0xa
 3810 03ff AB       		.byte	0xab
 3811 0400 CC000000 		.4byte	0xcc
 3812 0404 02       		.byte	0x2
ARM GAS  /tmp/ccqErZ7k.s 			page 69


 3813 0405 23       		.byte	0x23
 3814 0406 08       		.uleb128 0x8
 3815 0407 0C       		.uleb128 0xc
 3816 0408 746F7300 		.ascii	"tos\000"
 3817 040c 0A       		.byte	0xa
 3818 040d AB       		.byte	0xab
 3819 040e CC000000 		.4byte	0xcc
 3820 0412 02       		.byte	0x2
 3821 0413 23       		.byte	0x23
 3822 0414 09       		.uleb128 0x9
 3823 0415 0C       		.uleb128 0xc
 3824 0416 74746C00 		.ascii	"ttl\000"
 3825 041a 0A       		.byte	0xa
 3826 041b AB       		.byte	0xab
 3827 041c CC000000 		.4byte	0xcc
 3828 0420 02       		.byte	0x2
 3829 0421 23       		.byte	0x23
 3830 0422 0A       		.uleb128 0xa
 3831 0423 0B       		.uleb128 0xb
 3832 0424 5B0A0000 		.4byte	.LASF45
 3833 0428 0A       		.byte	0xa
 3834 0429 AD       		.byte	0xad
 3835 042a CB030000 		.4byte	0x3cb
 3836 042e 02       		.byte	0x2
 3837 042f 23       		.byte	0x23
 3838 0430 0C       		.uleb128 0xc
 3839 0431 0B       		.uleb128 0xb
 3840 0432 E5000000 		.4byte	.LASF55
 3841 0436 0A       		.byte	0xa
 3842 0437 AD       		.byte	0xad
 3843 0438 8E070000 		.4byte	0x78e
 3844 043c 02       		.byte	0x2
 3845 043d 23       		.byte	0x23
 3846 043e 10       		.uleb128 0x10
 3847 043f 0B       		.uleb128 0xb
 3848 0440 35010000 		.4byte	.LASF67
 3849 0444 0A       		.byte	0xa
 3850 0445 AD       		.byte	0xad
 3851 0446 CC000000 		.4byte	0xcc
 3852 044a 02       		.byte	0x2
 3853 044b 23       		.byte	0x23
 3854 044c 11       		.uleb128 0x11
 3855 044d 0B       		.uleb128 0xb
 3856 044e 26090000 		.4byte	.LASF68
 3857 0452 0A       		.byte	0xa
 3858 0453 AD       		.byte	0xad
 3859 0454 B1000000 		.4byte	0xb1
 3860 0458 02       		.byte	0x2
 3861 0459 23       		.byte	0x23
 3862 045a 14       		.uleb128 0x14
 3863 045b 0B       		.uleb128 0xb
 3864 045c 38090000 		.4byte	.LASF69
 3865 0460 0A       		.byte	0xa
 3866 0461 AD       		.byte	0xad
 3867 0462 A0030000 		.4byte	0x3a0
 3868 0466 02       		.byte	0x2
 3869 0467 23       		.byte	0x23
ARM GAS  /tmp/ccqErZ7k.s 			page 70


 3870 0468 18       		.uleb128 0x18
 3871 0469 0B       		.uleb128 0xb
 3872 046a 31030000 		.4byte	.LASF70
 3873 046e 0A       		.byte	0xa
 3874 046f AD       		.byte	0xad
 3875 0470 E2000000 		.4byte	0xe2
 3876 0474 02       		.byte	0x2
 3877 0475 23       		.byte	0x23
 3878 0476 1C       		.uleb128 0x1c
 3879 0477 0B       		.uleb128 0xb
 3880 0478 22070000 		.4byte	.LASF71
 3881 047c 0A       		.byte	0xa
 3882 047d B0       		.byte	0xb0
 3883 047e E2000000 		.4byte	0xe2
 3884 0482 02       		.byte	0x2
 3885 0483 23       		.byte	0x23
 3886 0484 1E       		.uleb128 0x1e
 3887 0485 0B       		.uleb128 0xb
 3888 0486 3C030000 		.4byte	.LASF49
 3889 048a 0A       		.byte	0xa
 3890 048b B2       		.byte	0xb2
 3891 048c CC000000 		.4byte	0xcc
 3892 0490 02       		.byte	0x2
 3893 0491 23       		.byte	0x23
 3894 0492 20       		.uleb128 0x20
 3895 0493 0B       		.uleb128 0xb
 3896 0494 B9050000 		.4byte	.LASF72
 3897 0498 0A       		.byte	0xa
 3898 0499 BF       		.byte	0xbf
 3899 049a F8000000 		.4byte	0xf8
 3900 049e 02       		.byte	0x2
 3901 049f 23       		.byte	0x23
 3902 04a0 24       		.uleb128 0x24
 3903 04a1 0B       		.uleb128 0xb
 3904 04a2 BA000000 		.4byte	.LASF73
 3905 04a6 0A       		.byte	0xa
 3906 04a7 C0       		.byte	0xc0
 3907 04a8 E2000000 		.4byte	0xe2
 3908 04ac 02       		.byte	0x2
 3909 04ad 23       		.byte	0x23
 3910 04ae 28       		.uleb128 0x28
 3911 04af 0B       		.uleb128 0xb
 3912 04b0 70000000 		.4byte	.LASF74
 3913 04b4 0A       		.byte	0xa
 3914 04b5 C1       		.byte	0xc1
 3915 04b6 E2000000 		.4byte	0xe2
 3916 04ba 02       		.byte	0x2
 3917 04bb 23       		.byte	0x23
 3918 04bc 2A       		.uleb128 0x2a
 3919 04bd 0B       		.uleb128 0xb
 3920 04be F3030000 		.4byte	.LASF75
 3921 04c2 0A       		.byte	0xa
 3922 04c3 C2       		.byte	0xc2
 3923 04c4 F8000000 		.4byte	0xf8
 3924 04c8 02       		.byte	0x2
 3925 04c9 23       		.byte	0x23
 3926 04ca 2C       		.uleb128 0x2c
ARM GAS  /tmp/ccqErZ7k.s 			page 71


 3927 04cb 0C       		.uleb128 0xc
 3928 04cc 746D7200 		.ascii	"tmr\000"
 3929 04d0 0A       		.byte	0xa
 3930 04d1 C5       		.byte	0xc5
 3931 04d2 F8000000 		.4byte	0xf8
 3932 04d6 02       		.byte	0x2
 3933 04d7 23       		.byte	0x23
 3934 04d8 30       		.uleb128 0x30
 3935 04d9 0B       		.uleb128 0xb
 3936 04da 4F010000 		.4byte	.LASF76
 3937 04de 0A       		.byte	0xa
 3938 04df C6       		.byte	0xc6
 3939 04e0 CC000000 		.4byte	0xcc
 3940 04e4 02       		.byte	0x2
 3941 04e5 23       		.byte	0x23
 3942 04e6 34       		.uleb128 0x34
 3943 04e7 0B       		.uleb128 0xb
 3944 04e8 5F050000 		.4byte	.LASF77
 3945 04ec 0A       		.byte	0xa
 3946 04ed C6       		.byte	0xc6
 3947 04ee CC000000 		.4byte	0xcc
 3948 04f2 02       		.byte	0x2
 3949 04f3 23       		.byte	0x23
 3950 04f4 35       		.uleb128 0x35
 3951 04f5 0B       		.uleb128 0xb
 3952 04f6 2B060000 		.4byte	.LASF78
 3953 04fa 0A       		.byte	0xa
 3954 04fb C9       		.byte	0xc9
 3955 04fc ED000000 		.4byte	0xed
 3956 0500 02       		.byte	0x2
 3957 0501 23       		.byte	0x23
 3958 0502 36       		.uleb128 0x36
 3959 0503 0C       		.uleb128 0xc
 3960 0504 6D737300 		.ascii	"mss\000"
 3961 0508 0A       		.byte	0xa
 3962 0509 CB       		.byte	0xcb
 3963 050a E2000000 		.4byte	0xe2
 3964 050e 02       		.byte	0x2
 3965 050f 23       		.byte	0x23
 3966 0510 38       		.uleb128 0x38
 3967 0511 0B       		.uleb128 0xb
 3968 0512 5E030000 		.4byte	.LASF79
 3969 0516 0A       		.byte	0xa
 3970 0517 CE       		.byte	0xce
 3971 0518 F8000000 		.4byte	0xf8
 3972 051c 02       		.byte	0x2
 3973 051d 23       		.byte	0x23
 3974 051e 3C       		.uleb128 0x3c
 3975 051f 0B       		.uleb128 0xb
 3976 0520 06040000 		.4byte	.LASF80
 3977 0524 0A       		.byte	0xa
 3978 0525 CF       		.byte	0xcf
 3979 0526 F8000000 		.4byte	0xf8
 3980 052a 02       		.byte	0x2
 3981 052b 23       		.byte	0x23
 3982 052c 40       		.uleb128 0x40
 3983 052d 0C       		.uleb128 0xc
ARM GAS  /tmp/ccqErZ7k.s 			page 72


 3984 052e 736100   		.ascii	"sa\000"
 3985 0531 0A       		.byte	0xa
 3986 0532 D0       		.byte	0xd0
 3987 0533 ED000000 		.4byte	0xed
 3988 0537 02       		.byte	0x2
 3989 0538 23       		.byte	0x23
 3990 0539 44       		.uleb128 0x44
 3991 053a 0C       		.uleb128 0xc
 3992 053b 737600   		.ascii	"sv\000"
 3993 053e 0A       		.byte	0xa
 3994 053f D0       		.byte	0xd0
 3995 0540 ED000000 		.4byte	0xed
 3996 0544 02       		.byte	0x2
 3997 0545 23       		.byte	0x23
 3998 0546 46       		.uleb128 0x46
 3999 0547 0C       		.uleb128 0xc
 4000 0548 72746F00 		.ascii	"rto\000"
 4001 054c 0A       		.byte	0xa
 4002 054d D2       		.byte	0xd2
 4003 054e ED000000 		.4byte	0xed
 4004 0552 02       		.byte	0x2
 4005 0553 23       		.byte	0x23
 4006 0554 48       		.uleb128 0x48
 4007 0555 0B       		.uleb128 0xb
 4008 0556 E2040000 		.4byte	.LASF81
 4009 055a 0A       		.byte	0xa
 4010 055b D3       		.byte	0xd3
 4011 055c CC000000 		.4byte	0xcc
 4012 0560 02       		.byte	0x2
 4013 0561 23       		.byte	0x23
 4014 0562 4A       		.uleb128 0x4a
 4015 0563 0B       		.uleb128 0xb
 4016 0564 EC040000 		.4byte	.LASF82
 4017 0568 0A       		.byte	0xa
 4018 0569 D6       		.byte	0xd6
 4019 056a F8000000 		.4byte	0xf8
 4020 056e 02       		.byte	0x2
 4021 056f 23       		.byte	0x23
 4022 0570 4C       		.uleb128 0x4c
 4023 0571 0B       		.uleb128 0xb
 4024 0572 6D090000 		.4byte	.LASF83
 4025 0576 0A       		.byte	0xa
 4026 0577 D7       		.byte	0xd7
 4027 0578 CC000000 		.4byte	0xcc
 4028 057c 02       		.byte	0x2
 4029 057d 23       		.byte	0x23
 4030 057e 50       		.uleb128 0x50
 4031 057f 0B       		.uleb128 0xb
 4032 0580 69070000 		.4byte	.LASF84
 4033 0584 0A       		.byte	0xa
 4034 0585 DA       		.byte	0xda
 4035 0586 E2000000 		.4byte	0xe2
 4036 058a 02       		.byte	0x2
 4037 058b 23       		.byte	0x23
 4038 058c 52       		.uleb128 0x52
 4039 058d 0B       		.uleb128 0xb
 4040 058e F6000000 		.4byte	.LASF85
ARM GAS  /tmp/ccqErZ7k.s 			page 73


 4041 0592 0A       		.byte	0xa
 4042 0593 DB       		.byte	0xdb
 4043 0594 E2000000 		.4byte	0xe2
 4044 0598 02       		.byte	0x2
 4045 0599 23       		.byte	0x23
 4046 059a 54       		.uleb128 0x54
 4047 059b 0B       		.uleb128 0xb
 4048 059c F4040000 		.4byte	.LASF86
 4049 05a0 0A       		.byte	0xa
 4050 05a1 DE       		.byte	0xde
 4051 05a2 F8000000 		.4byte	0xf8
 4052 05a6 02       		.byte	0x2
 4053 05a7 23       		.byte	0x23
 4054 05a8 58       		.uleb128 0x58
 4055 05a9 0B       		.uleb128 0xb
 4056 05aa 2F0A0000 		.4byte	.LASF87
 4057 05ae 0A       		.byte	0xa
 4058 05af DF       		.byte	0xdf
 4059 05b0 E2000000 		.4byte	0xe2
 4060 05b4 02       		.byte	0x2
 4061 05b5 23       		.byte	0x23
 4062 05b6 5C       		.uleb128 0x5c
 4063 05b7 0B       		.uleb128 0xb
 4064 05b8 56090000 		.4byte	.LASF88
 4065 05bc 0A       		.byte	0xa
 4066 05bd E0       		.byte	0xe0
 4067 05be F8000000 		.4byte	0xf8
 4068 05c2 02       		.byte	0x2
 4069 05c3 23       		.byte	0x23
 4070 05c4 60       		.uleb128 0x60
 4071 05c5 0B       		.uleb128 0xb
 4072 05c6 5E090000 		.4byte	.LASF89
 4073 05ca 0A       		.byte	0xa
 4074 05cb E0       		.byte	0xe0
 4075 05cc F8000000 		.4byte	0xf8
 4076 05d0 02       		.byte	0x2
 4077 05d1 23       		.byte	0x23
 4078 05d2 64       		.uleb128 0x64
 4079 05d3 0B       		.uleb128 0xb
 4080 05d4 98030000 		.4byte	.LASF90
 4081 05d8 0A       		.byte	0xa
 4082 05d9 E2       		.byte	0xe2
 4083 05da F8000000 		.4byte	0xf8
 4084 05de 02       		.byte	0x2
 4085 05df 23       		.byte	0x23
 4086 05e0 68       		.uleb128 0x68
 4087 05e1 0B       		.uleb128 0xb
 4088 05e2 DA080000 		.4byte	.LASF91
 4089 05e6 0A       		.byte	0xa
 4090 05e7 E4       		.byte	0xe4
 4091 05e8 E2000000 		.4byte	0xe2
 4092 05ec 02       		.byte	0x2
 4093 05ed 23       		.byte	0x23
 4094 05ee 6C       		.uleb128 0x6c
 4095 05ef 0B       		.uleb128 0xb
 4096 05f0 270A0000 		.4byte	.LASF92
 4097 05f4 0A       		.byte	0xa
ARM GAS  /tmp/ccqErZ7k.s 			page 74


 4098 05f5 E6       		.byte	0xe6
 4099 05f6 E2000000 		.4byte	0xe2
 4100 05fa 02       		.byte	0x2
 4101 05fb 23       		.byte	0x23
 4102 05fc 6E       		.uleb128 0x6e
 4103 05fd 0B       		.uleb128 0xb
 4104 05fe 7B070000 		.4byte	.LASF93
 4105 0602 0A       		.byte	0xa
 4106 0603 E8       		.byte	0xe8
 4107 0604 E2000000 		.4byte	0xe2
 4108 0608 02       		.byte	0x2
 4109 0609 23       		.byte	0x23
 4110 060a 70       		.uleb128 0x70
 4111 060b 0B       		.uleb128 0xb
 4112 060c DB070000 		.4byte	.LASF94
 4113 0610 0A       		.byte	0xa
 4114 0611 EC       		.byte	0xec
 4115 0612 E2000000 		.4byte	0xe2
 4116 0616 02       		.byte	0x2
 4117 0617 23       		.byte	0x23
 4118 0618 72       		.uleb128 0x72
 4119 0619 0B       		.uleb128 0xb
 4120 061a D4070000 		.4byte	.LASF95
 4121 061e 0A       		.byte	0xa
 4122 061f F0       		.byte	0xf0
 4123 0620 34080000 		.4byte	0x834
 4124 0624 02       		.byte	0x2
 4125 0625 23       		.byte	0x23
 4126 0626 74       		.uleb128 0x74
 4127 0627 0B       		.uleb128 0xb
 4128 0628 11090000 		.4byte	.LASF96
 4129 062c 0A       		.byte	0xa
 4130 062d F1       		.byte	0xf1
 4131 062e 34080000 		.4byte	0x834
 4132 0632 02       		.byte	0x2
 4133 0633 23       		.byte	0x23
 4134 0634 78       		.uleb128 0x78
 4135 0635 0B       		.uleb128 0xb
 4136 0636 A00A0000 		.4byte	.LASF97
 4137 063a 0A       		.byte	0xa
 4138 063b F3       		.byte	0xf3
 4139 063c 34080000 		.4byte	0x834
 4140 0640 02       		.byte	0x2
 4141 0641 23       		.byte	0x23
 4142 0642 7C       		.uleb128 0x7c
 4143 0643 0B       		.uleb128 0xb
 4144 0644 6E070000 		.4byte	.LASF98
 4145 0648 0A       		.byte	0xa
 4146 0649 F6       		.byte	0xf6
 4147 064a 27020000 		.4byte	0x227
 4148 064e 03       		.byte	0x3
 4149 064f 23       		.byte	0x23
 4150 0650 8001     		.uleb128 0x80
 4151 0652 0B       		.uleb128 0xb
 4152 0653 19050000 		.4byte	.LASF99
 4153 0657 0A       		.byte	0xa
 4154 0658 FA       		.byte	0xfa
ARM GAS  /tmp/ccqErZ7k.s 			page 75


 4155 0659 10070000 		.4byte	0x710
 4156 065d 03       		.byte	0x3
 4157 065e 23       		.byte	0x23
 4158 065f 8401     		.uleb128 0x84
 4159 0661 0B       		.uleb128 0xb
 4160 0662 6E060000 		.4byte	.LASF100
 4161 0666 0A       		.byte	0xa
 4162 0667 FC       		.byte	0xfc
 4163 0668 E0060000 		.4byte	0x6e0
 4164 066c 03       		.byte	0x3
 4165 066d 23       		.byte	0x23
 4166 066e 8801     		.uleb128 0x88
 4167 0670 0B       		.uleb128 0xb
 4168 0671 740A0000 		.4byte	.LASF101
 4169 0675 0A       		.byte	0xa
 4170 0676 FE       		.byte	0xfe
 4171 0677 83070000 		.4byte	0x783
 4172 067b 03       		.byte	0x3
 4173 067c 23       		.byte	0x23
 4174 067d 8C01     		.uleb128 0x8c
 4175 067f 11       		.uleb128 0x11
 4176 0680 02060000 		.4byte	.LASF102
 4177 0684 0A       		.byte	0xa
 4178 0685 0001     		.2byte	0x100
 4179 0687 3B070000 		.4byte	0x73b
 4180 068b 03       		.byte	0x3
 4181 068c 23       		.byte	0x23
 4182 068d 9001     		.uleb128 0x90
 4183 068f 11       		.uleb128 0x11
 4184 0690 33090000 		.4byte	.LASF103
 4185 0694 0A       		.byte	0xa
 4186 0695 0201     		.2byte	0x102
 4187 0697 61070000 		.4byte	0x761
 4188 069b 03       		.byte	0x3
 4189 069c 23       		.byte	0x23
 4190 069d 9401     		.uleb128 0x94
 4191 069f 11       		.uleb128 0x11
 4192 06a0 E0080000 		.4byte	.LASF104
 4193 06a4 0A       		.byte	0xa
 4194 06a5 0B01     		.2byte	0x10b
 4195 06a7 F8000000 		.4byte	0xf8
 4196 06ab 03       		.byte	0x3
 4197 06ac 23       		.byte	0x23
 4198 06ad 9801     		.uleb128 0x98
 4199 06af 11       		.uleb128 0x11
 4200 06b0 7F080000 		.4byte	.LASF105
 4201 06b4 0A       		.byte	0xa
 4202 06b5 1201     		.2byte	0x112
 4203 06b7 F8000000 		.4byte	0xf8
 4204 06bb 03       		.byte	0x3
 4205 06bc 23       		.byte	0x23
 4206 06bd 9C01     		.uleb128 0x9c
 4207 06bf 11       		.uleb128 0x11
 4208 06c0 44070000 		.4byte	.LASF106
 4209 06c4 0A       		.byte	0xa
 4210 06c5 1401     		.2byte	0x114
 4211 06c7 CC000000 		.4byte	0xcc
ARM GAS  /tmp/ccqErZ7k.s 			page 76


 4212 06cb 03       		.byte	0x3
 4213 06cc 23       		.byte	0x23
 4214 06cd A001     		.uleb128 0xa0
 4215 06cf 11       		.uleb128 0x11
 4216 06d0 2C020000 		.4byte	.LASF107
 4217 06d4 0A       		.byte	0xa
 4218 06d5 1701     		.2byte	0x117
 4219 06d7 CC000000 		.4byte	0xcc
 4220 06db 03       		.byte	0x3
 4221 06dc 23       		.byte	0x23
 4222 06dd A101     		.uleb128 0xa1
 4223 06df 00       		.byte	0
 4224 06e0 04       		.uleb128 0x4
 4225 06e1 4A090000 		.4byte	.LASF108
 4226 06e5 0A       		.byte	0xa
 4227 06e6 49       		.byte	0x49
 4228 06e7 EB060000 		.4byte	0x6eb
 4229 06eb 06       		.uleb128 0x6
 4230 06ec 04       		.byte	0x4
 4231 06ed F1060000 		.4byte	0x6f1
 4232 06f1 0D       		.uleb128 0xd
 4233 06f2 01       		.byte	0x1
 4234 06f3 AD010000 		.4byte	0x1ad
 4235 06f7 10070000 		.4byte	0x710
 4236 06fb 0E       		.uleb128 0xe
 4237 06fc B1000000 		.4byte	0xb1
 4238 0700 0E       		.uleb128 0xe
 4239 0701 CB030000 		.4byte	0x3cb
 4240 0705 0E       		.uleb128 0xe
 4241 0706 27020000 		.4byte	0x227
 4242 070a 0E       		.uleb128 0xe
 4243 070b AD010000 		.4byte	0x1ad
 4244 070f 00       		.byte	0
 4245 0710 04       		.uleb128 0x4
 4246 0711 DF010000 		.4byte	.LASF109
 4247 0715 0A       		.byte	0xa
 4248 0716 57       		.byte	0x57
 4249 0717 1B070000 		.4byte	0x71b
 4250 071b 06       		.uleb128 0x6
 4251 071c 04       		.byte	0x4
 4252 071d 21070000 		.4byte	0x721
 4253 0721 0D       		.uleb128 0xd
 4254 0722 01       		.byte	0x1
 4255 0723 AD010000 		.4byte	0x1ad
 4256 0727 3B070000 		.4byte	0x73b
 4257 072b 0E       		.uleb128 0xe
 4258 072c B1000000 		.4byte	0xb1
 4259 0730 0E       		.uleb128 0xe
 4260 0731 CB030000 		.4byte	0x3cb
 4261 0735 0E       		.uleb128 0xe
 4262 0736 E2000000 		.4byte	0xe2
 4263 073a 00       		.byte	0
 4264 073b 04       		.uleb128 0x4
 4265 073c 96040000 		.4byte	.LASF110
 4266 0740 0A       		.byte	0xa
 4267 0741 63       		.byte	0x63
 4268 0742 46070000 		.4byte	0x746
ARM GAS  /tmp/ccqErZ7k.s 			page 77


 4269 0746 06       		.uleb128 0x6
 4270 0747 04       		.byte	0x4
 4271 0748 4C070000 		.4byte	0x74c
 4272 074c 0D       		.uleb128 0xd
 4273 074d 01       		.byte	0x1
 4274 074e AD010000 		.4byte	0x1ad
 4275 0752 61070000 		.4byte	0x761
 4276 0756 0E       		.uleb128 0xe
 4277 0757 B1000000 		.4byte	0xb1
 4278 075b 0E       		.uleb128 0xe
 4279 075c CB030000 		.4byte	0x3cb
 4280 0760 00       		.byte	0
 4281 0761 04       		.uleb128 0x4
 4282 0762 3F090000 		.4byte	.LASF111
 4283 0766 0A       		.byte	0xa
 4284 0767 6F       		.byte	0x6f
 4285 0768 6C070000 		.4byte	0x76c
 4286 076c 06       		.uleb128 0x6
 4287 076d 04       		.byte	0x4
 4288 076e 72070000 		.4byte	0x772
 4289 0772 12       		.uleb128 0x12
 4290 0773 01       		.byte	0x1
 4291 0774 83070000 		.4byte	0x783
 4292 0778 0E       		.uleb128 0xe
 4293 0779 B1000000 		.4byte	0xb1
 4294 077d 0E       		.uleb128 0xe
 4295 077e AD010000 		.4byte	0x1ad
 4296 0782 00       		.byte	0
 4297 0783 04       		.uleb128 0x4
 4298 0784 32080000 		.4byte	.LASF112
 4299 0788 0A       		.byte	0xa
 4300 0789 7D       		.byte	0x7d
 4301 078a AB030000 		.4byte	0x3ab
 4302 078e 13       		.uleb128 0x13
 4303 078f 2B010000 		.4byte	.LASF254
 4304 0793 01       		.byte	0x1
 4305 0794 0A       		.byte	0xa
 4306 0795 7F       		.byte	0x7f
 4307 0796 DD070000 		.4byte	0x7dd
 4308 079a 09       		.uleb128 0x9
 4309 079b 66090000 		.4byte	.LASF113
 4310 079f 00       		.sleb128 0
 4311 07a0 09       		.uleb128 0x9
 4312 07a1 DE000000 		.4byte	.LASF114
 4313 07a5 01       		.sleb128 1
 4314 07a6 09       		.uleb128 0x9
 4315 07a7 D2020000 		.4byte	.LASF115
 4316 07ab 02       		.sleb128 2
 4317 07ac 09       		.uleb128 0x9
 4318 07ad 31060000 		.4byte	.LASF116
 4319 07b1 03       		.sleb128 3
 4320 07b2 09       		.uleb128 0x9
 4321 07b3 B0010000 		.4byte	.LASF117
 4322 07b7 04       		.sleb128 4
 4323 07b8 09       		.uleb128 0x9
 4324 07b9 A4020000 		.4byte	.LASF118
 4325 07bd 05       		.sleb128 5
ARM GAS  /tmp/ccqErZ7k.s 			page 78


 4326 07be 09       		.uleb128 0x9
 4327 07bf AF020000 		.4byte	.LASF119
 4328 07c3 06       		.sleb128 6
 4329 07c4 09       		.uleb128 0x9
 4330 07c5 E8030000 		.4byte	.LASF120
 4331 07c9 07       		.sleb128 7
 4332 07ca 09       		.uleb128 0x9
 4333 07cb 1F0A0000 		.4byte	.LASF121
 4334 07cf 08       		.sleb128 8
 4335 07d0 09       		.uleb128 0x9
 4336 07d1 55030000 		.4byte	.LASF122
 4337 07d5 09       		.sleb128 9
 4338 07d6 09       		.uleb128 0x9
 4339 07d7 1C010000 		.4byte	.LASF123
 4340 07db 0A       		.sleb128 10
 4341 07dc 00       		.byte	0
 4342 07dd 14       		.uleb128 0x14
 4343 07de 6C0A0000 		.4byte	.LASF124
 4344 07e2 10       		.byte	0x10
 4345 07e3 0B       		.byte	0xb
 4346 07e4 1601     		.2byte	0x116
 4347 07e6 34080000 		.4byte	0x834
 4348 07ea 11       		.uleb128 0x11
 4349 07eb 5B0A0000 		.4byte	.LASF45
 4350 07ef 0B       		.byte	0xb
 4351 07f0 1701     		.2byte	0x117
 4352 07f2 34080000 		.4byte	0x834
 4353 07f6 02       		.byte	0x2
 4354 07f7 23       		.byte	0x23
 4355 07f8 00       		.uleb128 0
 4356 07f9 15       		.uleb128 0x15
 4357 07fa 7000     		.ascii	"p\000"
 4358 07fc 0B       		.byte	0xb
 4359 07fd 1801     		.2byte	0x118
 4360 07ff 27020000 		.4byte	0x227
 4361 0803 02       		.byte	0x2
 4362 0804 23       		.byte	0x23
 4363 0805 04       		.uleb128 0x4
 4364 0806 15       		.uleb128 0x15
 4365 0807 6C656E00 		.ascii	"len\000"
 4366 080b 0B       		.byte	0xb
 4367 080c 1901     		.2byte	0x119
 4368 080e E2000000 		.4byte	0xe2
 4369 0812 02       		.byte	0x2
 4370 0813 23       		.byte	0x23
 4371 0814 08       		.uleb128 0x8
 4372 0815 11       		.uleb128 0x11
 4373 0816 3C030000 		.4byte	.LASF49
 4374 081a 0B       		.byte	0xb
 4375 081b 2301     		.2byte	0x123
 4376 081d CC000000 		.4byte	0xcc
 4377 0821 02       		.byte	0x2
 4378 0822 23       		.byte	0x23
 4379 0823 0A       		.uleb128 0xa
 4380 0824 11       		.uleb128 0x11
 4381 0825 00030000 		.4byte	.LASF125
 4382 0829 0B       		.byte	0xb
ARM GAS  /tmp/ccqErZ7k.s 			page 79


 4383 082a 2801     		.2byte	0x128
 4384 082c 70090000 		.4byte	0x970
 4385 0830 02       		.byte	0x2
 4386 0831 23       		.byte	0x23
 4387 0832 0C       		.uleb128 0xc
 4388 0833 00       		.byte	0
 4389 0834 06       		.uleb128 0x6
 4390 0835 04       		.byte	0x4
 4391 0836 DD070000 		.4byte	0x7dd
 4392 083a 14       		.uleb128 0x14
 4393 083b 64020000 		.4byte	.LASF126
 4394 083f 20       		.byte	0x20
 4395 0840 0A       		.byte	0xa
 4396 0841 1A01     		.2byte	0x11a
 4397 0843 ED080000 		.4byte	0x8ed
 4398 0847 11       		.uleb128 0x11
 4399 0848 3A020000 		.4byte	.LASF64
 4400 084c 0A       		.byte	0xa
 4401 084d 1C01     		.2byte	0x11c
 4402 084f A2010000 		.4byte	0x1a2
 4403 0853 02       		.byte	0x2
 4404 0854 23       		.byte	0x23
 4405 0855 00       		.uleb128 0
 4406 0856 11       		.uleb128 0x11
 4407 0857 28080000 		.4byte	.LASF65
 4408 085b 0A       		.byte	0xa
 4409 085c 1C01     		.2byte	0x11c
 4410 085e A2010000 		.4byte	0x1a2
 4411 0862 02       		.byte	0x2
 4412 0863 23       		.byte	0x23
 4413 0864 04       		.uleb128 0x4
 4414 0865 11       		.uleb128 0x11
 4415 0866 C2000000 		.4byte	.LASF66
 4416 086a 0A       		.byte	0xa
 4417 086b 1C01     		.2byte	0x11c
 4418 086d CC000000 		.4byte	0xcc
 4419 0871 02       		.byte	0x2
 4420 0872 23       		.byte	0x23
 4421 0873 08       		.uleb128 0x8
 4422 0874 15       		.uleb128 0x15
 4423 0875 746F7300 		.ascii	"tos\000"
 4424 0879 0A       		.byte	0xa
 4425 087a 1C01     		.2byte	0x11c
 4426 087c CC000000 		.4byte	0xcc
 4427 0880 02       		.byte	0x2
 4428 0881 23       		.byte	0x23
 4429 0882 09       		.uleb128 0x9
 4430 0883 15       		.uleb128 0x15
 4431 0884 74746C00 		.ascii	"ttl\000"
 4432 0888 0A       		.byte	0xa
 4433 0889 1C01     		.2byte	0x11c
 4434 088b CC000000 		.4byte	0xcc
 4435 088f 02       		.byte	0x2
 4436 0890 23       		.byte	0x23
 4437 0891 0A       		.uleb128 0xa
 4438 0892 11       		.uleb128 0x11
 4439 0893 5B0A0000 		.4byte	.LASF45
ARM GAS  /tmp/ccqErZ7k.s 			page 80


 4440 0897 0A       		.byte	0xa
 4441 0898 1E01     		.2byte	0x11e
 4442 089a ED080000 		.4byte	0x8ed
 4443 089e 02       		.byte	0x2
 4444 089f 23       		.byte	0x23
 4445 08a0 0C       		.uleb128 0xc
 4446 08a1 11       		.uleb128 0x11
 4447 08a2 E5000000 		.4byte	.LASF55
 4448 08a6 0A       		.byte	0xa
 4449 08a7 1E01     		.2byte	0x11e
 4450 08a9 8E070000 		.4byte	0x78e
 4451 08ad 02       		.byte	0x2
 4452 08ae 23       		.byte	0x23
 4453 08af 10       		.uleb128 0x10
 4454 08b0 11       		.uleb128 0x11
 4455 08b1 35010000 		.4byte	.LASF67
 4456 08b5 0A       		.byte	0xa
 4457 08b6 1E01     		.2byte	0x11e
 4458 08b8 CC000000 		.4byte	0xcc
 4459 08bc 02       		.byte	0x2
 4460 08bd 23       		.byte	0x23
 4461 08be 11       		.uleb128 0x11
 4462 08bf 11       		.uleb128 0x11
 4463 08c0 26090000 		.4byte	.LASF68
 4464 08c4 0A       		.byte	0xa
 4465 08c5 1E01     		.2byte	0x11e
 4466 08c7 B1000000 		.4byte	0xb1
 4467 08cb 02       		.byte	0x2
 4468 08cc 23       		.byte	0x23
 4469 08cd 14       		.uleb128 0x14
 4470 08ce 11       		.uleb128 0x11
 4471 08cf 38090000 		.4byte	.LASF69
 4472 08d3 0A       		.byte	0xa
 4473 08d4 1E01     		.2byte	0x11e
 4474 08d6 A0030000 		.4byte	0x3a0
 4475 08da 02       		.byte	0x2
 4476 08db 23       		.byte	0x23
 4477 08dc 18       		.uleb128 0x18
 4478 08dd 11       		.uleb128 0x11
 4479 08de 31030000 		.4byte	.LASF70
 4480 08e2 0A       		.byte	0xa
 4481 08e3 1E01     		.2byte	0x11e
 4482 08e5 E2000000 		.4byte	0xe2
 4483 08e9 02       		.byte	0x2
 4484 08ea 23       		.byte	0x23
 4485 08eb 1C       		.uleb128 0x1c
 4486 08ec 00       		.byte	0
 4487 08ed 06       		.uleb128 0x6
 4488 08ee 04       		.byte	0x4
 4489 08ef 3A080000 		.4byte	0x83a
 4490 08f3 0A       		.uleb128 0xa
 4491 08f4 BE070000 		.4byte	.LASF127
 4492 08f8 14       		.byte	0x14
 4493 08f9 0B       		.byte	0xb
 4494 08fa 9E       		.byte	0x9e
 4495 08fb 70090000 		.4byte	0x970
 4496 08ff 0C       		.uleb128 0xc
ARM GAS  /tmp/ccqErZ7k.s 			page 81


 4497 0900 73726300 		.ascii	"src\000"
 4498 0904 0B       		.byte	0xb
 4499 0905 9F       		.byte	0x9f
 4500 0906 E2000000 		.4byte	0xe2
 4501 090a 02       		.byte	0x2
 4502 090b 23       		.byte	0x23
 4503 090c 00       		.uleb128 0
 4504 090d 0B       		.uleb128 0xb
 4505 090e 03080000 		.4byte	.LASF128
 4506 0912 0B       		.byte	0xb
 4507 0913 A0       		.byte	0xa0
 4508 0914 E2000000 		.4byte	0xe2
 4509 0918 02       		.byte	0x2
 4510 0919 23       		.byte	0x23
 4511 091a 02       		.uleb128 0x2
 4512 091b 0B       		.uleb128 0xb
 4513 091c 53050000 		.4byte	.LASF129
 4514 0920 0B       		.byte	0xb
 4515 0921 A1       		.byte	0xa1
 4516 0922 F8000000 		.4byte	0xf8
 4517 0926 02       		.byte	0x2
 4518 0927 23       		.byte	0x23
 4519 0928 04       		.uleb128 0x4
 4520 0929 0B       		.uleb128 0xb
 4521 092a 49080000 		.4byte	.LASF130
 4522 092e 0B       		.byte	0xb
 4523 092f A2       		.byte	0xa2
 4524 0930 F8000000 		.4byte	0xf8
 4525 0934 02       		.byte	0x2
 4526 0935 23       		.byte	0x23
 4527 0936 08       		.uleb128 0x8
 4528 0937 0B       		.uleb128 0xb
 4529 0938 AA080000 		.4byte	.LASF131
 4530 093c 0B       		.byte	0xb
 4531 093d A3       		.byte	0xa3
 4532 093e E2000000 		.4byte	0xe2
 4533 0942 02       		.byte	0x2
 4534 0943 23       		.byte	0x23
 4535 0944 0C       		.uleb128 0xc
 4536 0945 0C       		.uleb128 0xc
 4537 0946 776E6400 		.ascii	"wnd\000"
 4538 094a 0B       		.byte	0xb
 4539 094b A4       		.byte	0xa4
 4540 094c E2000000 		.4byte	0xe2
 4541 0950 02       		.byte	0x2
 4542 0951 23       		.byte	0x23
 4543 0952 0E       		.uleb128 0xe
 4544 0953 0B       		.uleb128 0xb
 4545 0954 99060000 		.4byte	.LASF132
 4546 0958 0B       		.byte	0xb
 4547 0959 A5       		.byte	0xa5
 4548 095a E2000000 		.4byte	0xe2
 4549 095e 02       		.byte	0x2
 4550 095f 23       		.byte	0x23
 4551 0960 10       		.uleb128 0x10
 4552 0961 0B       		.uleb128 0xb
 4553 0962 A4090000 		.4byte	.LASF133
ARM GAS  /tmp/ccqErZ7k.s 			page 82


 4554 0966 0B       		.byte	0xb
 4555 0967 A6       		.byte	0xa6
 4556 0968 E2000000 		.4byte	0xe2
 4557 096c 02       		.byte	0x2
 4558 096d 23       		.byte	0x23
 4559 096e 12       		.uleb128 0x12
 4560 096f 00       		.byte	0
 4561 0970 06       		.uleb128 0x6
 4562 0971 04       		.byte	0x4
 4563 0972 F3080000 		.4byte	0x8f3
 4564 0976 16       		.uleb128 0x16
 4565 0977 5D010000 		.4byte	.LASF255
 4566 097b 04       		.byte	0x4
 4567 097c 0B       		.byte	0xb
 4568 097d 3A01     		.2byte	0x13a
 4569 097f 9C090000 		.4byte	0x99c
 4570 0983 17       		.uleb128 0x17
 4571 0984 B5040000 		.4byte	.LASF134
 4572 0988 0B       		.byte	0xb
 4573 0989 3B01     		.2byte	0x13b
 4574 098b ED080000 		.4byte	0x8ed
 4575 098f 17       		.uleb128 0x17
 4576 0990 4E050000 		.4byte	.LASF135
 4577 0994 0B       		.byte	0xb
 4578 0995 3C01     		.2byte	0x13c
 4579 0997 CB030000 		.4byte	0x3cb
 4580 099b 00       		.byte	0
 4581 099c 0A       		.uleb128 0xa
 4582 099d 7A050000 		.4byte	.LASF136
 4583 09a1 18       		.byte	0x18
 4584 09a2 0C       		.byte	0xc
 4585 09a3 3A       		.byte	0x3a
 4586 09a4 500A0000 		.4byte	0xa50
 4587 09a8 0B       		.uleb128 0xb
 4588 09a9 E7040000 		.4byte	.LASF137
 4589 09ad 0C       		.byte	0xc
 4590 09ae 3B       		.byte	0x3b
 4591 09af E2000000 		.4byte	0xe2
 4592 09b3 02       		.byte	0x2
 4593 09b4 23       		.byte	0x23
 4594 09b5 00       		.uleb128 0
 4595 09b6 0B       		.uleb128 0xb
 4596 09b7 6E060000 		.4byte	.LASF100
 4597 09bb 0C       		.byte	0xc
 4598 09bc 3C       		.byte	0x3c
 4599 09bd E2000000 		.4byte	0xe2
 4600 09c1 02       		.byte	0x2
 4601 09c2 23       		.byte	0x23
 4602 09c3 02       		.uleb128 0x2
 4603 09c4 0C       		.uleb128 0xc
 4604 09c5 667700   		.ascii	"fw\000"
 4605 09c8 0C       		.byte	0xc
 4606 09c9 3D       		.byte	0x3d
 4607 09ca E2000000 		.4byte	0xe2
 4608 09ce 02       		.byte	0x2
 4609 09cf 23       		.byte	0x23
 4610 09d0 04       		.uleb128 0x4
ARM GAS  /tmp/ccqErZ7k.s 			page 83


 4611 09d1 0B       		.uleb128 0xb
 4612 09d2 9F020000 		.4byte	.LASF138
 4613 09d6 0C       		.byte	0xc
 4614 09d7 3E       		.byte	0x3e
 4615 09d8 E2000000 		.4byte	0xe2
 4616 09dc 02       		.byte	0x2
 4617 09dd 23       		.byte	0x23
 4618 09de 06       		.uleb128 0x6
 4619 09df 0B       		.uleb128 0xb
 4620 09e0 CD070000 		.4byte	.LASF139
 4621 09e4 0C       		.byte	0xc
 4622 09e5 3F       		.byte	0x3f
 4623 09e6 E2000000 		.4byte	0xe2
 4624 09ea 02       		.byte	0x2
 4625 09eb 23       		.byte	0x23
 4626 09ec 08       		.uleb128 0x8
 4627 09ed 0B       		.uleb128 0xb
 4628 09ee 5D020000 		.4byte	.LASF140
 4629 09f2 0C       		.byte	0xc
 4630 09f3 40       		.byte	0x40
 4631 09f4 E2000000 		.4byte	0xe2
 4632 09f8 02       		.byte	0x2
 4633 09f9 23       		.byte	0x23
 4634 09fa 0A       		.uleb128 0xa
 4635 09fb 0B       		.uleb128 0xb
 4636 09fc A9030000 		.4byte	.LASF141
 4637 0a00 0C       		.byte	0xc
 4638 0a01 41       		.byte	0x41
 4639 0a02 E2000000 		.4byte	0xe2
 4640 0a06 02       		.byte	0x2
 4641 0a07 23       		.byte	0x23
 4642 0a08 0C       		.uleb128 0xc
 4643 0a09 0B       		.uleb128 0xb
 4644 0a0a 550A0000 		.4byte	.LASF142
 4645 0a0e 0C       		.byte	0xc
 4646 0a0f 42       		.byte	0x42
 4647 0a10 E2000000 		.4byte	0xe2
 4648 0a14 02       		.byte	0x2
 4649 0a15 23       		.byte	0x23
 4650 0a16 0E       		.uleb128 0xe
 4651 0a17 0B       		.uleb128 0xb
 4652 0a18 51000000 		.4byte	.LASF143
 4653 0a1c 0C       		.byte	0xc
 4654 0a1d 43       		.byte	0x43
 4655 0a1e E2000000 		.4byte	0xe2
 4656 0a22 02       		.byte	0x2
 4657 0a23 23       		.byte	0x23
 4658 0a24 10       		.uleb128 0x10
 4659 0a25 0B       		.uleb128 0xb
 4660 0a26 B1070000 		.4byte	.LASF144
 4661 0a2a 0C       		.byte	0xc
 4662 0a2b 44       		.byte	0x44
 4663 0a2c E2000000 		.4byte	0xe2
 4664 0a30 02       		.byte	0x2
 4665 0a31 23       		.byte	0x23
 4666 0a32 12       		.uleb128 0x12
 4667 0a33 0C       		.uleb128 0xc
ARM GAS  /tmp/ccqErZ7k.s 			page 84


 4668 0a34 65727200 		.ascii	"err\000"
 4669 0a38 0C       		.byte	0xc
 4670 0a39 45       		.byte	0x45
 4671 0a3a E2000000 		.4byte	0xe2
 4672 0a3e 02       		.byte	0x2
 4673 0a3f 23       		.byte	0x23
 4674 0a40 14       		.uleb128 0x14
 4675 0a41 0B       		.uleb128 0xb
 4676 0a42 A0030000 		.4byte	.LASF145
 4677 0a46 0C       		.byte	0xc
 4678 0a47 46       		.byte	0x46
 4679 0a48 E2000000 		.4byte	0xe2
 4680 0a4c 02       		.byte	0x2
 4681 0a4d 23       		.byte	0x23
 4682 0a4e 16       		.uleb128 0x16
 4683 0a4f 00       		.byte	0
 4684 0a50 0A       		.uleb128 0xa
 4685 0a51 A0080000 		.4byte	.LASF146
 4686 0a55 0A       		.byte	0xa
 4687 0a56 0C       		.byte	0xc
 4688 0a57 5A       		.byte	0x5a
 4689 0a58 A30A0000 		.4byte	0xaa3
 4690 0a5c 0B       		.uleb128 0xb
 4691 0a5d D9010000 		.4byte	.LASF147
 4692 0a61 0C       		.byte	0xc
 4693 0a62 5E       		.byte	0x5e
 4694 0a63 0E010000 		.4byte	0x10e
 4695 0a67 02       		.byte	0x2
 4696 0a68 23       		.byte	0x23
 4697 0a69 00       		.uleb128 0
 4698 0a6a 0B       		.uleb128 0xb
 4699 0a6b 7C000000 		.4byte	.LASF148
 4700 0a6f 0C       		.byte	0xc
 4701 0a70 5F       		.byte	0x5f
 4702 0a71 0E010000 		.4byte	0x10e
 4703 0a75 02       		.byte	0x2
 4704 0a76 23       		.byte	0x23
 4705 0a77 02       		.uleb128 0x2
 4706 0a78 0C       		.uleb128 0xc
 4707 0a79 6D617800 		.ascii	"max\000"
 4708 0a7d 0C       		.byte	0xc
 4709 0a7e 60       		.byte	0x60
 4710 0a7f 0E010000 		.4byte	0x10e
 4711 0a83 02       		.byte	0x2
 4712 0a84 23       		.byte	0x23
 4713 0a85 04       		.uleb128 0x4
 4714 0a86 0C       		.uleb128 0xc
 4715 0a87 65727200 		.ascii	"err\000"
 4716 0a8b 0C       		.byte	0xc
 4717 0a8c 61       		.byte	0x61
 4718 0a8d E2000000 		.4byte	0xe2
 4719 0a91 02       		.byte	0x2
 4720 0a92 23       		.byte	0x23
 4721 0a93 06       		.uleb128 0x6
 4722 0a94 0B       		.uleb128 0xb
 4723 0a95 97070000 		.4byte	.LASF149
 4724 0a99 0C       		.byte	0xc
ARM GAS  /tmp/ccqErZ7k.s 			page 85


 4725 0a9a 62       		.byte	0x62
 4726 0a9b E2000000 		.4byte	0xe2
 4727 0a9f 02       		.byte	0x2
 4728 0aa0 23       		.byte	0x23
 4729 0aa1 08       		.uleb128 0x8
 4730 0aa2 00       		.byte	0
 4731 0aa3 0A       		.uleb128 0xa
 4732 0aa4 6C050000 		.4byte	.LASF150
 4733 0aa8 06       		.byte	0x6
 4734 0aa9 0C       		.byte	0xc
 4735 0aaa 65       		.byte	0x65
 4736 0aab DA0A0000 		.4byte	0xada
 4737 0aaf 0B       		.uleb128 0xb
 4738 0ab0 7C000000 		.4byte	.LASF148
 4739 0ab4 0C       		.byte	0xc
 4740 0ab5 66       		.byte	0x66
 4741 0ab6 E2000000 		.4byte	0xe2
 4742 0aba 02       		.byte	0x2
 4743 0abb 23       		.byte	0x23
 4744 0abc 00       		.uleb128 0
 4745 0abd 0C       		.uleb128 0xc
 4746 0abe 6D617800 		.ascii	"max\000"
 4747 0ac2 0C       		.byte	0xc
 4748 0ac3 67       		.byte	0x67
 4749 0ac4 E2000000 		.4byte	0xe2
 4750 0ac8 02       		.byte	0x2
 4751 0ac9 23       		.byte	0x23
 4752 0aca 02       		.uleb128 0x2
 4753 0acb 0C       		.uleb128 0xc
 4754 0acc 65727200 		.ascii	"err\000"
 4755 0ad0 0C       		.byte	0xc
 4756 0ad1 68       		.byte	0x68
 4757 0ad2 E2000000 		.4byte	0xe2
 4758 0ad6 02       		.byte	0x2
 4759 0ad7 23       		.byte	0x23
 4760 0ad8 04       		.uleb128 0x4
 4761 0ad9 00       		.byte	0
 4762 0ada 0A       		.uleb128 0xa
 4763 0adb B4060000 		.4byte	.LASF151
 4764 0adf 12       		.byte	0x12
 4765 0ae0 0C       		.byte	0xc
 4766 0ae1 6B       		.byte	0x6b
 4767 0ae2 110B0000 		.4byte	0xb11
 4768 0ae6 0C       		.uleb128 0xc
 4769 0ae7 73656D00 		.ascii	"sem\000"
 4770 0aeb 0C       		.byte	0xc
 4771 0aec 6C       		.byte	0x6c
 4772 0aed A30A0000 		.4byte	0xaa3
 4773 0af1 02       		.byte	0x2
 4774 0af2 23       		.byte	0x23
 4775 0af3 00       		.uleb128 0
 4776 0af4 0B       		.uleb128 0xb
 4777 0af5 59050000 		.4byte	.LASF152
 4778 0af9 0C       		.byte	0xc
 4779 0afa 6D       		.byte	0x6d
 4780 0afb A30A0000 		.4byte	0xaa3
 4781 0aff 02       		.byte	0x2
ARM GAS  /tmp/ccqErZ7k.s 			page 86


 4782 0b00 23       		.byte	0x23
 4783 0b01 06       		.uleb128 0x6
 4784 0b02 0B       		.uleb128 0xb
 4785 0b03 E5060000 		.4byte	.LASF153
 4786 0b07 0C       		.byte	0xc
 4787 0b08 6E       		.byte	0x6e
 4788 0b09 A30A0000 		.4byte	0xaa3
 4789 0b0d 02       		.byte	0x2
 4790 0b0e 23       		.byte	0x23
 4791 0b0f 0C       		.uleb128 0xc
 4792 0b10 00       		.byte	0
 4793 0b11 18       		.uleb128 0x18
 4794 0b12 B6030000 		.4byte	.LASF154
 4795 0b16 5001     		.2byte	0x150
 4796 0b18 0C       		.byte	0xc
 4797 0b19 71       		.byte	0x71
 4798 0b1a AE0B0000 		.4byte	0xbae
 4799 0b1e 0B       		.uleb128 0xb
 4800 0b1f 91040000 		.4byte	.LASF155
 4801 0b23 0C       		.byte	0xc
 4802 0b24 73       		.byte	0x73
 4803 0b25 9C090000 		.4byte	0x99c
 4804 0b29 02       		.byte	0x2
 4805 0b2a 23       		.byte	0x23
 4806 0b2b 00       		.uleb128 0
 4807 0b2c 0B       		.uleb128 0xb
 4808 0b2d 3A010000 		.4byte	.LASF156
 4809 0b31 0C       		.byte	0xc
 4810 0b32 76       		.byte	0x76
 4811 0b33 9C090000 		.4byte	0x99c
 4812 0b37 02       		.byte	0x2
 4813 0b38 23       		.byte	0x23
 4814 0b39 18       		.uleb128 0x18
 4815 0b3a 0B       		.uleb128 0xb
 4816 0b3b A1050000 		.4byte	.LASF157
 4817 0b3f 0C       		.byte	0xc
 4818 0b40 79       		.byte	0x79
 4819 0b41 9C090000 		.4byte	0x99c
 4820 0b45 02       		.byte	0x2
 4821 0b46 23       		.byte	0x23
 4822 0b47 30       		.uleb128 0x30
 4823 0b48 0C       		.uleb128 0xc
 4824 0b49 697000   		.ascii	"ip\000"
 4825 0b4c 0C       		.byte	0xc
 4826 0b4d 7C       		.byte	0x7c
 4827 0b4e 9C090000 		.4byte	0x99c
 4828 0b52 02       		.byte	0x2
 4829 0b53 23       		.byte	0x23
 4830 0b54 48       		.uleb128 0x48
 4831 0b55 0B       		.uleb128 0xb
 4832 0b56 EA060000 		.4byte	.LASF158
 4833 0b5a 0C       		.byte	0xc
 4834 0b5b 7F       		.byte	0x7f
 4835 0b5c 9C090000 		.4byte	0x99c
 4836 0b60 02       		.byte	0x2
 4837 0b61 23       		.byte	0x23
 4838 0b62 60       		.uleb128 0x60
ARM GAS  /tmp/ccqErZ7k.s 			page 87


 4839 0b63 0C       		.uleb128 0xc
 4840 0b64 75647000 		.ascii	"udp\000"
 4841 0b68 0C       		.byte	0xc
 4842 0b69 85       		.byte	0x85
 4843 0b6a 9C090000 		.4byte	0x99c
 4844 0b6e 02       		.byte	0x2
 4845 0b6f 23       		.byte	0x23
 4846 0b70 78       		.uleb128 0x78
 4847 0b71 0C       		.uleb128 0xc
 4848 0b72 74637000 		.ascii	"tcp\000"
 4849 0b76 0C       		.byte	0xc
 4850 0b77 88       		.byte	0x88
 4851 0b78 9C090000 		.4byte	0x99c
 4852 0b7c 03       		.byte	0x3
 4853 0b7d 23       		.byte	0x23
 4854 0b7e 9001     		.uleb128 0x90
 4855 0b80 0C       		.uleb128 0xc
 4856 0b81 6D656D00 		.ascii	"mem\000"
 4857 0b85 0C       		.byte	0xc
 4858 0b86 8B       		.byte	0x8b
 4859 0b87 500A0000 		.4byte	0xa50
 4860 0b8b 03       		.byte	0x3
 4861 0b8c 23       		.byte	0x23
 4862 0b8d A801     		.uleb128 0xa8
 4863 0b8f 0B       		.uleb128 0xb
 4864 0b90 26010000 		.4byte	.LASF159
 4865 0b94 0C       		.byte	0xc
 4866 0b95 8E       		.byte	0x8e
 4867 0b96 AE0B0000 		.4byte	0xbae
 4868 0b9a 03       		.byte	0x3
 4869 0b9b 23       		.byte	0x23
 4870 0b9c B201     		.uleb128 0xb2
 4871 0b9e 0C       		.uleb128 0xc
 4872 0b9f 73797300 		.ascii	"sys\000"
 4873 0ba3 0C       		.byte	0xc
 4874 0ba4 91       		.byte	0x91
 4875 0ba5 DA0A0000 		.4byte	0xada
 4876 0ba9 03       		.byte	0x3
 4877 0baa 23       		.byte	0x23
 4878 0bab BE02     		.uleb128 0x13e
 4879 0bad 00       		.byte	0
 4880 0bae 0F       		.uleb128 0xf
 4881 0baf 500A0000 		.4byte	0xa50
 4882 0bb3 BE0B0000 		.4byte	0xbbe
 4883 0bb7 10       		.uleb128 0x10
 4884 0bb8 B3000000 		.4byte	0xb3
 4885 0bbc 0D       		.byte	0xd
 4886 0bbd 00       		.byte	0
 4887 0bbe 19       		.uleb128 0x19
 4888 0bbf 01       		.byte	0x1
 4889 0bc0 BA020000 		.4byte	.LASF238
 4890 0bc4 01       		.byte	0x1
 4891 0bc5 5305     		.2byte	0x553
 4892 0bc7 01       		.byte	0x1
 4893 0bc8 01       		.byte	0x1
 4894 0bc9 DA0B0000 		.4byte	0xbda
 4895 0bcd 1A       		.uleb128 0x1a
ARM GAS  /tmp/ccqErZ7k.s 			page 88


 4896 0bce 70636200 		.ascii	"pcb\000"
 4897 0bd2 01       		.byte	0x1
 4898 0bd3 5305     		.2byte	0x553
 4899 0bd5 CB030000 		.4byte	0x3cb
 4900 0bd9 00       		.byte	0
 4901 0bda 1B       		.uleb128 0x1b
 4902 0bdb 01       		.byte	0x1
 4903 0bdc 85060000 		.4byte	.LASF160
 4904 0be0 01       		.byte	0x1
 4905 0be1 4C04     		.2byte	0x44c
 4906 0be3 01       		.byte	0x1
 4907 0be4 AD010000 		.4byte	0x1ad
 4908 0be8 01       		.byte	0x1
 4909 0be9 1C0C0000 		.4byte	0xc1c
 4910 0bed 1A       		.uleb128 0x1a
 4911 0bee 61726700 		.ascii	"arg\000"
 4912 0bf2 01       		.byte	0x1
 4913 0bf3 4C04     		.2byte	0x44c
 4914 0bf5 B1000000 		.4byte	0xb1
 4915 0bf9 1A       		.uleb128 0x1a
 4916 0bfa 70636200 		.ascii	"pcb\000"
 4917 0bfe 01       		.byte	0x1
 4918 0bff 4C04     		.2byte	0x44c
 4919 0c01 CB030000 		.4byte	0x3cb
 4920 0c05 1A       		.uleb128 0x1a
 4921 0c06 7000     		.ascii	"p\000"
 4922 0c08 01       		.byte	0x1
 4923 0c09 4C04     		.2byte	0x44c
 4924 0c0b 27020000 		.4byte	0x227
 4925 0c0f 1A       		.uleb128 0x1a
 4926 0c10 65727200 		.ascii	"err\000"
 4927 0c14 01       		.byte	0x1
 4928 0c15 4C04     		.2byte	0x44c
 4929 0c17 AD010000 		.4byte	0x1ad
 4930 0c1b 00       		.byte	0
 4931 0c1c 1B       		.uleb128 0x1b
 4932 0c1d 01       		.byte	0x1
 4933 0c1e CC010000 		.4byte	.LASF161
 4934 0c22 01       		.byte	0x1
 4935 0c23 B805     		.2byte	0x5b8
 4936 0c25 01       		.byte	0x1
 4937 0c26 F8000000 		.4byte	0xf8
 4938 0c2a 01       		.byte	0x1
 4939 0c2b 3C0C0000 		.4byte	0xc3c
 4940 0c2f 1C       		.uleb128 0x1c
 4941 0c30 69737300 		.ascii	"iss\000"
 4942 0c34 01       		.byte	0x1
 4943 0c35 BA05     		.2byte	0x5ba
 4944 0c37 F8000000 		.4byte	0xf8
 4945 0c3b 00       		.byte	0
 4946 0c3c 1D       		.uleb128 0x1d
 4947 0c3d AA000000 		.4byte	.LASF162
 4948 0c41 01       		.byte	0x1
 4949 0c42 CA01     		.2byte	0x1ca
 4950 0c44 01       		.byte	0x1
 4951 0c45 AD010000 		.4byte	0x1ad
 4952 0c49 00000000 		.4byte	.LFB14
ARM GAS  /tmp/ccqErZ7k.s 			page 89


 4953 0c4d 06000000 		.4byte	.LFE14
 4954 0c51 02       		.byte	0x2
 4955 0c52 7D       		.byte	0x7d
 4956 0c53 00       		.sleb128 0
 4957 0c54 01       		.byte	0x1
 4958 0c55 860C0000 		.4byte	0xc86
 4959 0c59 1E       		.uleb128 0x1e
 4960 0c5a 61726700 		.ascii	"arg\000"
 4961 0c5e 01       		.byte	0x1
 4962 0c5f CA01     		.2byte	0x1ca
 4963 0c61 B1000000 		.4byte	0xb1
 4964 0c65 00000000 		.4byte	.LLST0
 4965 0c69 1F       		.uleb128 0x1f
 4966 0c6a 70636200 		.ascii	"pcb\000"
 4967 0c6e 01       		.byte	0x1
 4968 0c6f CA01     		.2byte	0x1ca
 4969 0c71 CB030000 		.4byte	0x3cb
 4970 0c75 01       		.byte	0x1
 4971 0c76 51       		.byte	0x51
 4972 0c77 1F       		.uleb128 0x1f
 4973 0c78 65727200 		.ascii	"err\000"
 4974 0c7c 01       		.byte	0x1
 4975 0c7d CA01     		.2byte	0x1ca
 4976 0c7f AD010000 		.4byte	0x1ad
 4977 0c83 01       		.byte	0x1
 4978 0c84 52       		.byte	0x52
 4979 0c85 00       		.byte	0
 4980 0c86 20       		.uleb128 0x20
 4981 0c87 E7020000 		.4byte	.LASF163
 4982 0c8b 01       		.byte	0x1
 4983 0c8c 6102     		.2byte	0x261
 4984 0c8e 01       		.byte	0x1
 4985 0c8f E2000000 		.4byte	0xe2
 4986 0c93 00000000 		.4byte	.LFB18
 4987 0c97 48000000 		.4byte	.LFE18
 4988 0c9b 21000000 		.4byte	.LLST1
 4989 0c9f 01       		.byte	0x1
 4990 0ca0 DF0C0000 		.4byte	0xcdf
 4991 0ca4 21       		.uleb128 0x21
 4992 0ca5 6900     		.ascii	"i\000"
 4993 0ca7 01       		.byte	0x1
 4994 0ca8 6302     		.2byte	0x263
 4995 0caa 29000000 		.4byte	0x29
 4996 0cae 41000000 		.4byte	.LLST2
 4997 0cb2 22       		.uleb128 0x22
 4998 0cb3 70636200 		.ascii	"pcb\000"
 4999 0cb7 01       		.byte	0x1
 5000 0cb8 6402     		.2byte	0x264
 5001 0cba CB030000 		.4byte	0x3cb
 5002 0cbe 01       		.byte	0x1
 5003 0cbf 53       		.byte	0x53
 5004 0cc0 23       		.uleb128 0x23
 5005 0cc1 CB080000 		.4byte	.LASF164
 5006 0cc5 01       		.byte	0x1
 5007 0cc6 6B02     		.2byte	0x26b
 5008 0cc8 E2000000 		.4byte	0xe2
 5009 0ccc 05       		.byte	0x5
ARM GAS  /tmp/ccqErZ7k.s 			page 90


 5010 0ccd 03       		.byte	0x3
 5011 0cce 00000000 		.4byte	port.5907
 5012 0cd2 24       		.uleb128 0x24
 5013 0cd3 3A060000 		.4byte	.LASF256
 5014 0cd7 01       		.byte	0x1
 5015 0cd8 6D02     		.2byte	0x26d
 5016 0cda 00000000 		.4byte	.L3
 5017 0cde 00       		.byte	0
 5018 0cdf 25       		.uleb128 0x25
 5019 0ce0 01       		.byte	0x1
 5020 0ce1 1F080000 		.4byte	.LASF168
 5021 0ce5 01       		.byte	0x1
 5022 0ce6 9001     		.2byte	0x190
 5023 0ce8 01       		.byte	0x1
 5024 0ce9 AD010000 		.4byte	0x1ad
 5025 0ced 00000000 		.4byte	.LFB13
 5026 0cf1 74000000 		.4byte	.LFE13
 5027 0cf5 55000000 		.4byte	.LLST3
 5028 0cf9 01       		.byte	0x1
 5029 0cfa 750D0000 		.4byte	0xd75
 5030 0cfe 1E       		.uleb128 0x1e
 5031 0cff 70636200 		.ascii	"pcb\000"
 5032 0d03 01       		.byte	0x1
 5033 0d04 9001     		.2byte	0x190
 5034 0d06 CB030000 		.4byte	0x3cb
 5035 0d0a 75000000 		.4byte	.LLST4
 5036 0d0e 26       		.uleb128 0x26
 5037 0d0f 83010000 		.4byte	.LASF165
 5038 0d13 01       		.byte	0x1
 5039 0d14 9001     		.2byte	0x190
 5040 0d16 54030000 		.4byte	0x354
 5041 0d1a BF000000 		.4byte	.LLST5
 5042 0d1e 26       		.uleb128 0x26
 5043 0d1f CB080000 		.4byte	.LASF164
 5044 0d23 01       		.byte	0x1
 5045 0d24 9001     		.2byte	0x190
 5046 0d26 E2000000 		.4byte	0xe2
 5047 0d2a 09010000 		.4byte	.LLST6
 5048 0d2e 21       		.uleb128 0x21
 5049 0d2f 6900     		.ascii	"i\000"
 5050 0d31 01       		.byte	0x1
 5051 0d32 9201     		.2byte	0x192
 5052 0d34 29000000 		.4byte	0x29
 5053 0d38 6F010000 		.4byte	.LLST7
 5054 0d3c 27       		.uleb128 0x27
 5055 0d3d 120A0000 		.4byte	.LASF166
 5056 0d41 01       		.byte	0x1
 5057 0d42 9301     		.2byte	0x193
 5058 0d44 29000000 		.4byte	0x29
 5059 0d48 04       		.byte	0x4
 5060 0d49 28       		.uleb128 0x28
 5061 0d4a 010A0000 		.4byte	.LASF167
 5062 0d4e 01       		.byte	0x1
 5063 0d4f 9401     		.2byte	0x194
 5064 0d51 CB030000 		.4byte	0x3cb
 5065 0d55 83010000 		.4byte	.LLST8
 5066 0d59 29       		.uleb128 0x29
ARM GAS  /tmp/ccqErZ7k.s 			page 91


 5067 0d5a 56000000 		.4byte	.LVL15
 5068 0d5e 831E0000 		.4byte	0x1e83
 5069 0d62 29       		.uleb128 0x29
 5070 0d63 60000000 		.4byte	.LVL17
 5071 0d67 860C0000 		.4byte	0xc86
 5072 0d6b 29       		.uleb128 0x29
 5073 0d6c 68000000 		.4byte	.LVL20
 5074 0d70 8E1E0000 		.4byte	0x1e8e
 5075 0d74 00       		.byte	0
 5076 0d75 25       		.uleb128 0x25
 5077 0d76 01       		.byte	0x1
 5078 0d77 0C040000 		.4byte	.LASF169
 5079 0d7b 01       		.byte	0x1
 5080 0d7c E301     		.2byte	0x1e3
 5081 0d7e 01       		.byte	0x1
 5082 0d7f CB030000 		.4byte	0x3cb
 5083 0d83 00000000 		.4byte	.LFB15
 5084 0d87 B0000000 		.4byte	.LFE15
 5085 0d8b A1010000 		.4byte	.LLST9
 5086 0d8f 01       		.byte	0x1
 5087 0d90 030E0000 		.4byte	0xe03
 5088 0d94 1E       		.uleb128 0x1e
 5089 0d95 70636200 		.ascii	"pcb\000"
 5090 0d99 01       		.byte	0x1
 5091 0d9a E301     		.2byte	0x1e3
 5092 0d9c CB030000 		.4byte	0x3cb
 5093 0da0 C1010000 		.4byte	.LLST10
 5094 0da4 26       		.uleb128 0x26
 5095 0da5 F6010000 		.4byte	.LASF170
 5096 0da9 01       		.byte	0x1
 5097 0daa E301     		.2byte	0x1e3
 5098 0dac CC000000 		.4byte	0xcc
 5099 0db0 F5010000 		.4byte	.LLST11
 5100 0db4 28       		.uleb128 0x28
 5101 0db5 FC040000 		.4byte	.LASF171
 5102 0db9 01       		.byte	0x1
 5103 0dba E501     		.2byte	0x1e5
 5104 0dbc ED080000 		.4byte	0x8ed
 5105 0dc0 2F020000 		.4byte	.LLST12
 5106 0dc4 2A       		.uleb128 0x2a
 5107 0dc5 10000000 		.4byte	.LVL23
 5108 0dc9 991E0000 		.4byte	0x1e99
 5109 0dcd D70D0000 		.4byte	0xdd7
 5110 0dd1 2B       		.uleb128 0x2b
 5111 0dd2 01       		.byte	0x1
 5112 0dd3 50       		.byte	0x50
 5113 0dd4 01       		.byte	0x1
 5114 0dd5 33       		.byte	0x33
 5115 0dd6 00       		.byte	0
 5116 0dd7 2A       		.uleb128 0x2a
 5117 0dd8 6E000000 		.4byte	.LVL25
 5118 0ddc B11E0000 		.4byte	0x1eb1
 5119 0de0 F00D0000 		.4byte	0xdf0
 5120 0de4 2B       		.uleb128 0x2b
 5121 0de5 01       		.byte	0x1
 5122 0de6 51       		.byte	0x51
 5123 0de7 02       		.byte	0x2
ARM GAS  /tmp/ccqErZ7k.s 			page 92


 5124 0de8 74       		.byte	0x74
 5125 0de9 00       		.sleb128 0
 5126 0dea 2B       		.uleb128 0x2b
 5127 0deb 01       		.byte	0x1
 5128 0dec 50       		.byte	0x50
 5129 0ded 01       		.byte	0x1
 5130 0dee 32       		.byte	0x32
 5131 0def 00       		.byte	0
 5132 0df0 29       		.uleb128 0x29
 5133 0df1 7E000000 		.4byte	.LVL26
 5134 0df5 831E0000 		.4byte	0x1e83
 5135 0df9 29       		.uleb128 0x29
 5136 0dfa 92000000 		.4byte	.LVL29
 5137 0dfe 8E1E0000 		.4byte	0x1e8e
 5138 0e02 00       		.byte	0
 5139 0e03 25       		.uleb128 0x25
 5140 0e04 01       		.byte	0x1
 5141 0e05 BC090000 		.4byte	.LASF172
 5142 0e09 01       		.byte	0x1
 5143 0e0a 1F02     		.2byte	0x21f
 5144 0e0c 01       		.byte	0x1
 5145 0e0d F8000000 		.4byte	0xf8
 5146 0e11 00000000 		.4byte	.LFB16
 5147 0e15 44000000 		.4byte	.LFE16
 5148 0e19 63020000 		.4byte	.LLST13
 5149 0e1d 01       		.byte	0x1
 5150 0e1e 600E0000 		.4byte	0xe60
 5151 0e22 1E       		.uleb128 0x1e
 5152 0e23 70636200 		.ascii	"pcb\000"
 5153 0e27 01       		.byte	0x1
 5154 0e28 1F02     		.2byte	0x21f
 5155 0e2a CB030000 		.4byte	0x3cb
 5156 0e2e 83020000 		.4byte	.LLST14
 5157 0e32 28       		.uleb128 0x28
 5158 0e33 7B020000 		.4byte	.LASF173
 5159 0e37 01       		.byte	0x1
 5160 0e38 2102     		.2byte	0x221
 5161 0e3a F8000000 		.4byte	0xf8
 5162 0e3e A1020000 		.4byte	.LLST15
 5163 0e42 2C       		.uleb128 0x2c
 5164 0e43 00000000 		.4byte	.Ldebug_ranges0+0
 5165 0e47 23       		.uleb128 0x23
 5166 0e48 BC010000 		.4byte	.LASF174
 5167 0e4c 01       		.byte	0x1
 5168 0e4d 2E02     		.2byte	0x22e
 5169 0e4f F8000000 		.4byte	0xf8
 5170 0e53 01       		.byte	0x1
 5171 0e54 55       		.byte	0x55
 5172 0e55 29       		.uleb128 0x29
 5173 0e56 42000000 		.4byte	.LVL38
 5174 0e5a 8E1E0000 		.4byte	0x1e8e
 5175 0e5e 00       		.byte	0
 5176 0e5f 00       		.byte	0
 5177 0e60 2D       		.uleb128 0x2d
 5178 0e61 01       		.byte	0x1
 5179 0e62 A2040000 		.4byte	.LASF176
 5180 0e66 01       		.byte	0x1
ARM GAS  /tmp/ccqErZ7k.s 			page 93


 5181 0e67 3F02     		.2byte	0x23f
 5182 0e69 01       		.byte	0x1
 5183 0e6a 00000000 		.4byte	.LFB17
 5184 0e6e 50000000 		.4byte	.LFE17
 5185 0e72 E5020000 		.4byte	.LLST16
 5186 0e76 01       		.byte	0x1
 5187 0e77 DE0E0000 		.4byte	0xede
 5188 0e7b 1E       		.uleb128 0x1e
 5189 0e7c 70636200 		.ascii	"pcb\000"
 5190 0e80 01       		.byte	0x1
 5191 0e81 3F02     		.2byte	0x23f
 5192 0e83 CB030000 		.4byte	0x3cb
 5193 0e87 05030000 		.4byte	.LLST17
 5194 0e8b 1E       		.uleb128 0x1e
 5195 0e8c 6C656E00 		.ascii	"len\000"
 5196 0e90 01       		.byte	0x1
 5197 0e91 3F02     		.2byte	0x23f
 5198 0e93 E2000000 		.4byte	0xe2
 5199 0e97 39030000 		.4byte	.LLST18
 5200 0e9b 28       		.uleb128 0x28
 5201 0e9c 11080000 		.4byte	.LASF175
 5202 0ea0 01       		.byte	0x1
 5203 0ea1 4102     		.2byte	0x241
 5204 0ea3 29000000 		.4byte	0x29
 5205 0ea7 73030000 		.4byte	.LLST19
 5206 0eab 2A       		.uleb128 0x2a
 5207 0eac 2A000000 		.4byte	.LVL41
 5208 0eb0 030E0000 		.4byte	0xe03
 5209 0eb4 BF0E0000 		.4byte	0xebf
 5210 0eb8 2B       		.uleb128 0x2b
 5211 0eb9 01       		.byte	0x1
 5212 0eba 50       		.byte	0x50
 5213 0ebb 02       		.byte	0x2
 5214 0ebc 74       		.byte	0x74
 5215 0ebd 00       		.sleb128 0
 5216 0ebe 00       		.byte	0
 5217 0ebf 2E       		.uleb128 0x2e
 5218 0ec0 48000000 		.4byte	.LVL43
 5219 0ec4 01       		.byte	0x1
 5220 0ec5 CA1E0000 		.4byte	0x1eca
 5221 0ec9 D40E0000 		.4byte	0xed4
 5222 0ecd 2B       		.uleb128 0x2b
 5223 0ece 01       		.byte	0x1
 5224 0ecf 50       		.byte	0x50
 5225 0ed0 02       		.byte	0x2
 5226 0ed1 74       		.byte	0x74
 5227 0ed2 00       		.sleb128 0
 5228 0ed3 00       		.byte	0
 5229 0ed4 29       		.uleb128 0x29
 5230 0ed5 4C000000 		.4byte	.LVL44
 5231 0ed9 8E1E0000 		.4byte	0x1e8e
 5232 0edd 00       		.byte	0
 5233 0ede 2D       		.uleb128 0x2d
 5234 0edf 01       		.byte	0x1
 5235 0ee0 6E040000 		.4byte	.LASF177
 5236 0ee4 01       		.byte	0x1
 5237 0ee5 1604     		.2byte	0x416
ARM GAS  /tmp/ccqErZ7k.s 			page 94


 5238 0ee7 01       		.byte	0x1
 5239 0ee8 00000000 		.4byte	.LFB23
 5240 0eec 1C000000 		.4byte	.LFE23
 5241 0ef0 86030000 		.4byte	.LLST20
 5242 0ef4 01       		.byte	0x1
 5243 0ef5 290F0000 		.4byte	0xf29
 5244 0ef9 1E       		.uleb128 0x1e
 5245 0efa 73656700 		.ascii	"seg\000"
 5246 0efe 01       		.byte	0x1
 5247 0eff 1604     		.2byte	0x416
 5248 0f01 34080000 		.4byte	0x834
 5249 0f05 A6030000 		.4byte	.LLST21
 5250 0f09 29       		.uleb128 0x29
 5251 0f0a 0E000000 		.4byte	.LVL47
 5252 0f0e E31E0000 		.4byte	0x1ee3
 5253 0f12 2F       		.uleb128 0x2f
 5254 0f13 1A000000 		.4byte	.LVL48
 5255 0f17 01       		.byte	0x1
 5256 0f18 B11E0000 		.4byte	0x1eb1
 5257 0f1c 2B       		.uleb128 0x2b
 5258 0f1d 01       		.byte	0x1
 5259 0f1e 51       		.byte	0x51
 5260 0f1f 02       		.byte	0x2
 5261 0f20 74       		.byte	0x74
 5262 0f21 00       		.sleb128 0
 5263 0f22 2B       		.uleb128 0x2b
 5264 0f23 01       		.byte	0x1
 5265 0f24 50       		.byte	0x50
 5266 0f25 01       		.byte	0x1
 5267 0f26 34       		.byte	0x34
 5268 0f27 00       		.byte	0
 5269 0f28 00       		.byte	0
 5270 0f29 2D       		.uleb128 0x2d
 5271 0f2a 01       		.byte	0x1
 5272 0f2b 62000000 		.4byte	.LASF178
 5273 0f2f 01       		.byte	0x1
 5274 0f30 0704     		.2byte	0x407
 5275 0f32 01       		.byte	0x1
 5276 0f33 00000000 		.4byte	.LFB22
 5277 0f37 12000000 		.4byte	.LFE22
 5278 0f3b CF030000 		.4byte	.LLST22
 5279 0f3f 01       		.byte	0x1
 5280 0f40 780F0000 		.4byte	0xf78
 5281 0f44 1E       		.uleb128 0x1e
 5282 0f45 73656700 		.ascii	"seg\000"
 5283 0f49 01       		.byte	0x1
 5284 0f4a 0704     		.2byte	0x407
 5285 0f4c 34080000 		.4byte	0x834
 5286 0f50 EF030000 		.4byte	.LLST23
 5287 0f54 30       		.uleb128 0x30
 5288 0f55 04000000 		.4byte	.LBB9
 5289 0f59 0A000000 		.4byte	.LBE9
 5290 0f5d 28       		.uleb128 0x28
 5291 0f5e 5B0A0000 		.4byte	.LASF45
 5292 0f62 01       		.byte	0x1
 5293 0f63 0A04     		.2byte	0x40a
 5294 0f65 34080000 		.4byte	0x834
ARM GAS  /tmp/ccqErZ7k.s 			page 95


 5295 0f69 18040000 		.4byte	.LLST24
 5296 0f6d 29       		.uleb128 0x29
 5297 0f6e 0A000000 		.4byte	.LVL51
 5298 0f72 DE0E0000 		.4byte	0xede
 5299 0f76 00       		.byte	0
 5300 0f77 00       		.byte	0
 5301 0f78 31       		.uleb128 0x31
 5302 0f79 01       		.byte	0x1
 5303 0f7a A4010000 		.4byte	.LASF179
 5304 0f7e 01       		.byte	0x1
 5305 0f7f 2A04     		.2byte	0x42a
 5306 0f81 01       		.byte	0x1
 5307 0f82 00000000 		.4byte	.LFB24
 5308 0f86 04000000 		.4byte	.LFE24
 5309 0f8a 02       		.byte	0x2
 5310 0f8b 7D       		.byte	0x7d
 5311 0f8c 00       		.sleb128 0
 5312 0f8d 01       		.byte	0x1
 5313 0f8e AF0F0000 		.4byte	0xfaf
 5314 0f92 1F       		.uleb128 0x1f
 5315 0f93 70636200 		.ascii	"pcb\000"
 5316 0f97 01       		.byte	0x1
 5317 0f98 2A04     		.2byte	0x42a
 5318 0f9a CB030000 		.4byte	0x3cb
 5319 0f9e 01       		.byte	0x1
 5320 0f9f 50       		.byte	0x50
 5321 0fa0 32       		.uleb128 0x32
 5322 0fa1 35010000 		.4byte	.LASF67
 5323 0fa5 01       		.byte	0x1
 5324 0fa6 2A04     		.2byte	0x42a
 5325 0fa8 CC000000 		.4byte	0xcc
 5326 0fac 01       		.byte	0x1
 5327 0fad 51       		.byte	0x51
 5328 0fae 00       		.byte	0
 5329 0faf 25       		.uleb128 0x25
 5330 0fb0 01       		.byte	0x1
 5331 0fb1 CD060000 		.4byte	.LASF180
 5332 0fb5 01       		.byte	0x1
 5333 0fb6 3804     		.2byte	0x438
 5334 0fb8 01       		.byte	0x1
 5335 0fb9 34080000 		.4byte	0x834
 5336 0fbd 00000000 		.4byte	.LFB25
 5337 0fc1 28000000 		.4byte	.LFE25
 5338 0fc5 2B040000 		.4byte	.LLST25
 5339 0fc9 01       		.byte	0x1
 5340 0fca 0B100000 		.4byte	0x100b
 5341 0fce 1E       		.uleb128 0x1e
 5342 0fcf 73656700 		.ascii	"seg\000"
 5343 0fd3 01       		.byte	0x1
 5344 0fd4 3804     		.2byte	0x438
 5345 0fd6 34080000 		.4byte	0x834
 5346 0fda 4B040000 		.4byte	.LLST26
 5347 0fde 28       		.uleb128 0x28
 5348 0fdf EB000000 		.4byte	.LASF181
 5349 0fe3 01       		.byte	0x1
 5350 0fe4 3A04     		.2byte	0x43a
 5351 0fe6 34080000 		.4byte	0x834
ARM GAS  /tmp/ccqErZ7k.s 			page 96


 5352 0fea 69040000 		.4byte	.LLST27
 5353 0fee 2A       		.uleb128 0x2a
 5354 0fef 0A000000 		.4byte	.LVL56
 5355 0ff3 991E0000 		.4byte	0x1e99
 5356 0ff7 01100000 		.4byte	0x1001
 5357 0ffb 2B       		.uleb128 0x2b
 5358 0ffc 01       		.byte	0x1
 5359 0ffd 50       		.byte	0x50
 5360 0ffe 01       		.byte	0x1
 5361 0fff 34       		.byte	0x34
 5362 1000 00       		.byte	0
 5363 1001 29       		.uleb128 0x29
 5364 1002 24000000 		.4byte	.LVL58
 5365 1006 FB1E0000 		.4byte	0x1efb
 5366 100a 00       		.byte	0
 5367 100b 31       		.uleb128 0x31
 5368 100c 01       		.byte	0x1
 5369 100d 4F080000 		.4byte	.LASF182
 5370 1011 01       		.byte	0x1
 5371 1012 FD04     		.2byte	0x4fd
 5372 1014 01       		.byte	0x1
 5373 1015 00000000 		.4byte	.LFB31
 5374 1019 04000000 		.4byte	.LFE31
 5375 101d 02       		.byte	0x2
 5376 101e 7D       		.byte	0x7d
 5377 101f 00       		.sleb128 0
 5378 1020 01       		.byte	0x1
 5379 1021 42100000 		.4byte	0x1042
 5380 1025 1F       		.uleb128 0x1f
 5381 1026 70636200 		.ascii	"pcb\000"
 5382 102a 01       		.byte	0x1
 5383 102b FD04     		.2byte	0x4fd
 5384 102d CB030000 		.4byte	0x3cb
 5385 1031 01       		.byte	0x1
 5386 1032 50       		.byte	0x50
 5387 1033 1F       		.uleb128 0x1f
 5388 1034 61726700 		.ascii	"arg\000"
 5389 1038 01       		.byte	0x1
 5390 1039 FD04     		.2byte	0x4fd
 5391 103b B1000000 		.4byte	0xb1
 5392 103f 01       		.byte	0x1
 5393 1040 51       		.byte	0x51
 5394 1041 00       		.byte	0
 5395 1042 31       		.uleb128 0x31
 5396 1043 01       		.byte	0x1
 5397 1044 24040000 		.4byte	.LASF183
 5398 1048 01       		.byte	0x1
 5399 1049 0B05     		.2byte	0x50b
 5400 104b 01       		.byte	0x1
 5401 104c 00000000 		.4byte	.LFB32
 5402 1050 06000000 		.4byte	.LFE32
 5403 1054 02       		.byte	0x2
 5404 1055 7D       		.byte	0x7d
 5405 1056 00       		.sleb128 0
 5406 1057 01       		.byte	0x1
 5407 1058 79100000 		.4byte	0x1079
 5408 105c 1F       		.uleb128 0x1f
ARM GAS  /tmp/ccqErZ7k.s 			page 97


 5409 105d 70636200 		.ascii	"pcb\000"
 5410 1061 01       		.byte	0x1
 5411 1062 0B05     		.2byte	0x50b
 5412 1064 CB030000 		.4byte	0x3cb
 5413 1068 01       		.byte	0x1
 5414 1069 50       		.byte	0x50
 5415 106a 32       		.uleb128 0x32
 5416 106b 6E060000 		.4byte	.LASF100
 5417 106f 01       		.byte	0x1
 5418 1070 0B05     		.2byte	0x50b
 5419 1072 E0060000 		.4byte	0x6e0
 5420 1076 01       		.byte	0x1
 5421 1077 51       		.byte	0x51
 5422 1078 00       		.byte	0
 5423 1079 31       		.uleb128 0x31
 5424 107a 01       		.byte	0x1
 5425 107b 8B050000 		.4byte	.LASF184
 5426 107f 01       		.byte	0x1
 5427 1080 1805     		.2byte	0x518
 5428 1082 01       		.byte	0x1
 5429 1083 00000000 		.4byte	.LFB33
 5430 1087 06000000 		.4byte	.LFE33
 5431 108b 02       		.byte	0x2
 5432 108c 7D       		.byte	0x7d
 5433 108d 00       		.sleb128 0
 5434 108e 01       		.byte	0x1
 5435 108f B0100000 		.4byte	0x10b0
 5436 1093 1F       		.uleb128 0x1f
 5437 1094 70636200 		.ascii	"pcb\000"
 5438 1098 01       		.byte	0x1
 5439 1099 1805     		.2byte	0x518
 5440 109b CB030000 		.4byte	0x3cb
 5441 109f 01       		.byte	0x1
 5442 10a0 50       		.byte	0x50
 5443 10a1 32       		.uleb128 0x32
 5444 10a2 19050000 		.4byte	.LASF99
 5445 10a6 01       		.byte	0x1
 5446 10a7 1805     		.2byte	0x518
 5447 10a9 10070000 		.4byte	0x710
 5448 10ad 01       		.byte	0x1
 5449 10ae 51       		.byte	0x51
 5450 10af 00       		.byte	0
 5451 10b0 31       		.uleb128 0x31
 5452 10b1 01       		.byte	0x1
 5453 10b2 C9050000 		.4byte	.LASF185
 5454 10b6 01       		.byte	0x1
 5455 10b7 2605     		.2byte	0x526
 5456 10b9 01       		.byte	0x1
 5457 10ba 00000000 		.4byte	.LFB34
 5458 10be 06000000 		.4byte	.LFE34
 5459 10c2 02       		.byte	0x2
 5460 10c3 7D       		.byte	0x7d
 5461 10c4 00       		.sleb128 0
 5462 10c5 01       		.byte	0x1
 5463 10c6 E7100000 		.4byte	0x10e7
 5464 10ca 1F       		.uleb128 0x1f
 5465 10cb 70636200 		.ascii	"pcb\000"
ARM GAS  /tmp/ccqErZ7k.s 			page 98


 5466 10cf 01       		.byte	0x1
 5467 10d0 2605     		.2byte	0x526
 5468 10d2 CB030000 		.4byte	0x3cb
 5469 10d6 01       		.byte	0x1
 5470 10d7 50       		.byte	0x50
 5471 10d8 1F       		.uleb128 0x1f
 5472 10d9 65727200 		.ascii	"err\000"
 5473 10dd 01       		.byte	0x1
 5474 10de 2605     		.2byte	0x526
 5475 10e0 61070000 		.4byte	0x761
 5476 10e4 01       		.byte	0x1
 5477 10e5 51       		.byte	0x51
 5478 10e6 00       		.byte	0
 5479 10e7 31       		.uleb128 0x31
 5480 10e8 01       		.byte	0x1
 5481 10e9 DD030000 		.4byte	.LASF186
 5482 10ed 01       		.byte	0x1
 5483 10ee 3405     		.2byte	0x534
 5484 10f0 01       		.byte	0x1
 5485 10f1 00000000 		.4byte	.LFB35
 5486 10f5 04000000 		.4byte	.LFE35
 5487 10f9 02       		.byte	0x2
 5488 10fa 7D       		.byte	0x7d
 5489 10fb 00       		.sleb128 0
 5490 10fc 01       		.byte	0x1
 5491 10fd 1E110000 		.4byte	0x111e
 5492 1101 1F       		.uleb128 0x1f
 5493 1102 70636200 		.ascii	"pcb\000"
 5494 1106 01       		.byte	0x1
 5495 1107 3405     		.2byte	0x534
 5496 1109 CB030000 		.4byte	0x3cb
 5497 110d 01       		.byte	0x1
 5498 110e 50       		.byte	0x50
 5499 110f 32       		.uleb128 0x32
 5500 1110 38090000 		.4byte	.LASF69
 5501 1114 01       		.byte	0x1
 5502 1115 3405     		.2byte	0x534
 5503 1117 A0030000 		.4byte	0x3a0
 5504 111b 01       		.byte	0x1
 5505 111c 51       		.byte	0x51
 5506 111d 00       		.byte	0
 5507 111e 31       		.uleb128 0x31
 5508 111f 01       		.byte	0x1
 5509 1120 970A0000 		.4byte	.LASF187
 5510 1124 01       		.byte	0x1
 5511 1125 4205     		.2byte	0x542
 5512 1127 01       		.byte	0x1
 5513 1128 00000000 		.4byte	.LFB36
 5514 112c 0A000000 		.4byte	.LFE36
 5515 1130 02       		.byte	0x2
 5516 1131 7D       		.byte	0x7d
 5517 1132 00       		.sleb128 0
 5518 1133 01       		.byte	0x1
 5519 1134 63110000 		.4byte	0x1163
 5520 1138 1F       		.uleb128 0x1f
 5521 1139 70636200 		.ascii	"pcb\000"
 5522 113d 01       		.byte	0x1
ARM GAS  /tmp/ccqErZ7k.s 			page 99


 5523 113e 4205     		.2byte	0x542
 5524 1140 CB030000 		.4byte	0x3cb
 5525 1144 01       		.byte	0x1
 5526 1145 50       		.byte	0x50
 5527 1146 32       		.uleb128 0x32
 5528 1147 02060000 		.4byte	.LASF102
 5529 114b 01       		.byte	0x1
 5530 114c 4205     		.2byte	0x542
 5531 114e 3B070000 		.4byte	0x73b
 5532 1152 01       		.byte	0x1
 5533 1153 51       		.byte	0x51
 5534 1154 32       		.uleb128 0x32
 5535 1155 76080000 		.4byte	.LASF188
 5536 1159 01       		.byte	0x1
 5537 115a 4205     		.2byte	0x542
 5538 115c CC000000 		.4byte	0xcc
 5539 1160 01       		.byte	0x1
 5540 1161 52       		.byte	0x52
 5541 1162 00       		.byte	0
 5542 1163 33       		.uleb128 0x33
 5543 1164 BE0B0000 		.4byte	0xbbe
 5544 1168 00000000 		.4byte	.LFB37
 5545 116c 48000000 		.4byte	.LFE37
 5546 1170 87040000 		.4byte	.LLST28
 5547 1174 01       		.byte	0x1
 5548 1175 C1110000 		.4byte	0x11c1
 5549 1179 34       		.uleb128 0x34
 5550 117a CD0B0000 		.4byte	0xbcd
 5551 117e A7040000 		.4byte	.LLST29
 5552 1182 35       		.uleb128 0x35
 5553 1183 BE0B0000 		.4byte	0xbbe
 5554 1187 12000000 		.4byte	.LBB12
 5555 118b 48000000 		.4byte	.LBE12
 5556 118f 01       		.byte	0x1
 5557 1190 5305     		.2byte	0x553
 5558 1192 34       		.uleb128 0x34
 5559 1193 CD0B0000 		.4byte	0xbcd
 5560 1197 C5040000 		.4byte	.LLST30
 5561 119b 29       		.uleb128 0x29
 5562 119c 1C000000 		.4byte	.LVL68
 5563 11a0 E31E0000 		.4byte	0x1ee3
 5564 11a4 29       		.uleb128 0x29
 5565 11a5 28000000 		.4byte	.LVL69
 5566 11a9 290F0000 		.4byte	0xf29
 5567 11ad 29       		.uleb128 0x29
 5568 11ae 38000000 		.4byte	.LVL70
 5569 11b2 290F0000 		.4byte	0xf29
 5570 11b6 29       		.uleb128 0x29
 5571 11b7 3E000000 		.4byte	.LVL71
 5572 11bb 290F0000 		.4byte	0xf29
 5573 11bf 00       		.byte	0
 5574 11c0 00       		.byte	0
 5575 11c1 2D       		.uleb128 0x2d
 5576 11c2 01       		.byte	0x1
 5577 11c3 600A0000 		.4byte	.LASF189
 5578 11c7 01       		.byte	0x1
 5579 11c8 EE02     		.2byte	0x2ee
ARM GAS  /tmp/ccqErZ7k.s 			page 100


 5580 11ca 01       		.byte	0x1
 5581 11cb 00000000 		.4byte	.LFB20
 5582 11cf 64030000 		.4byte	.LFE20
 5583 11d3 E3040000 		.4byte	.LLST31
 5584 11d7 01       		.byte	0x1
 5585 11d8 96130000 		.4byte	0x1396
 5586 11dc 21       		.uleb128 0x21
 5587 11dd 70636200 		.ascii	"pcb\000"
 5588 11e1 01       		.byte	0x1
 5589 11e2 F002     		.2byte	0x2f0
 5590 11e4 CB030000 		.4byte	0x3cb
 5591 11e8 0F050000 		.4byte	.LLST32
 5592 11ec 28       		.uleb128 0x28
 5593 11ed 920A0000 		.4byte	.LASF190
 5594 11f1 01       		.byte	0x1
 5595 11f2 F002     		.2byte	0x2f0
 5596 11f4 CB030000 		.4byte	0x3cb
 5597 11f8 86050000 		.4byte	.LLST33
 5598 11fc 28       		.uleb128 0x28
 5599 11fd 9F070000 		.4byte	.LASF191
 5600 1201 01       		.byte	0x1
 5601 1202 F102     		.2byte	0x2f1
 5602 1204 E2000000 		.4byte	0xe2
 5603 1208 09060000 		.4byte	.LLST34
 5604 120c 28       		.uleb128 0x28
 5605 120d 91090000 		.4byte	.LASF192
 5606 1211 01       		.byte	0x1
 5607 1212 F202     		.2byte	0x2f2
 5608 1214 CC000000 		.4byte	0xcc
 5609 1218 37060000 		.4byte	.LLST35
 5610 121c 28       		.uleb128 0x28
 5611 121d D3090000 		.4byte	.LASF193
 5612 1221 01       		.byte	0x1
 5613 1222 F302     		.2byte	0x2f3
 5614 1224 CC000000 		.4byte	0xcc
 5615 1228 F7060000 		.4byte	.LLST36
 5616 122c 21       		.uleb128 0x21
 5617 122d 65727200 		.ascii	"err\000"
 5618 1231 01       		.byte	0x1
 5619 1232 F402     		.2byte	0x2f4
 5620 1234 AD010000 		.4byte	0x1ad
 5621 1238 7D070000 		.4byte	.LLST37
 5622 123c 36       		.uleb128 0x36
 5623 123d 18000000 		.4byte	.Ldebug_ranges0+0x18
 5624 1241 8F120000 		.4byte	0x128f
 5625 1245 28       		.uleb128 0x28
 5626 1246 19090000 		.4byte	.LASF194
 5627 124a 01       		.byte	0x1
 5628 124b C503     		.2byte	0x3c5
 5629 124d CB030000 		.4byte	0x3cb
 5630 1251 9C070000 		.4byte	.LLST38
 5631 1255 2A       		.uleb128 0x2a
 5632 1256 6C010000 		.4byte	.LVL94
 5633 125a BE0B0000 		.4byte	0xbbe
 5634 125e 69120000 		.4byte	0x1269
 5635 1262 2B       		.uleb128 0x2b
 5636 1263 01       		.byte	0x1
ARM GAS  /tmp/ccqErZ7k.s 			page 101


 5637 1264 50       		.byte	0x50
 5638 1265 02       		.byte	0x2
 5639 1266 74       		.byte	0x74
 5640 1267 00       		.sleb128 0
 5641 1268 00       		.byte	0
 5642 1269 2A       		.uleb128 0x2a
 5643 126a 8C010000 		.4byte	.LVL97
 5644 126e B11E0000 		.4byte	0x1eb1
 5645 1272 7C120000 		.4byte	0x127c
 5646 1276 2B       		.uleb128 0x2b
 5647 1277 01       		.byte	0x1
 5648 1278 50       		.byte	0x50
 5649 1279 01       		.byte	0x1
 5650 127a 32       		.byte	0x32
 5651 127b 00       		.byte	0
 5652 127c 29       		.uleb128 0x29
 5653 127d 3E030000 		.4byte	.LVL133
 5654 1281 8E1E0000 		.4byte	0x1e8e
 5655 1285 29       		.uleb128 0x29
 5656 1286 5C030000 		.4byte	.LVL137
 5657 128a 8E1E0000 		.4byte	0x1e8e
 5658 128e 00       		.byte	0
 5659 128f 36       		.uleb128 0x36
 5660 1290 38000000 		.4byte	.Ldebug_ranges0+0x38
 5661 1294 0C130000 		.4byte	0x130c
 5662 1298 28       		.uleb128 0x28
 5663 1299 19090000 		.4byte	.LASF194
 5664 129d 01       		.byte	0x1
 5665 129e 8C03     		.2byte	0x38c
 5666 12a0 CB030000 		.4byte	0x3cb
 5667 12a4 BA070000 		.4byte	.LLST39
 5668 12a8 2A       		.uleb128 0x2a
 5669 12a9 A6010000 		.4byte	.LVL101
 5670 12ad BE0B0000 		.4byte	0xbbe
 5671 12b1 BC120000 		.4byte	0x12bc
 5672 12b5 2B       		.uleb128 0x2b
 5673 12b6 01       		.byte	0x1
 5674 12b7 50       		.byte	0x50
 5675 12b8 02       		.byte	0x2
 5676 12b9 74       		.byte	0x74
 5677 12ba 00       		.sleb128 0
 5678 12bb 00       		.byte	0
 5679 12bc 37       		.uleb128 0x37
 5680 12bd C8010000 		.4byte	.LVL102
 5681 12c1 CC120000 		.4byte	0x12cc
 5682 12c5 2B       		.uleb128 0x2b
 5683 12c6 01       		.byte	0x1
 5684 12c7 51       		.byte	0x51
 5685 12c8 02       		.byte	0x2
 5686 12c9 09       		.byte	0x9
 5687 12ca F6       		.byte	0xf6
 5688 12cb 00       		.byte	0
 5689 12cc 2A       		.uleb128 0x2a
 5690 12cd DA010000 		.4byte	.LVL106
 5691 12d1 B11E0000 		.4byte	0x1eb1
 5692 12d5 DF120000 		.4byte	0x12df
 5693 12d9 2B       		.uleb128 0x2b
ARM GAS  /tmp/ccqErZ7k.s 			page 102


 5694 12da 01       		.byte	0x1
 5695 12db 50       		.byte	0x50
 5696 12dc 01       		.byte	0x1
 5697 12dd 32       		.byte	0x32
 5698 12de 00       		.byte	0
 5699 12df 2A       		.uleb128 0x2a
 5700 12e0 32030000 		.4byte	.LVL131
 5701 12e4 0F1F0000 		.4byte	0x1f0f
 5702 12e8 F9120000 		.4byte	0x12f9
 5703 12ec 2B       		.uleb128 0x2b
 5704 12ed 01       		.byte	0x1
 5705 12ee 53       		.byte	0x53
 5706 12ef 02       		.byte	0x2
 5707 12f0 74       		.byte	0x74
 5708 12f1 04       		.sleb128 4
 5709 12f2 2B       		.uleb128 0x2b
 5710 12f3 01       		.byte	0x1
 5711 12f4 52       		.byte	0x52
 5712 12f5 02       		.byte	0x2
 5713 12f6 74       		.byte	0x74
 5714 12f7 00       		.sleb128 0
 5715 12f8 00       		.byte	0
 5716 12f9 29       		.uleb128 0x29
 5717 12fa 50030000 		.4byte	.LVL135
 5718 12fe 8E1E0000 		.4byte	0x1e8e
 5719 1302 29       		.uleb128 0x29
 5720 1303 62030000 		.4byte	.LVL139
 5721 1307 8E1E0000 		.4byte	0x1e8e
 5722 130b 00       		.byte	0
 5723 130c 2A       		.uleb128 0x2a
 5724 130d 98000000 		.4byte	.LVL77
 5725 1311 3D1F0000 		.4byte	0x1f3d
 5726 1315 20130000 		.4byte	0x1320
 5727 1319 2B       		.uleb128 0x2b
 5728 131a 01       		.byte	0x1
 5729 131b 50       		.byte	0x50
 5730 131c 02       		.byte	0x2
 5731 131d 74       		.byte	0x74
 5732 131e 00       		.sleb128 0
 5733 131f 00       		.byte	0
 5734 1320 37       		.uleb128 0x37
 5735 1321 3A010000 		.4byte	.LVL85
 5736 1325 30130000 		.4byte	0x1330
 5737 1329 2B       		.uleb128 0x2b
 5738 132a 01       		.byte	0x1
 5739 132b 51       		.byte	0x51
 5740 132c 02       		.byte	0x2
 5741 132d 74       		.byte	0x74
 5742 132e 00       		.sleb128 0
 5743 132f 00       		.byte	0
 5744 1330 29       		.uleb128 0x29
 5745 1331 5C010000 		.4byte	.LVL92
 5746 1335 8E1E0000 		.4byte	0x1e8e
 5747 1339 2A       		.uleb128 0x2a
 5748 133a 76020000 		.4byte	.LVL115
 5749 133e 521F0000 		.4byte	0x1f52
 5750 1342 4D130000 		.4byte	0x134d
ARM GAS  /tmp/ccqErZ7k.s 			page 103


 5751 1346 2B       		.uleb128 0x2b
 5752 1347 01       		.byte	0x1
 5753 1348 50       		.byte	0x50
 5754 1349 02       		.byte	0x2
 5755 134a 74       		.byte	0x74
 5756 134b 00       		.sleb128 0
 5757 134c 00       		.byte	0
 5758 134d 29       		.uleb128 0x29
 5759 134e 82020000 		.4byte	.LVL117
 5760 1352 8E1E0000 		.4byte	0x1e8e
 5761 1356 29       		.uleb128 0x29
 5762 1357 8E020000 		.4byte	.LVL118
 5763 135b 8E1E0000 		.4byte	0x1e8e
 5764 135f 29       		.uleb128 0x29
 5765 1360 9A020000 		.4byte	.LVL119
 5766 1364 8E1E0000 		.4byte	0x1e8e
 5767 1368 29       		.uleb128 0x29
 5768 1369 CC020000 		.4byte	.LVL124
 5769 136d 290F0000 		.4byte	0xf29
 5770 1371 2A       		.uleb128 0x2a
 5771 1372 FE020000 		.4byte	.LVL126
 5772 1376 661F0000 		.4byte	0x1f66
 5773 137a 85130000 		.4byte	0x1385
 5774 137e 2B       		.uleb128 0x2b
 5775 137f 01       		.byte	0x1
 5776 1380 50       		.byte	0x50
 5777 1381 02       		.byte	0x2
 5778 1382 74       		.byte	0x74
 5779 1383 00       		.sleb128 0
 5780 1384 00       		.byte	0
 5781 1385 38       		.uleb128 0x38
 5782 1386 16030000 		.4byte	.LVL129
 5783 138a CA1E0000 		.4byte	0x1eca
 5784 138e 2B       		.uleb128 0x2b
 5785 138f 01       		.byte	0x1
 5786 1390 50       		.byte	0x50
 5787 1391 02       		.byte	0x2
 5788 1392 76       		.byte	0x76
 5789 1393 00       		.sleb128 0
 5790 1394 00       		.byte	0
 5791 1395 00       		.byte	0
 5792 1396 2D       		.uleb128 0x2d
 5793 1397 01       		.byte	0x1
 5794 1398 88070000 		.4byte	.LASF195
 5795 139c 01       		.byte	0x1
 5796 139d 9705     		.2byte	0x597
 5797 139f 01       		.byte	0x1
 5798 13a0 00000000 		.4byte	.LFB38
 5799 13a4 90000000 		.4byte	.LFE38
 5800 13a8 D8070000 		.4byte	.LLST40
 5801 13ac 01       		.byte	0x1
 5802 13ad 11140000 		.4byte	0x1411
 5803 13b1 26       		.uleb128 0x26
 5804 13b2 3F0A0000 		.4byte	.LASF196
 5805 13b6 01       		.byte	0x1
 5806 13b7 9705     		.2byte	0x597
 5807 13b9 11140000 		.4byte	0x1411
ARM GAS  /tmp/ccqErZ7k.s 			page 104


 5808 13bd F8070000 		.4byte	.LLST41
 5809 13c1 1E       		.uleb128 0x1e
 5810 13c2 70636200 		.ascii	"pcb\000"
 5811 13c6 01       		.byte	0x1
 5812 13c7 9705     		.2byte	0x597
 5813 13c9 CB030000 		.4byte	0x3cb
 5814 13cd 24080000 		.4byte	.LLST42
 5815 13d1 2A       		.uleb128 0x2a
 5816 13d2 30000000 		.4byte	.LVL143
 5817 13d6 BE0B0000 		.4byte	0xbbe
 5818 13da E5130000 		.4byte	0x13e5
 5819 13de 2B       		.uleb128 0x2b
 5820 13df 01       		.byte	0x1
 5821 13e0 50       		.byte	0x50
 5822 13e1 02       		.byte	0x2
 5823 13e2 74       		.byte	0x74
 5824 13e3 00       		.sleb128 0
 5825 13e4 00       		.byte	0
 5826 13e5 29       		.uleb128 0x29
 5827 13e6 4A000000 		.4byte	.LVL144
 5828 13ea 8E1E0000 		.4byte	0x1e8e
 5829 13ee 29       		.uleb128 0x29
 5830 13ef 52000000 		.4byte	.LVL145
 5831 13f3 8E1E0000 		.4byte	0x1e8e
 5832 13f7 29       		.uleb128 0x29
 5833 13f8 5A000000 		.4byte	.LVL146
 5834 13fc 8E1E0000 		.4byte	0x1e8e
 5835 1400 38       		.uleb128 0x38
 5836 1401 6E000000 		.4byte	.LVL147
 5837 1405 CA1E0000 		.4byte	0x1eca
 5838 1409 2B       		.uleb128 0x2b
 5839 140a 01       		.byte	0x1
 5840 140b 50       		.byte	0x50
 5841 140c 02       		.byte	0x2
 5842 140d 74       		.byte	0x74
 5843 140e 00       		.sleb128 0
 5844 140f 00       		.byte	0
 5845 1410 00       		.byte	0
 5846 1411 06       		.uleb128 0x6
 5847 1412 04       		.byte	0x4
 5848 1413 CB030000 		.4byte	0x3cb
 5849 1417 2D       		.uleb128 0x2d
 5850 1418 01       		.byte	0x1
 5851 1419 04010000 		.4byte	.LASF197
 5852 141d 01       		.byte	0x1
 5853 141e 3E01     		.2byte	0x13e
 5854 1420 01       		.byte	0x1
 5855 1421 00000000 		.4byte	.LFB11
 5856 1425 A4000000 		.4byte	.LFE11
 5857 1429 58080000 		.4byte	.LLST43
 5858 142d 01       		.byte	0x1
 5859 142e AB150000 		.4byte	0x15ab
 5860 1432 1E       		.uleb128 0x1e
 5861 1433 70636200 		.ascii	"pcb\000"
 5862 1437 01       		.byte	0x1
 5863 1438 3E01     		.2byte	0x13e
 5864 143a CB030000 		.4byte	0x3cb
ARM GAS  /tmp/ccqErZ7k.s 			page 105


 5865 143e 84080000 		.4byte	.LLST44
 5866 1442 26       		.uleb128 0x26
 5867 1443 8B080000 		.4byte	.LASF198
 5868 1447 01       		.byte	0x1
 5869 1448 3E01     		.2byte	0x13e
 5870 144a 29000000 		.4byte	0x29
 5871 144e B8080000 		.4byte	.LLST45
 5872 1452 28       		.uleb128 0x28
 5873 1453 53050000 		.4byte	.LASF129
 5874 1457 01       		.byte	0x1
 5875 1458 4001     		.2byte	0x140
 5876 145a F8000000 		.4byte	0xf8
 5877 145e EC080000 		.4byte	.LLST46
 5878 1462 28       		.uleb128 0x28
 5879 1463 49080000 		.4byte	.LASF130
 5880 1467 01       		.byte	0x1
 5881 1468 4001     		.2byte	0x140
 5882 146a F8000000 		.4byte	0xf8
 5883 146e 0A090000 		.4byte	.LLST47
 5884 1472 28       		.uleb128 0x28
 5885 1473 22070000 		.4byte	.LASF71
 5886 1477 01       		.byte	0x1
 5887 1478 4101     		.2byte	0x141
 5888 147a E2000000 		.4byte	0xe2
 5889 147e 28090000 		.4byte	.LLST48
 5890 1482 28       		.uleb128 0x28
 5891 1483 31030000 		.4byte	.LASF70
 5892 1487 01       		.byte	0x1
 5893 1488 4101     		.2byte	0x141
 5894 148a E2000000 		.4byte	0xe2
 5895 148e 52090000 		.4byte	.LLST49
 5896 1492 23       		.uleb128 0x23
 5897 1493 28080000 		.4byte	.LASF65
 5898 1497 01       		.byte	0x1
 5899 1498 4201     		.2byte	0x142
 5900 149a A2010000 		.4byte	0x1a2
 5901 149e 02       		.byte	0x2
 5902 149f 91       		.byte	0x91
 5903 14a0 50       		.sleb128 -48
 5904 14a1 23       		.uleb128 0x23
 5905 14a2 3A020000 		.4byte	.LASF64
 5906 14a6 01       		.byte	0x1
 5907 14a7 4201     		.2byte	0x142
 5908 14a9 A2010000 		.4byte	0x1a2
 5909 14ad 02       		.byte	0x2
 5910 14ae 91       		.byte	0x91
 5911 14af 54       		.sleb128 -44
 5912 14b0 28       		.uleb128 0x28
 5913 14b1 33090000 		.4byte	.LASF103
 5914 14b5 01       		.byte	0x1
 5915 14b6 4401     		.2byte	0x144
 5916 14b8 61070000 		.4byte	0x761
 5917 14bc 7C090000 		.4byte	.LLST50
 5918 14c0 28       		.uleb128 0x28
 5919 14c1 BD080000 		.4byte	.LASF199
 5920 14c5 01       		.byte	0x1
 5921 14c6 4601     		.2byte	0x146
ARM GAS  /tmp/ccqErZ7k.s 			page 106


 5922 14c8 B1000000 		.4byte	0xb1
 5923 14cc 9A090000 		.4byte	.LLST51
 5924 14d0 2A       		.uleb128 0x2a
 5925 14d1 3A000000 		.4byte	.LVL159
 5926 14d5 96130000 		.4byte	0x1396
 5927 14d9 ED140000 		.4byte	0x14ed
 5928 14dd 2B       		.uleb128 0x2b
 5929 14de 01       		.byte	0x1
 5930 14df 51       		.byte	0x51
 5931 14e0 02       		.byte	0x2
 5932 14e1 74       		.byte	0x74
 5933 14e2 00       		.sleb128 0
 5934 14e3 2B       		.uleb128 0x2b
 5935 14e4 01       		.byte	0x1
 5936 14e5 50       		.byte	0x50
 5937 14e6 05       		.byte	0x5
 5938 14e7 03       		.byte	0x3
 5939 14e8 00000000 		.4byte	.LANCHOR6
 5940 14ec 00       		.byte	0
 5941 14ed 29       		.uleb128 0x29
 5942 14ee 42000000 		.4byte	.LVL160
 5943 14f2 290F0000 		.4byte	0xf29
 5944 14f6 29       		.uleb128 0x29
 5945 14f7 4A000000 		.4byte	.LVL161
 5946 14fb 290F0000 		.4byte	0xf29
 5947 14ff 29       		.uleb128 0x29
 5948 1500 52000000 		.4byte	.LVL162
 5949 1504 290F0000 		.4byte	0xf29
 5950 1508 2A       		.uleb128 0x2a
 5951 1509 5A000000 		.4byte	.LVL163
 5952 150d B11E0000 		.4byte	0x1eb1
 5953 1511 21150000 		.4byte	0x1521
 5954 1515 2B       		.uleb128 0x2b
 5955 1516 01       		.byte	0x1
 5956 1517 51       		.byte	0x51
 5957 1518 02       		.byte	0x2
 5958 1519 74       		.byte	0x74
 5959 151a 00       		.sleb128 0
 5960 151b 2B       		.uleb128 0x2b
 5961 151c 01       		.byte	0x1
 5962 151d 50       		.byte	0x50
 5963 151e 01       		.byte	0x1
 5964 151f 32       		.byte	0x32
 5965 1520 00       		.byte	0
 5966 1521 37       		.uleb128 0x37
 5967 1522 64000000 		.4byte	.LVL164
 5968 1526 37150000 		.4byte	0x1537
 5969 152a 2B       		.uleb128 0x2b
 5970 152b 01       		.byte	0x1
 5971 152c 51       		.byte	0x51
 5972 152d 02       		.byte	0x2
 5973 152e 09       		.byte	0x9
 5974 152f F6       		.byte	0xf6
 5975 1530 2B       		.uleb128 0x2b
 5976 1531 01       		.byte	0x1
 5977 1532 50       		.byte	0x50
 5978 1533 02       		.byte	0x2
ARM GAS  /tmp/ccqErZ7k.s 			page 107


 5979 1534 77       		.byte	0x77
 5980 1535 00       		.sleb128 0
 5981 1536 00       		.byte	0
 5982 1537 2A       		.uleb128 0x2a
 5983 1538 80000000 		.4byte	.LVL167
 5984 153c 0F1F0000 		.4byte	0x1f0f
 5985 1540 6B150000 		.4byte	0x156b
 5986 1544 2B       		.uleb128 0x2b
 5987 1545 01       		.byte	0x1
 5988 1546 53       		.byte	0x53
 5989 1547 02       		.byte	0x2
 5990 1548 91       		.byte	0x91
 5991 1549 50       		.sleb128 -48
 5992 154a 2B       		.uleb128 0x2b
 5993 154b 01       		.byte	0x1
 5994 154c 52       		.byte	0x52
 5995 154d 02       		.byte	0x2
 5996 154e 91       		.byte	0x91
 5997 154f 54       		.sleb128 -44
 5998 1550 2B       		.uleb128 0x2b
 5999 1551 01       		.byte	0x1
 6000 1552 51       		.byte	0x51
 6001 1553 02       		.byte	0x2
 6002 1554 78       		.byte	0x78
 6003 1555 00       		.sleb128 0
 6004 1556 2B       		.uleb128 0x2b
 6005 1557 01       		.byte	0x1
 6006 1558 50       		.byte	0x50
 6007 1559 02       		.byte	0x2
 6008 155a 79       		.byte	0x79
 6009 155b 00       		.sleb128 0
 6010 155c 2B       		.uleb128 0x2b
 6011 155d 02       		.byte	0x2
 6012 155e 7D       		.byte	0x7d
 6013 155f 04       		.sleb128 4
 6014 1560 02       		.byte	0x2
 6015 1561 7A       		.byte	0x7a
 6016 1562 00       		.sleb128 0
 6017 1563 2B       		.uleb128 0x2b
 6018 1564 02       		.byte	0x2
 6019 1565 7D       		.byte	0x7d
 6020 1566 00       		.sleb128 0
 6021 1567 02       		.byte	0x2
 6022 1568 7B       		.byte	0x7b
 6023 1569 00       		.sleb128 0
 6024 156a 00       		.byte	0
 6025 156b 2A       		.uleb128 0x2a
 6026 156c 8A000000 		.4byte	.LVL169
 6027 1570 96130000 		.4byte	0x1396
 6028 1574 88150000 		.4byte	0x1588
 6029 1578 2B       		.uleb128 0x2b
 6030 1579 01       		.byte	0x1
 6031 157a 51       		.byte	0x51
 6032 157b 02       		.byte	0x2
 6033 157c 74       		.byte	0x74
 6034 157d 00       		.sleb128 0
 6035 157e 2B       		.uleb128 0x2b
ARM GAS  /tmp/ccqErZ7k.s 			page 108


 6036 157f 01       		.byte	0x1
 6037 1580 50       		.byte	0x50
 6038 1581 05       		.byte	0x5
 6039 1582 03       		.byte	0x3
 6040 1583 00000000 		.4byte	.LANCHOR7
 6041 1587 00       		.byte	0
 6042 1588 2A       		.uleb128 0x2a
 6043 1589 92000000 		.4byte	.LVL170
 6044 158d B11E0000 		.4byte	0x1eb1
 6045 1591 A1150000 		.4byte	0x15a1
 6046 1595 2B       		.uleb128 0x2b
 6047 1596 01       		.byte	0x1
 6048 1597 51       		.byte	0x51
 6049 1598 02       		.byte	0x2
 6050 1599 74       		.byte	0x74
 6051 159a 00       		.sleb128 0
 6052 159b 2B       		.uleb128 0x2b
 6053 159c 01       		.byte	0x1
 6054 159d 50       		.byte	0x50
 6055 159e 01       		.byte	0x1
 6056 159f 32       		.byte	0x32
 6057 15a0 00       		.byte	0
 6058 15a1 29       		.uleb128 0x29
 6059 15a2 98000000 		.4byte	.LVL172
 6060 15a6 8E1E0000 		.4byte	0x1e8e
 6061 15aa 00       		.byte	0
 6062 15ab 31       		.uleb128 0x31
 6063 15ac 01       		.byte	0x1
 6064 15ad AF050000 		.4byte	.LASF200
 6065 15b1 01       		.byte	0x1
 6066 15b2 7C01     		.2byte	0x17c
 6067 15b4 01       		.byte	0x1
 6068 15b5 00000000 		.4byte	.LFB12
 6069 15b9 06000000 		.4byte	.LFE12
 6070 15bd 02       		.byte	0x2
 6071 15be 7D       		.byte	0x7d
 6072 15bf 00       		.sleb128 0
 6073 15c0 01       		.byte	0x1
 6074 15c1 ED150000 		.4byte	0x15ed
 6075 15c5 1E       		.uleb128 0x1e
 6076 15c6 70636200 		.ascii	"pcb\000"
 6077 15ca 01       		.byte	0x1
 6078 15cb 7C01     		.2byte	0x17c
 6079 15cd CB030000 		.4byte	0x3cb
 6080 15d1 B8090000 		.4byte	.LLST52
 6081 15d5 2F       		.uleb128 0x2f
 6082 15d6 06000000 		.4byte	.LVL174
 6083 15da 01       		.byte	0x1
 6084 15db 17140000 		.4byte	0x1417
 6085 15df 2B       		.uleb128 0x2b
 6086 15e0 01       		.byte	0x1
 6087 15e1 51       		.byte	0x51
 6088 15e2 01       		.byte	0x1
 6089 15e3 31       		.byte	0x31
 6090 15e4 2B       		.uleb128 0x2b
 6091 15e5 01       		.byte	0x1
 6092 15e6 50       		.byte	0x50
ARM GAS  /tmp/ccqErZ7k.s 			page 109


 6093 15e7 03       		.byte	0x3
 6094 15e8 F3       		.byte	0xf3
 6095 15e9 01       		.uleb128 0x1
 6096 15ea 50       		.byte	0x50
 6097 15eb 00       		.byte	0
 6098 15ec 00       		.byte	0
 6099 15ed 39       		.uleb128 0x39
 6100 15ee 64080000 		.4byte	.LASF203
 6101 15f2 01       		.byte	0x1
 6102 15f3 8004     		.2byte	0x480
 6103 15f5 01       		.byte	0x1
 6104 15f6 01       		.byte	0x1
 6105 15f7 20160000 		.4byte	0x1620
 6106 15fb 1C       		.uleb128 0x1c
 6107 15fc 70636200 		.ascii	"pcb\000"
 6108 1600 01       		.byte	0x1
 6109 1601 8204     		.2byte	0x482
 6110 1603 CB030000 		.4byte	0x3cb
 6111 1607 3A       		.uleb128 0x3a
 6112 1608 82090000 		.4byte	.LASF201
 6113 160c 01       		.byte	0x1
 6114 160d 8204     		.2byte	0x482
 6115 160f CB030000 		.4byte	0x3cb
 6116 1613 3A       		.uleb128 0x3a
 6117 1614 DA060000 		.4byte	.LASF202
 6118 1618 01       		.byte	0x1
 6119 1619 8304     		.2byte	0x483
 6120 161b F8000000 		.4byte	0xf8
 6121 161f 00       		.byte	0
 6122 1620 39       		.uleb128 0x39
 6123 1621 F4050000 		.4byte	.LASF204
 6124 1625 01       		.byte	0x1
 6125 1626 5F04     		.2byte	0x45f
 6126 1628 01       		.byte	0x1
 6127 1629 01       		.byte	0x1
 6128 162a 6B160000 		.4byte	0x166b
 6129 162e 3B       		.uleb128 0x3b
 6130 162f 35010000 		.4byte	.LASF67
 6131 1633 01       		.byte	0x1
 6132 1634 5F04     		.2byte	0x45f
 6133 1636 CC000000 		.4byte	0xcc
 6134 163a 1C       		.uleb128 0x1c
 6135 163b 70636200 		.ascii	"pcb\000"
 6136 163f 01       		.byte	0x1
 6137 1640 6104     		.2byte	0x461
 6138 1642 CB030000 		.4byte	0x3cb
 6139 1646 3A       		.uleb128 0x3a
 6140 1647 82090000 		.4byte	.LASF201
 6141 164b 01       		.byte	0x1
 6142 164c 6104     		.2byte	0x461
 6143 164e CB030000 		.4byte	0x3cb
 6144 1652 3A       		.uleb128 0x3a
 6145 1653 DA060000 		.4byte	.LASF202
 6146 1657 01       		.byte	0x1
 6147 1658 6204     		.2byte	0x462
 6148 165a F8000000 		.4byte	0xf8
 6149 165e 3A       		.uleb128 0x3a
ARM GAS  /tmp/ccqErZ7k.s 			page 110


 6150 165f B8070000 		.4byte	.LASF205
 6151 1663 01       		.byte	0x1
 6152 1664 6304     		.2byte	0x463
 6153 1666 CC000000 		.4byte	0xcc
 6154 166a 00       		.byte	0
 6155 166b 25       		.uleb128 0x25
 6156 166c 01       		.byte	0x1
 6157 166d B2090000 		.4byte	.LASF206
 6158 1671 01       		.byte	0x1
 6159 1672 9C04     		.2byte	0x49c
 6160 1674 01       		.byte	0x1
 6161 1675 CB030000 		.4byte	0x3cb
 6162 1679 00000000 		.4byte	.LFB29
 6163 167d 3C010000 		.4byte	.LFE29
 6164 1681 D9090000 		.4byte	.LLST53
 6165 1685 01       		.byte	0x1
 6166 1686 C9170000 		.4byte	0x17c9
 6167 168a 26       		.uleb128 0x26
 6168 168b 35010000 		.4byte	.LASF67
 6169 168f 01       		.byte	0x1
 6170 1690 9C04     		.2byte	0x49c
 6171 1692 CC000000 		.4byte	0xcc
 6172 1696 F9090000 		.4byte	.LLST54
 6173 169a 21       		.uleb128 0x21
 6174 169b 70636200 		.ascii	"pcb\000"
 6175 169f 01       		.byte	0x1
 6176 16a0 9E04     		.2byte	0x49e
 6177 16a2 CB030000 		.4byte	0x3cb
 6178 16a6 1A0A0000 		.4byte	.LLST55
 6179 16aa 22       		.uleb128 0x22
 6180 16ab 69737300 		.ascii	"iss\000"
 6181 16af 01       		.byte	0x1
 6182 16b0 9F04     		.2byte	0x49f
 6183 16b2 F8000000 		.4byte	0xf8
 6184 16b6 01       		.byte	0x1
 6185 16b7 53       		.byte	0x53
 6186 16b8 3C       		.uleb128 0x3c
 6187 16b9 1C0C0000 		.4byte	0xc1c
 6188 16bd 1C000000 		.4byte	.LBB27
 6189 16c1 60000000 		.4byte	.Ldebug_ranges0+0x60
 6190 16c5 01       		.byte	0x1
 6191 16c6 C904     		.2byte	0x4c9
 6192 16c8 DE160000 		.4byte	0x16de
 6193 16cc 2C       		.uleb128 0x2c
 6194 16cd 80000000 		.4byte	.Ldebug_ranges0+0x80
 6195 16d1 3D       		.uleb128 0x3d
 6196 16d2 2F0C0000 		.4byte	0xc2f
 6197 16d6 05       		.byte	0x5
 6198 16d7 03       		.byte	0x3
 6199 16d8 00000000 		.4byte	iss.6043
 6200 16dc 00       		.byte	0
 6201 16dd 00       		.byte	0
 6202 16de 3E       		.uleb128 0x3e
 6203 16df ED150000 		.4byte	0x15ed
 6204 16e3 9C000000 		.4byte	.LBB33
 6205 16e7 C4000000 		.4byte	.LBE33
 6206 16eb 01       		.byte	0x1
ARM GAS  /tmp/ccqErZ7k.s 			page 111


 6207 16ec A504     		.2byte	0x4a5
 6208 16ee 21170000 		.4byte	0x1721
 6209 16f2 30       		.uleb128 0x30
 6210 16f3 9C000000 		.4byte	.LBB34
 6211 16f7 C4000000 		.4byte	.LBE34
 6212 16fb 3F       		.uleb128 0x3f
 6213 16fc FB150000 		.4byte	0x15fb
 6214 1700 590A0000 		.4byte	.LLST56
 6215 1704 3F       		.uleb128 0x3f
 6216 1705 07160000 		.4byte	0x1607
 6217 1709 6C0A0000 		.4byte	.LLST57
 6218 170d 3F       		.uleb128 0x3f
 6219 170e 13160000 		.4byte	0x1613
 6220 1712 800A0000 		.4byte	.LLST58
 6221 1716 29       		.uleb128 0x29
 6222 1717 C4000000 		.4byte	.LVL186
 6223 171b AB150000 		.4byte	0x15ab
 6224 171f 00       		.byte	0
 6225 1720 00       		.byte	0
 6226 1721 3E       		.uleb128 0x3e
 6227 1722 20160000 		.4byte	0x1620
 6228 1726 DC000000 		.4byte	.LBB35
 6229 172a 0C010000 		.4byte	.LBE35
 6230 172e 01       		.byte	0x1
 6231 172f AB04     		.2byte	0x4ab
 6232 1731 74170000 		.4byte	0x1774
 6233 1735 40       		.uleb128 0x40
 6234 1736 2E160000 		.4byte	0x162e
 6235 173a 01       		.byte	0x1
 6236 173b 57       		.byte	0x57
 6237 173c 30       		.uleb128 0x30
 6238 173d DC000000 		.4byte	.LBB36
 6239 1741 0C010000 		.4byte	.LBE36
 6240 1745 3F       		.uleb128 0x3f
 6241 1746 3A160000 		.4byte	0x163a
 6242 174a AA0A0000 		.4byte	.LLST59
 6243 174e 3F       		.uleb128 0x3f
 6244 174f 46160000 		.4byte	0x1646
 6245 1753 BD0A0000 		.4byte	.LLST60
 6246 1757 3F       		.uleb128 0x3f
 6247 1758 52160000 		.4byte	0x1652
 6248 175c D10A0000 		.4byte	.LLST61
 6249 1760 3F       		.uleb128 0x3f
 6250 1761 5E160000 		.4byte	0x165e
 6251 1765 F00A0000 		.4byte	.LLST62
 6252 1769 29       		.uleb128 0x29
 6253 176a 0C010000 		.4byte	.LVL193
 6254 176e AB150000 		.4byte	0x15ab
 6255 1772 00       		.byte	0
 6256 1773 00       		.byte	0
 6257 1774 2A       		.uleb128 0x2a
 6258 1775 0C000000 		.4byte	.LVL177
 6259 1779 991E0000 		.4byte	0x1e99
 6260 177d 87170000 		.4byte	0x1787
 6261 1781 2B       		.uleb128 0x2b
 6262 1782 01       		.byte	0x1
 6263 1783 50       		.byte	0x50
ARM GAS  /tmp/ccqErZ7k.s 			page 112


 6264 1784 01       		.byte	0x1
 6265 1785 32       		.byte	0x32
 6266 1786 00       		.byte	0
 6267 1787 2A       		.uleb128 0x2a
 6268 1788 1C000000 		.4byte	.LVL178
 6269 178c 7B1F0000 		.4byte	0x1f7b
 6270 1790 A6170000 		.4byte	0x17a6
 6271 1794 2B       		.uleb128 0x2b
 6272 1795 01       		.byte	0x1
 6273 1796 52       		.byte	0x52
 6274 1797 02       		.byte	0x2
 6275 1798 08       		.byte	0x8
 6276 1799 A4       		.byte	0xa4
 6277 179a 2B       		.uleb128 0x2b
 6278 179b 01       		.byte	0x1
 6279 179c 51       		.byte	0x51
 6280 179d 01       		.byte	0x1
 6281 179e 30       		.byte	0x30
 6282 179f 2B       		.uleb128 0x2b
 6283 17a0 01       		.byte	0x1
 6284 17a1 50       		.byte	0x50
 6285 17a2 02       		.byte	0x2
 6286 17a3 74       		.byte	0x74
 6287 17a4 00       		.sleb128 0
 6288 17a5 00       		.byte	0
 6289 17a6 2A       		.uleb128 0x2a
 6290 17a7 CA000000 		.4byte	.LVL187
 6291 17ab 991E0000 		.4byte	0x1e99
 6292 17af B9170000 		.4byte	0x17b9
 6293 17b3 2B       		.uleb128 0x2b
 6294 17b4 01       		.byte	0x1
 6295 17b5 50       		.byte	0x50
 6296 17b6 01       		.byte	0x1
 6297 17b7 32       		.byte	0x32
 6298 17b8 00       		.byte	0
 6299 17b9 38       		.uleb128 0x38
 6300 17ba 12010000 		.4byte	.LVL194
 6301 17be 991E0000 		.4byte	0x1e99
 6302 17c2 2B       		.uleb128 0x2b
 6303 17c3 01       		.byte	0x1
 6304 17c4 50       		.byte	0x50
 6305 17c5 01       		.byte	0x1
 6306 17c6 32       		.byte	0x32
 6307 17c7 00       		.byte	0
 6308 17c8 00       		.byte	0
 6309 17c9 41       		.uleb128 0x41
 6310 17ca 01       		.byte	0x1
 6311 17cb 6F010000 		.4byte	.LASF207
 6312 17cf 01       		.byte	0x1
 6313 17d0 F004     		.2byte	0x4f0
 6314 17d2 01       		.byte	0x1
 6315 17d3 CB030000 		.4byte	0x3cb
 6316 17d7 00000000 		.4byte	.LFB30
 6317 17db 06000000 		.4byte	.LFE30
 6318 17df 02       		.byte	0x2
 6319 17e0 7D       		.byte	0x7d
 6320 17e1 00       		.sleb128 0
ARM GAS  /tmp/ccqErZ7k.s 			page 113


 6321 17e2 01       		.byte	0x1
 6322 17e3 F9170000 		.4byte	0x17f9
 6323 17e7 2F       		.uleb128 0x2f
 6324 17e8 06000000 		.4byte	.LVL195
 6325 17ec 01       		.byte	0x1
 6326 17ed 6B160000 		.4byte	0x166b
 6327 17f1 2B       		.uleb128 0x2b
 6328 17f2 01       		.byte	0x1
 6329 17f3 50       		.byte	0x50
 6330 17f4 02       		.byte	0x2
 6331 17f5 08       		.byte	0x8
 6332 17f6 40       		.byte	0x40
 6333 17f7 00       		.byte	0
 6334 17f8 00       		.byte	0
 6335 17f9 42       		.uleb128 0x42
 6336 17fa 43040000 		.4byte	.LASF208
 6337 17fe 01       		.byte	0x1
 6338 17ff 8A       		.byte	0x8a
 6339 1800 01       		.byte	0x1
 6340 1801 AD010000 		.4byte	0x1ad
 6341 1805 00000000 		.4byte	.LFB8
 6342 1809 48010000 		.4byte	.LFE8
 6343 180d 100B0000 		.4byte	.LLST63
 6344 1811 01       		.byte	0x1
 6345 1812 33190000 		.4byte	0x1933
 6346 1816 43       		.uleb128 0x43
 6347 1817 70636200 		.ascii	"pcb\000"
 6348 181b 01       		.byte	0x1
 6349 181c 8A       		.byte	0x8a
 6350 181d CB030000 		.4byte	0x3cb
 6351 1821 3C0B0000 		.4byte	.LLST64
 6352 1825 44       		.uleb128 0x44
 6353 1826 A0060000 		.4byte	.LASF209
 6354 182a 01       		.byte	0x1
 6355 182b 8A       		.byte	0x8a
 6356 182c CC000000 		.4byte	0xcc
 6357 1830 EB0B0000 		.4byte	.LLST65
 6358 1834 45       		.uleb128 0x45
 6359 1835 65727200 		.ascii	"err\000"
 6360 1839 01       		.byte	0x1
 6361 183a 8C       		.byte	0x8c
 6362 183b AD010000 		.4byte	0x1ad
 6363 183f AD0C0000 		.4byte	.LLST66
 6364 1843 2A       		.uleb128 0x2a
 6365 1844 3A000000 		.4byte	.LVL198
 6366 1848 0F1F0000 		.4byte	0x1f0f
 6367 184c 64180000 		.4byte	0x1864
 6368 1850 2B       		.uleb128 0x2b
 6369 1851 01       		.byte	0x1
 6370 1852 53       		.byte	0x53
 6371 1853 02       		.byte	0x2
 6372 1854 74       		.byte	0x74
 6373 1855 04       		.sleb128 4
 6374 1856 2B       		.uleb128 0x2b
 6375 1857 01       		.byte	0x1
 6376 1858 52       		.byte	0x52
 6377 1859 02       		.byte	0x2
ARM GAS  /tmp/ccqErZ7k.s 			page 114


 6378 185a 74       		.byte	0x74
 6379 185b 00       		.sleb128 0
 6380 185c 2B       		.uleb128 0x2b
 6381 185d 02       		.byte	0x2
 6382 185e 7D       		.byte	0x7d
 6383 185f 04       		.sleb128 4
 6384 1860 02       		.byte	0x2
 6385 1861 75       		.byte	0x75
 6386 1862 00       		.sleb128 0
 6387 1863 00       		.byte	0
 6388 1864 2A       		.uleb128 0x2a
 6389 1865 40000000 		.4byte	.LVL199
 6390 1869 BE0B0000 		.4byte	0xbbe
 6391 186d 78180000 		.4byte	0x1878
 6392 1871 2B       		.uleb128 0x2b
 6393 1872 01       		.byte	0x1
 6394 1873 50       		.byte	0x50
 6395 1874 02       		.byte	0x2
 6396 1875 74       		.byte	0x74
 6397 1876 00       		.sleb128 0
 6398 1877 00       		.byte	0
 6399 1878 29       		.uleb128 0x29
 6400 1879 74000000 		.4byte	.LVL200
 6401 187d 831E0000 		.4byte	0x1e83
 6402 1881 2A       		.uleb128 0x2a
 6403 1882 96000000 		.4byte	.LVL203
 6404 1886 9C1F0000 		.4byte	0x1f9c
 6405 188a 95180000 		.4byte	0x1895
 6406 188e 2B       		.uleb128 0x2b
 6407 188f 01       		.byte	0x1
 6408 1890 50       		.byte	0x50
 6409 1891 02       		.byte	0x2
 6410 1892 74       		.byte	0x74
 6411 1893 00       		.sleb128 0
 6412 1894 00       		.byte	0
 6413 1895 2A       		.uleb128 0x2a
 6414 1896 A2000000 		.4byte	.LVL205
 6415 189a CA1E0000 		.4byte	0x1eca
 6416 189e A9180000 		.4byte	0x18a9
 6417 18a2 2B       		.uleb128 0x2b
 6418 18a3 01       		.byte	0x1
 6419 18a4 50       		.byte	0x50
 6420 18a5 02       		.byte	0x2
 6421 18a6 74       		.byte	0x74
 6422 18a7 00       		.sleb128 0
 6423 18a8 00       		.byte	0
 6424 18a9 2A       		.uleb128 0x2a
 6425 18aa B2000000 		.4byte	.LVL209
 6426 18ae 96130000 		.4byte	0x1396
 6427 18b2 C6180000 		.4byte	0x18c6
 6428 18b6 2B       		.uleb128 0x2b
 6429 18b7 01       		.byte	0x1
 6430 18b8 51       		.byte	0x51
 6431 18b9 02       		.byte	0x2
 6432 18ba 74       		.byte	0x74
 6433 18bb 00       		.sleb128 0
 6434 18bc 2B       		.uleb128 0x2b
ARM GAS  /tmp/ccqErZ7k.s 			page 115


 6435 18bd 01       		.byte	0x1
 6436 18be 50       		.byte	0x50
 6437 18bf 05       		.byte	0x5
 6438 18c0 03       		.byte	0x3
 6439 18c1 00000000 		.4byte	.LANCHOR4
 6440 18c5 00       		.byte	0
 6441 18c6 2A       		.uleb128 0x2a
 6442 18c7 BA000000 		.4byte	.LVL210
 6443 18cb B11E0000 		.4byte	0x1eb1
 6444 18cf DF180000 		.4byte	0x18df
 6445 18d3 2B       		.uleb128 0x2b
 6446 18d4 01       		.byte	0x1
 6447 18d5 51       		.byte	0x51
 6448 18d6 02       		.byte	0x2
 6449 18d7 74       		.byte	0x74
 6450 18d8 00       		.sleb128 0
 6451 18d9 2B       		.uleb128 0x2b
 6452 18da 01       		.byte	0x1
 6453 18db 50       		.byte	0x50
 6454 18dc 01       		.byte	0x1
 6455 18dd 33       		.byte	0x33
 6456 18de 00       		.byte	0
 6457 18df 2A       		.uleb128 0x2a
 6458 18e0 E8000000 		.4byte	.LVL216
 6459 18e4 96130000 		.4byte	0x1396
 6460 18e8 FC180000 		.4byte	0x18fc
 6461 18ec 2B       		.uleb128 0x2b
 6462 18ed 01       		.byte	0x1
 6463 18ee 51       		.byte	0x51
 6464 18ef 02       		.byte	0x2
 6465 18f0 74       		.byte	0x74
 6466 18f1 00       		.sleb128 0
 6467 18f2 2B       		.uleb128 0x2b
 6468 18f3 01       		.byte	0x1
 6469 18f4 50       		.byte	0x50
 6470 18f5 05       		.byte	0x5
 6471 18f6 03       		.byte	0x3
 6472 18f7 00000000 		.4byte	.LANCHOR6
 6473 18fb 00       		.byte	0
 6474 18fc 2A       		.uleb128 0x2a
 6475 18fd F0000000 		.4byte	.LVL217
 6476 1901 B11E0000 		.4byte	0x1eb1
 6477 1905 15190000 		.4byte	0x1915
 6478 1909 2B       		.uleb128 0x2b
 6479 190a 01       		.byte	0x1
 6480 190b 51       		.byte	0x51
 6481 190c 02       		.byte	0x2
 6482 190d 74       		.byte	0x74
 6483 190e 00       		.sleb128 0
 6484 190f 2B       		.uleb128 0x2b
 6485 1910 01       		.byte	0x1
 6486 1911 50       		.byte	0x50
 6487 1912 01       		.byte	0x1
 6488 1913 32       		.byte	0x32
 6489 1914 00       		.byte	0
 6490 1915 2A       		.uleb128 0x2a
 6491 1916 F8000000 		.4byte	.LVL220
ARM GAS  /tmp/ccqErZ7k.s 			page 116


 6492 191a 9C1F0000 		.4byte	0x1f9c
 6493 191e 29190000 		.4byte	0x1929
 6494 1922 2B       		.uleb128 0x2b
 6495 1923 01       		.byte	0x1
 6496 1924 50       		.byte	0x50
 6497 1925 02       		.byte	0x2
 6498 1926 74       		.byte	0x74
 6499 1927 00       		.sleb128 0
 6500 1928 00       		.byte	0
 6501 1929 29       		.uleb128 0x29
 6502 192a 0E010000 		.4byte	.LVL223
 6503 192e 8E1E0000 		.4byte	0x1e8e
 6504 1932 00       		.byte	0
 6505 1933 25       		.uleb128 0x25
 6506 1934 01       		.byte	0x1
 6507 1935 75090000 		.4byte	.LASF210
 6508 1939 01       		.byte	0x1
 6509 193a 1601     		.2byte	0x116
 6510 193c 01       		.byte	0x1
 6511 193d AD010000 		.4byte	0x1ad
 6512 1941 00000000 		.4byte	.LFB10
 6513 1945 58000000 		.4byte	.LFE10
 6514 1949 EF0C0000 		.4byte	.LLST67
 6515 194d 01       		.byte	0x1
 6516 194e A2190000 		.4byte	0x19a2
 6517 1952 1E       		.uleb128 0x1e
 6518 1953 70636200 		.ascii	"pcb\000"
 6519 1957 01       		.byte	0x1
 6520 1958 1601     		.2byte	0x116
 6521 195a CB030000 		.4byte	0x3cb
 6522 195e 0F0D0000 		.4byte	.LLST68
 6523 1962 26       		.uleb128 0x26
 6524 1963 9C090000 		.4byte	.LASF211
 6525 1967 01       		.byte	0x1
 6526 1968 1601     		.2byte	0x116
 6527 196a 29000000 		.4byte	0x29
 6528 196e 430D0000 		.4byte	.LLST69
 6529 1972 26       		.uleb128 0x26
 6530 1973 370A0000 		.4byte	.LASF212
 6531 1977 01       		.byte	0x1
 6532 1978 1601     		.2byte	0x116
 6533 197a 29000000 		.4byte	0x29
 6534 197e 6F0D0000 		.4byte	.LLST70
 6535 1982 29       		.uleb128 0x29
 6536 1983 18000000 		.4byte	.LVL228
 6537 1987 E31E0000 		.4byte	0x1ee3
 6538 198b 2F       		.uleb128 0x2f
 6539 198c 54000000 		.4byte	.LVL229
 6540 1990 01       		.byte	0x1
 6541 1991 F9170000 		.4byte	0x17f9
 6542 1995 2B       		.uleb128 0x2b
 6543 1996 01       		.byte	0x1
 6544 1997 51       		.byte	0x51
 6545 1998 01       		.byte	0x1
 6546 1999 30       		.byte	0x30
 6547 199a 2B       		.uleb128 0x2b
 6548 199b 01       		.byte	0x1
ARM GAS  /tmp/ccqErZ7k.s 			page 117


 6549 199c 50       		.byte	0x50
 6550 199d 02       		.byte	0x2
 6551 199e 74       		.byte	0x74
 6552 199f 00       		.sleb128 0
 6553 19a0 00       		.byte	0
 6554 19a1 00       		.byte	0
 6555 19a2 46       		.uleb128 0x46
 6556 19a3 01       		.byte	0x1
 6557 19a4 7D030000 		.4byte	.LASF213
 6558 19a8 01       		.byte	0x1
 6559 19a9 FC       		.byte	0xfc
 6560 19aa 01       		.byte	0x1
 6561 19ab AD010000 		.4byte	0x1ad
 6562 19af 00000000 		.4byte	.LFB9
 6563 19b3 18000000 		.4byte	.LFE9
 6564 19b7 02       		.byte	0x2
 6565 19b8 7D       		.byte	0x7d
 6566 19b9 00       		.sleb128 0
 6567 19ba 01       		.byte	0x1
 6568 19bb E6190000 		.4byte	0x19e6
 6569 19bf 43       		.uleb128 0x43
 6570 19c0 70636200 		.ascii	"pcb\000"
 6571 19c4 01       		.byte	0x1
 6572 19c5 FC       		.byte	0xfc
 6573 19c6 CB030000 		.4byte	0x3cb
 6574 19ca 980D0000 		.4byte	.LLST71
 6575 19ce 2F       		.uleb128 0x2f
 6576 19cf 18000000 		.4byte	.LVL232
 6577 19d3 01       		.byte	0x1
 6578 19d4 F9170000 		.4byte	0x17f9
 6579 19d8 2B       		.uleb128 0x2b
 6580 19d9 01       		.byte	0x1
 6581 19da 51       		.byte	0x51
 6582 19db 01       		.byte	0x1
 6583 19dc 31       		.byte	0x31
 6584 19dd 2B       		.uleb128 0x2b
 6585 19de 01       		.byte	0x1
 6586 19df 50       		.byte	0x50
 6587 19e0 03       		.byte	0x3
 6588 19e1 F3       		.byte	0xf3
 6589 19e2 01       		.uleb128 0x1
 6590 19e3 50       		.byte	0x50
 6591 19e4 00       		.byte	0
 6592 19e5 00       		.byte	0
 6593 19e6 33       		.uleb128 0x33
 6594 19e7 DA0B0000 		.4byte	0xbda
 6595 19eb 00000000 		.4byte	.LFB26
 6596 19ef 26000000 		.4byte	.LFE26
 6597 19f3 B90D0000 		.4byte	.LLST72
 6598 19f7 01       		.byte	0x1
 6599 19f8 8F1A0000 		.4byte	0x1a8f
 6600 19fc 34       		.uleb128 0x34
 6601 19fd ED0B0000 		.4byte	0xbed
 6602 1a01 D90D0000 		.4byte	.LLST73
 6603 1a05 34       		.uleb128 0x34
 6604 1a06 F90B0000 		.4byte	0xbf9
 6605 1a0a 130E0000 		.4byte	.LLST74
ARM GAS  /tmp/ccqErZ7k.s 			page 118


 6606 1a0e 34       		.uleb128 0x34
 6607 1a0f 050C0000 		.4byte	0xc05
 6608 1a13 580E0000 		.4byte	.LLST75
 6609 1a17 34       		.uleb128 0x34
 6610 1a18 0F0C0000 		.4byte	0xc0f
 6611 1a1c 8C0E0000 		.4byte	.LLST76
 6612 1a20 3C       		.uleb128 0x3c
 6613 1a21 DA0B0000 		.4byte	0xbda
 6614 1a25 18000000 		.4byte	.LBB39
 6615 1a29 A0000000 		.4byte	.Ldebug_ranges0+0xa0
 6616 1a2d 01       		.byte	0x1
 6617 1a2e 4C04     		.2byte	0x44c
 6618 1a30 691A0000 		.4byte	0x1a69
 6619 1a34 34       		.uleb128 0x34
 6620 1a35 0F0C0000 		.4byte	0xc0f
 6621 1a39 C60E0000 		.4byte	.LLST77
 6622 1a3d 34       		.uleb128 0x34
 6623 1a3e F90B0000 		.4byte	0xbf9
 6624 1a42 D90E0000 		.4byte	.LLST78
 6625 1a46 2C       		.uleb128 0x2c
 6626 1a47 B8000000 		.4byte	.Ldebug_ranges0+0xb8
 6627 1a4b 47       		.uleb128 0x47
 6628 1a4c 050C0000 		.4byte	0xc05
 6629 1a50 47       		.uleb128 0x47
 6630 1a51 ED0B0000 		.4byte	0xbed
 6631 1a55 2F       		.uleb128 0x2f
 6632 1a56 26000000 		.4byte	.LVL240
 6633 1a5a 01       		.byte	0x1
 6634 1a5b A2190000 		.4byte	0x19a2
 6635 1a5f 2B       		.uleb128 0x2b
 6636 1a60 01       		.byte	0x1
 6637 1a61 50       		.byte	0x50
 6638 1a62 03       		.byte	0x3
 6639 1a63 F3       		.byte	0xf3
 6640 1a64 01       		.uleb128 0x1
 6641 1a65 51       		.byte	0x51
 6642 1a66 00       		.byte	0
 6643 1a67 00       		.byte	0
 6644 1a68 00       		.byte	0
 6645 1a69 2A       		.uleb128 0x2a
 6646 1a6a 0E000000 		.4byte	.LVL236
 6647 1a6e 600E0000 		.4byte	0xe60
 6648 1a72 7E1A0000 		.4byte	0x1a7e
 6649 1a76 2B       		.uleb128 0x2b
 6650 1a77 01       		.byte	0x1
 6651 1a78 50       		.byte	0x50
 6652 1a79 03       		.byte	0x3
 6653 1a7a F3       		.byte	0xf3
 6654 1a7b 01       		.uleb128 0x1
 6655 1a7c 51       		.byte	0x51
 6656 1a7d 00       		.byte	0
 6657 1a7e 38       		.uleb128 0x38
 6658 1a7f 14000000 		.4byte	.LVL237
 6659 1a83 E31E0000 		.4byte	0x1ee3
 6660 1a87 2B       		.uleb128 0x2b
 6661 1a88 01       		.byte	0x1
 6662 1a89 50       		.byte	0x50
ARM GAS  /tmp/ccqErZ7k.s 			page 119


 6663 1a8a 02       		.byte	0x2
 6664 1a8b 74       		.byte	0x74
 6665 1a8c 00       		.sleb128 0
 6666 1a8d 00       		.byte	0
 6667 1a8e 00       		.byte	0
 6668 1a8f 2D       		.uleb128 0x2d
 6669 1a90 01       		.byte	0x1
 6670 1a91 77010000 		.4byte	.LASF214
 6671 1a95 01       		.byte	0x1
 6672 1a96 E103     		.2byte	0x3e1
 6673 1a98 01       		.byte	0x1
 6674 1a99 00000000 		.4byte	.LFB21
 6675 1a9d 74000000 		.4byte	.LFE21
 6676 1aa1 FA0E0000 		.4byte	.LLST79
 6677 1aa5 01       		.byte	0x1
 6678 1aa6 2F1B0000 		.4byte	0x1b2f
 6679 1aaa 21       		.uleb128 0x21
 6680 1aab 70636200 		.ascii	"pcb\000"
 6681 1aaf 01       		.byte	0x1
 6682 1ab0 E303     		.2byte	0x3e3
 6683 1ab2 CB030000 		.4byte	0x3cb
 6684 1ab6 1A0F0000 		.4byte	.LLST80
 6685 1aba 2C       		.uleb128 0x2c
 6686 1abb D0000000 		.4byte	.Ldebug_ranges0+0xd0
 6687 1abf 28       		.uleb128 0x28
 6688 1ac0 5B0A0000 		.4byte	.LASF45
 6689 1ac4 01       		.byte	0x1
 6690 1ac5 E603     		.2byte	0x3e6
 6691 1ac7 CB030000 		.4byte	0x3cb
 6692 1acb 430F0000 		.4byte	.LLST81
 6693 1acf 36       		.uleb128 0x36
 6694 1ad0 E8000000 		.4byte	.Ldebug_ranges0+0xe8
 6695 1ad4 1D1B0000 		.4byte	0x1b1d
 6696 1ad8 21       		.uleb128 0x21
 6697 1ad9 65727200 		.ascii	"err\000"
 6698 1add 01       		.byte	0x1
 6699 1ade EA03     		.2byte	0x3ea
 6700 1ae0 AD010000 		.4byte	0x1ad
 6701 1ae4 6C0F0000 		.4byte	.LLST82
 6702 1ae8 48       		.uleb128 0x48
 6703 1ae9 20000000 		.4byte	.LVL243
 6704 1aed 02       		.byte	0x2
 6705 1aee 75       		.byte	0x75
 6706 1aef 00       		.sleb128 0
 6707 1af0 001B0000 		.4byte	0x1b00
 6708 1af4 2B       		.uleb128 0x2b
 6709 1af5 01       		.byte	0x1
 6710 1af6 53       		.byte	0x53
 6711 1af7 01       		.byte	0x1
 6712 1af8 30       		.byte	0x30
 6713 1af9 2B       		.uleb128 0x2b
 6714 1afa 01       		.byte	0x1
 6715 1afb 51       		.byte	0x51
 6716 1afc 02       		.byte	0x2
 6717 1afd 74       		.byte	0x74
 6718 1afe 00       		.sleb128 0
 6719 1aff 00       		.byte	0
ARM GAS  /tmp/ccqErZ7k.s 			page 120


 6720 1b00 38       		.uleb128 0x38
 6721 1b01 6A000000 		.4byte	.LVL250
 6722 1b05 DA0B0000 		.4byte	0xbda
 6723 1b09 2B       		.uleb128 0x2b
 6724 1b0a 01       		.byte	0x1
 6725 1b0b 53       		.byte	0x53
 6726 1b0c 02       		.byte	0x2
 6727 1b0d 75       		.byte	0x75
 6728 1b0e 00       		.sleb128 0
 6729 1b0f 2B       		.uleb128 0x2b
 6730 1b10 01       		.byte	0x1
 6731 1b11 51       		.byte	0x51
 6732 1b12 02       		.byte	0x2
 6733 1b13 74       		.byte	0x74
 6734 1b14 00       		.sleb128 0
 6735 1b15 2B       		.uleb128 0x2b
 6736 1b16 01       		.byte	0x1
 6737 1b17 50       		.byte	0x50
 6738 1b18 02       		.byte	0x2
 6739 1b19 75       		.byte	0x75
 6740 1b1a 00       		.sleb128 0
 6741 1b1b 00       		.byte	0
 6742 1b1c 00       		.byte	0
 6743 1b1d 38       		.uleb128 0x38
 6744 1b1e 52000000 		.4byte	.LVL249
 6745 1b22 CA1E0000 		.4byte	0x1eca
 6746 1b26 2B       		.uleb128 0x2b
 6747 1b27 01       		.byte	0x1
 6748 1b28 50       		.byte	0x50
 6749 1b29 02       		.byte	0x2
 6750 1b2a 74       		.byte	0x74
 6751 1b2b 00       		.sleb128 0
 6752 1b2c 00       		.byte	0
 6753 1b2d 00       		.byte	0
 6754 1b2e 00       		.byte	0
 6755 1b2f 49       		.uleb128 0x49
 6756 1b30 01       		.byte	0x1
 6757 1b31 AD040000 		.4byte	.LASF215
 6758 1b35 01       		.byte	0x1
 6759 1b36 6D       		.byte	0x6d
 6760 1b37 01       		.byte	0x1
 6761 1b38 00000000 		.4byte	.LFB7
 6762 1b3c 24000000 		.4byte	.LFE7
 6763 1b40 950F0000 		.4byte	.LLST83
 6764 1b44 01       		.byte	0x1
 6765 1b45 5D1B0000 		.4byte	0x1b5d
 6766 1b49 29       		.uleb128 0x29
 6767 1b4a 06000000 		.4byte	.LVL252
 6768 1b4e 8F1A0000 		.4byte	0x1a8f
 6769 1b52 4A       		.uleb128 0x4a
 6770 1b53 1E000000 		.4byte	.LVL253
 6771 1b57 01       		.byte	0x1
 6772 1b58 C1110000 		.4byte	0x11c1
 6773 1b5c 00       		.byte	0
 6774 1b5d 4B       		.uleb128 0x4b
 6775 1b5e 1C0C0000 		.4byte	0xc1c
 6776 1b62 00000000 		.4byte	.LFB39
ARM GAS  /tmp/ccqErZ7k.s 			page 121


 6777 1b66 1A000000 		.4byte	.LFE39
 6778 1b6a 02       		.byte	0x2
 6779 1b6b 7D       		.byte	0x7d
 6780 1b6c 00       		.sleb128 0
 6781 1b6d 01       		.byte	0x1
 6782 1b6e 7E1B0000 		.4byte	0x1b7e
 6783 1b72 3D       		.uleb128 0x3d
 6784 1b73 2F0C0000 		.4byte	0xc2f
 6785 1b77 05       		.byte	0x5
 6786 1b78 03       		.byte	0x3
 6787 1b79 00000000 		.4byte	iss.6043
 6788 1b7d 00       		.byte	0
 6789 1b7e 25       		.uleb128 0x25
 6790 1b7f 01       		.byte	0x1
 6791 1b80 93010000 		.4byte	.LASF216
 6792 1b84 01       		.byte	0x1
 6793 1b85 C705     		.2byte	0x5c7
 6794 1b87 01       		.byte	0x1
 6795 1b88 E2000000 		.4byte	0xe2
 6796 1b8c 00000000 		.4byte	.LFB40
 6797 1b90 1E000000 		.4byte	.LFE40
 6798 1b94 B50F0000 		.4byte	.LLST84
 6799 1b98 01       		.byte	0x1
 6800 1b99 EF1B0000 		.4byte	0x1bef
 6801 1b9d 26       		.uleb128 0x26
 6802 1b9e C1050000 		.4byte	.LASF217
 6803 1ba2 01       		.byte	0x1
 6804 1ba3 C705     		.2byte	0x5c7
 6805 1ba5 E2000000 		.4byte	0xe2
 6806 1ba9 D50F0000 		.4byte	.LLST85
 6807 1bad 26       		.uleb128 0x26
 6808 1bae 86050000 		.4byte	.LASF44
 6809 1bb2 01       		.byte	0x1
 6810 1bb3 C705     		.2byte	0x5c7
 6811 1bb5 54030000 		.4byte	0x354
 6812 1bb9 01100000 		.4byte	.LLST86
 6813 1bbd 28       		.uleb128 0x28
 6814 1bbe 57010000 		.4byte	.LASF218
 6815 1bc2 01       		.byte	0x1
 6816 1bc3 C905     		.2byte	0x5c9
 6817 1bc5 E2000000 		.4byte	0xe2
 6818 1bc9 22100000 		.4byte	.LLST87
 6819 1bcd 28       		.uleb128 0x28
 6820 1bce B0030000 		.4byte	.LASF219
 6821 1bd2 01       		.byte	0x1
 6822 1bd3 CA05     		.2byte	0x5ca
 6823 1bd5 2D020000 		.4byte	0x22d
 6824 1bd9 56100000 		.4byte	.LLST88
 6825 1bdd 38       		.uleb128 0x38
 6826 1bde 0A000000 		.4byte	.LVL256
 6827 1be2 B51F0000 		.4byte	0x1fb5
 6828 1be6 2B       		.uleb128 0x2b
 6829 1be7 01       		.byte	0x1
 6830 1be8 50       		.byte	0x50
 6831 1be9 03       		.byte	0x3
 6832 1bea F3       		.byte	0xf3
 6833 1beb 01       		.uleb128 0x1
ARM GAS  /tmp/ccqErZ7k.s 			page 122


 6834 1bec 51       		.byte	0x51
 6835 1bed 00       		.byte	0
 6836 1bee 00       		.byte	0
 6837 1bef 25       		.uleb128 0x25
 6838 1bf0 01       		.byte	0x1
 6839 1bf1 0C030000 		.4byte	.LASF220
 6840 1bf5 01       		.byte	0x1
 6841 1bf6 8902     		.2byte	0x289
 6842 1bf8 01       		.byte	0x1
 6843 1bf9 AD010000 		.4byte	0x1ad
 6844 1bfd 00000000 		.4byte	.LFB19
 6845 1c01 14010000 		.4byte	.LFE19
 6846 1c05 69100000 		.4byte	.LLST89
 6847 1c09 01       		.byte	0x1
 6848 1c0a 301D0000 		.4byte	0x1d30
 6849 1c0e 1E       		.uleb128 0x1e
 6850 1c0f 70636200 		.ascii	"pcb\000"
 6851 1c13 01       		.byte	0x1
 6852 1c14 8902     		.2byte	0x289
 6853 1c16 CB030000 		.4byte	0x3cb
 6854 1c1a 89100000 		.4byte	.LLST90
 6855 1c1e 26       		.uleb128 0x26
 6856 1c1f 83010000 		.4byte	.LASF165
 6857 1c23 01       		.byte	0x1
 6858 1c24 8902     		.2byte	0x289
 6859 1c26 54030000 		.4byte	0x354
 6860 1c2a D3100000 		.4byte	.LLST91
 6861 1c2e 26       		.uleb128 0x26
 6862 1c2f CB080000 		.4byte	.LASF164
 6863 1c33 01       		.byte	0x1
 6864 1c34 8902     		.2byte	0x289
 6865 1c36 E2000000 		.4byte	0xe2
 6866 1c3a 63110000 		.4byte	.LLST92
 6867 1c3e 26       		.uleb128 0x26
 6868 1c3f 740A0000 		.4byte	.LASF101
 6869 1c43 01       		.byte	0x1
 6870 1c44 8A02     		.2byte	0x28a
 6871 1c46 83070000 		.4byte	0x783
 6872 1c4a B6110000 		.4byte	.LLST93
 6873 1c4e 21       		.uleb128 0x21
 6874 1c4f 72657400 		.ascii	"ret\000"
 6875 1c53 01       		.byte	0x1
 6876 1c54 8C02     		.2byte	0x28c
 6877 1c56 AD010000 		.4byte	0x1ad
 6878 1c5a 00120000 		.4byte	.LLST94
 6879 1c5e 22       		.uleb128 0x22
 6880 1c5f 69737300 		.ascii	"iss\000"
 6881 1c63 01       		.byte	0x1
 6882 1c64 8D02     		.2byte	0x28d
 6883 1c66 F8000000 		.4byte	0xf8
 6884 1c6a 01       		.byte	0x1
 6885 1c6b 52       		.byte	0x52
 6886 1c6c 28       		.uleb128 0x28
 6887 1c6d 91080000 		.4byte	.LASF221
 6888 1c71 01       		.byte	0x1
 6889 1c72 8E02     		.2byte	0x28e
 6890 1c74 E2000000 		.4byte	0xe2
ARM GAS  /tmp/ccqErZ7k.s 			page 123


 6891 1c78 1E120000 		.4byte	.LLST95
 6892 1c7c 36       		.uleb128 0x36
 6893 1c7d 08010000 		.4byte	.Ldebug_ranges0+0x108
 6894 1c81 A61C0000 		.4byte	0x1ca6
 6895 1c85 28       		.uleb128 0x28
 6896 1c86 68040000 		.4byte	.LASF50
 6897 1c8a 01       		.byte	0x1
 6898 1c8b 9D02     		.2byte	0x29d
 6899 1c8d 2D020000 		.4byte	0x22d
 6900 1c91 54120000 		.4byte	.LLST96
 6901 1c95 38       		.uleb128 0x38
 6902 1c96 24000000 		.4byte	.LVL266
 6903 1c9a B51F0000 		.4byte	0x1fb5
 6904 1c9e 2B       		.uleb128 0x2b
 6905 1c9f 01       		.byte	0x1
 6906 1ca0 50       		.byte	0x50
 6907 1ca1 02       		.byte	0x2
 6908 1ca2 74       		.byte	0x74
 6909 1ca3 04       		.sleb128 4
 6910 1ca4 00       		.byte	0
 6911 1ca5 00       		.byte	0
 6912 1ca6 3C       		.uleb128 0x3c
 6913 1ca7 1C0C0000 		.4byte	0xc1c
 6914 1cab 36000000 		.4byte	.LBB49
 6915 1caf 20010000 		.4byte	.Ldebug_ranges0+0x120
 6916 1cb3 01       		.byte	0x1
 6917 1cb4 BF02     		.2byte	0x2bf
 6918 1cb6 CC1C0000 		.4byte	0x1ccc
 6919 1cba 2C       		.uleb128 0x2c
 6920 1cbb 38010000 		.4byte	.Ldebug_ranges0+0x138
 6921 1cbf 3D       		.uleb128 0x3d
 6922 1cc0 2F0C0000 		.4byte	0xc2f
 6923 1cc4 05       		.byte	0x5
 6924 1cc5 03       		.byte	0x3
 6925 1cc6 00000000 		.4byte	iss.6043
 6926 1cca 00       		.byte	0
 6927 1ccb 00       		.byte	0
 6928 1ccc 2A       		.uleb128 0x2a
 6929 1ccd 6E000000 		.4byte	.LVL270
 6930 1cd1 7E1B0000 		.4byte	0x1b7e
 6931 1cd5 E71C0000 		.4byte	0x1ce7
 6932 1cd9 2B       		.uleb128 0x2b
 6933 1cda 01       		.byte	0x1
 6934 1cdb 51       		.byte	0x51
 6935 1cdc 02       		.byte	0x2
 6936 1cdd 75       		.byte	0x75
 6937 1cde 00       		.sleb128 0
 6938 1cdf 2B       		.uleb128 0x2b
 6939 1ce0 01       		.byte	0x1
 6940 1ce1 50       		.byte	0x50
 6941 1ce2 03       		.byte	0x3
 6942 1ce3 0A       		.byte	0xa
 6943 1ce4 1802     		.2byte	0x218
 6944 1ce6 00       		.byte	0
 6945 1ce7 2A       		.uleb128 0x2a
 6946 1ce8 8C000000 		.4byte	.LVL271
 6947 1cec CD1F0000 		.4byte	0x1fcd
ARM GAS  /tmp/ccqErZ7k.s 			page 124


 6948 1cf0 001D0000 		.4byte	0x1d00
 6949 1cf4 2B       		.uleb128 0x2b
 6950 1cf5 01       		.byte	0x1
 6951 1cf6 51       		.byte	0x51
 6952 1cf7 01       		.byte	0x1
 6953 1cf8 32       		.byte	0x32
 6954 1cf9 2B       		.uleb128 0x2b
 6955 1cfa 01       		.byte	0x1
 6956 1cfb 50       		.byte	0x50
 6957 1cfc 02       		.byte	0x2
 6958 1cfd 74       		.byte	0x74
 6959 1cfe 00       		.sleb128 0
 6960 1cff 00       		.byte	0
 6961 1d00 29       		.uleb128 0x29
 6962 1d01 CC000000 		.4byte	.LVL273
 6963 1d05 831E0000 		.4byte	0x1e83
 6964 1d09 2A       		.uleb128 0x2a
 6965 1d0a D2000000 		.4byte	.LVL274
 6966 1d0e CA1E0000 		.4byte	0x1eca
 6967 1d12 1D1D0000 		.4byte	0x1d1d
 6968 1d16 2B       		.uleb128 0x2b
 6969 1d17 01       		.byte	0x1
 6970 1d18 50       		.byte	0x50
 6971 1d19 02       		.byte	0x2
 6972 1d1a 74       		.byte	0x74
 6973 1d1b 00       		.sleb128 0
 6974 1d1c 00       		.byte	0
 6975 1d1d 29       		.uleb128 0x29
 6976 1d1e DC000000 		.4byte	.LVL276
 6977 1d22 860C0000 		.4byte	0xc86
 6978 1d26 29       		.uleb128 0x29
 6979 1d27 F2000000 		.4byte	.LVL279
 6980 1d2b 8E1E0000 		.4byte	0x1e8e
 6981 1d2f 00       		.byte	0
 6982 1d30 41       		.uleb128 0x41
 6983 1d31 01       		.byte	0x1
 6984 1d32 E0050000 		.4byte	.LASF222
 6985 1d36 01       		.byte	0x1
 6986 1d37 DA05     		.2byte	0x5da
 6987 1d39 01       		.byte	0x1
 6988 1d3a BA000000 		.4byte	0xba
 6989 1d3e 00000000 		.4byte	.LFB41
 6990 1d42 0E000000 		.4byte	.LFE41
 6991 1d46 02       		.byte	0x2
 6992 1d47 7D       		.byte	0x7d
 6993 1d48 00       		.sleb128 0
 6994 1d49 01       		.byte	0x1
 6995 1d4a 5D1D0000 		.4byte	0x1d5d
 6996 1d4e 1E       		.uleb128 0x1e
 6997 1d4f 7300     		.ascii	"s\000"
 6998 1d51 01       		.byte	0x1
 6999 1d52 DA05     		.2byte	0x5da
 7000 1d54 8E070000 		.4byte	0x78e
 7001 1d58 72120000 		.4byte	.LLST97
 7002 1d5c 00       		.byte	0
 7003 1d5d 4C       		.uleb128 0x4c
 7004 1d5e 6D030000 		.4byte	.LASF223
ARM GAS  /tmp/ccqErZ7k.s 			page 125


 7005 1d62 01       		.byte	0x1
 7006 1d63 65       		.byte	0x65
 7007 1d64 CC000000 		.4byte	0xcc
 7008 1d68 05       		.byte	0x5
 7009 1d69 03       		.byte	0x3
 7010 1d6a 00000000 		.4byte	tcp_timer
 7011 1d6e 4D       		.uleb128 0x4d
 7012 1d6f 3C050000 		.4byte	.LASF224
 7013 1d73 01       		.byte	0x1
 7014 1d74 49       		.byte	0x49
 7015 1d75 F8000000 		.4byte	0xf8
 7016 1d79 01       		.byte	0x1
 7017 1d7a 05       		.byte	0x5
 7018 1d7b 03       		.byte	0x3
 7019 1d7c 00000000 		.4byte	tcp_ticks
 7020 1d80 4D       		.uleb128 0x4d
 7021 1d81 01050000 		.4byte	.LASF225
 7022 1d85 01       		.byte	0x1
 7023 1d86 52       		.byte	0x52
 7024 1d87 CB030000 		.4byte	0x3cb
 7025 1d8b 01       		.byte	0x1
 7026 1d8c 05       		.byte	0x5
 7027 1d8d 03       		.byte	0x3
 7028 1d8e 00000000 		.4byte	tcp_bound_pcbs
 7029 1d92 4D       		.uleb128 0x4d
 7030 1d93 07060000 		.4byte	.LASF226
 7031 1d97 01       		.byte	0x1
 7032 1d98 54       		.byte	0x54
 7033 1d99 76090000 		.4byte	0x976
 7034 1d9d 01       		.byte	0x1
 7035 1d9e 05       		.byte	0x5
 7036 1d9f 03       		.byte	0x3
 7037 1da0 00000000 		.4byte	tcp_listen_pcbs
 7038 1da4 4D       		.uleb128 0x4d
 7039 1da5 2C050000 		.4byte	.LASF227
 7040 1da9 01       		.byte	0x1
 7041 1daa 57       		.byte	0x57
 7042 1dab CB030000 		.4byte	0x3cb
 7043 1daf 01       		.byte	0x1
 7044 1db0 05       		.byte	0x5
 7045 1db1 03       		.byte	0x3
 7046 1db2 00000000 		.4byte	tcp_active_pcbs
 7047 1db6 4D       		.uleb128 0x4d
 7048 1db7 DD090000 		.4byte	.LASF228
 7049 1dbb 01       		.byte	0x1
 7050 1dbc 59       		.byte	0x59
 7051 1dbd CB030000 		.4byte	0x3cb
 7052 1dc1 01       		.byte	0x1
 7053 1dc2 05       		.byte	0x5
 7054 1dc3 03       		.byte	0x3
 7055 1dc4 00000000 		.4byte	tcp_tw_pcbs
 7056 1dc8 4D       		.uleb128 0x4d
 7057 1dc9 43020000 		.4byte	.LASF229
 7058 1dcd 01       		.byte	0x1
 7059 1dce 62       		.byte	0x62
 7060 1dcf CB030000 		.4byte	0x3cb
 7061 1dd3 01       		.byte	0x1
ARM GAS  /tmp/ccqErZ7k.s 			page 126


 7062 1dd4 05       		.byte	0x5
 7063 1dd5 03       		.byte	0x3
 7064 1dd6 00000000 		.4byte	tcp_tmp_pcb
 7065 1dda 4E       		.uleb128 0x4e
 7066 1ddb 06090000 		.4byte	.LASF230
 7067 1ddf 0C       		.byte	0xc
 7068 1de0 95       		.byte	0x95
 7069 1de1 110B0000 		.4byte	0xb11
 7070 1de5 01       		.byte	0x1
 7071 1de6 01       		.byte	0x1
 7072 1de7 0F       		.uleb128 0xf
 7073 1de8 BA000000 		.4byte	0xba
 7074 1dec F71D0000 		.4byte	0x1df7
 7075 1df0 10       		.uleb128 0x10
 7076 1df1 B3000000 		.4byte	0xb3
 7077 1df5 0A       		.byte	0xa
 7078 1df6 00       		.byte	0
 7079 1df7 4D       		.uleb128 0x4d
 7080 1df8 F5070000 		.4byte	.LASF231
 7081 1dfc 01       		.byte	0x1
 7082 1dfd 3A       		.byte	0x3a
 7083 1dfe 091E0000 		.4byte	0x1e09
 7084 1e02 01       		.byte	0x1
 7085 1e03 05       		.byte	0x5
 7086 1e04 03       		.byte	0x3
 7087 1e05 00000000 		.4byte	tcp_state_str
 7088 1e09 07       		.uleb128 0x7
 7089 1e0a E71D0000 		.4byte	0x1de7
 7090 1e0e 0F       		.uleb128 0xf
 7091 1e0f CC000000 		.4byte	0xcc
 7092 1e13 1E1E0000 		.4byte	0x1e1e
 7093 1e17 10       		.uleb128 0x10
 7094 1e18 B3000000 		.4byte	0xb3
 7095 1e1c 0C       		.byte	0xc
 7096 1e1d 00       		.byte	0
 7097 1e1e 4D       		.uleb128 0x4d
 7098 1e1f 25030000 		.4byte	.LASF232
 7099 1e23 01       		.byte	0x1
 7100 1e24 4A       		.byte	0x4a
 7101 1e25 301E0000 		.4byte	0x1e30
 7102 1e29 01       		.byte	0x1
 7103 1e2a 05       		.byte	0x5
 7104 1e2b 03       		.byte	0x3
 7105 1e2c 00000000 		.4byte	tcp_backoff
 7106 1e30 07       		.uleb128 0x7
 7107 1e31 0E1E0000 		.4byte	0x1e0e
 7108 1e35 0F       		.uleb128 0xf
 7109 1e36 CC000000 		.4byte	0xcc
 7110 1e3a 451E0000 		.4byte	0x1e45
 7111 1e3e 10       		.uleb128 0x10
 7112 1e3f B3000000 		.4byte	0xb3
 7113 1e43 06       		.byte	0x6
 7114 1e44 00       		.byte	0
 7115 1e45 4D       		.uleb128 0x4d
 7116 1e46 8E000000 		.4byte	.LASF233
 7117 1e4a 01       		.byte	0x1
 7118 1e4b 4D       		.byte	0x4d
ARM GAS  /tmp/ccqErZ7k.s 			page 127


 7119 1e4c 571E0000 		.4byte	0x1e57
 7120 1e50 01       		.byte	0x1
 7121 1e51 05       		.byte	0x5
 7122 1e52 03       		.byte	0x3
 7123 1e53 00000000 		.4byte	tcp_persist_backoff
 7124 1e57 07       		.uleb128 0x7
 7125 1e58 351E0000 		.4byte	0x1e35
 7126 1e5c 0F       		.uleb128 0xf
 7127 1e5d 11140000 		.4byte	0x1411
 7128 1e61 6C1E0000 		.4byte	0x1e6c
 7129 1e65 10       		.uleb128 0x10
 7130 1e66 B3000000 		.4byte	0xb3
 7131 1e6a 03       		.byte	0x3
 7132 1e6b 00       		.byte	0
 7133 1e6c 4D       		.uleb128 0x4d
 7134 1e6d C1040000 		.4byte	.LASF234
 7135 1e71 01       		.byte	0x1
 7136 1e72 5E       		.byte	0x5e
 7137 1e73 7E1E0000 		.4byte	0x1e7e
 7138 1e77 01       		.byte	0x1
 7139 1e78 05       		.byte	0x5
 7140 1e79 03       		.byte	0x3
 7141 1e7a 00000000 		.4byte	tcp_pcb_lists
 7142 1e7e 07       		.uleb128 0x7
 7143 1e7f 5C1E0000 		.4byte	0x1e5c
 7144 1e83 4F       		.uleb128 0x4f
 7145 1e84 01       		.byte	0x1
 7146 1e85 87030000 		.4byte	.LASF235
 7147 1e89 0B       		.byte	0xb
 7148 1e8a CE01     		.2byte	0x1ce
 7149 1e8c 01       		.byte	0x1
 7150 1e8d 01       		.byte	0x1
 7151 1e8e 4F       		.uleb128 0x4f
 7152 1e8f 01       		.byte	0x1
 7153 1e90 C8020000 		.4byte	.LASF236
 7154 1e94 0D       		.byte	0xd
 7155 1e95 FA01     		.2byte	0x1fa
 7156 1e97 01       		.byte	0x1
 7157 1e98 01       		.byte	0x1
 7158 1e99 50       		.uleb128 0x50
 7159 1e9a 01       		.byte	0x1
 7160 1e9b DB020000 		.4byte	.LASF237
 7161 1e9f 05       		.byte	0x5
 7162 1ea0 6A       		.byte	0x6a
 7163 1ea1 01       		.byte	0x1
 7164 1ea2 B1000000 		.4byte	0xb1
 7165 1ea6 01       		.byte	0x1
 7166 1ea7 B11E0000 		.4byte	0x1eb1
 7167 1eab 0E       		.uleb128 0xe
 7168 1eac 7C010000 		.4byte	0x17c
 7169 1eb0 00       		.byte	0
 7170 1eb1 51       		.uleb128 0x51
 7171 1eb2 01       		.byte	0x1
 7172 1eb3 A7070000 		.4byte	.LASF239
 7173 1eb7 05       		.byte	0x5
 7174 1eb8 6C       		.byte	0x6c
 7175 1eb9 01       		.byte	0x1
ARM GAS  /tmp/ccqErZ7k.s 			page 128


 7176 1eba 01       		.byte	0x1
 7177 1ebb CA1E0000 		.4byte	0x1eca
 7178 1ebf 0E       		.uleb128 0xe
 7179 1ec0 7C010000 		.4byte	0x17c
 7180 1ec4 0E       		.uleb128 0xe
 7181 1ec5 B1000000 		.4byte	0xb1
 7182 1ec9 00       		.byte	0
 7183 1eca 52       		.uleb128 0x52
 7184 1ecb 01       		.byte	0x1
 7185 1ecc CF040000 		.4byte	.LASF240
 7186 1ed0 0A       		.byte	0xa
 7187 1ed1 6D01     		.2byte	0x16d
 7188 1ed3 01       		.byte	0x1
 7189 1ed4 AD010000 		.4byte	0x1ad
 7190 1ed8 01       		.byte	0x1
 7191 1ed9 E31E0000 		.4byte	0x1ee3
 7192 1edd 0E       		.uleb128 0xe
 7193 1ede CB030000 		.4byte	0x3cb
 7194 1ee2 00       		.byte	0
 7195 1ee3 50       		.uleb128 0x50
 7196 1ee4 01       		.byte	0x1
 7197 1ee5 EB070000 		.4byte	.LASF241
 7198 1ee9 08       		.byte	0x8
 7199 1eea 83       		.byte	0x83
 7200 1eeb 01       		.byte	0x1
 7201 1eec CC000000 		.4byte	0xcc
 7202 1ef0 01       		.byte	0x1
 7203 1ef1 FB1E0000 		.4byte	0x1efb
 7204 1ef5 0E       		.uleb128 0xe
 7205 1ef6 27020000 		.4byte	0x227
 7206 1efa 00       		.byte	0
 7207 1efb 51       		.uleb128 0x51
 7208 1efc 01       		.byte	0x1
 7209 1efd 10050000 		.4byte	.LASF242
 7210 1f01 08       		.byte	0x8
 7211 1f02 82       		.byte	0x82
 7212 1f03 01       		.byte	0x1
 7213 1f04 01       		.byte	0x1
 7214 1f05 0F1F0000 		.4byte	0x1f0f
 7215 1f09 0E       		.uleb128 0xe
 7216 1f0a 27020000 		.4byte	0x227
 7217 1f0e 00       		.byte	0
 7218 1f0f 53       		.uleb128 0x53
 7219 1f10 01       		.byte	0x1
 7220 1f11 73020000 		.4byte	.LASF243
 7221 1f15 0B       		.byte	0xb
 7222 1f16 AD01     		.2byte	0x1ad
 7223 1f18 01       		.byte	0x1
 7224 1f19 01       		.byte	0x1
 7225 1f1a 3D1F0000 		.4byte	0x1f3d
 7226 1f1e 0E       		.uleb128 0xe
 7227 1f1f F8000000 		.4byte	0xf8
 7228 1f23 0E       		.uleb128 0xe
 7229 1f24 F8000000 		.4byte	0xf8
 7230 1f28 0E       		.uleb128 0xe
 7231 1f29 54030000 		.4byte	0x354
 7232 1f2d 0E       		.uleb128 0xe
ARM GAS  /tmp/ccqErZ7k.s 			page 129


 7233 1f2e 54030000 		.4byte	0x354
 7234 1f32 0E       		.uleb128 0xe
 7235 1f33 E2000000 		.4byte	0xe2
 7236 1f37 0E       		.uleb128 0xe
 7237 1f38 E2000000 		.4byte	0xe2
 7238 1f3c 00       		.byte	0
 7239 1f3d 53       		.uleb128 0x53
 7240 1f3e 01       		.byte	0x1
 7241 1f3f 2D040000 		.4byte	.LASF244
 7242 1f43 0B       		.byte	0xb
 7243 1f44 B401     		.2byte	0x1b4
 7244 1f46 01       		.byte	0x1
 7245 1f47 01       		.byte	0x1
 7246 1f48 521F0000 		.4byte	0x1f52
 7247 1f4c 0E       		.uleb128 0xe
 7248 1f4d CB030000 		.4byte	0x3cb
 7249 1f51 00       		.byte	0
 7250 1f52 51       		.uleb128 0x51
 7251 1f53 01       		.byte	0x1
 7252 1f54 7B040000 		.4byte	.LASF245
 7253 1f58 0B       		.byte	0xb
 7254 1f59 47       		.byte	0x47
 7255 1f5a 01       		.byte	0x1
 7256 1f5b 01       		.byte	0x1
 7257 1f5c 661F0000 		.4byte	0x1f66
 7258 1f60 0E       		.uleb128 0xe
 7259 1f61 CB030000 		.4byte	0x3cb
 7260 1f65 00       		.byte	0
 7261 1f66 53       		.uleb128 0x53
 7262 1f67 01       		.byte	0x1
 7263 1f68 41010000 		.4byte	.LASF246
 7264 1f6c 0B       		.byte	0xb
 7265 1f6d B301     		.2byte	0x1b3
 7266 1f6f 01       		.byte	0x1
 7267 1f70 01       		.byte	0x1
 7268 1f71 7B1F0000 		.4byte	0x1f7b
 7269 1f75 0E       		.uleb128 0xe
 7270 1f76 CB030000 		.4byte	0x3cb
 7271 1f7a 00       		.byte	0
 7272 1f7b 54       		.uleb128 0x54
 7273 1f7c 01       		.byte	0x1
 7274 1f7d C6070000 		.4byte	.LASF247
 7275 1f81 01       		.byte	0x1
 7276 1f82 B1000000 		.4byte	0xb1
 7277 1f86 01       		.byte	0x1
 7278 1f87 01       		.byte	0x1
 7279 1f88 9C1F0000 		.4byte	0x1f9c
 7280 1f8c 0E       		.uleb128 0xe
 7281 1f8d B1000000 		.4byte	0xb1
 7282 1f91 0E       		.uleb128 0xe
 7283 1f92 29000000 		.4byte	0x29
 7284 1f96 0E       		.uleb128 0xe
 7285 1f97 B3000000 		.4byte	0xb3
 7286 1f9b 00       		.byte	0
 7287 1f9c 52       		.uleb128 0x52
 7288 1f9d 01       		.byte	0x1
 7289 1f9e 57080000 		.4byte	.LASF248
ARM GAS  /tmp/ccqErZ7k.s 			page 130


 7290 1fa2 0B       		.byte	0xb
 7291 1fa3 A801     		.2byte	0x1a8
 7292 1fa5 01       		.byte	0x1
 7293 1fa6 AD010000 		.4byte	0x1ad
 7294 1faa 01       		.byte	0x1
 7295 1fab B51F0000 		.4byte	0x1fb5
 7296 1faf 0E       		.uleb128 0xe
 7297 1fb0 CB030000 		.4byte	0x3cb
 7298 1fb4 00       		.byte	0
 7299 1fb5 50       		.uleb128 0x50
 7300 1fb6 01       		.byte	0x1
 7301 1fb7 96020000 		.4byte	.LASF249
 7302 1fbb 0E       		.byte	0xe
 7303 1fbc AC       		.byte	0xac
 7304 1fbd 01       		.byte	0x1
 7305 1fbe 2D020000 		.4byte	0x22d
 7306 1fc2 01       		.byte	0x1
 7307 1fc3 CD1F0000 		.4byte	0x1fcd
 7308 1fc7 0E       		.uleb128 0xe
 7309 1fc8 54030000 		.4byte	0x354
 7310 1fcc 00       		.byte	0
 7311 1fcd 55       		.uleb128 0x55
 7312 1fce 01       		.byte	0x1
 7313 1fcf EA080000 		.4byte	.LASF250
 7314 1fd3 0B       		.byte	0xb
 7315 1fd4 A901     		.2byte	0x1a9
 7316 1fd6 01       		.byte	0x1
 7317 1fd7 AD010000 		.4byte	0x1ad
 7318 1fdb 01       		.byte	0x1
 7319 1fdc 0E       		.uleb128 0xe
 7320 1fdd CB030000 		.4byte	0x3cb
 7321 1fe1 0E       		.uleb128 0xe
 7322 1fe2 CC000000 		.4byte	0xcc
 7323 1fe6 00       		.byte	0
 7324 1fe7 00       		.byte	0
 7325              		.section	.debug_abbrev,"",%progbits
 7326              	.Ldebug_abbrev0:
 7327 0000 01       		.uleb128 0x1
 7328 0001 11       		.uleb128 0x11
 7329 0002 01       		.byte	0x1
 7330 0003 25       		.uleb128 0x25
 7331 0004 0E       		.uleb128 0xe
 7332 0005 13       		.uleb128 0x13
 7333 0006 0B       		.uleb128 0xb
 7334 0007 03       		.uleb128 0x3
 7335 0008 0E       		.uleb128 0xe
 7336 0009 1B       		.uleb128 0x1b
 7337 000a 0E       		.uleb128 0xe
 7338 000b 55       		.uleb128 0x55
 7339 000c 06       		.uleb128 0x6
 7340 000d 11       		.uleb128 0x11
 7341 000e 01       		.uleb128 0x1
 7342 000f 52       		.uleb128 0x52
 7343 0010 01       		.uleb128 0x1
 7344 0011 10       		.uleb128 0x10
 7345 0012 06       		.uleb128 0x6
 7346 0013 00       		.byte	0
ARM GAS  /tmp/ccqErZ7k.s 			page 131


 7347 0014 00       		.byte	0
 7348 0015 02       		.uleb128 0x2
 7349 0016 24       		.uleb128 0x24
 7350 0017 00       		.byte	0
 7351 0018 0B       		.uleb128 0xb
 7352 0019 0B       		.uleb128 0xb
 7353 001a 3E       		.uleb128 0x3e
 7354 001b 0B       		.uleb128 0xb
 7355 001c 03       		.uleb128 0x3
 7356 001d 08       		.uleb128 0x8
 7357 001e 00       		.byte	0
 7358 001f 00       		.byte	0
 7359 0020 03       		.uleb128 0x3
 7360 0021 24       		.uleb128 0x24
 7361 0022 00       		.byte	0
 7362 0023 0B       		.uleb128 0xb
 7363 0024 0B       		.uleb128 0xb
 7364 0025 3E       		.uleb128 0x3e
 7365 0026 0B       		.uleb128 0xb
 7366 0027 03       		.uleb128 0x3
 7367 0028 0E       		.uleb128 0xe
 7368 0029 00       		.byte	0
 7369 002a 00       		.byte	0
 7370 002b 04       		.uleb128 0x4
 7371 002c 16       		.uleb128 0x16
 7372 002d 00       		.byte	0
 7373 002e 03       		.uleb128 0x3
 7374 002f 0E       		.uleb128 0xe
 7375 0030 3A       		.uleb128 0x3a
 7376 0031 0B       		.uleb128 0xb
 7377 0032 3B       		.uleb128 0x3b
 7378 0033 0B       		.uleb128 0xb
 7379 0034 49       		.uleb128 0x49
 7380 0035 13       		.uleb128 0x13
 7381 0036 00       		.byte	0
 7382 0037 00       		.byte	0
 7383 0038 05       		.uleb128 0x5
 7384 0039 0F       		.uleb128 0xf
 7385 003a 00       		.byte	0
 7386 003b 0B       		.uleb128 0xb
 7387 003c 0B       		.uleb128 0xb
 7388 003d 00       		.byte	0
 7389 003e 00       		.byte	0
 7390 003f 06       		.uleb128 0x6
 7391 0040 0F       		.uleb128 0xf
 7392 0041 00       		.byte	0
 7393 0042 0B       		.uleb128 0xb
 7394 0043 0B       		.uleb128 0xb
 7395 0044 49       		.uleb128 0x49
 7396 0045 13       		.uleb128 0x13
 7397 0046 00       		.byte	0
 7398 0047 00       		.byte	0
 7399 0048 07       		.uleb128 0x7
 7400 0049 26       		.uleb128 0x26
 7401 004a 00       		.byte	0
 7402 004b 49       		.uleb128 0x49
 7403 004c 13       		.uleb128 0x13
ARM GAS  /tmp/ccqErZ7k.s 			page 132


 7404 004d 00       		.byte	0
 7405 004e 00       		.byte	0
 7406 004f 08       		.uleb128 0x8
 7407 0050 04       		.uleb128 0x4
 7408 0051 01       		.byte	0x1
 7409 0052 0B       		.uleb128 0xb
 7410 0053 0B       		.uleb128 0xb
 7411 0054 3A       		.uleb128 0x3a
 7412 0055 0B       		.uleb128 0xb
 7413 0056 3B       		.uleb128 0x3b
 7414 0057 0B       		.uleb128 0xb
 7415 0058 01       		.uleb128 0x1
 7416 0059 13       		.uleb128 0x13
 7417 005a 00       		.byte	0
 7418 005b 00       		.byte	0
 7419 005c 09       		.uleb128 0x9
 7420 005d 28       		.uleb128 0x28
 7421 005e 00       		.byte	0
 7422 005f 03       		.uleb128 0x3
 7423 0060 0E       		.uleb128 0xe
 7424 0061 1C       		.uleb128 0x1c
 7425 0062 0D       		.uleb128 0xd
 7426 0063 00       		.byte	0
 7427 0064 00       		.byte	0
 7428 0065 0A       		.uleb128 0xa
 7429 0066 13       		.uleb128 0x13
 7430 0067 01       		.byte	0x1
 7431 0068 03       		.uleb128 0x3
 7432 0069 0E       		.uleb128 0xe
 7433 006a 0B       		.uleb128 0xb
 7434 006b 0B       		.uleb128 0xb
 7435 006c 3A       		.uleb128 0x3a
 7436 006d 0B       		.uleb128 0xb
 7437 006e 3B       		.uleb128 0x3b
 7438 006f 0B       		.uleb128 0xb
 7439 0070 01       		.uleb128 0x1
 7440 0071 13       		.uleb128 0x13
 7441 0072 00       		.byte	0
 7442 0073 00       		.byte	0
 7443 0074 0B       		.uleb128 0xb
 7444 0075 0D       		.uleb128 0xd
 7445 0076 00       		.byte	0
 7446 0077 03       		.uleb128 0x3
 7447 0078 0E       		.uleb128 0xe
 7448 0079 3A       		.uleb128 0x3a
 7449 007a 0B       		.uleb128 0xb
 7450 007b 3B       		.uleb128 0x3b
 7451 007c 0B       		.uleb128 0xb
 7452 007d 49       		.uleb128 0x49
 7453 007e 13       		.uleb128 0x13
 7454 007f 38       		.uleb128 0x38
 7455 0080 0A       		.uleb128 0xa
 7456 0081 00       		.byte	0
 7457 0082 00       		.byte	0
 7458 0083 0C       		.uleb128 0xc
 7459 0084 0D       		.uleb128 0xd
 7460 0085 00       		.byte	0
ARM GAS  /tmp/ccqErZ7k.s 			page 133


 7461 0086 03       		.uleb128 0x3
 7462 0087 08       		.uleb128 0x8
 7463 0088 3A       		.uleb128 0x3a
 7464 0089 0B       		.uleb128 0xb
 7465 008a 3B       		.uleb128 0x3b
 7466 008b 0B       		.uleb128 0xb
 7467 008c 49       		.uleb128 0x49
 7468 008d 13       		.uleb128 0x13
 7469 008e 38       		.uleb128 0x38
 7470 008f 0A       		.uleb128 0xa
 7471 0090 00       		.byte	0
 7472 0091 00       		.byte	0
 7473 0092 0D       		.uleb128 0xd
 7474 0093 15       		.uleb128 0x15
 7475 0094 01       		.byte	0x1
 7476 0095 27       		.uleb128 0x27
 7477 0096 0C       		.uleb128 0xc
 7478 0097 49       		.uleb128 0x49
 7479 0098 13       		.uleb128 0x13
 7480 0099 01       		.uleb128 0x1
 7481 009a 13       		.uleb128 0x13
 7482 009b 00       		.byte	0
 7483 009c 00       		.byte	0
 7484 009d 0E       		.uleb128 0xe
 7485 009e 05       		.uleb128 0x5
 7486 009f 00       		.byte	0
 7487 00a0 49       		.uleb128 0x49
 7488 00a1 13       		.uleb128 0x13
 7489 00a2 00       		.byte	0
 7490 00a3 00       		.byte	0
 7491 00a4 0F       		.uleb128 0xf
 7492 00a5 01       		.uleb128 0x1
 7493 00a6 01       		.byte	0x1
 7494 00a7 49       		.uleb128 0x49
 7495 00a8 13       		.uleb128 0x13
 7496 00a9 01       		.uleb128 0x1
 7497 00aa 13       		.uleb128 0x13
 7498 00ab 00       		.byte	0
 7499 00ac 00       		.byte	0
 7500 00ad 10       		.uleb128 0x10
 7501 00ae 21       		.uleb128 0x21
 7502 00af 00       		.byte	0
 7503 00b0 49       		.uleb128 0x49
 7504 00b1 13       		.uleb128 0x13
 7505 00b2 2F       		.uleb128 0x2f
 7506 00b3 0B       		.uleb128 0xb
 7507 00b4 00       		.byte	0
 7508 00b5 00       		.byte	0
 7509 00b6 11       		.uleb128 0x11
 7510 00b7 0D       		.uleb128 0xd
 7511 00b8 00       		.byte	0
 7512 00b9 03       		.uleb128 0x3
 7513 00ba 0E       		.uleb128 0xe
 7514 00bb 3A       		.uleb128 0x3a
 7515 00bc 0B       		.uleb128 0xb
 7516 00bd 3B       		.uleb128 0x3b
 7517 00be 05       		.uleb128 0x5
ARM GAS  /tmp/ccqErZ7k.s 			page 134


 7518 00bf 49       		.uleb128 0x49
 7519 00c0 13       		.uleb128 0x13
 7520 00c1 38       		.uleb128 0x38
 7521 00c2 0A       		.uleb128 0xa
 7522 00c3 00       		.byte	0
 7523 00c4 00       		.byte	0
 7524 00c5 12       		.uleb128 0x12
 7525 00c6 15       		.uleb128 0x15
 7526 00c7 01       		.byte	0x1
 7527 00c8 27       		.uleb128 0x27
 7528 00c9 0C       		.uleb128 0xc
 7529 00ca 01       		.uleb128 0x1
 7530 00cb 13       		.uleb128 0x13
 7531 00cc 00       		.byte	0
 7532 00cd 00       		.byte	0
 7533 00ce 13       		.uleb128 0x13
 7534 00cf 04       		.uleb128 0x4
 7535 00d0 01       		.byte	0x1
 7536 00d1 03       		.uleb128 0x3
 7537 00d2 0E       		.uleb128 0xe
 7538 00d3 0B       		.uleb128 0xb
 7539 00d4 0B       		.uleb128 0xb
 7540 00d5 3A       		.uleb128 0x3a
 7541 00d6 0B       		.uleb128 0xb
 7542 00d7 3B       		.uleb128 0x3b
 7543 00d8 0B       		.uleb128 0xb
 7544 00d9 01       		.uleb128 0x1
 7545 00da 13       		.uleb128 0x13
 7546 00db 00       		.byte	0
 7547 00dc 00       		.byte	0
 7548 00dd 14       		.uleb128 0x14
 7549 00de 13       		.uleb128 0x13
 7550 00df 01       		.byte	0x1
 7551 00e0 03       		.uleb128 0x3
 7552 00e1 0E       		.uleb128 0xe
 7553 00e2 0B       		.uleb128 0xb
 7554 00e3 0B       		.uleb128 0xb
 7555 00e4 3A       		.uleb128 0x3a
 7556 00e5 0B       		.uleb128 0xb
 7557 00e6 3B       		.uleb128 0x3b
 7558 00e7 05       		.uleb128 0x5
 7559 00e8 01       		.uleb128 0x1
 7560 00e9 13       		.uleb128 0x13
 7561 00ea 00       		.byte	0
 7562 00eb 00       		.byte	0
 7563 00ec 15       		.uleb128 0x15
 7564 00ed 0D       		.uleb128 0xd
 7565 00ee 00       		.byte	0
 7566 00ef 03       		.uleb128 0x3
 7567 00f0 08       		.uleb128 0x8
 7568 00f1 3A       		.uleb128 0x3a
 7569 00f2 0B       		.uleb128 0xb
 7570 00f3 3B       		.uleb128 0x3b
 7571 00f4 05       		.uleb128 0x5
 7572 00f5 49       		.uleb128 0x49
 7573 00f6 13       		.uleb128 0x13
 7574 00f7 38       		.uleb128 0x38
ARM GAS  /tmp/ccqErZ7k.s 			page 135


 7575 00f8 0A       		.uleb128 0xa
 7576 00f9 00       		.byte	0
 7577 00fa 00       		.byte	0
 7578 00fb 16       		.uleb128 0x16
 7579 00fc 17       		.uleb128 0x17
 7580 00fd 01       		.byte	0x1
 7581 00fe 03       		.uleb128 0x3
 7582 00ff 0E       		.uleb128 0xe
 7583 0100 0B       		.uleb128 0xb
 7584 0101 0B       		.uleb128 0xb
 7585 0102 3A       		.uleb128 0x3a
 7586 0103 0B       		.uleb128 0xb
 7587 0104 3B       		.uleb128 0x3b
 7588 0105 05       		.uleb128 0x5
 7589 0106 01       		.uleb128 0x1
 7590 0107 13       		.uleb128 0x13
 7591 0108 00       		.byte	0
 7592 0109 00       		.byte	0
 7593 010a 17       		.uleb128 0x17
 7594 010b 0D       		.uleb128 0xd
 7595 010c 00       		.byte	0
 7596 010d 03       		.uleb128 0x3
 7597 010e 0E       		.uleb128 0xe
 7598 010f 3A       		.uleb128 0x3a
 7599 0110 0B       		.uleb128 0xb
 7600 0111 3B       		.uleb128 0x3b
 7601 0112 05       		.uleb128 0x5
 7602 0113 49       		.uleb128 0x49
 7603 0114 13       		.uleb128 0x13
 7604 0115 00       		.byte	0
 7605 0116 00       		.byte	0
 7606 0117 18       		.uleb128 0x18
 7607 0118 13       		.uleb128 0x13
 7608 0119 01       		.byte	0x1
 7609 011a 03       		.uleb128 0x3
 7610 011b 0E       		.uleb128 0xe
 7611 011c 0B       		.uleb128 0xb
 7612 011d 05       		.uleb128 0x5
 7613 011e 3A       		.uleb128 0x3a
 7614 011f 0B       		.uleb128 0xb
 7615 0120 3B       		.uleb128 0x3b
 7616 0121 0B       		.uleb128 0xb
 7617 0122 01       		.uleb128 0x1
 7618 0123 13       		.uleb128 0x13
 7619 0124 00       		.byte	0
 7620 0125 00       		.byte	0
 7621 0126 19       		.uleb128 0x19
 7622 0127 2E       		.uleb128 0x2e
 7623 0128 01       		.byte	0x1
 7624 0129 3F       		.uleb128 0x3f
 7625 012a 0C       		.uleb128 0xc
 7626 012b 03       		.uleb128 0x3
 7627 012c 0E       		.uleb128 0xe
 7628 012d 3A       		.uleb128 0x3a
 7629 012e 0B       		.uleb128 0xb
 7630 012f 3B       		.uleb128 0x3b
 7631 0130 05       		.uleb128 0x5
ARM GAS  /tmp/ccqErZ7k.s 			page 136


 7632 0131 27       		.uleb128 0x27
 7633 0132 0C       		.uleb128 0xc
 7634 0133 20       		.uleb128 0x20
 7635 0134 0B       		.uleb128 0xb
 7636 0135 01       		.uleb128 0x1
 7637 0136 13       		.uleb128 0x13
 7638 0137 00       		.byte	0
 7639 0138 00       		.byte	0
 7640 0139 1A       		.uleb128 0x1a
 7641 013a 05       		.uleb128 0x5
 7642 013b 00       		.byte	0
 7643 013c 03       		.uleb128 0x3
 7644 013d 08       		.uleb128 0x8
 7645 013e 3A       		.uleb128 0x3a
 7646 013f 0B       		.uleb128 0xb
 7647 0140 3B       		.uleb128 0x3b
 7648 0141 05       		.uleb128 0x5
 7649 0142 49       		.uleb128 0x49
 7650 0143 13       		.uleb128 0x13
 7651 0144 00       		.byte	0
 7652 0145 00       		.byte	0
 7653 0146 1B       		.uleb128 0x1b
 7654 0147 2E       		.uleb128 0x2e
 7655 0148 01       		.byte	0x1
 7656 0149 3F       		.uleb128 0x3f
 7657 014a 0C       		.uleb128 0xc
 7658 014b 03       		.uleb128 0x3
 7659 014c 0E       		.uleb128 0xe
 7660 014d 3A       		.uleb128 0x3a
 7661 014e 0B       		.uleb128 0xb
 7662 014f 3B       		.uleb128 0x3b
 7663 0150 05       		.uleb128 0x5
 7664 0151 27       		.uleb128 0x27
 7665 0152 0C       		.uleb128 0xc
 7666 0153 49       		.uleb128 0x49
 7667 0154 13       		.uleb128 0x13
 7668 0155 20       		.uleb128 0x20
 7669 0156 0B       		.uleb128 0xb
 7670 0157 01       		.uleb128 0x1
 7671 0158 13       		.uleb128 0x13
 7672 0159 00       		.byte	0
 7673 015a 00       		.byte	0
 7674 015b 1C       		.uleb128 0x1c
 7675 015c 34       		.uleb128 0x34
 7676 015d 00       		.byte	0
 7677 015e 03       		.uleb128 0x3
 7678 015f 08       		.uleb128 0x8
 7679 0160 3A       		.uleb128 0x3a
 7680 0161 0B       		.uleb128 0xb
 7681 0162 3B       		.uleb128 0x3b
 7682 0163 05       		.uleb128 0x5
 7683 0164 49       		.uleb128 0x49
 7684 0165 13       		.uleb128 0x13
 7685 0166 00       		.byte	0
 7686 0167 00       		.byte	0
 7687 0168 1D       		.uleb128 0x1d
 7688 0169 2E       		.uleb128 0x2e
ARM GAS  /tmp/ccqErZ7k.s 			page 137


 7689 016a 01       		.byte	0x1
 7690 016b 03       		.uleb128 0x3
 7691 016c 0E       		.uleb128 0xe
 7692 016d 3A       		.uleb128 0x3a
 7693 016e 0B       		.uleb128 0xb
 7694 016f 3B       		.uleb128 0x3b
 7695 0170 05       		.uleb128 0x5
 7696 0171 27       		.uleb128 0x27
 7697 0172 0C       		.uleb128 0xc
 7698 0173 49       		.uleb128 0x49
 7699 0174 13       		.uleb128 0x13
 7700 0175 11       		.uleb128 0x11
 7701 0176 01       		.uleb128 0x1
 7702 0177 12       		.uleb128 0x12
 7703 0178 01       		.uleb128 0x1
 7704 0179 40       		.uleb128 0x40
 7705 017a 0A       		.uleb128 0xa
 7706 017b 9742     		.uleb128 0x2117
 7707 017d 0C       		.uleb128 0xc
 7708 017e 01       		.uleb128 0x1
 7709 017f 13       		.uleb128 0x13
 7710 0180 00       		.byte	0
 7711 0181 00       		.byte	0
 7712 0182 1E       		.uleb128 0x1e
 7713 0183 05       		.uleb128 0x5
 7714 0184 00       		.byte	0
 7715 0185 03       		.uleb128 0x3
 7716 0186 08       		.uleb128 0x8
 7717 0187 3A       		.uleb128 0x3a
 7718 0188 0B       		.uleb128 0xb
 7719 0189 3B       		.uleb128 0x3b
 7720 018a 05       		.uleb128 0x5
 7721 018b 49       		.uleb128 0x49
 7722 018c 13       		.uleb128 0x13
 7723 018d 02       		.uleb128 0x2
 7724 018e 06       		.uleb128 0x6
 7725 018f 00       		.byte	0
 7726 0190 00       		.byte	0
 7727 0191 1F       		.uleb128 0x1f
 7728 0192 05       		.uleb128 0x5
 7729 0193 00       		.byte	0
 7730 0194 03       		.uleb128 0x3
 7731 0195 08       		.uleb128 0x8
 7732 0196 3A       		.uleb128 0x3a
 7733 0197 0B       		.uleb128 0xb
 7734 0198 3B       		.uleb128 0x3b
 7735 0199 05       		.uleb128 0x5
 7736 019a 49       		.uleb128 0x49
 7737 019b 13       		.uleb128 0x13
 7738 019c 02       		.uleb128 0x2
 7739 019d 0A       		.uleb128 0xa
 7740 019e 00       		.byte	0
 7741 019f 00       		.byte	0
 7742 01a0 20       		.uleb128 0x20
 7743 01a1 2E       		.uleb128 0x2e
 7744 01a2 01       		.byte	0x1
 7745 01a3 03       		.uleb128 0x3
ARM GAS  /tmp/ccqErZ7k.s 			page 138


 7746 01a4 0E       		.uleb128 0xe
 7747 01a5 3A       		.uleb128 0x3a
 7748 01a6 0B       		.uleb128 0xb
 7749 01a7 3B       		.uleb128 0x3b
 7750 01a8 05       		.uleb128 0x5
 7751 01a9 27       		.uleb128 0x27
 7752 01aa 0C       		.uleb128 0xc
 7753 01ab 49       		.uleb128 0x49
 7754 01ac 13       		.uleb128 0x13
 7755 01ad 11       		.uleb128 0x11
 7756 01ae 01       		.uleb128 0x1
 7757 01af 12       		.uleb128 0x12
 7758 01b0 01       		.uleb128 0x1
 7759 01b1 40       		.uleb128 0x40
 7760 01b2 06       		.uleb128 0x6
 7761 01b3 9742     		.uleb128 0x2117
 7762 01b5 0C       		.uleb128 0xc
 7763 01b6 01       		.uleb128 0x1
 7764 01b7 13       		.uleb128 0x13
 7765 01b8 00       		.byte	0
 7766 01b9 00       		.byte	0
 7767 01ba 21       		.uleb128 0x21
 7768 01bb 34       		.uleb128 0x34
 7769 01bc 00       		.byte	0
 7770 01bd 03       		.uleb128 0x3
 7771 01be 08       		.uleb128 0x8
 7772 01bf 3A       		.uleb128 0x3a
 7773 01c0 0B       		.uleb128 0xb
 7774 01c1 3B       		.uleb128 0x3b
 7775 01c2 05       		.uleb128 0x5
 7776 01c3 49       		.uleb128 0x49
 7777 01c4 13       		.uleb128 0x13
 7778 01c5 02       		.uleb128 0x2
 7779 01c6 06       		.uleb128 0x6
 7780 01c7 00       		.byte	0
 7781 01c8 00       		.byte	0
 7782 01c9 22       		.uleb128 0x22
 7783 01ca 34       		.uleb128 0x34
 7784 01cb 00       		.byte	0
 7785 01cc 03       		.uleb128 0x3
 7786 01cd 08       		.uleb128 0x8
 7787 01ce 3A       		.uleb128 0x3a
 7788 01cf 0B       		.uleb128 0xb
 7789 01d0 3B       		.uleb128 0x3b
 7790 01d1 05       		.uleb128 0x5
 7791 01d2 49       		.uleb128 0x49
 7792 01d3 13       		.uleb128 0x13
 7793 01d4 02       		.uleb128 0x2
 7794 01d5 0A       		.uleb128 0xa
 7795 01d6 00       		.byte	0
 7796 01d7 00       		.byte	0
 7797 01d8 23       		.uleb128 0x23
 7798 01d9 34       		.uleb128 0x34
 7799 01da 00       		.byte	0
 7800 01db 03       		.uleb128 0x3
 7801 01dc 0E       		.uleb128 0xe
 7802 01dd 3A       		.uleb128 0x3a
ARM GAS  /tmp/ccqErZ7k.s 			page 139


 7803 01de 0B       		.uleb128 0xb
 7804 01df 3B       		.uleb128 0x3b
 7805 01e0 05       		.uleb128 0x5
 7806 01e1 49       		.uleb128 0x49
 7807 01e2 13       		.uleb128 0x13
 7808 01e3 02       		.uleb128 0x2
 7809 01e4 0A       		.uleb128 0xa
 7810 01e5 00       		.byte	0
 7811 01e6 00       		.byte	0
 7812 01e7 24       		.uleb128 0x24
 7813 01e8 0A       		.uleb128 0xa
 7814 01e9 00       		.byte	0
 7815 01ea 03       		.uleb128 0x3
 7816 01eb 0E       		.uleb128 0xe
 7817 01ec 3A       		.uleb128 0x3a
 7818 01ed 0B       		.uleb128 0xb
 7819 01ee 3B       		.uleb128 0x3b
 7820 01ef 05       		.uleb128 0x5
 7821 01f0 11       		.uleb128 0x11
 7822 01f1 01       		.uleb128 0x1
 7823 01f2 00       		.byte	0
 7824 01f3 00       		.byte	0
 7825 01f4 25       		.uleb128 0x25
 7826 01f5 2E       		.uleb128 0x2e
 7827 01f6 01       		.byte	0x1
 7828 01f7 3F       		.uleb128 0x3f
 7829 01f8 0C       		.uleb128 0xc
 7830 01f9 03       		.uleb128 0x3
 7831 01fa 0E       		.uleb128 0xe
 7832 01fb 3A       		.uleb128 0x3a
 7833 01fc 0B       		.uleb128 0xb
 7834 01fd 3B       		.uleb128 0x3b
 7835 01fe 05       		.uleb128 0x5
 7836 01ff 27       		.uleb128 0x27
 7837 0200 0C       		.uleb128 0xc
 7838 0201 49       		.uleb128 0x49
 7839 0202 13       		.uleb128 0x13
 7840 0203 11       		.uleb128 0x11
 7841 0204 01       		.uleb128 0x1
 7842 0205 12       		.uleb128 0x12
 7843 0206 01       		.uleb128 0x1
 7844 0207 40       		.uleb128 0x40
 7845 0208 06       		.uleb128 0x6
 7846 0209 9742     		.uleb128 0x2117
 7847 020b 0C       		.uleb128 0xc
 7848 020c 01       		.uleb128 0x1
 7849 020d 13       		.uleb128 0x13
 7850 020e 00       		.byte	0
 7851 020f 00       		.byte	0
 7852 0210 26       		.uleb128 0x26
 7853 0211 05       		.uleb128 0x5
 7854 0212 00       		.byte	0
 7855 0213 03       		.uleb128 0x3
 7856 0214 0E       		.uleb128 0xe
 7857 0215 3A       		.uleb128 0x3a
 7858 0216 0B       		.uleb128 0xb
 7859 0217 3B       		.uleb128 0x3b
ARM GAS  /tmp/ccqErZ7k.s 			page 140


 7860 0218 05       		.uleb128 0x5
 7861 0219 49       		.uleb128 0x49
 7862 021a 13       		.uleb128 0x13
 7863 021b 02       		.uleb128 0x2
 7864 021c 06       		.uleb128 0x6
 7865 021d 00       		.byte	0
 7866 021e 00       		.byte	0
 7867 021f 27       		.uleb128 0x27
 7868 0220 34       		.uleb128 0x34
 7869 0221 00       		.byte	0
 7870 0222 03       		.uleb128 0x3
 7871 0223 0E       		.uleb128 0xe
 7872 0224 3A       		.uleb128 0x3a
 7873 0225 0B       		.uleb128 0xb
 7874 0226 3B       		.uleb128 0x3b
 7875 0227 05       		.uleb128 0x5
 7876 0228 49       		.uleb128 0x49
 7877 0229 13       		.uleb128 0x13
 7878 022a 1C       		.uleb128 0x1c
 7879 022b 0B       		.uleb128 0xb
 7880 022c 00       		.byte	0
 7881 022d 00       		.byte	0
 7882 022e 28       		.uleb128 0x28
 7883 022f 34       		.uleb128 0x34
 7884 0230 00       		.byte	0
 7885 0231 03       		.uleb128 0x3
 7886 0232 0E       		.uleb128 0xe
 7887 0233 3A       		.uleb128 0x3a
 7888 0234 0B       		.uleb128 0xb
 7889 0235 3B       		.uleb128 0x3b
 7890 0236 05       		.uleb128 0x5
 7891 0237 49       		.uleb128 0x49
 7892 0238 13       		.uleb128 0x13
 7893 0239 02       		.uleb128 0x2
 7894 023a 06       		.uleb128 0x6
 7895 023b 00       		.byte	0
 7896 023c 00       		.byte	0
 7897 023d 29       		.uleb128 0x29
 7898 023e 898201   		.uleb128 0x4109
 7899 0241 00       		.byte	0
 7900 0242 11       		.uleb128 0x11
 7901 0243 01       		.uleb128 0x1
 7902 0244 31       		.uleb128 0x31
 7903 0245 13       		.uleb128 0x13
 7904 0246 00       		.byte	0
 7905 0247 00       		.byte	0
 7906 0248 2A       		.uleb128 0x2a
 7907 0249 898201   		.uleb128 0x4109
 7908 024c 01       		.byte	0x1
 7909 024d 11       		.uleb128 0x11
 7910 024e 01       		.uleb128 0x1
 7911 024f 31       		.uleb128 0x31
 7912 0250 13       		.uleb128 0x13
 7913 0251 01       		.uleb128 0x1
 7914 0252 13       		.uleb128 0x13
 7915 0253 00       		.byte	0
 7916 0254 00       		.byte	0
ARM GAS  /tmp/ccqErZ7k.s 			page 141


 7917 0255 2B       		.uleb128 0x2b
 7918 0256 8A8201   		.uleb128 0x410a
 7919 0259 00       		.byte	0
 7920 025a 02       		.uleb128 0x2
 7921 025b 0A       		.uleb128 0xa
 7922 025c 9142     		.uleb128 0x2111
 7923 025e 0A       		.uleb128 0xa
 7924 025f 00       		.byte	0
 7925 0260 00       		.byte	0
 7926 0261 2C       		.uleb128 0x2c
 7927 0262 0B       		.uleb128 0xb
 7928 0263 01       		.byte	0x1
 7929 0264 55       		.uleb128 0x55
 7930 0265 06       		.uleb128 0x6
 7931 0266 00       		.byte	0
 7932 0267 00       		.byte	0
 7933 0268 2D       		.uleb128 0x2d
 7934 0269 2E       		.uleb128 0x2e
 7935 026a 01       		.byte	0x1
 7936 026b 3F       		.uleb128 0x3f
 7937 026c 0C       		.uleb128 0xc
 7938 026d 03       		.uleb128 0x3
 7939 026e 0E       		.uleb128 0xe
 7940 026f 3A       		.uleb128 0x3a
 7941 0270 0B       		.uleb128 0xb
 7942 0271 3B       		.uleb128 0x3b
 7943 0272 05       		.uleb128 0x5
 7944 0273 27       		.uleb128 0x27
 7945 0274 0C       		.uleb128 0xc
 7946 0275 11       		.uleb128 0x11
 7947 0276 01       		.uleb128 0x1
 7948 0277 12       		.uleb128 0x12
 7949 0278 01       		.uleb128 0x1
 7950 0279 40       		.uleb128 0x40
 7951 027a 06       		.uleb128 0x6
 7952 027b 9742     		.uleb128 0x2117
 7953 027d 0C       		.uleb128 0xc
 7954 027e 01       		.uleb128 0x1
 7955 027f 13       		.uleb128 0x13
 7956 0280 00       		.byte	0
 7957 0281 00       		.byte	0
 7958 0282 2E       		.uleb128 0x2e
 7959 0283 898201   		.uleb128 0x4109
 7960 0286 01       		.byte	0x1
 7961 0287 11       		.uleb128 0x11
 7962 0288 01       		.uleb128 0x1
 7963 0289 9542     		.uleb128 0x2115
 7964 028b 0C       		.uleb128 0xc
 7965 028c 31       		.uleb128 0x31
 7966 028d 13       		.uleb128 0x13
 7967 028e 01       		.uleb128 0x1
 7968 028f 13       		.uleb128 0x13
 7969 0290 00       		.byte	0
 7970 0291 00       		.byte	0
 7971 0292 2F       		.uleb128 0x2f
 7972 0293 898201   		.uleb128 0x4109
 7973 0296 01       		.byte	0x1
ARM GAS  /tmp/ccqErZ7k.s 			page 142


 7974 0297 11       		.uleb128 0x11
 7975 0298 01       		.uleb128 0x1
 7976 0299 9542     		.uleb128 0x2115
 7977 029b 0C       		.uleb128 0xc
 7978 029c 31       		.uleb128 0x31
 7979 029d 13       		.uleb128 0x13
 7980 029e 00       		.byte	0
 7981 029f 00       		.byte	0
 7982 02a0 30       		.uleb128 0x30
 7983 02a1 0B       		.uleb128 0xb
 7984 02a2 01       		.byte	0x1
 7985 02a3 11       		.uleb128 0x11
 7986 02a4 01       		.uleb128 0x1
 7987 02a5 12       		.uleb128 0x12
 7988 02a6 01       		.uleb128 0x1
 7989 02a7 00       		.byte	0
 7990 02a8 00       		.byte	0
 7991 02a9 31       		.uleb128 0x31
 7992 02aa 2E       		.uleb128 0x2e
 7993 02ab 01       		.byte	0x1
 7994 02ac 3F       		.uleb128 0x3f
 7995 02ad 0C       		.uleb128 0xc
 7996 02ae 03       		.uleb128 0x3
 7997 02af 0E       		.uleb128 0xe
 7998 02b0 3A       		.uleb128 0x3a
 7999 02b1 0B       		.uleb128 0xb
 8000 02b2 3B       		.uleb128 0x3b
 8001 02b3 05       		.uleb128 0x5
 8002 02b4 27       		.uleb128 0x27
 8003 02b5 0C       		.uleb128 0xc
 8004 02b6 11       		.uleb128 0x11
 8005 02b7 01       		.uleb128 0x1
 8006 02b8 12       		.uleb128 0x12
 8007 02b9 01       		.uleb128 0x1
 8008 02ba 40       		.uleb128 0x40
 8009 02bb 0A       		.uleb128 0xa
 8010 02bc 9742     		.uleb128 0x2117
 8011 02be 0C       		.uleb128 0xc
 8012 02bf 01       		.uleb128 0x1
 8013 02c0 13       		.uleb128 0x13
 8014 02c1 00       		.byte	0
 8015 02c2 00       		.byte	0
 8016 02c3 32       		.uleb128 0x32
 8017 02c4 05       		.uleb128 0x5
 8018 02c5 00       		.byte	0
 8019 02c6 03       		.uleb128 0x3
 8020 02c7 0E       		.uleb128 0xe
 8021 02c8 3A       		.uleb128 0x3a
 8022 02c9 0B       		.uleb128 0xb
 8023 02ca 3B       		.uleb128 0x3b
 8024 02cb 05       		.uleb128 0x5
 8025 02cc 49       		.uleb128 0x49
 8026 02cd 13       		.uleb128 0x13
 8027 02ce 02       		.uleb128 0x2
 8028 02cf 0A       		.uleb128 0xa
 8029 02d0 00       		.byte	0
 8030 02d1 00       		.byte	0
ARM GAS  /tmp/ccqErZ7k.s 			page 143


 8031 02d2 33       		.uleb128 0x33
 8032 02d3 2E       		.uleb128 0x2e
 8033 02d4 01       		.byte	0x1
 8034 02d5 31       		.uleb128 0x31
 8035 02d6 13       		.uleb128 0x13
 8036 02d7 11       		.uleb128 0x11
 8037 02d8 01       		.uleb128 0x1
 8038 02d9 12       		.uleb128 0x12
 8039 02da 01       		.uleb128 0x1
 8040 02db 40       		.uleb128 0x40
 8041 02dc 06       		.uleb128 0x6
 8042 02dd 9742     		.uleb128 0x2117
 8043 02df 0C       		.uleb128 0xc
 8044 02e0 01       		.uleb128 0x1
 8045 02e1 13       		.uleb128 0x13
 8046 02e2 00       		.byte	0
 8047 02e3 00       		.byte	0
 8048 02e4 34       		.uleb128 0x34
 8049 02e5 05       		.uleb128 0x5
 8050 02e6 00       		.byte	0
 8051 02e7 31       		.uleb128 0x31
 8052 02e8 13       		.uleb128 0x13
 8053 02e9 02       		.uleb128 0x2
 8054 02ea 06       		.uleb128 0x6
 8055 02eb 00       		.byte	0
 8056 02ec 00       		.byte	0
 8057 02ed 35       		.uleb128 0x35
 8058 02ee 1D       		.uleb128 0x1d
 8059 02ef 01       		.byte	0x1
 8060 02f0 31       		.uleb128 0x31
 8061 02f1 13       		.uleb128 0x13
 8062 02f2 11       		.uleb128 0x11
 8063 02f3 01       		.uleb128 0x1
 8064 02f4 12       		.uleb128 0x12
 8065 02f5 01       		.uleb128 0x1
 8066 02f6 58       		.uleb128 0x58
 8067 02f7 0B       		.uleb128 0xb
 8068 02f8 59       		.uleb128 0x59
 8069 02f9 05       		.uleb128 0x5
 8070 02fa 00       		.byte	0
 8071 02fb 00       		.byte	0
 8072 02fc 36       		.uleb128 0x36
 8073 02fd 0B       		.uleb128 0xb
 8074 02fe 01       		.byte	0x1
 8075 02ff 55       		.uleb128 0x55
 8076 0300 06       		.uleb128 0x6
 8077 0301 01       		.uleb128 0x1
 8078 0302 13       		.uleb128 0x13
 8079 0303 00       		.byte	0
 8080 0304 00       		.byte	0
 8081 0305 37       		.uleb128 0x37
 8082 0306 898201   		.uleb128 0x4109
 8083 0309 01       		.byte	0x1
 8084 030a 11       		.uleb128 0x11
 8085 030b 01       		.uleb128 0x1
 8086 030c 01       		.uleb128 0x1
 8087 030d 13       		.uleb128 0x13
ARM GAS  /tmp/ccqErZ7k.s 			page 144


 8088 030e 00       		.byte	0
 8089 030f 00       		.byte	0
 8090 0310 38       		.uleb128 0x38
 8091 0311 898201   		.uleb128 0x4109
 8092 0314 01       		.byte	0x1
 8093 0315 11       		.uleb128 0x11
 8094 0316 01       		.uleb128 0x1
 8095 0317 31       		.uleb128 0x31
 8096 0318 13       		.uleb128 0x13
 8097 0319 00       		.byte	0
 8098 031a 00       		.byte	0
 8099 031b 39       		.uleb128 0x39
 8100 031c 2E       		.uleb128 0x2e
 8101 031d 01       		.byte	0x1
 8102 031e 03       		.uleb128 0x3
 8103 031f 0E       		.uleb128 0xe
 8104 0320 3A       		.uleb128 0x3a
 8105 0321 0B       		.uleb128 0xb
 8106 0322 3B       		.uleb128 0x3b
 8107 0323 05       		.uleb128 0x5
 8108 0324 27       		.uleb128 0x27
 8109 0325 0C       		.uleb128 0xc
 8110 0326 20       		.uleb128 0x20
 8111 0327 0B       		.uleb128 0xb
 8112 0328 01       		.uleb128 0x1
 8113 0329 13       		.uleb128 0x13
 8114 032a 00       		.byte	0
 8115 032b 00       		.byte	0
 8116 032c 3A       		.uleb128 0x3a
 8117 032d 34       		.uleb128 0x34
 8118 032e 00       		.byte	0
 8119 032f 03       		.uleb128 0x3
 8120 0330 0E       		.uleb128 0xe
 8121 0331 3A       		.uleb128 0x3a
 8122 0332 0B       		.uleb128 0xb
 8123 0333 3B       		.uleb128 0x3b
 8124 0334 05       		.uleb128 0x5
 8125 0335 49       		.uleb128 0x49
 8126 0336 13       		.uleb128 0x13
 8127 0337 00       		.byte	0
 8128 0338 00       		.byte	0
 8129 0339 3B       		.uleb128 0x3b
 8130 033a 05       		.uleb128 0x5
 8131 033b 00       		.byte	0
 8132 033c 03       		.uleb128 0x3
 8133 033d 0E       		.uleb128 0xe
 8134 033e 3A       		.uleb128 0x3a
 8135 033f 0B       		.uleb128 0xb
 8136 0340 3B       		.uleb128 0x3b
 8137 0341 05       		.uleb128 0x5
 8138 0342 49       		.uleb128 0x49
 8139 0343 13       		.uleb128 0x13
 8140 0344 00       		.byte	0
 8141 0345 00       		.byte	0
 8142 0346 3C       		.uleb128 0x3c
 8143 0347 1D       		.uleb128 0x1d
 8144 0348 01       		.byte	0x1
ARM GAS  /tmp/ccqErZ7k.s 			page 145


 8145 0349 31       		.uleb128 0x31
 8146 034a 13       		.uleb128 0x13
 8147 034b 52       		.uleb128 0x52
 8148 034c 01       		.uleb128 0x1
 8149 034d 55       		.uleb128 0x55
 8150 034e 06       		.uleb128 0x6
 8151 034f 58       		.uleb128 0x58
 8152 0350 0B       		.uleb128 0xb
 8153 0351 59       		.uleb128 0x59
 8154 0352 05       		.uleb128 0x5
 8155 0353 01       		.uleb128 0x1
 8156 0354 13       		.uleb128 0x13
 8157 0355 00       		.byte	0
 8158 0356 00       		.byte	0
 8159 0357 3D       		.uleb128 0x3d
 8160 0358 34       		.uleb128 0x34
 8161 0359 00       		.byte	0
 8162 035a 31       		.uleb128 0x31
 8163 035b 13       		.uleb128 0x13
 8164 035c 02       		.uleb128 0x2
 8165 035d 0A       		.uleb128 0xa
 8166 035e 00       		.byte	0
 8167 035f 00       		.byte	0
 8168 0360 3E       		.uleb128 0x3e
 8169 0361 1D       		.uleb128 0x1d
 8170 0362 01       		.byte	0x1
 8171 0363 31       		.uleb128 0x31
 8172 0364 13       		.uleb128 0x13
 8173 0365 11       		.uleb128 0x11
 8174 0366 01       		.uleb128 0x1
 8175 0367 12       		.uleb128 0x12
 8176 0368 01       		.uleb128 0x1
 8177 0369 58       		.uleb128 0x58
 8178 036a 0B       		.uleb128 0xb
 8179 036b 59       		.uleb128 0x59
 8180 036c 05       		.uleb128 0x5
 8181 036d 01       		.uleb128 0x1
 8182 036e 13       		.uleb128 0x13
 8183 036f 00       		.byte	0
 8184 0370 00       		.byte	0
 8185 0371 3F       		.uleb128 0x3f
 8186 0372 34       		.uleb128 0x34
 8187 0373 00       		.byte	0
 8188 0374 31       		.uleb128 0x31
 8189 0375 13       		.uleb128 0x13
 8190 0376 02       		.uleb128 0x2
 8191 0377 06       		.uleb128 0x6
 8192 0378 00       		.byte	0
 8193 0379 00       		.byte	0
 8194 037a 40       		.uleb128 0x40
 8195 037b 05       		.uleb128 0x5
 8196 037c 00       		.byte	0
 8197 037d 31       		.uleb128 0x31
 8198 037e 13       		.uleb128 0x13
 8199 037f 02       		.uleb128 0x2
 8200 0380 0A       		.uleb128 0xa
 8201 0381 00       		.byte	0
ARM GAS  /tmp/ccqErZ7k.s 			page 146


 8202 0382 00       		.byte	0
 8203 0383 41       		.uleb128 0x41
 8204 0384 2E       		.uleb128 0x2e
 8205 0385 01       		.byte	0x1
 8206 0386 3F       		.uleb128 0x3f
 8207 0387 0C       		.uleb128 0xc
 8208 0388 03       		.uleb128 0x3
 8209 0389 0E       		.uleb128 0xe
 8210 038a 3A       		.uleb128 0x3a
 8211 038b 0B       		.uleb128 0xb
 8212 038c 3B       		.uleb128 0x3b
 8213 038d 05       		.uleb128 0x5
 8214 038e 27       		.uleb128 0x27
 8215 038f 0C       		.uleb128 0xc
 8216 0390 49       		.uleb128 0x49
 8217 0391 13       		.uleb128 0x13
 8218 0392 11       		.uleb128 0x11
 8219 0393 01       		.uleb128 0x1
 8220 0394 12       		.uleb128 0x12
 8221 0395 01       		.uleb128 0x1
 8222 0396 40       		.uleb128 0x40
 8223 0397 0A       		.uleb128 0xa
 8224 0398 9742     		.uleb128 0x2117
 8225 039a 0C       		.uleb128 0xc
 8226 039b 01       		.uleb128 0x1
 8227 039c 13       		.uleb128 0x13
 8228 039d 00       		.byte	0
 8229 039e 00       		.byte	0
 8230 039f 42       		.uleb128 0x42
 8231 03a0 2E       		.uleb128 0x2e
 8232 03a1 01       		.byte	0x1
 8233 03a2 03       		.uleb128 0x3
 8234 03a3 0E       		.uleb128 0xe
 8235 03a4 3A       		.uleb128 0x3a
 8236 03a5 0B       		.uleb128 0xb
 8237 03a6 3B       		.uleb128 0x3b
 8238 03a7 0B       		.uleb128 0xb
 8239 03a8 27       		.uleb128 0x27
 8240 03a9 0C       		.uleb128 0xc
 8241 03aa 49       		.uleb128 0x49
 8242 03ab 13       		.uleb128 0x13
 8243 03ac 11       		.uleb128 0x11
 8244 03ad 01       		.uleb128 0x1
 8245 03ae 12       		.uleb128 0x12
 8246 03af 01       		.uleb128 0x1
 8247 03b0 40       		.uleb128 0x40
 8248 03b1 06       		.uleb128 0x6
 8249 03b2 9742     		.uleb128 0x2117
 8250 03b4 0C       		.uleb128 0xc
 8251 03b5 01       		.uleb128 0x1
 8252 03b6 13       		.uleb128 0x13
 8253 03b7 00       		.byte	0
 8254 03b8 00       		.byte	0
 8255 03b9 43       		.uleb128 0x43
 8256 03ba 05       		.uleb128 0x5
 8257 03bb 00       		.byte	0
 8258 03bc 03       		.uleb128 0x3
ARM GAS  /tmp/ccqErZ7k.s 			page 147


 8259 03bd 08       		.uleb128 0x8
 8260 03be 3A       		.uleb128 0x3a
 8261 03bf 0B       		.uleb128 0xb
 8262 03c0 3B       		.uleb128 0x3b
 8263 03c1 0B       		.uleb128 0xb
 8264 03c2 49       		.uleb128 0x49
 8265 03c3 13       		.uleb128 0x13
 8266 03c4 02       		.uleb128 0x2
 8267 03c5 06       		.uleb128 0x6
 8268 03c6 00       		.byte	0
 8269 03c7 00       		.byte	0
 8270 03c8 44       		.uleb128 0x44
 8271 03c9 05       		.uleb128 0x5
 8272 03ca 00       		.byte	0
 8273 03cb 03       		.uleb128 0x3
 8274 03cc 0E       		.uleb128 0xe
 8275 03cd 3A       		.uleb128 0x3a
 8276 03ce 0B       		.uleb128 0xb
 8277 03cf 3B       		.uleb128 0x3b
 8278 03d0 0B       		.uleb128 0xb
 8279 03d1 49       		.uleb128 0x49
 8280 03d2 13       		.uleb128 0x13
 8281 03d3 02       		.uleb128 0x2
 8282 03d4 06       		.uleb128 0x6
 8283 03d5 00       		.byte	0
 8284 03d6 00       		.byte	0
 8285 03d7 45       		.uleb128 0x45
 8286 03d8 34       		.uleb128 0x34
 8287 03d9 00       		.byte	0
 8288 03da 03       		.uleb128 0x3
 8289 03db 08       		.uleb128 0x8
 8290 03dc 3A       		.uleb128 0x3a
 8291 03dd 0B       		.uleb128 0xb
 8292 03de 3B       		.uleb128 0x3b
 8293 03df 0B       		.uleb128 0xb
 8294 03e0 49       		.uleb128 0x49
 8295 03e1 13       		.uleb128 0x13
 8296 03e2 02       		.uleb128 0x2
 8297 03e3 06       		.uleb128 0x6
 8298 03e4 00       		.byte	0
 8299 03e5 00       		.byte	0
 8300 03e6 46       		.uleb128 0x46
 8301 03e7 2E       		.uleb128 0x2e
 8302 03e8 01       		.byte	0x1
 8303 03e9 3F       		.uleb128 0x3f
 8304 03ea 0C       		.uleb128 0xc
 8305 03eb 03       		.uleb128 0x3
 8306 03ec 0E       		.uleb128 0xe
 8307 03ed 3A       		.uleb128 0x3a
 8308 03ee 0B       		.uleb128 0xb
 8309 03ef 3B       		.uleb128 0x3b
 8310 03f0 0B       		.uleb128 0xb
 8311 03f1 27       		.uleb128 0x27
 8312 03f2 0C       		.uleb128 0xc
 8313 03f3 49       		.uleb128 0x49
 8314 03f4 13       		.uleb128 0x13
 8315 03f5 11       		.uleb128 0x11
ARM GAS  /tmp/ccqErZ7k.s 			page 148


 8316 03f6 01       		.uleb128 0x1
 8317 03f7 12       		.uleb128 0x12
 8318 03f8 01       		.uleb128 0x1
 8319 03f9 40       		.uleb128 0x40
 8320 03fa 0A       		.uleb128 0xa
 8321 03fb 9742     		.uleb128 0x2117
 8322 03fd 0C       		.uleb128 0xc
 8323 03fe 01       		.uleb128 0x1
 8324 03ff 13       		.uleb128 0x13
 8325 0400 00       		.byte	0
 8326 0401 00       		.byte	0
 8327 0402 47       		.uleb128 0x47
 8328 0403 05       		.uleb128 0x5
 8329 0404 00       		.byte	0
 8330 0405 31       		.uleb128 0x31
 8331 0406 13       		.uleb128 0x13
 8332 0407 00       		.byte	0
 8333 0408 00       		.byte	0
 8334 0409 48       		.uleb128 0x48
 8335 040a 898201   		.uleb128 0x4109
 8336 040d 01       		.byte	0x1
 8337 040e 11       		.uleb128 0x11
 8338 040f 01       		.uleb128 0x1
 8339 0410 9342     		.uleb128 0x2113
 8340 0412 0A       		.uleb128 0xa
 8341 0413 01       		.uleb128 0x1
 8342 0414 13       		.uleb128 0x13
 8343 0415 00       		.byte	0
 8344 0416 00       		.byte	0
 8345 0417 49       		.uleb128 0x49
 8346 0418 2E       		.uleb128 0x2e
 8347 0419 01       		.byte	0x1
 8348 041a 3F       		.uleb128 0x3f
 8349 041b 0C       		.uleb128 0xc
 8350 041c 03       		.uleb128 0x3
 8351 041d 0E       		.uleb128 0xe
 8352 041e 3A       		.uleb128 0x3a
 8353 041f 0B       		.uleb128 0xb
 8354 0420 3B       		.uleb128 0x3b
 8355 0421 0B       		.uleb128 0xb
 8356 0422 27       		.uleb128 0x27
 8357 0423 0C       		.uleb128 0xc
 8358 0424 11       		.uleb128 0x11
 8359 0425 01       		.uleb128 0x1
 8360 0426 12       		.uleb128 0x12
 8361 0427 01       		.uleb128 0x1
 8362 0428 40       		.uleb128 0x40
 8363 0429 06       		.uleb128 0x6
 8364 042a 9742     		.uleb128 0x2117
 8365 042c 0C       		.uleb128 0xc
 8366 042d 01       		.uleb128 0x1
 8367 042e 13       		.uleb128 0x13
 8368 042f 00       		.byte	0
 8369 0430 00       		.byte	0
 8370 0431 4A       		.uleb128 0x4a
 8371 0432 898201   		.uleb128 0x4109
 8372 0435 00       		.byte	0
ARM GAS  /tmp/ccqErZ7k.s 			page 149


 8373 0436 11       		.uleb128 0x11
 8374 0437 01       		.uleb128 0x1
 8375 0438 9542     		.uleb128 0x2115
 8376 043a 0C       		.uleb128 0xc
 8377 043b 31       		.uleb128 0x31
 8378 043c 13       		.uleb128 0x13
 8379 043d 00       		.byte	0
 8380 043e 00       		.byte	0
 8381 043f 4B       		.uleb128 0x4b
 8382 0440 2E       		.uleb128 0x2e
 8383 0441 01       		.byte	0x1
 8384 0442 31       		.uleb128 0x31
 8385 0443 13       		.uleb128 0x13
 8386 0444 11       		.uleb128 0x11
 8387 0445 01       		.uleb128 0x1
 8388 0446 12       		.uleb128 0x12
 8389 0447 01       		.uleb128 0x1
 8390 0448 40       		.uleb128 0x40
 8391 0449 0A       		.uleb128 0xa
 8392 044a 9742     		.uleb128 0x2117
 8393 044c 0C       		.uleb128 0xc
 8394 044d 01       		.uleb128 0x1
 8395 044e 13       		.uleb128 0x13
 8396 044f 00       		.byte	0
 8397 0450 00       		.byte	0
 8398 0451 4C       		.uleb128 0x4c
 8399 0452 34       		.uleb128 0x34
 8400 0453 00       		.byte	0
 8401 0454 03       		.uleb128 0x3
 8402 0455 0E       		.uleb128 0xe
 8403 0456 3A       		.uleb128 0x3a
 8404 0457 0B       		.uleb128 0xb
 8405 0458 3B       		.uleb128 0x3b
 8406 0459 0B       		.uleb128 0xb
 8407 045a 49       		.uleb128 0x49
 8408 045b 13       		.uleb128 0x13
 8409 045c 02       		.uleb128 0x2
 8410 045d 0A       		.uleb128 0xa
 8411 045e 00       		.byte	0
 8412 045f 00       		.byte	0
 8413 0460 4D       		.uleb128 0x4d
 8414 0461 34       		.uleb128 0x34
 8415 0462 00       		.byte	0
 8416 0463 03       		.uleb128 0x3
 8417 0464 0E       		.uleb128 0xe
 8418 0465 3A       		.uleb128 0x3a
 8419 0466 0B       		.uleb128 0xb
 8420 0467 3B       		.uleb128 0x3b
 8421 0468 0B       		.uleb128 0xb
 8422 0469 49       		.uleb128 0x49
 8423 046a 13       		.uleb128 0x13
 8424 046b 3F       		.uleb128 0x3f
 8425 046c 0C       		.uleb128 0xc
 8426 046d 02       		.uleb128 0x2
 8427 046e 0A       		.uleb128 0xa
 8428 046f 00       		.byte	0
 8429 0470 00       		.byte	0
ARM GAS  /tmp/ccqErZ7k.s 			page 150


 8430 0471 4E       		.uleb128 0x4e
 8431 0472 34       		.uleb128 0x34
 8432 0473 00       		.byte	0
 8433 0474 03       		.uleb128 0x3
 8434 0475 0E       		.uleb128 0xe
 8435 0476 3A       		.uleb128 0x3a
 8436 0477 0B       		.uleb128 0xb
 8437 0478 3B       		.uleb128 0x3b
 8438 0479 0B       		.uleb128 0xb
 8439 047a 49       		.uleb128 0x49
 8440 047b 13       		.uleb128 0x13
 8441 047c 3F       		.uleb128 0x3f
 8442 047d 0C       		.uleb128 0xc
 8443 047e 3C       		.uleb128 0x3c
 8444 047f 0C       		.uleb128 0xc
 8445 0480 00       		.byte	0
 8446 0481 00       		.byte	0
 8447 0482 4F       		.uleb128 0x4f
 8448 0483 2E       		.uleb128 0x2e
 8449 0484 00       		.byte	0
 8450 0485 3F       		.uleb128 0x3f
 8451 0486 0C       		.uleb128 0xc
 8452 0487 03       		.uleb128 0x3
 8453 0488 0E       		.uleb128 0xe
 8454 0489 3A       		.uleb128 0x3a
 8455 048a 0B       		.uleb128 0xb
 8456 048b 3B       		.uleb128 0x3b
 8457 048c 05       		.uleb128 0x5
 8458 048d 27       		.uleb128 0x27
 8459 048e 0C       		.uleb128 0xc
 8460 048f 3C       		.uleb128 0x3c
 8461 0490 0C       		.uleb128 0xc
 8462 0491 00       		.byte	0
 8463 0492 00       		.byte	0
 8464 0493 50       		.uleb128 0x50
 8465 0494 2E       		.uleb128 0x2e
 8466 0495 01       		.byte	0x1
 8467 0496 3F       		.uleb128 0x3f
 8468 0497 0C       		.uleb128 0xc
 8469 0498 03       		.uleb128 0x3
 8470 0499 0E       		.uleb128 0xe
 8471 049a 3A       		.uleb128 0x3a
 8472 049b 0B       		.uleb128 0xb
 8473 049c 3B       		.uleb128 0x3b
 8474 049d 0B       		.uleb128 0xb
 8475 049e 27       		.uleb128 0x27
 8476 049f 0C       		.uleb128 0xc
 8477 04a0 49       		.uleb128 0x49
 8478 04a1 13       		.uleb128 0x13
 8479 04a2 3C       		.uleb128 0x3c
 8480 04a3 0C       		.uleb128 0xc
 8481 04a4 01       		.uleb128 0x1
 8482 04a5 13       		.uleb128 0x13
 8483 04a6 00       		.byte	0
 8484 04a7 00       		.byte	0
 8485 04a8 51       		.uleb128 0x51
 8486 04a9 2E       		.uleb128 0x2e
ARM GAS  /tmp/ccqErZ7k.s 			page 151


 8487 04aa 01       		.byte	0x1
 8488 04ab 3F       		.uleb128 0x3f
 8489 04ac 0C       		.uleb128 0xc
 8490 04ad 03       		.uleb128 0x3
 8491 04ae 0E       		.uleb128 0xe
 8492 04af 3A       		.uleb128 0x3a
 8493 04b0 0B       		.uleb128 0xb
 8494 04b1 3B       		.uleb128 0x3b
 8495 04b2 0B       		.uleb128 0xb
 8496 04b3 27       		.uleb128 0x27
 8497 04b4 0C       		.uleb128 0xc
 8498 04b5 3C       		.uleb128 0x3c
 8499 04b6 0C       		.uleb128 0xc
 8500 04b7 01       		.uleb128 0x1
 8501 04b8 13       		.uleb128 0x13
 8502 04b9 00       		.byte	0
 8503 04ba 00       		.byte	0
 8504 04bb 52       		.uleb128 0x52
 8505 04bc 2E       		.uleb128 0x2e
 8506 04bd 01       		.byte	0x1
 8507 04be 3F       		.uleb128 0x3f
 8508 04bf 0C       		.uleb128 0xc
 8509 04c0 03       		.uleb128 0x3
 8510 04c1 0E       		.uleb128 0xe
 8511 04c2 3A       		.uleb128 0x3a
 8512 04c3 0B       		.uleb128 0xb
 8513 04c4 3B       		.uleb128 0x3b
 8514 04c5 05       		.uleb128 0x5
 8515 04c6 27       		.uleb128 0x27
 8516 04c7 0C       		.uleb128 0xc
 8517 04c8 49       		.uleb128 0x49
 8518 04c9 13       		.uleb128 0x13
 8519 04ca 3C       		.uleb128 0x3c
 8520 04cb 0C       		.uleb128 0xc
 8521 04cc 01       		.uleb128 0x1
 8522 04cd 13       		.uleb128 0x13
 8523 04ce 00       		.byte	0
 8524 04cf 00       		.byte	0
 8525 04d0 53       		.uleb128 0x53
 8526 04d1 2E       		.uleb128 0x2e
 8527 04d2 01       		.byte	0x1
 8528 04d3 3F       		.uleb128 0x3f
 8529 04d4 0C       		.uleb128 0xc
 8530 04d5 03       		.uleb128 0x3
 8531 04d6 0E       		.uleb128 0xe
 8532 04d7 3A       		.uleb128 0x3a
 8533 04d8 0B       		.uleb128 0xb
 8534 04d9 3B       		.uleb128 0x3b
 8535 04da 05       		.uleb128 0x5
 8536 04db 27       		.uleb128 0x27
 8537 04dc 0C       		.uleb128 0xc
 8538 04dd 3C       		.uleb128 0x3c
 8539 04de 0C       		.uleb128 0xc
 8540 04df 01       		.uleb128 0x1
 8541 04e0 13       		.uleb128 0x13
 8542 04e1 00       		.byte	0
 8543 04e2 00       		.byte	0
ARM GAS  /tmp/ccqErZ7k.s 			page 152


 8544 04e3 54       		.uleb128 0x54
 8545 04e4 2E       		.uleb128 0x2e
 8546 04e5 01       		.byte	0x1
 8547 04e6 3F       		.uleb128 0x3f
 8548 04e7 0C       		.uleb128 0xc
 8549 04e8 03       		.uleb128 0x3
 8550 04e9 0E       		.uleb128 0xe
 8551 04ea 27       		.uleb128 0x27
 8552 04eb 0C       		.uleb128 0xc
 8553 04ec 49       		.uleb128 0x49
 8554 04ed 13       		.uleb128 0x13
 8555 04ee 34       		.uleb128 0x34
 8556 04ef 0C       		.uleb128 0xc
 8557 04f0 3C       		.uleb128 0x3c
 8558 04f1 0C       		.uleb128 0xc
 8559 04f2 01       		.uleb128 0x1
 8560 04f3 13       		.uleb128 0x13
 8561 04f4 00       		.byte	0
 8562 04f5 00       		.byte	0
 8563 04f6 55       		.uleb128 0x55
 8564 04f7 2E       		.uleb128 0x2e
 8565 04f8 01       		.byte	0x1
 8566 04f9 3F       		.uleb128 0x3f
 8567 04fa 0C       		.uleb128 0xc
 8568 04fb 03       		.uleb128 0x3
 8569 04fc 0E       		.uleb128 0xe
 8570 04fd 3A       		.uleb128 0x3a
 8571 04fe 0B       		.uleb128 0xb
 8572 04ff 3B       		.uleb128 0x3b
 8573 0500 05       		.uleb128 0x5
 8574 0501 27       		.uleb128 0x27
 8575 0502 0C       		.uleb128 0xc
 8576 0503 49       		.uleb128 0x49
 8577 0504 13       		.uleb128 0x13
 8578 0505 3C       		.uleb128 0x3c
 8579 0506 0C       		.uleb128 0xc
 8580 0507 00       		.byte	0
 8581 0508 00       		.byte	0
 8582 0509 00       		.byte	0
 8583              		.section	.debug_loc,"",%progbits
 8584              	.Ldebug_loc0:
 8585              	.LLST0:
 8586 0000 00000000 		.4byte	.LVL0
 8587 0004 04000000 		.4byte	.LVL1
 8588 0008 0100     		.2byte	0x1
 8589 000a 50       		.byte	0x50
 8590 000b 04000000 		.4byte	.LVL1
 8591 000f 06000000 		.4byte	.LFE14
 8592 0013 0400     		.2byte	0x4
 8593 0015 F3       		.byte	0xf3
 8594 0016 01       		.uleb128 0x1
 8595 0017 50       		.byte	0x50
 8596 0018 9F       		.byte	0x9f
 8597 0019 00000000 		.4byte	0
 8598 001d 00000000 		.4byte	0
 8599              	.LLST1:
 8600 0021 00000000 		.4byte	.LFB18
ARM GAS  /tmp/ccqErZ7k.s 			page 153


 8601 0025 02000000 		.4byte	.LCFI0
 8602 0029 0200     		.2byte	0x2
 8603 002b 7D       		.byte	0x7d
 8604 002c 00       		.sleb128 0
 8605 002d 02000000 		.4byte	.LCFI0
 8606 0031 48000000 		.4byte	.LFE18
 8607 0035 0200     		.2byte	0x2
 8608 0037 7D       		.byte	0x7d
 8609 0038 0C       		.sleb128 12
 8610 0039 00000000 		.4byte	0
 8611 003d 00000000 		.4byte	0
 8612              	.LLST2:
 8613 0041 1A000000 		.4byte	.LVL2
 8614 0045 1C000000 		.4byte	.LVL3
 8615 0049 0200     		.2byte	0x2
 8616 004b 30       		.byte	0x30
 8617 004c 9F       		.byte	0x9f
 8618 004d 00000000 		.4byte	0
 8619 0051 00000000 		.4byte	0
 8620              	.LLST3:
 8621 0055 00000000 		.4byte	.LFB13
 8622 0059 02000000 		.4byte	.LCFI1
 8623 005d 0200     		.2byte	0x2
 8624 005f 7D       		.byte	0x7d
 8625 0060 00       		.sleb128 0
 8626 0061 02000000 		.4byte	.LCFI1
 8627 0065 74000000 		.4byte	.LFE13
 8628 0069 0200     		.2byte	0x2
 8629 006b 7D       		.byte	0x7d
 8630 006c 18       		.sleb128 24
 8631 006d 00000000 		.4byte	0
 8632 0071 00000000 		.4byte	0
 8633              	.LLST4:
 8634 0075 00000000 		.4byte	.LVL6
 8635 0079 0E000000 		.4byte	.LVL7
 8636 007d 0100     		.2byte	0x1
 8637 007f 50       		.byte	0x50
 8638 0080 0E000000 		.4byte	.LVL7
 8639 0084 5C000000 		.4byte	.LVL16
 8640 0088 0100     		.2byte	0x1
 8641 008a 57       		.byte	0x57
 8642 008b 5C000000 		.4byte	.LVL16
 8643 008f 5F000000 		.4byte	.LVL17-1
 8644 0093 0100     		.2byte	0x1
 8645 0095 50       		.byte	0x50
 8646 0096 5F000000 		.4byte	.LVL17-1
 8647 009a 64000000 		.4byte	.LVL19
 8648 009e 0100     		.2byte	0x1
 8649 00a0 57       		.byte	0x57
 8650 00a1 64000000 		.4byte	.LVL19
 8651 00a5 67000000 		.4byte	.LVL20-1
 8652 00a9 0100     		.2byte	0x1
 8653 00ab 50       		.byte	0x50
 8654 00ac 67000000 		.4byte	.LVL20-1
 8655 00b0 74000000 		.4byte	.LFE13
 8656 00b4 0100     		.2byte	0x1
 8657 00b6 57       		.byte	0x57
ARM GAS  /tmp/ccqErZ7k.s 			page 154


 8658 00b7 00000000 		.4byte	0
 8659 00bb 00000000 		.4byte	0
 8660              	.LLST5:
 8661 00bf 00000000 		.4byte	.LVL6
 8662 00c3 0E000000 		.4byte	.LVL7
 8663 00c7 0100     		.2byte	0x1
 8664 00c9 51       		.byte	0x51
 8665 00ca 0E000000 		.4byte	.LVL7
 8666 00ce 5C000000 		.4byte	.LVL16
 8667 00d2 0100     		.2byte	0x1
 8668 00d4 56       		.byte	0x56
 8669 00d5 5C000000 		.4byte	.LVL16
 8670 00d9 5F000000 		.4byte	.LVL17-1
 8671 00dd 0100     		.2byte	0x1
 8672 00df 51       		.byte	0x51
 8673 00e0 5F000000 		.4byte	.LVL17-1
 8674 00e4 64000000 		.4byte	.LVL19
 8675 00e8 0100     		.2byte	0x1
 8676 00ea 56       		.byte	0x56
 8677 00eb 64000000 		.4byte	.LVL19
 8678 00ef 67000000 		.4byte	.LVL20-1
 8679 00f3 0100     		.2byte	0x1
 8680 00f5 51       		.byte	0x51
 8681 00f6 67000000 		.4byte	.LVL20-1
 8682 00fa 74000000 		.4byte	.LFE13
 8683 00fe 0100     		.2byte	0x1
 8684 0100 56       		.byte	0x56
 8685 0101 00000000 		.4byte	0
 8686 0105 00000000 		.4byte	0
 8687              	.LLST6:
 8688 0109 00000000 		.4byte	.LVL6
 8689 010d 0E000000 		.4byte	.LVL7
 8690 0111 0100     		.2byte	0x1
 8691 0113 52       		.byte	0x52
 8692 0114 0E000000 		.4byte	.LVL7
 8693 0118 38000000 		.4byte	.LVL11
 8694 011c 0100     		.2byte	0x1
 8695 011e 52       		.byte	0x52
 8696 011f 3C000000 		.4byte	.LVL12
 8697 0123 4E000000 		.4byte	.LVL14
 8698 0127 0100     		.2byte	0x1
 8699 0129 52       		.byte	0x52
 8700 012a 5C000000 		.4byte	.LVL16
 8701 012e 5F000000 		.4byte	.LVL17-1
 8702 0132 0100     		.2byte	0x1
 8703 0134 52       		.byte	0x52
 8704 0135 5F000000 		.4byte	.LVL17-1
 8705 0139 62000000 		.4byte	.LVL18
 8706 013d 0400     		.2byte	0x4
 8707 013f F3       		.byte	0xf3
 8708 0140 01       		.uleb128 0x1
 8709 0141 52       		.byte	0x52
 8710 0142 9F       		.byte	0x9f
 8711 0143 62000000 		.4byte	.LVL18
 8712 0147 64000000 		.4byte	.LVL19
 8713 014b 0100     		.2byte	0x1
 8714 014d 50       		.byte	0x50
ARM GAS  /tmp/ccqErZ7k.s 			page 155


 8715 014e 64000000 		.4byte	.LVL19
 8716 0152 67000000 		.4byte	.LVL20-1
 8717 0156 0100     		.2byte	0x1
 8718 0158 52       		.byte	0x52
 8719 0159 67000000 		.4byte	.LVL20-1
 8720 015d 74000000 		.4byte	.LFE13
 8721 0161 0400     		.2byte	0x4
 8722 0163 F3       		.byte	0xf3
 8723 0164 01       		.uleb128 0x1
 8724 0165 52       		.byte	0x52
 8725 0166 9F       		.byte	0x9f
 8726 0167 00000000 		.4byte	0
 8727 016b 00000000 		.4byte	0
 8728              	.LLST7:
 8729 016f 0E000000 		.4byte	.LVL7
 8730 0173 14000000 		.4byte	.LVL8
 8731 0177 0200     		.2byte	0x2
 8732 0179 30       		.byte	0x30
 8733 017a 9F       		.byte	0x9f
 8734 017b 00000000 		.4byte	0
 8735 017f 00000000 		.4byte	0
 8736              	.LLST8:
 8737 0183 1A000000 		.4byte	.LVL9
 8738 0187 38000000 		.4byte	.LVL11
 8739 018b 0100     		.2byte	0x1
 8740 018d 53       		.byte	0x53
 8741 018e 3C000000 		.4byte	.LVL12
 8742 0192 44000000 		.4byte	.LVL13
 8743 0196 0100     		.2byte	0x1
 8744 0198 53       		.byte	0x53
 8745 0199 00000000 		.4byte	0
 8746 019d 00000000 		.4byte	0
 8747              	.LLST9:
 8748 01a1 00000000 		.4byte	.LFB15
 8749 01a5 02000000 		.4byte	.LCFI2
 8750 01a9 0200     		.2byte	0x2
 8751 01ab 7D       		.byte	0x7d
 8752 01ac 00       		.sleb128 0
 8753 01ad 02000000 		.4byte	.LCFI2
 8754 01b1 B0000000 		.4byte	.LFE15
 8755 01b5 0200     		.2byte	0x2
 8756 01b7 7D       		.byte	0x7d
 8757 01b8 10       		.sleb128 16
 8758 01b9 00000000 		.4byte	0
 8759 01bd 00000000 		.4byte	0
 8760              	.LLST10:
 8761 01c1 00000000 		.4byte	.LVL21
 8762 01c5 0C000000 		.4byte	.LVL22
 8763 01c9 0100     		.2byte	0x1
 8764 01cb 50       		.byte	0x50
 8765 01cc 0C000000 		.4byte	.LVL22
 8766 01d0 8E000000 		.4byte	.LVL28
 8767 01d4 0100     		.2byte	0x1
 8768 01d6 54       		.byte	0x54
 8769 01d7 8E000000 		.4byte	.LVL28
 8770 01db 91000000 		.4byte	.LVL29-1
 8771 01df 0100     		.2byte	0x1
ARM GAS  /tmp/ccqErZ7k.s 			page 156


 8772 01e1 50       		.byte	0x50
 8773 01e2 91000000 		.4byte	.LVL29-1
 8774 01e6 B0000000 		.4byte	.LFE15
 8775 01ea 0100     		.2byte	0x1
 8776 01ec 54       		.byte	0x54
 8777 01ed 00000000 		.4byte	0
 8778 01f1 00000000 		.4byte	0
 8779              	.LLST11:
 8780 01f5 00000000 		.4byte	.LVL21
 8781 01f9 0F000000 		.4byte	.LVL23-1
 8782 01fd 0100     		.2byte	0x1
 8783 01ff 51       		.byte	0x51
 8784 0200 0F000000 		.4byte	.LVL23-1
 8785 0204 8E000000 		.4byte	.LVL28
 8786 0208 0400     		.2byte	0x4
 8787 020a F3       		.byte	0xf3
 8788 020b 01       		.uleb128 0x1
 8789 020c 51       		.byte	0x51
 8790 020d 9F       		.byte	0x9f
 8791 020e 8E000000 		.4byte	.LVL28
 8792 0212 91000000 		.4byte	.LVL29-1
 8793 0216 0100     		.2byte	0x1
 8794 0218 51       		.byte	0x51
 8795 0219 91000000 		.4byte	.LVL29-1
 8796 021d B0000000 		.4byte	.LFE15
 8797 0221 0400     		.2byte	0x4
 8798 0223 F3       		.byte	0xf3
 8799 0224 01       		.uleb128 0x1
 8800 0225 51       		.byte	0x51
 8801 0226 9F       		.byte	0x9f
 8802 0227 00000000 		.4byte	0
 8803 022b 00000000 		.4byte	0
 8804              	.LLST12:
 8805 022f 10000000 		.4byte	.LVL23
 8806 0233 68000000 		.4byte	.LVL24
 8807 0237 0100     		.2byte	0x1
 8808 0239 50       		.byte	0x50
 8809 023a 68000000 		.4byte	.LVL24
 8810 023e 82000000 		.4byte	.LVL27
 8811 0242 0100     		.2byte	0x1
 8812 0244 55       		.byte	0x55
 8813 0245 82000000 		.4byte	.LVL27
 8814 0249 8E000000 		.4byte	.LVL28
 8815 024d 0100     		.2byte	0x1
 8816 024f 50       		.byte	0x50
 8817 0250 96000000 		.4byte	.LVL30
 8818 0254 B0000000 		.4byte	.LFE15
 8819 0258 0100     		.2byte	0x1
 8820 025a 50       		.byte	0x50
 8821 025b 00000000 		.4byte	0
 8822 025f 00000000 		.4byte	0
 8823              	.LLST13:
 8824 0263 00000000 		.4byte	.LFB16
 8825 0267 02000000 		.4byte	.LCFI3
 8826 026b 0200     		.2byte	0x2
 8827 026d 7D       		.byte	0x7d
 8828 026e 00       		.sleb128 0
ARM GAS  /tmp/ccqErZ7k.s 			page 157


 8829 026f 02000000 		.4byte	.LCFI3
 8830 0273 44000000 		.4byte	.LFE16
 8831 0277 0200     		.2byte	0x2
 8832 0279 7D       		.byte	0x7d
 8833 027a 10       		.sleb128 16
 8834 027b 00000000 		.4byte	0
 8835 027f 00000000 		.4byte	0
 8836              	.LLST14:
 8837 0283 00000000 		.4byte	.LVL31
 8838 0287 0E000000 		.4byte	.LVL33
 8839 028b 0100     		.2byte	0x1
 8840 028d 50       		.byte	0x50
 8841 028e 0E000000 		.4byte	.LVL33
 8842 0292 44000000 		.4byte	.LFE16
 8843 0296 0100     		.2byte	0x1
 8844 0298 54       		.byte	0x54
 8845 0299 00000000 		.4byte	0
 8846 029d 00000000 		.4byte	0
 8847              	.LLST15:
 8848 02a1 08000000 		.4byte	.LVL32
 8849 02a5 26000000 		.4byte	.LVL34
 8850 02a9 0600     		.2byte	0x6
 8851 02ab 73       		.byte	0x73
 8852 02ac 00       		.sleb128 0
 8853 02ad 72       		.byte	0x72
 8854 02ae 00       		.sleb128 0
 8855 02af 22       		.byte	0x22
 8856 02b0 9F       		.byte	0x9f
 8857 02b1 26000000 		.4byte	.LVL34
 8858 02b5 38000000 		.4byte	.LVL36
 8859 02b9 0C00     		.2byte	0xc
 8860 02bb 74       		.byte	0x74
 8861 02bc 28       		.sleb128 40
 8862 02bd 94       		.byte	0x94
 8863 02be 02       		.byte	0x2
 8864 02bf 0A       		.byte	0xa
 8865 02c0 FFFF     		.2byte	0xffff
 8866 02c2 1A       		.byte	0x1a
 8867 02c3 72       		.byte	0x72
 8868 02c4 00       		.sleb128 0
 8869 02c5 22       		.byte	0x22
 8870 02c6 9F       		.byte	0x9f
 8871 02c7 3E000000 		.4byte	.LVL37
 8872 02cb 41000000 		.4byte	.LVL38-1
 8873 02cf 0C00     		.2byte	0xc
 8874 02d1 74       		.byte	0x74
 8875 02d2 28       		.sleb128 40
 8876 02d3 94       		.byte	0x94
 8877 02d4 02       		.byte	0x2
 8878 02d5 0A       		.byte	0xa
 8879 02d6 FFFF     		.2byte	0xffff
 8880 02d8 1A       		.byte	0x1a
 8881 02d9 72       		.byte	0x72
 8882 02da 00       		.sleb128 0
 8883 02db 22       		.byte	0x22
 8884 02dc 9F       		.byte	0x9f
 8885 02dd 00000000 		.4byte	0
ARM GAS  /tmp/ccqErZ7k.s 			page 158


 8886 02e1 00000000 		.4byte	0
 8887              	.LLST16:
 8888 02e5 00000000 		.4byte	.LFB17
 8889 02e9 04000000 		.4byte	.LCFI4
 8890 02ed 0200     		.2byte	0x2
 8891 02ef 7D       		.byte	0x7d
 8892 02f0 00       		.sleb128 0
 8893 02f1 04000000 		.4byte	.LCFI4
 8894 02f5 50000000 		.4byte	.LFE17
 8895 02f9 0200     		.2byte	0x2
 8896 02fb 7D       		.byte	0x7d
 8897 02fc 10       		.sleb128 16
 8898 02fd 00000000 		.4byte	0
 8899 0301 00000000 		.4byte	0
 8900              	.LLST17:
 8901 0305 00000000 		.4byte	.LVL39
 8902 0309 12000000 		.4byte	.LVL40
 8903 030d 0100     		.2byte	0x1
 8904 030f 50       		.byte	0x50
 8905 0310 12000000 		.4byte	.LVL40
 8906 0314 48000000 		.4byte	.LVL43
 8907 0318 0100     		.2byte	0x1
 8908 031a 54       		.byte	0x54
 8909 031b 48000000 		.4byte	.LVL43
 8910 031f 4B000000 		.4byte	.LVL44-1
 8911 0323 0100     		.2byte	0x1
 8912 0325 50       		.byte	0x50
 8913 0326 4B000000 		.4byte	.LVL44-1
 8914 032a 50000000 		.4byte	.LFE17
 8915 032e 0100     		.2byte	0x1
 8916 0330 54       		.byte	0x54
 8917 0331 00000000 		.4byte	0
 8918 0335 00000000 		.4byte	0
 8919              	.LLST18:
 8920 0339 00000000 		.4byte	.LVL39
 8921 033d 12000000 		.4byte	.LVL40
 8922 0341 0100     		.2byte	0x1
 8923 0343 51       		.byte	0x51
 8924 0344 12000000 		.4byte	.LVL40
 8925 0348 48000000 		.4byte	.LVL43
 8926 034c 0400     		.2byte	0x4
 8927 034e F3       		.byte	0xf3
 8928 034f 01       		.uleb128 0x1
 8929 0350 51       		.byte	0x51
 8930 0351 9F       		.byte	0x9f
 8931 0352 48000000 		.4byte	.LVL43
 8932 0356 4B000000 		.4byte	.LVL44-1
 8933 035a 0100     		.2byte	0x1
 8934 035c 51       		.byte	0x51
 8935 035d 4B000000 		.4byte	.LVL44-1
 8936 0361 50000000 		.4byte	.LFE17
 8937 0365 0400     		.2byte	0x4
 8938 0367 F3       		.byte	0xf3
 8939 0368 01       		.uleb128 0x1
 8940 0369 51       		.byte	0x51
 8941 036a 9F       		.byte	0x9f
 8942 036b 00000000 		.4byte	0
ARM GAS  /tmp/ccqErZ7k.s 			page 159


 8943 036f 00000000 		.4byte	0
 8944              	.LLST19:
 8945 0373 2A000000 		.4byte	.LVL41
 8946 0377 38000000 		.4byte	.LVL42
 8947 037b 0100     		.2byte	0x1
 8948 037d 50       		.byte	0x50
 8949 037e 00000000 		.4byte	0
 8950 0382 00000000 		.4byte	0
 8951              	.LLST20:
 8952 0386 00000000 		.4byte	.LFB23
 8953 038a 02000000 		.4byte	.LCFI5
 8954 038e 0200     		.2byte	0x2
 8955 0390 7D       		.byte	0x7d
 8956 0391 00       		.sleb128 0
 8957 0392 02000000 		.4byte	.LCFI5
 8958 0396 1C000000 		.4byte	.LFE23
 8959 039a 0200     		.2byte	0x2
 8960 039c 7D       		.byte	0x7d
 8961 039d 08       		.sleb128 8
 8962 039e 00000000 		.4byte	0
 8963 03a2 00000000 		.4byte	0
 8964              	.LLST21:
 8965 03a6 00000000 		.4byte	.LVL45
 8966 03aa 08000000 		.4byte	.LVL46
 8967 03ae 0100     		.2byte	0x1
 8968 03b0 50       		.byte	0x50
 8969 03b1 08000000 		.4byte	.LVL46
 8970 03b5 1A000000 		.4byte	.LVL48
 8971 03b9 0100     		.2byte	0x1
 8972 03bb 54       		.byte	0x54
 8973 03bc 1A000000 		.4byte	.LVL48
 8974 03c0 1C000000 		.4byte	.LFE23
 8975 03c4 0100     		.2byte	0x1
 8976 03c6 50       		.byte	0x50
 8977 03c7 00000000 		.4byte	0
 8978 03cb 00000000 		.4byte	0
 8979              	.LLST22:
 8980 03cf 00000000 		.4byte	.LFB22
 8981 03d3 02000000 		.4byte	.LCFI6
 8982 03d7 0200     		.2byte	0x2
 8983 03d9 7D       		.byte	0x7d
 8984 03da 00       		.sleb128 0
 8985 03db 02000000 		.4byte	.LCFI6
 8986 03df 12000000 		.4byte	.LFE22
 8987 03e3 0200     		.2byte	0x2
 8988 03e5 7D       		.byte	0x7d
 8989 03e6 08       		.sleb128 8
 8990 03e7 00000000 		.4byte	0
 8991 03eb 00000000 		.4byte	0
 8992              	.LLST23:
 8993 03ef 00000000 		.4byte	.LVL49
 8994 03f3 09000000 		.4byte	.LVL51-1
 8995 03f7 0100     		.2byte	0x1
 8996 03f9 50       		.byte	0x50
 8997 03fa 0A000000 		.4byte	.LVL51
 8998 03fe 10000000 		.4byte	.LVL52
 8999 0402 0100     		.2byte	0x1
ARM GAS  /tmp/ccqErZ7k.s 			page 160


 9000 0404 54       		.byte	0x54
 9001 0405 10000000 		.4byte	.LVL52
 9002 0409 12000000 		.4byte	.LFE22
 9003 040d 0100     		.2byte	0x1
 9004 040f 50       		.byte	0x50
 9005 0410 00000000 		.4byte	0
 9006 0414 00000000 		.4byte	0
 9007              	.LLST24:
 9008 0418 06000000 		.4byte	.LVL50
 9009 041c 10000000 		.4byte	.LVL52
 9010 0420 0100     		.2byte	0x1
 9011 0422 54       		.byte	0x54
 9012 0423 00000000 		.4byte	0
 9013 0427 00000000 		.4byte	0
 9014              	.LLST25:
 9015 042b 00000000 		.4byte	.LFB25
 9016 042f 02000000 		.4byte	.LCFI7
 9017 0433 0200     		.2byte	0x2
 9018 0435 7D       		.byte	0x7d
 9019 0436 00       		.sleb128 0
 9020 0437 02000000 		.4byte	.LCFI7
 9021 043b 28000000 		.4byte	.LFE25
 9022 043f 0200     		.2byte	0x2
 9023 0441 7D       		.byte	0x7d
 9024 0442 10       		.sleb128 16
 9025 0443 00000000 		.4byte	0
 9026 0447 00000000 		.4byte	0
 9027              	.LLST26:
 9028 044b 00000000 		.4byte	.LVL54
 9029 044f 06000000 		.4byte	.LVL55
 9030 0453 0100     		.2byte	0x1
 9031 0455 50       		.byte	0x50
 9032 0456 06000000 		.4byte	.LVL55
 9033 045a 28000000 		.4byte	.LFE25
 9034 045e 0100     		.2byte	0x1
 9035 0460 55       		.byte	0x55
 9036 0461 00000000 		.4byte	0
 9037 0465 00000000 		.4byte	0
 9038              	.LLST27:
 9039 0469 0A000000 		.4byte	.LVL56
 9040 046d 10000000 		.4byte	.LVL57
 9041 0471 0100     		.2byte	0x1
 9042 0473 50       		.byte	0x50
 9043 0474 10000000 		.4byte	.LVL57
 9044 0478 28000000 		.4byte	.LFE25
 9045 047c 0100     		.2byte	0x1
 9046 047e 54       		.byte	0x54
 9047 047f 00000000 		.4byte	0
 9048 0483 00000000 		.4byte	0
 9049              	.LLST28:
 9050 0487 00000000 		.4byte	.LFB37
 9051 048b 02000000 		.4byte	.LCFI8
 9052 048f 0200     		.2byte	0x2
 9053 0491 7D       		.byte	0x7d
 9054 0492 00       		.sleb128 0
 9055 0493 02000000 		.4byte	.LCFI8
 9056 0497 48000000 		.4byte	.LFE37
ARM GAS  /tmp/ccqErZ7k.s 			page 161


 9057 049b 0200     		.2byte	0x2
 9058 049d 7D       		.byte	0x7d
 9059 049e 10       		.sleb128 16
 9060 049f 00000000 		.4byte	0
 9061 04a3 00000000 		.4byte	0
 9062              	.LLST29:
 9063 04a7 00000000 		.4byte	.LVL65
 9064 04ab 16000000 		.4byte	.LVL67
 9065 04af 0100     		.2byte	0x1
 9066 04b1 50       		.byte	0x50
 9067 04b2 16000000 		.4byte	.LVL67
 9068 04b6 48000000 		.4byte	.LFE37
 9069 04ba 0100     		.2byte	0x1
 9070 04bc 54       		.byte	0x54
 9071 04bd 00000000 		.4byte	0
 9072 04c1 00000000 		.4byte	0
 9073              	.LLST30:
 9074 04c5 12000000 		.4byte	.LVL66
 9075 04c9 16000000 		.4byte	.LVL67
 9076 04cd 0100     		.2byte	0x1
 9077 04cf 50       		.byte	0x50
 9078 04d0 16000000 		.4byte	.LVL67
 9079 04d4 46000000 		.4byte	.LVL72
 9080 04d8 0100     		.2byte	0x1
 9081 04da 54       		.byte	0x54
 9082 04db 00000000 		.4byte	0
 9083 04df 00000000 		.4byte	0
 9084              	.LLST31:
 9085 04e3 00000000 		.4byte	.LFB20
 9086 04e7 04000000 		.4byte	.LCFI9
 9087 04eb 0200     		.2byte	0x2
 9088 04ed 7D       		.byte	0x7d
 9089 04ee 00       		.sleb128 0
 9090 04ef 04000000 		.4byte	.LCFI9
 9091 04f3 14000000 		.4byte	.LCFI10
 9092 04f7 0200     		.2byte	0x2
 9093 04f9 7D       		.byte	0x7d
 9094 04fa 24       		.sleb128 36
 9095 04fb 14000000 		.4byte	.LCFI10
 9096 04ff 64030000 		.4byte	.LFE20
 9097 0503 0200     		.2byte	0x2
 9098 0505 7D       		.byte	0x7d
 9099 0506 38       		.sleb128 56
 9100 0507 00000000 		.4byte	0
 9101 050b 00000000 		.4byte	0
 9102              	.LLST32:
 9103 050f 16000000 		.4byte	.LVL74
 9104 0513 1A010000 		.4byte	.LVL84
 9105 0517 0100     		.2byte	0x1
 9106 0519 54       		.byte	0x54
 9107 051a 1A010000 		.4byte	.LVL84
 9108 051e 44010000 		.4byte	.LVL88
 9109 0522 0100     		.2byte	0x1
 9110 0524 57       		.byte	0x57
 9111 0525 44010000 		.4byte	.LVL88
 9112 0529 82010000 		.4byte	.LVL95
 9113 052d 0100     		.2byte	0x1
ARM GAS  /tmp/ccqErZ7k.s 			page 162


 9114 052f 54       		.byte	0x54
 9115 0530 82010000 		.4byte	.LVL95
 9116 0534 90010000 		.4byte	.LVL98
 9117 0538 0100     		.2byte	0x1
 9118 053a 58       		.byte	0x58
 9119 053b 90010000 		.4byte	.LVL98
 9120 053f D0010000 		.4byte	.LVL104
 9121 0543 0100     		.2byte	0x1
 9122 0545 54       		.byte	0x54
 9123 0546 D0010000 		.4byte	.LVL104
 9124 054a E2010000 		.4byte	.LVL107
 9125 054e 0100     		.2byte	0x1
 9126 0550 57       		.byte	0x57
 9127 0551 E2010000 		.4byte	.LVL107
 9128 0555 E6010000 		.4byte	.LVL108
 9129 0559 0200     		.2byte	0x2
 9130 055b 74       		.byte	0x74
 9131 055c 0C       		.sleb128 12
 9132 055d E6010000 		.4byte	.LVL108
 9133 0561 0C030000 		.4byte	.LVL127
 9134 0565 0100     		.2byte	0x1
 9135 0567 54       		.byte	0x54
 9136 0568 0C030000 		.4byte	.LVL127
 9137 056c 16030000 		.4byte	.LVL129
 9138 0570 0100     		.2byte	0x1
 9139 0572 57       		.byte	0x57
 9140 0573 16030000 		.4byte	.LVL129
 9141 0577 64030000 		.4byte	.LFE20
 9142 057b 0100     		.2byte	0x1
 9143 057d 54       		.byte	0x54
 9144 057e 00000000 		.4byte	0
 9145 0582 00000000 		.4byte	0
 9146              	.LLST33:
 9147 0586 16000000 		.4byte	.LVL74
 9148 058a 34000000 		.4byte	.LVL75
 9149 058e 0200     		.2byte	0x2
 9150 0590 30       		.byte	0x30
 9151 0591 9F       		.byte	0x9f
 9152 0592 10010000 		.4byte	.LVL83
 9153 0596 42010000 		.4byte	.LVL87
 9154 059a 0100     		.2byte	0x1
 9155 059c 54       		.byte	0x54
 9156 059d 42010000 		.4byte	.LVL87
 9157 05a1 4A010000 		.4byte	.LVL89
 9158 05a5 0100     		.2byte	0x1
 9159 05a7 56       		.byte	0x56
 9160 05a8 4A010000 		.4byte	.LVL89
 9161 05ac 52010000 		.4byte	.LVL91
 9162 05b0 0200     		.2byte	0x2
 9163 05b2 30       		.byte	0x30
 9164 05b3 9F       		.byte	0x9f
 9165 05b4 8C010000 		.4byte	.LVL97
 9166 05b8 90010000 		.4byte	.LVL98
 9167 05bc 0100     		.2byte	0x1
 9168 05be 56       		.byte	0x56
 9169 05bf DA010000 		.4byte	.LVL106
 9170 05c3 E2010000 		.4byte	.LVL107
ARM GAS  /tmp/ccqErZ7k.s 			page 163


 9171 05c7 0100     		.2byte	0x1
 9172 05c9 56       		.byte	0x56
 9173 05ca E2010000 		.4byte	.LVL107
 9174 05ce E6010000 		.4byte	.LVL108
 9175 05d2 0100     		.2byte	0x1
 9176 05d4 54       		.byte	0x54
 9177 05d5 E6010000 		.4byte	.LVL108
 9178 05d9 EC010000 		.4byte	.LVL109
 9179 05dd 0100     		.2byte	0x1
 9180 05df 56       		.byte	0x56
 9181 05e0 0C030000 		.4byte	.LVL127
 9182 05e4 12030000 		.4byte	.LVL128
 9183 05e8 0100     		.2byte	0x1
 9184 05ea 54       		.byte	0x54
 9185 05eb 12030000 		.4byte	.LVL128
 9186 05ef 15030000 		.4byte	.LVL129-1
 9187 05f3 0100     		.2byte	0x1
 9188 05f5 50       		.byte	0x50
 9189 05f6 15030000 		.4byte	.LVL129-1
 9190 05fa 1E030000 		.4byte	.LVL130
 9191 05fe 0100     		.2byte	0x1
 9192 0600 56       		.byte	0x56
 9193 0601 00000000 		.4byte	0
 9194 0605 00000000 		.4byte	0
 9195              	.LLST34:
 9196 0609 56020000 		.4byte	.LVL114
 9197 060d 75020000 		.4byte	.LVL115-1
 9198 0611 1C00     		.2byte	0x1c
 9199 0613 74       		.byte	0x74
 9200 0614 D200     		.sleb128 82
 9201 0616 94       		.byte	0x94
 9202 0617 02       		.byte	0x2
 9203 0618 12       		.byte	0x12
 9204 0619 0A       		.byte	0xa
 9205 061a FFFF     		.2byte	0xffff
 9206 061c 1A       		.byte	0x1a
 9207 061d 74       		.byte	0x74
 9208 061e DC00     		.sleb128 92
 9209 0620 94       		.byte	0x94
 9210 0621 02       		.byte	0x2
 9211 0622 16       		.byte	0x16
 9212 0623 14       		.byte	0x14
 9213 0624 0A       		.byte	0xa
 9214 0625 FFFF     		.2byte	0xffff
 9215 0627 1A       		.byte	0x1a
 9216 0628 2D       		.byte	0x2d
 9217 0629 28       		.byte	0x28
 9218 062a 0100     		.2byte	0x1
 9219 062c 16       		.byte	0x16
 9220 062d 13       		.byte	0x13
 9221 062e 9F       		.byte	0x9f
 9222 062f 00000000 		.4byte	0
 9223 0633 00000000 		.4byte	0
 9224              	.LLST35:
 9225 0637 48000000 		.4byte	.LVL76
 9226 063b 9E000000 		.4byte	.LVL78
 9227 063f 0200     		.2byte	0x2
ARM GAS  /tmp/ccqErZ7k.s 			page 164


 9228 0641 30       		.byte	0x30
 9229 0642 9F       		.byte	0x9f
 9230 0643 9E000000 		.4byte	.LVL78
 9231 0647 E2000000 		.4byte	.LVL80
 9232 064b 0100     		.2byte	0x1
 9233 064d 5B       		.byte	0x5b
 9234 064e E2000000 		.4byte	.LVL80
 9235 0652 E4000000 		.4byte	.LVL81
 9236 0656 0100     		.2byte	0x1
 9237 0658 52       		.byte	0x52
 9238 0659 E4000000 		.4byte	.LVL81
 9239 065d 4A010000 		.4byte	.LVL89
 9240 0661 0100     		.2byte	0x1
 9241 0663 5B       		.byte	0x5b
 9242 0664 5C010000 		.4byte	.LVL92
 9243 0668 66010000 		.4byte	.LVL93
 9244 066c 0200     		.2byte	0x2
 9245 066e 30       		.byte	0x30
 9246 066f 9F       		.byte	0x9f
 9247 0670 66010000 		.4byte	.LVL93
 9248 0674 90010000 		.4byte	.LVL98
 9249 0678 0200     		.2byte	0x2
 9250 067a 31       		.byte	0x31
 9251 067b 9F       		.byte	0x9f
 9252 067c 96010000 		.4byte	.LVL99
 9253 0680 A0010000 		.4byte	.LVL100
 9254 0684 0100     		.2byte	0x1
 9255 0686 5B       		.byte	0x5b
 9256 0687 E2010000 		.4byte	.LVL107
 9257 068b F2010000 		.4byte	.LVL110
 9258 068f 0200     		.2byte	0x2
 9259 0691 30       		.byte	0x30
 9260 0692 9F       		.byte	0x9f
 9261 0693 F2010000 		.4byte	.LVL110
 9262 0697 F6010000 		.4byte	.LVL111
 9263 069b 0100     		.2byte	0x1
 9264 069d 58       		.byte	0x58
 9265 069e 08020000 		.4byte	.LVL112
 9266 06a2 0A020000 		.4byte	.LVL113
 9267 06a6 0100     		.2byte	0x1
 9268 06a8 5B       		.byte	0x5b
 9269 06a9 0A020000 		.4byte	.LVL113
 9270 06ad 7E020000 		.4byte	.LVL116
 9271 06b1 0200     		.2byte	0x2
 9272 06b3 30       		.byte	0x30
 9273 06b4 9F       		.byte	0x9f
 9274 06b5 9C020000 		.4byte	.LVL120
 9275 06b9 B4020000 		.4byte	.LVL121
 9276 06bd 0200     		.2byte	0x2
 9277 06bf 30       		.byte	0x30
 9278 06c0 9F       		.byte	0x9f
 9279 06c1 B4020000 		.4byte	.LVL121
 9280 06c5 C6020000 		.4byte	.LVL122
 9281 06c9 0100     		.2byte	0x1
 9282 06cb 5B       		.byte	0x5b
 9283 06cc C8020000 		.4byte	.LVL123
 9284 06d0 1E030000 		.4byte	.LVL130
ARM GAS  /tmp/ccqErZ7k.s 			page 165


 9285 06d4 0100     		.2byte	0x1
 9286 06d6 5B       		.byte	0x5b
 9287 06d7 34030000 		.4byte	.LVL132
 9288 06db 48030000 		.4byte	.LVL134
 9289 06df 0200     		.2byte	0x2
 9290 06e1 31       		.byte	0x31
 9291 06e2 9F       		.byte	0x9f
 9292 06e3 58030000 		.4byte	.LVL136
 9293 06e7 5E030000 		.4byte	.LVL138
 9294 06eb 0200     		.2byte	0x2
 9295 06ed 31       		.byte	0x31
 9296 06ee 9F       		.byte	0x9f
 9297 06ef 00000000 		.4byte	0
 9298 06f3 00000000 		.4byte	0
 9299              	.LLST36:
 9300 06f7 48000000 		.4byte	.LVL76
 9301 06fb E2000000 		.4byte	.LVL80
 9302 06ff 0200     		.2byte	0x2
 9303 0701 30       		.byte	0x30
 9304 0702 9F       		.byte	0x9f
 9305 0703 E2000000 		.4byte	.LVL80
 9306 0707 E4000000 		.4byte	.LVL81
 9307 070b 0200     		.2byte	0x2
 9308 070d 31       		.byte	0x31
 9309 070e 9F       		.byte	0x9f
 9310 070f E4000000 		.4byte	.LVL81
 9311 0713 1A010000 		.4byte	.LVL84
 9312 0717 0100     		.2byte	0x1
 9313 0719 57       		.byte	0x57
 9314 071a 96010000 		.4byte	.LVL99
 9315 071e D0010000 		.4byte	.LVL104
 9316 0722 0100     		.2byte	0x1
 9317 0724 57       		.byte	0x57
 9318 0725 EC010000 		.4byte	.LVL109
 9319 0729 7E020000 		.4byte	.LVL116
 9320 072d 0200     		.2byte	0x2
 9321 072f 30       		.byte	0x30
 9322 0730 9F       		.byte	0x9f
 9323 0731 9C020000 		.4byte	.LVL120
 9324 0735 B4020000 		.4byte	.LVL121
 9325 0739 0200     		.2byte	0x2
 9326 073b 30       		.byte	0x30
 9327 073c 9F       		.byte	0x9f
 9328 073d B4020000 		.4byte	.LVL121
 9329 0741 E0020000 		.4byte	.LVL125
 9330 0745 0100     		.2byte	0x1
 9331 0747 57       		.byte	0x57
 9332 0748 E0020000 		.4byte	.LVL125
 9333 074c 0C030000 		.4byte	.LVL127
 9334 0750 0200     		.2byte	0x2
 9335 0752 30       		.byte	0x30
 9336 0753 9F       		.byte	0x9f
 9337 0754 1E030000 		.4byte	.LVL130
 9338 0758 34030000 		.4byte	.LVL132
 9339 075c 0100     		.2byte	0x1
 9340 075e 57       		.byte	0x57
 9341 075f 48030000 		.4byte	.LVL134
ARM GAS  /tmp/ccqErZ7k.s 			page 166


 9342 0763 58030000 		.4byte	.LVL136
 9343 0767 0100     		.2byte	0x1
 9344 0769 57       		.byte	0x57
 9345 076a 5E030000 		.4byte	.LVL138
 9346 076e 64030000 		.4byte	.LFE20
 9347 0772 0100     		.2byte	0x1
 9348 0774 57       		.byte	0x57
 9349 0775 00000000 		.4byte	0
 9350 0779 00000000 		.4byte	0
 9351              	.LLST37:
 9352 077d 00000000 		.4byte	.LVL73
 9353 0781 34000000 		.4byte	.LVL75
 9354 0785 0200     		.2byte	0x2
 9355 0787 30       		.byte	0x30
 9356 0788 9F       		.byte	0x9f
 9357 0789 3A010000 		.4byte	.LVL85
 9358 078d 40010000 		.4byte	.LVL86
 9359 0791 0100     		.2byte	0x1
 9360 0793 50       		.byte	0x50
 9361 0794 00000000 		.4byte	0
 9362 0798 00000000 		.4byte	0
 9363              	.LLST38:
 9364 079c 82010000 		.4byte	.LVL95
 9365 07a0 88010000 		.4byte	.LVL96
 9366 07a4 0100     		.2byte	0x1
 9367 07a6 54       		.byte	0x54
 9368 07a7 88010000 		.4byte	.LVL96
 9369 07ab 8B010000 		.4byte	.LVL97-1
 9370 07af 0100     		.2byte	0x1
 9371 07b1 51       		.byte	0x51
 9372 07b2 00000000 		.4byte	0
 9373 07b6 00000000 		.4byte	0
 9374              	.LLST39:
 9375 07ba CE010000 		.4byte	.LVL103
 9376 07be D6010000 		.4byte	.LVL105
 9377 07c2 0100     		.2byte	0x1
 9378 07c4 54       		.byte	0x54
 9379 07c5 D6010000 		.4byte	.LVL105
 9380 07c9 D9010000 		.4byte	.LVL106-1
 9381 07cd 0100     		.2byte	0x1
 9382 07cf 51       		.byte	0x51
 9383 07d0 00000000 		.4byte	0
 9384 07d4 00000000 		.4byte	0
 9385              	.LLST40:
 9386 07d8 00000000 		.4byte	.LFB38
 9387 07dc 06000000 		.4byte	.LCFI11
 9388 07e0 0200     		.2byte	0x2
 9389 07e2 7D       		.byte	0x7d
 9390 07e3 00       		.sleb128 0
 9391 07e4 06000000 		.4byte	.LCFI11
 9392 07e8 90000000 		.4byte	.LFE38
 9393 07ec 0200     		.2byte	0x2
 9394 07ee 7D       		.byte	0x7d
 9395 07ef 08       		.sleb128 8
 9396 07f0 00000000 		.4byte	0
 9397 07f4 00000000 		.4byte	0
 9398              	.LLST41:
ARM GAS  /tmp/ccqErZ7k.s 			page 167


 9399 07f8 00000000 		.4byte	.LVL140
 9400 07fc 2C000000 		.4byte	.LVL142
 9401 0800 0100     		.2byte	0x1
 9402 0802 50       		.byte	0x50
 9403 0803 2C000000 		.4byte	.LVL142
 9404 0807 7A000000 		.4byte	.LVL148
 9405 080b 0400     		.2byte	0x4
 9406 080d F3       		.byte	0xf3
 9407 080e 01       		.uleb128 0x1
 9408 080f 50       		.byte	0x50
 9409 0810 9F       		.byte	0x9f
 9410 0811 7A000000 		.4byte	.LVL148
 9411 0815 90000000 		.4byte	.LFE38
 9412 0819 0100     		.2byte	0x1
 9413 081b 50       		.byte	0x50
 9414 081c 00000000 		.4byte	0
 9415 0820 00000000 		.4byte	0
 9416              	.LLST42:
 9417 0824 00000000 		.4byte	.LVL140
 9418 0828 0C000000 		.4byte	.LVL141
 9419 082c 0100     		.2byte	0x1
 9420 082e 51       		.byte	0x51
 9421 082f 0C000000 		.4byte	.LVL141
 9422 0833 82000000 		.4byte	.LVL149
 9423 0837 0100     		.2byte	0x1
 9424 0839 54       		.byte	0x54
 9425 083a 82000000 		.4byte	.LVL149
 9426 083e 88000000 		.4byte	.LVL150
 9427 0842 0100     		.2byte	0x1
 9428 0844 51       		.byte	0x51
 9429 0845 88000000 		.4byte	.LVL150
 9430 0849 90000000 		.4byte	.LFE38
 9431 084d 0100     		.2byte	0x1
 9432 084f 54       		.byte	0x54
 9433 0850 00000000 		.4byte	0
 9434 0854 00000000 		.4byte	0
 9435              	.LLST43:
 9436 0858 00000000 		.4byte	.LFB11
 9437 085c 04000000 		.4byte	.LCFI12
 9438 0860 0200     		.2byte	0x2
 9439 0862 7D       		.byte	0x7d
 9440 0863 00       		.sleb128 0
 9441 0864 04000000 		.4byte	.LCFI12
 9442 0868 0A000000 		.4byte	.LCFI13
 9443 086c 0200     		.2byte	0x2
 9444 086e 7D       		.byte	0x7d
 9445 086f 24       		.sleb128 36
 9446 0870 0A000000 		.4byte	.LCFI13
 9447 0874 A4000000 		.4byte	.LFE11
 9448 0878 0200     		.2byte	0x2
 9449 087a 7D       		.byte	0x7d
 9450 087b 38       		.sleb128 56
 9451 087c 00000000 		.4byte	0
 9452 0880 00000000 		.4byte	0
 9453              	.LLST44:
 9454 0884 00000000 		.4byte	.LVL151
 9455 0888 10000000 		.4byte	.LVL152
ARM GAS  /tmp/ccqErZ7k.s 			page 168


 9456 088c 0100     		.2byte	0x1
 9457 088e 50       		.byte	0x50
 9458 088f 10000000 		.4byte	.LVL152
 9459 0893 94000000 		.4byte	.LVL171
 9460 0897 0100     		.2byte	0x1
 9461 0899 54       		.byte	0x54
 9462 089a 94000000 		.4byte	.LVL171
 9463 089e 97000000 		.4byte	.LVL172-1
 9464 08a2 0100     		.2byte	0x1
 9465 08a4 50       		.byte	0x50
 9466 08a5 97000000 		.4byte	.LVL172-1
 9467 08a9 A4000000 		.4byte	.LFE11
 9468 08ad 0100     		.2byte	0x1
 9469 08af 54       		.byte	0x54
 9470 08b0 00000000 		.4byte	0
 9471 08b4 00000000 		.4byte	0
 9472              	.LLST45:
 9473 08b8 00000000 		.4byte	.LVL151
 9474 08bc 10000000 		.4byte	.LVL152
 9475 08c0 0100     		.2byte	0x1
 9476 08c2 51       		.byte	0x51
 9477 08c3 10000000 		.4byte	.LVL152
 9478 08c7 94000000 		.4byte	.LVL171
 9479 08cb 0100     		.2byte	0x1
 9480 08cd 56       		.byte	0x56
 9481 08ce 94000000 		.4byte	.LVL171
 9482 08d2 97000000 		.4byte	.LVL172-1
 9483 08d6 0100     		.2byte	0x1
 9484 08d8 51       		.byte	0x51
 9485 08d9 97000000 		.4byte	.LVL172-1
 9486 08dd A4000000 		.4byte	.LFE11
 9487 08e1 0100     		.2byte	0x1
 9488 08e3 56       		.byte	0x56
 9489 08e4 00000000 		.4byte	0
 9490 08e8 00000000 		.4byte	0
 9491              	.LLST46:
 9492 08ec 1E000000 		.4byte	.LVL153
 9493 08f0 66000000 		.4byte	.LVL165
 9494 08f4 0100     		.2byte	0x1
 9495 08f6 59       		.byte	0x59
 9496 08f7 6C000000 		.4byte	.LVL166
 9497 08fb 82000000 		.4byte	.LVL168
 9498 08ff 0100     		.2byte	0x1
 9499 0901 59       		.byte	0x59
 9500 0902 00000000 		.4byte	0
 9501 0906 00000000 		.4byte	0
 9502              	.LLST47:
 9503 090a 22000000 		.4byte	.LVL154
 9504 090e 66000000 		.4byte	.LVL165
 9505 0912 0100     		.2byte	0x1
 9506 0914 58       		.byte	0x58
 9507 0915 6C000000 		.4byte	.LVL166
 9508 0919 82000000 		.4byte	.LVL168
 9509 091d 0100     		.2byte	0x1
 9510 091f 58       		.byte	0x58
 9511 0920 00000000 		.4byte	0
 9512 0924 00000000 		.4byte	0
ARM GAS  /tmp/ccqErZ7k.s 			page 169


 9513              	.LLST48:
 9514 0928 30000000 		.4byte	.LVL156
 9515 092c 39000000 		.4byte	.LVL159-1
 9516 0930 0200     		.2byte	0x2
 9517 0932 71       		.byte	0x71
 9518 0933 1E       		.sleb128 30
 9519 0934 39000000 		.4byte	.LVL159-1
 9520 0938 66000000 		.4byte	.LVL165
 9521 093c 0100     		.2byte	0x1
 9522 093e 5A       		.byte	0x5a
 9523 093f 6C000000 		.4byte	.LVL166
 9524 0943 82000000 		.4byte	.LVL168
 9525 0947 0100     		.2byte	0x1
 9526 0949 5A       		.byte	0x5a
 9527 094a 00000000 		.4byte	0
 9528 094e 00000000 		.4byte	0
 9529              	.LLST49:
 9530 0952 2C000000 		.4byte	.LVL155
 9531 0956 39000000 		.4byte	.LVL159-1
 9532 095a 0200     		.2byte	0x2
 9533 095c 71       		.byte	0x71
 9534 095d 1C       		.sleb128 28
 9535 095e 39000000 		.4byte	.LVL159-1
 9536 0962 66000000 		.4byte	.LVL165
 9537 0966 0100     		.2byte	0x1
 9538 0968 5B       		.byte	0x5b
 9539 0969 6C000000 		.4byte	.LVL166
 9540 096d 82000000 		.4byte	.LVL168
 9541 0971 0100     		.2byte	0x1
 9542 0973 5B       		.byte	0x5b
 9543 0974 00000000 		.4byte	0
 9544 0978 00000000 		.4byte	0
 9545              	.LLST50:
 9546 097c 34000000 		.4byte	.LVL157
 9547 0980 66000000 		.4byte	.LVL165
 9548 0984 0100     		.2byte	0x1
 9549 0986 55       		.byte	0x55
 9550 0987 6C000000 		.4byte	.LVL166
 9551 098b 82000000 		.4byte	.LVL168
 9552 098f 0100     		.2byte	0x1
 9553 0991 55       		.byte	0x55
 9554 0992 00000000 		.4byte	0
 9555 0996 00000000 		.4byte	0
 9556              	.LLST51:
 9557 099a 36000000 		.4byte	.LVL158
 9558 099e 66000000 		.4byte	.LVL165
 9559 09a2 0100     		.2byte	0x1
 9560 09a4 57       		.byte	0x57
 9561 09a5 6C000000 		.4byte	.LVL166
 9562 09a9 82000000 		.4byte	.LVL168
 9563 09ad 0100     		.2byte	0x1
 9564 09af 57       		.byte	0x57
 9565 09b0 00000000 		.4byte	0
 9566 09b4 00000000 		.4byte	0
 9567              	.LLST52:
 9568 09b8 00000000 		.4byte	.LVL173
 9569 09bc 05000000 		.4byte	.LVL174-1
ARM GAS  /tmp/ccqErZ7k.s 			page 170


 9570 09c0 0100     		.2byte	0x1
 9571 09c2 50       		.byte	0x50
 9572 09c3 05000000 		.4byte	.LVL174-1
 9573 09c7 06000000 		.4byte	.LFE12
 9574 09cb 0400     		.2byte	0x4
 9575 09cd F3       		.byte	0xf3
 9576 09ce 01       		.uleb128 0x1
 9577 09cf 50       		.byte	0x50
 9578 09d0 9F       		.byte	0x9f
 9579 09d1 00000000 		.4byte	0
 9580 09d5 00000000 		.4byte	0
 9581              	.LLST53:
 9582 09d9 00000000 		.4byte	.LFB29
 9583 09dd 04000000 		.4byte	.LCFI14
 9584 09e1 0200     		.2byte	0x2
 9585 09e3 7D       		.byte	0x7d
 9586 09e4 00       		.sleb128 0
 9587 09e5 04000000 		.4byte	.LCFI14
 9588 09e9 3C010000 		.4byte	.LFE29
 9589 09ed 0200     		.2byte	0x2
 9590 09ef 7D       		.byte	0x7d
 9591 09f0 18       		.sleb128 24
 9592 09f1 00000000 		.4byte	0
 9593 09f5 00000000 		.4byte	0
 9594              	.LLST54:
 9595 09f9 00000000 		.4byte	.LVL175
 9596 09fd 08000000 		.4byte	.LVL176
 9597 0a01 0100     		.2byte	0x1
 9598 0a03 50       		.byte	0x50
 9599 0a04 08000000 		.4byte	.LVL176
 9600 0a08 3C010000 		.4byte	.LFE29
 9601 0a0c 0400     		.2byte	0x4
 9602 0a0e F3       		.byte	0xf3
 9603 0a0f 01       		.uleb128 0x1
 9604 0a10 50       		.byte	0x50
 9605 0a11 9F       		.byte	0x9f
 9606 0a12 00000000 		.4byte	0
 9607 0a16 00000000 		.4byte	0
 9608              	.LLST55:
 9609 0a1a 0C000000 		.4byte	.LVL177
 9610 0a1e 1B000000 		.4byte	.LVL178-1
 9611 0a22 0100     		.2byte	0x1
 9612 0a24 50       		.byte	0x50
 9613 0a25 1B000000 		.4byte	.LVL178-1
 9614 0a29 9C000000 		.4byte	.LVL179
 9615 0a2d 0100     		.2byte	0x1
 9616 0a2f 54       		.byte	0x54
 9617 0a30 9C000000 		.4byte	.LVL179
 9618 0a34 AA000000 		.4byte	.LVL181
 9619 0a38 0100     		.2byte	0x1
 9620 0a3a 50       		.byte	0x50
 9621 0a3b CA000000 		.4byte	.LVL187
 9622 0a3f E8000000 		.4byte	.LVL190
 9623 0a43 0100     		.2byte	0x1
 9624 0a45 50       		.byte	0x50
 9625 0a46 12010000 		.4byte	.LVL194
 9626 0a4a 3C010000 		.4byte	.LFE29
ARM GAS  /tmp/ccqErZ7k.s 			page 171


 9627 0a4e 0100     		.2byte	0x1
 9628 0a50 50       		.byte	0x50
 9629 0a51 00000000 		.4byte	0
 9630 0a55 00000000 		.4byte	0
 9631              	.LLST56:
 9632 0a59 A0000000 		.4byte	.LVL180
 9633 0a5d C3000000 		.4byte	.LVL186-1
 9634 0a61 0100     		.2byte	0x1
 9635 0a63 53       		.byte	0x53
 9636 0a64 00000000 		.4byte	0
 9637 0a68 00000000 		.4byte	0
 9638              	.LLST57:
 9639 0a6c 9C000000 		.4byte	.LVL179
 9640 0a70 AE000000 		.4byte	.LVL182
 9641 0a74 0200     		.2byte	0x2
 9642 0a76 30       		.byte	0x30
 9643 0a77 9F       		.byte	0x9f
 9644 0a78 00000000 		.4byte	0
 9645 0a7c 00000000 		.4byte	0
 9646              	.LLST58:
 9647 0a80 9C000000 		.4byte	.LVL179
 9648 0a84 AE000000 		.4byte	.LVL182
 9649 0a88 0200     		.2byte	0x2
 9650 0a8a 30       		.byte	0x30
 9651 0a8b 9F       		.byte	0x9f
 9652 0a8c AE000000 		.4byte	.LVL182
 9653 0a90 B8000000 		.4byte	.LVL183
 9654 0a94 0100     		.2byte	0x1
 9655 0a96 51       		.byte	0x51
 9656 0a97 BA000000 		.4byte	.LVL184
 9657 0a9b C3000000 		.4byte	.LVL186-1
 9658 0a9f 0100     		.2byte	0x1
 9659 0aa1 51       		.byte	0x51
 9660 0aa2 00000000 		.4byte	0
 9661 0aa6 00000000 		.4byte	0
 9662              	.LLST59:
 9663 0aaa E0000000 		.4byte	.LVL189
 9664 0aae 0B010000 		.4byte	.LVL193-1
 9665 0ab2 0100     		.2byte	0x1
 9666 0ab4 53       		.byte	0x53
 9667 0ab5 00000000 		.4byte	0
 9668 0ab9 00000000 		.4byte	0
 9669              	.LLST60:
 9670 0abd DC000000 		.4byte	.LVL188
 9671 0ac1 E8000000 		.4byte	.LVL190
 9672 0ac5 0200     		.2byte	0x2
 9673 0ac7 30       		.byte	0x30
 9674 0ac8 9F       		.byte	0x9f
 9675 0ac9 00000000 		.4byte	0
 9676 0acd 00000000 		.4byte	0
 9677              	.LLST61:
 9678 0ad1 DC000000 		.4byte	.LVL188
 9679 0ad5 E8000000 		.4byte	.LVL190
 9680 0ad9 0200     		.2byte	0x2
 9681 0adb 30       		.byte	0x30
 9682 0adc 9F       		.byte	0x9f
 9683 0add 00010000 		.4byte	.LVL191
ARM GAS  /tmp/ccqErZ7k.s 			page 172


 9684 0ae1 0C010000 		.4byte	.LVL193
 9685 0ae5 0100     		.2byte	0x1
 9686 0ae7 54       		.byte	0x54
 9687 0ae8 00000000 		.4byte	0
 9688 0aec 00000000 		.4byte	0
 9689              	.LLST62:
 9690 0af0 DC000000 		.4byte	.LVL188
 9691 0af4 E8000000 		.4byte	.LVL190
 9692 0af8 0300     		.2byte	0x3
 9693 0afa 08       		.byte	0x8
 9694 0afb 7F       		.byte	0x7f
 9695 0afc 9F       		.byte	0x9f
 9696 0afd 00010000 		.4byte	.LVL191
 9697 0b01 0B010000 		.4byte	.LVL193-1
 9698 0b05 0100     		.2byte	0x1
 9699 0b07 51       		.byte	0x51
 9700 0b08 00000000 		.4byte	0
 9701 0b0c 00000000 		.4byte	0
 9702              	.LLST63:
 9703 0b10 00000000 		.4byte	.LFB8
 9704 0b14 02000000 		.4byte	.LCFI15
 9705 0b18 0200     		.2byte	0x2
 9706 0b1a 7D       		.byte	0x7d
 9707 0b1b 00       		.sleb128 0
 9708 0b1c 02000000 		.4byte	.LCFI15
 9709 0b20 06000000 		.4byte	.LCFI16
 9710 0b24 0200     		.2byte	0x2
 9711 0b26 7D       		.byte	0x7d
 9712 0b27 0C       		.sleb128 12
 9713 0b28 06000000 		.4byte	.LCFI16
 9714 0b2c 48010000 		.4byte	.LFE8
 9715 0b30 0200     		.2byte	0x2
 9716 0b32 7D       		.byte	0x7d
 9717 0b33 18       		.sleb128 24
 9718 0b34 00000000 		.4byte	0
 9719 0b38 00000000 		.4byte	0
 9720              	.LLST64:
 9721 0b3c 00000000 		.4byte	.LVL196
 9722 0b40 26000000 		.4byte	.LVL197
 9723 0b44 0100     		.2byte	0x1
 9724 0b46 50       		.byte	0x50
 9725 0b47 26000000 		.4byte	.LVL197
 9726 0b4b 78000000 		.4byte	.LVL201
 9727 0b4f 0100     		.2byte	0x1
 9728 0b51 54       		.byte	0x54
 9729 0b52 78000000 		.4byte	.LVL201
 9730 0b56 92000000 		.4byte	.LVL202
 9731 0b5a 0100     		.2byte	0x1
 9732 0b5c 50       		.byte	0x50
 9733 0b5d 92000000 		.4byte	.LVL202
 9734 0b61 A2000000 		.4byte	.LVL205
 9735 0b65 0100     		.2byte	0x1
 9736 0b67 54       		.byte	0x54
 9737 0b68 AA000000 		.4byte	.LVL206
 9738 0b6c AE000000 		.4byte	.LVL208
 9739 0b70 0100     		.2byte	0x1
 9740 0b72 50       		.byte	0x50
ARM GAS  /tmp/ccqErZ7k.s 			page 173


 9741 0b73 AE000000 		.4byte	.LVL208
 9742 0b77 BA000000 		.4byte	.LVL210
 9743 0b7b 0100     		.2byte	0x1
 9744 0b7d 54       		.byte	0x54
 9745 0b7e BA000000 		.4byte	.LVL210
 9746 0b82 BC000000 		.4byte	.LVL211
 9747 0b86 0200     		.2byte	0x2
 9748 0b88 30       		.byte	0x30
 9749 0b89 9F       		.byte	0x9f
 9750 0b8a BC000000 		.4byte	.LVL211
 9751 0b8e E4000000 		.4byte	.LVL215
 9752 0b92 0100     		.2byte	0x1
 9753 0b94 50       		.byte	0x50
 9754 0b95 E4000000 		.4byte	.LVL215
 9755 0b99 F0000000 		.4byte	.LVL217
 9756 0b9d 0100     		.2byte	0x1
 9757 0b9f 54       		.byte	0x54
 9758 0ba0 F0000000 		.4byte	.LVL217
 9759 0ba4 F2000000 		.4byte	.LVL218
 9760 0ba8 0200     		.2byte	0x2
 9761 0baa 30       		.byte	0x30
 9762 0bab 9F       		.byte	0x9f
 9763 0bac F2000000 		.4byte	.LVL218
 9764 0bb0 F4000000 		.4byte	.LVL219
 9765 0bb4 0100     		.2byte	0x1
 9766 0bb6 50       		.byte	0x50
 9767 0bb7 F4000000 		.4byte	.LVL219
 9768 0bbb 0A010000 		.4byte	.LVL222
 9769 0bbf 0100     		.2byte	0x1
 9770 0bc1 54       		.byte	0x54
 9771 0bc2 0A010000 		.4byte	.LVL222
 9772 0bc6 0D010000 		.4byte	.LVL223-1
 9773 0bca 0100     		.2byte	0x1
 9774 0bcc 50       		.byte	0x50
 9775 0bcd 0D010000 		.4byte	.LVL223-1
 9776 0bd1 1A010000 		.4byte	.LVL224
 9777 0bd5 0100     		.2byte	0x1
 9778 0bd7 54       		.byte	0x54
 9779 0bd8 1A010000 		.4byte	.LVL224
 9780 0bdc 48010000 		.4byte	.LFE8
 9781 0be0 0100     		.2byte	0x1
 9782 0be2 50       		.byte	0x50
 9783 0be3 00000000 		.4byte	0
 9784 0be7 00000000 		.4byte	0
 9785              	.LLST65:
 9786 0beb 00000000 		.4byte	.LVL196
 9787 0bef 26000000 		.4byte	.LVL197
 9788 0bf3 0100     		.2byte	0x1
 9789 0bf5 51       		.byte	0x51
 9790 0bf6 26000000 		.4byte	.LVL197
 9791 0bfa 78000000 		.4byte	.LVL201
 9792 0bfe 0400     		.2byte	0x4
 9793 0c00 F3       		.byte	0xf3
 9794 0c01 01       		.uleb128 0x1
 9795 0c02 51       		.byte	0x51
 9796 0c03 9F       		.byte	0x9f
 9797 0c04 78000000 		.4byte	.LVL201
ARM GAS  /tmp/ccqErZ7k.s 			page 174


 9798 0c08 95000000 		.4byte	.LVL203-1
 9799 0c0c 0100     		.2byte	0x1
 9800 0c0e 51       		.byte	0x51
 9801 0c0f 95000000 		.4byte	.LVL203-1
 9802 0c13 AA000000 		.4byte	.LVL206
 9803 0c17 0400     		.2byte	0x4
 9804 0c19 F3       		.byte	0xf3
 9805 0c1a 01       		.uleb128 0x1
 9806 0c1b 51       		.byte	0x51
 9807 0c1c 9F       		.byte	0x9f
 9808 0c1d AA000000 		.4byte	.LVL206
 9809 0c21 AC000000 		.4byte	.LVL207
 9810 0c25 0100     		.2byte	0x1
 9811 0c27 51       		.byte	0x51
 9812 0c28 AC000000 		.4byte	.LVL207
 9813 0c2c BC000000 		.4byte	.LVL211
 9814 0c30 0400     		.2byte	0x4
 9815 0c32 F3       		.byte	0xf3
 9816 0c33 01       		.uleb128 0x1
 9817 0c34 51       		.byte	0x51
 9818 0c35 9F       		.byte	0x9f
 9819 0c36 BC000000 		.4byte	.LVL211
 9820 0c3a CA000000 		.4byte	.LVL212
 9821 0c3e 0100     		.2byte	0x1
 9822 0c40 51       		.byte	0x51
 9823 0c41 CA000000 		.4byte	.LVL212
 9824 0c45 E0000000 		.4byte	.LVL213
 9825 0c49 0400     		.2byte	0x4
 9826 0c4b F3       		.byte	0xf3
 9827 0c4c 01       		.uleb128 0x1
 9828 0c4d 51       		.byte	0x51
 9829 0c4e 9F       		.byte	0x9f
 9830 0c4f E0000000 		.4byte	.LVL213
 9831 0c53 E2000000 		.4byte	.LVL214
 9832 0c57 0100     		.2byte	0x1
 9833 0c59 51       		.byte	0x51
 9834 0c5a E2000000 		.4byte	.LVL214
 9835 0c5e F2000000 		.4byte	.LVL218
 9836 0c62 0400     		.2byte	0x4
 9837 0c64 F3       		.byte	0xf3
 9838 0c65 01       		.uleb128 0x1
 9839 0c66 51       		.byte	0x51
 9840 0c67 9F       		.byte	0x9f
 9841 0c68 F2000000 		.4byte	.LVL218
 9842 0c6c F7000000 		.4byte	.LVL220-1
 9843 0c70 0100     		.2byte	0x1
 9844 0c72 51       		.byte	0x51
 9845 0c73 F7000000 		.4byte	.LVL220-1
 9846 0c77 0A010000 		.4byte	.LVL222
 9847 0c7b 0400     		.2byte	0x4
 9848 0c7d F3       		.byte	0xf3
 9849 0c7e 01       		.uleb128 0x1
 9850 0c7f 51       		.byte	0x51
 9851 0c80 9F       		.byte	0x9f
 9852 0c81 0A010000 		.4byte	.LVL222
 9853 0c85 0D010000 		.4byte	.LVL223-1
 9854 0c89 0100     		.2byte	0x1
ARM GAS  /tmp/ccqErZ7k.s 			page 175


 9855 0c8b 51       		.byte	0x51
 9856 0c8c 0D010000 		.4byte	.LVL223-1
 9857 0c90 2E010000 		.4byte	.LVL225
 9858 0c94 0400     		.2byte	0x4
 9859 0c96 F3       		.byte	0xf3
 9860 0c97 01       		.uleb128 0x1
 9861 0c98 51       		.byte	0x51
 9862 0c99 9F       		.byte	0x9f
 9863 0c9a 2E010000 		.4byte	.LVL225
 9864 0c9e 48010000 		.4byte	.LFE8
 9865 0ca2 0100     		.2byte	0x1
 9866 0ca4 51       		.byte	0x51
 9867 0ca5 00000000 		.4byte	0
 9868 0ca9 00000000 		.4byte	0
 9869              	.LLST66:
 9870 0cad 96000000 		.4byte	.LVL203
 9871 0cb1 9C000000 		.4byte	.LVL204
 9872 0cb5 0100     		.2byte	0x1
 9873 0cb7 50       		.byte	0x50
 9874 0cb8 9C000000 		.4byte	.LVL204
 9875 0cbc A2000000 		.4byte	.LVL205
 9876 0cc0 0200     		.2byte	0x2
 9877 0cc2 30       		.byte	0x30
 9878 0cc3 9F       		.byte	0x9f
 9879 0cc4 AA000000 		.4byte	.LVL206
 9880 0cc8 F2000000 		.4byte	.LVL218
 9881 0ccc 0200     		.2byte	0x2
 9882 0cce 30       		.byte	0x30
 9883 0ccf 9F       		.byte	0x9f
 9884 0cd0 F8000000 		.4byte	.LVL220
 9885 0cd4 02010000 		.4byte	.LVL221
 9886 0cd8 0100     		.2byte	0x1
 9887 0cda 50       		.byte	0x50
 9888 0cdb 1A010000 		.4byte	.LVL224
 9889 0cdf 48010000 		.4byte	.LFE8
 9890 0ce3 0200     		.2byte	0x2
 9891 0ce5 30       		.byte	0x30
 9892 0ce6 9F       		.byte	0x9f
 9893 0ce7 00000000 		.4byte	0
 9894 0ceb 00000000 		.4byte	0
 9895              	.LLST67:
 9896 0cef 00000000 		.4byte	.LFB10
 9897 0cf3 02000000 		.4byte	.LCFI17
 9898 0cf7 0200     		.2byte	0x2
 9899 0cf9 7D       		.byte	0x7d
 9900 0cfa 00       		.sleb128 0
 9901 0cfb 02000000 		.4byte	.LCFI17
 9902 0cff 58000000 		.4byte	.LFE10
 9903 0d03 0200     		.2byte	0x2
 9904 0d05 7D       		.byte	0x7d
 9905 0d06 10       		.sleb128 16
 9906 0d07 00000000 		.4byte	0
 9907 0d0b 00000000 		.4byte	0
 9908              	.LLST68:
 9909 0d0f 00000000 		.4byte	.LVL226
 9910 0d13 12000000 		.4byte	.LVL227
 9911 0d17 0100     		.2byte	0x1
ARM GAS  /tmp/ccqErZ7k.s 			page 176


 9912 0d19 50       		.byte	0x50
 9913 0d1a 12000000 		.4byte	.LVL227
 9914 0d1e 54000000 		.4byte	.LVL229
 9915 0d22 0100     		.2byte	0x1
 9916 0d24 54       		.byte	0x54
 9917 0d25 54000000 		.4byte	.LVL229
 9918 0d29 56000000 		.4byte	.LVL230
 9919 0d2d 0100     		.2byte	0x1
 9920 0d2f 50       		.byte	0x50
 9921 0d30 56000000 		.4byte	.LVL230
 9922 0d34 58000000 		.4byte	.LFE10
 9923 0d38 0100     		.2byte	0x1
 9924 0d3a 54       		.byte	0x54
 9925 0d3b 00000000 		.4byte	0
 9926 0d3f 00000000 		.4byte	0
 9927              	.LLST69:
 9928 0d43 00000000 		.4byte	.LVL226
 9929 0d47 17000000 		.4byte	.LVL228-1
 9930 0d4b 0100     		.2byte	0x1
 9931 0d4d 51       		.byte	0x51
 9932 0d4e 17000000 		.4byte	.LVL228-1
 9933 0d52 54000000 		.4byte	.LVL229
 9934 0d56 0400     		.2byte	0x4
 9935 0d58 F3       		.byte	0xf3
 9936 0d59 01       		.uleb128 0x1
 9937 0d5a 51       		.byte	0x51
 9938 0d5b 9F       		.byte	0x9f
 9939 0d5c 54000000 		.4byte	.LVL229
 9940 0d60 58000000 		.4byte	.LFE10
 9941 0d64 0100     		.2byte	0x1
 9942 0d66 51       		.byte	0x51
 9943 0d67 00000000 		.4byte	0
 9944 0d6b 00000000 		.4byte	0
 9945              	.LLST70:
 9946 0d6f 00000000 		.4byte	.LVL226
 9947 0d73 17000000 		.4byte	.LVL228-1
 9948 0d77 0100     		.2byte	0x1
 9949 0d79 52       		.byte	0x52
 9950 0d7a 17000000 		.4byte	.LVL228-1
 9951 0d7e 54000000 		.4byte	.LVL229
 9952 0d82 0100     		.2byte	0x1
 9953 0d84 55       		.byte	0x55
 9954 0d85 54000000 		.4byte	.LVL229
 9955 0d89 58000000 		.4byte	.LFE10
 9956 0d8d 0100     		.2byte	0x1
 9957 0d8f 52       		.byte	0x52
 9958 0d90 00000000 		.4byte	0
 9959 0d94 00000000 		.4byte	0
 9960              	.LLST71:
 9961 0d98 00000000 		.4byte	.LVL231
 9962 0d9c 17000000 		.4byte	.LVL232-1
 9963 0da0 0100     		.2byte	0x1
 9964 0da2 50       		.byte	0x50
 9965 0da3 17000000 		.4byte	.LVL232-1
 9966 0da7 18000000 		.4byte	.LFE9
 9967 0dab 0400     		.2byte	0x4
 9968 0dad F3       		.byte	0xf3
ARM GAS  /tmp/ccqErZ7k.s 			page 177


 9969 0dae 01       		.uleb128 0x1
 9970 0daf 50       		.byte	0x50
 9971 0db0 9F       		.byte	0x9f
 9972 0db1 00000000 		.4byte	0
 9973 0db5 00000000 		.4byte	0
 9974              	.LLST72:
 9975 0db9 00000000 		.4byte	.LFB26
 9976 0dbd 02000000 		.4byte	.LCFI18
 9977 0dc1 0200     		.2byte	0x2
 9978 0dc3 7D       		.byte	0x7d
 9979 0dc4 00       		.sleb128 0
 9980 0dc5 02000000 		.4byte	.LCFI18
 9981 0dc9 26000000 		.4byte	.LFE26
 9982 0dcd 0200     		.2byte	0x2
 9983 0dcf 7D       		.byte	0x7d
 9984 0dd0 08       		.sleb128 8
 9985 0dd1 00000000 		.4byte	0
 9986 0dd5 00000000 		.4byte	0
 9987              	.LLST73:
 9988 0dd9 00000000 		.4byte	.LVL233
 9989 0ddd 08000000 		.4byte	.LVL234
 9990 0de1 0100     		.2byte	0x1
 9991 0de3 50       		.byte	0x50
 9992 0de4 08000000 		.4byte	.LVL234
 9993 0de8 18000000 		.4byte	.LVL238
 9994 0dec 0400     		.2byte	0x4
 9995 0dee F3       		.byte	0xf3
 9996 0def 01       		.uleb128 0x1
 9997 0df0 50       		.byte	0x50
 9998 0df1 9F       		.byte	0x9f
 9999 0df2 18000000 		.4byte	.LVL238
 10000 0df6 1E000000 		.4byte	.LVL239
 10001 0dfa 0100     		.2byte	0x1
 10002 0dfc 50       		.byte	0x50
 10003 0dfd 1E000000 		.4byte	.LVL239
 10004 0e01 26000000 		.4byte	.LFE26
 10005 0e05 0400     		.2byte	0x4
 10006 0e07 F3       		.byte	0xf3
 10007 0e08 01       		.uleb128 0x1
 10008 0e09 50       		.byte	0x50
 10009 0e0a 9F       		.byte	0x9f
 10010 0e0b 00000000 		.4byte	0
 10011 0e0f 00000000 		.4byte	0
 10012              	.LLST74:
 10013 0e13 00000000 		.4byte	.LVL233
 10014 0e17 0A000000 		.4byte	.LVL235
 10015 0e1b 0100     		.2byte	0x1
 10016 0e1d 51       		.byte	0x51
 10017 0e1e 0A000000 		.4byte	.LVL235
 10018 0e22 0D000000 		.4byte	.LVL236-1
 10019 0e26 0100     		.2byte	0x1
 10020 0e28 50       		.byte	0x50
 10021 0e29 0D000000 		.4byte	.LVL236-1
 10022 0e2d 18000000 		.4byte	.LVL238
 10023 0e31 0400     		.2byte	0x4
 10024 0e33 F3       		.byte	0xf3
 10025 0e34 01       		.uleb128 0x1
ARM GAS  /tmp/ccqErZ7k.s 			page 178


 10026 0e35 51       		.byte	0x51
 10027 0e36 9F       		.byte	0x9f
 10028 0e37 18000000 		.4byte	.LVL238
 10029 0e3b 25000000 		.4byte	.LVL240-1
 10030 0e3f 0100     		.2byte	0x1
 10031 0e41 51       		.byte	0x51
 10032 0e42 25000000 		.4byte	.LVL240-1
 10033 0e46 26000000 		.4byte	.LFE26
 10034 0e4a 0400     		.2byte	0x4
 10035 0e4c F3       		.byte	0xf3
 10036 0e4d 01       		.uleb128 0x1
 10037 0e4e 51       		.byte	0x51
 10038 0e4f 9F       		.byte	0x9f
 10039 0e50 00000000 		.4byte	0
 10040 0e54 00000000 		.4byte	0
 10041              	.LLST75:
 10042 0e58 00000000 		.4byte	.LVL233
 10043 0e5c 0D000000 		.4byte	.LVL236-1
 10044 0e60 0100     		.2byte	0x1
 10045 0e62 52       		.byte	0x52
 10046 0e63 0D000000 		.4byte	.LVL236-1
 10047 0e67 18000000 		.4byte	.LVL238
 10048 0e6b 0100     		.2byte	0x1
 10049 0e6d 54       		.byte	0x54
 10050 0e6e 18000000 		.4byte	.LVL238
 10051 0e72 25000000 		.4byte	.LVL240-1
 10052 0e76 0100     		.2byte	0x1
 10053 0e78 52       		.byte	0x52
 10054 0e79 25000000 		.4byte	.LVL240-1
 10055 0e7d 26000000 		.4byte	.LFE26
 10056 0e81 0100     		.2byte	0x1
 10057 0e83 54       		.byte	0x54
 10058 0e84 00000000 		.4byte	0
 10059 0e88 00000000 		.4byte	0
 10060              	.LLST76:
 10061 0e8c 00000000 		.4byte	.LVL233
 10062 0e90 0D000000 		.4byte	.LVL236-1
 10063 0e94 0100     		.2byte	0x1
 10064 0e96 53       		.byte	0x53
 10065 0e97 0D000000 		.4byte	.LVL236-1
 10066 0e9b 18000000 		.4byte	.LVL238
 10067 0e9f 0400     		.2byte	0x4
 10068 0ea1 F3       		.byte	0xf3
 10069 0ea2 01       		.uleb128 0x1
 10070 0ea3 53       		.byte	0x53
 10071 0ea4 9F       		.byte	0x9f
 10072 0ea5 18000000 		.4byte	.LVL238
 10073 0ea9 25000000 		.4byte	.LVL240-1
 10074 0ead 0100     		.2byte	0x1
 10075 0eaf 53       		.byte	0x53
 10076 0eb0 25000000 		.4byte	.LVL240-1
 10077 0eb4 26000000 		.4byte	.LFE26
 10078 0eb8 0400     		.2byte	0x4
 10079 0eba F3       		.byte	0xf3
 10080 0ebb 01       		.uleb128 0x1
 10081 0ebc 53       		.byte	0x53
 10082 0ebd 9F       		.byte	0x9f
ARM GAS  /tmp/ccqErZ7k.s 			page 179


 10083 0ebe 00000000 		.4byte	0
 10084 0ec2 00000000 		.4byte	0
 10085              	.LLST77:
 10086 0ec6 18000000 		.4byte	.LVL238
 10087 0eca 25000000 		.4byte	.LVL240-1
 10088 0ece 0100     		.2byte	0x1
 10089 0ed0 53       		.byte	0x53
 10090 0ed1 00000000 		.4byte	0
 10091 0ed5 00000000 		.4byte	0
 10092              	.LLST78:
 10093 0ed9 18000000 		.4byte	.LVL238
 10094 0edd 25000000 		.4byte	.LVL240-1
 10095 0ee1 0100     		.2byte	0x1
 10096 0ee3 51       		.byte	0x51
 10097 0ee4 25000000 		.4byte	.LVL240-1
 10098 0ee8 26000000 		.4byte	.LFE26
 10099 0eec 0400     		.2byte	0x4
 10100 0eee F3       		.byte	0xf3
 10101 0eef 01       		.uleb128 0x1
 10102 0ef0 51       		.byte	0x51
 10103 0ef1 9F       		.byte	0x9f
 10104 0ef2 00000000 		.4byte	0
 10105 0ef6 00000000 		.4byte	0
 10106              	.LLST79:
 10107 0efa 00000000 		.4byte	.LFB21
 10108 0efe 04000000 		.4byte	.LCFI19
 10109 0f02 0200     		.2byte	0x2
 10110 0f04 7D       		.byte	0x7d
 10111 0f05 00       		.sleb128 0
 10112 0f06 04000000 		.4byte	.LCFI19
 10113 0f0a 74000000 		.4byte	.LFE21
 10114 0f0e 0200     		.2byte	0x2
 10115 0f10 7D       		.byte	0x7d
 10116 0f11 10       		.sleb128 16
 10117 0f12 00000000 		.4byte	0
 10118 0f16 00000000 		.4byte	0
 10119              	.LLST80:
 10120 0f1a 06000000 		.4byte	.LVL241
 10121 0f1e 2E000000 		.4byte	.LVL245
 10122 0f22 0100     		.2byte	0x1
 10123 0f24 54       		.byte	0x54
 10124 0f25 2E000000 		.4byte	.LVL245
 10125 0f29 34000000 		.4byte	.LVL246
 10126 0f2d 0100     		.2byte	0x1
 10127 0f2f 56       		.byte	0x56
 10128 0f30 34000000 		.4byte	.LVL246
 10129 0f34 74000000 		.4byte	.LFE21
 10130 0f38 0100     		.2byte	0x1
 10131 0f3a 54       		.byte	0x54
 10132 0f3b 00000000 		.4byte	0
 10133 0f3f 00000000 		.4byte	0
 10134              	.LLST81:
 10135 0f43 10000000 		.4byte	.LVL242
 10136 0f47 34000000 		.4byte	.LVL246
 10137 0f4b 0100     		.2byte	0x1
 10138 0f4d 56       		.byte	0x56
 10139 0f4e 34000000 		.4byte	.LVL246
ARM GAS  /tmp/ccqErZ7k.s 			page 180


 10140 0f52 36000000 		.4byte	.LVL247
 10141 0f56 0100     		.2byte	0x1
 10142 0f58 54       		.byte	0x54
 10143 0f59 36000000 		.4byte	.LVL247
 10144 0f5d 6C000000 		.4byte	.LVL251
 10145 0f61 0100     		.2byte	0x1
 10146 0f63 56       		.byte	0x56
 10147 0f64 00000000 		.4byte	0
 10148 0f68 00000000 		.4byte	0
 10149              	.LLST82:
 10150 0f6c 20000000 		.4byte	.LVL243
 10151 0f70 26000000 		.4byte	.LVL244
 10152 0f74 0100     		.2byte	0x1
 10153 0f76 50       		.byte	0x50
 10154 0f77 36000000 		.4byte	.LVL247
 10155 0f7b 38000000 		.4byte	.LVL248
 10156 0f7f 0100     		.2byte	0x1
 10157 0f81 50       		.byte	0x50
 10158 0f82 6A000000 		.4byte	.LVL250
 10159 0f86 6C000000 		.4byte	.LVL251
 10160 0f8a 0100     		.2byte	0x1
 10161 0f8c 50       		.byte	0x50
 10162 0f8d 00000000 		.4byte	0
 10163 0f91 00000000 		.4byte	0
 10164              	.LLST83:
 10165 0f95 00000000 		.4byte	.LFB7
 10166 0f99 02000000 		.4byte	.LCFI20
 10167 0f9d 0200     		.2byte	0x2
 10168 0f9f 7D       		.byte	0x7d
 10169 0fa0 00       		.sleb128 0
 10170 0fa1 02000000 		.4byte	.LCFI20
 10171 0fa5 24000000 		.4byte	.LFE7
 10172 0fa9 0200     		.2byte	0x2
 10173 0fab 7D       		.byte	0x7d
 10174 0fac 08       		.sleb128 8
 10175 0fad 00000000 		.4byte	0
 10176 0fb1 00000000 		.4byte	0
 10177              	.LLST84:
 10178 0fb5 00000000 		.4byte	.LFB40
 10179 0fb9 02000000 		.4byte	.LCFI21
 10180 0fbd 0200     		.2byte	0x2
 10181 0fbf 7D       		.byte	0x7d
 10182 0fc0 00       		.sleb128 0
 10183 0fc1 02000000 		.4byte	.LCFI21
 10184 0fc5 1E000000 		.4byte	.LFE40
 10185 0fc9 0200     		.2byte	0x2
 10186 0fcb 7D       		.byte	0x7d
 10187 0fcc 08       		.sleb128 8
 10188 0fcd 00000000 		.4byte	0
 10189 0fd1 00000000 		.4byte	0
 10190              	.LLST85:
 10191 0fd5 00000000 		.4byte	.LVL254
 10192 0fd9 06000000 		.4byte	.LVL255
 10193 0fdd 0100     		.2byte	0x1
 10194 0fdf 50       		.byte	0x50
 10195 0fe0 06000000 		.4byte	.LVL255
 10196 0fe4 1A000000 		.4byte	.LVL260
ARM GAS  /tmp/ccqErZ7k.s 			page 181


 10197 0fe8 0400     		.2byte	0x4
 10198 0fea F3       		.byte	0xf3
 10199 0feb 01       		.uleb128 0x1
 10200 0fec 50       		.byte	0x50
 10201 0fed 9F       		.byte	0x9f
 10202 0fee 1A000000 		.4byte	.LVL260
 10203 0ff2 1E000000 		.4byte	.LFE40
 10204 0ff6 0100     		.2byte	0x1
 10205 0ff8 54       		.byte	0x54
 10206 0ff9 00000000 		.4byte	0
 10207 0ffd 00000000 		.4byte	0
 10208              	.LLST86:
 10209 1001 00000000 		.4byte	.LVL254
 10210 1005 09000000 		.4byte	.LVL256-1
 10211 1009 0100     		.2byte	0x1
 10212 100b 51       		.byte	0x51
 10213 100c 09000000 		.4byte	.LVL256-1
 10214 1010 1E000000 		.4byte	.LFE40
 10215 1014 0400     		.2byte	0x4
 10216 1016 F3       		.byte	0xf3
 10217 1017 01       		.uleb128 0x1
 10218 1018 51       		.byte	0x51
 10219 1019 9F       		.byte	0x9f
 10220 101a 00000000 		.4byte	0
 10221 101e 00000000 		.4byte	0
 10222              	.LLST87:
 10223 1022 10000000 		.4byte	.LVL257
 10224 1026 12000000 		.4byte	.LVL258
 10225 102a 0300     		.2byte	0x3
 10226 102c 73       		.byte	0x73
 10227 102d 58       		.sleb128 -40
 10228 102e 9F       		.byte	0x9f
 10229 102f 12000000 		.4byte	.LVL258
 10230 1033 14000000 		.4byte	.LVL259
 10231 1037 0300     		.2byte	0x3
 10232 1039 73       		.byte	0x73
 10233 103a 00       		.sleb128 0
 10234 103b 9F       		.byte	0x9f
 10235 103c 14000000 		.4byte	.LVL259
 10236 1040 1A000000 		.4byte	.LVL260
 10237 1044 0800     		.2byte	0x8
 10238 1046 70       		.byte	0x70
 10239 1047 20       		.sleb128 32
 10240 1048 94       		.byte	0x94
 10241 1049 02       		.byte	0x2
 10242 104a 08       		.byte	0x8
 10243 104b 28       		.byte	0x28
 10244 104c 1C       		.byte	0x1c
 10245 104d 9F       		.byte	0x9f
 10246 104e 00000000 		.4byte	0
 10247 1052 00000000 		.4byte	0
 10248              	.LLST88:
 10249 1056 0A000000 		.4byte	.LVL256
 10250 105a 1C000000 		.4byte	.LVL261
 10251 105e 0100     		.2byte	0x1
 10252 1060 50       		.byte	0x50
 10253 1061 00000000 		.4byte	0
ARM GAS  /tmp/ccqErZ7k.s 			page 182


 10254 1065 00000000 		.4byte	0
 10255              	.LLST89:
 10256 1069 00000000 		.4byte	.LFB19
 10257 106d 04000000 		.4byte	.LCFI22
 10258 1071 0200     		.2byte	0x2
 10259 1073 7D       		.byte	0x7d
 10260 1074 00       		.sleb128 0
 10261 1075 04000000 		.4byte	.LCFI22
 10262 1079 14010000 		.4byte	.LFE19
 10263 107d 0200     		.2byte	0x2
 10264 107f 7D       		.byte	0x7d
 10265 1080 20       		.sleb128 32
 10266 1081 00000000 		.4byte	0
 10267 1085 00000000 		.4byte	0
 10268              	.LLST90:
 10269 1089 00000000 		.4byte	.LVL262
 10270 108d 20000000 		.4byte	.LVL265
 10271 1091 0100     		.2byte	0x1
 10272 1093 50       		.byte	0x50
 10273 1094 20000000 		.4byte	.LVL265
 10274 1098 EE000000 		.4byte	.LVL278
 10275 109c 0100     		.2byte	0x1
 10276 109e 54       		.byte	0x54
 10277 109f EE000000 		.4byte	.LVL278
 10278 10a3 F1000000 		.4byte	.LVL279-1
 10279 10a7 0100     		.2byte	0x1
 10280 10a9 50       		.byte	0x50
 10281 10aa F1000000 		.4byte	.LVL279-1
 10282 10ae F6000000 		.4byte	.LVL281
 10283 10b2 0100     		.2byte	0x1
 10284 10b4 54       		.byte	0x54
 10285 10b5 F6000000 		.4byte	.LVL281
 10286 10b9 FA000000 		.4byte	.LVL283
 10287 10bd 0100     		.2byte	0x1
 10288 10bf 50       		.byte	0x50
 10289 10c0 FA000000 		.4byte	.LVL283
 10290 10c4 14010000 		.4byte	.LFE19
 10291 10c8 0100     		.2byte	0x1
 10292 10ca 54       		.byte	0x54
 10293 10cb 00000000 		.4byte	0
 10294 10cf 00000000 		.4byte	0
 10295              	.LLST91:
 10296 10d3 00000000 		.4byte	.LVL262
 10297 10d7 08000000 		.4byte	.LVL263
 10298 10db 0100     		.2byte	0x1
 10299 10dd 51       		.byte	0x51
 10300 10de 08000000 		.4byte	.LVL263
 10301 10e2 8E000000 		.4byte	.LVL272
 10302 10e6 0100     		.2byte	0x1
 10303 10e8 55       		.byte	0x55
 10304 10e9 8E000000 		.4byte	.LVL272
 10305 10ed D8000000 		.4byte	.LVL275
 10306 10f1 0400     		.2byte	0x4
 10307 10f3 F3       		.byte	0xf3
 10308 10f4 01       		.uleb128 0x1
 10309 10f5 51       		.byte	0x51
 10310 10f6 9F       		.byte	0x9f
ARM GAS  /tmp/ccqErZ7k.s 			page 183


 10311 10f7 D8000000 		.4byte	.LVL275
 10312 10fb E0000000 		.4byte	.LVL277
 10313 10ff 0100     		.2byte	0x1
 10314 1101 55       		.byte	0x55
 10315 1102 E0000000 		.4byte	.LVL277
 10316 1106 EE000000 		.4byte	.LVL278
 10317 110a 0400     		.2byte	0x4
 10318 110c F3       		.byte	0xf3
 10319 110d 01       		.uleb128 0x1
 10320 110e 51       		.byte	0x51
 10321 110f 9F       		.byte	0x9f
 10322 1110 EE000000 		.4byte	.LVL278
 10323 1114 F4000000 		.4byte	.LVL280
 10324 1118 0100     		.2byte	0x1
 10325 111a 55       		.byte	0x55
 10326 111b F4000000 		.4byte	.LVL280
 10327 111f F6000000 		.4byte	.LVL281
 10328 1123 0400     		.2byte	0x4
 10329 1125 F3       		.byte	0xf3
 10330 1126 01       		.uleb128 0x1
 10331 1127 51       		.byte	0x51
 10332 1128 9F       		.byte	0x9f
 10333 1129 F6000000 		.4byte	.LVL281
 10334 112d F8000000 		.4byte	.LVL282
 10335 1131 0100     		.2byte	0x1
 10336 1133 55       		.byte	0x55
 10337 1134 F8000000 		.4byte	.LVL282
 10338 1138 FA000000 		.4byte	.LVL283
 10339 113c 0400     		.2byte	0x4
 10340 113e F3       		.byte	0xf3
 10341 113f 01       		.uleb128 0x1
 10342 1140 51       		.byte	0x51
 10343 1141 9F       		.byte	0x9f
 10344 1142 FA000000 		.4byte	.LVL283
 10345 1146 FC000000 		.4byte	.LVL284
 10346 114a 0100     		.2byte	0x1
 10347 114c 55       		.byte	0x55
 10348 114d FC000000 		.4byte	.LVL284
 10349 1151 14010000 		.4byte	.LFE19
 10350 1155 0400     		.2byte	0x4
 10351 1157 F3       		.byte	0xf3
 10352 1158 01       		.uleb128 0x1
 10353 1159 51       		.byte	0x51
 10354 115a 9F       		.byte	0x9f
 10355 115b 00000000 		.4byte	0
 10356 115f 00000000 		.4byte	0
 10357              	.LLST92:
 10358 1163 00000000 		.4byte	.LVL262
 10359 1167 23000000 		.4byte	.LVL266-1
 10360 116b 0100     		.2byte	0x1
 10361 116d 52       		.byte	0x52
 10362 116e 23000000 		.4byte	.LVL266-1
 10363 1172 EE000000 		.4byte	.LVL278
 10364 1176 0400     		.2byte	0x4
 10365 1178 F3       		.byte	0xf3
 10366 1179 01       		.uleb128 0x1
 10367 117a 52       		.byte	0x52
ARM GAS  /tmp/ccqErZ7k.s 			page 184


 10368 117b 9F       		.byte	0x9f
 10369 117c EE000000 		.4byte	.LVL278
 10370 1180 F1000000 		.4byte	.LVL279-1
 10371 1184 0100     		.2byte	0x1
 10372 1186 52       		.byte	0x52
 10373 1187 F1000000 		.4byte	.LVL279-1
 10374 118b F6000000 		.4byte	.LVL281
 10375 118f 0400     		.2byte	0x4
 10376 1191 F3       		.byte	0xf3
 10377 1192 01       		.uleb128 0x1
 10378 1193 52       		.byte	0x52
 10379 1194 9F       		.byte	0x9f
 10380 1195 F6000000 		.4byte	.LVL281
 10381 1199 FA000000 		.4byte	.LVL283
 10382 119d 0100     		.2byte	0x1
 10383 119f 52       		.byte	0x52
 10384 11a0 FA000000 		.4byte	.LVL283
 10385 11a4 14010000 		.4byte	.LFE19
 10386 11a8 0400     		.2byte	0x4
 10387 11aa F3       		.byte	0xf3
 10388 11ab 01       		.uleb128 0x1
 10389 11ac 52       		.byte	0x52
 10390 11ad 9F       		.byte	0x9f
 10391 11ae 00000000 		.4byte	0
 10392 11b2 00000000 		.4byte	0
 10393              	.LLST93:
 10394 11b6 00000000 		.4byte	.LVL262
 10395 11ba 18000000 		.4byte	.LVL264
 10396 11be 0100     		.2byte	0x1
 10397 11c0 53       		.byte	0x53
 10398 11c1 18000000 		.4byte	.LVL264
 10399 11c5 EE000000 		.4byte	.LVL278
 10400 11c9 0100     		.2byte	0x1
 10401 11cb 59       		.byte	0x59
 10402 11cc EE000000 		.4byte	.LVL278
 10403 11d0 F1000000 		.4byte	.LVL279-1
 10404 11d4 0100     		.2byte	0x1
 10405 11d6 53       		.byte	0x53
 10406 11d7 F1000000 		.4byte	.LVL279-1
 10407 11db F6000000 		.4byte	.LVL281
 10408 11df 0100     		.2byte	0x1
 10409 11e1 59       		.byte	0x59
 10410 11e2 F6000000 		.4byte	.LVL281
 10411 11e6 FA000000 		.4byte	.LVL283
 10412 11ea 0100     		.2byte	0x1
 10413 11ec 53       		.byte	0x53
 10414 11ed FA000000 		.4byte	.LVL283
 10415 11f1 14010000 		.4byte	.LFE19
 10416 11f5 0100     		.2byte	0x1
 10417 11f7 59       		.byte	0x59
 10418 11f8 00000000 		.4byte	0
 10419 11fc 00000000 		.4byte	0
 10420              	.LLST94:
 10421 1200 8C000000 		.4byte	.LVL271
 10422 1204 CB000000 		.4byte	.LVL273-1
 10423 1208 0100     		.2byte	0x1
 10424 120a 50       		.byte	0x50
ARM GAS  /tmp/ccqErZ7k.s 			page 185


 10425 120b E0000000 		.4byte	.LVL277
 10426 120f EE000000 		.4byte	.LVL278
 10427 1213 0100     		.2byte	0x1
 10428 1215 50       		.byte	0x50
 10429 1216 00000000 		.4byte	0
 10430 121a 00000000 		.4byte	0
 10431              	.LLST95:
 10432 121e 30000000 		.4byte	.LVL268
 10433 1222 36000000 		.4byte	.LVL269
 10434 1226 0200     		.2byte	0x2
 10435 1228 74       		.byte	0x74
 10436 1229 1C       		.sleb128 28
 10437 122a 36000000 		.4byte	.LVL269
 10438 122e D2000000 		.4byte	.LVL274
 10439 1232 0100     		.2byte	0x1
 10440 1234 58       		.byte	0x58
 10441 1235 D8000000 		.4byte	.LVL275
 10442 1239 DB000000 		.4byte	.LVL276-1
 10443 123d 0200     		.2byte	0x2
 10444 123f 74       		.byte	0x74
 10445 1240 1C       		.sleb128 28
 10446 1241 DB000000 		.4byte	.LVL276-1
 10447 1245 EE000000 		.4byte	.LVL278
 10448 1249 0100     		.2byte	0x1
 10449 124b 58       		.byte	0x58
 10450 124c 00000000 		.4byte	0
 10451 1250 00000000 		.4byte	0
 10452              	.LLST96:
 10453 1254 24000000 		.4byte	.LVL266
 10454 1258 2C000000 		.4byte	.LVL267
 10455 125c 0100     		.2byte	0x1
 10456 125e 50       		.byte	0x50
 10457 125f FA000000 		.4byte	.LVL283
 10458 1263 14010000 		.4byte	.LFE19
 10459 1267 0100     		.2byte	0x1
 10460 1269 50       		.byte	0x50
 10461 126a 00000000 		.4byte	0
 10462 126e 00000000 		.4byte	0
 10463              	.LLST97:
 10464 1272 00000000 		.4byte	.LVL285
 10465 1276 0C000000 		.4byte	.LVL286
 10466 127a 0100     		.2byte	0x1
 10467 127c 50       		.byte	0x50
 10468 127d 0C000000 		.4byte	.LVL286
 10469 1281 0E000000 		.4byte	.LFE41
 10470 1285 0400     		.2byte	0x4
 10471 1287 F3       		.byte	0xf3
 10472 1288 01       		.uleb128 0x1
 10473 1289 50       		.byte	0x50
 10474 128a 9F       		.byte	0x9f
 10475 128b 00000000 		.4byte	0
 10476 128f 00000000 		.4byte	0
 10477              		.section	.debug_aranges,"",%progbits
 10478 0000 1C010000 		.4byte	0x11c
 10479 0004 0200     		.2byte	0x2
 10480 0006 00000000 		.4byte	.Ldebug_info0
 10481 000a 04       		.byte	0x4
ARM GAS  /tmp/ccqErZ7k.s 			page 186


 10482 000b 00       		.byte	0
 10483 000c 0000     		.2byte	0
 10484 000e 0000     		.2byte	0
 10485 0010 00000000 		.4byte	.LFB14
 10486 0014 06000000 		.4byte	.LFE14-.LFB14
 10487 0018 00000000 		.4byte	.LFB18
 10488 001c 48000000 		.4byte	.LFE18-.LFB18
 10489 0020 00000000 		.4byte	.LFB13
 10490 0024 74000000 		.4byte	.LFE13-.LFB13
 10491 0028 00000000 		.4byte	.LFB15
 10492 002c B0000000 		.4byte	.LFE15-.LFB15
 10493 0030 00000000 		.4byte	.LFB16
 10494 0034 44000000 		.4byte	.LFE16-.LFB16
 10495 0038 00000000 		.4byte	.LFB17
 10496 003c 50000000 		.4byte	.LFE17-.LFB17
 10497 0040 00000000 		.4byte	.LFB23
 10498 0044 1C000000 		.4byte	.LFE23-.LFB23
 10499 0048 00000000 		.4byte	.LFB22
 10500 004c 12000000 		.4byte	.LFE22-.LFB22
 10501 0050 00000000 		.4byte	.LFB24
 10502 0054 04000000 		.4byte	.LFE24-.LFB24
 10503 0058 00000000 		.4byte	.LFB25
 10504 005c 28000000 		.4byte	.LFE25-.LFB25
 10505 0060 00000000 		.4byte	.LFB31
 10506 0064 04000000 		.4byte	.LFE31-.LFB31
 10507 0068 00000000 		.4byte	.LFB32
 10508 006c 06000000 		.4byte	.LFE32-.LFB32
 10509 0070 00000000 		.4byte	.LFB33
 10510 0074 06000000 		.4byte	.LFE33-.LFB33
 10511 0078 00000000 		.4byte	.LFB34
 10512 007c 06000000 		.4byte	.LFE34-.LFB34
 10513 0080 00000000 		.4byte	.LFB35
 10514 0084 04000000 		.4byte	.LFE35-.LFB35
 10515 0088 00000000 		.4byte	.LFB36
 10516 008c 0A000000 		.4byte	.LFE36-.LFB36
 10517 0090 00000000 		.4byte	.LFB37
 10518 0094 48000000 		.4byte	.LFE37-.LFB37
 10519 0098 00000000 		.4byte	.LFB20
 10520 009c 64030000 		.4byte	.LFE20-.LFB20
 10521 00a0 00000000 		.4byte	.LFB38
 10522 00a4 90000000 		.4byte	.LFE38-.LFB38
 10523 00a8 00000000 		.4byte	.LFB11
 10524 00ac A4000000 		.4byte	.LFE11-.LFB11
 10525 00b0 00000000 		.4byte	.LFB12
 10526 00b4 06000000 		.4byte	.LFE12-.LFB12
 10527 00b8 00000000 		.4byte	.LFB29
 10528 00bc 3C010000 		.4byte	.LFE29-.LFB29
 10529 00c0 00000000 		.4byte	.LFB30
 10530 00c4 06000000 		.4byte	.LFE30-.LFB30
 10531 00c8 00000000 		.4byte	.LFB8
 10532 00cc 48010000 		.4byte	.LFE8-.LFB8
 10533 00d0 00000000 		.4byte	.LFB10
 10534 00d4 58000000 		.4byte	.LFE10-.LFB10
 10535 00d8 00000000 		.4byte	.LFB9
 10536 00dc 18000000 		.4byte	.LFE9-.LFB9
 10537 00e0 00000000 		.4byte	.LFB26
 10538 00e4 26000000 		.4byte	.LFE26-.LFB26
ARM GAS  /tmp/ccqErZ7k.s 			page 187


 10539 00e8 00000000 		.4byte	.LFB21
 10540 00ec 74000000 		.4byte	.LFE21-.LFB21
 10541 00f0 00000000 		.4byte	.LFB7
 10542 00f4 24000000 		.4byte	.LFE7-.LFB7
 10543 00f8 00000000 		.4byte	.LFB39
 10544 00fc 1A000000 		.4byte	.LFE39-.LFB39
 10545 0100 00000000 		.4byte	.LFB40
 10546 0104 1E000000 		.4byte	.LFE40-.LFB40
 10547 0108 00000000 		.4byte	.LFB19
 10548 010c 14010000 		.4byte	.LFE19-.LFB19
 10549 0110 00000000 		.4byte	.LFB41
 10550 0114 0E000000 		.4byte	.LFE41-.LFB41
 10551 0118 00000000 		.4byte	0
 10552 011c 00000000 		.4byte	0
 10553              		.section	.debug_ranges,"",%progbits
 10554              	.Ldebug_ranges0:
 10555 0000 30000000 		.4byte	.LBB7
 10556 0004 3C000000 		.4byte	.LBE7
 10557 0008 3E000000 		.4byte	.LBB8
 10558 000c 44000000 		.4byte	.LBE8
 10559 0010 00000000 		.4byte	0
 10560 0014 00000000 		.4byte	0
 10561 0018 66010000 		.4byte	.LBB14
 10562 001c 8C010000 		.4byte	.LBE14
 10563 0020 34030000 		.4byte	.LBB17
 10564 0024 48030000 		.4byte	.LBE17
 10565 0028 58030000 		.4byte	.LBB19
 10566 002c 5E030000 		.4byte	.LBE19
 10567 0030 00000000 		.4byte	0
 10568 0034 00000000 		.4byte	0
 10569 0038 A0010000 		.4byte	.LBB15
 10570 003c DA010000 		.4byte	.LBE15
 10571 0040 1E030000 		.4byte	.LBB16
 10572 0044 34030000 		.4byte	.LBE16
 10573 0048 48030000 		.4byte	.LBB18
 10574 004c 58030000 		.4byte	.LBE18
 10575 0050 5E030000 		.4byte	.LBB20
 10576 0054 64030000 		.4byte	.LBE20
 10577 0058 00000000 		.4byte	0
 10578 005c 00000000 		.4byte	0
 10579 0060 1C000000 		.4byte	.LBB27
 10580 0064 24000000 		.4byte	.LBE27
 10581 0068 26000000 		.4byte	.LBB31
 10582 006c 28000000 		.4byte	.LBE31
 10583 0070 4A000000 		.4byte	.LBB32
 10584 0074 4C000000 		.4byte	.LBE32
 10585 0078 00000000 		.4byte	0
 10586 007c 00000000 		.4byte	0
 10587 0080 1C000000 		.4byte	.LBB28
 10588 0084 24000000 		.4byte	.LBE28
 10589 0088 26000000 		.4byte	.LBB29
 10590 008c 28000000 		.4byte	.LBE29
 10591 0090 4A000000 		.4byte	.LBB30
 10592 0094 4C000000 		.4byte	.LBE30
 10593 0098 00000000 		.4byte	0
 10594 009c 00000000 		.4byte	0
 10595 00a0 18000000 		.4byte	.LBB39
ARM GAS  /tmp/ccqErZ7k.s 			page 188


 10596 00a4 1E000000 		.4byte	.LBE39
 10597 00a8 22000000 		.4byte	.LBB42
 10598 00ac 26000000 		.4byte	.LBE42
 10599 00b0 00000000 		.4byte	0
 10600 00b4 00000000 		.4byte	0
 10601 00b8 18000000 		.4byte	.LBB40
 10602 00bc 1E000000 		.4byte	.LBE40
 10603 00c0 22000000 		.4byte	.LBB41
 10604 00c4 26000000 		.4byte	.LBE41
 10605 00c8 00000000 		.4byte	0
 10606 00cc 00000000 		.4byte	0
 10607 00d0 0A000000 		.4byte	.LBB43
 10608 00d4 2E000000 		.4byte	.LBE43
 10609 00d8 36000000 		.4byte	.LBB47
 10610 00dc 74000000 		.4byte	.LBE47
 10611 00e0 00000000 		.4byte	0
 10612 00e4 00000000 		.4byte	0
 10613 00e8 12000000 		.4byte	.LBB44
 10614 00ec 26000000 		.4byte	.LBE44
 10615 00f0 36000000 		.4byte	.LBB45
 10616 00f4 3C000000 		.4byte	.LBE45
 10617 00f8 60000000 		.4byte	.LBB46
 10618 00fc 74000000 		.4byte	.LBE46
 10619 0100 00000000 		.4byte	0
 10620 0104 00000000 		.4byte	0
 10621 0108 1E000000 		.4byte	.LBB48
 10622 010c 2C000000 		.4byte	.LBE48
 10623 0110 FA000000 		.4byte	.LBB53
 10624 0114 14010000 		.4byte	.LBE53
 10625 0118 00000000 		.4byte	0
 10626 011c 00000000 		.4byte	0
 10627 0120 36000000 		.4byte	.LBB49
 10628 0124 40000000 		.4byte	.LBE49
 10629 0128 68000000 		.4byte	.LBB52
 10630 012c 6A000000 		.4byte	.LBE52
 10631 0130 00000000 		.4byte	0
 10632 0134 00000000 		.4byte	0
 10633 0138 36000000 		.4byte	.LBB50
 10634 013c 40000000 		.4byte	.LBE50
 10635 0140 68000000 		.4byte	.LBB51
 10636 0144 6A000000 		.4byte	.LBE51
 10637 0148 00000000 		.4byte	0
 10638 014c 00000000 		.4byte	0
 10639 0150 00000000 		.4byte	.LFB14
 10640 0154 06000000 		.4byte	.LFE14
 10641 0158 00000000 		.4byte	.LFB18
 10642 015c 48000000 		.4byte	.LFE18
 10643 0160 00000000 		.4byte	.LFB13
 10644 0164 74000000 		.4byte	.LFE13
 10645 0168 00000000 		.4byte	.LFB15
 10646 016c B0000000 		.4byte	.LFE15
 10647 0170 00000000 		.4byte	.LFB16
 10648 0174 44000000 		.4byte	.LFE16
 10649 0178 00000000 		.4byte	.LFB17
 10650 017c 50000000 		.4byte	.LFE17
 10651 0180 00000000 		.4byte	.LFB23
 10652 0184 1C000000 		.4byte	.LFE23
ARM GAS  /tmp/ccqErZ7k.s 			page 189


 10653 0188 00000000 		.4byte	.LFB22
 10654 018c 12000000 		.4byte	.LFE22
 10655 0190 00000000 		.4byte	.LFB24
 10656 0194 04000000 		.4byte	.LFE24
 10657 0198 00000000 		.4byte	.LFB25
 10658 019c 28000000 		.4byte	.LFE25
 10659 01a0 00000000 		.4byte	.LFB31
 10660 01a4 04000000 		.4byte	.LFE31
 10661 01a8 00000000 		.4byte	.LFB32
 10662 01ac 06000000 		.4byte	.LFE32
 10663 01b0 00000000 		.4byte	.LFB33
 10664 01b4 06000000 		.4byte	.LFE33
 10665 01b8 00000000 		.4byte	.LFB34
 10666 01bc 06000000 		.4byte	.LFE34
 10667 01c0 00000000 		.4byte	.LFB35
 10668 01c4 04000000 		.4byte	.LFE35
 10669 01c8 00000000 		.4byte	.LFB36
 10670 01cc 0A000000 		.4byte	.LFE36
 10671 01d0 00000000 		.4byte	.LFB37
 10672 01d4 48000000 		.4byte	.LFE37
 10673 01d8 00000000 		.4byte	.LFB20
 10674 01dc 64030000 		.4byte	.LFE20
 10675 01e0 00000000 		.4byte	.LFB38
 10676 01e4 90000000 		.4byte	.LFE38
 10677 01e8 00000000 		.4byte	.LFB11
 10678 01ec A4000000 		.4byte	.LFE11
 10679 01f0 00000000 		.4byte	.LFB12
 10680 01f4 06000000 		.4byte	.LFE12
 10681 01f8 00000000 		.4byte	.LFB29
 10682 01fc 3C010000 		.4byte	.LFE29
 10683 0200 00000000 		.4byte	.LFB30
 10684 0204 06000000 		.4byte	.LFE30
 10685 0208 00000000 		.4byte	.LFB8
 10686 020c 48010000 		.4byte	.LFE8
 10687 0210 00000000 		.4byte	.LFB10
 10688 0214 58000000 		.4byte	.LFE10
 10689 0218 00000000 		.4byte	.LFB9
 10690 021c 18000000 		.4byte	.LFE9
 10691 0220 00000000 		.4byte	.LFB26
 10692 0224 26000000 		.4byte	.LFE26
 10693 0228 00000000 		.4byte	.LFB21
 10694 022c 74000000 		.4byte	.LFE21
 10695 0230 00000000 		.4byte	.LFB7
 10696 0234 24000000 		.4byte	.LFE7
 10697 0238 00000000 		.4byte	.LFB39
 10698 023c 1A000000 		.4byte	.LFE39
 10699 0240 00000000 		.4byte	.LFB40
 10700 0244 1E000000 		.4byte	.LFE40
 10701 0248 00000000 		.4byte	.LFB19
 10702 024c 14010000 		.4byte	.LFE19
 10703 0250 00000000 		.4byte	.LFB41
 10704 0254 0E000000 		.4byte	.LFE41
 10705 0258 00000000 		.4byte	0
 10706 025c 00000000 		.4byte	0
 10707              		.section	.debug_line,"",%progbits
 10708              	.Ldebug_line0:
 10709 0000 90080000 		.section	.debug_str,"MS",%progbits,1
ARM GAS  /tmp/ccqErZ7k.s 			page 190


 10709      0200B201 
 10709      00000201 
 10709      FB0E0D00 
 10709      01010101 
 10710              	.LASF253:
 10711 0000 2F686F6D 		.ascii	"/home/kwilson/Sandbox/ChibiOS_2.5.1/demos/ARMCM4-ST"
 10711      652F6B77 
 10711      696C736F 
 10711      6E2F5361 
 10711      6E64626F 
 10712 0033 4D333246 		.ascii	"M32F407-LWIP-FATFS-USB\000"
 10712      3430372D 
 10712      4C574950 
 10712      2D464154 
 10712      46532D55 
 10713              	.LASF2:
 10714 004a 696E7438 		.ascii	"int8_t\000"
 10714      5F7400
 10715              	.LASF143:
 10716 0051 70726F74 		.ascii	"proterr\000"
 10716      65727200 
 10717              	.LASF15:
 10718 0059 73697A65 		.ascii	"sizetype\000"
 10718      74797065 
 10718      00
 10719              	.LASF178:
 10720 0062 7463705F 		.ascii	"tcp_segs_free\000"
 10720      73656773 
 10720      5F667265 
 10720      6500
 10721              	.LASF74:
 10722 0070 7263765F 		.ascii	"rcv_ann_wnd\000"
 10722      616E6E5F 
 10722      776E6400 
 10723              	.LASF148:
 10724 007c 75736564 		.ascii	"used\000"
 10724      00
 10725              	.LASF26:
 10726 0081 4D454D50 		.ascii	"MEMP_TCP_PCB\000"
 10726      5F544350 
 10726      5F504342 
 10726      00
 10727              	.LASF233:
 10728 008e 7463705F 		.ascii	"tcp_persist_backoff\000"
 10728      70657273 
 10728      6973745F 
 10728      6261636B 
 10728      6F666600 
 10729              	.LASF9:
 10730 00a2 696E7433 		.ascii	"int32_t\000"
 10730      325F7400 
 10731              	.LASF162:
 10732 00aa 7463705F 		.ascii	"tcp_accept_null\000"
 10732      61636365 
 10732      70745F6E 
 10732      756C6C00 
 10733              	.LASF73:
ARM GAS  /tmp/ccqErZ7k.s 			page 191


 10734 00ba 7263765F 		.ascii	"rcv_wnd\000"
 10734      776E6400 
 10735              	.LASF66:
 10736 00c2 736F5F6F 		.ascii	"so_options\000"
 10736      7074696F 
 10736      6E7300
 10737              	.LASF35:
 10738 00cd 4D454D50 		.ascii	"MEMP_SYS_TIMEOUT\000"
 10738      5F535953 
 10738      5F54494D 
 10738      454F5554 
 10738      00
 10739              	.LASF114:
 10740 00de 4C495354 		.ascii	"LISTEN\000"
 10740      454E00
 10741              	.LASF55:
 10742 00e5 73746174 		.ascii	"state\000"
 10742      6500
 10743              	.LASF181:
 10744 00eb 63736567 		.ascii	"cseg\000"
 10744      00
 10745              	.LASF22:
 10746 00f0 7333325F 		.ascii	"s32_t\000"
 10746      7400
 10747              	.LASF85:
 10748 00f6 73737468 		.ascii	"ssthresh\000"
 10748      72657368 
 10748      00
 10749              	.LASF48:
 10750 00ff 74797065 		.ascii	"type\000"
 10750      00
 10751              	.LASF197:
 10752 0104 7463705F 		.ascii	"tcp_abandon\000"
 10752      6162616E 
 10752      646F6E00 
 10753              	.LASF251:
 10754 0110 474E5520 		.ascii	"GNU C 4.7.2\000"
 10754      4320342E 
 10754      372E3200 
 10755              	.LASF123:
 10756 011c 54494D45 		.ascii	"TIME_WAIT\000"
 10756      5F574149 
 10756      5400
 10757              	.LASF159:
 10758 0126 6D656D70 		.ascii	"memp\000"
 10758      00
 10759              	.LASF254:
 10760 012b 7463705F 		.ascii	"tcp_state\000"
 10760      73746174 
 10760      6500
 10761              	.LASF67:
 10762 0135 7072696F 		.ascii	"prio\000"
 10762      00
 10763              	.LASF156:
 10764 013a 65746861 		.ascii	"etharp\000"
 10764      727000
 10765              	.LASF246:
ARM GAS  /tmp/ccqErZ7k.s 			page 192


 10766 0141 7463705F 		.ascii	"tcp_keepalive\000"
 10766      6B656570 
 10766      616C6976 
 10766      6500
 10767              	.LASF76:
 10768 014f 706F6C6C 		.ascii	"polltmr\000"
 10768      746D7200 
 10769              	.LASF218:
 10770 0157 6D73735F 		.ascii	"mss_s\000"
 10770      7300
 10771              	.LASF255:
 10772 015d 7463705F 		.ascii	"tcp_listen_pcbs_t\000"
 10772      6C697374 
 10772      656E5F70 
 10772      6362735F 
 10772      7400
 10773              	.LASF207:
 10774 016f 7463705F 		.ascii	"tcp_new\000"
 10774      6E657700 
 10775              	.LASF214:
 10776 0177 7463705F 		.ascii	"tcp_fasttmr\000"
 10776      66617374 
 10776      746D7200 
 10777              	.LASF165:
 10778 0183 69706164 		.ascii	"ipaddr\000"
 10778      647200
 10779              	.LASF10:
 10780 018a 6C6F6E67 		.ascii	"long int\000"
 10780      20696E74 
 10780      00
 10781              	.LASF216:
 10782 0193 7463705F 		.ascii	"tcp_eff_send_mss\000"
 10782      6566665F 
 10782      73656E64 
 10782      5F6D7373 
 10782      00
 10783              	.LASF179:
 10784 01a4 7463705F 		.ascii	"tcp_setprio\000"
 10784      73657470 
 10784      72696F00 
 10785              	.LASF117:
 10786 01b0 45535441 		.ascii	"ESTABLISHED\000"
 10786      424C4953 
 10786      48454400 
 10787              	.LASF174:
 10788 01bc 6E65775F 		.ascii	"new_rcv_ann_wnd\000"
 10788      7263765F 
 10788      616E6E5F 
 10788      776E6400 
 10789              	.LASF161:
 10790 01cc 7463705F 		.ascii	"tcp_next_iss\000"
 10790      6E657874 
 10790      5F697373 
 10790      00
 10791              	.LASF147:
 10792 01d9 61766169 		.ascii	"avail\000"
 10792      6C00
ARM GAS  /tmp/ccqErZ7k.s 			page 193


 10793              	.LASF109:
 10794 01df 7463705F 		.ascii	"tcp_sent_fn\000"
 10794      73656E74 
 10794      5F666E00 
 10795              	.LASF54:
 10796 01eb 6C696E6B 		.ascii	"linkoutput\000"
 10796      6F757470 
 10796      757400
 10797              	.LASF170:
 10798 01f6 6261636B 		.ascii	"backlog\000"
 10798      6C6F6700 
 10799              	.LASF56:
 10800 01fe 68776164 		.ascii	"hwaddr_len\000"
 10800      64725F6C 
 10800      656E00
 10801              	.LASF37:
 10802 0209 4D454D50 		.ascii	"MEMP_PBUF_POOL\000"
 10802      5F504255 
 10802      465F504F 
 10802      4F4C00
 10803              	.LASF1:
 10804 0218 7369676E 		.ascii	"signed char\000"
 10804      65642063 
 10804      68617200 
 10805              	.LASF3:
 10806 0224 75696E74 		.ascii	"uint8_t\000"
 10806      385F7400 
 10807              	.LASF107:
 10808 022c 6B656570 		.ascii	"keep_cnt_sent\000"
 10808      5F636E74 
 10808      5F73656E 
 10808      7400
 10809              	.LASF64:
 10810 023a 6C6F6361 		.ascii	"local_ip\000"
 10810      6C5F6970 
 10810      00
 10811              	.LASF229:
 10812 0243 7463705F 		.ascii	"tcp_tmp_pcb\000"
 10812      746D705F 
 10812      70636200 
 10813              	.LASF4:
 10814 024f 756E7369 		.ascii	"unsigned char\000"
 10814      676E6564 
 10814      20636861 
 10814      7200
 10815              	.LASF140:
 10816 025d 6C656E65 		.ascii	"lenerr\000"
 10816      727200
 10817              	.LASF126:
 10818 0264 7463705F 		.ascii	"tcp_pcb_listen\000"
 10818      7063625F 
 10818      6C697374 
 10818      656E00
 10819              	.LASF243:
 10820 0273 7463705F 		.ascii	"tcp_rst\000"
 10820      72737400 
 10821              	.LASF173:
ARM GAS  /tmp/ccqErZ7k.s 			page 194


 10822 027b 6E65775F 		.ascii	"new_right_edge\000"
 10822      72696768 
 10822      745F6564 
 10822      676500
 10823              	.LASF31:
 10824 028a 4D454D50 		.ascii	"MEMP_NETBUF\000"
 10824      5F4E4554 
 10824      42554600 
 10825              	.LASF249:
 10826 0296 69705F72 		.ascii	"ip_route\000"
 10826      6F757465 
 10826      00
 10827              	.LASF138:
 10828 029f 64726F70 		.ascii	"drop\000"
 10828      00
 10829              	.LASF118:
 10830 02a4 46494E5F 		.ascii	"FIN_WAIT_1\000"
 10830      57414954 
 10830      5F3100
 10831              	.LASF119:
 10832 02af 46494E5F 		.ascii	"FIN_WAIT_2\000"
 10832      57414954 
 10832      5F3200
 10833              	.LASF238:
 10834 02ba 7463705F 		.ascii	"tcp_pcb_purge\000"
 10834      7063625F 
 10834      70757267 
 10834      6500
 10835              	.LASF236:
 10836 02c8 706F7274 		.ascii	"port_halt\000"
 10836      5F68616C 
 10836      7400
 10837              	.LASF115:
 10838 02d2 53594E5F 		.ascii	"SYN_SENT\000"
 10838      53454E54 
 10838      00
 10839              	.LASF237:
 10840 02db 6D656D70 		.ascii	"memp_malloc\000"
 10840      5F6D616C 
 10840      6C6F6300 
 10841              	.LASF163:
 10842 02e7 7463705F 		.ascii	"tcp_new_port\000"
 10842      6E65775F 
 10842      706F7274 
 10842      00
 10843              	.LASF16:
 10844 02f4 63686172 		.ascii	"char\000"
 10844      00
 10845              	.LASF53:
 10846 02f9 6F757470 		.ascii	"output\000"
 10846      757400
 10847              	.LASF125:
 10848 0300 74637068 		.ascii	"tcphdr\000"
 10848      647200
 10849              	.LASF43:
 10850 0307 70627566 		.ascii	"pbuf\000"
 10850      00
ARM GAS  /tmp/ccqErZ7k.s 			page 195


 10851              	.LASF220:
 10852 030c 7463705F 		.ascii	"tcp_connect\000"
 10852      636F6E6E 
 10852      65637400 
 10853              	.LASF24:
 10854 0318 4D454D50 		.ascii	"MEMP_RAW_PCB\000"
 10854      5F524157 
 10854      5F504342 
 10854      00
 10855              	.LASF232:
 10856 0325 7463705F 		.ascii	"tcp_backoff\000"
 10856      6261636B 
 10856      6F666600 
 10857              	.LASF70:
 10858 0331 6C6F6361 		.ascii	"local_port\000"
 10858      6C5F706F 
 10858      727400
 10859              	.LASF49:
 10860 033c 666C6167 		.ascii	"flags\000"
 10860      7300
 10861              	.LASF63:
 10862 0342 7463705F 		.ascii	"tcp_pcb\000"
 10862      70636200 
 10863              	.LASF23:
 10864 034a 6D656D5F 		.ascii	"mem_size_t\000"
 10864      73697A65 
 10864      5F7400
 10865              	.LASF122:
 10866 0355 4C415354 		.ascii	"LAST_ACK\000"
 10866      5F41434B 
 10866      00
 10867              	.LASF79:
 10868 035e 72747465 		.ascii	"rttest\000"
 10868      737400
 10869              	.LASF42:
 10870 0365 69705F61 		.ascii	"ip_addr\000"
 10870      64647200 
 10871              	.LASF223:
 10872 036d 7463705F 		.ascii	"tcp_timer\000"
 10872      74696D65 
 10872      7200
 10873              	.LASF52:
 10874 0377 696E7075 		.ascii	"input\000"
 10874      7400
 10875              	.LASF213:
 10876 037d 7463705F 		.ascii	"tcp_close\000"
 10876      636C6F73 
 10876      6500
 10877              	.LASF235:
 10878 0387 7463705F 		.ascii	"tcp_timer_needed\000"
 10878      74696D65 
 10878      725F6E65 
 10878      65646564 
 10878      00
 10879              	.LASF90:
 10880 0398 736E645F 		.ascii	"snd_lbb\000"
 10880      6C626200 
ARM GAS  /tmp/ccqErZ7k.s 			page 196


 10881              	.LASF145:
 10882 03a0 63616368 		.ascii	"cachehit\000"
 10882      65686974 
 10882      00
 10883              	.LASF141:
 10884 03a9 6D656D65 		.ascii	"memerr\000"
 10884      727200
 10885              	.LASF219:
 10886 03b0 6F757469 		.ascii	"outif\000"
 10886      6600
 10887              	.LASF154:
 10888 03b6 73746174 		.ascii	"stats_\000"
 10888      735F00
 10889              	.LASF33:
 10890 03bd 4D454D50 		.ascii	"MEMP_TCPIP_MSG_API\000"
 10890      5F544350 
 10890      49505F4D 
 10890      53475F41 
 10890      504900
 10891              	.LASF32:
 10892 03d0 4D454D50 		.ascii	"MEMP_NETCONN\000"
 10892      5F4E4554 
 10892      434F4E4E 
 10892      00
 10893              	.LASF186:
 10894 03dd 7463705F 		.ascii	"tcp_accept\000"
 10894      61636365 
 10894      707400
 10895              	.LASF120:
 10896 03e8 434C4F53 		.ascii	"CLOSE_WAIT\000"
 10896      455F5741 
 10896      495400
 10897              	.LASF75:
 10898 03f3 7263765F 		.ascii	"rcv_ann_right_edge\000"
 10898      616E6E5F 
 10898      72696768 
 10898      745F6564 
 10898      676500
 10899              	.LASF80:
 10900 0406 72747365 		.ascii	"rtseq\000"
 10900      7100
 10901              	.LASF169:
 10902 040c 7463705F 		.ascii	"tcp_listen_with_backlog\000"
 10902      6C697374 
 10902      656E5F77 
 10902      6974685F 
 10902      6261636B 
 10903              	.LASF183:
 10904 0424 7463705F 		.ascii	"tcp_recv\000"
 10904      72656376 
 10904      00
 10905              	.LASF244:
 10906 042d 7463705F 		.ascii	"tcp_zero_window_probe\000"
 10906      7A65726F 
 10906      5F77696E 
 10906      646F775F 
 10906      70726F62 
ARM GAS  /tmp/ccqErZ7k.s 			page 197


 10907              	.LASF208:
 10908 0443 7463705F 		.ascii	"tcp_close_shutdown\000"
 10908      636C6F73 
 10908      655F7368 
 10908      7574646F 
 10908      776E00
 10909              	.LASF12:
 10910 0456 6C6F6E67 		.ascii	"long unsigned int\000"
 10910      20756E73 
 10910      69676E65 
 10910      6420696E 
 10910      7400
 10911              	.LASF50:
 10912 0468 6E657469 		.ascii	"netif\000"
 10912      6600
 10913              	.LASF177:
 10914 046e 7463705F 		.ascii	"tcp_seg_free\000"
 10914      7365675F 
 10914      66726565 
 10914      00
 10915              	.LASF245:
 10916 047b 7463705F 		.ascii	"tcp_rexmit_rto\000"
 10916      7265786D 
 10916      69745F72 
 10916      746F00
 10917              	.LASF57:
 10918 048a 68776164 		.ascii	"hwaddr\000"
 10918      647200
 10919              	.LASF155:
 10920 0491 6C696E6B 		.ascii	"link\000"
 10920      00
 10921              	.LASF110:
 10922 0496 7463705F 		.ascii	"tcp_poll_fn\000"
 10922      706F6C6C 
 10922      5F666E00 
 10923              	.LASF176:
 10924 04a2 7463705F 		.ascii	"tcp_recved\000"
 10924      72656376 
 10924      656400
 10925              	.LASF215:
 10926 04ad 7463705F 		.ascii	"tcp_tmr\000"
 10926      746D7200 
 10927              	.LASF134:
 10928 04b5 6C697374 		.ascii	"listen_pcbs\000"
 10928      656E5F70 
 10928      63627300 
 10929              	.LASF234:
 10930 04c1 7463705F 		.ascii	"tcp_pcb_lists\000"
 10930      7063625F 
 10930      6C697374 
 10930      7300
 10931              	.LASF240:
 10932 04cf 7463705F 		.ascii	"tcp_output\000"
 10932      6F757470 
 10932      757400
 10933              	.LASF46:
 10934 04da 7061796C 		.ascii	"payload\000"
ARM GAS  /tmp/ccqErZ7k.s 			page 198


 10934      6F616400 
 10935              	.LASF81:
 10936 04e2 6E727478 		.ascii	"nrtx\000"
 10936      00
 10937              	.LASF137:
 10938 04e7 786D6974 		.ascii	"xmit\000"
 10938      00
 10939              	.LASF82:
 10940 04ec 6C617374 		.ascii	"lastack\000"
 10940      61636B00 
 10941              	.LASF86:
 10942 04f4 736E645F 		.ascii	"snd_nxt\000"
 10942      6E787400 
 10943              	.LASF171:
 10944 04fc 6C706362 		.ascii	"lpcb\000"
 10944      00
 10945              	.LASF225:
 10946 0501 7463705F 		.ascii	"tcp_bound_pcbs\000"
 10946      626F756E 
 10946      645F7063 
 10946      627300
 10947              	.LASF242:
 10948 0510 70627566 		.ascii	"pbuf_ref\000"
 10948      5F726566 
 10948      00
 10949              	.LASF99:
 10950 0519 73656E74 		.ascii	"sent\000"
 10950      00
 10951              	.LASF13:
 10952 051e 6C6F6E67 		.ascii	"long long int\000"
 10952      206C6F6E 
 10952      6720696E 
 10952      7400
 10953              	.LASF227:
 10954 052c 7463705F 		.ascii	"tcp_active_pcbs\000"
 10954      61637469 
 10954      76655F70 
 10954      63627300 
 10955              	.LASF224:
 10956 053c 7463705F 		.ascii	"tcp_ticks\000"
 10956      7469636B 
 10956      7300
 10957              	.LASF51:
 10958 0546 6E65746D 		.ascii	"netmask\000"
 10958      61736B00 
 10959              	.LASF135:
 10960 054e 70636273 		.ascii	"pcbs\000"
 10960      00
 10961              	.LASF129:
 10962 0553 7365716E 		.ascii	"seqno\000"
 10962      6F00
 10963              	.LASF152:
 10964 0559 6D757465 		.ascii	"mutex\000"
 10964      7800
 10965              	.LASF77:
 10966 055f 706F6C6C 		.ascii	"pollinterval\000"
 10966      696E7465 
ARM GAS  /tmp/ccqErZ7k.s 			page 199


 10966      7276616C 
 10966      00
 10967              	.LASF150:
 10968 056c 73746174 		.ascii	"stats_syselem\000"
 10968      735F7379 
 10968      73656C65 
 10968      6D00
 10969              	.LASF136:
 10970 057a 73746174 		.ascii	"stats_proto\000"
 10970      735F7072 
 10970      6F746F00 
 10971              	.LASF44:
 10972 0586 61646472 		.ascii	"addr\000"
 10972      00
 10973              	.LASF184:
 10974 058b 7463705F 		.ascii	"tcp_sent\000"
 10974      73656E74 
 10974      00
 10975              	.LASF0:
 10976 0594 756E7369 		.ascii	"unsigned int\000"
 10976      676E6564 
 10976      20696E74 
 10976      00
 10977              	.LASF157:
 10978 05a1 69705F66 		.ascii	"ip_frag\000"
 10978      72616700 
 10979              	.LASF19:
 10980 05a9 7531365F 		.ascii	"u16_t\000"
 10980      7400
 10981              	.LASF200:
 10982 05af 7463705F 		.ascii	"tcp_abort\000"
 10982      61626F72 
 10982      7400
 10983              	.LASF72:
 10984 05b9 7263765F 		.ascii	"rcv_nxt\000"
 10984      6E787400 
 10985              	.LASF217:
 10986 05c1 73656E64 		.ascii	"sendmss\000"
 10986      6D737300 
 10987              	.LASF185:
 10988 05c9 7463705F 		.ascii	"tcp_err\000"
 10988      65727200 
 10989              	.LASF59:
 10990 05d1 6E657469 		.ascii	"netif_input_fn\000"
 10990      665F696E 
 10990      7075745F 
 10990      666E00
 10991              	.LASF222:
 10992 05e0 7463705F 		.ascii	"tcp_debug_state_str\000"
 10992      64656275 
 10992      675F7374 
 10992      6174655F 
 10992      73747200 
 10993              	.LASF204:
 10994 05f4 7463705F 		.ascii	"tcp_kill_prio\000"
 10994      6B696C6C 
 10994      5F707269 
ARM GAS  /tmp/ccqErZ7k.s 			page 200


 10994      6F00
 10995              	.LASF102:
 10996 0602 706F6C6C 		.ascii	"poll\000"
 10996      00
 10997              	.LASF226:
 10998 0607 7463705F 		.ascii	"tcp_listen_pcbs\000"
 10998      6C697374 
 10998      656E5F70 
 10998      63627300 
 10999              	.LASF61:
 11000 0617 6E657469 		.ascii	"netif_linkoutput_fn\000"
 11000      665F6C69 
 11000      6E6B6F75 
 11000      74707574 
 11000      5F666E00 
 11001              	.LASF78:
 11002 062b 7274696D 		.ascii	"rtime\000"
 11002      6500
 11003              	.LASF116:
 11004 0631 53594E5F 		.ascii	"SYN_RCVD\000"
 11004      52435644 
 11004      00
 11005              	.LASF256:
 11006 063a 61676169 		.ascii	"again\000"
 11006      6E00
 11007              	.LASF252:
 11008 0640 2E2E2F2E 		.ascii	"../../ext/lwip/src/core/tcp.c\000"
 11008      2E2F6578 
 11008      742F6C77 
 11008      69702F73 
 11008      72632F63 
 11009              	.LASF60:
 11010 065e 6E657469 		.ascii	"netif_output_fn\000"
 11010      665F6F75 
 11010      74707574 
 11010      5F666E00 
 11011              	.LASF100:
 11012 066e 72656376 		.ascii	"recv\000"
 11012      00
 11013              	.LASF47:
 11014 0673 746F745F 		.ascii	"tot_len\000"
 11014      6C656E00 
 11015              	.LASF40:
 11016 067b 69705F61 		.ascii	"ip_addr_t\000"
 11016      6464725F 
 11016      7400
 11017              	.LASF160:
 11018 0685 7463705F 		.ascii	"tcp_recv_null\000"
 11018      72656376 
 11018      5F6E756C 
 11018      6C00
 11019              	.LASF41:
 11020 0693 6572725F 		.ascii	"err_t\000"
 11020      7400
 11021              	.LASF132:
 11022 0699 63686B73 		.ascii	"chksum\000"
 11022      756D00
ARM GAS  /tmp/ccqErZ7k.s 			page 201


 11023              	.LASF209:
 11024 06a0 7273745F 		.ascii	"rst_on_unacked_data\000"
 11024      6F6E5F75 
 11024      6E61636B 
 11024      65645F64 
 11024      61746100 
 11025              	.LASF151:
 11026 06b4 73746174 		.ascii	"stats_sys\000"
 11026      735F7379 
 11026      7300
 11027              	.LASF29:
 11028 06be 4D454D50 		.ascii	"MEMP_REASSDATA\000"
 11028      5F524541 
 11028      53534441 
 11028      544100
 11029              	.LASF180:
 11030 06cd 7463705F 		.ascii	"tcp_seg_copy\000"
 11030      7365675F 
 11030      636F7079 
 11030      00
 11031              	.LASF202:
 11032 06da 696E6163 		.ascii	"inactivity\000"
 11032      74697669 
 11032      747900
 11033              	.LASF153:
 11034 06e5 6D626F78 		.ascii	"mbox\000"
 11034      00
 11035              	.LASF158:
 11036 06ea 69636D70 		.ascii	"icmp\000"
 11036      00
 11037              	.LASF30:
 11038 06ef 4D454D50 		.ascii	"MEMP_FRAG_PBUF\000"
 11038      5F465241 
 11038      475F5042 
 11038      554600
 11039              	.LASF14:
 11040 06fe 6C6F6E67 		.ascii	"long long unsigned int\000"
 11040      206C6F6E 
 11040      6720756E 
 11040      7369676E 
 11040      65642069 
 11041              	.LASF25:
 11042 0715 4D454D50 		.ascii	"MEMP_UDP_PCB\000"
 11042      5F554450 
 11042      5F504342 
 11042      00
 11043              	.LASF71:
 11044 0722 72656D6F 		.ascii	"remote_port\000"
 11044      74655F70 
 11044      6F727400 
 11045              	.LASF28:
 11046 072e 4D454D50 		.ascii	"MEMP_TCP_SEG\000"
 11046      5F544350 
 11046      5F534547 
 11046      00
 11047              	.LASF7:
 11048 073b 75696E74 		.ascii	"uint16_t\000"
ARM GAS  /tmp/ccqErZ7k.s 			page 202


 11048      31365F74 
 11048      00
 11049              	.LASF106:
 11050 0744 70657273 		.ascii	"persist_backoff\000"
 11050      6973745F 
 11050      6261636B 
 11050      6F666600 
 11051              	.LASF34:
 11052 0754 4D454D50 		.ascii	"MEMP_TCPIP_MSG_INPKT\000"
 11052      5F544350 
 11052      49505F4D 
 11052      53475F49 
 11052      4E504B54 
 11053              	.LASF84:
 11054 0769 63776E64 		.ascii	"cwnd\000"
 11054      00
 11055              	.LASF98:
 11056 076e 72656675 		.ascii	"refused_data\000"
 11056      7365645F 
 11056      64617461 
 11056      00
 11057              	.LASF93:
 11058 077b 736E645F 		.ascii	"snd_queuelen\000"
 11058      71756575 
 11058      656C656E 
 11058      00
 11059              	.LASF195:
 11060 0788 7463705F 		.ascii	"tcp_pcb_remove\000"
 11060      7063625F 
 11060      72656D6F 
 11060      766500
 11061              	.LASF149:
 11062 0797 696C6C65 		.ascii	"illegal\000"
 11062      67616C00 
 11063              	.LASF191:
 11064 079f 6566665F 		.ascii	"eff_wnd\000"
 11064      776E6400 
 11065              	.LASF239:
 11066 07a7 6D656D70 		.ascii	"memp_free\000"
 11066      5F667265 
 11066      6500
 11067              	.LASF144:
 11068 07b1 6F707465 		.ascii	"opterr\000"
 11068      727200
 11069              	.LASF205:
 11070 07b8 6D707269 		.ascii	"mprio\000"
 11070      6F00
 11071              	.LASF127:
 11072 07be 7463705F 		.ascii	"tcp_hdr\000"
 11072      68647200 
 11073              	.LASF247:
 11074 07c6 6D656D73 		.ascii	"memset\000"
 11074      657400
 11075              	.LASF139:
 11076 07cd 63686B65 		.ascii	"chkerr\000"
 11076      727200
 11077              	.LASF95:
ARM GAS  /tmp/ccqErZ7k.s 			page 203


 11078 07d4 756E7365 		.ascii	"unsent\000"
 11078      6E7400
 11079              	.LASF94:
 11080 07db 756E7365 		.ascii	"unsent_oversize\000"
 11080      6E745F6F 
 11080      76657273 
 11080      697A6500 
 11081              	.LASF241:
 11082 07eb 70627566 		.ascii	"pbuf_free\000"
 11082      5F667265 
 11082      6500
 11083              	.LASF231:
 11084 07f5 7463705F 		.ascii	"tcp_state_str\000"
 11084      73746174 
 11084      655F7374 
 11084      7200
 11085              	.LASF128:
 11086 0803 64657374 		.ascii	"dest\000"
 11086      00
 11087              	.LASF38:
 11088 0808 4D454D50 		.ascii	"MEMP_MAX\000"
 11088      5F4D4158 
 11088      00
 11089              	.LASF175:
 11090 0811 776E645F 		.ascii	"wnd_inflation\000"
 11090      696E666C 
 11090      6174696F 
 11090      6E00
 11091              	.LASF168:
 11092 081f 7463705F 		.ascii	"tcp_bind\000"
 11092      62696E64 
 11092      00
 11093              	.LASF65:
 11094 0828 72656D6F 		.ascii	"remote_ip\000"
 11094      74655F69 
 11094      7000
 11095              	.LASF112:
 11096 0832 7463705F 		.ascii	"tcp_connected_fn\000"
 11096      636F6E6E 
 11096      65637465 
 11096      645F666E 
 11096      00
 11097              	.LASF21:
 11098 0843 7533325F 		.ascii	"u32_t\000"
 11098      7400
 11099              	.LASF130:
 11100 0849 61636B6E 		.ascii	"ackno\000"
 11100      6F00
 11101              	.LASF182:
 11102 084f 7463705F 		.ascii	"tcp_arg\000"
 11102      61726700 
 11103              	.LASF248:
 11104 0857 7463705F 		.ascii	"tcp_send_fin\000"
 11104      73656E64 
 11104      5F66696E 
 11104      00
 11105              	.LASF203:
ARM GAS  /tmp/ccqErZ7k.s 			page 204


 11106 0864 7463705F 		.ascii	"tcp_kill_timewait\000"
 11106      6B696C6C 
 11106      5F74696D 
 11106      65776169 
 11106      7400
 11107              	.LASF188:
 11108 0876 696E7465 		.ascii	"interval\000"
 11108      7276616C 
 11108      00
 11109              	.LASF105:
 11110 087f 70657273 		.ascii	"persist_cnt\000"
 11110      6973745F 
 11110      636E7400 
 11111              	.LASF198:
 11112 088b 72657365 		.ascii	"reset\000"
 11112      7400
 11113              	.LASF221:
 11114 0891 6F6C645F 		.ascii	"old_local_port\000"
 11114      6C6F6361 
 11114      6C5F706F 
 11114      727400
 11115              	.LASF146:
 11116 08a0 73746174 		.ascii	"stats_mem\000"
 11116      735F6D65 
 11116      6D00
 11117              	.LASF131:
 11118 08aa 5F686472 		.ascii	"_hdrlen_rsvd_flags\000"
 11118      6C656E5F 
 11118      72737664 
 11118      5F666C61 
 11118      677300
 11119              	.LASF199:
 11120 08bd 65727266 		.ascii	"errf_arg\000"
 11120      5F617267 
 11120      00
 11121              	.LASF58:
 11122 08c6 6E616D65 		.ascii	"name\000"
 11122      00
 11123              	.LASF164:
 11124 08cb 706F7274 		.ascii	"port\000"
 11124      00
 11125              	.LASF36:
 11126 08d0 4D454D50 		.ascii	"MEMP_PBUF\000"
 11126      5F504255 
 11126      4600
 11127              	.LASF91:
 11128 08da 61636B65 		.ascii	"acked\000"
 11128      6400
 11129              	.LASF104:
 11130 08e0 6B656570 		.ascii	"keep_idle\000"
 11130      5F69646C 
 11130      6500
 11131              	.LASF250:
 11132 08ea 7463705F 		.ascii	"tcp_enqueue_flags\000"
 11132      656E7175 
 11132      6575655F 
 11132      666C6167 
ARM GAS  /tmp/ccqErZ7k.s 			page 205


 11132      7300
 11133              	.LASF6:
 11134 08fc 73686F72 		.ascii	"short int\000"
 11134      7420696E 
 11134      7400
 11135              	.LASF230:
 11136 0906 6C776970 		.ascii	"lwip_stats\000"
 11136      5F737461 
 11136      747300
 11137              	.LASF96:
 11138 0911 756E6163 		.ascii	"unacked\000"
 11138      6B656400 
 11139              	.LASF194:
 11140 0919 70636232 		.ascii	"pcb2\000"
 11140      00
 11141              	.LASF5:
 11142 091e 696E7431 		.ascii	"int16_t\000"
 11142      365F7400 
 11143              	.LASF68:
 11144 0926 63616C6C 		.ascii	"callback_arg\000"
 11144      6261636B 
 11144      5F617267 
 11144      00
 11145              	.LASF103:
 11146 0933 65727266 		.ascii	"errf\000"
 11146      00
 11147              	.LASF69:
 11148 0938 61636365 		.ascii	"accept\000"
 11148      707400
 11149              	.LASF111:
 11150 093f 7463705F 		.ascii	"tcp_err_fn\000"
 11150      6572725F 
 11150      666E00
 11151              	.LASF108:
 11152 094a 7463705F 		.ascii	"tcp_recv_fn\000"
 11152      72656376 
 11152      5F666E00 
 11153              	.LASF88:
 11154 0956 736E645F 		.ascii	"snd_wl1\000"
 11154      776C3100 
 11155              	.LASF89:
 11156 095e 736E645F 		.ascii	"snd_wl2\000"
 11156      776C3200 
 11157              	.LASF113:
 11158 0966 434C4F53 		.ascii	"CLOSED\000"
 11158      454400
 11159              	.LASF83:
 11160 096d 64757061 		.ascii	"dupacks\000"
 11160      636B7300 
 11161              	.LASF210:
 11162 0975 7463705F 		.ascii	"tcp_shutdown\000"
 11162      73687574 
 11162      646F776E 
 11162      00
 11163              	.LASF201:
 11164 0982 696E6163 		.ascii	"inactive\000"
 11164      74697665 
ARM GAS  /tmp/ccqErZ7k.s 			page 206


 11164      00
 11165              	.LASF20:
 11166 098b 7331365F 		.ascii	"s16_t\000"
 11166      7400
 11167              	.LASF192:
 11168 0991 7063625F 		.ascii	"pcb_remove\000"
 11168      72656D6F 
 11168      766500
 11169              	.LASF211:
 11170 099c 73687574 		.ascii	"shut_rx\000"
 11170      5F727800 
 11171              	.LASF133:
 11172 09a4 75726770 		.ascii	"urgp\000"
 11172      00
 11173              	.LASF11:
 11174 09a9 75696E74 		.ascii	"uint32_t\000"
 11174      33325F74 
 11174      00
 11175              	.LASF206:
 11176 09b2 7463705F 		.ascii	"tcp_alloc\000"
 11176      616C6C6F 
 11176      6300
 11177              	.LASF172:
 11178 09bc 7463705F 		.ascii	"tcp_update_rcv_ann_wnd\000"
 11178      75706461 
 11178      74655F72 
 11178      63765F61 
 11178      6E6E5F77 
 11179              	.LASF193:
 11180 09d3 7063625F 		.ascii	"pcb_reset\000"
 11180      72657365 
 11180      7400
 11181              	.LASF228:
 11182 09dd 7463705F 		.ascii	"tcp_tw_pcbs\000"
 11182      74775F70 
 11182      63627300 
 11183              	.LASF8:
 11184 09e9 73686F72 		.ascii	"short unsigned int\000"
 11184      7420756E 
 11184      7369676E 
 11184      65642069 
 11184      6E7400
 11185              	.LASF18:
 11186 09fc 73385F74 		.ascii	"s8_t\000"
 11186      00
 11187              	.LASF167:
 11188 0a01 63706362 		.ascii	"cpcb\000"
 11188      00
 11189              	.LASF39:
 11190 0a06 6D656D70 		.ascii	"memp_t\000"
 11190      5F7400
 11191              	.LASF17:
 11192 0a0d 75385F74 		.ascii	"u8_t\000"
 11192      00
 11193              	.LASF166:
 11194 0a12 6D61785F 		.ascii	"max_pcb_list\000"
 11194      7063625F 
ARM GAS  /tmp/ccqErZ7k.s 			page 207


 11194      6C697374 
 11194      00
 11195              	.LASF121:
 11196 0a1f 434C4F53 		.ascii	"CLOSING\000"
 11196      494E4700 
 11197              	.LASF92:
 11198 0a27 736E645F 		.ascii	"snd_buf\000"
 11198      62756600 
 11199              	.LASF87:
 11200 0a2f 736E645F 		.ascii	"snd_wnd\000"
 11200      776E6400 
 11201              	.LASF212:
 11202 0a37 73687574 		.ascii	"shut_tx\000"
 11202      5F747800 
 11203              	.LASF196:
 11204 0a3f 7063626C 		.ascii	"pcblist\000"
 11204      69737400 
 11205              	.LASF62:
 11206 0a47 7463705F 		.ascii	"tcp_accept_fn\000"
 11206      61636365 
 11206      70745F66 
 11206      6E00
 11207              	.LASF142:
 11208 0a55 72746572 		.ascii	"rterr\000"
 11208      7200
 11209              	.LASF45:
 11210 0a5b 6E657874 		.ascii	"next\000"
 11210      00
 11211              	.LASF189:
 11212 0a60 7463705F 		.ascii	"tcp_slowtmr\000"
 11212      736C6F77 
 11212      746D7200 
 11213              	.LASF124:
 11214 0a6c 7463705F 		.ascii	"tcp_seg\000"
 11214      73656700 
 11215              	.LASF101:
 11216 0a74 636F6E6E 		.ascii	"connected\000"
 11216      65637465 
 11216      6400
 11217              	.LASF27:
 11218 0a7e 4D454D50 		.ascii	"MEMP_TCP_PCB_LISTEN\000"
 11218      5F544350 
 11218      5F504342 
 11218      5F4C4953 
 11218      54454E00 
 11219              	.LASF190:
 11220 0a92 70726576 		.ascii	"prev\000"
 11220      00
 11221              	.LASF187:
 11222 0a97 7463705F 		.ascii	"tcp_poll\000"
 11222      706F6C6C 
 11222      00
 11223              	.LASF97:
 11224 0aa0 6F6F7365 		.ascii	"ooseq\000"
 11224      7100
 11225              		.ident	"GCC: (crosstool-NG 1.17.0 - PSAS ST32F4 GFE) 4.7.2"
ARM GAS  /tmp/ccqErZ7k.s 			page 208


DEFINED SYMBOLS
                            *ABS*:0000000000000000 tcp.c
     /tmp/ccqErZ7k.s:21     .text.tcp_accept_null:0000000000000000 $t
     /tmp/ccqErZ7k.s:26     .text.tcp_accept_null:0000000000000000 tcp_accept_null
     /tmp/ccqErZ7k.s:43     .text.tcp_new_port:0000000000000000 $t
     /tmp/ccqErZ7k.s:48     .text.tcp_new_port:0000000000000000 tcp_new_port
     /tmp/ccqErZ7k.s:107    .text.tcp_new_port:000000000000003c $d
     /tmp/ccqErZ7k.s:114    .text.tcp_bind:0000000000000000 $t
     /tmp/ccqErZ7k.s:120    .text.tcp_bind:0000000000000000 tcp_bind
     /tmp/ccqErZ7k.s:235    .text.tcp_bind:000000000000006c $d
     /tmp/ccqErZ7k.s:241    .text.tcp_listen_with_backlog:0000000000000000 $t
     /tmp/ccqErZ7k.s:247    .text.tcp_listen_with_backlog:0000000000000000 tcp_listen_with_backlog
     /tmp/ccqErZ7k.s:394    .text.tcp_listen_with_backlog:00000000000000a0 $d
     /tmp/ccqErZ7k.s:402    .text.tcp_update_rcv_ann_wnd:0000000000000000 $t
     /tmp/ccqErZ7k.s:408    .text.tcp_update_rcv_ann_wnd:0000000000000000 tcp_update_rcv_ann_wnd
     /tmp/ccqErZ7k.s:486    .text.tcp_recved:0000000000000000 $t
     /tmp/ccqErZ7k.s:492    .text.tcp_recved:0000000000000000 tcp_recved
     /tmp/ccqErZ7k.s:564    .text.tcp_seg_free:0000000000000000 $t
     /tmp/ccqErZ7k.s:570    .text.tcp_seg_free:0000000000000000 tcp_seg_free
     /tmp/ccqErZ7k.s:607    .text.tcp_segs_free:0000000000000000 $t
     /tmp/ccqErZ7k.s:613    .text.tcp_segs_free:0000000000000000 tcp_segs_free
     /tmp/ccqErZ7k.s:647    .text.tcp_setprio:0000000000000000 $t
     /tmp/ccqErZ7k.s:653    .text.tcp_setprio:0000000000000000 tcp_setprio
     /tmp/ccqErZ7k.s:668    .text.tcp_seg_copy:0000000000000000 $t
     /tmp/ccqErZ7k.s:674    .text.tcp_seg_copy:0000000000000000 tcp_seg_copy
     /tmp/ccqErZ7k.s:720    .text.tcp_arg:0000000000000000 $t
     /tmp/ccqErZ7k.s:726    .text.tcp_arg:0000000000000000 tcp_arg
     /tmp/ccqErZ7k.s:741    .text.tcp_recv:0000000000000000 $t
     /tmp/ccqErZ7k.s:747    .text.tcp_recv:0000000000000000 tcp_recv
     /tmp/ccqErZ7k.s:762    .text.tcp_sent:0000000000000000 $t
     /tmp/ccqErZ7k.s:768    .text.tcp_sent:0000000000000000 tcp_sent
     /tmp/ccqErZ7k.s:783    .text.tcp_err:0000000000000000 $t
     /tmp/ccqErZ7k.s:789    .text.tcp_err:0000000000000000 tcp_err
     /tmp/ccqErZ7k.s:804    .text.tcp_accept:0000000000000000 $t
     /tmp/ccqErZ7k.s:810    .text.tcp_accept:0000000000000000 tcp_accept
     /tmp/ccqErZ7k.s:825    .text.tcp_poll:0000000000000000 $t
     /tmp/ccqErZ7k.s:831    .text.tcp_poll:0000000000000000 tcp_poll
     /tmp/ccqErZ7k.s:848    .text.tcp_pcb_purge:0000000000000000 $t
     /tmp/ccqErZ7k.s:854    .text.tcp_pcb_purge:0000000000000000 tcp_pcb_purge
     /tmp/ccqErZ7k.s:929    .text.tcp_slowtmr:0000000000000000 $t
     /tmp/ccqErZ7k.s:935    .text.tcp_slowtmr:0000000000000000 tcp_slowtmr
     /tmp/ccqErZ7k.s:3256   .rodata.tcp_persist_backoff:0000000000000000 .LANCHOR8
     /tmp/ccqErZ7k.s:3177   .rodata.tcp_backoff:0000000000000000 .LANCHOR9
     /tmp/ccqErZ7k.s:1437   .text.tcp_slowtmr:00000000000002d4 $d
     /tmp/ccqErZ7k.s:1443   .text.tcp_slowtmr:00000000000002e0 $t
     /tmp/ccqErZ7k.s:1546   .text.tcp_pcb_remove:0000000000000000 $t
     /tmp/ccqErZ7k.s:1552   .text.tcp_pcb_remove:0000000000000000 tcp_pcb_remove
     /tmp/ccqErZ7k.s:1679   .text.tcp_pcb_remove:000000000000008c $d
     /tmp/ccqErZ7k.s:1684   .text.tcp_abandon:0000000000000000 $t
     /tmp/ccqErZ7k.s:1690   .text.tcp_abandon:0000000000000000 tcp_abandon
     /tmp/ccqErZ7k.s:1833   .text.tcp_abandon:000000000000009c $d
     /tmp/ccqErZ7k.s:1839   .text.tcp_abort:0000000000000000 $t
     /tmp/ccqErZ7k.s:1845   .text.tcp_abort:0000000000000000 tcp_abort
     /tmp/ccqErZ7k.s:1863   .text.tcp_alloc:0000000000000000 $t
     /tmp/ccqErZ7k.s:1869   .text.tcp_alloc:0000000000000000 tcp_alloc
     /tmp/ccqErZ7k.s:2112   .text.tcp_alloc:0000000000000124 $d
     /tmp/ccqErZ7k.s:2548   .text.tcp_recv_null:0000000000000000 tcp_recv_null
ARM GAS  /tmp/ccqErZ7k.s 			page 209


     /tmp/ccqErZ7k.s:2122   .text.tcp_new:0000000000000000 $t
     /tmp/ccqErZ7k.s:2128   .text.tcp_new:0000000000000000 tcp_new
     /tmp/ccqErZ7k.s:2145   .text.tcp_close_shutdown:0000000000000000 $t
     /tmp/ccqErZ7k.s:2150   .text.tcp_close_shutdown:0000000000000000 tcp_close_shutdown
     /tmp/ccqErZ7k.s:2258   .text.tcp_close_shutdown:0000000000000088 $d
     /tmp/ccqErZ7k.s:2266   .text.tcp_close_shutdown:0000000000000090 $t
     /tmp/ccqErZ7k.s:2418   .text.tcp_close_shutdown:0000000000000134 $d
     /tmp/ccqErZ7k.s:2427   .text.tcp_shutdown:0000000000000000 $t
     /tmp/ccqErZ7k.s:2433   .text.tcp_shutdown:0000000000000000 tcp_shutdown
     /tmp/ccqErZ7k.s:2510   .text.tcp_close:0000000000000000 $t
     /tmp/ccqErZ7k.s:2516   .text.tcp_close:0000000000000000 tcp_close
     /tmp/ccqErZ7k.s:2542   .text.tcp_recv_null:0000000000000000 $t
     /tmp/ccqErZ7k.s:2603   .text.tcp_fasttmr:0000000000000000 $t
     /tmp/ccqErZ7k.s:2609   .text.tcp_fasttmr:0000000000000000 tcp_fasttmr
     /tmp/ccqErZ7k.s:2713   .text.tcp_fasttmr:0000000000000070 $d
     /tmp/ccqErZ7k.s:2720   .text.tcp_tmr:0000000000000000 $t
     /tmp/ccqErZ7k.s:2726   .text.tcp_tmr:0000000000000000 tcp_tmr
     /tmp/ccqErZ7k.s:2758   .text.tcp_tmr:0000000000000020 $d
     /tmp/ccqErZ7k.s:2763   .text.tcp_next_iss:0000000000000000 $t
     /tmp/ccqErZ7k.s:2769   .text.tcp_next_iss:0000000000000000 tcp_next_iss
     /tmp/ccqErZ7k.s:3150   .bss.tcp_ticks:0000000000000000 .LANCHOR5
     /tmp/ccqErZ7k.s:3157   .data.iss.6043:0000000000000000 .LANCHOR10
     /tmp/ccqErZ7k.s:2791   .text.tcp_eff_send_mss:0000000000000000 $t
     /tmp/ccqErZ7k.s:2797   .text.tcp_eff_send_mss:0000000000000000 tcp_eff_send_mss
     /tmp/ccqErZ7k.s:2841   .text.tcp_connect:0000000000000000 $t
     /tmp/ccqErZ7k.s:2847   .text.tcp_connect:0000000000000000 tcp_connect
     /tmp/ccqErZ7k.s:3077   .text.tcp_connect:0000000000000100 $d
     /tmp/ccqErZ7k.s:3087   .text.tcp_debug_state_str:0000000000000000 $t
     /tmp/ccqErZ7k.s:3093   .text.tcp_debug_state_str:0000000000000000 tcp_debug_state_str
     /tmp/ccqErZ7k.s:3123   .rodata.tcp_state_str:0000000000000000 .LANCHOR12
     /tmp/ccqErZ7k.s:3220   .bss.tcp_tmp_pcb:0000000000000000 tcp_tmp_pcb
     /tmp/ccqErZ7k.s:3143   .rodata.tcp_pcb_lists:0000000000000000 tcp_pcb_lists
     /tmp/ccqErZ7k.s:3213   .bss.tcp_tw_pcbs:0000000000000000 tcp_tw_pcbs
     /tmp/ccqErZ7k.s:3206   .bss.tcp_active_pcbs:0000000000000000 tcp_active_pcbs
     /tmp/ccqErZ7k.s:3173   .bss.tcp_listen_pcbs:0000000000000000 tcp_listen_pcbs
     /tmp/ccqErZ7k.s:3272   .bss.tcp_bound_pcbs:0000000000000000 tcp_bound_pcbs
     /tmp/ccqErZ7k.s:3259   .rodata.tcp_persist_backoff:0000000000000000 tcp_persist_backoff
     /tmp/ccqErZ7k.s:3180   .rodata.tcp_backoff:0000000000000000 tcp_backoff
     /tmp/ccqErZ7k.s:3153   .bss.tcp_ticks:0000000000000000 tcp_ticks
     /tmp/ccqErZ7k.s:3126   .rodata.tcp_state_str:0000000000000000 tcp_state_str
     /tmp/ccqErZ7k.s:3122   .rodata.tcp_state_str:0000000000000000 $d
     /tmp/ccqErZ7k.s:3139   .rodata.tcp_pcb_lists:0000000000000000 $d
     /tmp/ccqErZ7k.s:3149   .bss.tcp_ticks:0000000000000000 $d
     /tmp/ccqErZ7k.s:3156   .data.iss.6043:0000000000000000 $d
     /tmp/ccqErZ7k.s:3160   .data.iss.6043:0000000000000000 iss.6043
     /tmp/ccqErZ7k.s:3166   .bss.tcp_timer:0000000000000000 tcp_timer
     /tmp/ccqErZ7k.s:3167   .bss.tcp_timer:0000000000000000 $d
     /tmp/ccqErZ7k.s:3169   .bss.tcp_listen_pcbs:0000000000000000 $d
     /tmp/ccqErZ7k.s:3176   .rodata.tcp_backoff:0000000000000000 $d
     /tmp/ccqErZ7k.s:3195   .data.port.5907:0000000000000000 $d
     /tmp/ccqErZ7k.s:3199   .data.port.5907:0000000000000000 port.5907
     /tmp/ccqErZ7k.s:3202   .bss.tcp_active_pcbs:0000000000000000 $d
     /tmp/ccqErZ7k.s:3209   .bss.tcp_tw_pcbs:0000000000000000 $d
     /tmp/ccqErZ7k.s:3216   .bss.tcp_tmp_pcb:0000000000000000 $d
     /tmp/ccqErZ7k.s:3223   .rodata.str1.4:0000000000000000 $d
     /tmp/ccqErZ7k.s:3255   .rodata.tcp_persist_backoff:0000000000000000 $d
     /tmp/ccqErZ7k.s:3268   .bss.tcp_bound_pcbs:0000000000000000 $d
ARM GAS  /tmp/ccqErZ7k.s 			page 210


                     .debug_frame:0000000000000010 $d
     /tmp/ccqErZ7k.s:113    .text.tcp_new_port:0000000000000048 $t
     /tmp/ccqErZ7k.s:240    .text.tcp_bind:0000000000000074 $t
     /tmp/ccqErZ7k.s:1838   .text.tcp_abandon:00000000000000a4 $t
     /tmp/ccqErZ7k.s:2121   .text.tcp_alloc:000000000000013c $t
     /tmp/ccqErZ7k.s:2426   .text.tcp_close_shutdown:0000000000000148 $t
     /tmp/ccqErZ7k.s:2719   .text.tcp_fasttmr:0000000000000074 $t
     /tmp/ccqErZ7k.s:2762   .text.tcp_tmr:0000000000000024 $t
     /tmp/ccqErZ7k.s:3086   .text.tcp_connect:0000000000000114 $t

UNDEFINED SYMBOLS
tcp_timer_needed
port_halt
memp_malloc
memp_free
tcp_output
pbuf_free
pbuf_ref
tcp_zero_window_probe
tcp_rexmit_rto
tcp_keepalive
tcp_rst
memset
lwip_stats
tcp_send_fin
ip_route
tcp_enqueue_flags
