ARM GAS  /tmp/ccuCtRWT.s 			page 1


   1              		.syntax unified
   2              		.cpu cortex-m4
   3              		.eabi_attribute 27, 3
   4              		.eabi_attribute 28, 1
   5              		.fpu fpv4-sp-d16
   6              		.eabi_attribute 20, 1
   7              		.eabi_attribute 21, 1
   8              		.eabi_attribute 23, 3
   9              		.eabi_attribute 24, 1
  10              		.eabi_attribute 25, 1
  11              		.eabi_attribute 26, 1
  12              		.eabi_attribute 30, 2
  13              		.eabi_attribute 34, 1
  14              		.eabi_attribute 18, 4
  15              		.thumb
  16              		.file	"tcp_out.c"
  17              		.text
  18              	.Ltext0:
  19              		.cfi_sections	.debug_frame
  20              		.section	.text.tcp_pbuf_prealloc,"ax",%progbits
  21              		.align	2
  22              		.p2align 4,,15
  23              		.thumb
  24              		.thumb_func
  25              		.type	tcp_pbuf_prealloc, %function
  26              	tcp_pbuf_prealloc:
  27              	.LFB10:
  28              		.file 1 "../../ext/lwip/src/core/tcp_out.c"
  29              		.loc 1 219 0
  30              		.cfi_startproc
  31              		@ args = 12, pretend = 0, frame = 0
  32              		@ frame_needed = 0, uses_anonymous_args = 0
  33              	.LVL0:
  34              		.loc 1 231 0
  35 0000 9142     		cmp	r1, r2
  36              		.loc 1 219 0
  37 0002 70B5     		push	{r4, r5, r6, lr}
  38              	.LCFI0:
  39              		.cfi_def_cfa_offset 16
  40              		.cfi_offset 4, -16
  41              		.cfi_offset 5, -12
  42              		.cfi_offset 6, -8
  43              		.cfi_offset 14, -4
  44              		.loc 1 219 0
  45 0004 0D46     		mov	r5, r1
  46              	.LVL1:
  47 0006 1E46     		mov	r6, r3
  48              		.loc 1 231 0
  49 0008 15D2     		bcs	.L8
  50              		.loc 1 243 0
  51 000a 9DF81430 		ldrb	r3, [sp, #20]	@ zero_extendqisi2
  52              	.LVL2:
  53 000e 03F00203 		and	r3, r3, #2
  54 0012 DBB2     		uxtb	r3, r3
  55 0014 43B1     		cbz	r3, .L19
  56              	.LVL3:
  57              	.L3:
ARM GAS  /tmp/ccuCtRWT.s 			page 2


  58              		.loc 1 248 0
  59 0016 05F21B21 		addw	r1, r5, #539
  60 001a 21F00301 		bic	r1, r1, #3
  61 001e 9142     		cmp	r1, r2
  62 0020 B8BF     		it	lt
  63 0022 0A46     		movlt	r2, r1
  64              	.LVL4:
  65 0024 91B2     		uxth	r1, r2
  66              	.LVL5:
  67 0026 07E0     		b	.L2
  68              	.LVL6:
  69              	.L19:
  70              		.loc 1 244 0 discriminator 1
  71 0028 0499     		ldr	r1, [sp, #16]
  72              	.LVL7:
  73 002a 91F82030 		ldrb	r3, [r1, #32]	@ zero_extendqisi2
  74              		.loc 1 243 0 discriminator 1
  75 002e 03F04003 		and	r3, r3, #64
  76 0032 DBB2     		uxtb	r3, r3
  77 0034 83B1     		cbz	r3, .L20
  78              	.L8:
  79              		.loc 1 246 0
  80 0036 2946     		mov	r1, r5
  81              	.LVL8:
  82              	.L2:
  83              		.loc 1 252 0
  84 0038 0022     		movs	r2, #0
  85 003a FFF7FEFF 		bl	pbuf_alloc
  86              	.LVL9:
  87              		.loc 1 253 0
  88 003e 0446     		mov	r4, r0
  89 0040 40B1     		cbz	r0, .L4
  90              		.loc 1 256 0
  91 0042 0368     		ldr	r3, [r0, #0]
  92 0044 0BB1     		cbz	r3, .L5
  93              		.loc 1 256 0 is_stmt 0 discriminator 1
  94 0046 FFF7FEFF 		bl	port_halt
  95              	.LVL10:
  96              	.L5:
  97              		.loc 1 257 0 is_stmt 1
  98 004a 6389     		ldrh	r3, [r4, #10]
  99 004c 5B1B     		subs	r3, r3, r5
 100 004e 3380     		strh	r3, [r6, #0]	@ movhi
 101              		.loc 1 259 0
 102 0050 2581     		strh	r5, [r4, #8]	@ movhi
 103 0052 6581     		strh	r5, [r4, #10]	@ movhi
 104              	.L4:
 105              		.loc 1 261 0
 106 0054 2046     		mov	r0, r4
 107 0056 70BD     		pop	{r4, r5, r6, pc}
 108              	.LVL11:
 109              	.L20:
 110              		.loc 1 244 0
 111 0058 9DF81830 		ldrb	r3, [sp, #24]	@ zero_extendqisi2
 112 005c 002B     		cmp	r3, #0
 113 005e DAD0     		beq	.L3
 114              		.loc 1 245 0
ARM GAS  /tmp/ccuCtRWT.s 			page 3


 115 0060 4B6F     		ldr	r3, [r1, #116]
 116 0062 002B     		cmp	r3, #0
 117 0064 D7D1     		bne	.L3
 118              		.loc 1 246 0
 119 0066 8B6F     		ldr	r3, [r1, #120]
 120 0068 002B     		cmp	r3, #0
 121 006a D4D1     		bne	.L3
 122 006c E3E7     		b	.L8
 123              		.cfi_endproc
 124              	.LFE10:
 125              		.size	tcp_pbuf_prealloc, .-tcp_pbuf_prealloc
 126 006e 00BF     		.section	.text.tcp_create_segment,"ax",%progbits
 127              		.align	2
 128              		.p2align 4,,15
 129              		.thumb
 130              		.thumb_func
 131              		.type	tcp_create_segment, %function
 132              	tcp_create_segment:
 133              	.LFB9:
 134              		.loc 1 157 0
 135              		.cfi_startproc
 136              		@ args = 4, pretend = 0, frame = 0
 137              		@ frame_needed = 0, uses_anonymous_args = 0
 138              	.LVL12:
 139 0000 2DE9F84F 		push	{r3, r4, r5, r6, r7, r8, r9, sl, fp, lr}
 140              	.LCFI1:
 141              		.cfi_def_cfa_offset 40
 142              		.cfi_offset 3, -40
 143              		.cfi_offset 4, -36
 144              		.cfi_offset 5, -32
 145              		.cfi_offset 6, -28
 146              		.cfi_offset 7, -24
 147              		.cfi_offset 8, -20
 148              		.cfi_offset 9, -16
 149              		.cfi_offset 10, -12
 150              		.cfi_offset 11, -8
 151              		.cfi_offset 14, -4
 152              		.loc 1 157 0
 153 0004 9DF82850 		ldrb	r5, [sp, #40]	@ zero_extendqisi2
 154              		.loc 1 159 0
 155 0008 15F0010F 		tst	r5, #1
 156 000c 0CBF     		ite	eq
 157 000e 0024     		moveq	r4, #0
 158 0010 0424     		movne	r4, #4
 159              		.loc 1 157 0
 160 0012 8046     		mov	r8, r0
 161              		.loc 1 161 0
 162 0014 0420     		movs	r0, #4
 163              	.LVL13:
 164              		.loc 1 159 0
 165 0016 05F00207 		and	r7, r5, #2
 166              		.loc 1 157 0
 167 001a 0E46     		mov	r6, r1
 168 001c 9146     		mov	r9, r2
 169 001e 9A46     		mov	sl, r3
 170              		.loc 1 161 0
 171 0020 FFF7FEFF 		bl	memp_malloc
ARM GAS  /tmp/ccuCtRWT.s 			page 4


 172              	.LVL14:
 173              		.loc 1 159 0
 174 0024 FFB2     		uxtb	r7, r7
 175 0026 002F     		cmp	r7, #0
 176 0028 14BF     		ite	ne
 177 002a 0C27     		movne	r7, #12
 178 002c 0027     		moveq	r7, #0
 179 002e 3F19     		adds	r7, r7, r4
 180              	.LVL15:
 181              		.loc 1 161 0
 182 0030 0446     		mov	r4, r0
 183 0032 0028     		cmp	r0, #0
 184 0034 3BD0     		beq	.L29
 185              		.loc 1 166 0
 186 0036 8572     		strb	r5, [r0, #10]
 187              		.loc 1 169 0
 188 0038 3389     		ldrh	r3, [r6, #8]
 189              		.loc 1 168 0
 190 003a 4660     		str	r6, [r0, #4]
 191              		.loc 1 169 0
 192 003c DB1B     		subs	r3, r3, r7
 193              		.loc 1 167 0
 194 003e 4FF0000B 		mov	fp, #0
 195 0042 C0F800B0 		str	fp, [r0, #0]
 196              		.loc 1 169 0
 197 0046 0381     		strh	r3, [r0, #8]	@ movhi
 198              		.loc 1 182 0
 199 0048 1421     		movs	r1, #20
 200 004a 3046     		mov	r0, r6
 201              	.LVL16:
 202 004c FFF7FEFF 		bl	pbuf_header
 203              	.LVL17:
 204 0050 0546     		mov	r5, r0
 205 0052 08BB     		cbnz	r0, .L30
 206              		.loc 1 188 0
 207 0054 6368     		ldr	r3, [r4, #4]
 208              		.loc 1 189 0
 209 0056 B8F81C00 		ldrh	r0, [r8, #28]
 210              		.loc 1 188 0
 211 005a 5E68     		ldr	r6, [r3, #4]
 212              	.LVL18:
 213 005c E660     		str	r6, [r4, #12]
 214              		.loc 1 189 0
 215 005e FFF7FEFF 		bl	lwip_htons
 216              	.LVL19:
 217 0062 3080     		strh	r0, [r6, #0]	@ unaligned
 218              		.loc 1 190 0
 219 0064 B8F81E00 		ldrh	r0, [r8, #30]
 220 0068 E668     		ldr	r6, [r4, #12]
 221 006a FFF7FEFF 		bl	lwip_htons
 222              	.LVL20:
 223 006e 7080     		strh	r0, [r6, #2]	@ unaligned
 224              		.loc 1 191 0
 225 0070 5046     		mov	r0, sl
 226 0072 E668     		ldr	r6, [r4, #12]
 227 0074 FFF7FEFF 		bl	lwip_htonl
 228              	.LVL21:
ARM GAS  /tmp/ccuCtRWT.s 			page 5


 229              		.loc 1 193 0
 230 0078 BF02     		lsls	r7, r7, #10
 231              	.LVL22:
 232 007a 07F5A047 		add	r7, r7, #20480
 233              		.loc 1 191 0
 234 007e 7060     		str	r0, [r6, #4]	@ unaligned
 235              		.loc 1 193 0
 236 0080 47EA0900 		orr	r0, r7, r9
 237 0084 E668     		ldr	r6, [r4, #12]
 238 0086 FFF7FEFF 		bl	lwip_htons
 239              	.LVL23:
 240 008a B081     		strh	r0, [r6, #12]	@ unaligned
 241              		.loc 1 195 0
 242 008c E368     		ldr	r3, [r4, #12]
 243 008e 9D74     		strb	r5, [r3, #18]
 244 0090 DD74     		strb	r5, [r3, #19]
 245              	.LVL24:
 246              	.L25:
 247              		.loc 1 197 0
 248 0092 2046     		mov	r0, r4
 249 0094 BDE8F88F 		pop	{r3, r4, r5, r6, r7, r8, r9, sl, fp, pc}
 250              	.LVL25:
 251              	.L30:
 252              		.loc 1 184 0
 253 0098 074B     		ldr	r3, .L31
 254 009a B3F8A420 		ldrh	r2, [r3, #164]
 255              		.loc 1 185 0
 256 009e 2046     		mov	r0, r4
 257              		.loc 1 184 0
 258 00a0 0132     		adds	r2, r2, #1
 259 00a2 A3F8A420 		strh	r2, [r3, #164]	@ movhi
 260              		.loc 1 186 0
 261 00a6 5C46     		mov	r4, fp
 262              	.LVL26:
 263              		.loc 1 185 0
 264 00a8 FFF7FEFF 		bl	tcp_seg_free
 265              	.LVL27:
 266              		.loc 1 186 0
 267 00ac F1E7     		b	.L25
 268              	.LVL28:
 269              	.L29:
 270              		.loc 1 163 0
 271 00ae 3046     		mov	r0, r6
 272              	.LVL29:
 273 00b0 FFF7FEFF 		bl	pbuf_free
 274              	.LVL30:
 275              		.loc 1 164 0
 276 00b4 EDE7     		b	.L25
 277              	.L32:
 278 00b6 00BF     		.align	2
 279              	.L31:
 280 00b8 00000000 		.word	lwip_stats
 281              		.cfi_endproc
 282              	.LFE9:
 283              		.size	tcp_create_segment, .-tcp_create_segment
 284 00bc AFF30080 		.section	.text.tcp_output_alloc_header.constprop.0,"ax",%progbits
 285              		.align	2
ARM GAS  /tmp/ccuCtRWT.s 			page 6


 286              		.p2align 4,,15
 287              		.thumb
 288              		.thumb_func
 289              		.type	tcp_output_alloc_header.constprop.0, %function
 290              	tcp_output_alloc_header.constprop.0:
 291              	.LFB23:
 292              		.loc 1 92 0
 293              		.cfi_startproc
 294              		@ args = 0, pretend = 0, frame = 0
 295              		@ frame_needed = 0, uses_anonymous_args = 0
 296              	.LVL31:
 297              		.loc 1 96 0
 298 0000 1431     		adds	r1, r1, #20
 299              	.LVL32:
 300              		.loc 1 92 0
 301 0002 F8B5     		push	{r3, r4, r5, r6, r7, lr}
 302              	.LCFI2:
 303              		.cfi_def_cfa_offset 24
 304              		.cfi_offset 3, -24
 305              		.cfi_offset 4, -20
 306              		.cfi_offset 5, -16
 307              		.cfi_offset 6, -12
 308              		.cfi_offset 7, -8
 309              		.cfi_offset 14, -4
 310              		.loc 1 96 0
 311 0004 89B2     		uxth	r1, r1
 312              		.loc 1 92 0
 313 0006 0546     		mov	r5, r0
 314 0008 1746     		mov	r7, r2
 315              		.loc 1 96 0
 316 000a 0120     		movs	r0, #1
 317              	.LVL33:
 318 000c 0022     		movs	r2, #0
 319              	.LVL34:
 320 000e FFF7FEFF 		bl	pbuf_alloc
 321              	.LVL35:
 322              		.loc 1 97 0
 323 0012 0646     		mov	r6, r0
 324 0014 10B3     		cbz	r0, .L34
 325              		.loc 1 98 0
 326 0016 4389     		ldrh	r3, [r0, #10]
 327 0018 132B     		cmp	r3, #19
 328 001a 21DD     		ble	.L39
 329              	.LVL36:
 330              	.L35:
 331              		.loc 1 101 0
 332 001c A88B     		ldrh	r0, [r5, #28]
 333              		.loc 1 100 0
 334 001e 7468     		ldr	r4, [r6, #4]
 335              	.LVL37:
 336              		.loc 1 101 0
 337 0020 FFF7FEFF 		bl	lwip_htons
 338              	.LVL38:
 339 0024 2080     		strh	r0, [r4, #0]	@ unaligned
 340              		.loc 1 102 0
 341 0026 E88B     		ldrh	r0, [r5, #30]
 342 0028 FFF7FEFF 		bl	lwip_htons
ARM GAS  /tmp/ccuCtRWT.s 			page 7


 343              	.LVL39:
 344              		.loc 1 103 0
 345 002c 6760     		str	r7, [r4, #4]	@ unaligned
 346              		.loc 1 102 0
 347 002e 6080     		strh	r0, [r4, #2]	@ unaligned
 348              		.loc 1 104 0
 349 0030 686A     		ldr	r0, [r5, #36]
 350 0032 FFF7FEFF 		bl	lwip_htonl
 351              	.LVL40:
 352 0036 A060     		str	r0, [r4, #8]	@ unaligned
 353              		.loc 1 105 0
 354 0038 45F21000 		movw	r0, #20496
 355 003c FFF7FEFF 		bl	lwip_htons
 356              	.LVL41:
 357 0040 A081     		strh	r0, [r4, #12]	@ unaligned
 358              		.loc 1 106 0
 359 0042 688D     		ldrh	r0, [r5, #42]
 360 0044 FFF7FEFF 		bl	lwip_htons
 361              	.LVL42:
 362              		.loc 1 107 0
 363 0048 0023     		movs	r3, #0
 364              		.loc 1 106 0
 365 004a E081     		strh	r0, [r4, #14]	@ unaligned
 366              		.loc 1 107 0
 367 004c 2374     		strb	r3, [r4, #16]
 368 004e 6374     		strb	r3, [r4, #17]
 369              		.loc 1 108 0
 370 0050 A374     		strb	r3, [r4, #18]
 371 0052 E374     		strb	r3, [r4, #19]
 372              		.loc 1 111 0
 373 0054 6A8D     		ldrh	r2, [r5, #42]
 374 0056 6B6A     		ldr	r3, [r5, #36]
 375 0058 D318     		adds	r3, r2, r3
 376 005a EB62     		str	r3, [r5, #44]
 377              	.LVL43:
 378              	.L34:
 379              		.loc 1 114 0
 380 005c 3046     		mov	r0, r6
 381 005e F8BD     		pop	{r3, r4, r5, r6, r7, pc}
 382              	.LVL44:
 383              	.L39:
 384              		.loc 1 98 0
 385 0060 FFF7FEFF 		bl	port_halt
 386              	.LVL45:
 387 0064 DAE7     		b	.L35
 388              		.cfi_endproc
 389              	.LFE23:
 390              		.size	tcp_output_alloc_header.constprop.0, .-tcp_output_alloc_header.constprop.0
 391 0066 00BFAFF3 		.section	.text.tcp_write,"ax",%progbits
 391      0080AFF3 
 391      0080
 392              		.align	2
 393              		.p2align 4,,15
 394              		.global	tcp_write
 395              		.thumb
 396              		.thumb_func
 397              		.type	tcp_write, %function
ARM GAS  /tmp/ccuCtRWT.s 			page 8


 398              	tcp_write:
 399              	.LFB12:
 400              		.loc 1 352 0
 401              		.cfi_startproc
 402              		@ args = 0, pretend = 0, frame = 40
 403              		@ frame_needed = 0, uses_anonymous_args = 0
 404              	.LVL46:
 405 0000 2DE9F04F 		push	{r4, r5, r6, r7, r8, r9, sl, fp, lr}
 406              	.LCFI3:
 407              		.cfi_def_cfa_offset 36
 408              		.cfi_offset 4, -36
 409              		.cfi_offset 5, -32
 410              		.cfi_offset 6, -28
 411              		.cfi_offset 7, -24
 412              		.cfi_offset 8, -20
 413              		.cfi_offset 9, -16
 414              		.cfi_offset 10, -12
 415              		.cfi_offset 11, -8
 416              		.cfi_offset 14, -4
 417 0004 8FB0     		sub	sp, sp, #60
 418              	.LCFI4:
 419              		.cfi_def_cfa_offset 96
 420              		.loc 1 352 0
 421 0006 0546     		mov	r5, r0
 422 0008 0893     		str	r3, [sp, #32]
 423              		.loc 1 360 0
 424 000a 0023     		movs	r3, #0
 425              	.LVL47:
 426              		.loc 1 377 0
 427 000c 0691     		str	r1, [sp, #24]
 428              		.loc 1 352 0
 429 000e 9146     		mov	r9, r2
 430              		.loc 1 360 0
 431 0010 ADF83630 		strh	r3, [sp, #54]	@ movhi
 432              	.LVL48:
 433              		.loc 1 377 0
 434 0014 0029     		cmp	r1, #0
 435 0016 00F02982 		beq	.L154
 436              	.LVL49:
 437              	.LBB9:
 438              	.LBB10:
 439              		.loc 1 294 0
 440 001a 037C     		ldrb	r3, [r0, #16]	@ zero_extendqisi2
 441 001c 072B     		cmp	r3, #7
 442 001e 18BF     		it	ne
 443 0020 042B     		cmpne	r3, #4
 444 0022 40F0CB80 		bne	.L155
 445              	.L43:
 446              		.loc 1 300 0
 447 0026 B9F1000F 		cmp	r9, #0
 448 002a 00F07881 		beq	.L45
 449              		.loc 1 305 0
 450 002e B5F86E30 		ldrh	r3, [r5, #110]
 451 0032 4B45     		cmp	r3, r9
 452 0034 C0F0C981 		bcc	.L153
 453              		.loc 1 317 0
 454 0038 B5F87030 		ldrh	r3, [r5, #112]
ARM GAS  /tmp/ccuCtRWT.s 			page 9


 455 003c 012B     		cmp	r3, #1
 456 003e 00F2BE81 		bhi	.L156
 457              		.loc 1 324 0
 458 0042 002B     		cmp	r3, #0
 459 0044 00F0C280 		beq	.L48
 460              		.loc 1 325 0
 461 0048 AB6F     		ldr	r3, [r5, #120]
 462 004a 4FF00108 		mov	r8, #1
 463 004e 002B     		cmp	r3, #0
 464 0050 00F0A881 		beq	.L157
 465              	.L49:
 466              	.LVL50:
 467              	.LBE10:
 468              	.LBE9:
 469              		.loc 1 417 0
 470 0054 D5F874B0 		ldr	fp, [r5, #116]
 471 0058 BBF1000F 		cmp	fp, #0
 472 005c 01D1     		bne	.L131
 473 005e C3E0     		b	.L52
 474              	.LVL51:
 475              	.L89:
 476              	.LBB14:
 477              		.loc 1 423 0
 478 0060 9B46     		mov	fp, r3
 479              	.LVL52:
 480              	.L131:
 481              		.loc 1 422 0 discriminator 1
 482 0062 DBF80030 		ldr	r3, [fp, #0]
 483 0066 002B     		cmp	r3, #0
 484 0068 FAD1     		bne	.L89
 485              		.loc 1 426 0
 486 006a 9BF80A20 		ldrb	r2, [fp, #10]	@ zero_extendqisi2
 487 006e B5F838A0 		ldrh	sl, [r5, #56]
 488 0072 BBF80800 		ldrh	r0, [fp, #8]
 489              		.loc 1 442 0
 490 0076 B5F87230 		ldrh	r3, [r5, #114]
 491              		.loc 1 426 0
 492 007a 12F0010F 		tst	r2, #1
 493 007e 02F00202 		and	r2, r2, #2
 494 0082 0CBF     		ite	eq
 495 0084 0021     		moveq	r1, #0
 496 0086 0421     		movne	r1, #4
 497 0088 D2B2     		uxtb	r2, r2
 498 008a C0EB0A0A 		rsb	sl, r0, sl
 499 008e 002A     		cmp	r2, #0
 500 0090 14BF     		ite	ne
 501 0092 0C22     		movne	r2, #12
 502 0094 0022     		moveq	r2, #0
 503              	.LVL53:
 504              		.loc 1 427 0
 505 0096 C1EB0A0A 		rsb	sl, r1, sl
 506 009a C2EB0A0A 		rsb	sl, r2, sl
 507 009e 1FFA8AFA 		uxth	sl, sl
 508              	.LVL54:
 509              		.loc 1 443 0
 510 00a2 002B     		cmp	r3, #0
 511 00a4 40F04381 		bne	.L56
ARM GAS  /tmp/ccuCtRWT.s 			page 10


 512              		.loc 1 355 0
 513 00a8 1C46     		mov	r4, r3
 514              		.loc 1 442 0
 515 00aa ADF83630 		strh	r3, [sp, #54]	@ movhi
 516              		.loc 1 354 0
 517 00ae 1E46     		mov	r6, r3
 518              	.LVL55:
 519              	.L57:
 520              		.loc 1 462 0
 521 00b0 BAF1000F 		cmp	sl, #0
 522 00b4 18BF     		it	ne
 523 00b6 4C45     		cmpne	r4, r9
 524 00b8 2CBF     		ite	cs
 525 00ba 0023     		movcs	r3, #0
 526 00bc 0123     		movcc	r3, #1
 527 00be 04D2     		bcs	.L94
 528              		.loc 1 462 0 is_stmt 0 discriminator 1
 529 00c0 BBF80830 		ldrh	r3, [fp, #8]
 530 00c4 002B     		cmp	r3, #0
 531 00c6 40F04981 		bne	.L158
 532              	.L94:
 533              		.loc 1 462 0
 534 00ca 0A94     		str	r4, [sp, #40]
 535              		.loc 1 353 0 is_stmt 1
 536 00cc 0993     		str	r3, [sp, #36]
 537              	.LVL56:
 538              	.L58:
 539              	.LBE14:
 540              		.loc 1 517 0 discriminator 1
 541 00ce 0023     		movs	r3, #0
 542 00d0 A145     		cmp	r9, r4
 543 00d2 0593     		str	r3, [sp, #20]
 544 00d4 40F29F80 		bls	.L62
 545 00d8 0899     		ldr	r1, [sp, #32]
 546              	.LBB17:
 547              		.loc 1 530 0
 548 00da CDF82CB0 		str	fp, [sp, #44]
 549 00de 01F00101 		and	r1, r1, #1
 550 00e2 0791     		str	r1, [sp, #28]
 551              	.LBE17:
 552              		.loc 1 517 0
 553 00e4 9A46     		mov	sl, r3
 554 00e6 41E0     		b	.L73
 555              	.LVL57:
 556              	.L63:
 557              	.LBB21:
 558              	.LBB18:
 559              		.loc 1 545 0
 560 00e8 BDF83630 		ldrh	r3, [sp, #54]
 561              	.LVL58:
 562 00ec 002B     		cmp	r3, #0
 563 00ee 40F08680 		bne	.L159
 564              	.LVL59:
 565              	.L67:
 566              		.loc 1 547 0
 567 00f2 0020     		movs	r0, #0
 568 00f4 3946     		mov	r1, r7
ARM GAS  /tmp/ccuCtRWT.s 			page 11


 569 00f6 0122     		movs	r2, #1
 570 00f8 FFF7FEFF 		bl	pbuf_alloc
 571              	.LVL60:
 572 00fc 8346     		mov	fp, r0
 573 00fe 0028     		cmp	r0, #0
 574 0100 00F0E980 		beq	.L69
 575              		.loc 1 556 0
 576 0104 069B     		ldr	r3, [sp, #24]
 577              		.loc 1 559 0
 578 0106 0020     		movs	r0, #0
 579              	.LVL61:
 580              		.loc 1 556 0
 581 0108 1A19     		adds	r2, r3, r4
 582 010a CBF80420 		str	r2, [fp, #4]
 583              		.loc 1 559 0
 584 010e 0146     		mov	r1, r0
 585 0110 0246     		mov	r2, r0
 586 0112 FFF7FEFF 		bl	pbuf_alloc
 587              	.LVL62:
 588 0116 0646     		mov	r6, r0
 589 0118 0028     		cmp	r0, #0
 590 011a 00F0D980 		beq	.L160
 591              		.loc 1 567 0
 592 011e 5946     		mov	r1, fp
 593 0120 FFF7FEFF 		bl	pbuf_cat
 594              	.LVL63:
 595              	.L66:
 596              	.LBE18:
 597              		.loc 1 570 0
 598 0124 3046     		mov	r0, r6
 599 0126 FFF7FEFF 		bl	pbuf_clen
 600              	.LVL64:
 601 012a 4044     		add	r0, r8, r0
 602 012c 1FFA80F8 		uxth	r8, r0
 603              	.LVL65:
 604              		.loc 1 575 0
 605 0130 B8F1020F 		cmp	r8, #2
 606 0134 00F23F81 		bhi	.L161
 607              		.loc 1 581 0
 608 0138 AB6E     		ldr	r3, [r5, #104]
 609 013a 0021     		movs	r1, #0
 610 013c 0091     		str	r1, [sp, #0]
 611 013e 2846     		mov	r0, r5
 612              	.LVL66:
 613 0140 3146     		mov	r1, r6
 614 0142 0022     		movs	r2, #0
 615 0144 E318     		adds	r3, r4, r3
 616 0146 FFF7FEFF 		bl	tcp_create_segment
 617              	.LVL67:
 618 014a 0028     		cmp	r0, #0
 619 014c 00F0C380 		beq	.L69
 620              		.loc 1 594 0
 621 0150 059A     		ldr	r2, [sp, #20]
 622 0152 002A     		cmp	r2, #0
 623 0154 56D0     		beq	.L97
 624              		.loc 1 598 0
 625 0156 BAF1000F 		cmp	sl, #0
ARM GAS  /tmp/ccuCtRWT.s 			page 12


 626 015a 00F0E380 		beq	.L162
 627              	.LVL68:
 628              	.L72:
 629              		.loc 1 608 0
 630 015e 3C19     		adds	r4, r7, r4
 631              	.LVL69:
 632 0160 A4B2     		uxth	r4, r4
 633              	.LBE21:
 634              		.loc 1 517 0
 635 0162 A145     		cmp	r9, r4
 636              	.LBB22:
 637              		.loc 1 599 0
 638 0164 CAF80000 		str	r0, [sl, #0]
 639              	.LVL70:
 640 0168 8246     		mov	sl, r0
 641              	.LBE22:
 642              		.loc 1 517 0
 643 016a 51D9     		bls	.L163
 644              	.LVL71:
 645              	.L73:
 646              	.LBB23:
 647              		.loc 1 520 0
 648 016c 2A8F     		ldrh	r2, [r5, #56]
 649              	.LVL72:
 650              		.loc 1 527 0
 651 016e 079B     		ldr	r3, [sp, #28]
 652              		.loc 1 519 0
 653 0170 C4EB0907 		rsb	r7, r4, r9
 654              		.loc 1 521 0
 655 0174 BFB2     		uxth	r7, r7
 656 0176 9742     		cmp	r7, r2
 657 0178 28BF     		it	cs
 658 017a 1746     		movcs	r7, r2
 659              	.LVL73:
 660              		.loc 1 527 0
 661 017c 002B     		cmp	r3, #0
 662 017e B3D0     		beq	.L63
 663              		.loc 1 530 0
 664 0180 0599     		ldr	r1, [sp, #20]
 665 0182 0095     		str	r5, [sp, #0]
 666 0184 D1F10103 		rsbs	r3, r1, #1
 667 0188 0899     		ldr	r1, [sp, #32]
 668 018a 38BF     		it	cc
 669 018c 0023     		movcc	r3, #0
 670 018e 0191     		str	r1, [sp, #4]
 671 0190 0293     		str	r3, [sp, #8]
 672 0192 0020     		movs	r0, #0
 673 0194 3946     		mov	r1, r7
 674 0196 0DF13603 		add	r3, sp, #54
 675 019a FFF7FEFF 		bl	tcp_pbuf_prealloc
 676              	.LVL74:
 677 019e 0646     		mov	r6, r0
 678 01a0 0028     		cmp	r0, #0
 679 01a2 00F09880 		beq	.L69
 680              		.loc 1 534 0
 681 01a6 4389     		ldrh	r3, [r0, #10]
 682 01a8 BB42     		cmp	r3, r7
ARM GAS  /tmp/ccuCtRWT.s 			page 13


 683 01aa C0F08E80 		bcc	.L164
 684              	.LVL75:
 685              	.L65:
 686              		.loc 1 536 0
 687 01ae 069A     		ldr	r2, [sp, #24]
 688 01b0 7068     		ldr	r0, [r6, #4]
 689 01b2 1119     		adds	r1, r2, r4
 690 01b4 3A46     		mov	r2, r7
 691 01b6 FFF7FEFF 		bl	memcpy
 692              	.LVL76:
 693 01ba B3E7     		b	.L66
 694              	.LVL77:
 695              	.L155:
 696              	.LBE23:
 697              	.LBB24:
 698              	.LBB11:
 699              		.loc 1 295 0
 700 01bc 022B     		cmp	r3, #2
 701 01be 3FF432AF 		beq	.L43
 702              		.loc 1 296 0
 703 01c2 032B     		cmp	r3, #3
 704 01c4 3FF42FAF 		beq	.L43
 705              		.loc 1 299 0
 706 01c8 F320     		movs	r0, #243
 707              	.LVL78:
 708 01ca A4E0     		b	.L42
 709              	.LVL79:
 710              	.L48:
 711              		.loc 1 328 0
 712 01cc AB6F     		ldr	r3, [r5, #120]
 713 01ce 002B     		cmp	r3, #0
 714 01d0 00F0E280 		beq	.L165
 715              	.L51:
 716 01d4 FFF7FEFF 		bl	port_halt
 717              	.LVL80:
 718              	.LBE11:
 719              	.LBE24:
 720              		.loc 1 417 0
 721 01d8 D5F874B0 		ldr	fp, [r5, #116]
 722 01dc B5F87080 		ldrh	r8, [r5, #112]
 723              	.LVL81:
 724 01e0 BBF1000F 		cmp	fp, #0
 725 01e4 7FF43DAF 		bne	.L131
 726              	.LVL82:
 727              	.L52:
 728              		.loc 1 506 0
 729 01e8 B5F87230 		ldrh	r3, [r5, #114]
 730 01ec 002B     		cmp	r3, #0
 731 01ee 40F02A81 		bne	.L166
 732              		.loc 1 361 0
 733 01f2 0A93     		str	r3, [sp, #40]
 734              		.loc 1 355 0
 735 01f4 1C46     		mov	r4, r3
 736              		.loc 1 354 0
 737 01f6 1E46     		mov	r6, r3
 738 01f8 9B46     		mov	fp, r3
 739              		.loc 1 353 0
ARM GAS  /tmp/ccuCtRWT.s 			page 14


 740 01fa 0993     		str	r3, [sp, #36]
 741 01fc 67E7     		b	.L58
 742              	.LVL83:
 743              	.L159:
 744              	.LBB25:
 745              	.LBB19:
 746              		.loc 1 545 0 discriminator 1
 747 01fe FFF7FEFF 		bl	port_halt
 748              	.LVL84:
 749 0202 76E7     		b	.L67
 750              	.LVL85:
 751              	.L97:
 752              	.LBE19:
 753              		.loc 1 608 0
 754 0204 3C19     		adds	r4, r7, r4
 755              	.LVL86:
 756 0206 A4B2     		uxth	r4, r4
 757              	.LBE25:
 758              		.loc 1 517 0
 759 0208 A145     		cmp	r9, r4
 760              	.LBB26:
 761              		.loc 1 594 0
 762 020a 0590     		str	r0, [sp, #20]
 763              	.LVL87:
 764 020c 8246     		mov	sl, r0
 765              	.LBE26:
 766              		.loc 1 517 0
 767 020e ADD8     		bhi	.L73
 768              	.LVL88:
 769              	.L163:
 770 0210 DDF82CB0 		ldr	fp, [sp, #44]
 771 0214 0646     		mov	r6, r0
 772              	.LVL89:
 773              	.L62:
 774              		.loc 1 621 0
 775 0216 0A99     		ldr	r1, [sp, #40]
 776 0218 F1B1     		cbz	r1, .L74
 777              	.LBB27:
 778              		.loc 1 624 0
 779 021a DBF80440 		ldr	r4, [fp, #4]
 780              	.LVL90:
 781 021e ACB1     		cbz	r4, .L75
 782 0220 0A9F     		ldr	r7, [sp, #40]
 783 0222 00E0     		b	.L145
 784              	.LVL91:
 785              	.L77:
 786              	.LBE27:
 787              		.loc 1 517 0
 788 0224 1C46     		mov	r4, r3
 789              	.L145:
 790              	.LBB28:
 791              		.loc 1 625 0
 792 0226 2189     		ldrh	r1, [r4, #8]
 793              		.loc 1 626 0
 794 0228 2368     		ldr	r3, [r4, #0]
 795              		.loc 1 625 0
 796 022a 7918     		adds	r1, r7, r1
ARM GAS  /tmp/ccuCtRWT.s 			page 15


 797 022c 2181     		strh	r1, [r4, #8]	@ movhi
 798              		.loc 1 626 0
 799 022e 002B     		cmp	r3, #0
 800 0230 F8D1     		bne	.L77
 801              		.loc 1 627 0
 802 0232 6368     		ldr	r3, [r4, #4]
 803 0234 6089     		ldrh	r0, [r4, #10]
 804 0236 0699     		ldr	r1, [sp, #24]
 805 0238 1818     		adds	r0, r3, r0
 806 023a 3A46     		mov	r2, r7
 807 023c FFF7FEFF 		bl	memcpy
 808              	.LVL92:
 809              		.loc 1 628 0
 810 0240 6289     		ldrh	r2, [r4, #10]
 811              		.loc 1 624 0
 812 0242 2368     		ldr	r3, [r4, #0]
 813              	.LVL93:
 814              		.loc 1 628 0
 815 0244 BA18     		adds	r2, r7, r2
 816 0246 6281     		strh	r2, [r4, #10]	@ movhi
 817              		.loc 1 624 0
 818 0248 002B     		cmp	r3, #0
 819 024a EBD1     		bne	.L77
 820              	.LVL94:
 821              	.L75:
 822              		.loc 1 631 0
 823 024c BBF80830 		ldrh	r3, [fp, #8]
 824 0250 0A9A     		ldr	r2, [sp, #40]
 825 0252 D318     		adds	r3, r2, r3
 826 0254 ABF80830 		strh	r3, [fp, #8]	@ movhi
 827              	.L74:
 828              	.LBE28:
 829              		.loc 1 636 0
 830 0258 BDF83630 		ldrh	r3, [sp, #54]
 831 025c A5F87230 		strh	r3, [r5, #114]	@ movhi
 832              		.loc 1 642 0
 833 0260 099B     		ldr	r3, [sp, #36]
 834 0262 002B     		cmp	r3, #0
 835 0264 00F0F880 		beq	.L78
 836              		.loc 1 643 0
 837 0268 BBF1000F 		cmp	fp, #0
 838 026c 00F0FB80 		beq	.L167
 839              	.L79:
 840              		.loc 1 645 0
 841 0270 0999     		ldr	r1, [sp, #36]
 842 0272 DBF80400 		ldr	r0, [fp, #4]
 843 0276 FFF7FEFF 		bl	pbuf_cat
 844              	.LVL95:
 845              		.loc 1 646 0
 846 027a 0999     		ldr	r1, [sp, #36]
 847 027c BBF80830 		ldrh	r3, [fp, #8]
 848 0280 0A89     		ldrh	r2, [r1, #8]
 849 0282 D318     		adds	r3, r2, r3
 850 0284 ABF80830 		strh	r3, [fp, #8]	@ movhi
 851              	.L80:
 852              		.loc 1 663 0
 853 0288 059B     		ldr	r3, [sp, #20]
ARM GAS  /tmp/ccuCtRWT.s 			page 16


 854 028a CBF80030 		str	r3, [fp, #0]
 855              	.L81:
 856              		.loc 1 669 0
 857 028e AB6E     		ldr	r3, [r5, #104]
 858              		.loc 1 670 0
 859 0290 B5F86E20 		ldrh	r2, [r5, #110]
 860              		.loc 1 671 0
 861 0294 A5F87080 		strh	r8, [r5, #112]	@ movhi
 862              		.loc 1 669 0
 863 0298 4B44     		add	r3, r3, r9
 864              		.loc 1 670 0
 865 029a C9EB0209 		rsb	r9, r9, r2
 866              	.LVL96:
 867              		.loc 1 669 0
 868 029e AB66     		str	r3, [r5, #104]
 869              		.loc 1 670 0
 870 02a0 A5F86E90 		strh	r9, [r5, #110]	@ movhi
 871              		.loc 1 675 0
 872 02a4 B8F1000F 		cmp	r8, #0
 873 02a8 03D0     		beq	.L82
 874              		.loc 1 676 0
 875 02aa AB6F     		ldr	r3, [r5, #120]
 876 02ac 002B     		cmp	r3, #0
 877 02ae 00F0C380 		beq	.L168
 878              	.L82:
 879              		.loc 1 681 0
 880 02b2 46B1     		cbz	r6, .L100
 881              		.loc 1 681 0 is_stmt 0 discriminator 1
 882 02b4 F468     		ldr	r4, [r6, #12]
 883 02b6 34B1     		cbz	r4, .L100
 884 02b8 0899     		ldr	r1, [sp, #32]
 885 02ba 01F00206 		and	r6, r1, #2
 886              	.LVL97:
 887 02be F6B2     		uxtb	r6, r6
 888 02c0 002E     		cmp	r6, #0
 889 02c2 00F0A080 		beq	.L169
 890              	.L100:
 891              		.loc 1 685 0 is_stmt 1
 892 02c6 0020     		movs	r0, #0
 893 02c8 25E0     		b	.L42
 894              	.LVL98:
 895              	.L164:
 896              	.LBB29:
 897              		.loc 1 534 0 discriminator 1
 898 02ca FFF7FEFF 		bl	port_halt
 899              	.LVL99:
 900 02ce 6EE7     		b	.L65
 901              	.LVL100:
 902              	.L160:
 903              	.LBB20:
 904              		.loc 1 562 0
 905 02d0 5846     		mov	r0, fp
 906              	.LVL101:
 907 02d2 FFF7FEFF 		bl	pbuf_free
 908              	.LVL102:
 909              	.L69:
 910              	.LBE20:
ARM GAS  /tmp/ccuCtRWT.s 			page 17


 911              	.LBE29:
 912              		.loc 1 687 0
 913 02d6 95F82020 		ldrb	r2, [r5, #32]	@ zero_extendqisi2
 914              		.loc 1 688 0
 915 02da 664B     		ldr	r3, .L171
 916              		.loc 1 687 0
 917 02dc 62F07F02 		orn	r2, r2, #127
 918 02e0 85F82020 		strb	r2, [r5, #32]
 919              		.loc 1 688 0
 920 02e4 B3F89C20 		ldrh	r2, [r3, #156]
 921 02e8 0132     		adds	r2, r2, #1
 922 02ea A3F89C20 		strh	r2, [r3, #156]	@ movhi
 923              		.loc 1 690 0
 924 02ee 099A     		ldr	r2, [sp, #36]
 925 02f0 12B1     		cbz	r2, .L83
 926              		.loc 1 691 0
 927 02f2 1046     		mov	r0, r2
 928 02f4 FFF7FEFF 		bl	pbuf_free
 929              	.LVL103:
 930              	.L83:
 931              		.loc 1 693 0
 932 02f8 059B     		ldr	r3, [sp, #20]
 933 02fa 13B1     		cbz	r3, .L84
 934              		.loc 1 694 0
 935 02fc 1846     		mov	r0, r3
 936 02fe FFF7FEFF 		bl	tcp_segs_free
 937              	.LVL104:
 938              	.L84:
 939              		.loc 1 696 0
 940 0302 B5F87030 		ldrh	r3, [r5, #112]
 941 0306 2BB1     		cbz	r3, .L103
 942              		.loc 1 697 0
 943 0308 AB6F     		ldr	r3, [r5, #120]
 944 030a 1BB9     		cbnz	r3, .L103
 945              		.loc 1 697 0 is_stmt 0 discriminator 1
 946 030c 6B6F     		ldr	r3, [r5, #116]
 947 030e 002B     		cmp	r3, #0
 948 0310 00F08180 		beq	.L170
 949              	.L103:
 950              		.loc 1 701 0 is_stmt 1
 951 0314 FF20     		movs	r0, #255
 952              	.LVL105:
 953              	.L42:
 954 0316 40B2     		sxtb	r0, r0
 955              		.loc 1 702 0
 956 0318 0FB0     		add	sp, sp, #60
 957 031a BDE8F08F 		pop	{r4, r5, r6, r7, r8, r9, sl, fp, pc}
 958              	.LVL106:
 959              	.L45:
 960 031e B5F87080 		ldrh	r8, [r5, #112]
 961 0322 97E6     		b	.L49
 962              	.LVL107:
 963              	.L162:
 964              	.LBB30:
 965              		.loc 1 598 0 discriminator 1
 966 0324 0490     		str	r0, [sp, #16]
 967 0326 FFF7FEFF 		bl	port_halt
ARM GAS  /tmp/ccuCtRWT.s 			page 18


 968              	.LVL108:
 969 032a 0498     		ldr	r0, [sp, #16]
 970 032c 17E7     		b	.L72
 971              	.LVL109:
 972              	.L56:
 973              	.LBE30:
 974              	.LBB31:
 975              		.loc 1 446 0
 976 032e 9945     		cmp	r9, r3
 977 0330 34BF     		ite	cc
 978 0332 4C46     		movcc	r4, r9
 979 0334 1C46     		movcs	r4, r3
 980              	.LVL110:
 981              		.loc 1 448 0
 982 0336 1B1B     		subs	r3, r3, r4
 983 0338 9BB2     		uxth	r3, r3
 984              	.LVL111:
 985              		.loc 1 449 0
 986 033a C4EB0A0A 		rsb	sl, r4, sl
 987              	.LVL112:
 988              		.loc 1 452 0
 989 033e 002B     		cmp	r3, #0
 990 0340 18BF     		it	ne
 991 0342 A145     		cmpne	r9, r4
 992              	.LVL113:
 993              		.loc 1 448 0
 994 0344 ADF83630 		strh	r3, [sp, #54]	@ movhi
 995              		.loc 1 449 0
 996 0348 1FFA8AFA 		uxth	sl, sl
 997              	.LVL114:
 998              		.loc 1 452 0
 999 034c 08BF     		it	eq
 1000 034e 5E46     		moveq	r6, fp
 1001 0350 3FF4AEAE 		beq	.L57
 1002              		.loc 1 452 0 is_stmt 0 discriminator 1
 1003 0354 FFF7FEFF 		bl	port_halt
 1004              	.LVL115:
 1005 0358 5E46     		mov	r6, fp
 1006 035a A9E6     		b	.L57
 1007              	.LVL116:
 1008              	.L158:
 1009              	.LBB15:
 1010              		.loc 1 469 0 is_stmt 1
 1011 035c 0899     		ldr	r1, [sp, #32]
 1012              		.loc 1 463 0
 1013 035e C4EB0907 		rsb	r7, r4, r9
 1014 0362 5745     		cmp	r7, sl
 1015 0364 A8BF     		it	ge
 1016 0366 5746     		movge	r7, sl
 1017              		.loc 1 469 0
 1018 0368 CB07     		lsls	r3, r1, #31
 1019              		.loc 1 463 0
 1020 036a BEB2     		uxth	r6, r7
 1021              	.LVL117:
 1022              		.loc 1 469 0
 1023 036c 35D5     		bpl	.L59
 1024              		.loc 1 471 0
ARM GAS  /tmp/ccuCtRWT.s 			page 19


 1025 036e 0123     		movs	r3, #1
 1026 0370 0191     		str	r1, [sp, #4]
 1027 0372 0293     		str	r3, [sp, #8]
 1028 0374 0095     		str	r5, [sp, #0]
 1029 0376 0320     		movs	r0, #3
 1030 0378 3146     		mov	r1, r6
 1031 037a 5246     		mov	r2, sl
 1032 037c 0DF13603 		add	r3, sp, #54
 1033 0380 FFF7FEFF 		bl	tcp_pbuf_prealloc
 1034              	.LVL118:
 1035 0384 0990     		str	r0, [sp, #36]
 1036 0386 0028     		cmp	r0, #0
 1037 0388 49D0     		beq	.L60
 1038              		.loc 1 480 0
 1039 038a 069A     		ldr	r2, [sp, #24]
 1040 038c 4068     		ldr	r0, [r0, #4]
 1041              	.LVL119:
 1042 038e 1119     		adds	r1, r2, r4
 1043 0390 3246     		mov	r2, r6
 1044 0392 FFF7FEFF 		bl	memcpy
 1045              	.LVL120:
 1046 0396 2AE0     		b	.L61
 1047              	.LVL121:
 1048              	.L165:
 1049              	.LBE15:
 1050              	.LBE31:
 1051              	.LBB32:
 1052              	.LBB12:
 1053              		.loc 1 328 0
 1054 0398 6B6F     		ldr	r3, [r5, #116]
 1055 039a 002B     		cmp	r3, #0
 1056 039c 7FF41AAF 		bne	.L51
 1057 03a0 9846     		mov	r8, r3
 1058 03a2 21E7     		b	.L52
 1059              	.L157:
 1060              		.loc 1 325 0
 1061 03a4 D5F874B0 		ldr	fp, [r5, #116]
 1062 03a8 4FF00108 		mov	r8, #1
 1063 03ac BBF1000F 		cmp	fp, #0
 1064 03b0 7FF457AE 		bne	.L131
 1065 03b4 0EE7     		b	.L51
 1066              	.LVL122:
 1067              	.L161:
 1068              	.LBE12:
 1069              	.LBE32:
 1070              	.LBB33:
 1071              		.loc 1 577 0
 1072 03b6 3046     		mov	r0, r6
 1073              	.LVL123:
 1074 03b8 FFF7FEFF 		bl	pbuf_free
 1075              	.LVL124:
 1076              		.loc 1 578 0
 1077 03bc 8BE7     		b	.L69
 1078              	.LVL125:
 1079              	.L156:
 1080              	.LBE33:
 1081              	.LBB34:
ARM GAS  /tmp/ccuCtRWT.s 			page 20


 1082              	.LBB13:
 1083              		.loc 1 320 0
 1084 03be 2D4B     		ldr	r3, .L171
 1085 03c0 B3F89C20 		ldrh	r2, [r3, #156]
 1086              	.LVL126:
 1087 03c4 0132     		adds	r2, r2, #1
 1088 03c6 A3F89C20 		strh	r2, [r3, #156]	@ movhi
 1089              	.L153:
 1090              		.loc 1 321 0
 1091 03ca 95F82030 		ldrb	r3, [r5, #32]	@ zero_extendqisi2
 1092 03ce 63F07F03 		orn	r3, r3, #127
 1093 03d2 85F82030 		strb	r3, [r5, #32]
 1094              		.loc 1 322 0
 1095 03d6 FF20     		movs	r0, #255
 1096              	.LVL127:
 1097 03d8 9DE7     		b	.L42
 1098              	.LVL128:
 1099              	.L59:
 1100              	.LBE13:
 1101              	.LBE34:
 1102              	.LBB35:
 1103              	.LBB16:
 1104              		.loc 1 486 0
 1105 03da 0320     		movs	r0, #3
 1106 03dc 3146     		mov	r1, r6
 1107 03de 0122     		movs	r2, #1
 1108 03e0 FFF7FEFF 		bl	pbuf_alloc
 1109              	.LVL129:
 1110 03e4 0990     		str	r0, [sp, #36]
 1111 03e6 D0B1     		cbz	r0, .L60
 1112              		.loc 1 498 0
 1113 03e8 0699     		ldr	r1, [sp, #24]
 1114 03ea 0B19     		adds	r3, r1, r4
 1115 03ec 4360     		str	r3, [r0, #4]
 1116              	.LVL130:
 1117              	.L61:
 1118              		.loc 1 502 0
 1119 03ee 0998     		ldr	r0, [sp, #36]
 1120 03f0 FFF7FEFF 		bl	pbuf_clen
 1121              	.LVL131:
 1122              		.loc 1 501 0
 1123 03f4 3619     		adds	r6, r6, r4
 1124 03f6 B6B2     		uxth	r6, r6
 1125              	.LVL132:
 1126              		.loc 1 502 0
 1127 03f8 4044     		add	r0, r0, r8
 1128 03fa 0A94     		str	r4, [sp, #40]
 1129 03fc 1FFA80F8 		uxth	r8, r0
 1130              	.LVL133:
 1131              		.loc 1 501 0
 1132 0400 3446     		mov	r4, r6
 1133              		.loc 1 502 0
 1134 0402 5E46     		mov	r6, fp
 1135              	.LVL134:
 1136 0404 63E6     		b	.L58
 1137              	.LVL135:
 1138              	.L169:
ARM GAS  /tmp/ccuCtRWT.s 			page 21


 1139              	.LBE16:
 1140              	.LBE35:
 1141              		.loc 1 682 0
 1142 0406 0820     		movs	r0, #8
 1143 0408 A589     		ldrh	r5, [r4, #12]	@ unaligned
 1144              	.LVL136:
 1145 040a FFF7FEFF 		bl	lwip_htons
 1146              	.LVL137:
 1147 040e 2843     		orrs	r0, r0, r5
 1148 0410 A081     		strh	r0, [r4, #12]	@ unaligned
 1149              		.loc 1 685 0
 1150 0412 3046     		mov	r0, r6
 1151 0414 7FE7     		b	.L42
 1152              	.LVL138:
 1153              	.L170:
 1154              		.loc 1 697 0 discriminator 2
 1155 0416 FFF7FEFF 		bl	port_halt
 1156              	.LVL139:
 1157              		.loc 1 701 0 discriminator 2
 1158 041a FF20     		movs	r0, #255
 1159 041c 7BE7     		b	.L42
 1160              	.LVL140:
 1161              	.L60:
 1162              		.loc 1 687 0
 1163 041e 95F82020 		ldrb	r2, [r5, #32]	@ zero_extendqisi2
 1164              		.loc 1 688 0
 1165 0422 144B     		ldr	r3, .L171
 1166              		.loc 1 687 0
 1167 0424 62F07F02 		orn	r2, r2, #127
 1168 0428 85F82020 		strb	r2, [r5, #32]
 1169              		.loc 1 688 0
 1170 042c B3F89C20 		ldrh	r2, [r3, #156]
 1171 0430 0132     		adds	r2, r2, #1
 1172 0432 A3F89C20 		strh	r2, [r3, #156]	@ movhi
 1173 0436 64E7     		b	.L84
 1174              	.LVL141:
 1175              	.L168:
 1176              		.loc 1 676 0 discriminator 1
 1177 0438 6B6F     		ldr	r3, [r5, #116]
 1178 043a 002B     		cmp	r3, #0
 1179 043c 7FF439AF 		bne	.L82
 1180              		.loc 1 676 0 is_stmt 0 discriminator 2
 1181 0440 FFF7FEFF 		bl	port_halt
 1182              	.LVL142:
 1183 0444 35E7     		b	.L82
 1184              	.LVL143:
 1185              	.L166:
 1186              		.loc 1 361 0 is_stmt 1 discriminator 1
 1187 0446 0022     		movs	r2, #0
 1188 0448 0A92     		str	r2, [sp, #40]
 1189              		.loc 1 506 0 discriminator 1
 1190 044a FFF7FEFF 		bl	port_halt
 1191              	.LVL144:
 1192              		.loc 1 355 0 discriminator 1
 1193 044e 0A9C     		ldr	r4, [sp, #40]
 1194              		.loc 1 354 0 discriminator 1
 1195 0450 2646     		mov	r6, r4
ARM GAS  /tmp/ccuCtRWT.s 			page 22


 1196 0452 A346     		mov	fp, r4
 1197              		.loc 1 353 0 discriminator 1
 1198 0454 0994     		str	r4, [sp, #36]
 1199 0456 3AE6     		b	.L58
 1200              	.LVL145:
 1201              	.L78:
 1202              		.loc 1 660 0
 1203 0458 BBF1000F 		cmp	fp, #0
 1204 045c 7FF414AF 		bne	.L80
 1205              		.loc 1 661 0
 1206 0460 059A     		ldr	r2, [sp, #20]
 1207 0462 6A67     		str	r2, [r5, #116]
 1208 0464 13E7     		b	.L81
 1209              	.L167:
 1210              		.loc 1 643 0 discriminator 1
 1211 0466 FFF7FEFF 		bl	port_halt
 1212              	.LVL146:
 1213 046a 01E7     		b	.L79
 1214              	.LVL147:
 1215              	.L154:
 1216              		.loc 1 377 0 discriminator 1
 1217 046c FFF7FEFF 		bl	port_halt
 1218              	.LVL148:
 1219 0470 F220     		movs	r0, #242
 1220 0472 50E7     		b	.L42
 1221              	.L172:
 1222              		.align	2
 1223              	.L171:
 1224 0474 00000000 		.word	lwip_stats
 1225              		.cfi_endproc
 1226              	.LFE12:
 1227              		.size	tcp_write, .-tcp_write
 1228 0478 AFF30080 		.section	.text.tcp_enqueue_flags,"ax",%progbits
 1228      AFF30080 
 1229              		.align	2
 1230              		.p2align 4,,15
 1231              		.global	tcp_enqueue_flags
 1232              		.thumb
 1233              		.thumb_func
 1234              		.type	tcp_enqueue_flags, %function
 1235              	tcp_enqueue_flags:
 1236              	.LFB13:
 1237              		.loc 1 716 0
 1238              		.cfi_startproc
 1239              		@ args = 0, pretend = 0, frame = 0
 1240              		@ frame_needed = 0, uses_anonymous_args = 0
 1241              	.LVL149:
 1242 0000 2DE9F043 		push	{r4, r5, r6, r7, r8, r9, lr}
 1243              	.LCFI5:
 1244              		.cfi_def_cfa_offset 28
 1245              		.cfi_offset 4, -28
 1246              		.cfi_offset 5, -24
 1247              		.cfi_offset 6, -20
 1248              		.cfi_offset 7, -16
 1249              		.cfi_offset 8, -12
 1250              		.cfi_offset 9, -8
 1251              		.cfi_offset 14, -4
ARM GAS  /tmp/ccuCtRWT.s 			page 23


 1252              		.loc 1 724 0
 1253 0004 11F00308 		ands	r8, r1, #3
 1254              		.loc 1 716 0
 1255 0008 83B0     		sub	sp, sp, #12
 1256              	.LCFI6:
 1257              		.cfi_def_cfa_offset 40
 1258              		.loc 1 716 0
 1259 000a 0E46     		mov	r6, r1
 1260 000c 0546     		mov	r5, r0
 1261              		.loc 1 724 0
 1262 000e 5FD0     		beq	.L208
 1263              		.loc 1 728 0
 1264 0010 B5F87030 		ldrh	r3, [r5, #112]
 1265 0014 012B     		cmp	r3, #1
 1266 0016 61D8     		bhi	.L209
 1267              	.LVL150:
 1268              	.L175:
 1269              		.loc 1 736 0
 1270 0018 06F00203 		and	r3, r6, #2
 1271 001c DBB2     		uxtb	r3, r3
 1272              		.loc 1 737 0
 1273 001e 4FF00109 		mov	r9, #1
 1274              		.loc 1 744 0
 1275 0022 0427     		movs	r7, #4
 1276              		.loc 1 736 0
 1277 0024 002B     		cmp	r3, #0
 1278 0026 50D0     		beq	.L210
 1279              	.L177:
 1280              	.LVL151:
 1281              		.loc 1 750 0 discriminator 3
 1282 0028 B5F86E30 		ldrh	r3, [r5, #110]
 1283 002c 002B     		cmp	r3, #0
 1284 002e 77D0     		beq	.L211
 1285              		.loc 1 757 0
 1286 0030 0020     		movs	r0, #0
 1287 0032 3946     		mov	r1, r7
 1288 0034 0246     		mov	r2, r0
 1289 0036 FFF7FEFF 		bl	pbuf_alloc
 1290              	.LVL152:
 1291 003a 0446     		mov	r4, r0
 1292 003c 0028     		cmp	r0, #0
 1293 003e 77D0     		beq	.L207
 1294              		.loc 1 762 0
 1295 0040 4389     		ldrh	r3, [r0, #10]
 1296 0042 BB42     		cmp	r3, r7
 1297 0044 58D3     		bcc	.L212
 1298              	.LVL153:
 1299              	.L180:
 1300              		.loc 1 766 0
 1301 0046 AB6E     		ldr	r3, [r5, #104]
 1302 0048 CDF80090 		str	r9, [sp, #0]
 1303 004c 2846     		mov	r0, r5
 1304 004e 2146     		mov	r1, r4
 1305 0050 3246     		mov	r2, r6
 1306 0052 FFF7FEFF 		bl	tcp_create_segment
 1307              	.LVL154:
 1308 0056 0746     		mov	r7, r0
ARM GAS  /tmp/ccuCtRWT.s 			page 24


 1309              	.LVL155:
 1310 0058 0028     		cmp	r0, #0
 1311 005a 69D0     		beq	.L207
 1312              		.loc 1 771 0
 1313 005c C368     		ldr	r3, [r0, #12]
 1314 005e 9907     		lsls	r1, r3, #30
 1315 0060 54D1     		bne	.L213
 1316              	.LVL156:
 1317              	.L182:
 1318              		.loc 1 772 0
 1319 0062 3B89     		ldrh	r3, [r7, #8]
 1320 0064 002B     		cmp	r3, #0
 1321 0066 4AD1     		bne	.L214
 1322              		.loc 1 781 0
 1323 0068 6C6F     		ldr	r4, [r5, #116]
 1324              	.LVL157:
 1325 006a 0CB9     		cbnz	r4, .L202
 1326 006c 4CE0     		b	.L215
 1327              	.LVL158:
 1328              	.L190:
 1329              	.LBB36:
 1330              		.loc 1 785 0
 1331 006e 1C46     		mov	r4, r3
 1332              	.LVL159:
 1333              	.L202:
 1334              		.loc 1 785 0 is_stmt 0 discriminator 1
 1335 0070 2368     		ldr	r3, [r4, #0]
 1336 0072 002B     		cmp	r3, #0
 1337 0074 FBD1     		bne	.L190
 1338              		.loc 1 786 0 is_stmt 1
 1339 0076 2760     		str	r7, [r4, #0]
 1340              	.LVL160:
 1341              	.L185:
 1342              	.LBE36:
 1343              		.loc 1 790 0
 1344 0078 0023     		movs	r3, #0
 1345 007a A5F87230 		strh	r3, [r5, #114]	@ movhi
 1346              		.loc 1 794 0
 1347 007e B8F1000F 		cmp	r8, #0
 1348 0082 07D0     		beq	.L187
 1349              		.loc 1 795 0
 1350 0084 AB6E     		ldr	r3, [r5, #104]
 1351              		.loc 1 797 0
 1352 0086 B5F86E20 		ldrh	r2, [r5, #110]
 1353              		.loc 1 795 0
 1354 008a 0133     		adds	r3, r3, #1
 1355              		.loc 1 797 0
 1356 008c 013A     		subs	r2, r2, #1
 1357              		.loc 1 795 0
 1358 008e AB66     		str	r3, [r5, #104]
 1359              		.loc 1 797 0
 1360 0090 A5F86E20 		strh	r2, [r5, #110]	@ movhi
 1361              	.L187:
 1362              		.loc 1 799 0
 1363 0094 F207     		lsls	r2, r6, #31
 1364              		.loc 1 800 0
 1365 0096 48BF     		it	mi
ARM GAS  /tmp/ccuCtRWT.s 			page 25


 1366 0098 95F82030 		ldrbmi	r3, [r5, #32]	@ zero_extendqisi2
 1367              		.loc 1 804 0
 1368 009c B5F87040 		ldrh	r4, [r5, #112]
 1369              		.loc 1 800 0
 1370 00a0 44BF     		itt	mi
 1371 00a2 43F02003 		orrmi	r3, r3, #32
 1372 00a6 85F82030 		strbmi	r3, [r5, #32]
 1373              		.loc 1 804 0
 1374 00aa 7868     		ldr	r0, [r7, #4]
 1375 00ac FFF7FEFF 		bl	pbuf_clen
 1376              	.LVL161:
 1377 00b0 0019     		adds	r0, r0, r4
 1378 00b2 80B2     		uxth	r0, r0
 1379 00b4 A5F87000 		strh	r0, [r5, #112]	@ movhi
 1380              		.loc 1 806 0
 1381 00b8 18B1     		cbz	r0, .L176
 1382              		.loc 1 807 0
 1383 00ba A86F     		ldr	r0, [r5, #120]
 1384 00bc 0028     		cmp	r0, #0
 1385 00be 28D0     		beq	.L216
 1386              		.loc 1 811 0
 1387 00c0 0020     		movs	r0, #0
 1388              	.LVL162:
 1389              	.L176:
 1390              		.loc 1 812 0
 1391 00c2 40B2     		sxtb	r0, r0
 1392 00c4 03B0     		add	sp, sp, #12
 1393 00c6 BDE8F083 		pop	{r4, r5, r6, r7, r8, r9, pc}
 1394              	.LVL163:
 1395              	.L210:
 1396              		.loc 1 719 0
 1397 00ca 9946     		mov	r9, r3
 1398              		.loc 1 744 0
 1399 00cc 1F46     		mov	r7, r3
 1400 00ce ABE7     		b	.L177
 1401              	.LVL164:
 1402              	.L208:
 1403              		.loc 1 724 0 discriminator 1
 1404 00d0 FFF7FEFF 		bl	port_halt
 1405              	.LVL165:
 1406              		.loc 1 728 0 discriminator 1
 1407 00d4 B5F87030 		ldrh	r3, [r5, #112]
 1408 00d8 012B     		cmp	r3, #1
 1409 00da 9DD9     		bls	.L175
 1410              	.L209:
 1411              		.loc 1 731 0
 1412 00dc 1B4B     		ldr	r3, .L217
 1413 00de B3F89C20 		ldrh	r2, [r3, #156]
 1414 00e2 0132     		adds	r2, r2, #1
 1415 00e4 A3F89C20 		strh	r2, [r3, #156]	@ movhi
 1416              		.loc 1 732 0
 1417 00e8 95F82030 		ldrb	r3, [r5, #32]	@ zero_extendqisi2
 1418 00ec 63F07F03 		orn	r3, r3, #127
 1419 00f0 85F82030 		strb	r3, [r5, #32]
 1420              		.loc 1 733 0
 1421 00f4 FF20     		movs	r0, #255
 1422 00f6 E4E7     		b	.L176
ARM GAS  /tmp/ccuCtRWT.s 			page 26


 1423              	.LVL166:
 1424              	.L212:
 1425              		.loc 1 762 0 discriminator 1
 1426 00f8 FFF7FEFF 		bl	port_halt
 1427              	.LVL167:
 1428 00fc A3E7     		b	.L180
 1429              	.LVL168:
 1430              	.L214:
 1431              		.loc 1 772 0 discriminator 1
 1432 00fe FFF7FEFF 		bl	port_halt
 1433              	.LVL169:
 1434              		.loc 1 781 0 discriminator 1
 1435 0102 6C6F     		ldr	r4, [r5, #116]
 1436              	.LVL170:
 1437 0104 002C     		cmp	r4, #0
 1438 0106 B3D1     		bne	.L202
 1439              	.L215:
 1440              		.loc 1 782 0
 1441 0108 6F67     		str	r7, [r5, #116]
 1442 010a B5E7     		b	.L185
 1443              	.LVL171:
 1444              	.L213:
 1445              		.loc 1 771 0 discriminator 1
 1446 010c FFF7FEFF 		bl	port_halt
 1447              	.LVL172:
 1448 0110 A7E7     		b	.L182
 1449              	.LVL173:
 1450              	.L216:
 1451              		.loc 1 807 0 discriminator 1
 1452 0112 6C6F     		ldr	r4, [r5, #116]
 1453 0114 002C     		cmp	r4, #0
 1454 0116 D4D1     		bne	.L176
 1455              		.loc 1 807 0 is_stmt 0 discriminator 2
 1456 0118 FFF7FEFF 		bl	port_halt
 1457              	.LVL174:
 1458              		.loc 1 811 0 is_stmt 1 discriminator 2
 1459 011c 2046     		mov	r0, r4
 1460 011e D0E7     		b	.L176
 1461              	.LVL175:
 1462              	.L211:
 1463              		.loc 1 752 0
 1464 0120 0A4B     		ldr	r3, .L217
 1465 0122 B3F89C20 		ldrh	r2, [r3, #156]
 1466 0126 0132     		adds	r2, r2, #1
 1467 0128 A3F89C20 		strh	r2, [r3, #156]	@ movhi
 1468              		.loc 1 753 0
 1469 012c FF20     		movs	r0, #255
 1470 012e C8E7     		b	.L176
 1471              	.LVL176:
 1472              	.L207:
 1473              		.loc 1 767 0
 1474 0130 95F82020 		ldrb	r2, [r5, #32]	@ zero_extendqisi2
 1475              		.loc 1 768 0
 1476 0134 054B     		ldr	r3, .L217
 1477              		.loc 1 767 0
 1478 0136 62F07F02 		orn	r2, r2, #127
 1479 013a 85F82020 		strb	r2, [r5, #32]
ARM GAS  /tmp/ccuCtRWT.s 			page 27


 1480              		.loc 1 768 0
 1481 013e B3F89C20 		ldrh	r2, [r3, #156]
 1482 0142 0132     		adds	r2, r2, #1
 1483 0144 A3F89C20 		strh	r2, [r3, #156]	@ movhi
 1484              		.loc 1 769 0
 1485 0148 FF20     		movs	r0, #255
 1486 014a BAE7     		b	.L176
 1487              	.L218:
 1488              		.align	2
 1489              	.L217:
 1490 014c 00000000 		.word	lwip_stats
 1491              		.cfi_endproc
 1492              	.LFE13:
 1493              		.size	tcp_enqueue_flags, .-tcp_enqueue_flags
 1494              		.section	.text.tcp_send_fin,"ax",%progbits
 1495              		.align	2
 1496              		.p2align 4,,15
 1497              		.global	tcp_send_fin
 1498              		.thumb
 1499              		.thumb_func
 1500              		.type	tcp_send_fin, %function
 1501              	tcp_send_fin:
 1502              	.LFB8:
 1503              		.loc 1 124 0
 1504              		.cfi_startproc
 1505              		@ args = 0, pretend = 0, frame = 0
 1506              		@ frame_needed = 0, uses_anonymous_args = 0
 1507              	.LVL177:
 1508 0000 70B5     		push	{r4, r5, r6, lr}
 1509              	.LCFI7:
 1510              		.cfi_def_cfa_offset 16
 1511              		.cfi_offset 4, -16
 1512              		.cfi_offset 5, -12
 1513              		.cfi_offset 6, -8
 1514              		.cfi_offset 14, -4
 1515              		.loc 1 126 0
 1516 0002 446F     		ldr	r4, [r0, #116]
 1517              		.loc 1 124 0
 1518 0004 0546     		mov	r5, r0
 1519              		.loc 1 126 0
 1520 0006 0CB9     		cbnz	r4, .L227
 1521 0008 0AE0     		b	.L220
 1522              	.LVL178:
 1523              	.L223:
 1524              	.LBB37:
 1525              		.loc 1 129 0
 1526 000a 1C46     		mov	r4, r3
 1527              	.LVL179:
 1528              	.L227:
 1529              		.loc 1 128 0 discriminator 1
 1530 000c 2368     		ldr	r3, [r4, #0]
 1531 000e 002B     		cmp	r3, #0
 1532 0010 FBD1     		bne	.L223
 1533              		.loc 1 131 0
 1534 0012 E368     		ldr	r3, [r4, #12]
 1535 0014 9889     		ldrh	r0, [r3, #12]	@ unaligned
 1536              	.LVL180:
ARM GAS  /tmp/ccuCtRWT.s 			page 28


 1537 0016 FFF7FEFF 		bl	lwip_ntohs
 1538              	.LVL181:
 1539 001a 10F00706 		ands	r6, r0, #7
 1540 001e 05D0     		beq	.L229
 1541              	.LVL182:
 1542              	.L220:
 1543              	.LBE37:
 1544              		.loc 1 138 0
 1545 0020 2846     		mov	r0, r5
 1546 0022 0121     		movs	r1, #1
 1547              		.loc 1 139 0
 1548 0024 BDE87040 		pop	{r4, r5, r6, lr}
 1549              		.loc 1 138 0
 1550 0028 FFF7FEBF 		b	tcp_enqueue_flags
 1551              	.LVL183:
 1552              	.L229:
 1553              	.LBB38:
 1554              		.loc 1 133 0
 1555 002c E468     		ldr	r4, [r4, #12]
 1556              	.LVL184:
 1557 002e 0120     		movs	r0, #1
 1558 0030 A589     		ldrh	r5, [r4, #12]	@ unaligned
 1559              	.LVL185:
 1560 0032 FFF7FEFF 		bl	lwip_htons
 1561              	.LVL186:
 1562 0036 2843     		orrs	r0, r0, r5
 1563 0038 A081     		strh	r0, [r4, #12]	@ unaligned
 1564              	.LBE38:
 1565              		.loc 1 139 0
 1566 003a 3046     		mov	r0, r6
 1567 003c 70BD     		pop	{r4, r5, r6, pc}
 1568              		.cfi_endproc
 1569              	.LFE8:
 1570              		.size	tcp_send_fin, .-tcp_send_fin
 1571 003e 00BF     		.section	.text.tcp_send_empty_ack,"ax",%progbits
 1572              		.align	2
 1573              		.p2align 4,,15
 1574              		.global	tcp_send_empty_ack
 1575              		.thumb
 1576              		.thumb_func
 1577              		.type	tcp_send_empty_ack, %function
 1578              	tcp_send_empty_ack:
 1579              	.LFB14:
 1580              		.loc 1 837 0
 1581              		.cfi_startproc
 1582              		@ args = 0, pretend = 0, frame = 0
 1583              		@ frame_needed = 0, uses_anonymous_args = 0
 1584              	.LVL187:
 1585 0000 F0B5     		push	{r4, r5, r6, r7, lr}
 1586              	.LCFI8:
 1587              		.cfi_def_cfa_offset 20
 1588              		.cfi_offset 4, -20
 1589              		.cfi_offset 5, -16
 1590              		.cfi_offset 6, -12
 1591              		.cfi_offset 7, -8
 1592              		.cfi_offset 14, -4
 1593 0002 0446     		mov	r4, r0
ARM GAS  /tmp/ccuCtRWT.s 			page 29


 1594 0004 83B0     		sub	sp, sp, #12
 1595              	.LCFI9:
 1596              		.cfi_def_cfa_offset 32
 1597              		.loc 1 848 0
 1598 0006 806D     		ldr	r0, [r0, #88]
 1599              	.LVL188:
 1600 0008 FFF7FEFF 		bl	lwip_htonl
 1601              	.LVL189:
 1602 000c 0021     		movs	r1, #0
 1603 000e 0246     		mov	r2, r0
 1604 0010 2046     		mov	r0, r4
 1605 0012 FFF7FEFF 		bl	tcp_output_alloc_header.constprop.0
 1606              	.LVL190:
 1607              		.loc 1 849 0
 1608 0016 0546     		mov	r5, r0
 1609 0018 0028     		cmp	r0, #0
 1610 001a 22D0     		beq	.L232
 1611              		.loc 1 857 0
 1612 001c 94F82030 		ldrb	r3, [r4, #32]	@ zero_extendqisi2
 1613              		.loc 1 853 0
 1614 0020 4768     		ldr	r7, [r0, #4]
 1615              	.LVL191:
 1616              		.loc 1 857 0
 1617 0022 23F00303 		bic	r3, r3, #3
 1618 0026 84F82030 		strb	r3, [r4, #32]
 1619              		.loc 1 869 0
 1620 002a B0F808E0 		ldrh	lr, [r0, #8]
 1621 002e 261D     		adds	r6, r4, #4
 1622 0030 CDF800E0 		str	lr, [sp, #0]
 1623 0034 2146     		mov	r1, r4
 1624 0036 3246     		mov	r2, r6
 1625 0038 0623     		movs	r3, #6
 1626 003a FFF7FEFF 		bl	inet_chksum_pseudo
 1627              	.LVL192:
 1628 003e 3882     		strh	r0, [r7, #16]	@ unaligned
 1629              		.loc 1 876 0
 1630 0040 607A     		ldrb	r0, [r4, #9]	@ zero_extendqisi2
 1631 0042 A37A     		ldrb	r3, [r4, #10]	@ zero_extendqisi2
 1632 0044 0090     		str	r0, [sp, #0]
 1633 0046 0620     		movs	r0, #6
 1634 0048 2146     		mov	r1, r4
 1635 004a 3246     		mov	r2, r6
 1636 004c 0190     		str	r0, [sp, #4]
 1637 004e 2846     		mov	r0, r5
 1638 0050 FFF7FEFF 		bl	ip_output
 1639              	.LVL193:
 1640              		.loc 1 879 0
 1641 0054 2846     		mov	r0, r5
 1642 0056 FFF7FEFF 		bl	pbuf_free
 1643              	.LVL194:
 1644              		.loc 1 881 0
 1645 005a 0020     		movs	r0, #0
 1646              	.LVL195:
 1647              	.L231:
 1648              		.loc 1 882 0
 1649 005c 40B2     		sxtb	r0, r0
 1650 005e 03B0     		add	sp, sp, #12
ARM GAS  /tmp/ccuCtRWT.s 			page 30


 1651 0060 F0BD     		pop	{r4, r5, r6, r7, pc}
 1652              	.LVL196:
 1653              	.L232:
 1654              		.loc 1 851 0
 1655 0062 FE20     		movs	r0, #254
 1656              	.LVL197:
 1657 0064 FAE7     		b	.L231
 1658              		.cfi_endproc
 1659              	.LFE14:
 1660              		.size	tcp_send_empty_ack, .-tcp_send_empty_ack
 1661 0066 00BFAFF3 		.section	.text.tcp_output,"ax",%progbits
 1661      0080AFF3 
 1661      0080
 1662              		.align	2
 1663              		.p2align 4,,15
 1664              		.global	tcp_output
 1665              		.thumb
 1666              		.thumb_func
 1667              		.type	tcp_output, %function
 1668              	tcp_output:
 1669              	.LFB15:
 1670              		.loc 1 893 0
 1671              		.cfi_startproc
 1672              		@ args = 0, pretend = 0, frame = 8
 1673              		@ frame_needed = 0, uses_anonymous_args = 0
 1674              	.LVL198:
 1675 0000 2DE9F04F 		push	{r4, r5, r6, r7, r8, r9, sl, fp, lr}
 1676              	.LCFI10:
 1677              		.cfi_def_cfa_offset 36
 1678              		.cfi_offset 4, -36
 1679              		.cfi_offset 5, -32
 1680              		.cfi_offset 6, -28
 1681              		.cfi_offset 7, -24
 1682              		.cfi_offset 8, -20
 1683              		.cfi_offset 9, -16
 1684              		.cfi_offset 10, -12
 1685              		.cfi_offset 11, -8
 1686              		.cfi_offset 14, -4
 1687              		.loc 1 904 0
 1688 0004 A94B     		ldr	r3, .L316
 1689 0006 1B68     		ldr	r3, [r3, #0]
 1690 0008 8342     		cmp	r3, r0
 1691              		.loc 1 893 0
 1692 000a 85B0     		sub	sp, sp, #20
 1693              	.LCFI11:
 1694              		.cfi_def_cfa_offset 56
 1695              		.loc 1 893 0
 1696 000c 0446     		mov	r4, r0
 1697              		.loc 1 904 0
 1698 000e 00F01F81 		beq	.L290
 1699              		.loc 1 918 0
 1700 0012 90F82030 		ldrb	r3, [r0, #32]	@ zero_extendqisi2
 1701              		.loc 1 908 0
 1702 0016 B0F85CA0 		ldrh	sl, [r0, #92]
 1703 001a B0F85220 		ldrh	r2, [r0, #82]
 1704              		.loc 1 910 0
 1705 001e 456F     		ldr	r5, [r0, #116]
ARM GAS  /tmp/ccuCtRWT.s 			page 31


 1706              		.loc 1 918 0
 1707 0020 03F00203 		and	r3, r3, #2
 1708 0024 DBB2     		uxtb	r3, r3
 1709              		.loc 1 908 0
 1710 0026 9245     		cmp	sl, r2
 1711 0028 28BF     		it	cs
 1712 002a 9246     		movcs	sl, r2
 1713              	.LVL199:
 1714              		.loc 1 918 0
 1715 002c 002B     		cmp	r3, #0
 1716 002e 40F04181 		bne	.L309
 1717              	.LVL200:
 1718              	.L235:
 1719              		.loc 1 925 0
 1720 0032 D4F87880 		ldr	r8, [r4, #120]
 1721              	.LVL201:
 1722              		.loc 1 926 0
 1723 0036 B8F1000F 		cmp	r8, #0
 1724 003a 01D1     		bne	.L295
 1725 003c 04E0     		b	.L242
 1726              	.L270:
 1727              		.loc 1 927 0
 1728 003e 9846     		mov	r8, r3
 1729              	.LVL202:
 1730              	.L295:
 1731              		.loc 1 927 0 is_stmt 0 discriminator 1
 1732 0040 D8F80030 		ldr	r3, [r8, #0]
 1733 0044 002B     		cmp	r3, #0
 1734 0046 FAD1     		bne	.L270
 1735              	.L242:
 1736              		.loc 1 952 0 is_stmt 1 discriminator 1
 1737 0048 002D     		cmp	r5, #0
 1738 004a 00F04581 		beq	.L308
 1739              	.LBB42:
 1740              	.LBB43:
 1741              		.loc 1 1069 0 discriminator 2
 1742 004e 40F20243 		movw	r3, #1026
 1743 0052 C1F60203 		movt	r3, 6146
 1744              		.loc 1 1155 0 discriminator 2
 1745 0056 DFF85892 		ldr	r9, .L316+4
 1746              		.loc 1 1069 0 discriminator 2
 1747 005a 0393     		str	r3, [sp, #12]
 1748              		.loc 1 1084 0 discriminator 2
 1749 005c 0027     		movs	r7, #0
 1750 005e BAE0     		b	.L291
 1751              	.L243:
 1752              	.LBE43:
 1753              	.LBE42:
 1754              		.loc 1 963 0
 1755 0060 A36F     		ldr	r3, [r4, #120]
 1756 0062 63B1     		cbz	r3, .L244
 1757              		.loc 1 963 0 is_stmt 0 discriminator 2
 1758 0064 94F82030 		ldrb	r3, [r4, #32]	@ zero_extendqisi2
 1759 0068 13F0440F 		tst	r3, #68
 1760 006c 07D1     		bne	.L244
 1761              		.loc 1 963 0 discriminator 3
 1762 006e 626F     		ldr	r2, [r4, #116]
ARM GAS  /tmp/ccuCtRWT.s 			page 32


 1763 0070 002A     		cmp	r2, #0
 1764 0072 00F01381 		beq	.L245
 1765              		.loc 1 963 0 discriminator 4
 1766 0076 1168     		ldr	r1, [r2, #0]
 1767 0078 0029     		cmp	r1, #0
 1768 007a 00F00A81 		beq	.L310
 1769              	.L244:
 1770              		.loc 1 978 0 is_stmt 1
 1771 007e 227C     		ldrb	r2, [r4, #16]	@ zero_extendqisi2
 1772              		.loc 1 976 0
 1773 0080 2B68     		ldr	r3, [r5, #0]
 1774              		.loc 1 978 0
 1775 0082 022A     		cmp	r2, #2
 1776              		.loc 1 976 0
 1777 0084 6367     		str	r3, [r4, #116]
 1778              		.loc 1 978 0
 1779 0086 0ED0     		beq	.L246
 1780              		.loc 1 979 0
 1781 0088 EE68     		ldr	r6, [r5, #12]
 1782 008a 1020     		movs	r0, #16
 1783 008c B6F80CB0 		ldrh	fp, [r6, #12]	@ unaligned
 1784 0090 FFF7FEFF 		bl	lwip_htons
 1785              	.LVL203:
 1786 0094 40EA0B00 		orr	r0, r0, fp
 1787 0098 B081     		strh	r0, [r6, #12]	@ unaligned
 1788              		.loc 1 980 0
 1789 009a 94F82030 		ldrb	r3, [r4, #32]	@ zero_extendqisi2
 1790 009e 23F00303 		bic	r3, r3, #3
 1791 00a2 84F82030 		strb	r3, [r4, #32]
 1792              	.L246:
 1793              	.LVL204:
 1794              	.LBB47:
 1795              	.LBB44:
 1796              		.loc 1 1057 0
 1797 00a6 606A     		ldr	r0, [r4, #36]
 1798 00a8 EE68     		ldr	r6, [r5, #12]
 1799 00aa FFF7FEFF 		bl	lwip_htonl
 1800              	.LVL205:
 1801 00ae B060     		str	r0, [r6, #8]	@ unaligned
 1802              		.loc 1 1060 0
 1803 00b0 608D     		ldrh	r0, [r4, #42]
 1804 00b2 EE68     		ldr	r6, [r5, #12]
 1805 00b4 FFF7FEFF 		bl	lwip_htons
 1806              	.LVL206:
 1807 00b8 F081     		strh	r0, [r6, #14]	@ unaligned
 1808              		.loc 1 1066 0
 1809 00ba D5F80CB0 		ldr	fp, [r5, #12]
 1810              		.loc 1 1062 0
 1811 00be 628D     		ldrh	r2, [r4, #42]
 1812 00c0 636A     		ldr	r3, [r4, #36]
 1813              		.loc 1 1066 0
 1814 00c2 1BF0030F 		tst	fp, #3
 1815              		.loc 1 1062 0
 1816 00c6 1344     		add	r3, r2, r3
 1817 00c8 E362     		str	r3, [r4, #44]
 1818              		.loc 1 1066 0
 1819 00ca 40F09B80 		bne	.L311
ARM GAS  /tmp/ccuCtRWT.s 			page 33


 1820              	.L247:
 1821              	.LVL207:
 1822              	.LBE44:
 1823              		.loc 1 1068 0
 1824 00ce AB7A     		ldrb	r3, [r5, #10]	@ zero_extendqisi2
 1825              	.LBB45:
 1826 00d0 D807     		lsls	r0, r3, #31
 1827              		.loc 1 1069 0
 1828 00d2 48BF     		it	mi
 1829 00d4 039A     		ldrmi	r2, [sp, #12]
 1830              		.loc 1 1083 0
 1831 00d6 B4F93630 		ldrsh	r3, [r4, #54]
 1832              		.loc 1 1069 0
 1833 00da 48BF     		it	mi
 1834 00dc CBF81420 		strmi	r2, [fp, #20]
 1835              	.LVL208:
 1836              		.loc 1 1083 0
 1837 00e0 0133     		adds	r3, r3, #1
 1838              		.loc 1 1089 0
 1839 00e2 2368     		ldr	r3, [r4, #0]
 1840              		.loc 1 1084 0
 1841 00e4 08BF     		it	eq
 1842 00e6 E786     		strheq	r7, [r4, #54]	@ movhi
 1843              		.loc 1 1090 0
 1844 00e8 261D     		adds	r6, r4, #4
 1845              		.loc 1 1089 0
 1846 00ea 43B9     		cbnz	r3, .L250
 1847              		.loc 1 1090 0
 1848 00ec 3046     		mov	r0, r6
 1849 00ee FFF7FEFF 		bl	ip_route
 1850              	.LVL209:
 1851              		.loc 1 1091 0
 1852 00f2 0028     		cmp	r0, #0
 1853 00f4 35D0     		beq	.L251
 1854              		.loc 1 1094 0
 1855 00f6 4368     		ldr	r3, [r0, #4]
 1856 00f8 D5F80CB0 		ldr	fp, [r5, #12]
 1857              	.LVL210:
 1858 00fc 2360     		str	r3, [r4, #0]
 1859              	.LVL211:
 1860              	.L250:
 1861              		.loc 1 1097 0
 1862 00fe E36B     		ldr	r3, [r4, #60]
 1863 0100 002B     		cmp	r3, #0
 1864 0102 00F08480 		beq	.L312
 1865              	.L252:
 1866              		.loc 1 1107 0
 1867 0106 6868     		ldr	r0, [r5, #4]
 1868 0108 4368     		ldr	r3, [r0, #4]
 1869              		.loc 1 1110 0
 1870 010a B0F808E0 		ldrh	lr, [r0, #8]
 1871              		.loc 1 1109 0
 1872 010e 4289     		ldrh	r2, [r0, #10]
 1873              		.loc 1 1112 0
 1874 0110 C0F804B0 		str	fp, [r0, #4]
 1875              		.loc 1 1107 0
 1876 0114 C3EB0B03 		rsb	r3, r3, fp
ARM GAS  /tmp/ccuCtRWT.s 			page 34


 1877 0118 9BB2     		uxth	r3, r3
 1878              	.LVL212:
 1879              		.loc 1 1110 0
 1880 011a C3EB0E0E 		rsb	lr, r3, lr
 1881 011e 1FFA8EFE 		uxth	lr, lr
 1882              		.loc 1 1109 0
 1883 0122 D31A     		subs	r3, r2, r3
 1884              	.LVL213:
 1885 0124 4381     		strh	r3, [r0, #10]	@ movhi
 1886              		.loc 1 1110 0
 1887 0126 A0F808E0 		strh	lr, [r0, #8]	@ movhi
 1888              		.loc 1 1150 0
 1889 012a 2146     		mov	r1, r4
 1890              		.loc 1 1114 0
 1891 012c 8BF81070 		strb	r7, [fp, #16]
 1892 0130 8BF81170 		strb	r7, [fp, #17]
 1893              		.loc 1 1150 0
 1894 0134 3246     		mov	r2, r6
 1895 0136 0623     		movs	r3, #6
 1896 0138 CDF800E0 		str	lr, [sp, #0]
 1897 013c FFF7FEFF 		bl	inet_chksum_pseudo
 1898              	.LVL214:
 1899 0140 ABF81000 		strh	r0, [fp, #16]	@ unaligned
 1900              		.loc 1 1155 0
 1901 0144 B9F89030 		ldrh	r3, [r9, #144]
 1902              		.loc 1 1161 0
 1903 0148 6868     		ldr	r0, [r5, #4]
 1904 014a 0622     		movs	r2, #6
 1905              		.loc 1 1155 0
 1906 014c 0133     		adds	r3, r3, #1
 1907              		.loc 1 1161 0
 1908 014e 0192     		str	r2, [sp, #4]
 1909              		.loc 1 1155 0
 1910 0150 A9F89030 		strh	r3, [r9, #144]	@ movhi
 1911              		.loc 1 1161 0
 1912 0154 627A     		ldrb	r2, [r4, #9]	@ zero_extendqisi2
 1913 0156 A37A     		ldrb	r3, [r4, #10]	@ zero_extendqisi2
 1914 0158 0092     		str	r2, [sp, #0]
 1915 015a 2146     		mov	r1, r4
 1916 015c 3246     		mov	r2, r6
 1917 015e FFF7FEFF 		bl	ip_output
 1918              	.LVL215:
 1919              	.L251:
 1920              	.LBE45:
 1921              	.LBE47:
 1922              		.loc 1 984 0
 1923 0162 EB68     		ldr	r3, [r5, #12]
 1924 0164 5868     		ldr	r0, [r3, #4]	@ unaligned
 1925 0166 FFF7FEFF 		bl	lwip_ntohl
 1926              	.LVL216:
 1927 016a EA68     		ldr	r2, [r5, #12]
 1928 016c B5F808B0 		ldrh	fp, [r5, #8]
 1929 0170 0646     		mov	r6, r0
 1930 0172 9089     		ldrh	r0, [r2, #12]	@ unaligned
 1931 0174 FFF7FEFF 		bl	lwip_ntohs
 1932              	.LVL217:
 1933 0178 10F00300 		ands	r0, r0, #3
ARM GAS  /tmp/ccuCtRWT.s 			page 35


 1934 017c 18BF     		it	ne
 1935 017e 0120     		movne	r0, #1
 1936              		.loc 1 985 0
 1937 0180 A26D     		ldr	r2, [r4, #88]
 1938              		.loc 1 984 0
 1939 0182 0BEB0003 		add	r3, fp, r0
 1940 0186 9B19     		adds	r3, r3, r6
 1941              	.LVL218:
 1942              		.loc 1 985 0
 1943 0188 D21A     		subs	r2, r2, r3
 1944 018a 002A     		cmp	r2, #0
 1945              		.loc 1 986 0
 1946 018c B8BF     		it	lt
 1947 018e A365     		strlt	r3, [r4, #88]
 1948              		.loc 1 989 0
 1949 0190 EB68     		ldr	r3, [r5, #12]
 1950              	.LVL219:
 1951 0192 2E89     		ldrh	r6, [r5, #8]
 1952              	.LVL220:
 1953 0194 9889     		ldrh	r0, [r3, #12]	@ unaligned
 1954 0196 FFF7FEFF 		bl	lwip_ntohs
 1955              	.LVL221:
 1956 019a 10F00300 		ands	r0, r0, #3
 1957 019e 18BF     		it	ne
 1958 01a0 0120     		movne	r0, #1
 1959 01a2 3018     		adds	r0, r6, r0
 1960 01a4 0028     		cmp	r0, #0
 1961 01a6 70D0     		beq	.L254
 1962              		.loc 1 992 0
 1963 01a8 A36F     		ldr	r3, [r4, #120]
 1964              		.loc 1 990 0
 1965 01aa 2F60     		str	r7, [r5, #0]
 1966              		.loc 1 992 0
 1967 01ac 002B     		cmp	r3, #0
 1968 01ae 3CD0     		beq	.L313
 1969              		.loc 1 1000 0
 1970 01b0 EB68     		ldr	r3, [r5, #12]
 1971 01b2 5868     		ldr	r0, [r3, #4]	@ unaligned
 1972 01b4 FFF7FEFF 		bl	lwip_ntohl
 1973              	.LVL222:
 1974 01b8 D8F80C30 		ldr	r3, [r8, #12]
 1975 01bc 0646     		mov	r6, r0
 1976 01be 5868     		ldr	r0, [r3, #4]	@ unaligned
 1977 01c0 FFF7FEFF 		bl	lwip_ntohl
 1978              	.LVL223:
 1979 01c4 301A     		subs	r0, r6, r0
 1980 01c6 0028     		cmp	r0, #0
 1981              		.loc 1 1011 0
 1982 01c8 A4BF     		itt	ge
 1983 01ca C8F80050 		strge	r5, [r8, #0]
 1984              	.LVL224:
 1985 01ce A846     		movge	r8, r5
 1986              		.loc 1 1000 0
 1987 01d0 42DB     		blt	.L314
 1988              	.LVL225:
 1989              	.L256:
 1990              		.loc 1 1019 0
ARM GAS  /tmp/ccuCtRWT.s 			page 36


 1991 01d2 656F     		ldr	r5, [r4, #116]
 1992              	.LVL226:
 1993              		.loc 1 952 0
 1994 01d4 75B3     		cbz	r5, .L263
 1995              	.LVL227:
 1996              	.L291:
 1997              		.loc 1 953 0 discriminator 2
 1998 01d6 EB68     		ldr	r3, [r5, #12]
 1999 01d8 5868     		ldr	r0, [r3, #4]	@ unaligned
 2000 01da FFF7FEFF 		bl	lwip_ntohl
 2001              	.LVL228:
 2002 01de 2A89     		ldrh	r2, [r5, #8]
 2003 01e0 E36C     		ldr	r3, [r4, #76]
 2004 01e2 D31A     		subs	r3, r2, r3
 2005 01e4 1818     		adds	r0, r3, r0
 2006              		.loc 1 952 0 discriminator 2
 2007 01e6 8245     		cmp	sl, r0
 2008 01e8 76D3     		bcc	.L308
 2009              		.loc 1 954 0
 2010 01ea EB68     		ldr	r3, [r5, #12]
 2011 01ec 9889     		ldrh	r0, [r3, #12]	@ unaligned
 2012 01ee FFF7FEFF 		bl	lwip_ntohs
 2013              	.LVL229:
 2014 01f2 00F00400 		and	r0, r0, #4
 2015 01f6 80B2     		uxth	r0, r0
 2016 01f8 0028     		cmp	r0, #0
 2017 01fa 3FF431AF 		beq	.L243
 2018              		.loc 1 954 0 is_stmt 0 discriminator 1
 2019 01fe FFF7FEFF 		bl	port_halt
 2020              	.LVL230:
 2021 0202 2DE7     		b	.L243
 2022              	.LVL231:
 2023              	.L311:
 2024              	.LBB48:
 2025              	.LBB46:
 2026              		.loc 1 1066 0 is_stmt 1
 2027 0204 FFF7FEFF 		bl	port_halt
 2028              	.LVL232:
 2029 0208 D5F80CB0 		ldr	fp, [r5, #12]
 2030 020c 5FE7     		b	.L247
 2031              	.L312:
 2032              		.loc 1 1098 0
 2033 020e 40F20002 		movw	r2, #:lower16:tcp_ticks
 2034 0212 C0F20002 		movt	r2, #:upper16:tcp_ticks
 2035 0216 1368     		ldr	r3, [r2, #0]
 2036 0218 E363     		str	r3, [r4, #60]
 2037              		.loc 1 1099 0
 2038 021a DBF80400 		ldr	r0, [fp, #4]	@ unaligned
 2039 021e FFF7FEFF 		bl	lwip_ntohl
 2040              	.LVL233:
 2041 0222 D5F80CB0 		ldr	fp, [r5, #12]
 2042 0226 2064     		str	r0, [r4, #64]
 2043 0228 6DE7     		b	.L252
 2044              	.L313:
 2045              	.LBE46:
 2046              	.LBE48:
 2047              		.loc 1 993 0
ARM GAS  /tmp/ccuCtRWT.s 			page 37


 2048 022a A567     		str	r5, [r4, #120]
 2049              	.LVL234:
 2050 022c A846     		mov	r8, r5
 2051              		.loc 1 1019 0
 2052 022e 656F     		ldr	r5, [r4, #116]
 2053              	.LVL235:
 2054              		.loc 1 952 0
 2055 0230 002D     		cmp	r5, #0
 2056 0232 D0D1     		bne	.L291
 2057              	.LVL236:
 2058              	.L263:
 2059              		.loc 1 1024 0
 2060 0234 0023     		movs	r3, #0
 2061 0236 A4F87230 		strh	r3, [r4, #114]	@ movhi
 2062              	.L265:
 2063              		.loc 1 1028 0
 2064 023a 1DB1     		cbz	r5, .L267
 2065              		.loc 1 1028 0 is_stmt 0 discriminator 1
 2066 023c 94F8A060 		ldrb	r6, [r4, #160]	@ zero_extendqisi2
 2067 0240 002E     		cmp	r6, #0
 2068 0242 4DD0     		beq	.L315
 2069              	.L267:
 2070              		.loc 1 1035 0 is_stmt 1
 2071 0244 94F82030 		ldrb	r3, [r4, #32]	@ zero_extendqisi2
 2072 0248 03F07F03 		and	r3, r3, #127
 2073 024c 84F82030 		strb	r3, [r4, #32]
 2074              	.LVL237:
 2075              	.L290:
 2076              		.loc 1 1037 0
 2077 0250 0020     		movs	r0, #0
 2078 0252 05B0     		add	sp, sp, #20
 2079 0254 BDE8F08F 		pop	{r4, r5, r6, r7, r8, r9, sl, fp, pc}
 2080              	.LVL238:
 2081              	.L314:
 2082              	.LBB49:
 2083              		.loc 1 1003 0
 2084 0258 A36F     		ldr	r3, [r4, #120]
 2085              		.loc 1 1002 0
 2086 025a 04F17806 		add	r6, r4, #120
 2087              	.LVL239:
 2088              		.loc 1 1003 0
 2089 025e 1BB9     		cbnz	r3, .L292
 2090 0260 10E0     		b	.L259
 2091              	.L261:
 2092              		.loc 1 1005 0
 2093 0262 3668     		ldr	r6, [r6, #0]
 2094              	.LVL240:
 2095              		.loc 1 1003 0
 2096 0264 3368     		ldr	r3, [r6, #0]
 2097 0266 6BB1     		cbz	r3, .L259
 2098              	.L292:
 2099              		.loc 1 1004 0 discriminator 2
 2100 0268 DB68     		ldr	r3, [r3, #12]
 2101 026a 5868     		ldr	r0, [r3, #4]	@ unaligned
 2102 026c FFF7FEFF 		bl	lwip_ntohl
 2103              	.LVL241:
 2104 0270 EB68     		ldr	r3, [r5, #12]
ARM GAS  /tmp/ccuCtRWT.s 			page 38


 2105 0272 8346     		mov	fp, r0
 2106 0274 5868     		ldr	r0, [r3, #4]	@ unaligned
 2107 0276 FFF7FEFF 		bl	lwip_ntohl
 2108              	.LVL242:
 2109 027a C0EB0B00 		rsb	r0, r0, fp
 2110              		.loc 1 1003 0 discriminator 2
 2111 027e 0028     		cmp	r0, #0
 2112 0280 EFDB     		blt	.L261
 2113 0282 3368     		ldr	r3, [r6, #0]
 2114              	.L259:
 2115              		.loc 1 1007 0
 2116 0284 2B60     		str	r3, [r5, #0]
 2117              		.loc 1 1008 0
 2118 0286 3560     		str	r5, [r6, #0]
 2119 0288 A3E7     		b	.L256
 2120              	.LVL243:
 2121              	.L254:
 2122              	.LBE49:
 2123              		.loc 1 1017 0
 2124 028a 2846     		mov	r0, r5
 2125 028c FFF7FEFF 		bl	tcp_seg_free
 2126              	.LVL244:
 2127 0290 9FE7     		b	.L256
 2128              	.LVL245:
 2129              	.L310:
 2130              		.loc 1 963 0 discriminator 6
 2131 0292 1089     		ldrh	r0, [r2, #8]
 2132 0294 218F     		ldrh	r1, [r4, #56]
 2133 0296 8842     		cmp	r0, r1
 2134 0298 BFF4F1AE 		bcs	.L244
 2135              	.L245:
 2136              		.loc 1 963 0 is_stmt 0
 2137 029c 13F0A00F 		tst	r3, #160
 2138 02a0 7FF4EDAE 		bne	.L244
 2139              		.loc 1 1022 0 is_stmt 1
 2140 02a4 002A     		cmp	r2, #0
 2141 02a6 C8D1     		bne	.L265
 2142 02a8 C4E7     		b	.L263
 2143              	.L317:
 2144 02aa 00BF     		.align	2
 2145              	.L316:
 2146 02ac 00000000 		.word	tcp_input_pcb
 2147 02b0 00000000 		.word	lwip_stats
 2148              	.LVL246:
 2149              	.L309:
 2150              		.loc 1 918 0 discriminator 1
 2151 02b4 55B1     		cbz	r5, .L237
 2152              		.loc 1 920 0
 2153 02b6 EB68     		ldr	r3, [r5, #12]
 2154 02b8 5868     		ldr	r0, [r3, #4]	@ unaligned
 2155              	.LVL247:
 2156 02ba FFF7FEFF 		bl	lwip_ntohl
 2157              	.LVL248:
 2158 02be 2A89     		ldrh	r2, [r5, #8]
 2159 02c0 E36C     		ldr	r3, [r4, #76]
 2160 02c2 D31A     		subs	r3, r2, r3
 2161 02c4 1818     		adds	r0, r3, r0
ARM GAS  /tmp/ccuCtRWT.s 			page 39


 2162              		.loc 1 919 0
 2163 02c6 8245     		cmp	sl, r0
 2164 02c8 BFF4B3AE 		bcs	.L235
 2165              	.L237:
 2166              		.loc 1 921 0
 2167 02cc 2046     		mov	r0, r4
 2168              		.loc 1 1037 0
 2169 02ce 05B0     		add	sp, sp, #20
 2170 02d0 BDE8F04F 		pop	{r4, r5, r6, r7, r8, r9, sl, fp, lr}
 2171              		.loc 1 921 0
 2172 02d4 FFF7FEBF 		b	tcp_send_empty_ack
 2173              	.LVL249:
 2174              	.L308:
 2175 02d8 626F     		ldr	r2, [r4, #116]
 2176              		.loc 1 1022 0
 2177 02da 002A     		cmp	r2, #0
 2178 02dc ADD1     		bne	.L265
 2179 02de A9E7     		b	.L263
 2180              	.L315:
 2181              		.loc 1 1029 0 discriminator 1
 2182 02e0 EB68     		ldr	r3, [r5, #12]
 2183 02e2 5868     		ldr	r0, [r3, #4]	@ unaligned
 2184 02e4 FFF7FEFF 		bl	lwip_ntohl
 2185              	.LVL250:
 2186 02e8 2989     		ldrh	r1, [r5, #8]
 2187 02ea E36C     		ldr	r3, [r4, #76]
 2188 02ec B4F85C20 		ldrh	r2, [r4, #92]
 2189 02f0 CB1A     		subs	r3, r1, r3
 2190 02f2 1818     		adds	r0, r3, r0
 2191              		.loc 1 1028 0 discriminator 1
 2192 02f4 9042     		cmp	r0, r2
 2193 02f6 A5D9     		bls	.L267
 2194              		.loc 1 1032 0
 2195 02f8 0123     		movs	r3, #1
 2196              		.loc 1 1031 0
 2197 02fa C4F89C60 		str	r6, [r4, #156]
 2198              		.loc 1 1032 0
 2199 02fe 84F8A030 		strb	r3, [r4, #160]
 2200 0302 9FE7     		b	.L267
 2201              		.cfi_endproc
 2202              	.LFE15:
 2203              		.size	tcp_output, .-tcp_output
 2204 0304 AFF30080 		.section	.text.tcp_rst,"ax",%progbits
 2204      AFF30080 
 2204      AFF30080 
 2205              		.align	2
 2206              		.p2align 4,,15
 2207              		.global	tcp_rst
 2208              		.thumb
 2209              		.thumb_func
 2210              		.type	tcp_rst, %function
 2211              	tcp_rst:
 2212              	.LFB17:
 2213              		.loc 1 1190 0
 2214              		.cfi_startproc
 2215              		@ args = 8, pretend = 0, frame = 0
 2216              		@ frame_needed = 0, uses_anonymous_args = 0
ARM GAS  /tmp/ccuCtRWT.s 			page 40


 2217              	.LVL251:
 2218 0000 2DE9F047 		push	{r4, r5, r6, r7, r8, r9, sl, lr}
 2219              	.LCFI12:
 2220              		.cfi_def_cfa_offset 32
 2221              		.cfi_offset 4, -32
 2222              		.cfi_offset 5, -28
 2223              		.cfi_offset 6, -24
 2224              		.cfi_offset 7, -20
 2225              		.cfi_offset 8, -16
 2226              		.cfi_offset 9, -12
 2227              		.cfi_offset 10, -8
 2228              		.cfi_offset 14, -4
 2229 0004 82B0     		sub	sp, sp, #8
 2230              	.LCFI13:
 2231              		.cfi_def_cfa_offset 40
 2232              		.loc 1 1190 0
 2233 0006 8146     		mov	r9, r0
 2234 0008 0E46     		mov	r6, r1
 2235 000a 9046     		mov	r8, r2
 2236              		.loc 1 1193 0
 2237 000c 0120     		movs	r0, #1
 2238              	.LVL252:
 2239 000e 1421     		movs	r1, #20
 2240              	.LVL253:
 2241 0010 0022     		movs	r2, #0
 2242              	.LVL254:
 2243              		.loc 1 1190 0
 2244 0012 1F46     		mov	r7, r3
 2245 0014 BDF82840 		ldrh	r4, [sp, #40]
 2246 0018 BDF82CA0 		ldrh	sl, [sp, #44]
 2247              		.loc 1 1193 0
 2248 001c FFF7FEFF 		bl	pbuf_alloc
 2249              	.LVL255:
 2250              		.loc 1 1194 0
 2251 0020 0546     		mov	r5, r0
 2252 0022 0028     		cmp	r0, #0
 2253 0024 43D0     		beq	.L318
 2254              		.loc 1 1198 0
 2255 0026 4389     		ldrh	r3, [r0, #10]
 2256 0028 132B     		cmp	r3, #19
 2257 002a 3DD9     		bls	.L321
 2258              	.LVL256:
 2259              	.L320:
 2260              		.loc 1 1202 0
 2261 002c 2046     		mov	r0, r4
 2262              		.loc 1 1201 0
 2263 002e 6C68     		ldr	r4, [r5, #4]
 2264              	.LVL257:
 2265              		.loc 1 1202 0
 2266 0030 FFF7FEFF 		bl	lwip_htons
 2267              	.LVL258:
 2268 0034 2080     		strh	r0, [r4, #0]	@ unaligned
 2269              		.loc 1 1203 0
 2270 0036 5046     		mov	r0, sl
 2271 0038 FFF7FEFF 		bl	lwip_htons
 2272              	.LVL259:
 2273 003c 6080     		strh	r0, [r4, #2]	@ unaligned
ARM GAS  /tmp/ccuCtRWT.s 			page 41


 2274              		.loc 1 1204 0
 2275 003e 4846     		mov	r0, r9
 2276 0040 FFF7FEFF 		bl	lwip_htonl
 2277              	.LVL260:
 2278 0044 6060     		str	r0, [r4, #4]	@ unaligned
 2279              		.loc 1 1205 0
 2280 0046 3046     		mov	r0, r6
 2281 0048 FFF7FEFF 		bl	lwip_htonl
 2282              	.LVL261:
 2283 004c A060     		str	r0, [r4, #8]	@ unaligned
 2284              		.loc 1 1206 0
 2285 004e 45F21400 		movw	r0, #20500
 2286 0052 FFF7FEFF 		bl	lwip_htons
 2287              	.LVL262:
 2288              		.loc 1 1207 0
 2289 0056 0823     		movs	r3, #8
 2290 0058 0026     		movs	r6, #0
 2291              	.LVL263:
 2292 005a A373     		strb	r3, [r4, #14]
 2293 005c 6023     		movs	r3, #96
 2294 005e E373     		strb	r3, [r4, #15]
 2295              		.loc 1 1208 0
 2296 0060 2674     		strb	r6, [r4, #16]
 2297 0062 6674     		strb	r6, [r4, #17]
 2298              		.loc 1 1209 0
 2299 0064 A674     		strb	r6, [r4, #18]
 2300 0066 E674     		strb	r6, [r4, #19]
 2301              		.loc 1 1206 0
 2302 0068 A081     		strh	r0, [r4, #12]	@ unaligned
 2303              		.loc 1 1212 0
 2304 006a 2889     		ldrh	r0, [r5, #8]
 2305 006c 4146     		mov	r1, r8
 2306 006e 3A46     		mov	r2, r7
 2307 0070 0623     		movs	r3, #6
 2308 0072 0090     		str	r0, [sp, #0]
 2309 0074 2846     		mov	r0, r5
 2310 0076 FFF7FEFF 		bl	inet_chksum_pseudo
 2311              	.LVL264:
 2312              		.loc 1 1215 0
 2313 007a DFF838E0 		ldr	lr, .L322
 2314              		.loc 1 1212 0
 2315 007e 2082     		strh	r0, [r4, #16]	@ unaligned
 2316              		.loc 1 1215 0
 2317 0080 BEF89040 		ldrh	r4, [lr, #144]
 2318              	.LVL265:
 2319              		.loc 1 1218 0
 2320 0084 0096     		str	r6, [sp, #0]
 2321 0086 0623     		movs	r3, #6
 2322              		.loc 1 1215 0
 2323 0088 0134     		adds	r4, r4, #1
 2324              		.loc 1 1218 0
 2325 008a 0193     		str	r3, [sp, #4]
 2326 008c 2846     		mov	r0, r5
 2327 008e 4146     		mov	r1, r8
 2328 0090 3A46     		mov	r2, r7
 2329 0092 FF23     		movs	r3, #255
 2330              		.loc 1 1215 0
ARM GAS  /tmp/ccuCtRWT.s 			page 42


 2331 0094 AEF89040 		strh	r4, [lr, #144]	@ movhi
 2332              		.loc 1 1218 0
 2333 0098 FFF7FEFF 		bl	ip_output
 2334              	.LVL266:
 2335              		.loc 1 1219 0
 2336 009c 2846     		mov	r0, r5
 2337              		.loc 1 1221 0
 2338 009e 02B0     		add	sp, sp, #8
 2339 00a0 BDE8F047 		pop	{r4, r5, r6, r7, r8, r9, sl, lr}
 2340              		.loc 1 1219 0
 2341 00a4 FFF7FEBF 		b	pbuf_free
 2342              	.LVL267:
 2343              	.L321:
 2344              		.loc 1 1198 0 discriminator 1
 2345 00a8 FFF7FEFF 		bl	port_halt
 2346              	.LVL268:
 2347 00ac BEE7     		b	.L320
 2348              	.LVL269:
 2349              	.L318:
 2350              		.loc 1 1221 0
 2351 00ae 02B0     		add	sp, sp, #8
 2352 00b0 BDE8F087 		pop	{r4, r5, r6, r7, r8, r9, sl, pc}
 2353              	.L323:
 2354              		.align	2
 2355              	.L322:
 2356 00b4 00000000 		.word	lwip_stats
 2357              		.cfi_endproc
 2358              	.LFE17:
 2359              		.size	tcp_rst, .-tcp_rst
 2360 00b8 AFF30080 		.section	.text.tcp_rexmit_rto,"ax",%progbits
 2360      AFF30080 
 2361              		.align	2
 2362              		.p2align 4,,15
 2363              		.global	tcp_rexmit_rto
 2364              		.thumb
 2365              		.thumb_func
 2366              		.type	tcp_rexmit_rto, %function
 2367              	tcp_rexmit_rto:
 2368              	.LFB18:
 2369              		.loc 1 1232 0
 2370              		.cfi_startproc
 2371              		@ args = 0, pretend = 0, frame = 0
 2372              		@ frame_needed = 0, uses_anonymous_args = 0
 2373              		@ link register save eliminated.
 2374              	.LVL270:
 2375              		.loc 1 1235 0
 2376 0000 816F     		ldr	r1, [r0, #120]
 2377              		.loc 1 1232 0
 2378 0002 10B4     		push	{r4}
 2379              	.LCFI14:
 2380              		.cfi_def_cfa_offset 4
 2381              		.cfi_offset 4, -4
 2382              		.loc 1 1235 0
 2383 0004 91B1     		cbz	r1, .L324
 2384              		.loc 1 1235 0 is_stmt 0 discriminator 1
 2385 0006 0A46     		mov	r2, r1
 2386 0008 00E0     		b	.L326
ARM GAS  /tmp/ccuCtRWT.s 			page 43


 2387              	.LVL271:
 2388              	.L327:
 2389              		.loc 1 1240 0 is_stmt 1
 2390 000a 1A46     		mov	r2, r3
 2391              	.LVL272:
 2392              	.L326:
 2393              		.loc 1 1240 0 is_stmt 0 discriminator 1
 2394 000c 1368     		ldr	r3, [r2, #0]
 2395 000e 002B     		cmp	r3, #0
 2396 0010 FBD1     		bne	.L327
 2397              		.loc 1 1242 0 is_stmt 1
 2398 0012 446F     		ldr	r4, [r0, #116]
 2399 0014 1460     		str	r4, [r2, #0]
 2400              		.loc 1 1249 0
 2401 0016 90F84A20 		ldrb	r2, [r0, #74]	@ zero_extendqisi2
 2402              	.LVL273:
 2403              		.loc 1 1244 0
 2404 001a 4167     		str	r1, [r0, #116]
 2405              		.loc 1 1249 0
 2406 001c 0132     		adds	r2, r2, #1
 2407              		.loc 1 1246 0
 2408 001e 8367     		str	r3, [r0, #120]
 2409              		.loc 1 1249 0
 2410 0020 80F84A20 		strb	r2, [r0, #74]
 2411              		.loc 1 1252 0
 2412 0024 C363     		str	r3, [r0, #60]
 2413              		.loc 1 1256 0
 2414 0026 10BC     		pop	{r4}
 2415              		.loc 1 1255 0
 2416 0028 FFF7FEBF 		b	tcp_output
 2417              	.LVL274:
 2418              	.L324:
 2419              		.loc 1 1256 0
 2420 002c 10BC     		pop	{r4}
 2421 002e 7047     		bx	lr
 2422              		.cfi_endproc
 2423              	.LFE18:
 2424              		.size	tcp_rexmit_rto, .-tcp_rexmit_rto
 2425              		.section	.text.tcp_rexmit,"ax",%progbits
 2426              		.align	2
 2427              		.p2align 4,,15
 2428              		.global	tcp_rexmit
 2429              		.thumb
 2430              		.thumb_func
 2431              		.type	tcp_rexmit, %function
 2432              	tcp_rexmit:
 2433              	.LFB19:
 2434              		.loc 1 1267 0
 2435              		.cfi_startproc
 2436              		@ args = 0, pretend = 0, frame = 0
 2437              		@ frame_needed = 0, uses_anonymous_args = 0
 2438              	.LVL275:
 2439 0000 F8B5     		push	{r3, r4, r5, r6, r7, lr}
 2440              	.LCFI15:
 2441              		.cfi_def_cfa_offset 24
 2442              		.cfi_offset 3, -24
 2443              		.cfi_offset 4, -20
ARM GAS  /tmp/ccuCtRWT.s 			page 44


 2444              		.cfi_offset 5, -16
 2445              		.cfi_offset 6, -12
 2446              		.cfi_offset 7, -8
 2447              		.cfi_offset 14, -4
 2448              		.loc 1 1271 0
 2449 0002 866F     		ldr	r6, [r0, #120]
 2450              		.loc 1 1267 0
 2451 0004 0746     		mov	r7, r0
 2452              		.loc 1 1271 0
 2453 0006 FEB1     		cbz	r6, .L328
 2454              	.LVL276:
 2455              		.loc 1 1278 0
 2456 0008 3268     		ldr	r2, [r6, #0]
 2457              		.loc 1 1281 0
 2458 000a 436F     		ldr	r3, [r0, #116]
 2459              		.loc 1 1278 0
 2460 000c 8267     		str	r2, [r0, #120]
 2461              		.loc 1 1280 0
 2462 000e 00F17404 		add	r4, r0, #116
 2463              	.LVL277:
 2464              		.loc 1 1281 0
 2465 0012 1BB9     		cbnz	r3, .L336
 2466 0014 0FE0     		b	.L331
 2467              	.LVL278:
 2468              	.L333:
 2469              		.loc 1 1283 0
 2470 0016 2468     		ldr	r4, [r4, #0]
 2471              	.LVL279:
 2472              		.loc 1 1281 0
 2473 0018 2368     		ldr	r3, [r4, #0]
 2474 001a 63B1     		cbz	r3, .L331
 2475              	.L336:
 2476              		.loc 1 1282 0 discriminator 2
 2477 001c DB68     		ldr	r3, [r3, #12]
 2478 001e 5868     		ldr	r0, [r3, #4]	@ unaligned
 2479 0020 FFF7FEFF 		bl	lwip_ntohl
 2480              	.LVL280:
 2481 0024 F368     		ldr	r3, [r6, #12]
 2482 0026 0546     		mov	r5, r0
 2483 0028 5868     		ldr	r0, [r3, #4]	@ unaligned
 2484 002a FFF7FEFF 		bl	lwip_ntohl
 2485              	.LVL281:
 2486 002e 281A     		subs	r0, r5, r0
 2487              		.loc 1 1281 0 discriminator 2
 2488 0030 0028     		cmp	r0, #0
 2489 0032 F0DB     		blt	.L333
 2490 0034 2368     		ldr	r3, [r4, #0]
 2491              	.L331:
 2492              		.loc 1 1285 0
 2493 0036 3360     		str	r3, [r6, #0]
 2494              		.loc 1 1286 0
 2495 0038 2660     		str	r6, [r4, #0]
 2496              		.loc 1 1288 0
 2497 003a 97F84A30 		ldrb	r3, [r7, #74]	@ zero_extendqisi2
 2498 003e 0133     		adds	r3, r3, #1
 2499 0040 87F84A30 		strb	r3, [r7, #74]
 2500              		.loc 1 1291 0
ARM GAS  /tmp/ccuCtRWT.s 			page 45


 2501 0044 0023     		movs	r3, #0
 2502 0046 FB63     		str	r3, [r7, #60]
 2503              	.LVL282:
 2504              	.L328:
 2505 0048 F8BD     		pop	{r3, r4, r5, r6, r7, pc}
 2506              		.cfi_endproc
 2507              	.LFE19:
 2508              		.size	tcp_rexmit, .-tcp_rexmit
 2509 004a 00BFAFF3 		.section	.text.tcp_rexmit_fast,"ax",%progbits
 2509      0080
 2510              		.align	2
 2511              		.p2align 4,,15
 2512              		.global	tcp_rexmit_fast
 2513              		.thumb
 2514              		.thumb_func
 2515              		.type	tcp_rexmit_fast, %function
 2516              	tcp_rexmit_fast:
 2517              	.LFB20:
 2518              		.loc 1 1307 0
 2519              		.cfi_startproc
 2520              		@ args = 0, pretend = 0, frame = 0
 2521              		@ frame_needed = 0, uses_anonymous_args = 0
 2522              	.LVL283:
 2523              		.loc 1 1308 0
 2524 0000 836F     		ldr	r3, [r0, #120]
 2525              		.loc 1 1307 0
 2526 0002 10B5     		push	{r4, lr}
 2527              	.LCFI16:
 2528              		.cfi_def_cfa_offset 8
 2529              		.cfi_offset 4, -8
 2530              		.cfi_offset 14, -4
 2531              		.loc 1 1307 0
 2532 0004 0446     		mov	r4, r0
 2533              		.loc 1 1308 0
 2534 0006 2BB1     		cbz	r3, .L339
 2535              		.loc 1 1308 0 is_stmt 0 discriminator 1
 2536 0008 90F82030 		ldrb	r3, [r0, #32]	@ zero_extendqisi2
 2537 000c 03F00403 		and	r3, r3, #4
 2538 0010 DBB2     		uxtb	r3, r3
 2539 0012 03B1     		cbz	r3, .L347
 2540              	.L339:
 2541 0014 10BD     		pop	{r4, pc}
 2542              	.L347:
 2543              		.loc 1 1315 0 is_stmt 1
 2544 0016 FFF7FEFF 		bl	tcp_rexmit
 2545              	.LVL284:
 2546              		.loc 1 1319 0
 2547 001a B4F85230 		ldrh	r3, [r4, #82]
 2548 001e B4F85C20 		ldrh	r2, [r4, #92]
 2549 0022 9342     		cmp	r3, r2
 2550 0024 15D8     		bhi	.L348
 2551              		.loc 1 1322 0
 2552 0026 5B08     		lsrs	r3, r3, #1
 2553 0028 A4F85430 		strh	r3, [r4, #84]	@ movhi
 2554              	.L342:
 2555              		.loc 1 1326 0
 2556 002c 218F     		ldrh	r1, [r4, #56]
ARM GAS  /tmp/ccuCtRWT.s 			page 46


 2557              		.loc 1 1335 0
 2558 002e 94F82000 		ldrb	r0, [r4, #32]	@ zero_extendqisi2
 2559              		.loc 1 1326 0
 2560 0032 4A00     		lsls	r2, r1, #1
 2561 0034 9342     		cmp	r3, r2
 2562              		.loc 1 1331 0
 2563 0036 B8BF     		it	lt
 2564 0038 93B2     		uxthlt	r3, r2
 2565              		.loc 1 1334 0
 2566 003a 0A44     		add	r2, r2, r1
 2567              		.loc 1 1331 0
 2568 003c B8BF     		it	lt
 2569 003e A4F85430 		strhlt	r3, [r4, #84]	@ movhi
 2570              		.loc 1 1335 0
 2571 0042 40F00400 		orr	r0, r0, #4
 2572              		.loc 1 1334 0
 2573 0046 9B18     		adds	r3, r3, r2
 2574 0048 A4F85230 		strh	r3, [r4, #82]	@ movhi
 2575              		.loc 1 1335 0
 2576 004c 84F82000 		strb	r0, [r4, #32]
 2577 0050 10BD     		pop	{r4, pc}
 2578              	.L348:
 2579              		.loc 1 1320 0
 2580 0052 5308     		lsrs	r3, r2, #1
 2581 0054 A4F85430 		strh	r3, [r4, #84]	@ movhi
 2582 0058 E8E7     		b	.L342
 2583              		.cfi_endproc
 2584              	.LFE20:
 2585              		.size	tcp_rexmit_fast, .-tcp_rexmit_fast
 2586 005a 00BFAFF3 		.section	.text.tcp_keepalive,"ax",%progbits
 2586      0080
 2587              		.align	2
 2588              		.p2align 4,,15
 2589              		.global	tcp_keepalive
 2590              		.thumb
 2591              		.thumb_func
 2592              		.type	tcp_keepalive, %function
 2593              	tcp_keepalive:
 2594              	.LFB21:
 2595              		.loc 1 1350 0
 2596              		.cfi_startproc
 2597              		@ args = 0, pretend = 0, frame = 0
 2598              		@ frame_needed = 0, uses_anonymous_args = 0
 2599              	.LVL285:
 2600 0000 F0B5     		push	{r4, r5, r6, r7, lr}
 2601              	.LCFI17:
 2602              		.cfi_def_cfa_offset 20
 2603              		.cfi_offset 4, -20
 2604              		.cfi_offset 5, -16
 2605              		.cfi_offset 6, -12
 2606              		.cfi_offset 7, -8
 2607              		.cfi_offset 14, -4
 2608 0002 0446     		mov	r4, r0
 2609              		.loc 1 1361 0
 2610 0004 806D     		ldr	r0, [r0, #88]
 2611              	.LVL286:
 2612              		.loc 1 1350 0
ARM GAS  /tmp/ccuCtRWT.s 			page 47


 2613 0006 83B0     		sub	sp, sp, #12
 2614              	.LCFI18:
 2615              		.cfi_def_cfa_offset 32
 2616              		.loc 1 1361 0
 2617 0008 0138     		subs	r0, r0, #1
 2618 000a FFF7FEFF 		bl	lwip_htonl
 2619              	.LVL287:
 2620 000e 0021     		movs	r1, #0
 2621 0010 0246     		mov	r2, r0
 2622 0012 2046     		mov	r0, r4
 2623 0014 FFF7FEFF 		bl	tcp_output_alloc_header.constprop.0
 2624              	.LVL288:
 2625              		.loc 1 1362 0
 2626 0018 0546     		mov	r5, r0
 2627 001a 00B3     		cbz	r0, .L349
 2628              		.loc 1 1370 0
 2629 001c 0389     		ldrh	r3, [r0, #8]
 2630              		.loc 1 1367 0
 2631 001e 4768     		ldr	r7, [r0, #4]
 2632              	.LVL289:
 2633              		.loc 1 1370 0
 2634 0020 0093     		str	r3, [sp, #0]
 2635 0022 261D     		adds	r6, r4, #4
 2636 0024 2146     		mov	r1, r4
 2637 0026 3246     		mov	r2, r6
 2638 0028 0623     		movs	r3, #6
 2639 002a FFF7FEFF 		bl	inet_chksum_pseudo
 2640              	.LVL290:
 2641              		.loc 1 1373 0
 2642 002e 0D4B     		ldr	r3, .L351
 2643              		.loc 1 1370 0
 2644 0030 3882     		strh	r0, [r7, #16]	@ unaligned
 2645              		.loc 1 1373 0
 2646 0032 B3F89020 		ldrh	r2, [r3, #144]
 2647 0036 0132     		adds	r2, r2, #1
 2648 0038 A3F89020 		strh	r2, [r3, #144]	@ movhi
 2649              		.loc 1 1380 0
 2650 003c 4FF0060E 		mov	lr, #6
 2651 0040 0022     		movs	r2, #0
 2652 0042 A37A     		ldrb	r3, [r4, #10]	@ zero_extendqisi2
 2653 0044 2846     		mov	r0, r5
 2654 0046 8DE80440 		stmia	sp, {r2, lr}
 2655 004a 2146     		mov	r1, r4
 2656 004c 3246     		mov	r2, r6
 2657 004e FFF7FEFF 		bl	ip_output
 2658              	.LVL291:
 2659              		.loc 1 1383 0
 2660 0052 2846     		mov	r0, r5
 2661              		.loc 1 1387 0
 2662 0054 03B0     		add	sp, sp, #12
 2663 0056 BDE8F040 		pop	{r4, r5, r6, r7, lr}
 2664              		.loc 1 1383 0
 2665 005a FFF7FEBF 		b	pbuf_free
 2666              	.LVL292:
 2667              	.L349:
 2668              		.loc 1 1387 0
 2669 005e 03B0     		add	sp, sp, #12
ARM GAS  /tmp/ccuCtRWT.s 			page 48


 2670 0060 F0BD     		pop	{r4, r5, r6, r7, pc}
 2671              	.L352:
 2672 0062 00BF     		.align	2
 2673              	.L351:
 2674 0064 00000000 		.word	lwip_stats
 2675              		.cfi_endproc
 2676              	.LFE21:
 2677              		.size	tcp_keepalive, .-tcp_keepalive
 2678 0068 AFF30080 		.section	.text.tcp_zero_window_probe,"ax",%progbits
 2678      AFF30080 
 2679              		.align	2
 2680              		.p2align 4,,15
 2681              		.global	tcp_zero_window_probe
 2682              		.thumb
 2683              		.thumb_func
 2684              		.type	tcp_zero_window_probe, %function
 2685              	tcp_zero_window_probe:
 2686              	.LFB22:
 2687              		.loc 1 1400 0
 2688              		.cfi_startproc
 2689              		@ args = 0, pretend = 0, frame = 0
 2690              		@ frame_needed = 0, uses_anonymous_args = 0
 2691              	.LVL293:
 2692 0000 2DE9F041 		push	{r4, r5, r6, r7, r8, lr}
 2693              	.LCFI19:
 2694              		.cfi_def_cfa_offset 24
 2695              		.cfi_offset 4, -24
 2696              		.cfi_offset 5, -20
 2697              		.cfi_offset 6, -16
 2698              		.cfi_offset 7, -12
 2699              		.cfi_offset 8, -8
 2700              		.cfi_offset 14, -4
 2701              		.loc 1 1418 0
 2702 0004 866F     		ldr	r6, [r0, #120]
 2703              	.LVL294:
 2704              		.loc 1 1400 0
 2705 0006 82B0     		sub	sp, sp, #8
 2706              	.LCFI20:
 2707              		.cfi_def_cfa_offset 32
 2708              		.loc 1 1400 0
 2709 0008 0446     		mov	r4, r0
 2710              		.loc 1 1420 0
 2711 000a 002E     		cmp	r6, #0
 2712 000c 5BD0     		beq	.L365
 2713              	.L354:
 2714              		.loc 1 1427 0
 2715 000e F368     		ldr	r3, [r6, #12]
 2716 0010 9889     		ldrh	r0, [r3, #12]	@ unaligned
 2717              	.LVL295:
 2718 0012 FFF7FEFF 		bl	lwip_ntohs
 2719              	.LVL296:
 2720 0016 10F00100 		ands	r0, r0, #1
 2721 001a 37D1     		bne	.L366
 2722 001c 0121     		movs	r1, #1
 2723 001e 8046     		mov	r8, r0
 2724              	.L356:
 2725              	.LVL297:
ARM GAS  /tmp/ccuCtRWT.s 			page 49


 2726              		.loc 1 1431 0 discriminator 4
 2727 0020 F368     		ldr	r3, [r6, #12]
 2728 0022 2046     		mov	r0, r4
 2729 0024 5A68     		ldr	r2, [r3, #4]	@ unaligned
 2730 0026 FFF7FEFF 		bl	tcp_output_alloc_header.constprop.0
 2731              	.LVL298:
 2732              		.loc 1 1432 0 discriminator 4
 2733 002a 0546     		mov	r5, r0
 2734 002c 0028     		cmp	r0, #0
 2735 002e 4DD0     		beq	.L353
 2736              		.loc 1 1436 0
 2737 0030 4768     		ldr	r7, [r0, #4]
 2738              	.LVL299:
 2739              		.loc 1 1438 0
 2740 0032 B8F1000F 		cmp	r8, #0
 2741 0036 34D0     		beq	.L358
 2742              		.loc 1 1440 0
 2743 0038 BB89     		ldrh	r3, [r7, #12]	@ unaligned
 2744 003a 4CF2FF06 		movw	r6, #49407
 2745              	.LVL300:
 2746 003e 1120     		movs	r0, #17
 2747              	.LVL301:
 2748 0040 1E40     		ands	r6, r6, r3
 2749 0042 FFF7FEFF 		bl	lwip_htons
 2750              	.LVL302:
 2751 0046 3043     		orrs	r0, r0, r6
 2752 0048 B881     		strh	r0, [r7, #12]	@ unaligned
 2753              	.L359:
 2754              		.loc 1 1449 0
 2755 004a 2889     		ldrh	r0, [r5, #8]
 2756 004c 261D     		adds	r6, r4, #4
 2757 004e 2146     		mov	r1, r4
 2758 0050 3246     		mov	r2, r6
 2759 0052 0623     		movs	r3, #6
 2760 0054 0090     		str	r0, [sp, #0]
 2761 0056 2846     		mov	r0, r5
 2762 0058 FFF7FEFF 		bl	inet_chksum_pseudo
 2763              	.LVL303:
 2764              		.loc 1 1452 0
 2765 005c 1D4B     		ldr	r3, .L367
 2766              		.loc 1 1449 0
 2767 005e 3882     		strh	r0, [r7, #16]	@ unaligned
 2768              		.loc 1 1452 0
 2769 0060 B3F89020 		ldrh	r2, [r3, #144]
 2770 0064 0132     		adds	r2, r2, #1
 2771 0066 A3F89020 		strh	r2, [r3, #144]	@ movhi
 2772              		.loc 1 1459 0
 2773 006a 4FF0060C 		mov	ip, #6
 2774 006e 0022     		movs	r2, #0
 2775 0070 A37A     		ldrb	r3, [r4, #10]	@ zero_extendqisi2
 2776 0072 2846     		mov	r0, r5
 2777 0074 8DE80410 		stmia	sp, {r2, ip}
 2778 0078 2146     		mov	r1, r4
 2779 007a 3246     		mov	r2, r6
 2780 007c FFF7FEFF 		bl	ip_output
 2781              	.LVL304:
 2782              		.loc 1 1462 0
ARM GAS  /tmp/ccuCtRWT.s 			page 50


 2783 0080 2846     		mov	r0, r5
 2784              		.loc 1 1467 0
 2785 0082 02B0     		add	sp, sp, #8
 2786 0084 BDE8F041 		pop	{r4, r5, r6, r7, r8, lr}
 2787              		.loc 1 1462 0
 2788 0088 FFF7FEBF 		b	pbuf_free
 2789              	.LVL305:
 2790              	.L366:
 2791              		.loc 1 1427 0 discriminator 1
 2792 008c 3389     		ldrh	r3, [r6, #8]
 2793 008e 002B     		cmp	r3, #0
 2794 0090 0CBF     		ite	eq
 2795 0092 0021     		moveq	r1, #0
 2796 0094 0121     		movne	r1, #1
 2797 0096 14BF     		ite	ne
 2798 0098 4FF00008 		movne	r8, #0
 2799 009c 4FF00108 		moveq	r8, #1
 2800 00a0 BEE7     		b	.L356
 2801              	.LVL306:
 2802              	.L358:
 2803              	.LBB50:
 2804              		.loc 1 1443 0
 2805 00a2 7668     		ldr	r6, [r6, #4]
 2806              	.LVL307:
 2807              		.loc 1 1445 0
 2808 00a4 7368     		ldr	r3, [r6, #4]
 2809 00a6 9889     		ldrh	r0, [r3, #12]	@ unaligned
 2810              	.LVL308:
 2811 00a8 FFF7FEFF 		bl	lwip_ntohs
 2812              	.LVL309:
 2813 00ac 4FF6FC73 		movw	r3, #65532
 2814 00b0 4FEA902E 		lsr	lr, r0, #10
 2815 00b4 07F11401 		add	r1, r7, #20
 2816              	.LVL310:
 2817 00b8 3046     		mov	r0, r6
 2818 00ba 0122     		movs	r2, #1
 2819 00bc 0EEA0303 		and	r3, lr, r3
 2820 00c0 FFF7FEFF 		bl	pbuf_copy_partial
 2821              	.LVL311:
 2822 00c4 C1E7     		b	.L359
 2823              	.LVL312:
 2824              	.L365:
 2825              	.LBE50:
 2826              		.loc 1 1421 0
 2827 00c6 466F     		ldr	r6, [r0, #116]
 2828              	.LVL313:
 2829              		.loc 1 1423 0
 2830 00c8 002E     		cmp	r6, #0
 2831 00ca A0D1     		bne	.L354
 2832              	.LVL314:
 2833              	.L353:
 2834              		.loc 1 1467 0
 2835 00cc 02B0     		add	sp, sp, #8
 2836 00ce BDE8F081 		pop	{r4, r5, r6, r7, r8, pc}
 2837              	.L368:
 2838 00d2 00BF     		.align	2
 2839              	.L367:
ARM GAS  /tmp/ccuCtRWT.s 			page 51


 2840 00d4 00000000 		.word	lwip_stats
 2841              		.cfi_endproc
 2842              	.LFE22:
 2843              		.size	tcp_zero_window_probe, .-tcp_zero_window_probe
 2844 00d8 AFF30080 		.text
 2844      AFF30080 
 2845              	.Letext0:
 2846              		.file 2 "/opt/psas/x-tools/stm32f407/arm-psas-eabi/bin/../lib/gcc/arm-psas-eabi/4.7.2/../../../../
 2847              		.file 3 "../../os/various/lwip_bindings/arch/cc.h"
 2848              		.file 4 "../../ext/lwip/src/include/lwip/err.h"
 2849              		.file 5 "../../ext/lwip/src/include/lwip/mem.h"
 2850              		.file 6 "../../ext/lwip/src/include/lwip/pbuf.h"
 2851              		.file 7 "../../ext/lwip/src/include/ipv4/lwip/ip_addr.h"
 2852              		.file 8 "../../ext/lwip/src/include/lwip/netif.h"
 2853              		.file 9 "../../ext/lwip/src/include/lwip/tcp.h"
 2854              		.file 10 "../../ext/lwip/src/include/lwip/tcp_impl.h"
 2855              		.file 11 "../../ext/lwip/src/include/lwip/memp.h"
 2856              		.file 12 "../../ext/lwip/src/include/lwip/stats.h"
 2857              		.file 13 "../../ext/lwip/src/include/lwip/def.h"
 2858              		.file 14 "../../ext/lwip/src/include/ipv4/lwip/inet_chksum.h"
 2859              		.file 15 "../../ext/lwip/src/include/ipv4/lwip/ip.h"
 2860              		.file 16 "../../os/ports/GCC/ARMCMx/chcore_v7m.h"