ARM GAS  /tmp/ccuCtRWT.s 			page 1


   1              		.syntax unified
   2              		.cpu cortex-m4
   3              		.eabi_attribute 27, 3
   4              		.eabi_attribute 28, 1
   5              		.fpu fpv4-sp-d16
   6              		.eabi_attribute 20, 1
   7              		.eabi_attribute 21, 1
   8              		.eabi_attribute 23, 3
   9              		.eabi_attribute 24, 1
  10              		.eabi_attribute 25, 1
  11              		.eabi_attribute 26, 1
  12              		.eabi_attribute 30, 2
  13              		.eabi_attribute 34, 1
  14              		.eabi_attribute 18, 4
  15              		.thumb
  16              		.file	"tcp_out.c"
  17              		.text
  18              	.Ltext0:
  19              		.cfi_sections	.debug_frame
  20              		.section	.text.tcp_pbuf_prealloc,"ax",%progbits
  21              		.align	2
  22              		.p2align 4,,15
  23              		.thumb
  24              		.thumb_func
  25              		.type	tcp_pbuf_prealloc, %function
  26              	tcp_pbuf_prealloc:
  27              	.LFB10:
  28              		.file 1 "../../ext/lwip/src/core/tcp_out.c"
  29              		.loc 1 219 0
  30              		.cfi_startproc
  31              		@ args = 12, pretend = 0, frame = 0
  32              		@ frame_needed = 0, uses_anonymous_args = 0
  33              	.LVL0:
  34              		.loc 1 231 0
  35 0000 9142     		cmp	r1, r2
  36              		.loc 1 219 0
  37 0002 70B5     		push	{r4, r5, r6, lr}
  38              	.LCFI0:
  39              		.cfi_def_cfa_offset 16
  40              		.cfi_offset 4, -16
  41              		.cfi_offset 5, -12
  42              		.cfi_offset 6, -8
  43              		.cfi_offset 14, -4
  44              		.loc 1 219 0
  45 0004 0D46     		mov	r5, r1
  46              	.LVL1:
  47 0006 1E46     		mov	r6, r3
  48              		.loc 1 231 0
  49 0008 15D2     		bcs	.L8
  50              		.loc 1 243 0
  51 000a 9DF81430 		ldrb	r3, [sp, #20]	@ zero_extendqisi2
  52              	.LVL2:
  53 000e 03F00203 		and	r3, r3, #2
  54 0012 DBB2     		uxtb	r3, r3
  55 0014 43B1     		cbz	r3, .L19
  56              	.LVL3:
  57              	.L3:
ARM GAS  /tmp/ccuCtRWT.s 			page 2


  58              		.loc 1 248 0
  59 0016 05F21B21 		addw	r1, r5, #539
  60 001a 21F00301 		bic	r1, r1, #3
  61 001e 9142     		cmp	r1, r2
  62 0020 B8BF     		it	lt
  63 0022 0A46     		movlt	r2, r1
  64              	.LVL4:
  65 0024 91B2     		uxth	r1, r2
  66              	.LVL5:
  67 0026 07E0     		b	.L2
  68              	.LVL6:
  69              	.L19:
  70              		.loc 1 244 0 discriminator 1
  71 0028 0499     		ldr	r1, [sp, #16]
  72              	.LVL7:
  73 002a 91F82030 		ldrb	r3, [r1, #32]	@ zero_extendqisi2
  74              		.loc 1 243 0 discriminator 1
  75 002e 03F04003 		and	r3, r3, #64
  76 0032 DBB2     		uxtb	r3, r3
  77 0034 83B1     		cbz	r3, .L20
  78              	.L8:
  79              		.loc 1 246 0
  80 0036 2946     		mov	r1, r5
  81              	.LVL8:
  82              	.L2:
  83              		.loc 1 252 0
  84 0038 0022     		movs	r2, #0
  85 003a FFF7FEFF 		bl	pbuf_alloc
  86              	.LVL9:
  87              		.loc 1 253 0
  88 003e 0446     		mov	r4, r0
  89 0040 40B1     		cbz	r0, .L4
  90              		.loc 1 256 0
  91 0042 0368     		ldr	r3, [r0, #0]
  92 0044 0BB1     		cbz	r3, .L5
  93              		.loc 1 256 0 is_stmt 0 discriminator 1
  94 0046 FFF7FEFF 		bl	port_halt
  95              	.LVL10:
  96              	.L5:
  97              		.loc 1 257 0 is_stmt 1
  98 004a 6389     		ldrh	r3, [r4, #10]
  99 004c 5B1B     		subs	r3, r3, r5
 100 004e 3380     		strh	r3, [r6, #0]	@ movhi
 101              		.loc 1 259 0
 102 0050 2581     		strh	r5, [r4, #8]	@ movhi
 103 0052 6581     		strh	r5, [r4, #10]	@ movhi
 104              	.L4:
 105              		.loc 1 261 0
 106 0054 2046     		mov	r0, r4
 107 0056 70BD     		pop	{r4, r5, r6, pc}
 108              	.LVL11:
 109              	.L20:
 110              		.loc 1 244 0
 111 0058 9DF81830 		ldrb	r3, [sp, #24]	@ zero_extendqisi2
 112 005c 002B     		cmp	r3, #0
 113 005e DAD0     		beq	.L3
 114              		.loc 1 245 0
ARM GAS  /tmp/ccuCtRWT.s 			page 3


 115 0060 4B6F     		ldr	r3, [r1, #116]
 116 0062 002B     		cmp	r3, #0
 117 0064 D7D1     		bne	.L3
 118              		.loc 1 246 0
 119 0066 8B6F     		ldr	r3, [r1, #120]
 120 0068 002B     		cmp	r3, #0
 121 006a D4D1     		bne	.L3
 122 006c E3E7     		b	.L8
 123              		.cfi_endproc
 124              	.LFE10:
 125              		.size	tcp_pbuf_prealloc, .-tcp_pbuf_prealloc
 126 006e 00BF     		.section	.text.tcp_create_segment,"ax",%progbits
 127              		.align	2
 128              		.p2align 4,,15
 129              		.thumb
 130              		.thumb_func
 131              		.type	tcp_create_segment, %function
 132              	tcp_create_segment:
 133              	.LFB9:
 134              		.loc 1 157 0
 135              		.cfi_startproc
 136              		@ args = 4, pretend = 0, frame = 0
 137              		@ frame_needed = 0, uses_anonymous_args = 0
 138              	.LVL12:
 139 0000 2DE9F84F 		push	{r3, r4, r5, r6, r7, r8, r9, sl, fp, lr}
 140              	.LCFI1:
 141              		.cfi_def_cfa_offset 40
 142              		.cfi_offset 3, -40
 143              		.cfi_offset 4, -36
 144              		.cfi_offset 5, -32
 145              		.cfi_offset 6, -28
 146              		.cfi_offset 7, -24
 147              		.cfi_offset 8, -20
 148              		.cfi_offset 9, -16
 149              		.cfi_offset 10, -12
 150              		.cfi_offset 11, -8
 151              		.cfi_offset 14, -4
 152              		.loc 1 157 0
 153 0004 9DF82850 		ldrb	r5, [sp, #40]	@ zero_extendqisi2
 154              		.loc 1 159 0
 155 0008 15F0010F 		tst	r5, #1
 156 000c 0CBF     		ite	eq
 157 000e 0024     		moveq	r4, #0
 158 0010 0424     		movne	r4, #4
 159              		.loc 1 157 0
 160 0012 8046     		mov	r8, r0
 161              		.loc 1 161 0
 162 0014 0420     		movs	r0, #4
 163              	.LVL13:
 164              		.loc 1 159 0
 165 0016 05F00207 		and	r7, r5, #2
 166              		.loc 1 157 0
 167 001a 0E46     		mov	r6, r1
 168 001c 9146     		mov	r9, r2
 169 001e 9A46     		mov	sl, r3
 170              		.loc 1 161 0
 171 0020 FFF7FEFF 		bl	memp_malloc
ARM GAS  /tmp/ccuCtRWT.s 			page 4


 172              	.LVL14:
 173              		.loc 1 159 0
 174 0024 FFB2     		uxtb	r7, r7
 175 0026 002F     		cmp	r7, #0
 176 0028 14BF     		ite	ne
 177 002a 0C27     		movne	r7, #12
 178 002c 0027     		moveq	r7, #0
 179 002e 3F19     		adds	r7, r7, r4
 180              	.LVL15:
 181              		.loc 1 161 0
 182 0030 0446     		mov	r4, r0
 183 0032 0028     		cmp	r0, #0
 184 0034 3BD0     		beq	.L29
 185              		.loc 1 166 0
 186 0036 8572     		strb	r5, [r0, #10]
 187              		.loc 1 169 0
 188 0038 3389     		ldrh	r3, [r6, #8]
 189              		.loc 1 168 0
 190 003a 4660     		str	r6, [r0, #4]
 191              		.loc 1 169 0
 192 003c DB1B     		subs	r3, r3, r7
 193              		.loc 1 167 0
 194 003e 4FF0000B 		mov	fp, #0
 195 0042 C0F800B0 		str	fp, [r0, #0]
 196              		.loc 1 169 0
 197 0046 0381     		strh	r3, [r0, #8]	@ movhi
 198              		.loc 1 182 0
 199 0048 1421     		movs	r1, #20
 200 004a 3046     		mov	r0, r6
 201              	.LVL16:
 202 004c FFF7FEFF 		bl	pbuf_header
 203              	.LVL17:
 204 0050 0546     		mov	r5, r0
 205 0052 08BB     		cbnz	r0, .L30
 206              		.loc 1 188 0
 207 0054 6368     		ldr	r3, [r4, #4]
 208              		.loc 1 189 0
 209 0056 B8F81C00 		ldrh	r0, [r8, #28]
 210              		.loc 1 188 0
 211 005a 5E68     		ldr	r6, [r3, #4]
 212              	.LVL18:
 213 005c E660     		str	r6, [r4, #12]
 214              		.loc 1 189 0
 215 005e FFF7FEFF 		bl	lwip_htons
 216              	.LVL19:
 217 0062 3080     		strh	r0, [r6, #0]	@ unaligned
 218              		.loc 1 190 0
 219 0064 B8F81E00 		ldrh	r0, [r8, #30]
 220 0068 E668     		ldr	r6, [r4, #12]
 221 006a FFF7FEFF 		bl	lwip_htons
 222              	.LVL20:
 223 006e 7080     		strh	r0, [r6, #2]	@ unaligned
 224              		.loc 1 191 0
 225 0070 5046     		mov	r0, sl
 226 0072 E668     		ldr	r6, [r4, #12]
 227 0074 FFF7FEFF 		bl	lwip_htonl
 228              	.LVL21:
ARM GAS  /tmp/ccuCtRWT.s 			page 5


 229              		.loc 1 193 0
 230 0078 BF02     		lsls	r7, r7, #10
 231              	.LVL22:
 232 007a 07F5A047 		add	r7, r7, #20480
 233              		.loc 1 191 0
 234 007e 7060     		str	r0, [r6, #4]	@ unaligned
 235              		.loc 1 193 0
 236 0080 47EA0900 		orr	r0, r7, r9
 237 0084 E668     		ldr	r6, [r4, #12]
 238 0086 FFF7FEFF 		bl	lwip_htons
 239              	.LVL23:
 240 008a B081     		strh	r0, [r6, #12]	@ unaligned
 241              		.loc 1 195 0
 242 008c E368     		ldr	r3, [r4, #12]
 243 008e 9D74     		strb	r5, [r3, #18]
 244 0090 DD74     		strb	r5, [r3, #19]
 245              	.LVL24:
 246              	.L25:
 247              		.loc 1 197 0
 248 0092 2046     		mov	r0, r4
 249 0094 BDE8F88F 		pop	{r3, r4, r5, r6, r7, r8, r9, sl, fp, pc}
 250              	.LVL25:
 251              	.L30:
 252              		.loc 1 184 0
 253 0098 074B     		ldr	r3, .L31
 254 009a B3F8A420 		ldrh	r2, [r3, #164]
 255              		.loc 1 185 0
 256 009e 2046     		mov	r0, r4
 257              		.loc 1 184 0
 258 00a0 0132     		adds	r2, r2, #1
 259 00a2 A3F8A420 		strh	r2, [r3, #164]	@ movhi
 260              		.loc 1 186 0
 261 00a6 5C46     		mov	r4, fp
 262              	.LVL26:
 263              		.loc 1 185 0
 264 00a8 FFF7FEFF 		bl	tcp_seg_free
 265              	.LVL27:
 266              		.loc 1 186 0
 267 00ac F1E7     		b	.L25
 268              	.LVL28:
 269              	.L29:
 270              		.loc 1 163 0
 271 00ae 3046     		mov	r0, r6
 272              	.LVL29:
 273 00b0 FFF7FEFF 		bl	pbuf_free
 274              	.LVL30:
 275              		.loc 1 164 0
 276 00b4 EDE7     		b	.L25
 277              	.L32:
 278 00b6 00BF     		.align	2
 279              	.L31:
 280 00b8 00000000 		.word	lwip_stats
 281              		.cfi_endproc
 282              	.LFE9:
 283              		.size	tcp_create_segment, .-tcp_create_segment
 284 00bc AFF30080 		.section	.text.tcp_output_alloc_header.constprop.0,"ax",%progbits
 285              		.align	2
ARM GAS  /tmp/ccuCtRWT.s 			page 6


 286              		.p2align 4,,15
 287              		.thumb
 288              		.thumb_func
 289              		.type	tcp_output_alloc_header.constprop.0, %function
 290              	tcp_output_alloc_header.constprop.0:
 291              	.LFB23:
 292              		.loc 1 92 0
 293              		.cfi_startproc
 294              		@ args = 0, pretend = 0, frame = 0
 295              		@ frame_needed = 0, uses_anonymous_args = 0
 296              	.LVL31:
 297              		.loc 1 96 0
 298 0000 1431     		adds	r1, r1, #20
 299              	.LVL32:
 300              		.loc 1 92 0
 301 0002 F8B5     		push	{r3, r4, r5, r6, r7, lr}
 302              	.LCFI2:
 303              		.cfi_def_cfa_offset 24
 304              		.cfi_offset 3, -24
 305              		.cfi_offset 4, -20
 306              		.cfi_offset 5, -16
 307              		.cfi_offset 6, -12
 308              		.cfi_offset 7, -8
 309              		.cfi_offset 14, -4
 310              		.loc 1 96 0
 311 0004 89B2     		uxth	r1, r1
 312              		.loc 1 92 0
 313 0006 0546     		mov	r5, r0
 314 0008 1746     		mov	r7, r2
 315              		.loc 1 96 0
 316 000a 0120     		movs	r0, #1
 317              	.LVL33:
 318 000c 0022     		movs	r2, #0
 319              	.LVL34:
 320 000e FFF7FEFF 		bl	pbuf_alloc
 321              	.LVL35:
 322              		.loc 1 97 0
 323 0012 0646     		mov	r6, r0
 324 0014 10B3     		cbz	r0, .L34
 325              		.loc 1 98 0
 326 0016 4389     		ldrh	r3, [r0, #10]
 327 0018 132B     		cmp	r3, #19
 328 001a 21DD     		ble	.L39
 329              	.LVL36:
 330              	.L35:
 331              		.loc 1 101 0
 332 001c A88B     		ldrh	r0, [r5, #28]
 333              		.loc 1 100 0
 334 001e 7468     		ldr	r4, [r6, #4]
 335              	.LVL37:
 336              		.loc 1 101 0
 337 0020 FFF7FEFF 		bl	lwip_htons
 338              	.LVL38:
 339 0024 2080     		strh	r0, [r4, #0]	@ unaligned
 340              		.loc 1 102 0
 341 0026 E88B     		ldrh	r0, [r5, #30]
 342 0028 FFF7FEFF 		bl	lwip_htons
ARM GAS  /tmp/ccuCtRWT.s 			page 7


 343              	.LVL39:
 344              		.loc 1 103 0
 345 002c 6760     		str	r7, [r4, #4]	@ unaligned
 346              		.loc 1 102 0
 347 002e 6080     		strh	r0, [r4, #2]	@ unaligned
 348              		.loc 1 104 0
 349 0030 686A     		ldr	r0, [r5, #36]
 350 0032 FFF7FEFF 		bl	lwip_htonl
 351              	.LVL40:
 352 0036 A060     		str	r0, [r4, #8]	@ unaligned
 353              		.loc 1 105 0
 354 0038 45F21000 		movw	r0, #20496
 355 003c FFF7FEFF 		bl	lwip_htons
 356              	.LVL41:
 357 0040 A081     		strh	r0, [r4, #12]	@ unaligned
 358              		.loc 1 106 0
 359 0042 688D     		ldrh	r0, [r5, #42]
 360 0044 FFF7FEFF 		bl	lwip_htons
 361              	.LVL42:
 362              		.loc 1 107 0
 363 0048 0023     		movs	r3, #0
 364              		.loc 1 106 0
 365 004a E081     		strh	r0, [r4, #14]	@ unaligned
 366              		.loc 1 107 0
 367 004c 2374     		strb	r3, [r4, #16]
 368 004e 6374     		strb	r3, [r4, #17]
 369              		.loc 1 108 0
 370 0050 A374     		strb	r3, [r4, #18]
 371 0052 E374     		strb	r3, [r4, #19]
 372              		.loc 1 111 0
 373 0054 6A8D     		ldrh	r2, [r5, #42]
 374 0056 6B6A     		ldr	r3, [r5, #36]
 375 0058 D318     		adds	r3, r2, r3
 376 005a EB62     		str	r3, [r5, #44]
 377              	.LVL43:
 378              	.L34:
 379              		.loc 1 114 0
 380 005c 3046     		mov	r0, r6
 381 005e F8BD     		pop	{r3, r4, r5, r6, r7, pc}
 382              	.LVL44:
 383              	.L39:
 384              		.loc 1 98 0
 385 0060 FFF7FEFF 		bl	port_halt
 386              	.LVL45:
 387 0064 DAE7     		b	.L35
 388              		.cfi_endproc
 389              	.LFE23:
 390              		.size	tcp_output_alloc_header.constprop.0, .-tcp_output_alloc_header.constprop.0
 391 0066 00BFAFF3 		.section	.text.tcp_write,"ax",%progbits
 391      0080AFF3 
 391      0080
 392              		.align	2
 393              		.p2align 4,,15
 394              		.global	tcp_write
 395              		.thumb
 396              		.thumb_func
 397              		.type	tcp_write, %function
ARM GAS  /tmp/ccuCtRWT.s 			page 8


 398              	tcp_write:
 399              	.LFB12:
 400              		.loc 1 352 0
 401              		.cfi_startproc
 402              		@ args = 0, pretend = 0, frame = 40
 403              		@ frame_needed = 0, uses_anonymous_args = 0
 404              	.LVL46:
 405 0000 2DE9F04F 		push	{r4, r5, r6, r7, r8, r9, sl, fp, lr}
 406              	.LCFI3:
 407              		.cfi_def_cfa_offset 36
 408              		.cfi_offset 4, -36
 409              		.cfi_offset 5, -32
 410              		.cfi_offset 6, -28
 411              		.cfi_offset 7, -24
 412              		.cfi_offset 8, -20
 413              		.cfi_offset 9, -16
 414              		.cfi_offset 10, -12
 415              		.cfi_offset 11, -8
 416              		.cfi_offset 14, -4
 417 0004 8FB0     		sub	sp, sp, #60
 418              	.LCFI4:
 419              		.cfi_def_cfa_offset 96
 420              		.loc 1 352 0
 421 0006 0546     		mov	r5, r0
 422 0008 0893     		str	r3, [sp, #32]
 423              		.loc 1 360 0
 424 000a 0023     		movs	r3, #0
 425              	.LVL47:
 426              		.loc 1 377 0
 427 000c 0691     		str	r1, [sp, #24]
 428              		.loc 1 352 0
 429 000e 9146     		mov	r9, r2
 430              		.loc 1 360 0
 431 0010 ADF83630 		strh	r3, [sp, #54]	@ movhi
 432              	.LVL48:
 433              		.loc 1 377 0
 434 0014 0029     		cmp	r1, #0
 435 0016 00F02982 		beq	.L154
 436              	.LVL49:
 437              	.LBB9:
 438              	.LBB10:
 439              		.loc 1 294 0
 440 001a 037C     		ldrb	r3, [r0, #16]	@ zero_extendqisi2
 441 001c 072B     		cmp	r3, #7
 442 001e 18BF     		it	ne
 443 0020 042B     		cmpne	r3, #4
 444 0022 40F0CB80 		bne	.L155
 445              	.L43:
 446              		.loc 1 300 0
 447 0026 B9F1000F 		cmp	r9, #0
 448 002a 00F07881 		beq	.L45
 449              		.loc 1 305 0
 450 002e B5F86E30 		ldrh	r3, [r5, #110]
 451 0032 4B45     		cmp	r3, r9
 452 0034 C0F0C981 		bcc	.L153
 453              		.loc 1 317 0
 454 0038 B5F87030 		ldrh	r3, [r5, #112]
ARM GAS  /tmp/ccuCtRWT.s 			page 9


 455 003c 012B     		cmp	r3, #1
 456 003e 00F2BE81 		bhi	.L156
 457              		.loc 1 324 0
 458 0042 002B     		cmp	r3, #0
 459 0044 00F0C280 		beq	.L48
 460              		.loc 1 325 0
 461 0048 AB6F     		ldr	r3, [r5, #120]
 462 004a 4FF00108 		mov	r8, #1
 463 004e 002B     		cmp	r3, #0
 464 0050 00F0A881 		beq	.L157
 465              	.L49:
 466              	.LVL50:
 467              	.LBE10:
 468              	.LBE9:
 469              		.loc 1 417 0
 470 0054 D5F874B0 		ldr	fp, [r5, #116]
 471 0058 BBF1000F 		cmp	fp, #0
 472 005c 01D1     		bne	.L131
 473 005e C3E0     		b	.L52
 474              	.LVL51:
 475              	.L89:
 476              	.LBB14:
 477              		.loc 1 423 0
 478 0060 9B46     		mov	fp, r3
 479              	.LVL52:
 480              	.L131:
 481              		.loc 1 422 0 discriminator 1
 482 0062 DBF80030 		ldr	r3, [fp, #0]
 483 0066 002B     		cmp	r3, #0
 484 0068 FAD1     		bne	.L89
 485              		.loc 1 426 0
 486 006a 9BF80A20 		ldrb	r2, [fp, #10]	@ zero_extendqisi2
 487 006e B5F838A0 		ldrh	sl, [r5, #56]
 488 0072 BBF80800 		ldrh	r0, [fp, #8]
 489              		.loc 1 442 0
 490 0076 B5F87230 		ldrh	r3, [r5, #114]
 491              		.loc 1 426 0
 492 007a 12F0010F 		tst	r2, #1
 493 007e 02F00202 		and	r2, r2, #2
 494 0082 0CBF     		ite	eq
 495 0084 0021     		moveq	r1, #0
 496 0086 0421     		movne	r1, #4
 497 0088 D2B2     		uxtb	r2, r2
 498 008a C0EB0A0A 		rsb	sl, r0, sl
 499 008e 002A     		cmp	r2, #0
 500 0090 14BF     		ite	ne
 501 0092 0C22     		movne	r2, #12
 502 0094 0022     		moveq	r2, #0
 503              	.LVL53:
 504              		.loc 1 427 0
 505 0096 C1EB0A0A 		rsb	sl, r1, sl
 506 009a C2EB0A0A 		rsb	sl, r2, sl
 507 009e 1FFA8AFA 		uxth	sl, sl
 508              	.LVL54:
 509              		.loc 1 443 0
 510 00a2 002B     		cmp	r3, #0
 511 00a4 40F04381 		bne	.L56
ARM GAS  /tmp/ccuCtRWT.s 			page 10


 512              		.loc 1 355 0
 513 00a8 1C46     		mov	r4, r3
 514              		.loc 1 442 0
 515 00aa ADF83630 		strh	r3, [sp, #54]	@ movhi
 516              		.loc 1 354 0
 517 00ae 1E46     		mov	r6, r3
 518              	.LVL55:
 519              	.L57:
 520              		.loc 1 462 0
 521 00b0 BAF1000F 		cmp	sl, #0
 522 00b4 18BF     		it	ne
 523 00b6 4C45     		cmpne	r4, r9
 524 00b8 2CBF     		ite	cs
 525 00ba 0023     		movcs	r3, #0
 526 00bc 0123     		movcc	r3, #1
 527 00be 04D2     		bcs	.L94
 528              		.loc 1 462 0 is_stmt 0 discriminator 1
 529 00c0 BBF80830 		ldrh	r3, [fp, #8]
 530 00c4 002B     		cmp	r3, #0
 531 00c6 40F04981 		bne	.L158
 532              	.L94:
 533              		.loc 1 462 0
 534 00ca 0A94     		str	r4, [sp, #40]
 535              		.loc 1 353 0 is_stmt 1
 536 00cc 0993     		str	r3, [sp, #36]
 537              	.LVL56:
 538              	.L58:
 539              	.LBE14:
 540              		.loc 1 517 0 discriminator 1
 541 00ce 0023     		movs	r3, #0
 542 00d0 A145     		cmp	r9, r4
 543 00d2 0593     		str	r3, [sp, #20]
 544 00d4 40F29F80 		bls	.L62
 545 00d8 0899     		ldr	r1, [sp, #32]
 546              	.LBB17:
 547              		.loc 1 530 0
 548 00da CDF82CB0 		str	fp, [sp, #44]
 549 00de 01F00101 		and	r1, r1, #1
 550 00e2 0791     		str	r1, [sp, #28]
 551              	.LBE17:
 552              		.loc 1 517 0
 553 00e4 9A46     		mov	sl, r3
 554 00e6 41E0     		b	.L73
 555              	.LVL57:
 556              	.L63:
 557              	.LBB21:
 558              	.LBB18:
 559              		.loc 1 545 0
 560 00e8 BDF83630 		ldrh	r3, [sp, #54]
 561              	.LVL58:
 562 00ec 002B     		cmp	r3, #0
 563 00ee 40F08680 		bne	.L159
 564              	.LVL59:
 565              	.L67:
 566              		.loc 1 547 0
 567 00f2 0020     		movs	r0, #0
 568 00f4 3946     		mov	r1, r7
ARM GAS  /tmp/ccuCtRWT.s 			page 11


 569 00f6 0122     		movs	r2, #1
 570 00f8 FFF7FEFF 		bl	pbuf_alloc
 571              	.LVL60:
 572 00fc 8346     		mov	fp, r0
 573 00fe 0028     		cmp	r0, #0
 574 0100 00F0E980 		beq	.L69
 575              		.loc 1 556 0
 576 0104 069B     		ldr	r3, [sp, #24]
 577              		.loc 1 559 0
 578 0106 0020     		movs	r0, #0
 579              	.LVL61:
 580              		.loc 1 556 0
 581 0108 1A19     		adds	r2, r3, r4
 582 010a CBF80420 		str	r2, [fp, #4]
 583              		.loc 1 559 0
 584 010e 0146     		mov	r1, r0
 585 0110 0246     		mov	r2, r0
 586 0112 FFF7FEFF 		bl	pbuf_alloc
 587              	.LVL62:
 588 0116 0646     		mov	r6, r0
 589 0118 0028     		cmp	r0, #0
 590 011a 00F0D980 		beq	.L160
 591              		.loc 1 567 0
 592 011e 5946     		mov	r1, fp
 593 0120 FFF7FEFF 		bl	pbuf_cat
 594              	.LVL63:
 595              	.L66:
 596              	.LBE18:
 597              		.loc 1 570 0
 598 0124 3046     		mov	r0, r6
 599 0126 FFF7FEFF 		bl	pbuf_clen
 600              	.LVL64:
 601 012a 4044     		add	r0, r8, r0
 602 012c 1FFA80F8 		uxth	r8, r0
 603              	.LVL65:
 604              		.loc 1 575 0
 605 0130 B8F1020F 		cmp	r8, #2
 606 0134 00F23F81 		bhi	.L161
 607              		.loc 1 581 0
 608 0138 AB6E     		ldr	r3, [r5, #104]
 609 013a 0021     		movs	r1, #0
 610 013c 0091     		str	r1, [sp, #0]
 611 013e 2846     		mov	r0, r5
 612              	.LVL66:
 613 0140 3146     		mov	r1, r6
 614 0142 0022     		movs	r2, #0
 615 0144 E318     		adds	r3, r4, r3
 616 0146 FFF7FEFF 		bl	tcp_create_segment
 617              	.LVL67:
 618 014a 0028     		cmp	r0, #0
 619 014c 00F0C380 		beq	.L69
 620              		.loc 1 594 0
 621 0150 059A     		ldr	r2, [sp, #20]
 622 0152 002A     		cmp	r2, #0
 623 0154 56D0     		beq	.L97
 624              		.loc 1 598 0
 625 0156 BAF1000F 		cmp	sl, #0
ARM GAS  /tmp/ccuCtRWT.s 			page 12


 626 015a 00F0E380 		beq	.L162
 627              	.LVL68:
 628              	.L72:
 629              		.loc 1 608 0
 630 015e 3C19     		adds	r4, r7, r4
 631              	.LVL69:
 632 0160 A4B2     		uxth	r4, r4
 633              	.LBE21:
 634              		.loc 1 517 0
 635 0162 A145     		cmp	r9, r4
 636              	.LBB22:
 637              		.loc 1 599 0
 638 0164 CAF80000 		str	r0, [sl, #0]
 639              	.LVL70:
 640 0168 8246     		mov	sl, r0
 641              	.LBE22:
 642              		.loc 1 517 0
 643 016a 51D9     		bls	.L163
 644              	.LVL71:
 645              	.L73:
 646              	.LBB23:
 647              		.loc 1 520 0
 648 016c 2A8F     		ldrh	r2, [r5, #56]
 649              	.LVL72:
 650              		.loc 1 527 0
 651 016e 079B     		ldr	r3, [sp, #28]
 652              		.loc 1 519 0
 653 0170 C4EB0907 		rsb	r7, r4, r9
 654              		.loc 1 521 0
 655 0174 BFB2     		uxth	r7, r7
 656 0176 9742     		cmp	r7, r2
 657 0178 28BF     		it	cs
 658 017a 1746     		movcs	r7, r2
 659              	.LVL73:
 660              		.loc 1 527 0
 661 017c 002B     		cmp	r3, #0
 662 017e B3D0     		beq	.L63
 663              		.loc 1 530 0
 664 0180 0599     		ldr	r1, [sp, #20]
 665 0182 0095     		str	r5, [sp, #0]
 666 0184 D1F10103 		rsbs	r3, r1, #1
 667 0188 0899     		ldr	r1, [sp, #32]
 668 018a 38BF     		it	cc
 669 018c 0023     		movcc	r3, #0
 670 018e 0191     		str	r1, [sp, #4]
 671 0190 0293     		str	r3, [sp, #8]
 672 0192 0020     		movs	r0, #0
 673 0194 3946     		mov	r1, r7
 674 0196 0DF13603 		add	r3, sp, #54
 675 019a FFF7FEFF 		bl	tcp_pbuf_prealloc
 676              	.LVL74:
 677 019e 0646     		mov	r6, r0
 678 01a0 0028     		cmp	r0, #0
 679 01a2 00F09880 		beq	.L69
 680              		.loc 1 534 0
 681 01a6 4389     		ldrh	r3, [r0, #10]
 682 01a8 BB42     		cmp	r3, r7
ARM GAS  /tmp/ccuCtRWT.s 			page 13


 683 01aa C0F08E80 		bcc	.L164
 684              	.LVL75:
 685              	.L65:
 686              		.loc 1 536 0
 687 01ae 069A     		ldr	r2, [sp, #24]
 688 01b0 7068     		ldr	r0, [r6, #4]
 689 01b2 1119     		adds	r1, r2, r4
 690 01b4 3A46     		mov	r2, r7
 691 01b6 FFF7FEFF 		bl	memcpy
 692              	.LVL76:
 693 01ba B3E7     		b	.L66
 694              	.LVL77:
 695              	.L155:
 696              	.LBE23:
 697              	.LBB24:
 698              	.LBB11:
 699              		.loc 1 295 0
 700 01bc 022B     		cmp	r3, #2
 701 01be 3FF432AF 		beq	.L43
 702              		.loc 1 296 0
 703 01c2 032B     		cmp	r3, #3
 704 01c4 3FF42FAF 		beq	.L43
 705              		.loc 1 299 0
 706 01c8 F320     		movs	r0, #243
 707              	.LVL78:
 708 01ca A4E0     		b	.L42
 709              	.LVL79:
 710              	.L48:
 711              		.loc 1 328 0
 712 01cc AB6F     		ldr	r3, [r5, #120]
 713 01ce 002B     		cmp	r3, #0
 714 01d0 00F0E280 		beq	.L165
 715              	.L51:
 716 01d4 FFF7FEFF 		bl	port_halt
 717              	.LVL80:
 718              	.LBE11:
 719              	.LBE24:
 720              		.loc 1 417 0
 721 01d8 D5F874B0 		ldr	fp, [r5, #116]
 722 01dc B5F87080 		ldrh	r8, [r5, #112]
 723              	.LVL81:
 724 01e0 BBF1000F 		cmp	fp, #0
 725 01e4 7FF43DAF 		bne	.L131
 726              	.LVL82:
 727              	.L52:
 728              		.loc 1 506 0
 729 01e8 B5F87230 		ldrh	r3, [r5, #114]
 730 01ec 002B     		cmp	r3, #0
 731 01ee 40F02A81 		bne	.L166
 732              		.loc 1 361 0
 733 01f2 0A93     		str	r3, [sp, #40]
 734              		.loc 1 355 0
 735 01f4 1C46     		mov	r4, r3
 736              		.loc 1 354 0
 737 01f6 1E46     		mov	r6, r3
 738 01f8 9B46     		mov	fp, r3
 739              		.loc 1 353 0
ARM GAS  /tmp/ccuCtRWT.s 			page 14


 740 01fa 0993     		str	r3, [sp, #36]
 741 01fc 67E7     		b	.L58
 742              	.LVL83:
 743              	.L159:
 744              	.LBB25:
 745              	.LBB19:
 746              		.loc 1 545 0 discriminator 1
 747 01fe FFF7FEFF 		bl	port_halt
 748              	.LVL84:
 749 0202 76E7     		b	.L67
 750              	.LVL85:
 751              	.L97:
 752              	.LBE19:
 753              		.loc 1 608 0
 754 0204 3C19     		adds	r4, r7, r4
 755              	.LVL86:
 756 0206 A4B2     		uxth	r4, r4
 757              	.LBE25:
 758              		.loc 1 517 0
 759 0208 A145     		cmp	r9, r4
 760              	.LBB26:
 761              		.loc 1 594 0
 762 020a 0590     		str	r0, [sp, #20]
 763              	.LVL87:
 764 020c 8246     		mov	sl, r0
 765              	.LBE26:
 766              		.loc 1 517 0
 767 020e ADD8     		bhi	.L73
 768              	.LVL88:
 769              	.L163:
 770 0210 DDF82CB0 		ldr	fp, [sp, #44]
 771 0214 0646     		mov	r6, r0
 772              	.LVL89:
 773              	.L62:
 774              		.loc 1 621 0
 775 0216 0A99     		ldr	r1, [sp, #40]
 776 0218 F1B1     		cbz	r1, .L74
 777              	.LBB27:
 778              		.loc 1 624 0
 779 021a DBF80440 		ldr	r4, [fp, #4]
 780              	.LVL90:
 781 021e ACB1     		cbz	r4, .L75
 782 0220 0A9F     		ldr	r7, [sp, #40]
 783 0222 00E0     		b	.L145
 784              	.LVL91:
 785              	.L77:
 786              	.LBE27:
 787              		.loc 1 517 0
 788 0224 1C46     		mov	r4, r3
 789              	.L145:
 790              	.LBB28:
 791              		.loc 1 625 0
 792 0226 2189     		ldrh	r1, [r4, #8]
 793              		.loc 1 626 0
 794 0228 2368     		ldr	r3, [r4, #0]
 795              		.loc 1 625 0
 796 022a 7918     		adds	r1, r7, r1
ARM GAS  /tmp/ccuCtRWT.s 			page 15


 797 022c 2181     		strh	r1, [r4, #8]	@ movhi
 798              		.loc 1 626 0
 799 022e 002B     		cmp	r3, #0
 800 0230 F8D1     		bne	.L77
 801              		.loc 1 627 0
 802 0232 6368     		ldr	r3, [r4, #4]
 803 0234 6089     		ldrh	r0, [r4, #10]
 804 0236 0699     		ldr	r1, [sp, #24]
 805 0238 1818     		adds	r0, r3, r0
 806 023a 3A46     		mov	r2, r7
 807 023c FFF7FEFF 		bl	memcpy
 808              	.LVL92:
 809              		.loc 1 628 0
 810 0240 6289     		ldrh	r2, [r4, #10]
 811              		.loc 1 624 0
 812 0242 2368     		ldr	r3, [r4, #0]
 813              	.LVL93:
 814              		.loc 1 628 0
 815 0244 BA18     		adds	r2, r7, r2
 816 0246 6281     		strh	r2, [r4, #10]	@ movhi
 817              		.loc 1 624 0
 818 0248 002B     		cmp	r3, #0
 819 024a EBD1     		bne	.L77
 820              	.LVL94:
 821              	.L75:
 822              		.loc 1 631 0
 823 024c BBF80830 		ldrh	r3, [fp, #8]
 824 0250 0A9A     		ldr	r2, [sp, #40]
 825 0252 D318     		adds	r3, r2, r3
 826 0254 ABF80830 		strh	r3, [fp, #8]	@ movhi
 827              	.L74:
 828              	.LBE28:
 829              		.loc 1 636 0
 830 0258 BDF83630 		ldrh	r3, [sp, #54]
 831 025c A5F87230 		strh	r3, [r5, #114]	@ movhi
 832              		.loc 1 642 0
 833 0260 099B     		ldr	r3, [sp, #36]
 834 0262 002B     		cmp	r3, #0
 835 0264 00F0F880 		beq	.L78
 836              		.loc 1 643 0
 837 0268 BBF1000F 		cmp	fp, #0
 838 026c 00F0FB80 		beq	.L167
 839              	.L79:
 840              		.loc 1 645 0
 841 0270 0999     		ldr	r1, [sp, #36]
 842 0272 DBF80400 		ldr	r0, [fp, #4]
 843 0276 FFF7FEFF 		bl	pbuf_cat
 844              	.LVL95:
 845              		.loc 1 646 0
 846 027a 0999     		ldr	r1, [sp, #36]
 847 027c BBF80830 		ldrh	r3, [fp, #8]
 848 0280 0A89     		ldrh	r2, [r1, #8]
 849 0282 D318     		adds	r3, r2, r3
 850 0284 ABF80830 		strh	r3, [fp, #8]	@ movhi
 851              	.L80:
 852              		.loc 1 663 0
 853 0288 059B     		ldr	r3, [sp, #20]
ARM GAS  /tmp/ccuCtRWT.s 			page 16


 854 028a CBF80030 		str	r3, [fp, #0]
 855              	.L81:
 856              		.loc 1 669 0
 857 028e AB6E     		ldr	r3, [r5, #104]
 858              		.loc 1 670 0
 859 0290 B5F86E20 		ldrh	r2, [r5, #110]
 860              		.loc 1 671 0
 861 0294 A5F87080 		strh	r8, [r5, #112]	@ movhi
 862              		.loc 1 669 0
 863 0298 4B44     		add	r3, r3, r9
 864              		.loc 1 670 0
 865 029a C9EB0209 		rsb	r9, r9, r2
 866              	.LVL96:
 867              		.loc 1 669 0
 868 029e AB66     		str	r3, [r5, #104]
 869              		.loc 1 670 0
 870 02a0 A5F86E90 		strh	r9, [r5, #110]	@ movhi
 871              		.loc 1 675 0
 872 02a4 B8F1000F 		cmp	r8, #0
 873 02a8 03D0     		beq	.L82
 874              		.loc 1 676 0
 875 02aa AB6F     		ldr	r3, [r5, #120]
 876 02ac 002B     		cmp	r3, #0
 877 02ae 00F0C380 		beq	.L168
 878              	.L82:
 879              		.loc 1 681 0
 880 02b2 46B1     		cbz	r6, .L100
 881              		.loc 1 681 0 is_stmt 0 discriminator 1
 882 02b4 F468     		ldr	r4, [r6, #12]
 883 02b6 34B1     		cbz	r4, .L100
 884 02b8 0899     		ldr	r1, [sp, #32]
 885 02ba 01F00206 		and	r6, r1, #2
 886              	.LVL97:
 887 02be F6B2     		uxtb	r6, r6
 888 02c0 002E     		cmp	r6, #0
 889 02c2 00F0A080 		beq	.L169
 890              	.L100:
 891              		.loc 1 685 0 is_stmt 1
 892 02c6 0020     		movs	r0, #0
 893 02c8 25E0     		b	.L42
 894              	.LVL98:
 895              	.L164:
 896              	.LBB29:
 897              		.loc 1 534 0 discriminator 1
 898 02ca FFF7FEFF 		bl	port_halt
 899              	.LVL99:
 900 02ce 6EE7     		b	.L65
 901              	.LVL100:
 902              	.L160:
 903              	.LBB20:
 904              		.loc 1 562 0
 905 02d0 5846     		mov	r0, fp
 906              	.LVL101:
 907 02d2 FFF7FEFF 		bl	pbuf_free
 908              	.LVL102:
 909              	.L69:
 910              	.LBE20:
ARM GAS  /tmp/ccuCtRWT.s 			page 17


 911              	.LBE29:
 912              		.loc 1 687 0
 913 02d6 95F82020 		ldrb	r2, [r5, #32]	@ zero_extendqisi2
 914              		.loc 1 688 0
 915 02da 664B     		ldr	r3, .L171
 916              		.loc 1 687 0
 917 02dc 62F07F02 		orn	r2, r2, #127
 918 02e0 85F82020 		strb	r2, [r5, #32]
 919              		.loc 1 688 0
 920 02e4 B3F89C20 		ldrh	r2, [r3, #156]
 921 02e8 0132     		adds	r2, r2, #1
 922 02ea A3F89C20 		strh	r2, [r3, #156]	@ movhi
 923              		.loc 1 690 0
 924 02ee 099A     		ldr	r2, [sp, #36]
 925 02f0 12B1     		cbz	r2, .L83
 926              		.loc 1 691 0
 927 02f2 1046     		mov	r0, r2
 928 02f4 FFF7FEFF 		bl	pbuf_free
 929              	.LVL103:
 930              	.L83:
 931              		.loc 1 693 0
 932 02f8 059B     		ldr	r3, [sp, #20]
 933 02fa 13B1     		cbz	r3, .L84
 934              		.loc 1 694 0
 935 02fc 1846     		mov	r0, r3
 936 02fe FFF7FEFF 		bl	tcp_segs_free
 937              	.LVL104:
 938              	.L84:
 939              		.loc 1 696 0
 940 0302 B5F87030 		ldrh	r3, [r5, #112]
 941 0306 2BB1     		cbz	r3, .L103
 942              		.loc 1 697 0
 943 0308 AB6F     		ldr	r3, [r5, #120]
 944 030a 1BB9     		cbnz	r3, .L103
 945              		.loc 1 697 0 is_stmt 0 discriminator 1
 946 030c 6B6F     		ldr	r3, [r5, #116]
 947 030e 002B     		cmp	r3, #0
 948 0310 00F08180 		beq	.L170
 949              	.L103:
 950              		.loc 1 701 0 is_stmt 1
 951 0314 FF20     		movs	r0, #255
 952              	.LVL105:
 953              	.L42:
 954 0316 40B2     		sxtb	r0, r0
 955              		.loc 1 702 0
 956 0318 0FB0     		add	sp, sp, #60
 957 031a BDE8F08F 		pop	{r4, r5, r6, r7, r8, r9, sl, fp, pc}
 958              	.LVL106:
 959              	.L45:
 960 031e B5F87080 		ldrh	r8, [r5, #112]
 961 0322 97E6     		b	.L49
 962              	.LVL107:
 963              	.L162:
 964              	.LBB30:
 965              		.loc 1 598 0 discriminator 1
 966 0324 0490     		str	r0, [sp, #16]
 967 0326 FFF7FEFF 		bl	port_halt
ARM GAS  /tmp/ccuCtRWT.s 			page 18


 968              	.LVL108:
 969 032a 0498     		ldr	r0, [sp, #16]
 970 032c 17E7     		b	.L72
 971              	.LVL109:
 972              	.L56:
 973              	.LBE30:
 974              	.LBB31:
 975              		.loc 1 446 0
 976 032e 9945     		cmp	r9, r3
 977 0330 34BF     		ite	cc
 978 0332 4C46     		movcc	r4, r9
 979 0334 1C46     		movcs	r4, r3
 980              	.LVL110:
 981              		.loc 1 448 0
 982 0336 1B1B     		subs	r3, r3, r4
 983 0338 9BB2     		uxth	r3, r3
 984              	.LVL111:
 985              		.loc 1 449 0
 986 033a C4EB0A0A 		rsb	sl, r4, sl
 987              	.LVL112:
 988              		.loc 1 452 0
 989 033e 002B     		cmp	r3, #0
 990 0340 18BF     		it	ne
 991 0342 A145     		cmpne	r9, r4
 992              	.LVL113:
 993              		.loc 1 448 0
 994 0344 ADF83630 		strh	r3, [sp, #54]	@ movhi
 995              		.loc 1 449 0
 996 0348 1FFA8AFA 		uxth	sl, sl
 997              	.LVL114:
 998              		.loc 1 452 0
 999 034c 08BF     		it	eq
 1000 034e 5E46     		moveq	r6, fp
 1001 0350 3FF4AEAE 		beq	.L57
 1002              		.loc 1 452 0 is_stmt 0 discriminator 1
 1003 0354 FFF7FEFF 		bl	port_halt
 1004              	.LVL115:
 1005 0358 5E46     		mov	r6, fp
 1006 035a A9E6     		b	.L57
 1007              	.LVL116:
 1008              	.L158:
 1009              	.LBB15:
 1010              		.loc 1 469 0 is_stmt 1
 1011 035c 0899     		ldr	r1, [sp, #32]
 1012              		.loc 1 463 0
 1013 035e C4EB0907 		rsb	r7, r4, r9
 1014 0362 5745     		cmp	r7, sl
 1015 0364 A8BF     		it	ge
 1016 0366 5746     		movge	r7, sl
 1017              		.loc 1 469 0
 1018 0368 CB07     		lsls	r3, r1, #31
 1019              		.loc 1 463 0
 1020 036a BEB2     		uxth	r6, r7
 1021              	.LVL117:
 1022              		.loc 1 469 0
 1023 036c 35D5     		bpl	.L59
 1024              		.loc 1 471 0
ARM GAS  /tmp/ccuCtRWT.s 			page 19


 1025 036e 0123     		movs	r3, #1
 1026 0370 0191     		str	r1, [sp, #4]
 1027 0372 0293     		str	r3, [sp, #8]
 1028 0374 0095     		str	r5, [sp, #0]
 1029 0376 0320     		movs	r0, #3
 1030 0378 3146     		mov	r1, r6
 1031 037a 5246     		mov	r2, sl
 1032 037c 0DF13603 		add	r3, sp, #54
 1033 0380 FFF7FEFF 		bl	tcp_pbuf_prealloc
 1034              	.LVL118:
 1035 0384 0990     		str	r0, [sp, #36]
 1036 0386 0028     		cmp	r0, #0
 1037 0388 49D0     		beq	.L60
 1038              		.loc 1 480 0
 1039 038a 069A     		ldr	r2, [sp, #24]
 1040 038c 4068     		ldr	r0, [r0, #4]
 1041              	.LVL119:
 1042 038e 1119     		adds	r1, r2, r4
 1043 0390 3246     		mov	r2, r6
 1044 0392 FFF7FEFF 		bl	memcpy
 1045              	.LVL120:
 1046 0396 2AE0     		b	.L61
 1047              	.LVL121:
 1048              	.L165:
 1049              	.LBE15:
 1050              	.LBE31:
 1051              	.LBB32:
 1052              	.LBB12:
 1053              		.loc 1 328 0
 1054 0398 6B6F     		ldr	r3, [r5, #116]
 1055 039a 002B     		cmp	r3, #0
 1056 039c 7FF41AAF 		bne	.L51
 1057 03a0 9846     		mov	r8, r3
 1058 03a2 21E7     		b	.L52
 1059              	.L157:
 1060              		.loc 1 325 0
 1061 03a4 D5F874B0 		ldr	fp, [r5, #116]
 1062 03a8 4FF00108 		mov	r8, #1
 1063 03ac BBF1000F 		cmp	fp, #0
 1064 03b0 7FF457AE 		bne	.L131
 1065 03b4 0EE7     		b	.L51
 1066              	.LVL122:
 1067              	.L161:
 1068              	.LBE12:
 1069              	.LBE32:
 1070              	.LBB33:
 1071              		.loc 1 577 0
 1072 03b6 3046     		mov	r0, r6
 1073              	.LVL123:
 1074 03b8 FFF7FEFF 		bl	pbuf_free
 1075              	.LVL124:
 1076              		.loc 1 578 0
 1077 03bc 8BE7     		b	.L69
 1078              	.LVL125:
 1079              	.L156:
 1080              	.LBE33:
 1081              	.LBB34:
ARM GAS  /tmp/ccuCtRWT.s 			page 20


 1082              	.LBB13:
 1083              		.loc 1 320 0
 1084 03be 2D4B     		ldr	r3, .L171
 1085 03c0 B3F89C20 		ldrh	r2, [r3, #156]
 1086              	.LVL126:
 1087 03c4 0132     		adds	r2, r2, #1
 1088 03c6 A3F89C20 		strh	r2, [r3, #156]	@ movhi
 1089              	.L153:
 1090              		.loc 1 321 0
 1091 03ca 95F82030 		ldrb	r3, [r5, #32]	@ zero_extendqisi2
 1092 03ce 63F07F03 		orn	r3, r3, #127
 1093 03d2 85F82030 		strb	r3, [r5, #32]
 1094              		.loc 1 322 0
 1095 03d6 FF20     		movs	r0, #255
 1096              	.LVL127:
 1097 03d8 9DE7     		b	.L42
 1098              	.LVL128:
 1099              	.L59:
 1100              	.LBE13:
 1101              	.LBE34:
 1102              	.LBB35:
 1103              	.LBB16:
 1104              		.loc 1 486 0
 1105 03da 0320     		movs	r0, #3
 1106 03dc 3146     		mov	r1, r6
 1107 03de 0122     		movs	r2, #1
 1108 03e0 FFF7FEFF 		bl	pbuf_alloc
 1109              	.LVL129:
 1110 03e4 0990     		str	r0, [sp, #36]
 1111 03e6 D0B1     		cbz	r0, .L60
 1112              		.loc 1 498 0
 1113 03e8 0699     		ldr	r1, [sp, #24]
 1114 03ea 0B19     		adds	r3, r1, r4
 1115 03ec 4360     		str	r3, [r0, #4]
 1116              	.LVL130:
 1117              	.L61:
 1118              		.loc 1 502 0
 1119 03ee 0998     		ldr	r0, [sp, #36]
 1120 03f0 FFF7FEFF 		bl	pbuf_clen
 1121              	.LVL131:
 1122              		.loc 1 501 0
 1123 03f4 3619     		adds	r6, r6, r4
 1124 03f6 B6B2     		uxth	r6, r6
 1125              	.LVL132:
 1126              		.loc 1 502 0
 1127 03f8 4044     		add	r0, r0, r8
 1128 03fa 0A94     		str	r4, [sp, #40]
 1129 03fc 1FFA80F8 		uxth	r8, r0
 1130              	.LVL133:
 1131              		.loc 1 501 0
 1132 0400 3446     		mov	r4, r6
 1133              		.loc 1 502 0
 1134 0402 5E46     		mov	r6, fp
 1135              	.LVL134:
 1136 0404 63E6     		b	.L58
 1137              	.LVL135:
 1138              	.L169:
ARM GAS  /tmp/ccuCtRWT.s 			page 21


 1139              	.LBE16:
 1140              	.LBE35:
 1141              		.loc 1 682 0
 1142 0406 0820     		movs	r0, #8
 1143 0408 A589     		ldrh	r5, [r4, #12]	@ unaligned
 1144              	.LVL136:
 1145 040a FFF7FEFF 		bl	lwip_htons
 1146              	.LVL137:
 1147 040e 2843     		orrs	r0, r0, r5
 1148 0410 A081     		strh	r0, [r4, #12]	@ unaligned
 1149              		.loc 1 685 0
 1150 0412 3046     		mov	r0, r6
 1151 0414 7FE7     		b	.L42
 1152              	.LVL138:
 1153              	.L170:
 1154              		.loc 1 697 0 discriminator 2
 1155 0416 FFF7FEFF 		bl	port_halt
 1156              	.LVL139:
 1157              		.loc 1 701 0 discriminator 2
 1158 041a FF20     		movs	r0, #255
 1159 041c 7BE7     		b	.L42
 1160              	.LVL140:
 1161              	.L60:
 1162              		.loc 1 687 0
 1163 041e 95F82020 		ldrb	r2, [r5, #32]	@ zero_extendqisi2
 1164              		.loc 1 688 0
 1165 0422 144B     		ldr	r3, .L171
 1166              		.loc 1 687 0
 1167 0424 62F07F02 		orn	r2, r2, #127
 1168 0428 85F82020 		strb	r2, [r5, #32]
 1169              		.loc 1 688 0
 1170 042c B3F89C20 		ldrh	r2, [r3, #156]
 1171 0430 0132     		adds	r2, r2, #1
 1172 0432 A3F89C20 		strh	r2, [r3, #156]	@ movhi
 1173 0436 64E7     		b	.L84
 1174              	.LVL141:
 1175              	.L168:
 1176              		.loc 1 676 0 discriminator 1
 1177 0438 6B6F     		ldr	r3, [r5, #116]
 1178 043a 002B     		cmp	r3, #0
 1179 043c 7FF439AF 		bne	.L82
 1180              		.loc 1 676 0 is_stmt 0 discriminator 2
 1181 0440 FFF7FEFF 		bl	port_halt
 1182              	.LVL142:
 1183 0444 35E7     		b	.L82
 1184              	.LVL143:
 1185              	.L166:
 1186              		.loc 1 361 0 is_stmt 1 discriminator 1
 1187 0446 0022     		movs	r2, #0
 1188 0448 0A92     		str	r2, [sp, #40]
 1189              		.loc 1 506 0 discriminator 1
 1190 044a FFF7FEFF 		bl	port_halt
 1191              	.LVL144:
 1192              		.loc 1 355 0 discriminator 1
 1193 044e 0A9C     		ldr	r4, [sp, #40]
 1194              		.loc 1 354 0 discriminator 1
 1195 0450 2646     		mov	r6, r4
ARM GAS  /tmp/ccuCtRWT.s 			page 22


 1196 0452 A346     		mov	fp, r4
 1197              		.loc 1 353 0 discriminator 1
 1198 0454 0994     		str	r4, [sp, #36]
 1199 0456 3AE6     		b	.L58
 1200              	.LVL145:
 1201              	.L78:
 1202              		.loc 1 660 0
 1203 0458 BBF1000F 		cmp	fp, #0
 1204 045c 7FF414AF 		bne	.L80
 1205              		.loc 1 661 0
 1206 0460 059A     		ldr	r2, [sp, #20]
 1207 0462 6A67     		str	r2, [r5, #116]
 1208 0464 13E7     		b	.L81
 1209              	.L167:
 1210              		.loc 1 643 0 discriminator 1
 1211 0466 FFF7FEFF 		bl	port_halt
 1212              	.LVL146:
 1213 046a 01E7     		b	.L79
 1214              	.LVL147:
 1215              	.L154:
 1216              		.loc 1 377 0 discriminator 1
 1217 046c FFF7FEFF 		bl	port_halt
 1218              	.LVL148:
 1219 0470 F220     		movs	r0, #242
 1220 0472 50E7     		b	.L42
 1221              	.L172:
 1222              		.align	2
 1223              	.L171:
 1224 0474 00000000 		.word	lwip_stats
 1225              		.cfi_endproc
 1226              	.LFE12:
 1227              		.size	tcp_write, .-tcp_write
 1228 0478 AFF30080 		.section	.text.tcp_enqueue_flags,"ax",%progbits
 1228      AFF30080 
 1229              		.align	2
 1230              		.p2align 4,,15
 1231              		.global	tcp_enqueue_flags
 1232              		.thumb
 1233              		.thumb_func
 1234              		.type	tcp_enqueue_flags, %function
 1235              	tcp_enqueue_flags:
 1236              	.LFB13:
 1237              		.loc 1 716 0
 1238              		.cfi_startproc
 1239              		@ args = 0, pretend = 0, frame = 0
 1240              		@ frame_needed = 0, uses_anonymous_args = 0
 1241              	.LVL149:
 1242 0000 2DE9F043 		push	{r4, r5, r6, r7, r8, r9, lr}
 1243              	.LCFI5:
 1244              		.cfi_def_cfa_offset 28
 1245              		.cfi_offset 4, -28
 1246              		.cfi_offset 5, -24
 1247              		.cfi_offset 6, -20
 1248              		.cfi_offset 7, -16
 1249              		.cfi_offset 8, -12
 1250              		.cfi_offset 9, -8
 1251              		.cfi_offset 14, -4
ARM GAS  /tmp/ccuCtRWT.s 			page 23


 1252              		.loc 1 724 0
 1253 0004 11F00308 		ands	r8, r1, #3
 1254              		.loc 1 716 0
 1255 0008 83B0     		sub	sp, sp, #12
 1256              	.LCFI6:
 1257              		.cfi_def_cfa_offset 40
 1258              		.loc 1 716 0
 1259 000a 0E46     		mov	r6, r1
 1260 000c 0546     		mov	r5, r0
 1261              		.loc 1 724 0
 1262 000e 5FD0     		beq	.L208
 1263              		.loc 1 728 0
 1264 0010 B5F87030 		ldrh	r3, [r5, #112]
 1265 0014 012B     		cmp	r3, #1
 1266 0016 61D8     		bhi	.L209
 1267              	.LVL150:
 1268              	.L175:
 1269              		.loc 1 736 0
 1270 0018 06F00203 		and	r3, r6, #2
 1271 001c DBB2     		uxtb	r3, r3
 1272              		.loc 1 737 0
 1273 001e 4FF00109 		mov	r9, #1
 1274              		.loc 1 744 0
 1275 0022 0427     		movs	r7, #4
 1276              		.loc 1 736 0
 1277 0024 002B     		cmp	r3, #0
 1278 0026 50D0     		beq	.L210
 1279              	.L177:
 1280              	.LVL151:
 1281              		.loc 1 750 0 discriminator 3
 1282 0028 B5F86E30 		ldrh	r3, [r5, #110]
 1283 002c 002B     		cmp	r3, #0
 1284 002e 77D0     		beq	.L211
 1285              		.loc 1 757 0
 1286 0030 0020     		movs	r0, #0
 1287 0032 3946     		mov	r1, r7
 1288 0034 0246     		mov	r2, r0
 1289 0036 FFF7FEFF 		bl	pbuf_alloc
 1290              	.LVL152:
 1291 003a 0446     		mov	r4, r0
 1292 003c 0028     		cmp	r0, #0
 1293 003e 77D0     		beq	.L207
 1294              		.loc 1 762 0
 1295 0040 4389     		ldrh	r3, [r0, #10]
 1296 0042 BB42     		cmp	r3, r7
 1297 0044 58D3     		bcc	.L212
 1298              	.LVL153:
 1299              	.L180:
 1300              		.loc 1 766 0
 1301 0046 AB6E     		ldr	r3, [r5, #104]
 1302 0048 CDF80090 		str	r9, [sp, #0]
 1303 004c 2846     		mov	r0, r5
 1304 004e 2146     		mov	r1, r4
 1305 0050 3246     		mov	r2, r6
 1306 0052 FFF7FEFF 		bl	tcp_create_segment
 1307              	.LVL154:
 1308 0056 0746     		mov	r7, r0
ARM GAS  /tmp/ccuCtRWT.s 			page 24


 1309              	.LVL155:
 1310 0058 0028     		cmp	r0, #0
 1311 005a 69D0     		beq	.L207
 1312              		.loc 1 771 0
 1313 005c C368     		ldr	r3, [r0, #12]
 1314 005e 9907     		lsls	r1, r3, #30
 1315 0060 54D1     		bne	.L213
 1316              	.LVL156:
 1317              	.L182:
 1318              		.loc 1 772 0
 1319 0062 3B89     		ldrh	r3, [r7, #8]
 1320 0064 002B     		cmp	r3, #0
 1321 0066 4AD1     		bne	.L214
 1322              		.loc 1 781 0
 1323 0068 6C6F     		ldr	r4, [r5, #116]
 1324              	.LVL157:
 1325 006a 0CB9     		cbnz	r4, .L202
 1326 006c 4CE0     		b	.L215
 1327              	.LVL158:
 1328              	.L190:
 1329              	.LBB36:
 1330              		.loc 1 785 0
 1331 006e 1C46     		mov	r4, r3
 1332              	.LVL159:
 1333              	.L202:
 1334              		.loc 1 785 0 is_stmt 0 discriminator 1
 1335 0070 2368     		ldr	r3, [r4, #0]
 1336 0072 002B     		cmp	r3, #0
 1337 0074 FBD1     		bne	.L190
 1338              		.loc 1 786 0 is_stmt 1
 1339 0076 2760     		str	r7, [r4, #0]
 1340              	.LVL160:
 1341              	.L185:
 1342              	.LBE36:
 1343              		.loc 1 790 0
 1344 0078 0023     		movs	r3, #0
 1345 007a A5F87230 		strh	r3, [r5, #114]	@ movhi
 1346              		.loc 1 794 0
 1347 007e B8F1000F 		cmp	r8, #0
 1348 0082 07D0     		beq	.L187
 1349              		.loc 1 795 0
 1350 0084 AB6E     		ldr	r3, [r5, #104]
 1351              		.loc 1 797 0
 1352 0086 B5F86E20 		ldrh	r2, [r5, #110]
 1353              		.loc 1 795 0
 1354 008a 0133     		adds	r3, r3, #1
 1355              		.loc 1 797 0
 1356 008c 013A     		subs	r2, r2, #1
 1357              		.loc 1 795 0
 1358 008e AB66     		str	r3, [r5, #104]
 1359              		.loc 1 797 0
 1360 0090 A5F86E20 		strh	r2, [r5, #110]	@ movhi
 1361              	.L187:
 1362              		.loc 1 799 0
 1363 0094 F207     		lsls	r2, r6, #31
 1364              		.loc 1 800 0
 1365 0096 48BF     		it	mi
ARM GAS  /tmp/ccuCtRWT.s 			page 25


 1366 0098 95F82030 		ldrbmi	r3, [r5, #32]	@ zero_extendqisi2
 1367              		.loc 1 804 0
 1368 009c B5F87040 		ldrh	r4, [r5, #112]
 1369              		.loc 1 800 0
 1370 00a0 44BF     		itt	mi
 1371 00a2 43F02003 		orrmi	r3, r3, #32
 1372 00a6 85F82030 		strbmi	r3, [r5, #32]
 1373              		.loc 1 804 0
 1374 00aa 7868     		ldr	r0, [r7, #4]
 1375 00ac FFF7FEFF 		bl	pbuf_clen
 1376              	.LVL161:
 1377 00b0 0019     		adds	r0, r0, r4
 1378 00b2 80B2     		uxth	r0, r0
 1379 00b4 A5F87000 		strh	r0, [r5, #112]	@ movhi
 1380              		.loc 1 806 0
 1381 00b8 18B1     		cbz	r0, .L176
 1382              		.loc 1 807 0
 1383 00ba A86F     		ldr	r0, [r5, #120]
 1384 00bc 0028     		cmp	r0, #0
 1385 00be 28D0     		beq	.L216
 1386              		.loc 1 811 0
 1387 00c0 0020     		movs	r0, #0
 1388              	.LVL162:
 1389              	.L176:
 1390              		.loc 1 812 0
 1391 00c2 40B2     		sxtb	r0, r0
 1392 00c4 03B0     		add	sp, sp, #12
 1393 00c6 BDE8F083 		pop	{r4, r5, r6, r7, r8, r9, pc}
 1394              	.LVL163:
 1395              	.L210:
 1396              		.loc 1 719 0
 1397 00ca 9946     		mov	r9, r3
 1398              		.loc 1 744 0
 1399 00cc 1F46     		mov	r7, r3
 1400 00ce ABE7     		b	.L177
 1401              	.LVL164:
 1402              	.L208:
 1403              		.loc 1 724 0 discriminator 1
 1404 00d0 FFF7FEFF 		bl	port_halt
 1405              	.LVL165:
 1406              		.loc 1 728 0 discriminator 1
 1407 00d4 B5F87030 		ldrh	r3, [r5, #112]
 1408 00d8 012B     		cmp	r3, #1
 1409 00da 9DD9     		bls	.L175
 1410              	.L209:
 1411              		.loc 1 731 0
 1412 00dc 1B4B     		ldr	r3, .L217
 1413 00de B3F89C20 		ldrh	r2, [r3, #156]
 1414 00e2 0132     		adds	r2, r2, #1
 1415 00e4 A3F89C20 		strh	r2, [r3, #156]	@ movhi
 1416              		.loc 1 732 0
 1417 00e8 95F82030 		ldrb	r3, [r5, #32]	@ zero_extendqisi2
 1418 00ec 63F07F03 		orn	r3, r3, #127
 1419 00f0 85F82030 		strb	r3, [r5, #32]
 1420              		.loc 1 733 0
 1421 00f4 FF20     		movs	r0, #255
 1422 00f6 E4E7     		b	.L176
ARM GAS  /tmp/ccuCtRWT.s 			page 26


 1423              	.LVL166:
 1424              	.L212:
 1425              		.loc 1 762 0 discriminator 1
 1426 00f8 FFF7FEFF 		bl	port_halt
 1427              	.LVL167:
 1428 00fc A3E7     		b	.L180
 1429              	.LVL168:
 1430              	.L214:
 1431              		.loc 1 772 0 discriminator 1
 1432 00fe FFF7FEFF 		bl	port_halt
 1433              	.LVL169:
 1434              		.loc 1 781 0 discriminator 1
 1435 0102 6C6F     		ldr	r4, [r5, #116]
 1436              	.LVL170:
 1437 0104 002C     		cmp	r4, #0
 1438 0106 B3D1     		bne	.L202
 1439              	.L215:
 1440              		.loc 1 782 0
 1441 0108 6F67     		str	r7, [r5, #116]
 1442 010a B5E7     		b	.L185
 1443              	.LVL171:
 1444              	.L213:
 1445              		.loc 1 771 0 discriminator 1
 1446 010c FFF7FEFF 		bl	port_halt
 1447              	.LVL172:
 1448 0110 A7E7     		b	.L182
 1449              	.LVL173:
 1450              	.L216:
 1451              		.loc 1 807 0 discriminator 1
 1452 0112 6C6F     		ldr	r4, [r5, #116]
 1453 0114 002C     		cmp	r4, #0
 1454 0116 D4D1     		bne	.L176
 1455              		.loc 1 807 0 is_stmt 0 discriminator 2
 1456 0118 FFF7FEFF 		bl	port_halt
 1457              	.LVL174:
 1458              		.loc 1 811 0 is_stmt 1 discriminator 2
 1459 011c 2046     		mov	r0, r4
 1460 011e D0E7     		b	.L176
 1461              	.LVL175:
 1462              	.L211:
 1463              		.loc 1 752 0
 1464 0120 0A4B     		ldr	r3, .L217
 1465 0122 B3F89C20 		ldrh	r2, [r3, #156]
 1466 0126 0132     		adds	r2, r2, #1
 1467 0128 A3F89C20 		strh	r2, [r3, #156]	@ movhi
 1468              		.loc 1 753 0
 1469 012c FF20     		movs	r0, #255
 1470 012e C8E7     		b	.L176
 1471              	.LVL176:
 1472              	.L207:
 1473              		.loc 1 767 0
 1474 0130 95F82020 		ldrb	r2, [r5, #32]	@ zero_extendqisi2
 1475              		.loc 1 768 0
 1476 0134 054B     		ldr	r3, .L217
 1477              		.loc 1 767 0
 1478 0136 62F07F02 		orn	r2, r2, #127
 1479 013a 85F82020 		strb	r2, [r5, #32]
ARM GAS  /tmp/ccuCtRWT.s 			page 27


 1480              		.loc 1 768 0
 1481 013e B3F89C20 		ldrh	r2, [r3, #156]
 1482 0142 0132     		adds	r2, r2, #1
 1483 0144 A3F89C20 		strh	r2, [r3, #156]	@ movhi
 1484              		.loc 1 769 0
 1485 0148 FF20     		movs	r0, #255
 1486 014a BAE7     		b	.L176
 1487              	.L218:
 1488              		.align	2
 1489              	.L217:
 1490 014c 00000000 		.word	lwip_stats
 1491              		.cfi_endproc
 1492              	.LFE13:
 1493              		.size	tcp_enqueue_flags, .-tcp_enqueue_flags
 1494              		.section	.text.tcp_send_fin,"ax",%progbits
 1495              		.align	2
 1496              		.p2align 4,,15
 1497              		.global	tcp_send_fin
 1498              		.thumb
 1499              		.thumb_func
 1500              		.type	tcp_send_fin, %function
 1501              	tcp_send_fin:
 1502              	.LFB8:
 1503              		.loc 1 124 0
 1504              		.cfi_startproc
 1505              		@ args = 0, pretend = 0, frame = 0
 1506              		@ frame_needed = 0, uses_anonymous_args = 0
 1507              	.LVL177:
 1508 0000 70B5     		push	{r4, r5, r6, lr}
 1509              	.LCFI7:
 1510              		.cfi_def_cfa_offset 16
 1511              		.cfi_offset 4, -16
 1512              		.cfi_offset 5, -12
 1513              		.cfi_offset 6, -8
 1514              		.cfi_offset 14, -4
 1515              		.loc 1 126 0
 1516 0002 446F     		ldr	r4, [r0, #116]
 1517              		.loc 1 124 0
 1518 0004 0546     		mov	r5, r0
 1519              		.loc 1 126 0
 1520 0006 0CB9     		cbnz	r4, .L227
 1521 0008 0AE0     		b	.L220
 1522              	.LVL178:
 1523              	.L223:
 1524              	.LBB37:
 1525              		.loc 1 129 0
 1526 000a 1C46     		mov	r4, r3
 1527              	.LVL179:
 1528              	.L227:
 1529              		.loc 1 128 0 discriminator 1
 1530 000c 2368     		ldr	r3, [r4, #0]
 1531 000e 002B     		cmp	r3, #0
 1532 0010 FBD1     		bne	.L223
 1533              		.loc 1 131 0
 1534 0012 E368     		ldr	r3, [r4, #12]
 1535 0014 9889     		ldrh	r0, [r3, #12]	@ unaligned
 1536              	.LVL180:
ARM GAS  /tmp/ccuCtRWT.s 			page 28


 1537 0016 FFF7FEFF 		bl	lwip_ntohs
 1538              	.LVL181:
 1539 001a 10F00706 		ands	r6, r0, #7
 1540 001e 05D0     		beq	.L229
 1541              	.LVL182:
 1542              	.L220:
 1543              	.LBE37:
 1544              		.loc 1 138 0
 1545 0020 2846     		mov	r0, r5
 1546 0022 0121     		movs	r1, #1
 1547              		.loc 1 139 0
 1548 0024 BDE87040 		pop	{r4, r5, r6, lr}
 1549              		.loc 1 138 0
 1550 0028 FFF7FEBF 		b	tcp_enqueue_flags
 1551              	.LVL183:
 1552              	.L229:
 1553              	.LBB38:
 1554              		.loc 1 133 0
 1555 002c E468     		ldr	r4, [r4, #12]
 1556              	.LVL184:
 1557 002e 0120     		movs	r0, #1
 1558 0030 A589     		ldrh	r5, [r4, #12]	@ unaligned
 1559              	.LVL185:
 1560 0032 FFF7FEFF 		bl	lwip_htons
 1561              	.LVL186:
 1562 0036 2843     		orrs	r0, r0, r5
 1563 0038 A081     		strh	r0, [r4, #12]	@ unaligned
 1564              	.LBE38:
 1565              		.loc 1 139 0
 1566 003a 3046     		mov	r0, r6
 1567 003c 70BD     		pop	{r4, r5, r6, pc}
 1568              		.cfi_endproc
 1569              	.LFE8:
 1570              		.size	tcp_send_fin, .-tcp_send_fin
 1571 003e 00BF     		.section	.text.tcp_send_empty_ack,"ax",%progbits
 1572              		.align	2
 1573              		.p2align 4,,15
 1574              		.global	tcp_send_empty_ack
 1575              		.thumb
 1576              		.thumb_func
 1577              		.type	tcp_send_empty_ack, %function
 1578              	tcp_send_empty_ack:
 1579              	.LFB14:
 1580              		.loc 1 837 0
 1581              		.cfi_startproc
 1582              		@ args = 0, pretend = 0, frame = 0
 1583              		@ frame_needed = 0, uses_anonymous_args = 0
 1584              	.LVL187:
 1585 0000 F0B5     		push	{r4, r5, r6, r7, lr}
 1586              	.LCFI8:
 1587              		.cfi_def_cfa_offset 20
 1588              		.cfi_offset 4, -20
 1589              		.cfi_offset 5, -16
 1590              		.cfi_offset 6, -12
 1591              		.cfi_offset 7, -8
 1592              		.cfi_offset 14, -4
 1593 0002 0446     		mov	r4, r0
ARM GAS  /tmp/ccuCtRWT.s 			page 29


 1594 0004 83B0     		sub	sp, sp, #12
 1595              	.LCFI9:
 1596              		.cfi_def_cfa_offset 32
 1597              		.loc 1 848 0
 1598 0006 806D     		ldr	r0, [r0, #88]
 1599              	.LVL188:
 1600 0008 FFF7FEFF 		bl	lwip_htonl
 1601              	.LVL189:
 1602 000c 0021     		movs	r1, #0
 1603 000e 0246     		mov	r2, r0
 1604 0010 2046     		mov	r0, r4
 1605 0012 FFF7FEFF 		bl	tcp_output_alloc_header.constprop.0
 1606              	.LVL190:
 1607              		.loc 1 849 0
 1608 0016 0546     		mov	r5, r0
 1609 0018 0028     		cmp	r0, #0
 1610 001a 22D0     		beq	.L232
 1611              		.loc 1 857 0
 1612 001c 94F82030 		ldrb	r3, [r4, #32]	@ zero_extendqisi2
 1613              		.loc 1 853 0
 1614 0020 4768     		ldr	r7, [r0, #4]
 1615              	.LVL191:
 1616              		.loc 1 857 0
 1617 0022 23F00303 		bic	r3, r3, #3
 1618 0026 84F82030 		strb	r3, [r4, #32]
 1619              		.loc 1 869 0
 1620 002a B0F808E0 		ldrh	lr, [r0, #8]
 1621 002e 261D     		adds	r6, r4, #4
 1622 0030 CDF800E0 		str	lr, [sp, #0]
 1623 0034 2146     		mov	r1, r4
 1624 0036 3246     		mov	r2, r6
 1625 0038 0623     		movs	r3, #6
 1626 003a FFF7FEFF 		bl	inet_chksum_pseudo
 1627              	.LVL192:
 1628 003e 3882     		strh	r0, [r7, #16]	@ unaligned
 1629              		.loc 1 876 0
 1630 0040 607A     		ldrb	r0, [r4, #9]	@ zero_extendqisi2
 1631 0042 A37A     		ldrb	r3, [r4, #10]	@ zero_extendqisi2
 1632 0044 0090     		str	r0, [sp, #0]
 1633 0046 0620     		movs	r0, #6
 1634 0048 2146     		mov	r1, r4
 1635 004a 3246     		mov	r2, r6
 1636 004c 0190     		str	r0, [sp, #4]
 1637 004e 2846     		mov	r0, r5
 1638 0050 FFF7FEFF 		bl	ip_output
 1639              	.LVL193:
 1640              		.loc 1 879 0
 1641 0054 2846     		mov	r0, r5
 1642 0056 FFF7FEFF 		bl	pbuf_free
 1643              	.LVL194:
 1644              		.loc 1 881 0
 1645 005a 0020     		movs	r0, #0
 1646              	.LVL195:
 1647              	.L231:
 1648              		.loc 1 882 0
 1649 005c 40B2     		sxtb	r0, r0
 1650 005e 03B0     		add	sp, sp, #12
ARM GAS  /tmp/ccuCtRWT.s 			page 30


 1651 0060 F0BD     		pop	{r4, r5, r6, r7, pc}
 1652              	.LVL196:
 1653              	.L232:
 1654              		.loc 1 851 0
 1655 0062 FE20     		movs	r0, #254
 1656              	.LVL197:
 1657 0064 FAE7     		b	.L231
 1658              		.cfi_endproc
 1659              	.LFE14:
 1660              		.size	tcp_send_empty_ack, .-tcp_send_empty_ack
 1661 0066 00BFAFF3 		.section	.text.tcp_output,"ax",%progbits
 1661      0080AFF3 
 1661      0080
 1662              		.align	2
 1663              		.p2align 4,,15
 1664              		.global	tcp_output
 1665              		.thumb
 1666              		.thumb_func
 1667              		.type	tcp_output, %function
 1668              	tcp_output:
 1669              	.LFB15:
 1670              		.loc 1 893 0
 1671              		.cfi_startproc
 1672              		@ args = 0, pretend = 0, frame = 8
 1673              		@ frame_needed = 0, uses_anonymous_args = 0
 1674              	.LVL198:
 1675 0000 2DE9F04F 		push	{r4, r5, r6, r7, r8, r9, sl, fp, lr}
 1676              	.LCFI10:
 1677              		.cfi_def_cfa_offset 36
 1678              		.cfi_offset 4, -36
 1679              		.cfi_offset 5, -32
 1680              		.cfi_offset 6, -28
 1681              		.cfi_offset 7, -24
 1682              		.cfi_offset 8, -20
 1683              		.cfi_offset 9, -16
 1684              		.cfi_offset 10, -12
 1685              		.cfi_offset 11, -8
 1686              		.cfi_offset 14, -4
 1687              		.loc 1 904 0
 1688 0004 A94B     		ldr	r3, .L316
 1689 0006 1B68     		ldr	r3, [r3, #0]
 1690 0008 8342     		cmp	r3, r0
 1691              		.loc 1 893 0
 1692 000a 85B0     		sub	sp, sp, #20
 1693              	.LCFI11:
 1694              		.cfi_def_cfa_offset 56
 1695              		.loc 1 893 0
 1696 000c 0446     		mov	r4, r0
 1697              		.loc 1 904 0
 1698 000e 00F01F81 		beq	.L290
 1699              		.loc 1 918 0
 1700 0012 90F82030 		ldrb	r3, [r0, #32]	@ zero_extendqisi2
 1701              		.loc 1 908 0
 1702 0016 B0F85CA0 		ldrh	sl, [r0, #92]
 1703 001a B0F85220 		ldrh	r2, [r0, #82]
 1704              		.loc 1 910 0
 1705 001e 456F     		ldr	r5, [r0, #116]
ARM GAS  /tmp/ccuCtRWT.s 			page 31


 1706              		.loc 1 918 0
 1707 0020 03F00203 		and	r3, r3, #2
 1708 0024 DBB2     		uxtb	r3, r3
 1709              		.loc 1 908 0
 1710 0026 9245     		cmp	sl, r2
 1711 0028 28BF     		it	cs
 1712 002a 9246     		movcs	sl, r2
 1713              	.LVL199:
 1714              		.loc 1 918 0
 1715 002c 002B     		cmp	r3, #0
 1716 002e 40F04181 		bne	.L309
 1717              	.LVL200:
 1718              	.L235:
 1719              		.loc 1 925 0
 1720 0032 D4F87880 		ldr	r8, [r4, #120]
 1721              	.LVL201:
 1722              		.loc 1 926 0
 1723 0036 B8F1000F 		cmp	r8, #0
 1724 003a 01D1     		bne	.L295
 1725 003c 04E0     		b	.L242
 1726              	.L270:
 1727              		.loc 1 927 0
 1728 003e 9846     		mov	r8, r3
 1729              	.LVL202:
 1730              	.L295:
 1731              		.loc 1 927 0 is_stmt 0 discriminator 1
 1732 0040 D8F80030 		ldr	r3, [r8, #0]
 1733 0044 002B     		cmp	r3, #0
 1734 0046 FAD1     		bne	.L270
 1735              	.L242:
 1736              		.loc 1 952 0 is_stmt 1 discriminator 1
 1737 0048 002D     		cmp	r5, #0
 1738 004a 00F04581 		beq	.L308
 1739              	.LBB42:
 1740              	.LBB43:
 1741              		.loc 1 1069 0 discriminator 2
 1742 004e 40F20243 		movw	r3, #1026
 1743 0052 C1F60203 		movt	r3, 6146
 1744              		.loc 1 1155 0 discriminator 2
 1745 0056 DFF85892 		ldr	r9, .L316+4
 1746              		.loc 1 1069 0 discriminator 2
 1747 005a 0393     		str	r3, [sp, #12]
 1748              		.loc 1 1084 0 discriminator 2
 1749 005c 0027     		movs	r7, #0
 1750 005e BAE0     		b	.L291
 1751              	.L243:
 1752              	.LBE43:
 1753              	.LBE42:
 1754              		.loc 1 963 0
 1755 0060 A36F     		ldr	r3, [r4, #120]
 1756 0062 63B1     		cbz	r3, .L244
 1757              		.loc 1 963 0 is_stmt 0 discriminator 2
 1758 0064 94F82030 		ldrb	r3, [r4, #32]	@ zero_extendqisi2
 1759 0068 13F0440F 		tst	r3, #68
 1760 006c 07D1     		bne	.L244
 1761              		.loc 1 963 0 discriminator 3
 1762 006e 626F     		ldr	r2, [r4, #116]
ARM GAS  /tmp/ccuCtRWT.s 			page 32


 1763 0070 002A     		cmp	r2, #0
 1764 0072 00F01381 		beq	.L245
 1765              		.loc 1 963 0 discriminator 4
 1766 0076 1168     		ldr	r1, [r2, #0]
 1767 0078 0029     		cmp	r1, #0
 1768 007a 00F00A81 		beq	.L310
 1769              	.L244:
 1770              		.loc 1 978 0 is_stmt 1
 1771 007e 227C     		ldrb	r2, [r4, #16]	@ zero_extendqisi2
 1772              		.loc 1 976 0
 1773 0080 2B68     		ldr	r3, [r5, #0]
 1774              		.loc 1 978 0
 1775 0082 022A     		cmp	r2, #2
 1776              		.loc 1 976 0
 1777 0084 6367     		str	r3, [r4, #116]
 1778              		.loc 1 978 0
 1779 0086 0ED0     		beq	.L246
 1780              		.loc 1 979 0
 1781 0088 EE68     		ldr	r6, [r5, #12]
 1782 008a 1020     		movs	r0, #16
 1783 008c B6F80CB0 		ldrh	fp, [r6, #12]	@ unaligned
 1784 0090 FFF7FEFF 		bl	lwip_htons
 1785              	.LVL203:
 1786 0094 40EA0B00 		orr	r0, r0, fp
 1787 0098 B081     		strh	r0, [r6, #12]	@ unaligned
 1788              		.loc 1 980 0
 1789 009a 94F82030 		ldrb	r3, [r4, #32]	@ zero_extendqisi2
 1790 009e 23F00303 		bic	r3, r3, #3
 1791 00a2 84F82030 		strb	r3, [r4, #32]
 1792              	.L246:
 1793              	.LVL204:
 1794              	.LBB47:
 1795              	.LBB44:
 1796              		.loc 1 1057 0
 1797 00a6 606A     		ldr	r0, [r4, #36]
 1798 00a8 EE68     		ldr	r6, [r5, #12]
 1799 00aa FFF7FEFF 		bl	lwip_htonl
 1800              	.LVL205:
 1801 00ae B060     		str	r0, [r6, #8]	@ unaligned
 1802              		.loc 1 1060 0
 1803 00b0 608D     		ldrh	r0, [r4, #42]
 1804 00b2 EE68     		ldr	r6, [r5, #12]
 1805 00b4 FFF7FEFF 		bl	lwip_htons
 1806              	.LVL206:
 1807 00b8 F081     		strh	r0, [r6, #14]	@ unaligned
 1808              		.loc 1 1066 0
 1809 00ba D5F80CB0 		ldr	fp, [r5, #12]
 1810              		.loc 1 1062 0
 1811 00be 628D     		ldrh	r2, [r4, #42]
 1812 00c0 636A     		ldr	r3, [r4, #36]
 1813              		.loc 1 1066 0
 1814 00c2 1BF0030F 		tst	fp, #3
 1815              		.loc 1 1062 0
 1816 00c6 1344     		add	r3, r2, r3
 1817 00c8 E362     		str	r3, [r4, #44]
 1818              		.loc 1 1066 0
 1819 00ca 40F09B80 		bne	.L311
ARM GAS  /tmp/ccuCtRWT.s 			page 33


 1820              	.L247:
 1821              	.LVL207:
 1822              	.LBE44:
 1823              		.loc 1 1068 0
 1824 00ce AB7A     		ldrb	r3, [r5, #10]	@ zero_extendqisi2
 1825              	.LBB45:
 1826 00d0 D807     		lsls	r0, r3, #31
 1827              		.loc 1 1069 0
 1828 00d2 48BF     		it	mi
 1829 00d4 039A     		ldrmi	r2, [sp, #12]
 1830              		.loc 1 1083 0
 1831 00d6 B4F93630 		ldrsh	r3, [r4, #54]
 1832              		.loc 1 1069 0
 1833 00da 48BF     		it	mi
 1834 00dc CBF81420 		strmi	r2, [fp, #20]
 1835              	.LVL208:
 1836              		.loc 1 1083 0
 1837 00e0 0133     		adds	r3, r3, #1
 1838              		.loc 1 1089 0
 1839 00e2 2368     		ldr	r3, [r4, #0]
 1840              		.loc 1 1084 0
 1841 00e4 08BF     		it	eq
 1842 00e6 E786     		strheq	r7, [r4, #54]	@ movhi
 1843              		.loc 1 1090 0
 1844 00e8 261D     		adds	r6, r4, #4
 1845              		.loc 1 1089 0
 1846 00ea 43B9     		cbnz	r3, .L250
 1847              		.loc 1 1090 0
 1848 00ec 3046     		mov	r0, r6
 1849 00ee FFF7FEFF 		bl	ip_route
 1850              	.LVL209:
 1851              		.loc 1 1091 0
 1852 00f2 0028     		cmp	r0, #0
 1853 00f4 35D0     		beq	.L251
 1854              		.loc 1 1094 0
 1855 00f6 4368     		ldr	r3, [r0, #4]
 1856 00f8 D5F80CB0 		ldr	fp, [r5, #12]
 1857              	.LVL210:
 1858 00fc 2360     		str	r3, [r4, #0]
 1859              	.LVL211:
 1860              	.L250:
 1861              		.loc 1 1097 0
 1862 00fe E36B     		ldr	r3, [r4, #60]
 1863 0100 002B     		cmp	r3, #0
 1864 0102 00F08480 		beq	.L312
 1865              	.L252:
 1866              		.loc 1 1107 0
 1867 0106 6868     		ldr	r0, [r5, #4]
 1868 0108 4368     		ldr	r3, [r0, #4]
 1869              		.loc 1 1110 0
 1870 010a B0F808E0 		ldrh	lr, [r0, #8]
 1871              		.loc 1 1109 0
 1872 010e 4289     		ldrh	r2, [r0, #10]
 1873              		.loc 1 1112 0
 1874 0110 C0F804B0 		str	fp, [r0, #4]
 1875              		.loc 1 1107 0
 1876 0114 C3EB0B03 		rsb	r3, r3, fp
ARM GAS  /tmp/ccuCtRWT.s 			page 34


 1877 0118 9BB2     		uxth	r3, r3
 1878              	.LVL212:
 1879              		.loc 1 1110 0
 1880 011a C3EB0E0E 		rsb	lr, r3, lr
 1881 011e 1FFA8EFE 		uxth	lr, lr
 1882              		.loc 1 1109 0
 1883 0122 D31A     		subs	r3, r2, r3
 1884              	.LVL213:
 1885 0124 4381     		strh	r3, [r0, #10]	@ movhi
 1886              		.loc 1 1110 0
 1887 0126 A0F808E0 		strh	lr, [r0, #8]	@ movhi
 1888              		.loc 1 1150 0
 1889 012a 2146     		mov	r1, r4
 1890              		.loc 1 1114 0
 1891 012c 8BF81070 		strb	r7, [fp, #16]
 1892 0130 8BF81170 		strb	r7, [fp, #17]
 1893              		.loc 1 1150 0
 1894 0134 3246     		mov	r2, r6
 1895 0136 0623     		movs	r3, #6
 1896 0138 CDF800E0 		str	lr, [sp, #0]
 1897 013c FFF7FEFF 		bl	inet_chksum_pseudo
 1898              	.LVL214:
 1899 0140 ABF81000 		strh	r0, [fp, #16]	@ unaligned
 1900              		.loc 1 1155 0
 1901 0144 B9F89030 		ldrh	r3, [r9, #144]
 1902              		.loc 1 1161 0
 1903 0148 6868     		ldr	r0, [r5, #4]
 1904 014a 0622     		movs	r2, #6
 1905              		.loc 1 1155 0
 1906 014c 0133     		adds	r3, r3, #1
 1907              		.loc 1 1161 0
 1908 014e 0192     		str	r2, [sp, #4]
 1909              		.loc 1 1155 0
 1910 0150 A9F89030 		strh	r3, [r9, #144]	@ movhi
 1911              		.loc 1 1161 0
 1912 0154 627A     		ldrb	r2, [r4, #9]	@ zero_extendqisi2
 1913 0156 A37A     		ldrb	r3, [r4, #10]	@ zero_extendqisi2
 1914 0158 0092     		str	r2, [sp, #0]
 1915 015a 2146     		mov	r1, r4
 1916 015c 3246     		mov	r2, r6
 1917 015e FFF7FEFF 		bl	ip_output
 1918              	.LVL215:
 1919              	.L251:
 1920              	.LBE45:
 1921              	.LBE47:
 1922              		.loc 1 984 0
 1923 0162 EB68     		ldr	r3, [r5, #12]
 1924 0164 5868     		ldr	r0, [r3, #4]	@ unaligned
 1925 0166 FFF7FEFF 		bl	lwip_ntohl
 1926              	.LVL216:
 1927 016a EA68     		ldr	r2, [r5, #12]
 1928 016c B5F808B0 		ldrh	fp, [r5, #8]
 1929 0170 0646     		mov	r6, r0
 1930 0172 9089     		ldrh	r0, [r2, #12]	@ unaligned
 1931 0174 FFF7FEFF 		bl	lwip_ntohs
 1932              	.LVL217:
 1933 0178 10F00300 		ands	r0, r0, #3
ARM GAS  /tmp/ccuCtRWT.s 			page 35


 1934 017c 18BF     		it	ne
 1935 017e 0120     		movne	r0, #1
 1936              		.loc 1 985 0
 1937 0180 A26D     		ldr	r2, [r4, #88]
 1938              		.loc 1 984 0
 1939 0182 0BEB0003 		add	r3, fp, r0
 1940 0186 9B19     		adds	r3, r3, r6
 1941              	.LVL218:
 1942              		.loc 1 985 0
 1943 0188 D21A     		subs	r2, r2, r3
 1944 018a 002A     		cmp	r2, #0
 1945              		.loc 1 986 0
 1946 018c B8BF     		it	lt
 1947 018e A365     		strlt	r3, [r4, #88]
 1948              		.loc 1 989 0
 1949 0190 EB68     		ldr	r3, [r5, #12]
 1950              	.LVL219:
 1951 0192 2E89     		ldrh	r6, [r5, #8]
 1952              	.LVL220:
 1953 0194 9889     		ldrh	r0, [r3, #12]	@ unaligned
 1954 0196 FFF7FEFF 		bl	lwip_ntohs
 1955              	.LVL221:
 1956 019a 10F00300 		ands	r0, r0, #3
 1957 019e 18BF     		it	ne
 1958 01a0 0120     		movne	r0, #1
 1959 01a2 3018     		adds	r0, r6, r0
 1960 01a4 0028     		cmp	r0, #0
 1961 01a6 70D0     		beq	.L254
 1962              		.loc 1 992 0
 1963 01a8 A36F     		ldr	r3, [r4, #120]
 1964              		.loc 1 990 0
 1965 01aa 2F60     		str	r7, [r5, #0]
 1966              		.loc 1 992 0
 1967 01ac 002B     		cmp	r3, #0
 1968 01ae 3CD0     		beq	.L313
 1969              		.loc 1 1000 0
 1970 01b0 EB68     		ldr	r3, [r5, #12]
 1971 01b2 5868     		ldr	r0, [r3, #4]	@ unaligned
 1972 01b4 FFF7FEFF 		bl	lwip_ntohl
 1973              	.LVL222:
 1974 01b8 D8F80C30 		ldr	r3, [r8, #12]
 1975 01bc 0646     		mov	r6, r0
 1976 01be 5868     		ldr	r0, [r3, #4]	@ unaligned
 1977 01c0 FFF7FEFF 		bl	lwip_ntohl
 1978              	.LVL223:
 1979 01c4 301A     		subs	r0, r6, r0
 1980 01c6 0028     		cmp	r0, #0
 1981              		.loc 1 1011 0
 1982 01c8 A4BF     		itt	ge
 1983 01ca C8F80050 		strge	r5, [r8, #0]
 1984              	.LVL224:
 1985 01ce A846     		movge	r8, r5
 1986              		.loc 1 1000 0
 1987 01d0 42DB     		blt	.L314
 1988              	.LVL225:
 1989              	.L256:
 1990              		.loc 1 1019 0
ARM GAS  /tmp/ccuCtRWT.s 			page 36


 1991 01d2 656F     		ldr	r5, [r4, #116]
 1992              	.LVL226:
 1993              		.loc 1 952 0
 1994 01d4 75B3     		cbz	r5, .L263
 1995              	.LVL227:
 1996              	.L291:
 1997              		.loc 1 953 0 discriminator 2
 1998 01d6 EB68     		ldr	r3, [r5, #12]
 1999 01d8 5868     		ldr	r0, [r3, #4]	@ unaligned
 2000 01da FFF7FEFF 		bl	lwip_ntohl
 2001              	.LVL228:
 2002 01de 2A89     		ldrh	r2, [r5, #8]
 2003 01e0 E36C     		ldr	r3, [r4, #76]
 2004 01e2 D31A     		subs	r3, r2, r3
 2005 01e4 1818     		adds	r0, r3, r0
 2006              		.loc 1 952 0 discriminator 2
 2007 01e6 8245     		cmp	sl, r0
 2008 01e8 76D3     		bcc	.L308
 2009              		.loc 1 954 0
 2010 01ea EB68     		ldr	r3, [r5, #12]
 2011 01ec 9889     		ldrh	r0, [r3, #12]	@ unaligned
 2012 01ee FFF7FEFF 		bl	lwip_ntohs
 2013              	.LVL229:
 2014 01f2 00F00400 		and	r0, r0, #4
 2015 01f6 80B2     		uxth	r0, r0
 2016 01f8 0028     		cmp	r0, #0
 2017 01fa 3FF431AF 		beq	.L243
 2018              		.loc 1 954 0 is_stmt 0 discriminator 1
 2019 01fe FFF7FEFF 		bl	port_halt
 2020              	.LVL230:
 2021 0202 2DE7     		b	.L243
 2022              	.LVL231:
 2023              	.L311:
 2024              	.LBB48:
 2025              	.LBB46:
 2026              		.loc 1 1066 0 is_stmt 1
 2027 0204 FFF7FEFF 		bl	port_halt
 2028              	.LVL232:
 2029 0208 D5F80CB0 		ldr	fp, [r5, #12]
 2030 020c 5FE7     		b	.L247
 2031              	.L312:
 2032              		.loc 1 1098 0
 2033 020e 40F20002 		movw	r2, #:lower16:tcp_ticks
 2034 0212 C0F20002 		movt	r2, #:upper16:tcp_ticks
 2035 0216 1368     		ldr	r3, [r2, #0]
 2036 0218 E363     		str	r3, [r4, #60]
 2037              		.loc 1 1099 0
 2038 021a DBF80400 		ldr	r0, [fp, #4]	@ unaligned
 2039 021e FFF7FEFF 		bl	lwip_ntohl
 2040              	.LVL233:
 2041 0222 D5F80CB0 		ldr	fp, [r5, #12]
 2042 0226 2064     		str	r0, [r4, #64]
 2043 0228 6DE7     		b	.L252
 2044              	.L313:
 2045              	.LBE46:
 2046              	.LBE48:
 2047              		.loc 1 993 0
ARM GAS  /tmp/ccuCtRWT.s 			page 37


 2048 022a A567     		str	r5, [r4, #120]
 2049              	.LVL234:
 2050 022c A846     		mov	r8, r5
 2051              		.loc 1 1019 0
 2052 022e 656F     		ldr	r5, [r4, #116]
 2053              	.LVL235:
 2054              		.loc 1 952 0
 2055 0230 002D     		cmp	r5, #0
 2056 0232 D0D1     		bne	.L291
 2057              	.LVL236:
 2058              	.L263:
 2059              		.loc 1 1024 0
 2060 0234 0023     		movs	r3, #0
 2061 0236 A4F87230 		strh	r3, [r4, #114]	@ movhi
 2062              	.L265:
 2063              		.loc 1 1028 0
 2064 023a 1DB1     		cbz	r5, .L267
 2065              		.loc 1 1028 0 is_stmt 0 discriminator 1
 2066 023c 94F8A060 		ldrb	r6, [r4, #160]	@ zero_extendqisi2
 2067 0240 002E     		cmp	r6, #0
 2068 0242 4DD0     		beq	.L315
 2069              	.L267:
 2070              		.loc 1 1035 0 is_stmt 1
 2071 0244 94F82030 		ldrb	r3, [r4, #32]	@ zero_extendqisi2
 2072 0248 03F07F03 		and	r3, r3, #127
 2073 024c 84F82030 		strb	r3, [r4, #32]
 2074              	.LVL237:
 2075              	.L290:
 2076              		.loc 1 1037 0
 2077 0250 0020     		movs	r0, #0
 2078 0252 05B0     		add	sp, sp, #20
 2079 0254 BDE8F08F 		pop	{r4, r5, r6, r7, r8, r9, sl, fp, pc}
 2080              	.LVL238:
 2081              	.L314:
 2082              	.LBB49:
 2083              		.loc 1 1003 0
 2084 0258 A36F     		ldr	r3, [r4, #120]
 2085              		.loc 1 1002 0
 2086 025a 04F17806 		add	r6, r4, #120
 2087              	.LVL239:
 2088              		.loc 1 1003 0
 2089 025e 1BB9     		cbnz	r3, .L292
 2090 0260 10E0     		b	.L259
 2091              	.L261:
 2092              		.loc 1 1005 0
 2093 0262 3668     		ldr	r6, [r6, #0]
 2094              	.LVL240:
 2095              		.loc 1 1003 0
 2096 0264 3368     		ldr	r3, [r6, #0]
 2097 0266 6BB1     		cbz	r3, .L259
 2098              	.L292:
 2099              		.loc 1 1004 0 discriminator 2
 2100 0268 DB68     		ldr	r3, [r3, #12]
 2101 026a 5868     		ldr	r0, [r3, #4]	@ unaligned
 2102 026c FFF7FEFF 		bl	lwip_ntohl
 2103              	.LVL241:
 2104 0270 EB68     		ldr	r3, [r5, #12]
ARM GAS  /tmp/ccuCtRWT.s 			page 38


 2105 0272 8346     		mov	fp, r0
 2106 0274 5868     		ldr	r0, [r3, #4]	@ unaligned
 2107 0276 FFF7FEFF 		bl	lwip_ntohl
 2108              	.LVL242:
 2109 027a C0EB0B00 		rsb	r0, r0, fp
 2110              		.loc 1 1003 0 discriminator 2
 2111 027e 0028     		cmp	r0, #0
 2112 0280 EFDB     		blt	.L261
 2113 0282 3368     		ldr	r3, [r6, #0]
 2114              	.L259:
 2115              		.loc 1 1007 0
 2116 0284 2B60     		str	r3, [r5, #0]
 2117              		.loc 1 1008 0
 2118 0286 3560     		str	r5, [r6, #0]
 2119 0288 A3E7     		b	.L256
 2120              	.LVL243:
 2121              	.L254:
 2122              	.LBE49:
 2123              		.loc 1 1017 0
 2124 028a 2846     		mov	r0, r5
 2125 028c FFF7FEFF 		bl	tcp_seg_free
 2126              	.LVL244:
 2127 0290 9FE7     		b	.L256
 2128              	.LVL245:
 2129              	.L310:
 2130              		.loc 1 963 0 discriminator 6
 2131 0292 1089     		ldrh	r0, [r2, #8]
 2132 0294 218F     		ldrh	r1, [r4, #56]
 2133 0296 8842     		cmp	r0, r1
 2134 0298 BFF4F1AE 		bcs	.L244
 2135              	.L245:
 2136              		.loc 1 963 0 is_stmt 0
 2137 029c 13F0A00F 		tst	r3, #160
 2138 02a0 7FF4EDAE 		bne	.L244
 2139              		.loc 1 1022 0 is_stmt 1
 2140 02a4 002A     		cmp	r2, #0
 2141 02a6 C8D1     		bne	.L265
 2142 02a8 C4E7     		b	.L263
 2143              	.L317:
 2144 02aa 00BF     		.align	2
 2145              	.L316:
 2146 02ac 00000000 		.word	tcp_input_pcb
 2147 02b0 00000000 		.word	lwip_stats
 2148              	.LVL246:
 2149              	.L309:
 2150              		.loc 1 918 0 discriminator 1
 2151 02b4 55B1     		cbz	r5, .L237
 2152              		.loc 1 920 0
 2153 02b6 EB68     		ldr	r3, [r5, #12]
 2154 02b8 5868     		ldr	r0, [r3, #4]	@ unaligned
 2155              	.LVL247:
 2156 02ba FFF7FEFF 		bl	lwip_ntohl
 2157              	.LVL248:
 2158 02be 2A89     		ldrh	r2, [r5, #8]
 2159 02c0 E36C     		ldr	r3, [r4, #76]
 2160 02c2 D31A     		subs	r3, r2, r3
 2161 02c4 1818     		adds	r0, r3, r0
ARM GAS  /tmp/ccuCtRWT.s 			page 39


 2162              		.loc 1 919 0
 2163 02c6 8245     		cmp	sl, r0
 2164 02c8 BFF4B3AE 		bcs	.L235
 2165              	.L237:
 2166              		.loc 1 921 0
 2167 02cc 2046     		mov	r0, r4
 2168              		.loc 1 1037 0
 2169 02ce 05B0     		add	sp, sp, #20
 2170 02d0 BDE8F04F 		pop	{r4, r5, r6, r7, r8, r9, sl, fp, lr}
 2171              		.loc 1 921 0
 2172 02d4 FFF7FEBF 		b	tcp_send_empty_ack
 2173              	.LVL249:
 2174              	.L308:
 2175 02d8 626F     		ldr	r2, [r4, #116]
 2176              		.loc 1 1022 0
 2177 02da 002A     		cmp	r2, #0
 2178 02dc ADD1     		bne	.L265
 2179 02de A9E7     		b	.L263
 2180              	.L315:
 2181              		.loc 1 1029 0 discriminator 1
 2182 02e0 EB68     		ldr	r3, [r5, #12]
 2183 02e2 5868     		ldr	r0, [r3, #4]	@ unaligned
 2184 02e4 FFF7FEFF 		bl	lwip_ntohl
 2185              	.LVL250:
 2186 02e8 2989     		ldrh	r1, [r5, #8]
 2187 02ea E36C     		ldr	r3, [r4, #76]
 2188 02ec B4F85C20 		ldrh	r2, [r4, #92]
 2189 02f0 CB1A     		subs	r3, r1, r3
 2190 02f2 1818     		adds	r0, r3, r0
 2191              		.loc 1 1028 0 discriminator 1
 2192 02f4 9042     		cmp	r0, r2
 2193 02f6 A5D9     		bls	.L267
 2194              		.loc 1 1032 0
 2195 02f8 0123     		movs	r3, #1
 2196              		.loc 1 1031 0
 2197 02fa C4F89C60 		str	r6, [r4, #156]
 2198              		.loc 1 1032 0
 2199 02fe 84F8A030 		strb	r3, [r4, #160]
 2200 0302 9FE7     		b	.L267
 2201              		.cfi_endproc
 2202              	.LFE15:
 2203              		.size	tcp_output, .-tcp_output
 2204 0304 AFF30080 		.section	.text.tcp_rst,"ax",%progbits
 2204      AFF30080 
 2204      AFF30080 
 2205              		.align	2
 2206              		.p2align 4,,15
 2207              		.global	tcp_rst
 2208              		.thumb
 2209              		.thumb_func
 2210              		.type	tcp_rst, %function
 2211              	tcp_rst:
 2212              	.LFB17:
 2213              		.loc 1 1190 0
 2214              		.cfi_startproc
 2215              		@ args = 8, pretend = 0, frame = 0
 2216              		@ frame_needed = 0, uses_anonymous_args = 0
ARM GAS  /tmp/ccuCtRWT.s 			page 40


 2217              	.LVL251:
 2218 0000 2DE9F047 		push	{r4, r5, r6, r7, r8, r9, sl, lr}
 2219              	.LCFI12:
 2220              		.cfi_def_cfa_offset 32
 2221              		.cfi_offset 4, -32
 2222              		.cfi_offset 5, -28
 2223              		.cfi_offset 6, -24
 2224              		.cfi_offset 7, -20
 2225              		.cfi_offset 8, -16
 2226              		.cfi_offset 9, -12
 2227              		.cfi_offset 10, -8
 2228              		.cfi_offset 14, -4
 2229 0004 82B0     		sub	sp, sp, #8
 2230              	.LCFI13:
 2231              		.cfi_def_cfa_offset 40
 2232              		.loc 1 1190 0
 2233 0006 8146     		mov	r9, r0
 2234 0008 0E46     		mov	r6, r1
 2235 000a 9046     		mov	r8, r2
 2236              		.loc 1 1193 0
 2237 000c 0120     		movs	r0, #1
 2238              	.LVL252:
 2239 000e 1421     		movs	r1, #20
 2240              	.LVL253:
 2241 0010 0022     		movs	r2, #0
 2242              	.LVL254:
 2243              		.loc 1 1190 0
 2244 0012 1F46     		mov	r7, r3
 2245 0014 BDF82840 		ldrh	r4, [sp, #40]
 2246 0018 BDF82CA0 		ldrh	sl, [sp, #44]
 2247              		.loc 1 1193 0
 2248 001c FFF7FEFF 		bl	pbuf_alloc
 2249              	.LVL255:
 2250              		.loc 1 1194 0
 2251 0020 0546     		mov	r5, r0
 2252 0022 0028     		cmp	r0, #0
 2253 0024 43D0     		beq	.L318
 2254              		.loc 1 1198 0
 2255 0026 4389     		ldrh	r3, [r0, #10]
 2256 0028 132B     		cmp	r3, #19
 2257 002a 3DD9     		bls	.L321
 2258              	.LVL256:
 2259              	.L320:
 2260              		.loc 1 1202 0
 2261 002c 2046     		mov	r0, r4
 2262              		.loc 1 1201 0
 2263 002e 6C68     		ldr	r4, [r5, #4]
 2264              	.LVL257:
 2265              		.loc 1 1202 0
 2266 0030 FFF7FEFF 		bl	lwip_htons
 2267              	.LVL258:
 2268 0034 2080     		strh	r0, [r4, #0]	@ unaligned
 2269              		.loc 1 1203 0
 2270 0036 5046     		mov	r0, sl
 2271 0038 FFF7FEFF 		bl	lwip_htons
 2272              	.LVL259:
 2273 003c 6080     		strh	r0, [r4, #2]	@ unaligned
ARM GAS  /tmp/ccuCtRWT.s 			page 41


 2274              		.loc 1 1204 0
 2275 003e 4846     		mov	r0, r9
 2276 0040 FFF7FEFF 		bl	lwip_htonl
 2277              	.LVL260:
 2278 0044 6060     		str	r0, [r4, #4]	@ unaligned
 2279              		.loc 1 1205 0
 2280 0046 3046     		mov	r0, r6
 2281 0048 FFF7FEFF 		bl	lwip_htonl
 2282              	.LVL261:
 2283 004c A060     		str	r0, [r4, #8]	@ unaligned
 2284              		.loc 1 1206 0
 2285 004e 45F21400 		movw	r0, #20500
 2286 0052 FFF7FEFF 		bl	lwip_htons
 2287              	.LVL262:
 2288              		.loc 1 1207 0
 2289 0056 0823     		movs	r3, #8
 2290 0058 0026     		movs	r6, #0
 2291              	.LVL263:
 2292 005a A373     		strb	r3, [r4, #14]
 2293 005c 6023     		movs	r3, #96
 2294 005e E373     		strb	r3, [r4, #15]
 2295              		.loc 1 1208 0
 2296 0060 2674     		strb	r6, [r4, #16]
 2297 0062 6674     		strb	r6, [r4, #17]
 2298              		.loc 1 1209 0
 2299 0064 A674     		strb	r6, [r4, #18]
 2300 0066 E674     		strb	r6, [r4, #19]
 2301              		.loc 1 1206 0
 2302 0068 A081     		strh	r0, [r4, #12]	@ unaligned
 2303              		.loc 1 1212 0
 2304 006a 2889     		ldrh	r0, [r5, #8]
 2305 006c 4146     		mov	r1, r8
 2306 006e 3A46     		mov	r2, r7
 2307 0070 0623     		movs	r3, #6
 2308 0072 0090     		str	r0, [sp, #0]
 2309 0074 2846     		mov	r0, r5
 2310 0076 FFF7FEFF 		bl	inet_chksum_pseudo
 2311              	.LVL264:
 2312              		.loc 1 1215 0
 2313 007a DFF838E0 		ldr	lr, .L322
 2314              		.loc 1 1212 0
 2315 007e 2082     		strh	r0, [r4, #16]	@ unaligned
 2316              		.loc 1 1215 0
 2317 0080 BEF89040 		ldrh	r4, [lr, #144]
 2318              	.LVL265:
 2319              		.loc 1 1218 0
 2320 0084 0096     		str	r6, [sp, #0]
 2321 0086 0623     		movs	r3, #6
 2322              		.loc 1 1215 0
 2323 0088 0134     		adds	r4, r4, #1
 2324              		.loc 1 1218 0
 2325 008a 0193     		str	r3, [sp, #4]
 2326 008c 2846     		mov	r0, r5
 2327 008e 4146     		mov	r1, r8
 2328 0090 3A46     		mov	r2, r7
 2329 0092 FF23     		movs	r3, #255
 2330              		.loc 1 1215 0
ARM GAS  /tmp/ccuCtRWT.s 			page 42


 2331 0094 AEF89040 		strh	r4, [lr, #144]	@ movhi
 2332              		.loc 1 1218 0
 2333 0098 FFF7FEFF 		bl	ip_output
 2334              	.LVL266:
 2335              		.loc 1 1219 0
 2336 009c 2846     		mov	r0, r5
 2337              		.loc 1 1221 0
 2338 009e 02B0     		add	sp, sp, #8
 2339 00a0 BDE8F047 		pop	{r4, r5, r6, r7, r8, r9, sl, lr}
 2340              		.loc 1 1219 0
 2341 00a4 FFF7FEBF 		b	pbuf_free
 2342              	.LVL267:
 2343              	.L321:
 2344              		.loc 1 1198 0 discriminator 1
 2345 00a8 FFF7FEFF 		bl	port_halt
 2346              	.LVL268:
 2347 00ac BEE7     		b	.L320
 2348              	.LVL269:
 2349              	.L318:
 2350              		.loc 1 1221 0
 2351 00ae 02B0     		add	sp, sp, #8
 2352 00b0 BDE8F087 		pop	{r4, r5, r6, r7, r8, r9, sl, pc}
 2353              	.L323:
 2354              		.align	2
 2355              	.L322:
 2356 00b4 00000000 		.word	lwip_stats
 2357              		.cfi_endproc
 2358              	.LFE17:
 2359              		.size	tcp_rst, .-tcp_rst
 2360 00b8 AFF30080 		.section	.text.tcp_rexmit_rto,"ax",%progbits
 2360      AFF30080 
 2361              		.align	2
 2362              		.p2align 4,,15
 2363              		.global	tcp_rexmit_rto
 2364              		.thumb
 2365              		.thumb_func
 2366              		.type	tcp_rexmit_rto, %function
 2367              	tcp_rexmit_rto:
 2368              	.LFB18:
 2369              		.loc 1 1232 0
 2370              		.cfi_startproc
 2371              		@ args = 0, pretend = 0, frame = 0
 2372              		@ frame_needed = 0, uses_anonymous_args = 0
 2373              		@ link register save eliminated.
 2374              	.LVL270:
 2375              		.loc 1 1235 0
 2376 0000 816F     		ldr	r1, [r0, #120]
 2377              		.loc 1 1232 0
 2378 0002 10B4     		push	{r4}
 2379              	.LCFI14:
 2380              		.cfi_def_cfa_offset 4
 2381              		.cfi_offset 4, -4
 2382              		.loc 1 1235 0
 2383 0004 91B1     		cbz	r1, .L324
 2384              		.loc 1 1235 0 is_stmt 0 discriminator 1
 2385 0006 0A46     		mov	r2, r1
 2386 0008 00E0     		b	.L326
ARM GAS  /tmp/ccuCtRWT.s 			page 43


 2387              	.LVL271:
 2388              	.L327:
 2389              		.loc 1 1240 0 is_stmt 1
 2390 000a 1A46     		mov	r2, r3
 2391              	.LVL272:
 2392              	.L326:
 2393              		.loc 1 1240 0 is_stmt 0 discriminator 1
 2394 000c 1368     		ldr	r3, [r2, #0]
 2395 000e 002B     		cmp	r3, #0
 2396 0010 FBD1     		bne	.L327
 2397              		.loc 1 1242 0 is_stmt 1
 2398 0012 446F     		ldr	r4, [r0, #116]
 2399 0014 1460     		str	r4, [r2, #0]
 2400              		.loc 1 1249 0
 2401 0016 90F84A20 		ldrb	r2, [r0, #74]	@ zero_extendqisi2
 2402              	.LVL273:
 2403              		.loc 1 1244 0
 2404 001a 4167     		str	r1, [r0, #116]
 2405              		.loc 1 1249 0
 2406 001c 0132     		adds	r2, r2, #1
 2407              		.loc 1 1246 0
 2408 001e 8367     		str	r3, [r0, #120]
 2409              		.loc 1 1249 0
 2410 0020 80F84A20 		strb	r2, [r0, #74]
 2411              		.loc 1 1252 0
 2412 0024 C363     		str	r3, [r0, #60]
 2413              		.loc 1 1256 0
 2414 0026 10BC     		pop	{r4}
 2415              		.loc 1 1255 0
 2416 0028 FFF7FEBF 		b	tcp_output
 2417              	.LVL274:
 2418              	.L324:
 2419              		.loc 1 1256 0
 2420 002c 10BC     		pop	{r4}
 2421 002e 7047     		bx	lr
 2422              		.cfi_endproc
 2423              	.LFE18:
 2424              		.size	tcp_rexmit_rto, .-tcp_rexmit_rto
 2425              		.section	.text.tcp_rexmit,"ax",%progbits
 2426              		.align	2
 2427              		.p2align 4,,15
 2428              		.global	tcp_rexmit
 2429              		.thumb
 2430              		.thumb_func
 2431              		.type	tcp_rexmit, %function
 2432              	tcp_rexmit:
 2433              	.LFB19:
 2434              		.loc 1 1267 0
 2435              		.cfi_startproc
 2436              		@ args = 0, pretend = 0, frame = 0
 2437              		@ frame_needed = 0, uses_anonymous_args = 0
 2438              	.LVL275:
 2439 0000 F8B5     		push	{r3, r4, r5, r6, r7, lr}
 2440              	.LCFI15:
 2441              		.cfi_def_cfa_offset 24
 2442              		.cfi_offset 3, -24
 2443              		.cfi_offset 4, -20
ARM GAS  /tmp/ccuCtRWT.s 			page 44


 2444              		.cfi_offset 5, -16
 2445              		.cfi_offset 6, -12
 2446              		.cfi_offset 7, -8
 2447              		.cfi_offset 14, -4
 2448              		.loc 1 1271 0
 2449 0002 866F     		ldr	r6, [r0, #120]
 2450              		.loc 1 1267 0
 2451 0004 0746     		mov	r7, r0
 2452              		.loc 1 1271 0
 2453 0006 FEB1     		cbz	r6, .L328
 2454              	.LVL276:
 2455              		.loc 1 1278 0
 2456 0008 3268     		ldr	r2, [r6, #0]
 2457              		.loc 1 1281 0
 2458 000a 436F     		ldr	r3, [r0, #116]
 2459              		.loc 1 1278 0
 2460 000c 8267     		str	r2, [r0, #120]
 2461              		.loc 1 1280 0
 2462 000e 00F17404 		add	r4, r0, #116
 2463              	.LVL277:
 2464              		.loc 1 1281 0
 2465 0012 1BB9     		cbnz	r3, .L336
 2466 0014 0FE0     		b	.L331
 2467              	.LVL278:
 2468              	.L333:
 2469              		.loc 1 1283 0
 2470 0016 2468     		ldr	r4, [r4, #0]
 2471              	.LVL279:
 2472              		.loc 1 1281 0
 2473 0018 2368     		ldr	r3, [r4, #0]
 2474 001a 63B1     		cbz	r3, .L331
 2475              	.L336:
 2476              		.loc 1 1282 0 discriminator 2
 2477 001c DB68     		ldr	r3, [r3, #12]
 2478 001e 5868     		ldr	r0, [r3, #4]	@ unaligned
 2479 0020 FFF7FEFF 		bl	lwip_ntohl
 2480              	.LVL280:
 2481 0024 F368     		ldr	r3, [r6, #12]
 2482 0026 0546     		mov	r5, r0
 2483 0028 5868     		ldr	r0, [r3, #4]	@ unaligned
 2484 002a FFF7FEFF 		bl	lwip_ntohl
 2485              	.LVL281:
 2486 002e 281A     		subs	r0, r5, r0
 2487              		.loc 1 1281 0 discriminator 2
 2488 0030 0028     		cmp	r0, #0
 2489 0032 F0DB     		blt	.L333
 2490 0034 2368     		ldr	r3, [r4, #0]
 2491              	.L331:
 2492              		.loc 1 1285 0
 2493 0036 3360     		str	r3, [r6, #0]
 2494              		.loc 1 1286 0
 2495 0038 2660     		str	r6, [r4, #0]
 2496              		.loc 1 1288 0
 2497 003a 97F84A30 		ldrb	r3, [r7, #74]	@ zero_extendqisi2
 2498 003e 0133     		adds	r3, r3, #1
 2499 0040 87F84A30 		strb	r3, [r7, #74]
 2500              		.loc 1 1291 0
ARM GAS  /tmp/ccuCtRWT.s 			page 45


 2501 0044 0023     		movs	r3, #0
 2502 0046 FB63     		str	r3, [r7, #60]
 2503              	.LVL282:
 2504              	.L328:
 2505 0048 F8BD     		pop	{r3, r4, r5, r6, r7, pc}
 2506              		.cfi_endproc
 2507              	.LFE19:
 2508              		.size	tcp_rexmit, .-tcp_rexmit
 2509 004a 00BFAFF3 		.section	.text.tcp_rexmit_fast,"ax",%progbits
 2509      0080
 2510              		.align	2
 2511              		.p2align 4,,15
 2512              		.global	tcp_rexmit_fast
 2513              		.thumb
 2514              		.thumb_func
 2515              		.type	tcp_rexmit_fast, %function
 2516              	tcp_rexmit_fast:
 2517              	.LFB20:
 2518              		.loc 1 1307 0
 2519              		.cfi_startproc
 2520              		@ args = 0, pretend = 0, frame = 0
 2521              		@ frame_needed = 0, uses_anonymous_args = 0
 2522              	.LVL283:
 2523              		.loc 1 1308 0
 2524 0000 836F     		ldr	r3, [r0, #120]
 2525              		.loc 1 1307 0
 2526 0002 10B5     		push	{r4, lr}
 2527              	.LCFI16:
 2528              		.cfi_def_cfa_offset 8
 2529              		.cfi_offset 4, -8
 2530              		.cfi_offset 14, -4
 2531              		.loc 1 1307 0
 2532 0004 0446     		mov	r4, r0
 2533              		.loc 1 1308 0
 2534 0006 2BB1     		cbz	r3, .L339
 2535              		.loc 1 1308 0 is_stmt 0 discriminator 1
 2536 0008 90F82030 		ldrb	r3, [r0, #32]	@ zero_extendqisi2
 2537 000c 03F00403 		and	r3, r3, #4
 2538 0010 DBB2     		uxtb	r3, r3
 2539 0012 03B1     		cbz	r3, .L347
 2540              	.L339:
 2541 0014 10BD     		pop	{r4, pc}
 2542              	.L347:
 2543              		.loc 1 1315 0 is_stmt 1
 2544 0016 FFF7FEFF 		bl	tcp_rexmit
 2545              	.LVL284:
 2546              		.loc 1 1319 0
 2547 001a B4F85230 		ldrh	r3, [r4, #82]
 2548 001e B4F85C20 		ldrh	r2, [r4, #92]
 2549 0022 9342     		cmp	r3, r2
 2550 0024 15D8     		bhi	.L348
 2551              		.loc 1 1322 0
 2552 0026 5B08     		lsrs	r3, r3, #1
 2553 0028 A4F85430 		strh	r3, [r4, #84]	@ movhi
 2554              	.L342:
 2555              		.loc 1 1326 0
 2556 002c 218F     		ldrh	r1, [r4, #56]
ARM GAS  /tmp/ccuCtRWT.s 			page 46


 2557              		.loc 1 1335 0
 2558 002e 94F82000 		ldrb	r0, [r4, #32]	@ zero_extendqisi2
 2559              		.loc 1 1326 0
 2560 0032 4A00     		lsls	r2, r1, #1
 2561 0034 9342     		cmp	r3, r2
 2562              		.loc 1 1331 0
 2563 0036 B8BF     		it	lt
 2564 0038 93B2     		uxthlt	r3, r2
 2565              		.loc 1 1334 0
 2566 003a 0A44     		add	r2, r2, r1
 2567              		.loc 1 1331 0
 2568 003c B8BF     		it	lt
 2569 003e A4F85430 		strhlt	r3, [r4, #84]	@ movhi
 2570              		.loc 1 1335 0
 2571 0042 40F00400 		orr	r0, r0, #4
 2572              		.loc 1 1334 0
 2573 0046 9B18     		adds	r3, r3, r2
 2574 0048 A4F85230 		strh	r3, [r4, #82]	@ movhi
 2575              		.loc 1 1335 0
 2576 004c 84F82000 		strb	r0, [r4, #32]
 2577 0050 10BD     		pop	{r4, pc}
 2578              	.L348:
 2579              		.loc 1 1320 0
 2580 0052 5308     		lsrs	r3, r2, #1
 2581 0054 A4F85430 		strh	r3, [r4, #84]	@ movhi
 2582 0058 E8E7     		b	.L342
 2583              		.cfi_endproc
 2584              	.LFE20:
 2585              		.size	tcp_rexmit_fast, .-tcp_rexmit_fast
 2586 005a 00BFAFF3 		.section	.text.tcp_keepalive,"ax",%progbits
 2586      0080
 2587              		.align	2
 2588              		.p2align 4,,15
 2589              		.global	tcp_keepalive
 2590              		.thumb
 2591              		.thumb_func
 2592              		.type	tcp_keepalive, %function
 2593              	tcp_keepalive:
 2594              	.LFB21:
 2595              		.loc 1 1350 0
 2596              		.cfi_startproc
 2597              		@ args = 0, pretend = 0, frame = 0
 2598              		@ frame_needed = 0, uses_anonymous_args = 0
 2599              	.LVL285:
 2600 0000 F0B5     		push	{r4, r5, r6, r7, lr}
 2601              	.LCFI17:
 2602              		.cfi_def_cfa_offset 20
 2603              		.cfi_offset 4, -20
 2604              		.cfi_offset 5, -16
 2605              		.cfi_offset 6, -12
 2606              		.cfi_offset 7, -8
 2607              		.cfi_offset 14, -4
 2608 0002 0446     		mov	r4, r0
 2609              		.loc 1 1361 0
 2610 0004 806D     		ldr	r0, [r0, #88]
 2611              	.LVL286:
 2612              		.loc 1 1350 0
ARM GAS  /tmp/ccuCtRWT.s 			page 47


 2613 0006 83B0     		sub	sp, sp, #12
 2614              	.LCFI18:
 2615              		.cfi_def_cfa_offset 32
 2616              		.loc 1 1361 0
 2617 0008 0138     		subs	r0, r0, #1
 2618 000a FFF7FEFF 		bl	lwip_htonl
 2619              	.LVL287:
 2620 000e 0021     		movs	r1, #0
 2621 0010 0246     		mov	r2, r0
 2622 0012 2046     		mov	r0, r4
 2623 0014 FFF7FEFF 		bl	tcp_output_alloc_header.constprop.0
 2624              	.LVL288:
 2625              		.loc 1 1362 0
 2626 0018 0546     		mov	r5, r0
 2627 001a 00B3     		cbz	r0, .L349
 2628              		.loc 1 1370 0
 2629 001c 0389     		ldrh	r3, [r0, #8]
 2630              		.loc 1 1367 0
 2631 001e 4768     		ldr	r7, [r0, #4]
 2632              	.LVL289:
 2633              		.loc 1 1370 0
 2634 0020 0093     		str	r3, [sp, #0]
 2635 0022 261D     		adds	r6, r4, #4
 2636 0024 2146     		mov	r1, r4
 2637 0026 3246     		mov	r2, r6
 2638 0028 0623     		movs	r3, #6
 2639 002a FFF7FEFF 		bl	inet_chksum_pseudo
 2640              	.LVL290:
 2641              		.loc 1 1373 0
 2642 002e 0D4B     		ldr	r3, .L351
 2643              		.loc 1 1370 0
 2644 0030 3882     		strh	r0, [r7, #16]	@ unaligned
 2645              		.loc 1 1373 0
 2646 0032 B3F89020 		ldrh	r2, [r3, #144]
 2647 0036 0132     		adds	r2, r2, #1
 2648 0038 A3F89020 		strh	r2, [r3, #144]	@ movhi
 2649              		.loc 1 1380 0
 2650 003c 4FF0060E 		mov	lr, #6
 2651 0040 0022     		movs	r2, #0
 2652 0042 A37A     		ldrb	r3, [r4, #10]	@ zero_extendqisi2
 2653 0044 2846     		mov	r0, r5
 2654 0046 8DE80440 		stmia	sp, {r2, lr}
 2655 004a 2146     		mov	r1, r4
 2656 004c 3246     		mov	r2, r6
 2657 004e FFF7FEFF 		bl	ip_output
 2658              	.LVL291:
 2659              		.loc 1 1383 0
 2660 0052 2846     		mov	r0, r5
 2661              		.loc 1 1387 0
 2662 0054 03B0     		add	sp, sp, #12
 2663 0056 BDE8F040 		pop	{r4, r5, r6, r7, lr}
 2664              		.loc 1 1383 0
 2665 005a FFF7FEBF 		b	pbuf_free
 2666              	.LVL292:
 2667              	.L349:
 2668              		.loc 1 1387 0
 2669 005e 03B0     		add	sp, sp, #12
ARM GAS  /tmp/ccuCtRWT.s 			page 48


 2670 0060 F0BD     		pop	{r4, r5, r6, r7, pc}
 2671              	.L352:
 2672 0062 00BF     		.align	2
 2673              	.L351:
 2674 0064 00000000 		.word	lwip_stats
 2675              		.cfi_endproc
 2676              	.LFE21:
 2677              		.size	tcp_keepalive, .-tcp_keepalive
 2678 0068 AFF30080 		.section	.text.tcp_zero_window_probe,"ax",%progbits
 2678      AFF30080 
 2679              		.align	2
 2680              		.p2align 4,,15
 2681              		.global	tcp_zero_window_probe
 2682              		.thumb
 2683              		.thumb_func
 2684              		.type	tcp_zero_window_probe, %function
 2685              	tcp_zero_window_probe:
 2686              	.LFB22:
 2687              		.loc 1 1400 0
 2688              		.cfi_startproc
 2689              		@ args = 0, pretend = 0, frame = 0
 2690              		@ frame_needed = 0, uses_anonymous_args = 0
 2691              	.LVL293:
 2692 0000 2DE9F041 		push	{r4, r5, r6, r7, r8, lr}
 2693              	.LCFI19:
 2694              		.cfi_def_cfa_offset 24
 2695              		.cfi_offset 4, -24
 2696              		.cfi_offset 5, -20
 2697              		.cfi_offset 6, -16
 2698              		.cfi_offset 7, -12
 2699              		.cfi_offset 8, -8
 2700              		.cfi_offset 14, -4
 2701              		.loc 1 1418 0
 2702 0004 866F     		ldr	r6, [r0, #120]
 2703              	.LVL294:
 2704              		.loc 1 1400 0
 2705 0006 82B0     		sub	sp, sp, #8
 2706              	.LCFI20:
 2707              		.cfi_def_cfa_offset 32
 2708              		.loc 1 1400 0
 2709 0008 0446     		mov	r4, r0
 2710              		.loc 1 1420 0
 2711 000a 002E     		cmp	r6, #0
 2712 000c 5BD0     		beq	.L365
 2713              	.L354:
 2714              		.loc 1 1427 0
 2715 000e F368     		ldr	r3, [r6, #12]
 2716 0010 9889     		ldrh	r0, [r3, #12]	@ unaligned
 2717              	.LVL295:
 2718 0012 FFF7FEFF 		bl	lwip_ntohs
 2719              	.LVL296:
 2720 0016 10F00100 		ands	r0, r0, #1
 2721 001a 37D1     		bne	.L366
 2722 001c 0121     		movs	r1, #1
 2723 001e 8046     		mov	r8, r0
 2724              	.L356:
 2725              	.LVL297:
ARM GAS  /tmp/ccuCtRWT.s 			page 49


 2726              		.loc 1 1431 0 discriminator 4
 2727 0020 F368     		ldr	r3, [r6, #12]
 2728 0022 2046     		mov	r0, r4
 2729 0024 5A68     		ldr	r2, [r3, #4]	@ unaligned
 2730 0026 FFF7FEFF 		bl	tcp_output_alloc_header.constprop.0
 2731              	.LVL298:
 2732              		.loc 1 1432 0 discriminator 4
 2733 002a 0546     		mov	r5, r0
 2734 002c 0028     		cmp	r0, #0
 2735 002e 4DD0     		beq	.L353
 2736              		.loc 1 1436 0
 2737 0030 4768     		ldr	r7, [r0, #4]
 2738              	.LVL299:
 2739              		.loc 1 1438 0
 2740 0032 B8F1000F 		cmp	r8, #0
 2741 0036 34D0     		beq	.L358
 2742              		.loc 1 1440 0
 2743 0038 BB89     		ldrh	r3, [r7, #12]	@ unaligned
 2744 003a 4CF2FF06 		movw	r6, #49407
 2745              	.LVL300:
 2746 003e 1120     		movs	r0, #17
 2747              	.LVL301:
 2748 0040 1E40     		ands	r6, r6, r3
 2749 0042 FFF7FEFF 		bl	lwip_htons
 2750              	.LVL302:
 2751 0046 3043     		orrs	r0, r0, r6
 2752 0048 B881     		strh	r0, [r7, #12]	@ unaligned
 2753              	.L359:
 2754              		.loc 1 1449 0
 2755 004a 2889     		ldrh	r0, [r5, #8]
 2756 004c 261D     		adds	r6, r4, #4
 2757 004e 2146     		mov	r1, r4
 2758 0050 3246     		mov	r2, r6
 2759 0052 0623     		movs	r3, #6
 2760 0054 0090     		str	r0, [sp, #0]
 2761 0056 2846     		mov	r0, r5
 2762 0058 FFF7FEFF 		bl	inet_chksum_pseudo
 2763              	.LVL303:
 2764              		.loc 1 1452 0
 2765 005c 1D4B     		ldr	r3, .L367
 2766              		.loc 1 1449 0
 2767 005e 3882     		strh	r0, [r7, #16]	@ unaligned
 2768              		.loc 1 1452 0
 2769 0060 B3F89020 		ldrh	r2, [r3, #144]
 2770 0064 0132     		adds	r2, r2, #1
 2771 0066 A3F89020 		strh	r2, [r3, #144]	@ movhi
 2772              		.loc 1 1459 0
 2773 006a 4FF0060C 		mov	ip, #6
 2774 006e 0022     		movs	r2, #0
 2775 0070 A37A     		ldrb	r3, [r4, #10]	@ zero_extendqisi2
 2776 0072 2846     		mov	r0, r5
 2777 0074 8DE80410 		stmia	sp, {r2, ip}
 2778 0078 2146     		mov	r1, r4
 2779 007a 3246     		mov	r2, r6
 2780 007c FFF7FEFF 		bl	ip_output
 2781              	.LVL304:
 2782              		.loc 1 1462 0
ARM GAS  /tmp/ccuCtRWT.s 			page 50


 2783 0080 2846     		mov	r0, r5
 2784              		.loc 1 1467 0
 2785 0082 02B0     		add	sp, sp, #8
 2786 0084 BDE8F041 		pop	{r4, r5, r6, r7, r8, lr}
 2787              		.loc 1 1462 0
 2788 0088 FFF7FEBF 		b	pbuf_free
 2789              	.LVL305:
 2790              	.L366:
 2791              		.loc 1 1427 0 discriminator 1
 2792 008c 3389     		ldrh	r3, [r6, #8]
 2793 008e 002B     		cmp	r3, #0
 2794 0090 0CBF     		ite	eq
 2795 0092 0021     		moveq	r1, #0
 2796 0094 0121     		movne	r1, #1
 2797 0096 14BF     		ite	ne
 2798 0098 4FF00008 		movne	r8, #0
 2799 009c 4FF00108 		moveq	r8, #1
 2800 00a0 BEE7     		b	.L356
 2801              	.LVL306:
 2802              	.L358:
 2803              	.LBB50:
 2804              		.loc 1 1443 0
 2805 00a2 7668     		ldr	r6, [r6, #4]
 2806              	.LVL307:
 2807              		.loc 1 1445 0
 2808 00a4 7368     		ldr	r3, [r6, #4]
 2809 00a6 9889     		ldrh	r0, [r3, #12]	@ unaligned
 2810              	.LVL308:
 2811 00a8 FFF7FEFF 		bl	lwip_ntohs
 2812              	.LVL309:
 2813 00ac 4FF6FC73 		movw	r3, #65532
 2814 00b0 4FEA902E 		lsr	lr, r0, #10
 2815 00b4 07F11401 		add	r1, r7, #20
 2816              	.LVL310:
 2817 00b8 3046     		mov	r0, r6
 2818 00ba 0122     		movs	r2, #1
 2819 00bc 0EEA0303 		and	r3, lr, r3
 2820 00c0 FFF7FEFF 		bl	pbuf_copy_partial
 2821              	.LVL311:
 2822 00c4 C1E7     		b	.L359
 2823              	.LVL312:
 2824              	.L365:
 2825              	.LBE50:
 2826              		.loc 1 1421 0
 2827 00c6 466F     		ldr	r6, [r0, #116]
 2828              	.LVL313:
 2829              		.loc 1 1423 0
 2830 00c8 002E     		cmp	r6, #0
 2831 00ca A0D1     		bne	.L354
 2832              	.LVL314:
 2833              	.L353:
 2834              		.loc 1 1467 0
 2835 00cc 02B0     		add	sp, sp, #8
 2836 00ce BDE8F081 		pop	{r4, r5, r6, r7, r8, pc}
 2837              	.L368:
 2838 00d2 00BF     		.align	2
 2839              	.L367:
ARM GAS  /tmp/ccuCtRWT.s 			page 51


 2840 00d4 00000000 		.word	lwip_stats
 2841              		.cfi_endproc
 2842              	.LFE22:
 2843              		.size	tcp_zero_window_probe, .-tcp_zero_window_probe
 2844 00d8 AFF30080 		.text
 2844      AFF30080 
 2845              	.Letext0:
 2846              		.file 2 "/opt/psas/x-tools/stm32f407/arm-psas-eabi/bin/../lib/gcc/arm-psas-eabi/4.7.2/../../../../
 2847              		.file 3 "../../os/various/lwip_bindings/arch/cc.h"
 2848              		.file 4 "../../ext/lwip/src/include/lwip/err.h"
 2849              		.file 5 "../../ext/lwip/src/include/lwip/mem.h"
 2850              		.file 6 "../../ext/lwip/src/include/lwip/pbuf.h"
 2851              		.file 7 "../../ext/lwip/src/include/ipv4/lwip/ip_addr.h"
 2852              		.file 8 "../../ext/lwip/src/include/lwip/netif.h"
 2853              		.file 9 "../../ext/lwip/src/include/lwip/tcp.h"
 2854              		.file 10 "../../ext/lwip/src/include/lwip/tcp_impl.h"
 2855              		.file 11 "../../ext/lwip/src/include/lwip/memp.h"
 2856              		.file 12 "../../ext/lwip/src/include/lwip/stats.h"
 2857              		.file 13 "../../ext/lwip/src/include/lwip/def.h"
 2858              		.file 14 "../../ext/lwip/src/include/ipv4/lwip/inet_chksum.h"
 2859              		.file 15 "../../ext/lwip/src/include/ipv4/lwip/ip.h"
 2860              		.file 16 "../../os/ports/GCC/ARMCMx/chcore_v7m.h"
 2861              		.section	.debug_info,"",%progbits
 2862              	.Ldebug_info0:
 2863 0000 0B1E0000 		.4byte	0x1e0b
 2864 0004 0200     		.2byte	0x2
 2865 0006 00000000 		.4byte	.Ldebug_abbrev0
 2866 000a 04       		.byte	0x4
 2867 000b 01       		.uleb128 0x1
 2868 000c 12020000 		.4byte	.LASF230
 2869 0010 01       		.byte	0x1
 2870 0011 0B010000 		.4byte	.LASF231
 2871 0015 13050000 		.4byte	.LASF232
 2872 0019 48010000 		.4byte	.Ldebug_ranges0+0x148
 2873 001d 00000000 		.4byte	0
 2874 0021 00000000 		.4byte	0
 2875 0025 00000000 		.4byte	.Ldebug_line0
 2876 0029 02       		.uleb128 0x2
 2877 002a 04       		.byte	0x4
 2878 002b 05       		.byte	0x5
 2879 002c 696E7400 		.ascii	"int\000"
 2880 0030 03       		.uleb128 0x3
 2881 0031 04       		.byte	0x4
 2882 0032 07       		.byte	0x7
 2883 0033 B0000000 		.4byte	.LASF0
 2884 0037 04       		.uleb128 0x4
 2885 0038 06020000 		.4byte	.LASF2
 2886 003c 02       		.byte	0x2
 2887 003d 29       		.byte	0x29
 2888 003e 42000000 		.4byte	0x42
 2889 0042 03       		.uleb128 0x3
 2890 0043 01       		.byte	0x1
 2891 0044 06       		.byte	0x6
 2892 0045 B8080000 		.4byte	.LASF1
 2893 0049 04       		.uleb128 0x4
 2894 004a 47040000 		.4byte	.LASF3
 2895 004e 02       		.byte	0x2
ARM GAS  /tmp/ccuCtRWT.s 			page 52


 2896 004f 2A       		.byte	0x2a
 2897 0050 54000000 		.4byte	0x54
 2898 0054 03       		.uleb128 0x3
 2899 0055 01       		.byte	0x1
 2900 0056 08       		.byte	0x8
 2901 0057 0D080000 		.4byte	.LASF4
 2902 005b 04       		.uleb128 0x4
 2903 005c 64020000 		.4byte	.LASF5
 2904 0060 02       		.byte	0x2
 2905 0061 35       		.byte	0x35
 2906 0062 66000000 		.4byte	0x66
 2907 0066 03       		.uleb128 0x3
 2908 0067 02       		.byte	0x2
 2909 0068 05       		.byte	0x5
 2910 0069 1F060000 		.4byte	.LASF6
 2911 006d 04       		.uleb128 0x4
 2912 006e 95050000 		.4byte	.LASF7
 2913 0072 02       		.byte	0x2
 2914 0073 36       		.byte	0x36
 2915 0074 78000000 		.4byte	0x78
 2916 0078 03       		.uleb128 0x3
 2917 0079 02       		.byte	0x2
 2918 007a 07       		.byte	0x7
 2919 007b CC080000 		.4byte	.LASF8
 2920 007f 04       		.uleb128 0x4
 2921 0080 B6070000 		.4byte	.LASF9
 2922 0084 02       		.byte	0x2
 2923 0085 4F       		.byte	0x4f
 2924 0086 8A000000 		.4byte	0x8a
 2925 008a 03       		.uleb128 0x3
 2926 008b 04       		.byte	0x4
 2927 008c 05       		.byte	0x5
 2928 008d 37060000 		.4byte	.LASF10
 2929 0091 04       		.uleb128 0x4
 2930 0092 FD010000 		.4byte	.LASF11
 2931 0096 02       		.byte	0x2
 2932 0097 50       		.byte	0x50
 2933 0098 9C000000 		.4byte	0x9c
 2934 009c 03       		.uleb128 0x3
 2935 009d 04       		.byte	0x4
 2936 009e 07       		.byte	0x7
 2937 009f 8D070000 		.4byte	.LASF12
 2938 00a3 03       		.uleb128 0x3
 2939 00a4 08       		.byte	0x8
 2940 00a5 05       		.byte	0x5
 2941 00a6 9C040000 		.4byte	.LASF13
 2942 00aa 03       		.uleb128 0x3
 2943 00ab 08       		.byte	0x8
 2944 00ac 07       		.byte	0x7
 2945 00ad 89020000 		.4byte	.LASF14
 2946 00b1 05       		.uleb128 0x5
 2947 00b2 04       		.byte	0x4
 2948 00b3 03       		.uleb128 0x3
 2949 00b4 04       		.byte	0x4
 2950 00b5 07       		.byte	0x7
 2951 00b6 84070000 		.4byte	.LASF15
 2952 00ba 03       		.uleb128 0x3
ARM GAS  /tmp/ccuCtRWT.s 			page 53


 2953 00bb 01       		.byte	0x1
 2954 00bc 08       		.byte	0x8
 2955 00bd F1030000 		.4byte	.LASF16
 2956 00c1 04       		.uleb128 0x4
 2957 00c2 E0040000 		.4byte	.LASF17
 2958 00c6 03       		.byte	0x3
 2959 00c7 3C       		.byte	0x3c
 2960 00c8 49000000 		.4byte	0x49
 2961 00cc 04       		.uleb128 0x4
 2962 00cd 86030000 		.4byte	.LASF18
 2963 00d1 03       		.byte	0x3
 2964 00d2 3D       		.byte	0x3d
 2965 00d3 37000000 		.4byte	0x37
 2966 00d7 04       		.uleb128 0x4
 2967 00d8 05010000 		.4byte	.LASF19
 2968 00dc 03       		.byte	0x3
 2969 00dd 3E       		.byte	0x3e
 2970 00de 6D000000 		.4byte	0x6d
 2971 00e2 04       		.uleb128 0x4
 2972 00e3 B0070000 		.4byte	.LASF20
 2973 00e7 03       		.byte	0x3
 2974 00e8 3F       		.byte	0x3f
 2975 00e9 5B000000 		.4byte	0x5b
 2976 00ed 04       		.uleb128 0x4
 2977 00ee 13060000 		.4byte	.LASF21
 2978 00f2 03       		.byte	0x3
 2979 00f3 40       		.byte	0x40
 2980 00f4 91000000 		.4byte	0x91
 2981 00f8 04       		.uleb128 0x4
 2982 00f9 8B030000 		.4byte	.LASF22
 2983 00fd 03       		.byte	0x3
 2984 00fe 41       		.byte	0x41
 2985 00ff 7F000000 		.4byte	0x7f
 2986 0103 04       		.uleb128 0x4
 2987 0104 F8060000 		.4byte	.LASF23
 2988 0108 03       		.byte	0x3
 2989 0109 42       		.byte	0x42
 2990 010a 91000000 		.4byte	0x91
 2991 010e 04       		.uleb128 0x4
 2992 010f E9000000 		.4byte	.LASF24
 2993 0113 04       		.byte	0x4
 2994 0114 2F       		.byte	0x2f
 2995 0115 CC000000 		.4byte	0xcc
 2996 0119 04       		.uleb128 0x4
 2997 011a 02040000 		.4byte	.LASF25
 2998 011e 05       		.byte	0x5
 2999 011f 4B       		.byte	0x4b
 3000 0120 D7000000 		.4byte	0xd7
 3001 0124 06       		.uleb128 0x6
 3002 0125 01       		.byte	0x1
 3003 0126 06       		.byte	0x6
 3004 0127 32       		.byte	0x32
 3005 0128 45010000 		.4byte	0x145
 3006 012c 07       		.uleb128 0x7
 3007 012d B9010000 		.4byte	.LASF26
 3008 0131 00       		.sleb128 0
 3009 0132 07       		.uleb128 0x7
ARM GAS  /tmp/ccuCtRWT.s 			page 54


 3010 0133 22030000 		.4byte	.LASF27
 3011 0137 01       		.sleb128 1
 3012 0138 07       		.uleb128 0x7
 3013 0139 7F050000 		.4byte	.LASF28
 3014 013d 02       		.sleb128 2
 3015 013e 07       		.uleb128 0x7
 3016 013f 81000000 		.4byte	.LASF29
 3017 0143 03       		.sleb128 3
 3018 0144 00       		.byte	0
 3019 0145 04       		.uleb128 0x4
 3020 0146 BE070000 		.4byte	.LASF30
 3021 014a 06       		.byte	0x6
 3022 014b 37       		.byte	0x37
 3023 014c 24010000 		.4byte	0x124
 3024 0150 06       		.uleb128 0x6
 3025 0151 01       		.byte	0x1
 3026 0152 06       		.byte	0x6
 3027 0153 39       		.byte	0x39
 3028 0154 71010000 		.4byte	0x171
 3029 0158 07       		.uleb128 0x7
 3030 0159 5D000000 		.4byte	.LASF31
 3031 015d 00       		.sleb128 0
 3032 015e 07       		.uleb128 0x7
 3033 015f 5A090000 		.4byte	.LASF32
 3034 0163 01       		.sleb128 1
 3035 0164 07       		.uleb128 0x7
 3036 0165 E7020000 		.4byte	.LASF33
 3037 0169 02       		.sleb128 2
 3038 016a 07       		.uleb128 0x7
 3039 016b 53030000 		.4byte	.LASF34
 3040 016f 03       		.sleb128 3
 3041 0170 00       		.byte	0
 3042 0171 04       		.uleb128 0x4
 3043 0172 8A000000 		.4byte	.LASF35
 3044 0176 06       		.byte	0x6
 3045 0177 3E       		.byte	0x3e
 3046 0178 50010000 		.4byte	0x150
 3047 017c 08       		.uleb128 0x8
 3048 017d 4E030000 		.4byte	.LASF41
 3049 0181 10       		.byte	0x10
 3050 0182 06       		.byte	0x6
 3051 0183 49       		.byte	0x49
 3052 0184 EB010000 		.4byte	0x1eb
 3053 0188 09       		.uleb128 0x9
 3054 0189 CE000000 		.4byte	.LASF36
 3055 018d 06       		.byte	0x6
 3056 018e 4B       		.byte	0x4b
 3057 018f EB010000 		.4byte	0x1eb
 3058 0193 02       		.byte	0x2
 3059 0194 23       		.byte	0x23
 3060 0195 00       		.uleb128 0
 3061 0196 09       		.uleb128 0x9
 3062 0197 1A030000 		.4byte	.LASF37
 3063 019b 06       		.byte	0x6
 3064 019c 4E       		.byte	0x4e
 3065 019d B1000000 		.4byte	0xb1
 3066 01a1 02       		.byte	0x2
ARM GAS  /tmp/ccuCtRWT.s 			page 55


 3067 01a2 23       		.byte	0x23
 3068 01a3 04       		.uleb128 0x4
 3069 01a4 09       		.uleb128 0x9
 3070 01a5 12030000 		.4byte	.LASF38
 3071 01a9 06       		.byte	0x6
 3072 01aa 57       		.byte	0x57
 3073 01ab D7000000 		.4byte	0xd7
 3074 01af 02       		.byte	0x2
 3075 01b0 23       		.byte	0x23
 3076 01b1 08       		.uleb128 0x8
 3077 01b2 0A       		.uleb128 0xa
 3078 01b3 6C656E00 		.ascii	"len\000"
 3079 01b7 06       		.byte	0x6
 3080 01b8 5A       		.byte	0x5a
 3081 01b9 D7000000 		.4byte	0xd7
 3082 01bd 02       		.byte	0x2
 3083 01be 23       		.byte	0x23
 3084 01bf 0A       		.uleb128 0xa
 3085 01c0 09       		.uleb128 0x9
 3086 01c1 FE070000 		.4byte	.LASF39
 3087 01c5 06       		.byte	0x6
 3088 01c6 5D       		.byte	0x5d
 3089 01c7 C1000000 		.4byte	0xc1
 3090 01cb 02       		.byte	0x2
 3091 01cc 23       		.byte	0x23
 3092 01cd 0C       		.uleb128 0xc
 3093 01ce 09       		.uleb128 0x9
 3094 01cf 6F030000 		.4byte	.LASF40
 3095 01d3 06       		.byte	0x6
 3096 01d4 60       		.byte	0x60
 3097 01d5 C1000000 		.4byte	0xc1
 3098 01d9 02       		.byte	0x2
 3099 01da 23       		.byte	0x23
 3100 01db 0D       		.uleb128 0xd
 3101 01dc 0A       		.uleb128 0xa
 3102 01dd 72656600 		.ascii	"ref\000"
 3103 01e1 06       		.byte	0x6
 3104 01e2 67       		.byte	0x67
 3105 01e3 D7000000 		.4byte	0xd7
 3106 01e7 02       		.byte	0x2
 3107 01e8 23       		.byte	0x23
 3108 01e9 0E       		.uleb128 0xe
 3109 01ea 00       		.byte	0
 3110 01eb 0B       		.uleb128 0xb
 3111 01ec 04       		.byte	0x4
 3112 01ed 7C010000 		.4byte	0x17c
 3113 01f1 08       		.uleb128 0x8
 3114 01f2 80090000 		.4byte	.LASF42
 3115 01f6 04       		.byte	0x4
 3116 01f7 07       		.byte	0x7
 3117 01f8 2C       		.byte	0x2c
 3118 01f9 0C020000 		.4byte	0x20c
 3119 01fd 09       		.uleb128 0x9
 3120 01fe 7F080000 		.4byte	.LASF43
 3121 0202 07       		.byte	0x7
 3122 0203 2D       		.byte	0x2d
 3123 0204 ED000000 		.4byte	0xed
ARM GAS  /tmp/ccuCtRWT.s 			page 56


 3124 0208 02       		.byte	0x2
 3125 0209 23       		.byte	0x23
 3126 020a 00       		.uleb128 0
 3127 020b 00       		.byte	0
 3128 020c 04       		.uleb128 0x4
 3129 020d 29090000 		.4byte	.LASF44
 3130 0211 07       		.byte	0x7
 3131 0212 40       		.byte	0x40
 3132 0213 F1010000 		.4byte	0x1f1
 3133 0217 0B       		.uleb128 0xb
 3134 0218 04       		.byte	0x4
 3135 0219 1D020000 		.4byte	0x21d
 3136 021d 08       		.uleb128 0x8
 3137 021e 8F080000 		.4byte	.LASF45
 3138 0222 30       		.byte	0x30
 3139 0223 08       		.byte	0x8
 3140 0224 88       		.byte	0x88
 3141 0225 ED020000 		.4byte	0x2ed
 3142 0229 09       		.uleb128 0x9
 3143 022a CE000000 		.4byte	.LASF36
 3144 022e 08       		.byte	0x8
 3145 022f 8A       		.byte	0x8a
 3146 0230 17020000 		.4byte	0x217
 3147 0234 02       		.byte	0x2
 3148 0235 23       		.byte	0x23
 3149 0236 00       		.uleb128 0
 3150 0237 09       		.uleb128 0x9
 3151 0238 80090000 		.4byte	.LASF42
 3152 023c 08       		.byte	0x8
 3153 023d 8D       		.byte	0x8d
 3154 023e 0C020000 		.4byte	0x20c
 3155 0242 02       		.byte	0x2
 3156 0243 23       		.byte	0x23
 3157 0244 04       		.uleb128 0x4
 3158 0245 09       		.uleb128 0x9
 3159 0246 94040000 		.4byte	.LASF46
 3160 024a 08       		.byte	0x8
 3161 024b 8E       		.byte	0x8e
 3162 024c 0C020000 		.4byte	0x20c
 3163 0250 02       		.byte	0x2
 3164 0251 23       		.byte	0x23
 3165 0252 08       		.uleb128 0x8
 3166 0253 0A       		.uleb128 0xa
 3167 0254 677700   		.ascii	"gw\000"
 3168 0257 08       		.byte	0x8
 3169 0258 8F       		.byte	0x8f
 3170 0259 0C020000 		.4byte	0x20c
 3171 025d 02       		.byte	0x2
 3172 025e 23       		.byte	0x23
 3173 025f 0C       		.uleb128 0xc
 3174 0260 09       		.uleb128 0x9
 3175 0261 44000000 		.4byte	.LASF47
 3176 0265 08       		.byte	0x8
 3177 0266 93       		.byte	0x93
 3178 0267 ED020000 		.4byte	0x2ed
 3179 026b 02       		.byte	0x2
 3180 026c 23       		.byte	0x23
ARM GAS  /tmp/ccuCtRWT.s 			page 57


 3181 026d 10       		.uleb128 0x10
 3182 026e 09       		.uleb128 0x9
 3183 026f 2A030000 		.4byte	.LASF48
 3184 0273 08       		.byte	0x8
 3185 0274 97       		.byte	0x97
 3186 0275 13030000 		.4byte	0x313
 3187 0279 02       		.byte	0x2
 3188 027a 23       		.byte	0x23
 3189 027b 14       		.uleb128 0x14
 3190 027c 09       		.uleb128 0x9
 3191 027d EF000000 		.4byte	.LASF49
 3192 0281 08       		.byte	0x8
 3193 0282 9B       		.byte	0x9b
 3194 0283 44030000 		.4byte	0x344
 3195 0287 02       		.byte	0x2
 3196 0288 23       		.byte	0x23
 3197 0289 18       		.uleb128 0x18
 3198 028a 09       		.uleb128 0x9
 3199 028b 89080000 		.4byte	.LASF50
 3200 028f 08       		.byte	0x8
 3201 0290 A8       		.byte	0xa8
 3202 0291 B1000000 		.4byte	0xb1
 3203 0295 02       		.byte	0x2
 3204 0296 23       		.byte	0x23
 3205 0297 1C       		.uleb128 0x1c
 3206 0298 0A       		.uleb128 0xa
 3207 0299 6D747500 		.ascii	"mtu\000"
 3208 029d 08       		.byte	0x8
 3209 029e B6       		.byte	0xb6
 3210 029f D7000000 		.4byte	0xd7
 3211 02a3 02       		.byte	0x2
 3212 02a4 23       		.byte	0x23
 3213 02a5 20       		.uleb128 0x20
 3214 02a6 09       		.uleb128 0x9
 3215 02a7 BF020000 		.4byte	.LASF51
 3216 02ab 08       		.byte	0x8
 3217 02ac B8       		.byte	0xb8
 3218 02ad C1000000 		.4byte	0xc1
 3219 02b1 02       		.byte	0x2
 3220 02b2 23       		.byte	0x23
 3221 02b3 22       		.uleb128 0x22
 3222 02b4 09       		.uleb128 0x9
 3223 02b5 73020000 		.4byte	.LASF52
 3224 02b9 08       		.byte	0x8
 3225 02ba BA       		.byte	0xba
 3226 02bb 6A030000 		.4byte	0x36a
 3227 02bf 02       		.byte	0x2
 3228 02c0 23       		.byte	0x23
 3229 02c1 23       		.uleb128 0x23
 3230 02c2 09       		.uleb128 0x9
 3231 02c3 6F030000 		.4byte	.LASF40
 3232 02c7 08       		.byte	0x8
 3233 02c8 BC       		.byte	0xbc
 3234 02c9 C1000000 		.4byte	0xc1
 3235 02cd 02       		.byte	0x2
 3236 02ce 23       		.byte	0x23
 3237 02cf 29       		.uleb128 0x29
ARM GAS  /tmp/ccuCtRWT.s 			page 58


 3238 02d0 09       		.uleb128 0x9
 3239 02d1 17070000 		.4byte	.LASF53
 3240 02d5 08       		.byte	0x8
 3241 02d6 BE       		.byte	0xbe
 3242 02d7 7A030000 		.4byte	0x37a
 3243 02db 02       		.byte	0x2
 3244 02dc 23       		.byte	0x23
 3245 02dd 2A       		.uleb128 0x2a
 3246 02de 0A       		.uleb128 0xa
 3247 02df 6E756D00 		.ascii	"num\000"
 3248 02e3 08       		.byte	0x8
 3249 02e4 C0       		.byte	0xc0
 3250 02e5 C1000000 		.4byte	0xc1
 3251 02e9 02       		.byte	0x2
 3252 02ea 23       		.byte	0x23
 3253 02eb 2C       		.uleb128 0x2c
 3254 02ec 00       		.byte	0
 3255 02ed 04       		.uleb128 0x4
 3256 02ee EE010000 		.4byte	.LASF54
 3257 02f2 08       		.byte	0x8
 3258 02f3 6D       		.byte	0x6d
 3259 02f4 F8020000 		.4byte	0x2f8
 3260 02f8 0B       		.uleb128 0xb
 3261 02f9 04       		.byte	0x4
 3262 02fa FE020000 		.4byte	0x2fe
 3263 02fe 0C       		.uleb128 0xc
 3264 02ff 01       		.byte	0x1
 3265 0300 0E010000 		.4byte	0x10e
 3266 0304 13030000 		.4byte	0x313
 3267 0308 0D       		.uleb128 0xd
 3268 0309 EB010000 		.4byte	0x1eb
 3269 030d 0D       		.uleb128 0xd
 3270 030e 17020000 		.4byte	0x217
 3271 0312 00       		.byte	0
 3272 0313 04       		.uleb128 0x4
 3273 0314 6A010000 		.4byte	.LASF55
 3274 0318 08       		.byte	0x8
 3275 0319 76       		.byte	0x76
 3276 031a 1E030000 		.4byte	0x31e
 3277 031e 0B       		.uleb128 0xb
 3278 031f 04       		.byte	0x4
 3279 0320 24030000 		.4byte	0x324
 3280 0324 0C       		.uleb128 0xc
 3281 0325 01       		.byte	0x1
 3282 0326 0E010000 		.4byte	0x10e
 3283 032a 3E030000 		.4byte	0x33e
 3284 032e 0D       		.uleb128 0xd
 3285 032f 17020000 		.4byte	0x217
 3286 0333 0D       		.uleb128 0xd
 3287 0334 EB010000 		.4byte	0x1eb
 3288 0338 0D       		.uleb128 0xd
 3289 0339 3E030000 		.4byte	0x33e
 3290 033d 00       		.byte	0
 3291 033e 0B       		.uleb128 0xb
 3292 033f 04       		.byte	0x4
 3293 0340 0C020000 		.4byte	0x20c
 3294 0344 04       		.uleb128 0x4
ARM GAS  /tmp/ccuCtRWT.s 			page 59


 3295 0345 1C070000 		.4byte	.LASF56
 3296 0349 08       		.byte	0x8
 3297 034a 7E       		.byte	0x7e
 3298 034b 4F030000 		.4byte	0x34f
 3299 034f 0B       		.uleb128 0xb
 3300 0350 04       		.byte	0x4
 3301 0351 55030000 		.4byte	0x355
 3302 0355 0C       		.uleb128 0xc
 3303 0356 01       		.byte	0x1
 3304 0357 0E010000 		.4byte	0x10e
 3305 035b 6A030000 		.4byte	0x36a
 3306 035f 0D       		.uleb128 0xd
 3307 0360 17020000 		.4byte	0x217
 3308 0364 0D       		.uleb128 0xd
 3309 0365 EB010000 		.4byte	0x1eb
 3310 0369 00       		.byte	0
 3311 036a 0E       		.uleb128 0xe
 3312 036b C1000000 		.4byte	0xc1
 3313 036f 7A030000 		.4byte	0x37a
 3314 0373 0F       		.uleb128 0xf
 3315 0374 B3000000 		.4byte	0xb3
 3316 0378 05       		.byte	0x5
 3317 0379 00       		.byte	0
 3318 037a 0E       		.uleb128 0xe
 3319 037b BA000000 		.4byte	0xba
 3320 037f 8A030000 		.4byte	0x38a
 3321 0383 0F       		.uleb128 0xf
 3322 0384 B3000000 		.4byte	0xb3
 3323 0388 01       		.byte	0x1
 3324 0389 00       		.byte	0
 3325 038a 04       		.uleb128 0x4
 3326 038b A9030000 		.4byte	.LASF57
 3327 038f 09       		.byte	0x9
 3328 0390 3D       		.byte	0x3d
 3329 0391 95030000 		.4byte	0x395
 3330 0395 0B       		.uleb128 0xb
 3331 0396 04       		.byte	0x4
 3332 0397 9B030000 		.4byte	0x39b
 3333 039b 0C       		.uleb128 0xc
 3334 039c 01       		.byte	0x1
 3335 039d 0E010000 		.4byte	0x10e
 3336 03a1 B5030000 		.4byte	0x3b5
 3337 03a5 0D       		.uleb128 0xd
 3338 03a6 B1000000 		.4byte	0xb1
 3339 03aa 0D       		.uleb128 0xd
 3340 03ab B5030000 		.4byte	0x3b5
 3341 03af 0D       		.uleb128 0xd
 3342 03b0 0E010000 		.4byte	0x10e
 3343 03b4 00       		.byte	0
 3344 03b5 0B       		.uleb128 0xb
 3345 03b6 04       		.byte	0x4
 3346 03b7 BB030000 		.4byte	0x3bb
 3347 03bb 08       		.uleb128 0x8
 3348 03bc C4080000 		.4byte	.LASF58
 3349 03c0 A4       		.byte	0xa4
 3350 03c1 09       		.byte	0x9
 3351 03c2 A9       		.byte	0xa9
ARM GAS  /tmp/ccuCtRWT.s 			page 60


 3352 03c3 CA060000 		.4byte	0x6ca
 3353 03c7 09       		.uleb128 0x9
 3354 03c8 C5060000 		.4byte	.LASF59
 3355 03cc 09       		.byte	0x9
 3356 03cd AB       		.byte	0xab
 3357 03ce 0C020000 		.4byte	0x20c
 3358 03d2 02       		.byte	0x2
 3359 03d3 23       		.byte	0x23
 3360 03d4 00       		.uleb128 0
 3361 03d5 09       		.uleb128 0x9
 3362 03d6 0F090000 		.4byte	.LASF60
 3363 03da 09       		.byte	0x9
 3364 03db AB       		.byte	0xab
 3365 03dc 0C020000 		.4byte	0x20c
 3366 03e0 02       		.byte	0x2
 3367 03e1 23       		.byte	0x23
 3368 03e2 04       		.uleb128 0x4
 3369 03e3 09       		.uleb128 0x9
 3370 03e4 39000000 		.4byte	.LASF61
 3371 03e8 09       		.byte	0x9
 3372 03e9 AB       		.byte	0xab
 3373 03ea C1000000 		.4byte	0xc1
 3374 03ee 02       		.byte	0x2
 3375 03ef 23       		.byte	0x23
 3376 03f0 08       		.uleb128 0x8
 3377 03f1 0A       		.uleb128 0xa
 3378 03f2 746F7300 		.ascii	"tos\000"
 3379 03f6 09       		.byte	0x9
 3380 03f7 AB       		.byte	0xab
 3381 03f8 C1000000 		.4byte	0xc1
 3382 03fc 02       		.byte	0x2
 3383 03fd 23       		.byte	0x23
 3384 03fe 09       		.uleb128 0x9
 3385 03ff 0A       		.uleb128 0xa
 3386 0400 74746C00 		.ascii	"ttl\000"
 3387 0404 09       		.byte	0x9
 3388 0405 AB       		.byte	0xab
 3389 0406 C1000000 		.4byte	0xc1
 3390 040a 02       		.byte	0x2
 3391 040b 23       		.byte	0x23
 3392 040c 0A       		.uleb128 0xa
 3393 040d 09       		.uleb128 0x9
 3394 040e CE000000 		.4byte	.LASF36
 3395 0412 09       		.byte	0x9
 3396 0413 AD       		.byte	0xad
 3397 0414 B5030000 		.4byte	0x3b5
 3398 0418 02       		.byte	0x2
 3399 0419 23       		.byte	0x23
 3400 041a 0C       		.uleb128 0xc
 3401 041b 09       		.uleb128 0x9
 3402 041c 89080000 		.4byte	.LASF50
 3403 0420 09       		.byte	0x9
 3404 0421 AD       		.byte	0xad
 3405 0422 78070000 		.4byte	0x778
 3406 0426 02       		.byte	0x2
 3407 0427 23       		.byte	0x23
 3408 0428 10       		.uleb128 0x10
ARM GAS  /tmp/ccuCtRWT.s 			page 61


 3409 0429 09       		.uleb128 0x9
 3410 042a D6030000 		.4byte	.LASF62
 3411 042e 09       		.byte	0x9
 3412 042f AD       		.byte	0xad
 3413 0430 C1000000 		.4byte	0xc1
 3414 0434 02       		.byte	0x2
 3415 0435 23       		.byte	0x23
 3416 0436 11       		.uleb128 0x11
 3417 0437 09       		.uleb128 0x9
 3418 0438 61080000 		.4byte	.LASF63
 3419 043c 09       		.byte	0x9
 3420 043d AD       		.byte	0xad
 3421 043e B1000000 		.4byte	0xb1
 3422 0442 02       		.byte	0x2
 3423 0443 23       		.byte	0x23
 3424 0444 14       		.uleb128 0x14
 3425 0445 09       		.uleb128 0x9
 3426 0446 DB030000 		.4byte	.LASF64
 3427 044a 09       		.byte	0x9
 3428 044b AD       		.byte	0xad
 3429 044c 8A030000 		.4byte	0x38a
 3430 0450 02       		.byte	0x2
 3431 0451 23       		.byte	0x23
 3432 0452 18       		.uleb128 0x18
 3433 0453 09       		.uleb128 0x9
 3434 0454 38020000 		.4byte	.LASF65
 3435 0458 09       		.byte	0x9
 3436 0459 AD       		.byte	0xad
 3437 045a D7000000 		.4byte	0xd7
 3438 045e 02       		.byte	0x2
 3439 045f 23       		.byte	0x23
 3440 0460 1C       		.uleb128 0x1c
 3441 0461 09       		.uleb128 0x9
 3442 0462 EE040000 		.4byte	.LASF66
 3443 0466 09       		.byte	0x9
 3444 0467 B0       		.byte	0xb0
 3445 0468 D7000000 		.4byte	0xd7
 3446 046c 02       		.byte	0x2
 3447 046d 23       		.byte	0x23
 3448 046e 1E       		.uleb128 0x1e
 3449 046f 09       		.uleb128 0x9
 3450 0470 6F030000 		.4byte	.LASF40
 3451 0474 09       		.byte	0x9
 3452 0475 B2       		.byte	0xb2
 3453 0476 C1000000 		.4byte	0xc1
 3454 047a 02       		.byte	0x2
 3455 047b 23       		.byte	0x23
 3456 047c 20       		.uleb128 0x20
 3457 047d 09       		.uleb128 0x9
 3458 047e CA020000 		.4byte	.LASF67
 3459 0482 09       		.byte	0x9
 3460 0483 BF       		.byte	0xbf
 3461 0484 ED000000 		.4byte	0xed
 3462 0488 02       		.byte	0x2
 3463 0489 23       		.byte	0x23
 3464 048a 24       		.uleb128 0x24
 3465 048b 09       		.uleb128 0x9
ARM GAS  /tmp/ccuCtRWT.s 			page 62


 3466 048c 6D060000 		.4byte	.LASF68
 3467 0490 09       		.byte	0x9
 3468 0491 C0       		.byte	0xc0
 3469 0492 D7000000 		.4byte	0xd7
 3470 0496 02       		.byte	0x2
 3471 0497 23       		.byte	0x23
 3472 0498 28       		.uleb128 0x28
 3473 0499 09       		.uleb128 0x9
 3474 049a 07050000 		.4byte	.LASF69
 3475 049e 09       		.byte	0x9
 3476 049f C1       		.byte	0xc1
 3477 04a0 D7000000 		.4byte	0xd7
 3478 04a4 02       		.byte	0x2
 3479 04a5 23       		.byte	0x23
 3480 04a6 2A       		.uleb128 0x2a
 3481 04a7 09       		.uleb128 0x9
 3482 04a8 2D010000 		.4byte	.LASF70
 3483 04ac 09       		.byte	0x9
 3484 04ad C2       		.byte	0xc2
 3485 04ae ED000000 		.4byte	0xed
 3486 04b2 02       		.byte	0x2
 3487 04b3 23       		.byte	0x23
 3488 04b4 2C       		.uleb128 0x2c
 3489 04b5 0A       		.uleb128 0xa
 3490 04b6 746D7200 		.ascii	"tmr\000"
 3491 04ba 09       		.byte	0x9
 3492 04bb C5       		.byte	0xc5
 3493 04bc ED000000 		.4byte	0xed
 3494 04c0 02       		.byte	0x2
 3495 04c1 23       		.byte	0x23
 3496 04c2 30       		.uleb128 0x30
 3497 04c3 09       		.uleb128 0x9
 3498 04c4 79000000 		.4byte	.LASF71
 3499 04c8 09       		.byte	0x9
 3500 04c9 C6       		.byte	0xc6
 3501 04ca C1000000 		.4byte	0xc1
 3502 04ce 02       		.byte	0x2
 3503 04cf 23       		.byte	0x23
 3504 04d0 34       		.uleb128 0x34
 3505 04d1 09       		.uleb128 0x9
 3506 04d2 50070000 		.4byte	.LASF72
 3507 04d6 09       		.byte	0x9
 3508 04d7 C6       		.byte	0xc6
 3509 04d8 C1000000 		.4byte	0xc1
 3510 04dc 02       		.byte	0x2
 3511 04dd 23       		.byte	0x23
 3512 04de 35       		.uleb128 0x35
 3513 04df 09       		.uleb128 0x9
 3514 04e0 B9020000 		.4byte	.LASF73
 3515 04e4 09       		.byte	0x9
 3516 04e5 C9       		.byte	0xc9
 3517 04e6 E2000000 		.4byte	0xe2
 3518 04ea 02       		.byte	0x2
 3519 04eb 23       		.byte	0x23
 3520 04ec 36       		.uleb128 0x36
 3521 04ed 0A       		.uleb128 0xa
 3522 04ee 6D737300 		.ascii	"mss\000"
ARM GAS  /tmp/ccuCtRWT.s 			page 63


 3523 04f2 09       		.byte	0x9
 3524 04f3 CB       		.byte	0xcb
 3525 04f4 D7000000 		.4byte	0xd7
 3526 04f8 02       		.byte	0x2
 3527 04f9 23       		.byte	0x23
 3528 04fa 38       		.uleb128 0x38
 3529 04fb 09       		.uleb128 0x9
 3530 04fc 75060000 		.4byte	.LASF74
 3531 0500 09       		.byte	0x9
 3532 0501 CE       		.byte	0xce
 3533 0502 ED000000 		.4byte	0xed
 3534 0506 02       		.byte	0x2
 3535 0507 23       		.byte	0x23
 3536 0508 3C       		.uleb128 0x3c
 3537 0509 09       		.uleb128 0x9
 3538 050a BC030000 		.4byte	.LASF75
 3539 050e 09       		.byte	0x9
 3540 050f CF       		.byte	0xcf
 3541 0510 ED000000 		.4byte	0xed
 3542 0514 02       		.byte	0x2
 3543 0515 23       		.byte	0x23
 3544 0516 40       		.uleb128 0x40
 3545 0517 0A       		.uleb128 0xa
 3546 0518 736100   		.ascii	"sa\000"
 3547 051b 09       		.byte	0x9
 3548 051c D0       		.byte	0xd0
 3549 051d E2000000 		.4byte	0xe2
 3550 0521 02       		.byte	0x2
 3551 0522 23       		.byte	0x23
 3552 0523 44       		.uleb128 0x44
 3553 0524 0A       		.uleb128 0xa
 3554 0525 737600   		.ascii	"sv\000"
 3555 0528 09       		.byte	0x9
 3556 0529 D0       		.byte	0xd0
 3557 052a E2000000 		.4byte	0xe2
 3558 052e 02       		.byte	0x2
 3559 052f 23       		.byte	0x23
 3560 0530 46       		.uleb128 0x46
 3561 0531 0A       		.uleb128 0xa
 3562 0532 72746F00 		.ascii	"rto\000"
 3563 0536 09       		.byte	0x9
 3564 0537 D2       		.byte	0xd2
 3565 0538 E2000000 		.4byte	0xe2
 3566 053c 02       		.byte	0x2
 3567 053d 23       		.byte	0x23
 3568 053e 48       		.uleb128 0x48
 3569 053f 09       		.uleb128 0x9
 3570 0540 6D090000 		.4byte	.LASF76
 3571 0544 09       		.byte	0x9
 3572 0545 D3       		.byte	0xd3
 3573 0546 C1000000 		.4byte	0xc1
 3574 054a 02       		.byte	0x2
 3575 054b 23       		.byte	0x23
 3576 054c 4A       		.uleb128 0x4a
 3577 054d 09       		.uleb128 0x9
 3578 054e 75030000 		.4byte	.LASF77
 3579 0552 09       		.byte	0x9
ARM GAS  /tmp/ccuCtRWT.s 			page 64


 3580 0553 D6       		.byte	0xd6
 3581 0554 ED000000 		.4byte	0xed
 3582 0558 02       		.byte	0x2
 3583 0559 23       		.byte	0x23
 3584 055a 4C       		.uleb128 0x4c
 3585 055b 09       		.uleb128 0x9
 3586 055c CE030000 		.4byte	.LASF78
 3587 0560 09       		.byte	0x9
 3588 0561 D7       		.byte	0xd7
 3589 0562 C1000000 		.4byte	0xc1
 3590 0566 02       		.byte	0x2
 3591 0567 23       		.byte	0x23
 3592 0568 50       		.uleb128 0x50
 3593 0569 09       		.uleb128 0x9
 3594 056a 0D020000 		.4byte	.LASF79
 3595 056e 09       		.byte	0x9
 3596 056f DA       		.byte	0xda
 3597 0570 D7000000 		.4byte	0xd7
 3598 0574 02       		.byte	0x2
 3599 0575 23       		.byte	0x23
 3600 0576 52       		.uleb128 0x52
 3601 0577 09       		.uleb128 0x9
 3602 0578 3F070000 		.4byte	.LASF80
 3603 057c 09       		.byte	0x9
 3604 057d DB       		.byte	0xdb
 3605 057e D7000000 		.4byte	0xd7
 3606 0582 02       		.byte	0x2
 3607 0583 23       		.byte	0x23
 3608 0584 54       		.uleb128 0x54
 3609 0585 09       		.uleb128 0x9
 3610 0586 EB060000 		.4byte	.LASF81
 3611 058a 09       		.byte	0x9
 3612 058b DE       		.byte	0xde
 3613 058c ED000000 		.4byte	0xed
 3614 0590 02       		.byte	0x2
 3615 0591 23       		.byte	0x23
 3616 0592 58       		.uleb128 0x58
 3617 0593 09       		.uleb128 0x9
 3618 0594 B0050000 		.4byte	.LASF82
 3619 0598 09       		.byte	0x9
 3620 0599 DF       		.byte	0xdf
 3621 059a D7000000 		.4byte	0xd7
 3622 059e 02       		.byte	0x2
 3623 059f 23       		.byte	0x23
 3624 05a0 5C       		.uleb128 0x5c
 3625 05a1 09       		.uleb128 0x9
 3626 05a2 4F040000 		.4byte	.LASF83
 3627 05a6 09       		.byte	0x9
 3628 05a7 E0       		.byte	0xe0
 3629 05a8 ED000000 		.4byte	0xed
 3630 05ac 02       		.byte	0x2
 3631 05ad 23       		.byte	0x23
 3632 05ae 60       		.uleb128 0x60
 3633 05af 09       		.uleb128 0x9
 3634 05b0 57040000 		.4byte	.LASF84
 3635 05b4 09       		.byte	0x9
 3636 05b5 E0       		.byte	0xe0
ARM GAS  /tmp/ccuCtRWT.s 			page 65


 3637 05b6 ED000000 		.4byte	0xed
 3638 05ba 02       		.byte	0x2
 3639 05bb 23       		.byte	0x23
 3640 05bc 64       		.uleb128 0x64
 3641 05bd 09       		.uleb128 0x9
 3642 05be 74040000 		.4byte	.LASF85
 3643 05c2 09       		.byte	0x9
 3644 05c3 E2       		.byte	0xe2
 3645 05c4 ED000000 		.4byte	0xed
 3646 05c8 02       		.byte	0x2
 3647 05c9 23       		.byte	0x23
 3648 05ca 68       		.uleb128 0x68
 3649 05cb 09       		.uleb128 0x9
 3650 05cc 19040000 		.4byte	.LASF86
 3651 05d0 09       		.byte	0x9
 3652 05d1 E4       		.byte	0xe4
 3653 05d2 D7000000 		.4byte	0xd7
 3654 05d6 02       		.byte	0x2
 3655 05d7 23       		.byte	0x23
 3656 05d8 6C       		.uleb128 0x6c
 3657 05d9 09       		.uleb128 0x9
 3658 05da 48070000 		.4byte	.LASF87
 3659 05de 09       		.byte	0x9
 3660 05df E6       		.byte	0xe6
 3661 05e0 D7000000 		.4byte	0xd7
 3662 05e4 02       		.byte	0x2
 3663 05e5 23       		.byte	0x23
 3664 05e6 6E       		.uleb128 0x6e
 3665 05e7 09       		.uleb128 0x9
 3666 05e8 95080000 		.4byte	.LASF88
 3667 05ec 09       		.byte	0x9
 3668 05ed E8       		.byte	0xe8
 3669 05ee D7000000 		.4byte	0xd7
 3670 05f2 02       		.byte	0x2
 3671 05f3 23       		.byte	0x23
 3672 05f4 70       		.uleb128 0x70
 3673 05f5 09       		.uleb128 0x9
 3674 05f6 DB060000 		.4byte	.LASF89
 3675 05fa 09       		.byte	0x9
 3676 05fb EC       		.byte	0xec
 3677 05fc D7000000 		.4byte	0xd7
 3678 0600 02       		.byte	0x2
 3679 0601 23       		.byte	0x23
 3680 0602 72       		.uleb128 0x72
 3681 0603 09       		.uleb128 0x9
 3682 0604 66060000 		.4byte	.LASF90
 3683 0608 09       		.byte	0x9
 3684 0609 F0       		.byte	0xf0
 3685 060a 1E080000 		.4byte	0x81e
 3686 060e 02       		.byte	0x2
 3687 060f 23       		.byte	0x23
 3688 0610 74       		.uleb128 0x74
 3689 0611 09       		.uleb128 0x9
 3690 0612 F0020000 		.4byte	.LASF91
 3691 0616 09       		.byte	0x9
 3692 0617 F1       		.byte	0xf1
 3693 0618 1E080000 		.4byte	0x81e
ARM GAS  /tmp/ccuCtRWT.s 			page 66


 3694 061c 02       		.byte	0x2
 3695 061d 23       		.byte	0x23
 3696 061e 78       		.uleb128 0x78
 3697 061f 09       		.uleb128 0x9
 3698 0620 F0050000 		.4byte	.LASF92
 3699 0624 09       		.byte	0x9
 3700 0625 F3       		.byte	0xf3
 3701 0626 1E080000 		.4byte	0x81e
 3702 062a 02       		.byte	0x2
 3703 062b 23       		.byte	0x23
 3704 062c 7C       		.uleb128 0x7c
 3705 062d 09       		.uleb128 0x9
 3706 062e D2070000 		.4byte	.LASF93
 3707 0632 09       		.byte	0x9
 3708 0633 F6       		.byte	0xf6
 3709 0634 EB010000 		.4byte	0x1eb
 3710 0638 03       		.byte	0x3
 3711 0639 23       		.byte	0x23
 3712 063a 8001     		.uleb128 0x80
 3713 063c 09       		.uleb128 0x9
 3714 063d 42040000 		.4byte	.LASF94
 3715 0641 09       		.byte	0x9
 3716 0642 FA       		.byte	0xfa
 3717 0643 FA060000 		.4byte	0x6fa
 3718 0647 03       		.byte	0x3
 3719 0648 23       		.byte	0x23
 3720 0649 8401     		.uleb128 0x84
 3721 064b 09       		.uleb128 0x9
 3722 064c B3080000 		.4byte	.LASF95
 3723 0650 09       		.byte	0x9
 3724 0651 FC       		.byte	0xfc
 3725 0652 CA060000 		.4byte	0x6ca
 3726 0656 03       		.byte	0x3
 3727 0657 23       		.byte	0x23
 3728 0658 8801     		.uleb128 0x88
 3729 065a 09       		.uleb128 0x9
 3730 065b 31030000 		.4byte	.LASF96
 3731 065f 09       		.byte	0x9
 3732 0660 FE       		.byte	0xfe
 3733 0661 6D070000 		.4byte	0x76d
 3734 0665 03       		.byte	0x3
 3735 0666 23       		.byte	0x23
 3736 0667 8C01     		.uleb128 0x8c
 3737 0669 10       		.uleb128 0x10
 3738 066a EC030000 		.4byte	.LASF97
 3739 066e 09       		.byte	0x9
 3740 066f 0001     		.2byte	0x100
 3741 0671 25070000 		.4byte	0x725
 3742 0675 03       		.byte	0x3
 3743 0676 23       		.byte	0x23
 3744 0677 9001     		.uleb128 0x90
 3745 0679 10       		.uleb128 0x10
 3746 067a AB050000 		.4byte	.LASF98
 3747 067e 09       		.byte	0x9
 3748 067f 0201     		.2byte	0x102
 3749 0681 4B070000 		.4byte	0x74b
 3750 0685 03       		.byte	0x3
ARM GAS  /tmp/ccuCtRWT.s 			page 67


 3751 0686 23       		.byte	0x23
 3752 0687 9401     		.uleb128 0x94
 3753 0689 10       		.uleb128 0x10
 3754 068a 57080000 		.4byte	.LASF99
 3755 068e 09       		.byte	0x9
 3756 068f 0B01     		.2byte	0x10b
 3757 0691 ED000000 		.4byte	0xed
 3758 0695 03       		.byte	0x3
 3759 0696 23       		.byte	0x23
 3760 0697 9801     		.uleb128 0x98
 3761 0699 10       		.uleb128 0x10
 3762 069a 03090000 		.4byte	.LASF100
 3763 069e 09       		.byte	0x9
 3764 069f 1201     		.2byte	0x112
 3765 06a1 ED000000 		.4byte	0xed
 3766 06a5 03       		.byte	0x3
 3767 06a6 23       		.byte	0x23
 3768 06a7 9C01     		.uleb128 0x9c
 3769 06a9 10       		.uleb128 0x10
 3770 06aa BE040000 		.4byte	.LASF101
 3771 06ae 09       		.byte	0x9
 3772 06af 1401     		.2byte	0x114
 3773 06b1 C1000000 		.4byte	0xc1
 3774 06b5 03       		.byte	0x3
 3775 06b6 23       		.byte	0x23
 3776 06b7 A001     		.uleb128 0xa0
 3777 06b9 10       		.uleb128 0x10
 3778 06ba 85010000 		.4byte	.LASF102
 3779 06be 09       		.byte	0x9
 3780 06bf 1701     		.2byte	0x117
 3781 06c1 C1000000 		.4byte	0xc1
 3782 06c5 03       		.byte	0x3
 3783 06c6 23       		.byte	0x23
 3784 06c7 A101     		.uleb128 0xa1
 3785 06c9 00       		.byte	0
 3786 06ca 04       		.uleb128 0x4
 3787 06cb 73050000 		.4byte	.LASF103
 3788 06cf 09       		.byte	0x9
 3789 06d0 49       		.byte	0x49
 3790 06d1 D5060000 		.4byte	0x6d5
 3791 06d5 0B       		.uleb128 0xb
 3792 06d6 04       		.byte	0x4
 3793 06d7 DB060000 		.4byte	0x6db
 3794 06db 0C       		.uleb128 0xc
 3795 06dc 01       		.byte	0x1
 3796 06dd 0E010000 		.4byte	0x10e
 3797 06e1 FA060000 		.4byte	0x6fa
 3798 06e5 0D       		.uleb128 0xd
 3799 06e6 B1000000 		.4byte	0xb1
 3800 06ea 0D       		.uleb128 0xd
 3801 06eb B5030000 		.4byte	0x3b5
 3802 06ef 0D       		.uleb128 0xd
 3803 06f0 EB010000 		.4byte	0x1eb
 3804 06f4 0D       		.uleb128 0xd
 3805 06f5 0E010000 		.4byte	0x10e
 3806 06f9 00       		.byte	0
 3807 06fa 04       		.uleb128 0x4
ARM GAS  /tmp/ccuCtRWT.s 			page 68


 3808 06fb AD010000 		.4byte	.LASF104
 3809 06ff 09       		.byte	0x9
 3810 0700 57       		.byte	0x57
 3811 0701 05070000 		.4byte	0x705
 3812 0705 0B       		.uleb128 0xb
 3813 0706 04       		.byte	0x4
 3814 0707 0B070000 		.4byte	0x70b
 3815 070b 0C       		.uleb128 0xc
 3816 070c 01       		.byte	0x1
 3817 070d 0E010000 		.4byte	0x10e
 3818 0711 25070000 		.4byte	0x725
 3819 0715 0D       		.uleb128 0xd
 3820 0716 B1000000 		.4byte	0xb1
 3821 071a 0D       		.uleb128 0xd
 3822 071b B5030000 		.4byte	0x3b5
 3823 071f 0D       		.uleb128 0xd
 3824 0720 D7000000 		.4byte	0xd7
 3825 0724 00       		.byte	0
 3826 0725 04       		.uleb128 0x4
 3827 0726 89050000 		.4byte	.LASF105
 3828 072a 09       		.byte	0x9
 3829 072b 63       		.byte	0x63
 3830 072c 30070000 		.4byte	0x730
 3831 0730 0B       		.uleb128 0xb
 3832 0731 04       		.byte	0x4
 3833 0732 36070000 		.4byte	0x736
 3834 0736 0C       		.uleb128 0xc
 3835 0737 01       		.byte	0x1
 3836 0738 0E010000 		.4byte	0x10e
 3837 073c 4B070000 		.4byte	0x74b
 3838 0740 0D       		.uleb128 0xd
 3839 0741 B1000000 		.4byte	0xb1
 3840 0745 0D       		.uleb128 0xd
 3841 0746 B5030000 		.4byte	0x3b5
 3842 074a 00       		.byte	0
 3843 074b 04       		.uleb128 0x4
 3844 074c 5F040000 		.4byte	.LASF106
 3845 0750 09       		.byte	0x9
 3846 0751 6F       		.byte	0x6f
 3847 0752 56070000 		.4byte	0x756
 3848 0756 0B       		.uleb128 0xb
 3849 0757 04       		.byte	0x4
 3850 0758 5C070000 		.4byte	0x75c
 3851 075c 11       		.uleb128 0x11
 3852 075d 01       		.byte	0x1
 3853 075e 6D070000 		.4byte	0x76d
 3854 0762 0D       		.uleb128 0xd
 3855 0763 B1000000 		.4byte	0xb1
 3856 0767 0D       		.uleb128 0xd
 3857 0768 0E010000 		.4byte	0x10e
 3858 076c 00       		.byte	0
 3859 076d 04       		.uleb128 0x4
 3860 076e BD000000 		.4byte	.LASF107
 3861 0772 09       		.byte	0x9
 3862 0773 7D       		.byte	0x7d
 3863 0774 95030000 		.4byte	0x395
 3864 0778 12       		.uleb128 0x12
ARM GAS  /tmp/ccuCtRWT.s 			page 69


 3865 0779 AF020000 		.4byte	.LASF233
 3866 077d 01       		.byte	0x1
 3867 077e 09       		.byte	0x9
 3868 077f 7F       		.byte	0x7f
 3869 0780 C7070000 		.4byte	0x7c7
 3870 0784 07       		.uleb128 0x7
 3871 0785 0C060000 		.4byte	.LASF108
 3872 0789 00       		.sleb128 0
 3873 078a 07       		.uleb128 0x7
 3874 078b 78080000 		.4byte	.LASF109
 3875 078f 01       		.sleb128 1
 3876 0790 07       		.uleb128 0x7
 3877 0791 4E080000 		.4byte	.LASF110
 3878 0795 02       		.sleb128 2
 3879 0796 07       		.uleb128 0x7
 3880 0797 77090000 		.4byte	.LASF111
 3881 079b 03       		.sleb128 3
 3882 079c 07       		.uleb128 0x7
 3883 079d 02070000 		.4byte	.LASF112
 3884 07a1 04       		.sleb128 4
 3885 07a2 07       		.uleb128 0x7
 3886 07a3 1B080000 		.4byte	.LASF113
 3887 07a7 05       		.sleb128 5
 3888 07a8 07       		.uleb128 0x7
 3889 07a9 26080000 		.4byte	.LASF114
 3890 07ad 06       		.sleb128 6
 3891 07ae 07       		.uleb128 0x7
 3892 07af 1F040000 		.4byte	.LASF115
 3893 07b3 07       		.sleb128 7
 3894 07b4 07       		.uleb128 0x7
 3895 07b5 5D030000 		.4byte	.LASF116
 3896 07b9 08       		.sleb128 8
 3897 07ba 07       		.uleb128 0x7
 3898 07bb 09030000 		.4byte	.LASF117
 3899 07bf 09       		.sleb128 9
 3900 07c0 07       		.uleb128 0x7
 3901 07c1 A6000000 		.4byte	.LASF118
 3902 07c5 0A       		.sleb128 10
 3903 07c6 00       		.byte	0
 3904 07c7 13       		.uleb128 0x13
 3905 07c8 81020000 		.4byte	.LASF119
 3906 07cc 10       		.byte	0x10
 3907 07cd 0A       		.byte	0xa
 3908 07ce 1601     		.2byte	0x116
 3909 07d0 1E080000 		.4byte	0x81e
 3910 07d4 10       		.uleb128 0x10
 3911 07d5 CE000000 		.4byte	.LASF36
 3912 07d9 0A       		.byte	0xa
 3913 07da 1701     		.2byte	0x117
 3914 07dc 1E080000 		.4byte	0x81e
 3915 07e0 02       		.byte	0x2
 3916 07e1 23       		.byte	0x23
 3917 07e2 00       		.uleb128 0
 3918 07e3 14       		.uleb128 0x14
 3919 07e4 7000     		.ascii	"p\000"
 3920 07e6 0A       		.byte	0xa
 3921 07e7 1801     		.2byte	0x118
ARM GAS  /tmp/ccuCtRWT.s 			page 70


 3922 07e9 EB010000 		.4byte	0x1eb
 3923 07ed 02       		.byte	0x2
 3924 07ee 23       		.byte	0x23
 3925 07ef 04       		.uleb128 0x4
 3926 07f0 14       		.uleb128 0x14
 3927 07f1 6C656E00 		.ascii	"len\000"
 3928 07f5 0A       		.byte	0xa
 3929 07f6 1901     		.2byte	0x119
 3930 07f8 D7000000 		.4byte	0xd7
 3931 07fc 02       		.byte	0x2
 3932 07fd 23       		.byte	0x23
 3933 07fe 08       		.uleb128 0x8
 3934 07ff 10       		.uleb128 0x10
 3935 0800 6F030000 		.4byte	.LASF40
 3936 0804 0A       		.byte	0xa
 3937 0805 2301     		.2byte	0x123
 3938 0807 C1000000 		.4byte	0xc1
 3939 080b 02       		.byte	0x2
 3940 080c 23       		.byte	0x23
 3941 080d 0A       		.uleb128 0xa
 3942 080e 10       		.uleb128 0x10
 3943 080f A9070000 		.4byte	.LASF120
 3944 0813 0A       		.byte	0xa
 3945 0814 2801     		.2byte	0x128
 3946 0816 A1080000 		.4byte	0x8a1
 3947 081a 02       		.byte	0x2
 3948 081b 23       		.byte	0x23
 3949 081c 0C       		.uleb128 0xc
 3950 081d 00       		.byte	0
 3951 081e 0B       		.uleb128 0xb
 3952 081f 04       		.byte	0x4
 3953 0820 C7070000 		.4byte	0x7c7
 3954 0824 08       		.uleb128 0x8
 3955 0825 F6070000 		.4byte	.LASF121
 3956 0829 14       		.byte	0x14
 3957 082a 0A       		.byte	0xa
 3958 082b 9E       		.byte	0x9e
 3959 082c A1080000 		.4byte	0x8a1
 3960 0830 0A       		.uleb128 0xa
 3961 0831 73726300 		.ascii	"src\000"
 3962 0835 0A       		.byte	0xa
 3963 0836 9F       		.byte	0x9f
 3964 0837 D7000000 		.4byte	0xd7
 3965 083b 02       		.byte	0x2
 3966 083c 23       		.byte	0x23
 3967 083d 00       		.uleb128 0
 3968 083e 09       		.uleb128 0x9
 3969 083f 72090000 		.4byte	.LASF122
 3970 0843 0A       		.byte	0xa
 3971 0844 A0       		.byte	0xa0
 3972 0845 D7000000 		.4byte	0xd7
 3973 0849 02       		.byte	0x2
 3974 084a 23       		.byte	0x23
 3975 084b 02       		.uleb128 0x2
 3976 084c 09       		.uleb128 0x9
 3977 084d E8010000 		.4byte	.LASF123
 3978 0851 0A       		.byte	0xa
ARM GAS  /tmp/ccuCtRWT.s 			page 71


 3979 0852 A1       		.byte	0xa1
 3980 0853 ED000000 		.4byte	0xed
 3981 0857 02       		.byte	0x2
 3982 0858 23       		.byte	0x23
 3983 0859 04       		.uleb128 0x4
 3984 085a 09       		.uleb128 0x9
 3985 085b AA040000 		.4byte	.LASF124
 3986 085f 0A       		.byte	0xa
 3987 0860 A2       		.byte	0xa2
 3988 0861 ED000000 		.4byte	0xed
 3989 0865 02       		.byte	0x2
 3990 0866 23       		.byte	0x23
 3991 0867 08       		.uleb128 0x8
 3992 0868 09       		.uleb128 0x9
 3993 0869 6A070000 		.4byte	.LASF125
 3994 086d 0A       		.byte	0xa
 3995 086e A3       		.byte	0xa3
 3996 086f D7000000 		.4byte	0xd7
 3997 0873 02       		.byte	0x2
 3998 0874 23       		.byte	0x23
 3999 0875 0C       		.uleb128 0xc
 4000 0876 0A       		.uleb128 0xa
 4001 0877 776E6400 		.ascii	"wnd\000"
 4002 087b 0A       		.byte	0xa
 4003 087c A4       		.byte	0xa4
 4004 087d D7000000 		.4byte	0xd7
 4005 0881 02       		.byte	0x2
 4006 0882 23       		.byte	0x23
 4007 0883 0E       		.uleb128 0xe
 4008 0884 09       		.uleb128 0x9
 4009 0885 A2080000 		.4byte	.LASF126
 4010 0889 0A       		.byte	0xa
 4011 088a A5       		.byte	0xa5
 4012 088b D7000000 		.4byte	0xd7
 4013 088f 02       		.byte	0x2
 4014 0890 23       		.byte	0x23
 4015 0891 10       		.uleb128 0x10
 4016 0892 09       		.uleb128 0x9
 4017 0893 66000000 		.4byte	.LASF127
 4018 0897 0A       		.byte	0xa
 4019 0898 A6       		.byte	0xa6
 4020 0899 D7000000 		.4byte	0xd7
 4021 089d 02       		.byte	0x2
 4022 089e 23       		.byte	0x23
 4023 089f 12       		.uleb128 0x12
 4024 08a0 00       		.byte	0
 4025 08a1 0B       		.uleb128 0xb
 4026 08a2 04       		.byte	0x4
 4027 08a3 24080000 		.4byte	0x824
 4028 08a7 06       		.uleb128 0x6
 4029 08a8 01       		.byte	0x1
 4030 08a9 0B       		.byte	0xb
 4031 08aa 2B       		.byte	0x2b
 4032 08ab 0A090000 		.4byte	0x90a
 4033 08af 07       		.uleb128 0x7
 4034 08b0 5D070000 		.4byte	.LASF128
 4035 08b4 00       		.sleb128 0
ARM GAS  /tmp/ccuCtRWT.s 			page 72


 4036 08b5 07       		.uleb128 0x7
 4037 08b6 B8060000 		.4byte	.LASF129
 4038 08ba 01       		.sleb128 1
 4039 08bb 07       		.uleb128 0x7
 4040 08bc CE040000 		.4byte	.LASF130
 4041 08c0 02       		.sleb128 2
 4042 08c1 07       		.uleb128 0x7
 4043 08c2 17000000 		.4byte	.LASF131
 4044 08c6 03       		.sleb128 3
 4045 08c7 07       		.uleb128 0x7
 4046 08c8 38080000 		.4byte	.LASF132
 4047 08cc 04       		.sleb128 4
 4048 08cd 07       		.uleb128 0x7
 4049 08ce 64050000 		.4byte	.LASF133
 4050 08d2 05       		.sleb128 5
 4051 08d3 07       		.uleb128 0x7
 4052 08d4 30070000 		.4byte	.LASF134
 4053 08d8 06       		.sleb128 6
 4054 08d9 07       		.uleb128 0x7
 4055 08da 88040000 		.4byte	.LASF135
 4056 08de 07       		.sleb128 7
 4057 08df 07       		.uleb128 0x7
 4058 08e0 91030000 		.4byte	.LASF136
 4059 08e4 08       		.sleb128 8
 4060 08e5 07       		.uleb128 0x7
 4061 08e6 1E020000 		.4byte	.LASF137
 4062 08ea 09       		.sleb128 9
 4063 08eb 07       		.uleb128 0x7
 4064 08ec D2020000 		.4byte	.LASF138
 4065 08f0 0A       		.sleb128 10
 4066 08f1 07       		.uleb128 0x7
 4067 08f2 A7060000 		.4byte	.LASF139
 4068 08f6 0B       		.sleb128 11
 4069 08f7 07       		.uleb128 0x7
 4070 08f8 E2030000 		.4byte	.LASF140
 4071 08fc 0C       		.sleb128 12
 4072 08fd 07       		.uleb128 0x7
 4073 08fe 93010000 		.4byte	.LASF141
 4074 0902 0D       		.sleb128 13
 4075 0903 07       		.uleb128 0x7
 4076 0904 7D030000 		.4byte	.LASF142
 4077 0908 0E       		.sleb128 14
 4078 0909 00       		.byte	0
 4079 090a 04       		.uleb128 0x4
 4080 090b 53090000 		.4byte	.LASF143
 4081 090f 0B       		.byte	0xb
 4082 0910 2F       		.byte	0x2f
 4083 0911 A7080000 		.4byte	0x8a7
 4084 0915 08       		.uleb128 0x8
 4085 0916 0D040000 		.4byte	.LASF144
 4086 091a 18       		.byte	0x18
 4087 091b 0C       		.byte	0xc
 4088 091c 3A       		.byte	0x3a
 4089 091d C9090000 		.4byte	0x9c9
 4090 0921 09       		.uleb128 0x9
 4091 0922 FE080000 		.4byte	.LASF145
 4092 0926 0C       		.byte	0xc
ARM GAS  /tmp/ccuCtRWT.s 			page 73


 4093 0927 3B       		.byte	0x3b
 4094 0928 D7000000 		.4byte	0xd7
 4095 092c 02       		.byte	0x2
 4096 092d 23       		.byte	0x23
 4097 092e 00       		.uleb128 0
 4098 092f 09       		.uleb128 0x9
 4099 0930 B3080000 		.4byte	.LASF95
 4100 0934 0C       		.byte	0xc
 4101 0935 3C       		.byte	0x3c
 4102 0936 D7000000 		.4byte	0xd7
 4103 093a 02       		.byte	0x2
 4104 093b 23       		.byte	0x23
 4105 093c 02       		.uleb128 0x2
 4106 093d 0A       		.uleb128 0xa
 4107 093e 667700   		.ascii	"fw\000"
 4108 0941 0C       		.byte	0xc
 4109 0942 3D       		.byte	0x3d
 4110 0943 D7000000 		.4byte	0xd7
 4111 0947 02       		.byte	0x2
 4112 0948 23       		.byte	0x23
 4113 0949 04       		.uleb128 0x4
 4114 094a 09       		.uleb128 0x9
 4115 094b 84080000 		.4byte	.LASF146
 4116 094f 0C       		.byte	0xc
 4117 0950 3E       		.byte	0x3e
 4118 0951 D7000000 		.4byte	0xd7
 4119 0955 02       		.byte	0x2
 4120 0956 23       		.byte	0x23
 4121 0957 06       		.uleb128 0x6
 4122 0958 09       		.uleb128 0x9
 4123 0959 5D050000 		.4byte	.LASF147
 4124 095d 0C       		.byte	0xc
 4125 095e 3F       		.byte	0x3f
 4126 095f D7000000 		.4byte	0xd7
 4127 0963 02       		.byte	0x2
 4128 0964 23       		.byte	0x23
 4129 0965 08       		.uleb128 0x8
 4130 0966 09       		.uleb128 0x9
 4131 0967 7D070000 		.4byte	.LASF148
 4132 096b 0C       		.byte	0xc
 4133 096c 40       		.byte	0x40
 4134 096d D7000000 		.4byte	0xd7
 4135 0971 02       		.byte	0x2
 4136 0972 23       		.byte	0x23
 4137 0973 0A       		.uleb128 0xa
 4138 0974 09       		.uleb128 0x9
 4139 0975 31080000 		.4byte	.LASF149
 4140 0979 0C       		.byte	0xc
 4141 097a 41       		.byte	0x41
 4142 097b D7000000 		.4byte	0xd7
 4143 097f 02       		.byte	0x2
 4144 0980 23       		.byte	0x23
 4145 0981 0C       		.uleb128 0xc
 4146 0982 09       		.uleb128 0x9
 4147 0983 53060000 		.4byte	.LASF150
 4148 0987 0C       		.byte	0xc
 4149 0988 42       		.byte	0x42
ARM GAS  /tmp/ccuCtRWT.s 			page 74


 4150 0989 D7000000 		.4byte	0xd7
 4151 098d 02       		.byte	0x2
 4152 098e 23       		.byte	0x23
 4153 098f 0E       		.uleb128 0xe
 4154 0990 09       		.uleb128 0x9
 4155 0991 E5070000 		.4byte	.LASF151
 4156 0995 0C       		.byte	0xc
 4157 0996 43       		.byte	0x43
 4158 0997 D7000000 		.4byte	0xd7
 4159 099b 02       		.byte	0x2
 4160 099c 23       		.byte	0x23
 4161 099d 10       		.uleb128 0x10
 4162 099e 09       		.uleb128 0x9
 4163 099f 31020000 		.4byte	.LASF152
 4164 09a3 0C       		.byte	0xc
 4165 09a4 44       		.byte	0x44
 4166 09a5 D7000000 		.4byte	0xd7
 4167 09a9 02       		.byte	0x2
 4168 09aa 23       		.byte	0x23
 4169 09ab 12       		.uleb128 0x12
 4170 09ac 0A       		.uleb128 0xa
 4171 09ad 65727200 		.ascii	"err\000"
 4172 09b1 0C       		.byte	0xc
 4173 09b2 45       		.byte	0x45
 4174 09b3 D7000000 		.4byte	0xd7
 4175 09b7 02       		.byte	0x2
 4176 09b8 23       		.byte	0x23
 4177 09b9 14       		.uleb128 0x14
 4178 09ba 09       		.uleb128 0x9
 4179 09bb 0E070000 		.4byte	.LASF153
 4180 09bf 0C       		.byte	0xc
 4181 09c0 46       		.byte	0x46
 4182 09c1 D7000000 		.4byte	0xd7
 4183 09c5 02       		.byte	0x2
 4184 09c6 23       		.byte	0x23
 4185 09c7 16       		.uleb128 0x16
 4186 09c8 00       		.byte	0
 4187 09c9 08       		.uleb128 0x8
 4188 09ca 4E010000 		.4byte	.LASF154
 4189 09ce 0A       		.byte	0xa
 4190 09cf 0C       		.byte	0xc
 4191 09d0 5A       		.byte	0x5a
 4192 09d1 1C0A0000 		.4byte	0xa1c
 4193 09d5 09       		.uleb128 0x9
 4194 09d6 59060000 		.4byte	.LASF155
 4195 09da 0C       		.byte	0xc
 4196 09db 5E       		.byte	0x5e
 4197 09dc 19010000 		.4byte	0x119
 4198 09e0 02       		.byte	0x2
 4199 09e1 23       		.byte	0x23
 4200 09e2 00       		.uleb128 0
 4201 09e3 09       		.uleb128 0x9
 4202 09e4 FA040000 		.4byte	.LASF156
 4203 09e8 0C       		.byte	0xc
 4204 09e9 5F       		.byte	0x5f
 4205 09ea 19010000 		.4byte	0x119
 4206 09ee 02       		.byte	0x2
ARM GAS  /tmp/ccuCtRWT.s 			page 75


 4207 09ef 23       		.byte	0x23
 4208 09f0 02       		.uleb128 0x2
 4209 09f1 0A       		.uleb128 0xa
 4210 09f2 6D617800 		.ascii	"max\000"
 4211 09f6 0C       		.byte	0xc
 4212 09f7 60       		.byte	0x60
 4213 09f8 19010000 		.4byte	0x119
 4214 09fc 02       		.byte	0x2
 4215 09fd 23       		.byte	0x23
 4216 09fe 04       		.uleb128 0x4
 4217 09ff 0A       		.uleb128 0xa
 4218 0a00 65727200 		.ascii	"err\000"
 4219 0a04 0C       		.byte	0xc
 4220 0a05 61       		.byte	0x61
 4221 0a06 D7000000 		.4byte	0xd7
 4222 0a0a 02       		.byte	0x2
 4223 0a0b 23       		.byte	0x23
 4224 0a0c 06       		.uleb128 0x6
 4225 0a0d 09       		.uleb128 0x9
 4226 0a0e 51020000 		.4byte	.LASF157
 4227 0a12 0C       		.byte	0xc
 4228 0a13 62       		.byte	0x62
 4229 0a14 D7000000 		.4byte	0xd7
 4230 0a18 02       		.byte	0x2
 4231 0a19 23       		.byte	0x23
 4232 0a1a 08       		.uleb128 0x8
 4233 0a1b 00       		.byte	0
 4234 0a1c 08       		.uleb128 0x8
 4235 0a1d DA010000 		.4byte	.LASF158
 4236 0a21 06       		.byte	0x6
 4237 0a22 0C       		.byte	0xc
 4238 0a23 65       		.byte	0x65
 4239 0a24 530A0000 		.4byte	0xa53
 4240 0a28 09       		.uleb128 0x9
 4241 0a29 FA040000 		.4byte	.LASF156
 4242 0a2d 0C       		.byte	0xc
 4243 0a2e 66       		.byte	0x66
 4244 0a2f D7000000 		.4byte	0xd7
 4245 0a33 02       		.byte	0x2
 4246 0a34 23       		.byte	0x23
 4247 0a35 00       		.uleb128 0
 4248 0a36 0A       		.uleb128 0xa
 4249 0a37 6D617800 		.ascii	"max\000"
 4250 0a3b 0C       		.byte	0xc
 4251 0a3c 67       		.byte	0x67
 4252 0a3d D7000000 		.4byte	0xd7
 4253 0a41 02       		.byte	0x2
 4254 0a42 23       		.byte	0x23
 4255 0a43 02       		.uleb128 0x2
 4256 0a44 0A       		.uleb128 0xa
 4257 0a45 65727200 		.ascii	"err\000"
 4258 0a49 0C       		.byte	0xc
 4259 0a4a 68       		.byte	0x68
 4260 0a4b D7000000 		.4byte	0xd7
 4261 0a4f 02       		.byte	0x2
 4262 0a50 23       		.byte	0x23
 4263 0a51 04       		.uleb128 0x4
ARM GAS  /tmp/ccuCtRWT.s 			page 76


 4264 0a52 00       		.byte	0
 4265 0a53 08       		.uleb128 0x8
 4266 0a54 03080000 		.4byte	.LASF159
 4267 0a58 12       		.byte	0x12
 4268 0a59 0C       		.byte	0xc
 4269 0a5a 6B       		.byte	0x6b
 4270 0a5b 8A0A0000 		.4byte	0xa8a
 4271 0a5f 0A       		.uleb128 0xa
 4272 0a60 73656D00 		.ascii	"sem\000"
 4273 0a64 0C       		.byte	0xc
 4274 0a65 6C       		.byte	0x6c
 4275 0a66 1C0A0000 		.4byte	0xa1c
 4276 0a6a 02       		.byte	0x2
 4277 0a6b 23       		.byte	0x23
 4278 0a6c 00       		.uleb128 0
 4279 0a6d 09       		.uleb128 0x9
 4280 0a6e 43020000 		.4byte	.LASF160
 4281 0a72 0C       		.byte	0xc
 4282 0a73 6D       		.byte	0x6d
 4283 0a74 1C0A0000 		.4byte	0xa1c
 4284 0a78 02       		.byte	0x2
 4285 0a79 23       		.byte	0x23
 4286 0a7a 06       		.uleb128 0x6
 4287 0a7b 09       		.uleb128 0x9
 4288 0a7c D6060000 		.4byte	.LASF161
 4289 0a80 0C       		.byte	0xc
 4290 0a81 6E       		.byte	0x6e
 4291 0a82 1C0A0000 		.4byte	0xa1c
 4292 0a86 02       		.byte	0x2
 4293 0a87 23       		.byte	0x23
 4294 0a88 0C       		.uleb128 0xc
 4295 0a89 00       		.byte	0
 4296 0a8a 15       		.uleb128 0x15
 4297 0a8b FD020000 		.4byte	.LASF162
 4298 0a8f 5001     		.2byte	0x150
 4299 0a91 0C       		.byte	0xc
 4300 0a92 71       		.byte	0x71
 4301 0a93 270B0000 		.4byte	0xb27
 4302 0a97 09       		.uleb128 0x9
 4303 0a98 B7030000 		.4byte	.LASF163
 4304 0a9c 0C       		.byte	0xc
 4305 0a9d 73       		.byte	0x73
 4306 0a9e 15090000 		.4byte	0x915
 4307 0aa2 02       		.byte	0x2
 4308 0aa3 23       		.byte	0x23
 4309 0aa4 00       		.uleb128 0
 4310 0aa5 09       		.uleb128 0x9
 4311 0aa6 7A020000 		.4byte	.LASF164
 4312 0aaa 0C       		.byte	0xc
 4313 0aab 76       		.byte	0x76
 4314 0aac 15090000 		.4byte	0x915
 4315 0ab0 02       		.byte	0x2
 4316 0ab1 23       		.byte	0x23
 4317 0ab2 18       		.uleb128 0x18
 4318 0ab3 09       		.uleb128 0x9
 4319 0ab4 49020000 		.4byte	.LASF165
 4320 0ab8 0C       		.byte	0xc
ARM GAS  /tmp/ccuCtRWT.s 			page 77


 4321 0ab9 79       		.byte	0x79
 4322 0aba 15090000 		.4byte	0x915
 4323 0abe 02       		.byte	0x2
 4324 0abf 23       		.byte	0x23
 4325 0ac0 30       		.uleb128 0x30
 4326 0ac1 0A       		.uleb128 0xa
 4327 0ac2 697000   		.ascii	"ip\000"
 4328 0ac5 0C       		.byte	0xc
 4329 0ac6 7C       		.byte	0x7c
 4330 0ac7 15090000 		.4byte	0x915
 4331 0acb 02       		.byte	0x2
 4332 0acc 23       		.byte	0x23
 4333 0acd 48       		.uleb128 0x48
 4334 0ace 09       		.uleb128 0x9
 4335 0acf 29060000 		.4byte	.LASF166
 4336 0ad3 0C       		.byte	0xc
 4337 0ad4 7F       		.byte	0x7f
 4338 0ad5 15090000 		.4byte	0x915
 4339 0ad9 02       		.byte	0x2
 4340 0ada 23       		.byte	0x23
 4341 0adb 60       		.uleb128 0x60
 4342 0adc 0A       		.uleb128 0xa
 4343 0add 75647000 		.ascii	"udp\000"
 4344 0ae1 0C       		.byte	0xc
 4345 0ae2 85       		.byte	0x85
 4346 0ae3 15090000 		.4byte	0x915
 4347 0ae7 02       		.byte	0x2
 4348 0ae8 23       		.byte	0x23
 4349 0ae9 78       		.uleb128 0x78
 4350 0aea 0A       		.uleb128 0xa
 4351 0aeb 74637000 		.ascii	"tcp\000"
 4352 0aef 0C       		.byte	0xc
 4353 0af0 88       		.byte	0x88
 4354 0af1 15090000 		.4byte	0x915
 4355 0af5 03       		.byte	0x3
 4356 0af6 23       		.byte	0x23
 4357 0af7 9001     		.uleb128 0x90
 4358 0af9 0A       		.uleb128 0xa
 4359 0afa 6D656D00 		.ascii	"mem\000"
 4360 0afe 0C       		.byte	0xc
 4361 0aff 8B       		.byte	0x8b
 4362 0b00 C9090000 		.4byte	0x9c9
 4363 0b04 03       		.byte	0x3
 4364 0b05 23       		.byte	0x23
 4365 0b06 A801     		.uleb128 0xa8
 4366 0b08 09       		.uleb128 0x9
 4367 0b09 DB040000 		.4byte	.LASF167
 4368 0b0d 0C       		.byte	0xc
 4369 0b0e 8E       		.byte	0x8e
 4370 0b0f 270B0000 		.4byte	0xb27
 4371 0b13 03       		.byte	0x3
 4372 0b14 23       		.byte	0x23
 4373 0b15 B201     		.uleb128 0xb2
 4374 0b17 0A       		.uleb128 0xa
 4375 0b18 73797300 		.ascii	"sys\000"
 4376 0b1c 0C       		.byte	0xc
 4377 0b1d 91       		.byte	0x91
ARM GAS  /tmp/ccuCtRWT.s 			page 78


 4378 0b1e 530A0000 		.4byte	0xa53
 4379 0b22 03       		.byte	0x3
 4380 0b23 23       		.byte	0x23
 4381 0b24 BE02     		.uleb128 0x13e
 4382 0b26 00       		.byte	0
 4383 0b27 0E       		.uleb128 0xe
 4384 0b28 C9090000 		.4byte	0x9c9
 4385 0b2c 370B0000 		.4byte	0xb37
 4386 0b30 0F       		.uleb128 0xf
 4387 0b31 B3000000 		.4byte	0xb3
 4388 0b35 0D       		.byte	0xd
 4389 0b36 00       		.byte	0
 4390 0b37 0B       		.uleb128 0xb
 4391 0b38 04       		.byte	0x4
 4392 0b39 BA000000 		.4byte	0xba
 4393 0b3d 16       		.uleb128 0x16
 4394 0b3e B8050000 		.4byte	.LASF181
 4395 0b42 01       		.byte	0x1
 4396 0b43 5C       		.byte	0x5c
 4397 0b44 01       		.byte	0x1
 4398 0b45 EB010000 		.4byte	0x1eb
 4399 0b49 01       		.byte	0x1
 4400 0b4a 8F0B0000 		.4byte	0xb8f
 4401 0b4e 17       		.uleb128 0x17
 4402 0b4f 70636200 		.ascii	"pcb\000"
 4403 0b53 01       		.byte	0x1
 4404 0b54 5C       		.byte	0x5c
 4405 0b55 B5030000 		.4byte	0x3b5
 4406 0b59 18       		.uleb128 0x18
 4407 0b5a 58010000 		.4byte	.LASF168
 4408 0b5e 01       		.byte	0x1
 4409 0b5f 5C       		.byte	0x5c
 4410 0b60 D7000000 		.4byte	0xd7
 4411 0b64 18       		.uleb128 0x18
 4412 0b65 CE060000 		.4byte	.LASF169
 4413 0b69 01       		.byte	0x1
 4414 0b6a 5C       		.byte	0x5c
 4415 0b6b D7000000 		.4byte	0xd7
 4416 0b6f 18       		.uleb128 0x18
 4417 0b70 45080000 		.4byte	.LASF170
 4418 0b74 01       		.byte	0x1
 4419 0b75 5D       		.byte	0x5d
 4420 0b76 ED000000 		.4byte	0xed
 4421 0b7a 19       		.uleb128 0x19
 4422 0b7b A9070000 		.4byte	.LASF120
 4423 0b7f 01       		.byte	0x1
 4424 0b80 5F       		.byte	0x5f
 4425 0b81 A1080000 		.4byte	0x8a1
 4426 0b85 1A       		.uleb128 0x1a
 4427 0b86 7000     		.ascii	"p\000"
 4428 0b88 01       		.byte	0x1
 4429 0b89 60       		.byte	0x60
 4430 0b8a EB010000 		.4byte	0x1eb
 4431 0b8e 00       		.byte	0
 4432 0b8f 1B       		.uleb128 0x1b
 4433 0b90 94000000 		.4byte	.LASF178
 4434 0b94 01       		.byte	0x1
ARM GAS  /tmp/ccuCtRWT.s 			page 79


 4435 0b95 D8       		.byte	0xd8
 4436 0b96 01       		.byte	0x1
 4437 0b97 EB010000 		.4byte	0x1eb
 4438 0b9b 00000000 		.4byte	.LFB10
 4439 0b9f 6E000000 		.4byte	.LFE10
 4440 0ba3 00000000 		.4byte	.LLST0
 4441 0ba7 01       		.byte	0x1
 4442 0ba8 4B0C0000 		.4byte	0xc4b
 4443 0bac 1C       		.uleb128 0x1c
 4444 0bad 11000000 		.4byte	.LASF171
 4445 0bb1 01       		.byte	0x1
 4446 0bb2 D8       		.byte	0xd8
 4447 0bb3 45010000 		.4byte	0x145
 4448 0bb7 20000000 		.4byte	.LLST1
 4449 0bbb 1C       		.uleb128 0x1c
 4450 0bbc 5F060000 		.4byte	.LASF172
 4451 0bc0 01       		.byte	0x1
 4452 0bc1 D8       		.byte	0xd8
 4453 0bc2 D7000000 		.4byte	0xd7
 4454 0bc6 4C000000 		.4byte	.LLST2
 4455 0bca 1C       		.uleb128 0x1c
 4456 0bcb 01060000 		.4byte	.LASF173
 4457 0bcf 01       		.byte	0x1
 4458 0bd0 D8       		.byte	0xd8
 4459 0bd1 D7000000 		.4byte	0xd7
 4460 0bd5 86000000 		.4byte	.LLST3
 4461 0bd9 1C       		.uleb128 0x1c
 4462 0bda 4A000000 		.4byte	.LASF174
 4463 0bde 01       		.byte	0x1
 4464 0bdf D9       		.byte	0xd9
 4465 0be0 4B0C0000 		.4byte	0xc4b
 4466 0be4 CB000000 		.4byte	.LLST4
 4467 0be8 1D       		.uleb128 0x1d
 4468 0be9 70636200 		.ascii	"pcb\000"
 4469 0bed 01       		.byte	0x1
 4470 0bee D9       		.byte	0xd9
 4471 0bef B5030000 		.4byte	0x3b5
 4472 0bf3 02       		.byte	0x2
 4473 0bf4 91       		.byte	0x91
 4474 0bf5 00       		.sleb128 0
 4475 0bf6 1E       		.uleb128 0x1e
 4476 0bf7 C9070000 		.4byte	.LASF175
 4477 0bfb 01       		.byte	0x1
 4478 0bfc D9       		.byte	0xd9
 4479 0bfd C1000000 		.4byte	0xc1
 4480 0c01 02       		.byte	0x2
 4481 0c02 91       		.byte	0x91
 4482 0c03 04       		.sleb128 4
 4483 0c04 1E       		.uleb128 0x1e
 4484 0c05 65030000 		.4byte	.LASF176
 4485 0c09 01       		.byte	0x1
 4486 0c0a DA       		.byte	0xda
 4487 0c0b C1000000 		.4byte	0xc1
 4488 0c0f 02       		.byte	0x2
 4489 0c10 91       		.byte	0x91
 4490 0c11 08       		.sleb128 8
 4491 0c12 1F       		.uleb128 0x1f
ARM GAS  /tmp/ccuCtRWT.s 			page 80


 4492 0c13 7000     		.ascii	"p\000"
 4493 0c15 01       		.byte	0x1
 4494 0c16 DC       		.byte	0xdc
 4495 0c17 EB010000 		.4byte	0x1eb
 4496 0c1b E9000000 		.4byte	.LLST5
 4497 0c1f 20       		.uleb128 0x20
 4498 0c20 19060000 		.4byte	.LASF177
 4499 0c24 01       		.byte	0x1
 4500 0c25 DD       		.byte	0xdd
 4501 0c26 D7000000 		.4byte	0xd7
 4502 0c2a 07010000 		.4byte	.LLST6
 4503 0c2e 21       		.uleb128 0x21
 4504 0c2f 3E000000 		.4byte	.LVL9
 4505 0c33 201C0000 		.4byte	0x1c20
 4506 0c37 410C0000 		.4byte	0xc41
 4507 0c3b 22       		.uleb128 0x22
 4508 0c3c 01       		.byte	0x1
 4509 0c3d 52       		.byte	0x52
 4510 0c3e 01       		.byte	0x1
 4511 0c3f 30       		.byte	0x30
 4512 0c40 00       		.byte	0
 4513 0c41 23       		.uleb128 0x23
 4514 0c42 4A000000 		.4byte	.LVL10
 4515 0c46 421C0000 		.4byte	0x1c42
 4516 0c4a 00       		.byte	0
 4517 0c4b 0B       		.uleb128 0xb
 4518 0c4c 04       		.byte	0x4
 4519 0c4d D7000000 		.4byte	0xd7
 4520 0c51 1B       		.uleb128 0x1b
 4521 0c52 94060000 		.4byte	.LASF179
 4522 0c56 01       		.byte	0x1
 4523 0c57 9C       		.byte	0x9c
 4524 0c58 01       		.byte	0x1
 4525 0c59 1E080000 		.4byte	0x81e
 4526 0c5d 00000000 		.4byte	.LFB9
 4527 0c61 BC000000 		.4byte	.LFE9
 4528 0c65 5C010000 		.4byte	.LLST7
 4529 0c69 01       		.byte	0x1
 4530 0c6a 570D0000 		.4byte	0xd57
 4531 0c6e 24       		.uleb128 0x24
 4532 0c6f 70636200 		.ascii	"pcb\000"
 4533 0c73 01       		.byte	0x1
 4534 0c74 9C       		.byte	0x9c
 4535 0c75 B5030000 		.4byte	0x3b5
 4536 0c79 7C010000 		.4byte	.LLST8
 4537 0c7d 24       		.uleb128 0x24
 4538 0c7e 7000     		.ascii	"p\000"
 4539 0c80 01       		.byte	0x1
 4540 0c81 9C       		.byte	0x9c
 4541 0c82 EB010000 		.4byte	0x1eb
 4542 0c86 9A010000 		.4byte	.LLST9
 4543 0c8a 1C       		.uleb128 0x1c
 4544 0c8b 6F030000 		.4byte	.LASF40
 4545 0c8f 01       		.byte	0x1
 4546 0c90 9C       		.byte	0x9c
 4547 0c91 C1000000 		.4byte	0xc1
 4548 0c95 D1010000 		.4byte	.LLST10
ARM GAS  /tmp/ccuCtRWT.s 			page 81


 4549 0c99 1C       		.uleb128 0x1c
 4550 0c9a E8010000 		.4byte	.LASF123
 4551 0c9e 01       		.byte	0x1
 4552 0c9f 9C       		.byte	0x9c
 4553 0ca0 ED000000 		.4byte	0xed
 4554 0ca4 F2010000 		.4byte	.LLST11
 4555 0ca8 1E       		.uleb128 0x1e
 4556 0ca9 E5040000 		.4byte	.LASF180
 4557 0cad 01       		.byte	0x1
 4558 0cae 9C       		.byte	0x9c
 4559 0caf C1000000 		.4byte	0xc1
 4560 0cb3 02       		.byte	0x2
 4561 0cb4 91       		.byte	0x91
 4562 0cb5 00       		.sleb128 0
 4563 0cb6 1F       		.uleb128 0x1f
 4564 0cb7 73656700 		.ascii	"seg\000"
 4565 0cbb 01       		.byte	0x1
 4566 0cbc 9E       		.byte	0x9e
 4567 0cbd 1E080000 		.4byte	0x81e
 4568 0cc1 10020000 		.4byte	.LLST12
 4569 0cc5 20       		.uleb128 0x20
 4570 0cc6 58010000 		.4byte	.LASF168
 4571 0cca 01       		.byte	0x1
 4572 0ccb 9F       		.byte	0x9f
 4573 0ccc C1000000 		.4byte	0xc1
 4574 0cd0 5A020000 		.4byte	.LLST13
 4575 0cd4 21       		.uleb128 0x21
 4576 0cd5 24000000 		.4byte	.LVL14
 4577 0cd9 4D1C0000 		.4byte	0x1c4d
 4578 0cdd E70C0000 		.4byte	0xce7
 4579 0ce1 22       		.uleb128 0x22
 4580 0ce2 01       		.byte	0x1
 4581 0ce3 50       		.byte	0x50
 4582 0ce4 01       		.byte	0x1
 4583 0ce5 34       		.byte	0x34
 4584 0ce6 00       		.byte	0
 4585 0ce7 21       		.uleb128 0x21
 4586 0ce8 50000000 		.4byte	.LVL17
 4587 0cec 651C0000 		.4byte	0x1c65
 4588 0cf0 000D0000 		.4byte	0xd00
 4589 0cf4 22       		.uleb128 0x22
 4590 0cf5 01       		.byte	0x1
 4591 0cf6 51       		.byte	0x51
 4592 0cf7 01       		.byte	0x1
 4593 0cf8 44       		.byte	0x44
 4594 0cf9 22       		.uleb128 0x22
 4595 0cfa 01       		.byte	0x1
 4596 0cfb 50       		.byte	0x50
 4597 0cfc 02       		.byte	0x2
 4598 0cfd 76       		.byte	0x76
 4599 0cfe 00       		.sleb128 0
 4600 0cff 00       		.byte	0
 4601 0d00 23       		.uleb128 0x23
 4602 0d01 62000000 		.4byte	.LVL19
 4603 0d05 821C0000 		.4byte	0x1c82
 4604 0d09 23       		.uleb128 0x23
 4605 0d0a 6E000000 		.4byte	.LVL20
ARM GAS  /tmp/ccuCtRWT.s 			page 82


 4606 0d0e 821C0000 		.4byte	0x1c82
 4607 0d12 21       		.uleb128 0x21
 4608 0d13 78000000 		.4byte	.LVL21
 4609 0d17 9A1C0000 		.4byte	0x1c9a
 4610 0d1b 260D0000 		.4byte	0xd26
 4611 0d1f 22       		.uleb128 0x22
 4612 0d20 01       		.byte	0x1
 4613 0d21 50       		.byte	0x50
 4614 0d22 02       		.byte	0x2
 4615 0d23 7A       		.byte	0x7a
 4616 0d24 00       		.sleb128 0
 4617 0d25 00       		.byte	0
 4618 0d26 21       		.uleb128 0x21
 4619 0d27 8A000000 		.4byte	.LVL23
 4620 0d2b 821C0000 		.4byte	0x1c82
 4621 0d2f 3D0D0000 		.4byte	0xd3d
 4622 0d33 22       		.uleb128 0x22
 4623 0d34 01       		.byte	0x1
 4624 0d35 50       		.byte	0x50
 4625 0d36 05       		.byte	0x5
 4626 0d37 77       		.byte	0x77
 4627 0d38 00       		.sleb128 0
 4628 0d39 79       		.byte	0x79
 4629 0d3a 00       		.sleb128 0
 4630 0d3b 21       		.byte	0x21
 4631 0d3c 00       		.byte	0
 4632 0d3d 23       		.uleb128 0x23
 4633 0d3e AC000000 		.4byte	.LVL27
 4634 0d42 B21C0000 		.4byte	0x1cb2
 4635 0d46 25       		.uleb128 0x25
 4636 0d47 B4000000 		.4byte	.LVL30
 4637 0d4b C71C0000 		.4byte	0x1cc7
 4638 0d4f 22       		.uleb128 0x22
 4639 0d50 01       		.byte	0x1
 4640 0d51 50       		.byte	0x50
 4641 0d52 02       		.byte	0x2
 4642 0d53 76       		.byte	0x76
 4643 0d54 00       		.sleb128 0
 4644 0d55 00       		.byte	0
 4645 0d56 00       		.byte	0
 4646 0d57 26       		.uleb128 0x26
 4647 0d58 3D0B0000 		.4byte	0xb3d
 4648 0d5c 00000000 		.4byte	.LFB23
 4649 0d60 66000000 		.4byte	.LFE23
 4650 0d64 AA020000 		.4byte	.LLST14
 4651 0d68 01       		.byte	0x1
 4652 0d69 FB0D0000 		.4byte	0xdfb
 4653 0d6d 27       		.uleb128 0x27
 4654 0d6e 4E0B0000 		.4byte	0xb4e
 4655 0d72 CA020000 		.4byte	.LLST15
 4656 0d76 27       		.uleb128 0x27
 4657 0d77 640B0000 		.4byte	0xb64
 4658 0d7b E8020000 		.4byte	.LLST16
 4659 0d7f 27       		.uleb128 0x27
 4660 0d80 6F0B0000 		.4byte	0xb6f
 4661 0d84 09030000 		.4byte	.LLST17
 4662 0d88 28       		.uleb128 0x28
ARM GAS  /tmp/ccuCtRWT.s 			page 83


 4663 0d89 7A0B0000 		.4byte	0xb7a
 4664 0d8d 27030000 		.4byte	.LLST18
 4665 0d91 28       		.uleb128 0x28
 4666 0d92 850B0000 		.4byte	0xb85
 4667 0d96 3A030000 		.4byte	.LLST19
 4668 0d9a 29       		.uleb128 0x29
 4669 0d9b 590B0000 		.4byte	0xb59
 4670 0d9f 00       		.byte	0
 4671 0da0 21       		.uleb128 0x21
 4672 0da1 12000000 		.4byte	.LVL35
 4673 0da5 201C0000 		.4byte	0x1c20
 4674 0da9 B80D0000 		.4byte	0xdb8
 4675 0dad 22       		.uleb128 0x22
 4676 0dae 01       		.byte	0x1
 4677 0daf 52       		.byte	0x52
 4678 0db0 01       		.byte	0x1
 4679 0db1 30       		.byte	0x30
 4680 0db2 22       		.uleb128 0x22
 4681 0db3 01       		.byte	0x1
 4682 0db4 50       		.byte	0x50
 4683 0db5 01       		.byte	0x1
 4684 0db6 31       		.byte	0x31
 4685 0db7 00       		.byte	0
 4686 0db8 23       		.uleb128 0x23
 4687 0db9 24000000 		.4byte	.LVL38
 4688 0dbd 821C0000 		.4byte	0x1c82
 4689 0dc1 23       		.uleb128 0x23
 4690 0dc2 2C000000 		.4byte	.LVL39
 4691 0dc6 821C0000 		.4byte	0x1c82
 4692 0dca 23       		.uleb128 0x23
 4693 0dcb 36000000 		.4byte	.LVL40
 4694 0dcf 9A1C0000 		.4byte	0x1c9a
 4695 0dd3 21       		.uleb128 0x21
 4696 0dd4 40000000 		.4byte	.LVL41
 4697 0dd8 821C0000 		.4byte	0x1c82
 4698 0ddc E80D0000 		.4byte	0xde8
 4699 0de0 22       		.uleb128 0x22
 4700 0de1 01       		.byte	0x1
 4701 0de2 50       		.byte	0x50
 4702 0de3 03       		.byte	0x3
 4703 0de4 0A       		.byte	0xa
 4704 0de5 1050     		.2byte	0x5010
 4705 0de7 00       		.byte	0
 4706 0de8 23       		.uleb128 0x23
 4707 0de9 48000000 		.4byte	.LVL42
 4708 0ded 821C0000 		.4byte	0x1c82
 4709 0df1 23       		.uleb128 0x23
 4710 0df2 64000000 		.4byte	.LVL45
 4711 0df6 421C0000 		.4byte	0x1c42
 4712 0dfa 00       		.byte	0
 4713 0dfb 2A       		.uleb128 0x2a
 4714 0dfc 00000000 		.4byte	.LASF182
 4715 0e00 01       		.byte	0x1
 4716 0e01 2301     		.2byte	0x123
 4717 0e03 01       		.byte	0x1
 4718 0e04 0E010000 		.4byte	0x10e
 4719 0e08 01       		.byte	0x1
ARM GAS  /tmp/ccuCtRWT.s 			page 84


 4720 0e09 260E0000 		.4byte	0xe26
 4721 0e0d 2B       		.uleb128 0x2b
 4722 0e0e 70636200 		.ascii	"pcb\000"
 4723 0e12 01       		.byte	0x1
 4724 0e13 2301     		.2byte	0x123
 4725 0e15 B5030000 		.4byte	0x3b5
 4726 0e19 2B       		.uleb128 0x2b
 4727 0e1a 6C656E00 		.ascii	"len\000"
 4728 0e1e 01       		.byte	0x1
 4729 0e1f 2301     		.2byte	0x123
 4730 0e21 D7000000 		.4byte	0xd7
 4731 0e25 00       		.byte	0
 4732 0e26 2C       		.uleb128 0x2c
 4733 0e27 01       		.byte	0x1
 4734 0e28 A9080000 		.4byte	.LASF194
 4735 0e2c 01       		.byte	0x1
 4736 0e2d 5F01     		.2byte	0x15f
 4737 0e2f 01       		.byte	0x1
 4738 0e30 0E010000 		.4byte	0x10e
 4739 0e34 00000000 		.4byte	.LFB12
 4740 0e38 78040000 		.4byte	.LFE12
 4741 0e3c 6E030000 		.4byte	.LLST20
 4742 0e40 01       		.byte	0x1
 4743 0e41 B3120000 		.4byte	0x12b3
 4744 0e45 2D       		.uleb128 0x2d
 4745 0e46 70636200 		.ascii	"pcb\000"
 4746 0e4a 01       		.byte	0x1
 4747 0e4b 5F01     		.2byte	0x15f
 4748 0e4d B5030000 		.4byte	0x3b5
 4749 0e51 9B030000 		.4byte	.LLST21
 4750 0e55 2D       		.uleb128 0x2d
 4751 0e56 61726700 		.ascii	"arg\000"
 4752 0e5a 01       		.byte	0x1
 4753 0e5b 5F01     		.2byte	0x15f
 4754 0e5d B3120000 		.4byte	0x12b3
 4755 0e61 64040000 		.4byte	.LLST22
 4756 0e65 2D       		.uleb128 0x2d
 4757 0e66 6C656E00 		.ascii	"len\000"
 4758 0e6a 01       		.byte	0x1
 4759 0e6b 5F01     		.2byte	0x15f
 4760 0e6d D7000000 		.4byte	0xd7
 4761 0e71 FC040000 		.4byte	.LLST23
 4762 0e75 2E       		.uleb128 0x2e
 4763 0e76 C9070000 		.4byte	.LASF175
 4764 0e7a 01       		.byte	0x1
 4765 0e7b 5F01     		.2byte	0x15f
 4766 0e7d C1000000 		.4byte	0xc1
 4767 0e81 9A050000 		.4byte	.LLST24
 4768 0e85 2F       		.uleb128 0x2f
 4769 0e86 2E060000 		.4byte	.LASF183
 4770 0e8a 01       		.byte	0x1
 4771 0e8b 6101     		.2byte	0x161
 4772 0e8d EB010000 		.4byte	0x1eb
 4773 0e91 BB050000 		.4byte	.LLST25
 4774 0e95 2F       		.uleb128 0x2f
 4775 0e96 F6030000 		.4byte	.LASF184
 4776 0e9a 01       		.byte	0x1
ARM GAS  /tmp/ccuCtRWT.s 			page 85


 4777 0e9b 6201     		.2byte	0x162
 4778 0e9d 1E080000 		.4byte	0x81e
 4779 0ea1 75060000 		.4byte	.LLST26
 4780 0ea5 30       		.uleb128 0x30
 4781 0ea6 73656700 		.ascii	"seg\000"
 4782 0eaa 01       		.byte	0x1
 4783 0eab 6201     		.2byte	0x162
 4784 0ead 1E080000 		.4byte	0x81e
 4785 0eb1 FD060000 		.4byte	.LLST27
 4786 0eb5 2F       		.uleb128 0x2f
 4787 0eb6 ED070000 		.4byte	.LASF185
 4788 0eba 01       		.byte	0x1
 4789 0ebb 6201     		.2byte	0x162
 4790 0ebd 1E080000 		.4byte	0x81e
 4791 0ec1 D4070000 		.4byte	.LLST28
 4792 0ec5 2F       		.uleb128 0x2f
 4793 0ec6 DF070000 		.4byte	.LASF186
 4794 0eca 01       		.byte	0x1
 4795 0ecb 6201     		.2byte	0x162
 4796 0ecd 1E080000 		.4byte	0x81e
 4797 0ed1 5F080000 		.4byte	.LLST29
 4798 0ed5 30       		.uleb128 0x30
 4799 0ed6 706F7300 		.ascii	"pos\000"
 4800 0eda 01       		.byte	0x1
 4801 0edb 6301     		.2byte	0x163
 4802 0edd D7000000 		.4byte	0xd7
 4803 0ee1 EE080000 		.4byte	.LLST30
 4804 0ee5 2F       		.uleb128 0x2f
 4805 0ee6 F5080000 		.4byte	.LASF187
 4806 0eea 01       		.byte	0x1
 4807 0eeb 6401     		.2byte	0x164
 4808 0eed D7000000 		.4byte	0xd7
 4809 0ef1 98090000 		.4byte	.LLST31
 4810 0ef5 31       		.uleb128 0x31
 4811 0ef6 58010000 		.4byte	.LASF168
 4812 0efa 01       		.byte	0x1
 4813 0efb 6501     		.2byte	0x165
 4814 0efd C1000000 		.4byte	0xc1
 4815 0f01 00       		.byte	0
 4816 0f02 31       		.uleb128 0x31
 4817 0f03 E5040000 		.4byte	.LASF180
 4818 0f07 01       		.byte	0x1
 4819 0f08 6601     		.2byte	0x166
 4820 0f0a C1000000 		.4byte	0xc1
 4821 0f0e 00       		.byte	0
 4822 0f0f 2F       		.uleb128 0x2f
 4823 0f10 4A000000 		.4byte	.LASF174
 4824 0f14 01       		.byte	0x1
 4825 0f15 6801     		.2byte	0x168
 4826 0f17 D7000000 		.4byte	0xd7
 4827 0f1b 100A0000 		.4byte	.LLST32
 4828 0f1f 2F       		.uleb128 0x2f
 4829 0f20 40010000 		.4byte	.LASF188
 4830 0f24 01       		.byte	0x1
 4831 0f25 6901     		.2byte	0x169
 4832 0f27 D7000000 		.4byte	0xd7
 4833 0f2b 690A0000 		.4byte	.LLST33
ARM GAS  /tmp/ccuCtRWT.s 			page 86


 4834 0f2f 32       		.uleb128 0x32
 4835 0f30 65727200 		.ascii	"err\000"
 4836 0f34 01       		.byte	0x1
 4837 0f35 7001     		.2byte	0x170
 4838 0f37 0E010000 		.4byte	0x10e
 4839 0f3b 01       		.byte	0x1
 4840 0f3c 50       		.byte	0x50
 4841 0f3d 33       		.uleb128 0x33
 4842 0f3e 31080000 		.4byte	.LASF149
 4843 0f42 01       		.byte	0x1
 4844 0f43 AE02     		.2byte	0x2ae
 4845 0f45 D6020000 		.4byte	.L69
 4846 0f49 34       		.uleb128 0x34
 4847 0f4a FB0D0000 		.4byte	0xdfb
 4848 0f4e 1A000000 		.4byte	.LBB9
 4849 0f52 00000000 		.4byte	.Ldebug_ranges0+0
 4850 0f56 01       		.byte	0x1
 4851 0f57 7C01     		.2byte	0x17c
 4852 0f59 790F0000 		.4byte	0xf79
 4853 0f5d 27       		.uleb128 0x27
 4854 0f5e 190E0000 		.4byte	0xe19
 4855 0f62 E80A0000 		.4byte	.LLST34
 4856 0f66 27       		.uleb128 0x27
 4857 0f67 0D0E0000 		.4byte	0xe0d
 4858 0f6b 7F0B0000 		.4byte	.LLST35
 4859 0f6f 23       		.uleb128 0x23
 4860 0f70 D8010000 		.4byte	.LVL80
 4861 0f74 421C0000 		.4byte	0x1c42
 4862 0f78 00       		.byte	0
 4863 0f79 35       		.uleb128 0x35
 4864 0f7a 28000000 		.4byte	.Ldebug_ranges0+0x28
 4865 0f7e 4F100000 		.4byte	0x104f
 4866 0f82 2F       		.uleb128 0x2f
 4867 0f83 3C040000 		.4byte	.LASF189
 4868 0f87 01       		.byte	0x1
 4869 0f88 A201     		.2byte	0x1a2
 4870 0f8a D7000000 		.4byte	0xd7
 4871 0f8e 240C0000 		.4byte	.LLST36
 4872 0f92 2F       		.uleb128 0x2f
 4873 0f93 6B000000 		.4byte	.LASF190
 4874 0f97 01       		.byte	0x1
 4875 0f98 A301     		.2byte	0x1a3
 4876 0f9a D7000000 		.4byte	0xd7
 4877 0f9e 690C0000 		.4byte	.LLST37
 4878 0fa2 35       		.uleb128 0x35
 4879 0fa3 48000000 		.4byte	.Ldebug_ranges0+0x48
 4880 0fa7 45100000 		.4byte	0x1045
 4881 0fab 2F       		.uleb128 0x2f
 4882 0fac DF080000 		.4byte	.LASF191
 4883 0fb0 01       		.byte	0x1
 4884 0fb1 CF01     		.2byte	0x1cf
 4885 0fb3 D7000000 		.4byte	0xd7
 4886 0fb7 930C0000 		.4byte	.LLST38
 4887 0fbb 21       		.uleb128 0x21
 4888 0fbc 84030000 		.4byte	.LVL118
 4889 0fc0 8F0B0000 		.4byte	0xb8f
 4890 0fc4 F60F0000 		.4byte	0xff6
ARM GAS  /tmp/ccuCtRWT.s 			page 87


 4891 0fc8 22       		.uleb128 0x22
 4892 0fc9 01       		.byte	0x1
 4893 0fca 53       		.byte	0x53
 4894 0fcb 02       		.byte	0x2
 4895 0fcc 91       		.byte	0x91
 4896 0fcd 56       		.sleb128 -42
 4897 0fce 22       		.uleb128 0x22
 4898 0fcf 01       		.byte	0x1
 4899 0fd0 52       		.byte	0x52
 4900 0fd1 02       		.byte	0x2
 4901 0fd2 7A       		.byte	0x7a
 4902 0fd3 00       		.sleb128 0
 4903 0fd4 22       		.uleb128 0x22
 4904 0fd5 01       		.byte	0x1
 4905 0fd6 51       		.byte	0x51
 4906 0fd7 02       		.byte	0x2
 4907 0fd8 76       		.byte	0x76
 4908 0fd9 00       		.sleb128 0
 4909 0fda 22       		.uleb128 0x22
 4910 0fdb 01       		.byte	0x1
 4911 0fdc 50       		.byte	0x50
 4912 0fdd 01       		.byte	0x1
 4913 0fde 33       		.byte	0x33
 4914 0fdf 22       		.uleb128 0x22
 4915 0fe0 02       		.byte	0x2
 4916 0fe1 7D       		.byte	0x7d
 4917 0fe2 08       		.sleb128 8
 4918 0fe3 01       		.byte	0x1
 4919 0fe4 31       		.byte	0x31
 4920 0fe5 22       		.uleb128 0x22
 4921 0fe6 02       		.byte	0x2
 4922 0fe7 7D       		.byte	0x7d
 4923 0fe8 04       		.sleb128 4
 4924 0fe9 04       		.byte	0x4
 4925 0fea 91       		.byte	0x91
 4926 0feb 40       		.sleb128 -64
 4927 0fec 94       		.byte	0x94
 4928 0fed 01       		.byte	0x1
 4929 0fee 22       		.uleb128 0x22
 4930 0fef 02       		.byte	0x2
 4931 0ff0 7D       		.byte	0x7d
 4932 0ff1 00       		.sleb128 0
 4933 0ff2 02       		.byte	0x2
 4934 0ff3 75       		.byte	0x75
 4935 0ff4 00       		.sleb128 0
 4936 0ff5 00       		.byte	0
 4937 0ff6 21       		.uleb128 0x21
 4938 0ff7 96030000 		.4byte	.LVL120
 4939 0ffb DF1C0000 		.4byte	0x1cdf
 4940 0fff 15100000 		.4byte	0x1015
 4941 1003 22       		.uleb128 0x22
 4942 1004 01       		.byte	0x1
 4943 1005 52       		.byte	0x52
 4944 1006 02       		.byte	0x2
 4945 1007 76       		.byte	0x76
 4946 1008 00       		.sleb128 0
 4947 1009 22       		.uleb128 0x22
ARM GAS  /tmp/ccuCtRWT.s 			page 88


 4948 100a 01       		.byte	0x1
 4949 100b 51       		.byte	0x51
 4950 100c 07       		.byte	0x7
 4951 100d 91       		.byte	0x91
 4952 100e B87F     		.sleb128 -72
 4953 1010 06       		.byte	0x6
 4954 1011 74       		.byte	0x74
 4955 1012 00       		.sleb128 0
 4956 1013 22       		.byte	0x22
 4957 1014 00       		.byte	0
 4958 1015 21       		.uleb128 0x21
 4959 1016 E4030000 		.4byte	.LVL129
 4960 101a 201C0000 		.4byte	0x1c20
 4961 101e 33100000 		.4byte	0x1033
 4962 1022 22       		.uleb128 0x22
 4963 1023 01       		.byte	0x1
 4964 1024 52       		.byte	0x52
 4965 1025 01       		.byte	0x1
 4966 1026 31       		.byte	0x31
 4967 1027 22       		.uleb128 0x22
 4968 1028 01       		.byte	0x1
 4969 1029 51       		.byte	0x51
 4970 102a 02       		.byte	0x2
 4971 102b 76       		.byte	0x76
 4972 102c 00       		.sleb128 0
 4973 102d 22       		.uleb128 0x22
 4974 102e 01       		.byte	0x1
 4975 102f 50       		.byte	0x50
 4976 1030 01       		.byte	0x1
 4977 1031 33       		.byte	0x33
 4978 1032 00       		.byte	0
 4979 1033 25       		.uleb128 0x25
 4980 1034 F4030000 		.4byte	.LVL131
 4981 1038 001D0000 		.4byte	0x1d00
 4982 103c 22       		.uleb128 0x22
 4983 103d 01       		.byte	0x1
 4984 103e 50       		.byte	0x50
 4985 103f 03       		.byte	0x3
 4986 1040 91       		.byte	0x91
 4987 1041 44       		.sleb128 -60
 4988 1042 06       		.byte	0x6
 4989 1043 00       		.byte	0
 4990 1044 00       		.byte	0
 4991 1045 23       		.uleb128 0x23
 4992 1046 58030000 		.4byte	.LVL115
 4993 104a 421C0000 		.4byte	0x1c42
 4994 104e 00       		.byte	0
 4995 104f 35       		.uleb128 0x35
 4996 1050 60000000 		.4byte	.Ldebug_ranges0+0x60
 4997 1054 02120000 		.4byte	0x1202
 4998 1058 30       		.uleb128 0x30
 4999 1059 7000     		.ascii	"p\000"
 5000 105b 01       		.byte	0x1
 5001 105c 0602     		.2byte	0x206
 5002 105e EB010000 		.4byte	0x1eb
 5003 1062 BC0C0000 		.4byte	.LLST39
 5004 1066 2F       		.uleb128 0x2f
ARM GAS  /tmp/ccuCtRWT.s 			page 89


 5005 1067 F3060000 		.4byte	.LASF192
 5006 106b 01       		.byte	0x1
 5007 106c 0702     		.2byte	0x207
 5008 106e D7000000 		.4byte	0xd7
 5009 1072 3D0D0000 		.4byte	.LLST40
 5010 1076 2F       		.uleb128 0x2f
 5011 1077 FF040000 		.4byte	.LASF193
 5012 107b 01       		.byte	0x1
 5013 107c 0802     		.2byte	0x208
 5014 107e D7000000 		.4byte	0xd7
 5015 1082 A50D0000 		.4byte	.LLST41
 5016 1086 2F       		.uleb128 0x2f
 5017 1087 DF080000 		.4byte	.LASF191
 5018 108b 01       		.byte	0x1
 5019 108c 0902     		.2byte	0x209
 5020 108e D7000000 		.4byte	0xd7
 5021 1092 D10D0000 		.4byte	.LLST42
 5022 1096 35       		.uleb128 0x35
 5023 1097 B0000000 		.4byte	.Ldebug_ranges0+0xb0
 5024 109b 2D110000 		.4byte	0x112d
 5025 109f 30       		.uleb128 0x30
 5026 10a0 703200   		.ascii	"p2\000"
 5027 10a3 01       		.byte	0x1
 5028 10a4 1F02     		.2byte	0x21f
 5029 10a6 EB010000 		.4byte	0x1eb
 5030 10aa 1B0E0000 		.4byte	.LLST43
 5031 10ae 21       		.uleb128 0x21
 5032 10af FC000000 		.4byte	.LVL60
 5033 10b3 201C0000 		.4byte	0x1c20
 5034 10b7 D0100000 		.4byte	0x10d0
 5035 10bb 22       		.uleb128 0x22
 5036 10bc 01       		.byte	0x1
 5037 10bd 52       		.byte	0x52
 5038 10be 01       		.byte	0x1
 5039 10bf 31       		.byte	0x31
 5040 10c0 22       		.uleb128 0x22
 5041 10c1 01       		.byte	0x1
 5042 10c2 51       		.byte	0x51
 5043 10c3 02       		.byte	0x2
 5044 10c4 77       		.byte	0x77
 5045 10c5 00       		.sleb128 0
 5046 10c6 22       		.uleb128 0x22
 5047 10c7 01       		.byte	0x1
 5048 10c8 50       		.byte	0x50
 5049 10c9 05       		.byte	0x5
 5050 10ca 91       		.byte	0x91
 5051 10cb B47F     		.sleb128 -76
 5052 10cd 94       		.byte	0x94
 5053 10ce 01       		.byte	0x1
 5054 10cf 00       		.byte	0
 5055 10d0 21       		.uleb128 0x21
 5056 10d1 16010000 		.4byte	.LVL62
 5057 10d5 201C0000 		.4byte	0x1c20
 5058 10d9 F9100000 		.4byte	0x10f9
 5059 10dd 22       		.uleb128 0x22
 5060 10de 01       		.byte	0x1
 5061 10df 52       		.byte	0x52
ARM GAS  /tmp/ccuCtRWT.s 			page 90


 5062 10e0 05       		.byte	0x5
 5063 10e1 91       		.byte	0x91
 5064 10e2 B47F     		.sleb128 -76
 5065 10e4 94       		.byte	0x94
 5066 10e5 01       		.byte	0x1
 5067 10e6 22       		.uleb128 0x22
 5068 10e7 01       		.byte	0x1
 5069 10e8 51       		.byte	0x51
 5070 10e9 05       		.byte	0x5
 5071 10ea 91       		.byte	0x91
 5072 10eb B47F     		.sleb128 -76
 5073 10ed 94       		.byte	0x94
 5074 10ee 02       		.byte	0x2
 5075 10ef 22       		.uleb128 0x22
 5076 10f0 01       		.byte	0x1
 5077 10f1 50       		.byte	0x50
 5078 10f2 05       		.byte	0x5
 5079 10f3 91       		.byte	0x91
 5080 10f4 B47F     		.sleb128 -76
 5081 10f6 94       		.byte	0x94
 5082 10f7 01       		.byte	0x1
 5083 10f8 00       		.byte	0
 5084 10f9 21       		.uleb128 0x21
 5085 10fa 24010000 		.4byte	.LVL63
 5086 10fe 181D0000 		.4byte	0x1d18
 5087 1102 13110000 		.4byte	0x1113
 5088 1106 22       		.uleb128 0x22
 5089 1107 01       		.byte	0x1
 5090 1108 51       		.byte	0x51
 5091 1109 02       		.byte	0x2
 5092 110a 7B       		.byte	0x7b
 5093 110b 00       		.sleb128 0
 5094 110c 22       		.uleb128 0x22
 5095 110d 01       		.byte	0x1
 5096 110e 50       		.byte	0x50
 5097 110f 02       		.byte	0x2
 5098 1110 76       		.byte	0x76
 5099 1111 00       		.sleb128 0
 5100 1112 00       		.byte	0
 5101 1113 23       		.uleb128 0x23
 5102 1114 02020000 		.4byte	.LVL84
 5103 1118 421C0000 		.4byte	0x1c42
 5104 111c 25       		.uleb128 0x25
 5105 111d D6020000 		.4byte	.LVL102
 5106 1121 C71C0000 		.4byte	0x1cc7
 5107 1125 22       		.uleb128 0x22
 5108 1126 01       		.byte	0x1
 5109 1127 50       		.byte	0x50
 5110 1128 02       		.byte	0x2
 5111 1129 7B       		.byte	0x7b
 5112 112a 00       		.sleb128 0
 5113 112b 00       		.byte	0
 5114 112c 00       		.byte	0
 5115 112d 21       		.uleb128 0x21
 5116 112e 2A010000 		.4byte	.LVL64
 5117 1132 001D0000 		.4byte	0x1d00
 5118 1136 41110000 		.4byte	0x1141
ARM GAS  /tmp/ccuCtRWT.s 			page 91


 5119 113a 22       		.uleb128 0x22
 5120 113b 01       		.byte	0x1
 5121 113c 50       		.byte	0x50
 5122 113d 02       		.byte	0x2
 5123 113e 76       		.byte	0x76
 5124 113f 00       		.sleb128 0
 5125 1140 00       		.byte	0
 5126 1141 21       		.uleb128 0x21
 5127 1142 4A010000 		.4byte	.LVL67
 5128 1146 510C0000 		.4byte	0xc51
 5129 114a 6E110000 		.4byte	0x116e
 5130 114e 22       		.uleb128 0x22
 5131 114f 01       		.byte	0x1
 5132 1150 52       		.byte	0x52
 5133 1151 05       		.byte	0x5
 5134 1152 91       		.byte	0x91
 5135 1153 B47F     		.sleb128 -76
 5136 1155 94       		.byte	0x94
 5137 1156 01       		.byte	0x1
 5138 1157 22       		.uleb128 0x22
 5139 1158 01       		.byte	0x1
 5140 1159 51       		.byte	0x51
 5141 115a 02       		.byte	0x2
 5142 115b 76       		.byte	0x76
 5143 115c 00       		.sleb128 0
 5144 115d 22       		.uleb128 0x22
 5145 115e 01       		.byte	0x1
 5146 115f 50       		.byte	0x50
 5147 1160 02       		.byte	0x2
 5148 1161 75       		.byte	0x75
 5149 1162 00       		.sleb128 0
 5150 1163 22       		.uleb128 0x22
 5151 1164 02       		.byte	0x2
 5152 1165 7D       		.byte	0x7d
 5153 1166 00       		.sleb128 0
 5154 1167 05       		.byte	0x5
 5155 1168 91       		.byte	0x91
 5156 1169 B47F     		.sleb128 -76
 5157 116b 94       		.byte	0x94
 5158 116c 01       		.byte	0x1
 5159 116d 00       		.byte	0
 5160 116e 21       		.uleb128 0x21
 5161 116f 9E010000 		.4byte	.LVL74
 5162 1173 8F0B0000 		.4byte	0xb8f
 5163 1177 C0110000 		.4byte	0x11c0
 5164 117b 22       		.uleb128 0x22
 5165 117c 01       		.byte	0x1
 5166 117d 53       		.byte	0x53
 5167 117e 02       		.byte	0x2
 5168 117f 91       		.byte	0x91
 5169 1180 56       		.sleb128 -42
 5170 1181 22       		.uleb128 0x22
 5171 1182 01       		.byte	0x1
 5172 1183 51       		.byte	0x51
 5173 1184 02       		.byte	0x2
 5174 1185 77       		.byte	0x77
 5175 1186 00       		.sleb128 0
ARM GAS  /tmp/ccuCtRWT.s 			page 92


 5176 1187 22       		.uleb128 0x22
 5177 1188 01       		.byte	0x1
 5178 1189 50       		.byte	0x50
 5179 118a 05       		.byte	0x5
 5180 118b 91       		.byte	0x91
 5181 118c B47F     		.sleb128 -76
 5182 118e 94       		.byte	0x94
 5183 118f 01       		.byte	0x1
 5184 1190 22       		.uleb128 0x22
 5185 1191 02       		.byte	0x2
 5186 1192 7D       		.byte	0x7d
 5187 1193 08       		.sleb128 8
 5188 1194 1A       		.byte	0x1a
 5189 1195 30       		.byte	0x30
 5190 1196 31       		.byte	0x31
 5191 1197 91       		.byte	0x91
 5192 1198 B47F     		.sleb128 -76
 5193 119a 06       		.byte	0x6
 5194 119b 1C       		.byte	0x1c
 5195 119c 31       		.byte	0x31
 5196 119d 40       		.byte	0x40
 5197 119e 4B       		.byte	0x4b
 5198 119f 24       		.byte	0x24
 5199 11a0 22       		.byte	0x22
 5200 11a1 91       		.byte	0x91
 5201 11a2 B47F     		.sleb128 -76
 5202 11a4 06       		.byte	0x6
 5203 11a5 40       		.byte	0x40
 5204 11a6 4B       		.byte	0x4b
 5205 11a7 24       		.byte	0x24
 5206 11a8 22       		.byte	0x22
 5207 11a9 2D       		.byte	0x2d
 5208 11aa 28       		.byte	0x28
 5209 11ab 0100     		.2byte	0x1
 5210 11ad 16       		.byte	0x16
 5211 11ae 13       		.byte	0x13
 5212 11af 22       		.uleb128 0x22
 5213 11b0 02       		.byte	0x2
 5214 11b1 7D       		.byte	0x7d
 5215 11b2 04       		.sleb128 4
 5216 11b3 04       		.byte	0x4
 5217 11b4 91       		.byte	0x91
 5218 11b5 40       		.sleb128 -64
 5219 11b6 94       		.byte	0x94
 5220 11b7 01       		.byte	0x1
 5221 11b8 22       		.uleb128 0x22
 5222 11b9 02       		.byte	0x2
 5223 11ba 7D       		.byte	0x7d
 5224 11bb 00       		.sleb128 0
 5225 11bc 02       		.byte	0x2
 5226 11bd 75       		.byte	0x75
 5227 11be 00       		.sleb128 0
 5228 11bf 00       		.byte	0
 5229 11c0 21       		.uleb128 0x21
 5230 11c1 BA010000 		.4byte	.LVL76
 5231 11c5 DF1C0000 		.4byte	0x1cdf
 5232 11c9 DF110000 		.4byte	0x11df
ARM GAS  /tmp/ccuCtRWT.s 			page 93


 5233 11cd 22       		.uleb128 0x22
 5234 11ce 01       		.byte	0x1
 5235 11cf 52       		.byte	0x52
 5236 11d0 02       		.byte	0x2
 5237 11d1 77       		.byte	0x77
 5238 11d2 00       		.sleb128 0
 5239 11d3 22       		.uleb128 0x22
 5240 11d4 01       		.byte	0x1
 5241 11d5 51       		.byte	0x51
 5242 11d6 07       		.byte	0x7
 5243 11d7 91       		.byte	0x91
 5244 11d8 B87F     		.sleb128 -72
 5245 11da 06       		.byte	0x6
 5246 11db 74       		.byte	0x74
 5247 11dc 00       		.sleb128 0
 5248 11dd 22       		.byte	0x22
 5249 11de 00       		.byte	0
 5250 11df 23       		.uleb128 0x23
 5251 11e0 CE020000 		.4byte	.LVL99
 5252 11e4 421C0000 		.4byte	0x1c42
 5253 11e8 23       		.uleb128 0x23
 5254 11e9 2A030000 		.4byte	.LVL108
 5255 11ed 421C0000 		.4byte	0x1c42
 5256 11f1 25       		.uleb128 0x25
 5257 11f2 BC030000 		.4byte	.LVL124
 5258 11f6 C71C0000 		.4byte	0x1cc7
 5259 11fa 22       		.uleb128 0x22
 5260 11fb 01       		.byte	0x1
 5261 11fc 50       		.byte	0x50
 5262 11fd 02       		.byte	0x2
 5263 11fe 76       		.byte	0x76
 5264 11ff 00       		.sleb128 0
 5265 1200 00       		.byte	0
 5266 1201 00       		.byte	0
 5267 1202 35       		.uleb128 0x35
 5268 1203 D0000000 		.4byte	.Ldebug_ranges0+0xd0
 5269 1207 32120000 		.4byte	0x1232
 5270 120b 30       		.uleb128 0x30
 5271 120c 7000     		.ascii	"p\000"
 5272 120e 01       		.byte	0x1
 5273 120f 6E02     		.2byte	0x26e
 5274 1211 EB010000 		.4byte	0x1eb
 5275 1215 440E0000 		.4byte	.LLST44
 5276 1219 25       		.uleb128 0x25
 5277 121a 40020000 		.4byte	.LVL92
 5278 121e DF1C0000 		.4byte	0x1cdf
 5279 1222 22       		.uleb128 0x22
 5280 1223 01       		.byte	0x1
 5281 1224 52       		.byte	0x52
 5282 1225 02       		.byte	0x2
 5283 1226 77       		.byte	0x77
 5284 1227 00       		.sleb128 0
 5285 1228 22       		.uleb128 0x22
 5286 1229 01       		.byte	0x1
 5287 122a 51       		.byte	0x51
 5288 122b 04       		.byte	0x4
 5289 122c 91       		.byte	0x91
ARM GAS  /tmp/ccuCtRWT.s 			page 94


 5290 122d B87F     		.sleb128 -72
 5291 122f 06       		.byte	0x6
 5292 1230 00       		.byte	0
 5293 1231 00       		.byte	0
 5294 1232 21       		.uleb128 0x21
 5295 1233 7A020000 		.4byte	.LVL95
 5296 1237 181D0000 		.4byte	0x1d18
 5297 123b 47120000 		.4byte	0x1247
 5298 123f 22       		.uleb128 0x22
 5299 1240 01       		.byte	0x1
 5300 1241 51       		.byte	0x51
 5301 1242 03       		.byte	0x3
 5302 1243 91       		.byte	0x91
 5303 1244 44       		.sleb128 -60
 5304 1245 06       		.byte	0x6
 5305 1246 00       		.byte	0
 5306 1247 21       		.uleb128 0x21
 5307 1248 F8020000 		.4byte	.LVL103
 5308 124c C71C0000 		.4byte	0x1cc7
 5309 1250 5C120000 		.4byte	0x125c
 5310 1254 22       		.uleb128 0x22
 5311 1255 01       		.byte	0x1
 5312 1256 50       		.byte	0x50
 5313 1257 03       		.byte	0x3
 5314 1258 91       		.byte	0x91
 5315 1259 44       		.sleb128 -60
 5316 125a 06       		.byte	0x6
 5317 125b 00       		.byte	0
 5318 125c 21       		.uleb128 0x21
 5319 125d 02030000 		.4byte	.LVL104
 5320 1261 311D0000 		.4byte	0x1d31
 5321 1265 72120000 		.4byte	0x1272
 5322 1269 22       		.uleb128 0x22
 5323 126a 01       		.byte	0x1
 5324 126b 50       		.byte	0x50
 5325 126c 04       		.byte	0x4
 5326 126d 91       		.byte	0x91
 5327 126e B47F     		.sleb128 -76
 5328 1270 06       		.byte	0x6
 5329 1271 00       		.byte	0
 5330 1272 21       		.uleb128 0x21
 5331 1273 0E040000 		.4byte	.LVL137
 5332 1277 821C0000 		.4byte	0x1c82
 5333 127b 85120000 		.4byte	0x1285
 5334 127f 22       		.uleb128 0x22
 5335 1280 01       		.byte	0x1
 5336 1281 50       		.byte	0x50
 5337 1282 01       		.byte	0x1
 5338 1283 38       		.byte	0x38
 5339 1284 00       		.byte	0
 5340 1285 23       		.uleb128 0x23
 5341 1286 1A040000 		.4byte	.LVL139
 5342 128a 421C0000 		.4byte	0x1c42
 5343 128e 23       		.uleb128 0x23
 5344 128f 44040000 		.4byte	.LVL142
 5345 1293 421C0000 		.4byte	0x1c42
 5346 1297 23       		.uleb128 0x23
ARM GAS  /tmp/ccuCtRWT.s 			page 95


 5347 1298 4E040000 		.4byte	.LVL144
 5348 129c 421C0000 		.4byte	0x1c42
 5349 12a0 23       		.uleb128 0x23
 5350 12a1 6A040000 		.4byte	.LVL146
 5351 12a5 421C0000 		.4byte	0x1c42
 5352 12a9 23       		.uleb128 0x23
 5353 12aa 70040000 		.4byte	.LVL148
 5354 12ae 421C0000 		.4byte	0x1c42
 5355 12b2 00       		.byte	0
 5356 12b3 0B       		.uleb128 0xb
 5357 12b4 04       		.byte	0x4
 5358 12b5 B9120000 		.4byte	0x12b9
 5359 12b9 36       		.uleb128 0x36
 5360 12ba 2C       		.uleb128 0x2c
 5361 12bb 01       		.byte	0x1
 5362 12bc C8010000 		.4byte	.LASF195
 5363 12c0 01       		.byte	0x1
 5364 12c1 CB02     		.2byte	0x2cb
 5365 12c3 01       		.byte	0x1
 5366 12c4 0E010000 		.4byte	0x10e
 5367 12c8 00000000 		.4byte	.LFB13
 5368 12cc 50010000 		.4byte	.LFE13
 5369 12d0 620E0000 		.4byte	.LLST45
 5370 12d4 01       		.byte	0x1
 5371 12d5 CE130000 		.4byte	0x13ce
 5372 12d9 2D       		.uleb128 0x2d
 5373 12da 70636200 		.ascii	"pcb\000"
 5374 12de 01       		.byte	0x1
 5375 12df CB02     		.2byte	0x2cb
 5376 12e1 B5030000 		.4byte	0x3b5
 5377 12e5 8E0E0000 		.4byte	.LLST46
 5378 12e9 2E       		.uleb128 0x2e
 5379 12ea 6F030000 		.4byte	.LASF40
 5380 12ee 01       		.byte	0x1
 5381 12ef CB02     		.2byte	0x2cb
 5382 12f1 C1000000 		.4byte	0xc1
 5383 12f5 C20E0000 		.4byte	.LLST47
 5384 12f9 30       		.uleb128 0x30
 5385 12fa 7000     		.ascii	"p\000"
 5386 12fc 01       		.byte	0x1
 5387 12fd CD02     		.2byte	0x2cd
 5388 12ff EB010000 		.4byte	0x1eb
 5389 1303 FC0E0000 		.4byte	.LLST48
 5390 1307 30       		.uleb128 0x30
 5391 1308 73656700 		.ascii	"seg\000"
 5392 130c 01       		.byte	0x1
 5393 130d CE02     		.2byte	0x2ce
 5394 130f 1E080000 		.4byte	0x81e
 5395 1313 460F0000 		.4byte	.LLST49
 5396 1317 31       		.uleb128 0x31
 5397 1318 E5040000 		.4byte	.LASF180
 5398 131c 01       		.byte	0x1
 5399 131d CF02     		.2byte	0x2cf
 5400 131f C1000000 		.4byte	0xc1
 5401 1323 00       		.byte	0
 5402 1324 2F       		.uleb128 0x2f
 5403 1325 58010000 		.4byte	.LASF168
ARM GAS  /tmp/ccuCtRWT.s 			page 96


 5404 1329 01       		.byte	0x1
 5405 132a D002     		.2byte	0x2d0
 5406 132c C1000000 		.4byte	0xc1
 5407 1330 850F0000 		.4byte	.LLST50
 5408 1334 37       		.uleb128 0x37
 5409 1335 6E000000 		.4byte	.LBB36
 5410 1339 78000000 		.4byte	.LBE36
 5411 133d 52130000 		.4byte	0x1352
 5412 1341 2F       		.uleb128 0x2f
 5413 1342 F8020000 		.4byte	.LASF196
 5414 1346 01       		.byte	0x1
 5415 1347 1003     		.2byte	0x310
 5416 1349 1E080000 		.4byte	0x81e
 5417 134d C60F0000 		.4byte	.LLST51
 5418 1351 00       		.byte	0
 5419 1352 21       		.uleb128 0x21
 5420 1353 3A000000 		.4byte	.LVL152
 5421 1357 201C0000 		.4byte	0x1c20
 5422 135b 70130000 		.4byte	0x1370
 5423 135f 22       		.uleb128 0x22
 5424 1360 01       		.byte	0x1
 5425 1361 52       		.byte	0x52
 5426 1362 01       		.byte	0x1
 5427 1363 30       		.byte	0x30
 5428 1364 22       		.uleb128 0x22
 5429 1365 01       		.byte	0x1
 5430 1366 51       		.byte	0x51
 5431 1367 02       		.byte	0x2
 5432 1368 77       		.byte	0x77
 5433 1369 00       		.sleb128 0
 5434 136a 22       		.uleb128 0x22
 5435 136b 01       		.byte	0x1
 5436 136c 50       		.byte	0x50
 5437 136d 01       		.byte	0x1
 5438 136e 30       		.byte	0x30
 5439 136f 00       		.byte	0
 5440 1370 21       		.uleb128 0x21
 5441 1371 56000000 		.4byte	.LVL154
 5442 1375 510C0000 		.4byte	0xc51
 5443 1379 97130000 		.4byte	0x1397
 5444 137d 22       		.uleb128 0x22
 5445 137e 01       		.byte	0x1
 5446 137f 52       		.byte	0x52
 5447 1380 02       		.byte	0x2
 5448 1381 76       		.byte	0x76
 5449 1382 00       		.sleb128 0
 5450 1383 22       		.uleb128 0x22
 5451 1384 01       		.byte	0x1
 5452 1385 51       		.byte	0x51
 5453 1386 02       		.byte	0x2
 5454 1387 74       		.byte	0x74
 5455 1388 00       		.sleb128 0
 5456 1389 22       		.uleb128 0x22
 5457 138a 01       		.byte	0x1
 5458 138b 50       		.byte	0x50
 5459 138c 02       		.byte	0x2
 5460 138d 75       		.byte	0x75
ARM GAS  /tmp/ccuCtRWT.s 			page 97


 5461 138e 00       		.sleb128 0
 5462 138f 22       		.uleb128 0x22
 5463 1390 02       		.byte	0x2
 5464 1391 7D       		.byte	0x7d
 5465 1392 00       		.sleb128 0
 5466 1393 02       		.byte	0x2
 5467 1394 79       		.byte	0x79
 5468 1395 00       		.sleb128 0
 5469 1396 00       		.byte	0
 5470 1397 23       		.uleb128 0x23
 5471 1398 B0000000 		.4byte	.LVL161
 5472 139c 001D0000 		.4byte	0x1d00
 5473 13a0 23       		.uleb128 0x23
 5474 13a1 D4000000 		.4byte	.LVL165
 5475 13a5 421C0000 		.4byte	0x1c42
 5476 13a9 23       		.uleb128 0x23
 5477 13aa FC000000 		.4byte	.LVL167
 5478 13ae 421C0000 		.4byte	0x1c42
 5479 13b2 23       		.uleb128 0x23
 5480 13b3 02010000 		.4byte	.LVL169
 5481 13b7 421C0000 		.4byte	0x1c42
 5482 13bb 23       		.uleb128 0x23
 5483 13bc 10010000 		.4byte	.LVL172
 5484 13c0 421C0000 		.4byte	0x1c42
 5485 13c4 23       		.uleb128 0x23
 5486 13c5 1C010000 		.4byte	.LVL174
 5487 13c9 421C0000 		.4byte	0x1c42
 5488 13cd 00       		.byte	0
 5489 13ce 38       		.uleb128 0x38
 5490 13cf 01       		.byte	0x1
 5491 13d0 9E050000 		.4byte	.LASF197
 5492 13d4 01       		.byte	0x1
 5493 13d5 7B       		.byte	0x7b
 5494 13d6 01       		.byte	0x1
 5495 13d7 0E010000 		.4byte	0x10e
 5496 13db 00000000 		.4byte	.LFB8
 5497 13df 3E000000 		.4byte	.LFE8
 5498 13e3 D90F0000 		.4byte	.LLST52
 5499 13e7 01       		.byte	0x1
 5500 13e8 43140000 		.4byte	0x1443
 5501 13ec 24       		.uleb128 0x24
 5502 13ed 70636200 		.ascii	"pcb\000"
 5503 13f1 01       		.byte	0x1
 5504 13f2 7B       		.byte	0x7b
 5505 13f3 B5030000 		.4byte	0x3b5
 5506 13f7 F90F0000 		.4byte	.LLST53
 5507 13fb 35       		.uleb128 0x35
 5508 13fc E8000000 		.4byte	.Ldebug_ranges0+0xe8
 5509 1400 2C140000 		.4byte	0x142c
 5510 1404 20       		.uleb128 0x20
 5511 1405 F6030000 		.4byte	.LASF184
 5512 1409 01       		.byte	0x1
 5513 140a 7F       		.byte	0x7f
 5514 140b 1E080000 		.4byte	0x81e
 5515 140f 25100000 		.4byte	.LLST54
 5516 1413 23       		.uleb128 0x23
 5517 1414 1A000000 		.4byte	.LVL181
ARM GAS  /tmp/ccuCtRWT.s 			page 98


 5518 1418 461D0000 		.4byte	0x1d46
 5519 141c 25       		.uleb128 0x25
 5520 141d 36000000 		.4byte	.LVL186
 5521 1421 821C0000 		.4byte	0x1c82
 5522 1425 22       		.uleb128 0x22
 5523 1426 01       		.byte	0x1
 5524 1427 50       		.byte	0x50
 5525 1428 01       		.byte	0x1
 5526 1429 31       		.byte	0x31
 5527 142a 00       		.byte	0
 5528 142b 00       		.byte	0
 5529 142c 39       		.uleb128 0x39
 5530 142d 2C000000 		.4byte	.LVL183
 5531 1431 01       		.byte	0x1
 5532 1432 BA120000 		.4byte	0x12ba
 5533 1436 22       		.uleb128 0x22
 5534 1437 01       		.byte	0x1
 5535 1438 51       		.byte	0x51
 5536 1439 01       		.byte	0x1
 5537 143a 31       		.byte	0x31
 5538 143b 22       		.uleb128 0x22
 5539 143c 01       		.byte	0x1
 5540 143d 50       		.byte	0x50
 5541 143e 02       		.byte	0x2
 5542 143f 75       		.byte	0x75
 5543 1440 00       		.sleb128 0
 5544 1441 00       		.byte	0
 5545 1442 00       		.byte	0
 5546 1443 2C       		.uleb128 0x2c
 5547 1444 01       		.byte	0x1
 5548 1445 7C060000 		.4byte	.LASF198
 5549 1449 01       		.byte	0x1
 5550 144a 4403     		.2byte	0x344
 5551 144c 01       		.byte	0x1
 5552 144d 0E010000 		.4byte	0x10e
 5553 1451 00000000 		.4byte	.LFB14
 5554 1455 66000000 		.4byte	.LFE14
 5555 1459 43100000 		.4byte	.LLST55
 5556 145d 01       		.byte	0x1
 5557 145e 1B150000 		.4byte	0x151b
 5558 1462 2D       		.uleb128 0x2d
 5559 1463 70636200 		.ascii	"pcb\000"
 5560 1467 01       		.byte	0x1
 5561 1468 4403     		.2byte	0x344
 5562 146a B5030000 		.4byte	0x3b5
 5563 146e 6F100000 		.4byte	.LLST56
 5564 1472 30       		.uleb128 0x30
 5565 1473 7000     		.ascii	"p\000"
 5566 1475 01       		.byte	0x1
 5567 1476 4603     		.2byte	0x346
 5568 1478 EB010000 		.4byte	0x1eb
 5569 147c 8D100000 		.4byte	.LLST57
 5570 1480 2F       		.uleb128 0x2f
 5571 1481 A9070000 		.4byte	.LASF120
 5572 1485 01       		.byte	0x1
 5573 1486 4703     		.2byte	0x347
 5574 1488 A1080000 		.4byte	0x8a1
ARM GAS  /tmp/ccuCtRWT.s 			page 99


 5575 148c C1100000 		.4byte	.LLST58
 5576 1490 31       		.uleb128 0x31
 5577 1491 58010000 		.4byte	.LASF168
 5578 1495 01       		.byte	0x1
 5579 1496 4803     		.2byte	0x348
 5580 1498 C1000000 		.4byte	0xc1
 5581 149c 00       		.byte	0
 5582 149d 23       		.uleb128 0x23
 5583 149e 0C000000 		.4byte	.LVL189
 5584 14a2 9A1C0000 		.4byte	0x1c9a
 5585 14a6 21       		.uleb128 0x21
 5586 14a7 16000000 		.4byte	.LVL190
 5587 14ab 570D0000 		.4byte	0xd57
 5588 14af BF140000 		.4byte	0x14bf
 5589 14b3 22       		.uleb128 0x22
 5590 14b4 01       		.byte	0x1
 5591 14b5 51       		.byte	0x51
 5592 14b6 01       		.byte	0x1
 5593 14b7 30       		.byte	0x30
 5594 14b8 22       		.uleb128 0x22
 5595 14b9 01       		.byte	0x1
 5596 14ba 50       		.byte	0x50
 5597 14bb 02       		.byte	0x2
 5598 14bc 74       		.byte	0x74
 5599 14bd 00       		.sleb128 0
 5600 14be 00       		.byte	0
 5601 14bf 21       		.uleb128 0x21
 5602 14c0 3E000000 		.4byte	.LVL192
 5603 14c4 5E1D0000 		.4byte	0x1d5e
 5604 14c8 E4140000 		.4byte	0x14e4
 5605 14cc 22       		.uleb128 0x22
 5606 14cd 01       		.byte	0x1
 5607 14ce 53       		.byte	0x53
 5608 14cf 01       		.byte	0x1
 5609 14d0 36       		.byte	0x36
 5610 14d1 22       		.uleb128 0x22
 5611 14d2 01       		.byte	0x1
 5612 14d3 52       		.byte	0x52
 5613 14d4 02       		.byte	0x2
 5614 14d5 76       		.byte	0x76
 5615 14d6 00       		.sleb128 0
 5616 14d7 22       		.uleb128 0x22
 5617 14d8 01       		.byte	0x1
 5618 14d9 51       		.byte	0x51
 5619 14da 02       		.byte	0x2
 5620 14db 74       		.byte	0x74
 5621 14dc 00       		.sleb128 0
 5622 14dd 22       		.uleb128 0x22
 5623 14de 01       		.byte	0x1
 5624 14df 50       		.byte	0x50
 5625 14e0 02       		.byte	0x2
 5626 14e1 75       		.byte	0x75
 5627 14e2 00       		.sleb128 0
 5628 14e3 00       		.byte	0
 5629 14e4 21       		.uleb128 0x21
 5630 14e5 54000000 		.4byte	.LVL193
 5631 14e9 8A1D0000 		.4byte	0x1d8a
ARM GAS  /tmp/ccuCtRWT.s 			page 100


 5632 14ed 0A150000 		.4byte	0x150a
 5633 14f1 22       		.uleb128 0x22
 5634 14f2 01       		.byte	0x1
 5635 14f3 52       		.byte	0x52
 5636 14f4 02       		.byte	0x2
 5637 14f5 76       		.byte	0x76
 5638 14f6 00       		.sleb128 0
 5639 14f7 22       		.uleb128 0x22
 5640 14f8 01       		.byte	0x1
 5641 14f9 51       		.byte	0x51
 5642 14fa 02       		.byte	0x2
 5643 14fb 74       		.byte	0x74
 5644 14fc 00       		.sleb128 0
 5645 14fd 22       		.uleb128 0x22
 5646 14fe 01       		.byte	0x1
 5647 14ff 50       		.byte	0x50
 5648 1500 02       		.byte	0x2
 5649 1501 75       		.byte	0x75
 5650 1502 00       		.sleb128 0
 5651 1503 22       		.uleb128 0x22
 5652 1504 02       		.byte	0x2
 5653 1505 7D       		.byte	0x7d
 5654 1506 04       		.sleb128 4
 5655 1507 01       		.byte	0x1
 5656 1508 36       		.byte	0x36
 5657 1509 00       		.byte	0
 5658 150a 25       		.uleb128 0x25
 5659 150b 5A000000 		.4byte	.LVL194
 5660 150f C71C0000 		.4byte	0x1cc7
 5661 1513 22       		.uleb128 0x22
 5662 1514 01       		.byte	0x1
 5663 1515 50       		.byte	0x50
 5664 1516 02       		.byte	0x2
 5665 1517 75       		.byte	0x75
 5666 1518 00       		.sleb128 0
 5667 1519 00       		.byte	0
 5668 151a 00       		.byte	0
 5669 151b 3A       		.uleb128 0x3a
 5670 151c 3B030000 		.4byte	.LASF234
 5671 1520 01       		.byte	0x1
 5672 1521 1604     		.2byte	0x416
 5673 1523 01       		.byte	0x1
 5674 1524 01       		.byte	0x1
 5675 1525 66150000 		.4byte	0x1566
 5676 1529 2B       		.uleb128 0x2b
 5677 152a 73656700 		.ascii	"seg\000"
 5678 152e 01       		.byte	0x1
 5679 152f 1604     		.2byte	0x416
 5680 1531 1E080000 		.4byte	0x81e
 5681 1535 2B       		.uleb128 0x2b
 5682 1536 70636200 		.ascii	"pcb\000"
 5683 153a 01       		.byte	0x1
 5684 153b 1604     		.2byte	0x416
 5685 153d B5030000 		.4byte	0x3b5
 5686 1541 3B       		.uleb128 0x3b
 5687 1542 6C656E00 		.ascii	"len\000"
 5688 1546 01       		.byte	0x1
ARM GAS  /tmp/ccuCtRWT.s 			page 101


 5689 1547 1804     		.2byte	0x418
 5690 1549 D7000000 		.4byte	0xd7
 5691 154d 3C       		.uleb128 0x3c
 5692 154e 8F080000 		.4byte	.LASF45
 5693 1552 01       		.byte	0x1
 5694 1553 1904     		.2byte	0x419
 5695 1555 17020000 		.4byte	0x217
 5696 1559 3C       		.uleb128 0x3c
 5697 155a 8F060000 		.4byte	.LASF199
 5698 155e 01       		.byte	0x1
 5699 155f 1A04     		.2byte	0x41a
 5700 1561 66150000 		.4byte	0x1566
 5701 1565 00       		.byte	0
 5702 1566 0B       		.uleb128 0xb
 5703 1567 04       		.byte	0x4
 5704 1568 ED000000 		.4byte	0xed
 5705 156c 2C       		.uleb128 0x2c
 5706 156d 01       		.byte	0x1
 5707 156e 9E030000 		.4byte	.LASF200
 5708 1572 01       		.byte	0x1
 5709 1573 7C03     		.2byte	0x37c
 5710 1575 01       		.byte	0x1
 5711 1576 0E010000 		.4byte	0x10e
 5712 157a 00000000 		.4byte	.LFB15
 5713 157e 04030000 		.4byte	.LFE15
 5714 1582 D4100000 		.4byte	.LLST59
 5715 1586 01       		.byte	0x1
 5716 1587 61170000 		.4byte	0x1761
 5717 158b 2D       		.uleb128 0x2d
 5718 158c 70636200 		.ascii	"pcb\000"
 5719 1590 01       		.byte	0x1
 5720 1591 7C03     		.2byte	0x37c
 5721 1593 B5030000 		.4byte	0x3b5
 5722 1597 00110000 		.4byte	.LLST60
 5723 159b 30       		.uleb128 0x30
 5724 159c 73656700 		.ascii	"seg\000"
 5725 15a0 01       		.byte	0x1
 5726 15a1 7E03     		.2byte	0x37e
 5727 15a3 1E080000 		.4byte	0x81e
 5728 15a7 34110000 		.4byte	.LLST61
 5729 15ab 2F       		.uleb128 0x2f
 5730 15ac F8020000 		.4byte	.LASF196
 5731 15b0 01       		.byte	0x1
 5732 15b1 7E03     		.2byte	0x37e
 5733 15b3 1E080000 		.4byte	0x81e
 5734 15b7 52110000 		.4byte	.LLST62
 5735 15bb 30       		.uleb128 0x30
 5736 15bc 776E6400 		.ascii	"wnd\000"
 5737 15c0 01       		.byte	0x1
 5738 15c1 7F03     		.2byte	0x37f
 5739 15c3 ED000000 		.4byte	0xed
 5740 15c7 B4110000 		.4byte	.LLST63
 5741 15cb 2F       		.uleb128 0x2f
 5742 15cc EB060000 		.4byte	.LASF81
 5743 15d0 01       		.byte	0x1
 5744 15d1 7F03     		.2byte	0x37f
 5745 15d3 ED000000 		.4byte	0xed
ARM GAS  /tmp/ccuCtRWT.s 			page 102


 5746 15d7 D2110000 		.4byte	.LLST64
 5747 15db 34       		.uleb128 0x34
 5748 15dc 1B150000 		.4byte	0x151b
 5749 15e0 4E000000 		.4byte	.LBB42
 5750 15e4 00010000 		.4byte	.Ldebug_ranges0+0x100
 5751 15e8 01       		.byte	0x1
 5752 15e9 D703     		.2byte	0x3d7
 5753 15eb 9A160000 		.4byte	0x169a
 5754 15ef 27       		.uleb128 0x27
 5755 15f0 35150000 		.4byte	0x1535
 5756 15f4 F8110000 		.4byte	.LLST65
 5757 15f8 27       		.uleb128 0x27
 5758 15f9 29150000 		.4byte	0x1529
 5759 15fd 21120000 		.4byte	.LLST66
 5760 1601 3D       		.uleb128 0x3d
 5761 1602 20010000 		.4byte	.Ldebug_ranges0+0x120
 5762 1606 28       		.uleb128 0x28
 5763 1607 41150000 		.4byte	0x1541
 5764 160b 57120000 		.4byte	.LLST67
 5765 160f 28       		.uleb128 0x28
 5766 1610 4D150000 		.4byte	0x154d
 5767 1614 7B120000 		.4byte	.LLST68
 5768 1618 28       		.uleb128 0x28
 5769 1619 59150000 		.4byte	0x1559
 5770 161d 8E120000 		.4byte	.LLST69
 5771 1621 23       		.uleb128 0x23
 5772 1622 AE000000 		.4byte	.LVL205
 5773 1626 9A1C0000 		.4byte	0x1c9a
 5774 162a 23       		.uleb128 0x23
 5775 162b B8000000 		.4byte	.LVL206
 5776 162f 821C0000 		.4byte	0x1c82
 5777 1633 21       		.uleb128 0x21
 5778 1634 F2000000 		.4byte	.LVL209
 5779 1638 BB1D0000 		.4byte	0x1dbb
 5780 163c 47160000 		.4byte	0x1647
 5781 1640 22       		.uleb128 0x22
 5782 1641 01       		.byte	0x1
 5783 1642 50       		.byte	0x50
 5784 1643 02       		.byte	0x2
 5785 1644 76       		.byte	0x76
 5786 1645 00       		.sleb128 0
 5787 1646 00       		.byte	0
 5788 1647 21       		.uleb128 0x21
 5789 1648 40010000 		.4byte	.LVL214
 5790 164c 5E1D0000 		.4byte	0x1d5e
 5791 1650 66160000 		.4byte	0x1666
 5792 1654 22       		.uleb128 0x22
 5793 1655 01       		.byte	0x1
 5794 1656 53       		.byte	0x53
 5795 1657 01       		.byte	0x1
 5796 1658 36       		.byte	0x36
 5797 1659 22       		.uleb128 0x22
 5798 165a 01       		.byte	0x1
 5799 165b 52       		.byte	0x52
 5800 165c 02       		.byte	0x2
 5801 165d 76       		.byte	0x76
 5802 165e 00       		.sleb128 0
ARM GAS  /tmp/ccuCtRWT.s 			page 103


 5803 165f 22       		.uleb128 0x22
 5804 1660 01       		.byte	0x1
 5805 1661 51       		.byte	0x51
 5806 1662 02       		.byte	0x2
 5807 1663 74       		.byte	0x74
 5808 1664 00       		.sleb128 0
 5809 1665 00       		.byte	0
 5810 1666 21       		.uleb128 0x21
 5811 1667 62010000 		.4byte	.LVL215
 5812 166b 8A1D0000 		.4byte	0x1d8a
 5813 166f 86160000 		.4byte	0x1686
 5814 1673 22       		.uleb128 0x22
 5815 1674 01       		.byte	0x1
 5816 1675 52       		.byte	0x52
 5817 1676 02       		.byte	0x2
 5818 1677 76       		.byte	0x76
 5819 1678 00       		.sleb128 0
 5820 1679 22       		.uleb128 0x22
 5821 167a 01       		.byte	0x1
 5822 167b 51       		.byte	0x51
 5823 167c 02       		.byte	0x2
 5824 167d 74       		.byte	0x74
 5825 167e 00       		.sleb128 0
 5826 167f 22       		.uleb128 0x22
 5827 1680 02       		.byte	0x2
 5828 1681 7D       		.byte	0x7d
 5829 1682 04       		.sleb128 4
 5830 1683 01       		.byte	0x1
 5831 1684 36       		.byte	0x36
 5832 1685 00       		.byte	0
 5833 1686 23       		.uleb128 0x23
 5834 1687 08020000 		.4byte	.LVL232
 5835 168b 421C0000 		.4byte	0x1c42
 5836 168f 23       		.uleb128 0x23
 5837 1690 22020000 		.4byte	.LVL233
 5838 1694 D31D0000 		.4byte	0x1dd3
 5839 1698 00       		.byte	0
 5840 1699 00       		.byte	0
 5841 169a 37       		.uleb128 0x37
 5842 169b 58020000 		.4byte	.LBB49
 5843 169f 8A020000 		.4byte	.LBE49
 5844 16a3 CA160000 		.4byte	0x16ca
 5845 16a7 2F       		.uleb128 0x2f
 5846 16a8 E6080000 		.4byte	.LASF201
 5847 16ac 01       		.byte	0x1
 5848 16ad EA03     		.2byte	0x3ea
 5849 16af 61170000 		.4byte	0x1761
 5850 16b3 B0120000 		.4byte	.LLST70
 5851 16b7 23       		.uleb128 0x23
 5852 16b8 70020000 		.4byte	.LVL241
 5853 16bc D31D0000 		.4byte	0x1dd3
 5854 16c0 23       		.uleb128 0x23
 5855 16c1 7A020000 		.4byte	.LVL242
 5856 16c5 D31D0000 		.4byte	0x1dd3
 5857 16c9 00       		.byte	0
 5858 16ca 21       		.uleb128 0x21
 5859 16cb 94000000 		.4byte	.LVL203
ARM GAS  /tmp/ccuCtRWT.s 			page 104


 5860 16cf 821C0000 		.4byte	0x1c82
 5861 16d3 DD160000 		.4byte	0x16dd
 5862 16d7 22       		.uleb128 0x22
 5863 16d8 01       		.byte	0x1
 5864 16d9 50       		.byte	0x50
 5865 16da 01       		.byte	0x1
 5866 16db 40       		.byte	0x40
 5867 16dc 00       		.byte	0
 5868 16dd 23       		.uleb128 0x23
 5869 16de 6A010000 		.4byte	.LVL216
 5870 16e2 D31D0000 		.4byte	0x1dd3
 5871 16e6 23       		.uleb128 0x23
 5872 16e7 78010000 		.4byte	.LVL217
 5873 16eb 461D0000 		.4byte	0x1d46
 5874 16ef 23       		.uleb128 0x23
 5875 16f0 9A010000 		.4byte	.LVL221
 5876 16f4 461D0000 		.4byte	0x1d46
 5877 16f8 23       		.uleb128 0x23
 5878 16f9 B8010000 		.4byte	.LVL222
 5879 16fd D31D0000 		.4byte	0x1dd3
 5880 1701 23       		.uleb128 0x23
 5881 1702 C4010000 		.4byte	.LVL223
 5882 1706 D31D0000 		.4byte	0x1dd3
 5883 170a 23       		.uleb128 0x23
 5884 170b DE010000 		.4byte	.LVL228
 5885 170f D31D0000 		.4byte	0x1dd3
 5886 1713 23       		.uleb128 0x23
 5887 1714 F2010000 		.4byte	.LVL229
 5888 1718 461D0000 		.4byte	0x1d46
 5889 171c 23       		.uleb128 0x23
 5890 171d 02020000 		.4byte	.LVL230
 5891 1721 421C0000 		.4byte	0x1c42
 5892 1725 21       		.uleb128 0x21
 5893 1726 90020000 		.4byte	.LVL244
 5894 172a B21C0000 		.4byte	0x1cb2
 5895 172e 39170000 		.4byte	0x1739
 5896 1732 22       		.uleb128 0x22
 5897 1733 01       		.byte	0x1
 5898 1734 50       		.byte	0x50
 5899 1735 02       		.byte	0x2
 5900 1736 75       		.byte	0x75
 5901 1737 00       		.sleb128 0
 5902 1738 00       		.byte	0
 5903 1739 23       		.uleb128 0x23
 5904 173a BE020000 		.4byte	.LVL248
 5905 173e D31D0000 		.4byte	0x1dd3
 5906 1742 3E       		.uleb128 0x3e
 5907 1743 D8020000 		.4byte	.LVL249
 5908 1747 01       		.byte	0x1
 5909 1748 43140000 		.4byte	0x1443
 5910 174c 57170000 		.4byte	0x1757
 5911 1750 22       		.uleb128 0x22
 5912 1751 01       		.byte	0x1
 5913 1752 50       		.byte	0x50
 5914 1753 02       		.byte	0x2
 5915 1754 74       		.byte	0x74
 5916 1755 00       		.sleb128 0
ARM GAS  /tmp/ccuCtRWT.s 			page 105


 5917 1756 00       		.byte	0
 5918 1757 23       		.uleb128 0x23
 5919 1758 E8020000 		.4byte	.LVL250
 5920 175c D31D0000 		.4byte	0x1dd3
 5921 1760 00       		.byte	0
 5922 1761 0B       		.uleb128 0xb
 5923 1762 04       		.byte	0x4
 5924 1763 1E080000 		.4byte	0x81e
 5925 1767 3F       		.uleb128 0x3f
 5926 1768 01       		.byte	0x1
 5927 1769 DD050000 		.4byte	.LASF202
 5928 176d 01       		.byte	0x1
 5929 176e A304     		.2byte	0x4a3
 5930 1770 01       		.byte	0x1
 5931 1771 00000000 		.4byte	.LFB17
 5932 1775 B8000000 		.4byte	.LFE17
 5933 1779 C3120000 		.4byte	.LLST71
 5934 177d 01       		.byte	0x1
 5935 177e EC180000 		.4byte	0x18ec
 5936 1782 2E       		.uleb128 0x2e
 5937 1783 E8010000 		.4byte	.LASF123
 5938 1787 01       		.byte	0x1
 5939 1788 A304     		.2byte	0x4a3
 5940 178a ED000000 		.4byte	0xed
 5941 178e EF120000 		.4byte	.LLST72
 5942 1792 2E       		.uleb128 0x2e
 5943 1793 AA040000 		.4byte	.LASF124
 5944 1797 01       		.byte	0x1
 5945 1798 A304     		.2byte	0x4a3
 5946 179a ED000000 		.4byte	0xed
 5947 179e 0D130000 		.4byte	.LLST73
 5948 17a2 2E       		.uleb128 0x2e
 5949 17a3 C5060000 		.4byte	.LASF59
 5950 17a7 01       		.byte	0x1
 5951 17a8 A404     		.2byte	0x4a4
 5952 17aa 3E030000 		.4byte	0x33e
 5953 17ae 44130000 		.4byte	.LLST74
 5954 17b2 2E       		.uleb128 0x2e
 5955 17b3 0F090000 		.4byte	.LASF60
 5956 17b7 01       		.byte	0x1
 5957 17b8 A404     		.2byte	0x4a4
 5958 17ba 3E030000 		.4byte	0x33e
 5959 17be 62130000 		.4byte	.LLST75
 5960 17c2 40       		.uleb128 0x40
 5961 17c3 38020000 		.4byte	.LASF65
 5962 17c7 01       		.byte	0x1
 5963 17c8 A504     		.2byte	0x4a5
 5964 17ca D7000000 		.4byte	0xd7
 5965 17ce 02       		.byte	0x2
 5966 17cf 91       		.byte	0x91
 5967 17d0 00       		.sleb128 0
 5968 17d1 40       		.uleb128 0x40
 5969 17d2 EE040000 		.4byte	.LASF66
 5970 17d6 01       		.byte	0x1
 5971 17d7 A504     		.2byte	0x4a5
 5972 17d9 D7000000 		.4byte	0xd7
 5973 17dd 02       		.byte	0x2
ARM GAS  /tmp/ccuCtRWT.s 			page 106


 5974 17de 91       		.byte	0x91
 5975 17df 04       		.sleb128 4
 5976 17e0 30       		.uleb128 0x30
 5977 17e1 7000     		.ascii	"p\000"
 5978 17e3 01       		.byte	0x1
 5979 17e4 A704     		.2byte	0x4a7
 5980 17e6 EB010000 		.4byte	0x1eb
 5981 17ea 80130000 		.4byte	.LLST76
 5982 17ee 2F       		.uleb128 0x2f
 5983 17ef A9070000 		.4byte	.LASF120
 5984 17f3 01       		.byte	0x1
 5985 17f4 A804     		.2byte	0x4a8
 5986 17f6 A1080000 		.4byte	0x8a1
 5987 17fa BF130000 		.4byte	.LLST77
 5988 17fe 21       		.uleb128 0x21
 5989 17ff 20000000 		.4byte	.LVL255
 5990 1803 201C0000 		.4byte	0x1c20
 5991 1807 1B180000 		.4byte	0x181b
 5992 180b 22       		.uleb128 0x22
 5993 180c 01       		.byte	0x1
 5994 180d 52       		.byte	0x52
 5995 180e 01       		.byte	0x1
 5996 180f 30       		.byte	0x30
 5997 1810 22       		.uleb128 0x22
 5998 1811 01       		.byte	0x1
 5999 1812 51       		.byte	0x51
 6000 1813 01       		.byte	0x1
 6001 1814 44       		.byte	0x44
 6002 1815 22       		.uleb128 0x22
 6003 1816 01       		.byte	0x1
 6004 1817 50       		.byte	0x50
 6005 1818 01       		.byte	0x1
 6006 1819 31       		.byte	0x31
 6007 181a 00       		.byte	0
 6008 181b 21       		.uleb128 0x21
 6009 181c 34000000 		.4byte	.LVL258
 6010 1820 821C0000 		.4byte	0x1c82
 6011 1824 31180000 		.4byte	0x1831
 6012 1828 22       		.uleb128 0x22
 6013 1829 01       		.byte	0x1
 6014 182a 50       		.byte	0x50
 6015 182b 04       		.byte	0x4
 6016 182c 91       		.byte	0x91
 6017 182d 00       		.sleb128 0
 6018 182e 94       		.byte	0x94
 6019 182f 02       		.byte	0x2
 6020 1830 00       		.byte	0
 6021 1831 21       		.uleb128 0x21
 6022 1832 3C000000 		.4byte	.LVL259
 6023 1836 821C0000 		.4byte	0x1c82
 6024 183a 45180000 		.4byte	0x1845
 6025 183e 22       		.uleb128 0x22
 6026 183f 01       		.byte	0x1
 6027 1840 50       		.byte	0x50
 6028 1841 02       		.byte	0x2
 6029 1842 7A       		.byte	0x7a
 6030 1843 00       		.sleb128 0
ARM GAS  /tmp/ccuCtRWT.s 			page 107


 6031 1844 00       		.byte	0
 6032 1845 21       		.uleb128 0x21
 6033 1846 44000000 		.4byte	.LVL260
 6034 184a 9A1C0000 		.4byte	0x1c9a
 6035 184e 59180000 		.4byte	0x1859
 6036 1852 22       		.uleb128 0x22
 6037 1853 01       		.byte	0x1
 6038 1854 50       		.byte	0x50
 6039 1855 02       		.byte	0x2
 6040 1856 79       		.byte	0x79
 6041 1857 00       		.sleb128 0
 6042 1858 00       		.byte	0
 6043 1859 21       		.uleb128 0x21
 6044 185a 4C000000 		.4byte	.LVL261
 6045 185e 9A1C0000 		.4byte	0x1c9a
 6046 1862 6D180000 		.4byte	0x186d
 6047 1866 22       		.uleb128 0x22
 6048 1867 01       		.byte	0x1
 6049 1868 50       		.byte	0x50
 6050 1869 02       		.byte	0x2
 6051 186a 76       		.byte	0x76
 6052 186b 00       		.sleb128 0
 6053 186c 00       		.byte	0
 6054 186d 21       		.uleb128 0x21
 6055 186e 56000000 		.4byte	.LVL262
 6056 1872 821C0000 		.4byte	0x1c82
 6057 1876 82180000 		.4byte	0x1882
 6058 187a 22       		.uleb128 0x22
 6059 187b 01       		.byte	0x1
 6060 187c 50       		.byte	0x50
 6061 187d 03       		.byte	0x3
 6062 187e 0A       		.byte	0xa
 6063 187f 1450     		.2byte	0x5014
 6064 1881 00       		.byte	0
 6065 1882 21       		.uleb128 0x21
 6066 1883 7A000000 		.4byte	.LVL264
 6067 1887 5E1D0000 		.4byte	0x1d5e
 6068 188b A7180000 		.4byte	0x18a7
 6069 188f 22       		.uleb128 0x22
 6070 1890 01       		.byte	0x1
 6071 1891 53       		.byte	0x53
 6072 1892 01       		.byte	0x1
 6073 1893 36       		.byte	0x36
 6074 1894 22       		.uleb128 0x22
 6075 1895 01       		.byte	0x1
 6076 1896 52       		.byte	0x52
 6077 1897 02       		.byte	0x2
 6078 1898 77       		.byte	0x77
 6079 1899 00       		.sleb128 0
 6080 189a 22       		.uleb128 0x22
 6081 189b 01       		.byte	0x1
 6082 189c 51       		.byte	0x51
 6083 189d 02       		.byte	0x2
 6084 189e 78       		.byte	0x78
 6085 189f 00       		.sleb128 0
 6086 18a0 22       		.uleb128 0x22
 6087 18a1 01       		.byte	0x1
ARM GAS  /tmp/ccuCtRWT.s 			page 108


 6088 18a2 50       		.byte	0x50
 6089 18a3 02       		.byte	0x2
 6090 18a4 75       		.byte	0x75
 6091 18a5 00       		.sleb128 0
 6092 18a6 00       		.byte	0
 6093 18a7 21       		.uleb128 0x21
 6094 18a8 9C000000 		.4byte	.LVL266
 6095 18ac 8A1D0000 		.4byte	0x1d8a
 6096 18b0 CD180000 		.4byte	0x18cd
 6097 18b4 22       		.uleb128 0x22
 6098 18b5 01       		.byte	0x1
 6099 18b6 53       		.byte	0x53
 6100 18b7 02       		.byte	0x2
 6101 18b8 09       		.byte	0x9
 6102 18b9 FF       		.byte	0xff
 6103 18ba 22       		.uleb128 0x22
 6104 18bb 01       		.byte	0x1
 6105 18bc 52       		.byte	0x52
 6106 18bd 02       		.byte	0x2
 6107 18be 77       		.byte	0x77
 6108 18bf 00       		.sleb128 0
 6109 18c0 22       		.uleb128 0x22
 6110 18c1 01       		.byte	0x1
 6111 18c2 51       		.byte	0x51
 6112 18c3 02       		.byte	0x2
 6113 18c4 78       		.byte	0x78
 6114 18c5 00       		.sleb128 0
 6115 18c6 22       		.uleb128 0x22
 6116 18c7 01       		.byte	0x1
 6117 18c8 50       		.byte	0x50
 6118 18c9 02       		.byte	0x2
 6119 18ca 75       		.byte	0x75
 6120 18cb 00       		.sleb128 0
 6121 18cc 00       		.byte	0
 6122 18cd 3E       		.uleb128 0x3e
 6123 18ce A8000000 		.4byte	.LVL267
 6124 18d2 01       		.byte	0x1
 6125 18d3 C71C0000 		.4byte	0x1cc7
 6126 18d7 E2180000 		.4byte	0x18e2
 6127 18db 22       		.uleb128 0x22
 6128 18dc 01       		.byte	0x1
 6129 18dd 50       		.byte	0x50
 6130 18de 02       		.byte	0x2
 6131 18df 75       		.byte	0x75
 6132 18e0 00       		.sleb128 0
 6133 18e1 00       		.byte	0
 6134 18e2 23       		.uleb128 0x23
 6135 18e3 AC000000 		.4byte	.LVL268
 6136 18e7 421C0000 		.4byte	0x1c42
 6137 18eb 00       		.byte	0
 6138 18ec 3F       		.uleb128 0x3f
 6139 18ed 01       		.byte	0x1
 6140 18ee A0020000 		.4byte	.LASF203
 6141 18f2 01       		.byte	0x1
 6142 18f3 CF04     		.2byte	0x4cf
 6143 18f5 01       		.byte	0x1
 6144 18f6 00000000 		.4byte	.LFB18
ARM GAS  /tmp/ccuCtRWT.s 			page 109


 6145 18fa 30000000 		.4byte	.LFE18
 6146 18fe D2130000 		.4byte	.LLST78
 6147 1902 01       		.byte	0x1
 6148 1903 3A190000 		.4byte	0x193a
 6149 1907 2D       		.uleb128 0x2d
 6150 1908 70636200 		.ascii	"pcb\000"
 6151 190c 01       		.byte	0x1
 6152 190d CF04     		.2byte	0x4cf
 6153 190f B5030000 		.4byte	0x3b5
 6154 1913 F2130000 		.4byte	.LLST79
 6155 1917 30       		.uleb128 0x30
 6156 1918 73656700 		.ascii	"seg\000"
 6157 191c 01       		.byte	0x1
 6158 191d D104     		.2byte	0x4d1
 6159 191f 1E080000 		.4byte	0x81e
 6160 1923 1E140000 		.4byte	.LLST80
 6161 1927 39       		.uleb128 0x39
 6162 1928 2C000000 		.4byte	.LVL274
 6163 192c 01       		.byte	0x1
 6164 192d 6C150000 		.4byte	0x156c
 6165 1931 22       		.uleb128 0x22
 6166 1932 01       		.byte	0x1
 6167 1933 50       		.byte	0x50
 6168 1934 03       		.byte	0x3
 6169 1935 F3       		.byte	0xf3
 6170 1936 01       		.uleb128 0x1
 6171 1937 50       		.byte	0x50
 6172 1938 00       		.byte	0
 6173 1939 00       		.byte	0
 6174 193a 3F       		.uleb128 0x3f
 6175 193b 01       		.byte	0x1
 6176 193c FA000000 		.4byte	.LASF204
 6177 1940 01       		.byte	0x1
 6178 1941 F204     		.2byte	0x4f2
 6179 1943 01       		.byte	0x1
 6180 1944 00000000 		.4byte	.LFB19
 6181 1948 4A000000 		.4byte	.LFE19
 6182 194c 31140000 		.4byte	.LLST81
 6183 1950 01       		.byte	0x1
 6184 1951 98190000 		.4byte	0x1998
 6185 1955 2D       		.uleb128 0x2d
 6186 1956 70636200 		.ascii	"pcb\000"
 6187 195a 01       		.byte	0x1
 6188 195b F204     		.2byte	0x4f2
 6189 195d B5030000 		.4byte	0x3b5
 6190 1961 51140000 		.4byte	.LLST82
 6191 1965 30       		.uleb128 0x30
 6192 1966 73656700 		.ascii	"seg\000"
 6193 196a 01       		.byte	0x1
 6194 196b F404     		.2byte	0x4f4
 6195 196d 1E080000 		.4byte	0x81e
 6196 1971 6F140000 		.4byte	.LLST83
 6197 1975 2F       		.uleb128 0x2f
 6198 1976 E6080000 		.4byte	.LASF201
 6199 197a 01       		.byte	0x1
 6200 197b F504     		.2byte	0x4f5
 6201 197d 61170000 		.4byte	0x1761
ARM GAS  /tmp/ccuCtRWT.s 			page 110


 6202 1981 82140000 		.4byte	.LLST84
 6203 1985 23       		.uleb128 0x23
 6204 1986 24000000 		.4byte	.LVL280
 6205 198a D31D0000 		.4byte	0x1dd3
 6206 198e 23       		.uleb128 0x23
 6207 198f 2E000000 		.4byte	.LVL281
 6208 1993 D31D0000 		.4byte	0x1dd3
 6209 1997 00       		.byte	0
 6210 1998 3F       		.uleb128 0x3f
 6211 1999 01       		.byte	0x1
 6212 199a 19090000 		.4byte	.LASF205
 6213 199e 01       		.byte	0x1
 6214 199f 1A05     		.2byte	0x51a
 6215 19a1 01       		.byte	0x1
 6216 19a2 00000000 		.4byte	.LFB20
 6217 19a6 5A000000 		.4byte	.LFE20
 6218 19aa 95140000 		.4byte	.LLST85
 6219 19ae 01       		.byte	0x1
 6220 19af CD190000 		.4byte	0x19cd
 6221 19b3 2D       		.uleb128 0x2d
 6222 19b4 70636200 		.ascii	"pcb\000"
 6223 19b8 01       		.byte	0x1
 6224 19b9 1A05     		.2byte	0x51a
 6225 19bb B5030000 		.4byte	0x3b5
 6226 19bf B5140000 		.4byte	.LLST86
 6227 19c3 23       		.uleb128 0x23
 6228 19c4 1A000000 		.4byte	.LVL284
 6229 19c8 3A190000 		.4byte	0x193a
 6230 19cc 00       		.byte	0
 6231 19cd 3F       		.uleb128 0x3f
 6232 19ce 01       		.byte	0x1
 6233 19cf 2B000000 		.4byte	.LASF206
 6234 19d3 01       		.byte	0x1
 6235 19d4 4505     		.2byte	0x545
 6236 19d6 01       		.byte	0x1
 6237 19d7 00000000 		.4byte	.LFB21
 6238 19db 68000000 		.4byte	.LFE21
 6239 19df D3140000 		.4byte	.LLST87
 6240 19e3 01       		.byte	0x1
 6241 19e4 9B1A0000 		.4byte	0x1a9b
 6242 19e8 2D       		.uleb128 0x2d
 6243 19e9 70636200 		.ascii	"pcb\000"
 6244 19ed 01       		.byte	0x1
 6245 19ee 4505     		.2byte	0x545
 6246 19f0 B5030000 		.4byte	0x3b5
 6247 19f4 FF140000 		.4byte	.LLST88
 6248 19f8 30       		.uleb128 0x30
 6249 19f9 7000     		.ascii	"p\000"
 6250 19fb 01       		.byte	0x1
 6251 19fc 4705     		.2byte	0x547
 6252 19fe EB010000 		.4byte	0x1eb
 6253 1a02 1D150000 		.4byte	.LLST89
 6254 1a06 2F       		.uleb128 0x2f
 6255 1a07 A9070000 		.4byte	.LASF120
 6256 1a0b 01       		.byte	0x1
 6257 1a0c 4805     		.2byte	0x548
 6258 1a0e A1080000 		.4byte	0x8a1
ARM GAS  /tmp/ccuCtRWT.s 			page 111


 6259 1a12 46150000 		.4byte	.LLST90
 6260 1a16 23       		.uleb128 0x23
 6261 1a17 0E000000 		.4byte	.LVL287
 6262 1a1b 9A1C0000 		.4byte	0x1c9a
 6263 1a1f 21       		.uleb128 0x21
 6264 1a20 18000000 		.4byte	.LVL288
 6265 1a24 570D0000 		.4byte	0xd57
 6266 1a28 381A0000 		.4byte	0x1a38
 6267 1a2c 22       		.uleb128 0x22
 6268 1a2d 01       		.byte	0x1
 6269 1a2e 51       		.byte	0x51
 6270 1a2f 01       		.byte	0x1
 6271 1a30 30       		.byte	0x30
 6272 1a31 22       		.uleb128 0x22
 6273 1a32 01       		.byte	0x1
 6274 1a33 50       		.byte	0x50
 6275 1a34 02       		.byte	0x2
 6276 1a35 74       		.byte	0x74
 6277 1a36 00       		.sleb128 0
 6278 1a37 00       		.byte	0
 6279 1a38 21       		.uleb128 0x21
 6280 1a39 2E000000 		.4byte	.LVL290
 6281 1a3d 5E1D0000 		.4byte	0x1d5e
 6282 1a41 5D1A0000 		.4byte	0x1a5d
 6283 1a45 22       		.uleb128 0x22
 6284 1a46 01       		.byte	0x1
 6285 1a47 53       		.byte	0x53
 6286 1a48 01       		.byte	0x1
 6287 1a49 36       		.byte	0x36
 6288 1a4a 22       		.uleb128 0x22
 6289 1a4b 01       		.byte	0x1
 6290 1a4c 52       		.byte	0x52
 6291 1a4d 02       		.byte	0x2
 6292 1a4e 76       		.byte	0x76
 6293 1a4f 00       		.sleb128 0
 6294 1a50 22       		.uleb128 0x22
 6295 1a51 01       		.byte	0x1
 6296 1a52 51       		.byte	0x51
 6297 1a53 02       		.byte	0x2
 6298 1a54 74       		.byte	0x74
 6299 1a55 00       		.sleb128 0
 6300 1a56 22       		.uleb128 0x22
 6301 1a57 01       		.byte	0x1
 6302 1a58 50       		.byte	0x50
 6303 1a59 02       		.byte	0x2
 6304 1a5a 75       		.byte	0x75
 6305 1a5b 00       		.sleb128 0
 6306 1a5c 00       		.byte	0
 6307 1a5d 21       		.uleb128 0x21
 6308 1a5e 52000000 		.4byte	.LVL291
 6309 1a62 8A1D0000 		.4byte	0x1d8a
 6310 1a66 891A0000 		.4byte	0x1a89
 6311 1a6a 22       		.uleb128 0x22
 6312 1a6b 01       		.byte	0x1
 6313 1a6c 52       		.byte	0x52
 6314 1a6d 02       		.byte	0x2
 6315 1a6e 76       		.byte	0x76
ARM GAS  /tmp/ccuCtRWT.s 			page 112


 6316 1a6f 00       		.sleb128 0
 6317 1a70 22       		.uleb128 0x22
 6318 1a71 01       		.byte	0x1
 6319 1a72 51       		.byte	0x51
 6320 1a73 02       		.byte	0x2
 6321 1a74 74       		.byte	0x74
 6322 1a75 00       		.sleb128 0
 6323 1a76 22       		.uleb128 0x22
 6324 1a77 01       		.byte	0x1
 6325 1a78 50       		.byte	0x50
 6326 1a79 02       		.byte	0x2
 6327 1a7a 75       		.byte	0x75
 6328 1a7b 00       		.sleb128 0
 6329 1a7c 22       		.uleb128 0x22
 6330 1a7d 02       		.byte	0x2
 6331 1a7e 7D       		.byte	0x7d
 6332 1a7f 04       		.sleb128 4
 6333 1a80 01       		.byte	0x1
 6334 1a81 36       		.byte	0x36
 6335 1a82 22       		.uleb128 0x22
 6336 1a83 02       		.byte	0x2
 6337 1a84 7D       		.byte	0x7d
 6338 1a85 00       		.sleb128 0
 6339 1a86 01       		.byte	0x1
 6340 1a87 30       		.byte	0x30
 6341 1a88 00       		.byte	0
 6342 1a89 39       		.uleb128 0x39
 6343 1a8a 5E000000 		.4byte	.LVL292
 6344 1a8e 01       		.byte	0x1
 6345 1a8f C71C0000 		.4byte	0x1cc7
 6346 1a93 22       		.uleb128 0x22
 6347 1a94 01       		.byte	0x1
 6348 1a95 50       		.byte	0x50
 6349 1a96 02       		.byte	0x2
 6350 1a97 75       		.byte	0x75
 6351 1a98 00       		.sleb128 0
 6352 1a99 00       		.byte	0
 6353 1a9a 00       		.byte	0
 6354 1a9b 3F       		.uleb128 0x3f
 6355 1a9c 01       		.byte	0x1
 6356 1a9d D3000000 		.4byte	.LASF207
 6357 1aa1 01       		.byte	0x1
 6358 1aa2 7705     		.2byte	0x577
 6359 1aa4 01       		.byte	0x1
 6360 1aa5 00000000 		.4byte	.LFB22
 6361 1aa9 D8000000 		.4byte	.LFE22
 6362 1aad 59150000 		.4byte	.LLST91
 6363 1ab1 01       		.byte	0x1
 6364 1ab2 F71B0000 		.4byte	0x1bf7
 6365 1ab6 2D       		.uleb128 0x2d
 6366 1ab7 70636200 		.ascii	"pcb\000"
 6367 1abb 01       		.byte	0x1
 6368 1abc 7705     		.2byte	0x577
 6369 1abe B5030000 		.4byte	0x3b5
 6370 1ac2 85150000 		.4byte	.LLST92
 6371 1ac6 30       		.uleb128 0x30
 6372 1ac7 7000     		.ascii	"p\000"
ARM GAS  /tmp/ccuCtRWT.s 			page 113


 6373 1ac9 01       		.byte	0x1
 6374 1aca 7905     		.2byte	0x579
 6375 1acc EB010000 		.4byte	0x1eb
 6376 1ad0 B9150000 		.4byte	.LLST93
 6377 1ad4 2F       		.uleb128 0x2f
 6378 1ad5 A9070000 		.4byte	.LASF120
 6379 1ad9 01       		.byte	0x1
 6380 1ada 7A05     		.2byte	0x57a
 6381 1adc A1080000 		.4byte	0x8a1
 6382 1ae0 ED150000 		.4byte	.LLST94
 6383 1ae4 30       		.uleb128 0x30
 6384 1ae5 73656700 		.ascii	"seg\000"
 6385 1ae9 01       		.byte	0x1
 6386 1aea 7B05     		.2byte	0x57b
 6387 1aec 1E080000 		.4byte	0x81e
 6388 1af0 0B160000 		.4byte	.LLST95
 6389 1af4 30       		.uleb128 0x30
 6390 1af5 6C656E00 		.ascii	"len\000"
 6391 1af9 01       		.byte	0x1
 6392 1afa 7C05     		.2byte	0x57c
 6393 1afc D7000000 		.4byte	0xd7
 6394 1b00 34160000 		.4byte	.LLST96
 6395 1b04 2F       		.uleb128 0x2f
 6396 1b05 6C020000 		.4byte	.LASF208
 6397 1b09 01       		.byte	0x1
 6398 1b0a 7D05     		.2byte	0x57d
 6399 1b0c C1000000 		.4byte	0xc1
 6400 1b10 47160000 		.4byte	.LLST97
 6401 1b14 37       		.uleb128 0x37
 6402 1b15 A2000000 		.4byte	.LBB50
 6403 1b19 C6000000 		.4byte	.LBE50
 6404 1b1d 641B0000 		.4byte	0x1b64
 6405 1b21 2F       		.uleb128 0x2f
 6406 1b22 04030000 		.4byte	.LASF209
 6407 1b26 01       		.byte	0x1
 6408 1b27 A305     		.2byte	0x5a3
 6409 1b29 A1080000 		.4byte	0x8a1
 6410 1b2d 65160000 		.4byte	.LLST98
 6411 1b31 30       		.uleb128 0x30
 6412 1b32 6400     		.ascii	"d\000"
 6413 1b34 01       		.byte	0x1
 6414 1b35 A405     		.2byte	0x5a4
 6415 1b37 370B0000 		.4byte	0xb37
 6416 1b3b 79160000 		.4byte	.LLST99
 6417 1b3f 23       		.uleb128 0x23
 6418 1b40 AC000000 		.4byte	.LVL309
 6419 1b44 461D0000 		.4byte	0x1d46
 6420 1b48 25       		.uleb128 0x25
 6421 1b49 C4000000 		.4byte	.LVL311
 6422 1b4d EB1D0000 		.4byte	0x1deb
 6423 1b51 22       		.uleb128 0x22
 6424 1b52 01       		.byte	0x1
 6425 1b53 52       		.byte	0x52
 6426 1b54 01       		.byte	0x1
 6427 1b55 31       		.byte	0x31
 6428 1b56 22       		.uleb128 0x22
 6429 1b57 01       		.byte	0x1
ARM GAS  /tmp/ccuCtRWT.s 			page 114


 6430 1b58 51       		.byte	0x51
 6431 1b59 02       		.byte	0x2
 6432 1b5a 77       		.byte	0x77
 6433 1b5b 14       		.sleb128 20
 6434 1b5c 22       		.uleb128 0x22
 6435 1b5d 01       		.byte	0x1
 6436 1b5e 50       		.byte	0x50
 6437 1b5f 02       		.byte	0x2
 6438 1b60 76       		.byte	0x76
 6439 1b61 00       		.sleb128 0
 6440 1b62 00       		.byte	0
 6441 1b63 00       		.byte	0
 6442 1b64 23       		.uleb128 0x23
 6443 1b65 16000000 		.4byte	.LVL296
 6444 1b69 461D0000 		.4byte	0x1d46
 6445 1b6d 21       		.uleb128 0x21
 6446 1b6e 2A000000 		.4byte	.LVL298
 6447 1b72 570D0000 		.4byte	0xd57
 6448 1b76 811B0000 		.4byte	0x1b81
 6449 1b7a 22       		.uleb128 0x22
 6450 1b7b 01       		.byte	0x1
 6451 1b7c 50       		.byte	0x50
 6452 1b7d 02       		.byte	0x2
 6453 1b7e 74       		.byte	0x74
 6454 1b7f 00       		.sleb128 0
 6455 1b80 00       		.byte	0
 6456 1b81 21       		.uleb128 0x21
 6457 1b82 46000000 		.4byte	.LVL302
 6458 1b86 821C0000 		.4byte	0x1c82
 6459 1b8a 941B0000 		.4byte	0x1b94
 6460 1b8e 22       		.uleb128 0x22
 6461 1b8f 01       		.byte	0x1
 6462 1b90 50       		.byte	0x50
 6463 1b91 01       		.byte	0x1
 6464 1b92 41       		.byte	0x41
 6465 1b93 00       		.byte	0
 6466 1b94 21       		.uleb128 0x21
 6467 1b95 5C000000 		.4byte	.LVL303
 6468 1b99 5E1D0000 		.4byte	0x1d5e
 6469 1b9d B91B0000 		.4byte	0x1bb9
 6470 1ba1 22       		.uleb128 0x22
 6471 1ba2 01       		.byte	0x1
 6472 1ba3 53       		.byte	0x53
 6473 1ba4 01       		.byte	0x1
 6474 1ba5 36       		.byte	0x36
 6475 1ba6 22       		.uleb128 0x22
 6476 1ba7 01       		.byte	0x1
 6477 1ba8 52       		.byte	0x52
 6478 1ba9 02       		.byte	0x2
 6479 1baa 76       		.byte	0x76
 6480 1bab 00       		.sleb128 0
 6481 1bac 22       		.uleb128 0x22
 6482 1bad 01       		.byte	0x1
 6483 1bae 51       		.byte	0x51
 6484 1baf 02       		.byte	0x2
 6485 1bb0 74       		.byte	0x74
 6486 1bb1 00       		.sleb128 0
ARM GAS  /tmp/ccuCtRWT.s 			page 115


 6487 1bb2 22       		.uleb128 0x22
 6488 1bb3 01       		.byte	0x1
 6489 1bb4 50       		.byte	0x50
 6490 1bb5 02       		.byte	0x2
 6491 1bb6 75       		.byte	0x75
 6492 1bb7 00       		.sleb128 0
 6493 1bb8 00       		.byte	0
 6494 1bb9 21       		.uleb128 0x21
 6495 1bba 80000000 		.4byte	.LVL304
 6496 1bbe 8A1D0000 		.4byte	0x1d8a
 6497 1bc2 E51B0000 		.4byte	0x1be5
 6498 1bc6 22       		.uleb128 0x22
 6499 1bc7 01       		.byte	0x1
 6500 1bc8 52       		.byte	0x52
 6501 1bc9 02       		.byte	0x2
 6502 1bca 76       		.byte	0x76
 6503 1bcb 00       		.sleb128 0
 6504 1bcc 22       		.uleb128 0x22
 6505 1bcd 01       		.byte	0x1
 6506 1bce 51       		.byte	0x51
 6507 1bcf 02       		.byte	0x2
 6508 1bd0 74       		.byte	0x74
 6509 1bd1 00       		.sleb128 0
 6510 1bd2 22       		.uleb128 0x22
 6511 1bd3 01       		.byte	0x1
 6512 1bd4 50       		.byte	0x50
 6513 1bd5 02       		.byte	0x2
 6514 1bd6 75       		.byte	0x75
 6515 1bd7 00       		.sleb128 0
 6516 1bd8 22       		.uleb128 0x22
 6517 1bd9 02       		.byte	0x2
 6518 1bda 7D       		.byte	0x7d
 6519 1bdb 04       		.sleb128 4
 6520 1bdc 01       		.byte	0x1
 6521 1bdd 36       		.byte	0x36
 6522 1bde 22       		.uleb128 0x22
 6523 1bdf 02       		.byte	0x2
 6524 1be0 7D       		.byte	0x7d
 6525 1be1 00       		.sleb128 0
 6526 1be2 01       		.byte	0x1
 6527 1be3 30       		.byte	0x30
 6528 1be4 00       		.byte	0
 6529 1be5 39       		.uleb128 0x39
 6530 1be6 8C000000 		.4byte	.LVL305
 6531 1bea 01       		.byte	0x1
 6532 1beb C71C0000 		.4byte	0x1cc7
 6533 1bef 22       		.uleb128 0x22
 6534 1bf0 01       		.byte	0x1
 6535 1bf1 50       		.byte	0x50
 6536 1bf2 02       		.byte	0x2
 6537 1bf3 75       		.byte	0x75
 6538 1bf4 00       		.sleb128 0
 6539 1bf5 00       		.byte	0
 6540 1bf6 00       		.byte	0
 6541 1bf7 41       		.uleb128 0x41
 6542 1bf8 B0040000 		.4byte	.LASF210
 6543 1bfc 0A       		.byte	0xa
ARM GAS  /tmp/ccuCtRWT.s 			page 116


 6544 1bfd 3601     		.2byte	0x136
 6545 1bff B5030000 		.4byte	0x3b5
 6546 1c03 01       		.byte	0x1
 6547 1c04 01       		.byte	0x1
 6548 1c05 41       		.uleb128 0x41
 6549 1c06 9F070000 		.4byte	.LASF211
 6550 1c0a 0A       		.byte	0xa
 6551 1c0b 3701     		.2byte	0x137
 6552 1c0d ED000000 		.4byte	0xed
 6553 1c11 01       		.byte	0x1
 6554 1c12 01       		.byte	0x1
 6555 1c13 42       		.uleb128 0x42
 6556 1c14 A2010000 		.4byte	.LASF212
 6557 1c18 0C       		.byte	0xc
 6558 1c19 95       		.byte	0x95
 6559 1c1a 8A0A0000 		.4byte	0xa8a
 6560 1c1e 01       		.byte	0x1
 6561 1c1f 01       		.byte	0x1
 6562 1c20 43       		.uleb128 0x43
 6563 1c21 01       		.byte	0x1
 6564 1c22 59020000 		.4byte	.LASF213
 6565 1c26 06       		.byte	0x6
 6566 1c27 7A       		.byte	0x7a
 6567 1c28 01       		.byte	0x1
 6568 1c29 EB010000 		.4byte	0x1eb
 6569 1c2d 01       		.byte	0x1
 6570 1c2e 421C0000 		.4byte	0x1c42
 6571 1c32 0D       		.uleb128 0xd
 6572 1c33 45010000 		.4byte	0x145
 6573 1c37 0D       		.uleb128 0xd
 6574 1c38 D7000000 		.4byte	0xd7
 6575 1c3c 0D       		.uleb128 0xd
 6576 1c3d 71010000 		.4byte	0x171
 6577 1c41 00       		.byte	0
 6578 1c42 44       		.uleb128 0x44
 6579 1c43 01       		.byte	0x1
 6580 1c44 6E080000 		.4byte	.LASF235
 6581 1c48 10       		.byte	0x10
 6582 1c49 FA01     		.2byte	0x1fa
 6583 1c4b 01       		.byte	0x1
 6584 1c4c 01       		.byte	0x1
 6585 1c4d 43       		.uleb128 0x43
 6586 1c4e 01       		.byte	0x1
 6587 1c4f 7C040000 		.4byte	.LASF214
 6588 1c53 0B       		.byte	0xb
 6589 1c54 6A       		.byte	0x6a
 6590 1c55 01       		.byte	0x1
 6591 1c56 B1000000 		.4byte	0xb1
 6592 1c5a 01       		.byte	0x1
 6593 1c5b 651C0000 		.4byte	0x1c65
 6594 1c5f 0D       		.uleb128 0xd
 6595 1c60 0A090000 		.4byte	0x90a
 6596 1c64 00       		.byte	0
 6597 1c65 43       		.uleb128 0x43
 6598 1c66 01       		.byte	0x1
 6599 1c67 C2030000 		.4byte	.LASF215
 6600 1c6b 06       		.byte	0x6
ARM GAS  /tmp/ccuCtRWT.s 			page 117


 6601 1c6c 81       		.byte	0x81
 6602 1c6d 01       		.byte	0x1
 6603 1c6e C1000000 		.4byte	0xc1
 6604 1c72 01       		.byte	0x1
 6605 1c73 821C0000 		.4byte	0x1c82
 6606 1c77 0D       		.uleb128 0xd
 6607 1c78 EB010000 		.4byte	0x1eb
 6608 1c7c 0D       		.uleb128 0xd
 6609 1c7d E2000000 		.4byte	0xe2
 6610 1c81 00       		.byte	0
 6611 1c82 43       		.uleb128 0x43
 6612 1c83 01       		.byte	0x1
 6613 1c84 7A010000 		.4byte	.LASF216
 6614 1c88 0D       		.byte	0xd
 6615 1c89 67       		.byte	0x67
 6616 1c8a 01       		.byte	0x1
 6617 1c8b D7000000 		.4byte	0xd7
 6618 1c8f 01       		.byte	0x1
 6619 1c90 9A1C0000 		.4byte	0x1c9a
 6620 1c94 0D       		.uleb128 0xd
 6621 1c95 D7000000 		.4byte	0xd7
 6622 1c99 00       		.byte	0
 6623 1c9a 43       		.uleb128 0x43
 6624 1c9b 01       		.byte	0x1
 6625 1c9c 5F010000 		.4byte	.LASF217
 6626 1ca0 0D       		.byte	0xd
 6627 1ca1 69       		.byte	0x69
 6628 1ca2 01       		.byte	0x1
 6629 1ca3 ED000000 		.4byte	0xed
 6630 1ca7 01       		.byte	0x1
 6631 1ca8 B21C0000 		.4byte	0x1cb2
 6632 1cac 0D       		.uleb128 0xd
 6633 1cad ED000000 		.4byte	0xed
 6634 1cb1 00       		.byte	0
 6635 1cb2 45       		.uleb128 0x45
 6636 1cb3 01       		.byte	0x1
 6637 1cb4 D0050000 		.4byte	.LASF219
 6638 1cb8 0A       		.byte	0xa
 6639 1cb9 9501     		.2byte	0x195
 6640 1cbb 01       		.byte	0x1
 6641 1cbc 01       		.byte	0x1
 6642 1cbd C71C0000 		.4byte	0x1cc7
 6643 1cc1 0D       		.uleb128 0xd
 6644 1cc2 1E080000 		.4byte	0x81e
 6645 1cc6 00       		.byte	0
 6646 1cc7 43       		.uleb128 0x43
 6647 1cc8 01       		.byte	0x1
 6648 1cc9 6A040000 		.4byte	.LASF218
 6649 1ccd 06       		.byte	0x6
 6650 1cce 83       		.byte	0x83
 6651 1ccf 01       		.byte	0x1
 6652 1cd0 C1000000 		.4byte	0xc1
 6653 1cd4 01       		.byte	0x1
 6654 1cd5 DF1C0000 		.4byte	0x1cdf
 6655 1cd9 0D       		.uleb128 0xd
 6656 1cda EB010000 		.4byte	0x1eb
 6657 1cde 00       		.byte	0
ARM GAS  /tmp/ccuCtRWT.s 			page 118


 6658 1cdf 46       		.uleb128 0x46
 6659 1ce0 01       		.byte	0x1
 6660 1ce1 EE080000 		.4byte	.LASF220
 6661 1ce5 01       		.byte	0x1
 6662 1ce6 B1000000 		.4byte	0xb1
 6663 1cea 01       		.byte	0x1
 6664 1ceb 01       		.byte	0x1
 6665 1cec 001D0000 		.4byte	0x1d00
 6666 1cf0 0D       		.uleb128 0xd
 6667 1cf1 B1000000 		.4byte	0xb1
 6668 1cf5 0D       		.uleb128 0xd
 6669 1cf6 B3120000 		.4byte	0x12b3
 6670 1cfa 0D       		.uleb128 0xd
 6671 1cfb B3000000 		.4byte	0xb3
 6672 1cff 00       		.byte	0
 6673 1d00 43       		.uleb128 0x43
 6674 1d01 01       		.byte	0x1
 6675 1d02 53000000 		.4byte	.LASF221
 6676 1d06 06       		.byte	0x6
 6677 1d07 84       		.byte	0x84
 6678 1d08 01       		.byte	0x1
 6679 1d09 C1000000 		.4byte	0xc1
 6680 1d0d 01       		.byte	0x1
 6681 1d0e 181D0000 		.4byte	0x1d18
 6682 1d12 0D       		.uleb128 0xd
 6683 1d13 EB010000 		.4byte	0x1eb
 6684 1d17 00       		.byte	0
 6685 1d18 47       		.uleb128 0x47
 6686 1d19 01       		.byte	0x1
 6687 1d1a 4A090000 		.4byte	.LASF222
 6688 1d1e 06       		.byte	0x6
 6689 1d1f 85       		.byte	0x85
 6690 1d20 01       		.byte	0x1
 6691 1d21 01       		.byte	0x1
 6692 1d22 311D0000 		.4byte	0x1d31
 6693 1d26 0D       		.uleb128 0xd
 6694 1d27 EB010000 		.4byte	0x1eb
 6695 1d2b 0D       		.uleb128 0xd
 6696 1d2c EB010000 		.4byte	0x1eb
 6697 1d30 00       		.byte	0
 6698 1d31 45       		.uleb128 0x45
 6699 1d32 01       		.byte	0x1
 6700 1d33 3C090000 		.4byte	.LASF223
 6701 1d37 0A       		.byte	0xa
 6702 1d38 9401     		.2byte	0x194
 6703 1d3a 01       		.byte	0x1
 6704 1d3b 01       		.byte	0x1
 6705 1d3c 461D0000 		.4byte	0x1d46
 6706 1d40 0D       		.uleb128 0xd
 6707 1d41 1E080000 		.4byte	0x81e
 6708 1d45 00       		.byte	0
 6709 1d46 43       		.uleb128 0x43
 6710 1d47 01       		.byte	0x1
 6711 1d48 F6050000 		.4byte	.LASF224
 6712 1d4c 0D       		.byte	0xd
 6713 1d4d 68       		.byte	0x68
 6714 1d4e 01       		.byte	0x1
ARM GAS  /tmp/ccuCtRWT.s 			page 119


 6715 1d4f D7000000 		.4byte	0xd7
 6716 1d53 01       		.byte	0x1
 6717 1d54 5E1D0000 		.4byte	0x1d5e
 6718 1d58 0D       		.uleb128 0xd
 6719 1d59 D7000000 		.4byte	0xd7
 6720 1d5d 00       		.byte	0
 6721 1d5e 43       		.uleb128 0x43
 6722 1d5f 01       		.byte	0x1
 6723 1d60 40060000 		.4byte	.LASF225
 6724 1d64 0E       		.byte	0xe
 6725 1d65 4B       		.byte	0x4b
 6726 1d66 01       		.byte	0x1
 6727 1d67 D7000000 		.4byte	0xd7
 6728 1d6b 01       		.byte	0x1
 6729 1d6c 8A1D0000 		.4byte	0x1d8a
 6730 1d70 0D       		.uleb128 0xd
 6731 1d71 EB010000 		.4byte	0x1eb
 6732 1d75 0D       		.uleb128 0xd
 6733 1d76 3E030000 		.4byte	0x33e
 6734 1d7a 0D       		.uleb128 0xd
 6735 1d7b 3E030000 		.4byte	0x33e
 6736 1d7f 0D       		.uleb128 0xd
 6737 1d80 C1000000 		.4byte	0xc1
 6738 1d84 0D       		.uleb128 0xd
 6739 1d85 D7000000 		.4byte	0xd7
 6740 1d89 00       		.byte	0
 6741 1d8a 43       		.uleb128 0x43
 6742 1d8b 01       		.byte	0x1
 6743 1d8c 63090000 		.4byte	.LASF226
 6744 1d90 0F       		.byte	0xf
 6745 1d91 AE       		.byte	0xae
 6746 1d92 01       		.byte	0x1
 6747 1d93 0E010000 		.4byte	0x10e
 6748 1d97 01       		.byte	0x1
 6749 1d98 BB1D0000 		.4byte	0x1dbb
 6750 1d9c 0D       		.uleb128 0xd
 6751 1d9d EB010000 		.4byte	0x1eb
 6752 1da1 0D       		.uleb128 0xd
 6753 1da2 3E030000 		.4byte	0x33e
 6754 1da6 0D       		.uleb128 0xd
 6755 1da7 3E030000 		.4byte	0x33e
 6756 1dab 0D       		.uleb128 0xd
 6757 1dac C1000000 		.4byte	0xc1
 6758 1db0 0D       		.uleb128 0xd
 6759 1db1 C1000000 		.4byte	0xc1
 6760 1db5 0D       		.uleb128 0xd
 6761 1db6 C1000000 		.4byte	0xc1
 6762 1dba 00       		.byte	0
 6763 1dbb 43       		.uleb128 0x43
 6764 1dbc 01       		.byte	0x1
 6765 1dbd 33090000 		.4byte	.LASF227
 6766 1dc1 0F       		.byte	0xf
 6767 1dc2 AC       		.byte	0xac
 6768 1dc3 01       		.byte	0x1
 6769 1dc4 17020000 		.4byte	0x217
 6770 1dc8 01       		.byte	0x1
 6771 1dc9 D31D0000 		.4byte	0x1dd3
ARM GAS  /tmp/ccuCtRWT.s 			page 120


 6772 1dcd 0D       		.uleb128 0xd
 6773 1dce 3E030000 		.4byte	0x33e
 6774 1dd2 00       		.byte	0
 6775 1dd3 43       		.uleb128 0x43
 6776 1dd4 01       		.byte	0x1
 6777 1dd5 E5050000 		.4byte	.LASF228
 6778 1dd9 0D       		.byte	0xd
 6779 1dda 6A       		.byte	0x6a
 6780 1ddb 01       		.byte	0x1
 6781 1ddc ED000000 		.4byte	0xed
 6782 1de0 01       		.byte	0x1
 6783 1de1 EB1D0000 		.4byte	0x1deb
 6784 1de5 0D       		.uleb128 0xd
 6785 1de6 ED000000 		.4byte	0xed
 6786 1dea 00       		.byte	0
 6787 1deb 48       		.uleb128 0x48
 6788 1dec 01       		.byte	0x1
 6789 1ded 2A040000 		.4byte	.LASF229
 6790 1df1 06       		.byte	0x6
 6791 1df2 89       		.byte	0x89
 6792 1df3 01       		.byte	0x1
 6793 1df4 D7000000 		.4byte	0xd7
 6794 1df8 01       		.byte	0x1
 6795 1df9 0D       		.uleb128 0xd
 6796 1dfa EB010000 		.4byte	0x1eb
 6797 1dfe 0D       		.uleb128 0xd
 6798 1dff B1000000 		.4byte	0xb1
 6799 1e03 0D       		.uleb128 0xd
 6800 1e04 D7000000 		.4byte	0xd7
 6801 1e08 0D       		.uleb128 0xd
 6802 1e09 D7000000 		.4byte	0xd7
 6803 1e0d 00       		.byte	0
 6804 1e0e 00       		.byte	0
 6805              		.section	.debug_abbrev,"",%progbits
 6806              	.Ldebug_abbrev0:
 6807 0000 01       		.uleb128 0x1
 6808 0001 11       		.uleb128 0x11
 6809 0002 01       		.byte	0x1
 6810 0003 25       		.uleb128 0x25
 6811 0004 0E       		.uleb128 0xe
 6812 0005 13       		.uleb128 0x13
 6813 0006 0B       		.uleb128 0xb
 6814 0007 03       		.uleb128 0x3
 6815 0008 0E       		.uleb128 0xe
 6816 0009 1B       		.uleb128 0x1b
 6817 000a 0E       		.uleb128 0xe
 6818 000b 55       		.uleb128 0x55
 6819 000c 06       		.uleb128 0x6
 6820 000d 11       		.uleb128 0x11
 6821 000e 01       		.uleb128 0x1
 6822 000f 52       		.uleb128 0x52
 6823 0010 01       		.uleb128 0x1
 6824 0011 10       		.uleb128 0x10
 6825 0012 06       		.uleb128 0x6
 6826 0013 00       		.byte	0
 6827 0014 00       		.byte	0
 6828 0015 02       		.uleb128 0x2
ARM GAS  /tmp/ccuCtRWT.s 			page 121


 6829 0016 24       		.uleb128 0x24
 6830 0017 00       		.byte	0
 6831 0018 0B       		.uleb128 0xb
 6832 0019 0B       		.uleb128 0xb
 6833 001a 3E       		.uleb128 0x3e
 6834 001b 0B       		.uleb128 0xb
 6835 001c 03       		.uleb128 0x3
 6836 001d 08       		.uleb128 0x8
 6837 001e 00       		.byte	0
 6838 001f 00       		.byte	0
 6839 0020 03       		.uleb128 0x3
 6840 0021 24       		.uleb128 0x24
 6841 0022 00       		.byte	0
 6842 0023 0B       		.uleb128 0xb
 6843 0024 0B       		.uleb128 0xb
 6844 0025 3E       		.uleb128 0x3e
 6845 0026 0B       		.uleb128 0xb
 6846 0027 03       		.uleb128 0x3
 6847 0028 0E       		.uleb128 0xe
 6848 0029 00       		.byte	0
 6849 002a 00       		.byte	0
 6850 002b 04       		.uleb128 0x4
 6851 002c 16       		.uleb128 0x16
 6852 002d 00       		.byte	0
 6853 002e 03       		.uleb128 0x3
 6854 002f 0E       		.uleb128 0xe
 6855 0030 3A       		.uleb128 0x3a
 6856 0031 0B       		.uleb128 0xb
 6857 0032 3B       		.uleb128 0x3b
 6858 0033 0B       		.uleb128 0xb
 6859 0034 49       		.uleb128 0x49
 6860 0035 13       		.uleb128 0x13
 6861 0036 00       		.byte	0
 6862 0037 00       		.byte	0
 6863 0038 05       		.uleb128 0x5
 6864 0039 0F       		.uleb128 0xf
 6865 003a 00       		.byte	0
 6866 003b 0B       		.uleb128 0xb
 6867 003c 0B       		.uleb128 0xb
 6868 003d 00       		.byte	0
 6869 003e 00       		.byte	0
 6870 003f 06       		.uleb128 0x6
 6871 0040 04       		.uleb128 0x4
 6872 0041 01       		.byte	0x1
 6873 0042 0B       		.uleb128 0xb
 6874 0043 0B       		.uleb128 0xb
 6875 0044 3A       		.uleb128 0x3a
 6876 0045 0B       		.uleb128 0xb
 6877 0046 3B       		.uleb128 0x3b
 6878 0047 0B       		.uleb128 0xb
 6879 0048 01       		.uleb128 0x1
 6880 0049 13       		.uleb128 0x13
 6881 004a 00       		.byte	0
 6882 004b 00       		.byte	0
 6883 004c 07       		.uleb128 0x7
 6884 004d 28       		.uleb128 0x28
 6885 004e 00       		.byte	0
ARM GAS  /tmp/ccuCtRWT.s 			page 122


 6886 004f 03       		.uleb128 0x3
 6887 0050 0E       		.uleb128 0xe
 6888 0051 1C       		.uleb128 0x1c
 6889 0052 0D       		.uleb128 0xd
 6890 0053 00       		.byte	0
 6891 0054 00       		.byte	0
 6892 0055 08       		.uleb128 0x8
 6893 0056 13       		.uleb128 0x13
 6894 0057 01       		.byte	0x1
 6895 0058 03       		.uleb128 0x3
 6896 0059 0E       		.uleb128 0xe
 6897 005a 0B       		.uleb128 0xb
 6898 005b 0B       		.uleb128 0xb
 6899 005c 3A       		.uleb128 0x3a
 6900 005d 0B       		.uleb128 0xb
 6901 005e 3B       		.uleb128 0x3b
 6902 005f 0B       		.uleb128 0xb
 6903 0060 01       		.uleb128 0x1
 6904 0061 13       		.uleb128 0x13
 6905 0062 00       		.byte	0
 6906 0063 00       		.byte	0
 6907 0064 09       		.uleb128 0x9
 6908 0065 0D       		.uleb128 0xd
 6909 0066 00       		.byte	0
 6910 0067 03       		.uleb128 0x3
 6911 0068 0E       		.uleb128 0xe
 6912 0069 3A       		.uleb128 0x3a
 6913 006a 0B       		.uleb128 0xb
 6914 006b 3B       		.uleb128 0x3b
 6915 006c 0B       		.uleb128 0xb
 6916 006d 49       		.uleb128 0x49
 6917 006e 13       		.uleb128 0x13
 6918 006f 38       		.uleb128 0x38
 6919 0070 0A       		.uleb128 0xa
 6920 0071 00       		.byte	0
 6921 0072 00       		.byte	0
 6922 0073 0A       		.uleb128 0xa
 6923 0074 0D       		.uleb128 0xd
 6924 0075 00       		.byte	0
 6925 0076 03       		.uleb128 0x3
 6926 0077 08       		.uleb128 0x8
 6927 0078 3A       		.uleb128 0x3a
 6928 0079 0B       		.uleb128 0xb
 6929 007a 3B       		.uleb128 0x3b
 6930 007b 0B       		.uleb128 0xb
 6931 007c 49       		.uleb128 0x49
 6932 007d 13       		.uleb128 0x13
 6933 007e 38       		.uleb128 0x38
 6934 007f 0A       		.uleb128 0xa
 6935 0080 00       		.byte	0
 6936 0081 00       		.byte	0
 6937 0082 0B       		.uleb128 0xb
 6938 0083 0F       		.uleb128 0xf
 6939 0084 00       		.byte	0
 6940 0085 0B       		.uleb128 0xb
 6941 0086 0B       		.uleb128 0xb
 6942 0087 49       		.uleb128 0x49
ARM GAS  /tmp/ccuCtRWT.s 			page 123


 6943 0088 13       		.uleb128 0x13
 6944 0089 00       		.byte	0
 6945 008a 00       		.byte	0
 6946 008b 0C       		.uleb128 0xc
 6947 008c 15       		.uleb128 0x15
 6948 008d 01       		.byte	0x1
 6949 008e 27       		.uleb128 0x27
 6950 008f 0C       		.uleb128 0xc
 6951 0090 49       		.uleb128 0x49
 6952 0091 13       		.uleb128 0x13
 6953 0092 01       		.uleb128 0x1
 6954 0093 13       		.uleb128 0x13
 6955 0094 00       		.byte	0
 6956 0095 00       		.byte	0
 6957 0096 0D       		.uleb128 0xd
 6958 0097 05       		.uleb128 0x5
 6959 0098 00       		.byte	0
 6960 0099 49       		.uleb128 0x49
 6961 009a 13       		.uleb128 0x13
 6962 009b 00       		.byte	0
 6963 009c 00       		.byte	0
 6964 009d 0E       		.uleb128 0xe
 6965 009e 01       		.uleb128 0x1
 6966 009f 01       		.byte	0x1
 6967 00a0 49       		.uleb128 0x49
 6968 00a1 13       		.uleb128 0x13
 6969 00a2 01       		.uleb128 0x1
 6970 00a3 13       		.uleb128 0x13
 6971 00a4 00       		.byte	0
 6972 00a5 00       		.byte	0
 6973 00a6 0F       		.uleb128 0xf
 6974 00a7 21       		.uleb128 0x21
 6975 00a8 00       		.byte	0
 6976 00a9 49       		.uleb128 0x49
 6977 00aa 13       		.uleb128 0x13
 6978 00ab 2F       		.uleb128 0x2f
 6979 00ac 0B       		.uleb128 0xb
 6980 00ad 00       		.byte	0
 6981 00ae 00       		.byte	0
 6982 00af 10       		.uleb128 0x10
 6983 00b0 0D       		.uleb128 0xd
 6984 00b1 00       		.byte	0
 6985 00b2 03       		.uleb128 0x3
 6986 00b3 0E       		.uleb128 0xe
 6987 00b4 3A       		.uleb128 0x3a
 6988 00b5 0B       		.uleb128 0xb
 6989 00b6 3B       		.uleb128 0x3b
 6990 00b7 05       		.uleb128 0x5
 6991 00b8 49       		.uleb128 0x49
 6992 00b9 13       		.uleb128 0x13
 6993 00ba 38       		.uleb128 0x38
 6994 00bb 0A       		.uleb128 0xa
 6995 00bc 00       		.byte	0
 6996 00bd 00       		.byte	0
 6997 00be 11       		.uleb128 0x11
 6998 00bf 15       		.uleb128 0x15
 6999 00c0 01       		.byte	0x1
ARM GAS  /tmp/ccuCtRWT.s 			page 124


 7000 00c1 27       		.uleb128 0x27
 7001 00c2 0C       		.uleb128 0xc
 7002 00c3 01       		.uleb128 0x1
 7003 00c4 13       		.uleb128 0x13
 7004 00c5 00       		.byte	0
 7005 00c6 00       		.byte	0
 7006 00c7 12       		.uleb128 0x12
 7007 00c8 04       		.uleb128 0x4
 7008 00c9 01       		.byte	0x1
 7009 00ca 03       		.uleb128 0x3
 7010 00cb 0E       		.uleb128 0xe
 7011 00cc 0B       		.uleb128 0xb
 7012 00cd 0B       		.uleb128 0xb
 7013 00ce 3A       		.uleb128 0x3a
 7014 00cf 0B       		.uleb128 0xb
 7015 00d0 3B       		.uleb128 0x3b
 7016 00d1 0B       		.uleb128 0xb
 7017 00d2 01       		.uleb128 0x1
 7018 00d3 13       		.uleb128 0x13
 7019 00d4 00       		.byte	0
 7020 00d5 00       		.byte	0
 7021 00d6 13       		.uleb128 0x13
 7022 00d7 13       		.uleb128 0x13
 7023 00d8 01       		.byte	0x1
 7024 00d9 03       		.uleb128 0x3
 7025 00da 0E       		.uleb128 0xe
 7026 00db 0B       		.uleb128 0xb
 7027 00dc 0B       		.uleb128 0xb
 7028 00dd 3A       		.uleb128 0x3a
 7029 00de 0B       		.uleb128 0xb
 7030 00df 3B       		.uleb128 0x3b
 7031 00e0 05       		.uleb128 0x5
 7032 00e1 01       		.uleb128 0x1
 7033 00e2 13       		.uleb128 0x13
 7034 00e3 00       		.byte	0
 7035 00e4 00       		.byte	0
 7036 00e5 14       		.uleb128 0x14
 7037 00e6 0D       		.uleb128 0xd
 7038 00e7 00       		.byte	0
 7039 00e8 03       		.uleb128 0x3
 7040 00e9 08       		.uleb128 0x8
 7041 00ea 3A       		.uleb128 0x3a
 7042 00eb 0B       		.uleb128 0xb
 7043 00ec 3B       		.uleb128 0x3b
 7044 00ed 05       		.uleb128 0x5
 7045 00ee 49       		.uleb128 0x49
 7046 00ef 13       		.uleb128 0x13
 7047 00f0 38       		.uleb128 0x38
 7048 00f1 0A       		.uleb128 0xa
 7049 00f2 00       		.byte	0
 7050 00f3 00       		.byte	0
 7051 00f4 15       		.uleb128 0x15
 7052 00f5 13       		.uleb128 0x13
 7053 00f6 01       		.byte	0x1
 7054 00f7 03       		.uleb128 0x3
 7055 00f8 0E       		.uleb128 0xe
 7056 00f9 0B       		.uleb128 0xb
ARM GAS  /tmp/ccuCtRWT.s 			page 125


 7057 00fa 05       		.uleb128 0x5
 7058 00fb 3A       		.uleb128 0x3a
 7059 00fc 0B       		.uleb128 0xb
 7060 00fd 3B       		.uleb128 0x3b
 7061 00fe 0B       		.uleb128 0xb
 7062 00ff 01       		.uleb128 0x1
 7063 0100 13       		.uleb128 0x13
 7064 0101 00       		.byte	0
 7065 0102 00       		.byte	0
 7066 0103 16       		.uleb128 0x16
 7067 0104 2E       		.uleb128 0x2e
 7068 0105 01       		.byte	0x1
 7069 0106 03       		.uleb128 0x3
 7070 0107 0E       		.uleb128 0xe
 7071 0108 3A       		.uleb128 0x3a
 7072 0109 0B       		.uleb128 0xb
 7073 010a 3B       		.uleb128 0x3b
 7074 010b 0B       		.uleb128 0xb
 7075 010c 27       		.uleb128 0x27
 7076 010d 0C       		.uleb128 0xc
 7077 010e 49       		.uleb128 0x49
 7078 010f 13       		.uleb128 0x13
 7079 0110 20       		.uleb128 0x20
 7080 0111 0B       		.uleb128 0xb
 7081 0112 01       		.uleb128 0x1
 7082 0113 13       		.uleb128 0x13
 7083 0114 00       		.byte	0
 7084 0115 00       		.byte	0
 7085 0116 17       		.uleb128 0x17
 7086 0117 05       		.uleb128 0x5
 7087 0118 00       		.byte	0
 7088 0119 03       		.uleb128 0x3
 7089 011a 08       		.uleb128 0x8
 7090 011b 3A       		.uleb128 0x3a
 7091 011c 0B       		.uleb128 0xb
 7092 011d 3B       		.uleb128 0x3b
 7093 011e 0B       		.uleb128 0xb
 7094 011f 49       		.uleb128 0x49
 7095 0120 13       		.uleb128 0x13
 7096 0121 00       		.byte	0
 7097 0122 00       		.byte	0
 7098 0123 18       		.uleb128 0x18
 7099 0124 05       		.uleb128 0x5
 7100 0125 00       		.byte	0
 7101 0126 03       		.uleb128 0x3
 7102 0127 0E       		.uleb128 0xe
 7103 0128 3A       		.uleb128 0x3a
 7104 0129 0B       		.uleb128 0xb
 7105 012a 3B       		.uleb128 0x3b
 7106 012b 0B       		.uleb128 0xb
 7107 012c 49       		.uleb128 0x49
 7108 012d 13       		.uleb128 0x13
 7109 012e 00       		.byte	0
 7110 012f 00       		.byte	0
 7111 0130 19       		.uleb128 0x19
 7112 0131 34       		.uleb128 0x34
 7113 0132 00       		.byte	0
ARM GAS  /tmp/ccuCtRWT.s 			page 126


 7114 0133 03       		.uleb128 0x3
 7115 0134 0E       		.uleb128 0xe
 7116 0135 3A       		.uleb128 0x3a
 7117 0136 0B       		.uleb128 0xb
 7118 0137 3B       		.uleb128 0x3b
 7119 0138 0B       		.uleb128 0xb
 7120 0139 49       		.uleb128 0x49
 7121 013a 13       		.uleb128 0x13
 7122 013b 00       		.byte	0
 7123 013c 00       		.byte	0
 7124 013d 1A       		.uleb128 0x1a
 7125 013e 34       		.uleb128 0x34
 7126 013f 00       		.byte	0
 7127 0140 03       		.uleb128 0x3
 7128 0141 08       		.uleb128 0x8
 7129 0142 3A       		.uleb128 0x3a
 7130 0143 0B       		.uleb128 0xb
 7131 0144 3B       		.uleb128 0x3b
 7132 0145 0B       		.uleb128 0xb
 7133 0146 49       		.uleb128 0x49
 7134 0147 13       		.uleb128 0x13
 7135 0148 00       		.byte	0
 7136 0149 00       		.byte	0
 7137 014a 1B       		.uleb128 0x1b
 7138 014b 2E       		.uleb128 0x2e
 7139 014c 01       		.byte	0x1
 7140 014d 03       		.uleb128 0x3
 7141 014e 0E       		.uleb128 0xe
 7142 014f 3A       		.uleb128 0x3a
 7143 0150 0B       		.uleb128 0xb
 7144 0151 3B       		.uleb128 0x3b
 7145 0152 0B       		.uleb128 0xb
 7146 0153 27       		.uleb128 0x27
 7147 0154 0C       		.uleb128 0xc
 7148 0155 49       		.uleb128 0x49
 7149 0156 13       		.uleb128 0x13
 7150 0157 11       		.uleb128 0x11
 7151 0158 01       		.uleb128 0x1
 7152 0159 12       		.uleb128 0x12
 7153 015a 01       		.uleb128 0x1
 7154 015b 40       		.uleb128 0x40
 7155 015c 06       		.uleb128 0x6
 7156 015d 9742     		.uleb128 0x2117
 7157 015f 0C       		.uleb128 0xc
 7158 0160 01       		.uleb128 0x1
 7159 0161 13       		.uleb128 0x13
 7160 0162 00       		.byte	0
 7161 0163 00       		.byte	0
 7162 0164 1C       		.uleb128 0x1c
 7163 0165 05       		.uleb128 0x5
 7164 0166 00       		.byte	0
 7165 0167 03       		.uleb128 0x3
 7166 0168 0E       		.uleb128 0xe
 7167 0169 3A       		.uleb128 0x3a
 7168 016a 0B       		.uleb128 0xb
 7169 016b 3B       		.uleb128 0x3b
 7170 016c 0B       		.uleb128 0xb
ARM GAS  /tmp/ccuCtRWT.s 			page 127


 7171 016d 49       		.uleb128 0x49
 7172 016e 13       		.uleb128 0x13
 7173 016f 02       		.uleb128 0x2
 7174 0170 06       		.uleb128 0x6
 7175 0171 00       		.byte	0
 7176 0172 00       		.byte	0
 7177 0173 1D       		.uleb128 0x1d
 7178 0174 05       		.uleb128 0x5
 7179 0175 00       		.byte	0
 7180 0176 03       		.uleb128 0x3
 7181 0177 08       		.uleb128 0x8
 7182 0178 3A       		.uleb128 0x3a
 7183 0179 0B       		.uleb128 0xb
 7184 017a 3B       		.uleb128 0x3b
 7185 017b 0B       		.uleb128 0xb
 7186 017c 49       		.uleb128 0x49
 7187 017d 13       		.uleb128 0x13
 7188 017e 02       		.uleb128 0x2
 7189 017f 0A       		.uleb128 0xa
 7190 0180 00       		.byte	0
 7191 0181 00       		.byte	0
 7192 0182 1E       		.uleb128 0x1e
 7193 0183 05       		.uleb128 0x5
 7194 0184 00       		.byte	0
 7195 0185 03       		.uleb128 0x3
 7196 0186 0E       		.uleb128 0xe
 7197 0187 3A       		.uleb128 0x3a
 7198 0188 0B       		.uleb128 0xb
 7199 0189 3B       		.uleb128 0x3b
 7200 018a 0B       		.uleb128 0xb
 7201 018b 49       		.uleb128 0x49
 7202 018c 13       		.uleb128 0x13
 7203 018d 02       		.uleb128 0x2
 7204 018e 0A       		.uleb128 0xa
 7205 018f 00       		.byte	0
 7206 0190 00       		.byte	0
 7207 0191 1F       		.uleb128 0x1f
 7208 0192 34       		.uleb128 0x34
 7209 0193 00       		.byte	0
 7210 0194 03       		.uleb128 0x3
 7211 0195 08       		.uleb128 0x8
 7212 0196 3A       		.uleb128 0x3a
 7213 0197 0B       		.uleb128 0xb
 7214 0198 3B       		.uleb128 0x3b
 7215 0199 0B       		.uleb128 0xb
 7216 019a 49       		.uleb128 0x49
 7217 019b 13       		.uleb128 0x13
 7218 019c 02       		.uleb128 0x2
 7219 019d 06       		.uleb128 0x6
 7220 019e 00       		.byte	0
 7221 019f 00       		.byte	0
 7222 01a0 20       		.uleb128 0x20
 7223 01a1 34       		.uleb128 0x34
 7224 01a2 00       		.byte	0
 7225 01a3 03       		.uleb128 0x3
 7226 01a4 0E       		.uleb128 0xe
 7227 01a5 3A       		.uleb128 0x3a
ARM GAS  /tmp/ccuCtRWT.s 			page 128


 7228 01a6 0B       		.uleb128 0xb
 7229 01a7 3B       		.uleb128 0x3b
 7230 01a8 0B       		.uleb128 0xb
 7231 01a9 49       		.uleb128 0x49
 7232 01aa 13       		.uleb128 0x13
 7233 01ab 02       		.uleb128 0x2
 7234 01ac 06       		.uleb128 0x6
 7235 01ad 00       		.byte	0
 7236 01ae 00       		.byte	0
 7237 01af 21       		.uleb128 0x21
 7238 01b0 898201   		.uleb128 0x4109
 7239 01b3 01       		.byte	0x1
 7240 01b4 11       		.uleb128 0x11
 7241 01b5 01       		.uleb128 0x1
 7242 01b6 31       		.uleb128 0x31
 7243 01b7 13       		.uleb128 0x13
 7244 01b8 01       		.uleb128 0x1
 7245 01b9 13       		.uleb128 0x13
 7246 01ba 00       		.byte	0
 7247 01bb 00       		.byte	0
 7248 01bc 22       		.uleb128 0x22
 7249 01bd 8A8201   		.uleb128 0x410a
 7250 01c0 00       		.byte	0
 7251 01c1 02       		.uleb128 0x2
 7252 01c2 0A       		.uleb128 0xa
 7253 01c3 9142     		.uleb128 0x2111
 7254 01c5 0A       		.uleb128 0xa
 7255 01c6 00       		.byte	0
 7256 01c7 00       		.byte	0
 7257 01c8 23       		.uleb128 0x23
 7258 01c9 898201   		.uleb128 0x4109
 7259 01cc 00       		.byte	0
 7260 01cd 11       		.uleb128 0x11
 7261 01ce 01       		.uleb128 0x1
 7262 01cf 31       		.uleb128 0x31
 7263 01d0 13       		.uleb128 0x13
 7264 01d1 00       		.byte	0
 7265 01d2 00       		.byte	0
 7266 01d3 24       		.uleb128 0x24
 7267 01d4 05       		.uleb128 0x5
 7268 01d5 00       		.byte	0
 7269 01d6 03       		.uleb128 0x3
 7270 01d7 08       		.uleb128 0x8
 7271 01d8 3A       		.uleb128 0x3a
 7272 01d9 0B       		.uleb128 0xb
 7273 01da 3B       		.uleb128 0x3b
 7274 01db 0B       		.uleb128 0xb
 7275 01dc 49       		.uleb128 0x49
 7276 01dd 13       		.uleb128 0x13
 7277 01de 02       		.uleb128 0x2
 7278 01df 06       		.uleb128 0x6
 7279 01e0 00       		.byte	0
 7280 01e1 00       		.byte	0
 7281 01e2 25       		.uleb128 0x25
 7282 01e3 898201   		.uleb128 0x4109
 7283 01e6 01       		.byte	0x1
 7284 01e7 11       		.uleb128 0x11
ARM GAS  /tmp/ccuCtRWT.s 			page 129


 7285 01e8 01       		.uleb128 0x1
 7286 01e9 31       		.uleb128 0x31
 7287 01ea 13       		.uleb128 0x13
 7288 01eb 00       		.byte	0
 7289 01ec 00       		.byte	0
 7290 01ed 26       		.uleb128 0x26
 7291 01ee 2E       		.uleb128 0x2e
 7292 01ef 01       		.byte	0x1
 7293 01f0 31       		.uleb128 0x31
 7294 01f1 13       		.uleb128 0x13
 7295 01f2 11       		.uleb128 0x11
 7296 01f3 01       		.uleb128 0x1
 7297 01f4 12       		.uleb128 0x12
 7298 01f5 01       		.uleb128 0x1
 7299 01f6 40       		.uleb128 0x40
 7300 01f7 06       		.uleb128 0x6
 7301 01f8 9742     		.uleb128 0x2117
 7302 01fa 0C       		.uleb128 0xc
 7303 01fb 01       		.uleb128 0x1
 7304 01fc 13       		.uleb128 0x13
 7305 01fd 00       		.byte	0
 7306 01fe 00       		.byte	0
 7307 01ff 27       		.uleb128 0x27
 7308 0200 05       		.uleb128 0x5
 7309 0201 00       		.byte	0
 7310 0202 31       		.uleb128 0x31
 7311 0203 13       		.uleb128 0x13
 7312 0204 02       		.uleb128 0x2
 7313 0205 06       		.uleb128 0x6
 7314 0206 00       		.byte	0
 7315 0207 00       		.byte	0
 7316 0208 28       		.uleb128 0x28
 7317 0209 34       		.uleb128 0x34
 7318 020a 00       		.byte	0
 7319 020b 31       		.uleb128 0x31
 7320 020c 13       		.uleb128 0x13
 7321 020d 02       		.uleb128 0x2
 7322 020e 06       		.uleb128 0x6
 7323 020f 00       		.byte	0
 7324 0210 00       		.byte	0
 7325 0211 29       		.uleb128 0x29
 7326 0212 05       		.uleb128 0x5
 7327 0213 00       		.byte	0
 7328 0214 31       		.uleb128 0x31
 7329 0215 13       		.uleb128 0x13
 7330 0216 1C       		.uleb128 0x1c
 7331 0217 0B       		.uleb128 0xb
 7332 0218 00       		.byte	0
 7333 0219 00       		.byte	0
 7334 021a 2A       		.uleb128 0x2a
 7335 021b 2E       		.uleb128 0x2e
 7336 021c 01       		.byte	0x1
 7337 021d 03       		.uleb128 0x3
 7338 021e 0E       		.uleb128 0xe
 7339 021f 3A       		.uleb128 0x3a
 7340 0220 0B       		.uleb128 0xb
 7341 0221 3B       		.uleb128 0x3b
ARM GAS  /tmp/ccuCtRWT.s 			page 130


 7342 0222 05       		.uleb128 0x5
 7343 0223 27       		.uleb128 0x27
 7344 0224 0C       		.uleb128 0xc
 7345 0225 49       		.uleb128 0x49
 7346 0226 13       		.uleb128 0x13
 7347 0227 20       		.uleb128 0x20
 7348 0228 0B       		.uleb128 0xb
 7349 0229 01       		.uleb128 0x1
 7350 022a 13       		.uleb128 0x13
 7351 022b 00       		.byte	0
 7352 022c 00       		.byte	0
 7353 022d 2B       		.uleb128 0x2b
 7354 022e 05       		.uleb128 0x5
 7355 022f 00       		.byte	0
 7356 0230 03       		.uleb128 0x3
 7357 0231 08       		.uleb128 0x8
 7358 0232 3A       		.uleb128 0x3a
 7359 0233 0B       		.uleb128 0xb
 7360 0234 3B       		.uleb128 0x3b
 7361 0235 05       		.uleb128 0x5
 7362 0236 49       		.uleb128 0x49
 7363 0237 13       		.uleb128 0x13
 7364 0238 00       		.byte	0
 7365 0239 00       		.byte	0
 7366 023a 2C       		.uleb128 0x2c
 7367 023b 2E       		.uleb128 0x2e
 7368 023c 01       		.byte	0x1
 7369 023d 3F       		.uleb128 0x3f
 7370 023e 0C       		.uleb128 0xc
 7371 023f 03       		.uleb128 0x3
 7372 0240 0E       		.uleb128 0xe
 7373 0241 3A       		.uleb128 0x3a
 7374 0242 0B       		.uleb128 0xb
 7375 0243 3B       		.uleb128 0x3b
 7376 0244 05       		.uleb128 0x5
 7377 0245 27       		.uleb128 0x27
 7378 0246 0C       		.uleb128 0xc
 7379 0247 49       		.uleb128 0x49
 7380 0248 13       		.uleb128 0x13
 7381 0249 11       		.uleb128 0x11
 7382 024a 01       		.uleb128 0x1
 7383 024b 12       		.uleb128 0x12
 7384 024c 01       		.uleb128 0x1
 7385 024d 40       		.uleb128 0x40
 7386 024e 06       		.uleb128 0x6
 7387 024f 9742     		.uleb128 0x2117
 7388 0251 0C       		.uleb128 0xc
 7389 0252 01       		.uleb128 0x1
 7390 0253 13       		.uleb128 0x13
 7391 0254 00       		.byte	0
 7392 0255 00       		.byte	0
 7393 0256 2D       		.uleb128 0x2d
 7394 0257 05       		.uleb128 0x5
 7395 0258 00       		.byte	0
 7396 0259 03       		.uleb128 0x3
 7397 025a 08       		.uleb128 0x8
 7398 025b 3A       		.uleb128 0x3a
ARM GAS  /tmp/ccuCtRWT.s 			page 131


 7399 025c 0B       		.uleb128 0xb
 7400 025d 3B       		.uleb128 0x3b
 7401 025e 05       		.uleb128 0x5
 7402 025f 49       		.uleb128 0x49
 7403 0260 13       		.uleb128 0x13
 7404 0261 02       		.uleb128 0x2
 7405 0262 06       		.uleb128 0x6
 7406 0263 00       		.byte	0
 7407 0264 00       		.byte	0
 7408 0265 2E       		.uleb128 0x2e
 7409 0266 05       		.uleb128 0x5
 7410 0267 00       		.byte	0
 7411 0268 03       		.uleb128 0x3
 7412 0269 0E       		.uleb128 0xe
 7413 026a 3A       		.uleb128 0x3a
 7414 026b 0B       		.uleb128 0xb
 7415 026c 3B       		.uleb128 0x3b
 7416 026d 05       		.uleb128 0x5
 7417 026e 49       		.uleb128 0x49
 7418 026f 13       		.uleb128 0x13
 7419 0270 02       		.uleb128 0x2
 7420 0271 06       		.uleb128 0x6
 7421 0272 00       		.byte	0
 7422 0273 00       		.byte	0
 7423 0274 2F       		.uleb128 0x2f
 7424 0275 34       		.uleb128 0x34
 7425 0276 00       		.byte	0
 7426 0277 03       		.uleb128 0x3
 7427 0278 0E       		.uleb128 0xe
 7428 0279 3A       		.uleb128 0x3a
 7429 027a 0B       		.uleb128 0xb
 7430 027b 3B       		.uleb128 0x3b
 7431 027c 05       		.uleb128 0x5
 7432 027d 49       		.uleb128 0x49
 7433 027e 13       		.uleb128 0x13
 7434 027f 02       		.uleb128 0x2
 7435 0280 06       		.uleb128 0x6
 7436 0281 00       		.byte	0
 7437 0282 00       		.byte	0
 7438 0283 30       		.uleb128 0x30
 7439 0284 34       		.uleb128 0x34
 7440 0285 00       		.byte	0
 7441 0286 03       		.uleb128 0x3
 7442 0287 08       		.uleb128 0x8
 7443 0288 3A       		.uleb128 0x3a
 7444 0289 0B       		.uleb128 0xb
 7445 028a 3B       		.uleb128 0x3b
 7446 028b 05       		.uleb128 0x5
 7447 028c 49       		.uleb128 0x49
 7448 028d 13       		.uleb128 0x13
 7449 028e 02       		.uleb128 0x2
 7450 028f 06       		.uleb128 0x6
 7451 0290 00       		.byte	0
 7452 0291 00       		.byte	0
 7453 0292 31       		.uleb128 0x31
 7454 0293 34       		.uleb128 0x34
 7455 0294 00       		.byte	0
ARM GAS  /tmp/ccuCtRWT.s 			page 132


 7456 0295 03       		.uleb128 0x3
 7457 0296 0E       		.uleb128 0xe
 7458 0297 3A       		.uleb128 0x3a
 7459 0298 0B       		.uleb128 0xb
 7460 0299 3B       		.uleb128 0x3b
 7461 029a 05       		.uleb128 0x5
 7462 029b 49       		.uleb128 0x49
 7463 029c 13       		.uleb128 0x13
 7464 029d 1C       		.uleb128 0x1c
 7465 029e 0B       		.uleb128 0xb
 7466 029f 00       		.byte	0
 7467 02a0 00       		.byte	0
 7468 02a1 32       		.uleb128 0x32
 7469 02a2 34       		.uleb128 0x34
 7470 02a3 00       		.byte	0
 7471 02a4 03       		.uleb128 0x3
 7472 02a5 08       		.uleb128 0x8
 7473 02a6 3A       		.uleb128 0x3a
 7474 02a7 0B       		.uleb128 0xb
 7475 02a8 3B       		.uleb128 0x3b
 7476 02a9 05       		.uleb128 0x5
 7477 02aa 49       		.uleb128 0x49
 7478 02ab 13       		.uleb128 0x13
 7479 02ac 02       		.uleb128 0x2
 7480 02ad 0A       		.uleb128 0xa
 7481 02ae 00       		.byte	0
 7482 02af 00       		.byte	0
 7483 02b0 33       		.uleb128 0x33
 7484 02b1 0A       		.uleb128 0xa
 7485 02b2 00       		.byte	0
 7486 02b3 03       		.uleb128 0x3
 7487 02b4 0E       		.uleb128 0xe
 7488 02b5 3A       		.uleb128 0x3a
 7489 02b6 0B       		.uleb128 0xb
 7490 02b7 3B       		.uleb128 0x3b
 7491 02b8 05       		.uleb128 0x5
 7492 02b9 11       		.uleb128 0x11
 7493 02ba 01       		.uleb128 0x1
 7494 02bb 00       		.byte	0
 7495 02bc 00       		.byte	0
 7496 02bd 34       		.uleb128 0x34
 7497 02be 1D       		.uleb128 0x1d
 7498 02bf 01       		.byte	0x1
 7499 02c0 31       		.uleb128 0x31
 7500 02c1 13       		.uleb128 0x13
 7501 02c2 52       		.uleb128 0x52
 7502 02c3 01       		.uleb128 0x1
 7503 02c4 55       		.uleb128 0x55
 7504 02c5 06       		.uleb128 0x6
 7505 02c6 58       		.uleb128 0x58
 7506 02c7 0B       		.uleb128 0xb
 7507 02c8 59       		.uleb128 0x59
 7508 02c9 05       		.uleb128 0x5
 7509 02ca 01       		.uleb128 0x1
 7510 02cb 13       		.uleb128 0x13
 7511 02cc 00       		.byte	0
 7512 02cd 00       		.byte	0
ARM GAS  /tmp/ccuCtRWT.s 			page 133


 7513 02ce 35       		.uleb128 0x35
 7514 02cf 0B       		.uleb128 0xb
 7515 02d0 01       		.byte	0x1
 7516 02d1 55       		.uleb128 0x55
 7517 02d2 06       		.uleb128 0x6
 7518 02d3 01       		.uleb128 0x1
 7519 02d4 13       		.uleb128 0x13
 7520 02d5 00       		.byte	0
 7521 02d6 00       		.byte	0
 7522 02d7 36       		.uleb128 0x36
 7523 02d8 26       		.uleb128 0x26
 7524 02d9 00       		.byte	0
 7525 02da 00       		.byte	0
 7526 02db 00       		.byte	0
 7527 02dc 37       		.uleb128 0x37
 7528 02dd 0B       		.uleb128 0xb
 7529 02de 01       		.byte	0x1
 7530 02df 11       		.uleb128 0x11
 7531 02e0 01       		.uleb128 0x1
 7532 02e1 12       		.uleb128 0x12
 7533 02e2 01       		.uleb128 0x1
 7534 02e3 01       		.uleb128 0x1
 7535 02e4 13       		.uleb128 0x13
 7536 02e5 00       		.byte	0
 7537 02e6 00       		.byte	0
 7538 02e7 38       		.uleb128 0x38
 7539 02e8 2E       		.uleb128 0x2e
 7540 02e9 01       		.byte	0x1
 7541 02ea 3F       		.uleb128 0x3f
 7542 02eb 0C       		.uleb128 0xc
 7543 02ec 03       		.uleb128 0x3
 7544 02ed 0E       		.uleb128 0xe
 7545 02ee 3A       		.uleb128 0x3a
 7546 02ef 0B       		.uleb128 0xb
 7547 02f0 3B       		.uleb128 0x3b
 7548 02f1 0B       		.uleb128 0xb
 7549 02f2 27       		.uleb128 0x27
 7550 02f3 0C       		.uleb128 0xc
 7551 02f4 49       		.uleb128 0x49
 7552 02f5 13       		.uleb128 0x13
 7553 02f6 11       		.uleb128 0x11
 7554 02f7 01       		.uleb128 0x1
 7555 02f8 12       		.uleb128 0x12
 7556 02f9 01       		.uleb128 0x1
 7557 02fa 40       		.uleb128 0x40
 7558 02fb 06       		.uleb128 0x6
 7559 02fc 9742     		.uleb128 0x2117
 7560 02fe 0C       		.uleb128 0xc
 7561 02ff 01       		.uleb128 0x1
 7562 0300 13       		.uleb128 0x13
 7563 0301 00       		.byte	0
 7564 0302 00       		.byte	0
 7565 0303 39       		.uleb128 0x39
 7566 0304 898201   		.uleb128 0x4109
 7567 0307 01       		.byte	0x1
 7568 0308 11       		.uleb128 0x11
 7569 0309 01       		.uleb128 0x1
ARM GAS  /tmp/ccuCtRWT.s 			page 134


 7570 030a 9542     		.uleb128 0x2115
 7571 030c 0C       		.uleb128 0xc
 7572 030d 31       		.uleb128 0x31
 7573 030e 13       		.uleb128 0x13
 7574 030f 00       		.byte	0
 7575 0310 00       		.byte	0
 7576 0311 3A       		.uleb128 0x3a
 7577 0312 2E       		.uleb128 0x2e
 7578 0313 01       		.byte	0x1
 7579 0314 03       		.uleb128 0x3
 7580 0315 0E       		.uleb128 0xe
 7581 0316 3A       		.uleb128 0x3a
 7582 0317 0B       		.uleb128 0xb
 7583 0318 3B       		.uleb128 0x3b
 7584 0319 05       		.uleb128 0x5
 7585 031a 27       		.uleb128 0x27
 7586 031b 0C       		.uleb128 0xc
 7587 031c 20       		.uleb128 0x20
 7588 031d 0B       		.uleb128 0xb
 7589 031e 01       		.uleb128 0x1
 7590 031f 13       		.uleb128 0x13
 7591 0320 00       		.byte	0
 7592 0321 00       		.byte	0
 7593 0322 3B       		.uleb128 0x3b
 7594 0323 34       		.uleb128 0x34
 7595 0324 00       		.byte	0
 7596 0325 03       		.uleb128 0x3
 7597 0326 08       		.uleb128 0x8
 7598 0327 3A       		.uleb128 0x3a
 7599 0328 0B       		.uleb128 0xb
 7600 0329 3B       		.uleb128 0x3b
 7601 032a 05       		.uleb128 0x5
 7602 032b 49       		.uleb128 0x49
 7603 032c 13       		.uleb128 0x13
 7604 032d 00       		.byte	0
 7605 032e 00       		.byte	0
 7606 032f 3C       		.uleb128 0x3c
 7607 0330 34       		.uleb128 0x34
 7608 0331 00       		.byte	0
 7609 0332 03       		.uleb128 0x3
 7610 0333 0E       		.uleb128 0xe
 7611 0334 3A       		.uleb128 0x3a
 7612 0335 0B       		.uleb128 0xb
 7613 0336 3B       		.uleb128 0x3b
 7614 0337 05       		.uleb128 0x5
 7615 0338 49       		.uleb128 0x49
 7616 0339 13       		.uleb128 0x13
 7617 033a 00       		.byte	0
 7618 033b 00       		.byte	0
 7619 033c 3D       		.uleb128 0x3d
 7620 033d 0B       		.uleb128 0xb
 7621 033e 01       		.byte	0x1
 7622 033f 55       		.uleb128 0x55
 7623 0340 06       		.uleb128 0x6
 7624 0341 00       		.byte	0
 7625 0342 00       		.byte	0
 7626 0343 3E       		.uleb128 0x3e
ARM GAS  /tmp/ccuCtRWT.s 			page 135


 7627 0344 898201   		.uleb128 0x4109
 7628 0347 01       		.byte	0x1
 7629 0348 11       		.uleb128 0x11
 7630 0349 01       		.uleb128 0x1
 7631 034a 9542     		.uleb128 0x2115
 7632 034c 0C       		.uleb128 0xc
 7633 034d 31       		.uleb128 0x31
 7634 034e 13       		.uleb128 0x13
 7635 034f 01       		.uleb128 0x1
 7636 0350 13       		.uleb128 0x13
 7637 0351 00       		.byte	0
 7638 0352 00       		.byte	0
 7639 0353 3F       		.uleb128 0x3f
 7640 0354 2E       		.uleb128 0x2e
 7641 0355 01       		.byte	0x1
 7642 0356 3F       		.uleb128 0x3f
 7643 0357 0C       		.uleb128 0xc
 7644 0358 03       		.uleb128 0x3
 7645 0359 0E       		.uleb128 0xe
 7646 035a 3A       		.uleb128 0x3a
 7647 035b 0B       		.uleb128 0xb
 7648 035c 3B       		.uleb128 0x3b
 7649 035d 05       		.uleb128 0x5
 7650 035e 27       		.uleb128 0x27
 7651 035f 0C       		.uleb128 0xc
 7652 0360 11       		.uleb128 0x11
 7653 0361 01       		.uleb128 0x1
 7654 0362 12       		.uleb128 0x12
 7655 0363 01       		.uleb128 0x1
 7656 0364 40       		.uleb128 0x40
 7657 0365 06       		.uleb128 0x6
 7658 0366 9742     		.uleb128 0x2117
 7659 0368 0C       		.uleb128 0xc
 7660 0369 01       		.uleb128 0x1
 7661 036a 13       		.uleb128 0x13
 7662 036b 00       		.byte	0
 7663 036c 00       		.byte	0
 7664 036d 40       		.uleb128 0x40
 7665 036e 05       		.uleb128 0x5
 7666 036f 00       		.byte	0
 7667 0370 03       		.uleb128 0x3
 7668 0371 0E       		.uleb128 0xe
 7669 0372 3A       		.uleb128 0x3a
 7670 0373 0B       		.uleb128 0xb
 7671 0374 3B       		.uleb128 0x3b
 7672 0375 05       		.uleb128 0x5
 7673 0376 49       		.uleb128 0x49
 7674 0377 13       		.uleb128 0x13
 7675 0378 02       		.uleb128 0x2
 7676 0379 0A       		.uleb128 0xa
 7677 037a 00       		.byte	0
 7678 037b 00       		.byte	0
 7679 037c 41       		.uleb128 0x41
 7680 037d 34       		.uleb128 0x34
 7681 037e 00       		.byte	0
 7682 037f 03       		.uleb128 0x3
 7683 0380 0E       		.uleb128 0xe
ARM GAS  /tmp/ccuCtRWT.s 			page 136


 7684 0381 3A       		.uleb128 0x3a
 7685 0382 0B       		.uleb128 0xb
 7686 0383 3B       		.uleb128 0x3b
 7687 0384 05       		.uleb128 0x5
 7688 0385 49       		.uleb128 0x49
 7689 0386 13       		.uleb128 0x13
 7690 0387 3F       		.uleb128 0x3f
 7691 0388 0C       		.uleb128 0xc
 7692 0389 3C       		.uleb128 0x3c
 7693 038a 0C       		.uleb128 0xc
 7694 038b 00       		.byte	0
 7695 038c 00       		.byte	0
 7696 038d 42       		.uleb128 0x42
 7697 038e 34       		.uleb128 0x34
 7698 038f 00       		.byte	0
 7699 0390 03       		.uleb128 0x3
 7700 0391 0E       		.uleb128 0xe
 7701 0392 3A       		.uleb128 0x3a
 7702 0393 0B       		.uleb128 0xb
 7703 0394 3B       		.uleb128 0x3b
 7704 0395 0B       		.uleb128 0xb
 7705 0396 49       		.uleb128 0x49
 7706 0397 13       		.uleb128 0x13
 7707 0398 3F       		.uleb128 0x3f
 7708 0399 0C       		.uleb128 0xc
 7709 039a 3C       		.uleb128 0x3c
 7710 039b 0C       		.uleb128 0xc
 7711 039c 00       		.byte	0
 7712 039d 00       		.byte	0
 7713 039e 43       		.uleb128 0x43
 7714 039f 2E       		.uleb128 0x2e
 7715 03a0 01       		.byte	0x1
 7716 03a1 3F       		.uleb128 0x3f
 7717 03a2 0C       		.uleb128 0xc
 7718 03a3 03       		.uleb128 0x3
 7719 03a4 0E       		.uleb128 0xe
 7720 03a5 3A       		.uleb128 0x3a
 7721 03a6 0B       		.uleb128 0xb
 7722 03a7 3B       		.uleb128 0x3b
 7723 03a8 0B       		.uleb128 0xb
 7724 03a9 27       		.uleb128 0x27
 7725 03aa 0C       		.uleb128 0xc
 7726 03ab 49       		.uleb128 0x49
 7727 03ac 13       		.uleb128 0x13
 7728 03ad 3C       		.uleb128 0x3c
 7729 03ae 0C       		.uleb128 0xc
 7730 03af 01       		.uleb128 0x1
 7731 03b0 13       		.uleb128 0x13
 7732 03b1 00       		.byte	0
 7733 03b2 00       		.byte	0
 7734 03b3 44       		.uleb128 0x44
 7735 03b4 2E       		.uleb128 0x2e
 7736 03b5 00       		.byte	0
 7737 03b6 3F       		.uleb128 0x3f
 7738 03b7 0C       		.uleb128 0xc
 7739 03b8 03       		.uleb128 0x3
 7740 03b9 0E       		.uleb128 0xe
ARM GAS  /tmp/ccuCtRWT.s 			page 137


 7741 03ba 3A       		.uleb128 0x3a
 7742 03bb 0B       		.uleb128 0xb
 7743 03bc 3B       		.uleb128 0x3b
 7744 03bd 05       		.uleb128 0x5
 7745 03be 27       		.uleb128 0x27
 7746 03bf 0C       		.uleb128 0xc
 7747 03c0 3C       		.uleb128 0x3c
 7748 03c1 0C       		.uleb128 0xc
 7749 03c2 00       		.byte	0
 7750 03c3 00       		.byte	0
 7751 03c4 45       		.uleb128 0x45
 7752 03c5 2E       		.uleb128 0x2e
 7753 03c6 01       		.byte	0x1
 7754 03c7 3F       		.uleb128 0x3f
 7755 03c8 0C       		.uleb128 0xc
 7756 03c9 03       		.uleb128 0x3
 7757 03ca 0E       		.uleb128 0xe
 7758 03cb 3A       		.uleb128 0x3a
 7759 03cc 0B       		.uleb128 0xb
 7760 03cd 3B       		.uleb128 0x3b
 7761 03ce 05       		.uleb128 0x5
 7762 03cf 27       		.uleb128 0x27
 7763 03d0 0C       		.uleb128 0xc
 7764 03d1 3C       		.uleb128 0x3c
 7765 03d2 0C       		.uleb128 0xc
 7766 03d3 01       		.uleb128 0x1
 7767 03d4 13       		.uleb128 0x13
 7768 03d5 00       		.byte	0
 7769 03d6 00       		.byte	0
 7770 03d7 46       		.uleb128 0x46
 7771 03d8 2E       		.uleb128 0x2e
 7772 03d9 01       		.byte	0x1
 7773 03da 3F       		.uleb128 0x3f
 7774 03db 0C       		.uleb128 0xc
 7775 03dc 03       		.uleb128 0x3
 7776 03dd 0E       		.uleb128 0xe
 7777 03de 27       		.uleb128 0x27
 7778 03df 0C       		.uleb128 0xc
 7779 03e0 49       		.uleb128 0x49
 7780 03e1 13       		.uleb128 0x13
 7781 03e2 34       		.uleb128 0x34
 7782 03e3 0C       		.uleb128 0xc
 7783 03e4 3C       		.uleb128 0x3c
 7784 03e5 0C       		.uleb128 0xc
 7785 03e6 01       		.uleb128 0x1
 7786 03e7 13       		.uleb128 0x13
 7787 03e8 00       		.byte	0
 7788 03e9 00       		.byte	0
 7789 03ea 47       		.uleb128 0x47
 7790 03eb 2E       		.uleb128 0x2e
 7791 03ec 01       		.byte	0x1
 7792 03ed 3F       		.uleb128 0x3f
 7793 03ee 0C       		.uleb128 0xc
 7794 03ef 03       		.uleb128 0x3
 7795 03f0 0E       		.uleb128 0xe
 7796 03f1 3A       		.uleb128 0x3a
 7797 03f2 0B       		.uleb128 0xb
ARM GAS  /tmp/ccuCtRWT.s 			page 138


 7798 03f3 3B       		.uleb128 0x3b
 7799 03f4 0B       		.uleb128 0xb
 7800 03f5 27       		.uleb128 0x27
 7801 03f6 0C       		.uleb128 0xc
 7802 03f7 3C       		.uleb128 0x3c
 7803 03f8 0C       		.uleb128 0xc
 7804 03f9 01       		.uleb128 0x1
 7805 03fa 13       		.uleb128 0x13
 7806 03fb 00       		.byte	0
 7807 03fc 00       		.byte	0
 7808 03fd 48       		.uleb128 0x48
 7809 03fe 2E       		.uleb128 0x2e
 7810 03ff 01       		.byte	0x1
 7811 0400 3F       		.uleb128 0x3f
 7812 0401 0C       		.uleb128 0xc
 7813 0402 03       		.uleb128 0x3
 7814 0403 0E       		.uleb128 0xe
 7815 0404 3A       		.uleb128 0x3a
 7816 0405 0B       		.uleb128 0xb
 7817 0406 3B       		.uleb128 0x3b
 7818 0407 0B       		.uleb128 0xb
 7819 0408 27       		.uleb128 0x27
 7820 0409 0C       		.uleb128 0xc
 7821 040a 49       		.uleb128 0x49
 7822 040b 13       		.uleb128 0x13
 7823 040c 3C       		.uleb128 0x3c
 7824 040d 0C       		.uleb128 0xc
 7825 040e 00       		.byte	0
 7826 040f 00       		.byte	0
 7827 0410 00       		.byte	0
 7828              		.section	.debug_loc,"",%progbits
 7829              	.Ldebug_loc0:
 7830              	.LLST0:
 7831 0000 00000000 		.4byte	.LFB10
 7832 0004 04000000 		.4byte	.LCFI0
 7833 0008 0200     		.2byte	0x2
 7834 000a 7D       		.byte	0x7d
 7835 000b 00       		.sleb128 0
 7836 000c 04000000 		.4byte	.LCFI0
 7837 0010 6E000000 		.4byte	.LFE10
 7838 0014 0200     		.2byte	0x2
 7839 0016 7D       		.byte	0x7d
 7840 0017 10       		.sleb128 16
 7841 0018 00000000 		.4byte	0
 7842 001c 00000000 		.4byte	0
 7843              	.LLST1:
 7844 0020 00000000 		.4byte	.LVL0
 7845 0024 3D000000 		.4byte	.LVL9-1
 7846 0028 0100     		.2byte	0x1
 7847 002a 50       		.byte	0x50
 7848 002b 3D000000 		.4byte	.LVL9-1
 7849 002f 58000000 		.4byte	.LVL11
 7850 0033 0400     		.2byte	0x4
 7851 0035 F3       		.byte	0xf3
 7852 0036 01       		.uleb128 0x1
 7853 0037 50       		.byte	0x50
 7854 0038 9F       		.byte	0x9f
ARM GAS  /tmp/ccuCtRWT.s 			page 139


 7855 0039 58000000 		.4byte	.LVL11
 7856 003d 6E000000 		.4byte	.LFE10
 7857 0041 0100     		.2byte	0x1
 7858 0043 50       		.byte	0x50
 7859 0044 00000000 		.4byte	0
 7860 0048 00000000 		.4byte	0
 7861              	.LLST2:
 7862 004c 00000000 		.4byte	.LVL0
 7863 0050 16000000 		.4byte	.LVL3
 7864 0054 0100     		.2byte	0x1
 7865 0056 51       		.byte	0x51
 7866 0057 16000000 		.4byte	.LVL3
 7867 005b 28000000 		.4byte	.LVL6
 7868 005f 0400     		.2byte	0x4
 7869 0061 F3       		.byte	0xf3
 7870 0062 01       		.uleb128 0x1
 7871 0063 51       		.byte	0x51
 7872 0064 9F       		.byte	0x9f
 7873 0065 28000000 		.4byte	.LVL6
 7874 0069 2A000000 		.4byte	.LVL7
 7875 006d 0100     		.2byte	0x1
 7876 006f 51       		.byte	0x51
 7877 0070 2A000000 		.4byte	.LVL7
 7878 0074 6E000000 		.4byte	.LFE10
 7879 0078 0400     		.2byte	0x4
 7880 007a F3       		.byte	0xf3
 7881 007b 01       		.uleb128 0x1
 7882 007c 51       		.byte	0x51
 7883 007d 9F       		.byte	0x9f
 7884 007e 00000000 		.4byte	0
 7885 0082 00000000 		.4byte	0
 7886              	.LLST3:
 7887 0086 00000000 		.4byte	.LVL0
 7888 008a 24000000 		.4byte	.LVL4
 7889 008e 0100     		.2byte	0x1
 7890 0090 52       		.byte	0x52
 7891 0091 24000000 		.4byte	.LVL4
 7892 0095 28000000 		.4byte	.LVL6
 7893 0099 0400     		.2byte	0x4
 7894 009b F3       		.byte	0xf3
 7895 009c 01       		.uleb128 0x1
 7896 009d 52       		.byte	0x52
 7897 009e 9F       		.byte	0x9f
 7898 009f 28000000 		.4byte	.LVL6
 7899 00a3 38000000 		.4byte	.LVL8
 7900 00a7 0100     		.2byte	0x1
 7901 00a9 52       		.byte	0x52
 7902 00aa 38000000 		.4byte	.LVL8
 7903 00ae 58000000 		.4byte	.LVL11
 7904 00b2 0400     		.2byte	0x4
 7905 00b4 F3       		.byte	0xf3
 7906 00b5 01       		.uleb128 0x1
 7907 00b6 52       		.byte	0x52
 7908 00b7 9F       		.byte	0x9f
 7909 00b8 58000000 		.4byte	.LVL11
 7910 00bc 6E000000 		.4byte	.LFE10
 7911 00c0 0100     		.2byte	0x1
ARM GAS  /tmp/ccuCtRWT.s 			page 140


 7912 00c2 52       		.byte	0x52
 7913 00c3 00000000 		.4byte	0
 7914 00c7 00000000 		.4byte	0
 7915              	.LLST4:
 7916 00cb 00000000 		.4byte	.LVL0
 7917 00cf 0E000000 		.4byte	.LVL2
 7918 00d3 0100     		.2byte	0x1
 7919 00d5 53       		.byte	0x53
 7920 00d6 0E000000 		.4byte	.LVL2
 7921 00da 6E000000 		.4byte	.LFE10
 7922 00de 0100     		.2byte	0x1
 7923 00e0 56       		.byte	0x56
 7924 00e1 00000000 		.4byte	0
 7925 00e5 00000000 		.4byte	0
 7926              	.LLST5:
 7927 00e9 3E000000 		.4byte	.LVL9
 7928 00ed 49000000 		.4byte	.LVL10-1
 7929 00f1 0100     		.2byte	0x1
 7930 00f3 50       		.byte	0x50
 7931 00f4 49000000 		.4byte	.LVL10-1
 7932 00f8 58000000 		.4byte	.LVL11
 7933 00fc 0100     		.2byte	0x1
 7934 00fe 54       		.byte	0x54
 7935 00ff 00000000 		.4byte	0
 7936 0103 00000000 		.4byte	0
 7937              	.LLST6:
 7938 0107 06000000 		.4byte	.LVL1
 7939 010b 16000000 		.4byte	.LVL3
 7940 010f 0100     		.2byte	0x1
 7941 0111 51       		.byte	0x51
 7942 0112 16000000 		.4byte	.LVL3
 7943 0116 26000000 		.4byte	.LVL5
 7944 011a 0100     		.2byte	0x1
 7945 011c 55       		.byte	0x55
 7946 011d 26000000 		.4byte	.LVL5
 7947 0121 28000000 		.4byte	.LVL6
 7948 0125 0100     		.2byte	0x1
 7949 0127 52       		.byte	0x52
 7950 0128 28000000 		.4byte	.LVL6
 7951 012c 2A000000 		.4byte	.LVL7
 7952 0130 0100     		.2byte	0x1
 7953 0132 51       		.byte	0x51
 7954 0133 2A000000 		.4byte	.LVL7
 7955 0137 38000000 		.4byte	.LVL8
 7956 013b 0100     		.2byte	0x1
 7957 013d 55       		.byte	0x55
 7958 013e 38000000 		.4byte	.LVL8
 7959 0142 3D000000 		.4byte	.LVL9-1
 7960 0146 0100     		.2byte	0x1
 7961 0148 51       		.byte	0x51
 7962 0149 58000000 		.4byte	.LVL11
 7963 014d 6E000000 		.4byte	.LFE10
 7964 0151 0100     		.2byte	0x1
 7965 0153 55       		.byte	0x55
 7966 0154 00000000 		.4byte	0
 7967 0158 00000000 		.4byte	0
 7968              	.LLST7:
ARM GAS  /tmp/ccuCtRWT.s 			page 141


 7969 015c 00000000 		.4byte	.LFB9
 7970 0160 04000000 		.4byte	.LCFI1
 7971 0164 0200     		.2byte	0x2
 7972 0166 7D       		.byte	0x7d
 7973 0167 00       		.sleb128 0
 7974 0168 04000000 		.4byte	.LCFI1
 7975 016c BC000000 		.4byte	.LFE9
 7976 0170 0200     		.2byte	0x2
 7977 0172 7D       		.byte	0x7d
 7978 0173 28       		.sleb128 40
 7979 0174 00000000 		.4byte	0
 7980 0178 00000000 		.4byte	0
 7981              	.LLST8:
 7982 017c 00000000 		.4byte	.LVL12
 7983 0180 16000000 		.4byte	.LVL13
 7984 0184 0100     		.2byte	0x1
 7985 0186 50       		.byte	0x50
 7986 0187 16000000 		.4byte	.LVL13
 7987 018b BC000000 		.4byte	.LFE9
 7988 018f 0100     		.2byte	0x1
 7989 0191 58       		.byte	0x58
 7990 0192 00000000 		.4byte	0
 7991 0196 00000000 		.4byte	0
 7992              	.LLST9:
 7993 019a 00000000 		.4byte	.LVL12
 7994 019e 23000000 		.4byte	.LVL14-1
 7995 01a2 0100     		.2byte	0x1
 7996 01a4 51       		.byte	0x51
 7997 01a5 23000000 		.4byte	.LVL14-1
 7998 01a9 5C000000 		.4byte	.LVL18
 7999 01ad 0100     		.2byte	0x1
 8000 01af 56       		.byte	0x56
 8001 01b0 5C000000 		.4byte	.LVL18
 8002 01b4 98000000 		.4byte	.LVL25
 8003 01b8 0400     		.2byte	0x4
 8004 01ba F3       		.byte	0xf3
 8005 01bb 01       		.uleb128 0x1
 8006 01bc 51       		.byte	0x51
 8007 01bd 9F       		.byte	0x9f
 8008 01be 98000000 		.4byte	.LVL25
 8009 01c2 BC000000 		.4byte	.LFE9
 8010 01c6 0100     		.2byte	0x1
 8011 01c8 56       		.byte	0x56
 8012 01c9 00000000 		.4byte	0
 8013 01cd 00000000 		.4byte	0
 8014              	.LLST10:
 8015 01d1 00000000 		.4byte	.LVL12
 8016 01d5 23000000 		.4byte	.LVL14-1
 8017 01d9 0100     		.2byte	0x1
 8018 01db 52       		.byte	0x52
 8019 01dc 23000000 		.4byte	.LVL14-1
 8020 01e0 BC000000 		.4byte	.LFE9
 8021 01e4 0400     		.2byte	0x4
 8022 01e6 F3       		.byte	0xf3
 8023 01e7 01       		.uleb128 0x1
 8024 01e8 52       		.byte	0x52
 8025 01e9 9F       		.byte	0x9f
ARM GAS  /tmp/ccuCtRWT.s 			page 142


 8026 01ea 00000000 		.4byte	0
 8027 01ee 00000000 		.4byte	0
 8028              	.LLST11:
 8029 01f2 00000000 		.4byte	.LVL12
 8030 01f6 23000000 		.4byte	.LVL14-1
 8031 01fa 0100     		.2byte	0x1
 8032 01fc 53       		.byte	0x53
 8033 01fd 23000000 		.4byte	.LVL14-1
 8034 0201 BC000000 		.4byte	.LFE9
 8035 0205 0100     		.2byte	0x1
 8036 0207 5A       		.byte	0x5a
 8037 0208 00000000 		.4byte	0
 8038 020c 00000000 		.4byte	0
 8039              	.LLST12:
 8040 0210 30000000 		.4byte	.LVL15
 8041 0214 4C000000 		.4byte	.LVL16
 8042 0218 0100     		.2byte	0x1
 8043 021a 50       		.byte	0x50
 8044 021b 4C000000 		.4byte	.LVL16
 8045 021f 92000000 		.4byte	.LVL24
 8046 0223 0100     		.2byte	0x1
 8047 0225 54       		.byte	0x54
 8048 0226 98000000 		.4byte	.LVL25
 8049 022a A8000000 		.4byte	.LVL26
 8050 022e 0100     		.2byte	0x1
 8051 0230 54       		.byte	0x54
 8052 0231 A8000000 		.4byte	.LVL26
 8053 0235 AB000000 		.4byte	.LVL27-1
 8054 0239 0100     		.2byte	0x1
 8055 023b 50       		.byte	0x50
 8056 023c AE000000 		.4byte	.LVL28
 8057 0240 B0000000 		.4byte	.LVL29
 8058 0244 0100     		.2byte	0x1
 8059 0246 50       		.byte	0x50
 8060 0247 B0000000 		.4byte	.LVL29
 8061 024b BC000000 		.4byte	.LFE9
 8062 024f 0100     		.2byte	0x1
 8063 0251 54       		.byte	0x54
 8064 0252 00000000 		.4byte	0
 8065 0256 00000000 		.4byte	0
 8066              	.LLST13:
 8067 025a 30000000 		.4byte	.LVL15
 8068 025e 7A000000 		.4byte	.LVL22
 8069 0262 0100     		.2byte	0x1
 8070 0264 57       		.byte	0x57
 8071 0265 7A000000 		.4byte	.LVL22
 8072 0269 98000000 		.4byte	.LVL25
 8073 026d 2800     		.2byte	0x28
 8074 026f 3C       		.byte	0x3c
 8075 0270 30       		.byte	0x30
 8076 0271 91       		.byte	0x91
 8077 0272 00       		.sleb128 0
 8078 0273 94       		.byte	0x94
 8079 0274 01       		.byte	0x1
 8080 0275 32       		.byte	0x32
 8081 0276 1A       		.byte	0x1a
 8082 0277 08       		.byte	0x8
ARM GAS  /tmp/ccuCtRWT.s 			page 143


 8083 0278 FF       		.byte	0xff
 8084 0279 1A       		.byte	0x1a
 8085 027a 30       		.byte	0x30
 8086 027b 2E       		.byte	0x2e
 8087 027c 28       		.byte	0x28
 8088 027d 0100     		.2byte	0x1
 8089 027f 16       		.byte	0x16
 8090 0280 13       		.byte	0x13
 8091 0281 30       		.byte	0x30
 8092 0282 34       		.byte	0x34
 8093 0283 91       		.byte	0x91
 8094 0284 00       		.sleb128 0
 8095 0285 94       		.byte	0x94
 8096 0286 01       		.byte	0x1
 8097 0287 08       		.byte	0x8
 8098 0288 FF       		.byte	0xff
 8099 0289 1A       		.byte	0x1a
 8100 028a 33       		.byte	0x33
 8101 028b 24       		.byte	0x24
 8102 028c 33       		.byte	0x33
 8103 028d 25       		.byte	0x25
 8104 028e 30       		.byte	0x30
 8105 028f 29       		.byte	0x29
 8106 0290 28       		.byte	0x28
 8107 0291 0100     		.2byte	0x1
 8108 0293 16       		.byte	0x16
 8109 0294 13       		.byte	0x13
 8110 0295 22       		.byte	0x22
 8111 0296 9F       		.byte	0x9f
 8112 0297 98000000 		.4byte	.LVL25
 8113 029b BC000000 		.4byte	.LFE9
 8114 029f 0100     		.2byte	0x1
 8115 02a1 57       		.byte	0x57
 8116 02a2 00000000 		.4byte	0
 8117 02a6 00000000 		.4byte	0
 8118              	.LLST14:
 8119 02aa 00000000 		.4byte	.LFB23
 8120 02ae 04000000 		.4byte	.LCFI2
 8121 02b2 0200     		.2byte	0x2
 8122 02b4 7D       		.byte	0x7d
 8123 02b5 00       		.sleb128 0
 8124 02b6 04000000 		.4byte	.LCFI2
 8125 02ba 66000000 		.4byte	.LFE23
 8126 02be 0200     		.2byte	0x2
 8127 02c0 7D       		.byte	0x7d
 8128 02c1 18       		.sleb128 24
 8129 02c2 00000000 		.4byte	0
 8130 02c6 00000000 		.4byte	0
 8131              	.LLST15:
 8132 02ca 00000000 		.4byte	.LVL31
 8133 02ce 0C000000 		.4byte	.LVL33
 8134 02d2 0100     		.2byte	0x1
 8135 02d4 50       		.byte	0x50
 8136 02d5 0C000000 		.4byte	.LVL33
 8137 02d9 66000000 		.4byte	.LFE23
 8138 02dd 0100     		.2byte	0x1
 8139 02df 55       		.byte	0x55
ARM GAS  /tmp/ccuCtRWT.s 			page 144


 8140 02e0 00000000 		.4byte	0
 8141 02e4 00000000 		.4byte	0
 8142              	.LLST16:
 8143 02e8 00000000 		.4byte	.LVL31
 8144 02ec 02000000 		.4byte	.LVL32
 8145 02f0 0100     		.2byte	0x1
 8146 02f2 51       		.byte	0x51
 8147 02f3 02000000 		.4byte	.LVL32
 8148 02f7 66000000 		.4byte	.LFE23
 8149 02fb 0400     		.2byte	0x4
 8150 02fd F3       		.byte	0xf3
 8151 02fe 01       		.uleb128 0x1
 8152 02ff 51       		.byte	0x51
 8153 0300 9F       		.byte	0x9f
 8154 0301 00000000 		.4byte	0
 8155 0305 00000000 		.4byte	0
 8156              	.LLST17:
 8157 0309 00000000 		.4byte	.LVL31
 8158 030d 0E000000 		.4byte	.LVL34
 8159 0311 0100     		.2byte	0x1
 8160 0313 52       		.byte	0x52
 8161 0314 0E000000 		.4byte	.LVL34
 8162 0318 66000000 		.4byte	.LFE23
 8163 031c 0100     		.2byte	0x1
 8164 031e 57       		.byte	0x57
 8165 031f 00000000 		.4byte	0
 8166 0323 00000000 		.4byte	0
 8167              	.LLST18:
 8168 0327 20000000 		.4byte	.LVL37
 8169 032b 5C000000 		.4byte	.LVL43
 8170 032f 0100     		.2byte	0x1
 8171 0331 54       		.byte	0x54
 8172 0332 00000000 		.4byte	0
 8173 0336 00000000 		.4byte	0
 8174              	.LLST19:
 8175 033a 12000000 		.4byte	.LVL35
 8176 033e 1C000000 		.4byte	.LVL36
 8177 0342 0100     		.2byte	0x1
 8178 0344 50       		.byte	0x50
 8179 0345 1C000000 		.4byte	.LVL36
 8180 0349 60000000 		.4byte	.LVL44
 8181 034d 0100     		.2byte	0x1
 8182 034f 56       		.byte	0x56
 8183 0350 60000000 		.4byte	.LVL44
 8184 0354 63000000 		.4byte	.LVL45-1
 8185 0358 0100     		.2byte	0x1
 8186 035a 50       		.byte	0x50
 8187 035b 63000000 		.4byte	.LVL45-1
 8188 035f 66000000 		.4byte	.LFE23
 8189 0363 0100     		.2byte	0x1
 8190 0365 56       		.byte	0x56
 8191 0366 00000000 		.4byte	0
 8192 036a 00000000 		.4byte	0
 8193              	.LLST20:
 8194 036e 00000000 		.4byte	.LFB12
 8195 0372 04000000 		.4byte	.LCFI3
 8196 0376 0200     		.2byte	0x2
ARM GAS  /tmp/ccuCtRWT.s 			page 145


 8197 0378 7D       		.byte	0x7d
 8198 0379 00       		.sleb128 0
 8199 037a 04000000 		.4byte	.LCFI3
 8200 037e 06000000 		.4byte	.LCFI4
 8201 0382 0200     		.2byte	0x2
 8202 0384 7D       		.byte	0x7d
 8203 0385 24       		.sleb128 36
 8204 0386 06000000 		.4byte	.LCFI4
 8205 038a 78040000 		.4byte	.LFE12
 8206 038e 0300     		.2byte	0x3
 8207 0390 7D       		.byte	0x7d
 8208 0391 E000     		.sleb128 96
 8209 0393 00000000 		.4byte	0
 8210 0397 00000000 		.4byte	0
 8211              	.LLST21:
 8212 039b 00000000 		.4byte	.LVL46
 8213 039f 60000000 		.4byte	.LVL51
 8214 03a3 0100     		.2byte	0x1
 8215 03a5 50       		.byte	0x50
 8216 03a6 60000000 		.4byte	.LVL51
 8217 03aa BC010000 		.4byte	.LVL77
 8218 03ae 0100     		.2byte	0x1
 8219 03b0 55       		.byte	0x55
 8220 03b1 BC010000 		.4byte	.LVL77
 8221 03b5 CA010000 		.4byte	.LVL78
 8222 03b9 0100     		.2byte	0x1
 8223 03bb 50       		.byte	0x50
 8224 03bc CA010000 		.4byte	.LVL78
 8225 03c0 CC010000 		.4byte	.LVL79
 8226 03c4 0100     		.2byte	0x1
 8227 03c6 55       		.byte	0x55
 8228 03c7 CC010000 		.4byte	.LVL79
 8229 03cb D7010000 		.4byte	.LVL80-1
 8230 03cf 0100     		.2byte	0x1
 8231 03d1 50       		.byte	0x50
 8232 03d2 D7010000 		.4byte	.LVL80-1
 8233 03d6 16030000 		.4byte	.LVL105
 8234 03da 0100     		.2byte	0x1
 8235 03dc 55       		.byte	0x55
 8236 03dd 16030000 		.4byte	.LVL105
 8237 03e1 1E030000 		.4byte	.LVL106
 8238 03e5 0400     		.2byte	0x4
 8239 03e7 F3       		.byte	0xf3
 8240 03e8 01       		.uleb128 0x1
 8241 03e9 50       		.byte	0x50
 8242 03ea 9F       		.byte	0x9f
 8243 03eb 1E030000 		.4byte	.LVL106
 8244 03ef 24030000 		.4byte	.LVL107
 8245 03f3 0100     		.2byte	0x1
 8246 03f5 50       		.byte	0x50
 8247 03f6 24030000 		.4byte	.LVL107
 8248 03fa 98030000 		.4byte	.LVL121
 8249 03fe 0100     		.2byte	0x1
 8250 0400 55       		.byte	0x55
 8251 0401 98030000 		.4byte	.LVL121
 8252 0405 B6030000 		.4byte	.LVL122
 8253 0409 0100     		.2byte	0x1
ARM GAS  /tmp/ccuCtRWT.s 			page 146


 8254 040b 50       		.byte	0x50
 8255 040c B6030000 		.4byte	.LVL122
 8256 0410 BE030000 		.4byte	.LVL125
 8257 0414 0100     		.2byte	0x1
 8258 0416 55       		.byte	0x55
 8259 0417 BE030000 		.4byte	.LVL125
 8260 041b D8030000 		.4byte	.LVL127
 8261 041f 0100     		.2byte	0x1
 8262 0421 50       		.byte	0x50
 8263 0422 D8030000 		.4byte	.LVL127
 8264 0426 0A040000 		.4byte	.LVL136
 8265 042a 0100     		.2byte	0x1
 8266 042c 55       		.byte	0x55
 8267 042d 0A040000 		.4byte	.LVL136
 8268 0431 16040000 		.4byte	.LVL138
 8269 0435 0400     		.2byte	0x4
 8270 0437 F3       		.byte	0xf3
 8271 0438 01       		.uleb128 0x1
 8272 0439 50       		.byte	0x50
 8273 043a 9F       		.byte	0x9f
 8274 043b 16040000 		.4byte	.LVL138
 8275 043f 6C040000 		.4byte	.LVL147
 8276 0443 0100     		.2byte	0x1
 8277 0445 55       		.byte	0x55
 8278 0446 6C040000 		.4byte	.LVL147
 8279 044a 6F040000 		.4byte	.LVL148-1
 8280 044e 0100     		.2byte	0x1
 8281 0450 50       		.byte	0x50
 8282 0451 6F040000 		.4byte	.LVL148-1
 8283 0455 78040000 		.4byte	.LFE12
 8284 0459 0100     		.2byte	0x1
 8285 045b 55       		.byte	0x55
 8286 045c 00000000 		.4byte	0
 8287 0460 00000000 		.4byte	0
 8288              	.LLST22:
 8289 0464 00000000 		.4byte	.LVL46
 8290 0468 60000000 		.4byte	.LVL51
 8291 046c 0100     		.2byte	0x1
 8292 046e 51       		.byte	0x51
 8293 046f 60000000 		.4byte	.LVL51
 8294 0473 BC010000 		.4byte	.LVL77
 8295 0477 0300     		.2byte	0x3
 8296 0479 91       		.byte	0x91
 8297 047a B87F     		.sleb128 -72
 8298 047c BC010000 		.4byte	.LVL77
 8299 0480 D7010000 		.4byte	.LVL80-1
 8300 0484 0100     		.2byte	0x1
 8301 0486 51       		.byte	0x51
 8302 0487 D7010000 		.4byte	.LVL80-1
 8303 048b 1E030000 		.4byte	.LVL106
 8304 048f 0300     		.2byte	0x3
 8305 0491 91       		.byte	0x91
 8306 0492 B87F     		.sleb128 -72
 8307 0494 1E030000 		.4byte	.LVL106
 8308 0498 24030000 		.4byte	.LVL107
 8309 049c 0100     		.2byte	0x1
 8310 049e 51       		.byte	0x51
ARM GAS  /tmp/ccuCtRWT.s 			page 147


 8311 049f 24030000 		.4byte	.LVL107
 8312 04a3 98030000 		.4byte	.LVL121
 8313 04a7 0300     		.2byte	0x3
 8314 04a9 91       		.byte	0x91
 8315 04aa B87F     		.sleb128 -72
 8316 04ac 98030000 		.4byte	.LVL121
 8317 04b0 B6030000 		.4byte	.LVL122
 8318 04b4 0100     		.2byte	0x1
 8319 04b6 51       		.byte	0x51
 8320 04b7 B6030000 		.4byte	.LVL122
 8321 04bb BE030000 		.4byte	.LVL125
 8322 04bf 0300     		.2byte	0x3
 8323 04c1 91       		.byte	0x91
 8324 04c2 B87F     		.sleb128 -72
 8325 04c4 BE030000 		.4byte	.LVL125
 8326 04c8 DA030000 		.4byte	.LVL128
 8327 04cc 0100     		.2byte	0x1
 8328 04ce 51       		.byte	0x51
 8329 04cf DA030000 		.4byte	.LVL128
 8330 04d3 6C040000 		.4byte	.LVL147
 8331 04d7 0300     		.2byte	0x3
 8332 04d9 91       		.byte	0x91
 8333 04da B87F     		.sleb128 -72
 8334 04dc 6C040000 		.4byte	.LVL147
 8335 04e0 6F040000 		.4byte	.LVL148-1
 8336 04e4 0100     		.2byte	0x1
 8337 04e6 51       		.byte	0x51
 8338 04e7 6F040000 		.4byte	.LVL148-1
 8339 04eb 78040000 		.4byte	.LFE12
 8340 04ef 0300     		.2byte	0x3
 8341 04f1 91       		.byte	0x91
 8342 04f2 B87F     		.sleb128 -72
 8343 04f4 00000000 		.4byte	0
 8344 04f8 00000000 		.4byte	0
 8345              	.LLST23:
 8346 04fc 00000000 		.4byte	.LVL46
 8347 0500 60000000 		.4byte	.LVL51
 8348 0504 0100     		.2byte	0x1
 8349 0506 52       		.byte	0x52
 8350 0507 60000000 		.4byte	.LVL51
 8351 050b BC010000 		.4byte	.LVL77
 8352 050f 0400     		.2byte	0x4
 8353 0511 F3       		.byte	0xf3
 8354 0512 01       		.uleb128 0x1
 8355 0513 52       		.byte	0x52
 8356 0514 9F       		.byte	0x9f
 8357 0515 BC010000 		.4byte	.LVL77
 8358 0519 D7010000 		.4byte	.LVL80-1
 8359 051d 0100     		.2byte	0x1
 8360 051f 52       		.byte	0x52
 8361 0520 D7010000 		.4byte	.LVL80-1
 8362 0524 1E030000 		.4byte	.LVL106
 8363 0528 0400     		.2byte	0x4
 8364 052a F3       		.byte	0xf3
 8365 052b 01       		.uleb128 0x1
 8366 052c 52       		.byte	0x52
 8367 052d 9F       		.byte	0x9f
ARM GAS  /tmp/ccuCtRWT.s 			page 148


 8368 052e 1E030000 		.4byte	.LVL106
 8369 0532 24030000 		.4byte	.LVL107
 8370 0536 0100     		.2byte	0x1
 8371 0538 52       		.byte	0x52
 8372 0539 24030000 		.4byte	.LVL107
 8373 053d 98030000 		.4byte	.LVL121
 8374 0541 0400     		.2byte	0x4
 8375 0543 F3       		.byte	0xf3
 8376 0544 01       		.uleb128 0x1
 8377 0545 52       		.byte	0x52
 8378 0546 9F       		.byte	0x9f
 8379 0547 98030000 		.4byte	.LVL121
 8380 054b B6030000 		.4byte	.LVL122
 8381 054f 0100     		.2byte	0x1
 8382 0551 52       		.byte	0x52
 8383 0552 B6030000 		.4byte	.LVL122
 8384 0556 BE030000 		.4byte	.LVL125
 8385 055a 0400     		.2byte	0x4
 8386 055c F3       		.byte	0xf3
 8387 055d 01       		.uleb128 0x1
 8388 055e 52       		.byte	0x52
 8389 055f 9F       		.byte	0x9f
 8390 0560 BE030000 		.4byte	.LVL125
 8391 0564 C4030000 		.4byte	.LVL126
 8392 0568 0100     		.2byte	0x1
 8393 056a 52       		.byte	0x52
 8394 056b C4030000 		.4byte	.LVL126
 8395 056f 6C040000 		.4byte	.LVL147
 8396 0573 0400     		.2byte	0x4
 8397 0575 F3       		.byte	0xf3
 8398 0576 01       		.uleb128 0x1
 8399 0577 52       		.byte	0x52
 8400 0578 9F       		.byte	0x9f
 8401 0579 6C040000 		.4byte	.LVL147
 8402 057d 6F040000 		.4byte	.LVL148-1
 8403 0581 0100     		.2byte	0x1
 8404 0583 52       		.byte	0x52
 8405 0584 6F040000 		.4byte	.LVL148-1
 8406 0588 78040000 		.4byte	.LFE12
 8407 058c 0400     		.2byte	0x4
 8408 058e F3       		.byte	0xf3
 8409 058f 01       		.uleb128 0x1
 8410 0590 52       		.byte	0x52
 8411 0591 9F       		.byte	0x9f
 8412 0592 00000000 		.4byte	0
 8413 0596 00000000 		.4byte	0
 8414              	.LLST24:
 8415 059a 00000000 		.4byte	.LVL46
 8416 059e 0C000000 		.4byte	.LVL47
 8417 05a2 0100     		.2byte	0x1
 8418 05a4 53       		.byte	0x53
 8419 05a5 0C000000 		.4byte	.LVL47
 8420 05a9 78040000 		.4byte	.LFE12
 8421 05ad 0400     		.2byte	0x4
 8422 05af F3       		.byte	0xf3
 8423 05b0 01       		.uleb128 0x1
 8424 05b1 53       		.byte	0x53
ARM GAS  /tmp/ccuCtRWT.s 			page 149


 8425 05b2 9F       		.byte	0x9f
 8426 05b3 00000000 		.4byte	0
 8427 05b7 00000000 		.4byte	0
 8428              	.LLST25:
 8429 05bb 00000000 		.4byte	.LVL46
 8430 05bf CE000000 		.4byte	.LVL56
 8431 05c3 0200     		.2byte	0x2
 8432 05c5 30       		.byte	0x30
 8433 05c6 9F       		.byte	0x9f
 8434 05c7 CE000000 		.4byte	.LVL56
 8435 05cb E8000000 		.4byte	.LVL57
 8436 05cf 0200     		.2byte	0x2
 8437 05d1 91       		.byte	0x91
 8438 05d2 44       		.sleb128 -60
 8439 05d3 BC010000 		.4byte	.LVL77
 8440 05d7 FE010000 		.4byte	.LVL83
 8441 05db 0200     		.2byte	0x2
 8442 05dd 30       		.byte	0x30
 8443 05de 9F       		.byte	0x9f
 8444 05df D6020000 		.4byte	.LVL102
 8445 05e3 02030000 		.4byte	.LVL104
 8446 05e7 0200     		.2byte	0x2
 8447 05e9 91       		.byte	0x91
 8448 05ea 44       		.sleb128 -60
 8449 05eb 1E030000 		.4byte	.LVL106
 8450 05ef 24030000 		.4byte	.LVL107
 8451 05f3 0200     		.2byte	0x2
 8452 05f5 30       		.byte	0x30
 8453 05f6 9F       		.byte	0x9f
 8454 05f7 2E030000 		.4byte	.LVL109
 8455 05fb 84030000 		.4byte	.LVL118
 8456 05ff 0200     		.2byte	0x2
 8457 0601 30       		.byte	0x30
 8458 0602 9F       		.byte	0x9f
 8459 0603 84030000 		.4byte	.LVL118
 8460 0607 8E030000 		.4byte	.LVL119
 8461 060b 0100     		.2byte	0x1
 8462 060d 50       		.byte	0x50
 8463 060e 8E030000 		.4byte	.LVL119
 8464 0612 98030000 		.4byte	.LVL121
 8465 0616 0200     		.2byte	0x2
 8466 0618 91       		.byte	0x91
 8467 0619 44       		.sleb128 -60
 8468 061a 98030000 		.4byte	.LVL121
 8469 061e B6030000 		.4byte	.LVL122
 8470 0622 0200     		.2byte	0x2
 8471 0624 30       		.byte	0x30
 8472 0625 9F       		.byte	0x9f
 8473 0626 BE030000 		.4byte	.LVL125
 8474 062a E4030000 		.4byte	.LVL129
 8475 062e 0200     		.2byte	0x2
 8476 0630 30       		.byte	0x30
 8477 0631 9F       		.byte	0x9f
 8478 0632 E4030000 		.4byte	.LVL129
 8479 0636 EE030000 		.4byte	.LVL130
 8480 063a 0100     		.2byte	0x1
 8481 063c 50       		.byte	0x50
ARM GAS  /tmp/ccuCtRWT.s 			page 150


 8482 063d EE030000 		.4byte	.LVL130
 8483 0641 06040000 		.4byte	.LVL135
 8484 0645 0200     		.2byte	0x2
 8485 0647 91       		.byte	0x91
 8486 0648 44       		.sleb128 -60
 8487 0649 1E040000 		.4byte	.LVL140
 8488 064d 38040000 		.4byte	.LVL141
 8489 0651 0200     		.2byte	0x2
 8490 0653 30       		.byte	0x30
 8491 0654 9F       		.byte	0x9f
 8492 0655 46040000 		.4byte	.LVL143
 8493 0659 58040000 		.4byte	.LVL145
 8494 065d 0200     		.2byte	0x2
 8495 065f 30       		.byte	0x30
 8496 0660 9F       		.byte	0x9f
 8497 0661 6C040000 		.4byte	.LVL147
 8498 0665 78040000 		.4byte	.LFE12
 8499 0669 0200     		.2byte	0x2
 8500 066b 30       		.byte	0x30
 8501 066c 9F       		.byte	0x9f
 8502 066d 00000000 		.4byte	0
 8503 0671 00000000 		.4byte	0
 8504              	.LLST26:
 8505 0675 00000000 		.4byte	.LVL46
 8506 0679 60000000 		.4byte	.LVL51
 8507 067d 0200     		.2byte	0x2
 8508 067f 30       		.byte	0x30
 8509 0680 9F       		.byte	0x9f
 8510 0681 60000000 		.4byte	.LVL51
 8511 0685 E8000000 		.4byte	.LVL57
 8512 0689 0100     		.2byte	0x1
 8513 068b 5B       		.byte	0x5b
 8514 068c BC010000 		.4byte	.LVL77
 8515 0690 FE010000 		.4byte	.LVL83
 8516 0694 0200     		.2byte	0x2
 8517 0696 30       		.byte	0x30
 8518 0697 9F       		.byte	0x9f
 8519 0698 1E030000 		.4byte	.LVL106
 8520 069c 24030000 		.4byte	.LVL107
 8521 06a0 0200     		.2byte	0x2
 8522 06a2 30       		.byte	0x30
 8523 06a3 9F       		.byte	0x9f
 8524 06a4 2E030000 		.4byte	.LVL109
 8525 06a8 98030000 		.4byte	.LVL121
 8526 06ac 0100     		.2byte	0x1
 8527 06ae 5B       		.byte	0x5b
 8528 06af 98030000 		.4byte	.LVL121
 8529 06b3 B6030000 		.4byte	.LVL122
 8530 06b7 0200     		.2byte	0x2
 8531 06b9 30       		.byte	0x30
 8532 06ba 9F       		.byte	0x9f
 8533 06bb BE030000 		.4byte	.LVL125
 8534 06bf DA030000 		.4byte	.LVL128
 8535 06c3 0200     		.2byte	0x2
 8536 06c5 30       		.byte	0x30
 8537 06c6 9F       		.byte	0x9f
 8538 06c7 DA030000 		.4byte	.LVL128
ARM GAS  /tmp/ccuCtRWT.s 			page 151


 8539 06cb 06040000 		.4byte	.LVL135
 8540 06cf 0100     		.2byte	0x1
 8541 06d1 5B       		.byte	0x5b
 8542 06d2 1E040000 		.4byte	.LVL140
 8543 06d6 38040000 		.4byte	.LVL141
 8544 06da 0100     		.2byte	0x1
 8545 06dc 5B       		.byte	0x5b
 8546 06dd 46040000 		.4byte	.LVL143
 8547 06e1 58040000 		.4byte	.LVL145
 8548 06e5 0200     		.2byte	0x2
 8549 06e7 30       		.byte	0x30
 8550 06e8 9F       		.byte	0x9f
 8551 06e9 6C040000 		.4byte	.LVL147
 8552 06ed 78040000 		.4byte	.LFE12
 8553 06f1 0200     		.2byte	0x2
 8554 06f3 30       		.byte	0x30
 8555 06f4 9F       		.byte	0x9f
 8556 06f5 00000000 		.4byte	0
 8557 06f9 00000000 		.4byte	0
 8558              	.LLST27:
 8559 06fd 00000000 		.4byte	.LVL46
 8560 0701 B0000000 		.4byte	.LVL55
 8561 0705 0200     		.2byte	0x2
 8562 0707 30       		.byte	0x30
 8563 0708 9F       		.byte	0x9f
 8564 0709 CE000000 		.4byte	.LVL56
 8565 070d E8000000 		.4byte	.LVL57
 8566 0711 0100     		.2byte	0x1
 8567 0713 56       		.byte	0x56
 8568 0714 4A010000 		.4byte	.LVL67
 8569 0718 5E010000 		.4byte	.LVL68
 8570 071c 0100     		.2byte	0x1
 8571 071e 50       		.byte	0x50
 8572 071f 68010000 		.4byte	.LVL70
 8573 0723 6C010000 		.4byte	.LVL71
 8574 0727 0100     		.2byte	0x1
 8575 0729 50       		.byte	0x50
 8576 072a BC010000 		.4byte	.LVL77
 8577 072e FE010000 		.4byte	.LVL83
 8578 0732 0200     		.2byte	0x2
 8579 0734 30       		.byte	0x30
 8580 0735 9F       		.byte	0x9f
 8581 0736 04020000 		.4byte	.LVL85
 8582 073a 0C020000 		.4byte	.LVL87
 8583 073e 0100     		.2byte	0x1
 8584 0740 50       		.byte	0x50
 8585 0741 0C020000 		.4byte	.LVL87
 8586 0745 10020000 		.4byte	.LVL88
 8587 0749 0300     		.2byte	0x3
 8588 074b 91       		.byte	0x91
 8589 074c B47F     		.sleb128 -76
 8590 074e 10020000 		.4byte	.LVL88
 8591 0752 16020000 		.4byte	.LVL89
 8592 0756 0100     		.2byte	0x1
 8593 0758 50       		.byte	0x50
 8594 0759 16020000 		.4byte	.LVL89
 8595 075d BE020000 		.4byte	.LVL97
ARM GAS  /tmp/ccuCtRWT.s 			page 152


 8596 0761 0100     		.2byte	0x1
 8597 0763 56       		.byte	0x56
 8598 0764 1E030000 		.4byte	.LVL106
 8599 0768 24030000 		.4byte	.LVL107
 8600 076c 0200     		.2byte	0x2
 8601 076e 30       		.byte	0x30
 8602 076f 9F       		.byte	0x9f
 8603 0770 24030000 		.4byte	.LVL107
 8604 0774 29030000 		.4byte	.LVL108-1
 8605 0778 0100     		.2byte	0x1
 8606 077a 50       		.byte	0x50
 8607 077b 2E030000 		.4byte	.LVL109
 8608 077f 5C030000 		.4byte	.LVL116
 8609 0783 0100     		.2byte	0x1
 8610 0785 5B       		.byte	0x5b
 8611 0786 98030000 		.4byte	.LVL121
 8612 078a B6030000 		.4byte	.LVL122
 8613 078e 0200     		.2byte	0x2
 8614 0790 30       		.byte	0x30
 8615 0791 9F       		.byte	0x9f
 8616 0792 BE030000 		.4byte	.LVL125
 8617 0796 DA030000 		.4byte	.LVL128
 8618 079a 0200     		.2byte	0x2
 8619 079c 30       		.byte	0x30
 8620 079d 9F       		.byte	0x9f
 8621 079e 38040000 		.4byte	.LVL141
 8622 07a2 46040000 		.4byte	.LVL143
 8623 07a6 0100     		.2byte	0x1
 8624 07a8 56       		.byte	0x56
 8625 07a9 46040000 		.4byte	.LVL143
 8626 07ad 58040000 		.4byte	.LVL145
 8627 07b1 0200     		.2byte	0x2
 8628 07b3 30       		.byte	0x30
 8629 07b4 9F       		.byte	0x9f
 8630 07b5 58040000 		.4byte	.LVL145
 8631 07b9 6C040000 		.4byte	.LVL147
 8632 07bd 0100     		.2byte	0x1
 8633 07bf 56       		.byte	0x56
 8634 07c0 6C040000 		.4byte	.LVL147
 8635 07c4 78040000 		.4byte	.LFE12
 8636 07c8 0200     		.2byte	0x2
 8637 07ca 30       		.byte	0x30
 8638 07cb 9F       		.byte	0x9f
 8639 07cc 00000000 		.4byte	0
 8640 07d0 00000000 		.4byte	0
 8641              	.LLST28:
 8642 07d4 00000000 		.4byte	.LVL46
 8643 07d8 E8000000 		.4byte	.LVL57
 8644 07dc 0200     		.2byte	0x2
 8645 07de 30       		.byte	0x30
 8646 07df 9F       		.byte	0x9f
 8647 07e0 68010000 		.4byte	.LVL70
 8648 07e4 6C010000 		.4byte	.LVL71
 8649 07e8 0100     		.2byte	0x1
 8650 07ea 50       		.byte	0x50
 8651 07eb BC010000 		.4byte	.LVL77
 8652 07ef FE010000 		.4byte	.LVL83
ARM GAS  /tmp/ccuCtRWT.s 			page 153


 8653 07f3 0200     		.2byte	0x2
 8654 07f5 30       		.byte	0x30
 8655 07f6 9F       		.byte	0x9f
 8656 07f7 0C020000 		.4byte	.LVL87
 8657 07fb 10020000 		.4byte	.LVL88
 8658 07ff 0300     		.2byte	0x3
 8659 0801 91       		.byte	0x91
 8660 0802 B47F     		.sleb128 -76
 8661 0804 10020000 		.4byte	.LVL88
 8662 0808 16020000 		.4byte	.LVL89
 8663 080c 0100     		.2byte	0x1
 8664 080e 50       		.byte	0x50
 8665 080f 1E030000 		.4byte	.LVL106
 8666 0813 24030000 		.4byte	.LVL107
 8667 0817 0200     		.2byte	0x2
 8668 0819 30       		.byte	0x30
 8669 081a 9F       		.byte	0x9f
 8670 081b 2E030000 		.4byte	.LVL109
 8671 081f B6030000 		.4byte	.LVL122
 8672 0823 0200     		.2byte	0x2
 8673 0825 30       		.byte	0x30
 8674 0826 9F       		.byte	0x9f
 8675 0827 BE030000 		.4byte	.LVL125
 8676 082b 06040000 		.4byte	.LVL135
 8677 082f 0200     		.2byte	0x2
 8678 0831 30       		.byte	0x30
 8679 0832 9F       		.byte	0x9f
 8680 0833 1E040000 		.4byte	.LVL140
 8681 0837 38040000 		.4byte	.LVL141
 8682 083b 0200     		.2byte	0x2
 8683 083d 30       		.byte	0x30
 8684 083e 9F       		.byte	0x9f
 8685 083f 46040000 		.4byte	.LVL143
 8686 0843 58040000 		.4byte	.LVL145
 8687 0847 0200     		.2byte	0x2
 8688 0849 30       		.byte	0x30
 8689 084a 9F       		.byte	0x9f
 8690 084b 6C040000 		.4byte	.LVL147
 8691 084f 78040000 		.4byte	.LFE12
 8692 0853 0200     		.2byte	0x2
 8693 0855 30       		.byte	0x30
 8694 0856 9F       		.byte	0x9f
 8695 0857 00000000 		.4byte	0
 8696 085b 00000000 		.4byte	0
 8697              	.LLST29:
 8698 085f 00000000 		.4byte	.LVL46
 8699 0863 E8000000 		.4byte	.LVL57
 8700 0867 0200     		.2byte	0x2
 8701 0869 30       		.byte	0x30
 8702 086a 9F       		.byte	0x9f
 8703 086b 68010000 		.4byte	.LVL70
 8704 086f 6C010000 		.4byte	.LVL71
 8705 0873 0300     		.2byte	0x3
 8706 0875 91       		.byte	0x91
 8707 0876 B47F     		.sleb128 -76
 8708 0878 BC010000 		.4byte	.LVL77
 8709 087c FE010000 		.4byte	.LVL83
ARM GAS  /tmp/ccuCtRWT.s 			page 154


 8710 0880 0200     		.2byte	0x2
 8711 0882 30       		.byte	0x30
 8712 0883 9F       		.byte	0x9f
 8713 0884 0C020000 		.4byte	.LVL87
 8714 0888 16020000 		.4byte	.LVL89
 8715 088c 0300     		.2byte	0x3
 8716 088e 91       		.byte	0x91
 8717 088f B47F     		.sleb128 -76
 8718 0891 D6020000 		.4byte	.LVL102
 8719 0895 02030000 		.4byte	.LVL104
 8720 0899 0300     		.2byte	0x3
 8721 089b 91       		.byte	0x91
 8722 089c B47F     		.sleb128 -76
 8723 089e 1E030000 		.4byte	.LVL106
 8724 08a2 24030000 		.4byte	.LVL107
 8725 08a6 0200     		.2byte	0x2
 8726 08a8 30       		.byte	0x30
 8727 08a9 9F       		.byte	0x9f
 8728 08aa 2E030000 		.4byte	.LVL109
 8729 08ae B6030000 		.4byte	.LVL122
 8730 08b2 0200     		.2byte	0x2
 8731 08b4 30       		.byte	0x30
 8732 08b5 9F       		.byte	0x9f
 8733 08b6 BE030000 		.4byte	.LVL125
 8734 08ba 06040000 		.4byte	.LVL135
 8735 08be 0200     		.2byte	0x2
 8736 08c0 30       		.byte	0x30
 8737 08c1 9F       		.byte	0x9f
 8738 08c2 1E040000 		.4byte	.LVL140
 8739 08c6 38040000 		.4byte	.LVL141
 8740 08ca 0200     		.2byte	0x2
 8741 08cc 30       		.byte	0x30
 8742 08cd 9F       		.byte	0x9f
 8743 08ce 46040000 		.4byte	.LVL143
 8744 08d2 58040000 		.4byte	.LVL145
 8745 08d6 0200     		.2byte	0x2
 8746 08d8 30       		.byte	0x30
 8747 08d9 9F       		.byte	0x9f
 8748 08da 6C040000 		.4byte	.LVL147
 8749 08de 78040000 		.4byte	.LFE12
 8750 08e2 0200     		.2byte	0x2
 8751 08e4 30       		.byte	0x30
 8752 08e5 9F       		.byte	0x9f
 8753 08e6 00000000 		.4byte	0
 8754 08ea 00000000 		.4byte	0
 8755              	.LLST30:
 8756 08ee 00000000 		.4byte	.LVL46
 8757 08f2 B0000000 		.4byte	.LVL55
 8758 08f6 0200     		.2byte	0x2
 8759 08f8 30       		.byte	0x30
 8760 08f9 9F       		.byte	0x9f
 8761 08fa CE000000 		.4byte	.LVL56
 8762 08fe E8000000 		.4byte	.LVL57
 8763 0902 0100     		.2byte	0x1
 8764 0904 54       		.byte	0x54
 8765 0905 68010000 		.4byte	.LVL70
 8766 0909 6C010000 		.4byte	.LVL71
ARM GAS  /tmp/ccuCtRWT.s 			page 155


 8767 090d 0100     		.2byte	0x1
 8768 090f 54       		.byte	0x54
 8769 0910 BC010000 		.4byte	.LVL77
 8770 0914 FE010000 		.4byte	.LVL83
 8771 0918 0200     		.2byte	0x2
 8772 091a 30       		.byte	0x30
 8773 091b 9F       		.byte	0x9f
 8774 091c 0C020000 		.4byte	.LVL87
 8775 0920 10020000 		.4byte	.LVL88
 8776 0924 0100     		.2byte	0x1
 8777 0926 54       		.byte	0x54
 8778 0927 1E030000 		.4byte	.LVL106
 8779 092b 24030000 		.4byte	.LVL107
 8780 092f 0200     		.2byte	0x2
 8781 0931 30       		.byte	0x30
 8782 0932 9F       		.byte	0x9f
 8783 0933 2E030000 		.4byte	.LVL109
 8784 0937 36030000 		.4byte	.LVL110
 8785 093b 0200     		.2byte	0x2
 8786 093d 30       		.byte	0x30
 8787 093e 9F       		.byte	0x9f
 8788 093f 36030000 		.4byte	.LVL110
 8789 0943 5C030000 		.4byte	.LVL116
 8790 0947 0100     		.2byte	0x1
 8791 0949 54       		.byte	0x54
 8792 094a 98030000 		.4byte	.LVL121
 8793 094e B6030000 		.4byte	.LVL122
 8794 0952 0200     		.2byte	0x2
 8795 0954 30       		.byte	0x30
 8796 0955 9F       		.byte	0x9f
 8797 0956 BE030000 		.4byte	.LVL125
 8798 095a DA030000 		.4byte	.LVL128
 8799 095e 0200     		.2byte	0x2
 8800 0960 30       		.byte	0x30
 8801 0961 9F       		.byte	0x9f
 8802 0962 F8030000 		.4byte	.LVL132
 8803 0966 04040000 		.4byte	.LVL134
 8804 096a 0100     		.2byte	0x1
 8805 096c 56       		.byte	0x56
 8806 096d 04040000 		.4byte	.LVL134
 8807 0971 06040000 		.4byte	.LVL135
 8808 0975 0100     		.2byte	0x1
 8809 0977 54       		.byte	0x54
 8810 0978 46040000 		.4byte	.LVL143
 8811 097c 58040000 		.4byte	.LVL145
 8812 0980 0200     		.2byte	0x2
 8813 0982 30       		.byte	0x30
 8814 0983 9F       		.byte	0x9f
 8815 0984 6C040000 		.4byte	.LVL147
 8816 0988 78040000 		.4byte	.LFE12
 8817 098c 0200     		.2byte	0x2
 8818 098e 30       		.byte	0x30
 8819 098f 9F       		.byte	0x9f
 8820 0990 00000000 		.4byte	0
 8821 0994 00000000 		.4byte	0
 8822              	.LLST31:
 8823 0998 54000000 		.4byte	.LVL50
ARM GAS  /tmp/ccuCtRWT.s 			page 156


 8824 099c 60000000 		.4byte	.LVL51
 8825 09a0 0100     		.2byte	0x1
 8826 09a2 58       		.byte	0x58
 8827 09a3 CE000000 		.4byte	.LVL56
 8828 09a7 E8000000 		.4byte	.LVL57
 8829 09ab 0100     		.2byte	0x1
 8830 09ad 58       		.byte	0x58
 8831 09ae 30010000 		.4byte	.LVL65
 8832 09b2 40010000 		.4byte	.LVL66
 8833 09b6 0100     		.2byte	0x1
 8834 09b8 50       		.byte	0x50
 8835 09b9 40010000 		.4byte	.LVL66
 8836 09bd 6C010000 		.4byte	.LVL71
 8837 09c1 0100     		.2byte	0x1
 8838 09c3 58       		.byte	0x58
 8839 09c4 E0010000 		.4byte	.LVL81
 8840 09c8 E8010000 		.4byte	.LVL82
 8841 09cc 0300     		.2byte	0x3
 8842 09ce 75       		.byte	0x75
 8843 09cf F000     		.sleb128 112
 8844 09d1 04020000 		.4byte	.LVL85
 8845 09d5 10020000 		.4byte	.LVL88
 8846 09d9 0100     		.2byte	0x1
 8847 09db 58       		.byte	0x58
 8848 09dc 24030000 		.4byte	.LVL107
 8849 09e0 2E030000 		.4byte	.LVL109
 8850 09e4 0100     		.2byte	0x1
 8851 09e6 58       		.byte	0x58
 8852 09e7 B6030000 		.4byte	.LVL122
 8853 09eb B8030000 		.4byte	.LVL123
 8854 09ef 0100     		.2byte	0x1
 8855 09f1 50       		.byte	0x50
 8856 09f2 B8030000 		.4byte	.LVL123
 8857 09f6 BE030000 		.4byte	.LVL125
 8858 09fa 0100     		.2byte	0x1
 8859 09fc 58       		.byte	0x58
 8860 09fd 00040000 		.4byte	.LVL133
 8861 0a01 06040000 		.4byte	.LVL135
 8862 0a05 0100     		.2byte	0x1
 8863 0a07 50       		.byte	0x50
 8864 0a08 00000000 		.4byte	0
 8865 0a0c 00000000 		.4byte	0
 8866              	.LLST32:
 8867 0a10 14000000 		.4byte	.LVL48
 8868 0a14 EC000000 		.4byte	.LVL58
 8869 0a18 0200     		.2byte	0x2
 8870 0a1a 91       		.byte	0x91
 8871 0a1b 56       		.sleb128 -42
 8872 0a1c F2000000 		.4byte	.LVL59
 8873 0a20 FB000000 		.4byte	.LVL60-1
 8874 0a24 0100     		.2byte	0x1
 8875 0a26 53       		.byte	0x53
 8876 0a27 24010000 		.4byte	.LVL63
 8877 0a2b FE010000 		.4byte	.LVL83
 8878 0a2f 0200     		.2byte	0x2
 8879 0a31 91       		.byte	0x91
 8880 0a32 56       		.sleb128 -42
ARM GAS  /tmp/ccuCtRWT.s 			page 157


 8881 0a33 FE010000 		.4byte	.LVL83
 8882 0a37 01020000 		.4byte	.LVL84-1
 8883 0a3b 0100     		.2byte	0x1
 8884 0a3d 53       		.byte	0x53
 8885 0a3e 04020000 		.4byte	.LVL85
 8886 0a42 D0020000 		.4byte	.LVL100
 8887 0a46 0200     		.2byte	0x2
 8888 0a48 91       		.byte	0x91
 8889 0a49 56       		.sleb128 -42
 8890 0a4a D6020000 		.4byte	.LVL102
 8891 0a4e 3A030000 		.4byte	.LVL111
 8892 0a52 0200     		.2byte	0x2
 8893 0a54 91       		.byte	0x91
 8894 0a55 56       		.sleb128 -42
 8895 0a56 44030000 		.4byte	.LVL113
 8896 0a5a 78040000 		.4byte	.LFE12
 8897 0a5e 0100     		.2byte	0x1
 8898 0a60 53       		.byte	0x53
 8899 0a61 00000000 		.4byte	0
 8900 0a65 00000000 		.4byte	0
 8901              	.LLST33:
 8902 0a69 14000000 		.4byte	.LVL48
 8903 0a6d B0000000 		.4byte	.LVL55
 8904 0a71 0200     		.2byte	0x2
 8905 0a73 30       		.byte	0x30
 8906 0a74 9F       		.byte	0x9f
 8907 0a75 CE000000 		.4byte	.LVL56
 8908 0a79 E8000000 		.4byte	.LVL57
 8909 0a7d 0200     		.2byte	0x2
 8910 0a7f 91       		.byte	0x91
 8911 0a80 48       		.sleb128 -56
 8912 0a81 BC010000 		.4byte	.LVL77
 8913 0a85 FE010000 		.4byte	.LVL83
 8914 0a89 0200     		.2byte	0x2
 8915 0a8b 30       		.byte	0x30
 8916 0a8c 9F       		.byte	0x9f
 8917 0a8d 1E030000 		.4byte	.LVL106
 8918 0a91 24030000 		.4byte	.LVL107
 8919 0a95 0200     		.2byte	0x2
 8920 0a97 30       		.byte	0x30
 8921 0a98 9F       		.byte	0x9f
 8922 0a99 2E030000 		.4byte	.LVL109
 8923 0a9d 36030000 		.4byte	.LVL110
 8924 0aa1 0200     		.2byte	0x2
 8925 0aa3 30       		.byte	0x30
 8926 0aa4 9F       		.byte	0x9f
 8927 0aa5 36030000 		.4byte	.LVL110
 8928 0aa9 5C030000 		.4byte	.LVL116
 8929 0aad 0100     		.2byte	0x1
 8930 0aaf 54       		.byte	0x54
 8931 0ab0 98030000 		.4byte	.LVL121
 8932 0ab4 B6030000 		.4byte	.LVL122
 8933 0ab8 0200     		.2byte	0x2
 8934 0aba 30       		.byte	0x30
 8935 0abb 9F       		.byte	0x9f
 8936 0abc BE030000 		.4byte	.LVL125
 8937 0ac0 DA030000 		.4byte	.LVL128
ARM GAS  /tmp/ccuCtRWT.s 			page 158


 8938 0ac4 0200     		.2byte	0x2
 8939 0ac6 30       		.byte	0x30
 8940 0ac7 9F       		.byte	0x9f
 8941 0ac8 46040000 		.4byte	.LVL143
 8942 0acc 58040000 		.4byte	.LVL145
 8943 0ad0 0200     		.2byte	0x2
 8944 0ad2 30       		.byte	0x30
 8945 0ad3 9F       		.byte	0x9f
 8946 0ad4 6C040000 		.4byte	.LVL147
 8947 0ad8 78040000 		.4byte	.LFE12
 8948 0adc 0200     		.2byte	0x2
 8949 0ade 30       		.byte	0x30
 8950 0adf 9F       		.byte	0x9f
 8951 0ae0 00000000 		.4byte	0
 8952 0ae4 00000000 		.4byte	0
 8953              	.LLST34:
 8954 0ae8 1A000000 		.4byte	.LVL49
 8955 0aec 60000000 		.4byte	.LVL51
 8956 0af0 0100     		.2byte	0x1
 8957 0af2 52       		.byte	0x52
 8958 0af3 60000000 		.4byte	.LVL51
 8959 0af7 BC010000 		.4byte	.LVL77
 8960 0afb 0100     		.2byte	0x1
 8961 0afd 59       		.byte	0x59
 8962 0afe BC010000 		.4byte	.LVL77
 8963 0b02 D7010000 		.4byte	.LVL80-1
 8964 0b06 0100     		.2byte	0x1
 8965 0b08 52       		.byte	0x52
 8966 0b09 D7010000 		.4byte	.LVL80-1
 8967 0b0d 9E020000 		.4byte	.LVL96
 8968 0b11 0100     		.2byte	0x1
 8969 0b13 59       		.byte	0x59
 8970 0b14 CA020000 		.4byte	.LVL98
 8971 0b18 16030000 		.4byte	.LVL105
 8972 0b1c 0100     		.2byte	0x1
 8973 0b1e 59       		.byte	0x59
 8974 0b1f 1E030000 		.4byte	.LVL106
 8975 0b23 24030000 		.4byte	.LVL107
 8976 0b27 0100     		.2byte	0x1
 8977 0b29 52       		.byte	0x52
 8978 0b2a 24030000 		.4byte	.LVL107
 8979 0b2e 98030000 		.4byte	.LVL121
 8980 0b32 0100     		.2byte	0x1
 8981 0b34 59       		.byte	0x59
 8982 0b35 98030000 		.4byte	.LVL121
 8983 0b39 B6030000 		.4byte	.LVL122
 8984 0b3d 0100     		.2byte	0x1
 8985 0b3f 52       		.byte	0x52
 8986 0b40 B6030000 		.4byte	.LVL122
 8987 0b44 BE030000 		.4byte	.LVL125
 8988 0b48 0100     		.2byte	0x1
 8989 0b4a 59       		.byte	0x59
 8990 0b4b BE030000 		.4byte	.LVL125
 8991 0b4f C4030000 		.4byte	.LVL126
 8992 0b53 0100     		.2byte	0x1
 8993 0b55 52       		.byte	0x52
 8994 0b56 C4030000 		.4byte	.LVL126
ARM GAS  /tmp/ccuCtRWT.s 			page 159


 8995 0b5a 06040000 		.4byte	.LVL135
 8996 0b5e 0100     		.2byte	0x1
 8997 0b60 59       		.byte	0x59
 8998 0b61 16040000 		.4byte	.LVL138
 8999 0b65 38040000 		.4byte	.LVL141
 9000 0b69 0100     		.2byte	0x1
 9001 0b6b 59       		.byte	0x59
 9002 0b6c 46040000 		.4byte	.LVL143
 9003 0b70 6C040000 		.4byte	.LVL147
 9004 0b74 0100     		.2byte	0x1
 9005 0b76 59       		.byte	0x59
 9006 0b77 00000000 		.4byte	0
 9007 0b7b 00000000 		.4byte	0
 9008              	.LLST35:
 9009 0b7f 1A000000 		.4byte	.LVL49
 9010 0b83 60000000 		.4byte	.LVL51
 9011 0b87 0100     		.2byte	0x1
 9012 0b89 50       		.byte	0x50
 9013 0b8a 60000000 		.4byte	.LVL51
 9014 0b8e BC010000 		.4byte	.LVL77
 9015 0b92 0100     		.2byte	0x1
 9016 0b94 55       		.byte	0x55
 9017 0b95 BC010000 		.4byte	.LVL77
 9018 0b99 CA010000 		.4byte	.LVL78
 9019 0b9d 0100     		.2byte	0x1
 9020 0b9f 50       		.byte	0x50
 9021 0ba0 CA010000 		.4byte	.LVL78
 9022 0ba4 CC010000 		.4byte	.LVL79
 9023 0ba8 0100     		.2byte	0x1
 9024 0baa 55       		.byte	0x55
 9025 0bab CC010000 		.4byte	.LVL79
 9026 0baf D7010000 		.4byte	.LVL80-1
 9027 0bb3 0100     		.2byte	0x1
 9028 0bb5 50       		.byte	0x50
 9029 0bb6 D7010000 		.4byte	.LVL80-1
 9030 0bba 16030000 		.4byte	.LVL105
 9031 0bbe 0100     		.2byte	0x1
 9032 0bc0 55       		.byte	0x55
 9033 0bc1 1E030000 		.4byte	.LVL106
 9034 0bc5 24030000 		.4byte	.LVL107
 9035 0bc9 0100     		.2byte	0x1
 9036 0bcb 50       		.byte	0x50
 9037 0bcc 24030000 		.4byte	.LVL107
 9038 0bd0 98030000 		.4byte	.LVL121
 9039 0bd4 0100     		.2byte	0x1
 9040 0bd6 55       		.byte	0x55
 9041 0bd7 98030000 		.4byte	.LVL121
 9042 0bdb B6030000 		.4byte	.LVL122
 9043 0bdf 0100     		.2byte	0x1
 9044 0be1 50       		.byte	0x50
 9045 0be2 B6030000 		.4byte	.LVL122
 9046 0be6 BE030000 		.4byte	.LVL125
 9047 0bea 0100     		.2byte	0x1
 9048 0bec 55       		.byte	0x55
 9049 0bed BE030000 		.4byte	.LVL125
 9050 0bf1 D8030000 		.4byte	.LVL127
 9051 0bf5 0100     		.2byte	0x1
ARM GAS  /tmp/ccuCtRWT.s 			page 160


 9052 0bf7 50       		.byte	0x50
 9053 0bf8 D8030000 		.4byte	.LVL127
 9054 0bfc 0A040000 		.4byte	.LVL136
 9055 0c00 0100     		.2byte	0x1
 9056 0c02 55       		.byte	0x55
 9057 0c03 0A040000 		.4byte	.LVL136
 9058 0c07 16040000 		.4byte	.LVL138
 9059 0c0b 0400     		.2byte	0x4
 9060 0c0d F3       		.byte	0xf3
 9061 0c0e 01       		.uleb128 0x1
 9062 0c0f 50       		.byte	0x50
 9063 0c10 9F       		.byte	0x9f
 9064 0c11 16040000 		.4byte	.LVL138
 9065 0c15 6C040000 		.4byte	.LVL147
 9066 0c19 0100     		.2byte	0x1
 9067 0c1b 55       		.byte	0x55
 9068 0c1c 00000000 		.4byte	0
 9069 0c20 00000000 		.4byte	0
 9070              	.LLST36:
 9071 0c24 A2000000 		.4byte	.LVL54
 9072 0c28 B0000000 		.4byte	.LVL55
 9073 0c2c 0100     		.2byte	0x1
 9074 0c2e 5A       		.byte	0x5a
 9075 0c2f 2E030000 		.4byte	.LVL109
 9076 0c33 3E030000 		.4byte	.LVL112
 9077 0c37 0100     		.2byte	0x1
 9078 0c39 5A       		.byte	0x5a
 9079 0c3a 3E030000 		.4byte	.LVL112
 9080 0c3e 4C030000 		.4byte	.LVL114
 9081 0c42 1200     		.2byte	0x12
 9082 0c44 75       		.byte	0x75
 9083 0c45 38       		.sleb128 56
 9084 0c46 94       		.byte	0x94
 9085 0c47 02       		.byte	0x2
 9086 0c48 0A       		.byte	0xa
 9087 0c49 FFFF     		.2byte	0xffff
 9088 0c4b 1A       		.byte	0x1a
 9089 0c4c 70       		.byte	0x70
 9090 0c4d 00       		.sleb128 0
 9091 0c4e 1C       		.byte	0x1c
 9092 0c4f 71       		.byte	0x71
 9093 0c50 00       		.sleb128 0
 9094 0c51 1C       		.byte	0x1c
 9095 0c52 72       		.byte	0x72
 9096 0c53 00       		.sleb128 0
 9097 0c54 1C       		.byte	0x1c
 9098 0c55 9F       		.byte	0x9f
 9099 0c56 4C030000 		.4byte	.LVL114
 9100 0c5a 5C030000 		.4byte	.LVL116
 9101 0c5e 0100     		.2byte	0x1
 9102 0c60 5A       		.byte	0x5a
 9103 0c61 00000000 		.4byte	0
 9104 0c65 00000000 		.4byte	0
 9105              	.LLST37:
 9106 0c69 96000000 		.4byte	.LVL53
 9107 0c6d B0000000 		.4byte	.LVL55
 9108 0c71 0700     		.2byte	0x7
ARM GAS  /tmp/ccuCtRWT.s 			page 161


 9109 0c73 72       		.byte	0x72
 9110 0c74 00       		.sleb128 0
 9111 0c75 1F       		.byte	0x1f
 9112 0c76 71       		.byte	0x71
 9113 0c77 00       		.sleb128 0
 9114 0c78 1C       		.byte	0x1c
 9115 0c79 9F       		.byte	0x9f
 9116 0c7a 2E030000 		.4byte	.LVL109
 9117 0c7e 57030000 		.4byte	.LVL115-1
 9118 0c82 0700     		.2byte	0x7
 9119 0c84 72       		.byte	0x72
 9120 0c85 00       		.sleb128 0
 9121 0c86 1F       		.byte	0x1f
 9122 0c87 71       		.byte	0x71
 9123 0c88 00       		.sleb128 0
 9124 0c89 1C       		.byte	0x1c
 9125 0c8a 9F       		.byte	0x9f
 9126 0c8b 00000000 		.4byte	0
 9127 0c8f 00000000 		.4byte	0
 9128              	.LLST38:
 9129 0c93 6C030000 		.4byte	.LVL117
 9130 0c97 98030000 		.4byte	.LVL121
 9131 0c9b 0100     		.2byte	0x1
 9132 0c9d 57       		.byte	0x57
 9133 0c9e DA030000 		.4byte	.LVL128
 9134 0ca2 06040000 		.4byte	.LVL135
 9135 0ca6 0100     		.2byte	0x1
 9136 0ca8 57       		.byte	0x57
 9137 0ca9 1E040000 		.4byte	.LVL140
 9138 0cad 38040000 		.4byte	.LVL141
 9139 0cb1 0100     		.2byte	0x1
 9140 0cb3 57       		.byte	0x57
 9141 0cb4 00000000 		.4byte	0
 9142 0cb8 00000000 		.4byte	0
 9143              	.LLST39:
 9144 0cbc 16010000 		.4byte	.LVL62
 9145 0cc0 23010000 		.4byte	.LVL63-1
 9146 0cc4 0100     		.2byte	0x1
 9147 0cc6 50       		.byte	0x50
 9148 0cc7 23010000 		.4byte	.LVL63-1
 9149 0ccb 6C010000 		.4byte	.LVL71
 9150 0ccf 0100     		.2byte	0x1
 9151 0cd1 56       		.byte	0x56
 9152 0cd2 9E010000 		.4byte	.LVL74
 9153 0cd6 AE010000 		.4byte	.LVL75
 9154 0cda 0100     		.2byte	0x1
 9155 0cdc 50       		.byte	0x50
 9156 0cdd AE010000 		.4byte	.LVL75
 9157 0ce1 BC010000 		.4byte	.LVL77
 9158 0ce5 0100     		.2byte	0x1
 9159 0ce7 56       		.byte	0x56
 9160 0ce8 04020000 		.4byte	.LVL85
 9161 0cec 16020000 		.4byte	.LVL89
 9162 0cf0 0100     		.2byte	0x1
 9163 0cf2 56       		.byte	0x56
 9164 0cf3 CA020000 		.4byte	.LVL98
 9165 0cf7 CD020000 		.4byte	.LVL99-1
ARM GAS  /tmp/ccuCtRWT.s 			page 162


 9166 0cfb 0100     		.2byte	0x1
 9167 0cfd 50       		.byte	0x50
 9168 0cfe CD020000 		.4byte	.LVL99-1
 9169 0d02 D0020000 		.4byte	.LVL100
 9170 0d06 0100     		.2byte	0x1
 9171 0d08 56       		.byte	0x56
 9172 0d09 D0020000 		.4byte	.LVL100
 9173 0d0d D2020000 		.4byte	.LVL101
 9174 0d11 0100     		.2byte	0x1
 9175 0d13 50       		.byte	0x50
 9176 0d14 D2020000 		.4byte	.LVL101
 9177 0d18 D6020000 		.4byte	.LVL102
 9178 0d1c 0100     		.2byte	0x1
 9179 0d1e 56       		.byte	0x56
 9180 0d1f 24030000 		.4byte	.LVL107
 9181 0d23 2E030000 		.4byte	.LVL109
 9182 0d27 0100     		.2byte	0x1
 9183 0d29 56       		.byte	0x56
 9184 0d2a B6030000 		.4byte	.LVL122
 9185 0d2e BE030000 		.4byte	.LVL125
 9186 0d32 0100     		.2byte	0x1
 9187 0d34 56       		.byte	0x56
 9188 0d35 00000000 		.4byte	0
 9189 0d39 00000000 		.4byte	0
 9190              	.LLST40:
 9191 0d3d E8000000 		.4byte	.LVL57
 9192 0d41 60010000 		.4byte	.LVL69
 9193 0d45 0600     		.2byte	0x6
 9194 0d47 79       		.byte	0x79
 9195 0d48 00       		.sleb128 0
 9196 0d49 74       		.byte	0x74
 9197 0d4a 00       		.sleb128 0
 9198 0d4b 1C       		.byte	0x1c
 9199 0d4c 9F       		.byte	0x9f
 9200 0d4d 6C010000 		.4byte	.LVL71
 9201 0d51 BC010000 		.4byte	.LVL77
 9202 0d55 0600     		.2byte	0x6
 9203 0d57 79       		.byte	0x79
 9204 0d58 00       		.sleb128 0
 9205 0d59 74       		.byte	0x74
 9206 0d5a 00       		.sleb128 0
 9207 0d5b 1C       		.byte	0x1c
 9208 0d5c 9F       		.byte	0x9f
 9209 0d5d FE010000 		.4byte	.LVL83
 9210 0d61 06020000 		.4byte	.LVL86
 9211 0d65 0600     		.2byte	0x6
 9212 0d67 79       		.byte	0x79
 9213 0d68 00       		.sleb128 0
 9214 0d69 74       		.byte	0x74
 9215 0d6a 00       		.sleb128 0
 9216 0d6b 1C       		.byte	0x1c
 9217 0d6c 9F       		.byte	0x9f
 9218 0d6d CA020000 		.4byte	.LVL98
 9219 0d71 02030000 		.4byte	.LVL104
 9220 0d75 0600     		.2byte	0x6
 9221 0d77 79       		.byte	0x79
 9222 0d78 00       		.sleb128 0
ARM GAS  /tmp/ccuCtRWT.s 			page 163


 9223 0d79 74       		.byte	0x74
 9224 0d7a 00       		.sleb128 0
 9225 0d7b 1C       		.byte	0x1c
 9226 0d7c 9F       		.byte	0x9f
 9227 0d7d 24030000 		.4byte	.LVL107
 9228 0d81 2E030000 		.4byte	.LVL109
 9229 0d85 0600     		.2byte	0x6
 9230 0d87 79       		.byte	0x79
 9231 0d88 00       		.sleb128 0
 9232 0d89 74       		.byte	0x74
 9233 0d8a 00       		.sleb128 0
 9234 0d8b 1C       		.byte	0x1c
 9235 0d8c 9F       		.byte	0x9f
 9236 0d8d B6030000 		.4byte	.LVL122
 9237 0d91 BE030000 		.4byte	.LVL125
 9238 0d95 0600     		.2byte	0x6
 9239 0d97 79       		.byte	0x79
 9240 0d98 00       		.sleb128 0
 9241 0d99 74       		.byte	0x74
 9242 0d9a 00       		.sleb128 0
 9243 0d9b 1C       		.byte	0x1c
 9244 0d9c 9F       		.byte	0x9f
 9245 0d9d 00000000 		.4byte	0
 9246 0da1 00000000 		.4byte	0
 9247              	.LLST41:
 9248 0da5 E8000000 		.4byte	.LVL57
 9249 0da9 F2000000 		.4byte	.LVL59
 9250 0dad 0200     		.2byte	0x2
 9251 0daf 75       		.byte	0x75
 9252 0db0 38       		.sleb128 56
 9253 0db1 6E010000 		.4byte	.LVL72
 9254 0db5 9D010000 		.4byte	.LVL74-1
 9255 0db9 0200     		.2byte	0x2
 9256 0dbb 75       		.byte	0x75
 9257 0dbc 38       		.sleb128 56
 9258 0dbd FE010000 		.4byte	.LVL83
 9259 0dc1 01020000 		.4byte	.LVL84-1
 9260 0dc5 0200     		.2byte	0x2
 9261 0dc7 75       		.byte	0x75
 9262 0dc8 38       		.sleb128 56
 9263 0dc9 00000000 		.4byte	0
 9264 0dcd 00000000 		.4byte	0
 9265              	.LLST42:
 9266 0dd1 E8000000 		.4byte	.LVL57
 9267 0dd5 6C010000 		.4byte	.LVL71
 9268 0dd9 0100     		.2byte	0x1
 9269 0ddb 57       		.byte	0x57
 9270 0ddc 7C010000 		.4byte	.LVL73
 9271 0de0 BC010000 		.4byte	.LVL77
 9272 0de4 0100     		.2byte	0x1
 9273 0de6 57       		.byte	0x57
 9274 0de7 FE010000 		.4byte	.LVL83
 9275 0deb 16020000 		.4byte	.LVL89
 9276 0def 0100     		.2byte	0x1
 9277 0df1 57       		.byte	0x57
 9278 0df2 CA020000 		.4byte	.LVL98
 9279 0df6 02030000 		.4byte	.LVL104
ARM GAS  /tmp/ccuCtRWT.s 			page 164


 9280 0dfa 0100     		.2byte	0x1
 9281 0dfc 57       		.byte	0x57
 9282 0dfd 24030000 		.4byte	.LVL107
 9283 0e01 2E030000 		.4byte	.LVL109
 9284 0e05 0100     		.2byte	0x1
 9285 0e07 57       		.byte	0x57
 9286 0e08 B6030000 		.4byte	.LVL122
 9287 0e0c BE030000 		.4byte	.LVL125
 9288 0e10 0100     		.2byte	0x1
 9289 0e12 57       		.byte	0x57
 9290 0e13 00000000 		.4byte	0
 9291 0e17 00000000 		.4byte	0
 9292              	.LLST43:
 9293 0e1b FC000000 		.4byte	.LVL60
 9294 0e1f 08010000 		.4byte	.LVL61
 9295 0e23 0100     		.2byte	0x1
 9296 0e25 50       		.byte	0x50
 9297 0e26 08010000 		.4byte	.LVL61
 9298 0e2a 24010000 		.4byte	.LVL63
 9299 0e2e 0100     		.2byte	0x1
 9300 0e30 5B       		.byte	0x5b
 9301 0e31 D0020000 		.4byte	.LVL100
 9302 0e35 D6020000 		.4byte	.LVL102
 9303 0e39 0100     		.2byte	0x1
 9304 0e3b 5B       		.byte	0x5b
 9305 0e3c 00000000 		.4byte	0
 9306 0e40 00000000 		.4byte	0
 9307              	.LLST44:
 9308 0e44 1E020000 		.4byte	.LVL90
 9309 0e48 24020000 		.4byte	.LVL91
 9310 0e4c 0100     		.2byte	0x1
 9311 0e4e 54       		.byte	0x54
 9312 0e4f 44020000 		.4byte	.LVL93
 9313 0e53 4C020000 		.4byte	.LVL94
 9314 0e57 0100     		.2byte	0x1
 9315 0e59 53       		.byte	0x53
 9316 0e5a 00000000 		.4byte	0
 9317 0e5e 00000000 		.4byte	0
 9318              	.LLST45:
 9319 0e62 00000000 		.4byte	.LFB13
 9320 0e66 04000000 		.4byte	.LCFI5
 9321 0e6a 0200     		.2byte	0x2
 9322 0e6c 7D       		.byte	0x7d
 9323 0e6d 00       		.sleb128 0
 9324 0e6e 04000000 		.4byte	.LCFI5
 9325 0e72 0A000000 		.4byte	.LCFI6
 9326 0e76 0200     		.2byte	0x2
 9327 0e78 7D       		.byte	0x7d
 9328 0e79 1C       		.sleb128 28
 9329 0e7a 0A000000 		.4byte	.LCFI6
 9330 0e7e 50010000 		.4byte	.LFE13
 9331 0e82 0200     		.2byte	0x2
 9332 0e84 7D       		.byte	0x7d
 9333 0e85 28       		.sleb128 40
 9334 0e86 00000000 		.4byte	0
 9335 0e8a 00000000 		.4byte	0
 9336              	.LLST46:
ARM GAS  /tmp/ccuCtRWT.s 			page 165


 9337 0e8e 00000000 		.4byte	.LVL149
 9338 0e92 18000000 		.4byte	.LVL150
 9339 0e96 0100     		.2byte	0x1
 9340 0e98 50       		.byte	0x50
 9341 0e99 18000000 		.4byte	.LVL150
 9342 0e9d D0000000 		.4byte	.LVL164
 9343 0ea1 0100     		.2byte	0x1
 9344 0ea3 55       		.byte	0x55
 9345 0ea4 D0000000 		.4byte	.LVL164
 9346 0ea8 D3000000 		.4byte	.LVL165-1
 9347 0eac 0100     		.2byte	0x1
 9348 0eae 50       		.byte	0x50
 9349 0eaf D3000000 		.4byte	.LVL165-1
 9350 0eb3 50010000 		.4byte	.LFE13
 9351 0eb7 0100     		.2byte	0x1
 9352 0eb9 55       		.byte	0x55
 9353 0eba 00000000 		.4byte	0
 9354 0ebe 00000000 		.4byte	0
 9355              	.LLST47:
 9356 0ec2 00000000 		.4byte	.LVL149
 9357 0ec6 18000000 		.4byte	.LVL150
 9358 0eca 0100     		.2byte	0x1
 9359 0ecc 51       		.byte	0x51
 9360 0ecd 18000000 		.4byte	.LVL150
 9361 0ed1 D0000000 		.4byte	.LVL164
 9362 0ed5 0400     		.2byte	0x4
 9363 0ed7 F3       		.byte	0xf3
 9364 0ed8 01       		.uleb128 0x1
 9365 0ed9 51       		.byte	0x51
 9366 0eda 9F       		.byte	0x9f
 9367 0edb D0000000 		.4byte	.LVL164
 9368 0edf D3000000 		.4byte	.LVL165-1
 9369 0ee3 0100     		.2byte	0x1
 9370 0ee5 51       		.byte	0x51
 9371 0ee6 D3000000 		.4byte	.LVL165-1
 9372 0eea 50010000 		.4byte	.LFE13
 9373 0eee 0400     		.2byte	0x4
 9374 0ef0 F3       		.byte	0xf3
 9375 0ef1 01       		.uleb128 0x1
 9376 0ef2 51       		.byte	0x51
 9377 0ef3 9F       		.byte	0x9f
 9378 0ef4 00000000 		.4byte	0
 9379 0ef8 00000000 		.4byte	0
 9380              	.LLST48:
 9381 0efc 3A000000 		.4byte	.LVL152
 9382 0f00 46000000 		.4byte	.LVL153
 9383 0f04 0100     		.2byte	0x1
 9384 0f06 50       		.byte	0x50
 9385 0f07 46000000 		.4byte	.LVL153
 9386 0f0b 6A000000 		.4byte	.LVL157
 9387 0f0f 0100     		.2byte	0x1
 9388 0f11 54       		.byte	0x54
 9389 0f12 F8000000 		.4byte	.LVL166
 9390 0f16 FB000000 		.4byte	.LVL167-1
 9391 0f1a 0100     		.2byte	0x1
 9392 0f1c 50       		.byte	0x50
 9393 0f1d FB000000 		.4byte	.LVL167-1
ARM GAS  /tmp/ccuCtRWT.s 			page 166


 9394 0f21 04010000 		.4byte	.LVL170
 9395 0f25 0100     		.2byte	0x1
 9396 0f27 54       		.byte	0x54
 9397 0f28 0C010000 		.4byte	.LVL171
 9398 0f2c 12010000 		.4byte	.LVL173
 9399 0f30 0100     		.2byte	0x1
 9400 0f32 54       		.byte	0x54
 9401 0f33 30010000 		.4byte	.LVL176
 9402 0f37 50010000 		.4byte	.LFE13
 9403 0f3b 0100     		.2byte	0x1
 9404 0f3d 54       		.byte	0x54
 9405 0f3e 00000000 		.4byte	0
 9406 0f42 00000000 		.4byte	0
 9407              	.LLST49:
 9408 0f46 56000000 		.4byte	.LVL154
 9409 0f4a 62000000 		.4byte	.LVL156
 9410 0f4e 0100     		.2byte	0x1
 9411 0f50 50       		.byte	0x50
 9412 0f51 62000000 		.4byte	.LVL156
 9413 0f55 C2000000 		.4byte	.LVL162
 9414 0f59 0100     		.2byte	0x1
 9415 0f5b 57       		.byte	0x57
 9416 0f5c FE000000 		.4byte	.LVL168
 9417 0f60 0C010000 		.4byte	.LVL171
 9418 0f64 0100     		.2byte	0x1
 9419 0f66 57       		.byte	0x57
 9420 0f67 0C010000 		.4byte	.LVL171
 9421 0f6b 0F010000 		.4byte	.LVL172-1
 9422 0f6f 0100     		.2byte	0x1
 9423 0f71 50       		.byte	0x50
 9424 0f72 0F010000 		.4byte	.LVL172-1
 9425 0f76 20010000 		.4byte	.LVL175
 9426 0f7a 0100     		.2byte	0x1
 9427 0f7c 57       		.byte	0x57
 9428 0f7d 00000000 		.4byte	0
 9429 0f81 00000000 		.4byte	0
 9430              	.LLST50:
 9431 0f85 00000000 		.4byte	.LVL149
 9432 0f89 28000000 		.4byte	.LVL151
 9433 0f8d 0200     		.2byte	0x2
 9434 0f8f 30       		.byte	0x30
 9435 0f90 9F       		.byte	0x9f
 9436 0f91 28000000 		.4byte	.LVL151
 9437 0f95 58000000 		.4byte	.LVL155
 9438 0f99 0100     		.2byte	0x1
 9439 0f9b 57       		.byte	0x57
 9440 0f9c CA000000 		.4byte	.LVL163
 9441 0fa0 F8000000 		.4byte	.LVL166
 9442 0fa4 0200     		.2byte	0x2
 9443 0fa6 30       		.byte	0x30
 9444 0fa7 9F       		.byte	0x9f
 9445 0fa8 F8000000 		.4byte	.LVL166
 9446 0fac FE000000 		.4byte	.LVL168
 9447 0fb0 0100     		.2byte	0x1
 9448 0fb2 57       		.byte	0x57
 9449 0fb3 20010000 		.4byte	.LVL175
 9450 0fb7 30010000 		.4byte	.LVL176
ARM GAS  /tmp/ccuCtRWT.s 			page 167


 9451 0fbb 0100     		.2byte	0x1
 9452 0fbd 57       		.byte	0x57
 9453 0fbe 00000000 		.4byte	0
 9454 0fc2 00000000 		.4byte	0
 9455              	.LLST51:
 9456 0fc6 6E000000 		.4byte	.LVL158
 9457 0fca 78000000 		.4byte	.LVL160
 9458 0fce 0100     		.2byte	0x1
 9459 0fd0 54       		.byte	0x54
 9460 0fd1 00000000 		.4byte	0
 9461 0fd5 00000000 		.4byte	0
 9462              	.LLST52:
 9463 0fd9 00000000 		.4byte	.LFB8
 9464 0fdd 02000000 		.4byte	.LCFI7
 9465 0fe1 0200     		.2byte	0x2
 9466 0fe3 7D       		.byte	0x7d
 9467 0fe4 00       		.sleb128 0
 9468 0fe5 02000000 		.4byte	.LCFI7
 9469 0fe9 3E000000 		.4byte	.LFE8
 9470 0fed 0200     		.2byte	0x2
 9471 0fef 7D       		.byte	0x7d
 9472 0ff0 10       		.sleb128 16
 9473 0ff1 00000000 		.4byte	0
 9474 0ff5 00000000 		.4byte	0
 9475              	.LLST53:
 9476 0ff9 00000000 		.4byte	.LVL177
 9477 0ffd 16000000 		.4byte	.LVL180
 9478 1001 0100     		.2byte	0x1
 9479 1003 50       		.byte	0x50
 9480 1004 16000000 		.4byte	.LVL180
 9481 1008 32000000 		.4byte	.LVL185
 9482 100c 0100     		.2byte	0x1
 9483 100e 55       		.byte	0x55
 9484 100f 32000000 		.4byte	.LVL185
 9485 1013 3E000000 		.4byte	.LFE8
 9486 1017 0400     		.2byte	0x4
 9487 1019 F3       		.byte	0xf3
 9488 101a 01       		.uleb128 0x1
 9489 101b 50       		.byte	0x50
 9490 101c 9F       		.byte	0x9f
 9491 101d 00000000 		.4byte	0
 9492 1021 00000000 		.4byte	0
 9493              	.LLST54:
 9494 1025 0A000000 		.4byte	.LVL178
 9495 1029 20000000 		.4byte	.LVL182
 9496 102d 0100     		.2byte	0x1
 9497 102f 54       		.byte	0x54
 9498 1030 2C000000 		.4byte	.LVL183
 9499 1034 2E000000 		.4byte	.LVL184
 9500 1038 0100     		.2byte	0x1
 9501 103a 54       		.byte	0x54
 9502 103b 00000000 		.4byte	0
 9503 103f 00000000 		.4byte	0
 9504              	.LLST55:
 9505 1043 00000000 		.4byte	.LFB14
 9506 1047 02000000 		.4byte	.LCFI8
 9507 104b 0200     		.2byte	0x2
ARM GAS  /tmp/ccuCtRWT.s 			page 168


 9508 104d 7D       		.byte	0x7d
 9509 104e 00       		.sleb128 0
 9510 104f 02000000 		.4byte	.LCFI8
 9511 1053 06000000 		.4byte	.LCFI9
 9512 1057 0200     		.2byte	0x2
 9513 1059 7D       		.byte	0x7d
 9514 105a 14       		.sleb128 20
 9515 105b 06000000 		.4byte	.LCFI9
 9516 105f 66000000 		.4byte	.LFE14
 9517 1063 0200     		.2byte	0x2
 9518 1065 7D       		.byte	0x7d
 9519 1066 20       		.sleb128 32
 9520 1067 00000000 		.4byte	0
 9521 106b 00000000 		.4byte	0
 9522              	.LLST56:
 9523 106f 00000000 		.4byte	.LVL187
 9524 1073 08000000 		.4byte	.LVL188
 9525 1077 0100     		.2byte	0x1
 9526 1079 50       		.byte	0x50
 9527 107a 08000000 		.4byte	.LVL188
 9528 107e 66000000 		.4byte	.LFE14
 9529 1082 0100     		.2byte	0x1
 9530 1084 54       		.byte	0x54
 9531 1085 00000000 		.4byte	0
 9532 1089 00000000 		.4byte	0
 9533              	.LLST57:
 9534 108d 16000000 		.4byte	.LVL190
 9535 1091 3D000000 		.4byte	.LVL192-1
 9536 1095 0100     		.2byte	0x1
 9537 1097 50       		.byte	0x50
 9538 1098 3D000000 		.4byte	.LVL192-1
 9539 109c 62000000 		.4byte	.LVL196
 9540 10a0 0100     		.2byte	0x1
 9541 10a2 55       		.byte	0x55
 9542 10a3 62000000 		.4byte	.LVL196
 9543 10a7 64000000 		.4byte	.LVL197
 9544 10ab 0100     		.2byte	0x1
 9545 10ad 50       		.byte	0x50
 9546 10ae 64000000 		.4byte	.LVL197
 9547 10b2 66000000 		.4byte	.LFE14
 9548 10b6 0100     		.2byte	0x1
 9549 10b8 55       		.byte	0x55
 9550 10b9 00000000 		.4byte	0
 9551 10bd 00000000 		.4byte	0
 9552              	.LLST58:
 9553 10c1 22000000 		.4byte	.LVL191
 9554 10c5 5C000000 		.4byte	.LVL195
 9555 10c9 0100     		.2byte	0x1
 9556 10cb 57       		.byte	0x57
 9557 10cc 00000000 		.4byte	0
 9558 10d0 00000000 		.4byte	0
 9559              	.LLST59:
 9560 10d4 00000000 		.4byte	.LFB15
 9561 10d8 04000000 		.4byte	.LCFI10
 9562 10dc 0200     		.2byte	0x2
 9563 10de 7D       		.byte	0x7d
 9564 10df 00       		.sleb128 0
ARM GAS  /tmp/ccuCtRWT.s 			page 169


 9565 10e0 04000000 		.4byte	.LCFI10
 9566 10e4 0C000000 		.4byte	.LCFI11
 9567 10e8 0200     		.2byte	0x2
 9568 10ea 7D       		.byte	0x7d
 9569 10eb 24       		.sleb128 36
 9570 10ec 0C000000 		.4byte	.LCFI11
 9571 10f0 04030000 		.4byte	.LFE15
 9572 10f4 0200     		.2byte	0x2
 9573 10f6 7D       		.byte	0x7d
 9574 10f7 38       		.sleb128 56
 9575 10f8 00000000 		.4byte	0
 9576 10fc 00000000 		.4byte	0
 9577              	.LLST60:
 9578 1100 00000000 		.4byte	.LVL198
 9579 1104 32000000 		.4byte	.LVL200
 9580 1108 0100     		.2byte	0x1
 9581 110a 50       		.byte	0x50
 9582 110b 32000000 		.4byte	.LVL200
 9583 110f B4020000 		.4byte	.LVL246
 9584 1113 0100     		.2byte	0x1
 9585 1115 54       		.byte	0x54
 9586 1116 B4020000 		.4byte	.LVL246
 9587 111a BA020000 		.4byte	.LVL247
 9588 111e 0100     		.2byte	0x1
 9589 1120 50       		.byte	0x50
 9590 1121 BA020000 		.4byte	.LVL247
 9591 1125 04030000 		.4byte	.LFE15
 9592 1129 0100     		.2byte	0x1
 9593 112b 54       		.byte	0x54
 9594 112c 00000000 		.4byte	0
 9595 1130 00000000 		.4byte	0
 9596              	.LLST61:
 9597 1134 2C000000 		.4byte	.LVL199
 9598 1138 50020000 		.4byte	.LVL237
 9599 113c 0100     		.2byte	0x1
 9600 113e 55       		.byte	0x55
 9601 113f 58020000 		.4byte	.LVL238
 9602 1143 04030000 		.4byte	.LFE15
 9603 1147 0100     		.2byte	0x1
 9604 1149 55       		.byte	0x55
 9605 114a 00000000 		.4byte	0
 9606 114e 00000000 		.4byte	0
 9607              	.LLST62:
 9608 1152 36000000 		.4byte	.LVL201
 9609 1156 CE010000 		.4byte	.LVL224
 9610 115a 0100     		.2byte	0x1
 9611 115c 58       		.byte	0x58
 9612 115d CE010000 		.4byte	.LVL224
 9613 1161 D2010000 		.4byte	.LVL225
 9614 1165 0100     		.2byte	0x1
 9615 1167 55       		.byte	0x55
 9616 1168 D2010000 		.4byte	.LVL225
 9617 116c 2C020000 		.4byte	.LVL234
 9618 1170 0100     		.2byte	0x1
 9619 1172 58       		.byte	0x58
 9620 1173 2C020000 		.4byte	.LVL234
 9621 1177 34020000 		.4byte	.LVL236
ARM GAS  /tmp/ccuCtRWT.s 			page 170


 9622 117b 0300     		.2byte	0x3
 9623 117d 74       		.byte	0x74
 9624 117e F800     		.sleb128 120
 9625 1180 34020000 		.4byte	.LVL236
 9626 1184 50020000 		.4byte	.LVL237
 9627 1188 0100     		.2byte	0x1
 9628 118a 58       		.byte	0x58
 9629 118b 58020000 		.4byte	.LVL238
 9630 118f 8A020000 		.4byte	.LVL243
 9631 1193 0100     		.2byte	0x1
 9632 1195 55       		.byte	0x55
 9633 1196 8A020000 		.4byte	.LVL243
 9634 119a B4020000 		.4byte	.LVL246
 9635 119e 0100     		.2byte	0x1
 9636 11a0 58       		.byte	0x58
 9637 11a1 D8020000 		.4byte	.LVL249
 9638 11a5 04030000 		.4byte	.LFE15
 9639 11a9 0100     		.2byte	0x1
 9640 11ab 58       		.byte	0x58
 9641 11ac 00000000 		.4byte	0
 9642 11b0 00000000 		.4byte	0
 9643              	.LLST63:
 9644 11b4 2C000000 		.4byte	.LVL199
 9645 11b8 50020000 		.4byte	.LVL237
 9646 11bc 0100     		.2byte	0x1
 9647 11be 5A       		.byte	0x5a
 9648 11bf 58020000 		.4byte	.LVL238
 9649 11c3 04030000 		.4byte	.LFE15
 9650 11c7 0100     		.2byte	0x1
 9651 11c9 5A       		.byte	0x5a
 9652 11ca 00000000 		.4byte	0
 9653 11ce 00000000 		.4byte	0
 9654              	.LLST64:
 9655 11d2 88010000 		.4byte	.LVL218
 9656 11d6 92010000 		.4byte	.LVL219
 9657 11da 0100     		.2byte	0x1
 9658 11dc 53       		.byte	0x53
 9659 11dd 92010000 		.4byte	.LVL219
 9660 11e1 94010000 		.4byte	.LVL220
 9661 11e5 0900     		.2byte	0x9
 9662 11e7 70       		.byte	0x70
 9663 11e8 00       		.sleb128 0
 9664 11e9 76       		.byte	0x76
 9665 11ea 00       		.sleb128 0
 9666 11eb 22       		.byte	0x22
 9667 11ec 7B       		.byte	0x7b
 9668 11ed 00       		.sleb128 0
 9669 11ee 22       		.byte	0x22
 9670 11ef 9F       		.byte	0x9f
 9671 11f0 00000000 		.4byte	0
 9672 11f4 00000000 		.4byte	0
 9673              	.LLST65:
 9674 11f8 A6000000 		.4byte	.LVL204
 9675 11fc D6010000 		.4byte	.LVL227
 9676 1200 0100     		.2byte	0x1
 9677 1202 54       		.byte	0x54
 9678 1203 04020000 		.4byte	.LVL231
ARM GAS  /tmp/ccuCtRWT.s 			page 171


 9679 1207 34020000 		.4byte	.LVL236
 9680 120b 0100     		.2byte	0x1
 9681 120d 54       		.byte	0x54
 9682 120e 58020000 		.4byte	.LVL238
 9683 1212 92020000 		.4byte	.LVL245
 9684 1216 0100     		.2byte	0x1
 9685 1218 54       		.byte	0x54
 9686 1219 00000000 		.4byte	0
 9687 121d 00000000 		.4byte	0
 9688              	.LLST66:
 9689 1221 A6000000 		.4byte	.LVL204
 9690 1225 D4010000 		.4byte	.LVL226
 9691 1229 0100     		.2byte	0x1
 9692 122b 55       		.byte	0x55
 9693 122c 04020000 		.4byte	.LVL231
 9694 1230 30020000 		.4byte	.LVL235
 9695 1234 0100     		.2byte	0x1
 9696 1236 55       		.byte	0x55
 9697 1237 30020000 		.4byte	.LVL235
 9698 123b 34020000 		.4byte	.LVL236
 9699 123f 0300     		.2byte	0x3
 9700 1241 74       		.byte	0x74
 9701 1242 F800     		.sleb128 120
 9702 1244 58020000 		.4byte	.LVL238
 9703 1248 92020000 		.4byte	.LVL245
 9704 124c 0100     		.2byte	0x1
 9705 124e 55       		.byte	0x55
 9706 124f 00000000 		.4byte	0
 9707 1253 00000000 		.4byte	0
 9708              	.LLST67:
 9709 1257 1A010000 		.4byte	.LVL212
 9710 125b 24010000 		.4byte	.LVL213
 9711 125f 0100     		.2byte	0x1
 9712 1261 53       		.byte	0x53
 9713 1262 24010000 		.4byte	.LVL213
 9714 1266 3F010000 		.4byte	.LVL214-1
 9715 126a 0700     		.2byte	0x7
 9716 126c 7B       		.byte	0x7b
 9717 126d 00       		.sleb128 0
 9718 126e 70       		.byte	0x70
 9719 126f 04       		.sleb128 4
 9720 1270 06       		.byte	0x6
 9721 1271 1C       		.byte	0x1c
 9722 1272 9F       		.byte	0x9f
 9723 1273 00000000 		.4byte	0
 9724 1277 00000000 		.4byte	0
 9725              	.LLST68:
 9726 127b F2000000 		.4byte	.LVL209
 9727 127f FE000000 		.4byte	.LVL211
 9728 1283 0100     		.2byte	0x1
 9729 1285 50       		.byte	0x50
 9730 1286 00000000 		.4byte	0
 9731 128a 00000000 		.4byte	0
 9732              	.LLST69:
 9733 128e CE000000 		.4byte	.LVL207
 9734 1292 E0000000 		.4byte	.LVL208
 9735 1296 0300     		.2byte	0x3
ARM GAS  /tmp/ccuCtRWT.s 			page 172


 9736 1298 7B       		.byte	0x7b
 9737 1299 14       		.sleb128 20
 9738 129a 9F       		.byte	0x9f
 9739 129b E0000000 		.4byte	.LVL208
 9740 129f FC000000 		.4byte	.LVL210
 9741 12a3 0300     		.2byte	0x3
 9742 12a5 7B       		.byte	0x7b
 9743 12a6 18       		.sleb128 24
 9744 12a7 9F       		.byte	0x9f
 9745 12a8 00000000 		.4byte	0
 9746 12ac 00000000 		.4byte	0
 9747              	.LLST70:
 9748 12b0 5E020000 		.4byte	.LVL239
 9749 12b4 8A020000 		.4byte	.LVL243
 9750 12b8 0100     		.2byte	0x1
 9751 12ba 56       		.byte	0x56
 9752 12bb 00000000 		.4byte	0
 9753 12bf 00000000 		.4byte	0
 9754              	.LLST71:
 9755 12c3 00000000 		.4byte	.LFB17
 9756 12c7 04000000 		.4byte	.LCFI12
 9757 12cb 0200     		.2byte	0x2
 9758 12cd 7D       		.byte	0x7d
 9759 12ce 00       		.sleb128 0
 9760 12cf 04000000 		.4byte	.LCFI12
 9761 12d3 06000000 		.4byte	.LCFI13
 9762 12d7 0200     		.2byte	0x2
 9763 12d9 7D       		.byte	0x7d
 9764 12da 20       		.sleb128 32
 9765 12db 06000000 		.4byte	.LCFI13
 9766 12df B8000000 		.4byte	.LFE17
 9767 12e3 0200     		.2byte	0x2
 9768 12e5 7D       		.byte	0x7d
 9769 12e6 28       		.sleb128 40
 9770 12e7 00000000 		.4byte	0
 9771 12eb 00000000 		.4byte	0
 9772              	.LLST72:
 9773 12ef 00000000 		.4byte	.LVL251
 9774 12f3 0E000000 		.4byte	.LVL252
 9775 12f7 0100     		.2byte	0x1
 9776 12f9 50       		.byte	0x50
 9777 12fa 0E000000 		.4byte	.LVL252
 9778 12fe B8000000 		.4byte	.LFE17
 9779 1302 0100     		.2byte	0x1
 9780 1304 59       		.byte	0x59
 9781 1305 00000000 		.4byte	0
 9782 1309 00000000 		.4byte	0
 9783              	.LLST73:
 9784 130d 00000000 		.4byte	.LVL251
 9785 1311 10000000 		.4byte	.LVL253
 9786 1315 0100     		.2byte	0x1
 9787 1317 51       		.byte	0x51
 9788 1318 10000000 		.4byte	.LVL253
 9789 131c 5A000000 		.4byte	.LVL263
 9790 1320 0100     		.2byte	0x1
 9791 1322 56       		.byte	0x56
 9792 1323 5A000000 		.4byte	.LVL263
ARM GAS  /tmp/ccuCtRWT.s 			page 173


 9793 1327 A8000000 		.4byte	.LVL267
 9794 132b 0400     		.2byte	0x4
 9795 132d F3       		.byte	0xf3
 9796 132e 01       		.uleb128 0x1
 9797 132f 51       		.byte	0x51
 9798 1330 9F       		.byte	0x9f
 9799 1331 A8000000 		.4byte	.LVL267
 9800 1335 B8000000 		.4byte	.LFE17
 9801 1339 0100     		.2byte	0x1
 9802 133b 56       		.byte	0x56
 9803 133c 00000000 		.4byte	0
 9804 1340 00000000 		.4byte	0
 9805              	.LLST74:
 9806 1344 00000000 		.4byte	.LVL251
 9807 1348 12000000 		.4byte	.LVL254
 9808 134c 0100     		.2byte	0x1
 9809 134e 52       		.byte	0x52
 9810 134f 12000000 		.4byte	.LVL254
 9811 1353 B8000000 		.4byte	.LFE17
 9812 1357 0100     		.2byte	0x1
 9813 1359 58       		.byte	0x58
 9814 135a 00000000 		.4byte	0
 9815 135e 00000000 		.4byte	0
 9816              	.LLST75:
 9817 1362 00000000 		.4byte	.LVL251
 9818 1366 1F000000 		.4byte	.LVL255-1
 9819 136a 0100     		.2byte	0x1
 9820 136c 53       		.byte	0x53
 9821 136d 1F000000 		.4byte	.LVL255-1
 9822 1371 B8000000 		.4byte	.LFE17
 9823 1375 0100     		.2byte	0x1
 9824 1377 57       		.byte	0x57
 9825 1378 00000000 		.4byte	0
 9826 137c 00000000 		.4byte	0
 9827              	.LLST76:
 9828 1380 20000000 		.4byte	.LVL255
 9829 1384 2C000000 		.4byte	.LVL256
 9830 1388 0100     		.2byte	0x1
 9831 138a 50       		.byte	0x50
 9832 138b 2C000000 		.4byte	.LVL256
 9833 138f A8000000 		.4byte	.LVL267
 9834 1393 0100     		.2byte	0x1
 9835 1395 55       		.byte	0x55
 9836 1396 A8000000 		.4byte	.LVL267
 9837 139a AB000000 		.4byte	.LVL268-1
 9838 139e 0100     		.2byte	0x1
 9839 13a0 50       		.byte	0x50
 9840 13a1 AB000000 		.4byte	.LVL268-1
 9841 13a5 AE000000 		.4byte	.LVL269
 9842 13a9 0100     		.2byte	0x1
 9843 13ab 55       		.byte	0x55
 9844 13ac AE000000 		.4byte	.LVL269
 9845 13b0 B8000000 		.4byte	.LFE17
 9846 13b4 0100     		.2byte	0x1
 9847 13b6 50       		.byte	0x50
 9848 13b7 00000000 		.4byte	0
 9849 13bb 00000000 		.4byte	0
ARM GAS  /tmp/ccuCtRWT.s 			page 174


 9850              	.LLST77:
 9851 13bf 30000000 		.4byte	.LVL257
 9852 13c3 84000000 		.4byte	.LVL265
 9853 13c7 0100     		.2byte	0x1
 9854 13c9 54       		.byte	0x54
 9855 13ca 00000000 		.4byte	0
 9856 13ce 00000000 		.4byte	0
 9857              	.LLST78:
 9858 13d2 00000000 		.4byte	.LFB18
 9859 13d6 04000000 		.4byte	.LCFI14
 9860 13da 0200     		.2byte	0x2
 9861 13dc 7D       		.byte	0x7d
 9862 13dd 00       		.sleb128 0
 9863 13de 04000000 		.4byte	.LCFI14
 9864 13e2 30000000 		.4byte	.LFE18
 9865 13e6 0200     		.2byte	0x2
 9866 13e8 7D       		.byte	0x7d
 9867 13e9 04       		.sleb128 4
 9868 13ea 00000000 		.4byte	0
 9869 13ee 00000000 		.4byte	0
 9870              	.LLST79:
 9871 13f2 00000000 		.4byte	.LVL270
 9872 13f6 2B000000 		.4byte	.LVL274-1
 9873 13fa 0100     		.2byte	0x1
 9874 13fc 50       		.byte	0x50
 9875 13fd 2B000000 		.4byte	.LVL274-1
 9876 1401 2C000000 		.4byte	.LVL274
 9877 1405 0400     		.2byte	0x4
 9878 1407 F3       		.byte	0xf3
 9879 1408 01       		.uleb128 0x1
 9880 1409 50       		.byte	0x50
 9881 140a 9F       		.byte	0x9f
 9882 140b 2C000000 		.4byte	.LVL274
 9883 140f 30000000 		.4byte	.LFE18
 9884 1413 0100     		.2byte	0x1
 9885 1415 50       		.byte	0x50
 9886 1416 00000000 		.4byte	0
 9887 141a 00000000 		.4byte	0
 9888              	.LLST80:
 9889 141e 0A000000 		.4byte	.LVL271
 9890 1422 1A000000 		.4byte	.LVL273
 9891 1426 0100     		.2byte	0x1
 9892 1428 52       		.byte	0x52
 9893 1429 00000000 		.4byte	0
 9894 142d 00000000 		.4byte	0
 9895              	.LLST81:
 9896 1431 00000000 		.4byte	.LFB19
 9897 1435 02000000 		.4byte	.LCFI15
 9898 1439 0200     		.2byte	0x2
 9899 143b 7D       		.byte	0x7d
 9900 143c 00       		.sleb128 0
 9901 143d 02000000 		.4byte	.LCFI15
 9902 1441 4A000000 		.4byte	.LFE19
 9903 1445 0200     		.2byte	0x2
 9904 1447 7D       		.byte	0x7d
 9905 1448 18       		.sleb128 24
 9906 1449 00000000 		.4byte	0
ARM GAS  /tmp/ccuCtRWT.s 			page 175


 9907 144d 00000000 		.4byte	0
 9908              	.LLST82:
 9909 1451 00000000 		.4byte	.LVL275
 9910 1455 16000000 		.4byte	.LVL278
 9911 1459 0100     		.2byte	0x1
 9912 145b 50       		.byte	0x50
 9913 145c 16000000 		.4byte	.LVL278
 9914 1460 4A000000 		.4byte	.LFE19
 9915 1464 0100     		.2byte	0x1
 9916 1466 57       		.byte	0x57
 9917 1467 00000000 		.4byte	0
 9918 146b 00000000 		.4byte	0
 9919              	.LLST83:
 9920 146f 08000000 		.4byte	.LVL276
 9921 1473 48000000 		.4byte	.LVL282
 9922 1477 0100     		.2byte	0x1
 9923 1479 56       		.byte	0x56
 9924 147a 00000000 		.4byte	0
 9925 147e 00000000 		.4byte	0
 9926              	.LLST84:
 9927 1482 12000000 		.4byte	.LVL277
 9928 1486 48000000 		.4byte	.LVL282
 9929 148a 0100     		.2byte	0x1
 9930 148c 54       		.byte	0x54
 9931 148d 00000000 		.4byte	0
 9932 1491 00000000 		.4byte	0
 9933              	.LLST85:
 9934 1495 00000000 		.4byte	.LFB20
 9935 1499 04000000 		.4byte	.LCFI16
 9936 149d 0200     		.2byte	0x2
 9937 149f 7D       		.byte	0x7d
 9938 14a0 00       		.sleb128 0
 9939 14a1 04000000 		.4byte	.LCFI16
 9940 14a5 5A000000 		.4byte	.LFE20
 9941 14a9 0200     		.2byte	0x2
 9942 14ab 7D       		.byte	0x7d
 9943 14ac 08       		.sleb128 8
 9944 14ad 00000000 		.4byte	0
 9945 14b1 00000000 		.4byte	0
 9946              	.LLST86:
 9947 14b5 00000000 		.4byte	.LVL283
 9948 14b9 19000000 		.4byte	.LVL284-1
 9949 14bd 0100     		.2byte	0x1
 9950 14bf 50       		.byte	0x50
 9951 14c0 19000000 		.4byte	.LVL284-1
 9952 14c4 5A000000 		.4byte	.LFE20
 9953 14c8 0100     		.2byte	0x1
 9954 14ca 54       		.byte	0x54
 9955 14cb 00000000 		.4byte	0
 9956 14cf 00000000 		.4byte	0
 9957              	.LLST87:
 9958 14d3 00000000 		.4byte	.LFB21
 9959 14d7 02000000 		.4byte	.LCFI17
 9960 14db 0200     		.2byte	0x2
 9961 14dd 7D       		.byte	0x7d
 9962 14de 00       		.sleb128 0
 9963 14df 02000000 		.4byte	.LCFI17
ARM GAS  /tmp/ccuCtRWT.s 			page 176


 9964 14e3 08000000 		.4byte	.LCFI18
 9965 14e7 0200     		.2byte	0x2
 9966 14e9 7D       		.byte	0x7d
 9967 14ea 14       		.sleb128 20
 9968 14eb 08000000 		.4byte	.LCFI18
 9969 14ef 68000000 		.4byte	.LFE21
 9970 14f3 0200     		.2byte	0x2
 9971 14f5 7D       		.byte	0x7d
 9972 14f6 20       		.sleb128 32
 9973 14f7 00000000 		.4byte	0
 9974 14fb 00000000 		.4byte	0
 9975              	.LLST88:
 9976 14ff 00000000 		.4byte	.LVL285
 9977 1503 06000000 		.4byte	.LVL286
 9978 1507 0100     		.2byte	0x1
 9979 1509 50       		.byte	0x50
 9980 150a 06000000 		.4byte	.LVL286
 9981 150e 68000000 		.4byte	.LFE21
 9982 1512 0100     		.2byte	0x1
 9983 1514 54       		.byte	0x54
 9984 1515 00000000 		.4byte	0
 9985 1519 00000000 		.4byte	0
 9986              	.LLST89:
 9987 151d 18000000 		.4byte	.LVL288
 9988 1521 2D000000 		.4byte	.LVL290-1
 9989 1525 0100     		.2byte	0x1
 9990 1527 50       		.byte	0x50
 9991 1528 2D000000 		.4byte	.LVL290-1
 9992 152c 5E000000 		.4byte	.LVL292
 9993 1530 0100     		.2byte	0x1
 9994 1532 55       		.byte	0x55
 9995 1533 5E000000 		.4byte	.LVL292
 9996 1537 68000000 		.4byte	.LFE21
 9997 153b 0100     		.2byte	0x1
 9998 153d 50       		.byte	0x50
 9999 153e 00000000 		.4byte	0
 10000 1542 00000000 		.4byte	0
 10001              	.LLST90:
 10002 1546 20000000 		.4byte	.LVL289
 10003 154a 5E000000 		.4byte	.LVL292
 10004 154e 0100     		.2byte	0x1
 10005 1550 57       		.byte	0x57
 10006 1551 00000000 		.4byte	0
 10007 1555 00000000 		.4byte	0
 10008              	.LLST91:
 10009 1559 00000000 		.4byte	.LFB22
 10010 155d 04000000 		.4byte	.LCFI19
 10011 1561 0200     		.2byte	0x2
 10012 1563 7D       		.byte	0x7d
 10013 1564 00       		.sleb128 0
 10014 1565 04000000 		.4byte	.LCFI19
 10015 1569 08000000 		.4byte	.LCFI20
 10016 156d 0200     		.2byte	0x2
 10017 156f 7D       		.byte	0x7d
 10018 1570 18       		.sleb128 24
 10019 1571 08000000 		.4byte	.LCFI20
 10020 1575 D8000000 		.4byte	.LFE22
ARM GAS  /tmp/ccuCtRWT.s 			page 177


 10021 1579 0200     		.2byte	0x2
 10022 157b 7D       		.byte	0x7d
 10023 157c 20       		.sleb128 32
 10024 157d 00000000 		.4byte	0
 10025 1581 00000000 		.4byte	0
 10026              	.LLST92:
 10027 1585 00000000 		.4byte	.LVL293
 10028 1589 12000000 		.4byte	.LVL295
 10029 158d 0100     		.2byte	0x1
 10030 158f 50       		.byte	0x50
 10031 1590 12000000 		.4byte	.LVL295
 10032 1594 C6000000 		.4byte	.LVL312
 10033 1598 0100     		.2byte	0x1
 10034 159a 54       		.byte	0x54
 10035 159b C6000000 		.4byte	.LVL312
 10036 159f CC000000 		.4byte	.LVL314
 10037 15a3 0100     		.2byte	0x1
 10038 15a5 50       		.byte	0x50
 10039 15a6 CC000000 		.4byte	.LVL314
 10040 15aa D8000000 		.4byte	.LFE22
 10041 15ae 0100     		.2byte	0x1
 10042 15b0 54       		.byte	0x54
 10043 15b1 00000000 		.4byte	0
 10044 15b5 00000000 		.4byte	0
 10045              	.LLST93:
 10046 15b9 2A000000 		.4byte	.LVL298
 10047 15bd 40000000 		.4byte	.LVL301
 10048 15c1 0100     		.2byte	0x1
 10049 15c3 50       		.byte	0x50
 10050 15c4 40000000 		.4byte	.LVL301
 10051 15c8 8C000000 		.4byte	.LVL305
 10052 15cc 0100     		.2byte	0x1
 10053 15ce 55       		.byte	0x55
 10054 15cf A2000000 		.4byte	.LVL306
 10055 15d3 A8000000 		.4byte	.LVL308
 10056 15d7 0100     		.2byte	0x1
 10057 15d9 50       		.byte	0x50
 10058 15da A8000000 		.4byte	.LVL308
 10059 15de C6000000 		.4byte	.LVL312
 10060 15e2 0100     		.2byte	0x1
 10061 15e4 55       		.byte	0x55
 10062 15e5 00000000 		.4byte	0
 10063 15e9 00000000 		.4byte	0
 10064              	.LLST94:
 10065 15ed 32000000 		.4byte	.LVL299
 10066 15f1 8C000000 		.4byte	.LVL305
 10067 15f5 0100     		.2byte	0x1
 10068 15f7 57       		.byte	0x57
 10069 15f8 A2000000 		.4byte	.LVL306
 10070 15fc C6000000 		.4byte	.LVL312
 10071 1600 0100     		.2byte	0x1
 10072 1602 57       		.byte	0x57
 10073 1603 00000000 		.4byte	0
 10074 1607 00000000 		.4byte	0
 10075              	.LLST95:
 10076 160b 06000000 		.4byte	.LVL294
 10077 160f 3E000000 		.4byte	.LVL300
ARM GAS  /tmp/ccuCtRWT.s 			page 178


 10078 1613 0100     		.2byte	0x1
 10079 1615 56       		.byte	0x56
 10080 1616 8C000000 		.4byte	.LVL305
 10081 161a A4000000 		.4byte	.LVL307
 10082 161e 0100     		.2byte	0x1
 10083 1620 56       		.byte	0x56
 10084 1621 C6000000 		.4byte	.LVL312
 10085 1625 D8000000 		.4byte	.LFE22
 10086 1629 0100     		.2byte	0x1
 10087 162b 56       		.byte	0x56
 10088 162c 00000000 		.4byte	0
 10089 1630 00000000 		.4byte	0
 10090              	.LLST96:
 10091 1634 20000000 		.4byte	.LVL297
 10092 1638 29000000 		.4byte	.LVL298-1
 10093 163c 0100     		.2byte	0x1
 10094 163e 51       		.byte	0x51
 10095 163f 00000000 		.4byte	0
 10096 1643 00000000 		.4byte	0
 10097              	.LLST97:
 10098 1647 20000000 		.4byte	.LVL297
 10099 164b 8C000000 		.4byte	.LVL305
 10100 164f 0100     		.2byte	0x1
 10101 1651 58       		.byte	0x58
 10102 1652 A2000000 		.4byte	.LVL306
 10103 1656 C6000000 		.4byte	.LVL312
 10104 165a 0100     		.2byte	0x1
 10105 165c 58       		.byte	0x58
 10106 165d 00000000 		.4byte	0
 10107 1661 00000000 		.4byte	0
 10108              	.LLST98:
 10109 1665 A4000000 		.4byte	.LVL307
 10110 1669 AB000000 		.4byte	.LVL309-1
 10111 166d 0200     		.2byte	0x2
 10112 166f 76       		.byte	0x76
 10113 1670 04       		.sleb128 4
 10114 1671 00000000 		.4byte	0
 10115 1675 00000000 		.4byte	0
 10116              	.LLST99:
 10117 1679 A4000000 		.4byte	.LVL307
 10118 167d B8000000 		.4byte	.LVL310
 10119 1681 0300     		.2byte	0x3
 10120 1683 77       		.byte	0x77
 10121 1684 14       		.sleb128 20
 10122 1685 9F       		.byte	0x9f
 10123 1686 B8000000 		.4byte	.LVL310
 10124 168a C3000000 		.4byte	.LVL311-1
 10125 168e 0100     		.2byte	0x1
 10126 1690 51       		.byte	0x51
 10127 1691 C3000000 		.4byte	.LVL311-1
 10128 1695 C6000000 		.4byte	.LVL312
 10129 1699 0300     		.2byte	0x3
 10130 169b 77       		.byte	0x77
 10131 169c 14       		.sleb128 20
 10132 169d 9F       		.byte	0x9f
 10133 169e 00000000 		.4byte	0
 10134 16a2 00000000 		.4byte	0
ARM GAS  /tmp/ccuCtRWT.s 			page 179


 10135              		.section	.debug_aranges,"",%progbits
 10136 0000 84000000 		.4byte	0x84
 10137 0004 0200     		.2byte	0x2
 10138 0006 00000000 		.4byte	.Ldebug_info0
 10139 000a 04       		.byte	0x4
 10140 000b 00       		.byte	0
 10141 000c 0000     		.2byte	0
 10142 000e 0000     		.2byte	0
 10143 0010 00000000 		.4byte	.LFB10
 10144 0014 6E000000 		.4byte	.LFE10-.LFB10
 10145 0018 00000000 		.4byte	.LFB9
 10146 001c BC000000 		.4byte	.LFE9-.LFB9
 10147 0020 00000000 		.4byte	.LFB23
 10148 0024 66000000 		.4byte	.LFE23-.LFB23
 10149 0028 00000000 		.4byte	.LFB12
 10150 002c 78040000 		.4byte	.LFE12-.LFB12
 10151 0030 00000000 		.4byte	.LFB13
 10152 0034 50010000 		.4byte	.LFE13-.LFB13
 10153 0038 00000000 		.4byte	.LFB8
 10154 003c 3E000000 		.4byte	.LFE8-.LFB8
 10155 0040 00000000 		.4byte	.LFB14
 10156 0044 66000000 		.4byte	.LFE14-.LFB14
 10157 0048 00000000 		.4byte	.LFB15
 10158 004c 04030000 		.4byte	.LFE15-.LFB15
 10159 0050 00000000 		.4byte	.LFB17
 10160 0054 B8000000 		.4byte	.LFE17-.LFB17
 10161 0058 00000000 		.4byte	.LFB18
 10162 005c 30000000 		.4byte	.LFE18-.LFB18
 10163 0060 00000000 		.4byte	.LFB19
 10164 0064 4A000000 		.4byte	.LFE19-.LFB19
 10165 0068 00000000 		.4byte	.LFB20
 10166 006c 5A000000 		.4byte	.LFE20-.LFB20
 10167 0070 00000000 		.4byte	.LFB21
 10168 0074 68000000 		.4byte	.LFE21-.LFB21
 10169 0078 00000000 		.4byte	.LFB22
 10170 007c D8000000 		.4byte	.LFE22-.LFB22
 10171 0080 00000000 		.4byte	0
 10172 0084 00000000 		.4byte	0
 10173              		.section	.debug_ranges,"",%progbits
 10174              	.Ldebug_ranges0:
 10175 0000 1A000000 		.4byte	.LBB9
 10176 0004 54000000 		.4byte	.LBE9
 10177 0008 BC010000 		.4byte	.LBB24
 10178 000c D8010000 		.4byte	.LBE24
 10179 0010 98030000 		.4byte	.LBB32
 10180 0014 B6030000 		.4byte	.LBE32
 10181 0018 BE030000 		.4byte	.LBB34
 10182 001c DA030000 		.4byte	.LBE34
 10183 0020 00000000 		.4byte	0
 10184 0024 00000000 		.4byte	0
 10185 0028 60000000 		.4byte	.LBB14
 10186 002c CE000000 		.4byte	.LBE14
 10187 0030 2E030000 		.4byte	.LBB31
 10188 0034 98030000 		.4byte	.LBE31
 10189 0038 DA030000 		.4byte	.LBB35
 10190 003c 06040000 		.4byte	.LBE35
 10191 0040 00000000 		.4byte	0
ARM GAS  /tmp/ccuCtRWT.s 			page 180


 10192 0044 00000000 		.4byte	0
 10193 0048 5C030000 		.4byte	.LBB15
 10194 004c 98030000 		.4byte	.LBE15
 10195 0050 DA030000 		.4byte	.LBB16
 10196 0054 06040000 		.4byte	.LBE16
 10197 0058 00000000 		.4byte	0
 10198 005c 00000000 		.4byte	0
 10199 0060 DA000000 		.4byte	.LBB17
 10200 0064 E4000000 		.4byte	.LBE17
 10201 0068 E8000000 		.4byte	.LBB21
 10202 006c 62010000 		.4byte	.LBE21
 10203 0070 64010000 		.4byte	.LBB22
 10204 0074 6A010000 		.4byte	.LBE22
 10205 0078 6C010000 		.4byte	.LBB23
 10206 007c BC010000 		.4byte	.LBE23
 10207 0080 FE010000 		.4byte	.LBB25
 10208 0084 08020000 		.4byte	.LBE25
 10209 0088 0A020000 		.4byte	.LBB26
 10210 008c 0E020000 		.4byte	.LBE26
 10211 0090 CA020000 		.4byte	.LBB29
 10212 0094 D6020000 		.4byte	.LBE29
 10213 0098 24030000 		.4byte	.LBB30
 10214 009c 2E030000 		.4byte	.LBE30
 10215 00a0 B6030000 		.4byte	.LBB33
 10216 00a4 BE030000 		.4byte	.LBE33
 10217 00a8 00000000 		.4byte	0
 10218 00ac 00000000 		.4byte	0
 10219 00b0 E8000000 		.4byte	.LBB18
 10220 00b4 24010000 		.4byte	.LBE18
 10221 00b8 FE010000 		.4byte	.LBB19
 10222 00bc 04020000 		.4byte	.LBE19
 10223 00c0 D0020000 		.4byte	.LBB20
 10224 00c4 D6020000 		.4byte	.LBE20
 10225 00c8 00000000 		.4byte	0
 10226 00cc 00000000 		.4byte	0
 10227 00d0 1A020000 		.4byte	.LBB27
 10228 00d4 24020000 		.4byte	.LBE27
 10229 00d8 26020000 		.4byte	.LBB28
 10230 00dc 58020000 		.4byte	.LBE28
 10231 00e0 00000000 		.4byte	0
 10232 00e4 00000000 		.4byte	0
 10233 00e8 0A000000 		.4byte	.LBB37
 10234 00ec 20000000 		.4byte	.LBE37
 10235 00f0 2C000000 		.4byte	.LBB38
 10236 00f4 3A000000 		.4byte	.LBE38
 10237 00f8 00000000 		.4byte	0
 10238 00fc 00000000 		.4byte	0
 10239 0100 4E000000 		.4byte	.LBB42
 10240 0104 60000000 		.4byte	.LBE42
 10241 0108 A6000000 		.4byte	.LBB47
 10242 010c 62010000 		.4byte	.LBE47
 10243 0110 04020000 		.4byte	.LBB48
 10244 0114 2A020000 		.4byte	.LBE48
 10245 0118 00000000 		.4byte	0
 10246 011c 00000000 		.4byte	0
 10247 0120 4E000000 		.4byte	.LBB43
 10248 0124 60000000 		.4byte	.LBE43
ARM GAS  /tmp/ccuCtRWT.s 			page 181


 10249 0128 A6000000 		.4byte	.LBB44
 10250 012c CE000000 		.4byte	.LBE44
 10251 0130 D0000000 		.4byte	.LBB45
 10252 0134 62010000 		.4byte	.LBE45
 10253 0138 04020000 		.4byte	.LBB46
 10254 013c 2A020000 		.4byte	.LBE46
 10255 0140 00000000 		.4byte	0
 10256 0144 00000000 		.4byte	0
 10257 0148 00000000 		.4byte	.LFB10
 10258 014c 6E000000 		.4byte	.LFE10
 10259 0150 00000000 		.4byte	.LFB9
 10260 0154 BC000000 		.4byte	.LFE9
 10261 0158 00000000 		.4byte	.LFB23
 10262 015c 66000000 		.4byte	.LFE23
 10263 0160 00000000 		.4byte	.LFB12
 10264 0164 78040000 		.4byte	.LFE12
 10265 0168 00000000 		.4byte	.LFB13
 10266 016c 50010000 		.4byte	.LFE13
 10267 0170 00000000 		.4byte	.LFB8
 10268 0174 3E000000 		.4byte	.LFE8
 10269 0178 00000000 		.4byte	.LFB14
 10270 017c 66000000 		.4byte	.LFE14
 10271 0180 00000000 		.4byte	.LFB15
 10272 0184 04030000 		.4byte	.LFE15
 10273 0188 00000000 		.4byte	.LFB17
 10274 018c B8000000 		.4byte	.LFE17
 10275 0190 00000000 		.4byte	.LFB18
 10276 0194 30000000 		.4byte	.LFE18
 10277 0198 00000000 		.4byte	.LFB19
 10278 019c 4A000000 		.4byte	.LFE19
 10279 01a0 00000000 		.4byte	.LFB20
 10280 01a4 5A000000 		.4byte	.LFE20
 10281 01a8 00000000 		.4byte	.LFB21
 10282 01ac 68000000 		.4byte	.LFE21
 10283 01b0 00000000 		.4byte	.LFB22
 10284 01b4 D8000000 		.4byte	.LFE22
 10285 01b8 00000000 		.4byte	0
 10286 01bc 00000000 		.4byte	0
 10287              		.section	.debug_line,"",%progbits
 10288              	.Ldebug_line0:
 10289 0000 64070000 		.section	.debug_str,"MS",%progbits,1
 10289      0200D001 
 10289      00000201 
 10289      FB0E0D00 
 10289      01010101 
 10290              	.LASF182:
 10291 0000 7463705F 		.ascii	"tcp_write_checks\000"
 10291      77726974 
 10291      655F6368 
 10291      65636B73 
 10291      00
 10292              	.LASF171:
 10293 0011 6C617965 		.ascii	"layer\000"
 10293      7200
 10294              	.LASF131:
 10295 0017 4D454D50 		.ascii	"MEMP_TCP_PCB_LISTEN\000"
 10295      5F544350 
ARM GAS  /tmp/ccuCtRWT.s 			page 182


 10295      5F504342 
 10295      5F4C4953 
 10295      54454E00 
 10296              	.LASF206:
 10297 002b 7463705F 		.ascii	"tcp_keepalive\000"
 10297      6B656570 
 10297      616C6976 
 10297      6500
 10298              	.LASF61:
 10299 0039 736F5F6F 		.ascii	"so_options\000"
 10299      7074696F 
 10299      6E7300
 10300              	.LASF47:
 10301 0044 696E7075 		.ascii	"input\000"
 10301      7400
 10302              	.LASF174:
 10303 004a 6F766572 		.ascii	"oversize\000"
 10303      73697A65 
 10303      00
 10304              	.LASF221:
 10305 0053 70627566 		.ascii	"pbuf_clen\000"
 10305      5F636C65 
 10305      6E00
 10306              	.LASF31:
 10307 005d 50425546 		.ascii	"PBUF_RAM\000"
 10307      5F52414D 
 10307      00
 10308              	.LASF127:
 10309 0066 75726770 		.ascii	"urgp\000"
 10309      00
 10310              	.LASF190:
 10311 006b 756E7365 		.ascii	"unsent_optlen\000"
 10311      6E745F6F 
 10311      70746C65 
 10311      6E00
 10312              	.LASF71:
 10313 0079 706F6C6C 		.ascii	"polltmr\000"
 10313      746D7200 
 10314              	.LASF29:
 10315 0081 50425546 		.ascii	"PBUF_RAW\000"
 10315      5F524157 
 10315      00
 10316              	.LASF35:
 10317 008a 70627566 		.ascii	"pbuf_type\000"
 10317      5F747970 
 10317      6500
 10318              	.LASF178:
 10319 0094 7463705F 		.ascii	"tcp_pbuf_prealloc\000"
 10319      70627566 
 10319      5F707265 
 10319      616C6C6F 
 10319      6300
 10320              	.LASF118:
 10321 00a6 54494D45 		.ascii	"TIME_WAIT\000"
 10321      5F574149 
 10321      5400
 10322              	.LASF0:
ARM GAS  /tmp/ccuCtRWT.s 			page 183


 10323 00b0 756E7369 		.ascii	"unsigned int\000"
 10323      676E6564 
 10323      20696E74 
 10323      00
 10324              	.LASF107:
 10325 00bd 7463705F 		.ascii	"tcp_connected_fn\000"
 10325      636F6E6E 
 10325      65637465 
 10325      645F666E 
 10325      00
 10326              	.LASF36:
 10327 00ce 6E657874 		.ascii	"next\000"
 10327      00
 10328              	.LASF207:
 10329 00d3 7463705F 		.ascii	"tcp_zero_window_probe\000"
 10329      7A65726F 
 10329      5F77696E 
 10329      646F775F 
 10329      70726F62 
 10330              	.LASF24:
 10331 00e9 6572725F 		.ascii	"err_t\000"
 10331      7400
 10332              	.LASF49:
 10333 00ef 6C696E6B 		.ascii	"linkoutput\000"
 10333      6F757470 
 10333      757400
 10334              	.LASF204:
 10335 00fa 7463705F 		.ascii	"tcp_rexmit\000"
 10335      7265786D 
 10335      697400
 10336              	.LASF19:
 10337 0105 7531365F 		.ascii	"u16_t\000"
 10337      7400
 10338              	.LASF231:
 10339 010b 2E2E2F2E 		.ascii	"../../ext/lwip/src/core/tcp_out.c\000"
 10339      2E2F6578 
 10339      742F6C77 
 10339      69702F73 
 10339      72632F63 
 10340              	.LASF70:
 10341 012d 7263765F 		.ascii	"rcv_ann_right_edge\000"
 10341      616E6E5F 
 10341      72696768 
 10341      745F6564 
 10341      676500
 10342              	.LASF188:
 10343 0140 6F766572 		.ascii	"oversize_used\000"
 10343      73697A65 
 10343      5F757365 
 10343      6400
 10344              	.LASF154:
 10345 014e 73746174 		.ascii	"stats_mem\000"
 10345      735F6D65 
 10345      6D00
 10346              	.LASF168:
 10347 0158 6F70746C 		.ascii	"optlen\000"
 10347      656E00
ARM GAS  /tmp/ccuCtRWT.s 			page 184


 10348              	.LASF217:
 10349 015f 6C776970 		.ascii	"lwip_htonl\000"
 10349      5F68746F 
 10349      6E6C00
 10350              	.LASF55:
 10351 016a 6E657469 		.ascii	"netif_output_fn\000"
 10351      665F6F75 
 10351      74707574 
 10351      5F666E00 
 10352              	.LASF216:
 10353 017a 6C776970 		.ascii	"lwip_htons\000"
 10353      5F68746F 
 10353      6E7300
 10354              	.LASF102:
 10355 0185 6B656570 		.ascii	"keep_cnt_sent\000"
 10355      5F636E74 
 10355      5F73656E 
 10355      7400
 10356              	.LASF141:
 10357 0193 4D454D50 		.ascii	"MEMP_PBUF_POOL\000"
 10357      5F504255 
 10357      465F504F 
 10357      4F4C00
 10358              	.LASF212:
 10359 01a2 6C776970 		.ascii	"lwip_stats\000"
 10359      5F737461 
 10359      747300
 10360              	.LASF104:
 10361 01ad 7463705F 		.ascii	"tcp_sent_fn\000"
 10361      73656E74 
 10361      5F666E00 
 10362              	.LASF26:
 10363 01b9 50425546 		.ascii	"PBUF_TRANSPORT\000"
 10363      5F545241 
 10363      4E53504F 
 10363      525400
 10364              	.LASF195:
 10365 01c8 7463705F 		.ascii	"tcp_enqueue_flags\000"
 10365      656E7175 
 10365      6575655F 
 10365      666C6167 
 10365      7300
 10366              	.LASF158:
 10367 01da 73746174 		.ascii	"stats_syselem\000"
 10367      735F7379 
 10367      73656C65 
 10367      6D00
 10368              	.LASF123:
 10369 01e8 7365716E 		.ascii	"seqno\000"
 10369      6F00
 10370              	.LASF54:
 10371 01ee 6E657469 		.ascii	"netif_input_fn\000"
 10371      665F696E 
 10371      7075745F 
 10371      666E00
 10372              	.LASF11:
 10373 01fd 75696E74 		.ascii	"uint32_t\000"
ARM GAS  /tmp/ccuCtRWT.s 			page 185


 10373      33325F74 
 10373      00
 10374              	.LASF2:
 10375 0206 696E7438 		.ascii	"int8_t\000"
 10375      5F7400
 10376              	.LASF79:
 10377 020d 63776E64 		.ascii	"cwnd\000"
 10377      00
 10378              	.LASF230:
 10379 0212 474E5520 		.ascii	"GNU C 4.7.2\000"
 10379      4320342E 
 10379      372E3200 
 10380              	.LASF137:
 10381 021e 4D454D50 		.ascii	"MEMP_TCPIP_MSG_API\000"
 10381      5F544350 
 10381      49505F4D 
 10381      53475F41 
 10381      504900
 10382              	.LASF152:
 10383 0231 6F707465 		.ascii	"opterr\000"
 10383      727200
 10384              	.LASF65:
 10385 0238 6C6F6361 		.ascii	"local_port\000"
 10385      6C5F706F 
 10385      727400
 10386              	.LASF160:
 10387 0243 6D757465 		.ascii	"mutex\000"
 10387      7800
 10388              	.LASF165:
 10389 0249 69705F66 		.ascii	"ip_frag\000"
 10389      72616700 
 10390              	.LASF157:
 10391 0251 696C6C65 		.ascii	"illegal\000"
 10391      67616C00 
 10392              	.LASF213:
 10393 0259 70627566 		.ascii	"pbuf_alloc\000"
 10393      5F616C6C 
 10393      6F6300
 10394              	.LASF5:
 10395 0264 696E7431 		.ascii	"int16_t\000"
 10395      365F7400 
 10396              	.LASF208:
 10397 026c 69735F66 		.ascii	"is_fin\000"
 10397      696E00
 10398              	.LASF52:
 10399 0273 68776164 		.ascii	"hwaddr\000"
 10399      647200
 10400              	.LASF164:
 10401 027a 65746861 		.ascii	"etharp\000"
 10401      727000
 10402              	.LASF119:
 10403 0281 7463705F 		.ascii	"tcp_seg\000"
 10403      73656700 
 10404              	.LASF14:
 10405 0289 6C6F6E67 		.ascii	"long long unsigned int\000"
 10405      206C6F6E 
 10405      6720756E 
ARM GAS  /tmp/ccuCtRWT.s 			page 186


 10405      7369676E 
 10405      65642069 
 10406              	.LASF203:
 10407 02a0 7463705F 		.ascii	"tcp_rexmit_rto\000"
 10407      7265786D 
 10407      69745F72 
 10407      746F00
 10408              	.LASF233:
 10409 02af 7463705F 		.ascii	"tcp_state\000"
 10409      73746174 
 10409      6500
 10410              	.LASF73:
 10411 02b9 7274696D 		.ascii	"rtime\000"
 10411      6500
 10412              	.LASF51:
 10413 02bf 68776164 		.ascii	"hwaddr_len\000"
 10413      64725F6C 
 10413      656E00
 10414              	.LASF67:
 10415 02ca 7263765F 		.ascii	"rcv_nxt\000"
 10415      6E787400 
 10416              	.LASF138:
 10417 02d2 4D454D50 		.ascii	"MEMP_TCPIP_MSG_INPKT\000"
 10417      5F544350 
 10417      49505F4D 
 10417      53475F49 
 10417      4E504B54 
 10418              	.LASF33:
 10419 02e7 50425546 		.ascii	"PBUF_REF\000"
 10419      5F524546 
 10419      00
 10420              	.LASF91:
 10421 02f0 756E6163 		.ascii	"unacked\000"
 10421      6B656400 
 10422              	.LASF196:
 10423 02f8 75736567 		.ascii	"useg\000"
 10423      00
 10424              	.LASF162:
 10425 02fd 73746174 		.ascii	"stats_\000"
 10425      735F00
 10426              	.LASF209:
 10427 0304 74686472 		.ascii	"thdr\000"
 10427      00
 10428              	.LASF117:
 10429 0309 4C415354 		.ascii	"LAST_ACK\000"
 10429      5F41434B 
 10429      00
 10430              	.LASF38:
 10431 0312 746F745F 		.ascii	"tot_len\000"
 10431      6C656E00 
 10432              	.LASF37:
 10433 031a 7061796C 		.ascii	"payload\000"
 10433      6F616400 
 10434              	.LASF27:
 10435 0322 50425546 		.ascii	"PBUF_IP\000"
 10435      5F495000 
 10436              	.LASF48:
ARM GAS  /tmp/ccuCtRWT.s 			page 187


 10437 032a 6F757470 		.ascii	"output\000"
 10437      757400
 10438              	.LASF96:
 10439 0331 636F6E6E 		.ascii	"connected\000"
 10439      65637465 
 10439      6400
 10440              	.LASF234:
 10441 033b 7463705F 		.ascii	"tcp_output_segment\000"
 10441      6F757470 
 10441      75745F73 
 10441      65676D65 
 10441      6E7400
 10442              	.LASF41:
 10443 034e 70627566 		.ascii	"pbuf\000"
 10443      00
 10444              	.LASF34:
 10445 0353 50425546 		.ascii	"PBUF_POOL\000"
 10445      5F504F4F 
 10445      4C00
 10446              	.LASF116:
 10447 035d 434C4F53 		.ascii	"CLOSING\000"
 10447      494E4700 
 10448              	.LASF176:
 10449 0365 66697273 		.ascii	"first_seg\000"
 10449      745F7365 
 10449      6700
 10450              	.LASF40:
 10451 036f 666C6167 		.ascii	"flags\000"
 10451      7300
 10452              	.LASF77:
 10453 0375 6C617374 		.ascii	"lastack\000"
 10453      61636B00 
 10454              	.LASF142:
 10455 037d 4D454D50 		.ascii	"MEMP_MAX\000"
 10455      5F4D4158 
 10455      00
 10456              	.LASF18:
 10457 0386 73385F74 		.ascii	"s8_t\000"
 10457      00
 10458              	.LASF22:
 10459 038b 7333325F 		.ascii	"s32_t\000"
 10459      7400
 10460              	.LASF136:
 10461 0391 4D454D50 		.ascii	"MEMP_NETCONN\000"
 10461      5F4E4554 
 10461      434F4E4E 
 10461      00
 10462              	.LASF200:
 10463 039e 7463705F 		.ascii	"tcp_output\000"
 10463      6F757470 
 10463      757400
 10464              	.LASF57:
 10465 03a9 7463705F 		.ascii	"tcp_accept_fn\000"
 10465      61636365 
 10465      70745F66 
 10465      6E00
 10466              	.LASF163:
ARM GAS  /tmp/ccuCtRWT.s 			page 188


 10467 03b7 6C696E6B 		.ascii	"link\000"
 10467      00
 10468              	.LASF75:
 10469 03bc 72747365 		.ascii	"rtseq\000"
 10469      7100
 10470              	.LASF215:
 10471 03c2 70627566 		.ascii	"pbuf_header\000"
 10471      5F686561 
 10471      64657200 
 10472              	.LASF78:
 10473 03ce 64757061 		.ascii	"dupacks\000"
 10473      636B7300 
 10474              	.LASF62:
 10475 03d6 7072696F 		.ascii	"prio\000"
 10475      00
 10476              	.LASF64:
 10477 03db 61636365 		.ascii	"accept\000"
 10477      707400
 10478              	.LASF140:
 10479 03e2 4D454D50 		.ascii	"MEMP_PBUF\000"
 10479      5F504255 
 10479      4600
 10480              	.LASF97:
 10481 03ec 706F6C6C 		.ascii	"poll\000"
 10481      00
 10482              	.LASF16:
 10483 03f1 63686172 		.ascii	"char\000"
 10483      00
 10484              	.LASF184:
 10485 03f6 6C617374 		.ascii	"last_unsent\000"
 10485      5F756E73 
 10485      656E7400 
 10486              	.LASF25:
 10487 0402 6D656D5F 		.ascii	"mem_size_t\000"
 10487      73697A65 
 10487      5F7400
 10488              	.LASF144:
 10489 040d 73746174 		.ascii	"stats_proto\000"
 10489      735F7072 
 10489      6F746F00 
 10490              	.LASF86:
 10491 0419 61636B65 		.ascii	"acked\000"
 10491      6400
 10492              	.LASF115:
 10493 041f 434C4F53 		.ascii	"CLOSE_WAIT\000"
 10493      455F5741 
 10493      495400
 10494              	.LASF229:
 10495 042a 70627566 		.ascii	"pbuf_copy_partial\000"
 10495      5F636F70 
 10495      795F7061 
 10495      72746961 
 10495      6C00
 10496              	.LASF189:
 10497 043c 73706163 		.ascii	"space\000"
 10497      6500
 10498              	.LASF94:
ARM GAS  /tmp/ccuCtRWT.s 			page 189


 10499 0442 73656E74 		.ascii	"sent\000"
 10499      00
 10500              	.LASF3:
 10501 0447 75696E74 		.ascii	"uint8_t\000"
 10501      385F7400 
 10502              	.LASF83:
 10503 044f 736E645F 		.ascii	"snd_wl1\000"
 10503      776C3100 
 10504              	.LASF84:
 10505 0457 736E645F 		.ascii	"snd_wl2\000"
 10505      776C3200 
 10506              	.LASF106:
 10507 045f 7463705F 		.ascii	"tcp_err_fn\000"
 10507      6572725F 
 10507      666E00
 10508              	.LASF218:
 10509 046a 70627566 		.ascii	"pbuf_free\000"
 10509      5F667265 
 10509      6500
 10510              	.LASF85:
 10511 0474 736E645F 		.ascii	"snd_lbb\000"
 10511      6C626200 
 10512              	.LASF214:
 10513 047c 6D656D70 		.ascii	"memp_malloc\000"
 10513      5F6D616C 
 10513      6C6F6300 
 10514              	.LASF135:
 10515 0488 4D454D50 		.ascii	"MEMP_NETBUF\000"
 10515      5F4E4554 
 10515      42554600 
 10516              	.LASF46:
 10517 0494 6E65746D 		.ascii	"netmask\000"
 10517      61736B00 
 10518              	.LASF13:
 10519 049c 6C6F6E67 		.ascii	"long long int\000"
 10519      206C6F6E 
 10519      6720696E 
 10519      7400
 10520              	.LASF124:
 10521 04aa 61636B6E 		.ascii	"ackno\000"
 10521      6F00
 10522              	.LASF210:
 10523 04b0 7463705F 		.ascii	"tcp_input_pcb\000"
 10523      696E7075 
 10523      745F7063 
 10523      6200
 10524              	.LASF101:
 10525 04be 70657273 		.ascii	"persist_backoff\000"
 10525      6973745F 
 10525      6261636B 
 10525      6F666600 
 10526              	.LASF130:
 10527 04ce 4D454D50 		.ascii	"MEMP_TCP_PCB\000"
 10527      5F544350 
 10527      5F504342 
 10527      00
 10528              	.LASF167:
ARM GAS  /tmp/ccuCtRWT.s 			page 190


 10529 04db 6D656D70 		.ascii	"memp\000"
 10529      00
 10530              	.LASF17:
 10531 04e0 75385F74 		.ascii	"u8_t\000"
 10531      00
 10532              	.LASF180:
 10533 04e5 6F707466 		.ascii	"optflags\000"
 10533      6C616773 
 10533      00
 10534              	.LASF66:
 10535 04ee 72656D6F 		.ascii	"remote_port\000"
 10535      74655F70 
 10535      6F727400 
 10536              	.LASF156:
 10537 04fa 75736564 		.ascii	"used\000"
 10537      00
 10538              	.LASF193:
 10539 04ff 6D61785F 		.ascii	"max_len\000"
 10539      6C656E00 
 10540              	.LASF69:
 10541 0507 7263765F 		.ascii	"rcv_ann_wnd\000"
 10541      616E6E5F 
 10541      776E6400 
 10542              	.LASF232:
 10543 0513 2F686F6D 		.ascii	"/home/kwilson/Sandbox/ChibiOS_2.5.1/demos/ARMCM4-ST"
 10543      652F6B77 
 10543      696C736F 
 10543      6E2F5361 
 10543      6E64626F 
 10544 0546 4D333246 		.ascii	"M32F407-LWIP-FATFS-USB\000"
 10544      3430372D 
 10544      4C574950 
 10544      2D464154 
 10544      46532D55 
 10545              	.LASF147:
 10546 055d 63686B65 		.ascii	"chkerr\000"
 10546      727200
 10547              	.LASF133:
 10548 0564 4D454D50 		.ascii	"MEMP_REASSDATA\000"
 10548      5F524541 
 10548      53534441 
 10548      544100
 10549              	.LASF103:
 10550 0573 7463705F 		.ascii	"tcp_recv_fn\000"
 10550      72656376 
 10550      5F666E00 
 10551              	.LASF28:
 10552 057f 50425546 		.ascii	"PBUF_LINK\000"
 10552      5F4C494E 
 10552      4B00
 10553              	.LASF105:
 10554 0589 7463705F 		.ascii	"tcp_poll_fn\000"
 10554      706F6C6C 
 10554      5F666E00 
 10555              	.LASF7:
 10556 0595 75696E74 		.ascii	"uint16_t\000"
 10556      31365F74 
ARM GAS  /tmp/ccuCtRWT.s 			page 191


 10556      00
 10557              	.LASF197:
 10558 059e 7463705F 		.ascii	"tcp_send_fin\000"
 10558      73656E64 
 10558      5F66696E 
 10558      00
 10559              	.LASF98:
 10560 05ab 65727266 		.ascii	"errf\000"
 10560      00
 10561              	.LASF82:
 10562 05b0 736E645F 		.ascii	"snd_wnd\000"
 10562      776E6400 
 10563              	.LASF181:
 10564 05b8 7463705F 		.ascii	"tcp_output_alloc_header\000"
 10564      6F757470 
 10564      75745F61 
 10564      6C6C6F63 
 10564      5F686561 
 10565              	.LASF219:
 10566 05d0 7463705F 		.ascii	"tcp_seg_free\000"
 10566      7365675F 
 10566      66726565 
 10566      00
 10567              	.LASF202:
 10568 05dd 7463705F 		.ascii	"tcp_rst\000"
 10568      72737400 
 10569              	.LASF228:
 10570 05e5 6C776970 		.ascii	"lwip_ntohl\000"
 10570      5F6E746F 
 10570      686C00
 10571              	.LASF92:
 10572 05f0 6F6F7365 		.ascii	"ooseq\000"
 10572      7100
 10573              	.LASF224:
 10574 05f6 6C776970 		.ascii	"lwip_ntohs\000"
 10574      5F6E746F 
 10574      687300
 10575              	.LASF173:
 10576 0601 6D61785F 		.ascii	"max_length\000"
 10576      6C656E67 
 10576      746800
 10577              	.LASF108:
 10578 060c 434C4F53 		.ascii	"CLOSED\000"
 10578      454400
 10579              	.LASF21:
 10580 0613 7533325F 		.ascii	"u32_t\000"
 10580      7400
 10581              	.LASF177:
 10582 0619 616C6C6F 		.ascii	"alloc\000"
 10582      6300
 10583              	.LASF6:
 10584 061f 73686F72 		.ascii	"short int\000"
 10584      7420696E 
 10584      7400
 10585              	.LASF166:
 10586 0629 69636D70 		.ascii	"icmp\000"
 10586      00
ARM GAS  /tmp/ccuCtRWT.s 			page 192


 10587              	.LASF183:
 10588 062e 636F6E63 		.ascii	"concat_p\000"
 10588      61745F70 
 10588      00
 10589              	.LASF10:
 10590 0637 6C6F6E67 		.ascii	"long int\000"
 10590      20696E74 
 10590      00
 10591              	.LASF225:
 10592 0640 696E6574 		.ascii	"inet_chksum_pseudo\000"
 10592      5F63686B 
 10592      73756D5F 
 10592      70736575 
 10592      646F00
 10593              	.LASF150:
 10594 0653 72746572 		.ascii	"rterr\000"
 10594      7200
 10595              	.LASF155:
 10596 0659 61766169 		.ascii	"avail\000"
 10596      6C00
 10597              	.LASF172:
 10598 065f 6C656E67 		.ascii	"length\000"
 10598      746800
 10599              	.LASF90:
 10600 0666 756E7365 		.ascii	"unsent\000"
 10600      6E7400
 10601              	.LASF68:
 10602 066d 7263765F 		.ascii	"rcv_wnd\000"
 10602      776E6400 
 10603              	.LASF74:
 10604 0675 72747465 		.ascii	"rttest\000"
 10604      737400
 10605              	.LASF198:
 10606 067c 7463705F 		.ascii	"tcp_send_empty_ack\000"
 10606      73656E64 
 10606      5F656D70 
 10606      74795F61 
 10606      636B00
 10607              	.LASF199:
 10608 068f 6F707473 		.ascii	"opts\000"
 10608      00
 10609              	.LASF179:
 10610 0694 7463705F 		.ascii	"tcp_create_segment\000"
 10610      63726561 
 10610      74655F73 
 10610      65676D65 
 10610      6E7400
 10611              	.LASF139:
 10612 06a7 4D454D50 		.ascii	"MEMP_SYS_TIMEOUT\000"
 10612      5F535953 
 10612      5F54494D 
 10612      454F5554 
 10612      00
 10613              	.LASF129:
 10614 06b8 4D454D50 		.ascii	"MEMP_UDP_PCB\000"
 10614      5F554450 
 10614      5F504342 
ARM GAS  /tmp/ccuCtRWT.s 			page 193


 10614      00
 10615              	.LASF59:
 10616 06c5 6C6F6361 		.ascii	"local_ip\000"
 10616      6C5F6970 
 10616      00
 10617              	.LASF169:
 10618 06ce 64617461 		.ascii	"datalen\000"
 10618      6C656E00 
 10619              	.LASF161:
 10620 06d6 6D626F78 		.ascii	"mbox\000"
 10620      00
 10621              	.LASF89:
 10622 06db 756E7365 		.ascii	"unsent_oversize\000"
 10622      6E745F6F 
 10622      76657273 
 10622      697A6500 
 10623              	.LASF81:
 10624 06eb 736E645F 		.ascii	"snd_nxt\000"
 10624      6E787400 
 10625              	.LASF192:
 10626 06f3 6C656674 		.ascii	"left\000"
 10626      00
 10627              	.LASF23:
 10628 06f8 6D656D5F 		.ascii	"mem_ptr_t\000"
 10628      7074725F 
 10628      7400
 10629              	.LASF112:
 10630 0702 45535441 		.ascii	"ESTABLISHED\000"
 10630      424C4953 
 10630      48454400 
 10631              	.LASF153:
 10632 070e 63616368 		.ascii	"cachehit\000"
 10632      65686974 
 10632      00
 10633              	.LASF53:
 10634 0717 6E616D65 		.ascii	"name\000"
 10634      00
 10635              	.LASF56:
 10636 071c 6E657469 		.ascii	"netif_linkoutput_fn\000"
 10636      665F6C69 
 10636      6E6B6F75 
 10636      74707574 
 10636      5F666E00 
 10637              	.LASF134:
 10638 0730 4D454D50 		.ascii	"MEMP_FRAG_PBUF\000"
 10638      5F465241 
 10638      475F5042 
 10638      554600
 10639              	.LASF80:
 10640 073f 73737468 		.ascii	"ssthresh\000"
 10640      72657368 
 10640      00
 10641              	.LASF87:
 10642 0748 736E645F 		.ascii	"snd_buf\000"
 10642      62756600 
 10643              	.LASF72:
 10644 0750 706F6C6C 		.ascii	"pollinterval\000"
ARM GAS  /tmp/ccuCtRWT.s 			page 194


 10644      696E7465 
 10644      7276616C 
 10644      00
 10645              	.LASF128:
 10646 075d 4D454D50 		.ascii	"MEMP_RAW_PCB\000"
 10646      5F524157 
 10646      5F504342 
 10646      00
 10647              	.LASF125:
 10648 076a 5F686472 		.ascii	"_hdrlen_rsvd_flags\000"
 10648      6C656E5F 
 10648      72737664 
 10648      5F666C61 
 10648      677300
 10649              	.LASF148:
 10650 077d 6C656E65 		.ascii	"lenerr\000"
 10650      727200
 10651              	.LASF15:
 10652 0784 73697A65 		.ascii	"sizetype\000"
 10652      74797065 
 10652      00
 10653              	.LASF12:
 10654 078d 6C6F6E67 		.ascii	"long unsigned int\000"
 10654      20756E73 
 10654      69676E65 
 10654      6420696E 
 10654      7400
 10655              	.LASF211:
 10656 079f 7463705F 		.ascii	"tcp_ticks\000"
 10656      7469636B 
 10656      7300
 10657              	.LASF120:
 10658 07a9 74637068 		.ascii	"tcphdr\000"
 10658      647200
 10659              	.LASF20:
 10660 07b0 7331365F 		.ascii	"s16_t\000"
 10660      7400
 10661              	.LASF9:
 10662 07b6 696E7433 		.ascii	"int32_t\000"
 10662      325F7400 
 10663              	.LASF30:
 10664 07be 70627566 		.ascii	"pbuf_layer\000"
 10664      5F6C6179 
 10664      657200
 10665              	.LASF175:
 10666 07c9 61706966 		.ascii	"apiflags\000"
 10666      6C616773 
 10666      00
 10667              	.LASF93:
 10668 07d2 72656675 		.ascii	"refused_data\000"
 10668      7365645F 
 10668      64617461 
 10668      00
 10669              	.LASF186:
 10670 07df 71756575 		.ascii	"queue\000"
 10670      6500
 10671              	.LASF151:
ARM GAS  /tmp/ccuCtRWT.s 			page 195


 10672 07e5 70726F74 		.ascii	"proterr\000"
 10672      65727200 
 10673              	.LASF185:
 10674 07ed 70726576 		.ascii	"prev_seg\000"
 10674      5F736567 
 10674      00
 10675              	.LASF121:
 10676 07f6 7463705F 		.ascii	"tcp_hdr\000"
 10676      68647200 
 10677              	.LASF39:
 10678 07fe 74797065 		.ascii	"type\000"
 10678      00
 10679              	.LASF159:
 10680 0803 73746174 		.ascii	"stats_sys\000"
 10680      735F7379 
 10680      7300
 10681              	.LASF4:
 10682 080d 756E7369 		.ascii	"unsigned char\000"
 10682      676E6564 
 10682      20636861 
 10682      7200
 10683              	.LASF113:
 10684 081b 46494E5F 		.ascii	"FIN_WAIT_1\000"
 10684      57414954 
 10684      5F3100
 10685              	.LASF114:
 10686 0826 46494E5F 		.ascii	"FIN_WAIT_2\000"
 10686      57414954 
 10686      5F3200
 10687              	.LASF149:
 10688 0831 6D656D65 		.ascii	"memerr\000"
 10688      727200
 10689              	.LASF132:
 10690 0838 4D454D50 		.ascii	"MEMP_TCP_SEG\000"
 10690      5F544350 
 10690      5F534547 
 10690      00
 10691              	.LASF170:
 10692 0845 7365716E 		.ascii	"seqno_be\000"
 10692      6F5F6265 
 10692      00
 10693              	.LASF110:
 10694 084e 53594E5F 		.ascii	"SYN_SENT\000"
 10694      53454E54 
 10694      00
 10695              	.LASF99:
 10696 0857 6B656570 		.ascii	"keep_idle\000"
 10696      5F69646C 
 10696      6500
 10697              	.LASF63:
 10698 0861 63616C6C 		.ascii	"callback_arg\000"
 10698      6261636B 
 10698      5F617267 
 10698      00
 10699              	.LASF235:
 10700 086e 706F7274 		.ascii	"port_halt\000"
 10700      5F68616C 
ARM GAS  /tmp/ccuCtRWT.s 			page 196


 10700      7400
 10701              	.LASF109:
 10702 0878 4C495354 		.ascii	"LISTEN\000"
 10702      454E00
 10703              	.LASF43:
 10704 087f 61646472 		.ascii	"addr\000"
 10704      00
 10705              	.LASF146:
 10706 0884 64726F70 		.ascii	"drop\000"
 10706      00
 10707              	.LASF50:
 10708 0889 73746174 		.ascii	"state\000"
 10708      6500
 10709              	.LASF45:
 10710 088f 6E657469 		.ascii	"netif\000"
 10710      6600
 10711              	.LASF88:
 10712 0895 736E645F 		.ascii	"snd_queuelen\000"
 10712      71756575 
 10712      656C656E 
 10712      00
 10713              	.LASF126:
 10714 08a2 63686B73 		.ascii	"chksum\000"
 10714      756D00
 10715              	.LASF194:
 10716 08a9 7463705F 		.ascii	"tcp_write\000"
 10716      77726974 
 10716      6500
 10717              	.LASF95:
 10718 08b3 72656376 		.ascii	"recv\000"
 10718      00
 10719              	.LASF1:
 10720 08b8 7369676E 		.ascii	"signed char\000"
 10720      65642063 
 10720      68617200 
 10721              	.LASF58:
 10722 08c4 7463705F 		.ascii	"tcp_pcb\000"
 10722      70636200 
 10723              	.LASF8:
 10724 08cc 73686F72 		.ascii	"short unsigned int\000"
 10724      7420756E 
 10724      7369676E 
 10724      65642069 
 10724      6E7400
 10725              	.LASF191:
 10726 08df 7365676C 		.ascii	"seglen\000"
 10726      656E00
 10727              	.LASF201:
 10728 08e6 6375725F 		.ascii	"cur_seg\000"
 10728      73656700 
 10729              	.LASF220:
 10730 08ee 6D656D63 		.ascii	"memcpy\000"
 10730      707900
 10731              	.LASF187:
 10732 08f5 71756575 		.ascii	"queuelen\000"
 10732      656C656E 
 10732      00
ARM GAS  /tmp/ccuCtRWT.s 			page 197


 10733              	.LASF145:
 10734 08fe 786D6974 		.ascii	"xmit\000"
 10734      00
 10735              	.LASF100:
 10736 0903 70657273 		.ascii	"persist_cnt\000"
 10736      6973745F 
 10736      636E7400 
 10737              	.LASF60:
 10738 090f 72656D6F 		.ascii	"remote_ip\000"
 10738      74655F69 
 10738      7000
 10739              	.LASF205:
 10740 0919 7463705F 		.ascii	"tcp_rexmit_fast\000"
 10740      7265786D 
 10740      69745F66 
 10740      61737400 
 10741              	.LASF44:
 10742 0929 69705F61 		.ascii	"ip_addr_t\000"
 10742      6464725F 
 10742      7400
 10743              	.LASF227:
 10744 0933 69705F72 		.ascii	"ip_route\000"
 10744      6F757465 
 10744      00
 10745              	.LASF223:
 10746 093c 7463705F 		.ascii	"tcp_segs_free\000"
 10746      73656773 
 10746      5F667265 
 10746      6500
 10747              	.LASF222:
 10748 094a 70627566 		.ascii	"pbuf_cat\000"
 10748      5F636174 
 10748      00
 10749              	.LASF143:
 10750 0953 6D656D70 		.ascii	"memp_t\000"
 10750      5F7400
 10751              	.LASF32:
 10752 095a 50425546 		.ascii	"PBUF_ROM\000"
 10752      5F524F4D 
 10752      00
 10753              	.LASF226:
 10754 0963 69705F6F 		.ascii	"ip_output\000"
 10754      75747075 
 10754      7400
 10755              	.LASF76:
 10756 096d 6E727478 		.ascii	"nrtx\000"
 10756      00
 10757              	.LASF122:
 10758 0972 64657374 		.ascii	"dest\000"
 10758      00
 10759              	.LASF111:
 10760 0977 53594E5F 		.ascii	"SYN_RCVD\000"
 10760      52435644 
 10760      00
 10761              	.LASF42:
 10762 0980 69705F61 		.ascii	"ip_addr\000"
 10762      64647200 
ARM GAS  /tmp/ccuCtRWT.s 			page 198


 10763              		.ident	"GCC: (crosstool-NG 1.17.0 - PSAS ST32F4 GFE) 4.7.2"
ARM GAS  /tmp/ccuCtRWT.s 			page 199


DEFINED SYMBOLS
                            *ABS*:0000000000000000 tcp_out.c
     /tmp/ccuCtRWT.s:21     .text.tcp_pbuf_prealloc:0000000000000000 $t
     /tmp/ccuCtRWT.s:26     .text.tcp_pbuf_prealloc:0000000000000000 tcp_pbuf_prealloc
     /tmp/ccuCtRWT.s:127    .text.tcp_create_segment:0000000000000000 $t
     /tmp/ccuCtRWT.s:132    .text.tcp_create_segment:0000000000000000 tcp_create_segment
     /tmp/ccuCtRWT.s:280    .text.tcp_create_segment:00000000000000b8 $d
     /tmp/ccuCtRWT.s:285    .text.tcp_output_alloc_header.constprop.0:0000000000000000 $t
     /tmp/ccuCtRWT.s:290    .text.tcp_output_alloc_header.constprop.0:0000000000000000 tcp_output_alloc_header.constprop.0
     /tmp/ccuCtRWT.s:392    .text.tcp_write:0000000000000000 $t
     /tmp/ccuCtRWT.s:398    .text.tcp_write:0000000000000000 tcp_write
     /tmp/ccuCtRWT.s:1224   .text.tcp_write:0000000000000474 $d
     /tmp/ccuCtRWT.s:1229   .text.tcp_enqueue_flags:0000000000000000 $t
     /tmp/ccuCtRWT.s:1235   .text.tcp_enqueue_flags:0000000000000000 tcp_enqueue_flags
     /tmp/ccuCtRWT.s:1490   .text.tcp_enqueue_flags:000000000000014c $d
     /tmp/ccuCtRWT.s:1495   .text.tcp_send_fin:0000000000000000 $t
     /tmp/ccuCtRWT.s:1501   .text.tcp_send_fin:0000000000000000 tcp_send_fin
     /tmp/ccuCtRWT.s:1572   .text.tcp_send_empty_ack:0000000000000000 $t
     /tmp/ccuCtRWT.s:1578   .text.tcp_send_empty_ack:0000000000000000 tcp_send_empty_ack
     /tmp/ccuCtRWT.s:1662   .text.tcp_output:0000000000000000 $t
     /tmp/ccuCtRWT.s:1668   .text.tcp_output:0000000000000000 tcp_output
     /tmp/ccuCtRWT.s:2146   .text.tcp_output:00000000000002ac $d
     /tmp/ccuCtRWT.s:2151   .text.tcp_output:00000000000002b4 $t
     /tmp/ccuCtRWT.s:2205   .text.tcp_rst:0000000000000000 $t
     /tmp/ccuCtRWT.s:2211   .text.tcp_rst:0000000000000000 tcp_rst
     /tmp/ccuCtRWT.s:2356   .text.tcp_rst:00000000000000b4 $d
     /tmp/ccuCtRWT.s:2361   .text.tcp_rexmit_rto:0000000000000000 $t
     /tmp/ccuCtRWT.s:2367   .text.tcp_rexmit_rto:0000000000000000 tcp_rexmit_rto
     /tmp/ccuCtRWT.s:2426   .text.tcp_rexmit:0000000000000000 $t
     /tmp/ccuCtRWT.s:2432   .text.tcp_rexmit:0000000000000000 tcp_rexmit
     /tmp/ccuCtRWT.s:2510   .text.tcp_rexmit_fast:0000000000000000 $t
     /tmp/ccuCtRWT.s:2516   .text.tcp_rexmit_fast:0000000000000000 tcp_rexmit_fast
     /tmp/ccuCtRWT.s:2587   .text.tcp_keepalive:0000000000000000 $t
     /tmp/ccuCtRWT.s:2593   .text.tcp_keepalive:0000000000000000 tcp_keepalive
     /tmp/ccuCtRWT.s:2674   .text.tcp_keepalive:0000000000000064 $d
     /tmp/ccuCtRWT.s:2679   .text.tcp_zero_window_probe:0000000000000000 $t
     /tmp/ccuCtRWT.s:2685   .text.tcp_zero_window_probe:0000000000000000 tcp_zero_window_probe
     /tmp/ccuCtRWT.s:2840   .text.tcp_zero_window_probe:00000000000000d4 $d
                     .debug_frame:0000000000000010 $d
     /tmp/ccuCtRWT.s:284    .text.tcp_create_segment:00000000000000bc $t
     /tmp/ccuCtRWT.s:1228   .text.tcp_write:0000000000000478 $t
     /tmp/ccuCtRWT.s:2360   .text.tcp_rst:00000000000000b8 $t
     /tmp/ccuCtRWT.s:2678   .text.tcp_keepalive:0000000000000068 $t
     /tmp/ccuCtRWT.s:2844   .text.tcp_zero_window_probe:00000000000000d8 $t

UNDEFINED SYMBOLS
pbuf_alloc
port_halt
memp_malloc
pbuf_header
lwip_htons
lwip_htonl
tcp_seg_free
pbuf_free
lwip_stats
pbuf_cat
pbuf_clen
ARM GAS  /tmp/ccuCtRWT.s 			page 200


memcpy
tcp_segs_free
lwip_ntohs
inet_chksum_pseudo
ip_output
ip_route
lwip_ntohl
tcp_ticks
tcp_input_pcb
pbuf_copy_partial
