ARM GAS  /tmp/ccQUlp8a.s 			page 1


   1              		.syntax unified
   2              		.cpu cortex-m4
   3              		.eabi_attribute 27, 3
   4              		.eabi_attribute 28, 1
   5              		.fpu fpv4-sp-d16
   6              		.eabi_attribute 20, 1
   7              		.eabi_attribute 21, 1
   8              		.eabi_attribute 23, 3
   9              		.eabi_attribute 24, 1
  10              		.eabi_attribute 25, 1
  11              		.eabi_attribute 26, 1
  12              		.eabi_attribute 30, 2
  13              		.eabi_attribute 34, 1
  14              		.eabi_attribute 18, 4
  15              		.thumb
  16              		.file	"tcpip.c"
  17              		.text
  18              	.Ltext0:
  19              		.cfi_sections	.debug_frame
  20              		.section	.text.pbuf_free_int,"ax",%progbits
  21              		.align	2
  22              		.p2align 4,,15
  23              		.thumb
  24              		.thumb_func
  25              		.type	pbuf_free_int, %function
  26              	pbuf_free_int:
  27              	.LFB14:
  28              		.file 1 "../../ext/lwip/src/api/tcpip.c"
  29              		.loc 1 430 0
  30              		.cfi_startproc
  31              		@ args = 0, pretend = 0, frame = 0
  32              		@ frame_needed = 0, uses_anonymous_args = 0
  33              		@ link register save eliminated.
  34              	.LVL0:
  35              		.loc 1 433 0
  36              		.loc 1 432 0
  37 0000 FFF7FEBF 		b	pbuf_free
  38              	.LVL1:
  39              		.cfi_endproc
  40              	.LFE14:
  41              		.size	pbuf_free_int, .-pbuf_free_int
  42 0004 AFF30080 		.section	.text.tcpip_thread,"ax",%progbits
  42      AFF30080 
  42      AFF30080 
  43              		.align	2
  44              		.p2align 4,,15
  45              		.thumb
  46              		.thumb_func
  47              		.type	tcpip_thread, %function
  48              	tcpip_thread:
  49              	.LFB7:
  50              		.loc 1 75 0
  51              		.cfi_startproc
  52              		@ args = 0, pretend = 0, frame = 8
  53              		@ frame_needed = 0, uses_anonymous_args = 0
  54              	.LVL2:
  55 0000 10B5     		push	{r4, lr}
ARM GAS  /tmp/ccQUlp8a.s 			page 2


  56              	.LCFI0:
  57              		.cfi_def_cfa_offset 8
  58              		.cfi_offset 4, -8
  59              		.cfi_offset 14, -4
  60              		.loc 1 79 0
  61 0002 254B     		ldr	r3, .L19
  62 0004 1B68     		ldr	r3, [r3, #0]
  63              		.loc 1 75 0
  64 0006 82B0     		sub	sp, sp, #8
  65              	.LCFI1:
  66              		.cfi_def_cfa_offset 16
  67              		.loc 1 79 0
  68 0008 13B1     		cbz	r3, .L17
  69              		.loc 1 80 0
  70 000a 244A     		ldr	r2, .L19+4
  71 000c 1068     		ldr	r0, [r2, #0]
  72              	.LVL3:
  73 000e 9847     		blx	r3
  74              	.LVL4:
  75              	.L17:
  76 0010 01AC     		add	r4, sp, #4
  77              	.LVL5:
  78              	.L16:
  79              		.loc 1 88 0
  80 0012 2146     		mov	r1, r4
  81 0014 2248     		ldr	r0, .L19+8
  82 0016 FFF7FEFF 		bl	sys_timeouts_mbox_fetch
  83              	.LVL6:
  84              		.loc 1 90 0
  85 001a 019B     		ldr	r3, [sp, #4]
  86 001c 1A78     		ldrb	r2, [r3, #0]	@ zero_extendqisi2
  87 001e 042A     		cmp	r2, #4
  88 0020 33D8     		bhi	.L6
  89 0022 DFE802F0 		tbb	[pc, r2]
  90              	.L12:
  91 0026 2D       		.byte	(.L7-.L12)/2
  92 0027 1E       		.byte	(.L8-.L12)/2
  93 0028 14       		.byte	(.L9-.L12)/2
  94 0029 0B       		.byte	(.L10-.L12)/2
  95 002a 03       		.byte	(.L11-.L12)/2
  96 002b 00       		.align	1
  97              	.L11:
  98              		.loc 1 122 0
  99 002c D868     		ldr	r0, [r3, #12]
 100 002e 9B68     		ldr	r3, [r3, #8]
 101 0030 9847     		blx	r3
 102              	.LVL7:
 103              		.loc 1 123 0
 104 0032 0920     		movs	r0, #9
 105 0034 0199     		ldr	r1, [sp, #4]
 106 0036 FFF7FEFF 		bl	memp_free
 107              	.LVL8:
 108              		.loc 1 124 0
 109 003a EAE7     		b	.L16
 110              	.L10:
 111              		.loc 1 134 0
 112 003c D868     		ldr	r0, [r3, #12]
ARM GAS  /tmp/ccQUlp8a.s 			page 3


 113 003e 1969     		ldr	r1, [r3, #16]
 114 0040 FFF7FEFF 		bl	sys_untimeout
 115              	.LVL9:
 116              		.loc 1 135 0
 117 0044 0920     		movs	r0, #9
 118 0046 0199     		ldr	r1, [sp, #4]
 119 0048 FFF7FEFF 		bl	memp_free
 120              	.LVL10:
 121              		.loc 1 136 0
 122 004c E1E7     		b	.L16
 123              	.L9:
 124              		.loc 1 129 0
 125 004e 03F10800 		add	r0, r3, #8
 126 0052 07C8     		ldmia	r0, {r0, r1, r2}
 127 0054 FFF7FEFF 		bl	sys_timeout
 128              	.LVL11:
 129              		.loc 1 130 0
 130 0058 0920     		movs	r0, #9
 131 005a 0199     		ldr	r1, [sp, #4]
 132 005c FFF7FEFF 		bl	memp_free
 133              	.LVL12:
 134              		.loc 1 131 0
 135 0060 D7E7     		b	.L16
 136              	.L8:
 137              		.loc 1 102 0
 138 0062 DA68     		ldr	r2, [r3, #12]
 139              		.loc 1 103 0
 140 0064 9868     		ldr	r0, [r3, #8]
 141              		.loc 1 102 0
 142 0066 92F82910 		ldrb	r1, [r2, #41]	@ zero_extendqisi2
 143 006a 11F0600F 		tst	r1, #96
 144              		.loc 1 107 0
 145 006e 1146     		mov	r1, r2
 146              		.loc 1 102 0
 147 0070 0ED0     		beq	.L14
 148              		.loc 1 103 0
 149 0072 FFF7FEFF 		bl	ethernet_input
 150              	.LVL13:
 151              	.L15:
 152              		.loc 1 109 0
 153 0076 0A20     		movs	r0, #10
 154 0078 0199     		ldr	r1, [sp, #4]
 155 007a FFF7FEFF 		bl	memp_free
 156              	.LVL14:
 157              		.loc 1 110 0
 158 007e C8E7     		b	.L16
 159              	.L7:
 160              		.loc 1 94 0
 161 0080 9868     		ldr	r0, [r3, #8]
 162 0082 0368     		ldr	r3, [r0, #0]
 163 0084 0430     		adds	r0, r0, #4
 164 0086 9847     		blx	r3
 165              	.LVL15:
 166              		.loc 1 95 0
 167 0088 C3E7     		b	.L16
 168              	.L6:
 169              		.loc 1 141 0 discriminator 1
ARM GAS  /tmp/ccQUlp8a.s 			page 4


 170 008a FFF7FEFF 		bl	port_halt
 171              	.LVL16:
 172              		.loc 1 142 0 discriminator 1
 173 008e C0E7     		b	.L16
 174              	.L14:
 175              		.loc 1 107 0
 176 0090 FFF7FEFF 		bl	ip_input
 177              	.LVL17:
 178 0094 EFE7     		b	.L15
 179              	.L20:
 180 0096 00BF     		.align	2
 181              	.L19:
 182 0098 00000000 		.word	.LANCHOR0
 183 009c 00000000 		.word	.LANCHOR1
 184 00a0 00000000 		.word	.LANCHOR2
 185              		.cfi_endproc
 186              	.LFE7:
 187              		.size	tcpip_thread, .-tcpip_thread
 188 00a4 AFF30080 		.section	.text.tcpip_input,"ax",%progbits
 188      AFF30080 
 188      AFF30080 
 189              		.align	2
 190              		.p2align 4,,15
 191              		.global	tcpip_input
 192              		.thumb
 193              		.thumb_func
 194              		.type	tcpip_input, %function
 195              	tcpip_input:
 196              	.LFB8:
 197              		.loc 1 157 0
 198              		.cfi_startproc
 199              		@ args = 0, pretend = 0, frame = 0
 200              		@ frame_needed = 0, uses_anonymous_args = 0
 201              	.LVL18:
 202 0000 70B5     		push	{r4, r5, r6, lr}
 203              	.LCFI2:
 204              		.cfi_def_cfa_offset 16
 205              		.cfi_offset 4, -16
 206              		.cfi_offset 5, -12
 207              		.cfi_offset 6, -8
 208              		.cfi_offset 14, -4
 209              		.loc 1 157 0
 210 0002 0646     		mov	r6, r0
 211              		.loc 1 175 0
 212 0004 0F48     		ldr	r0, .L27
 213              	.LVL19:
 214              		.loc 1 157 0
 215 0006 0D46     		mov	r5, r1
 216              		.loc 1 175 0
 217 0008 FFF7FEFF 		bl	sys_mbox_valid
 218              	.LVL20:
 219 000c 78B1     		cbz	r0, .L23
 220              		.loc 1 176 0
 221 000e 0A20     		movs	r0, #10
 222 0010 FFF7FEFF 		bl	memp_malloc
 223              	.LVL21:
 224              		.loc 1 177 0
ARM GAS  /tmp/ccQUlp8a.s 			page 5


 225 0014 0446     		mov	r4, r0
 226 0016 60B1     		cbz	r0, .L24
 227              		.loc 1 181 0
 228 0018 0123     		movs	r3, #1
 229 001a 0370     		strb	r3, [r0, #0]
 230              		.loc 1 182 0
 231 001c 8660     		str	r6, [r0, #8]
 232              		.loc 1 183 0
 233 001e C560     		str	r5, [r0, #12]
 234              		.loc 1 184 0
 235 0020 2146     		mov	r1, r4
 236 0022 0848     		ldr	r0, .L27
 237              	.LVL22:
 238 0024 FFF7FEFF 		bl	sys_mbox_trypost
 239              	.LVL23:
 240 0028 28B9     		cbnz	r0, .L26
 241              	.LVL24:
 242              	.L22:
 243              		.loc 1 192 0
 244 002a 40B2     		sxtb	r0, r0
 245 002c 70BD     		pop	{r4, r5, r6, pc}
 246              	.L23:
 247              		.loc 1 190 0
 248 002e FA20     		movs	r0, #250
 249 0030 FBE7     		b	.L22
 250              	.LVL25:
 251              	.L24:
 252              		.loc 1 178 0
 253 0032 FF20     		movs	r0, #255
 254              	.LVL26:
 255 0034 F9E7     		b	.L22
 256              	.L26:
 257              		.loc 1 185 0
 258 0036 0A20     		movs	r0, #10
 259 0038 2146     		mov	r1, r4
 260 003a FFF7FEFF 		bl	memp_free
 261              	.LVL27:
 262              		.loc 1 186 0
 263 003e FF20     		movs	r0, #255
 264 0040 F3E7     		b	.L22
 265              	.L28:
 266 0042 00BF     		.align	2
 267              	.L27:
 268 0044 00000000 		.word	.LANCHOR2
 269              		.cfi_endproc
 270              	.LFE8:
 271              		.size	tcpip_input, .-tcpip_input
 272 0048 AFF30080 		.section	.text.tcpip_callback_with_block,"ax",%progbits
 272      AFF30080 
 273              		.align	2
 274              		.p2align 4,,15
 275              		.global	tcpip_callback_with_block
 276              		.thumb
 277              		.thumb_func
 278              		.type	tcpip_callback_with_block, %function
 279              	tcpip_callback_with_block:
 280              	.LFB9:
ARM GAS  /tmp/ccQUlp8a.s 			page 6


 281              		.loc 1 207 0
 282              		.cfi_startproc
 283              		@ args = 0, pretend = 0, frame = 0
 284              		@ frame_needed = 0, uses_anonymous_args = 0
 285              	.LVL28:
 286 0000 F8B5     		push	{r3, r4, r5, r6, r7, lr}
 287              	.LCFI3:
 288              		.cfi_def_cfa_offset 24
 289              		.cfi_offset 3, -24
 290              		.cfi_offset 4, -20
 291              		.cfi_offset 5, -16
 292              		.cfi_offset 6, -12
 293              		.cfi_offset 7, -8
 294              		.cfi_offset 14, -4
 295              		.loc 1 207 0
 296 0002 0746     		mov	r7, r0
 297              		.loc 1 210 0
 298 0004 1248     		ldr	r0, .L37
 299              	.LVL29:
 300              		.loc 1 207 0
 301 0006 0E46     		mov	r6, r1
 302 0008 1546     		mov	r5, r2
 303              		.loc 1 210 0
 304 000a FFF7FEFF 		bl	sys_mbox_valid
 305              	.LVL30:
 306 000e A8B1     		cbz	r0, .L32
 307              		.loc 1 211 0
 308 0010 0920     		movs	r0, #9
 309 0012 FFF7FEFF 		bl	memp_malloc
 310              	.LVL31:
 311              		.loc 1 212 0
 312 0016 0446     		mov	r4, r0
 313 0018 C0B1     		cbz	r0, .L33
 314              		.loc 1 216 0
 315 001a 0423     		movs	r3, #4
 316 001c 0370     		strb	r3, [r0, #0]
 317              		.loc 1 217 0
 318 001e 8760     		str	r7, [r0, #8]
 319              		.loc 1 218 0
 320 0020 C660     		str	r6, [r0, #12]
 321              		.loc 1 220 0
 322 0022 2146     		mov	r1, r4
 323 0024 0A48     		ldr	r0, .L37
 324              	.LVL32:
 325              		.loc 1 219 0
 326 0026 25B9     		cbnz	r5, .L35
 327              		.loc 1 222 0
 328 0028 FFF7FEFF 		bl	sys_mbox_trypost
 329              	.LVL33:
 330 002c 40B9     		cbnz	r0, .L36
 331              	.LVL34:
 332              	.L30:
 333              		.loc 1 230 0
 334 002e 40B2     		sxtb	r0, r0
 335 0030 F8BD     		pop	{r3, r4, r5, r6, r7, pc}
 336              	.LVL35:
 337              	.L35:
ARM GAS  /tmp/ccQUlp8a.s 			page 7


 338              		.loc 1 220 0
 339 0032 FFF7FEFF 		bl	sys_mbox_post
 340              	.LVL36:
 341              		.loc 1 227 0
 342 0036 0020     		movs	r0, #0
 343              		.loc 1 230 0
 344 0038 40B2     		sxtb	r0, r0
 345 003a F8BD     		pop	{r3, r4, r5, r6, r7, pc}
 346              	.LVL37:
 347              	.L32:
 348              		.loc 1 229 0
 349 003c FA20     		movs	r0, #250
 350 003e F6E7     		b	.L30
 351              	.LVL38:
 352              	.L36:
 353              		.loc 1 223 0
 354 0040 0920     		movs	r0, #9
 355 0042 2146     		mov	r1, r4
 356 0044 FFF7FEFF 		bl	memp_free
 357              	.LVL39:
 358              		.loc 1 224 0
 359 0048 FF20     		movs	r0, #255
 360 004a F0E7     		b	.L30
 361              	.LVL40:
 362              	.L33:
 363              		.loc 1 213 0
 364 004c FF20     		movs	r0, #255
 365              	.LVL41:
 366 004e EEE7     		b	.L30
 367              	.L38:
 368              		.align	2
 369              	.L37:
 370 0050 00000000 		.word	.LANCHOR2
 371              		.cfi_endproc
 372              	.LFE9:
 373              		.size	tcpip_callback_with_block, .-tcpip_callback_with_block
 374 0054 AFF30080 		.section	.text.tcpip_timeout,"ax",%progbits
 374      AFF30080 
 374      AFF30080 
 375              		.align	2
 376              		.p2align 4,,15
 377              		.global	tcpip_timeout
 378              		.thumb
 379              		.thumb_func
 380              		.type	tcpip_timeout, %function
 381              	tcpip_timeout:
 382              	.LFB10:
 383              		.loc 1 243 0
 384              		.cfi_startproc
 385              		@ args = 0, pretend = 0, frame = 0
 386              		@ frame_needed = 0, uses_anonymous_args = 0
 387              	.LVL42:
 388 0000 70B5     		push	{r4, r5, r6, lr}
 389              	.LCFI4:
 390              		.cfi_def_cfa_offset 16
 391              		.cfi_offset 4, -16
 392              		.cfi_offset 5, -12
ARM GAS  /tmp/ccQUlp8a.s 			page 8


 393              		.cfi_offset 6, -8
 394              		.cfi_offset 14, -4
 395              		.loc 1 243 0
 396 0002 0646     		mov	r6, r0
 397              		.loc 1 246 0
 398 0004 0C48     		ldr	r0, .L43
 399              	.LVL43:
 400              		.loc 1 243 0
 401 0006 0D46     		mov	r5, r1
 402 0008 1446     		mov	r4, r2
 403              		.loc 1 246 0
 404 000a FFF7FEFF 		bl	sys_mbox_valid
 405              	.LVL44:
 406 000e 78B1     		cbz	r0, .L41
 407              		.loc 1 247 0
 408 0010 0920     		movs	r0, #9
 409 0012 FFF7FEFF 		bl	memp_malloc
 410              	.LVL45:
 411              		.loc 1 248 0
 412 0016 0146     		mov	r1, r0
 413 0018 60B1     		cbz	r0, .L42
 414              		.loc 1 252 0
 415 001a 0222     		movs	r2, #2
 416 001c 0270     		strb	r2, [r0, #0]
 417              		.loc 1 253 0
 418 001e 8660     		str	r6, [r0, #8]
 419              		.loc 1 254 0
 420 0020 C560     		str	r5, [r0, #12]
 421              		.loc 1 255 0
 422 0022 0461     		str	r4, [r0, #16]
 423              		.loc 1 256 0
 424 0024 0448     		ldr	r0, .L43
 425              	.LVL46:
 426 0026 FFF7FEFF 		bl	sys_mbox_post
 427              	.LVL47:
 428              		.loc 1 257 0
 429 002a 0020     		movs	r0, #0
 430              	.L40:
 431              		.loc 1 260 0
 432 002c 40B2     		sxtb	r0, r0
 433 002e 70BD     		pop	{r4, r5, r6, pc}
 434              	.L41:
 435              		.loc 1 259 0
 436 0030 FA20     		movs	r0, #250
 437 0032 FBE7     		b	.L40
 438              	.LVL48:
 439              	.L42:
 440              		.loc 1 249 0
 441 0034 FF20     		movs	r0, #255
 442              	.LVL49:
 443 0036 F9E7     		b	.L40
 444              	.L44:
 445              		.align	2
 446              	.L43:
 447 0038 00000000 		.word	.LANCHOR2
 448              		.cfi_endproc
 449              	.LFE10:
ARM GAS  /tmp/ccQUlp8a.s 			page 9


 450              		.size	tcpip_timeout, .-tcpip_timeout
 451 003c AFF30080 		.section	.text.tcpip_untimeout,"ax",%progbits
 452              		.align	2
 453              		.p2align 4,,15
 454              		.global	tcpip_untimeout
 455              		.thumb
 456              		.thumb_func
 457              		.type	tcpip_untimeout, %function
 458              	tcpip_untimeout:
 459              	.LFB11:
 460              		.loc 1 272 0
 461              		.cfi_startproc
 462              		@ args = 0, pretend = 0, frame = 0
 463              		@ frame_needed = 0, uses_anonymous_args = 0
 464              	.LVL50:
 465 0000 38B5     		push	{r3, r4, r5, lr}
 466              	.LCFI5:
 467              		.cfi_def_cfa_offset 16
 468              		.cfi_offset 3, -16
 469              		.cfi_offset 4, -12
 470              		.cfi_offset 5, -8
 471              		.cfi_offset 14, -4
 472              		.loc 1 272 0
 473 0002 0546     		mov	r5, r0
 474              		.loc 1 275 0
 475 0004 0B48     		ldr	r0, .L49
 476              	.LVL51:
 477              		.loc 1 272 0
 478 0006 0C46     		mov	r4, r1
 479              		.loc 1 275 0
 480 0008 FFF7FEFF 		bl	sys_mbox_valid
 481              	.LVL52:
 482 000c 70B1     		cbz	r0, .L47
 483              		.loc 1 276 0
 484 000e 0920     		movs	r0, #9
 485 0010 FFF7FEFF 		bl	memp_malloc
 486              	.LVL53:
 487              		.loc 1 277 0
 488 0014 0146     		mov	r1, r0
 489 0016 58B1     		cbz	r0, .L48
 490              		.loc 1 281 0
 491 0018 0322     		movs	r2, #3
 492 001a 0270     		strb	r2, [r0, #0]
 493              		.loc 1 282 0
 494 001c C560     		str	r5, [r0, #12]
 495              		.loc 1 283 0
 496 001e 0461     		str	r4, [r0, #16]
 497              		.loc 1 284 0
 498 0020 0448     		ldr	r0, .L49
 499              	.LVL54:
 500 0022 FFF7FEFF 		bl	sys_mbox_post
 501              	.LVL55:
 502              		.loc 1 285 0
 503 0026 0020     		movs	r0, #0
 504              	.L46:
 505              		.loc 1 288 0
 506 0028 40B2     		sxtb	r0, r0
ARM GAS  /tmp/ccQUlp8a.s 			page 10


 507 002a 38BD     		pop	{r3, r4, r5, pc}
 508              	.L47:
 509              		.loc 1 287 0
 510 002c FA20     		movs	r0, #250
 511 002e FBE7     		b	.L46
 512              	.LVL56:
 513              	.L48:
 514              		.loc 1 278 0
 515 0030 FF20     		movs	r0, #255
 516              	.LVL57:
 517 0032 F9E7     		b	.L46
 518              	.L50:
 519              		.align	2
 520              	.L49:
 521 0034 00000000 		.word	.LANCHOR2
 522              		.cfi_endproc
 523              	.LFE11:
 524              		.size	tcpip_untimeout, .-tcpip_untimeout
 525 0038 AFF30080 		.section	.text.tcpip_apimsg,"ax",%progbits
 525      AFF30080 
 526              		.align	2
 527              		.p2align 4,,15
 528              		.global	tcpip_apimsg
 529              		.thumb
 530              		.thumb_func
 531              		.type	tcpip_apimsg, %function
 532              	tcpip_apimsg:
 533              	.LFB12:
 534              		.loc 1 302 0
 535              		.cfi_startproc
 536              		@ args = 0, pretend = 0, frame = 24
 537              		@ frame_needed = 0, uses_anonymous_args = 0
 538              	.LVL58:
 539 0000 30B5     		push	{r4, r5, lr}
 540              	.LCFI6:
 541              		.cfi_def_cfa_offset 12
 542              		.cfi_offset 4, -12
 543              		.cfi_offset 5, -8
 544              		.cfi_offset 14, -4
 545 0002 0446     		mov	r4, r0
 546 0004 87B0     		sub	sp, sp, #28
 547              	.LCFI7:
 548              		.cfi_def_cfa_offset 40
 549              		.loc 1 309 0
 550 0006 0B48     		ldr	r0, .L54
 551              	.LVL59:
 552 0008 FFF7FEFF 		bl	sys_mbox_valid
 553              	.LVL60:
 554 000c 80B1     		cbz	r0, .L53
 555              		.loc 1 310 0
 556 000e 0025     		movs	r5, #0
 557              		.loc 1 312 0
 558 0010 0848     		ldr	r0, .L54
 559              		.loc 1 310 0
 560 0012 8DF80450 		strb	r5, [sp, #4]
 561              		.loc 1 312 0
 562 0016 01A9     		add	r1, sp, #4
ARM GAS  /tmp/ccQUlp8a.s 			page 11


 563              		.loc 1 311 0
 564 0018 0394     		str	r4, [sp, #12]
 565              		.loc 1 312 0
 566 001a FFF7FEFF 		bl	sys_mbox_post
 567              	.LVL61:
 568              		.loc 1 313 0
 569 001e 6068     		ldr	r0, [r4, #4]
 570 0020 2946     		mov	r1, r5
 571 0022 0C30     		adds	r0, r0, #12
 572 0024 FFF7FEFF 		bl	sys_arch_sem_wait
 573              	.LVL62:
 574              		.loc 1 314 0
 575 0028 207A     		ldrb	r0, [r4, #8]	@ zero_extendqisi2
 576              	.L52:
 577              		.loc 1 317 0
 578 002a 40B2     		sxtb	r0, r0
 579 002c 07B0     		add	sp, sp, #28
 580 002e 30BD     		pop	{r4, r5, pc}
 581              	.L53:
 582              		.loc 1 316 0
 583 0030 FA20     		movs	r0, #250
 584 0032 FAE7     		b	.L52
 585              	.L55:
 586              		.align	2
 587              	.L54:
 588 0034 00000000 		.word	.LANCHOR2
 589              		.cfi_endproc
 590              	.LFE12:
 591              		.size	tcpip_apimsg, .-tcpip_apimsg
 592 0038 AFF30080 		.section	.text.tcpip_init,"ax",%progbits
 592      AFF30080 
 593              		.align	2
 594              		.p2align 4,,15
 595              		.global	tcpip_init
 596              		.thumb
 597              		.thumb_func
 598              		.type	tcpip_init, %function
 599              	tcpip_init:
 600              	.LFB13:
 601              		.loc 1 405 0
 602              		.cfi_startproc
 603              		@ args = 0, pretend = 0, frame = 0
 604              		@ frame_needed = 0, uses_anonymous_args = 0
 605              	.LVL63:
 606 0000 30B5     		push	{r4, r5, lr}
 607              	.LCFI8:
 608              		.cfi_def_cfa_offset 12
 609              		.cfi_offset 4, -12
 610              		.cfi_offset 5, -8
 611              		.cfi_offset 14, -4
 612 0002 83B0     		sub	sp, sp, #12
 613              	.LCFI9:
 614              		.cfi_def_cfa_offset 24
 615              		.loc 1 405 0
 616 0004 0546     		mov	r5, r0
 617 0006 0C46     		mov	r4, r1
 618              		.loc 1 406 0
ARM GAS  /tmp/ccQUlp8a.s 			page 12


 619 0008 FFF7FEFF 		bl	lwip_init
 620              	.LVL64:
 621              		.loc 1 408 0
 622 000c 0A4B     		ldr	r3, .L61
 623              		.loc 1 410 0
 624 000e 0B48     		ldr	r0, .L61+4
 625              		.loc 1 408 0
 626 0010 1D60     		str	r5, [r3, #0]
 627              		.loc 1 409 0
 628 0012 0B4B     		ldr	r3, .L61+8
 629              		.loc 1 410 0
 630 0014 0421     		movs	r1, #4
 631              		.loc 1 409 0
 632 0016 1C60     		str	r4, [r3, #0]
 633              		.loc 1 410 0
 634 0018 FFF7FEFF 		bl	sys_mbox_new
 635              	.LVL65:
 636 001c 08B1     		cbz	r0, .L57
 637              		.loc 1 411 0 discriminator 1
 638 001e FFF7FEFF 		bl	port_halt
 639              	.LVL66:
 640              	.L57:
 641              		.loc 1 419 0
 642 0022 0323     		movs	r3, #3
 643 0024 0093     		str	r3, [sp, #0]
 644 0026 0749     		ldr	r1, .L61+12
 645 0028 0748     		ldr	r0, .L61+16
 646 002a 0022     		movs	r2, #0
 647 002c 4FF48063 		mov	r3, #1024
 648 0030 FFF7FEFF 		bl	sys_thread_new
 649              	.LVL67:
 650              		.loc 1 420 0
 651 0034 03B0     		add	sp, sp, #12
 652 0036 30BD     		pop	{r4, r5, pc}
 653              	.L62:
 654              		.align	2
 655              	.L61:
 656 0038 00000000 		.word	.LANCHOR0
 657 003c 00000000 		.word	.LANCHOR2
 658 0040 00000000 		.word	.LANCHOR1
 659 0044 00000000 		.word	tcpip_thread
 660 0048 00000000 		.word	.LC0
 661              		.cfi_endproc
 662              	.LFE13:
 663              		.size	tcpip_init, .-tcpip_init
 664 004c AFF30080 		.section	.text.pbuf_free_callback,"ax",%progbits
 665              		.align	2
 666              		.p2align 4,,15
 667              		.global	pbuf_free_callback
 668              		.thumb
 669              		.thumb_func
 670              		.type	pbuf_free_callback, %function
 671              	pbuf_free_callback:
 672              	.LFB15:
 673              		.loc 1 443 0
 674              		.cfi_startproc
 675              		@ args = 0, pretend = 0, frame = 0
ARM GAS  /tmp/ccQUlp8a.s 			page 13


 676              		@ frame_needed = 0, uses_anonymous_args = 0
 677              		@ link register save eliminated.
 678              	.LVL68:
 679              		.loc 1 443 0
 680 0000 0146     		mov	r1, r0
 681              		.loc 1 444 0
 682 0002 40F20000 		movw	r0, #:lower16:pbuf_free_int
 683              	.LVL69:
 684 0006 C0F20000 		movt	r0, #:upper16:pbuf_free_int
 685 000a 0022     		movs	r2, #0
 686              		.loc 1 445 0
 687              		.loc 1 444 0
 688 000c FFF7FEBF 		b	tcpip_callback_with_block
 689              	.LVL70:
 690              		.cfi_endproc
 691              	.LFE15:
 692              		.size	pbuf_free_callback, .-pbuf_free_callback
 693              		.section	.text.mem_free_callback,"ax",%progbits
 694              		.align	2
 695              		.p2align 4,,15
 696              		.global	mem_free_callback
 697              		.thumb
 698              		.thumb_func
 699              		.type	mem_free_callback, %function
 700              	mem_free_callback:
 701              	.LFB16:
 702              		.loc 1 456 0
 703              		.cfi_startproc
 704              		@ args = 0, pretend = 0, frame = 0
 705              		@ frame_needed = 0, uses_anonymous_args = 0
 706              		@ link register save eliminated.
 707              	.LVL71:
 708              		.loc 1 456 0
 709 0000 0146     		mov	r1, r0
 710              		.loc 1 457 0
 711 0002 40F20000 		movw	r0, #:lower16:mem_free
 712              	.LVL72:
 713 0006 C0F20000 		movt	r0, #:upper16:mem_free
 714 000a 0022     		movs	r2, #0
 715              		.loc 1 458 0
 716              		.loc 1 457 0
 717 000c FFF7FEBF 		b	tcpip_callback_with_block
 718              	.LVL73:
 719              		.cfi_endproc
 720              	.LFE16:
 721              		.size	mem_free_callback, .-mem_free_callback
 722              		.section	.rodata.str1.4,"aMS",%progbits,1
 723              		.align	2
 724              	.LC0:
 725 0000 74637069 		.ascii	"tcpip_thread\000"
 725      705F7468 
 725      72656164 
 725      00
 726 000d 000000   		.section	.bss.mbox,"aw",%nobits
 727              		.align	2
 728              		.set	.LANCHOR2,. + 0
 729              		.type	mbox, %object
ARM GAS  /tmp/ccQUlp8a.s 			page 14


 730              		.size	mbox, 4
 731              	mbox:
 732 0000 00000000 		.space	4
 733              		.section	.bss.tcpip_init_done_arg,"aw",%nobits
 734              		.align	2
 735              		.set	.LANCHOR1,. + 0
 736              		.type	tcpip_init_done_arg, %object
 737              		.size	tcpip_init_done_arg, 4
 738              	tcpip_init_done_arg:
 739 0000 00000000 		.space	4
 740              		.section	.bss.tcpip_init_done,"aw",%nobits
 741              		.align	2
 742              		.set	.LANCHOR0,. + 0
 743              		.type	tcpip_init_done, %object
 744              		.size	tcpip_init_done, 4
 745              	tcpip_init_done:
 746 0000 00000000 		.space	4
 747              		.text
 748              	.Letext0:
 749              		.file 2 "/opt/psas/x-tools/stm32f407/arm-psas-eabi/bin/../lib/gcc/arm-psas-eabi/4.7.2/include/stdd
 750              		.file 3 "/opt/psas/x-tools/stm32f407/arm-psas-eabi/bin/../lib/gcc/arm-psas-eabi/4.7.2/../../../../
 751              		.file 4 "../../os/ports/GCC/ARMCMx/chtypes.h"
 752              		.file 5 "../../os/kernel/include/chlists.h"
 753              		.file 6 "../../os/kernel/include/chthreads.h"
 754              		.file 7 "../../os/ports/GCC/ARMCMx/chcore_v7m.h"
 755              		.file 8 "../../os/kernel/include/chsem.h"
 756              		.file 9 "../../os/kernel/include/chmtx.h"
 757              		.file 10 "../../os/kernel/include/chmboxes.h"
 758              		.file 11 "../../os/various/lwip_bindings/arch/cc.h"
 759              		.file 12 "../../ext/lwip/src/include/lwip/err.h"
 760              		.file 13 "../../os/various/lwip_bindings/arch/sys_arch.h"
 761              		.file 14 "../../ext/lwip/src/include/lwip/sys.h"
 762              		.file 15 "../../ext/lwip/src/include/lwip/memp.h"
 763              		.file 16 "../../ext/lwip/src/include/lwip/pbuf.h"
 764              		.file 17 "../../ext/lwip/src/include/ipv4/lwip/ip_addr.h"
 765              		.file 18 "../../ext/lwip/src/include/lwip/netif.h"
 766              		.file 19 "../../ext/lwip/src/include/lwip/netbuf.h"
 767              		.file 20 "../../ext/lwip/src/include/lwip/api.h"
 768              		.file 21 "../../ext/lwip/src/include/ipv4/lwip/ip.h"
 769              		.file 22 "../../ext/lwip/src/include/lwip/api_msg.h"
 770              		.file 23 "../../ext/lwip/src/include/lwip/timers.h"
 771              		.file 24 "../../ext/lwip/src/include/lwip/tcpip.h"
 772              		.file 25 "../../ext/lwip/src/include/netif/etharp.h"
 773              		.file 26 "../../ext/lwip/src/include/lwip/init.h"
 774              		.section	.debug_info,"",%progbits
 775              	.Ldebug_info0:
 776 0000 F8130000 		.4byte	0x13f8
 777 0004 0200     		.2byte	0x2
 778 0006 00000000 		.4byte	.Ldebug_abbrev0
 779 000a 04       		.byte	0x4
 780 000b 01       		.uleb128 0x1
 781 000c 97010000 		.4byte	.LASF205
 782 0010 01       		.byte	0x1
 783 0011 04080000 		.4byte	.LASF206
 784 0015 E1040000 		.4byte	.LASF207
 785 0019 00000000 		.4byte	.Ldebug_ranges0+0
 786 001d 00000000 		.4byte	0
ARM GAS  /tmp/ccQUlp8a.s 			page 15


 787 0021 00000000 		.4byte	0
 788 0025 00000000 		.4byte	.Ldebug_line0
 789 0029 02       		.uleb128 0x2
 790 002a 04       		.byte	0x4
 791 002b 05       		.byte	0x5
 792 002c 696E7400 		.ascii	"int\000"
 793 0030 03       		.uleb128 0x3
 794 0031 D0020000 		.4byte	.LASF1
 795 0035 02       		.byte	0x2
 796 0036 D5       		.byte	0xd5
 797 0037 3B000000 		.4byte	0x3b
 798 003b 04       		.uleb128 0x4
 799 003c 04       		.byte	0x4
 800 003d 07       		.byte	0x7
 801 003e AF000000 		.4byte	.LASF0
 802 0042 03       		.uleb128 0x3
 803 0043 84010000 		.4byte	.LASF2
 804 0047 03       		.byte	0x3
 805 0048 29       		.byte	0x29
 806 0049 4D000000 		.4byte	0x4d
 807 004d 04       		.uleb128 0x4
 808 004e 01       		.byte	0x1
 809 004f 06       		.byte	0x6
 810 0050 A8080000 		.4byte	.LASF3
 811 0054 03       		.uleb128 0x3
 812 0055 0F040000 		.4byte	.LASF4
 813 0059 03       		.byte	0x3
 814 005a 2A       		.byte	0x2a
 815 005b 5F000000 		.4byte	0x5f
 816 005f 04       		.uleb128 0x4
 817 0060 01       		.byte	0x1
 818 0061 08       		.byte	0x8
 819 0062 B2070000 		.4byte	.LASF5
 820 0066 04       		.uleb128 0x4
 821 0067 02       		.byte	0x2
 822 0068 05       		.byte	0x5
 823 0069 12060000 		.4byte	.LASF6
 824 006d 03       		.uleb128 0x3
 825 006e AB050000 		.4byte	.LASF7
 826 0072 03       		.byte	0x3
 827 0073 36       		.byte	0x36
 828 0074 78000000 		.4byte	0x78
 829 0078 04       		.uleb128 0x4
 830 0079 02       		.byte	0x2
 831 007a 07       		.byte	0x7
 832 007b BC080000 		.4byte	.LASF8
 833 007f 03       		.uleb128 0x3
 834 0080 6F070000 		.4byte	.LASF9
 835 0084 03       		.byte	0x3
 836 0085 4F       		.byte	0x4f
 837 0086 8A000000 		.4byte	0x8a
 838 008a 04       		.uleb128 0x4
 839 008b 04       		.byte	0x4
 840 008c 05       		.byte	0x5
 841 008d 41060000 		.4byte	.LASF10
 842 0091 03       		.uleb128 0x3
 843 0092 7B010000 		.4byte	.LASF11
ARM GAS  /tmp/ccQUlp8a.s 			page 16


 844 0096 03       		.byte	0x3
 845 0097 50       		.byte	0x50
 846 0098 9C000000 		.4byte	0x9c
 847 009c 04       		.uleb128 0x4
 848 009d 04       		.byte	0x4
 849 009e 07       		.byte	0x7
 850 009f 47070000 		.4byte	.LASF12
 851 00a3 04       		.uleb128 0x4
 852 00a4 08       		.byte	0x8
 853 00a5 05       		.byte	0x5
 854 00a6 93040000 		.4byte	.LASF13
 855 00aa 04       		.uleb128 0x4
 856 00ab 08       		.byte	0x8
 857 00ac 07       		.byte	0x7
 858 00ad 01020000 		.4byte	.LASF14
 859 00b1 03       		.uleb128 0x3
 860 00b2 84050000 		.4byte	.LASF15
 861 00b6 04       		.byte	0x4
 862 00b7 28       		.byte	0x28
 863 00b8 54000000 		.4byte	0x54
 864 00bc 03       		.uleb128 0x3
 865 00bd F6030000 		.4byte	.LASF16
 866 00c1 04       		.byte	0x4
 867 00c2 29       		.byte	0x29
 868 00c3 54000000 		.4byte	0x54
 869 00c7 03       		.uleb128 0x3
 870 00c8 3F070000 		.4byte	.LASF17
 871 00cc 04       		.byte	0x4
 872 00cd 2A       		.byte	0x2a
 873 00ce 54000000 		.4byte	0x54
 874 00d2 03       		.uleb128 0x3
 875 00d3 2B050000 		.4byte	.LASF18
 876 00d7 04       		.byte	0x4
 877 00d8 2B       		.byte	0x2b
 878 00d9 54000000 		.4byte	0x54
 879 00dd 03       		.uleb128 0x3
 880 00de D8010000 		.4byte	.LASF19
 881 00e2 04       		.byte	0x4
 882 00e3 2C       		.byte	0x2c
 883 00e4 91000000 		.4byte	0x91
 884 00e8 03       		.uleb128 0x3
 885 00e9 AD040000 		.4byte	.LASF20
 886 00ed 04       		.byte	0x4
 887 00ee 2D       		.byte	0x2d
 888 00ef 7F000000 		.4byte	0x7f
 889 00f3 03       		.uleb128 0x3
 890 00f4 8B010000 		.4byte	.LASF21
 891 00f8 04       		.byte	0x4
 892 00f9 2F       		.byte	0x2f
 893 00fa 91000000 		.4byte	0x91
 894 00fe 03       		.uleb128 0x3
 895 00ff 79000000 		.4byte	.LASF22
 896 0103 04       		.byte	0x4
 897 0104 31       		.byte	0x31
 898 0105 91000000 		.4byte	0x91
 899 0109 03       		.uleb128 0x3
 900 010a 28020000 		.4byte	.LASF23
ARM GAS  /tmp/ccQUlp8a.s 			page 17


 901 010e 04       		.byte	0x4
 902 010f 32       		.byte	0x32
 903 0110 7F000000 		.4byte	0x7f
 904 0114 03       		.uleb128 0x3
 905 0115 E9030000 		.4byte	.LASF24
 906 0119 05       		.byte	0x5
 907 011a 23       		.byte	0x23
 908 011b 1F010000 		.4byte	0x11f
 909 011f 05       		.uleb128 0x5
 910 0120 E9030000 		.4byte	.LASF24
 911 0124 48       		.byte	0x48
 912 0125 06       		.byte	0x6
 913 0126 57       		.byte	0x57
 914 0127 44020000 		.4byte	0x244
 915 012b 06       		.uleb128 0x6
 916 012c 8E060000 		.4byte	.LASF25
 917 0130 06       		.byte	0x6
 918 0131 58       		.byte	0x58
 919 0132 69020000 		.4byte	0x269
 920 0136 02       		.byte	0x2
 921 0137 23       		.byte	0x23
 922 0138 00       		.uleb128 0
 923 0139 06       		.uleb128 0x6
 924 013a 2F070000 		.4byte	.LASF26
 925 013e 06       		.byte	0x6
 926 013f 5A       		.byte	0x5a
 927 0140 69020000 		.4byte	0x269
 928 0144 02       		.byte	0x2
 929 0145 23       		.byte	0x23
 930 0146 04       		.uleb128 0x4
 931 0147 06       		.uleb128 0x6
 932 0148 58000000 		.4byte	.LASF27
 933 014c 06       		.byte	0x6
 934 014d 5C       		.byte	0x5c
 935 014e DD000000 		.4byte	0xdd
 936 0152 02       		.byte	0x2
 937 0153 23       		.byte	0x23
 938 0154 08       		.uleb128 0x8
 939 0155 06       		.uleb128 0x6
 940 0156 AB060000 		.4byte	.LASF28
 941 015a 06       		.byte	0x6
 942 015b 5D       		.byte	0x5d
 943 015c 37030000 		.4byte	0x337
 944 0160 02       		.byte	0x2
 945 0161 23       		.byte	0x23
 946 0162 0C       		.uleb128 0xc
 947 0163 06       		.uleb128 0x6
 948 0164 48020000 		.4byte	.LASF29
 949 0168 06       		.byte	0x6
 950 0169 5F       		.byte	0x5f
 951 016a 69020000 		.4byte	0x269
 952 016e 02       		.byte	0x2
 953 016f 23       		.byte	0x23
 954 0170 10       		.uleb128 0x10
 955 0171 06       		.uleb128 0x6
 956 0172 FF030000 		.4byte	.LASF30
 957 0176 06       		.byte	0x6
ARM GAS  /tmp/ccQUlp8a.s 			page 18


 958 0177 60       		.byte	0x60
 959 0178 69020000 		.4byte	0x269
 960 017c 02       		.byte	0x2
 961 017d 23       		.byte	0x23
 962 017e 14       		.uleb128 0x14
 963 017f 06       		.uleb128 0x6
 964 0180 82030000 		.4byte	.LASF31
 965 0184 06       		.byte	0x6
 966 0185 67       		.byte	0x67
 967 0186 97040000 		.4byte	0x497
 968 018a 02       		.byte	0x2
 969 018b 23       		.byte	0x23
 970 018c 18       		.uleb128 0x18
 971 018d 06       		.uleb128 0x6
 972 018e 07040000 		.4byte	.LASF32
 973 0192 06       		.byte	0x6
 974 0193 72       		.byte	0x72
 975 0194 BC000000 		.4byte	0xbc
 976 0198 02       		.byte	0x2
 977 0199 23       		.byte	0x23
 978 019a 1C       		.uleb128 0x1c
 979 019b 06       		.uleb128 0x6
 980 019c C0040000 		.4byte	.LASF33
 981 01a0 06       		.byte	0x6
 982 01a1 76       		.byte	0x76
 983 01a2 B1000000 		.4byte	0xb1
 984 01a6 02       		.byte	0x2
 985 01a7 23       		.byte	0x23
 986 01a8 1D       		.uleb128 0x1d
 987 01a9 06       		.uleb128 0x6
 988 01aa C9070000 		.4byte	.LASF34
 989 01ae 06       		.byte	0x6
 990 01af 7B       		.byte	0x7b
 991 01b0 C7000000 		.4byte	0xc7
 992 01b4 02       		.byte	0x2
 993 01b5 23       		.byte	0x23
 994 01b6 1E       		.uleb128 0x1e
 995 01b7 06       		.uleb128 0x6
 996 01b8 2D080000 		.4byte	.LASF35
 997 01bc 06       		.byte	0x6
 998 01bd 81       		.byte	0x81
 999 01be D2000000 		.4byte	0xd2
 1000 01c2 02       		.byte	0x2
 1001 01c3 23       		.byte	0x23
 1002 01c4 1F       		.uleb128 0x1f
 1003 01c5 06       		.uleb128 0x6
 1004 01c6 3D000000 		.4byte	.LASF36
 1005 01ca 06       		.byte	0x6
 1006 01cb 88       		.byte	0x88
 1007 01cc 73030000 		.4byte	0x373
 1008 01d0 02       		.byte	0x2
 1009 01d1 23       		.byte	0x23
 1010 01d2 20       		.uleb128 0x20
 1011 01d3 07       		.uleb128 0x7
 1012 01d4 705F7500 		.ascii	"p_u\000"
 1013 01d8 06       		.byte	0x6
 1014 01d9 AD       		.byte	0xad
ARM GAS  /tmp/ccQUlp8a.s 			page 19


 1015 01da 62040000 		.4byte	0x462
 1016 01de 02       		.byte	0x2
 1017 01df 23       		.byte	0x23
 1018 01e0 24       		.uleb128 0x24
 1019 01e1 06       		.uleb128 0x6
 1020 01e2 0C000000 		.4byte	.LASF37
 1021 01e6 06       		.byte	0x6
 1022 01e7 B2       		.byte	0xb2
 1023 01e8 91020000 		.4byte	0x291
 1024 01ec 02       		.byte	0x2
 1025 01ed 23       		.byte	0x23
 1026 01ee 28       		.uleb128 0x28
 1027 01ef 06       		.uleb128 0x6
 1028 01f0 A4000000 		.4byte	.LASF38
 1029 01f4 06       		.byte	0x6
 1030 01f5 B8       		.byte	0xb8
 1031 01f6 6F020000 		.4byte	0x26f
 1032 01fa 02       		.byte	0x2
 1033 01fb 23       		.byte	0x23
 1034 01fc 2C       		.uleb128 0x2c
 1035 01fd 06       		.uleb128 0x6
 1036 01fe 76050000 		.4byte	.LASF39
 1037 0202 06       		.byte	0x6
 1038 0203 BC       		.byte	0xbc
 1039 0204 E8000000 		.4byte	0xe8
 1040 0208 02       		.byte	0x2
 1041 0209 23       		.byte	0x23
 1042 020a 34       		.uleb128 0x34
 1043 020b 06       		.uleb128 0x6
 1044 020c 2E060000 		.4byte	.LASF40
 1045 0210 06       		.byte	0x6
 1046 0211 C2       		.byte	0xc2
 1047 0212 F3000000 		.4byte	0xf3
 1048 0216 02       		.byte	0x2
 1049 0217 23       		.byte	0x23
 1050 0218 38       		.uleb128 0x38
 1051 0219 06       		.uleb128 0x6
 1052 021a 2A040000 		.4byte	.LASF41
 1053 021e 06       		.byte	0x6
 1054 021f C9       		.byte	0xc9
 1055 0220 A9040000 		.4byte	0x4a9
 1056 0224 02       		.byte	0x2
 1057 0225 23       		.byte	0x23
 1058 0226 3C       		.uleb128 0x3c
 1059 0227 06       		.uleb128 0x6
 1060 0228 01060000 		.4byte	.LASF42
 1061 022c 06       		.byte	0x6
 1062 022d CD       		.byte	0xcd
 1063 022e DD000000 		.4byte	0xdd
 1064 0232 02       		.byte	0x2
 1065 0233 23       		.byte	0x23
 1066 0234 40       		.uleb128 0x40
 1067 0235 06       		.uleb128 0x6
 1068 0236 22040000 		.4byte	.LASF43
 1069 023a 06       		.byte	0x6
 1070 023b D3       		.byte	0xd3
 1071 023c A7020000 		.4byte	0x2a7
ARM GAS  /tmp/ccQUlp8a.s 			page 20


 1072 0240 02       		.byte	0x2
 1073 0241 23       		.byte	0x23
 1074 0242 44       		.uleb128 0x44
 1075 0243 00       		.byte	0
 1076 0244 08       		.uleb128 0x8
 1077 0245 08       		.byte	0x8
 1078 0246 05       		.byte	0x5
 1079 0247 5A       		.byte	0x5a
 1080 0248 69020000 		.4byte	0x269
 1081 024c 06       		.uleb128 0x6
 1082 024d 8E060000 		.4byte	.LASF25
 1083 0251 05       		.byte	0x5
 1084 0252 5B       		.byte	0x5b
 1085 0253 69020000 		.4byte	0x269
 1086 0257 02       		.byte	0x2
 1087 0258 23       		.byte	0x23
 1088 0259 00       		.uleb128 0
 1089 025a 06       		.uleb128 0x6
 1090 025b 2F070000 		.4byte	.LASF26
 1091 025f 05       		.byte	0x5
 1092 0260 5D       		.byte	0x5d
 1093 0261 69020000 		.4byte	0x269
 1094 0265 02       		.byte	0x2
 1095 0266 23       		.byte	0x23
 1096 0267 04       		.uleb128 0x4
 1097 0268 00       		.byte	0
 1098 0269 09       		.uleb128 0x9
 1099 026a 04       		.byte	0x4
 1100 026b 14010000 		.4byte	0x114
 1101 026f 03       		.uleb128 0x3
 1102 0270 93030000 		.4byte	.LASF44
 1103 0274 05       		.byte	0x5
 1104 0275 5F       		.byte	0x5f
 1105 0276 44020000 		.4byte	0x244
 1106 027a 08       		.uleb128 0x8
 1107 027b 04       		.byte	0x4
 1108 027c 05       		.byte	0x5
 1109 027d 64       		.byte	0x64
 1110 027e 91020000 		.4byte	0x291
 1111 0282 06       		.uleb128 0x6
 1112 0283 8E060000 		.4byte	.LASF25
 1113 0287 05       		.byte	0x5
 1114 0288 66       		.byte	0x66
 1115 0289 69020000 		.4byte	0x269
 1116 028d 02       		.byte	0x2
 1117 028e 23       		.byte	0x23
 1118 028f 00       		.uleb128 0
 1119 0290 00       		.byte	0
 1120 0291 03       		.uleb128 0x3
 1121 0292 00000000 		.4byte	.LASF45
 1122 0296 05       		.byte	0x5
 1123 0297 69       		.byte	0x69
 1124 0298 7A020000 		.4byte	0x27a
 1125 029c 03       		.uleb128 0x3
 1126 029d 4F000000 		.4byte	.LASF46
 1127 02a1 07       		.byte	0x7
 1128 02a2 DE       		.byte	0xde
ARM GAS  /tmp/ccQUlp8a.s 			page 21


 1129 02a3 A7020000 		.4byte	0x2a7
 1130 02a7 0A       		.uleb128 0xa
 1131 02a8 04       		.byte	0x4
 1132 02a9 0B       		.uleb128 0xb
 1133 02aa C1050000 		.4byte	.LASF47
 1134 02ae 24       		.byte	0x24
 1135 02af 07       		.byte	0x7
 1136 02b0 0501     		.2byte	0x105
 1137 02b2 37030000 		.4byte	0x337
 1138 02b6 0C       		.uleb128 0xc
 1139 02b7 723400   		.ascii	"r4\000"
 1140 02ba 07       		.byte	0x7
 1141 02bb 1801     		.2byte	0x118
 1142 02bd 9C020000 		.4byte	0x29c
 1143 02c1 02       		.byte	0x2
 1144 02c2 23       		.byte	0x23
 1145 02c3 00       		.uleb128 0
 1146 02c4 0C       		.uleb128 0xc
 1147 02c5 723500   		.ascii	"r5\000"
 1148 02c8 07       		.byte	0x7
 1149 02c9 1901     		.2byte	0x119
 1150 02cb 9C020000 		.4byte	0x29c
 1151 02cf 02       		.byte	0x2
 1152 02d0 23       		.byte	0x23
 1153 02d1 04       		.uleb128 0x4
 1154 02d2 0C       		.uleb128 0xc
 1155 02d3 723600   		.ascii	"r6\000"
 1156 02d6 07       		.byte	0x7
 1157 02d7 1A01     		.2byte	0x11a
 1158 02d9 9C020000 		.4byte	0x29c
 1159 02dd 02       		.byte	0x2
 1160 02de 23       		.byte	0x23
 1161 02df 08       		.uleb128 0x8
 1162 02e0 0C       		.uleb128 0xc
 1163 02e1 723700   		.ascii	"r7\000"
 1164 02e4 07       		.byte	0x7
 1165 02e5 1B01     		.2byte	0x11b
 1166 02e7 9C020000 		.4byte	0x29c
 1167 02eb 02       		.byte	0x2
 1168 02ec 23       		.byte	0x23
 1169 02ed 0C       		.uleb128 0xc
 1170 02ee 0C       		.uleb128 0xc
 1171 02ef 723800   		.ascii	"r8\000"
 1172 02f2 07       		.byte	0x7
 1173 02f3 1C01     		.2byte	0x11c
 1174 02f5 9C020000 		.4byte	0x29c
 1175 02f9 02       		.byte	0x2
 1176 02fa 23       		.byte	0x23
 1177 02fb 10       		.uleb128 0x10
 1178 02fc 0C       		.uleb128 0xc
 1179 02fd 723900   		.ascii	"r9\000"
 1180 0300 07       		.byte	0x7
 1181 0301 1D01     		.2byte	0x11d
 1182 0303 9C020000 		.4byte	0x29c
 1183 0307 02       		.byte	0x2
 1184 0308 23       		.byte	0x23
 1185 0309 14       		.uleb128 0x14
ARM GAS  /tmp/ccQUlp8a.s 			page 22


 1186 030a 0C       		.uleb128 0xc
 1187 030b 72313000 		.ascii	"r10\000"
 1188 030f 07       		.byte	0x7
 1189 0310 1E01     		.2byte	0x11e
 1190 0312 9C020000 		.4byte	0x29c
 1191 0316 02       		.byte	0x2
 1192 0317 23       		.byte	0x23
 1193 0318 18       		.uleb128 0x18
 1194 0319 0C       		.uleb128 0xc
 1195 031a 72313100 		.ascii	"r11\000"
 1196 031e 07       		.byte	0x7
 1197 031f 1F01     		.2byte	0x11f
 1198 0321 9C020000 		.4byte	0x29c
 1199 0325 02       		.byte	0x2
 1200 0326 23       		.byte	0x23
 1201 0327 1C       		.uleb128 0x1c
 1202 0328 0C       		.uleb128 0xc
 1203 0329 6C7200   		.ascii	"lr\000"
 1204 032c 07       		.byte	0x7
 1205 032d 2001     		.2byte	0x120
 1206 032f 9C020000 		.4byte	0x29c
 1207 0333 02       		.byte	0x2
 1208 0334 23       		.byte	0x23
 1209 0335 20       		.uleb128 0x20
 1210 0336 00       		.byte	0
 1211 0337 0B       		.uleb128 0xb
 1212 0338 B3040000 		.4byte	.LASF48
 1213 033c 04       		.byte	0x4
 1214 033d 07       		.byte	0x7
 1215 033e 2A01     		.2byte	0x12a
 1216 0340 54030000 		.4byte	0x354
 1217 0344 0C       		.uleb128 0xc
 1218 0345 72313300 		.ascii	"r13\000"
 1219 0349 07       		.byte	0x7
 1220 034a 2B01     		.2byte	0x12b
 1221 034c 54030000 		.4byte	0x354
 1222 0350 02       		.byte	0x2
 1223 0351 23       		.byte	0x23
 1224 0352 00       		.uleb128 0
 1225 0353 00       		.byte	0
 1226 0354 09       		.uleb128 0x9
 1227 0355 04       		.byte	0x4
 1228 0356 A9020000 		.4byte	0x2a9
 1229 035a 04       		.uleb128 0x4
 1230 035b 04       		.byte	0x4
 1231 035c 07       		.byte	0x7
 1232 035d 36070000 		.4byte	.LASF49
 1233 0361 09       		.uleb128 0x9
 1234 0362 04       		.byte	0x4
 1235 0363 67030000 		.4byte	0x367
 1236 0367 0D       		.uleb128 0xd
 1237 0368 01       		.byte	0x1
 1238 0369 73030000 		.4byte	0x373
 1239 036d 0E       		.uleb128 0xe
 1240 036e A7020000 		.4byte	0x2a7
 1241 0372 00       		.byte	0
 1242 0373 0F       		.uleb128 0xf
ARM GAS  /tmp/ccQUlp8a.s 			page 23


 1243 0374 FE000000 		.4byte	0xfe
 1244 0378 05       		.uleb128 0x5
 1245 0379 E9060000 		.4byte	.LASF50
 1246 037d 0C       		.byte	0xc
 1247 037e 08       		.byte	0x8
 1248 037f 25       		.byte	0x25
 1249 0380 A1030000 		.4byte	0x3a1
 1250 0384 06       		.uleb128 0x6
 1251 0385 8B000000 		.4byte	.LASF51
 1252 0389 08       		.byte	0x8
 1253 038a 26       		.byte	0x26
 1254 038b 6F020000 		.4byte	0x26f
 1255 038f 02       		.byte	0x2
 1256 0390 23       		.byte	0x23
 1257 0391 00       		.uleb128 0
 1258 0392 06       		.uleb128 0x6
 1259 0393 4B010000 		.4byte	.LASF52
 1260 0397 08       		.byte	0x8
 1261 0398 28       		.byte	0x28
 1262 0399 09010000 		.4byte	0x109
 1263 039d 02       		.byte	0x2
 1264 039e 23       		.byte	0x23
 1265 039f 08       		.uleb128 0x8
 1266 03a0 00       		.byte	0
 1267 03a1 03       		.uleb128 0x3
 1268 03a2 E9060000 		.4byte	.LASF50
 1269 03a6 08       		.byte	0x8
 1270 03a7 29       		.byte	0x29
 1271 03a8 78030000 		.4byte	0x378
 1272 03ac 05       		.uleb128 0x5
 1273 03ad 42030000 		.4byte	.LASF53
 1274 03b1 10       		.byte	0x10
 1275 03b2 09       		.byte	0x9
 1276 03b3 25       		.byte	0x25
 1277 03b4 E3030000 		.4byte	0x3e3
 1278 03b8 06       		.uleb128 0x6
 1279 03b9 39060000 		.4byte	.LASF54
 1280 03bd 09       		.byte	0x9
 1281 03be 26       		.byte	0x26
 1282 03bf 6F020000 		.4byte	0x26f
 1283 03c3 02       		.byte	0x2
 1284 03c4 23       		.byte	0x23
 1285 03c5 00       		.uleb128 0
 1286 03c6 06       		.uleb128 0x6
 1287 03c7 83000000 		.4byte	.LASF55
 1288 03cb 09       		.byte	0x9
 1289 03cc 28       		.byte	0x28
 1290 03cd 69020000 		.4byte	0x269
 1291 03d1 02       		.byte	0x2
 1292 03d2 23       		.byte	0x23
 1293 03d3 08       		.uleb128 0x8
 1294 03d4 06       		.uleb128 0x6
 1295 03d5 A1080000 		.4byte	.LASF56
 1296 03d9 09       		.byte	0x9
 1297 03da 2A       		.byte	0x2a
 1298 03db E3030000 		.4byte	0x3e3
 1299 03df 02       		.byte	0x2
ARM GAS  /tmp/ccQUlp8a.s 			page 24


 1300 03e0 23       		.byte	0x23
 1301 03e1 0C       		.uleb128 0xc
 1302 03e2 00       		.byte	0
 1303 03e3 09       		.uleb128 0x9
 1304 03e4 04       		.byte	0x4
 1305 03e5 AC030000 		.4byte	0x3ac
 1306 03e9 03       		.uleb128 0x3
 1307 03ea 42030000 		.4byte	.LASF53
 1308 03ee 09       		.byte	0x9
 1309 03ef 2C       		.byte	0x2c
 1310 03f0 AC030000 		.4byte	0x3ac
 1311 03f4 08       		.uleb128 0x8
 1312 03f5 28       		.byte	0x28
 1313 03f6 0A       		.byte	0xa
 1314 03f7 2C       		.byte	0x2c
 1315 03f8 51040000 		.4byte	0x451
 1316 03fc 06       		.uleb128 0x6
 1317 03fd 59070000 		.4byte	.LASF57
 1318 0401 0A       		.byte	0xa
 1319 0402 2D       		.byte	0x2d
 1320 0403 51040000 		.4byte	0x451
 1321 0407 02       		.byte	0x2
 1322 0408 23       		.byte	0x23
 1323 0409 00       		.uleb128 0
 1324 040a 06       		.uleb128 0x6
 1325 040b C8040000 		.4byte	.LASF58
 1326 040f 0A       		.byte	0xa
 1327 0410 2F       		.byte	0x2f
 1328 0411 51040000 		.4byte	0x451
 1329 0415 02       		.byte	0x2
 1330 0416 23       		.byte	0x23
 1331 0417 04       		.uleb128 0x4
 1332 0418 06       		.uleb128 0x6
 1333 0419 1C060000 		.4byte	.LASF59
 1334 041d 0A       		.byte	0xa
 1335 041e 31       		.byte	0x31
 1336 041f 51040000 		.4byte	0x451
 1337 0423 02       		.byte	0x2
 1338 0424 23       		.byte	0x23
 1339 0425 08       		.uleb128 0x8
 1340 0426 06       		.uleb128 0x6
 1341 0427 F2020000 		.4byte	.LASF60
 1342 042b 0A       		.byte	0xa
 1343 042c 32       		.byte	0x32
 1344 042d 51040000 		.4byte	0x451
 1345 0431 02       		.byte	0x2
 1346 0432 23       		.byte	0x23
 1347 0433 0C       		.uleb128 0xc
 1348 0434 06       		.uleb128 0x6
 1349 0435 17040000 		.4byte	.LASF61
 1350 0439 0A       		.byte	0xa
 1351 043a 33       		.byte	0x33
 1352 043b A1030000 		.4byte	0x3a1
 1353 043f 02       		.byte	0x2
 1354 0440 23       		.byte	0x23
 1355 0441 10       		.uleb128 0x10
 1356 0442 06       		.uleb128 0x6
ARM GAS  /tmp/ccQUlp8a.s 			page 25


 1357 0443 48030000 		.4byte	.LASF62
 1358 0447 0A       		.byte	0xa
 1359 0448 35       		.byte	0x35
 1360 0449 A1030000 		.4byte	0x3a1
 1361 044d 02       		.byte	0x2
 1362 044e 23       		.byte	0x23
 1363 044f 1C       		.uleb128 0x1c
 1364 0450 00       		.byte	0
 1365 0451 09       		.uleb128 0x9
 1366 0452 04       		.byte	0x4
 1367 0453 E8000000 		.4byte	0xe8
 1368 0457 03       		.uleb128 0x3
 1369 0458 35010000 		.4byte	.LASF63
 1370 045c 0A       		.byte	0xa
 1371 045d 37       		.byte	0x37
 1372 045e F4030000 		.4byte	0x3f4
 1373 0462 10       		.uleb128 0x10
 1374 0463 04       		.byte	0x4
 1375 0464 06       		.byte	0x6
 1376 0465 8F       		.byte	0x8f
 1377 0466 97040000 		.4byte	0x497
 1378 046a 11       		.uleb128 0x11
 1379 046b D7020000 		.4byte	.LASF64
 1380 046f 06       		.byte	0x6
 1381 0470 96       		.byte	0x96
 1382 0471 E8000000 		.4byte	0xe8
 1383 0475 11       		.uleb128 0x11
 1384 0476 4E090000 		.4byte	.LASF65
 1385 047a 06       		.byte	0x6
 1386 047b 9D       		.byte	0x9d
 1387 047c E8000000 		.4byte	0xe8
 1388 0480 11       		.uleb128 0x11
 1389 0481 17010000 		.4byte	.LASF66
 1390 0485 06       		.byte	0x6
 1391 0486 A4       		.byte	0xa4
 1392 0487 A7020000 		.4byte	0x2a7
 1393 048b 11       		.uleb128 0x11
 1394 048c 1E010000 		.4byte	.LASF67
 1395 0490 06       		.byte	0x6
 1396 0491 AB       		.byte	0xab
 1397 0492 F3000000 		.4byte	0xf3
 1398 0496 00       		.byte	0
 1399 0497 09       		.uleb128 0x9
 1400 0498 04       		.byte	0x4
 1401 0499 9D040000 		.4byte	0x49d
 1402 049d 12       		.uleb128 0x12
 1403 049e A2040000 		.4byte	0x4a2
 1404 04a2 04       		.uleb128 0x4
 1405 04a3 01       		.byte	0x1
 1406 04a4 08       		.byte	0x8
 1407 04a5 A0030000 		.4byte	.LASF68
 1408 04a9 09       		.uleb128 0x9
 1409 04aa 04       		.byte	0x4
 1410 04ab E9030000 		.4byte	0x3e9
 1411 04af 03       		.uleb128 0x3
 1412 04b0 BB040000 		.4byte	.LASF69
 1413 04b4 0B       		.byte	0xb
ARM GAS  /tmp/ccQUlp8a.s 			page 26


 1414 04b5 3C       		.byte	0x3c
 1415 04b6 54000000 		.4byte	0x54
 1416 04ba 03       		.uleb128 0x3
 1417 04bb 3D030000 		.4byte	.LASF70
 1418 04bf 0B       		.byte	0xb
 1419 04c0 3D       		.byte	0x3d
 1420 04c1 42000000 		.4byte	0x42
 1421 04c5 03       		.uleb128 0x3
 1422 04c6 08010000 		.4byte	.LASF71
 1423 04ca 0B       		.byte	0xb
 1424 04cb 3E       		.byte	0x3e
 1425 04cc 6D000000 		.4byte	0x6d
 1426 04d0 03       		.uleb128 0x3
 1427 04d1 0C060000 		.4byte	.LASF72
 1428 04d5 0B       		.byte	0xb
 1429 04d6 40       		.byte	0x40
 1430 04d7 91000000 		.4byte	0x91
 1431 04db 03       		.uleb128 0x3
 1432 04dc F1000000 		.4byte	.LASF73
 1433 04e0 0C       		.byte	0xc
 1434 04e1 2F       		.byte	0x2f
 1435 04e2 BA040000 		.4byte	0x4ba
 1436 04e6 03       		.uleb128 0x3
 1437 04e7 0D030000 		.4byte	.LASF74
 1438 04eb 0D       		.byte	0xd
 1439 04ec 3C       		.byte	0x3c
 1440 04ed F1040000 		.4byte	0x4f1
 1441 04f1 09       		.uleb128 0x9
 1442 04f2 04       		.byte	0x4
 1443 04f3 A1030000 		.4byte	0x3a1
 1444 04f7 03       		.uleb128 0x3
 1445 04f8 1E000000 		.4byte	.LASF75
 1446 04fc 0D       		.byte	0xd
 1447 04fd 3D       		.byte	0x3d
 1448 04fe 02050000 		.4byte	0x502
 1449 0502 09       		.uleb128 0x9
 1450 0503 04       		.byte	0x4
 1451 0504 57040000 		.4byte	0x457
 1452 0508 03       		.uleb128 0x3
 1453 0509 ED010000 		.4byte	.LASF76
 1454 050d 0D       		.byte	0xd
 1455 050e 3E       		.byte	0x3e
 1456 050f 69020000 		.4byte	0x269
 1457 0513 03       		.uleb128 0x3
 1458 0514 39020000 		.4byte	.LASF77
 1459 0518 0E       		.byte	0xe
 1460 0519 53       		.byte	0x53
 1461 051a 61030000 		.4byte	0x361
 1462 051e 13       		.uleb128 0x13
 1463 051f 01       		.byte	0x1
 1464 0520 0F       		.byte	0xf
 1465 0521 2B       		.byte	0x2b
 1466 0522 81050000 		.4byte	0x581
 1467 0526 14       		.uleb128 0x14
 1468 0527 22070000 		.4byte	.LASF78
 1469 052b 00       		.sleb128 0
 1470 052c 14       		.uleb128 0x14
ARM GAS  /tmp/ccQUlp8a.s 			page 27


 1471 052d 95060000 		.4byte	.LASF79
 1472 0531 01       		.sleb128 1
 1473 0532 14       		.uleb128 0x14
 1474 0533 F4050000 		.4byte	.LASF80
 1475 0537 02       		.sleb128 2
 1476 0538 14       		.uleb128 0x14
 1477 0539 29000000 		.4byte	.LASF81
 1478 053d 03       		.sleb128 3
 1479 053e 14       		.uleb128 0x14
 1480 053f D0070000 		.4byte	.LASF82
 1481 0543 04       		.sleb128 4
 1482 0544 14       		.uleb128 0x14
 1483 0545 35050000 		.4byte	.LASF83
 1484 0549 05       		.sleb128 5
 1485 054a 14       		.uleb128 0x14
 1486 054b 13070000 		.4byte	.LASF84
 1487 054f 06       		.sleb128 6
 1488 0550 14       		.uleb128 0x14
 1489 0551 7F040000 		.4byte	.LASF85
 1490 0555 07       		.sleb128 7
 1491 0556 14       		.uleb128 0x14
 1492 0557 54030000 		.4byte	.LASF86
 1493 055b 08       		.sleb128 8
 1494 055c 14       		.uleb128 0x14
 1495 055d A3010000 		.4byte	.LASF87
 1496 0561 09       		.sleb128 9
 1497 0562 14       		.uleb128 0x14
 1498 0563 5B020000 		.4byte	.LASF88
 1499 0567 0A       		.sleb128 10
 1500 0568 14       		.uleb128 0x14
 1501 0569 51060000 		.4byte	.LASF89
 1502 056d 0B       		.sleb128 11
 1503 056e 14       		.uleb128 0x14
 1504 056f 89030000 		.4byte	.LASF90
 1505 0573 0C       		.sleb128 12
 1506 0574 14       		.uleb128 0x14
 1507 0575 44050000 		.4byte	.LASF91
 1508 0579 0D       		.sleb128 13
 1509 057a 14       		.uleb128 0x14
 1510 057b 20030000 		.4byte	.LASF92
 1511 057f 0E       		.sleb128 14
 1512 0580 00       		.byte	0
 1513 0581 03       		.uleb128 0x3
 1514 0582 14090000 		.4byte	.LASF93
 1515 0586 0F       		.byte	0xf
 1516 0587 2F       		.byte	0x2f
 1517 0588 1E050000 		.4byte	0x51e
 1518 058c 05       		.uleb128 0x5
 1519 058d ED020000 		.4byte	.LASF94
 1520 0591 10       		.byte	0x10
 1521 0592 10       		.byte	0x10
 1522 0593 49       		.byte	0x49
 1523 0594 FB050000 		.4byte	0x5fb
 1524 0598 06       		.uleb128 0x6
 1525 0599 CA000000 		.4byte	.LASF95
 1526 059d 10       		.byte	0x10
 1527 059e 4B       		.byte	0x4b
ARM GAS  /tmp/ccQUlp8a.s 			page 28


 1528 059f FB050000 		.4byte	0x5fb
 1529 05a3 02       		.byte	0x2
 1530 05a4 23       		.byte	0x23
 1531 05a5 00       		.uleb128 0
 1532 05a6 06       		.uleb128 0x6
 1533 05a7 DE020000 		.4byte	.LASF96
 1534 05ab 10       		.byte	0x10
 1535 05ac 4E       		.byte	0x4e
 1536 05ad A7020000 		.4byte	0x2a7
 1537 05b1 02       		.byte	0x2
 1538 05b2 23       		.byte	0x23
 1539 05b3 04       		.uleb128 0x4
 1540 05b4 06       		.uleb128 0x6
 1541 05b5 C1020000 		.4byte	.LASF97
 1542 05b9 10       		.byte	0x10
 1543 05ba 57       		.byte	0x57
 1544 05bb C5040000 		.4byte	0x4c5
 1545 05bf 02       		.byte	0x2
 1546 05c0 23       		.byte	0x23
 1547 05c1 08       		.uleb128 0x8
 1548 05c2 07       		.uleb128 0x7
 1549 05c3 6C656E00 		.ascii	"len\000"
 1550 05c7 10       		.byte	0x10
 1551 05c8 5A       		.byte	0x5a
 1552 05c9 C5040000 		.4byte	0x4c5
 1553 05cd 02       		.byte	0x2
 1554 05ce 23       		.byte	0x23
 1555 05cf 0A       		.uleb128 0xa
 1556 05d0 06       		.uleb128 0x6
 1557 05d1 AD070000 		.4byte	.LASF98
 1558 05d5 10       		.byte	0x10
 1559 05d6 5D       		.byte	0x5d
 1560 05d7 AF040000 		.4byte	0x4af
 1561 05db 02       		.byte	0x2
 1562 05dc 23       		.byte	0x23
 1563 05dd 0C       		.uleb128 0xc
 1564 05de 06       		.uleb128 0x6
 1565 05df 73000000 		.4byte	.LASF99
 1566 05e3 10       		.byte	0x10
 1567 05e4 60       		.byte	0x60
 1568 05e5 AF040000 		.4byte	0x4af
 1569 05e9 02       		.byte	0x2
 1570 05ea 23       		.byte	0x23
 1571 05eb 0D       		.uleb128 0xd
 1572 05ec 07       		.uleb128 0x7
 1573 05ed 72656600 		.ascii	"ref\000"
 1574 05f1 10       		.byte	0x10
 1575 05f2 67       		.byte	0x67
 1576 05f3 C5040000 		.4byte	0x4c5
 1577 05f7 02       		.byte	0x2
 1578 05f8 23       		.byte	0x23
 1579 05f9 0E       		.uleb128 0xe
 1580 05fa 00       		.byte	0
 1581 05fb 09       		.uleb128 0x9
 1582 05fc 04       		.byte	0x4
 1583 05fd 8C050000 		.4byte	0x58c
 1584 0601 05       		.uleb128 0x5
ARM GAS  /tmp/ccQUlp8a.s 			page 29


 1585 0602 57090000 		.4byte	.LASF100
 1586 0606 04       		.byte	0x4
 1587 0607 11       		.byte	0x11
 1588 0608 2C       		.byte	0x2c
 1589 0609 1C060000 		.4byte	0x61c
 1590 060d 06       		.uleb128 0x6
 1591 060e 44080000 		.4byte	.LASF101
 1592 0612 11       		.byte	0x11
 1593 0613 2D       		.byte	0x2d
 1594 0614 D0040000 		.4byte	0x4d0
 1595 0618 02       		.byte	0x2
 1596 0619 23       		.byte	0x23
 1597 061a 00       		.uleb128 0
 1598 061b 00       		.byte	0
 1599 061c 03       		.uleb128 0x3
 1600 061d 02090000 		.4byte	.LASF102
 1601 0621 11       		.byte	0x11
 1602 0622 40       		.byte	0x40
 1603 0623 01060000 		.4byte	0x601
 1604 0627 09       		.uleb128 0x9
 1605 0628 04       		.byte	0x4
 1606 0629 2D060000 		.4byte	0x62d
 1607 062d 05       		.uleb128 0x5
 1608 062e 62080000 		.4byte	.LASF103
 1609 0632 30       		.byte	0x30
 1610 0633 12       		.byte	0x12
 1611 0634 88       		.byte	0x88
 1612 0635 FD060000 		.4byte	0x6fd
 1613 0639 06       		.uleb128 0x6
 1614 063a CA000000 		.4byte	.LASF95
 1615 063e 12       		.byte	0x12
 1616 063f 8A       		.byte	0x8a
 1617 0640 27060000 		.4byte	0x627
 1618 0644 02       		.byte	0x2
 1619 0645 23       		.byte	0x23
 1620 0646 00       		.uleb128 0
 1621 0647 06       		.uleb128 0x6
 1622 0648 57090000 		.4byte	.LASF100
 1623 064c 12       		.byte	0x12
 1624 064d 8D       		.byte	0x8d
 1625 064e 1C060000 		.4byte	0x61c
 1626 0652 02       		.byte	0x2
 1627 0653 23       		.byte	0x23
 1628 0654 04       		.uleb128 0x4
 1629 0655 06       		.uleb128 0x6
 1630 0656 8B040000 		.4byte	.LASF104
 1631 065a 12       		.byte	0x12
 1632 065b 8E       		.byte	0x8e
 1633 065c 1C060000 		.4byte	0x61c
 1634 0660 02       		.byte	0x2
 1635 0661 23       		.byte	0x23
 1636 0662 08       		.uleb128 0x8
 1637 0663 07       		.uleb128 0x7
 1638 0664 677700   		.ascii	"gw\000"
 1639 0667 12       		.byte	0x12
 1640 0668 8F       		.byte	0x8f
 1641 0669 1C060000 		.4byte	0x61c
ARM GAS  /tmp/ccQUlp8a.s 			page 30


 1642 066d 02       		.byte	0x2
 1643 066e 23       		.byte	0x23
 1644 066f 0C       		.uleb128 0xc
 1645 0670 06       		.uleb128 0x6
 1646 0671 7C070000 		.4byte	.LASF105
 1647 0675 12       		.byte	0x12
 1648 0676 93       		.byte	0x93
 1649 0677 FD060000 		.4byte	0x6fd
 1650 067b 02       		.byte	0x2
 1651 067c 23       		.byte	0x23
 1652 067d 10       		.uleb128 0x10
 1653 067e 06       		.uleb128 0x6
 1654 067f E6020000 		.4byte	.LASF106
 1655 0683 12       		.byte	0x12
 1656 0684 97       		.byte	0x97
 1657 0685 23070000 		.4byte	0x723
 1658 0689 02       		.byte	0x2
 1659 068a 23       		.byte	0x23
 1660 068b 14       		.uleb128 0x14
 1661 068c 06       		.uleb128 0x6
 1662 068d FD000000 		.4byte	.LASF107
 1663 0691 12       		.byte	0x12
 1664 0692 9B       		.byte	0x9b
 1665 0693 54070000 		.4byte	0x754
 1666 0697 02       		.byte	0x2
 1667 0698 23       		.byte	0x23
 1668 0699 18       		.uleb128 0x18
 1669 069a 06       		.uleb128 0x6
 1670 069b 53080000 		.4byte	.LASF108
 1671 069f 12       		.byte	0x12
 1672 06a0 A8       		.byte	0xa8
 1673 06a1 A7020000 		.4byte	0x2a7
 1674 06a5 02       		.byte	0x2
 1675 06a6 23       		.byte	0x23
 1676 06a7 1C       		.uleb128 0x1c
 1677 06a8 07       		.uleb128 0x7
 1678 06a9 6D747500 		.ascii	"mtu\000"
 1679 06ad 12       		.byte	0x12
 1680 06ae B6       		.byte	0xb6
 1681 06af C5040000 		.4byte	0x4c5
 1682 06b3 02       		.byte	0x2
 1683 06b4 23       		.byte	0x23
 1684 06b5 20       		.uleb128 0x20
 1685 06b6 06       		.uleb128 0x6
 1686 06b7 2E020000 		.4byte	.LASF109
 1687 06bb 12       		.byte	0x12
 1688 06bc B8       		.byte	0xb8
 1689 06bd AF040000 		.4byte	0x4af
 1690 06c1 02       		.byte	0x2
 1691 06c2 23       		.byte	0x23
 1692 06c3 22       		.uleb128 0x22
 1693 06c4 06       		.uleb128 0x6
 1694 06c5 FA010000 		.4byte	.LASF110
 1695 06c9 12       		.byte	0x12
 1696 06ca BA       		.byte	0xba
 1697 06cb 7A070000 		.4byte	0x77a
 1698 06cf 02       		.byte	0x2
ARM GAS  /tmp/ccQUlp8a.s 			page 31


 1699 06d0 23       		.byte	0x23
 1700 06d1 23       		.uleb128 0x23
 1701 06d2 06       		.uleb128 0x6
 1702 06d3 73000000 		.4byte	.LASF99
 1703 06d7 12       		.byte	0x12
 1704 06d8 BC       		.byte	0xbc
 1705 06d9 AF040000 		.4byte	0x4af
 1706 06dd 02       		.byte	0x2
 1707 06de 23       		.byte	0x23
 1708 06df 29       		.uleb128 0x29
 1709 06e0 06       		.uleb128 0x6
 1710 06e1 F3060000 		.4byte	.LASF111
 1711 06e5 12       		.byte	0x12
 1712 06e6 BE       		.byte	0xbe
 1713 06e7 8A070000 		.4byte	0x78a
 1714 06eb 02       		.byte	0x2
 1715 06ec 23       		.byte	0x23
 1716 06ed 2A       		.uleb128 0x2a
 1717 06ee 07       		.uleb128 0x7
 1718 06ef 6E756D00 		.ascii	"num\000"
 1719 06f3 12       		.byte	0x12
 1720 06f4 C0       		.byte	0xc0
 1721 06f5 AF040000 		.4byte	0x4af
 1722 06f9 02       		.byte	0x2
 1723 06fa 23       		.byte	0x23
 1724 06fb 2C       		.uleb128 0x2c
 1725 06fc 00       		.byte	0
 1726 06fd 03       		.uleb128 0x3
 1727 06fe 6C010000 		.4byte	.LASF112
 1728 0702 12       		.byte	0x12
 1729 0703 6D       		.byte	0x6d
 1730 0704 08070000 		.4byte	0x708
 1731 0708 09       		.uleb128 0x9
 1732 0709 04       		.byte	0x4
 1733 070a 0E070000 		.4byte	0x70e
 1734 070e 15       		.uleb128 0x15
 1735 070f 01       		.byte	0x1
 1736 0710 DB040000 		.4byte	0x4db
 1737 0714 23070000 		.4byte	0x723
 1738 0718 0E       		.uleb128 0xe
 1739 0719 FB050000 		.4byte	0x5fb
 1740 071d 0E       		.uleb128 0xe
 1741 071e 27060000 		.4byte	0x627
 1742 0722 00       		.byte	0
 1743 0723 03       		.uleb128 0x3
 1744 0724 25010000 		.4byte	.LASF113
 1745 0728 12       		.byte	0x12
 1746 0729 76       		.byte	0x76
 1747 072a 2E070000 		.4byte	0x72e
 1748 072e 09       		.uleb128 0x9
 1749 072f 04       		.byte	0x4
 1750 0730 34070000 		.4byte	0x734
 1751 0734 15       		.uleb128 0x15
 1752 0735 01       		.byte	0x1
 1753 0736 DB040000 		.4byte	0x4db
 1754 073a 4E070000 		.4byte	0x74e
 1755 073e 0E       		.uleb128 0xe
ARM GAS  /tmp/ccQUlp8a.s 			page 32


 1756 073f 27060000 		.4byte	0x627
 1757 0743 0E       		.uleb128 0xe
 1758 0744 FB050000 		.4byte	0x5fb
 1759 0748 0E       		.uleb128 0xe
 1760 0749 4E070000 		.4byte	0x74e
 1761 074d 00       		.byte	0
 1762 074e 09       		.uleb128 0x9
 1763 074f 04       		.byte	0x4
 1764 0750 1C060000 		.4byte	0x61c
 1765 0754 03       		.uleb128 0x3
 1766 0755 FF060000 		.4byte	.LASF114
 1767 0759 12       		.byte	0x12
 1768 075a 7E       		.byte	0x7e
 1769 075b 5F070000 		.4byte	0x75f
 1770 075f 09       		.uleb128 0x9
 1771 0760 04       		.byte	0x4
 1772 0761 65070000 		.4byte	0x765
 1773 0765 15       		.uleb128 0x15
 1774 0766 01       		.byte	0x1
 1775 0767 DB040000 		.4byte	0x4db
 1776 076b 7A070000 		.4byte	0x77a
 1777 076f 0E       		.uleb128 0xe
 1778 0770 27060000 		.4byte	0x627
 1779 0774 0E       		.uleb128 0xe
 1780 0775 FB050000 		.4byte	0x5fb
 1781 0779 00       		.byte	0
 1782 077a 16       		.uleb128 0x16
 1783 077b AF040000 		.4byte	0x4af
 1784 077f 8A070000 		.4byte	0x78a
 1785 0783 17       		.uleb128 0x17
 1786 0784 5A030000 		.4byte	0x35a
 1787 0788 05       		.byte	0x5
 1788 0789 00       		.byte	0
 1789 078a 16       		.uleb128 0x16
 1790 078b A2040000 		.4byte	0x4a2
 1791 078f 9A070000 		.4byte	0x79a
 1792 0793 17       		.uleb128 0x17
 1793 0794 5A030000 		.4byte	0x35a
 1794 0798 01       		.byte	0x1
 1795 0799 00       		.byte	0
 1796 079a 05       		.uleb128 0x5
 1797 079b F8060000 		.4byte	.LASF115
 1798 079f 10       		.byte	0x10
 1799 07a0 13       		.byte	0x13
 1800 07a1 30       		.byte	0x30
 1801 07a2 DD070000 		.4byte	0x7dd
 1802 07a6 07       		.uleb128 0x7
 1803 07a7 7000     		.ascii	"p\000"
 1804 07a9 13       		.byte	0x13
 1805 07aa 31       		.byte	0x31
 1806 07ab FB050000 		.4byte	0x5fb
 1807 07af 02       		.byte	0x2
 1808 07b0 23       		.byte	0x23
 1809 07b1 00       		.uleb128 0
 1810 07b2 07       		.uleb128 0x7
 1811 07b3 70747200 		.ascii	"ptr\000"
 1812 07b7 13       		.byte	0x13
ARM GAS  /tmp/ccQUlp8a.s 			page 33


 1813 07b8 31       		.byte	0x31
 1814 07b9 FB050000 		.4byte	0x5fb
 1815 07bd 02       		.byte	0x2
 1816 07be 23       		.byte	0x23
 1817 07bf 04       		.uleb128 0x4
 1818 07c0 06       		.uleb128 0x6
 1819 07c1 44080000 		.4byte	.LASF101
 1820 07c5 13       		.byte	0x13
 1821 07c6 32       		.byte	0x32
 1822 07c7 1C060000 		.4byte	0x61c
 1823 07cb 02       		.byte	0x2
 1824 07cc 23       		.byte	0x23
 1825 07cd 08       		.uleb128 0x8
 1826 07ce 06       		.uleb128 0x6
 1827 07cf 77070000 		.4byte	.LASF116
 1828 07d3 13       		.byte	0x13
 1829 07d4 33       		.byte	0x33
 1830 07d5 C5040000 		.4byte	0x4c5
 1831 07d9 02       		.byte	0x2
 1832 07da 23       		.byte	0x23
 1833 07db 0C       		.uleb128 0xc
 1834 07dc 00       		.byte	0
 1835 07dd 18       		.uleb128 0x18
 1836 07de D7050000 		.4byte	.LASF123
 1837 07e2 01       		.byte	0x1
 1838 07e3 14       		.byte	0x14
 1839 07e4 53       		.byte	0x53
 1840 07e5 0F080000 		.4byte	0x80f
 1841 07e9 14       		.uleb128 0x14
 1842 07ea 18020000 		.4byte	.LASF117
 1843 07ee 00       		.sleb128 0
 1844 07ef 14       		.uleb128 0x14
 1845 07f0 E4070000 		.4byte	.LASF118
 1846 07f4 10       		.sleb128 16
 1847 07f5 14       		.uleb128 0x14
 1848 07f6 8E020000 		.4byte	.LASF119
 1849 07fa 20       		.sleb128 32
 1850 07fb 14       		.uleb128 0x14
 1851 07fc DB080000 		.4byte	.LASF120
 1852 0800 21       		.sleb128 33
 1853 0801 14       		.uleb128 0x14
 1854 0802 DD000000 		.4byte	.LASF121
 1855 0806 22       		.sleb128 34
 1856 0807 14       		.uleb128 0x14
 1857 0808 CF080000 		.4byte	.LASF122
 1858 080c C000     		.sleb128 64
 1859 080e 00       		.byte	0
 1860 080f 18       		.uleb128 0x18
 1861 0810 3D010000 		.4byte	.LASF124
 1862 0814 01       		.byte	0x1
 1863 0815 14       		.byte	0x14
 1864 0816 61       		.byte	0x61
 1865 0817 3A080000 		.4byte	0x83a
 1866 081b 14       		.uleb128 0x14
 1867 081c B4050000 		.4byte	.LASF125
 1868 0820 00       		.sleb128 0
 1869 0821 14       		.uleb128 0x14
ARM GAS  /tmp/ccQUlp8a.s 			page 34


 1870 0822 BC000000 		.4byte	.LASF126
 1871 0826 01       		.sleb128 1
 1872 0827 14       		.uleb128 0x14
 1873 0828 F5070000 		.4byte	.LASF127
 1874 082c 02       		.sleb128 2
 1875 082d 14       		.uleb128 0x14
 1876 082e E4050000 		.4byte	.LASF128
 1877 0832 03       		.sleb128 3
 1878 0833 14       		.uleb128 0x14
 1879 0834 93080000 		.4byte	.LASF129
 1880 0838 04       		.sleb128 4
 1881 0839 00       		.byte	0
 1882 083a 18       		.uleb128 0x18
 1883 083b 82070000 		.4byte	.LASF130
 1884 083f 01       		.byte	0x1
 1885 0840 14       		.byte	0x14
 1886 0841 6A       		.byte	0x6a
 1887 0842 65080000 		.4byte	0x865
 1888 0846 14       		.uleb128 0x14
 1889 0847 7A020000 		.4byte	.LASF131
 1890 084b 00       		.sleb128 0
 1891 084c 14       		.uleb128 0x14
 1892 084d 6D030000 		.4byte	.LASF132
 1893 0851 01       		.sleb128 1
 1894 0852 14       		.uleb128 0x14
 1895 0853 57010000 		.4byte	.LASF133
 1896 0857 02       		.sleb128 2
 1897 0858 14       		.uleb128 0x14
 1898 0859 B7030000 		.4byte	.LASF134
 1899 085d 03       		.sleb128 3
 1900 085e 14       		.uleb128 0x14
 1901 085f B6010000 		.4byte	.LASF135
 1902 0863 04       		.sleb128 4
 1903 0864 00       		.byte	0
 1904 0865 03       		.uleb128 0x3
 1905 0866 8E070000 		.4byte	.LASF136
 1906 086a 14       		.byte	0x14
 1907 086b 83       		.byte	0x83
 1908 086c 70080000 		.4byte	0x870
 1909 0870 09       		.uleb128 0x9
 1910 0871 04       		.byte	0x4
 1911 0872 76080000 		.4byte	0x876
 1912 0876 0D       		.uleb128 0xd
 1913 0877 01       		.byte	0x1
 1914 0878 8C080000 		.4byte	0x88c
 1915 087c 0E       		.uleb128 0xe
 1916 087d 8C080000 		.4byte	0x88c
 1917 0881 0E       		.uleb128 0xe
 1918 0882 3A080000 		.4byte	0x83a
 1919 0886 0E       		.uleb128 0xe
 1920 0887 C5040000 		.4byte	0x4c5
 1921 088b 00       		.byte	0
 1922 088c 09       		.uleb128 0x9
 1923 088d 04       		.byte	0x4
 1924 088e 92080000 		.4byte	0x892
 1925 0892 05       		.uleb128 0x5
 1926 0893 0C090000 		.4byte	.LASF137
ARM GAS  /tmp/ccQUlp8a.s 			page 35


 1927 0897 2C       		.byte	0x2c
 1928 0898 14       		.byte	0x14
 1929 0899 86       		.byte	0x86
 1930 089a 47090000 		.4byte	0x947
 1931 089e 06       		.uleb128 0x6
 1932 089f AD070000 		.4byte	.LASF98
 1933 08a3 14       		.byte	0x14
 1934 08a4 88       		.byte	0x88
 1935 08a5 DD070000 		.4byte	0x7dd
 1936 08a9 02       		.byte	0x2
 1937 08aa 23       		.byte	0x23
 1938 08ab 00       		.uleb128 0
 1939 08ac 06       		.uleb128 0x6
 1940 08ad 53080000 		.4byte	.LASF108
 1941 08b1 14       		.byte	0x14
 1942 08b2 8A       		.byte	0x8a
 1943 08b3 0F080000 		.4byte	0x80f
 1944 08b7 02       		.byte	0x2
 1945 08b8 23       		.byte	0x23
 1946 08b9 01       		.uleb128 0x1
 1947 08ba 07       		.uleb128 0x7
 1948 08bb 70636200 		.ascii	"pcb\000"
 1949 08bf 14       		.byte	0x14
 1950 08c0 91       		.byte	0x91
 1951 08c1 47090000 		.4byte	0x947
 1952 08c5 02       		.byte	0x2
 1953 08c6 23       		.byte	0x23
 1954 08c7 04       		.uleb128 0x4
 1955 08c8 06       		.uleb128 0x6
 1956 08c9 17030000 		.4byte	.LASF138
 1957 08cd 14       		.byte	0x14
 1958 08ce 93       		.byte	0x93
 1959 08cf DB040000 		.4byte	0x4db
 1960 08d3 02       		.byte	0x2
 1961 08d4 23       		.byte	0x23
 1962 08d5 08       		.uleb128 0x8
 1963 08d6 06       		.uleb128 0x6
 1964 08d7 F5080000 		.4byte	.LASF139
 1965 08db 14       		.byte	0x14
 1966 08dc 95       		.byte	0x95
 1967 08dd E6040000 		.4byte	0x4e6
 1968 08e1 02       		.byte	0x2
 1969 08e2 23       		.byte	0x23
 1970 08e3 0C       		.uleb128 0xc
 1971 08e4 06       		.uleb128 0x6
 1972 08e5 93000000 		.4byte	.LASF140
 1973 08e9 14       		.byte	0x14
 1974 08ea 98       		.byte	0x98
 1975 08eb F7040000 		.4byte	0x4f7
 1976 08ef 02       		.byte	0x2
 1977 08f0 23       		.byte	0x23
 1978 08f1 10       		.uleb128 0x10
 1979 08f2 06       		.uleb128 0x6
 1980 08f3 34040000 		.4byte	.LASF141
 1981 08f7 14       		.byte	0x14
 1982 08f8 9C       		.byte	0x9c
 1983 08f9 F7040000 		.4byte	0x4f7
ARM GAS  /tmp/ccQUlp8a.s 			page 36


 1984 08fd 02       		.byte	0x2
 1985 08fe 23       		.byte	0x23
 1986 08ff 14       		.uleb128 0x14
 1987 0900 06       		.uleb128 0x6
 1988 0901 C8060000 		.4byte	.LASF142
 1989 0905 14       		.byte	0x14
 1990 0906 A0       		.byte	0xa0
 1991 0907 29000000 		.4byte	0x29
 1992 090b 02       		.byte	0x2
 1993 090c 23       		.byte	0x23
 1994 090d 18       		.uleb128 0x18
 1995 090e 06       		.uleb128 0x6
 1996 090f 73000000 		.4byte	.LASF99
 1997 0913 14       		.byte	0x14
 1998 0914 B1       		.byte	0xb1
 1999 0915 AF040000 		.4byte	0x4af
 2000 0919 02       		.byte	0x2
 2001 091a 23       		.byte	0x23
 2002 091b 1C       		.uleb128 0x1c
 2003 091c 06       		.uleb128 0x6
 2004 091d 37080000 		.4byte	.LASF143
 2005 0921 14       		.byte	0x14
 2006 0922 B5       		.byte	0xb5
 2007 0923 30000000 		.4byte	0x30
 2008 0927 02       		.byte	0x2
 2009 0928 23       		.byte	0x23
 2010 0929 20       		.uleb128 0x20
 2011 092a 06       		.uleb128 0x6
 2012 092b 74060000 		.4byte	.LASF144
 2013 092f 14       		.byte	0x14
 2014 0930 B9       		.byte	0xb9
 2015 0931 2F0A0000 		.4byte	0xa2f
 2016 0935 02       		.byte	0x2
 2017 0936 23       		.byte	0x23
 2018 0937 24       		.uleb128 0x24
 2019 0938 06       		.uleb128 0x6
 2020 0939 59080000 		.4byte	.LASF145
 2021 093d 14       		.byte	0x14
 2022 093e BC       		.byte	0xbc
 2023 093f 65080000 		.4byte	0x865
 2024 0943 02       		.byte	0x2
 2025 0944 23       		.byte	0x23
 2026 0945 28       		.uleb128 0x28
 2027 0946 00       		.byte	0
 2028 0947 10       		.uleb128 0x10
 2029 0948 04       		.byte	0x4
 2030 0949 14       		.byte	0x14
 2031 094a 8C       		.byte	0x8c
 2032 094b 7B090000 		.4byte	0x97b
 2033 094f 19       		.uleb128 0x19
 2034 0950 697000   		.ascii	"ip\000"
 2035 0953 14       		.byte	0x14
 2036 0954 8D       		.byte	0x8d
 2037 0955 CE090000 		.4byte	0x9ce
 2038 0959 19       		.uleb128 0x19
 2039 095a 74637000 		.ascii	"tcp\000"
 2040 095e 14       		.byte	0x14
ARM GAS  /tmp/ccQUlp8a.s 			page 37


 2041 095f 8E       		.byte	0x8e
 2042 0960 DA090000 		.4byte	0x9da
 2043 0964 19       		.uleb128 0x19
 2044 0965 75647000 		.ascii	"udp\000"
 2045 0969 14       		.byte	0x14
 2046 096a 8F       		.byte	0x8f
 2047 096b E6090000 		.4byte	0x9e6
 2048 096f 19       		.uleb128 0x19
 2049 0970 72617700 		.ascii	"raw\000"
 2050 0974 14       		.byte	0x14
 2051 0975 90       		.byte	0x90
 2052 0976 F2090000 		.4byte	0x9f2
 2053 097a 00       		.byte	0
 2054 097b 05       		.uleb128 0x5
 2055 097c DD070000 		.4byte	.LASF146
 2056 0980 0C       		.byte	0xc
 2057 0981 15       		.byte	0x15
 2058 0982 59       		.byte	0x59
 2059 0983 CE090000 		.4byte	0x9ce
 2060 0987 06       		.uleb128 0x6
 2061 0988 A2060000 		.4byte	.LASF147
 2062 098c 15       		.byte	0x15
 2063 098d 5B       		.byte	0x5b
 2064 098e 1C060000 		.4byte	0x61c
 2065 0992 02       		.byte	0x2
 2066 0993 23       		.byte	0x23
 2067 0994 00       		.uleb128 0
 2068 0995 06       		.uleb128 0x6
 2069 0996 EB080000 		.4byte	.LASF148
 2070 099a 15       		.byte	0x15
 2071 099b 5B       		.byte	0x5b
 2072 099c 1C060000 		.4byte	0x61c
 2073 09a0 02       		.byte	0x2
 2074 09a1 23       		.byte	0x23
 2075 09a2 04       		.uleb128 0x4
 2076 09a3 06       		.uleb128 0x6
 2077 09a4 44000000 		.4byte	.LASF149
 2078 09a8 15       		.byte	0x15
 2079 09a9 5B       		.byte	0x5b
 2080 09aa AF040000 		.4byte	0x4af
 2081 09ae 02       		.byte	0x2
 2082 09af 23       		.byte	0x23
 2083 09b0 08       		.uleb128 0x8
 2084 09b1 07       		.uleb128 0x7
 2085 09b2 746F7300 		.ascii	"tos\000"
 2086 09b6 15       		.byte	0x15
 2087 09b7 5B       		.byte	0x5b
 2088 09b8 AF040000 		.4byte	0x4af
 2089 09bc 02       		.byte	0x2
 2090 09bd 23       		.byte	0x23
 2091 09be 09       		.uleb128 0x9
 2092 09bf 07       		.uleb128 0x7
 2093 09c0 74746C00 		.ascii	"ttl\000"
 2094 09c4 15       		.byte	0x15
 2095 09c5 5B       		.byte	0x5b
 2096 09c6 AF040000 		.4byte	0x4af
 2097 09ca 02       		.byte	0x2
ARM GAS  /tmp/ccQUlp8a.s 			page 38


 2098 09cb 23       		.byte	0x23
 2099 09cc 0A       		.uleb128 0xa
 2100 09cd 00       		.byte	0
 2101 09ce 09       		.uleb128 0x9
 2102 09cf 04       		.byte	0x4
 2103 09d0 7B090000 		.4byte	0x97b
 2104 09d4 1A       		.uleb128 0x1a
 2105 09d5 B4080000 		.4byte	.LASF150
 2106 09d9 01       		.byte	0x1
 2107 09da 09       		.uleb128 0x9
 2108 09db 04       		.byte	0x4
 2109 09dc D4090000 		.4byte	0x9d4
 2110 09e0 1A       		.uleb128 0x1a
 2111 09e1 16000000 		.4byte	.LASF151
 2112 09e5 01       		.byte	0x1
 2113 09e6 09       		.uleb128 0x9
 2114 09e7 04       		.byte	0x4
 2115 09e8 E0090000 		.4byte	0x9e0
 2116 09ec 1A       		.uleb128 0x1a
 2117 09ed 9C000000 		.4byte	.LASF152
 2118 09f1 01       		.byte	0x1
 2119 09f2 09       		.uleb128 0x9
 2120 09f3 04       		.byte	0x4
 2121 09f4 EC090000 		.4byte	0x9ec
 2122 09f8 05       		.uleb128 0x5
 2123 09f9 61030000 		.4byte	.LASF153
 2124 09fd 14       		.byte	0x14
 2125 09fe 16       		.byte	0x16
 2126 09ff 3E       		.byte	0x3e
 2127 0a00 2F0A0000 		.4byte	0xa2f
 2128 0a04 06       		.uleb128 0x6
 2129 0a05 FB020000 		.4byte	.LASF154
 2130 0a09 16       		.byte	0x16
 2131 0a0a 41       		.byte	0x41
 2132 0a0b 8C080000 		.4byte	0x88c
 2133 0a0f 02       		.byte	0x2
 2134 0a10 23       		.byte	0x23
 2135 0a11 00       		.uleb128 0
 2136 0a12 07       		.uleb128 0x7
 2137 0a13 65727200 		.ascii	"err\000"
 2138 0a17 16       		.byte	0x16
 2139 0a18 43       		.byte	0x43
 2140 0a19 DB040000 		.4byte	0x4db
 2141 0a1d 02       		.byte	0x2
 2142 0a1e 23       		.byte	0x23
 2143 0a1f 04       		.uleb128 0x4
 2144 0a20 07       		.uleb128 0x7
 2145 0a21 6D736700 		.ascii	"msg\000"
 2146 0a25 16       		.byte	0x16
 2147 0a26 72       		.byte	0x72
 2148 0a27 120B0000 		.4byte	0xb12
 2149 0a2b 02       		.byte	0x2
 2150 0a2c 23       		.byte	0x23
 2151 0a2d 08       		.uleb128 0x8
 2152 0a2e 00       		.byte	0
 2153 0a2f 09       		.uleb128 0x9
 2154 0a30 04       		.byte	0x4
ARM GAS  /tmp/ccQUlp8a.s 			page 39


 2155 0a31 F8090000 		.4byte	0x9f8
 2156 0a35 08       		.uleb128 0x8
 2157 0a36 01       		.byte	0x1
 2158 0a37 16       		.byte	0x16
 2159 0a38 49       		.byte	0x49
 2160 0a39 4C0A0000 		.4byte	0xa4c
 2161 0a3d 06       		.uleb128 0x6
 2162 0a3e F0030000 		.4byte	.LASF155
 2163 0a42 16       		.byte	0x16
 2164 0a43 4A       		.byte	0x4a
 2165 0a44 AF040000 		.4byte	0x4af
 2166 0a48 02       		.byte	0x2
 2167 0a49 23       		.byte	0x23
 2168 0a4a 00       		.uleb128 0
 2169 0a4b 00       		.byte	0
 2170 0a4c 08       		.uleb128 0x8
 2171 0a4d 08       		.byte	0x8
 2172 0a4e 16       		.byte	0x16
 2173 0a4f 4D       		.byte	0x4d
 2174 0a50 710A0000 		.4byte	0xa71
 2175 0a54 06       		.uleb128 0x6
 2176 0a55 C9020000 		.4byte	.LASF156
 2177 0a59 16       		.byte	0x16
 2178 0a5a 4E       		.byte	0x4e
 2179 0a5b 4E070000 		.4byte	0x74e
 2180 0a5f 02       		.byte	0x2
 2181 0a60 23       		.byte	0x23
 2182 0a61 00       		.uleb128 0
 2183 0a62 06       		.uleb128 0x6
 2184 0a63 77070000 		.4byte	.LASF116
 2185 0a67 16       		.byte	0x16
 2186 0a68 4F       		.byte	0x4f
 2187 0a69 C5040000 		.4byte	0x4c5
 2188 0a6d 02       		.byte	0x2
 2189 0a6e 23       		.byte	0x23
 2190 0a6f 04       		.uleb128 0x4
 2191 0a70 00       		.byte	0
 2192 0a71 08       		.uleb128 0x8
 2193 0a72 0C       		.byte	0xc
 2194 0a73 16       		.byte	0x16
 2195 0a74 52       		.byte	0x52
 2196 0a75 A40A0000 		.4byte	0xaa4
 2197 0a79 06       		.uleb128 0x6
 2198 0a7a C9020000 		.4byte	.LASF156
 2199 0a7e 16       		.byte	0x16
 2200 0a7f 53       		.byte	0x53
 2201 0a80 4E070000 		.4byte	0x74e
 2202 0a84 02       		.byte	0x2
 2203 0a85 23       		.byte	0x23
 2204 0a86 00       		.uleb128 0
 2205 0a87 06       		.uleb128 0x6
 2206 0a88 77070000 		.4byte	.LASF116
 2207 0a8c 16       		.byte	0x16
 2208 0a8d 54       		.byte	0x54
 2209 0a8e A40A0000 		.4byte	0xaa4
 2210 0a92 02       		.byte	0x2
 2211 0a93 23       		.byte	0x23
ARM GAS  /tmp/ccQUlp8a.s 			page 40


 2212 0a94 04       		.uleb128 0x4
 2213 0a95 06       		.uleb128 0x6
 2214 0a96 F7000000 		.4byte	.LASF157
 2215 0a9a 16       		.byte	0x16
 2216 0a9b 55       		.byte	0x55
 2217 0a9c AF040000 		.4byte	0x4af
 2218 0aa0 02       		.byte	0x2
 2219 0aa1 23       		.byte	0x23
 2220 0aa2 08       		.uleb128 0x8
 2221 0aa3 00       		.byte	0
 2222 0aa4 09       		.uleb128 0x9
 2223 0aa5 04       		.byte	0x4
 2224 0aa6 C5040000 		.4byte	0x4c5
 2225 0aaa 08       		.uleb128 0x8
 2226 0aab 0C       		.byte	0xc
 2227 0aac 16       		.byte	0x16
 2228 0aad 58       		.byte	0x58
 2229 0aae DD0A0000 		.4byte	0xadd
 2230 0ab2 06       		.uleb128 0x6
 2231 0ab3 7C050000 		.4byte	.LASF158
 2232 0ab7 16       		.byte	0x16
 2233 0ab8 59       		.byte	0x59
 2234 0ab9 DD0A0000 		.4byte	0xadd
 2235 0abd 02       		.byte	0x2
 2236 0abe 23       		.byte	0x23
 2237 0abf 00       		.uleb128 0
 2238 0ac0 07       		.uleb128 0x7
 2239 0ac1 6C656E00 		.ascii	"len\000"
 2240 0ac5 16       		.byte	0x16
 2241 0ac6 5A       		.byte	0x5a
 2242 0ac7 30000000 		.4byte	0x30
 2243 0acb 02       		.byte	0x2
 2244 0acc 23       		.byte	0x23
 2245 0acd 04       		.uleb128 0x4
 2246 0ace 06       		.uleb128 0x6
 2247 0acf 25060000 		.4byte	.LASF159
 2248 0ad3 16       		.byte	0x16
 2249 0ad4 5B       		.byte	0x5b
 2250 0ad5 AF040000 		.4byte	0x4af
 2251 0ad9 02       		.byte	0x2
 2252 0ada 23       		.byte	0x23
 2253 0adb 08       		.uleb128 0x8
 2254 0adc 00       		.byte	0
 2255 0add 09       		.uleb128 0x9
 2256 0ade 04       		.byte	0x4
 2257 0adf E30A0000 		.4byte	0xae3
 2258 0ae3 1B       		.uleb128 0x1b
 2259 0ae4 08       		.uleb128 0x8
 2260 0ae5 04       		.byte	0x4
 2261 0ae6 16       		.byte	0x16
 2262 0ae7 5E       		.byte	0x5e
 2263 0ae8 FB0A0000 		.4byte	0xafb
 2264 0aec 07       		.uleb128 0x7
 2265 0aed 6C656E00 		.ascii	"len\000"
 2266 0af1 16       		.byte	0x16
 2267 0af2 5F       		.byte	0x5f
 2268 0af3 D0040000 		.4byte	0x4d0
ARM GAS  /tmp/ccQUlp8a.s 			page 41


 2269 0af7 02       		.byte	0x2
 2270 0af8 23       		.byte	0x23
 2271 0af9 00       		.uleb128 0
 2272 0afa 00       		.byte	0
 2273 0afb 08       		.uleb128 0x8
 2274 0afc 01       		.byte	0x1
 2275 0afd 16       		.byte	0x16
 2276 0afe 62       		.byte	0x62
 2277 0aff 120B0000 		.4byte	0xb12
 2278 0b03 06       		.uleb128 0x6
 2279 0b04 F0070000 		.4byte	.LASF160
 2280 0b08 16       		.byte	0x16
 2281 0b09 63       		.byte	0x63
 2282 0b0a AF040000 		.4byte	0x4af
 2283 0b0e 02       		.byte	0x2
 2284 0b0f 23       		.byte	0x23
 2285 0b10 00       		.uleb128 0
 2286 0b11 00       		.byte	0
 2287 0b12 10       		.uleb128 0x10
 2288 0b13 0C       		.byte	0xc
 2289 0b14 16       		.byte	0x16
 2290 0b15 45       		.byte	0x45
 2291 0b16 5D0B0000 		.4byte	0xb5d
 2292 0b1a 19       		.uleb128 0x19
 2293 0b1b 6200     		.ascii	"b\000"
 2294 0b1d 16       		.byte	0x16
 2295 0b1e 47       		.byte	0x47
 2296 0b1f 5D0B0000 		.4byte	0xb5d
 2297 0b23 19       		.uleb128 0x19
 2298 0b24 6E00     		.ascii	"n\000"
 2299 0b26 16       		.byte	0x16
 2300 0b27 4B       		.byte	0x4b
 2301 0b28 350A0000 		.4byte	0xa35
 2302 0b2c 19       		.uleb128 0x19
 2303 0b2d 626300   		.ascii	"bc\000"
 2304 0b30 16       		.byte	0x16
 2305 0b31 50       		.byte	0x50
 2306 0b32 4C0A0000 		.4byte	0xa4c
 2307 0b36 19       		.uleb128 0x19
 2308 0b37 616400   		.ascii	"ad\000"
 2309 0b3a 16       		.byte	0x16
 2310 0b3b 56       		.byte	0x56
 2311 0b3c 710A0000 		.4byte	0xa71
 2312 0b40 19       		.uleb128 0x19
 2313 0b41 7700     		.ascii	"w\000"
 2314 0b43 16       		.byte	0x16
 2315 0b44 5C       		.byte	0x5c
 2316 0b45 AA0A0000 		.4byte	0xaaa
 2317 0b49 19       		.uleb128 0x19
 2318 0b4a 7200     		.ascii	"r\000"
 2319 0b4c 16       		.byte	0x16
 2320 0b4d 60       		.byte	0x60
 2321 0b4e E40A0000 		.4byte	0xae4
 2322 0b52 19       		.uleb128 0x19
 2323 0b53 736400   		.ascii	"sd\000"
 2324 0b56 16       		.byte	0x16
 2325 0b57 64       		.byte	0x64
ARM GAS  /tmp/ccQUlp8a.s 			page 42


 2326 0b58 FB0A0000 		.4byte	0xafb
 2327 0b5c 00       		.byte	0
 2328 0b5d 09       		.uleb128 0x9
 2329 0b5e 04       		.byte	0x4
 2330 0b5f 9A070000 		.4byte	0x79a
 2331 0b63 05       		.uleb128 0x5
 2332 0b64 5C040000 		.4byte	.LASF161
 2333 0b68 18       		.byte	0x18
 2334 0b69 16       		.byte	0x16
 2335 0b6a 78       		.byte	0x78
 2336 0b6b 8C0B0000 		.4byte	0xb8c
 2337 0b6f 06       		.uleb128 0x6
 2338 0b70 C0070000 		.4byte	.LASF162
 2339 0b74 16       		.byte	0x16
 2340 0b75 7A       		.byte	0x7a
 2341 0b76 980B0000 		.4byte	0xb98
 2342 0b7a 02       		.byte	0x2
 2343 0b7b 23       		.byte	0x23
 2344 0b7c 00       		.uleb128 0
 2345 0b7d 07       		.uleb128 0x7
 2346 0b7e 6D736700 		.ascii	"msg\000"
 2347 0b82 16       		.byte	0x16
 2348 0b83 7C       		.byte	0x7c
 2349 0b84 F8090000 		.4byte	0x9f8
 2350 0b88 02       		.byte	0x2
 2351 0b89 23       		.byte	0x23
 2352 0b8a 04       		.uleb128 0x4
 2353 0b8b 00       		.byte	0
 2354 0b8c 0D       		.uleb128 0xd
 2355 0b8d 01       		.byte	0x1
 2356 0b8e 980B0000 		.4byte	0xb98
 2357 0b92 0E       		.uleb128 0xe
 2358 0b93 2F0A0000 		.4byte	0xa2f
 2359 0b97 00       		.byte	0
 2360 0b98 09       		.uleb128 0x9
 2361 0b99 04       		.byte	0x4
 2362 0b9a 8C0B0000 		.4byte	0xb8c
 2363 0b9e 03       		.uleb128 0x3
 2364 0b9f 5F000000 		.4byte	.LASF163
 2365 0ba3 17       		.byte	0x17
 2366 0ba4 3F       		.byte	0x3f
 2367 0ba5 61030000 		.4byte	0x361
 2368 0ba9 03       		.uleb128 0x3
 2369 0baa 53050000 		.4byte	.LASF164
 2370 0bae 18       		.byte	0x18
 2371 0baf 4C       		.byte	0x4c
 2372 0bb0 61030000 		.4byte	0x361
 2373 0bb4 03       		.uleb128 0x3
 2374 0bb5 62060000 		.4byte	.LASF165
 2375 0bb9 18       		.byte	0x18
 2376 0bba 4E       		.byte	0x4e
 2377 0bbb 61030000 		.4byte	0x361
 2378 0bbf 18       		.uleb128 0x18
 2379 0bc0 70040000 		.4byte	.LASF166
 2380 0bc4 01       		.byte	0x1
 2381 0bc5 18       		.byte	0x18
 2382 0bc6 6E       		.byte	0x6e
ARM GAS  /tmp/ccQUlp8a.s 			page 43


 2383 0bc7 EA0B0000 		.4byte	0xbea
 2384 0bcb 14       		.uleb128 0x14
 2385 0bcc 80060000 		.4byte	.LASF167
 2386 0bd0 00       		.sleb128 0
 2387 0bd1 14       		.uleb128 0x14
 2388 0bd2 C8010000 		.4byte	.LASF168
 2389 0bd6 01       		.sleb128 1
 2390 0bd7 14       		.uleb128 0x14
 2391 0bd8 CF040000 		.4byte	.LASF169
 2392 0bdc 02       		.sleb128 2
 2393 0bdd 14       		.uleb128 0x14
 2394 0bde 1B090000 		.4byte	.LASF170
 2395 0be2 03       		.sleb128 3
 2396 0be3 14       		.uleb128 0x14
 2397 0be4 49040000 		.4byte	.LASF171
 2398 0be8 04       		.sleb128 4
 2399 0be9 00       		.byte	0
 2400 0bea 08       		.uleb128 0x8
 2401 0beb 08       		.byte	0x8
 2402 0bec 18       		.byte	0x18
 2403 0bed 87       		.byte	0x87
 2404 0bee 0D0C0000 		.4byte	0xc0d
 2405 0bf2 07       		.uleb128 0x7
 2406 0bf3 7000     		.ascii	"p\000"
 2407 0bf5 18       		.byte	0x18
 2408 0bf6 88       		.byte	0x88
 2409 0bf7 FB050000 		.4byte	0x5fb
 2410 0bfb 02       		.byte	0x2
 2411 0bfc 23       		.byte	0x23
 2412 0bfd 00       		.uleb128 0
 2413 0bfe 06       		.uleb128 0x6
 2414 0bff 62080000 		.4byte	.LASF103
 2415 0c03 18       		.byte	0x18
 2416 0c04 89       		.byte	0x89
 2417 0c05 27060000 		.4byte	0x627
 2418 0c09 02       		.byte	0x2
 2419 0c0a 23       		.byte	0x23
 2420 0c0b 04       		.uleb128 0x4
 2421 0c0c 00       		.byte	0
 2422 0c0d 08       		.uleb128 0x8
 2423 0c0e 08       		.byte	0x8
 2424 0c0f 18       		.byte	0x18
 2425 0c10 8B       		.byte	0x8b
 2426 0c11 320C0000 		.4byte	0xc32
 2427 0c15 06       		.uleb128 0x6
 2428 0c16 C0070000 		.4byte	.LASF162
 2429 0c1a 18       		.byte	0x18
 2430 0c1b 8C       		.byte	0x8c
 2431 0c1c B40B0000 		.4byte	0xbb4
 2432 0c20 02       		.byte	0x2
 2433 0c21 23       		.byte	0x23
 2434 0c22 00       		.uleb128 0
 2435 0c23 07       		.uleb128 0x7
 2436 0c24 63747800 		.ascii	"ctx\000"
 2437 0c28 18       		.byte	0x18
 2438 0c29 8D       		.byte	0x8d
 2439 0c2a A7020000 		.4byte	0x2a7
ARM GAS  /tmp/ccQUlp8a.s 			page 44


 2440 0c2e 02       		.byte	0x2
 2441 0c2f 23       		.byte	0x23
 2442 0c30 04       		.uleb128 0x4
 2443 0c31 00       		.byte	0
 2444 0c32 08       		.uleb128 0x8
 2445 0c33 0C       		.byte	0xc
 2446 0c34 18       		.byte	0x18
 2447 0c35 90       		.byte	0x90
 2448 0c36 630C0000 		.4byte	0xc63
 2449 0c3a 06       		.uleb128 0x6
 2450 0c3b 48090000 		.4byte	.LASF172
 2451 0c3f 18       		.byte	0x18
 2452 0c40 91       		.byte	0x91
 2453 0c41 D0040000 		.4byte	0x4d0
 2454 0c45 02       		.byte	0x2
 2455 0c46 23       		.byte	0x23
 2456 0c47 00       		.uleb128 0
 2457 0c48 07       		.uleb128 0x7
 2458 0c49 6800     		.ascii	"h\000"
 2459 0c4b 18       		.byte	0x18
 2460 0c4c 92       		.byte	0x92
 2461 0c4d 9E0B0000 		.4byte	0xb9e
 2462 0c51 02       		.byte	0x2
 2463 0c52 23       		.byte	0x23
 2464 0c53 04       		.uleb128 0x4
 2465 0c54 07       		.uleb128 0x7
 2466 0c55 61726700 		.ascii	"arg\000"
 2467 0c59 18       		.byte	0x18
 2468 0c5a 93       		.byte	0x93
 2469 0c5b A7020000 		.4byte	0x2a7
 2470 0c5f 02       		.byte	0x2
 2471 0c60 23       		.byte	0x23
 2472 0c61 08       		.uleb128 0x8
 2473 0c62 00       		.byte	0
 2474 0c63 10       		.uleb128 0x10
 2475 0c64 0C       		.byte	0xc
 2476 0c65 18       		.byte	0x18
 2477 0c66 80       		.byte	0x80
 2478 0c67 970C0000 		.4byte	0xc97
 2479 0c6b 11       		.uleb128 0x11
 2480 0c6c 4A060000 		.4byte	.LASF173
 2481 0c70 18       		.byte	0x18
 2482 0c71 82       		.byte	0x82
 2483 0c72 970C0000 		.4byte	0xc97
 2484 0c76 19       		.uleb128 0x19
 2485 0c77 696E7000 		.ascii	"inp\000"
 2486 0c7b 18       		.byte	0x18
 2487 0c7c 8A       		.byte	0x8a
 2488 0c7d EA0B0000 		.4byte	0xbea
 2489 0c81 19       		.uleb128 0x19
 2490 0c82 636200   		.ascii	"cb\000"
 2491 0c85 18       		.byte	0x18
 2492 0c86 8E       		.byte	0x8e
 2493 0c87 0D0C0000 		.4byte	0xc0d
 2494 0c8b 19       		.uleb128 0x19
 2495 0c8c 746D6F00 		.ascii	"tmo\000"
 2496 0c90 18       		.byte	0x18
ARM GAS  /tmp/ccQUlp8a.s 			page 45


 2497 0c91 94       		.byte	0x94
 2498 0c92 320C0000 		.4byte	0xc32
 2499 0c96 00       		.byte	0
 2500 0c97 09       		.uleb128 0x9
 2501 0c98 04       		.byte	0x4
 2502 0c99 630B0000 		.4byte	0xb63
 2503 0c9d 05       		.uleb128 0x5
 2504 0c9e 2F090000 		.4byte	.LASF174
 2505 0ca2 14       		.byte	0x14
 2506 0ca3 18       		.byte	0x18
 2507 0ca4 7D       		.byte	0x7d
 2508 0ca5 D40C0000 		.4byte	0xcd4
 2509 0ca9 06       		.uleb128 0x6
 2510 0caa AD070000 		.4byte	.LASF98
 2511 0cae 18       		.byte	0x18
 2512 0caf 7E       		.byte	0x7e
 2513 0cb0 BF0B0000 		.4byte	0xbbf
 2514 0cb4 02       		.byte	0x2
 2515 0cb5 23       		.byte	0x23
 2516 0cb6 00       		.uleb128 0
 2517 0cb7 07       		.uleb128 0x7
 2518 0cb8 73656D00 		.ascii	"sem\000"
 2519 0cbc 18       		.byte	0x18
 2520 0cbd 7F       		.byte	0x7f
 2521 0cbe D40C0000 		.4byte	0xcd4
 2522 0cc2 02       		.byte	0x2
 2523 0cc3 23       		.byte	0x23
 2524 0cc4 04       		.uleb128 0x4
 2525 0cc5 07       		.uleb128 0x7
 2526 0cc6 6D736700 		.ascii	"msg\000"
 2527 0cca 18       		.byte	0x18
 2528 0ccb 96       		.byte	0x96
 2529 0ccc 630C0000 		.4byte	0xc63
 2530 0cd0 02       		.byte	0x2
 2531 0cd1 23       		.byte	0x23
 2532 0cd2 08       		.uleb128 0x8
 2533 0cd3 00       		.byte	0
 2534 0cd4 09       		.uleb128 0x9
 2535 0cd5 04       		.byte	0x4
 2536 0cd6 E6040000 		.4byte	0x4e6
 2537 0cda 1C       		.uleb128 0x1c
 2538 0cdb 8C050000 		.4byte	.LASF175
 2539 0cdf 01       		.byte	0x1
 2540 0ce0 AD01     		.2byte	0x1ad
 2541 0ce2 01       		.byte	0x1
 2542 0ce3 00000000 		.4byte	.LFB14
 2543 0ce7 04000000 		.4byte	.LFE14
 2544 0ceb 02       		.byte	0x2
 2545 0cec 7D       		.byte	0x7d
 2546 0ced 00       		.sleb128 0
 2547 0cee 01       		.byte	0x1
 2548 0cef 1E0D0000 		.4byte	0xd1e
 2549 0cf3 1D       		.uleb128 0x1d
 2550 0cf4 7000     		.ascii	"p\000"
 2551 0cf6 01       		.byte	0x1
 2552 0cf7 AD01     		.2byte	0x1ad
 2553 0cf9 A7020000 		.4byte	0x2a7
ARM GAS  /tmp/ccQUlp8a.s 			page 46


 2554 0cfd 00000000 		.4byte	.LLST0
 2555 0d01 1E       		.uleb128 0x1e
 2556 0d02 7100     		.ascii	"q\000"
 2557 0d04 01       		.byte	0x1
 2558 0d05 AF01     		.2byte	0x1af
 2559 0d07 FB050000 		.4byte	0x5fb
 2560 0d0b 1F       		.uleb128 0x1f
 2561 0d0c 04000000 		.4byte	.LVL1
 2562 0d10 01       		.byte	0x1
 2563 0d11 57120000 		.4byte	0x1257
 2564 0d15 20       		.uleb128 0x20
 2565 0d16 01       		.byte	0x1
 2566 0d17 50       		.byte	0x50
 2567 0d18 03       		.byte	0x3
 2568 0d19 F3       		.byte	0xf3
 2569 0d1a 01       		.uleb128 0x1
 2570 0d1b 50       		.byte	0x50
 2571 0d1c 00       		.byte	0
 2572 0d1d 00       		.byte	0
 2573 0d1e 21       		.uleb128 0x21
 2574 0d1f 00030000 		.4byte	.LASF176
 2575 0d23 01       		.byte	0x1
 2576 0d24 4A       		.byte	0x4a
 2577 0d25 01       		.byte	0x1
 2578 0d26 00000000 		.4byte	.LFB7
 2579 0d2a A4000000 		.4byte	.LFE7
 2580 0d2e 21000000 		.4byte	.LLST1
 2581 0d32 01       		.byte	0x1
 2582 0d33 EB0D0000 		.4byte	0xdeb
 2583 0d37 22       		.uleb128 0x22
 2584 0d38 61726700 		.ascii	"arg\000"
 2585 0d3c 01       		.byte	0x1
 2586 0d3d 4A       		.byte	0x4a
 2587 0d3e A7020000 		.4byte	0x2a7
 2588 0d42 4D000000 		.4byte	.LLST2
 2589 0d46 23       		.uleb128 0x23
 2590 0d47 6D736700 		.ascii	"msg\000"
 2591 0d4b 01       		.byte	0x1
 2592 0d4c 4C       		.byte	0x4c
 2593 0d4d EB0D0000 		.4byte	0xdeb
 2594 0d51 02       		.byte	0x2
 2595 0d52 91       		.byte	0x91
 2596 0d53 74       		.sleb128 -12
 2597 0d54 24       		.uleb128 0x24
 2598 0d55 1A000000 		.4byte	.LVL6
 2599 0d59 6F120000 		.4byte	0x126f
 2600 0d5d 710D0000 		.4byte	0xd71
 2601 0d61 20       		.uleb128 0x20
 2602 0d62 01       		.byte	0x1
 2603 0d63 51       		.byte	0x51
 2604 0d64 02       		.byte	0x2
 2605 0d65 74       		.byte	0x74
 2606 0d66 00       		.sleb128 0
 2607 0d67 20       		.uleb128 0x20
 2608 0d68 01       		.byte	0x1
 2609 0d69 50       		.byte	0x50
 2610 0d6a 05       		.byte	0x5
ARM GAS  /tmp/ccQUlp8a.s 			page 47


 2611 0d6b 03       		.byte	0x3
 2612 0d6c 00000000 		.4byte	.LANCHOR2
 2613 0d70 00       		.byte	0
 2614 0d71 24       		.uleb128 0x24
 2615 0d72 3A000000 		.4byte	.LVL8
 2616 0d76 94120000 		.4byte	0x1294
 2617 0d7a 840D0000 		.4byte	0xd84
 2618 0d7e 20       		.uleb128 0x20
 2619 0d7f 01       		.byte	0x1
 2620 0d80 50       		.byte	0x50
 2621 0d81 01       		.byte	0x1
 2622 0d82 39       		.byte	0x39
 2623 0d83 00       		.byte	0
 2624 0d84 25       		.uleb128 0x25
 2625 0d85 44000000 		.4byte	.LVL9
 2626 0d89 AD120000 		.4byte	0x12ad
 2627 0d8d 24       		.uleb128 0x24
 2628 0d8e 4C000000 		.4byte	.LVL10
 2629 0d92 94120000 		.4byte	0x1294
 2630 0d96 A00D0000 		.4byte	0xda0
 2631 0d9a 20       		.uleb128 0x20
 2632 0d9b 01       		.byte	0x1
 2633 0d9c 50       		.byte	0x50
 2634 0d9d 01       		.byte	0x1
 2635 0d9e 39       		.byte	0x39
 2636 0d9f 00       		.byte	0
 2637 0da0 25       		.uleb128 0x25
 2638 0da1 58000000 		.4byte	.LVL11
 2639 0da5 C6120000 		.4byte	0x12c6
 2640 0da9 24       		.uleb128 0x24
 2641 0daa 60000000 		.4byte	.LVL12
 2642 0dae 94120000 		.4byte	0x1294
 2643 0db2 BC0D0000 		.4byte	0xdbc
 2644 0db6 20       		.uleb128 0x20
 2645 0db7 01       		.byte	0x1
 2646 0db8 50       		.byte	0x50
 2647 0db9 01       		.byte	0x1
 2648 0dba 39       		.byte	0x39
 2649 0dbb 00       		.byte	0
 2650 0dbc 25       		.uleb128 0x25
 2651 0dbd 76000000 		.4byte	.LVL13
 2652 0dc1 E4120000 		.4byte	0x12e4
 2653 0dc5 24       		.uleb128 0x24
 2654 0dc6 7E000000 		.4byte	.LVL14
 2655 0dca 94120000 		.4byte	0x1294
 2656 0dce D80D0000 		.4byte	0xdd8
 2657 0dd2 20       		.uleb128 0x20
 2658 0dd3 01       		.byte	0x1
 2659 0dd4 50       		.byte	0x50
 2660 0dd5 01       		.byte	0x1
 2661 0dd6 3A       		.byte	0x3a
 2662 0dd7 00       		.byte	0
 2663 0dd8 25       		.uleb128 0x25
 2664 0dd9 8E000000 		.4byte	.LVL16
 2665 0ddd 01130000 		.4byte	0x1301
 2666 0de1 25       		.uleb128 0x25
 2667 0de2 94000000 		.4byte	.LVL17
ARM GAS  /tmp/ccQUlp8a.s 			page 48


 2668 0de6 0C130000 		.4byte	0x130c
 2669 0dea 00       		.byte	0
 2670 0deb 09       		.uleb128 0x9
 2671 0dec 04       		.byte	0x4
 2672 0ded 9D0C0000 		.4byte	0xc9d
 2673 0df1 26       		.uleb128 0x26
 2674 0df2 01       		.byte	0x1
 2675 0df3 A1040000 		.4byte	.LASF177
 2676 0df7 01       		.byte	0x1
 2677 0df8 9C       		.byte	0x9c
 2678 0df9 01       		.byte	0x1
 2679 0dfa DB040000 		.4byte	0x4db
 2680 0dfe 00000000 		.4byte	.LFB8
 2681 0e02 48000000 		.4byte	.LFE8
 2682 0e06 6E000000 		.4byte	.LLST3
 2683 0e0a 01       		.byte	0x1
 2684 0e0b 970E0000 		.4byte	0xe97
 2685 0e0f 22       		.uleb128 0x22
 2686 0e10 7000     		.ascii	"p\000"
 2687 0e12 01       		.byte	0x1
 2688 0e13 9C       		.byte	0x9c
 2689 0e14 FB050000 		.4byte	0x5fb
 2690 0e18 8E000000 		.4byte	.LLST4
 2691 0e1c 22       		.uleb128 0x22
 2692 0e1d 696E7000 		.ascii	"inp\000"
 2693 0e21 01       		.byte	0x1
 2694 0e22 9C       		.byte	0x9c
 2695 0e23 27060000 		.4byte	0x627
 2696 0e27 AC000000 		.4byte	.LLST5
 2697 0e2b 27       		.uleb128 0x27
 2698 0e2c 6D736700 		.ascii	"msg\000"
 2699 0e30 01       		.byte	0x1
 2700 0e31 AD       		.byte	0xad
 2701 0e32 EB0D0000 		.4byte	0xdeb
 2702 0e36 CA000000 		.4byte	.LLST6
 2703 0e3a 24       		.uleb128 0x24
 2704 0e3b 0C000000 		.4byte	.LVL20
 2705 0e3f 29130000 		.4byte	0x1329
 2706 0e43 510E0000 		.4byte	0xe51
 2707 0e47 20       		.uleb128 0x20
 2708 0e48 01       		.byte	0x1
 2709 0e49 50       		.byte	0x50
 2710 0e4a 05       		.byte	0x5
 2711 0e4b 03       		.byte	0x3
 2712 0e4c 00000000 		.4byte	.LANCHOR2
 2713 0e50 00       		.byte	0
 2714 0e51 24       		.uleb128 0x24
 2715 0e52 14000000 		.4byte	.LVL21
 2716 0e56 41130000 		.4byte	0x1341
 2717 0e5a 640E0000 		.4byte	0xe64
 2718 0e5e 20       		.uleb128 0x20
 2719 0e5f 01       		.byte	0x1
 2720 0e60 50       		.byte	0x50
 2721 0e61 01       		.byte	0x1
 2722 0e62 3A       		.byte	0x3a
 2723 0e63 00       		.byte	0
 2724 0e64 24       		.uleb128 0x24
ARM GAS  /tmp/ccQUlp8a.s 			page 49


 2725 0e65 28000000 		.4byte	.LVL23
 2726 0e69 59130000 		.4byte	0x1359
 2727 0e6d 810E0000 		.4byte	0xe81
 2728 0e71 20       		.uleb128 0x20
 2729 0e72 01       		.byte	0x1
 2730 0e73 51       		.byte	0x51
 2731 0e74 02       		.byte	0x2
 2732 0e75 74       		.byte	0x74
 2733 0e76 00       		.sleb128 0
 2734 0e77 20       		.uleb128 0x20
 2735 0e78 01       		.byte	0x1
 2736 0e79 50       		.byte	0x50
 2737 0e7a 05       		.byte	0x5
 2738 0e7b 03       		.byte	0x3
 2739 0e7c 00000000 		.4byte	.LANCHOR2
 2740 0e80 00       		.byte	0
 2741 0e81 28       		.uleb128 0x28
 2742 0e82 3E000000 		.4byte	.LVL27
 2743 0e86 94120000 		.4byte	0x1294
 2744 0e8a 20       		.uleb128 0x20
 2745 0e8b 01       		.byte	0x1
 2746 0e8c 51       		.byte	0x51
 2747 0e8d 02       		.byte	0x2
 2748 0e8e 74       		.byte	0x74
 2749 0e8f 00       		.sleb128 0
 2750 0e90 20       		.uleb128 0x20
 2751 0e91 01       		.byte	0x1
 2752 0e92 50       		.byte	0x50
 2753 0e93 01       		.byte	0x1
 2754 0e94 3A       		.byte	0x3a
 2755 0e95 00       		.byte	0
 2756 0e96 00       		.byte	0
 2757 0e97 26       		.uleb128 0x26
 2758 0e98 01       		.byte	0x1
 2759 0e99 CF060000 		.4byte	.LASF178
 2760 0e9d 01       		.byte	0x1
 2761 0e9e CE       		.byte	0xce
 2762 0e9f 01       		.byte	0x1
 2763 0ea0 DB040000 		.4byte	0x4db
 2764 0ea4 00000000 		.4byte	.LFB9
 2765 0ea8 54000000 		.4byte	.LFE9
 2766 0eac 09010000 		.4byte	.LLST7
 2767 0eb0 01       		.byte	0x1
 2768 0eb1 570F0000 		.4byte	0xf57
 2769 0eb5 29       		.uleb128 0x29
 2770 0eb6 C0070000 		.4byte	.LASF162
 2771 0eba 01       		.byte	0x1
 2772 0ebb CE       		.byte	0xce
 2773 0ebc B40B0000 		.4byte	0xbb4
 2774 0ec0 29010000 		.4byte	.LLST8
 2775 0ec4 22       		.uleb128 0x22
 2776 0ec5 63747800 		.ascii	"ctx\000"
 2777 0ec9 01       		.byte	0x1
 2778 0eca CE       		.byte	0xce
 2779 0ecb A7020000 		.4byte	0x2a7
 2780 0ecf 47010000 		.4byte	.LLST9
 2781 0ed3 29       		.uleb128 0x29
ARM GAS  /tmp/ccQUlp8a.s 			page 50


 2782 0ed4 51010000 		.4byte	.LASF179
 2783 0ed8 01       		.byte	0x1
 2784 0ed9 CE       		.byte	0xce
 2785 0eda AF040000 		.4byte	0x4af
 2786 0ede 65010000 		.4byte	.LLST10
 2787 0ee2 27       		.uleb128 0x27
 2788 0ee3 6D736700 		.ascii	"msg\000"
 2789 0ee7 01       		.byte	0x1
 2790 0ee8 D0       		.byte	0xd0
 2791 0ee9 EB0D0000 		.4byte	0xdeb
 2792 0eed 86010000 		.4byte	.LLST11
 2793 0ef1 24       		.uleb128 0x24
 2794 0ef2 0E000000 		.4byte	.LVL30
 2795 0ef6 29130000 		.4byte	0x1329
 2796 0efa 080F0000 		.4byte	0xf08
 2797 0efe 20       		.uleb128 0x20
 2798 0eff 01       		.byte	0x1
 2799 0f00 50       		.byte	0x50
 2800 0f01 05       		.byte	0x5
 2801 0f02 03       		.byte	0x3
 2802 0f03 00000000 		.4byte	.LANCHOR2
 2803 0f07 00       		.byte	0
 2804 0f08 24       		.uleb128 0x24
 2805 0f09 16000000 		.4byte	.LVL31
 2806 0f0d 41130000 		.4byte	0x1341
 2807 0f11 1B0F0000 		.4byte	0xf1b
 2808 0f15 20       		.uleb128 0x20
 2809 0f16 01       		.byte	0x1
 2810 0f17 50       		.byte	0x50
 2811 0f18 01       		.byte	0x1
 2812 0f19 39       		.byte	0x39
 2813 0f1a 00       		.byte	0
 2814 0f1b 24       		.uleb128 0x24
 2815 0f1c 2C000000 		.4byte	.LVL33
 2816 0f20 59130000 		.4byte	0x1359
 2817 0f24 380F0000 		.4byte	0xf38
 2818 0f28 20       		.uleb128 0x20
 2819 0f29 01       		.byte	0x1
 2820 0f2a 51       		.byte	0x51
 2821 0f2b 02       		.byte	0x2
 2822 0f2c 74       		.byte	0x74
 2823 0f2d 00       		.sleb128 0
 2824 0f2e 20       		.uleb128 0x20
 2825 0f2f 01       		.byte	0x1
 2826 0f30 50       		.byte	0x50
 2827 0f31 05       		.byte	0x5
 2828 0f32 03       		.byte	0x3
 2829 0f33 00000000 		.4byte	.LANCHOR2
 2830 0f37 00       		.byte	0
 2831 0f38 25       		.uleb128 0x25
 2832 0f39 36000000 		.4byte	.LVL36
 2833 0f3d 76130000 		.4byte	0x1376
 2834 0f41 28       		.uleb128 0x28
 2835 0f42 48000000 		.4byte	.LVL39
 2836 0f46 94120000 		.4byte	0x1294
 2837 0f4a 20       		.uleb128 0x20
 2838 0f4b 01       		.byte	0x1
ARM GAS  /tmp/ccQUlp8a.s 			page 51


 2839 0f4c 51       		.byte	0x51
 2840 0f4d 02       		.byte	0x2
 2841 0f4e 74       		.byte	0x74
 2842 0f4f 00       		.sleb128 0
 2843 0f50 20       		.uleb128 0x20
 2844 0f51 01       		.byte	0x1
 2845 0f52 50       		.byte	0x50
 2846 0f53 01       		.byte	0x1
 2847 0f54 39       		.byte	0x39
 2848 0f55 00       		.byte	0
 2849 0f56 00       		.byte	0
 2850 0f57 26       		.uleb128 0x26
 2851 0f58 01       		.byte	0x1
 2852 0f59 85080000 		.4byte	.LASF180
 2853 0f5d 01       		.byte	0x1
 2854 0f5e F2       		.byte	0xf2
 2855 0f5f 01       		.byte	0x1
 2856 0f60 DB040000 		.4byte	0x4db
 2857 0f64 00000000 		.4byte	.LFB10
 2858 0f68 3C000000 		.4byte	.LFE10
 2859 0f6c E6010000 		.4byte	.LLST12
 2860 0f70 01       		.byte	0x1
 2861 0f71 ED0F0000 		.4byte	0xfed
 2862 0f75 29       		.uleb128 0x29
 2863 0f76 48090000 		.4byte	.LASF172
 2864 0f7a 01       		.byte	0x1
 2865 0f7b F2       		.byte	0xf2
 2866 0f7c D0040000 		.4byte	0x4d0
 2867 0f80 06020000 		.4byte	.LLST13
 2868 0f84 22       		.uleb128 0x22
 2869 0f85 6800     		.ascii	"h\000"
 2870 0f87 01       		.byte	0x1
 2871 0f88 F2       		.byte	0xf2
 2872 0f89 9E0B0000 		.4byte	0xb9e
 2873 0f8d 24020000 		.4byte	.LLST14
 2874 0f91 22       		.uleb128 0x22
 2875 0f92 61726700 		.ascii	"arg\000"
 2876 0f96 01       		.byte	0x1
 2877 0f97 F2       		.byte	0xf2
 2878 0f98 A7020000 		.4byte	0x2a7
 2879 0f9c 42020000 		.4byte	.LLST15
 2880 0fa0 27       		.uleb128 0x27
 2881 0fa1 6D736700 		.ascii	"msg\000"
 2882 0fa5 01       		.byte	0x1
 2883 0fa6 F4       		.byte	0xf4
 2884 0fa7 EB0D0000 		.4byte	0xdeb
 2885 0fab 60020000 		.4byte	.LLST16
 2886 0faf 24       		.uleb128 0x24
 2887 0fb0 0E000000 		.4byte	.LVL44
 2888 0fb4 29130000 		.4byte	0x1329
 2889 0fb8 C60F0000 		.4byte	0xfc6
 2890 0fbc 20       		.uleb128 0x20
 2891 0fbd 01       		.byte	0x1
 2892 0fbe 50       		.byte	0x50
 2893 0fbf 05       		.byte	0x5
 2894 0fc0 03       		.byte	0x3
 2895 0fc1 00000000 		.4byte	.LANCHOR2
ARM GAS  /tmp/ccQUlp8a.s 			page 52


 2896 0fc5 00       		.byte	0
 2897 0fc6 24       		.uleb128 0x24
 2898 0fc7 16000000 		.4byte	.LVL45
 2899 0fcb 41130000 		.4byte	0x1341
 2900 0fcf D90F0000 		.4byte	0xfd9
 2901 0fd3 20       		.uleb128 0x20
 2902 0fd4 01       		.byte	0x1
 2903 0fd5 50       		.byte	0x50
 2904 0fd6 01       		.byte	0x1
 2905 0fd7 39       		.byte	0x39
 2906 0fd8 00       		.byte	0
 2907 0fd9 28       		.uleb128 0x28
 2908 0fda 2A000000 		.4byte	.LVL47
 2909 0fde 76130000 		.4byte	0x1376
 2910 0fe2 20       		.uleb128 0x20
 2911 0fe3 01       		.byte	0x1
 2912 0fe4 50       		.byte	0x50
 2913 0fe5 05       		.byte	0x5
 2914 0fe6 03       		.byte	0x3
 2915 0fe7 00000000 		.4byte	.LANCHOR2
 2916 0feb 00       		.byte	0
 2917 0fec 00       		.byte	0
 2918 0fed 2A       		.uleb128 0x2a
 2919 0fee 01       		.byte	0x1
 2920 0fef 66050000 		.4byte	.LASF181
 2921 0ff3 01       		.byte	0x1
 2922 0ff4 0F01     		.2byte	0x10f
 2923 0ff6 01       		.byte	0x1
 2924 0ff7 DB040000 		.4byte	0x4db
 2925 0ffb 00000000 		.4byte	.LFB11
 2926 0fff 38000000 		.4byte	.LFE11
 2927 1003 94020000 		.4byte	.LLST17
 2928 1007 01       		.byte	0x1
 2929 1008 78100000 		.4byte	0x1078
 2930 100c 1D       		.uleb128 0x1d
 2931 100d 6800     		.ascii	"h\000"
 2932 100f 01       		.byte	0x1
 2933 1010 0F01     		.2byte	0x10f
 2934 1012 9E0B0000 		.4byte	0xb9e
 2935 1016 B4020000 		.4byte	.LLST18
 2936 101a 1D       		.uleb128 0x1d
 2937 101b 61726700 		.ascii	"arg\000"
 2938 101f 01       		.byte	0x1
 2939 1020 0F01     		.2byte	0x10f
 2940 1022 A7020000 		.4byte	0x2a7
 2941 1026 D2020000 		.4byte	.LLST19
 2942 102a 2B       		.uleb128 0x2b
 2943 102b 6D736700 		.ascii	"msg\000"
 2944 102f 01       		.byte	0x1
 2945 1030 1101     		.2byte	0x111
 2946 1032 EB0D0000 		.4byte	0xdeb
 2947 1036 F0020000 		.4byte	.LLST20
 2948 103a 24       		.uleb128 0x24
 2949 103b 0C000000 		.4byte	.LVL52
 2950 103f 29130000 		.4byte	0x1329
 2951 1043 51100000 		.4byte	0x1051
 2952 1047 20       		.uleb128 0x20
ARM GAS  /tmp/ccQUlp8a.s 			page 53


 2953 1048 01       		.byte	0x1
 2954 1049 50       		.byte	0x50
 2955 104a 05       		.byte	0x5
 2956 104b 03       		.byte	0x3
 2957 104c 00000000 		.4byte	.LANCHOR2
 2958 1050 00       		.byte	0
 2959 1051 24       		.uleb128 0x24
 2960 1052 14000000 		.4byte	.LVL53
 2961 1056 41130000 		.4byte	0x1341
 2962 105a 64100000 		.4byte	0x1064
 2963 105e 20       		.uleb128 0x20
 2964 105f 01       		.byte	0x1
 2965 1060 50       		.byte	0x50
 2966 1061 01       		.byte	0x1
 2967 1062 39       		.byte	0x39
 2968 1063 00       		.byte	0
 2969 1064 28       		.uleb128 0x28
 2970 1065 26000000 		.4byte	.LVL55
 2971 1069 76130000 		.4byte	0x1376
 2972 106d 20       		.uleb128 0x20
 2973 106e 01       		.byte	0x1
 2974 106f 50       		.byte	0x50
 2975 1070 05       		.byte	0x5
 2976 1071 03       		.byte	0x3
 2977 1072 00000000 		.4byte	.LANCHOR2
 2978 1076 00       		.byte	0
 2979 1077 00       		.byte	0
 2980 1078 2A       		.uleb128 0x2a
 2981 1079 01       		.byte	0x1
 2982 107a E0010000 		.4byte	.LASF182
 2983 107e 01       		.byte	0x1
 2984 107f 2D01     		.2byte	0x12d
 2985 1081 01       		.byte	0x1
 2986 1082 DB040000 		.4byte	0x4db
 2987 1086 00000000 		.4byte	.LFB12
 2988 108a 38000000 		.4byte	.LFE12
 2989 108e 24030000 		.4byte	.LLST21
 2990 1092 01       		.byte	0x1
 2991 1093 FB100000 		.4byte	0x10fb
 2992 1097 2C       		.uleb128 0x2c
 2993 1098 4A060000 		.4byte	.LASF173
 2994 109c 01       		.byte	0x1
 2995 109d 2D01     		.2byte	0x12d
 2996 109f 970C0000 		.4byte	0xc97
 2997 10a3 50030000 		.4byte	.LLST22
 2998 10a7 2D       		.uleb128 0x2d
 2999 10a8 6D736700 		.ascii	"msg\000"
 3000 10ac 01       		.byte	0x1
 3001 10ad 2F01     		.2byte	0x12f
 3002 10af 9D0C0000 		.4byte	0xc9d
 3003 10b3 02       		.byte	0x2
 3004 10b4 91       		.byte	0x91
 3005 10b5 5C       		.sleb128 -36
 3006 10b6 24       		.uleb128 0x24
 3007 10b7 0C000000 		.4byte	.LVL60
 3008 10bb 29130000 		.4byte	0x1329
 3009 10bf CD100000 		.4byte	0x10cd
ARM GAS  /tmp/ccQUlp8a.s 			page 54


 3010 10c3 20       		.uleb128 0x20
 3011 10c4 01       		.byte	0x1
 3012 10c5 50       		.byte	0x50
 3013 10c6 05       		.byte	0x5
 3014 10c7 03       		.byte	0x3
 3015 10c8 00000000 		.4byte	.LANCHOR2
 3016 10cc 00       		.byte	0
 3017 10cd 24       		.uleb128 0x24
 3018 10ce 1E000000 		.4byte	.LVL61
 3019 10d2 76130000 		.4byte	0x1376
 3020 10d6 EA100000 		.4byte	0x10ea
 3021 10da 20       		.uleb128 0x20
 3022 10db 01       		.byte	0x1
 3023 10dc 51       		.byte	0x51
 3024 10dd 02       		.byte	0x2
 3025 10de 91       		.byte	0x91
 3026 10df 5C       		.sleb128 -36
 3027 10e0 20       		.uleb128 0x20
 3028 10e1 01       		.byte	0x1
 3029 10e2 50       		.byte	0x50
 3030 10e3 05       		.byte	0x5
 3031 10e4 03       		.byte	0x3
 3032 10e5 00000000 		.4byte	.LANCHOR2
 3033 10e9 00       		.byte	0
 3034 10ea 28       		.uleb128 0x28
 3035 10eb 28000000 		.4byte	.LVL62
 3036 10ef 8F130000 		.4byte	0x138f
 3037 10f3 20       		.uleb128 0x20
 3038 10f4 01       		.byte	0x1
 3039 10f5 51       		.byte	0x51
 3040 10f6 02       		.byte	0x2
 3041 10f7 75       		.byte	0x75
 3042 10f8 00       		.sleb128 0
 3043 10f9 00       		.byte	0
 3044 10fa 00       		.byte	0
 3045 10fb 2E       		.uleb128 0x2e
 3046 10fc 01       		.byte	0x1
 3047 10fd 50020000 		.4byte	.LASF208
 3048 1101 01       		.byte	0x1
 3049 1102 9401     		.2byte	0x194
 3050 1104 01       		.byte	0x1
 3051 1105 00000000 		.4byte	.LFB13
 3052 1109 4C000000 		.4byte	.LFE13
 3053 110d 6E030000 		.4byte	.LLST23
 3054 1111 01       		.byte	0x1
 3055 1112 93110000 		.4byte	0x1193
 3056 1116 2C       		.uleb128 0x2c
 3057 1117 0E010000 		.4byte	.LASF183
 3058 111b 01       		.byte	0x1
 3059 111c 9401     		.2byte	0x194
 3060 111e A90B0000 		.4byte	0xba9
 3061 1122 9A030000 		.4byte	.LLST24
 3062 1126 1D       		.uleb128 0x1d
 3063 1127 61726700 		.ascii	"arg\000"
 3064 112b 01       		.byte	0x1
 3065 112c 9401     		.2byte	0x194
 3066 112e A7020000 		.4byte	0x2a7
ARM GAS  /tmp/ccQUlp8a.s 			page 55


 3067 1132 B8030000 		.4byte	.LLST25
 3068 1136 25       		.uleb128 0x25
 3069 1137 0C000000 		.4byte	.LVL64
 3070 113b AC130000 		.4byte	0x13ac
 3071 113f 24       		.uleb128 0x24
 3072 1140 1C000000 		.4byte	.LVL65
 3073 1144 B6130000 		.4byte	0x13b6
 3074 1148 5B110000 		.4byte	0x115b
 3075 114c 20       		.uleb128 0x20
 3076 114d 01       		.byte	0x1
 3077 114e 51       		.byte	0x51
 3078 114f 01       		.byte	0x1
 3079 1150 34       		.byte	0x34
 3080 1151 20       		.uleb128 0x20
 3081 1152 01       		.byte	0x1
 3082 1153 50       		.byte	0x50
 3083 1154 05       		.byte	0x5
 3084 1155 03       		.byte	0x3
 3085 1156 00000000 		.4byte	.LANCHOR2
 3086 115a 00       		.byte	0
 3087 115b 25       		.uleb128 0x25
 3088 115c 22000000 		.4byte	.LVL66
 3089 1160 01130000 		.4byte	0x1301
 3090 1164 28       		.uleb128 0x28
 3091 1165 34000000 		.4byte	.LVL67
 3092 1169 D3130000 		.4byte	0x13d3
 3093 116d 20       		.uleb128 0x20
 3094 116e 01       		.byte	0x1
 3095 116f 53       		.byte	0x53
 3096 1170 03       		.byte	0x3
 3097 1171 0A       		.byte	0xa
 3098 1172 0004     		.2byte	0x400
 3099 1174 20       		.uleb128 0x20
 3100 1175 01       		.byte	0x1
 3101 1176 52       		.byte	0x52
 3102 1177 01       		.byte	0x1
 3103 1178 30       		.byte	0x30
 3104 1179 20       		.uleb128 0x20
 3105 117a 01       		.byte	0x1
 3106 117b 51       		.byte	0x51
 3107 117c 05       		.byte	0x5
 3108 117d 03       		.byte	0x3
 3109 117e 00000000 		.4byte	tcpip_thread
 3110 1182 20       		.uleb128 0x20
 3111 1183 01       		.byte	0x1
 3112 1184 50       		.byte	0x50
 3113 1185 05       		.byte	0x5
 3114 1186 03       		.byte	0x3
 3115 1187 00000000 		.4byte	.LC0
 3116 118b 20       		.uleb128 0x20
 3117 118c 02       		.byte	0x2
 3118 118d 7D       		.byte	0x7d
 3119 118e 00       		.sleb128 0
 3120 118f 01       		.byte	0x1
 3121 1190 33       		.byte	0x33
 3122 1191 00       		.byte	0
 3123 1192 00       		.byte	0
ARM GAS  /tmp/ccQUlp8a.s 			page 56


 3124 1193 2F       		.uleb128 0x2f
 3125 1194 01       		.byte	0x1
 3126 1195 D6030000 		.4byte	.LASF184
 3127 1199 01       		.byte	0x1
 3128 119a BA01     		.2byte	0x1ba
 3129 119c 01       		.byte	0x1
 3130 119d DB040000 		.4byte	0x4db
 3131 11a1 00000000 		.4byte	.LFB15
 3132 11a5 10000000 		.4byte	.LFE15
 3133 11a9 02       		.byte	0x2
 3134 11aa 7D       		.byte	0x7d
 3135 11ab 00       		.sleb128 0
 3136 11ac 01       		.byte	0x1
 3137 11ad E0110000 		.4byte	0x11e0
 3138 11b1 1D       		.uleb128 0x1d
 3139 11b2 7000     		.ascii	"p\000"
 3140 11b4 01       		.byte	0x1
 3141 11b5 BA01     		.2byte	0x1ba
 3142 11b7 FB050000 		.4byte	0x5fb
 3143 11bb D6030000 		.4byte	.LLST26
 3144 11bf 1F       		.uleb128 0x1f
 3145 11c0 10000000 		.4byte	.LVL70
 3146 11c4 01       		.byte	0x1
 3147 11c5 970E0000 		.4byte	0xe97
 3148 11c9 20       		.uleb128 0x20
 3149 11ca 01       		.byte	0x1
 3150 11cb 52       		.byte	0x52
 3151 11cc 01       		.byte	0x1
 3152 11cd 30       		.byte	0x30
 3153 11ce 20       		.uleb128 0x20
 3154 11cf 01       		.byte	0x1
 3155 11d0 51       		.byte	0x51
 3156 11d1 03       		.byte	0x3
 3157 11d2 F3       		.byte	0xf3
 3158 11d3 01       		.uleb128 0x1
 3159 11d4 50       		.byte	0x50
 3160 11d5 20       		.uleb128 0x20
 3161 11d6 01       		.byte	0x1
 3162 11d7 50       		.byte	0x50
 3163 11d8 05       		.byte	0x5
 3164 11d9 03       		.byte	0x3
 3165 11da 00000000 		.4byte	pbuf_free_int
 3166 11de 00       		.byte	0
 3167 11df 00       		.byte	0
 3168 11e0 2F       		.uleb128 0x2f
 3169 11e1 01       		.byte	0x1
 3170 11e2 A5030000 		.4byte	.LASF185
 3171 11e6 01       		.byte	0x1
 3172 11e7 C701     		.2byte	0x1c7
 3173 11e9 01       		.byte	0x1
 3174 11ea DB040000 		.4byte	0x4db
 3175 11ee 00000000 		.4byte	.LFB16
 3176 11f2 10000000 		.4byte	.LFE16
 3177 11f6 02       		.byte	0x2
 3178 11f7 7D       		.byte	0x7d
 3179 11f8 00       		.sleb128 0
 3180 11f9 01       		.byte	0x1
ARM GAS  /tmp/ccQUlp8a.s 			page 57


 3181 11fa 24120000 		.4byte	0x1224
 3182 11fe 1D       		.uleb128 0x1d
 3183 11ff 6D00     		.ascii	"m\000"
 3184 1201 01       		.byte	0x1
 3185 1202 C701     		.2byte	0x1c7
 3186 1204 A7020000 		.4byte	0x2a7
 3187 1208 02040000 		.4byte	.LLST27
 3188 120c 1F       		.uleb128 0x1f
 3189 120d 10000000 		.4byte	.LVL73
 3190 1211 01       		.byte	0x1
 3191 1212 970E0000 		.4byte	0xe97
 3192 1216 20       		.uleb128 0x20
 3193 1217 01       		.byte	0x1
 3194 1218 52       		.byte	0x52
 3195 1219 01       		.byte	0x1
 3196 121a 30       		.byte	0x30
 3197 121b 20       		.uleb128 0x20
 3198 121c 01       		.byte	0x1
 3199 121d 51       		.byte	0x51
 3200 121e 03       		.byte	0x3
 3201 121f F3       		.byte	0xf3
 3202 1220 01       		.uleb128 0x1
 3203 1221 50       		.byte	0x50
 3204 1222 00       		.byte	0
 3205 1223 00       		.byte	0
 3206 1224 30       		.uleb128 0x30
 3207 1225 68080000 		.4byte	.LASF186
 3208 1229 01       		.byte	0x1
 3209 122a 35       		.byte	0x35
 3210 122b A90B0000 		.4byte	0xba9
 3211 122f 05       		.byte	0x5
 3212 1230 03       		.byte	0x3
 3213 1231 00000000 		.4byte	tcpip_init_done
 3214 1235 30       		.uleb128 0x30
 3215 1236 29030000 		.4byte	.LASF187
 3216 123a 01       		.byte	0x1
 3217 123b 36       		.byte	0x36
 3218 123c A7020000 		.4byte	0x2a7
 3219 1240 05       		.byte	0x5
 3220 1241 03       		.byte	0x3
 3221 1242 00000000 		.4byte	tcpip_init_done_arg
 3222 1246 30       		.uleb128 0x30
 3223 1247 B1060000 		.4byte	.LASF188
 3224 124b 01       		.byte	0x1
 3225 124c 37       		.byte	0x37
 3226 124d F7040000 		.4byte	0x4f7
 3227 1251 05       		.byte	0x5
 3228 1252 03       		.byte	0x3
 3229 1253 00000000 		.4byte	mbox
 3230 1257 31       		.uleb128 0x31
 3231 1258 01       		.byte	0x1
 3232 1259 3F040000 		.4byte	.LASF193
 3233 125d 10       		.byte	0x10
 3234 125e 83       		.byte	0x83
 3235 125f 01       		.byte	0x1
 3236 1260 AF040000 		.4byte	0x4af
 3237 1264 01       		.byte	0x1
ARM GAS  /tmp/ccQUlp8a.s 			page 58


 3238 1265 6F120000 		.4byte	0x126f
 3239 1269 0E       		.uleb128 0xe
 3240 126a FB050000 		.4byte	0x5fb
 3241 126e 00       		.byte	0
 3242 126f 32       		.uleb128 0x32
 3243 1270 01       		.byte	0x1
 3244 1271 A9020000 		.4byte	.LASF189
 3245 1275 17       		.byte	0x17
 3246 1276 59       		.byte	0x59
 3247 1277 01       		.byte	0x1
 3248 1278 01       		.byte	0x1
 3249 1279 88120000 		.4byte	0x1288
 3250 127d 0E       		.uleb128 0xe
 3251 127e 88120000 		.4byte	0x1288
 3252 1282 0E       		.uleb128 0xe
 3253 1283 8E120000 		.4byte	0x128e
 3254 1287 00       		.byte	0
 3255 1288 09       		.uleb128 0x9
 3256 1289 04       		.byte	0x4
 3257 128a F7040000 		.4byte	0x4f7
 3258 128e 09       		.uleb128 0x9
 3259 128f 04       		.byte	0x4
 3260 1290 A7020000 		.4byte	0x2a7
 3261 1294 32       		.uleb128 0x32
 3262 1295 01       		.byte	0x1
 3263 1296 70020000 		.4byte	.LASF190
 3264 129a 0F       		.byte	0xf
 3265 129b 6C       		.byte	0x6c
 3266 129c 01       		.byte	0x1
 3267 129d 01       		.byte	0x1
 3268 129e AD120000 		.4byte	0x12ad
 3269 12a2 0E       		.uleb128 0xe
 3270 12a3 81050000 		.4byte	0x581
 3271 12a7 0E       		.uleb128 0xe
 3272 12a8 A7020000 		.4byte	0x2a7
 3273 12ac 00       		.byte	0
 3274 12ad 32       		.uleb128 0x32
 3275 12ae 01       		.byte	0x1
 3276 12af CF000000 		.4byte	.LASF191
 3277 12b3 17       		.byte	0x17
 3278 12b4 54       		.byte	0x54
 3279 12b5 01       		.byte	0x1
 3280 12b6 01       		.byte	0x1
 3281 12b7 C6120000 		.4byte	0x12c6
 3282 12bb 0E       		.uleb128 0xe
 3283 12bc 9E0B0000 		.4byte	0xb9e
 3284 12c0 0E       		.uleb128 0xe
 3285 12c1 A7020000 		.4byte	0x2a7
 3286 12c5 00       		.byte	0
 3287 12c6 32       		.uleb128 0x32
 3288 12c7 01       		.byte	0x1
 3289 12c8 63070000 		.4byte	.LASF192
 3290 12cc 17       		.byte	0x17
 3291 12cd 51       		.byte	0x51
 3292 12ce 01       		.byte	0x1
 3293 12cf 01       		.byte	0x1
 3294 12d0 E4120000 		.4byte	0x12e4
ARM GAS  /tmp/ccQUlp8a.s 			page 59


 3295 12d4 0E       		.uleb128 0xe
 3296 12d5 D0040000 		.4byte	0x4d0
 3297 12d9 0E       		.uleb128 0xe
 3298 12da 9E0B0000 		.4byte	0xb9e
 3299 12de 0E       		.uleb128 0xe
 3300 12df A7020000 		.4byte	0x2a7
 3301 12e3 00       		.byte	0
 3302 12e4 31       		.uleb128 0x31
 3303 12e5 01       		.byte	0x1
 3304 12e6 39090000 		.4byte	.LASF194
 3305 12ea 19       		.byte	0x19
 3306 12eb D1       		.byte	0xd1
 3307 12ec 01       		.byte	0x1
 3308 12ed DB040000 		.4byte	0x4db
 3309 12f1 01       		.byte	0x1
 3310 12f2 01130000 		.4byte	0x1301
 3311 12f6 0E       		.uleb128 0xe
 3312 12f7 FB050000 		.4byte	0x5fb
 3313 12fb 0E       		.uleb128 0xe
 3314 12fc 27060000 		.4byte	0x627
 3315 1300 00       		.byte	0
 3316 1301 33       		.uleb128 0x33
 3317 1302 01       		.byte	0x1
 3318 1303 23080000 		.4byte	.LASF201
 3319 1307 07       		.byte	0x7
 3320 1308 FA01     		.2byte	0x1fa
 3321 130a 01       		.byte	0x1
 3322 130b 01       		.byte	0x1
 3323 130c 31       		.uleb128 0x31
 3324 130d 01       		.byte	0x1
 3325 130e CD030000 		.4byte	.LASF195
 3326 1312 15       		.byte	0x15
 3327 1313 AD       		.byte	0xad
 3328 1314 01       		.byte	0x1
 3329 1315 DB040000 		.4byte	0x4db
 3330 1319 01       		.byte	0x1
 3331 131a 29130000 		.4byte	0x1329
 3332 131e 0E       		.uleb128 0xe
 3333 131f FB050000 		.4byte	0x5fb
 3334 1323 0E       		.uleb128 0xe
 3335 1324 27060000 		.4byte	0x627
 3336 1328 00       		.byte	0
 3337 1329 31       		.uleb128 0x31
 3338 132a 01       		.byte	0x1
 3339 132b 9A020000 		.4byte	.LASF196
 3340 132f 0E       		.byte	0xe
 3341 1330 CC       		.byte	0xcc
 3342 1331 01       		.byte	0x1
 3343 1332 29000000 		.4byte	0x29
 3344 1336 01       		.byte	0x1
 3345 1337 41130000 		.4byte	0x1341
 3346 133b 0E       		.uleb128 0xe
 3347 133c 88120000 		.4byte	0x1288
 3348 1340 00       		.byte	0
 3349 1341 31       		.uleb128 0x31
 3350 1342 01       		.byte	0x1
 3351 1343 64040000 		.4byte	.LASF197
ARM GAS  /tmp/ccQUlp8a.s 			page 60


 3352 1347 0F       		.byte	0xf
 3353 1348 6A       		.byte	0x6a
 3354 1349 01       		.byte	0x1
 3355 134a A7020000 		.4byte	0x2a7
 3356 134e 01       		.byte	0x1
 3357 134f 59130000 		.4byte	0x1359
 3358 1353 0E       		.uleb128 0xe
 3359 1354 81050000 		.4byte	0x581
 3360 1358 00       		.byte	0
 3361 1359 31       		.uleb128 0x31
 3362 135a 01       		.byte	0x1
 3363 135b 9A050000 		.4byte	.LASF198
 3364 135f 0E       		.byte	0xe
 3365 1360 B1       		.byte	0xb1
 3366 1361 01       		.byte	0x1
 3367 1362 DB040000 		.4byte	0x4db
 3368 1366 01       		.byte	0x1
 3369 1367 76130000 		.4byte	0x1376
 3370 136b 0E       		.uleb128 0xe
 3371 136c 88120000 		.4byte	0x1288
 3372 1370 0E       		.uleb128 0xe
 3373 1371 A7020000 		.4byte	0x2a7
 3374 1375 00       		.byte	0
 3375 1376 32       		.uleb128 0x32
 3376 1377 01       		.byte	0x1
 3377 1378 9F070000 		.4byte	.LASF199
 3378 137c 0E       		.byte	0xe
 3379 137d AD       		.byte	0xad
 3380 137e 01       		.byte	0x1
 3381 137f 01       		.byte	0x1
 3382 1380 8F130000 		.4byte	0x138f
 3383 1384 0E       		.uleb128 0xe
 3384 1385 88120000 		.4byte	0x1288
 3385 1389 0E       		.uleb128 0xe
 3386 138a A7020000 		.4byte	0x2a7
 3387 138e 00       		.byte	0
 3388 138f 31       		.uleb128 0x31
 3389 1390 01       		.byte	0x1
 3390 1391 B6060000 		.4byte	.LASF200
 3391 1395 0E       		.byte	0xe
 3392 1396 8E       		.byte	0x8e
 3393 1397 01       		.byte	0x1
 3394 1398 D0040000 		.4byte	0x4d0
 3395 139c 01       		.byte	0x1
 3396 139d AC130000 		.4byte	0x13ac
 3397 13a1 0E       		.uleb128 0xe
 3398 13a2 D40C0000 		.4byte	0xcd4
 3399 13a6 0E       		.uleb128 0xe
 3400 13a7 D0040000 		.4byte	0x4d0
 3401 13ab 00       		.byte	0
 3402 13ac 34       		.uleb128 0x34
 3403 13ad 01       		.byte	0x1
 3404 13ae 49080000 		.4byte	.LASF202
 3405 13b2 1A       		.byte	0x1a
 3406 13b3 42       		.byte	0x42
 3407 13b4 01       		.byte	0x1
 3408 13b5 01       		.byte	0x1
ARM GAS  /tmp/ccQUlp8a.s 			page 61


 3409 13b6 31       		.uleb128 0x31
 3410 13b7 01       		.byte	0x1
 3411 13b8 78080000 		.4byte	.LASF203
 3412 13bc 0E       		.byte	0xe
 3413 13bd A8       		.byte	0xa8
 3414 13be 01       		.byte	0x1
 3415 13bf DB040000 		.4byte	0x4db
 3416 13c3 01       		.byte	0x1
 3417 13c4 D3130000 		.4byte	0x13d3
 3418 13c8 0E       		.uleb128 0xe
 3419 13c9 88120000 		.4byte	0x1288
 3420 13cd 0E       		.uleb128 0xe
 3421 13ce 29000000 		.4byte	0x29
 3422 13d2 00       		.byte	0
 3423 13d3 35       		.uleb128 0x35
 3424 13d4 01       		.byte	0x1
 3425 13d5 C8050000 		.4byte	.LASF204
 3426 13d9 0E       		.byte	0xe
 3427 13da DA       		.byte	0xda
 3428 13db 01       		.byte	0x1
 3429 13dc 08050000 		.4byte	0x508
 3430 13e0 01       		.byte	0x1
 3431 13e1 0E       		.uleb128 0xe
 3432 13e2 97040000 		.4byte	0x497
 3433 13e6 0E       		.uleb128 0xe
 3434 13e7 13050000 		.4byte	0x513
 3435 13eb 0E       		.uleb128 0xe
 3436 13ec A7020000 		.4byte	0x2a7
 3437 13f0 0E       		.uleb128 0xe
 3438 13f1 29000000 		.4byte	0x29
 3439 13f5 0E       		.uleb128 0xe
 3440 13f6 29000000 		.4byte	0x29
 3441 13fa 00       		.byte	0
 3442 13fb 00       		.byte	0
 3443              		.section	.debug_abbrev,"",%progbits
 3444              	.Ldebug_abbrev0:
 3445 0000 01       		.uleb128 0x1
 3446 0001 11       		.uleb128 0x11
 3447 0002 01       		.byte	0x1
 3448 0003 25       		.uleb128 0x25
 3449 0004 0E       		.uleb128 0xe
 3450 0005 13       		.uleb128 0x13
 3451 0006 0B       		.uleb128 0xb
 3452 0007 03       		.uleb128 0x3
 3453 0008 0E       		.uleb128 0xe
 3454 0009 1B       		.uleb128 0x1b
 3455 000a 0E       		.uleb128 0xe
 3456 000b 55       		.uleb128 0x55
 3457 000c 06       		.uleb128 0x6
 3458 000d 11       		.uleb128 0x11
 3459 000e 01       		.uleb128 0x1
 3460 000f 52       		.uleb128 0x52
 3461 0010 01       		.uleb128 0x1
 3462 0011 10       		.uleb128 0x10
 3463 0012 06       		.uleb128 0x6
 3464 0013 00       		.byte	0
 3465 0014 00       		.byte	0
ARM GAS  /tmp/ccQUlp8a.s 			page 62


 3466 0015 02       		.uleb128 0x2
 3467 0016 24       		.uleb128 0x24
 3468 0017 00       		.byte	0
 3469 0018 0B       		.uleb128 0xb
 3470 0019 0B       		.uleb128 0xb
 3471 001a 3E       		.uleb128 0x3e
 3472 001b 0B       		.uleb128 0xb
 3473 001c 03       		.uleb128 0x3
 3474 001d 08       		.uleb128 0x8
 3475 001e 00       		.byte	0
 3476 001f 00       		.byte	0
 3477 0020 03       		.uleb128 0x3
 3478 0021 16       		.uleb128 0x16
 3479 0022 00       		.byte	0
 3480 0023 03       		.uleb128 0x3
 3481 0024 0E       		.uleb128 0xe
 3482 0025 3A       		.uleb128 0x3a
 3483 0026 0B       		.uleb128 0xb
 3484 0027 3B       		.uleb128 0x3b
 3485 0028 0B       		.uleb128 0xb
 3486 0029 49       		.uleb128 0x49
 3487 002a 13       		.uleb128 0x13
 3488 002b 00       		.byte	0
 3489 002c 00       		.byte	0
 3490 002d 04       		.uleb128 0x4
 3491 002e 24       		.uleb128 0x24
 3492 002f 00       		.byte	0
 3493 0030 0B       		.uleb128 0xb
 3494 0031 0B       		.uleb128 0xb
 3495 0032 3E       		.uleb128 0x3e
 3496 0033 0B       		.uleb128 0xb
 3497 0034 03       		.uleb128 0x3
 3498 0035 0E       		.uleb128 0xe
 3499 0036 00       		.byte	0
 3500 0037 00       		.byte	0
 3501 0038 05       		.uleb128 0x5
 3502 0039 13       		.uleb128 0x13
 3503 003a 01       		.byte	0x1
 3504 003b 03       		.uleb128 0x3
 3505 003c 0E       		.uleb128 0xe
 3506 003d 0B       		.uleb128 0xb
 3507 003e 0B       		.uleb128 0xb
 3508 003f 3A       		.uleb128 0x3a
 3509 0040 0B       		.uleb128 0xb
 3510 0041 3B       		.uleb128 0x3b
 3511 0042 0B       		.uleb128 0xb
 3512 0043 01       		.uleb128 0x1
 3513 0044 13       		.uleb128 0x13
 3514 0045 00       		.byte	0
 3515 0046 00       		.byte	0
 3516 0047 06       		.uleb128 0x6
 3517 0048 0D       		.uleb128 0xd
 3518 0049 00       		.byte	0
 3519 004a 03       		.uleb128 0x3
 3520 004b 0E       		.uleb128 0xe
 3521 004c 3A       		.uleb128 0x3a
 3522 004d 0B       		.uleb128 0xb
ARM GAS  /tmp/ccQUlp8a.s 			page 63


 3523 004e 3B       		.uleb128 0x3b
 3524 004f 0B       		.uleb128 0xb
 3525 0050 49       		.uleb128 0x49
 3526 0051 13       		.uleb128 0x13
 3527 0052 38       		.uleb128 0x38
 3528 0053 0A       		.uleb128 0xa
 3529 0054 00       		.byte	0
 3530 0055 00       		.byte	0
 3531 0056 07       		.uleb128 0x7
 3532 0057 0D       		.uleb128 0xd
 3533 0058 00       		.byte	0
 3534 0059 03       		.uleb128 0x3
 3535 005a 08       		.uleb128 0x8
 3536 005b 3A       		.uleb128 0x3a
 3537 005c 0B       		.uleb128 0xb
 3538 005d 3B       		.uleb128 0x3b
 3539 005e 0B       		.uleb128 0xb
 3540 005f 49       		.uleb128 0x49
 3541 0060 13       		.uleb128 0x13
 3542 0061 38       		.uleb128 0x38
 3543 0062 0A       		.uleb128 0xa
 3544 0063 00       		.byte	0
 3545 0064 00       		.byte	0
 3546 0065 08       		.uleb128 0x8
 3547 0066 13       		.uleb128 0x13
 3548 0067 01       		.byte	0x1
 3549 0068 0B       		.uleb128 0xb
 3550 0069 0B       		.uleb128 0xb
 3551 006a 3A       		.uleb128 0x3a
 3552 006b 0B       		.uleb128 0xb
 3553 006c 3B       		.uleb128 0x3b
 3554 006d 0B       		.uleb128 0xb
 3555 006e 01       		.uleb128 0x1
 3556 006f 13       		.uleb128 0x13
 3557 0070 00       		.byte	0
 3558 0071 00       		.byte	0
 3559 0072 09       		.uleb128 0x9
 3560 0073 0F       		.uleb128 0xf
 3561 0074 00       		.byte	0
 3562 0075 0B       		.uleb128 0xb
 3563 0076 0B       		.uleb128 0xb
 3564 0077 49       		.uleb128 0x49
 3565 0078 13       		.uleb128 0x13
 3566 0079 00       		.byte	0
 3567 007a 00       		.byte	0
 3568 007b 0A       		.uleb128 0xa
 3569 007c 0F       		.uleb128 0xf
 3570 007d 00       		.byte	0
 3571 007e 0B       		.uleb128 0xb
 3572 007f 0B       		.uleb128 0xb
 3573 0080 00       		.byte	0
 3574 0081 00       		.byte	0
 3575 0082 0B       		.uleb128 0xb
 3576 0083 13       		.uleb128 0x13
 3577 0084 01       		.byte	0x1
 3578 0085 03       		.uleb128 0x3
 3579 0086 0E       		.uleb128 0xe
ARM GAS  /tmp/ccQUlp8a.s 			page 64


 3580 0087 0B       		.uleb128 0xb
 3581 0088 0B       		.uleb128 0xb
 3582 0089 3A       		.uleb128 0x3a
 3583 008a 0B       		.uleb128 0xb
 3584 008b 3B       		.uleb128 0x3b
 3585 008c 05       		.uleb128 0x5
 3586 008d 01       		.uleb128 0x1
 3587 008e 13       		.uleb128 0x13
 3588 008f 00       		.byte	0
 3589 0090 00       		.byte	0
 3590 0091 0C       		.uleb128 0xc
 3591 0092 0D       		.uleb128 0xd
 3592 0093 00       		.byte	0
 3593 0094 03       		.uleb128 0x3
 3594 0095 08       		.uleb128 0x8
 3595 0096 3A       		.uleb128 0x3a
 3596 0097 0B       		.uleb128 0xb
 3597 0098 3B       		.uleb128 0x3b
 3598 0099 05       		.uleb128 0x5
 3599 009a 49       		.uleb128 0x49
 3600 009b 13       		.uleb128 0x13
 3601 009c 38       		.uleb128 0x38
 3602 009d 0A       		.uleb128 0xa
 3603 009e 00       		.byte	0
 3604 009f 00       		.byte	0
 3605 00a0 0D       		.uleb128 0xd
 3606 00a1 15       		.uleb128 0x15
 3607 00a2 01       		.byte	0x1
 3608 00a3 27       		.uleb128 0x27
 3609 00a4 0C       		.uleb128 0xc
 3610 00a5 01       		.uleb128 0x1
 3611 00a6 13       		.uleb128 0x13
 3612 00a7 00       		.byte	0
 3613 00a8 00       		.byte	0
 3614 00a9 0E       		.uleb128 0xe
 3615 00aa 05       		.uleb128 0x5
 3616 00ab 00       		.byte	0
 3617 00ac 49       		.uleb128 0x49
 3618 00ad 13       		.uleb128 0x13
 3619 00ae 00       		.byte	0
 3620 00af 00       		.byte	0
 3621 00b0 0F       		.uleb128 0xf
 3622 00b1 35       		.uleb128 0x35
 3623 00b2 00       		.byte	0
 3624 00b3 49       		.uleb128 0x49
 3625 00b4 13       		.uleb128 0x13
 3626 00b5 00       		.byte	0
 3627 00b6 00       		.byte	0
 3628 00b7 10       		.uleb128 0x10
 3629 00b8 17       		.uleb128 0x17
 3630 00b9 01       		.byte	0x1
 3631 00ba 0B       		.uleb128 0xb
 3632 00bb 0B       		.uleb128 0xb
 3633 00bc 3A       		.uleb128 0x3a
 3634 00bd 0B       		.uleb128 0xb
 3635 00be 3B       		.uleb128 0x3b
 3636 00bf 0B       		.uleb128 0xb
ARM GAS  /tmp/ccQUlp8a.s 			page 65


 3637 00c0 01       		.uleb128 0x1
 3638 00c1 13       		.uleb128 0x13
 3639 00c2 00       		.byte	0
 3640 00c3 00       		.byte	0
 3641 00c4 11       		.uleb128 0x11
 3642 00c5 0D       		.uleb128 0xd
 3643 00c6 00       		.byte	0
 3644 00c7 03       		.uleb128 0x3
 3645 00c8 0E       		.uleb128 0xe
 3646 00c9 3A       		.uleb128 0x3a
 3647 00ca 0B       		.uleb128 0xb
 3648 00cb 3B       		.uleb128 0x3b
 3649 00cc 0B       		.uleb128 0xb
 3650 00cd 49       		.uleb128 0x49
 3651 00ce 13       		.uleb128 0x13
 3652 00cf 00       		.byte	0
 3653 00d0 00       		.byte	0
 3654 00d1 12       		.uleb128 0x12
 3655 00d2 26       		.uleb128 0x26
 3656 00d3 00       		.byte	0
 3657 00d4 49       		.uleb128 0x49
 3658 00d5 13       		.uleb128 0x13
 3659 00d6 00       		.byte	0
 3660 00d7 00       		.byte	0
 3661 00d8 13       		.uleb128 0x13
 3662 00d9 04       		.uleb128 0x4
 3663 00da 01       		.byte	0x1
 3664 00db 0B       		.uleb128 0xb
 3665 00dc 0B       		.uleb128 0xb
 3666 00dd 3A       		.uleb128 0x3a
 3667 00de 0B       		.uleb128 0xb
 3668 00df 3B       		.uleb128 0x3b
 3669 00e0 0B       		.uleb128 0xb
 3670 00e1 01       		.uleb128 0x1
 3671 00e2 13       		.uleb128 0x13
 3672 00e3 00       		.byte	0
 3673 00e4 00       		.byte	0
 3674 00e5 14       		.uleb128 0x14
 3675 00e6 28       		.uleb128 0x28
 3676 00e7 00       		.byte	0
 3677 00e8 03       		.uleb128 0x3
 3678 00e9 0E       		.uleb128 0xe
 3679 00ea 1C       		.uleb128 0x1c
 3680 00eb 0D       		.uleb128 0xd
 3681 00ec 00       		.byte	0
 3682 00ed 00       		.byte	0
 3683 00ee 15       		.uleb128 0x15
 3684 00ef 15       		.uleb128 0x15
 3685 00f0 01       		.byte	0x1
 3686 00f1 27       		.uleb128 0x27
 3687 00f2 0C       		.uleb128 0xc
 3688 00f3 49       		.uleb128 0x49
 3689 00f4 13       		.uleb128 0x13
 3690 00f5 01       		.uleb128 0x1
 3691 00f6 13       		.uleb128 0x13
 3692 00f7 00       		.byte	0
 3693 00f8 00       		.byte	0
ARM GAS  /tmp/ccQUlp8a.s 			page 66


 3694 00f9 16       		.uleb128 0x16
 3695 00fa 01       		.uleb128 0x1
 3696 00fb 01       		.byte	0x1
 3697 00fc 49       		.uleb128 0x49
 3698 00fd 13       		.uleb128 0x13
 3699 00fe 01       		.uleb128 0x1
 3700 00ff 13       		.uleb128 0x13
 3701 0100 00       		.byte	0
 3702 0101 00       		.byte	0
 3703 0102 17       		.uleb128 0x17
 3704 0103 21       		.uleb128 0x21
 3705 0104 00       		.byte	0
 3706 0105 49       		.uleb128 0x49
 3707 0106 13       		.uleb128 0x13
 3708 0107 2F       		.uleb128 0x2f
 3709 0108 0B       		.uleb128 0xb
 3710 0109 00       		.byte	0
 3711 010a 00       		.byte	0
 3712 010b 18       		.uleb128 0x18
 3713 010c 04       		.uleb128 0x4
 3714 010d 01       		.byte	0x1
 3715 010e 03       		.uleb128 0x3
 3716 010f 0E       		.uleb128 0xe
 3717 0110 0B       		.uleb128 0xb
 3718 0111 0B       		.uleb128 0xb
 3719 0112 3A       		.uleb128 0x3a
 3720 0113 0B       		.uleb128 0xb
 3721 0114 3B       		.uleb128 0x3b
 3722 0115 0B       		.uleb128 0xb
 3723 0116 01       		.uleb128 0x1
 3724 0117 13       		.uleb128 0x13
 3725 0118 00       		.byte	0
 3726 0119 00       		.byte	0
 3727 011a 19       		.uleb128 0x19
 3728 011b 0D       		.uleb128 0xd
 3729 011c 00       		.byte	0
 3730 011d 03       		.uleb128 0x3
 3731 011e 08       		.uleb128 0x8
 3732 011f 3A       		.uleb128 0x3a
 3733 0120 0B       		.uleb128 0xb
 3734 0121 3B       		.uleb128 0x3b
 3735 0122 0B       		.uleb128 0xb
 3736 0123 49       		.uleb128 0x49
 3737 0124 13       		.uleb128 0x13
 3738 0125 00       		.byte	0
 3739 0126 00       		.byte	0
 3740 0127 1A       		.uleb128 0x1a
 3741 0128 13       		.uleb128 0x13
 3742 0129 00       		.byte	0
 3743 012a 03       		.uleb128 0x3
 3744 012b 0E       		.uleb128 0xe
 3745 012c 3C       		.uleb128 0x3c
 3746 012d 0C       		.uleb128 0xc
 3747 012e 00       		.byte	0
 3748 012f 00       		.byte	0
 3749 0130 1B       		.uleb128 0x1b
 3750 0131 26       		.uleb128 0x26
ARM GAS  /tmp/ccQUlp8a.s 			page 67


 3751 0132 00       		.byte	0
 3752 0133 00       		.byte	0
 3753 0134 00       		.byte	0
 3754 0135 1C       		.uleb128 0x1c
 3755 0136 2E       		.uleb128 0x2e
 3756 0137 01       		.byte	0x1
 3757 0138 03       		.uleb128 0x3
 3758 0139 0E       		.uleb128 0xe
 3759 013a 3A       		.uleb128 0x3a
 3760 013b 0B       		.uleb128 0xb
 3761 013c 3B       		.uleb128 0x3b
 3762 013d 05       		.uleb128 0x5
 3763 013e 27       		.uleb128 0x27
 3764 013f 0C       		.uleb128 0xc
 3765 0140 11       		.uleb128 0x11
 3766 0141 01       		.uleb128 0x1
 3767 0142 12       		.uleb128 0x12
 3768 0143 01       		.uleb128 0x1
 3769 0144 40       		.uleb128 0x40
 3770 0145 0A       		.uleb128 0xa
 3771 0146 9742     		.uleb128 0x2117
 3772 0148 0C       		.uleb128 0xc
 3773 0149 01       		.uleb128 0x1
 3774 014a 13       		.uleb128 0x13
 3775 014b 00       		.byte	0
 3776 014c 00       		.byte	0
 3777 014d 1D       		.uleb128 0x1d
 3778 014e 05       		.uleb128 0x5
 3779 014f 00       		.byte	0
 3780 0150 03       		.uleb128 0x3
 3781 0151 08       		.uleb128 0x8
 3782 0152 3A       		.uleb128 0x3a
 3783 0153 0B       		.uleb128 0xb
 3784 0154 3B       		.uleb128 0x3b
 3785 0155 05       		.uleb128 0x5
 3786 0156 49       		.uleb128 0x49
 3787 0157 13       		.uleb128 0x13
 3788 0158 02       		.uleb128 0x2
 3789 0159 06       		.uleb128 0x6
 3790 015a 00       		.byte	0
 3791 015b 00       		.byte	0
 3792 015c 1E       		.uleb128 0x1e
 3793 015d 34       		.uleb128 0x34
 3794 015e 00       		.byte	0
 3795 015f 03       		.uleb128 0x3
 3796 0160 08       		.uleb128 0x8
 3797 0161 3A       		.uleb128 0x3a
 3798 0162 0B       		.uleb128 0xb
 3799 0163 3B       		.uleb128 0x3b
 3800 0164 05       		.uleb128 0x5
 3801 0165 49       		.uleb128 0x49
 3802 0166 13       		.uleb128 0x13
 3803 0167 00       		.byte	0
 3804 0168 00       		.byte	0
 3805 0169 1F       		.uleb128 0x1f
 3806 016a 898201   		.uleb128 0x4109
 3807 016d 01       		.byte	0x1
ARM GAS  /tmp/ccQUlp8a.s 			page 68


 3808 016e 11       		.uleb128 0x11
 3809 016f 01       		.uleb128 0x1
 3810 0170 9542     		.uleb128 0x2115
 3811 0172 0C       		.uleb128 0xc
 3812 0173 31       		.uleb128 0x31
 3813 0174 13       		.uleb128 0x13
 3814 0175 00       		.byte	0
 3815 0176 00       		.byte	0
 3816 0177 20       		.uleb128 0x20
 3817 0178 8A8201   		.uleb128 0x410a
 3818 017b 00       		.byte	0
 3819 017c 02       		.uleb128 0x2
 3820 017d 0A       		.uleb128 0xa
 3821 017e 9142     		.uleb128 0x2111
 3822 0180 0A       		.uleb128 0xa
 3823 0181 00       		.byte	0
 3824 0182 00       		.byte	0
 3825 0183 21       		.uleb128 0x21
 3826 0184 2E       		.uleb128 0x2e
 3827 0185 01       		.byte	0x1
 3828 0186 03       		.uleb128 0x3
 3829 0187 0E       		.uleb128 0xe
 3830 0188 3A       		.uleb128 0x3a
 3831 0189 0B       		.uleb128 0xb
 3832 018a 3B       		.uleb128 0x3b
 3833 018b 0B       		.uleb128 0xb
 3834 018c 27       		.uleb128 0x27
 3835 018d 0C       		.uleb128 0xc
 3836 018e 11       		.uleb128 0x11
 3837 018f 01       		.uleb128 0x1
 3838 0190 12       		.uleb128 0x12
 3839 0191 01       		.uleb128 0x1
 3840 0192 40       		.uleb128 0x40
 3841 0193 06       		.uleb128 0x6
 3842 0194 9642     		.uleb128 0x2116
 3843 0196 0C       		.uleb128 0xc
 3844 0197 01       		.uleb128 0x1
 3845 0198 13       		.uleb128 0x13
 3846 0199 00       		.byte	0
 3847 019a 00       		.byte	0
 3848 019b 22       		.uleb128 0x22
 3849 019c 05       		.uleb128 0x5
 3850 019d 00       		.byte	0
 3851 019e 03       		.uleb128 0x3
 3852 019f 08       		.uleb128 0x8
 3853 01a0 3A       		.uleb128 0x3a
 3854 01a1 0B       		.uleb128 0xb
 3855 01a2 3B       		.uleb128 0x3b
 3856 01a3 0B       		.uleb128 0xb
 3857 01a4 49       		.uleb128 0x49
 3858 01a5 13       		.uleb128 0x13
 3859 01a6 02       		.uleb128 0x2
 3860 01a7 06       		.uleb128 0x6
 3861 01a8 00       		.byte	0
 3862 01a9 00       		.byte	0
 3863 01aa 23       		.uleb128 0x23
 3864 01ab 34       		.uleb128 0x34
ARM GAS  /tmp/ccQUlp8a.s 			page 69


 3865 01ac 00       		.byte	0
 3866 01ad 03       		.uleb128 0x3
 3867 01ae 08       		.uleb128 0x8
 3868 01af 3A       		.uleb128 0x3a
 3869 01b0 0B       		.uleb128 0xb
 3870 01b1 3B       		.uleb128 0x3b
 3871 01b2 0B       		.uleb128 0xb
 3872 01b3 49       		.uleb128 0x49
 3873 01b4 13       		.uleb128 0x13
 3874 01b5 02       		.uleb128 0x2
 3875 01b6 0A       		.uleb128 0xa
 3876 01b7 00       		.byte	0
 3877 01b8 00       		.byte	0
 3878 01b9 24       		.uleb128 0x24
 3879 01ba 898201   		.uleb128 0x4109
 3880 01bd 01       		.byte	0x1
 3881 01be 11       		.uleb128 0x11
 3882 01bf 01       		.uleb128 0x1
 3883 01c0 31       		.uleb128 0x31
 3884 01c1 13       		.uleb128 0x13
 3885 01c2 01       		.uleb128 0x1
 3886 01c3 13       		.uleb128 0x13
 3887 01c4 00       		.byte	0
 3888 01c5 00       		.byte	0
 3889 01c6 25       		.uleb128 0x25
 3890 01c7 898201   		.uleb128 0x4109
 3891 01ca 00       		.byte	0
 3892 01cb 11       		.uleb128 0x11
 3893 01cc 01       		.uleb128 0x1
 3894 01cd 31       		.uleb128 0x31
 3895 01ce 13       		.uleb128 0x13
 3896 01cf 00       		.byte	0
 3897 01d0 00       		.byte	0
 3898 01d1 26       		.uleb128 0x26
 3899 01d2 2E       		.uleb128 0x2e
 3900 01d3 01       		.byte	0x1
 3901 01d4 3F       		.uleb128 0x3f
 3902 01d5 0C       		.uleb128 0xc
 3903 01d6 03       		.uleb128 0x3
 3904 01d7 0E       		.uleb128 0xe
 3905 01d8 3A       		.uleb128 0x3a
 3906 01d9 0B       		.uleb128 0xb
 3907 01da 3B       		.uleb128 0x3b
 3908 01db 0B       		.uleb128 0xb
 3909 01dc 27       		.uleb128 0x27
 3910 01dd 0C       		.uleb128 0xc
 3911 01de 49       		.uleb128 0x49
 3912 01df 13       		.uleb128 0x13
 3913 01e0 11       		.uleb128 0x11
 3914 01e1 01       		.uleb128 0x1
 3915 01e2 12       		.uleb128 0x12
 3916 01e3 01       		.uleb128 0x1
 3917 01e4 40       		.uleb128 0x40
 3918 01e5 06       		.uleb128 0x6
 3919 01e6 9742     		.uleb128 0x2117
 3920 01e8 0C       		.uleb128 0xc
 3921 01e9 01       		.uleb128 0x1
ARM GAS  /tmp/ccQUlp8a.s 			page 70


 3922 01ea 13       		.uleb128 0x13
 3923 01eb 00       		.byte	0
 3924 01ec 00       		.byte	0
 3925 01ed 27       		.uleb128 0x27
 3926 01ee 34       		.uleb128 0x34
 3927 01ef 00       		.byte	0
 3928 01f0 03       		.uleb128 0x3
 3929 01f1 08       		.uleb128 0x8
 3930 01f2 3A       		.uleb128 0x3a
 3931 01f3 0B       		.uleb128 0xb
 3932 01f4 3B       		.uleb128 0x3b
 3933 01f5 0B       		.uleb128 0xb
 3934 01f6 49       		.uleb128 0x49
 3935 01f7 13       		.uleb128 0x13
 3936 01f8 02       		.uleb128 0x2
 3937 01f9 06       		.uleb128 0x6
 3938 01fa 00       		.byte	0
 3939 01fb 00       		.byte	0
 3940 01fc 28       		.uleb128 0x28
 3941 01fd 898201   		.uleb128 0x4109
 3942 0200 01       		.byte	0x1
 3943 0201 11       		.uleb128 0x11
 3944 0202 01       		.uleb128 0x1
 3945 0203 31       		.uleb128 0x31
 3946 0204 13       		.uleb128 0x13
 3947 0205 00       		.byte	0
 3948 0206 00       		.byte	0
 3949 0207 29       		.uleb128 0x29
 3950 0208 05       		.uleb128 0x5
 3951 0209 00       		.byte	0
 3952 020a 03       		.uleb128 0x3
 3953 020b 0E       		.uleb128 0xe
 3954 020c 3A       		.uleb128 0x3a
 3955 020d 0B       		.uleb128 0xb
 3956 020e 3B       		.uleb128 0x3b
 3957 020f 0B       		.uleb128 0xb
 3958 0210 49       		.uleb128 0x49
 3959 0211 13       		.uleb128 0x13
 3960 0212 02       		.uleb128 0x2
 3961 0213 06       		.uleb128 0x6
 3962 0214 00       		.byte	0
 3963 0215 00       		.byte	0
 3964 0216 2A       		.uleb128 0x2a
 3965 0217 2E       		.uleb128 0x2e
 3966 0218 01       		.byte	0x1
 3967 0219 3F       		.uleb128 0x3f
 3968 021a 0C       		.uleb128 0xc
 3969 021b 03       		.uleb128 0x3
 3970 021c 0E       		.uleb128 0xe
 3971 021d 3A       		.uleb128 0x3a
 3972 021e 0B       		.uleb128 0xb
 3973 021f 3B       		.uleb128 0x3b
 3974 0220 05       		.uleb128 0x5
 3975 0221 27       		.uleb128 0x27
 3976 0222 0C       		.uleb128 0xc
 3977 0223 49       		.uleb128 0x49
 3978 0224 13       		.uleb128 0x13
ARM GAS  /tmp/ccQUlp8a.s 			page 71


 3979 0225 11       		.uleb128 0x11
 3980 0226 01       		.uleb128 0x1
 3981 0227 12       		.uleb128 0x12
 3982 0228 01       		.uleb128 0x1
 3983 0229 40       		.uleb128 0x40
 3984 022a 06       		.uleb128 0x6
 3985 022b 9742     		.uleb128 0x2117
 3986 022d 0C       		.uleb128 0xc
 3987 022e 01       		.uleb128 0x1
 3988 022f 13       		.uleb128 0x13
 3989 0230 00       		.byte	0
 3990 0231 00       		.byte	0
 3991 0232 2B       		.uleb128 0x2b
 3992 0233 34       		.uleb128 0x34
 3993 0234 00       		.byte	0
 3994 0235 03       		.uleb128 0x3
 3995 0236 08       		.uleb128 0x8
 3996 0237 3A       		.uleb128 0x3a
 3997 0238 0B       		.uleb128 0xb
 3998 0239 3B       		.uleb128 0x3b
 3999 023a 05       		.uleb128 0x5
 4000 023b 49       		.uleb128 0x49
 4001 023c 13       		.uleb128 0x13
 4002 023d 02       		.uleb128 0x2
 4003 023e 06       		.uleb128 0x6
 4004 023f 00       		.byte	0
 4005 0240 00       		.byte	0
 4006 0241 2C       		.uleb128 0x2c
 4007 0242 05       		.uleb128 0x5
 4008 0243 00       		.byte	0
 4009 0244 03       		.uleb128 0x3
 4010 0245 0E       		.uleb128 0xe
 4011 0246 3A       		.uleb128 0x3a
 4012 0247 0B       		.uleb128 0xb
 4013 0248 3B       		.uleb128 0x3b
 4014 0249 05       		.uleb128 0x5
 4015 024a 49       		.uleb128 0x49
 4016 024b 13       		.uleb128 0x13
 4017 024c 02       		.uleb128 0x2
 4018 024d 06       		.uleb128 0x6
 4019 024e 00       		.byte	0
 4020 024f 00       		.byte	0
 4021 0250 2D       		.uleb128 0x2d
 4022 0251 34       		.uleb128 0x34
 4023 0252 00       		.byte	0
 4024 0253 03       		.uleb128 0x3
 4025 0254 08       		.uleb128 0x8
 4026 0255 3A       		.uleb128 0x3a
 4027 0256 0B       		.uleb128 0xb
 4028 0257 3B       		.uleb128 0x3b
 4029 0258 05       		.uleb128 0x5
 4030 0259 49       		.uleb128 0x49
 4031 025a 13       		.uleb128 0x13
 4032 025b 02       		.uleb128 0x2
 4033 025c 0A       		.uleb128 0xa
 4034 025d 00       		.byte	0
 4035 025e 00       		.byte	0
ARM GAS  /tmp/ccQUlp8a.s 			page 72


 4036 025f 2E       		.uleb128 0x2e
 4037 0260 2E       		.uleb128 0x2e
 4038 0261 01       		.byte	0x1
 4039 0262 3F       		.uleb128 0x3f
 4040 0263 0C       		.uleb128 0xc
 4041 0264 03       		.uleb128 0x3
 4042 0265 0E       		.uleb128 0xe
 4043 0266 3A       		.uleb128 0x3a
 4044 0267 0B       		.uleb128 0xb
 4045 0268 3B       		.uleb128 0x3b
 4046 0269 05       		.uleb128 0x5
 4047 026a 27       		.uleb128 0x27
 4048 026b 0C       		.uleb128 0xc
 4049 026c 11       		.uleb128 0x11
 4050 026d 01       		.uleb128 0x1
 4051 026e 12       		.uleb128 0x12
 4052 026f 01       		.uleb128 0x1
 4053 0270 40       		.uleb128 0x40
 4054 0271 06       		.uleb128 0x6
 4055 0272 9742     		.uleb128 0x2117
 4056 0274 0C       		.uleb128 0xc
 4057 0275 01       		.uleb128 0x1
 4058 0276 13       		.uleb128 0x13
 4059 0277 00       		.byte	0
 4060 0278 00       		.byte	0
 4061 0279 2F       		.uleb128 0x2f
 4062 027a 2E       		.uleb128 0x2e
 4063 027b 01       		.byte	0x1
 4064 027c 3F       		.uleb128 0x3f
 4065 027d 0C       		.uleb128 0xc
 4066 027e 03       		.uleb128 0x3
 4067 027f 0E       		.uleb128 0xe
 4068 0280 3A       		.uleb128 0x3a
 4069 0281 0B       		.uleb128 0xb
 4070 0282 3B       		.uleb128 0x3b
 4071 0283 05       		.uleb128 0x5
 4072 0284 27       		.uleb128 0x27
 4073 0285 0C       		.uleb128 0xc
 4074 0286 49       		.uleb128 0x49
 4075 0287 13       		.uleb128 0x13
 4076 0288 11       		.uleb128 0x11
 4077 0289 01       		.uleb128 0x1
 4078 028a 12       		.uleb128 0x12
 4079 028b 01       		.uleb128 0x1
 4080 028c 40       		.uleb128 0x40
 4081 028d 0A       		.uleb128 0xa
 4082 028e 9742     		.uleb128 0x2117
 4083 0290 0C       		.uleb128 0xc
 4084 0291 01       		.uleb128 0x1
 4085 0292 13       		.uleb128 0x13
 4086 0293 00       		.byte	0
 4087 0294 00       		.byte	0
 4088 0295 30       		.uleb128 0x30
 4089 0296 34       		.uleb128 0x34
 4090 0297 00       		.byte	0
 4091 0298 03       		.uleb128 0x3
 4092 0299 0E       		.uleb128 0xe
ARM GAS  /tmp/ccQUlp8a.s 			page 73


 4093 029a 3A       		.uleb128 0x3a
 4094 029b 0B       		.uleb128 0xb
 4095 029c 3B       		.uleb128 0x3b
 4096 029d 0B       		.uleb128 0xb
 4097 029e 49       		.uleb128 0x49
 4098 029f 13       		.uleb128 0x13
 4099 02a0 02       		.uleb128 0x2
 4100 02a1 0A       		.uleb128 0xa
 4101 02a2 00       		.byte	0
 4102 02a3 00       		.byte	0
 4103 02a4 31       		.uleb128 0x31
 4104 02a5 2E       		.uleb128 0x2e
 4105 02a6 01       		.byte	0x1
 4106 02a7 3F       		.uleb128 0x3f
 4107 02a8 0C       		.uleb128 0xc
 4108 02a9 03       		.uleb128 0x3
 4109 02aa 0E       		.uleb128 0xe
 4110 02ab 3A       		.uleb128 0x3a
 4111 02ac 0B       		.uleb128 0xb
 4112 02ad 3B       		.uleb128 0x3b
 4113 02ae 0B       		.uleb128 0xb
 4114 02af 27       		.uleb128 0x27
 4115 02b0 0C       		.uleb128 0xc
 4116 02b1 49       		.uleb128 0x49
 4117 02b2 13       		.uleb128 0x13
 4118 02b3 3C       		.uleb128 0x3c
 4119 02b4 0C       		.uleb128 0xc
 4120 02b5 01       		.uleb128 0x1
 4121 02b6 13       		.uleb128 0x13
 4122 02b7 00       		.byte	0
 4123 02b8 00       		.byte	0
 4124 02b9 32       		.uleb128 0x32
 4125 02ba 2E       		.uleb128 0x2e
 4126 02bb 01       		.byte	0x1
 4127 02bc 3F       		.uleb128 0x3f
 4128 02bd 0C       		.uleb128 0xc
 4129 02be 03       		.uleb128 0x3
 4130 02bf 0E       		.uleb128 0xe
 4131 02c0 3A       		.uleb128 0x3a
 4132 02c1 0B       		.uleb128 0xb
 4133 02c2 3B       		.uleb128 0x3b
 4134 02c3 0B       		.uleb128 0xb
 4135 02c4 27       		.uleb128 0x27
 4136 02c5 0C       		.uleb128 0xc
 4137 02c6 3C       		.uleb128 0x3c
 4138 02c7 0C       		.uleb128 0xc
 4139 02c8 01       		.uleb128 0x1
 4140 02c9 13       		.uleb128 0x13
 4141 02ca 00       		.byte	0
 4142 02cb 00       		.byte	0
 4143 02cc 33       		.uleb128 0x33
 4144 02cd 2E       		.uleb128 0x2e
 4145 02ce 00       		.byte	0
 4146 02cf 3F       		.uleb128 0x3f
 4147 02d0 0C       		.uleb128 0xc
 4148 02d1 03       		.uleb128 0x3
 4149 02d2 0E       		.uleb128 0xe
ARM GAS  /tmp/ccQUlp8a.s 			page 74


 4150 02d3 3A       		.uleb128 0x3a
 4151 02d4 0B       		.uleb128 0xb
 4152 02d5 3B       		.uleb128 0x3b
 4153 02d6 05       		.uleb128 0x5
 4154 02d7 27       		.uleb128 0x27
 4155 02d8 0C       		.uleb128 0xc
 4156 02d9 3C       		.uleb128 0x3c
 4157 02da 0C       		.uleb128 0xc
 4158 02db 00       		.byte	0
 4159 02dc 00       		.byte	0
 4160 02dd 34       		.uleb128 0x34
 4161 02de 2E       		.uleb128 0x2e
 4162 02df 00       		.byte	0
 4163 02e0 3F       		.uleb128 0x3f
 4164 02e1 0C       		.uleb128 0xc
 4165 02e2 03       		.uleb128 0x3
 4166 02e3 0E       		.uleb128 0xe
 4167 02e4 3A       		.uleb128 0x3a
 4168 02e5 0B       		.uleb128 0xb
 4169 02e6 3B       		.uleb128 0x3b
 4170 02e7 0B       		.uleb128 0xb
 4171 02e8 27       		.uleb128 0x27
 4172 02e9 0C       		.uleb128 0xc
 4173 02ea 3C       		.uleb128 0x3c
 4174 02eb 0C       		.uleb128 0xc
 4175 02ec 00       		.byte	0
 4176 02ed 00       		.byte	0
 4177 02ee 35       		.uleb128 0x35
 4178 02ef 2E       		.uleb128 0x2e
 4179 02f0 01       		.byte	0x1
 4180 02f1 3F       		.uleb128 0x3f
 4181 02f2 0C       		.uleb128 0xc
 4182 02f3 03       		.uleb128 0x3
 4183 02f4 0E       		.uleb128 0xe
 4184 02f5 3A       		.uleb128 0x3a
 4185 02f6 0B       		.uleb128 0xb
 4186 02f7 3B       		.uleb128 0x3b
 4187 02f8 0B       		.uleb128 0xb
 4188 02f9 27       		.uleb128 0x27
 4189 02fa 0C       		.uleb128 0xc
 4190 02fb 49       		.uleb128 0x49
 4191 02fc 13       		.uleb128 0x13
 4192 02fd 3C       		.uleb128 0x3c
 4193 02fe 0C       		.uleb128 0xc
 4194 02ff 00       		.byte	0
 4195 0300 00       		.byte	0
 4196 0301 00       		.byte	0
 4197              		.section	.debug_loc,"",%progbits
 4198              	.Ldebug_loc0:
 4199              	.LLST0:
 4200 0000 00000000 		.4byte	.LVL0
 4201 0004 03000000 		.4byte	.LVL1-1
 4202 0008 0100     		.2byte	0x1
 4203 000a 50       		.byte	0x50
 4204 000b 03000000 		.4byte	.LVL1-1
 4205 000f 04000000 		.4byte	.LFE14
 4206 0013 0400     		.2byte	0x4
ARM GAS  /tmp/ccQUlp8a.s 			page 75


 4207 0015 F3       		.byte	0xf3
 4208 0016 01       		.uleb128 0x1
 4209 0017 50       		.byte	0x50
 4210 0018 9F       		.byte	0x9f
 4211 0019 00000000 		.4byte	0
 4212 001d 00000000 		.4byte	0
 4213              	.LLST1:
 4214 0021 00000000 		.4byte	.LFB7
 4215 0025 02000000 		.4byte	.LCFI0
 4216 0029 0200     		.2byte	0x2
 4217 002b 7D       		.byte	0x7d
 4218 002c 00       		.sleb128 0
 4219 002d 02000000 		.4byte	.LCFI0
 4220 0031 08000000 		.4byte	.LCFI1
 4221 0035 0200     		.2byte	0x2
 4222 0037 7D       		.byte	0x7d
 4223 0038 08       		.sleb128 8
 4224 0039 08000000 		.4byte	.LCFI1
 4225 003d A4000000 		.4byte	.LFE7
 4226 0041 0200     		.2byte	0x2
 4227 0043 7D       		.byte	0x7d
 4228 0044 10       		.sleb128 16
 4229 0045 00000000 		.4byte	0
 4230 0049 00000000 		.4byte	0
 4231              	.LLST2:
 4232 004d 00000000 		.4byte	.LVL2
 4233 0051 0E000000 		.4byte	.LVL3
 4234 0055 0100     		.2byte	0x1
 4235 0057 50       		.byte	0x50
 4236 0058 0E000000 		.4byte	.LVL3
 4237 005c A4000000 		.4byte	.LFE7
 4238 0060 0400     		.2byte	0x4
 4239 0062 F3       		.byte	0xf3
 4240 0063 01       		.uleb128 0x1
 4241 0064 50       		.byte	0x50
 4242 0065 9F       		.byte	0x9f
 4243 0066 00000000 		.4byte	0
 4244 006a 00000000 		.4byte	0
 4245              	.LLST3:
 4246 006e 00000000 		.4byte	.LFB8
 4247 0072 02000000 		.4byte	.LCFI2
 4248 0076 0200     		.2byte	0x2
 4249 0078 7D       		.byte	0x7d
 4250 0079 00       		.sleb128 0
 4251 007a 02000000 		.4byte	.LCFI2
 4252 007e 48000000 		.4byte	.LFE8
 4253 0082 0200     		.2byte	0x2
 4254 0084 7D       		.byte	0x7d
 4255 0085 10       		.sleb128 16
 4256 0086 00000000 		.4byte	0
 4257 008a 00000000 		.4byte	0
 4258              	.LLST4:
 4259 008e 00000000 		.4byte	.LVL18
 4260 0092 06000000 		.4byte	.LVL19
 4261 0096 0100     		.2byte	0x1
 4262 0098 50       		.byte	0x50
 4263 0099 06000000 		.4byte	.LVL19
ARM GAS  /tmp/ccQUlp8a.s 			page 76


 4264 009d 48000000 		.4byte	.LFE8
 4265 00a1 0100     		.2byte	0x1
 4266 00a3 56       		.byte	0x56
 4267 00a4 00000000 		.4byte	0
 4268 00a8 00000000 		.4byte	0
 4269              	.LLST5:
 4270 00ac 00000000 		.4byte	.LVL18
 4271 00b0 0B000000 		.4byte	.LVL20-1
 4272 00b4 0100     		.2byte	0x1
 4273 00b6 51       		.byte	0x51
 4274 00b7 0B000000 		.4byte	.LVL20-1
 4275 00bb 48000000 		.4byte	.LFE8
 4276 00bf 0100     		.2byte	0x1
 4277 00c1 55       		.byte	0x55
 4278 00c2 00000000 		.4byte	0
 4279 00c6 00000000 		.4byte	0
 4280              	.LLST6:
 4281 00ca 14000000 		.4byte	.LVL21
 4282 00ce 24000000 		.4byte	.LVL22
 4283 00d2 0100     		.2byte	0x1
 4284 00d4 50       		.byte	0x50
 4285 00d5 24000000 		.4byte	.LVL22
 4286 00d9 27000000 		.4byte	.LVL23-1
 4287 00dd 0100     		.2byte	0x1
 4288 00df 51       		.byte	0x51
 4289 00e0 27000000 		.4byte	.LVL23-1
 4290 00e4 2A000000 		.4byte	.LVL24
 4291 00e8 0100     		.2byte	0x1
 4292 00ea 54       		.byte	0x54
 4293 00eb 32000000 		.4byte	.LVL25
 4294 00ef 34000000 		.4byte	.LVL26
 4295 00f3 0100     		.2byte	0x1
 4296 00f5 50       		.byte	0x50
 4297 00f6 34000000 		.4byte	.LVL26
 4298 00fa 48000000 		.4byte	.LFE8
 4299 00fe 0100     		.2byte	0x1
 4300 0100 54       		.byte	0x54
 4301 0101 00000000 		.4byte	0
 4302 0105 00000000 		.4byte	0
 4303              	.LLST7:
 4304 0109 00000000 		.4byte	.LFB9
 4305 010d 02000000 		.4byte	.LCFI3
 4306 0111 0200     		.2byte	0x2
 4307 0113 7D       		.byte	0x7d
 4308 0114 00       		.sleb128 0
 4309 0115 02000000 		.4byte	.LCFI3
 4310 0119 54000000 		.4byte	.LFE9
 4311 011d 0200     		.2byte	0x2
 4312 011f 7D       		.byte	0x7d
 4313 0120 18       		.sleb128 24
 4314 0121 00000000 		.4byte	0
 4315 0125 00000000 		.4byte	0
 4316              	.LLST8:
 4317 0129 00000000 		.4byte	.LVL28
 4318 012d 06000000 		.4byte	.LVL29
 4319 0131 0100     		.2byte	0x1
 4320 0133 50       		.byte	0x50
ARM GAS  /tmp/ccQUlp8a.s 			page 77


 4321 0134 06000000 		.4byte	.LVL29
 4322 0138 54000000 		.4byte	.LFE9
 4323 013c 0100     		.2byte	0x1
 4324 013e 57       		.byte	0x57
 4325 013f 00000000 		.4byte	0
 4326 0143 00000000 		.4byte	0
 4327              	.LLST9:
 4328 0147 00000000 		.4byte	.LVL28
 4329 014b 0D000000 		.4byte	.LVL30-1
 4330 014f 0100     		.2byte	0x1
 4331 0151 51       		.byte	0x51
 4332 0152 0D000000 		.4byte	.LVL30-1
 4333 0156 54000000 		.4byte	.LFE9
 4334 015a 0100     		.2byte	0x1
 4335 015c 56       		.byte	0x56
 4336 015d 00000000 		.4byte	0
 4337 0161 00000000 		.4byte	0
 4338              	.LLST10:
 4339 0165 00000000 		.4byte	.LVL28
 4340 0169 0D000000 		.4byte	.LVL30-1
 4341 016d 0100     		.2byte	0x1
 4342 016f 52       		.byte	0x52
 4343 0170 0D000000 		.4byte	.LVL30-1
 4344 0174 54000000 		.4byte	.LFE9
 4345 0178 0400     		.2byte	0x4
 4346 017a F3       		.byte	0xf3
 4347 017b 01       		.uleb128 0x1
 4348 017c 52       		.byte	0x52
 4349 017d 9F       		.byte	0x9f
 4350 017e 00000000 		.4byte	0
 4351 0182 00000000 		.4byte	0
 4352              	.LLST11:
 4353 0186 16000000 		.4byte	.LVL31
 4354 018a 26000000 		.4byte	.LVL32
 4355 018e 0100     		.2byte	0x1
 4356 0190 50       		.byte	0x50
 4357 0191 26000000 		.4byte	.LVL32
 4358 0195 2B000000 		.4byte	.LVL33-1
 4359 0199 0100     		.2byte	0x1
 4360 019b 51       		.byte	0x51
 4361 019c 2B000000 		.4byte	.LVL33-1
 4362 01a0 2E000000 		.4byte	.LVL34
 4363 01a4 0100     		.2byte	0x1
 4364 01a6 54       		.byte	0x54
 4365 01a7 32000000 		.4byte	.LVL35
 4366 01ab 35000000 		.4byte	.LVL36-1
 4367 01af 0100     		.2byte	0x1
 4368 01b1 51       		.byte	0x51
 4369 01b2 35000000 		.4byte	.LVL36-1
 4370 01b6 3C000000 		.4byte	.LVL37
 4371 01ba 0100     		.2byte	0x1
 4372 01bc 54       		.byte	0x54
 4373 01bd 40000000 		.4byte	.LVL38
 4374 01c1 4C000000 		.4byte	.LVL40
 4375 01c5 0100     		.2byte	0x1
 4376 01c7 54       		.byte	0x54
 4377 01c8 4C000000 		.4byte	.LVL40
ARM GAS  /tmp/ccQUlp8a.s 			page 78


 4378 01cc 4E000000 		.4byte	.LVL41
 4379 01d0 0100     		.2byte	0x1
 4380 01d2 50       		.byte	0x50
 4381 01d3 4E000000 		.4byte	.LVL41
 4382 01d7 54000000 		.4byte	.LFE9
 4383 01db 0100     		.2byte	0x1
 4384 01dd 54       		.byte	0x54
 4385 01de 00000000 		.4byte	0
 4386 01e2 00000000 		.4byte	0
 4387              	.LLST12:
 4388 01e6 00000000 		.4byte	.LFB10
 4389 01ea 02000000 		.4byte	.LCFI4
 4390 01ee 0200     		.2byte	0x2
 4391 01f0 7D       		.byte	0x7d
 4392 01f1 00       		.sleb128 0
 4393 01f2 02000000 		.4byte	.LCFI4
 4394 01f6 3C000000 		.4byte	.LFE10
 4395 01fa 0200     		.2byte	0x2
 4396 01fc 7D       		.byte	0x7d
 4397 01fd 10       		.sleb128 16
 4398 01fe 00000000 		.4byte	0
 4399 0202 00000000 		.4byte	0
 4400              	.LLST13:
 4401 0206 00000000 		.4byte	.LVL42
 4402 020a 06000000 		.4byte	.LVL43
 4403 020e 0100     		.2byte	0x1
 4404 0210 50       		.byte	0x50
 4405 0211 06000000 		.4byte	.LVL43
 4406 0215 3C000000 		.4byte	.LFE10
 4407 0219 0100     		.2byte	0x1
 4408 021b 56       		.byte	0x56
 4409 021c 00000000 		.4byte	0
 4410 0220 00000000 		.4byte	0
 4411              	.LLST14:
 4412 0224 00000000 		.4byte	.LVL42
 4413 0228 0D000000 		.4byte	.LVL44-1
 4414 022c 0100     		.2byte	0x1
 4415 022e 51       		.byte	0x51
 4416 022f 0D000000 		.4byte	.LVL44-1
 4417 0233 3C000000 		.4byte	.LFE10
 4418 0237 0100     		.2byte	0x1
 4419 0239 55       		.byte	0x55
 4420 023a 00000000 		.4byte	0
 4421 023e 00000000 		.4byte	0
 4422              	.LLST15:
 4423 0242 00000000 		.4byte	.LVL42
 4424 0246 0D000000 		.4byte	.LVL44-1
 4425 024a 0100     		.2byte	0x1
 4426 024c 52       		.byte	0x52
 4427 024d 0D000000 		.4byte	.LVL44-1
 4428 0251 3C000000 		.4byte	.LFE10
 4429 0255 0100     		.2byte	0x1
 4430 0257 54       		.byte	0x54
 4431 0258 00000000 		.4byte	0
 4432 025c 00000000 		.4byte	0
 4433              	.LLST16:
 4434 0260 16000000 		.4byte	.LVL45
ARM GAS  /tmp/ccQUlp8a.s 			page 79


 4435 0264 26000000 		.4byte	.LVL46
 4436 0268 0100     		.2byte	0x1
 4437 026a 50       		.byte	0x50
 4438 026b 26000000 		.4byte	.LVL46
 4439 026f 29000000 		.4byte	.LVL47-1
 4440 0273 0100     		.2byte	0x1
 4441 0275 51       		.byte	0x51
 4442 0276 34000000 		.4byte	.LVL48
 4443 027a 36000000 		.4byte	.LVL49
 4444 027e 0100     		.2byte	0x1
 4445 0280 50       		.byte	0x50
 4446 0281 36000000 		.4byte	.LVL49
 4447 0285 3C000000 		.4byte	.LFE10
 4448 0289 0100     		.2byte	0x1
 4449 028b 51       		.byte	0x51
 4450 028c 00000000 		.4byte	0
 4451 0290 00000000 		.4byte	0
 4452              	.LLST17:
 4453 0294 00000000 		.4byte	.LFB11
 4454 0298 02000000 		.4byte	.LCFI5
 4455 029c 0200     		.2byte	0x2
 4456 029e 7D       		.byte	0x7d
 4457 029f 00       		.sleb128 0
 4458 02a0 02000000 		.4byte	.LCFI5
 4459 02a4 38000000 		.4byte	.LFE11
 4460 02a8 0200     		.2byte	0x2
 4461 02aa 7D       		.byte	0x7d
 4462 02ab 10       		.sleb128 16
 4463 02ac 00000000 		.4byte	0
 4464 02b0 00000000 		.4byte	0
 4465              	.LLST18:
 4466 02b4 00000000 		.4byte	.LVL50
 4467 02b8 06000000 		.4byte	.LVL51
 4468 02bc 0100     		.2byte	0x1
 4469 02be 50       		.byte	0x50
 4470 02bf 06000000 		.4byte	.LVL51
 4471 02c3 38000000 		.4byte	.LFE11
 4472 02c7 0100     		.2byte	0x1
 4473 02c9 55       		.byte	0x55
 4474 02ca 00000000 		.4byte	0
 4475 02ce 00000000 		.4byte	0
 4476              	.LLST19:
 4477 02d2 00000000 		.4byte	.LVL50
 4478 02d6 0B000000 		.4byte	.LVL52-1
 4479 02da 0100     		.2byte	0x1
 4480 02dc 51       		.byte	0x51
 4481 02dd 0B000000 		.4byte	.LVL52-1
 4482 02e1 38000000 		.4byte	.LFE11
 4483 02e5 0100     		.2byte	0x1
 4484 02e7 54       		.byte	0x54
 4485 02e8 00000000 		.4byte	0
 4486 02ec 00000000 		.4byte	0
 4487              	.LLST20:
 4488 02f0 14000000 		.4byte	.LVL53
 4489 02f4 22000000 		.4byte	.LVL54
 4490 02f8 0100     		.2byte	0x1
 4491 02fa 50       		.byte	0x50
ARM GAS  /tmp/ccQUlp8a.s 			page 80


 4492 02fb 22000000 		.4byte	.LVL54
 4493 02ff 25000000 		.4byte	.LVL55-1
 4494 0303 0100     		.2byte	0x1
 4495 0305 51       		.byte	0x51
 4496 0306 30000000 		.4byte	.LVL56
 4497 030a 32000000 		.4byte	.LVL57
 4498 030e 0100     		.2byte	0x1
 4499 0310 50       		.byte	0x50
 4500 0311 32000000 		.4byte	.LVL57
 4501 0315 38000000 		.4byte	.LFE11
 4502 0319 0100     		.2byte	0x1
 4503 031b 51       		.byte	0x51
 4504 031c 00000000 		.4byte	0
 4505 0320 00000000 		.4byte	0
 4506              	.LLST21:
 4507 0324 00000000 		.4byte	.LFB12
 4508 0328 02000000 		.4byte	.LCFI6
 4509 032c 0200     		.2byte	0x2
 4510 032e 7D       		.byte	0x7d
 4511 032f 00       		.sleb128 0
 4512 0330 02000000 		.4byte	.LCFI6
 4513 0334 06000000 		.4byte	.LCFI7
 4514 0338 0200     		.2byte	0x2
 4515 033a 7D       		.byte	0x7d
 4516 033b 0C       		.sleb128 12
 4517 033c 06000000 		.4byte	.LCFI7
 4518 0340 38000000 		.4byte	.LFE12
 4519 0344 0200     		.2byte	0x2
 4520 0346 7D       		.byte	0x7d
 4521 0347 28       		.sleb128 40
 4522 0348 00000000 		.4byte	0
 4523 034c 00000000 		.4byte	0
 4524              	.LLST22:
 4525 0350 00000000 		.4byte	.LVL58
 4526 0354 08000000 		.4byte	.LVL59
 4527 0358 0100     		.2byte	0x1
 4528 035a 50       		.byte	0x50
 4529 035b 08000000 		.4byte	.LVL59
 4530 035f 38000000 		.4byte	.LFE12
 4531 0363 0100     		.2byte	0x1
 4532 0365 54       		.byte	0x54
 4533 0366 00000000 		.4byte	0
 4534 036a 00000000 		.4byte	0
 4535              	.LLST23:
 4536 036e 00000000 		.4byte	.LFB13
 4537 0372 02000000 		.4byte	.LCFI8
 4538 0376 0200     		.2byte	0x2
 4539 0378 7D       		.byte	0x7d
 4540 0379 00       		.sleb128 0
 4541 037a 02000000 		.4byte	.LCFI8
 4542 037e 04000000 		.4byte	.LCFI9
 4543 0382 0200     		.2byte	0x2
 4544 0384 7D       		.byte	0x7d
 4545 0385 0C       		.sleb128 12
 4546 0386 04000000 		.4byte	.LCFI9
 4547 038a 4C000000 		.4byte	.LFE13
 4548 038e 0200     		.2byte	0x2
ARM GAS  /tmp/ccQUlp8a.s 			page 81


 4549 0390 7D       		.byte	0x7d
 4550 0391 18       		.sleb128 24
 4551 0392 00000000 		.4byte	0
 4552 0396 00000000 		.4byte	0
 4553              	.LLST24:
 4554 039a 00000000 		.4byte	.LVL63
 4555 039e 0B000000 		.4byte	.LVL64-1
 4556 03a2 0100     		.2byte	0x1
 4557 03a4 50       		.byte	0x50
 4558 03a5 0B000000 		.4byte	.LVL64-1
 4559 03a9 4C000000 		.4byte	.LFE13
 4560 03ad 0100     		.2byte	0x1
 4561 03af 55       		.byte	0x55
 4562 03b0 00000000 		.4byte	0
 4563 03b4 00000000 		.4byte	0
 4564              	.LLST25:
 4565 03b8 00000000 		.4byte	.LVL63
 4566 03bc 0B000000 		.4byte	.LVL64-1
 4567 03c0 0100     		.2byte	0x1
 4568 03c2 51       		.byte	0x51
 4569 03c3 0B000000 		.4byte	.LVL64-1
 4570 03c7 4C000000 		.4byte	.LFE13
 4571 03cb 0100     		.2byte	0x1
 4572 03cd 54       		.byte	0x54
 4573 03ce 00000000 		.4byte	0
 4574 03d2 00000000 		.4byte	0
 4575              	.LLST26:
 4576 03d6 00000000 		.4byte	.LVL68
 4577 03da 06000000 		.4byte	.LVL69
 4578 03de 0100     		.2byte	0x1
 4579 03e0 50       		.byte	0x50
 4580 03e1 06000000 		.4byte	.LVL69
 4581 03e5 0F000000 		.4byte	.LVL70-1
 4582 03e9 0100     		.2byte	0x1
 4583 03eb 51       		.byte	0x51
 4584 03ec 0F000000 		.4byte	.LVL70-1
 4585 03f0 10000000 		.4byte	.LFE15
 4586 03f4 0400     		.2byte	0x4
 4587 03f6 F3       		.byte	0xf3
 4588 03f7 01       		.uleb128 0x1
 4589 03f8 50       		.byte	0x50
 4590 03f9 9F       		.byte	0x9f
 4591 03fa 00000000 		.4byte	0
 4592 03fe 00000000 		.4byte	0
 4593              	.LLST27:
 4594 0402 00000000 		.4byte	.LVL71
 4595 0406 06000000 		.4byte	.LVL72
 4596 040a 0100     		.2byte	0x1
 4597 040c 50       		.byte	0x50
 4598 040d 06000000 		.4byte	.LVL72
 4599 0411 0F000000 		.4byte	.LVL73-1
 4600 0415 0100     		.2byte	0x1
 4601 0417 51       		.byte	0x51
 4602 0418 0F000000 		.4byte	.LVL73-1
 4603 041c 10000000 		.4byte	.LFE16
 4604 0420 0400     		.2byte	0x4
 4605 0422 F3       		.byte	0xf3
ARM GAS  /tmp/ccQUlp8a.s 			page 82


 4606 0423 01       		.uleb128 0x1
 4607 0424 50       		.byte	0x50
 4608 0425 9F       		.byte	0x9f
 4609 0426 00000000 		.4byte	0
 4610 042a 00000000 		.4byte	0
 4611              		.section	.debug_aranges,"",%progbits
 4612 0000 64000000 		.4byte	0x64
 4613 0004 0200     		.2byte	0x2
 4614 0006 00000000 		.4byte	.Ldebug_info0
 4615 000a 04       		.byte	0x4
 4616 000b 00       		.byte	0
 4617 000c 0000     		.2byte	0
 4618 000e 0000     		.2byte	0
 4619 0010 00000000 		.4byte	.LFB14
 4620 0014 04000000 		.4byte	.LFE14-.LFB14
 4621 0018 00000000 		.4byte	.LFB7
 4622 001c A4000000 		.4byte	.LFE7-.LFB7
 4623 0020 00000000 		.4byte	.LFB8
 4624 0024 48000000 		.4byte	.LFE8-.LFB8
 4625 0028 00000000 		.4byte	.LFB9
 4626 002c 54000000 		.4byte	.LFE9-.LFB9
 4627 0030 00000000 		.4byte	.LFB10
 4628 0034 3C000000 		.4byte	.LFE10-.LFB10
 4629 0038 00000000 		.4byte	.LFB11
 4630 003c 38000000 		.4byte	.LFE11-.LFB11
 4631 0040 00000000 		.4byte	.LFB12
 4632 0044 38000000 		.4byte	.LFE12-.LFB12
 4633 0048 00000000 		.4byte	.LFB13
 4634 004c 4C000000 		.4byte	.LFE13-.LFB13
 4635 0050 00000000 		.4byte	.LFB15
 4636 0054 10000000 		.4byte	.LFE15-.LFB15
 4637 0058 00000000 		.4byte	.LFB16
 4638 005c 10000000 		.4byte	.LFE16-.LFB16
 4639 0060 00000000 		.4byte	0
 4640 0064 00000000 		.4byte	0
 4641              		.section	.debug_ranges,"",%progbits
 4642              	.Ldebug_ranges0:
 4643 0000 00000000 		.4byte	.LFB14
 4644 0004 04000000 		.4byte	.LFE14
 4645 0008 00000000 		.4byte	.LFB7
 4646 000c A4000000 		.4byte	.LFE7
 4647 0010 00000000 		.4byte	.LFB8
 4648 0014 48000000 		.4byte	.LFE8
 4649 0018 00000000 		.4byte	.LFB9
 4650 001c 54000000 		.4byte	.LFE9
 4651 0020 00000000 		.4byte	.LFB10
 4652 0024 3C000000 		.4byte	.LFE10
 4653 0028 00000000 		.4byte	.LFB11
 4654 002c 38000000 		.4byte	.LFE11
 4655 0030 00000000 		.4byte	.LFB12
 4656 0034 38000000 		.4byte	.LFE12
 4657 0038 00000000 		.4byte	.LFB13
 4658 003c 4C000000 		.4byte	.LFE13
 4659 0040 00000000 		.4byte	.LFB15
 4660 0044 10000000 		.4byte	.LFE15
 4661 0048 00000000 		.4byte	.LFB16
 4662 004c 10000000 		.4byte	.LFE16
ARM GAS  /tmp/ccQUlp8a.s 			page 83


 4663 0050 00000000 		.4byte	0
 4664 0054 00000000 		.4byte	0
 4665              		.section	.debug_line,"",%progbits
 4666              	.Ldebug_line0:
 4667 0000 24040000 		.section	.debug_str,"MS",%progbits,1
 4667      0200D502 
 4667      00000201 
 4667      FB0E0D00 
 4667      01010101 
 4668              	.LASF45:
 4669 0000 54687265 		.ascii	"ThreadsList\000"
 4669      6164734C 
 4669      69737400 
 4670              	.LASF37:
 4671 000c 705F7761 		.ascii	"p_waiting\000"
 4671      6974696E 
 4671      6700
 4672              	.LASF151:
 4673 0016 7564705F 		.ascii	"udp_pcb\000"
 4673      70636200 
 4674              	.LASF75:
 4675 001e 7379735F 		.ascii	"sys_mbox_t\000"
 4675      6D626F78 
 4675      5F7400
 4676              	.LASF81:
 4677 0029 4D454D50 		.ascii	"MEMP_TCP_PCB_LISTEN\000"
 4677      5F544350 
 4677      5F504342 
 4677      5F4C4953 
 4677      54454E00 
 4678              	.LASF36:
 4679 003d 705F7469 		.ascii	"p_time\000"
 4679      6D6500
 4680              	.LASF149:
 4681 0044 736F5F6F 		.ascii	"so_options\000"
 4681      7074696F 
 4681      6E7300
 4682              	.LASF46:
 4683 004f 72656761 		.ascii	"regarm_t\000"
 4683      726D5F74 
 4683      00
 4684              	.LASF27:
 4685 0058 705F7072 		.ascii	"p_prio\000"
 4685      696F00
 4686              	.LASF163:
 4687 005f 7379735F 		.ascii	"sys_timeout_handler\000"
 4687      74696D65 
 4687      6F75745F 
 4687      68616E64 
 4687      6C657200 
 4688              	.LASF99:
 4689 0073 666C6167 		.ascii	"flags\000"
 4689      7300
 4690              	.LASF22:
 4691 0079 73797374 		.ascii	"systime_t\000"
 4691      696D655F 
 4691      7400
ARM GAS  /tmp/ccQUlp8a.s 			page 84


 4692              	.LASF55:
 4693 0083 6D5F6F77 		.ascii	"m_owner\000"
 4693      6E657200 
 4694              	.LASF51:
 4695 008b 735F7175 		.ascii	"s_queue\000"
 4695      65756500 
 4696              	.LASF140:
 4697 0093 72656376 		.ascii	"recvmbox\000"
 4697      6D626F78 
 4697      00
 4698              	.LASF152:
 4699 009c 7261775F 		.ascii	"raw_pcb\000"
 4699      70636200 
 4700              	.LASF38:
 4701 00a4 705F6D73 		.ascii	"p_msgqueue\000"
 4701      67717565 
 4701      756500
 4702              	.LASF0:
 4703 00af 756E7369 		.ascii	"unsigned int\000"
 4703      676E6564 
 4703      20696E74 
 4703      00
 4704              	.LASF126:
 4705 00bc 4E455443 		.ascii	"NETCONN_WRITE\000"
 4705      4F4E4E5F 
 4705      57524954 
 4705      4500
 4706              	.LASF95:
 4707 00ca 6E657874 		.ascii	"next\000"
 4707      00
 4708              	.LASF191:
 4709 00cf 7379735F 		.ascii	"sys_untimeout\000"
 4709      756E7469 
 4709      6D656F75 
 4709      7400
 4710              	.LASF121:
 4711 00dd 4E455443 		.ascii	"NETCONN_UDPNOCHKSUM\000"
 4711      4F4E4E5F 
 4711      5544504E 
 4711      4F43484B 
 4711      53554D00 
 4712              	.LASF73:
 4713 00f1 6572725F 		.ascii	"err_t\000"
 4713      7400
 4714              	.LASF157:
 4715 00f7 6C6F6361 		.ascii	"local\000"
 4715      6C00
 4716              	.LASF107:
 4717 00fd 6C696E6B 		.ascii	"linkoutput\000"
 4717      6F757470 
 4717      757400
 4718              	.LASF71:
 4719 0108 7531365F 		.ascii	"u16_t\000"
 4719      7400
 4720              	.LASF183:
 4721 010e 696E6974 		.ascii	"initfunc\000"
 4721      66756E63 
ARM GAS  /tmp/ccQUlp8a.s 			page 85


 4721      00
 4722              	.LASF66:
 4723 0117 77746F62 		.ascii	"wtobjp\000"
 4723      6A7000
 4724              	.LASF67:
 4725 011e 65776D61 		.ascii	"ewmask\000"
 4725      736B00
 4726              	.LASF113:
 4727 0125 6E657469 		.ascii	"netif_output_fn\000"
 4727      665F6F75 
 4727      74707574 
 4727      5F666E00 
 4728              	.LASF63:
 4729 0135 4D61696C 		.ascii	"Mailbox\000"
 4729      626F7800 
 4730              	.LASF124:
 4731 013d 6E657463 		.ascii	"netconn_state\000"
 4731      6F6E6E5F 
 4731      73746174 
 4731      6500
 4732              	.LASF52:
 4733 014b 735F636E 		.ascii	"s_cnt\000"
 4733      7400
 4734              	.LASF179:
 4735 0151 626C6F63 		.ascii	"block\000"
 4735      6B00
 4736              	.LASF133:
 4737 0157 4E455443 		.ascii	"NETCONN_EVT_SENDPLUS\000"
 4737      4F4E4E5F 
 4737      4556545F 
 4737      53454E44 
 4737      504C5553 
 4738              	.LASF112:
 4739 016c 6E657469 		.ascii	"netif_input_fn\000"
 4739      665F696E 
 4739      7075745F 
 4739      666E00
 4740              	.LASF11:
 4741 017b 75696E74 		.ascii	"uint32_t\000"
 4741      33325F74 
 4741      00
 4742              	.LASF2:
 4743 0184 696E7438 		.ascii	"int8_t\000"
 4743      5F7400
 4744              	.LASF21:
 4745 018b 6576656E 		.ascii	"eventmask_t\000"
 4745      746D6173 
 4745      6B5F7400 
 4746              	.LASF205:
 4747 0197 474E5520 		.ascii	"GNU C 4.7.2\000"
 4747      4320342E 
 4747      372E3200 
 4748              	.LASF87:
 4749 01a3 4D454D50 		.ascii	"MEMP_TCPIP_MSG_API\000"
 4749      5F544350 
 4749      49505F4D 
 4749      53475F41 
ARM GAS  /tmp/ccQUlp8a.s 			page 86


 4749      504900
 4750              	.LASF135:
 4751 01b6 4E455443 		.ascii	"NETCONN_EVT_ERROR\000"
 4751      4F4E4E5F 
 4751      4556545F 
 4751      4552524F 
 4751      5200
 4752              	.LASF168:
 4753 01c8 54435049 		.ascii	"TCPIP_MSG_INPKT\000"
 4753      505F4D53 
 4753      475F494E 
 4753      504B5400 
 4754              	.LASF19:
 4755 01d8 74707269 		.ascii	"tprio_t\000"
 4755      6F5F7400 
 4756              	.LASF182:
 4757 01e0 74637069 		.ascii	"tcpip_apimsg\000"
 4757      705F6170 
 4757      696D7367 
 4757      00
 4758              	.LASF76:
 4759 01ed 7379735F 		.ascii	"sys_thread_t\000"
 4759      74687265 
 4759      61645F74 
 4759      00
 4760              	.LASF110:
 4761 01fa 68776164 		.ascii	"hwaddr\000"
 4761      647200
 4762              	.LASF14:
 4763 0201 6C6F6E67 		.ascii	"long long unsigned int\000"
 4763      206C6F6E 
 4763      6720756E 
 4763      7369676E 
 4763      65642069 
 4764              	.LASF117:
 4765 0218 4E455443 		.ascii	"NETCONN_INVALID\000"
 4765      4F4E4E5F 
 4765      494E5641 
 4765      4C494400 
 4766              	.LASF23:
 4767 0228 636E745F 		.ascii	"cnt_t\000"
 4767      7400
 4768              	.LASF109:
 4769 022e 68776164 		.ascii	"hwaddr_len\000"
 4769      64725F6C 
 4769      656E00
 4770              	.LASF77:
 4771 0239 6C776970 		.ascii	"lwip_thread_fn\000"
 4771      5F746872 
 4771      6561645F 
 4771      666E00
 4772              	.LASF29:
 4773 0248 705F6E65 		.ascii	"p_newer\000"
 4773      77657200 
 4774              	.LASF208:
 4775 0250 74637069 		.ascii	"tcpip_init\000"
 4775      705F696E 
ARM GAS  /tmp/ccQUlp8a.s 			page 87


 4775      697400
 4776              	.LASF88:
 4777 025b 4D454D50 		.ascii	"MEMP_TCPIP_MSG_INPKT\000"
 4777      5F544350 
 4777      49505F4D 
 4777      53475F49 
 4777      4E504B54 
 4778              	.LASF190:
 4779 0270 6D656D70 		.ascii	"memp_free\000"
 4779      5F667265 
 4779      6500
 4780              	.LASF131:
 4781 027a 4E455443 		.ascii	"NETCONN_EVT_RCVPLUS\000"
 4781      4F4E4E5F 
 4781      4556545F 
 4781      52435650 
 4781      4C555300 
 4782              	.LASF119:
 4783 028e 4E455443 		.ascii	"NETCONN_UDP\000"
 4783      4F4E4E5F 
 4783      55445000 
 4784              	.LASF196:
 4785 029a 7379735F 		.ascii	"sys_mbox_valid\000"
 4785      6D626F78 
 4785      5F76616C 
 4785      696400
 4786              	.LASF189:
 4787 02a9 7379735F 		.ascii	"sys_timeouts_mbox_fetch\000"
 4787      74696D65 
 4787      6F757473 
 4787      5F6D626F 
 4787      785F6665 
 4788              	.LASF97:
 4789 02c1 746F745F 		.ascii	"tot_len\000"
 4789      6C656E00 
 4790              	.LASF156:
 4791 02c9 69706164 		.ascii	"ipaddr\000"
 4791      647200
 4792              	.LASF1:
 4793 02d0 73697A65 		.ascii	"size_t\000"
 4793      5F7400
 4794              	.LASF64:
 4795 02d7 7264796D 		.ascii	"rdymsg\000"
 4795      736700
 4796              	.LASF96:
 4797 02de 7061796C 		.ascii	"payload\000"
 4797      6F616400 
 4798              	.LASF106:
 4799 02e6 6F757470 		.ascii	"output\000"
 4799      757400
 4800              	.LASF94:
 4801 02ed 70627566 		.ascii	"pbuf\000"
 4801      00
 4802              	.LASF60:
 4803 02f2 6D625F72 		.ascii	"mb_rdptr\000"
 4803      64707472 
 4803      00
ARM GAS  /tmp/ccQUlp8a.s 			page 88


 4804              	.LASF154:
 4805 02fb 636F6E6E 		.ascii	"conn\000"
 4805      00
 4806              	.LASF176:
 4807 0300 74637069 		.ascii	"tcpip_thread\000"
 4807      705F7468 
 4807      72656164 
 4807      00
 4808              	.LASF74:
 4809 030d 7379735F 		.ascii	"sys_sem_t\000"
 4809      73656D5F 
 4809      7400
 4810              	.LASF138:
 4811 0317 6C617374 		.ascii	"last_err\000"
 4811      5F657272 
 4811      00
 4812              	.LASF92:
 4813 0320 4D454D50 		.ascii	"MEMP_MAX\000"
 4813      5F4D4158 
 4813      00
 4814              	.LASF187:
 4815 0329 74637069 		.ascii	"tcpip_init_done_arg\000"
 4815      705F696E 
 4815      69745F64 
 4815      6F6E655F 
 4815      61726700 
 4816              	.LASF70:
 4817 033d 73385F74 		.ascii	"s8_t\000"
 4817      00
 4818              	.LASF53:
 4819 0342 4D757465 		.ascii	"Mutex\000"
 4819      7800
 4820              	.LASF62:
 4821 0348 6D625F65 		.ascii	"mb_emptysem\000"
 4821      6D707479 
 4821      73656D00 
 4822              	.LASF86:
 4823 0354 4D454D50 		.ascii	"MEMP_NETCONN\000"
 4823      5F4E4554 
 4823      434F4E4E 
 4823      00
 4824              	.LASF153:
 4825 0361 6170695F 		.ascii	"api_msg_msg\000"
 4825      6D73675F 
 4825      6D736700 
 4826              	.LASF132:
 4827 036d 4E455443 		.ascii	"NETCONN_EVT_RCVMINUS\000"
 4827      4F4E4E5F 
 4827      4556545F 
 4827      5243564D 
 4827      494E5553 
 4828              	.LASF31:
 4829 0382 705F6E61 		.ascii	"p_name\000"
 4829      6D6500
 4830              	.LASF90:
 4831 0389 4D454D50 		.ascii	"MEMP_PBUF\000"
 4831      5F504255 
ARM GAS  /tmp/ccQUlp8a.s 			page 89


 4831      4600
 4832              	.LASF44:
 4833 0393 54687265 		.ascii	"ThreadsQueue\000"
 4833      61647351 
 4833      75657565 
 4833      00
 4834              	.LASF68:
 4835 03a0 63686172 		.ascii	"char\000"
 4835      00
 4836              	.LASF185:
 4837 03a5 6D656D5F 		.ascii	"mem_free_callback\000"
 4837      66726565 
 4837      5F63616C 
 4837      6C626163 
 4837      6B00
 4838              	.LASF134:
 4839 03b7 4E455443 		.ascii	"NETCONN_EVT_SENDMINUS\000"
 4839      4F4E4E5F 
 4839      4556545F 
 4839      53454E44 
 4839      4D494E55 
 4840              	.LASF195:
 4841 03cd 69705F69 		.ascii	"ip_input\000"
 4841      6E707574 
 4841      00
 4842              	.LASF184:
 4843 03d6 70627566 		.ascii	"pbuf_free_callback\000"
 4843      5F667265 
 4843      655F6361 
 4843      6C6C6261 
 4843      636B00
 4844              	.LASF24:
 4845 03e9 54687265 		.ascii	"Thread\000"
 4845      616400
 4846              	.LASF155:
 4847 03f0 70726F74 		.ascii	"proto\000"
 4847      6F00
 4848              	.LASF16:
 4849 03f6 74737461 		.ascii	"tstate_t\000"
 4849      74655F74 
 4849      00
 4850              	.LASF30:
 4851 03ff 705F6F6C 		.ascii	"p_older\000"
 4851      64657200 
 4852              	.LASF32:
 4853 0407 705F7374 		.ascii	"p_state\000"
 4853      61746500 
 4854              	.LASF4:
 4855 040f 75696E74 		.ascii	"uint8_t\000"
 4855      385F7400 
 4856              	.LASF61:
 4857 0417 6D625F66 		.ascii	"mb_fullsem\000"
 4857      756C6C73 
 4857      656D00
 4858              	.LASF43:
 4859 0422 705F6D70 		.ascii	"p_mpool\000"
 4859      6F6F6C00 
ARM GAS  /tmp/ccQUlp8a.s 			page 90


 4860              	.LASF41:
 4861 042a 705F6D74 		.ascii	"p_mtxlist\000"
 4861      786C6973 
 4861      7400
 4862              	.LASF141:
 4863 0434 61636365 		.ascii	"acceptmbox\000"
 4863      70746D62 
 4863      6F7800
 4864              	.LASF193:
 4865 043f 70627566 		.ascii	"pbuf_free\000"
 4865      5F667265 
 4865      6500
 4866              	.LASF171:
 4867 0449 54435049 		.ascii	"TCPIP_MSG_CALLBACK\000"
 4867      505F4D53 
 4867      475F4341 
 4867      4C4C4241 
 4867      434B00
 4868              	.LASF161:
 4869 045c 6170695F 		.ascii	"api_msg\000"
 4869      6D736700 
 4870              	.LASF197:
 4871 0464 6D656D70 		.ascii	"memp_malloc\000"
 4871      5F6D616C 
 4871      6C6F6300 
 4872              	.LASF166:
 4873 0470 74637069 		.ascii	"tcpip_msg_type\000"
 4873      705F6D73 
 4873      675F7479 
 4873      706500
 4874              	.LASF85:
 4875 047f 4D454D50 		.ascii	"MEMP_NETBUF\000"
 4875      5F4E4554 
 4875      42554600 
 4876              	.LASF104:
 4877 048b 6E65746D 		.ascii	"netmask\000"
 4877      61736B00 
 4878              	.LASF13:
 4879 0493 6C6F6E67 		.ascii	"long long int\000"
 4879      206C6F6E 
 4879      6720696E 
 4879      7400
 4880              	.LASF177:
 4881 04a1 74637069 		.ascii	"tcpip_input\000"
 4881      705F696E 
 4881      70757400 
 4882              	.LASF20:
 4883 04ad 6D73675F 		.ascii	"msg_t\000"
 4883      7400
 4884              	.LASF48:
 4885 04b3 636F6E74 		.ascii	"context\000"
 4885      65787400 
 4886              	.LASF69:
 4887 04bb 75385F74 		.ascii	"u8_t\000"
 4887      00
 4888              	.LASF33:
 4889 04c0 705F666C 		.ascii	"p_flags\000"
ARM GAS  /tmp/ccQUlp8a.s 			page 91


 4889      61677300 
 4890              	.LASF58:
 4891 04c8 6D625F74 		.ascii	"mb_top\000"
 4891      6F7000
 4892              	.LASF169:
 4893 04cf 54435049 		.ascii	"TCPIP_MSG_TIMEOUT\000"
 4893      505F4D53 
 4893      475F5449 
 4893      4D454F55 
 4893      5400
 4894              	.LASF207:
 4895 04e1 2F686F6D 		.ascii	"/home/kwilson/Sandbox/ChibiOS_2.5.1/demos/ARMCM4-ST"
 4895      652F6B77 
 4895      696C736F 
 4895      6E2F5361 
 4895      6E64626F 
 4896 0514 4D333246 		.ascii	"M32F407-LWIP-FATFS-USB\000"
 4896      3430372D 
 4896      4C574950 
 4896      2D464154 
 4896      46532D55 
 4897              	.LASF18:
 4898 052b 74736C69 		.ascii	"tslices_t\000"
 4898      6365735F 
 4898      7400
 4899              	.LASF83:
 4900 0535 4D454D50 		.ascii	"MEMP_REASSDATA\000"
 4900      5F524541 
 4900      53534441 
 4900      544100
 4901              	.LASF91:
 4902 0544 4D454D50 		.ascii	"MEMP_PBUF_POOL\000"
 4902      5F504255 
 4902      465F504F 
 4902      4F4C00
 4903              	.LASF164:
 4904 0553 74637069 		.ascii	"tcpip_init_done_fn\000"
 4904      705F696E 
 4904      69745F64 
 4904      6F6E655F 
 4904      666E00
 4905              	.LASF181:
 4906 0566 74637069 		.ascii	"tcpip_untimeout\000"
 4906      705F756E 
 4906      74696D65 
 4906      6F757400 
 4907              	.LASF39:
 4908 0576 705F6D73 		.ascii	"p_msg\000"
 4908      6700
 4909              	.LASF158:
 4910 057c 64617461 		.ascii	"dataptr\000"
 4910      70747200 
 4911              	.LASF15:
 4912 0584 746D6F64 		.ascii	"tmode_t\000"
 4912      655F7400 
 4913              	.LASF175:
 4914 058c 70627566 		.ascii	"pbuf_free_int\000"
ARM GAS  /tmp/ccQUlp8a.s 			page 92


 4914      5F667265 
 4914      655F696E 
 4914      7400
 4915              	.LASF198:
 4916 059a 7379735F 		.ascii	"sys_mbox_trypost\000"
 4916      6D626F78 
 4916      5F747279 
 4916      706F7374 
 4916      00
 4917              	.LASF7:
 4918 05ab 75696E74 		.ascii	"uint16_t\000"
 4918      31365F74 
 4918      00
 4919              	.LASF125:
 4920 05b4 4E455443 		.ascii	"NETCONN_NONE\000"
 4920      4F4E4E5F 
 4920      4E4F4E45 
 4920      00
 4921              	.LASF47:
 4922 05c1 696E7463 		.ascii	"intctx\000"
 4922      747800
 4923              	.LASF204:
 4924 05c8 7379735F 		.ascii	"sys_thread_new\000"
 4924      74687265 
 4924      61645F6E 
 4924      657700
 4925              	.LASF123:
 4926 05d7 6E657463 		.ascii	"netconn_type\000"
 4926      6F6E6E5F 
 4926      74797065 
 4926      00
 4927              	.LASF128:
 4928 05e4 4E455443 		.ascii	"NETCONN_CONNECT\000"
 4928      4F4E4E5F 
 4928      434F4E4E 
 4928      45435400 
 4929              	.LASF80:
 4930 05f4 4D454D50 		.ascii	"MEMP_TCP_PCB\000"
 4930      5F544350 
 4930      5F504342 
 4930      00
 4931              	.LASF42:
 4932 0601 705F7265 		.ascii	"p_realprio\000"
 4932      616C7072 
 4932      696F00
 4933              	.LASF72:
 4934 060c 7533325F 		.ascii	"u32_t\000"
 4934      7400
 4935              	.LASF6:
 4936 0612 73686F72 		.ascii	"short int\000"
 4936      7420696E 
 4936      7400
 4937              	.LASF59:
 4938 061c 6D625F77 		.ascii	"mb_wrptr\000"
 4938      72707472 
 4938      00
 4939              	.LASF159:
ARM GAS  /tmp/ccQUlp8a.s 			page 93


 4940 0625 61706966 		.ascii	"apiflags\000"
 4940      6C616773 
 4940      00
 4941              	.LASF40:
 4942 062e 705F6570 		.ascii	"p_epending\000"
 4942      656E6469 
 4942      6E6700
 4943              	.LASF54:
 4944 0639 6D5F7175 		.ascii	"m_queue\000"
 4944      65756500 
 4945              	.LASF10:
 4946 0641 6C6F6E67 		.ascii	"long int\000"
 4946      20696E74 
 4946      00
 4947              	.LASF173:
 4948 064a 6170696D 		.ascii	"apimsg\000"
 4948      736700
 4949              	.LASF89:
 4950 0651 4D454D50 		.ascii	"MEMP_SYS_TIMEOUT\000"
 4950      5F535953 
 4950      5F54494D 
 4950      454F5554 
 4950      00
 4951              	.LASF165:
 4952 0662 74637069 		.ascii	"tcpip_callback_fn\000"
 4952      705F6361 
 4952      6C6C6261 
 4952      636B5F66 
 4952      6E00
 4953              	.LASF144:
 4954 0674 63757272 		.ascii	"current_msg\000"
 4954      656E745F 
 4954      6D736700 
 4955              	.LASF167:
 4956 0680 54435049 		.ascii	"TCPIP_MSG_API\000"
 4956      505F4D53 
 4956      475F4150 
 4956      4900
 4957              	.LASF25:
 4958 068e 705F6E65 		.ascii	"p_next\000"
 4958      787400
 4959              	.LASF79:
 4960 0695 4D454D50 		.ascii	"MEMP_UDP_PCB\000"
 4960      5F554450 
 4960      5F504342 
 4960      00
 4961              	.LASF147:
 4962 06a2 6C6F6361 		.ascii	"local_ip\000"
 4962      6C5F6970 
 4962      00
 4963              	.LASF28:
 4964 06ab 705F6374 		.ascii	"p_ctx\000"
 4964      7800
 4965              	.LASF188:
 4966 06b1 6D626F78 		.ascii	"mbox\000"
 4966      00
 4967              	.LASF200:
ARM GAS  /tmp/ccQUlp8a.s 			page 94


 4968 06b6 7379735F 		.ascii	"sys_arch_sem_wait\000"
 4968      61726368 
 4968      5F73656D 
 4968      5F776169 
 4968      7400
 4969              	.LASF142:
 4970 06c8 736F636B 		.ascii	"socket\000"
 4970      657400
 4971              	.LASF178:
 4972 06cf 74637069 		.ascii	"tcpip_callback_with_block\000"
 4972      705F6361 
 4972      6C6C6261 
 4972      636B5F77 
 4972      6974685F 
 4973              	.LASF50:
 4974 06e9 53656D61 		.ascii	"Semaphore\000"
 4974      70686F72 
 4974      6500
 4975              	.LASF111:
 4976 06f3 6E616D65 		.ascii	"name\000"
 4976      00
 4977              	.LASF115:
 4978 06f8 6E657462 		.ascii	"netbuf\000"
 4978      756600
 4979              	.LASF114:
 4980 06ff 6E657469 		.ascii	"netif_linkoutput_fn\000"
 4980      665F6C69 
 4980      6E6B6F75 
 4980      74707574 
 4980      5F666E00 
 4981              	.LASF84:
 4982 0713 4D454D50 		.ascii	"MEMP_FRAG_PBUF\000"
 4982      5F465241 
 4982      475F5042 
 4982      554600
 4983              	.LASF78:
 4984 0722 4D454D50 		.ascii	"MEMP_RAW_PCB\000"
 4984      5F524157 
 4984      5F504342 
 4984      00
 4985              	.LASF26:
 4986 072f 705F7072 		.ascii	"p_prev\000"
 4986      657600
 4987              	.LASF49:
 4988 0736 73697A65 		.ascii	"sizetype\000"
 4988      74797065 
 4988      00
 4989              	.LASF17:
 4990 073f 74726566 		.ascii	"trefs_t\000"
 4990      735F7400 
 4991              	.LASF12:
 4992 0747 6C6F6E67 		.ascii	"long unsigned int\000"
 4992      20756E73 
 4992      69676E65 
 4992      6420696E 
 4992      7400
 4993              	.LASF57:
ARM GAS  /tmp/ccQUlp8a.s 			page 95


 4994 0759 6D625F62 		.ascii	"mb_buffer\000"
 4994      75666665 
 4994      7200
 4995              	.LASF192:
 4996 0763 7379735F 		.ascii	"sys_timeout\000"
 4996      74696D65 
 4996      6F757400 
 4997              	.LASF9:
 4998 076f 696E7433 		.ascii	"int32_t\000"
 4998      325F7400 
 4999              	.LASF116:
 5000 0777 706F7274 		.ascii	"port\000"
 5000      00
 5001              	.LASF105:
 5002 077c 696E7075 		.ascii	"input\000"
 5002      7400
 5003              	.LASF130:
 5004 0782 6E657463 		.ascii	"netconn_evt\000"
 5004      6F6E6E5F 
 5004      65767400 
 5005              	.LASF136:
 5006 078e 6E657463 		.ascii	"netconn_callback\000"
 5006      6F6E6E5F 
 5006      63616C6C 
 5006      6261636B 
 5006      00
 5007              	.LASF199:
 5008 079f 7379735F 		.ascii	"sys_mbox_post\000"
 5008      6D626F78 
 5008      5F706F73 
 5008      7400
 5009              	.LASF98:
 5010 07ad 74797065 		.ascii	"type\000"
 5010      00
 5011              	.LASF5:
 5012 07b2 756E7369 		.ascii	"unsigned char\000"
 5012      676E6564 
 5012      20636861 
 5012      7200
 5013              	.LASF162:
 5014 07c0 66756E63 		.ascii	"function\000"
 5014      74696F6E 
 5014      00
 5015              	.LASF34:
 5016 07c9 705F7265 		.ascii	"p_refs\000"
 5016      667300
 5017              	.LASF82:
 5018 07d0 4D454D50 		.ascii	"MEMP_TCP_SEG\000"
 5018      5F544350 
 5018      5F534547 
 5018      00
 5019              	.LASF146:
 5020 07dd 69705F70 		.ascii	"ip_pcb\000"
 5020      636200
 5021              	.LASF118:
 5022 07e4 4E455443 		.ascii	"NETCONN_TCP\000"
 5022      4F4E4E5F 
ARM GAS  /tmp/ccQUlp8a.s 			page 96


 5022      54435000 
 5023              	.LASF160:
 5024 07f0 73687574 		.ascii	"shut\000"
 5024      00
 5025              	.LASF127:
 5026 07f5 4E455443 		.ascii	"NETCONN_LISTEN\000"
 5026      4F4E4E5F 
 5026      4C495354 
 5026      454E00
 5027              	.LASF206:
 5028 0804 2E2E2F2E 		.ascii	"../../ext/lwip/src/api/tcpip.c\000"
 5028      2E2F6578 
 5028      742F6C77 
 5028      69702F73 
 5028      72632F61 
 5029              	.LASF201:
 5030 0823 706F7274 		.ascii	"port_halt\000"
 5030      5F68616C 
 5030      7400
 5031              	.LASF35:
 5032 082d 705F7072 		.ascii	"p_preempt\000"
 5032      65656D70 
 5032      7400
 5033              	.LASF143:
 5034 0837 77726974 		.ascii	"write_offset\000"
 5034      655F6F66 
 5034      66736574 
 5034      00
 5035              	.LASF101:
 5036 0844 61646472 		.ascii	"addr\000"
 5036      00
 5037              	.LASF202:
 5038 0849 6C776970 		.ascii	"lwip_init\000"
 5038      5F696E69 
 5038      7400
 5039              	.LASF108:
 5040 0853 73746174 		.ascii	"state\000"
 5040      6500
 5041              	.LASF145:
 5042 0859 63616C6C 		.ascii	"callback\000"
 5042      6261636B 
 5042      00
 5043              	.LASF103:
 5044 0862 6E657469 		.ascii	"netif\000"
 5044      6600
 5045              	.LASF186:
 5046 0868 74637069 		.ascii	"tcpip_init_done\000"
 5046      705F696E 
 5046      69745F64 
 5046      6F6E6500 
 5047              	.LASF203:
 5048 0878 7379735F 		.ascii	"sys_mbox_new\000"
 5048      6D626F78 
 5048      5F6E6577 
 5048      00
 5049              	.LASF180:
 5050 0885 74637069 		.ascii	"tcpip_timeout\000"
ARM GAS  /tmp/ccQUlp8a.s 			page 97


 5050      705F7469 
 5050      6D656F75 
 5050      7400
 5051              	.LASF129:
 5052 0893 4E455443 		.ascii	"NETCONN_CLOSE\000"
 5052      4F4E4E5F 
 5052      434C4F53 
 5052      4500
 5053              	.LASF56:
 5054 08a1 6D5F6E65 		.ascii	"m_next\000"
 5054      787400
 5055              	.LASF3:
 5056 08a8 7369676E 		.ascii	"signed char\000"
 5056      65642063 
 5056      68617200 
 5057              	.LASF150:
 5058 08b4 7463705F 		.ascii	"tcp_pcb\000"
 5058      70636200 
 5059              	.LASF8:
 5060 08bc 73686F72 		.ascii	"short unsigned int\000"
 5060      7420756E 
 5060      7369676E 
 5060      65642069 
 5060      6E7400
 5061              	.LASF122:
 5062 08cf 4E455443 		.ascii	"NETCONN_RAW\000"
 5062      4F4E4E5F 
 5062      52415700 
 5063              	.LASF120:
 5064 08db 4E455443 		.ascii	"NETCONN_UDPLITE\000"
 5064      4F4E4E5F 
 5064      5544504C 
 5064      49544500 
 5065              	.LASF148:
 5066 08eb 72656D6F 		.ascii	"remote_ip\000"
 5066      74655F69 
 5066      7000
 5067              	.LASF139:
 5068 08f5 6F705F63 		.ascii	"op_completed\000"
 5068      6F6D706C 
 5068      65746564 
 5068      00
 5069              	.LASF102:
 5070 0902 69705F61 		.ascii	"ip_addr_t\000"
 5070      6464725F 
 5070      7400
 5071              	.LASF137:
 5072 090c 6E657463 		.ascii	"netconn\000"
 5072      6F6E6E00 
 5073              	.LASF93:
 5074 0914 6D656D70 		.ascii	"memp_t\000"
 5074      5F7400
 5075              	.LASF170:
 5076 091b 54435049 		.ascii	"TCPIP_MSG_UNTIMEOUT\000"
 5076      505F4D53 
 5076      475F554E 
 5076      54494D45 
ARM GAS  /tmp/ccQUlp8a.s 			page 98


 5076      4F555400 
 5077              	.LASF174:
 5078 092f 74637069 		.ascii	"tcpip_msg\000"
 5078      705F6D73 
 5078      6700
 5079              	.LASF194:
 5080 0939 65746865 		.ascii	"ethernet_input\000"
 5080      726E6574 
 5080      5F696E70 
 5080      757400
 5081              	.LASF172:
 5082 0948 6D736563 		.ascii	"msecs\000"
 5082      7300
 5083              	.LASF65:
 5084 094e 65786974 		.ascii	"exitcode\000"
 5084      636F6465 
 5084      00
 5085              	.LASF100:
 5086 0957 69705F61 		.ascii	"ip_addr\000"
 5086      64647200 
 5087              		.ident	"GCC: (crosstool-NG 1.17.0 - PSAS ST32F4 GFE) 4.7.2"
ARM GAS  /tmp/ccQUlp8a.s 			page 99


DEFINED SYMBOLS
                            *ABS*:0000000000000000 tcpip.c
     /tmp/ccQUlp8a.s:21     .text.pbuf_free_int:0000000000000000 $t
     /tmp/ccQUlp8a.s:26     .text.pbuf_free_int:0000000000000000 pbuf_free_int
     /tmp/ccQUlp8a.s:43     .text.tcpip_thread:0000000000000000 $t
     /tmp/ccQUlp8a.s:48     .text.tcpip_thread:0000000000000000 tcpip_thread
     /tmp/ccQUlp8a.s:91     .text.tcpip_thread:0000000000000026 $d
     /tmp/ccQUlp8a.s:182    .text.tcpip_thread:0000000000000098 $d
     /tmp/ccQUlp8a.s:189    .text.tcpip_input:0000000000000000 $t
     /tmp/ccQUlp8a.s:195    .text.tcpip_input:0000000000000000 tcpip_input
     /tmp/ccQUlp8a.s:268    .text.tcpip_input:0000000000000044 $d
     /tmp/ccQUlp8a.s:273    .text.tcpip_callback_with_block:0000000000000000 $t
     /tmp/ccQUlp8a.s:279    .text.tcpip_callback_with_block:0000000000000000 tcpip_callback_with_block
     /tmp/ccQUlp8a.s:370    .text.tcpip_callback_with_block:0000000000000050 $d
     /tmp/ccQUlp8a.s:375    .text.tcpip_timeout:0000000000000000 $t
     /tmp/ccQUlp8a.s:381    .text.tcpip_timeout:0000000000000000 tcpip_timeout
     /tmp/ccQUlp8a.s:447    .text.tcpip_timeout:0000000000000038 $d
     /tmp/ccQUlp8a.s:452    .text.tcpip_untimeout:0000000000000000 $t
     /tmp/ccQUlp8a.s:458    .text.tcpip_untimeout:0000000000000000 tcpip_untimeout
     /tmp/ccQUlp8a.s:521    .text.tcpip_untimeout:0000000000000034 $d
     /tmp/ccQUlp8a.s:526    .text.tcpip_apimsg:0000000000000000 $t
     /tmp/ccQUlp8a.s:532    .text.tcpip_apimsg:0000000000000000 tcpip_apimsg
     /tmp/ccQUlp8a.s:588    .text.tcpip_apimsg:0000000000000034 $d
     /tmp/ccQUlp8a.s:593    .text.tcpip_init:0000000000000000 $t
     /tmp/ccQUlp8a.s:599    .text.tcpip_init:0000000000000000 tcpip_init
     /tmp/ccQUlp8a.s:656    .text.tcpip_init:0000000000000038 $d
     /tmp/ccQUlp8a.s:665    .text.pbuf_free_callback:0000000000000000 $t
     /tmp/ccQUlp8a.s:671    .text.pbuf_free_callback:0000000000000000 pbuf_free_callback
     /tmp/ccQUlp8a.s:694    .text.mem_free_callback:0000000000000000 $t
     /tmp/ccQUlp8a.s:700    .text.mem_free_callback:0000000000000000 mem_free_callback
     /tmp/ccQUlp8a.s:723    .rodata.str1.4:0000000000000000 $d
     /tmp/ccQUlp8a.s:727    .bss.mbox:0000000000000000 $d
     /tmp/ccQUlp8a.s:731    .bss.mbox:0000000000000000 mbox
     /tmp/ccQUlp8a.s:734    .bss.tcpip_init_done_arg:0000000000000000 $d
     /tmp/ccQUlp8a.s:738    .bss.tcpip_init_done_arg:0000000000000000 tcpip_init_done_arg
     /tmp/ccQUlp8a.s:741    .bss.tcpip_init_done:0000000000000000 $d
     /tmp/ccQUlp8a.s:745    .bss.tcpip_init_done:0000000000000000 tcpip_init_done
                     .debug_frame:0000000000000010 $d
     /tmp/ccQUlp8a.s:188    .text.tcpip_thread:00000000000000a4 $t
     /tmp/ccQUlp8a.s:272    .text.tcpip_input:0000000000000048 $t
     /tmp/ccQUlp8a.s:374    .text.tcpip_callback_with_block:0000000000000054 $t
     /tmp/ccQUlp8a.s:451    .text.tcpip_timeout:000000000000003c $t
     /tmp/ccQUlp8a.s:525    .text.tcpip_untimeout:0000000000000038 $t
     /tmp/ccQUlp8a.s:592    .text.tcpip_apimsg:0000000000000038 $t
     /tmp/ccQUlp8a.s:664    .text.tcpip_init:000000000000004c $t
     /tmp/ccQUlp8a.s:96     .text.tcpip_thread:000000000000002b $d
     /tmp/ccQUlp8a.s:96     .text.tcpip_thread:000000000000002c $t

UNDEFINED SYMBOLS
pbuf_free
sys_timeouts_mbox_fetch
memp_free
sys_untimeout
sys_timeout
ethernet_input
port_halt
ip_input
ARM GAS  /tmp/ccQUlp8a.s 			page 100


sys_mbox_valid
memp_malloc
sys_mbox_trypost
sys_mbox_post
sys_arch_sem_wait
lwip_init
sys_mbox_new
sys_thread_new
mem_free
