ARM GAS  /tmp/ccQ3RUNg.s 			page 1


   1              		.syntax unified
   2              		.cpu cortex-m4
   3              		.eabi_attribute 27, 3
   4              		.eabi_attribute 28, 1
   5              		.fpu fpv4-sp-d16
   6              		.eabi_attribute 20, 1
   7              		.eabi_attribute 21, 1
   8              		.eabi_attribute 23, 3
   9              		.eabi_attribute 24, 1
  10              		.eabi_attribute 25, 1
  11              		.eabi_attribute 26, 1
  12              		.eabi_attribute 30, 2
  13              		.eabi_attribute 34, 1
  14              		.eabi_attribute 18, 4
  15              		.thumb
  16              		.file	"test.c"
  17              		.text
  18              	.Ltext0:
  19              		.cfi_sections	.debug_frame
  20              		.section	.text.tmr,"ax",%progbits
  21              		.align	2
  22              		.p2align 4,,15
  23              		.thumb
  24              		.thumb_func
  25              		.type	tmr, %function
  26              	tmr:
  27              	.LFB132:
  28              		.file 1 "../../test/test.c"
  29              		.loc 1 265 0
  30              		.cfi_startproc
  31              		@ args = 0, pretend = 0, frame = 0
  32              		@ frame_needed = 0, uses_anonymous_args = 0
  33              		@ link register save eliminated.
  34              	.LVL0:
  35              		.loc 1 268 0
  36 0000 40F20003 		movw	r3, #:lower16:.LANCHOR0
  37 0004 C0F20003 		movt	r3, #:upper16:.LANCHOR0
  38 0008 0122     		movs	r2, #1
  39 000a 1A60     		str	r2, [r3, #0]
  40 000c 7047     		bx	lr
  41              		.cfi_endproc
  42              	.LFE132:
  43              		.size	tmr, .-tmr
  44 000e 00BF     		.section	.text.print_line,"ax",%progbits
  45              		.align	2
  46              		.p2align 4,,15
  47              		.thumb
  48              		.thumb_func
  49              		.type	print_line, %function
  50              	print_line:
  51              	.LFB135:
  52              		.loc 1 304 0
  53              		.cfi_startproc
  54              		@ args = 0, pretend = 0, frame = 0
  55              		@ frame_needed = 0, uses_anonymous_args = 0
  56              	.LVL1:
  57 0000 38B5     		push	{r3, r4, r5, lr}
ARM GAS  /tmp/ccQ3RUNg.s 			page 2


  58              	.LCFI0:
  59              		.cfi_def_cfa_offset 16
  60              		.cfi_offset 3, -16
  61              		.cfi_offset 4, -12
  62              		.cfi_offset 5, -8
  63              		.cfi_offset 14, -4
  64 0002 084D     		ldr	r5, .L6
  65              		.loc 1 304 0
  66 0004 4C24     		movs	r4, #76
  67              	.LVL2:
  68              	.L3:
  69              		.loc 1 308 0 discriminator 2
  70 0006 2868     		ldr	r0, [r5, #0]
  71 0008 0368     		ldr	r3, [r0, #0]
  72 000a 2D21     		movs	r1, #45
  73 000c 9B68     		ldr	r3, [r3, #8]
  74 000e 9847     		blx	r3
  75              	.LVL3:
  76              		.loc 1 307 0 discriminator 2
  77 0010 013C     		subs	r4, r4, #1
  78 0012 F8D1     		bne	.L3
  79              		.loc 1 309 0
  80 0014 034B     		ldr	r3, .L6
  81 0016 0449     		ldr	r1, .L6+4
  82 0018 1868     		ldr	r0, [r3, #0]
  83 001a 0368     		ldr	r3, [r0, #0]
  84 001c 0222     		movs	r2, #2
  85 001e 1B68     		ldr	r3, [r3, #0]
  86 0020 9847     		blx	r3
  87              	.LVL4:
  88 0022 38BD     		pop	{r3, r4, r5, pc}
  89              	.L7:
  90              		.align	2
  91              	.L6:
  92 0024 00000000 		.word	.LANCHOR1
  93 0028 00000000 		.word	.LC0
  94              		.cfi_endproc
  95              	.LFE135:
  96              		.size	print_line, .-print_line
  97 002c AFF30080 		.section	.text.test_printn,"ax",%progbits
  98              		.align	2
  99              		.p2align 4,,15
 100              		.global	test_printn
 101              		.thumb
 102              		.thumb_func
 103              		.type	test_printn, %function
 104              	test_printn:
 105              	.LFB118:
 106              		.loc 1 95 0
 107              		.cfi_startproc
 108              		@ args = 0, pretend = 0, frame = 16
 109              		@ frame_needed = 0, uses_anonymous_args = 0
 110              	.LVL5:
 111 0000 70B5     		push	{r4, r5, r6, lr}
 112              	.LCFI1:
 113              		.cfi_def_cfa_offset 16
 114              		.cfi_offset 4, -16
ARM GAS  /tmp/ccQ3RUNg.s 			page 3


 115              		.cfi_offset 5, -12
 116              		.cfi_offset 6, -8
 117              		.cfi_offset 14, -4
 118 0002 84B0     		sub	sp, sp, #16
 119              	.LCFI2:
 120              		.cfi_def_cfa_offset 32
 121              		.loc 1 98 0
 122 0004 0028     		cmp	r0, #0
 123 0006 26D0     		beq	.L16
 124              	.LBB50:
 125              	.LBB51:
 126              		.loc 1 95 0
 127 0008 0DF10105 		add	r5, sp, #1
 128              	.LBE51:
 129              	.LBE50:
 130              		.loc 1 103 0
 131 000c 4CF6CD46 		movw	r6, #52429
 132              	.LBB54:
 133              	.LBB52:
 134              		.loc 1 95 0
 135 0010 2B46     		mov	r3, r5
 136              	.LBE52:
 137              	.LBE54:
 138              		.loc 1 103 0
 139 0012 CCF6CC46 		movt	r6, 52428
 140              	.LVL6:
 141              	.L11:
 142 0016 A6FB0012 		umull	r1, r2, r6, r0
 143 001a D208     		lsrs	r2, r2, #3
 144 001c 02EB8201 		add	r1, r2, r2, lsl #2
 145 0020 A0EB4101 		sub	r1, r0, r1, lsl #1
 146 0024 3031     		adds	r1, r1, #48
 147 0026 C9B2     		uxtb	r1, r1
 148              		.loc 1 95 0
 149 0028 1C46     		mov	r4, r3
 150              		.loc 1 103 0
 151 002a 03F8011C 		strb	r1, [r3, #-1]
 152              	.LVL7:
 153              		.loc 1 102 0
 154 002e 1046     		mov	r0, r2
 155 0030 0133     		adds	r3, r3, #1
 156              	.LVL8:
 157 0032 002A     		cmp	r2, #0
 158 0034 EFD1     		bne	.L11
 159              		.loc 1 104 0 discriminator 1
 160 0036 6B46     		mov	r3, sp
 161 0038 9C42     		cmp	r4, r3
 162 003a 0AD9     		bls	.L8
 163 003c 094E     		ldr	r6, .L18
 164 003e 02E0     		b	.L14
 165              	.LVL9:
 166              	.L17:
 167 0040 14F8021C 		ldrb	r1, [r4, #-2]	@ zero_extendqisi2
 168 0044 013C     		subs	r4, r4, #1
 169              	.L14:
 170              		.loc 1 105 0
 171 0046 3068     		ldr	r0, [r6, #0]
ARM GAS  /tmp/ccQ3RUNg.s 			page 4


 172 0048 0368     		ldr	r3, [r0, #0]
 173 004a 9B68     		ldr	r3, [r3, #8]
 174 004c 9847     		blx	r3
 175              	.LVL10:
 176              		.loc 1 104 0
 177 004e AC42     		cmp	r4, r5
 178 0050 F6D1     		bne	.L17
 179              	.L8:
 180              		.loc 1 107 0
 181 0052 04B0     		add	sp, sp, #16
 182 0054 70BD     		pop	{r4, r5, r6, pc}
 183              	.LVL11:
 184              	.L16:
 185              	.LBB55:
 186              	.LBB53:
 187              		.loc 1 99 0
 188 0056 034B     		ldr	r3, .L18
 189 0058 1868     		ldr	r0, [r3, #0]
 190              	.LVL12:
 191 005a 0368     		ldr	r3, [r0, #0]
 192 005c 3021     		movs	r1, #48
 193 005e 9B68     		ldr	r3, [r3, #8]
 194 0060 9847     		blx	r3
 195              	.LVL13:
 196 0062 F6E7     		b	.L8
 197              	.L19:
 198              		.align	2
 199              	.L18:
 200 0064 00000000 		.word	.LANCHOR1
 201              	.LBE53:
 202              	.LBE55:
 203              		.cfi_endproc
 204              	.LFE118:
 205              		.size	test_printn, .-test_printn
 206 0068 AFF30080 		.section	.text.test_print,"ax",%progbits
 206      AFF30080 
 207              		.align	2
 208              		.p2align 4,,15
 209              		.global	test_print
 210              		.thumb
 211              		.thumb_func
 212              		.type	test_print, %function
 213              	test_print:
 214              	.LFB119:
 215              		.loc 1 114 0
 216              		.cfi_startproc
 217              		@ args = 0, pretend = 0, frame = 0
 218              		@ frame_needed = 0, uses_anonymous_args = 0
 219              	.LVL14:
 220 0000 38B5     		push	{r3, r4, r5, lr}
 221              	.LCFI3:
 222              		.cfi_def_cfa_offset 16
 223              		.cfi_offset 3, -16
 224              		.cfi_offset 4, -12
 225              		.cfi_offset 5, -8
 226              		.cfi_offset 14, -4
 227              		.loc 1 116 0
ARM GAS  /tmp/ccQ3RUNg.s 			page 5


 228 0002 0178     		ldrb	r1, [r0, #0]	@ zero_extendqisi2
 229 0004 49B1     		cbz	r1, .L20
 230 0006 054D     		ldr	r5, .L25
 231 0008 0446     		mov	r4, r0
 232              	.LVL15:
 233              	.L22:
 234              		.loc 1 117 0
 235 000a 2868     		ldr	r0, [r5, #0]
 236 000c 0368     		ldr	r3, [r0, #0]
 237 000e 9B68     		ldr	r3, [r3, #8]
 238 0010 9847     		blx	r3
 239              	.LVL16:
 240              		.loc 1 116 0
 241 0012 14F8011F 		ldrb	r1, [r4, #1]!	@ zero_extendqisi2
 242 0016 0029     		cmp	r1, #0
 243 0018 F7D1     		bne	.L22
 244              	.L20:
 245 001a 38BD     		pop	{r3, r4, r5, pc}
 246              	.L26:
 247              		.align	2
 248              	.L25:
 249 001c 00000000 		.word	.LANCHOR1
 250              		.cfi_endproc
 251              	.LFE119:
 252              		.size	test_print, .-test_print
 253              		.section	.text.test_println,"ax",%progbits
 254              		.align	2
 255              		.p2align 4,,15
 256              		.global	test_println
 257              		.thumb
 258              		.thumb_func
 259              		.type	test_println, %function
 260              	test_println:
 261              	.LFB120:
 262              		.loc 1 125 0
 263              		.cfi_startproc
 264              		@ args = 0, pretend = 0, frame = 0
 265              		@ frame_needed = 0, uses_anonymous_args = 0
 266              	.LVL17:
 267 0000 38B5     		push	{r3, r4, r5, lr}
 268              	.LCFI4:
 269              		.cfi_def_cfa_offset 16
 270              		.cfi_offset 3, -16
 271              		.cfi_offset 4, -12
 272              		.cfi_offset 5, -8
 273              		.cfi_offset 14, -4
 274              	.LBB56:
 275              	.LBB57:
 276              		.loc 1 116 0
 277 0002 0178     		ldrb	r1, [r0, #0]	@ zero_extendqisi2
 278 0004 084D     		ldr	r5, .L33
 279 0006 41B1     		cbz	r1, .L30
 280 0008 0446     		mov	r4, r0
 281              	.LVL18:
 282              	.L29:
 283              		.loc 1 117 0
 284 000a 2868     		ldr	r0, [r5, #0]
ARM GAS  /tmp/ccQ3RUNg.s 			page 6


 285 000c 0368     		ldr	r3, [r0, #0]
 286 000e 9B68     		ldr	r3, [r3, #8]
 287 0010 9847     		blx	r3
 288              	.LVL19:
 289              		.loc 1 116 0
 290 0012 14F8011F 		ldrb	r1, [r4, #1]!	@ zero_extendqisi2
 291 0016 0029     		cmp	r1, #0
 292 0018 F7D1     		bne	.L29
 293              	.L30:
 294              	.LBE57:
 295              	.LBE56:
 296              		.loc 1 128 0
 297 001a 2868     		ldr	r0, [r5, #0]
 298 001c 0349     		ldr	r1, .L33+4
 299 001e 0368     		ldr	r3, [r0, #0]
 300 0020 0222     		movs	r2, #2
 301 0022 1B68     		ldr	r3, [r3, #0]
 302 0024 9847     		blx	r3
 303              	.LVL20:
 304 0026 38BD     		pop	{r3, r4, r5, pc}
 305              	.L34:
 306              		.align	2
 307              	.L33:
 308 0028 00000000 		.word	.LANCHOR1
 309 002c 00000000 		.word	.LC0
 310              		.cfi_endproc
 311              	.LFE120:
 312              		.size	test_println, .-test_println
 313              		.section	.text.test_emit_token,"ax",%progbits
 314              		.align	2
 315              		.p2align 4,,15
 316              		.global	test_emit_token
 317              		.thumb
 318              		.thumb_func
 319              		.type	test_emit_token, %function
 320              	test_emit_token:
 321              	.LFB123:
 322              		.loc 1 151 0
 323              		.cfi_startproc
 324              		@ args = 0, pretend = 0, frame = 0
 325              		@ frame_needed = 0, uses_anonymous_args = 0
 326              		@ link register save eliminated.
 327              	.LVL21:
 328              	.LBB58:
 329              		.loc 1 153 0
 330 0000 2023     		movs	r3, #32
 331              	.LVL22:
 332              	@ 153 "../../test/test.c" 1
 333 0002 83F31188 		msr     BASEPRI, r3
 334              	@ 0 "" 2
 335              	.LVL23:
 336              		.thumb
 337              	.LBE58:
 338              		.loc 1 154 0
 339 0006 40F20002 		movw	r2, #:lower16:.LANCHOR2
 340 000a C0F20002 		movt	r2, #:upper16:.LANCHOR2
 341              	.LBB59:
ARM GAS  /tmp/ccQ3RUNg.s 			page 7


 342              		.loc 1 155 0
 343 000e 0023     		movs	r3, #0
 344              	.LVL24:
 345              	.LBE59:
 346              		.loc 1 154 0
 347 0010 1168     		ldr	r1, [r2, #0]
 348 0012 01F8010B 		strb	r0, [r1], #1
 349 0016 1160     		str	r1, [r2, #0]
 350              	.LBB60:
 351              		.loc 1 155 0
 352              	@ 155 "../../test/test.c" 1
 353 0018 83F31188 		msr     BASEPRI, r3
 354              	@ 0 "" 2
 355              	.LVL25:
 356              		.thumb
 357 001c 7047     		bx	lr
 358              	.LBE60:
 359              		.cfi_endproc
 360              	.LFE123:
 361              		.size	test_emit_token, .-test_emit_token
 362 001e 00BF     		.section	.text._test_fail,"ax",%progbits
 363              		.align	2
 364              		.p2align 4,,15
 365              		.global	_test_fail
 366              		.thumb
 367              		.thumb_func
 368              		.type	_test_fail, %function
 369              	_test_fail:
 370              	.LFB124:
 371              		.loc 1 161 0
 372              		.cfi_startproc
 373              		@ args = 0, pretend = 0, frame = 0
 374              		@ frame_needed = 0, uses_anonymous_args = 0
 375              		@ link register save eliminated.
 376              	.LVL26:
 377 0000 10B4     		push	{r4}
 378              	.LCFI5:
 379              		.cfi_def_cfa_offset 4
 380              		.cfi_offset 4, -4
 381              		.loc 1 163 0
 382 0002 40F20001 		movw	r1, #:lower16:.LANCHOR3
 383              		.loc 1 164 0
 384 0006 40F20002 		movw	r2, #:lower16:.LANCHOR4
 385              		.loc 1 165 0
 386 000a 40F20004 		movw	r4, #:lower16:.LANCHOR5
 387              		.loc 1 163 0
 388 000e C0F20001 		movt	r1, #:upper16:.LANCHOR3
 389              		.loc 1 164 0
 390 0012 C0F20002 		movt	r2, #:upper16:.LANCHOR4
 391              		.loc 1 165 0
 392 0016 C0F20004 		movt	r4, #:upper16:.LANCHOR5
 393              		.loc 1 163 0
 394 001a 0123     		movs	r3, #1
 395              		.loc 1 165 0
 396 001c 2060     		str	r0, [r4, #0]
 397              		.loc 1 163 0
 398 001e 0B60     		str	r3, [r1, #0]
ARM GAS  /tmp/ccQ3RUNg.s 			page 8


 399              		.loc 1 164 0
 400 0020 1360     		str	r3, [r2, #0]
 401              		.loc 1 167 0
 402 0022 1846     		mov	r0, r3
 403              	.LVL27:
 404 0024 10BC     		pop	{r4}
 405 0026 7047     		bx	lr
 406              		.cfi_endproc
 407              	.LFE124:
 408              		.size	_test_fail, .-_test_fail
 409 0028 AFF30080 		.section	.text._test_assert,"ax",%progbits
 409      AFF30080 
 410              		.align	2
 411              		.p2align 4,,15
 412              		.global	_test_assert
 413              		.thumb
 414              		.thumb_func
 415              		.type	_test_assert, %function
 416              	_test_assert:
 417              	.LFB125:
 418              		.loc 1 169 0
 419              		.cfi_startproc
 420              		@ args = 0, pretend = 0, frame = 0
 421              		@ frame_needed = 0, uses_anonymous_args = 0
 422              		@ link register save eliminated.
 423              	.LVL28:
 424              		.loc 1 171 0
 425 0000 41B9     		cbnz	r1, .L39
 426              	.LVL29:
 427              	.LBB61:
 428              	.LBB62:
 429              		.loc 1 163 0
 430 0002 054A     		ldr	r2, .L40
 431 0004 0123     		movs	r3, #1
 432 0006 1360     		str	r3, [r2, #0]
 433              		.loc 1 164 0
 434 0008 044A     		ldr	r2, .L40+4
 435 000a 1360     		str	r3, [r2, #0]
 436              		.loc 1 165 0
 437 000c 044A     		ldr	r2, .L40+8
 438 000e 1060     		str	r0, [r2, #0]
 439              	.LBE62:
 440              	.LBE61:
 441              		.loc 1 172 0
 442 0010 1846     		mov	r0, r3
 443              	.LVL30:
 444 0012 7047     		bx	lr
 445              	.LVL31:
 446              	.L39:
 447              		.loc 1 173 0
 448 0014 0020     		movs	r0, #0
 449              	.LVL32:
 450              		.loc 1 174 0
 451 0016 7047     		bx	lr
 452              	.L41:
 453              		.align	2
 454              	.L40:
ARM GAS  /tmp/ccQ3RUNg.s 			page 9


 455 0018 00000000 		.word	.LANCHOR3
 456 001c 00000000 		.word	.LANCHOR4
 457 0020 00000000 		.word	.LANCHOR5
 458              		.cfi_endproc
 459              	.LFE125:
 460              		.size	_test_assert, .-_test_assert
 461 0024 AFF30080 		.section	.text._test_assert_sequence,"ax",%progbits
 461      AFF30080 
 461      AFF30080 
 462              		.align	2
 463              		.p2align 4,,15
 464              		.global	_test_assert_sequence
 465              		.thumb
 466              		.thumb_func
 467              		.type	_test_assert_sequence, %function
 468              	_test_assert_sequence:
 469              	.LFB126:
 470              		.loc 1 176 0
 471              		.cfi_startproc
 472              		@ args = 0, pretend = 0, frame = 0
 473              		@ frame_needed = 0, uses_anonymous_args = 0
 474              		@ link register save eliminated.
 475              	.LVL33:
 476 0000 F0B4     		push	{r4, r5, r6, r7}
 477              	.LCFI6:
 478              		.cfi_def_cfa_offset 16
 479              		.cfi_offset 4, -16
 480              		.cfi_offset 5, -12
 481              		.cfi_offset 6, -8
 482              		.cfi_offset 7, -4
 483 0002 0F4E     		ldr	r6, .L49
 484              		.loc 1 177 0
 485 0004 0F4F     		ldr	r7, .L49+4
 486 0006 3568     		ldr	r5, [r6, #0]
 487 0008 3B46     		mov	r3, r7
 488              		.loc 1 178 0
 489 000a 04E0     		b	.L43
 490              	.LVL34:
 491              	.L45:
 492              		.loc 1 179 0
 493 000c 11F8014B 		ldrb	r4, [r1], #1	@ zero_extendqisi2
 494              	.LVL35:
 495 0010 1278     		ldrb	r2, [r2, #0]	@ zero_extendqisi2
 496 0012 A242     		cmp	r2, r4
 497 0014 09D1     		bne	.L48
 498              	.L43:
 499              		.loc 1 178 0 discriminator 1
 500 0016 9D42     		cmp	r5, r3
 501 0018 1A46     		mov	r2, r3
 502 001a 03F10103 		add	r3, r3, #1
 503 001e F5D8     		bhi	.L45
 504              		.loc 1 182 0
 505 0020 0B78     		ldrb	r3, [r1, #0]	@ zero_extendqisi2
 506 0022 13B9     		cbnz	r3, .L48
 507              	.LBB63:
 508              	.LBB64:
 509              		.loc 1 136 0
ARM GAS  /tmp/ccQ3RUNg.s 			page 10


 510 0024 3760     		str	r7, [r6, #0]
 511              	.LBE64:
 512              	.LBE63:
 513              		.loc 1 185 0
 514 0026 1846     		mov	r0, r3
 515              	.LVL36:
 516 0028 07E0     		b	.L44
 517              	.LVL37:
 518              	.L48:
 519              	.LBB65:
 520              	.LBB66:
 521              		.loc 1 163 0
 522 002a 074A     		ldr	r2, .L49+8
 523 002c 0123     		movs	r3, #1
 524 002e 1360     		str	r3, [r2, #0]
 525              		.loc 1 164 0
 526 0030 064A     		ldr	r2, .L49+12
 527 0032 1360     		str	r3, [r2, #0]
 528              		.loc 1 165 0
 529 0034 064A     		ldr	r2, .L49+16
 530 0036 1060     		str	r0, [r2, #0]
 531              	.LBE66:
 532              	.LBE65:
 533              		.loc 1 183 0
 534 0038 1846     		mov	r0, r3
 535              	.LVL38:
 536              	.L44:
 537              		.loc 1 186 0
 538 003a F0BC     		pop	{r4, r5, r6, r7}
 539 003c 7047     		bx	lr
 540              	.L50:
 541 003e 00BF     		.align	2
 542              	.L49:
 543 0040 00000000 		.word	.LANCHOR2
 544 0044 00000000 		.word	.LANCHOR6
 545 0048 00000000 		.word	.LANCHOR3
 546 004c 00000000 		.word	.LANCHOR4
 547 0050 00000000 		.word	.LANCHOR5
 548              		.cfi_endproc
 549              	.LFE126:
 550              		.size	_test_assert_sequence, .-_test_assert_sequence
 551 0054 AFF30080 		.section	.text._test_assert_time_window,"ax",%progbits
 551      AFF30080 
 551      AFF30080 
 552              		.align	2
 553              		.p2align 4,,15
 554              		.global	_test_assert_time_window
 555              		.thumb
 556              		.thumb_func
 557              		.type	_test_assert_time_window, %function
 558              	_test_assert_time_window:
 559              	.LFB127:
 560              		.loc 1 188 0
 561              		.cfi_startproc
 562              		@ args = 0, pretend = 0, frame = 0
 563              		@ frame_needed = 0, uses_anonymous_args = 0
 564              	.LVL39:
ARM GAS  /tmp/ccQ3RUNg.s 			page 11


 565 0000 10B5     		push	{r4, lr}
 566              	.LCFI7:
 567              		.cfi_def_cfa_offset 8
 568              		.cfi_offset 4, -8
 569              		.cfi_offset 14, -4
 570              		.loc 1 188 0
 571 0002 0446     		mov	r4, r0
 572              		.loc 1 190 0
 573 0004 0846     		mov	r0, r1
 574              	.LVL40:
 575 0006 1146     		mov	r1, r2
 576              	.LVL41:
 577 0008 FFF7FEFF 		bl	chTimeIsWithin
 578              	.LVL42:
 579              	.LBB67:
 580              	.LBB68:
 581              		.loc 1 171 0
 582 000c 40B9     		cbnz	r0, .L53
 583              	.LVL43:
 584              	.LBB69:
 585              	.LBB70:
 586              		.loc 1 163 0
 587 000e 054A     		ldr	r2, .L54
 588 0010 0123     		movs	r3, #1
 589 0012 1360     		str	r3, [r2, #0]
 590              		.loc 1 164 0
 591 0014 044A     		ldr	r2, .L54+4
 592 0016 1360     		str	r3, [r2, #0]
 593              		.loc 1 165 0
 594 0018 044A     		ldr	r2, .L54+8
 595              		.loc 1 172 0
 596 001a 1846     		mov	r0, r3
 597              	.LVL44:
 598              		.loc 1 165 0
 599 001c 1460     		str	r4, [r2, #0]
 600 001e 10BD     		pop	{r4, pc}
 601              	.LVL45:
 602              	.L53:
 603              	.LBE70:
 604              	.LBE69:
 605              		.loc 1 173 0
 606 0020 0020     		movs	r0, #0
 607              	.LVL46:
 608              	.LBE68:
 609              	.LBE67:
 610              		.loc 1 191 0
 611 0022 10BD     		pop	{r4, pc}
 612              	.L55:
 613              		.align	2
 614              	.L54:
 615 0024 00000000 		.word	.LANCHOR3
 616 0028 00000000 		.word	.LANCHOR4
 617 002c 00000000 		.word	.LANCHOR5
 618              		.cfi_endproc
 619              	.LFE127:
 620              		.size	_test_assert_time_window, .-_test_assert_time_window
 621              		.section	.text.test_terminate_threads,"ax",%progbits
ARM GAS  /tmp/ccQ3RUNg.s 			page 12


 622              		.align	2
 623              		.p2align 4,,15
 624              		.global	test_terminate_threads
 625              		.thumb
 626              		.thumb_func
 627              		.type	test_terminate_threads, %function
 628              	test_terminate_threads:
 629              	.LFB128:
 630              		.loc 1 200 0
 631              		.cfi_startproc
 632              		@ args = 0, pretend = 0, frame = 0
 633              		@ frame_needed = 0, uses_anonymous_args = 0
 634              	.LVL47:
 635 0000 38B5     		push	{r3, r4, r5, lr}
 636              	.LCFI8:
 637              		.cfi_def_cfa_offset 16
 638              		.cfi_offset 3, -16
 639              		.cfi_offset 4, -12
 640              		.cfi_offset 5, -8
 641              		.cfi_offset 14, -4
 642              		.loc 1 200 0
 643 0002 064C     		ldr	r4, .L63
 644 0004 04F11405 		add	r5, r4, #20
 645              	.LVL48:
 646              	.L58:
 647              		.loc 1 204 0
 648 0008 54F8043F 		ldr	r3, [r4, #4]!
 649              		.loc 1 205 0
 650 000c 1846     		mov	r0, r3
 651              		.loc 1 204 0
 652 000e 0BB1     		cbz	r3, .L57
 653              		.loc 1 205 0
 654 0010 FFF7FEFF 		bl	chThdTerminate
 655              	.LVL49:
 656              	.L57:
 657              		.loc 1 203 0
 658 0014 AC42     		cmp	r4, r5
 659 0016 F7D1     		bne	.L58
 660              		.loc 1 206 0
 661 0018 38BD     		pop	{r3, r4, r5, pc}
 662              	.L64:
 663 001a 00BF     		.align	2
 664              	.L63:
 665 001c FCFFFFFF 		.word	.LANCHOR7-4
 666              		.cfi_endproc
 667              	.LFE128:
 668              		.size	test_terminate_threads, .-test_terminate_threads
 669              		.section	.text.test_wait_threads,"ax",%progbits
 670              		.align	2
 671              		.p2align 4,,15
 672              		.global	test_wait_threads
 673              		.thumb
 674              		.thumb_func
 675              		.type	test_wait_threads, %function
 676              	test_wait_threads:
 677              	.LFB129:
 678              		.loc 1 211 0
ARM GAS  /tmp/ccQ3RUNg.s 			page 13


 679              		.cfi_startproc
 680              		@ args = 0, pretend = 0, frame = 0
 681              		@ frame_needed = 0, uses_anonymous_args = 0
 682              	.LVL50:
 683 0000 70B5     		push	{r4, r5, r6, lr}
 684              	.LCFI9:
 685              		.cfi_def_cfa_offset 16
 686              		.cfi_offset 4, -16
 687              		.cfi_offset 5, -12
 688              		.cfi_offset 6, -8
 689              		.cfi_offset 14, -4
 690 0002 074C     		ldr	r4, .L72
 691              		.loc 1 217 0
 692 0004 0026     		movs	r6, #0
 693              		.loc 1 211 0
 694 0006 04F11405 		add	r5, r4, #20
 695              	.LVL51:
 696              	.L67:
 697              		.loc 1 215 0
 698 000a 54F8043B 		ldr	r3, [r4], #4
 699              		.loc 1 216 0
 700 000e 1846     		mov	r0, r3
 701              		.loc 1 215 0
 702 0010 1BB1     		cbz	r3, .L66
 703              		.loc 1 216 0
 704 0012 FFF7FEFF 		bl	chThdWait
 705              	.LVL52:
 706              		.loc 1 217 0
 707 0016 44F8046C 		str	r6, [r4, #-4]
 708              	.L66:
 709              		.loc 1 214 0
 710 001a AC42     		cmp	r4, r5
 711 001c F5D1     		bne	.L67
 712              		.loc 1 219 0
 713 001e 70BD     		pop	{r4, r5, r6, pc}
 714              	.L73:
 715              		.align	2
 716              	.L72:
 717 0020 00000000 		.word	.LANCHOR7
 718              		.cfi_endproc
 719              	.LFE129:
 720              		.size	test_wait_threads, .-test_wait_threads
 721 0024 AFF30080 		.section	.text.test_cpu_pulse,"ax",%progbits
 721      AFF30080 
 721      AFF30080 
 722              		.align	2
 723              		.p2align 4,,15
 724              		.global	test_cpu_pulse
 725              		.thumb
 726              		.thumb_func
 727              		.type	test_cpu_pulse, %function
 728              	test_cpu_pulse:
 729              	.LFB130:
 730              		.loc 1 228 0
 731              		.cfi_startproc
 732              		@ args = 0, pretend = 0, frame = 0
 733              		@ frame_needed = 0, uses_anonymous_args = 0
ARM GAS  /tmp/ccQ3RUNg.s 			page 14


 734              		@ link register save eliminated.
 735              	.LVL53:
 736              		.loc 1 231 0
 737 0000 154B     		ldr	r3, .L80
 738              		.loc 1 228 0
 739 0002 30B4     		push	{r4, r5}
 740              	.LCFI10:
 741              		.cfi_def_cfa_offset 8
 742              		.cfi_offset 4, -8
 743              		.cfi_offset 5, -4
 744              		.loc 1 231 0
 745 0004 9C69     		ldr	r4, [r3, #24]
 746              		.loc 1 232 0
 747 0006 4FF47A73 		mov	r3, #1000
 748 000a 03FB00F0 		mul	r0, r3, r0
 749              	.LVL54:
 750              		.loc 1 231 0
 751 000e 226A     		ldr	r2, [r4, #32]
 752              	.LVL55:
 753              		.loc 1 232 0
 754 0010 44F6D353 		movw	r3, #19923
 755 0014 A0F57A71 		sub	r1, r0, #1000
 756 0018 C1F26203 		movt	r3, 4194
 757 001c 501C     		adds	r0, r2, #1
 758 001e A3FB0153 		umull	r5, r3, r3, r1
 759 0022 00EB9311 		add	r1, r0, r3, lsr #6
 760              	.LVL56:
 761              	.L77:
 762              		.loc 1 239 0
 763 0026 8A42     		cmp	r2, r1
 764              		.loc 1 234 0
 765 0028 236A     		ldr	r3, [r4, #32]
 766              	.LVL57:
 767              		.loc 1 239 0
 768 002a 0AD2     		bcs	.L75
 769              		.loc 1 239 0 is_stmt 0 discriminator 1
 770 002c 8B42     		cmp	r3, r1
 771 002e 2CBF     		ite	cs
 772 0030 0020     		movcs	r0, #0
 773 0032 0120     		movcc	r0, #1
 774 0034 9342     		cmp	r3, r2
 775 0036 38BF     		it	cc
 776 0038 0020     		movcc	r0, #0
 777              		.loc 1 240 0 is_stmt 1 discriminator 1
 778 003a 0028     		cmp	r0, #0
 779 003c F3D1     		bne	.L77
 780              	.L79:
 781              		.loc 1 241 0
 782 003e 30BC     		pop	{r4, r5}
 783 0040 7047     		bx	lr
 784              	.L75:
 785              		.loc 1 240 0 discriminator 2
 786 0042 9342     		cmp	r3, r2
 787 0044 34BF     		ite	cc
 788 0046 0020     		movcc	r0, #0
 789 0048 0120     		movcs	r0, #1
 790 004a 8B42     		cmp	r3, r1
ARM GAS  /tmp/ccQ3RUNg.s 			page 15


 791 004c 38BF     		it	cc
 792 004e 40F00100 		orrcc	r0, r0, #1
 793 0052 0028     		cmp	r0, #0
 794 0054 E7D1     		bne	.L77
 795 0056 F2E7     		b	.L79
 796              	.L81:
 797              		.align	2
 798              	.L80:
 799 0058 00000000 		.word	rlist
 800              		.cfi_endproc
 801              	.LFE130:
 802              		.size	test_cpu_pulse, .-test_cpu_pulse
 803 005c AFF30080 		.section	.text.test_wait_tick,"ax",%progbits
 804              		.align	2
 805              		.p2align 4,,15
 806              		.global	test_wait_tick
 807              		.thumb
 808              		.thumb_func
 809              		.type	test_wait_tick, %function
 810              	test_wait_tick:
 811              	.LFB131:
 812              		.loc 1 249 0
 813              		.cfi_startproc
 814              		@ args = 0, pretend = 0, frame = 0
 815              		@ frame_needed = 0, uses_anonymous_args = 0
 816 0000 08B5     		push	{r3, lr}
 817              	.LCFI11:
 818              		.cfi_def_cfa_offset 8
 819              		.cfi_offset 3, -8
 820              		.cfi_offset 14, -4
 821              		.loc 1 251 0
 822 0002 0120     		movs	r0, #1
 823 0004 FFF7FEFF 		bl	chThdSleep
 824              	.LVL58:
 825              		.loc 1 252 0
 826 0008 40F20003 		movw	r3, #:lower16:vtlist
 827 000c C0F20003 		movt	r3, #:upper16:vtlist
 828 0010 D868     		ldr	r0, [r3, #12]
 829              		.loc 1 253 0
 830 0012 08BD     		pop	{r3, pc}
 831              		.cfi_endproc
 832              	.LFE131:
 833              		.size	test_wait_tick, .-test_wait_tick
 834 0014 AFF30080 		.section	.text.test_start_timer,"ax",%progbits
 834      AFF30080 
 834      AFF30080 
 835              		.align	2
 836              		.p2align 4,,15
 837              		.global	test_start_timer
 838              		.thumb
 839              		.thumb_func
 840              		.type	test_start_timer, %function
 841              	test_start_timer:
 842              	.LFB133:
 843              		.loc 1 276 0
 844              		.cfi_startproc
 845              		@ args = 0, pretend = 0, frame = 0
ARM GAS  /tmp/ccQ3RUNg.s 			page 16


 846              		@ frame_needed = 0, uses_anonymous_args = 0
 847              	.LVL59:
 848              		.loc 1 279 0
 849 0000 40F20003 		movw	r3, #:lower16:.LANCHOR0
 850 0004 C0F20003 		movt	r3, #:upper16:.LANCHOR0
 851              		.loc 1 276 0
 852 0008 10B5     		push	{r4, lr}
 853              	.LCFI12:
 854              		.cfi_def_cfa_offset 8
 855              		.cfi_offset 4, -8
 856              		.cfi_offset 14, -4
 857              		.loc 1 279 0
 858 000a 0024     		movs	r4, #0
 859 000c 1C60     		str	r4, [r3, #0]
 860              	.LVL60:
 861              	.LBB71:
 862              		.loc 1 280 0
 863 000e 2023     		movs	r3, #32
 864              	.LVL61:
 865              	@ 280 "../../test/test.c" 1
 866 0010 83F31188 		msr     BASEPRI, r3
 867              	@ 0 "" 2
 868              	.LVL62:
 869              		.thumb
 870              	.LBE71:
 871              		.loc 1 278 0
 872 0014 4FF47A73 		mov	r3, #1000
 873              	.LVL63:
 874 0018 03FB00F0 		mul	r0, r3, r0
 875              	.LVL64:
 876 001c 44F6D353 		movw	r3, #19923
 877 0020 A0F57A70 		sub	r0, r0, #1000
 878 0024 C1F26203 		movt	r3, 4194
 879 0028 A3FB0023 		umull	r2, r3, r3, r0
 880 002c 9909     		lsrs	r1, r3, #6
 881              		.loc 1 280 0
 882 002e 40F20000 		movw	r0, #:lower16:.LANCHOR8
 883 0032 40F20002 		movw	r2, #:lower16:tmr
 884 0036 2346     		mov	r3, r4
 885 0038 C0F20000 		movt	r0, #:upper16:.LANCHOR8
 886 003c 0131     		adds	r1, r1, #1
 887 003e C0F20002 		movt	r2, #:upper16:tmr
 888 0042 FFF7FEFF 		bl	chVTSetI
 889              	.LVL65:
 890              	.LBB72:
 891 0046 2346     		mov	r3, r4
 892              	.LVL66:
 893              	@ 280 "../../test/test.c" 1
 894 0048 83F31188 		msr     BASEPRI, r3
 895              	@ 0 "" 2
 896              	.LVL67:
 897              		.thumb
 898 004c 10BD     		pop	{r4, pc}
 899              	.LBE72:
 900              		.cfi_endproc
 901              	.LFE133:
 902              		.size	test_start_timer, .-test_start_timer
ARM GAS  /tmp/ccQ3RUNg.s 			page 17


 903 004e 00BF     		.section	.text.TestThread,"ax",%progbits
 904              		.align	2
 905              		.p2align 4,,15
 906              		.global	TestThread
 907              		.thumb
 908              		.thumb_func
 909              		.type	TestThread, %function
 910              	TestThread:
 911              	.LFB136:
 912              		.loc 1 318 0
 913              		.cfi_startproc
 914              		@ args = 0, pretend = 0, frame = 8
 915              		@ frame_needed = 0, uses_anonymous_args = 0
 916              	.LVL68:
 917 0000 2DE9F04F 		push	{r4, r5, r6, r7, r8, r9, sl, fp, lr}
 918              	.LCFI13:
 919              		.cfi_def_cfa_offset 36
 920              		.cfi_offset 4, -36
 921              		.cfi_offset 5, -32
 922              		.cfi_offset 6, -28
 923              		.cfi_offset 7, -24
 924              		.cfi_offset 8, -20
 925              		.cfi_offset 9, -16
 926              		.cfi_offset 10, -12
 927              		.cfi_offset 11, -8
 928              		.cfi_offset 14, -4
 929              		.loc 1 321 0
 930 0004 994C     		ldr	r4, .L157
 931 0006 9A4D     		ldr	r5, .L157+4
 932 0008 2060     		str	r0, [r4, #0]
 933              		.loc 1 318 0
 934 000a 83B0     		sub	sp, sp, #12
 935              	.LCFI14:
 936              		.cfi_def_cfa_offset 48
 937              		.loc 1 322 0
 938 000c 9948     		ldr	r0, .L157+8
 939              	.LVL69:
 940 000e FFF7FEFF 		bl	test_println
 941              	.LVL70:
 942              		.loc 1 323 0
 943 0012 9948     		ldr	r0, .L157+12
 944 0014 FFF7FEFF 		bl	test_println
 945              	.LVL71:
 946              		.loc 1 324 0
 947 0018 9848     		ldr	r0, .L157+16
 948 001a FFF7FEFF 		bl	test_println
 949              	.LVL72:
 950              		.loc 1 116 0
 951 001e 2A21     		movs	r1, #42
 952              	.LVL73:
 953              	.L85:
 954              	.LBB109:
 955              	.LBB110:
 956              		.loc 1 117 0
 957 0020 2068     		ldr	r0, [r4, #0]
 958 0022 0368     		ldr	r3, [r0, #0]
 959 0024 9B68     		ldr	r3, [r3, #8]
ARM GAS  /tmp/ccQ3RUNg.s 			page 18


 960 0026 9847     		blx	r3
 961              	.LVL74:
 962              		.loc 1 116 0
 963 0028 15F8011F 		ldrb	r1, [r5, #1]!	@ zero_extendqisi2
 964 002c 0029     		cmp	r1, #0
 965 002e F7D1     		bne	.L85
 966              	.LBE110:
 967              	.LBE109:
 968              		.loc 1 326 0
 969 0030 9348     		ldr	r0, .L157+20
 970 0032 944D     		ldr	r5, .L157+24
 971 0034 FFF7FEFF 		bl	test_println
 972              	.LVL75:
 973              		.loc 1 116 0
 974 0038 2A21     		movs	r1, #42
 975              	.LVL76:
 976              	.L87:
 977              	.LBB111:
 978              	.LBB112:
 979              		.loc 1 117 0
 980 003a 2068     		ldr	r0, [r4, #0]
 981 003c 0368     		ldr	r3, [r0, #0]
 982 003e 9B68     		ldr	r3, [r3, #8]
 983 0040 9847     		blx	r3
 984              	.LVL77:
 985              		.loc 1 116 0
 986 0042 15F8011F 		ldrb	r1, [r5, #1]!	@ zero_extendqisi2
 987 0046 0029     		cmp	r1, #0
 988 0048 F7D1     		bne	.L87
 989              	.LBE112:
 990              	.LBE111:
 991              		.loc 1 328 0
 992 004a 8F48     		ldr	r0, .L157+28
 993 004c 8F4D     		ldr	r5, .L157+32
 994 004e FFF7FEFF 		bl	test_println
 995              	.LVL78:
 996              		.loc 1 116 0
 997 0052 2A21     		movs	r1, #42
 998              	.LVL79:
 999              	.L89:
 1000              	.LBB113:
 1001              	.LBB114:
 1002              		.loc 1 117 0
 1003 0054 2068     		ldr	r0, [r4, #0]
 1004 0056 0368     		ldr	r3, [r0, #0]
 1005 0058 9B68     		ldr	r3, [r3, #8]
 1006 005a 9847     		blx	r3
 1007              	.LVL80:
 1008              		.loc 1 116 0
 1009 005c 15F8011F 		ldrb	r1, [r5, #1]!	@ zero_extendqisi2
 1010 0060 0029     		cmp	r1, #0
 1011 0062 F7D1     		bne	.L89
 1012              	.LBE114:
 1013              	.LBE113:
 1014              		.loc 1 331 0
 1015 0064 8A48     		ldr	r0, .L157+36
 1016 0066 8B4D     		ldr	r5, .L157+40
ARM GAS  /tmp/ccQ3RUNg.s 			page 19


 1017 0068 FFF7FEFF 		bl	test_println
 1018              	.LVL81:
 1019              		.loc 1 116 0
 1020 006c 2A21     		movs	r1, #42
 1021              	.LVL82:
 1022              	.L91:
 1023              	.LBB115:
 1024              	.LBB116:
 1025              		.loc 1 117 0
 1026 006e 2068     		ldr	r0, [r4, #0]
 1027 0070 0368     		ldr	r3, [r0, #0]
 1028 0072 9B68     		ldr	r3, [r3, #8]
 1029 0074 9847     		blx	r3
 1030              	.LVL83:
 1031              		.loc 1 116 0
 1032 0076 15F8011F 		ldrb	r1, [r5, #1]!	@ zero_extendqisi2
 1033 007a 0029     		cmp	r1, #0
 1034 007c F7D1     		bne	.L91
 1035              	.LBE116:
 1036              	.LBE115:
 1037              		.loc 1 334 0
 1038 007e 8648     		ldr	r0, .L157+44
 1039 0080 864D     		ldr	r5, .L157+48
 1040 0082 FFF7FEFF 		bl	test_println
 1041              	.LVL84:
 1042              		.loc 1 116 0
 1043 0086 2A21     		movs	r1, #42
 1044              	.LVL85:
 1045              	.L93:
 1046              	.LBB117:
 1047              	.LBB118:
 1048              		.loc 1 117 0
 1049 0088 2068     		ldr	r0, [r4, #0]
 1050 008a 0368     		ldr	r3, [r0, #0]
 1051 008c 9B68     		ldr	r3, [r3, #8]
 1052 008e 9847     		blx	r3
 1053              	.LVL86:
 1054              		.loc 1 116 0
 1055 0090 15F8011F 		ldrb	r1, [r5, #1]!	@ zero_extendqisi2
 1056 0094 0029     		cmp	r1, #0
 1057 0096 F7D1     		bne	.L93
 1058              	.LBE118:
 1059              	.LBE117:
 1060              		.loc 1 337 0
 1061 0098 8148     		ldr	r0, .L157+52
 1062 009a 824D     		ldr	r5, .L157+56
 1063 009c FFF7FEFF 		bl	test_println
 1064              	.LVL87:
 1065              		.loc 1 116 0
 1066 00a0 2A21     		movs	r1, #42
 1067              	.LVL88:
 1068              	.L95:
 1069              	.LBB119:
 1070              	.LBB120:
 1071              		.loc 1 117 0
 1072 00a2 2068     		ldr	r0, [r4, #0]
 1073 00a4 0368     		ldr	r3, [r0, #0]
ARM GAS  /tmp/ccQ3RUNg.s 			page 20


 1074 00a6 9B68     		ldr	r3, [r3, #8]
 1075 00a8 9847     		blx	r3
 1076              	.LVL89:
 1077              		.loc 1 116 0
 1078 00aa 15F8011F 		ldrb	r1, [r5, #1]!	@ zero_extendqisi2
 1079 00ae 0029     		cmp	r1, #0
 1080 00b0 F7D1     		bne	.L95
 1081              	.LBE120:
 1082              	.LBE119:
 1083              		.loc 1 341 0
 1084 00b2 7D48     		ldr	r0, .L157+60
 1085 00b4 7D4D     		ldr	r5, .L157+64
 1086 00b6 FFF7FEFF 		bl	test_println
 1087              	.LVL90:
 1088              		.loc 1 116 0
 1089 00ba 2A21     		movs	r1, #42
 1090              	.LVL91:
 1091              	.L97:
 1092              	.LBB121:
 1093              	.LBB122:
 1094              		.loc 1 117 0
 1095 00bc 2068     		ldr	r0, [r4, #0]
 1096 00be 0368     		ldr	r3, [r0, #0]
 1097 00c0 9B68     		ldr	r3, [r3, #8]
 1098 00c2 9847     		blx	r3
 1099              	.LVL92:
 1100              		.loc 1 116 0
 1101 00c4 15F8011F 		ldrb	r1, [r5, #1]!	@ zero_extendqisi2
 1102 00c8 0029     		cmp	r1, #0
 1103 00ca F7D1     		bne	.L97
 1104              	.LBE122:
 1105              	.LBE121:
 1106              		.loc 1 345 0
 1107 00cc 7848     		ldr	r0, .L157+68
 1108 00ce 794D     		ldr	r5, .L157+72
 1109 00d0 FFF7FEFF 		bl	test_println
 1110              	.LVL93:
 1111              		.loc 1 116 0
 1112 00d4 2A21     		movs	r1, #42
 1113              	.LVL94:
 1114              	.L99:
 1115              	.LBB123:
 1116              	.LBB124:
 1117              		.loc 1 117 0
 1118 00d6 2068     		ldr	r0, [r4, #0]
 1119 00d8 0368     		ldr	r3, [r0, #0]
 1120 00da 9B68     		ldr	r3, [r3, #8]
 1121 00dc 9847     		blx	r3
 1122              	.LVL95:
 1123              		.loc 1 116 0
 1124 00de 15F8011F 		ldrb	r1, [r5, #1]!	@ zero_extendqisi2
 1125 00e2 0029     		cmp	r1, #0
 1126 00e4 F7D1     		bne	.L99
 1127 00e6 744A     		ldr	r2, .L157+76
 1128              	.LBE124:
 1129              	.LBE123:
 1130              		.loc 1 349 0
ARM GAS  /tmp/ccQ3RUNg.s 			page 21


 1131 00e8 7448     		ldr	r0, .L157+80
 1132 00ea 0091     		str	r1, [sp, #0]
 1133 00ec 0192     		str	r2, [sp, #4]
 1134 00ee FFF7FEFF 		bl	test_println
 1135              	.LVL96:
 1136              		.loc 1 351 0
 1137 00f2 6048     		ldr	r0, .L157+8
 1138              	.LBB125:
 1139              	.LBB126:
 1140              	.LBB127:
 1141              	.LBB128:
 1142              		.loc 1 136 0
 1143 00f4 724E     		ldr	r6, .L157+84
 1144 00f6 DFF80092 		ldr	r9, .L157+140
 1145              	.LBE128:
 1146              	.LBE127:
 1147              	.LBE126:
 1148              	.LBE125:
 1149              		.loc 1 353 0
 1150 00fa 724F     		ldr	r7, .L157+88
 1151              		.loc 1 351 0
 1152 00fc FFF7FEFF 		bl	test_println
 1153              	.LVL97:
 1154              		.loc 1 353 0
 1155 0100 40F20003 		movw	r3, #:lower16:.LANCHOR4
 1156              		.loc 1 354 0
 1157 0104 0099     		ldr	r1, [sp, #0]
 1158              		.loc 1 353 0
 1159 0106 C0F20003 		movt	r3, #:upper16:.LANCHOR4
 1160              		.loc 1 354 0
 1161 010a 8A46     		mov	sl, r1
 1162              		.loc 1 353 0
 1163 010c 1960     		str	r1, [r3, #0]
 1164              	.LVL98:
 1165              	.L124:
 1166 010e 0AF1010A 		add	sl, sl, #1
 1167              		.loc 1 116 0 discriminator 1
 1168 0112 4FF00008 		mov	r8, #0
 1169              	.L153:
 1170              	.LVL99:
 1171              		.loc 1 357 0 discriminator 1
 1172 0116 57F8043B 		ldr	r3, [r7], #4
 1173 011a 002B     		cmp	r3, #0
 1174 011c 00F08580 		beq	.L155
 1175              	.L118:
 1176 0120 694D     		ldr	r5, .L157+92
 1177              		.loc 1 358 0
 1178 0122 FFF7FEFF 		bl	print_line
 1179              	.LVL100:
 1180              		.loc 1 116 0
 1181 0126 2D21     		movs	r1, #45
 1182              	.LVL101:
 1183              	.L101:
 1184              	.LBB134:
 1185              	.LBB135:
 1186              		.loc 1 117 0
 1187 0128 2068     		ldr	r0, [r4, #0]
ARM GAS  /tmp/ccQ3RUNg.s 			page 22


 1188 012a 0368     		ldr	r3, [r0, #0]
 1189 012c 9B68     		ldr	r3, [r3, #8]
 1190 012e 9847     		blx	r3
 1191              	.LVL102:
 1192              		.loc 1 116 0
 1193 0130 15F8011F 		ldrb	r1, [r5, #1]!	@ zero_extendqisi2
 1194 0134 0029     		cmp	r1, #0
 1195 0136 F7D1     		bne	.L101
 1196              	.LBE135:
 1197              	.LBE134:
 1198              		.loc 1 360 0
 1199 0138 5046     		mov	r0, sl
 1200 013a FFF7FEFF 		bl	test_printn
 1201              	.LVL103:
 1202              	.LBB136:
 1203              	.LBB137:
 1204              		.loc 1 117 0
 1205 013e 4B4B     		ldr	r3, .L157
 1206 0140 624D     		ldr	r5, .L157+96
 1207 0142 1868     		ldr	r0, [r3, #0]
 1208              	.LVL104:
 1209 0144 0368     		ldr	r3, [r0, #0]
 1210 0146 2E21     		movs	r1, #46
 1211 0148 9B68     		ldr	r3, [r3, #8]
 1212              	.LBE137:
 1213              	.LBE136:
 1214              		.loc 1 362 0
 1215 014a 08F10108 		add	r8, r8, #1
 1216              	.LVL105:
 1217              	.LBB139:
 1218              	.LBB138:
 1219              		.loc 1 117 0
 1220 014e 9847     		blx	r3
 1221              	.LVL106:
 1222              	.LBE138:
 1223              	.LBE139:
 1224              		.loc 1 362 0
 1225 0150 4046     		mov	r0, r8
 1226 0152 FFF7FEFF 		bl	test_printn
 1227              	.LVL107:
 1228              		.loc 1 116 0
 1229 0156 2021     		movs	r1, #32
 1230              	.LVL108:
 1231              	.L103:
 1232              	.LBB140:
 1233              	.LBB141:
 1234              		.loc 1 117 0
 1235 0158 2068     		ldr	r0, [r4, #0]
 1236 015a 0368     		ldr	r3, [r0, #0]
 1237 015c 9B68     		ldr	r3, [r3, #8]
 1238 015e 9847     		blx	r3
 1239              	.LVL109:
 1240              		.loc 1 116 0
 1241 0160 15F8011F 		ldrb	r1, [r5, #1]!	@ zero_extendqisi2
 1242 0164 0029     		cmp	r1, #0
 1243 0166 F7D1     		bne	.L103
 1244              	.LBE141:
ARM GAS  /tmp/ccQ3RUNg.s 			page 23


 1245              	.LBE140:
 1246              		.loc 1 364 0
 1247 0168 57F8043C 		ldr	r3, [r7, #-4]
 1248 016c 1D68     		ldr	r5, [r3, #0]
 1249              	.LVL110:
 1250              	.LBB142:
 1251              	.LBB143:
 1252              		.loc 1 116 0
 1253 016e 2978     		ldrb	r1, [r5, #0]	@ zero_extendqisi2
 1254 0170 39B1     		cbz	r1, .L108
 1255              	.LVL111:
 1256              	.L107:
 1257              		.loc 1 117 0
 1258 0172 2068     		ldr	r0, [r4, #0]
 1259 0174 0368     		ldr	r3, [r0, #0]
 1260 0176 9B68     		ldr	r3, [r3, #8]
 1261 0178 9847     		blx	r3
 1262              	.LVL112:
 1263              		.loc 1 116 0
 1264 017a 15F8011F 		ldrb	r1, [r5, #1]!	@ zero_extendqisi2
 1265 017e 0029     		cmp	r1, #0
 1266 0180 F7D1     		bne	.L107
 1267              	.L108:
 1268              	.LBE143:
 1269              	.LBE142:
 1270              		.loc 1 365 0
 1271 0182 5348     		ldr	r0, .L157+100
 1272              	.LBB144:
 1273              	.LBB131:
 1274              		.loc 1 291 0
 1275 0184 534D     		ldr	r5, .L157+104
 1276              	.LBE131:
 1277              	.LBE144:
 1278              		.loc 1 365 0
 1279 0186 FFF7FEFF 		bl	test_println
 1280              	.LVL113:
 1281              		.loc 1 367 0
 1282 018a C820     		movs	r0, #200
 1283 018c FFF7FEFF 		bl	chThdSleep
 1284              	.LVL114:
 1285              	.LBB145:
 1286              	.LBB132:
 1287              		.loc 1 293 0
 1288 0190 514A     		ldr	r2, .L157+108
 1289              	.LBE132:
 1290              	.LBE145:
 1291              		.loc 1 369 0
 1292 0192 57F804BC 		ldr	fp, [r7, #-4]
 1293              	.LVL115:
 1294              	.LBB146:
 1295              	.LBB133:
 1296              	.LBB130:
 1297              	.LBB129:
 1298              		.loc 1 136 0
 1299 0196 C6F80090 		str	r9, [r6, #0]
 1300              	.LBE129:
 1301              	.LBE130:
ARM GAS  /tmp/ccQ3RUNg.s 			page 24


 1302              		.loc 1 291 0
 1303 019a 0023     		movs	r3, #0
 1304              		.loc 1 293 0
 1305 019c 1360     		str	r3, [r2, #0]
 1306 019e 5360     		str	r3, [r2, #4]
 1307 01a0 9360     		str	r3, [r2, #8]
 1308 01a2 D360     		str	r3, [r2, #12]
 1309 01a4 1361     		str	r3, [r2, #16]
 1310              		.loc 1 295 0
 1311 01a6 DBF80420 		ldr	r2, [fp, #4]
 1312              		.loc 1 291 0
 1313 01aa 2B60     		str	r3, [r5, #0]
 1314              	.LVL116:
 1315              		.loc 1 295 0
 1316 01ac 02B1     		cbz	r2, .L106
 1317              		.loc 1 296 0
 1318 01ae 9047     		blx	r2
 1319              	.LVL117:
 1320              	.L106:
 1321              		.loc 1 297 0
 1322 01b0 DBF80C30 		ldr	r3, [fp, #12]
 1323 01b4 9847     		blx	r3
 1324              	.LVL118:
 1325              		.loc 1 298 0
 1326 01b6 DBF80830 		ldr	r3, [fp, #8]
 1327 01ba 03B1     		cbz	r3, .L109
 1328              		.loc 1 299 0
 1329 01bc 9847     		blx	r3
 1330              	.LVL119:
 1331              	.L109:
 1332              		.loc 1 301 0
 1333 01be FFF7FEFF 		bl	test_wait_threads
 1334              	.LVL120:
 1335              	.LBE133:
 1336              	.LBE146:
 1337              		.loc 1 370 0
 1338 01c2 2B68     		ldr	r3, [r5, #0]
 1339 01c4 002B     		cmp	r3, #0
 1340 01c6 00F0A180 		beq	.L110
 1341 01ca 444D     		ldr	r5, .L157+112
 1342              		.loc 1 116 0
 1343 01cc 2D21     		movs	r1, #45
 1344              	.L111:
 1345              	.LBB147:
 1346              	.LBB148:
 1347              		.loc 1 117 0
 1348 01ce 2068     		ldr	r0, [r4, #0]
 1349              	.LVL121:
 1350 01d0 0368     		ldr	r3, [r0, #0]
 1351 01d2 9B68     		ldr	r3, [r3, #8]
 1352 01d4 9847     		blx	r3
 1353              	.LVL122:
 1354              		.loc 1 116 0
 1355 01d6 15F8011F 		ldrb	r1, [r5, #1]!	@ zero_extendqisi2
 1356 01da 0029     		cmp	r1, #0
 1357 01dc F7D1     		bne	.L111
 1358              	.LBE148:
ARM GAS  /tmp/ccQ3RUNg.s 			page 25


 1359              	.LBE147:
 1360              		.loc 1 372 0
 1361 01de 404B     		ldr	r3, .L157+116
 1362 01e0 404D     		ldr	r5, .L157+120
 1363 01e2 1868     		ldr	r0, [r3, #0]
 1364 01e4 FFF7FEFF 		bl	test_printn
 1365              	.LVL123:
 1366              		.loc 1 116 0
 1367 01e8 2021     		movs	r1, #32
 1368              	.LVL124:
 1369              	.L113:
 1370              	.LBB149:
 1371              	.LBB150:
 1372              		.loc 1 117 0
 1373 01ea 2068     		ldr	r0, [r4, #0]
 1374 01ec 0368     		ldr	r3, [r0, #0]
 1375 01ee 9B68     		ldr	r3, [r3, #8]
 1376 01f0 9847     		blx	r3
 1377              	.LVL125:
 1378              		.loc 1 116 0
 1379 01f2 15F8011F 		ldrb	r1, [r5, #1]!	@ zero_extendqisi2
 1380 01f6 0029     		cmp	r1, #0
 1381 01f8 F7D1     		bne	.L113
 1382              	.LVL126:
 1383              	.LBE150:
 1384              	.LBE149:
 1385              	.LBB151:
 1386              	.LBB152:
 1387              		.loc 1 142 0
 1388 01fa 3368     		ldr	r3, [r6, #0]
 1389 01fc 4B45     		cmp	r3, r9
 1390              	.LBE152:
 1391              	.LBE151:
 1392              		.loc 1 318 0
 1393 01fe 88BF     		it	hi
 1394 0200 394D     		ldrhi	r5, .L157+124
 1395              	.LBB154:
 1396              	.LBB153:
 1397              		.loc 1 142 0
 1398 0202 0AD9     		bls	.L117
 1399              	.LVL127:
 1400              	.L116:
 1401              		.loc 1 143 0
 1402 0204 2068     		ldr	r0, [r4, #0]
 1403 0206 15F8011C 		ldrb	r1, [r5, #-1]	@ zero_extendqisi2
 1404 020a 0368     		ldr	r3, [r0, #0]
 1405 020c 9B68     		ldr	r3, [r3, #8]
 1406 020e 9847     		blx	r3
 1407              	.LVL128:
 1408              		.loc 1 142 0
 1409 0210 3368     		ldr	r3, [r6, #0]
 1410              		.loc 1 318 0
 1411 0212 2A46     		mov	r2, r5
 1412              	.LVL129:
 1413 0214 0135     		adds	r5, r5, #1
 1414              		.loc 1 142 0
 1415 0216 9A42     		cmp	r2, r3
ARM GAS  /tmp/ccQ3RUNg.s 			page 26


 1416 0218 F4D3     		bcc	.L116
 1417              	.LVL130:
 1418              	.L117:
 1419              	.LBE153:
 1420              	.LBE154:
 1421              		.loc 1 375 0
 1422 021a 3448     		ldr	r0, .L157+128
 1423 021c FFF7FEFF 		bl	test_println
 1424              	.LVL131:
 1425              		.loc 1 357 0
 1426 0220 57F8043B 		ldr	r3, [r7], #4
 1427 0224 002B     		cmp	r3, #0
 1428 0226 7FF47BAF 		bne	.L118
 1429              	.LVL132:
 1430              	.L155:
 1431              		.loc 1 355 0
 1432 022a 019A     		ldr	r2, [sp, #4]
 1433 022c 52F8047F 		ldr	r7, [r2, #4]!
 1434 0230 0192     		str	r2, [sp, #4]
 1435 0232 002F     		cmp	r7, #0
 1436 0234 7FF46BAF 		bne	.L124
 1437              		.loc 1 383 0
 1438 0238 FFF7FEFF 		bl	print_line
 1439              	.LVL133:
 1440 023c 2C4D     		ldr	r5, .L157+132
 1441              		.loc 1 384 0
 1442 023e 0D48     		ldr	r0, .L157+8
 1443 0240 FFF7FEFF 		bl	test_println
 1444              	.LVL134:
 1445              		.loc 1 116 0
 1446 0244 4621     		movs	r1, #70
 1447              	.LVL135:
 1448              	.L121:
 1449              	.LBB155:
 1450              	.LBB156:
 1451              		.loc 1 117 0
 1452 0246 2068     		ldr	r0, [r4, #0]
 1453 0248 0368     		ldr	r3, [r0, #0]
 1454 024a 9B68     		ldr	r3, [r3, #8]
 1455 024c 9847     		blx	r3
 1456              	.LVL136:
 1457              		.loc 1 116 0
 1458 024e 15F8011F 		ldrb	r1, [r5, #1]!	@ zero_extendqisi2
 1459 0252 0029     		cmp	r1, #0
 1460 0254 F7D1     		bne	.L121
 1461              	.LBE156:
 1462              	.LBE155:
 1463              		.loc 1 386 0
 1464 0256 40F20002 		movw	r2, #:lower16:.LANCHOR4
 1465 025a C0F20002 		movt	r2, #:upper16:.LANCHOR4
 1466 025e 1368     		ldr	r3, [r2, #0]
 1467 0260 002B     		cmp	r3, #0
 1468 0262 57D1     		bne	.L156
 1469              		.loc 1 389 0
 1470 0264 2348     		ldr	r0, .L157+136
 1471 0266 FFF7FEFF 		bl	test_println
 1472              	.LVL137:
ARM GAS  /tmp/ccQ3RUNg.s 			page 27


 1473 026a 47E0     		b	.L158
 1474              	.L159:
 1475              		.align	2
 1476              	.L157:
 1477 026c 00000000 		.word	.LANCHOR1
 1478 0270 28000000 		.word	.LC4
 1479 0274 04000000 		.word	.LC1
 1480 0278 08000000 		.word	.LC2
 1481 027c 24000000 		.word	.LC3
 1482 0280 90000000 		.word	.LC12
 1483 0284 A0000000 		.word	.LC13
 1484 0288 B4000000 		.word	.LC14
 1485 028c CC000000 		.word	.LC15
 1486 0290 E0000000 		.word	.LC16
 1487 0294 EC000000 		.word	.LC17
 1488 0298 00010000 		.word	.LC18
 1489 029c 0C010000 		.word	.LC19
 1490 02a0 20010000 		.word	.LC20
 1491 02a4 2C010000 		.word	.LC21
 1492 02a8 40010000 		.word	.LC22
 1493 02ac 58010000 		.word	.LC23
 1494 02b0 6C010000 		.word	.LC24
 1495 02b4 88010000 		.word	.LC25
 1496 02b8 00000000 		.word	.LANCHOR9
 1497 02bc 9C010000 		.word	.LC26
 1498 02c0 00000000 		.word	.LANCHOR2
 1499 02c4 00000000 		.word	patternthd
 1500 02c8 3C000000 		.word	.LC5
 1501 02cc B0010000 		.word	.LC27
 1502 02d0 4C000000 		.word	.LC6
 1503 02d4 00000000 		.word	.LANCHOR3
 1504 02d8 00000000 		.word	.LANCHOR7
 1505 02dc 50000000 		.word	.LC7
 1506 02e0 00000000 		.word	.LANCHOR5
 1507 02e4 B4010000 		.word	.LC28
 1508 02e8 01000000 		.word	.LANCHOR6+1
 1509 02ec 68000000 		.word	.LC8
 1510 02f0 B8010000 		.word	.LC29
 1511 02f4 88000000 		.word	.LC11
 1512 02f8 00000000 		.word	.LANCHOR6
 1513              	.L158:
 1514              	.L123:
 1515              		.loc 1 391 0
 1516 02fc 40F20003 		movw	r3, #:lower16:.LANCHOR4
 1517 0300 C0F20003 		movt	r3, #:upper16:.LANCHOR4
 1518 0304 1868     		ldr	r0, [r3, #0]
 1519              		.loc 1 392 0
 1520 0306 03B0     		add	sp, sp, #12
 1521 0308 BDE8F08F 		pop	{r4, r5, r6, r7, r8, r9, sl, fp, pc}
 1522              	.LVL138:
 1523              	.L110:
 1524              		.loc 1 378 0
 1525 030c 0348     		ldr	r0, .L160
 1526 030e FFF7FEFF 		bl	test_println
 1527              	.LVL139:
 1528 0312 00E7     		b	.L153
 1529              	.LVL140:
ARM GAS  /tmp/ccQ3RUNg.s 			page 28


 1530              	.L156:
 1531              		.loc 1 387 0
 1532 0314 0248     		ldr	r0, .L160+4
 1533 0316 FFF7FEFF 		bl	test_println
 1534              	.LVL141:
 1535 031a EFE7     		b	.L123
 1536              	.L161:
 1537              		.align	2
 1538              	.L160:
 1539 031c 6C000000 		.word	.LC9
 1540 0320 80000000 		.word	.LC10
 1541              		.cfi_endproc
 1542              	.LFE136:
 1543              		.size	TestThread, .-TestThread
 1544              		.global	test_timer_done
 1545              		.global	wa
 1546              		.global	threads
 1547              		.global	test
 1548 0324 AFF30080 		.section	.bss.test,"aw",%nobits
 1548      AFF30080 
 1548      AFF30080 
 1549              		.align	3
 1550              		.type	test, %object
 1551              		.size	test, 1520
 1552              	test:
 1553 0000 00000000 		.space	1520
 1553      00000000 
 1553      00000000 
 1553      00000000 
 1553      00000000 
 1554              		.section	.bss.failpoint,"aw",%nobits
 1555              		.align	2
 1556              		.set	.LANCHOR5,. + 0
 1557              		.type	failpoint, %object
 1558              		.size	failpoint, 4
 1559              	failpoint:
 1560 0000 00000000 		.space	4
 1561              		.section	.bss.local_fail,"aw",%nobits
 1562              		.align	2
 1563              		.set	.LANCHOR3,. + 0
 1564              		.type	local_fail, %object
 1565              		.size	local_fail, 4
 1566              	local_fail:
 1567 0000 00000000 		.space	4
 1568              		.section	.bss.test_timer_done,"aw",%nobits
 1569              		.align	2
 1570              		.set	.LANCHOR0,. + 0
 1571              		.type	test_timer_done, %object
 1572              		.size	test_timer_done, 4
 1573              	test_timer_done:
 1574 0000 00000000 		.space	4
 1575              		.section	.rodata.wa,"a",%progbits
 1576              		.align	2
 1577              		.type	wa, %object
 1578              		.size	wa, 20
 1579              	wa:
 1580 0000 00000000 		.word	test
ARM GAS  /tmp/ccQ3RUNg.s 			page 29


 1581 0004 30010000 		.word	test+304
 1582 0008 60020000 		.word	test+608
 1583 000c 90030000 		.word	test+912
 1584 0010 C0040000 		.word	test+1216
 1585              		.section	.bss.tokp,"aw",%nobits
 1586              		.align	2
 1587              		.set	.LANCHOR2,. + 0
 1588              		.type	tokp, %object
 1589              		.size	tokp, 4
 1590              	tokp:
 1591 0000 00000000 		.space	4
 1592              		.section	.bss.global_fail,"aw",%nobits
 1593              		.align	2
 1594              		.set	.LANCHOR4,. + 0
 1595              		.type	global_fail, %object
 1596              		.size	global_fail, 4
 1597              	global_fail:
 1598 0000 00000000 		.space	4
 1599              		.section	.rodata.str1.4,"aMS",%progbits,1
 1600              		.align	2
 1601              	.LC0:
 1602 0000 0D0A00   		.ascii	"\015\012\000"
 1603 0003 00       		.space	1
 1604              	.LC1:
 1605 0004 00       		.ascii	"\000"
 1606 0005 000000   		.space	3
 1607              	.LC2:
 1608 0008 2A2A2A20 		.ascii	"*** ChibiOS/RT test suite\000"
 1608      43686962 
 1608      694F532F 
 1608      52542074 
 1608      65737420 
 1609 0022 0000     		.space	2
 1610              	.LC3:
 1611 0024 2A2A2A00 		.ascii	"***\000"
 1612              	.LC4:
 1613 0028 2A2A2A20 		.ascii	"*** Kernel:       \000"
 1613      4B65726E 
 1613      656C3A20 
 1613      20202020 
 1613      202000
 1614 003b 00       		.space	1
 1615              	.LC5:
 1616 003c 2D2D2D20 		.ascii	"--- Test Case \000"
 1616      54657374 
 1616      20436173 
 1616      652000
 1617 004b 00       		.space	1
 1618              	.LC6:
 1619 004c 2900     		.ascii	")\000"
 1620 004e 0000     		.space	2
 1621              	.LC7:
 1622 0050 2D2D2D20 		.ascii	"--- Result: FAILURE (#\000"
 1622      52657375 
 1622      6C743A20 
 1622      4641494C 
 1622      55524520 
ARM GAS  /tmp/ccQ3RUNg.s 			page 30


 1623 0067 00       		.space	1
 1624              	.LC8:
 1625 0068 5D2900   		.ascii	"])\000"
 1626 006b 00       		.space	1
 1627              	.LC9:
 1628 006c 2D2D2D20 		.ascii	"--- Result: SUCCESS\000"
 1628      52657375 
 1628      6C743A20 
 1628      53554343 
 1628      45535300 
 1629              	.LC10:
 1630 0080 4641494C 		.ascii	"FAILURE\000"
 1630      55524500 
 1631              	.LC11:
 1632 0088 53554343 		.ascii	"SUCCESS\000"
 1632      45535300 
 1633              	.LC12:
 1634 0090 322E352E 		.ascii	"2.5.1unstable\000"
 1634      31756E73 
 1634      7461626C 
 1634      6500
 1635 009e 0000     		.space	2
 1636              	.LC13:
 1637 00a0 2A2A2A20 		.ascii	"*** Compiled:     \000"
 1637      436F6D70 
 1637      696C6564 
 1637      3A202020 
 1637      202000
 1638 00b3 00       		.space	1
 1639              	.LC14:
 1640 00b4 4A616E20 		.ascii	"Jan 15 2013 - 12:33:43\000"
 1640      31352032 
 1640      30313320 
 1640      2D203132 
 1640      3A33333A 
 1641 00cb 00       		.space	1
 1642              	.LC15:
 1643 00cc 2A2A2A20 		.ascii	"*** Compiler:     \000"
 1643      436F6D70 
 1643      696C6572 
 1643      3A202020 
 1643      202000
 1644 00df 00       		.space	1
 1645              	.LC16:
 1646 00e0 47434320 		.ascii	"GCC 4.7.2\000"
 1646      342E372E 
 1646      3200
 1647 00ea 0000     		.space	2
 1648              	.LC17:
 1649 00ec 2A2A2A20 		.ascii	"*** Architecture: \000"
 1649      41726368 
 1649      69746563 
 1649      74757265 
 1649      3A2000
 1650 00ff 00       		.space	1
 1651              	.LC18:
 1652 0100 41524D76 		.ascii	"ARMv7-ME\000"
ARM GAS  /tmp/ccQ3RUNg.s 			page 31


 1652      372D4D45 
 1652      00
 1653 0109 000000   		.space	3
 1654              	.LC19:
 1655 010c 2A2A2A20 		.ascii	"*** Core Variant: \000"
 1655      436F7265 
 1655      20566172 
 1655      69616E74 
 1655      3A2000
 1656 011f 00       		.space	1
 1657              	.LC20:
 1658 0120 436F7274 		.ascii	"Cortex-M4\000"
 1658      65782D4D 
 1658      3400
 1659 012a 0000     		.space	2
 1660              	.LC21:
 1661 012c 2A2A2A20 		.ascii	"*** Port Info:    \000"
 1661      506F7274 
 1661      20496E66 
 1661      6F3A2020 
 1661      202000
 1662 013f 00       		.space	1
 1663              	.LC22:
 1664 0140 41647661 		.ascii	"Advanced kernel mode\000"
 1664      6E636564 
 1664      206B6572 
 1664      6E656C20 
 1664      6D6F6465 
 1665 0155 000000   		.space	3
 1666              	.LC23:
 1667 0158 2A2A2A20 		.ascii	"*** Platform:     \000"
 1667      506C6174 
 1667      666F726D 
 1667      3A202020 
 1667      202000
 1668 016b 00       		.space	1
 1669              	.LC24:
 1670 016c 53544D33 		.ascii	"STM32F4xx High Performance\000"
 1670      32463478 
 1670      78204869 
 1670      67682050 
 1670      6572666F 
 1671 0187 00       		.space	1
 1672              	.LC25:
 1673 0188 2A2A2A20 		.ascii	"*** Test Board:   \000"
 1673      54657374 
 1673      20426F61 
 1673      72643A20 
 1673      202000
 1674 019b 00       		.space	1
 1675              	.LC26:
 1676 019c 4F6C696D 		.ascii	"Olimex STM32-E407\000"
 1676      65782053 
 1676      544D3332 
 1676      2D453430 
 1676      3700
 1677 01ae 0000     		.space	2
ARM GAS  /tmp/ccQ3RUNg.s 			page 32


 1678              	.LC27:
 1679 01b0 202800   		.ascii	" (\000"
 1680 01b3 00       		.space	1
 1681              	.LC28:
 1682 01b4 205B00   		.ascii	" [\000"
 1683 01b7 00       		.space	1
 1684              	.LC29:
 1685 01b8 46696E61 		.ascii	"Final result: \000"
 1685      6C207265 
 1685      73756C74 
 1685      3A2000
 1686 01c7 00       		.section	.bss.vt,"aw",%nobits
 1687              		.align	2
 1688              		.set	.LANCHOR8,. + 0
 1689              		.type	vt, %object
 1690              		.size	vt, 20
 1691              	vt:
 1692 0000 00000000 		.space	20
 1692      00000000 
 1692      00000000 
 1692      00000000 
 1692      00000000 
 1693              		.section	.bss.threads,"aw",%nobits
 1694              		.align	2
 1695              		.set	.LANCHOR7,. + 0
 1696              		.type	threads, %object
 1697              		.size	threads, 20
 1698              	threads:
 1699 0000 00000000 		.space	20
 1699      00000000 
 1699      00000000 
 1699      00000000 
 1699      00000000 
 1700              		.section	.rodata.patterns,"a",%progbits
 1701              		.align	2
 1702              		.set	.LANCHOR9,. + 0
 1703              		.type	patterns, %object
 1704              		.size	patterns, 48
 1705              	patterns:
 1706 0000 00000000 		.word	patternthd
 1707 0004 00000000 		.word	patternsem
 1708 0008 00000000 		.word	patternmtx
 1709 000c 00000000 		.word	patternmsg
 1710 0010 00000000 		.word	patternmbox
 1711 0014 00000000 		.word	patternevt
 1712 0018 00000000 		.word	patternheap
 1713 001c 00000000 		.word	patternpools
 1714 0020 00000000 		.word	patterndyn
 1715 0024 00000000 		.word	patternqueues
 1716 0028 00000000 		.word	patternbmk
 1717 002c 00000000 		.word	0
 1718              		.section	.bss.chp,"aw",%nobits
 1719              		.align	2
 1720              		.set	.LANCHOR1,. + 0
 1721              		.type	chp, %object
 1722              		.size	chp, 4
 1723              	chp:
ARM GAS  /tmp/ccQ3RUNg.s 			page 33


 1724 0000 00000000 		.space	4
 1725              		.section	.bss.tokens_buffer,"aw",%nobits
 1726              		.align	2
 1727              		.set	.LANCHOR6,. + 0
 1728              		.type	tokens_buffer, %object
 1729              		.size	tokens_buffer, 16
 1730              	tokens_buffer:
 1731 0000 00000000 		.space	16
 1731      00000000 
 1731      00000000 
 1731      00000000 
 1732              		.text
 1733              	.Letext0:
 1734              		.file 2 "/opt/psas/x-tools/stm32f407/arm-psas-eabi/bin/../lib/gcc/arm-psas-eabi/4.7.2/include/stdd
 1735              		.file 3 "/opt/psas/x-tools/stm32f407/arm-psas-eabi/bin/../lib/gcc/arm-psas-eabi/4.7.2/../../../../
 1736              		.file 4 "../../os/ports/GCC/ARMCMx/chtypes.h"
 1737              		.file 5 "../../os/kernel/include/chlists.h"
 1738              		.file 6 "../../os/kernel/include/chthreads.h"
 1739              		.file 7 "../../os/ports/GCC/ARMCMx/chcore_v7m.h"
 1740              		.file 8 "../../os/kernel/include/chvt.h"
 1741              		.file 9 "../../os/kernel/include/chschd.h"
 1742              		.file 10 "../../os/kernel/include/chmtx.h"
 1743              		.file 11 "../../os/kernel/include/chstreams.h"
 1744              		.file 12 "../../test/test.h"
 1745              		.file 13 "../../os/ports/common/ARMCMx/CMSIS/include/core_cm4.h"
 1746              		.file 14 "../../test/testthd.h"
 1747              		.file 15 "../../test/testsem.h"
 1748              		.file 16 "../../test/testmtx.h"
 1749              		.file 17 "../../test/testmsg.h"
 1750              		.file 18 "../../test/testmbox.h"
 1751              		.file 19 "../../test/testevt.h"
 1752              		.file 20 "../../test/testheap.h"
 1753              		.file 21 "../../test/testpools.h"
 1754              		.file 22 "../../test/testdyn.h"
 1755              		.file 23 "../../test/testqueues.h"
 1756              		.file 24 "../../test/testbmk.h"