ARM GAS  /tmp/ccCPaF2U.s 			page 1


   1              		.syntax unified
   2              		.cpu cortex-m4
   3              		.eabi_attribute 27, 3
   4              		.eabi_attribute 28, 1
   5              		.fpu fpv4-sp-d16
   6              		.eabi_attribute 20, 1
   7              		.eabi_attribute 21, 1
   8              		.eabi_attribute 23, 3
   9              		.eabi_attribute 24, 1
  10              		.eabi_attribute 25, 1
  11              		.eabi_attribute 26, 1
  12              		.eabi_attribute 30, 2
  13              		.eabi_attribute 34, 1
  14              		.eabi_attribute 18, 4
  15              		.thumb
  16              		.file	"testdyn.c"
  17              		.text
  18              	.Ltext0:
  19              		.cfi_sections	.debug_frame
  20              		.section	.text.regfind,"ax",%progbits
  21              		.align	2
  22              		.p2align 4,,15
  23              		.thumb
  24              		.thumb_func
  25              		.type	regfind, %function
  26              	regfind:
  27              	.LFB12:
  28              		.file 1 "../../test/testdyn.c"
  29              		.loc 1 195 0
  30              		.cfi_startproc
  31              		@ args = 0, pretend = 0, frame = 0
  32              		@ frame_needed = 0, uses_anonymous_args = 0
  33              	.LVL0:
  34 0000 38B5     		push	{r3, r4, r5, lr}
  35              	.LCFI0:
  36              		.cfi_def_cfa_offset 16
  37              		.cfi_offset 3, -16
  38              		.cfi_offset 4, -12
  39              		.cfi_offset 5, -8
  40              		.cfi_offset 14, -4
  41              		.loc 1 195 0
  42 0002 0546     		mov	r5, r0
  43              		.loc 1 199 0
  44 0004 FFF7FEFF 		bl	chRegFirstThread
  45              	.LVL1:
  46              		.loc 1 197 0
  47 0008 0024     		movs	r4, #0
  48              		.loc 1 199 0
  49 000a 0346     		mov	r3, r0
  50              	.LVL2:
  51              	.L2:
  52              		.loc 1 202 0 discriminator 1
  53 000c 1846     		mov	r0, r3
  54              		.loc 1 201 0 discriminator 1
  55 000e AB42     		cmp	r3, r5
  56 0010 08BF     		it	eq
  57 0012 44F00104 		orreq	r4, r4, #1
ARM GAS  /tmp/ccCPaF2U.s 			page 2


  58              	.LVL3:
  59              		.loc 1 202 0 discriminator 1
  60 0016 FFF7FEFF 		bl	chRegNextThread
  61              	.LVL4:
  62              		.loc 1 203 0 discriminator 1
  63 001a 0346     		mov	r3, r0
  64 001c 0028     		cmp	r0, #0
  65 001e F5D1     		bne	.L2
  66              		.loc 1 205 0
  67 0020 2046     		mov	r0, r4
  68              	.LVL5:
  69 0022 38BD     		pop	{r3, r4, r5, pc}
  70              		.cfi_endproc
  71              	.LFE12:
  72              		.size	regfind, .-regfind
  73 0024 AFF30080 		.section	.text.dyn3_execute,"ax",%progbits
  73      AFF30080 
  73      AFF30080 
  74              		.align	2
  75              		.p2align 4,,15
  76              		.thumb
  77              		.thumb_func
  78              		.type	dyn3_execute, %function
  79              	dyn3_execute:
  80              	.LFB14:
  81              		.loc 1 212 0
  82              		.cfi_startproc
  83              		@ args = 0, pretend = 0, frame = 0
  84              		@ frame_needed = 0, uses_anonymous_args = 0
  85              	.LVL6:
  86 0000 10B5     		push	{r4, lr}
  87              	.LCFI1:
  88              		.cfi_def_cfa_offset 8
  89              		.cfi_offset 4, -8
  90              		.cfi_offset 14, -4
  91              		.loc 1 214 0
  92 0002 4A4B     		ldr	r3, .L10
  93              		.loc 1 217 0
  94 0004 4A49     		ldr	r1, .L10+4
  95              		.loc 1 214 0
  96 0006 9B69     		ldr	r3, [r3, #24]
  97              		.loc 1 217 0
  98 0008 4A48     		ldr	r0, .L10+8
  99 000a 9A68     		ldr	r2, [r3, #8]
 100 000c 4A4B     		ldr	r3, .L10+12
 101              		.loc 1 212 0
 102 000e 82B0     		sub	sp, sp, #8
 103              	.LCFI2:
 104              		.cfi_def_cfa_offset 16
 105              		.loc 1 217 0
 106 0010 013A     		subs	r2, r2, #1
 107 0012 0091     		str	r1, [sp, #0]
 108 0014 4FF49871 		mov	r1, #304
 109 0018 FFF7FEFF 		bl	chThdCreateFromHeap
 110              	.LVL7:
 111 001c 0446     		mov	r4, r0
 112              	.LVL8:
ARM GAS  /tmp/ccCPaF2U.s 			page 3


 113              		.loc 1 218 0
 114 001e 0120     		movs	r0, #1
 115              	.LVL9:
 116 0020 A17F     		ldrb	r1, [r4, #30]	@ zero_extendqisi2
 117 0022 B1EB000C 		subs	ip, r1, r0
 118 0026 DCF10001 		rsbs	r1, ip, #0
 119 002a 51EB0C01 		adcs	r1, r1, ip
 120 002e FFF7FEFF 		bl	_test_assert
 121              	.LVL10:
 122 0032 08B1     		cbz	r0, .L9
 123              	.L5:
 124              		.loc 1 240 0
 125 0034 02B0     		add	sp, sp, #8
 126 0036 10BD     		pop	{r4, pc}
 127              	.L9:
 128              		.loc 1 219 0
 129 0038 2046     		mov	r0, r4
 130 003a FFF7FEFF 		bl	chThdAddRef
 131              	.LVL11:
 132              		.loc 1 220 0
 133 003e A17F     		ldrb	r1, [r4, #30]	@ zero_extendqisi2
 134 0040 0220     		movs	r0, #2
 135 0042 B1EB000E 		subs	lr, r1, r0
 136 0046 DEF10001 		rsbs	r1, lr, #0
 137 004a 51EB0E01 		adcs	r1, r1, lr
 138 004e FFF7FEFF 		bl	_test_assert
 139              	.LVL12:
 140 0052 0028     		cmp	r0, #0
 141 0054 EED1     		bne	.L5
 142              		.loc 1 221 0
 143 0056 2046     		mov	r0, r4
 144 0058 FFF7FEFF 		bl	chThdRelease
 145              	.LVL13:
 146              		.loc 1 222 0
 147 005c A17F     		ldrb	r1, [r4, #30]	@ zero_extendqisi2
 148 005e 0320     		movs	r0, #3
 149 0060 4A1E     		subs	r2, r1, #1
 150 0062 5142     		rsbs	r1, r2, #0
 151 0064 5141     		adcs	r1, r1, r2
 152 0066 FFF7FEFF 		bl	_test_assert
 153              	.LVL14:
 154 006a 0028     		cmp	r0, #0
 155 006c E2D1     		bne	.L5
 156              		.loc 1 225 0
 157 006e 2046     		mov	r0, r4
 158 0070 FFF7FEFF 		bl	regfind
 159              	.LVL15:
 160 0074 0146     		mov	r1, r0
 161 0076 0420     		movs	r0, #4
 162 0078 FFF7FEFF 		bl	_test_assert
 163              	.LVL16:
 164 007c 0028     		cmp	r0, #0
 165 007e D9D1     		bne	.L5
 166              		.loc 1 226 0
 167 0080 2046     		mov	r0, r4
 168 0082 FFF7FEFF 		bl	regfind
 169              	.LVL17:
ARM GAS  /tmp/ccCPaF2U.s 			page 4


 170 0086 0146     		mov	r1, r0
 171 0088 0520     		movs	r0, #5
 172 008a FFF7FEFF 		bl	_test_assert
 173              	.LVL18:
 174 008e 0028     		cmp	r0, #0
 175 0090 D0D1     		bne	.L5
 176              		.loc 1 229 0
 177 0092 2046     		mov	r0, r4
 178 0094 FFF7FEFF 		bl	chThdRelease
 179              	.LVL19:
 180              		.loc 1 230 0
 181 0098 A17F     		ldrb	r1, [r4, #30]	@ zero_extendqisi2
 182 009a 0620     		movs	r0, #6
 183 009c D1F10101 		rsbs	r1, r1, #1
 184 00a0 38BF     		it	cc
 185 00a2 0021     		movcc	r1, #0
 186 00a4 FFF7FEFF 		bl	_test_assert
 187              	.LVL20:
 188 00a8 0028     		cmp	r0, #0
 189 00aa C3D1     		bne	.L5
 190              		.loc 1 231 0
 191 00ac 217F     		ldrb	r1, [r4, #28]	@ zero_extendqisi2
 192 00ae 0720     		movs	r0, #7
 193 00b0 D1F10101 		rsbs	r1, r1, #1
 194 00b4 38BF     		it	cc
 195 00b6 0021     		movcc	r1, #0
 196 00b8 FFF7FEFF 		bl	_test_assert
 197              	.LVL21:
 198 00bc 0028     		cmp	r0, #0
 199 00be B9D1     		bne	.L5
 200              		.loc 1 232 0
 201 00c0 2046     		mov	r0, r4
 202 00c2 FFF7FEFF 		bl	regfind
 203              	.LVL22:
 204 00c6 0146     		mov	r1, r0
 205 00c8 0820     		movs	r0, #8
 206 00ca FFF7FEFF 		bl	_test_assert
 207              	.LVL23:
 208 00ce 0028     		cmp	r0, #0
 209 00d0 B0D1     		bne	.L5
 210              		.loc 1 233 0
 211 00d2 2046     		mov	r0, r4
 212 00d4 FFF7FEFF 		bl	regfind
 213              	.LVL24:
 214 00d8 0146     		mov	r1, r0
 215 00da 0920     		movs	r0, #9
 216 00dc FFF7FEFF 		bl	_test_assert
 217              	.LVL25:
 218 00e0 0028     		cmp	r0, #0
 219 00e2 A7D1     		bne	.L5
 220              		.loc 1 234 0
 221 00e4 3220     		movs	r0, #50
 222 00e6 FFF7FEFF 		bl	chThdSleep
 223              	.LVL26:
 224              		.loc 1 235 0
 225 00ea 217F     		ldrb	r1, [r4, #28]	@ zero_extendqisi2
 226 00ec 0A20     		movs	r0, #10
ARM GAS  /tmp/ccCPaF2U.s 			page 5


 227 00ee B1F10E03 		subs	r3, r1, #14
 228 00f2 5942     		rsbs	r1, r3, #0
 229 00f4 5941     		adcs	r1, r1, r3
 230 00f6 FFF7FEFF 		bl	_test_assert
 231              	.LVL27:
 232 00fa 0028     		cmp	r0, #0
 233 00fc 9AD1     		bne	.L5
 234              		.loc 1 238 0
 235 00fe 2046     		mov	r0, r4
 236 0100 FFF7FEFF 		bl	regfind
 237              	.LVL28:
 238 0104 0146     		mov	r1, r0
 239 0106 0B20     		movs	r0, #11
 240 0108 FFF7FEFF 		bl	_test_assert
 241              	.LVL29:
 242 010c 0028     		cmp	r0, #0
 243 010e 91D1     		bne	.L5
 244              		.loc 1 239 0
 245 0110 2046     		mov	r0, r4
 246 0112 FFF7FEFF 		bl	regfind
 247              	.LVL30:
 248 0116 D0F10101 		rsbs	r1, r0, #1
 249 011a 38BF     		it	cc
 250 011c 0021     		movcc	r1, #0
 251 011e 0C20     		movs	r0, #12
 252              		.loc 1 240 0
 253 0120 02B0     		add	sp, sp, #8
 254 0122 BDE81040 		pop	{r4, lr}
 255              		.loc 1 239 0
 256 0126 FFF7FEBF 		b	_test_assert
 257              	.LVL31:
 258              	.L11:
 259 012a 00BF     		.align	2
 260              	.L10:
 261 012c 00000000 		.word	rlist
 262 0130 00000000 		.word	.LC0
 263 0134 00000000 		.word	.LANCHOR0
 264 0138 00000000 		.word	thread
 265              		.cfi_endproc
 266              	.LFE14:
 267              		.size	dyn3_execute, .-dyn3_execute
 268 013c AFF30080 		.section	.text.thread,"ax",%progbits
 269              		.align	2
 270              		.p2align 4,,15
 271              		.thumb
 272              		.thumb_func
 273              		.type	thread, %function
 274              	thread:
 275              	.LFB7:
 276              		.loc 1 75 0
 277              		.cfi_startproc
 278              		@ args = 0, pretend = 0, frame = 0
 279              		@ frame_needed = 0, uses_anonymous_args = 0
 280              	.LVL32:
 281 0000 08B5     		push	{r3, lr}
 282              	.LCFI3:
 283              		.cfi_def_cfa_offset 8
ARM GAS  /tmp/ccCPaF2U.s 			page 6


 284              		.cfi_offset 3, -8
 285              		.cfi_offset 14, -4
 286              		.loc 1 77 0
 287 0002 0078     		ldrb	r0, [r0, #0]	@ zero_extendqisi2
 288              	.LVL33:
 289 0004 FFF7FEFF 		bl	test_emit_token
 290              	.LVL34:
 291              		.loc 1 79 0
 292 0008 0020     		movs	r0, #0
 293 000a 08BD     		pop	{r3, pc}
 294              		.cfi_endproc
 295              	.LFE7:
 296              		.size	thread, .-thread
 297 000c AFF30080 		.section	.text.dyn3_setup,"ax",%progbits
 298              		.align	2
 299              		.p2align 4,,15
 300              		.thumb
 301              		.thumb_func
 302              		.type	dyn3_setup, %function
 303              	dyn3_setup:
 304              	.LFB13:
 305              		.loc 1 207 0
 306              		.cfi_startproc
 307              		@ args = 0, pretend = 0, frame = 0
 308              		@ frame_needed = 0, uses_anonymous_args = 0
 309              		@ link register save eliminated.
 310              		.loc 1 209 0
 311 0000 40F20000 		movw	r0, #:lower16:.LANCHOR0
 312 0004 40F20001 		movw	r1, #:lower16:test
 313 0008 C0F20000 		movt	r0, #:upper16:.LANCHOR0
 314 000c C0F20001 		movt	r1, #:upper16:test
 315 0010 4FF4BE62 		mov	r2, #1520
 316              		.loc 1 210 0
 317              		.loc 1 209 0
 318 0014 FFF7FEBF 		b	chHeapInit
 319              	.LVL35:
 320              		.cfi_endproc
 321              	.LFE13:
 322              		.size	dyn3_setup, .-dyn3_setup
 323 0018 AFF30080 		.section	.text.dyn1_setup,"ax",%progbits
 323      AFF30080 
 324              		.align	2
 325              		.p2align 4,,15
 326              		.thumb
 327              		.thumb_func
 328              		.type	dyn1_setup, %function
 329              	dyn1_setup:
 330              	.LFB8:
 331              		.loc 1 82 0
 332              		.cfi_startproc
 333              		@ args = 0, pretend = 0, frame = 0
 334              		@ frame_needed = 0, uses_anonymous_args = 0
 335              		@ link register save eliminated.
 336              		.loc 1 84 0
 337 0000 40F20000 		movw	r0, #:lower16:.LANCHOR0
 338 0004 40F20001 		movw	r1, #:lower16:test
 339 0008 C0F20000 		movt	r0, #:upper16:.LANCHOR0
ARM GAS  /tmp/ccCPaF2U.s 			page 7


 340 000c C0F20001 		movt	r1, #:upper16:test
 341 0010 4FF4BE62 		mov	r2, #1520
 342              		.loc 1 85 0
 343              		.loc 1 84 0
 344 0014 FFF7FEBF 		b	chHeapInit
 345              	.LVL36:
 346              		.cfi_endproc
 347              	.LFE8:
 348              		.size	dyn1_setup, .-dyn1_setup
 349 0018 AFF30080 		.section	.text.dyn2_execute,"ax",%progbits
 349      AFF30080 
 350              		.align	2
 351              		.p2align 4,,15
 352              		.thumb
 353              		.thumb_func
 354              		.type	dyn2_execute, %function
 355              	dyn2_execute:
 356              	.LFB11:
 357              		.loc 1 145 0
 358              		.cfi_startproc
 359              		@ args = 0, pretend = 0, frame = 0
 360              		@ frame_needed = 0, uses_anonymous_args = 0
 361              		.loc 1 147 0
 362 0000 324B     		ldr	r3, .L29
 363 0002 9B69     		ldr	r3, [r3, #24]
 364              		.loc 1 145 0
 365 0004 70B5     		push	{r4, r5, r6, lr}
 366              	.LCFI4:
 367              		.cfi_def_cfa_offset 16
 368              		.cfi_offset 4, -16
 369              		.cfi_offset 5, -12
 370              		.cfi_offset 6, -8
 371              		.cfi_offset 14, -4
 372 0006 324C     		ldr	r4, .L29+4
 373              		.loc 1 147 0
 374 0008 9D68     		ldr	r5, [r3, #8]
 375              	.LVL37:
 376              		.loc 1 145 0
 377 000a 04F11006 		add	r6, r4, #16
 378              	.LVL38:
 379              	.L16:
 380              		.loc 1 151 0 discriminator 2
 381 000e 54F8041F 		ldr	r1, [r4, #4]!
 382 0012 3048     		ldr	r0, .L29+8
 383 0014 FFF7FEFF 		bl	chPoolFree
 384              	.LVL39:
 385              		.loc 1 150 0 discriminator 2
 386 0018 B442     		cmp	r4, r6
 387 001a F8D1     		bne	.L16
 388              		.loc 1 154 0
 389 001c 691E     		subs	r1, r5, #1
 390 001e 2E4A     		ldr	r2, .L29+12
 391 0020 2E4B     		ldr	r3, .L29+16
 392 0022 2C48     		ldr	r0, .L29+8
 393 0024 2E4C     		ldr	r4, .L29+20
 394 0026 FFF7FEFF 		bl	chThdCreateFromMemoryPool
 395              	.LVL40:
ARM GAS  /tmp/ccCPaF2U.s 			page 8


 396              		.loc 1 155 0
 397 002a A91E     		subs	r1, r5, #2
 398              		.loc 1 154 0
 399 002c 2060     		str	r0, [r4, #0]
 400              		.loc 1 155 0
 401 002e 2A4A     		ldr	r2, .L29+12
 402 0030 2C4B     		ldr	r3, .L29+24
 403 0032 2848     		ldr	r0, .L29+8
 404 0034 FFF7FEFF 		bl	chThdCreateFromMemoryPool
 405              	.LVL41:
 406              		.loc 1 156 0
 407 0038 E91E     		subs	r1, r5, #3
 408              		.loc 1 155 0
 409 003a 6060     		str	r0, [r4, #4]
 410              		.loc 1 156 0
 411 003c 264A     		ldr	r2, .L29+12
 412 003e 2A4B     		ldr	r3, .L29+28
 413 0040 2448     		ldr	r0, .L29+8
 414 0042 FFF7FEFF 		bl	chThdCreateFromMemoryPool
 415              	.LVL42:
 416              		.loc 1 157 0
 417 0046 291F     		subs	r1, r5, #4
 418              		.loc 1 156 0
 419 0048 A060     		str	r0, [r4, #8]
 420              		.loc 1 157 0
 421 004a 234A     		ldr	r2, .L29+12
 422 004c 274B     		ldr	r3, .L29+32
 423 004e 2148     		ldr	r0, .L29+8
 424 0050 FFF7FEFF 		bl	chThdCreateFromMemoryPool
 425              	.LVL43:
 426              		.loc 1 158 0
 427 0054 691F     		subs	r1, r5, #5
 428              		.loc 1 157 0
 429 0056 E060     		str	r0, [r4, #12]
 430              		.loc 1 158 0
 431 0058 1F4A     		ldr	r2, .L29+12
 432 005a 1E48     		ldr	r0, .L29+8
 433 005c 244B     		ldr	r3, .L29+36
 434 005e FFF7FEFF 		bl	chThdCreateFromMemoryPool
 435              	.LVL44:
 436              		.loc 1 160 0
 437 0062 2168     		ldr	r1, [r4, #0]
 438              		.loc 1 158 0
 439 0064 2061     		str	r0, [r4, #16]
 440              		.loc 1 160 0
 441 0066 49B1     		cbz	r1, .L17
 442              		.loc 1 160 0 is_stmt 0 discriminator 1
 443 0068 6168     		ldr	r1, [r4, #4]
 444 006a 39B1     		cbz	r1, .L17
 445              		.loc 1 160 0 discriminator 3
 446 006c A168     		ldr	r1, [r4, #8]
 447 006e 29B1     		cbz	r1, .L17
 448              		.loc 1 160 0 discriminator 4
 449 0070 E168     		ldr	r1, [r4, #12]
 450 0072 19B1     		cbz	r1, .L17
 451              		.loc 1 160 0 discriminator 5
 452 0074 D0F10101 		rsbs	r1, r0, #1
ARM GAS  /tmp/ccCPaF2U.s 			page 9


 453 0078 38BF     		it	cc
 454 007a 0021     		movcc	r1, #0
 455              	.L17:
 456              		.loc 1 160 0 discriminator 7
 457 007c 0120     		movs	r0, #1
 458 007e FFF7FEFF 		bl	_test_assert
 459              	.LVL45:
 460 0082 00B1     		cbz	r0, .L28
 461              	.L15:
 462 0084 70BD     		pop	{r4, r5, r6, pc}
 463              	.L28:
 464              		.loc 1 168 0 is_stmt 1
 465 0086 FFF7FEFF 		bl	test_wait_threads
 466              	.LVL46:
 467              		.loc 1 169 0
 468 008a 0220     		movs	r0, #2
 469 008c 1949     		ldr	r1, .L29+40
 470 008e FFF7FEFF 		bl	_test_assert_sequence
 471              	.LVL47:
 472 0092 0028     		cmp	r0, #0
 473 0094 F6D1     		bne	.L15
 474 0096 0424     		movs	r4, #4
 475              	.L21:
 476              		.loc 1 173 0
 477 0098 0E48     		ldr	r0, .L29+8
 478 009a FFF7FEFF 		bl	chPoolAlloc
 479              	.LVL48:
 480 009e 011C     		adds	r1, r0, #0
 481 00a0 18BF     		it	ne
 482 00a2 0121     		movne	r1, #1
 483 00a4 0320     		movs	r0, #3
 484 00a6 FFF7FEFF 		bl	_test_assert
 485              	.LVL49:
 486 00aa 0028     		cmp	r0, #0
 487 00ac EAD1     		bne	.L15
 488              		.loc 1 172 0
 489 00ae 013C     		subs	r4, r4, #1
 490 00b0 F2D1     		bne	.L21
 491              		.loc 1 174 0
 492 00b2 0848     		ldr	r0, .L29+8
 493 00b4 FFF7FEFF 		bl	chPoolAlloc
 494              	.LVL50:
 495 00b8 D0F10101 		rsbs	r1, r0, #1
 496 00bc 38BF     		it	cc
 497 00be 0021     		movcc	r1, #0
 498 00c0 0420     		movs	r0, #4
 499              		.loc 1 175 0
 500 00c2 BDE87040 		pop	{r4, r5, r6, lr}
 501              		.loc 1 174 0
 502 00c6 FFF7FEBF 		b	_test_assert
 503              	.LVL51:
 504              	.L30:
 505 00ca 00BF     		.align	2
 506              	.L29:
 507 00cc 00000000 		.word	rlist
 508 00d0 FCFFFFFF 		.word	wa-4
 509 00d4 00000000 		.word	.LANCHOR1
ARM GAS  /tmp/ccCPaF2U.s 			page 10


 510 00d8 00000000 		.word	thread
 511 00dc 00000000 		.word	.LC0
 512 00e0 00000000 		.word	threads
 513 00e4 04000000 		.word	.LC1
 514 00e8 08000000 		.word	.LC2
 515 00ec 0C000000 		.word	.LC3
 516 00f0 10000000 		.word	.LC4
 517 00f4 14000000 		.word	.LC5
 518              		.cfi_endproc
 519              	.LFE11:
 520              		.size	dyn2_execute, .-dyn2_execute
 521 00f8 AFF30080 		.section	.text.dyn2_setup,"ax",%progbits
 521      AFF30080 
 522              		.align	2
 523              		.p2align 4,,15
 524              		.thumb
 525              		.thumb_func
 526              		.type	dyn2_setup, %function
 527              	dyn2_setup:
 528              	.LFB10:
 529              		.loc 1 140 0
 530              		.cfi_startproc
 531              		@ args = 0, pretend = 0, frame = 0
 532              		@ frame_needed = 0, uses_anonymous_args = 0
 533              		@ link register save eliminated.
 534              		.loc 1 142 0
 535 0000 40F20000 		movw	r0, #:lower16:.LANCHOR1
 536 0004 C0F20000 		movt	r0, #:upper16:.LANCHOR1
 537 0008 4FF49871 		mov	r1, #304
 538 000c 0022     		movs	r2, #0
 539              		.loc 1 143 0
 540              		.loc 1 142 0
 541 000e FFF7FEBF 		b	chPoolInit
 542              	.LVL52:
 543              		.cfi_endproc
 544              	.LFE10:
 545              		.size	dyn2_setup, .-dyn2_setup
 546 0012 00BFAFF3 		.section	.text.dyn1_execute,"ax",%progbits
 546      0080AFF3 
 546      0080AFF3 
 546      0080
 547              		.align	2
 548              		.p2align 4,,15
 549              		.thumb
 550              		.thumb_func
 551              		.type	dyn1_execute, %function
 552              	dyn1_execute:
 553              	.LFB9:
 554              		.loc 1 87 0
 555              		.cfi_startproc
 556              		@ args = 0, pretend = 0, frame = 8
 557              		@ frame_needed = 0, uses_anonymous_args = 0
 558 0000 70B5     		push	{r4, r5, r6, lr}
 559              	.LCFI5:
 560              		.cfi_def_cfa_offset 16
 561              		.cfi_offset 4, -16
 562              		.cfi_offset 5, -12
ARM GAS  /tmp/ccCPaF2U.s 			page 11


 563              		.cfi_offset 6, -8
 564              		.cfi_offset 14, -4
 565              		.loc 1 90 0
 566 0002 334B     		ldr	r3, .L42
 567              		.loc 1 92 0
 568 0004 3348     		ldr	r0, .L42+4
 569              		.loc 1 90 0
 570 0006 9B69     		ldr	r3, [r3, #24]
 571              		.loc 1 94 0
 572 0008 334C     		ldr	r4, .L42+8
 573              		.loc 1 90 0
 574 000a 9D68     		ldr	r5, [r3, #8]
 575              	.LVL53:
 576              		.loc 1 87 0
 577 000c 84B0     		sub	sp, sp, #16
 578              	.LCFI6:
 579              		.cfi_def_cfa_offset 32
 580              		.loc 1 92 0
 581 000e 03A9     		add	r1, sp, #12
 582 0010 FFF7FEFF 		bl	chHeapStatus
 583              	.LVL54:
 584              		.loc 1 94 0
 585 0014 314A     		ldr	r2, .L42+12
 586 0016 324B     		ldr	r3, .L42+16
 587 0018 0092     		str	r2, [sp, #0]
 588 001a 4FF49871 		mov	r1, #304
 589 001e 6A1E     		subs	r2, r5, #1
 590 0020 2C48     		ldr	r0, .L42+4
 591 0022 FFF7FEFF 		bl	chThdCreateFromHeap
 592              	.LVL55:
 593 0026 2060     		str	r0, [r4, #0]
 594              		.loc 1 96 0
 595 0028 2E48     		ldr	r0, .L42+20
 596 002a 2D4B     		ldr	r3, .L42+16
 597 002c 0090     		str	r0, [sp, #0]
 598 002e AA1E     		subs	r2, r5, #2
 599 0030 4FF49871 		mov	r1, #304
 600 0034 2748     		ldr	r0, .L42+4
 601 0036 FFF7FEFF 		bl	chThdCreateFromHeap
 602              	.LVL56:
 603              		.loc 1 99 0
 604 003a 02A9     		add	r1, sp, #8
 605              		.loc 1 96 0
 606 003c 6060     		str	r0, [r4, #4]
 607              		.loc 1 99 0
 608 003e 2548     		ldr	r0, .L42+4
 609 0040 FFF7FEFF 		bl	chHeapStatus
 610              	.LVL57:
 611              		.loc 1 100 0
 612 0044 0299     		ldr	r1, [sp, #8]
 613 0046 2348     		ldr	r0, .L42+4
 614 0048 FFF7FEFF 		bl	chHeapAlloc
 615              	.LVL58:
 616              		.loc 1 101 0
 617 004c 264A     		ldr	r2, .L42+24
 618 004e 244B     		ldr	r3, .L42+16
 619 0050 0092     		str	r2, [sp, #0]
ARM GAS  /tmp/ccCPaF2U.s 			page 12


 620 0052 4FF49871 		mov	r1, #304
 621              		.loc 1 100 0
 622 0056 0646     		mov	r6, r0
 623              	.LVL59:
 624              		.loc 1 101 0
 625 0058 EA1E     		subs	r2, r5, #3
 626 005a 1E48     		ldr	r0, .L42+4
 627              	.LVL60:
 628 005c FFF7FEFF 		bl	chThdCreateFromHeap
 629              	.LVL61:
 630 0060 A060     		str	r0, [r4, #8]
 631              		.loc 1 103 0
 632 0062 3046     		mov	r0, r6
 633 0064 FFF7FEFF 		bl	chHeapFree
 634              	.LVL62:
 635              		.loc 1 105 0
 636 0068 2168     		ldr	r1, [r4, #0]
 637 006a 29B1     		cbz	r1, .L33
 638              		.loc 1 105 0 is_stmt 0 discriminator 1
 639 006c 6168     		ldr	r1, [r4, #4]
 640 006e 19B1     		cbz	r1, .L33
 641              		.loc 1 105 0 discriminator 3
 642 0070 A168     		ldr	r1, [r4, #8]
 643 0072 0029     		cmp	r1, #0
 644 0074 23D0     		beq	.L40
 645              		.loc 1 105 0
 646 0076 0021     		movs	r1, #0
 647              	.L33:
 648              		.loc 1 105 0 discriminator 7
 649 0078 0120     		movs	r0, #1
 650 007a FFF7FEFF 		bl	_test_assert
 651              	.LVL63:
 652 007e 08B1     		cbz	r0, .L41
 653              	.L32:
 654              		.loc 1 119 0 is_stmt 1
 655 0080 04B0     		add	sp, sp, #16
 656 0082 70BD     		pop	{r4, r5, r6, pc}
 657              	.L41:
 658              		.loc 1 113 0
 659 0084 FFF7FEFF 		bl	test_wait_threads
 660              	.LVL64:
 661              		.loc 1 114 0
 662 0088 0220     		movs	r0, #2
 663 008a 1849     		ldr	r1, .L42+28
 664 008c FFF7FEFF 		bl	_test_assert_sequence
 665              	.LVL65:
 666 0090 0028     		cmp	r0, #0
 667 0092 F5D1     		bne	.L32
 668              		.loc 1 117 0
 669 0094 02A9     		add	r1, sp, #8
 670 0096 0F48     		ldr	r0, .L42+4
 671 0098 FFF7FEFF 		bl	chHeapStatus
 672              	.LVL66:
 673 009c 421E     		subs	r2, r0, #1
 674 009e 5142     		rsbs	r1, r2, #0
 675 00a0 5141     		adcs	r1, r1, r2
 676 00a2 0320     		movs	r0, #3
ARM GAS  /tmp/ccCPaF2U.s 			page 13


 677 00a4 FFF7FEFF 		bl	_test_assert
 678              	.LVL67:
 679 00a8 0028     		cmp	r0, #0
 680 00aa E9D1     		bne	.L32
 681              		.loc 1 118 0
 682 00ac 0299     		ldr	r1, [sp, #8]
 683              	.LVL68:
 684 00ae 039B     		ldr	r3, [sp, #12]
 685 00b0 0420     		movs	r0, #4
 686 00b2 CB1A     		subs	r3, r1, r3
 687 00b4 5942     		rsbs	r1, r3, #0
 688 00b6 5941     		adcs	r1, r1, r3
 689 00b8 FFF7FEFF 		bl	_test_assert
 690              	.LVL69:
 691 00bc E0E7     		b	.L32
 692              	.LVL70:
 693              	.L40:
 694              		.loc 1 105 0 discriminator 4
 695 00be E368     		ldr	r3, [r4, #12]
 696 00c0 002B     		cmp	r3, #0
 697 00c2 D9D1     		bne	.L33
 698              		.loc 1 105 0 is_stmt 0 discriminator 5
 699 00c4 2169     		ldr	r1, [r4, #16]
 700 00c6 D1F10101 		rsbs	r1, r1, #1
 701 00ca 38BF     		it	cc
 702 00cc 0021     		movcc	r1, #0
 703 00ce D3E7     		b	.L33
 704              	.L43:
 705              		.align	2
 706              	.L42:
 707 00d0 00000000 		.word	rlist
 708 00d4 00000000 		.word	.LANCHOR0
 709 00d8 00000000 		.word	threads
 710 00dc 00000000 		.word	.LC0
 711 00e0 00000000 		.word	thread
 712 00e4 04000000 		.word	.LC1
 713 00e8 08000000 		.word	.LC2
 714 00ec 1C000000 		.word	.LC6
 715              		.cfi_endproc
 716              	.LFE9:
 717              		.size	dyn1_execute, .-dyn1_execute
 718              		.global	patterndyn
 719              		.global	testdyn3
 720              		.global	testdyn2
 721              		.global	testdyn1
 722              		.section	.rodata.testdyn1,"a",%progbits
 723              		.align	2
 724              		.type	testdyn1, %object
 725              		.size	testdyn1, 16
 726              	testdyn1:
 727 0000 78000000 		.word	.LC9
 728 0004 00000000 		.word	dyn1_setup
 729 0008 00000000 		.word	0
 730 000c 00000000 		.word	dyn1_execute
 731              		.section	.rodata.testdyn2,"a",%progbits
 732              		.align	2
 733              		.type	testdyn2, %object
ARM GAS  /tmp/ccCPaF2U.s 			page 14


 734              		.size	testdyn2, 16
 735              	testdyn2:
 736 0000 48000000 		.word	.LC8
 737 0004 00000000 		.word	dyn2_setup
 738 0008 00000000 		.word	0
 739 000c 00000000 		.word	dyn2_execute
 740              		.section	.rodata.testdyn3,"a",%progbits
 741              		.align	2
 742              		.type	testdyn3, %object
 743              		.size	testdyn3, 16
 744              	testdyn3:
 745 0000 20000000 		.word	.LC7
 746 0004 00000000 		.word	dyn3_setup
 747 0008 00000000 		.word	0
 748 000c 00000000 		.word	dyn3_execute
 749              		.section	.bss.mp1,"aw",%nobits
 750              		.align	2
 751              		.set	.LANCHOR1,. + 0
 752              		.type	mp1, %object
 753              		.size	mp1, 12
 754              	mp1:
 755 0000 00000000 		.space	12
 755      00000000 
 755      00000000 
 756              		.section	.rodata.str1.4,"aMS",%progbits,1
 757              		.align	2
 758              	.LC0:
 759 0000 4100     		.ascii	"A\000"
 760 0002 0000     		.space	2
 761              	.LC1:
 762 0004 4200     		.ascii	"B\000"
 763 0006 0000     		.space	2
 764              	.LC2:
 765 0008 4300     		.ascii	"C\000"
 766 000a 0000     		.space	2
 767              	.LC3:
 768 000c 4400     		.ascii	"D\000"
 769 000e 0000     		.space	2
 770              	.LC4:
 771 0010 4500     		.ascii	"E\000"
 772 0012 0000     		.space	2
 773              	.LC5:
 774 0014 41424344 		.ascii	"ABCD\000"
 774      00
 775 0019 000000   		.space	3
 776              	.LC6:
 777 001c 414200   		.ascii	"AB\000"
 778 001f 00       		.space	1
 779              	.LC7:
 780 0020 44796E61 		.ascii	"Dynamic APIs, registry and references\000"
 780      6D696320 
 780      41504973 
 780      2C207265 
 780      67697374 
 781 0046 0000     		.space	2
 782              	.LC8:
 783 0048 44796E61 		.ascii	"Dynamic APIs, threads creation from memory pool\000"
ARM GAS  /tmp/ccCPaF2U.s 			page 15


 783      6D696320 
 783      41504973 
 783      2C207468 
 783      72656164 
 784              	.LC9:
 785 0078 44796E61 		.ascii	"Dynamic APIs, threads creation from heap\000"
 785      6D696320 
 785      41504973 
 785      2C207468 
 785      72656164 
 786 00a1 000000   		.section	.rodata.patterndyn,"a",%progbits
 787              		.align	2
 788              		.type	patterndyn, %object
 789              		.size	patterndyn, 16
 790              	patterndyn:
 791 0000 00000000 		.word	testdyn1
 792 0004 00000000 		.word	testdyn2
 793 0008 00000000 		.word	testdyn3
 794 000c 00000000 		.word	0
 795              		.section	.bss.heap1,"aw",%nobits
 796              		.align	3
 797              		.set	.LANCHOR0,. + 0
 798              		.type	heap1, %object
 799              		.size	heap1, 32
 800              	heap1:
 801 0000 00000000 		.space	32
 801      00000000 
 801      00000000 
 801      00000000 
 801      00000000 
 802              		.text
 803              	.Letext0:
 804              		.file 2 "/opt/psas/x-tools/stm32f407/arm-psas-eabi/bin/../lib/gcc/arm-psas-eabi/4.7.2/include/stdd
 805              		.file 3 "/opt/psas/x-tools/stm32f407/arm-psas-eabi/bin/../lib/gcc/arm-psas-eabi/4.7.2/../../../../
 806              		.file 4 "../../os/ports/GCC/ARMCMx/chtypes.h"
 807              		.file 5 "../../os/kernel/include/chlists.h"
 808              		.file 6 "../../os/kernel/include/chthreads.h"
 809              		.file 7 "../../os/ports/GCC/ARMCMx/chcore_v7m.h"
 810              		.file 8 "../../os/kernel/include/chschd.h"
 811              		.file 9 "../../os/kernel/include/chmtx.h"
 812              		.file 10 "../../os/kernel/include/chmemcore.h"
 813              		.file 11 "../../os/kernel/include/chheap.h"
 814              		.file 12 "../../os/kernel/include/chmempools.h"
 815              		.file 13 "../../test/test.h"
 816              		.file 14 "../../os/kernel/include/chregistry.h"
 817              		.file 15 "../../os/kernel/include/chdynamic.h"
 818              		.section	.debug_info,"",%progbits
 819              	.Ldebug_info0:
 820 0000 17100000 		.4byte	0x1017
 821 0004 0200     		.2byte	0x2
 822 0006 00000000 		.4byte	.Ldebug_abbrev0
 823 000a 04       		.byte	0x4
 824 000b 01       		.uleb128 0x1
 825 000c F1020000 		.4byte	.LASF124
 826 0010 01       		.byte	0x1
 827 0011 9B040000 		.4byte	.LASF125
 828 0015 13020000 		.4byte	.LASF126
ARM GAS  /tmp/ccCPaF2U.s 			page 16


 829 0019 00000000 		.4byte	.Ldebug_ranges0+0
 830 001d 00000000 		.4byte	0
 831 0021 00000000 		.4byte	0
 832 0025 00000000 		.4byte	.Ldebug_line0
 833 0029 02       		.uleb128 0x2
 834 002a 04       		.byte	0x4
 835 002b 05       		.byte	0x5
 836 002c 696E7400 		.ascii	"int\000"
 837 0030 03       		.uleb128 0x3
 838 0031 0E000000 		.4byte	.LASF2
 839 0035 02       		.byte	0x2
 840 0036 D5       		.byte	0xd5
 841 0037 3B000000 		.4byte	0x3b
 842 003b 04       		.uleb128 0x4
 843 003c 04       		.byte	0x4
 844 003d 07       		.byte	0x7
 845 003e 88010000 		.4byte	.LASF0
 846 0042 04       		.uleb128 0x4
 847 0043 01       		.byte	0x1
 848 0044 06       		.byte	0x6
 849 0045 BA000000 		.4byte	.LASF1
 850 0049 03       		.uleb128 0x3
 851 004a EE040000 		.4byte	.LASF3
 852 004e 03       		.byte	0x3
 853 004f 2A       		.byte	0x2a
 854 0050 54000000 		.4byte	0x54
 855 0054 04       		.uleb128 0x4
 856 0055 01       		.byte	0x1
 857 0056 08       		.byte	0x8
 858 0057 50030000 		.4byte	.LASF4
 859 005b 04       		.uleb128 0x4
 860 005c 02       		.byte	0x2
 861 005d 05       		.byte	0x5
 862 005e 73030000 		.4byte	.LASF5
 863 0062 04       		.uleb128 0x4
 864 0063 02       		.byte	0x2
 865 0064 07       		.byte	0x7
 866 0065 CD010000 		.4byte	.LASF6
 867 0069 03       		.uleb128 0x3
 868 006a 48030000 		.4byte	.LASF7
 869 006e 03       		.byte	0x3
 870 006f 4F       		.byte	0x4f
 871 0070 74000000 		.4byte	0x74
 872 0074 04       		.uleb128 0x4
 873 0075 04       		.byte	0x4
 874 0076 05       		.byte	0x5
 875 0077 08010000 		.4byte	.LASF8
 876 007b 03       		.uleb128 0x3
 877 007c FF030000 		.4byte	.LASF9
 878 0080 03       		.byte	0x3
 879 0081 50       		.byte	0x50
 880 0082 86000000 		.4byte	0x86
 881 0086 04       		.uleb128 0x4
 882 0087 04       		.byte	0x4
 883 0088 07       		.byte	0x7
 884 0089 95010000 		.4byte	.LASF10
 885 008d 04       		.uleb128 0x4
ARM GAS  /tmp/ccCPaF2U.s 			page 17


 886 008e 08       		.byte	0x8
 887 008f 05       		.byte	0x5
 888 0090 AC000000 		.4byte	.LASF11
 889 0094 03       		.uleb128 0x3
 890 0095 21000000 		.4byte	.LASF12
 891 0099 03       		.byte	0x3
 892 009a 78       		.byte	0x78
 893 009b 9F000000 		.4byte	0x9f
 894 009f 04       		.uleb128 0x4
 895 00a0 08       		.byte	0x8
 896 00a1 07       		.byte	0x7
 897 00a2 42000000 		.4byte	.LASF13
 898 00a6 03       		.uleb128 0x3
 899 00a7 D4000000 		.4byte	.LASF14
 900 00ab 04       		.byte	0x4
 901 00ac 27       		.byte	0x27
 902 00ad 69000000 		.4byte	0x69
 903 00b1 03       		.uleb128 0x3
 904 00b2 F3010000 		.4byte	.LASF15
 905 00b6 04       		.byte	0x4
 906 00b7 28       		.byte	0x28
 907 00b8 49000000 		.4byte	0x49
 908 00bc 03       		.uleb128 0x3
 909 00bd 25010000 		.4byte	.LASF16
 910 00c1 04       		.byte	0x4
 911 00c2 29       		.byte	0x29
 912 00c3 49000000 		.4byte	0x49
 913 00c7 03       		.uleb128 0x3
 914 00c8 22030000 		.4byte	.LASF17
 915 00cc 04       		.byte	0x4
 916 00cd 2A       		.byte	0x2a
 917 00ce 49000000 		.4byte	0x49
 918 00d2 03       		.uleb128 0x3
 919 00d3 FE000000 		.4byte	.LASF18
 920 00d7 04       		.byte	0x4
 921 00d8 2B       		.byte	0x2b
 922 00d9 49000000 		.4byte	0x49
 923 00dd 03       		.uleb128 0x3
 924 00de 39030000 		.4byte	.LASF19
 925 00e2 04       		.byte	0x4
 926 00e3 2C       		.byte	0x2c
 927 00e4 7B000000 		.4byte	0x7b
 928 00e8 03       		.uleb128 0x3
 929 00e9 ED010000 		.4byte	.LASF20
 930 00ed 04       		.byte	0x4
 931 00ee 2D       		.byte	0x2d
 932 00ef 69000000 		.4byte	0x69
 933 00f3 03       		.uleb128 0x3
 934 00f4 07020000 		.4byte	.LASF21
 935 00f8 04       		.byte	0x4
 936 00f9 2F       		.byte	0x2f
 937 00fa 7B000000 		.4byte	0x7b
 938 00fe 03       		.uleb128 0x3
 939 00ff 5B040000 		.4byte	.LASF22
 940 0103 04       		.byte	0x4
 941 0104 31       		.byte	0x31
 942 0105 7B000000 		.4byte	0x7b
ARM GAS  /tmp/ccCPaF2U.s 			page 18


 943 0109 03       		.uleb128 0x3
 944 010a CD030000 		.4byte	.LASF23
 945 010e 05       		.byte	0x5
 946 010f 23       		.byte	0x23
 947 0110 14010000 		.4byte	0x114
 948 0114 05       		.uleb128 0x5
 949 0115 CD030000 		.4byte	.LASF23
 950 0119 48       		.byte	0x48
 951 011a 06       		.byte	0x6
 952 011b 57       		.byte	0x57
 953 011c 39020000 		.4byte	0x239
 954 0120 06       		.uleb128 0x6
 955 0121 B1030000 		.4byte	.LASF24
 956 0125 06       		.byte	0x6
 957 0126 58       		.byte	0x58
 958 0127 5E020000 		.4byte	0x25e
 959 012b 02       		.byte	0x2
 960 012c 23       		.byte	0x23
 961 012d 00       		.uleb128 0
 962 012e 06       		.uleb128 0x6
 963 012f 2A030000 		.4byte	.LASF25
 964 0133 06       		.byte	0x6
 965 0134 5A       		.byte	0x5a
 966 0135 5E020000 		.4byte	0x25e
 967 0139 02       		.byte	0x2
 968 013a 23       		.byte	0x23
 969 013b 04       		.uleb128 0x4
 970 013c 06       		.uleb128 0x6
 971 013d 9A000000 		.4byte	.LASF26
 972 0141 06       		.byte	0x6
 973 0142 5C       		.byte	0x5c
 974 0143 DD000000 		.4byte	0xdd
 975 0147 02       		.byte	0x2
 976 0148 23       		.byte	0x23
 977 0149 08       		.uleb128 0x8
 978 014a 06       		.uleb128 0x6
 979 014b 30050000 		.4byte	.LASF27
 980 014f 06       		.byte	0x6
 981 0150 5D       		.byte	0x5d
 982 0151 37030000 		.4byte	0x337
 983 0155 02       		.byte	0x2
 984 0156 23       		.byte	0x23
 985 0157 0C       		.uleb128 0xc
 986 0158 06       		.uleb128 0x6
 987 0159 43010000 		.4byte	.LASF28
 988 015d 06       		.byte	0x6
 989 015e 5F       		.byte	0x5f
 990 015f 5E020000 		.4byte	0x25e
 991 0163 02       		.byte	0x2
 992 0164 23       		.byte	0x23
 993 0165 10       		.uleb128 0x10
 994 0166 06       		.uleb128 0x6
 995 0167 AB020000 		.4byte	.LASF29
 996 016b 06       		.byte	0x6
 997 016c 60       		.byte	0x60
 998 016d 5E020000 		.4byte	0x25e
 999 0171 02       		.byte	0x2
ARM GAS  /tmp/ccCPaF2U.s 			page 19


 1000 0172 23       		.byte	0x23
 1001 0173 14       		.uleb128 0x14
 1002 0174 06       		.uleb128 0x6
 1003 0175 14050000 		.4byte	.LASF30
 1004 0179 06       		.byte	0x6
 1005 017a 67       		.byte	0x67
 1006 017b 7C050000 		.4byte	0x57c
 1007 017f 02       		.byte	0x2
 1008 0180 23       		.byte	0x23
 1009 0181 18       		.uleb128 0x18
 1010 0182 06       		.uleb128 0x6
 1011 0183 7D030000 		.4byte	.LASF31
 1012 0187 06       		.byte	0x6
 1013 0188 72       		.byte	0x72
 1014 0189 BC000000 		.4byte	0xbc
 1015 018d 02       		.byte	0x2
 1016 018e 23       		.byte	0x23
 1017 018f 1C       		.uleb128 0x1c
 1018 0190 06       		.uleb128 0x6
 1019 0191 B8030000 		.4byte	.LASF32
 1020 0195 06       		.byte	0x6
 1021 0196 76       		.byte	0x76
 1022 0197 B1000000 		.4byte	0xb1
 1023 019b 02       		.byte	0x2
 1024 019c 23       		.byte	0x23
 1025 019d 1D       		.uleb128 0x1d
 1026 019e 06       		.uleb128 0x6
 1027 019f CF040000 		.4byte	.LASF33
 1028 01a3 06       		.byte	0x6
 1029 01a4 7B       		.byte	0x7b
 1030 01a5 C7000000 		.4byte	0xc7
 1031 01a9 02       		.byte	0x2
 1032 01aa 23       		.byte	0x23
 1033 01ab 1E       		.uleb128 0x1e
 1034 01ac 06       		.uleb128 0x6
 1035 01ad 85030000 		.4byte	.LASF34
 1036 01b1 06       		.byte	0x6
 1037 01b2 81       		.byte	0x81
 1038 01b3 D2000000 		.4byte	0xd2
 1039 01b7 02       		.byte	0x2
 1040 01b8 23       		.byte	0x23
 1041 01b9 1F       		.uleb128 0x1f
 1042 01ba 06       		.uleb128 0x6
 1043 01bb 82040000 		.4byte	.LASF35
 1044 01bf 06       		.byte	0x6
 1045 01c0 88       		.byte	0x88
 1046 01c1 61030000 		.4byte	0x361
 1047 01c5 02       		.byte	0x2
 1048 01c6 23       		.byte	0x23
 1049 01c7 20       		.uleb128 0x20
 1050 01c8 07       		.uleb128 0x7
 1051 01c9 705F7500 		.ascii	"p_u\000"
 1052 01cd 06       		.byte	0x6
 1053 01ce AD       		.byte	0xad
 1054 01cf 47050000 		.4byte	0x547
 1055 01d3 02       		.byte	0x2
 1056 01d4 23       		.byte	0x23
ARM GAS  /tmp/ccCPaF2U.s 			page 20


 1057 01d5 24       		.uleb128 0x24
 1058 01d6 06       		.uleb128 0x6
 1059 01d7 36050000 		.4byte	.LASF36
 1060 01db 06       		.byte	0x6
 1061 01dc B2       		.byte	0xb2
 1062 01dd 86020000 		.4byte	0x286
 1063 01e1 02       		.byte	0x2
 1064 01e2 23       		.byte	0x23
 1065 01e3 28       		.uleb128 0x28
 1066 01e4 06       		.uleb128 0x6
 1067 01e5 90040000 		.4byte	.LASF37
 1068 01e9 06       		.byte	0x6
 1069 01ea B8       		.byte	0xb8
 1070 01eb 64020000 		.4byte	0x264
 1071 01ef 02       		.byte	0x2
 1072 01f0 23       		.byte	0x23
 1073 01f1 2C       		.uleb128 0x2c
 1074 01f2 06       		.uleb128 0x6
 1075 01f3 08000000 		.4byte	.LASF38
 1076 01f7 06       		.byte	0x6
 1077 01f8 BC       		.byte	0xbc
 1078 01f9 E8000000 		.4byte	0xe8
 1079 01fd 02       		.byte	0x2
 1080 01fe 23       		.byte	0x23
 1081 01ff 34       		.uleb128 0x34
 1082 0200 06       		.uleb128 0x6
 1083 0201 E9030000 		.4byte	.LASF39
 1084 0205 06       		.byte	0x6
 1085 0206 C2       		.byte	0xc2
 1086 0207 F3000000 		.4byte	0xf3
 1087 020b 02       		.byte	0x2
 1088 020c 23       		.byte	0x23
 1089 020d 38       		.uleb128 0x38
 1090 020e 06       		.uleb128 0x6
 1091 020f 69030000 		.4byte	.LASF40
 1092 0213 06       		.byte	0x6
 1093 0214 C9       		.byte	0xc9
 1094 0215 8E050000 		.4byte	0x58e
 1095 0219 02       		.byte	0x2
 1096 021a 23       		.byte	0x23
 1097 021b 3C       		.uleb128 0x3c
 1098 021c 06       		.uleb128 0x6
 1099 021d 65040000 		.4byte	.LASF41
 1100 0221 06       		.byte	0x6
 1101 0222 CD       		.byte	0xcd
 1102 0223 DD000000 		.4byte	0xdd
 1103 0227 02       		.byte	0x2
 1104 0228 23       		.byte	0x23
 1105 0229 40       		.uleb128 0x40
 1106 022a 06       		.uleb128 0x6
 1107 022b CC000000 		.4byte	.LASF42
 1108 022f 06       		.byte	0x6
 1109 0230 D3       		.byte	0xd3
 1110 0231 9C020000 		.4byte	0x29c
 1111 0235 02       		.byte	0x2
 1112 0236 23       		.byte	0x23
 1113 0237 44       		.uleb128 0x44
ARM GAS  /tmp/ccCPaF2U.s 			page 21


 1114 0238 00       		.byte	0
 1115 0239 08       		.uleb128 0x8
 1116 023a 08       		.byte	0x8
 1117 023b 05       		.byte	0x5
 1118 023c 5A       		.byte	0x5a
 1119 023d 5E020000 		.4byte	0x25e
 1120 0241 06       		.uleb128 0x6
 1121 0242 B1030000 		.4byte	.LASF24
 1122 0246 05       		.byte	0x5
 1123 0247 5B       		.byte	0x5b
 1124 0248 5E020000 		.4byte	0x25e
 1125 024c 02       		.byte	0x2
 1126 024d 23       		.byte	0x23
 1127 024e 00       		.uleb128 0
 1128 024f 06       		.uleb128 0x6
 1129 0250 2A030000 		.4byte	.LASF25
 1130 0254 05       		.byte	0x5
 1131 0255 5D       		.byte	0x5d
 1132 0256 5E020000 		.4byte	0x25e
 1133 025a 02       		.byte	0x2
 1134 025b 23       		.byte	0x23
 1135 025c 04       		.uleb128 0x4
 1136 025d 00       		.byte	0
 1137 025e 09       		.uleb128 0x9
 1138 025f 04       		.byte	0x4
 1139 0260 09010000 		.4byte	0x109
 1140 0264 03       		.uleb128 0x3
 1141 0265 B9020000 		.4byte	.LASF43
 1142 0269 05       		.byte	0x5
 1143 026a 5F       		.byte	0x5f
 1144 026b 39020000 		.4byte	0x239
 1145 026f 08       		.uleb128 0x8
 1146 0270 04       		.byte	0x4
 1147 0271 05       		.byte	0x5
 1148 0272 64       		.byte	0x64
 1149 0273 86020000 		.4byte	0x286
 1150 0277 06       		.uleb128 0x6
 1151 0278 B1030000 		.4byte	.LASF24
 1152 027c 05       		.byte	0x5
 1153 027d 66       		.byte	0x66
 1154 027e 5E020000 		.4byte	0x25e
 1155 0282 02       		.byte	0x2
 1156 0283 23       		.byte	0x23
 1157 0284 00       		.uleb128 0
 1158 0285 00       		.byte	0
 1159 0286 03       		.uleb128 0x3
 1160 0287 FB010000 		.4byte	.LASF44
 1161 028b 05       		.byte	0x5
 1162 028c 69       		.byte	0x69
 1163 028d 6F020000 		.4byte	0x26f
 1164 0291 03       		.uleb128 0x3
 1165 0292 79010000 		.4byte	.LASF45
 1166 0296 07       		.byte	0x7
 1167 0297 DE       		.byte	0xde
 1168 0298 9C020000 		.4byte	0x29c
 1169 029c 0A       		.uleb128 0xa
 1170 029d 04       		.byte	0x4
ARM GAS  /tmp/ccCPaF2U.s 			page 22


 1171 029e 03       		.uleb128 0x3
 1172 029f 6F020000 		.4byte	.LASF46
 1173 02a3 07       		.byte	0x7
 1174 02a4 E4       		.byte	0xe4
 1175 02a5 94000000 		.4byte	0x94
 1176 02a9 0B       		.uleb128 0xb
 1177 02aa 89040000 		.4byte	.LASF47
 1178 02ae 24       		.byte	0x24
 1179 02af 07       		.byte	0x7
 1180 02b0 0501     		.2byte	0x105
 1181 02b2 37030000 		.4byte	0x337
 1182 02b6 0C       		.uleb128 0xc
 1183 02b7 723400   		.ascii	"r4\000"
 1184 02ba 07       		.byte	0x7
 1185 02bb 1801     		.2byte	0x118
 1186 02bd 91020000 		.4byte	0x291
 1187 02c1 02       		.byte	0x2
 1188 02c2 23       		.byte	0x23
 1189 02c3 00       		.uleb128 0
 1190 02c4 0C       		.uleb128 0xc
 1191 02c5 723500   		.ascii	"r5\000"
 1192 02c8 07       		.byte	0x7
 1193 02c9 1901     		.2byte	0x119
 1194 02cb 91020000 		.4byte	0x291
 1195 02cf 02       		.byte	0x2
 1196 02d0 23       		.byte	0x23
 1197 02d1 04       		.uleb128 0x4
 1198 02d2 0C       		.uleb128 0xc
 1199 02d3 723600   		.ascii	"r6\000"
 1200 02d6 07       		.byte	0x7
 1201 02d7 1A01     		.2byte	0x11a
 1202 02d9 91020000 		.4byte	0x291
 1203 02dd 02       		.byte	0x2
 1204 02de 23       		.byte	0x23
 1205 02df 08       		.uleb128 0x8
 1206 02e0 0C       		.uleb128 0xc
 1207 02e1 723700   		.ascii	"r7\000"
 1208 02e4 07       		.byte	0x7
 1209 02e5 1B01     		.2byte	0x11b
 1210 02e7 91020000 		.4byte	0x291
 1211 02eb 02       		.byte	0x2
 1212 02ec 23       		.byte	0x23
 1213 02ed 0C       		.uleb128 0xc
 1214 02ee 0C       		.uleb128 0xc
 1215 02ef 723800   		.ascii	"r8\000"
 1216 02f2 07       		.byte	0x7
 1217 02f3 1C01     		.2byte	0x11c
 1218 02f5 91020000 		.4byte	0x291
 1219 02f9 02       		.byte	0x2
 1220 02fa 23       		.byte	0x23
 1221 02fb 10       		.uleb128 0x10
 1222 02fc 0C       		.uleb128 0xc
 1223 02fd 723900   		.ascii	"r9\000"
 1224 0300 07       		.byte	0x7
 1225 0301 1D01     		.2byte	0x11d
 1226 0303 91020000 		.4byte	0x291
 1227 0307 02       		.byte	0x2
ARM GAS  /tmp/ccCPaF2U.s 			page 23


 1228 0308 23       		.byte	0x23
 1229 0309 14       		.uleb128 0x14
 1230 030a 0C       		.uleb128 0xc
 1231 030b 72313000 		.ascii	"r10\000"
 1232 030f 07       		.byte	0x7
 1233 0310 1E01     		.2byte	0x11e
 1234 0312 91020000 		.4byte	0x291
 1235 0316 02       		.byte	0x2
 1236 0317 23       		.byte	0x23
 1237 0318 18       		.uleb128 0x18
 1238 0319 0C       		.uleb128 0xc
 1239 031a 72313100 		.ascii	"r11\000"
 1240 031e 07       		.byte	0x7
 1241 031f 1F01     		.2byte	0x11f
 1242 0321 91020000 		.4byte	0x291
 1243 0325 02       		.byte	0x2
 1244 0326 23       		.byte	0x23
 1245 0327 1C       		.uleb128 0x1c
 1246 0328 0C       		.uleb128 0xc
 1247 0329 6C7200   		.ascii	"lr\000"
 1248 032c 07       		.byte	0x7
 1249 032d 2001     		.2byte	0x120
 1250 032f 91020000 		.4byte	0x291
 1251 0333 02       		.byte	0x2
 1252 0334 23       		.byte	0x23
 1253 0335 20       		.uleb128 0x20
 1254 0336 00       		.byte	0
 1255 0337 0B       		.uleb128 0xb
 1256 0338 C0010000 		.4byte	.LASF48
 1257 033c 04       		.byte	0x4
 1258 033d 07       		.byte	0x7
 1259 033e 2A01     		.2byte	0x12a
 1260 0340 54030000 		.4byte	0x354
 1261 0344 0C       		.uleb128 0xc
 1262 0345 72313300 		.ascii	"r13\000"
 1263 0349 07       		.byte	0x7
 1264 034a 2B01     		.2byte	0x12b
 1265 034c 54030000 		.4byte	0x354
 1266 0350 02       		.byte	0x2
 1267 0351 23       		.byte	0x23
 1268 0352 00       		.uleb128 0
 1269 0353 00       		.byte	0
 1270 0354 09       		.uleb128 0x9
 1271 0355 04       		.byte	0x4
 1272 0356 A9020000 		.4byte	0x2a9
 1273 035a 04       		.uleb128 0x4
 1274 035b 04       		.byte	0x4
 1275 035c 07       		.byte	0x7
 1276 035d 7A020000 		.4byte	.LASF49
 1277 0361 0D       		.uleb128 0xd
 1278 0362 FE000000 		.4byte	0xfe
 1279 0366 08       		.uleb128 0x8
 1280 0367 1C       		.byte	0x1c
 1281 0368 08       		.byte	0x8
 1282 0369 57       		.byte	0x57
 1283 036a C3030000 		.4byte	0x3c3
 1284 036e 06       		.uleb128 0x6
ARM GAS  /tmp/ccCPaF2U.s 			page 24


 1285 036f 08040000 		.4byte	.LASF50
 1286 0373 08       		.byte	0x8
 1287 0374 58       		.byte	0x58
 1288 0375 64020000 		.4byte	0x264
 1289 0379 02       		.byte	0x2
 1290 037a 23       		.byte	0x23
 1291 037b 00       		.uleb128 0
 1292 037c 06       		.uleb128 0x6
 1293 037d 97030000 		.4byte	.LASF51
 1294 0381 08       		.byte	0x8
 1295 0382 59       		.byte	0x59
 1296 0383 DD000000 		.4byte	0xdd
 1297 0387 02       		.byte	0x2
 1298 0388 23       		.byte	0x23
 1299 0389 08       		.uleb128 0x8
 1300 038a 06       		.uleb128 0x6
 1301 038b B3020000 		.4byte	.LASF52
 1302 038f 08       		.byte	0x8
 1303 0390 5B       		.byte	0x5b
 1304 0391 37030000 		.4byte	0x337
 1305 0395 02       		.byte	0x2
 1306 0396 23       		.byte	0x23
 1307 0397 0C       		.uleb128 0xc
 1308 0398 06       		.uleb128 0x6
 1309 0399 65010000 		.4byte	.LASF53
 1310 039d 08       		.byte	0x8
 1311 039e 5E       		.byte	0x5e
 1312 039f 5E020000 		.4byte	0x25e
 1313 03a3 02       		.byte	0x2
 1314 03a4 23       		.byte	0x23
 1315 03a5 10       		.uleb128 0x10
 1316 03a6 06       		.uleb128 0x6
 1317 03a7 07030000 		.4byte	.LASF54
 1318 03ab 08       		.byte	0x8
 1319 03ac 5F       		.byte	0x5f
 1320 03ad 5E020000 		.4byte	0x25e
 1321 03b1 02       		.byte	0x2
 1322 03b2 23       		.byte	0x23
 1323 03b3 14       		.uleb128 0x14
 1324 03b4 06       		.uleb128 0x6
 1325 03b5 FD020000 		.4byte	.LASF55
 1326 03b9 08       		.byte	0x8
 1327 03ba 62       		.byte	0x62
 1328 03bb 5E020000 		.4byte	0x25e
 1329 03bf 02       		.byte	0x2
 1330 03c0 23       		.byte	0x23
 1331 03c1 18       		.uleb128 0x18
 1332 03c2 00       		.byte	0
 1333 03c3 03       		.uleb128 0x3
 1334 03c4 D6040000 		.4byte	.LASF56
 1335 03c8 08       		.byte	0x8
 1336 03c9 64       		.byte	0x64
 1337 03ca 66030000 		.4byte	0x366
 1338 03ce 05       		.uleb128 0x5
 1339 03cf 5D020000 		.4byte	.LASF57
 1340 03d3 10       		.byte	0x10
 1341 03d4 09       		.byte	0x9
ARM GAS  /tmp/ccCPaF2U.s 			page 25


 1342 03d5 25       		.byte	0x25
 1343 03d6 05040000 		.4byte	0x405
 1344 03da 06       		.uleb128 0x6
 1345 03db DB000000 		.4byte	.LASF58
 1346 03df 09       		.byte	0x9
 1347 03e0 26       		.byte	0x26
 1348 03e1 64020000 		.4byte	0x264
 1349 03e5 02       		.byte	0x2
 1350 03e6 23       		.byte	0x23
 1351 03e7 00       		.uleb128 0
 1352 03e8 06       		.uleb128 0x6
 1353 03e9 28050000 		.4byte	.LASF59
 1354 03ed 09       		.byte	0x9
 1355 03ee 28       		.byte	0x28
 1356 03ef 5E020000 		.4byte	0x25e
 1357 03f3 02       		.byte	0x2
 1358 03f4 23       		.byte	0x23
 1359 03f5 08       		.uleb128 0x8
 1360 03f6 06       		.uleb128 0x6
 1361 03f7 54040000 		.4byte	.LASF60
 1362 03fb 09       		.byte	0x9
 1363 03fc 2A       		.byte	0x2a
 1364 03fd 05040000 		.4byte	0x405
 1365 0401 02       		.byte	0x2
 1366 0402 23       		.byte	0x23
 1367 0403 0C       		.uleb128 0xc
 1368 0404 00       		.byte	0
 1369 0405 09       		.uleb128 0x9
 1370 0406 04       		.byte	0x4
 1371 0407 CE030000 		.4byte	0x3ce
 1372 040b 03       		.uleb128 0x3
 1373 040c 5D020000 		.4byte	.LASF57
 1374 0410 09       		.byte	0x9
 1375 0411 2C       		.byte	0x2c
 1376 0412 CE030000 		.4byte	0x3ce
 1377 0416 03       		.uleb128 0x3
 1378 0417 35000000 		.4byte	.LASF61
 1379 041b 0A       		.byte	0xa
 1380 041c 25       		.byte	0x25
 1381 041d 21040000 		.4byte	0x421
 1382 0421 09       		.uleb128 0x9
 1383 0422 04       		.byte	0x4
 1384 0423 27040000 		.4byte	0x427
 1385 0427 0E       		.uleb128 0xe
 1386 0428 01       		.byte	0x1
 1387 0429 9C020000 		.4byte	0x29c
 1388 042d 37040000 		.4byte	0x437
 1389 0431 0F       		.uleb128 0xf
 1390 0432 30000000 		.4byte	0x30
 1391 0436 00       		.byte	0
 1392 0437 03       		.uleb128 0x3
 1393 0438 0F030000 		.4byte	.LASF62
 1394 043c 0B       		.byte	0xb
 1395 043d 2D       		.byte	0x2d
 1396 043e 42040000 		.4byte	0x442
 1397 0442 05       		.uleb128 0x5
 1398 0443 46050000 		.4byte	.LASF63
ARM GAS  /tmp/ccCPaF2U.s 			page 26


 1399 0447 20       		.byte	0x20
 1400 0448 0B       		.byte	0xb
 1401 0449 40       		.byte	0x40
 1402 044a 79040000 		.4byte	0x479
 1403 044e 06       		.uleb128 0x6
 1404 044f 5E030000 		.4byte	.LASF64
 1405 0453 0B       		.byte	0xb
 1406 0454 41       		.byte	0x41
 1407 0455 16040000 		.4byte	0x416
 1408 0459 02       		.byte	0x2
 1409 045a 23       		.byte	0x23
 1410 045b 00       		.uleb128 0
 1411 045c 06       		.uleb128 0x6
 1412 045d 62000000 		.4byte	.LASF65
 1413 0461 0B       		.byte	0xb
 1414 0462 43       		.byte	0x43
 1415 0463 98040000 		.4byte	0x498
 1416 0467 02       		.byte	0x2
 1417 0468 23       		.byte	0x23
 1418 0469 08       		.uleb128 0x8
 1419 046a 06       		.uleb128 0x6
 1420 046b C6000000 		.4byte	.LASF66
 1421 046f 0B       		.byte	0xb
 1422 0470 45       		.byte	0x45
 1423 0471 0B040000 		.4byte	0x40b
 1424 0475 02       		.byte	0x2
 1425 0476 23       		.byte	0x23
 1426 0477 10       		.uleb128 0x10
 1427 0478 00       		.byte	0
 1428 0479 10       		.uleb128 0x10
 1429 047a 04       		.byte	0x4
 1430 047b 0B       		.byte	0xb
 1431 047c 35       		.byte	0x35
 1432 047d 98040000 		.4byte	0x498
 1433 0481 11       		.uleb128 0x11
 1434 0482 95000000 		.4byte	.LASF67
 1435 0486 0B       		.byte	0xb
 1436 0487 36       		.byte	0x36
 1437 0488 B9040000 		.4byte	0x4b9
 1438 048c 11       		.uleb128 0x11
 1439 048d 10040000 		.4byte	.LASF68
 1440 0491 0B       		.byte	0xb
 1441 0492 37       		.byte	0x37
 1442 0493 BF040000 		.4byte	0x4bf
 1443 0497 00       		.byte	0
 1444 0498 12       		.uleb128 0x12
 1445 0499 9E030000 		.4byte	.LASF88
 1446 049d 08       		.byte	0x8
 1447 049e 0B       		.byte	0xb
 1448 049f 32       		.byte	0x32
 1449 04a0 B9040000 		.4byte	0x4b9
 1450 04a4 11       		.uleb128 0x11
 1451 04a5 82010000 		.4byte	.LASF69
 1452 04a9 0B       		.byte	0xb
 1453 04aa 33       		.byte	0x33
 1454 04ab 9E020000 		.4byte	0x29e
 1455 04af 13       		.uleb128 0x13
ARM GAS  /tmp/ccCPaF2U.s 			page 27


 1456 04b0 6800     		.ascii	"h\000"
 1457 04b2 0B       		.byte	0xb
 1458 04b3 3A       		.byte	0x3a
 1459 04b4 C5040000 		.4byte	0x4c5
 1460 04b8 00       		.byte	0
 1461 04b9 09       		.uleb128 0x9
 1462 04ba 04       		.byte	0x4
 1463 04bb 98040000 		.4byte	0x498
 1464 04bf 09       		.uleb128 0x9
 1465 04c0 04       		.byte	0x4
 1466 04c1 37040000 		.4byte	0x437
 1467 04c5 08       		.uleb128 0x8
 1468 04c6 08       		.byte	0x8
 1469 04c7 0B       		.byte	0xb
 1470 04c8 34       		.byte	0x34
 1471 04c9 E8040000 		.4byte	0x4e8
 1472 04cd 07       		.uleb128 0x7
 1473 04ce 7500     		.ascii	"u\000"
 1474 04d0 0B       		.byte	0xb
 1475 04d1 38       		.byte	0x38
 1476 04d2 79040000 		.4byte	0x479
 1477 04d6 02       		.byte	0x2
 1478 04d7 23       		.byte	0x23
 1479 04d8 00       		.uleb128 0
 1480 04d9 06       		.uleb128 0x6
 1481 04da C8010000 		.4byte	.LASF70
 1482 04de 0B       		.byte	0xb
 1483 04df 39       		.byte	0x39
 1484 04e0 30000000 		.4byte	0x30
 1485 04e4 02       		.byte	0x2
 1486 04e5 23       		.byte	0x23
 1487 04e6 04       		.uleb128 0x4
 1488 04e7 00       		.byte	0
 1489 04e8 05       		.uleb128 0x5
 1490 04e9 C3040000 		.4byte	.LASF71
 1491 04ed 04       		.byte	0x4
 1492 04ee 0C       		.byte	0xc
 1493 04ef 25       		.byte	0x25
 1494 04f0 03050000 		.4byte	0x503
 1495 04f4 06       		.uleb128 0x6
 1496 04f5 1A030000 		.4byte	.LASF72
 1497 04f9 0C       		.byte	0xc
 1498 04fa 26       		.byte	0x26
 1499 04fb 03050000 		.4byte	0x503
 1500 04ff 02       		.byte	0x2
 1501 0500 23       		.byte	0x23
 1502 0501 00       		.uleb128 0
 1503 0502 00       		.byte	0
 1504 0503 09       		.uleb128 0x9
 1505 0504 04       		.byte	0x4
 1506 0505 E8040000 		.4byte	0x4e8
 1507 0509 08       		.uleb128 0x8
 1508 050a 0C       		.byte	0xc
 1509 050b 0C       		.byte	0xc
 1510 050c 2D       		.byte	0x2d
 1511 050d 3C050000 		.4byte	0x53c
 1512 0511 06       		.uleb128 0x6
ARM GAS  /tmp/ccCPaF2U.s 			page 28


 1513 0512 2E010000 		.4byte	.LASF73
 1514 0516 0C       		.byte	0xc
 1515 0517 2E       		.byte	0x2e
 1516 0518 03050000 		.4byte	0x503
 1517 051c 02       		.byte	0x2
 1518 051d 23       		.byte	0x23
 1519 051e 00       		.uleb128 0
 1520 051f 06       		.uleb128 0x6
 1521 0520 C6020000 		.4byte	.LASF74
 1522 0524 0C       		.byte	0xc
 1523 0525 2F       		.byte	0x2f
 1524 0526 30000000 		.4byte	0x30
 1525 052a 02       		.byte	0x2
 1526 052b 23       		.byte	0x23
 1527 052c 04       		.uleb128 0x4
 1528 052d 06       		.uleb128 0x6
 1529 052e 6D010000 		.4byte	.LASF75
 1530 0532 0C       		.byte	0xc
 1531 0533 31       		.byte	0x31
 1532 0534 16040000 		.4byte	0x416
 1533 0538 02       		.byte	0x2
 1534 0539 23       		.byte	0x23
 1535 053a 08       		.uleb128 0x8
 1536 053b 00       		.byte	0
 1537 053c 03       		.uleb128 0x3
 1538 053d 2A000000 		.4byte	.LASF76
 1539 0541 0C       		.byte	0xc
 1540 0542 33       		.byte	0x33
 1541 0543 09050000 		.4byte	0x509
 1542 0547 10       		.uleb128 0x10
 1543 0548 04       		.byte	0x4
 1544 0549 06       		.byte	0x6
 1545 054a 8F       		.byte	0x8f
 1546 054b 7C050000 		.4byte	0x57c
 1547 054f 11       		.uleb128 0x11
 1548 0550 1A000000 		.4byte	.LASF77
 1549 0554 06       		.byte	0x6
 1550 0555 96       		.byte	0x96
 1551 0556 E8000000 		.4byte	0xe8
 1552 055a 11       		.uleb128 0x11
 1553 055b 59000000 		.4byte	.LASF78
 1554 055f 06       		.byte	0x6
 1555 0560 9D       		.byte	0x9d
 1556 0561 E8000000 		.4byte	0xe8
 1557 0565 11       		.uleb128 0x11
 1558 0566 0D050000 		.4byte	.LASF79
 1559 056a 06       		.byte	0x6
 1560 056b A4       		.byte	0xa4
 1561 056c 9C020000 		.4byte	0x29c
 1562 0570 11       		.uleb128 0x11
 1563 0571 AA030000 		.4byte	.LASF80
 1564 0575 06       		.byte	0x6
 1565 0576 AB       		.byte	0xab
 1566 0577 F3000000 		.4byte	0xf3
 1567 057b 00       		.byte	0
 1568 057c 09       		.uleb128 0x9
 1569 057d 04       		.byte	0x4
ARM GAS  /tmp/ccCPaF2U.s 			page 29


 1570 057e 82050000 		.4byte	0x582
 1571 0582 14       		.uleb128 0x14
 1572 0583 87050000 		.4byte	0x587
 1573 0587 04       		.uleb128 0x4
 1574 0588 01       		.byte	0x1
 1575 0589 08       		.byte	0x8
 1576 058a 15040000 		.4byte	.LASF81
 1577 058e 09       		.uleb128 0x9
 1578 058f 04       		.byte	0x4
 1579 0590 0B040000 		.4byte	0x40b
 1580 0594 03       		.uleb128 0x3
 1581 0595 00000000 		.4byte	.LASF82
 1582 0599 06       		.byte	0x6
 1583 059a DE       		.byte	0xde
 1584 059b 9F050000 		.4byte	0x59f
 1585 059f 09       		.uleb128 0x9
 1586 05a0 04       		.byte	0x4
 1587 05a1 A5050000 		.4byte	0x5a5
 1588 05a5 0E       		.uleb128 0xe
 1589 05a6 01       		.byte	0x1
 1590 05a7 E8000000 		.4byte	0xe8
 1591 05ab B5050000 		.4byte	0x5b5
 1592 05af 0F       		.uleb128 0xf
 1593 05b0 9C020000 		.4byte	0x29c
 1594 05b4 00       		.byte	0
 1595 05b5 05       		.uleb128 0x5
 1596 05b6 E0030000 		.4byte	.LASF83
 1597 05ba 10       		.byte	0x10
 1598 05bb 0D       		.byte	0xd
 1599 05bc 3F       		.byte	0x3f
 1600 05bd FA050000 		.4byte	0x5fa
 1601 05c1 06       		.uleb128 0x6
 1602 05c2 BB010000 		.4byte	.LASF84
 1603 05c6 0D       		.byte	0xd
 1604 05c7 40       		.byte	0x40
 1605 05c8 7C050000 		.4byte	0x57c
 1606 05cc 02       		.byte	0x2
 1607 05cd 23       		.byte	0x23
 1608 05ce 00       		.uleb128 0
 1609 05cf 06       		.uleb128 0x6
 1610 05d0 D5020000 		.4byte	.LASF85
 1611 05d4 0D       		.byte	0xd
 1612 05d5 41       		.byte	0x41
 1613 05d6 FC050000 		.4byte	0x5fc
 1614 05da 02       		.byte	0x2
 1615 05db 23       		.byte	0x23
 1616 05dc 04       		.uleb128 0x4
 1617 05dd 06       		.uleb128 0x6
 1618 05de A7010000 		.4byte	.LASF86
 1619 05e2 0D       		.byte	0xd
 1620 05e3 42       		.byte	0x42
 1621 05e4 FC050000 		.4byte	0x5fc
 1622 05e8 02       		.byte	0x2
 1623 05e9 23       		.byte	0x23
 1624 05ea 08       		.uleb128 0x8
 1625 05eb 06       		.uleb128 0x6
 1626 05ec 31030000 		.4byte	.LASF87
ARM GAS  /tmp/ccCPaF2U.s 			page 30


 1627 05f0 0D       		.byte	0xd
 1628 05f1 43       		.byte	0x43
 1629 05f2 FC050000 		.4byte	0x5fc
 1630 05f6 02       		.byte	0x2
 1631 05f7 23       		.byte	0x23
 1632 05f8 0C       		.uleb128 0xc
 1633 05f9 00       		.byte	0
 1634 05fa 15       		.uleb128 0x15
 1635 05fb 01       		.byte	0x1
 1636 05fc 09       		.uleb128 0x9
 1637 05fd 04       		.byte	0x4
 1638 05fe FA050000 		.4byte	0x5fa
 1639 0602 16       		.uleb128 0x16
 1640 0603 F005     		.2byte	0x5f0
 1641 0605 0D       		.byte	0xd
 1642 0606 48       		.byte	0x48
 1643 0607 51060000 		.4byte	0x651
 1644 060b 07       		.uleb128 0x7
 1645 060c 543000   		.ascii	"T0\000"
 1646 060f 0D       		.byte	0xd
 1647 0610 49       		.byte	0x49
 1648 0611 51060000 		.4byte	0x651
 1649 0615 02       		.byte	0x2
 1650 0616 23       		.byte	0x23
 1651 0617 00       		.uleb128 0
 1652 0618 07       		.uleb128 0x7
 1653 0619 543100   		.ascii	"T1\000"
 1654 061c 0D       		.byte	0xd
 1655 061d 4A       		.byte	0x4a
 1656 061e 51060000 		.4byte	0x651
 1657 0622 03       		.byte	0x3
 1658 0623 23       		.byte	0x23
 1659 0624 B002     		.uleb128 0x130
 1660 0626 07       		.uleb128 0x7
 1661 0627 543200   		.ascii	"T2\000"
 1662 062a 0D       		.byte	0xd
 1663 062b 4B       		.byte	0x4b
 1664 062c 51060000 		.4byte	0x651
 1665 0630 03       		.byte	0x3
 1666 0631 23       		.byte	0x23
 1667 0632 E004     		.uleb128 0x260
 1668 0634 07       		.uleb128 0x7
 1669 0635 543300   		.ascii	"T3\000"
 1670 0638 0D       		.byte	0xd
 1671 0639 4C       		.byte	0x4c
 1672 063a 51060000 		.4byte	0x651
 1673 063e 03       		.byte	0x3
 1674 063f 23       		.byte	0x23
 1675 0640 9007     		.uleb128 0x390
 1676 0642 07       		.uleb128 0x7
 1677 0643 543400   		.ascii	"T4\000"
 1678 0646 0D       		.byte	0xd
 1679 0647 4D       		.byte	0x4d
 1680 0648 51060000 		.4byte	0x651
 1681 064c 03       		.byte	0x3
 1682 064d 23       		.byte	0x23
 1683 064e C009     		.uleb128 0x4c0
ARM GAS  /tmp/ccCPaF2U.s 			page 31


 1684 0650 00       		.byte	0
 1685 0651 17       		.uleb128 0x17
 1686 0652 9E020000 		.4byte	0x29e
 1687 0656 61060000 		.4byte	0x661
 1688 065a 18       		.uleb128 0x18
 1689 065b 5A030000 		.4byte	0x35a
 1690 065f 25       		.byte	0x25
 1691 0660 00       		.byte	0
 1692 0661 19       		.uleb128 0x19
 1693 0662 B6040000 		.4byte	.LASF89
 1694 0666 F005     		.2byte	0x5f0
 1695 0668 0D       		.byte	0xd
 1696 0669 47       		.byte	0x47
 1697 066a 84060000 		.4byte	0x684
 1698 066e 13       		.uleb128 0x13
 1699 066f 776100   		.ascii	"wa\000"
 1700 0672 0D       		.byte	0xd
 1701 0673 4E       		.byte	0x4e
 1702 0674 02060000 		.4byte	0x602
 1703 0678 11       		.uleb128 0x11
 1704 0679 70040000 		.4byte	.LASF90
 1705 067d 0D       		.byte	0xd
 1706 067e 4F       		.byte	0x4f
 1707 067f 84060000 		.4byte	0x684
 1708 0683 00       		.byte	0
 1709 0684 17       		.uleb128 0x17
 1710 0685 49000000 		.4byte	0x49
 1711 0689 95060000 		.4byte	0x695
 1712 068d 1A       		.uleb128 0x1a
 1713 068e 5A030000 		.4byte	0x35a
 1714 0692 EF05     		.2byte	0x5ef
 1715 0694 00       		.byte	0
 1716 0695 1B       		.uleb128 0x1b
 1717 0696 E0040000 		.4byte	.LASF92
 1718 069a 01       		.byte	0x1
 1719 069b C3       		.byte	0xc3
 1720 069c 01       		.byte	0x1
 1721 069d A6000000 		.4byte	0xa6
 1722 06a1 00000000 		.4byte	.LFB12
 1723 06a5 24000000 		.4byte	.LFE12
 1724 06a9 00000000 		.4byte	.LLST0
 1725 06ad 01       		.byte	0x1
 1726 06ae F1060000 		.4byte	0x6f1
 1727 06b2 1C       		.uleb128 0x1c
 1728 06b3 747000   		.ascii	"tp\000"
 1729 06b6 01       		.byte	0x1
 1730 06b7 C3       		.byte	0xc3
 1731 06b8 5E020000 		.4byte	0x25e
 1732 06bc 20000000 		.4byte	.LLST1
 1733 06c0 1D       		.uleb128 0x1d
 1734 06c1 66747000 		.ascii	"ftp\000"
 1735 06c5 01       		.byte	0x1
 1736 06c6 C4       		.byte	0xc4
 1737 06c7 5E020000 		.4byte	0x25e
 1738 06cb 3E000000 		.4byte	.LLST2
 1739 06cf 1E       		.uleb128 0x1e
 1740 06d0 B0040000 		.4byte	.LASF91
ARM GAS  /tmp/ccCPaF2U.s 			page 32


 1741 06d4 01       		.byte	0x1
 1742 06d5 C5       		.byte	0xc5
 1743 06d6 A6000000 		.4byte	0xa6
 1744 06da 67000000 		.4byte	.LLST3
 1745 06de 1F       		.uleb128 0x1f
 1746 06df 08000000 		.4byte	.LVL1
 1747 06e3 3F0E0000 		.4byte	0xe3f
 1748 06e7 1F       		.uleb128 0x1f
 1749 06e8 1A000000 		.4byte	.LVL4
 1750 06ec 4D0E0000 		.4byte	0xe4d
 1751 06f0 00       		.byte	0
 1752 06f1 20       		.uleb128 0x20
 1753 06f2 9E020000 		.4byte	.LASF94
 1754 06f6 01       		.byte	0x1
 1755 06f7 D4       		.byte	0xd4
 1756 06f8 01       		.byte	0x1
 1757 06f9 00000000 		.4byte	.LFB14
 1758 06fd 3C010000 		.4byte	.LFE14
 1759 0701 86000000 		.4byte	.LLST4
 1760 0705 01       		.byte	0x1
 1761 0706 FE080000 		.4byte	0x8fe
 1762 070a 1D       		.uleb128 0x1d
 1763 070b 747000   		.ascii	"tp\000"
 1764 070e 01       		.byte	0x1
 1765 070f D5       		.byte	0xd5
 1766 0710 5E020000 		.4byte	0x25e
 1767 0714 B2000000 		.4byte	.LLST5
 1768 0718 21       		.uleb128 0x21
 1769 0719 15000000 		.4byte	.LASF98
 1770 071d 01       		.byte	0x1
 1771 071e D6       		.byte	0xd6
 1772 071f DD000000 		.4byte	0xdd
 1773 0723 22       		.uleb128 0x22
 1774 0724 1C000000 		.4byte	.LVL7
 1775 0728 650E0000 		.4byte	0xe65
 1776 072c 54070000 		.4byte	0x754
 1777 0730 23       		.uleb128 0x23
 1778 0731 01       		.byte	0x1
 1779 0732 53       		.byte	0x53
 1780 0733 05       		.byte	0x5
 1781 0734 03       		.byte	0x3
 1782 0735 00000000 		.4byte	thread
 1783 0739 23       		.uleb128 0x23
 1784 073a 01       		.byte	0x1
 1785 073b 51       		.byte	0x51
 1786 073c 03       		.byte	0x3
 1787 073d 0A       		.byte	0xa
 1788 073e 3001     		.2byte	0x130
 1789 0740 23       		.uleb128 0x23
 1790 0741 01       		.byte	0x1
 1791 0742 50       		.byte	0x50
 1792 0743 05       		.byte	0x5
 1793 0744 03       		.byte	0x3
 1794 0745 00000000 		.4byte	.LANCHOR0
 1795 0749 23       		.uleb128 0x23
 1796 074a 02       		.byte	0x2
 1797 074b 7D       		.byte	0x7d
ARM GAS  /tmp/ccCPaF2U.s 			page 33


 1798 074c 00       		.sleb128 0
 1799 074d 05       		.byte	0x5
 1800 074e 03       		.byte	0x3
 1801 074f 00000000 		.4byte	.LC0
 1802 0753 00       		.byte	0
 1803 0754 22       		.uleb128 0x22
 1804 0755 32000000 		.4byte	.LVL10
 1805 0759 910E0000 		.4byte	0xe91
 1806 075d 67070000 		.4byte	0x767
 1807 0761 23       		.uleb128 0x23
 1808 0762 01       		.byte	0x1
 1809 0763 50       		.byte	0x50
 1810 0764 01       		.byte	0x1
 1811 0765 31       		.byte	0x31
 1812 0766 00       		.byte	0
 1813 0767 22       		.uleb128 0x22
 1814 0768 3E000000 		.4byte	.LVL11
 1815 076c AE0E0000 		.4byte	0xeae
 1816 0770 7B070000 		.4byte	0x77b
 1817 0774 23       		.uleb128 0x23
 1818 0775 01       		.byte	0x1
 1819 0776 50       		.byte	0x50
 1820 0777 02       		.byte	0x2
 1821 0778 74       		.byte	0x74
 1822 0779 00       		.sleb128 0
 1823 077a 00       		.byte	0
 1824 077b 22       		.uleb128 0x22
 1825 077c 52000000 		.4byte	.LVL12
 1826 0780 910E0000 		.4byte	0xe91
 1827 0784 8E070000 		.4byte	0x78e
 1828 0788 23       		.uleb128 0x23
 1829 0789 01       		.byte	0x1
 1830 078a 50       		.byte	0x50
 1831 078b 01       		.byte	0x1
 1832 078c 32       		.byte	0x32
 1833 078d 00       		.byte	0
 1834 078e 22       		.uleb128 0x22
 1835 078f 5C000000 		.4byte	.LVL13
 1836 0793 C60E0000 		.4byte	0xec6
 1837 0797 A2070000 		.4byte	0x7a2
 1838 079b 23       		.uleb128 0x23
 1839 079c 01       		.byte	0x1
 1840 079d 50       		.byte	0x50
 1841 079e 02       		.byte	0x2
 1842 079f 74       		.byte	0x74
 1843 07a0 00       		.sleb128 0
 1844 07a1 00       		.byte	0
 1845 07a2 22       		.uleb128 0x22
 1846 07a3 6A000000 		.4byte	.LVL14
 1847 07a7 910E0000 		.4byte	0xe91
 1848 07ab B5070000 		.4byte	0x7b5
 1849 07af 23       		.uleb128 0x23
 1850 07b0 01       		.byte	0x1
 1851 07b1 50       		.byte	0x50
 1852 07b2 01       		.byte	0x1
 1853 07b3 33       		.byte	0x33
 1854 07b4 00       		.byte	0
ARM GAS  /tmp/ccCPaF2U.s 			page 34


 1855 07b5 22       		.uleb128 0x22
 1856 07b6 74000000 		.4byte	.LVL15
 1857 07ba 95060000 		.4byte	0x695
 1858 07be C9070000 		.4byte	0x7c9
 1859 07c2 23       		.uleb128 0x23
 1860 07c3 01       		.byte	0x1
 1861 07c4 50       		.byte	0x50
 1862 07c5 02       		.byte	0x2
 1863 07c6 74       		.byte	0x74
 1864 07c7 00       		.sleb128 0
 1865 07c8 00       		.byte	0
 1866 07c9 22       		.uleb128 0x22
 1867 07ca 7C000000 		.4byte	.LVL16
 1868 07ce 910E0000 		.4byte	0xe91
 1869 07d2 DC070000 		.4byte	0x7dc
 1870 07d6 23       		.uleb128 0x23
 1871 07d7 01       		.byte	0x1
 1872 07d8 50       		.byte	0x50
 1873 07d9 01       		.byte	0x1
 1874 07da 34       		.byte	0x34
 1875 07db 00       		.byte	0
 1876 07dc 22       		.uleb128 0x22
 1877 07dd 86000000 		.4byte	.LVL17
 1878 07e1 95060000 		.4byte	0x695
 1879 07e5 F0070000 		.4byte	0x7f0
 1880 07e9 23       		.uleb128 0x23
 1881 07ea 01       		.byte	0x1
 1882 07eb 50       		.byte	0x50
 1883 07ec 02       		.byte	0x2
 1884 07ed 74       		.byte	0x74
 1885 07ee 00       		.sleb128 0
 1886 07ef 00       		.byte	0
 1887 07f0 22       		.uleb128 0x22
 1888 07f1 8E000000 		.4byte	.LVL18
 1889 07f5 910E0000 		.4byte	0xe91
 1890 07f9 03080000 		.4byte	0x803
 1891 07fd 23       		.uleb128 0x23
 1892 07fe 01       		.byte	0x1
 1893 07ff 50       		.byte	0x50
 1894 0800 01       		.byte	0x1
 1895 0801 35       		.byte	0x35
 1896 0802 00       		.byte	0
 1897 0803 22       		.uleb128 0x22
 1898 0804 98000000 		.4byte	.LVL19
 1899 0808 C60E0000 		.4byte	0xec6
 1900 080c 17080000 		.4byte	0x817
 1901 0810 23       		.uleb128 0x23
 1902 0811 01       		.byte	0x1
 1903 0812 50       		.byte	0x50
 1904 0813 02       		.byte	0x2
 1905 0814 74       		.byte	0x74
 1906 0815 00       		.sleb128 0
 1907 0816 00       		.byte	0
 1908 0817 22       		.uleb128 0x22
 1909 0818 A8000000 		.4byte	.LVL20
 1910 081c 910E0000 		.4byte	0xe91
 1911 0820 2A080000 		.4byte	0x82a
ARM GAS  /tmp/ccCPaF2U.s 			page 35


 1912 0824 23       		.uleb128 0x23
 1913 0825 01       		.byte	0x1
 1914 0826 50       		.byte	0x50
 1915 0827 01       		.byte	0x1
 1916 0828 36       		.byte	0x36
 1917 0829 00       		.byte	0
 1918 082a 22       		.uleb128 0x22
 1919 082b BC000000 		.4byte	.LVL21
 1920 082f 910E0000 		.4byte	0xe91
 1921 0833 3D080000 		.4byte	0x83d
 1922 0837 23       		.uleb128 0x23
 1923 0838 01       		.byte	0x1
 1924 0839 50       		.byte	0x50
 1925 083a 01       		.byte	0x1
 1926 083b 37       		.byte	0x37
 1927 083c 00       		.byte	0
 1928 083d 22       		.uleb128 0x22
 1929 083e C6000000 		.4byte	.LVL22
 1930 0842 95060000 		.4byte	0x695
 1931 0846 51080000 		.4byte	0x851
 1932 084a 23       		.uleb128 0x23
 1933 084b 01       		.byte	0x1
 1934 084c 50       		.byte	0x50
 1935 084d 02       		.byte	0x2
 1936 084e 74       		.byte	0x74
 1937 084f 00       		.sleb128 0
 1938 0850 00       		.byte	0
 1939 0851 22       		.uleb128 0x22
 1940 0852 CE000000 		.4byte	.LVL23
 1941 0856 910E0000 		.4byte	0xe91
 1942 085a 64080000 		.4byte	0x864
 1943 085e 23       		.uleb128 0x23
 1944 085f 01       		.byte	0x1
 1945 0860 50       		.byte	0x50
 1946 0861 01       		.byte	0x1
 1947 0862 38       		.byte	0x38
 1948 0863 00       		.byte	0
 1949 0864 22       		.uleb128 0x22
 1950 0865 D8000000 		.4byte	.LVL24
 1951 0869 95060000 		.4byte	0x695
 1952 086d 78080000 		.4byte	0x878
 1953 0871 23       		.uleb128 0x23
 1954 0872 01       		.byte	0x1
 1955 0873 50       		.byte	0x50
 1956 0874 02       		.byte	0x2
 1957 0875 74       		.byte	0x74
 1958 0876 00       		.sleb128 0
 1959 0877 00       		.byte	0
 1960 0878 22       		.uleb128 0x22
 1961 0879 E0000000 		.4byte	.LVL25
 1962 087d 910E0000 		.4byte	0xe91
 1963 0881 8B080000 		.4byte	0x88b
 1964 0885 23       		.uleb128 0x23
 1965 0886 01       		.byte	0x1
 1966 0887 50       		.byte	0x50
 1967 0888 01       		.byte	0x1
 1968 0889 39       		.byte	0x39
ARM GAS  /tmp/ccCPaF2U.s 			page 36


 1969 088a 00       		.byte	0
 1970 088b 22       		.uleb128 0x22
 1971 088c EA000000 		.4byte	.LVL26
 1972 0890 DA0E0000 		.4byte	0xeda
 1973 0894 9F080000 		.4byte	0x89f
 1974 0898 23       		.uleb128 0x23
 1975 0899 01       		.byte	0x1
 1976 089a 50       		.byte	0x50
 1977 089b 02       		.byte	0x2
 1978 089c 08       		.byte	0x8
 1979 089d 32       		.byte	0x32
 1980 089e 00       		.byte	0
 1981 089f 22       		.uleb128 0x22
 1982 08a0 FA000000 		.4byte	.LVL27
 1983 08a4 910E0000 		.4byte	0xe91
 1984 08a8 B2080000 		.4byte	0x8b2
 1985 08ac 23       		.uleb128 0x23
 1986 08ad 01       		.byte	0x1
 1987 08ae 50       		.byte	0x50
 1988 08af 01       		.byte	0x1
 1989 08b0 3A       		.byte	0x3a
 1990 08b1 00       		.byte	0
 1991 08b2 22       		.uleb128 0x22
 1992 08b3 04010000 		.4byte	.LVL28
 1993 08b7 95060000 		.4byte	0x695
 1994 08bb C6080000 		.4byte	0x8c6
 1995 08bf 23       		.uleb128 0x23
 1996 08c0 01       		.byte	0x1
 1997 08c1 50       		.byte	0x50
 1998 08c2 02       		.byte	0x2
 1999 08c3 74       		.byte	0x74
 2000 08c4 00       		.sleb128 0
 2001 08c5 00       		.byte	0
 2002 08c6 22       		.uleb128 0x22
 2003 08c7 0C010000 		.4byte	.LVL29
 2004 08cb 910E0000 		.4byte	0xe91
 2005 08cf D9080000 		.4byte	0x8d9
 2006 08d3 23       		.uleb128 0x23
 2007 08d4 01       		.byte	0x1
 2008 08d5 50       		.byte	0x50
 2009 08d6 01       		.byte	0x1
 2010 08d7 3B       		.byte	0x3b
 2011 08d8 00       		.byte	0
 2012 08d9 22       		.uleb128 0x22
 2013 08da 16010000 		.4byte	.LVL30
 2014 08de 95060000 		.4byte	0x695
 2015 08e2 ED080000 		.4byte	0x8ed
 2016 08e6 23       		.uleb128 0x23
 2017 08e7 01       		.byte	0x1
 2018 08e8 50       		.byte	0x50
 2019 08e9 02       		.byte	0x2
 2020 08ea 74       		.byte	0x74
 2021 08eb 00       		.sleb128 0
 2022 08ec 00       		.byte	0
 2023 08ed 24       		.uleb128 0x24
 2024 08ee 2A010000 		.4byte	.LVL31
 2025 08f2 01       		.byte	0x1
ARM GAS  /tmp/ccCPaF2U.s 			page 37


 2026 08f3 910E0000 		.4byte	0xe91
 2027 08f7 23       		.uleb128 0x23
 2028 08f8 01       		.byte	0x1
 2029 08f9 50       		.byte	0x50
 2030 08fa 01       		.byte	0x1
 2031 08fb 3C       		.byte	0x3c
 2032 08fc 00       		.byte	0
 2033 08fd 00       		.byte	0
 2034 08fe 1B       		.uleb128 0x1b
 2035 08ff 41030000 		.4byte	.LASF93
 2036 0903 01       		.byte	0x1
 2037 0904 4B       		.byte	0x4b
 2038 0905 01       		.byte	0x1
 2039 0906 E8000000 		.4byte	0xe8
 2040 090a 00000000 		.4byte	.LFB7
 2041 090e 0C000000 		.4byte	.LFE7
 2042 0912 D0000000 		.4byte	.LLST6
 2043 0916 01       		.byte	0x1
 2044 0917 32090000 		.4byte	0x932
 2045 091b 1C       		.uleb128 0x1c
 2046 091c 7000     		.ascii	"p\000"
 2047 091e 01       		.byte	0x1
 2048 091f 4B       		.byte	0x4b
 2049 0920 9C020000 		.4byte	0x29c
 2050 0924 F0000000 		.4byte	.LLST7
 2051 0928 1F       		.uleb128 0x1f
 2052 0929 08000000 		.4byte	.LVL34
 2053 092d EF0E0000 		.4byte	0xeef
 2054 0931 00       		.byte	0
 2055 0932 25       		.uleb128 0x25
 2056 0933 2A040000 		.4byte	.LASF95
 2057 0937 01       		.byte	0x1
 2058 0938 CF       		.byte	0xcf
 2059 0939 01       		.byte	0x1
 2060 093a 00000000 		.4byte	.LFB13
 2061 093e 18000000 		.4byte	.LFE13
 2062 0942 02       		.byte	0x2
 2063 0943 7D       		.byte	0x7d
 2064 0944 00       		.sleb128 0
 2065 0945 01       		.byte	0x1
 2066 0946 66090000 		.4byte	0x966
 2067 094a 24       		.uleb128 0x24
 2068 094b 18000000 		.4byte	.LVL35
 2069 094f 01       		.byte	0x1
 2070 0950 030F0000 		.4byte	0xf03
 2071 0954 23       		.uleb128 0x23
 2072 0955 01       		.byte	0x1
 2073 0956 52       		.byte	0x52
 2074 0957 03       		.byte	0x3
 2075 0958 0A       		.byte	0xa
 2076 0959 F005     		.2byte	0x5f0
 2077 095b 23       		.uleb128 0x23
 2078 095c 01       		.byte	0x1
 2079 095d 50       		.byte	0x50
 2080 095e 05       		.byte	0x5
 2081 095f 03       		.byte	0x3
 2082 0960 00000000 		.4byte	.LANCHOR0
ARM GAS  /tmp/ccCPaF2U.s 			page 38


 2083 0964 00       		.byte	0
 2084 0965 00       		.byte	0
 2085 0966 25       		.uleb128 0x25
 2086 0967 B0010000 		.4byte	.LASF96
 2087 096b 01       		.byte	0x1
 2088 096c 52       		.byte	0x52
 2089 096d 01       		.byte	0x1
 2090 096e 00000000 		.4byte	.LFB8
 2091 0972 18000000 		.4byte	.LFE8
 2092 0976 02       		.byte	0x2
 2093 0977 7D       		.byte	0x7d
 2094 0978 00       		.sleb128 0
 2095 0979 01       		.byte	0x1
 2096 097a 9A090000 		.4byte	0x99a
 2097 097e 24       		.uleb128 0x24
 2098 097f 18000000 		.4byte	.LVL36
 2099 0983 01       		.byte	0x1
 2100 0984 030F0000 		.4byte	0xf03
 2101 0988 23       		.uleb128 0x23
 2102 0989 01       		.byte	0x1
 2103 098a 52       		.byte	0x52
 2104 098b 03       		.byte	0x3
 2105 098c 0A       		.byte	0xa
 2106 098d F005     		.2byte	0x5f0
 2107 098f 23       		.uleb128 0x23
 2108 0990 01       		.byte	0x1
 2109 0991 50       		.byte	0x50
 2110 0992 05       		.byte	0x5
 2111 0993 03       		.byte	0x3
 2112 0994 00000000 		.4byte	.LANCHOR0
 2113 0998 00       		.byte	0
 2114 0999 00       		.byte	0
 2115 099a 20       		.uleb128 0x20
 2116 099b E0010000 		.4byte	.LASF97
 2117 099f 01       		.byte	0x1
 2118 09a0 91       		.byte	0x91
 2119 09a1 01       		.byte	0x1
 2120 09a2 00000000 		.4byte	.LFB11
 2121 09a6 F8000000 		.4byte	.LFE11
 2122 09aa 11010000 		.4byte	.LLST8
 2123 09ae 01       		.byte	0x1
 2124 09af 590B0000 		.4byte	0xb59
 2125 09b3 1D       		.uleb128 0x1d
 2126 09b4 6900     		.ascii	"i\000"
 2127 09b6 01       		.byte	0x1
 2128 09b7 92       		.byte	0x92
 2129 09b8 29000000 		.4byte	0x29
 2130 09bc 31010000 		.4byte	.LLST9
 2131 09c0 26       		.uleb128 0x26
 2132 09c1 15000000 		.4byte	.LASF98
 2133 09c5 01       		.byte	0x1
 2134 09c6 93       		.byte	0x93
 2135 09c7 DD000000 		.4byte	0xdd
 2136 09cb 01       		.byte	0x1
 2137 09cc 55       		.byte	0x55
 2138 09cd 22       		.uleb128 0x22
 2139 09ce 18000000 		.4byte	.LVL39
ARM GAS  /tmp/ccCPaF2U.s 			page 39


 2140 09d2 210F0000 		.4byte	0xf21
 2141 09d6 E4090000 		.4byte	0x9e4
 2142 09da 23       		.uleb128 0x23
 2143 09db 01       		.byte	0x1
 2144 09dc 50       		.byte	0x50
 2145 09dd 05       		.byte	0x5
 2146 09de 03       		.byte	0x3
 2147 09df 00000000 		.4byte	.LANCHOR1
 2148 09e3 00       		.byte	0
 2149 09e4 22       		.uleb128 0x22
 2150 09e5 2A000000 		.4byte	.LVL40
 2151 09e9 400F0000 		.4byte	0xf40
 2152 09ed 130A0000 		.4byte	0xa13
 2153 09f1 23       		.uleb128 0x23
 2154 09f2 01       		.byte	0x1
 2155 09f3 53       		.byte	0x53
 2156 09f4 05       		.byte	0x5
 2157 09f5 03       		.byte	0x3
 2158 09f6 00000000 		.4byte	.LC0
 2159 09fa 23       		.uleb128 0x23
 2160 09fb 01       		.byte	0x1
 2161 09fc 52       		.byte	0x52
 2162 09fd 05       		.byte	0x5
 2163 09fe 03       		.byte	0x3
 2164 09ff 00000000 		.4byte	thread
 2165 0a03 23       		.uleb128 0x23
 2166 0a04 01       		.byte	0x1
 2167 0a05 51       		.byte	0x51
 2168 0a06 02       		.byte	0x2
 2169 0a07 75       		.byte	0x75
 2170 0a08 7F       		.sleb128 -1
 2171 0a09 23       		.uleb128 0x23
 2172 0a0a 01       		.byte	0x1
 2173 0a0b 50       		.byte	0x50
 2174 0a0c 05       		.byte	0x5
 2175 0a0d 03       		.byte	0x3
 2176 0a0e 00000000 		.4byte	.LANCHOR1
 2177 0a12 00       		.byte	0
 2178 0a13 22       		.uleb128 0x22
 2179 0a14 38000000 		.4byte	.LVL41
 2180 0a18 400F0000 		.4byte	0xf40
 2181 0a1c 420A0000 		.4byte	0xa42
 2182 0a20 23       		.uleb128 0x23
 2183 0a21 01       		.byte	0x1
 2184 0a22 53       		.byte	0x53
 2185 0a23 05       		.byte	0x5
 2186 0a24 03       		.byte	0x3
 2187 0a25 04000000 		.4byte	.LC1
 2188 0a29 23       		.uleb128 0x23
 2189 0a2a 01       		.byte	0x1
 2190 0a2b 52       		.byte	0x52
 2191 0a2c 05       		.byte	0x5
 2192 0a2d 03       		.byte	0x3
 2193 0a2e 00000000 		.4byte	thread
 2194 0a32 23       		.uleb128 0x23
 2195 0a33 01       		.byte	0x1
 2196 0a34 51       		.byte	0x51
ARM GAS  /tmp/ccCPaF2U.s 			page 40


 2197 0a35 02       		.byte	0x2
 2198 0a36 75       		.byte	0x75
 2199 0a37 7E       		.sleb128 -2
 2200 0a38 23       		.uleb128 0x23
 2201 0a39 01       		.byte	0x1
 2202 0a3a 50       		.byte	0x50
 2203 0a3b 05       		.byte	0x5
 2204 0a3c 03       		.byte	0x3
 2205 0a3d 00000000 		.4byte	.LANCHOR1
 2206 0a41 00       		.byte	0
 2207 0a42 22       		.uleb128 0x22
 2208 0a43 46000000 		.4byte	.LVL42
 2209 0a47 400F0000 		.4byte	0xf40
 2210 0a4b 710A0000 		.4byte	0xa71
 2211 0a4f 23       		.uleb128 0x23
 2212 0a50 01       		.byte	0x1
 2213 0a51 53       		.byte	0x53
 2214 0a52 05       		.byte	0x5
 2215 0a53 03       		.byte	0x3
 2216 0a54 08000000 		.4byte	.LC2
 2217 0a58 23       		.uleb128 0x23
 2218 0a59 01       		.byte	0x1
 2219 0a5a 52       		.byte	0x52
 2220 0a5b 05       		.byte	0x5
 2221 0a5c 03       		.byte	0x3
 2222 0a5d 00000000 		.4byte	thread
 2223 0a61 23       		.uleb128 0x23
 2224 0a62 01       		.byte	0x1
 2225 0a63 51       		.byte	0x51
 2226 0a64 02       		.byte	0x2
 2227 0a65 75       		.byte	0x75
 2228 0a66 7D       		.sleb128 -3
 2229 0a67 23       		.uleb128 0x23
 2230 0a68 01       		.byte	0x1
 2231 0a69 50       		.byte	0x50
 2232 0a6a 05       		.byte	0x5
 2233 0a6b 03       		.byte	0x3
 2234 0a6c 00000000 		.4byte	.LANCHOR1
 2235 0a70 00       		.byte	0
 2236 0a71 22       		.uleb128 0x22
 2237 0a72 54000000 		.4byte	.LVL43
 2238 0a76 400F0000 		.4byte	0xf40
 2239 0a7a A00A0000 		.4byte	0xaa0
 2240 0a7e 23       		.uleb128 0x23
 2241 0a7f 01       		.byte	0x1
 2242 0a80 53       		.byte	0x53
 2243 0a81 05       		.byte	0x5
 2244 0a82 03       		.byte	0x3
 2245 0a83 0C000000 		.4byte	.LC3
 2246 0a87 23       		.uleb128 0x23
 2247 0a88 01       		.byte	0x1
 2248 0a89 52       		.byte	0x52
 2249 0a8a 05       		.byte	0x5
 2250 0a8b 03       		.byte	0x3
 2251 0a8c 00000000 		.4byte	thread
 2252 0a90 23       		.uleb128 0x23
 2253 0a91 01       		.byte	0x1
ARM GAS  /tmp/ccCPaF2U.s 			page 41


 2254 0a92 51       		.byte	0x51
 2255 0a93 02       		.byte	0x2
 2256 0a94 75       		.byte	0x75
 2257 0a95 7C       		.sleb128 -4
 2258 0a96 23       		.uleb128 0x23
 2259 0a97 01       		.byte	0x1
 2260 0a98 50       		.byte	0x50
 2261 0a99 05       		.byte	0x5
 2262 0a9a 03       		.byte	0x3
 2263 0a9b 00000000 		.4byte	.LANCHOR1
 2264 0a9f 00       		.byte	0
 2265 0aa0 22       		.uleb128 0x22
 2266 0aa1 62000000 		.4byte	.LVL44
 2267 0aa5 400F0000 		.4byte	0xf40
 2268 0aa9 CF0A0000 		.4byte	0xacf
 2269 0aad 23       		.uleb128 0x23
 2270 0aae 01       		.byte	0x1
 2271 0aaf 53       		.byte	0x53
 2272 0ab0 05       		.byte	0x5
 2273 0ab1 03       		.byte	0x3
 2274 0ab2 10000000 		.4byte	.LC4
 2275 0ab6 23       		.uleb128 0x23
 2276 0ab7 01       		.byte	0x1
 2277 0ab8 52       		.byte	0x52
 2278 0ab9 05       		.byte	0x5
 2279 0aba 03       		.byte	0x3
 2280 0abb 00000000 		.4byte	thread
 2281 0abf 23       		.uleb128 0x23
 2282 0ac0 01       		.byte	0x1
 2283 0ac1 51       		.byte	0x51
 2284 0ac2 02       		.byte	0x2
 2285 0ac3 75       		.byte	0x75
 2286 0ac4 7B       		.sleb128 -5
 2287 0ac5 23       		.uleb128 0x23
 2288 0ac6 01       		.byte	0x1
 2289 0ac7 50       		.byte	0x50
 2290 0ac8 05       		.byte	0x5
 2291 0ac9 03       		.byte	0x3
 2292 0aca 00000000 		.4byte	.LANCHOR1
 2293 0ace 00       		.byte	0
 2294 0acf 22       		.uleb128 0x22
 2295 0ad0 82000000 		.4byte	.LVL45
 2296 0ad4 910E0000 		.4byte	0xe91
 2297 0ad8 E20A0000 		.4byte	0xae2
 2298 0adc 23       		.uleb128 0x23
 2299 0add 01       		.byte	0x1
 2300 0ade 50       		.byte	0x50
 2301 0adf 01       		.byte	0x1
 2302 0ae0 31       		.byte	0x31
 2303 0ae1 00       		.byte	0
 2304 0ae2 1F       		.uleb128 0x1f
 2305 0ae3 8A000000 		.4byte	.LVL46
 2306 0ae7 670F0000 		.4byte	0xf67
 2307 0aeb 22       		.uleb128 0x22
 2308 0aec 92000000 		.4byte	.LVL47
 2309 0af0 710F0000 		.4byte	0xf71
 2310 0af4 070B0000 		.4byte	0xb07
ARM GAS  /tmp/ccCPaF2U.s 			page 42


 2311 0af8 23       		.uleb128 0x23
 2312 0af9 01       		.byte	0x1
 2313 0afa 51       		.byte	0x51
 2314 0afb 05       		.byte	0x5
 2315 0afc 03       		.byte	0x3
 2316 0afd 14000000 		.4byte	.LC5
 2317 0b01 23       		.uleb128 0x23
 2318 0b02 01       		.byte	0x1
 2319 0b03 50       		.byte	0x50
 2320 0b04 01       		.byte	0x1
 2321 0b05 32       		.byte	0x32
 2322 0b06 00       		.byte	0
 2323 0b07 22       		.uleb128 0x22
 2324 0b08 9E000000 		.4byte	.LVL48
 2325 0b0c 940F0000 		.4byte	0xf94
 2326 0b10 1E0B0000 		.4byte	0xb1e
 2327 0b14 23       		.uleb128 0x23
 2328 0b15 01       		.byte	0x1
 2329 0b16 50       		.byte	0x50
 2330 0b17 05       		.byte	0x5
 2331 0b18 03       		.byte	0x3
 2332 0b19 00000000 		.4byte	.LANCHOR1
 2333 0b1d 00       		.byte	0
 2334 0b1e 22       		.uleb128 0x22
 2335 0b1f AA000000 		.4byte	.LVL49
 2336 0b23 910E0000 		.4byte	0xe91
 2337 0b27 310B0000 		.4byte	0xb31
 2338 0b2b 23       		.uleb128 0x23
 2339 0b2c 01       		.byte	0x1
 2340 0b2d 50       		.byte	0x50
 2341 0b2e 01       		.byte	0x1
 2342 0b2f 33       		.byte	0x33
 2343 0b30 00       		.byte	0
 2344 0b31 22       		.uleb128 0x22
 2345 0b32 B8000000 		.4byte	.LVL50
 2346 0b36 940F0000 		.4byte	0xf94
 2347 0b3a 480B0000 		.4byte	0xb48
 2348 0b3e 23       		.uleb128 0x23
 2349 0b3f 01       		.byte	0x1
 2350 0b40 50       		.byte	0x50
 2351 0b41 05       		.byte	0x5
 2352 0b42 03       		.byte	0x3
 2353 0b43 00000000 		.4byte	.LANCHOR1
 2354 0b47 00       		.byte	0
 2355 0b48 24       		.uleb128 0x24
 2356 0b49 CA000000 		.4byte	.LVL51
 2357 0b4d 01       		.byte	0x1
 2358 0b4e 910E0000 		.4byte	0xe91
 2359 0b52 23       		.uleb128 0x23
 2360 0b53 01       		.byte	0x1
 2361 0b54 50       		.byte	0x50
 2362 0b55 01       		.byte	0x1
 2363 0b56 34       		.byte	0x34
 2364 0b57 00       		.byte	0
 2365 0b58 00       		.byte	0
 2366 0b59 25       		.uleb128 0x25
 2367 0b5a A1000000 		.4byte	.LASF99
ARM GAS  /tmp/ccCPaF2U.s 			page 43


 2368 0b5e 01       		.byte	0x1
 2369 0b5f 8C       		.byte	0x8c
 2370 0b60 01       		.byte	0x1
 2371 0b61 00000000 		.4byte	.LFB10
 2372 0b65 12000000 		.4byte	.LFE10
 2373 0b69 02       		.byte	0x2
 2374 0b6a 7D       		.byte	0x7d
 2375 0b6b 00       		.sleb128 0
 2376 0b6c 01       		.byte	0x1
 2377 0b6d 920B0000 		.4byte	0xb92
 2378 0b71 24       		.uleb128 0x24
 2379 0b72 12000000 		.4byte	.LVL52
 2380 0b76 01       		.byte	0x1
 2381 0b77 AC0F0000 		.4byte	0xfac
 2382 0b7b 23       		.uleb128 0x23
 2383 0b7c 01       		.byte	0x1
 2384 0b7d 52       		.byte	0x52
 2385 0b7e 01       		.byte	0x1
 2386 0b7f 30       		.byte	0x30
 2387 0b80 23       		.uleb128 0x23
 2388 0b81 01       		.byte	0x1
 2389 0b82 51       		.byte	0x51
 2390 0b83 03       		.byte	0x3
 2391 0b84 0A       		.byte	0xa
 2392 0b85 3001     		.2byte	0x130
 2393 0b87 23       		.uleb128 0x23
 2394 0b88 01       		.byte	0x1
 2395 0b89 50       		.byte	0x50
 2396 0b8a 05       		.byte	0x5
 2397 0b8b 03       		.byte	0x3
 2398 0b8c 00000000 		.4byte	.LANCHOR1
 2399 0b90 00       		.byte	0
 2400 0b91 00       		.byte	0
 2401 0b92 20       		.uleb128 0x20
 2402 0b93 36010000 		.4byte	.LASF100
 2403 0b97 01       		.byte	0x1
 2404 0b98 57       		.byte	0x57
 2405 0b99 01       		.byte	0x1
 2406 0b9a 00000000 		.4byte	.LFB9
 2407 0b9e F0000000 		.4byte	.LFE9
 2408 0ba2 45010000 		.4byte	.LLST10
 2409 0ba6 01       		.byte	0x1
 2410 0ba7 620D0000 		.4byte	0xd62
 2411 0bab 27       		.uleb128 0x27
 2412 0bac 6E00     		.ascii	"n\000"
 2413 0bae 01       		.byte	0x1
 2414 0baf 58       		.byte	0x58
 2415 0bb0 30000000 		.4byte	0x30
 2416 0bb4 02       		.byte	0x2
 2417 0bb5 91       		.byte	0x91
 2418 0bb6 68       		.sleb128 -24
 2419 0bb7 1D       		.uleb128 0x1d
 2420 0bb8 737A00   		.ascii	"sz\000"
 2421 0bbb 01       		.byte	0x1
 2422 0bbc 58       		.byte	0x58
 2423 0bbd 30000000 		.4byte	0x30
 2424 0bc1 71010000 		.4byte	.LLST11
ARM GAS  /tmp/ccCPaF2U.s 			page 44


 2425 0bc5 1D       		.uleb128 0x1d
 2426 0bc6 703100   		.ascii	"p1\000"
 2427 0bc9 01       		.byte	0x1
 2428 0bca 59       		.byte	0x59
 2429 0bcb 9C020000 		.4byte	0x29c
 2430 0bcf 85010000 		.4byte	.LLST12
 2431 0bd3 26       		.uleb128 0x26
 2432 0bd4 15000000 		.4byte	.LASF98
 2433 0bd8 01       		.byte	0x1
 2434 0bd9 5A       		.byte	0x5a
 2435 0bda DD000000 		.4byte	0xdd
 2436 0bde 01       		.byte	0x1
 2437 0bdf 55       		.byte	0x55
 2438 0be0 22       		.uleb128 0x22
 2439 0be1 14000000 		.4byte	.LVL54
 2440 0be5 CA0F0000 		.4byte	0xfca
 2441 0be9 FD0B0000 		.4byte	0xbfd
 2442 0bed 23       		.uleb128 0x23
 2443 0bee 01       		.byte	0x1
 2444 0bef 51       		.byte	0x51
 2445 0bf0 02       		.byte	0x2
 2446 0bf1 91       		.byte	0x91
 2447 0bf2 6C       		.sleb128 -20
 2448 0bf3 23       		.uleb128 0x23
 2449 0bf4 01       		.byte	0x1
 2450 0bf5 50       		.byte	0x50
 2451 0bf6 05       		.byte	0x5
 2452 0bf7 03       		.byte	0x3
 2453 0bf8 00000000 		.4byte	.LANCHOR0
 2454 0bfc 00       		.byte	0
 2455 0bfd 22       		.uleb128 0x22
 2456 0bfe 26000000 		.4byte	.LVL55
 2457 0c02 650E0000 		.4byte	0xe65
 2458 0c06 340C0000 		.4byte	0xc34
 2459 0c0a 23       		.uleb128 0x23
 2460 0c0b 01       		.byte	0x1
 2461 0c0c 53       		.byte	0x53
 2462 0c0d 05       		.byte	0x5
 2463 0c0e 03       		.byte	0x3
 2464 0c0f 00000000 		.4byte	thread
 2465 0c13 23       		.uleb128 0x23
 2466 0c14 01       		.byte	0x1
 2467 0c15 52       		.byte	0x52
 2468 0c16 02       		.byte	0x2
 2469 0c17 75       		.byte	0x75
 2470 0c18 7F       		.sleb128 -1
 2471 0c19 23       		.uleb128 0x23
 2472 0c1a 01       		.byte	0x1
 2473 0c1b 51       		.byte	0x51
 2474 0c1c 03       		.byte	0x3
 2475 0c1d 0A       		.byte	0xa
 2476 0c1e 3001     		.2byte	0x130
 2477 0c20 23       		.uleb128 0x23
 2478 0c21 01       		.byte	0x1
 2479 0c22 50       		.byte	0x50
 2480 0c23 05       		.byte	0x5
 2481 0c24 03       		.byte	0x3
ARM GAS  /tmp/ccCPaF2U.s 			page 45


 2482 0c25 00000000 		.4byte	.LANCHOR0
 2483 0c29 23       		.uleb128 0x23
 2484 0c2a 02       		.byte	0x2
 2485 0c2b 7D       		.byte	0x7d
 2486 0c2c 00       		.sleb128 0
 2487 0c2d 05       		.byte	0x5
 2488 0c2e 03       		.byte	0x3
 2489 0c2f 00000000 		.4byte	.LC0
 2490 0c33 00       		.byte	0
 2491 0c34 22       		.uleb128 0x22
 2492 0c35 3A000000 		.4byte	.LVL56
 2493 0c39 650E0000 		.4byte	0xe65
 2494 0c3d 6B0C0000 		.4byte	0xc6b
 2495 0c41 23       		.uleb128 0x23
 2496 0c42 01       		.byte	0x1
 2497 0c43 53       		.byte	0x53
 2498 0c44 05       		.byte	0x5
 2499 0c45 03       		.byte	0x3
 2500 0c46 00000000 		.4byte	thread
 2501 0c4a 23       		.uleb128 0x23
 2502 0c4b 01       		.byte	0x1
 2503 0c4c 52       		.byte	0x52
 2504 0c4d 02       		.byte	0x2
 2505 0c4e 75       		.byte	0x75
 2506 0c4f 7E       		.sleb128 -2
 2507 0c50 23       		.uleb128 0x23
 2508 0c51 01       		.byte	0x1
 2509 0c52 51       		.byte	0x51
 2510 0c53 03       		.byte	0x3
 2511 0c54 0A       		.byte	0xa
 2512 0c55 3001     		.2byte	0x130
 2513 0c57 23       		.uleb128 0x23
 2514 0c58 01       		.byte	0x1
 2515 0c59 50       		.byte	0x50
 2516 0c5a 05       		.byte	0x5
 2517 0c5b 03       		.byte	0x3
 2518 0c5c 00000000 		.4byte	.LANCHOR0
 2519 0c60 23       		.uleb128 0x23
 2520 0c61 02       		.byte	0x2
 2521 0c62 7D       		.byte	0x7d
 2522 0c63 00       		.sleb128 0
 2523 0c64 05       		.byte	0x5
 2524 0c65 03       		.byte	0x3
 2525 0c66 04000000 		.4byte	.LC1
 2526 0c6a 00       		.byte	0
 2527 0c6b 22       		.uleb128 0x22
 2528 0c6c 44000000 		.4byte	.LVL57
 2529 0c70 CA0F0000 		.4byte	0xfca
 2530 0c74 880C0000 		.4byte	0xc88
 2531 0c78 23       		.uleb128 0x23
 2532 0c79 01       		.byte	0x1
 2533 0c7a 51       		.byte	0x51
 2534 0c7b 02       		.byte	0x2
 2535 0c7c 91       		.byte	0x91
 2536 0c7d 68       		.sleb128 -24
 2537 0c7e 23       		.uleb128 0x23
 2538 0c7f 01       		.byte	0x1
ARM GAS  /tmp/ccCPaF2U.s 			page 46


 2539 0c80 50       		.byte	0x50
 2540 0c81 05       		.byte	0x5
 2541 0c82 03       		.byte	0x3
 2542 0c83 00000000 		.4byte	.LANCHOR0
 2543 0c87 00       		.byte	0
 2544 0c88 22       		.uleb128 0x22
 2545 0c89 4C000000 		.4byte	.LVL58
 2546 0c8d ED0F0000 		.4byte	0xfed
 2547 0c91 9F0C0000 		.4byte	0xc9f
 2548 0c95 23       		.uleb128 0x23
 2549 0c96 01       		.byte	0x1
 2550 0c97 50       		.byte	0x50
 2551 0c98 05       		.byte	0x5
 2552 0c99 03       		.byte	0x3
 2553 0c9a 00000000 		.4byte	.LANCHOR0
 2554 0c9e 00       		.byte	0
 2555 0c9f 22       		.uleb128 0x22
 2556 0ca0 60000000 		.4byte	.LVL61
 2557 0ca4 650E0000 		.4byte	0xe65
 2558 0ca8 D60C0000 		.4byte	0xcd6
 2559 0cac 23       		.uleb128 0x23
 2560 0cad 01       		.byte	0x1
 2561 0cae 53       		.byte	0x53
 2562 0caf 05       		.byte	0x5
 2563 0cb0 03       		.byte	0x3
 2564 0cb1 00000000 		.4byte	thread
 2565 0cb5 23       		.uleb128 0x23
 2566 0cb6 01       		.byte	0x1
 2567 0cb7 52       		.byte	0x52
 2568 0cb8 02       		.byte	0x2
 2569 0cb9 75       		.byte	0x75
 2570 0cba 7D       		.sleb128 -3
 2571 0cbb 23       		.uleb128 0x23
 2572 0cbc 01       		.byte	0x1
 2573 0cbd 51       		.byte	0x51
 2574 0cbe 03       		.byte	0x3
 2575 0cbf 0A       		.byte	0xa
 2576 0cc0 3001     		.2byte	0x130
 2577 0cc2 23       		.uleb128 0x23
 2578 0cc3 01       		.byte	0x1
 2579 0cc4 50       		.byte	0x50
 2580 0cc5 05       		.byte	0x5
 2581 0cc6 03       		.byte	0x3
 2582 0cc7 00000000 		.4byte	.LANCHOR0
 2583 0ccb 23       		.uleb128 0x23
 2584 0ccc 02       		.byte	0x2
 2585 0ccd 7D       		.byte	0x7d
 2586 0cce 00       		.sleb128 0
 2587 0ccf 05       		.byte	0x5
 2588 0cd0 03       		.byte	0x3
 2589 0cd1 08000000 		.4byte	.LC2
 2590 0cd5 00       		.byte	0
 2591 0cd6 22       		.uleb128 0x22
 2592 0cd7 68000000 		.4byte	.LVL62
 2593 0cdb 0A100000 		.4byte	0x100a
 2594 0cdf EA0C0000 		.4byte	0xcea
 2595 0ce3 23       		.uleb128 0x23
ARM GAS  /tmp/ccCPaF2U.s 			page 47


 2596 0ce4 01       		.byte	0x1
 2597 0ce5 50       		.byte	0x50
 2598 0ce6 02       		.byte	0x2
 2599 0ce7 76       		.byte	0x76
 2600 0ce8 00       		.sleb128 0
 2601 0ce9 00       		.byte	0
 2602 0cea 22       		.uleb128 0x22
 2603 0ceb 7E000000 		.4byte	.LVL63
 2604 0cef 910E0000 		.4byte	0xe91
 2605 0cf3 FD0C0000 		.4byte	0xcfd
 2606 0cf7 23       		.uleb128 0x23
 2607 0cf8 01       		.byte	0x1
 2608 0cf9 50       		.byte	0x50
 2609 0cfa 01       		.byte	0x1
 2610 0cfb 31       		.byte	0x31
 2611 0cfc 00       		.byte	0
 2612 0cfd 1F       		.uleb128 0x1f
 2613 0cfe 88000000 		.4byte	.LVL64
 2614 0d02 670F0000 		.4byte	0xf67
 2615 0d06 22       		.uleb128 0x22
 2616 0d07 90000000 		.4byte	.LVL65
 2617 0d0b 710F0000 		.4byte	0xf71
 2618 0d0f 220D0000 		.4byte	0xd22
 2619 0d13 23       		.uleb128 0x23
 2620 0d14 01       		.byte	0x1
 2621 0d15 51       		.byte	0x51
 2622 0d16 05       		.byte	0x5
 2623 0d17 03       		.byte	0x3
 2624 0d18 1C000000 		.4byte	.LC6
 2625 0d1c 23       		.uleb128 0x23
 2626 0d1d 01       		.byte	0x1
 2627 0d1e 50       		.byte	0x50
 2628 0d1f 01       		.byte	0x1
 2629 0d20 32       		.byte	0x32
 2630 0d21 00       		.byte	0
 2631 0d22 22       		.uleb128 0x22
 2632 0d23 9C000000 		.4byte	.LVL66
 2633 0d27 CA0F0000 		.4byte	0xfca
 2634 0d2b 3F0D0000 		.4byte	0xd3f
 2635 0d2f 23       		.uleb128 0x23
 2636 0d30 01       		.byte	0x1
 2637 0d31 51       		.byte	0x51
 2638 0d32 02       		.byte	0x2
 2639 0d33 91       		.byte	0x91
 2640 0d34 68       		.sleb128 -24
 2641 0d35 23       		.uleb128 0x23
 2642 0d36 01       		.byte	0x1
 2643 0d37 50       		.byte	0x50
 2644 0d38 05       		.byte	0x5
 2645 0d39 03       		.byte	0x3
 2646 0d3a 00000000 		.4byte	.LANCHOR0
 2647 0d3e 00       		.byte	0
 2648 0d3f 22       		.uleb128 0x22
 2649 0d40 A8000000 		.4byte	.LVL67
 2650 0d44 910E0000 		.4byte	0xe91
 2651 0d48 520D0000 		.4byte	0xd52
 2652 0d4c 23       		.uleb128 0x23
ARM GAS  /tmp/ccCPaF2U.s 			page 48


 2653 0d4d 01       		.byte	0x1
 2654 0d4e 50       		.byte	0x50
 2655 0d4f 01       		.byte	0x1
 2656 0d50 33       		.byte	0x33
 2657 0d51 00       		.byte	0
 2658 0d52 28       		.uleb128 0x28
 2659 0d53 BC000000 		.4byte	.LVL69
 2660 0d57 910E0000 		.4byte	0xe91
 2661 0d5b 23       		.uleb128 0x23
 2662 0d5c 01       		.byte	0x1
 2663 0d5d 50       		.byte	0x50
 2664 0d5e 01       		.byte	0x1
 2665 0d5f 34       		.byte	0x34
 2666 0d60 00       		.byte	0
 2667 0d61 00       		.byte	0
 2668 0d62 26       		.uleb128 0x26
 2669 0d63 40050000 		.4byte	.LASF101
 2670 0d67 01       		.byte	0x1
 2671 0d68 3A       		.byte	0x3a
 2672 0d69 37040000 		.4byte	0x437
 2673 0d6d 05       		.byte	0x5
 2674 0d6e 03       		.byte	0x3
 2675 0d6f 00000000 		.4byte	heap1
 2676 0d73 27       		.uleb128 0x27
 2677 0d74 6D703100 		.ascii	"mp1\000"
 2678 0d78 01       		.byte	0x1
 2679 0d79 3D       		.byte	0x3d
 2680 0d7a 3C050000 		.4byte	0x53c
 2681 0d7e 05       		.byte	0x5
 2682 0d7f 03       		.byte	0x3
 2683 0d80 00000000 		.4byte	mp1
 2684 0d84 29       		.uleb128 0x29
 2685 0d85 E8040000 		.4byte	.LASF102
 2686 0d89 08       		.byte	0x8
 2687 0d8a 68       		.byte	0x68
 2688 0d8b C3030000 		.4byte	0x3c3
 2689 0d8f 01       		.byte	0x1
 2690 0d90 01       		.byte	0x1
 2691 0d91 17       		.uleb128 0x17
 2692 0d92 5E020000 		.4byte	0x25e
 2693 0d96 A10D0000 		.4byte	0xda1
 2694 0d9a 18       		.uleb128 0x18
 2695 0d9b 5A030000 		.4byte	0x35a
 2696 0d9f 04       		.byte	0x4
 2697 0da0 00       		.byte	0
 2698 0da1 29       		.uleb128 0x29
 2699 0da2 8F030000 		.4byte	.LASF103
 2700 0da6 0D       		.byte	0xd
 2701 0da7 A9       		.byte	0xa9
 2702 0da8 910D0000 		.4byte	0xd91
 2703 0dac 01       		.byte	0x1
 2704 0dad 01       		.byte	0x1
 2705 0dae 29       		.uleb128 0x29
 2706 0daf 69000000 		.4byte	.LASF104
 2707 0db3 0D       		.byte	0xd
 2708 0db4 AA       		.byte	0xaa
 2709 0db5 61060000 		.4byte	0x661
ARM GAS  /tmp/ccCPaF2U.s 			page 49


 2710 0db9 01       		.byte	0x1
 2711 0dba 01       		.byte	0x1
 2712 0dbb 17       		.uleb128 0x17
 2713 0dbc 9C020000 		.4byte	0x29c
 2714 0dc0 C60D0000 		.4byte	0xdc6
 2715 0dc4 2A       		.uleb128 0x2a
 2716 0dc5 00       		.byte	0
 2717 0dc6 2B       		.uleb128 0x2b
 2718 0dc7 776100   		.ascii	"wa\000"
 2719 0dca 0D       		.byte	0xd
 2720 0dcb AB       		.byte	0xab
 2721 0dcc D20D0000 		.4byte	0xdd2
 2722 0dd0 01       		.byte	0x1
 2723 0dd1 01       		.byte	0x1
 2724 0dd2 14       		.uleb128 0x14
 2725 0dd3 BB0D0000 		.4byte	0xdbb
 2726 0dd7 2C       		.uleb128 0x2c
 2727 0dd8 83020000 		.4byte	.LASF105
 2728 0ddc 01       		.byte	0x1
 2729 0ddd 79       		.byte	0x79
 2730 0dde E90D0000 		.4byte	0xde9
 2731 0de2 01       		.byte	0x1
 2732 0de3 05       		.byte	0x5
 2733 0de4 03       		.byte	0x3
 2734 0de5 00000000 		.4byte	testdyn1
 2735 0de9 14       		.uleb128 0x14
 2736 0dea B5050000 		.4byte	0x5b5
 2737 0dee 2C       		.uleb128 0x2c
 2738 0def 8C020000 		.4byte	.LASF106
 2739 0df3 01       		.byte	0x1
 2740 0df4 B1       		.byte	0xb1
 2741 0df5 E90D0000 		.4byte	0xde9
 2742 0df9 01       		.byte	0x1
 2743 0dfa 05       		.byte	0x5
 2744 0dfb 03       		.byte	0x3
 2745 0dfc 00000000 		.4byte	testdyn2
 2746 0e00 2C       		.uleb128 0x2c
 2747 0e01 95020000 		.4byte	.LASF107
 2748 0e05 01       		.byte	0x1
 2749 0e06 F2       		.byte	0xf2
 2750 0e07 E90D0000 		.4byte	0xde9
 2751 0e0b 01       		.byte	0x1
 2752 0e0c 05       		.byte	0x5
 2753 0e0d 03       		.byte	0x3
 2754 0e0e 00000000 		.4byte	testdyn3
 2755 0e12 17       		.uleb128 0x17
 2756 0e13 220E0000 		.4byte	0xe22
 2757 0e17 220E0000 		.4byte	0xe22
 2758 0e1b 18       		.uleb128 0x18
 2759 0e1c 5A030000 		.4byte	0x35a
 2760 0e20 03       		.byte	0x3
 2761 0e21 00       		.byte	0
 2762 0e22 09       		.uleb128 0x9
 2763 0e23 04       		.byte	0x4
 2764 0e24 E90D0000 		.4byte	0xde9
 2765 0e28 2C       		.uleb128 0x2c
 2766 0e29 77040000 		.4byte	.LASF108
ARM GAS  /tmp/ccCPaF2U.s 			page 50


 2767 0e2d 01       		.byte	0x1
 2768 0e2e FE       		.byte	0xfe
 2769 0e2f 3A0E0000 		.4byte	0xe3a
 2770 0e33 01       		.byte	0x1
 2771 0e34 05       		.byte	0x5
 2772 0e35 03       		.byte	0x3
 2773 0e36 00000000 		.4byte	patterndyn
 2774 0e3a 14       		.uleb128 0x14
 2775 0e3b 120E0000 		.4byte	0xe12
 2776 0e3f 2D       		.uleb128 0x2d
 2777 0e40 01       		.byte	0x1
 2778 0e41 6E000000 		.4byte	.LASF127
 2779 0e45 0E       		.byte	0xe
 2780 0e46 78       		.byte	0x78
 2781 0e47 01       		.byte	0x1
 2782 0e48 5E020000 		.4byte	0x25e
 2783 0e4c 01       		.byte	0x1
 2784 0e4d 2E       		.uleb128 0x2e
 2785 0e4e 01       		.byte	0x1
 2786 0e4f 1A040000 		.4byte	.LASF109
 2787 0e53 0E       		.byte	0xe
 2788 0e54 79       		.byte	0x79
 2789 0e55 01       		.byte	0x1
 2790 0e56 5E020000 		.4byte	0x25e
 2791 0e5a 01       		.byte	0x1
 2792 0e5b 650E0000 		.4byte	0xe65
 2793 0e5f 0F       		.uleb128 0xf
 2794 0e60 5E020000 		.4byte	0x25e
 2795 0e64 00       		.byte	0
 2796 0e65 2E       		.uleb128 0x2e
 2797 0e66 01       		.byte	0x1
 2798 0e67 11010000 		.4byte	.LASF110
 2799 0e6b 0F       		.byte	0xf
 2800 0e6c 35       		.byte	0x35
 2801 0e6d 01       		.byte	0x1
 2802 0e6e 5E020000 		.4byte	0x25e
 2803 0e72 01       		.byte	0x1
 2804 0e73 910E0000 		.4byte	0xe91
 2805 0e77 0F       		.uleb128 0xf
 2806 0e78 BF040000 		.4byte	0x4bf
 2807 0e7c 0F       		.uleb128 0xf
 2808 0e7d 30000000 		.4byte	0x30
 2809 0e81 0F       		.uleb128 0xf
 2810 0e82 DD000000 		.4byte	0xdd
 2811 0e86 0F       		.uleb128 0xf
 2812 0e87 94050000 		.4byte	0x594
 2813 0e8b 0F       		.uleb128 0xf
 2814 0e8c 9C020000 		.4byte	0x29c
 2815 0e90 00       		.byte	0
 2816 0e91 2E       		.uleb128 0x2e
 2817 0e92 01       		.byte	0x1
 2818 0e93 1B050000 		.4byte	.LASF111
 2819 0e97 0D       		.byte	0xd
 2820 0e98 5C       		.byte	0x5c
 2821 0e99 01       		.byte	0x1
 2822 0e9a A6000000 		.4byte	0xa6
 2823 0e9e 01       		.byte	0x1
ARM GAS  /tmp/ccCPaF2U.s 			page 51


 2824 0e9f AE0E0000 		.4byte	0xeae
 2825 0ea3 0F       		.uleb128 0xf
 2826 0ea4 3B000000 		.4byte	0x3b
 2827 0ea8 0F       		.uleb128 0xf
 2828 0ea9 A6000000 		.4byte	0xa6
 2829 0ead 00       		.byte	0
 2830 0eae 2E       		.uleb128 0x2e
 2831 0eaf 01       		.byte	0x1
 2832 0eb0 63020000 		.4byte	.LASF112
 2833 0eb4 0F       		.byte	0xf
 2834 0eb5 32       		.byte	0x32
 2835 0eb6 01       		.byte	0x1
 2836 0eb7 5E020000 		.4byte	0x25e
 2837 0ebb 01       		.byte	0x1
 2838 0ebc C60E0000 		.4byte	0xec6
 2839 0ec0 0F       		.uleb128 0xf
 2840 0ec1 5E020000 		.4byte	0x25e
 2841 0ec5 00       		.byte	0
 2842 0ec6 2F       		.uleb128 0x2f
 2843 0ec7 01       		.byte	0x1
 2844 0ec8 C0030000 		.4byte	.LASF113
 2845 0ecc 0F       		.byte	0xf
 2846 0ecd 33       		.byte	0x33
 2847 0ece 01       		.byte	0x1
 2848 0ecf 01       		.byte	0x1
 2849 0ed0 DA0E0000 		.4byte	0xeda
 2850 0ed4 0F       		.uleb128 0xf
 2851 0ed5 5E020000 		.4byte	0x25e
 2852 0ed9 00       		.byte	0
 2853 0eda 30       		.uleb128 0x30
 2854 0edb 01       		.byte	0x1
 2855 0edc F4030000 		.4byte	.LASF114
 2856 0ee0 06       		.byte	0x6
 2857 0ee1 6E01     		.2byte	0x16e
 2858 0ee3 01       		.byte	0x1
 2859 0ee4 01       		.byte	0x1
 2860 0ee5 EF0E0000 		.4byte	0xeef
 2861 0ee9 0F       		.uleb128 0xf
 2862 0eea FE000000 		.4byte	0xfe
 2863 0eee 00       		.byte	0
 2864 0eef 2F       		.uleb128 0x2f
 2865 0ef0 01       		.byte	0x1
 2866 0ef1 E3000000 		.4byte	.LASF115
 2867 0ef5 0D       		.byte	0xd
 2868 0ef6 5A       		.byte	0x5a
 2869 0ef7 01       		.byte	0x1
 2870 0ef8 01       		.byte	0x1
 2871 0ef9 030F0000 		.4byte	0xf03
 2872 0efd 0F       		.uleb128 0xf
 2873 0efe 87050000 		.4byte	0x587
 2874 0f02 00       		.byte	0
 2875 0f03 2F       		.uleb128 0x2f
 2876 0f04 01       		.byte	0x1
 2877 0f05 8A000000 		.4byte	.LASF116
 2878 0f09 0B       		.byte	0xb
 2879 0f0a 50       		.byte	0x50
 2880 0f0b 01       		.byte	0x1
ARM GAS  /tmp/ccCPaF2U.s 			page 52


 2881 0f0c 01       		.byte	0x1
 2882 0f0d 210F0000 		.4byte	0xf21
 2883 0f11 0F       		.uleb128 0xf
 2884 0f12 BF040000 		.4byte	0x4bf
 2885 0f16 0F       		.uleb128 0xf
 2886 0f17 9C020000 		.4byte	0x29c
 2887 0f1b 0F       		.uleb128 0xf
 2888 0f1c 30000000 		.4byte	0x30
 2889 0f20 00       		.byte	0
 2890 0f21 2F       		.uleb128 0x2f
 2891 0f22 01       		.byte	0x1
 2892 0f23 02050000 		.4byte	.LASF117
 2893 0f27 0C       		.byte	0xc
 2894 0f28 7D       		.byte	0x7d
 2895 0f29 01       		.byte	0x1
 2896 0f2a 01       		.byte	0x1
 2897 0f2b 3A0F0000 		.4byte	0xf3a
 2898 0f2f 0F       		.uleb128 0xf
 2899 0f30 3A0F0000 		.4byte	0xf3a
 2900 0f34 0F       		.uleb128 0xf
 2901 0f35 9C020000 		.4byte	0x29c
 2902 0f39 00       		.byte	0
 2903 0f3a 09       		.uleb128 0x9
 2904 0f3b 04       		.byte	0x4
 2905 0f3c 3C050000 		.4byte	0x53c
 2906 0f40 2E       		.uleb128 0x2e
 2907 0f41 01       		.byte	0x1
 2908 0f42 4B010000 		.4byte	.LASF118
 2909 0f46 0F       		.byte	0xf
 2910 0f47 39       		.byte	0x39
 2911 0f48 01       		.byte	0x1
 2912 0f49 5E020000 		.4byte	0x25e
 2913 0f4d 01       		.byte	0x1
 2914 0f4e 670F0000 		.4byte	0xf67
 2915 0f52 0F       		.uleb128 0xf
 2916 0f53 3A0F0000 		.4byte	0xf3a
 2917 0f57 0F       		.uleb128 0xf
 2918 0f58 DD000000 		.4byte	0xdd
 2919 0f5c 0F       		.uleb128 0xf
 2920 0f5d 94050000 		.4byte	0x594
 2921 0f61 0F       		.uleb128 0xf
 2922 0f62 9C020000 		.4byte	0x29c
 2923 0f66 00       		.byte	0
 2924 0f67 31       		.uleb128 0x31
 2925 0f68 01       		.byte	0x1
 2926 0f69 42040000 		.4byte	.LASF128
 2927 0f6d 0D       		.byte	0xd
 2928 0f6e 60       		.byte	0x60
 2929 0f6f 01       		.byte	0x1
 2930 0f70 01       		.byte	0x1
 2931 0f71 2E       		.uleb128 0x2e
 2932 0f72 01       		.byte	0x1
 2933 0f73 DB020000 		.4byte	.LASF119
 2934 0f77 0D       		.byte	0xd
 2935 0f78 5D       		.byte	0x5d
 2936 0f79 01       		.byte	0x1
 2937 0f7a A6000000 		.4byte	0xa6
ARM GAS  /tmp/ccCPaF2U.s 			page 53


 2938 0f7e 01       		.byte	0x1
 2939 0f7f 8E0F0000 		.4byte	0xf8e
 2940 0f83 0F       		.uleb128 0xf
 2941 0f84 3B000000 		.4byte	0x3b
 2942 0f88 0F       		.uleb128 0xf
 2943 0f89 8E0F0000 		.4byte	0xf8e
 2944 0f8d 00       		.byte	0
 2945 0f8e 09       		.uleb128 0x9
 2946 0f8f 04       		.byte	0x4
 2947 0f90 87050000 		.4byte	0x587
 2948 0f94 2E       		.uleb128 0x2e
 2949 0f95 01       		.byte	0x1
 2950 0f96 F6040000 		.4byte	.LASF120
 2951 0f9a 0C       		.byte	0xc
 2952 0f9b 7B       		.byte	0x7b
 2953 0f9c 01       		.byte	0x1
 2954 0f9d 9C020000 		.4byte	0x29c
 2955 0fa1 01       		.byte	0x1
 2956 0fa2 AC0F0000 		.4byte	0xfac
 2957 0fa6 0F       		.uleb128 0xf
 2958 0fa7 3A0F0000 		.4byte	0xf3a
 2959 0fab 00       		.byte	0
 2960 0fac 2F       		.uleb128 0x2f
 2961 0fad 01       		.byte	0x1
 2962 0fae 7F000000 		.4byte	.LASF121
 2963 0fb2 0C       		.byte	0xc
 2964 0fb3 78       		.byte	0x78
 2965 0fb4 01       		.byte	0x1
 2966 0fb5 01       		.byte	0x1
 2967 0fb6 CA0F0000 		.4byte	0xfca
 2968 0fba 0F       		.uleb128 0xf
 2969 0fbb 3A0F0000 		.4byte	0xf3a
 2970 0fbf 0F       		.uleb128 0xf
 2971 0fc0 30000000 		.4byte	0x30
 2972 0fc4 0F       		.uleb128 0xf
 2973 0fc5 16040000 		.4byte	0x416
 2974 0fc9 00       		.byte	0
 2975 0fca 2E       		.uleb128 0x2e
 2976 0fcb 01       		.byte	0x1
 2977 0fcc 35040000 		.4byte	.LASF122
 2978 0fd0 0B       		.byte	0xb
 2979 0fd1 54       		.byte	0x54
 2980 0fd2 01       		.byte	0x1
 2981 0fd3 30000000 		.4byte	0x30
 2982 0fd7 01       		.byte	0x1
 2983 0fd8 E70F0000 		.4byte	0xfe7
 2984 0fdc 0F       		.uleb128 0xf
 2985 0fdd BF040000 		.4byte	0x4bf
 2986 0fe1 0F       		.uleb128 0xf
 2987 0fe2 E70F0000 		.4byte	0xfe7
 2988 0fe6 00       		.byte	0
 2989 0fe7 09       		.uleb128 0x9
 2990 0fe8 04       		.byte	0x4
 2991 0fe9 30000000 		.4byte	0x30
 2992 0fed 2E       		.uleb128 0x2e
 2993 0fee 01       		.byte	0x1
 2994 0fef D4030000 		.4byte	.LASF123
ARM GAS  /tmp/ccCPaF2U.s 			page 54


 2995 0ff3 0B       		.byte	0xb
 2996 0ff4 52       		.byte	0x52
 2997 0ff5 01       		.byte	0x1
 2998 0ff6 9C020000 		.4byte	0x29c
 2999 0ffa 01       		.byte	0x1
 3000 0ffb 0A100000 		.4byte	0x100a
 3001 0fff 0F       		.uleb128 0xf
 3002 1000 BF040000 		.4byte	0x4bf
 3003 1004 0F       		.uleb128 0xf
 3004 1005 30000000 		.4byte	0x30
 3005 1009 00       		.byte	0
 3006 100a 32       		.uleb128 0x32
 3007 100b 01       		.byte	0x1
 3008 100c F3000000 		.4byte	.LASF129
 3009 1010 0B       		.byte	0xb
 3010 1011 53       		.byte	0x53
 3011 1012 01       		.byte	0x1
 3012 1013 01       		.byte	0x1
 3013 1014 0F       		.uleb128 0xf
 3014 1015 9C020000 		.4byte	0x29c
 3015 1019 00       		.byte	0
 3016 101a 00       		.byte	0
 3017              		.section	.debug_abbrev,"",%progbits
 3018              	.Ldebug_abbrev0:
 3019 0000 01       		.uleb128 0x1
 3020 0001 11       		.uleb128 0x11
 3021 0002 01       		.byte	0x1
 3022 0003 25       		.uleb128 0x25
 3023 0004 0E       		.uleb128 0xe
 3024 0005 13       		.uleb128 0x13
 3025 0006 0B       		.uleb128 0xb
 3026 0007 03       		.uleb128 0x3
 3027 0008 0E       		.uleb128 0xe
 3028 0009 1B       		.uleb128 0x1b
 3029 000a 0E       		.uleb128 0xe
 3030 000b 55       		.uleb128 0x55
 3031 000c 06       		.uleb128 0x6
 3032 000d 11       		.uleb128 0x11
 3033 000e 01       		.uleb128 0x1
 3034 000f 52       		.uleb128 0x52
 3035 0010 01       		.uleb128 0x1
 3036 0011 10       		.uleb128 0x10
 3037 0012 06       		.uleb128 0x6
 3038 0013 00       		.byte	0
 3039 0014 00       		.byte	0
 3040 0015 02       		.uleb128 0x2
 3041 0016 24       		.uleb128 0x24
 3042 0017 00       		.byte	0
 3043 0018 0B       		.uleb128 0xb
 3044 0019 0B       		.uleb128 0xb
 3045 001a 3E       		.uleb128 0x3e
 3046 001b 0B       		.uleb128 0xb
 3047 001c 03       		.uleb128 0x3
 3048 001d 08       		.uleb128 0x8
 3049 001e 00       		.byte	0
 3050 001f 00       		.byte	0
 3051 0020 03       		.uleb128 0x3
ARM GAS  /tmp/ccCPaF2U.s 			page 55


 3052 0021 16       		.uleb128 0x16
 3053 0022 00       		.byte	0
 3054 0023 03       		.uleb128 0x3
 3055 0024 0E       		.uleb128 0xe
 3056 0025 3A       		.uleb128 0x3a
 3057 0026 0B       		.uleb128 0xb
 3058 0027 3B       		.uleb128 0x3b
 3059 0028 0B       		.uleb128 0xb
 3060 0029 49       		.uleb128 0x49
 3061 002a 13       		.uleb128 0x13
 3062 002b 00       		.byte	0
 3063 002c 00       		.byte	0
 3064 002d 04       		.uleb128 0x4
 3065 002e 24       		.uleb128 0x24
 3066 002f 00       		.byte	0
 3067 0030 0B       		.uleb128 0xb
 3068 0031 0B       		.uleb128 0xb
 3069 0032 3E       		.uleb128 0x3e
 3070 0033 0B       		.uleb128 0xb
 3071 0034 03       		.uleb128 0x3
 3072 0035 0E       		.uleb128 0xe
 3073 0036 00       		.byte	0
 3074 0037 00       		.byte	0
 3075 0038 05       		.uleb128 0x5
 3076 0039 13       		.uleb128 0x13
 3077 003a 01       		.byte	0x1
 3078 003b 03       		.uleb128 0x3
 3079 003c 0E       		.uleb128 0xe
 3080 003d 0B       		.uleb128 0xb
 3081 003e 0B       		.uleb128 0xb
 3082 003f 3A       		.uleb128 0x3a
 3083 0040 0B       		.uleb128 0xb
 3084 0041 3B       		.uleb128 0x3b
 3085 0042 0B       		.uleb128 0xb
 3086 0043 01       		.uleb128 0x1
 3087 0044 13       		.uleb128 0x13
 3088 0045 00       		.byte	0
 3089 0046 00       		.byte	0
 3090 0047 06       		.uleb128 0x6
 3091 0048 0D       		.uleb128 0xd
 3092 0049 00       		.byte	0
 3093 004a 03       		.uleb128 0x3
 3094 004b 0E       		.uleb128 0xe
 3095 004c 3A       		.uleb128 0x3a
 3096 004d 0B       		.uleb128 0xb
 3097 004e 3B       		.uleb128 0x3b
 3098 004f 0B       		.uleb128 0xb
 3099 0050 49       		.uleb128 0x49
 3100 0051 13       		.uleb128 0x13
 3101 0052 38       		.uleb128 0x38
 3102 0053 0A       		.uleb128 0xa
 3103 0054 00       		.byte	0
 3104 0055 00       		.byte	0
 3105 0056 07       		.uleb128 0x7
 3106 0057 0D       		.uleb128 0xd
 3107 0058 00       		.byte	0
 3108 0059 03       		.uleb128 0x3
ARM GAS  /tmp/ccCPaF2U.s 			page 56


 3109 005a 08       		.uleb128 0x8
 3110 005b 3A       		.uleb128 0x3a
 3111 005c 0B       		.uleb128 0xb
 3112 005d 3B       		.uleb128 0x3b
 3113 005e 0B       		.uleb128 0xb
 3114 005f 49       		.uleb128 0x49
 3115 0060 13       		.uleb128 0x13
 3116 0061 38       		.uleb128 0x38
 3117 0062 0A       		.uleb128 0xa
 3118 0063 00       		.byte	0
 3119 0064 00       		.byte	0
 3120 0065 08       		.uleb128 0x8
 3121 0066 13       		.uleb128 0x13
 3122 0067 01       		.byte	0x1
 3123 0068 0B       		.uleb128 0xb
 3124 0069 0B       		.uleb128 0xb
 3125 006a 3A       		.uleb128 0x3a
 3126 006b 0B       		.uleb128 0xb
 3127 006c 3B       		.uleb128 0x3b
 3128 006d 0B       		.uleb128 0xb
 3129 006e 01       		.uleb128 0x1
 3130 006f 13       		.uleb128 0x13
 3131 0070 00       		.byte	0
 3132 0071 00       		.byte	0
 3133 0072 09       		.uleb128 0x9
 3134 0073 0F       		.uleb128 0xf
 3135 0074 00       		.byte	0
 3136 0075 0B       		.uleb128 0xb
 3137 0076 0B       		.uleb128 0xb
 3138 0077 49       		.uleb128 0x49
 3139 0078 13       		.uleb128 0x13
 3140 0079 00       		.byte	0
 3141 007a 00       		.byte	0
 3142 007b 0A       		.uleb128 0xa
 3143 007c 0F       		.uleb128 0xf
 3144 007d 00       		.byte	0
 3145 007e 0B       		.uleb128 0xb
 3146 007f 0B       		.uleb128 0xb
 3147 0080 00       		.byte	0
 3148 0081 00       		.byte	0
 3149 0082 0B       		.uleb128 0xb
 3150 0083 13       		.uleb128 0x13
 3151 0084 01       		.byte	0x1
 3152 0085 03       		.uleb128 0x3
 3153 0086 0E       		.uleb128 0xe
 3154 0087 0B       		.uleb128 0xb
 3155 0088 0B       		.uleb128 0xb
 3156 0089 3A       		.uleb128 0x3a
 3157 008a 0B       		.uleb128 0xb
 3158 008b 3B       		.uleb128 0x3b
 3159 008c 05       		.uleb128 0x5
 3160 008d 01       		.uleb128 0x1
 3161 008e 13       		.uleb128 0x13
 3162 008f 00       		.byte	0
 3163 0090 00       		.byte	0
 3164 0091 0C       		.uleb128 0xc
 3165 0092 0D       		.uleb128 0xd
ARM GAS  /tmp/ccCPaF2U.s 			page 57


 3166 0093 00       		.byte	0
 3167 0094 03       		.uleb128 0x3
 3168 0095 08       		.uleb128 0x8
 3169 0096 3A       		.uleb128 0x3a
 3170 0097 0B       		.uleb128 0xb
 3171 0098 3B       		.uleb128 0x3b
 3172 0099 05       		.uleb128 0x5
 3173 009a 49       		.uleb128 0x49
 3174 009b 13       		.uleb128 0x13
 3175 009c 38       		.uleb128 0x38
 3176 009d 0A       		.uleb128 0xa
 3177 009e 00       		.byte	0
 3178 009f 00       		.byte	0
 3179 00a0 0D       		.uleb128 0xd
 3180 00a1 35       		.uleb128 0x35
 3181 00a2 00       		.byte	0
 3182 00a3 49       		.uleb128 0x49
 3183 00a4 13       		.uleb128 0x13
 3184 00a5 00       		.byte	0
 3185 00a6 00       		.byte	0
 3186 00a7 0E       		.uleb128 0xe
 3187 00a8 15       		.uleb128 0x15
 3188 00a9 01       		.byte	0x1
 3189 00aa 27       		.uleb128 0x27
 3190 00ab 0C       		.uleb128 0xc
 3191 00ac 49       		.uleb128 0x49
 3192 00ad 13       		.uleb128 0x13
 3193 00ae 01       		.uleb128 0x1
 3194 00af 13       		.uleb128 0x13
 3195 00b0 00       		.byte	0
 3196 00b1 00       		.byte	0
 3197 00b2 0F       		.uleb128 0xf
 3198 00b3 05       		.uleb128 0x5
 3199 00b4 00       		.byte	0
 3200 00b5 49       		.uleb128 0x49
 3201 00b6 13       		.uleb128 0x13
 3202 00b7 00       		.byte	0
 3203 00b8 00       		.byte	0
 3204 00b9 10       		.uleb128 0x10
 3205 00ba 17       		.uleb128 0x17
 3206 00bb 01       		.byte	0x1
 3207 00bc 0B       		.uleb128 0xb
 3208 00bd 0B       		.uleb128 0xb
 3209 00be 3A       		.uleb128 0x3a
 3210 00bf 0B       		.uleb128 0xb
 3211 00c0 3B       		.uleb128 0x3b
 3212 00c1 0B       		.uleb128 0xb
 3213 00c2 01       		.uleb128 0x1
 3214 00c3 13       		.uleb128 0x13
 3215 00c4 00       		.byte	0
 3216 00c5 00       		.byte	0
 3217 00c6 11       		.uleb128 0x11
 3218 00c7 0D       		.uleb128 0xd
 3219 00c8 00       		.byte	0
 3220 00c9 03       		.uleb128 0x3
 3221 00ca 0E       		.uleb128 0xe
 3222 00cb 3A       		.uleb128 0x3a
ARM GAS  /tmp/ccCPaF2U.s 			page 58


 3223 00cc 0B       		.uleb128 0xb
 3224 00cd 3B       		.uleb128 0x3b
 3225 00ce 0B       		.uleb128 0xb
 3226 00cf 49       		.uleb128 0x49
 3227 00d0 13       		.uleb128 0x13
 3228 00d1 00       		.byte	0
 3229 00d2 00       		.byte	0
 3230 00d3 12       		.uleb128 0x12
 3231 00d4 17       		.uleb128 0x17
 3232 00d5 01       		.byte	0x1
 3233 00d6 03       		.uleb128 0x3
 3234 00d7 0E       		.uleb128 0xe
 3235 00d8 0B       		.uleb128 0xb
 3236 00d9 0B       		.uleb128 0xb
 3237 00da 3A       		.uleb128 0x3a
 3238 00db 0B       		.uleb128 0xb
 3239 00dc 3B       		.uleb128 0x3b
 3240 00dd 0B       		.uleb128 0xb
 3241 00de 01       		.uleb128 0x1
 3242 00df 13       		.uleb128 0x13
 3243 00e0 00       		.byte	0
 3244 00e1 00       		.byte	0
 3245 00e2 13       		.uleb128 0x13
 3246 00e3 0D       		.uleb128 0xd
 3247 00e4 00       		.byte	0
 3248 00e5 03       		.uleb128 0x3
 3249 00e6 08       		.uleb128 0x8
 3250 00e7 3A       		.uleb128 0x3a
 3251 00e8 0B       		.uleb128 0xb
 3252 00e9 3B       		.uleb128 0x3b
 3253 00ea 0B       		.uleb128 0xb
 3254 00eb 49       		.uleb128 0x49
 3255 00ec 13       		.uleb128 0x13
 3256 00ed 00       		.byte	0
 3257 00ee 00       		.byte	0
 3258 00ef 14       		.uleb128 0x14
 3259 00f0 26       		.uleb128 0x26
 3260 00f1 00       		.byte	0
 3261 00f2 49       		.uleb128 0x49
 3262 00f3 13       		.uleb128 0x13
 3263 00f4 00       		.byte	0
 3264 00f5 00       		.byte	0
 3265 00f6 15       		.uleb128 0x15
 3266 00f7 15       		.uleb128 0x15
 3267 00f8 00       		.byte	0
 3268 00f9 27       		.uleb128 0x27
 3269 00fa 0C       		.uleb128 0xc
 3270 00fb 00       		.byte	0
 3271 00fc 00       		.byte	0
 3272 00fd 16       		.uleb128 0x16
 3273 00fe 13       		.uleb128 0x13
 3274 00ff 01       		.byte	0x1
 3275 0100 0B       		.uleb128 0xb
 3276 0101 05       		.uleb128 0x5
 3277 0102 3A       		.uleb128 0x3a
 3278 0103 0B       		.uleb128 0xb
 3279 0104 3B       		.uleb128 0x3b
ARM GAS  /tmp/ccCPaF2U.s 			page 59


 3280 0105 0B       		.uleb128 0xb
 3281 0106 01       		.uleb128 0x1
 3282 0107 13       		.uleb128 0x13
 3283 0108 00       		.byte	0
 3284 0109 00       		.byte	0
 3285 010a 17       		.uleb128 0x17
 3286 010b 01       		.uleb128 0x1
 3287 010c 01       		.byte	0x1
 3288 010d 49       		.uleb128 0x49
 3289 010e 13       		.uleb128 0x13
 3290 010f 01       		.uleb128 0x1
 3291 0110 13       		.uleb128 0x13
 3292 0111 00       		.byte	0
 3293 0112 00       		.byte	0
 3294 0113 18       		.uleb128 0x18
 3295 0114 21       		.uleb128 0x21
 3296 0115 00       		.byte	0
 3297 0116 49       		.uleb128 0x49
 3298 0117 13       		.uleb128 0x13
 3299 0118 2F       		.uleb128 0x2f
 3300 0119 0B       		.uleb128 0xb
 3301 011a 00       		.byte	0
 3302 011b 00       		.byte	0
 3303 011c 19       		.uleb128 0x19
 3304 011d 17       		.uleb128 0x17
 3305 011e 01       		.byte	0x1
 3306 011f 03       		.uleb128 0x3
 3307 0120 0E       		.uleb128 0xe
 3308 0121 0B       		.uleb128 0xb
 3309 0122 05       		.uleb128 0x5
 3310 0123 3A       		.uleb128 0x3a
 3311 0124 0B       		.uleb128 0xb
 3312 0125 3B       		.uleb128 0x3b
 3313 0126 0B       		.uleb128 0xb
 3314 0127 01       		.uleb128 0x1
 3315 0128 13       		.uleb128 0x13
 3316 0129 00       		.byte	0
 3317 012a 00       		.byte	0
 3318 012b 1A       		.uleb128 0x1a
 3319 012c 21       		.uleb128 0x21
 3320 012d 00       		.byte	0
 3321 012e 49       		.uleb128 0x49
 3322 012f 13       		.uleb128 0x13
 3323 0130 2F       		.uleb128 0x2f
 3324 0131 05       		.uleb128 0x5
 3325 0132 00       		.byte	0
 3326 0133 00       		.byte	0
 3327 0134 1B       		.uleb128 0x1b
 3328 0135 2E       		.uleb128 0x2e
 3329 0136 01       		.byte	0x1
 3330 0137 03       		.uleb128 0x3
 3331 0138 0E       		.uleb128 0xe
 3332 0139 3A       		.uleb128 0x3a
 3333 013a 0B       		.uleb128 0xb
 3334 013b 3B       		.uleb128 0x3b
 3335 013c 0B       		.uleb128 0xb
 3336 013d 27       		.uleb128 0x27
ARM GAS  /tmp/ccCPaF2U.s 			page 60


 3337 013e 0C       		.uleb128 0xc
 3338 013f 49       		.uleb128 0x49
 3339 0140 13       		.uleb128 0x13
 3340 0141 11       		.uleb128 0x11
 3341 0142 01       		.uleb128 0x1
 3342 0143 12       		.uleb128 0x12
 3343 0144 01       		.uleb128 0x1
 3344 0145 40       		.uleb128 0x40
 3345 0146 06       		.uleb128 0x6
 3346 0147 9742     		.uleb128 0x2117
 3347 0149 0C       		.uleb128 0xc
 3348 014a 01       		.uleb128 0x1
 3349 014b 13       		.uleb128 0x13
 3350 014c 00       		.byte	0
 3351 014d 00       		.byte	0
 3352 014e 1C       		.uleb128 0x1c
 3353 014f 05       		.uleb128 0x5
 3354 0150 00       		.byte	0
 3355 0151 03       		.uleb128 0x3
 3356 0152 08       		.uleb128 0x8
 3357 0153 3A       		.uleb128 0x3a
 3358 0154 0B       		.uleb128 0xb
 3359 0155 3B       		.uleb128 0x3b
 3360 0156 0B       		.uleb128 0xb
 3361 0157 49       		.uleb128 0x49
 3362 0158 13       		.uleb128 0x13
 3363 0159 02       		.uleb128 0x2
 3364 015a 06       		.uleb128 0x6
 3365 015b 00       		.byte	0
 3366 015c 00       		.byte	0
 3367 015d 1D       		.uleb128 0x1d
 3368 015e 34       		.uleb128 0x34
 3369 015f 00       		.byte	0
 3370 0160 03       		.uleb128 0x3
 3371 0161 08       		.uleb128 0x8
 3372 0162 3A       		.uleb128 0x3a
 3373 0163 0B       		.uleb128 0xb
 3374 0164 3B       		.uleb128 0x3b
 3375 0165 0B       		.uleb128 0xb
 3376 0166 49       		.uleb128 0x49
 3377 0167 13       		.uleb128 0x13
 3378 0168 02       		.uleb128 0x2
 3379 0169 06       		.uleb128 0x6
 3380 016a 00       		.byte	0
 3381 016b 00       		.byte	0
 3382 016c 1E       		.uleb128 0x1e
 3383 016d 34       		.uleb128 0x34
 3384 016e 00       		.byte	0
 3385 016f 03       		.uleb128 0x3
 3386 0170 0E       		.uleb128 0xe
 3387 0171 3A       		.uleb128 0x3a
 3388 0172 0B       		.uleb128 0xb
 3389 0173 3B       		.uleb128 0x3b
 3390 0174 0B       		.uleb128 0xb
 3391 0175 49       		.uleb128 0x49
 3392 0176 13       		.uleb128 0x13
 3393 0177 02       		.uleb128 0x2
ARM GAS  /tmp/ccCPaF2U.s 			page 61


 3394 0178 06       		.uleb128 0x6
 3395 0179 00       		.byte	0
 3396 017a 00       		.byte	0
 3397 017b 1F       		.uleb128 0x1f
 3398 017c 898201   		.uleb128 0x4109
 3399 017f 00       		.byte	0
 3400 0180 11       		.uleb128 0x11
 3401 0181 01       		.uleb128 0x1
 3402 0182 31       		.uleb128 0x31
 3403 0183 13       		.uleb128 0x13
 3404 0184 00       		.byte	0
 3405 0185 00       		.byte	0
 3406 0186 20       		.uleb128 0x20
 3407 0187 2E       		.uleb128 0x2e
 3408 0188 01       		.byte	0x1
 3409 0189 03       		.uleb128 0x3
 3410 018a 0E       		.uleb128 0xe
 3411 018b 3A       		.uleb128 0x3a
 3412 018c 0B       		.uleb128 0xb
 3413 018d 3B       		.uleb128 0x3b
 3414 018e 0B       		.uleb128 0xb
 3415 018f 27       		.uleb128 0x27
 3416 0190 0C       		.uleb128 0xc
 3417 0191 11       		.uleb128 0x11
 3418 0192 01       		.uleb128 0x1
 3419 0193 12       		.uleb128 0x12
 3420 0194 01       		.uleb128 0x1
 3421 0195 40       		.uleb128 0x40
 3422 0196 06       		.uleb128 0x6
 3423 0197 9742     		.uleb128 0x2117
 3424 0199 0C       		.uleb128 0xc
 3425 019a 01       		.uleb128 0x1
 3426 019b 13       		.uleb128 0x13
 3427 019c 00       		.byte	0
 3428 019d 00       		.byte	0
 3429 019e 21       		.uleb128 0x21
 3430 019f 34       		.uleb128 0x34
 3431 01a0 00       		.byte	0
 3432 01a1 03       		.uleb128 0x3
 3433 01a2 0E       		.uleb128 0xe
 3434 01a3 3A       		.uleb128 0x3a
 3435 01a4 0B       		.uleb128 0xb
 3436 01a5 3B       		.uleb128 0x3b
 3437 01a6 0B       		.uleb128 0xb
 3438 01a7 49       		.uleb128 0x49
 3439 01a8 13       		.uleb128 0x13
 3440 01a9 00       		.byte	0
 3441 01aa 00       		.byte	0
 3442 01ab 22       		.uleb128 0x22
 3443 01ac 898201   		.uleb128 0x4109
 3444 01af 01       		.byte	0x1
 3445 01b0 11       		.uleb128 0x11
 3446 01b1 01       		.uleb128 0x1
 3447 01b2 31       		.uleb128 0x31
 3448 01b3 13       		.uleb128 0x13
 3449 01b4 01       		.uleb128 0x1
 3450 01b5 13       		.uleb128 0x13
ARM GAS  /tmp/ccCPaF2U.s 			page 62


 3451 01b6 00       		.byte	0
 3452 01b7 00       		.byte	0
 3453 01b8 23       		.uleb128 0x23
 3454 01b9 8A8201   		.uleb128 0x410a
 3455 01bc 00       		.byte	0
 3456 01bd 02       		.uleb128 0x2
 3457 01be 0A       		.uleb128 0xa
 3458 01bf 9142     		.uleb128 0x2111
 3459 01c1 0A       		.uleb128 0xa
 3460 01c2 00       		.byte	0
 3461 01c3 00       		.byte	0
 3462 01c4 24       		.uleb128 0x24
 3463 01c5 898201   		.uleb128 0x4109
 3464 01c8 01       		.byte	0x1
 3465 01c9 11       		.uleb128 0x11
 3466 01ca 01       		.uleb128 0x1
 3467 01cb 9542     		.uleb128 0x2115
 3468 01cd 0C       		.uleb128 0xc
 3469 01ce 31       		.uleb128 0x31
 3470 01cf 13       		.uleb128 0x13
 3471 01d0 00       		.byte	0
 3472 01d1 00       		.byte	0
 3473 01d2 25       		.uleb128 0x25
 3474 01d3 2E       		.uleb128 0x2e
 3475 01d4 01       		.byte	0x1
 3476 01d5 03       		.uleb128 0x3
 3477 01d6 0E       		.uleb128 0xe
 3478 01d7 3A       		.uleb128 0x3a
 3479 01d8 0B       		.uleb128 0xb
 3480 01d9 3B       		.uleb128 0x3b
 3481 01da 0B       		.uleb128 0xb
 3482 01db 27       		.uleb128 0x27
 3483 01dc 0C       		.uleb128 0xc
 3484 01dd 11       		.uleb128 0x11
 3485 01de 01       		.uleb128 0x1
 3486 01df 12       		.uleb128 0x12
 3487 01e0 01       		.uleb128 0x1
 3488 01e1 40       		.uleb128 0x40
 3489 01e2 0A       		.uleb128 0xa
 3490 01e3 9742     		.uleb128 0x2117
 3491 01e5 0C       		.uleb128 0xc
 3492 01e6 01       		.uleb128 0x1
 3493 01e7 13       		.uleb128 0x13
 3494 01e8 00       		.byte	0
 3495 01e9 00       		.byte	0
 3496 01ea 26       		.uleb128 0x26
 3497 01eb 34       		.uleb128 0x34
 3498 01ec 00       		.byte	0
 3499 01ed 03       		.uleb128 0x3
 3500 01ee 0E       		.uleb128 0xe
 3501 01ef 3A       		.uleb128 0x3a
 3502 01f0 0B       		.uleb128 0xb
 3503 01f1 3B       		.uleb128 0x3b
 3504 01f2 0B       		.uleb128 0xb
 3505 01f3 49       		.uleb128 0x49
 3506 01f4 13       		.uleb128 0x13
 3507 01f5 02       		.uleb128 0x2
ARM GAS  /tmp/ccCPaF2U.s 			page 63


 3508 01f6 0A       		.uleb128 0xa
 3509 01f7 00       		.byte	0
 3510 01f8 00       		.byte	0
 3511 01f9 27       		.uleb128 0x27
 3512 01fa 34       		.uleb128 0x34
 3513 01fb 00       		.byte	0
 3514 01fc 03       		.uleb128 0x3
 3515 01fd 08       		.uleb128 0x8
 3516 01fe 3A       		.uleb128 0x3a
 3517 01ff 0B       		.uleb128 0xb
 3518 0200 3B       		.uleb128 0x3b
 3519 0201 0B       		.uleb128 0xb
 3520 0202 49       		.uleb128 0x49
 3521 0203 13       		.uleb128 0x13
 3522 0204 02       		.uleb128 0x2
 3523 0205 0A       		.uleb128 0xa
 3524 0206 00       		.byte	0
 3525 0207 00       		.byte	0
 3526 0208 28       		.uleb128 0x28
 3527 0209 898201   		.uleb128 0x4109
 3528 020c 01       		.byte	0x1
 3529 020d 11       		.uleb128 0x11
 3530 020e 01       		.uleb128 0x1
 3531 020f 31       		.uleb128 0x31
 3532 0210 13       		.uleb128 0x13
 3533 0211 00       		.byte	0
 3534 0212 00       		.byte	0
 3535 0213 29       		.uleb128 0x29
 3536 0214 34       		.uleb128 0x34
 3537 0215 00       		.byte	0
 3538 0216 03       		.uleb128 0x3
 3539 0217 0E       		.uleb128 0xe
 3540 0218 3A       		.uleb128 0x3a
 3541 0219 0B       		.uleb128 0xb
 3542 021a 3B       		.uleb128 0x3b
 3543 021b 0B       		.uleb128 0xb
 3544 021c 49       		.uleb128 0x49
 3545 021d 13       		.uleb128 0x13
 3546 021e 3F       		.uleb128 0x3f
 3547 021f 0C       		.uleb128 0xc
 3548 0220 3C       		.uleb128 0x3c
 3549 0221 0C       		.uleb128 0xc
 3550 0222 00       		.byte	0
 3551 0223 00       		.byte	0
 3552 0224 2A       		.uleb128 0x2a
 3553 0225 21       		.uleb128 0x21
 3554 0226 00       		.byte	0
 3555 0227 00       		.byte	0
 3556 0228 00       		.byte	0
 3557 0229 2B       		.uleb128 0x2b
 3558 022a 34       		.uleb128 0x34
 3559 022b 00       		.byte	0
 3560 022c 03       		.uleb128 0x3
 3561 022d 08       		.uleb128 0x8
 3562 022e 3A       		.uleb128 0x3a
 3563 022f 0B       		.uleb128 0xb
 3564 0230 3B       		.uleb128 0x3b
ARM GAS  /tmp/ccCPaF2U.s 			page 64


 3565 0231 0B       		.uleb128 0xb
 3566 0232 49       		.uleb128 0x49
 3567 0233 13       		.uleb128 0x13
 3568 0234 3F       		.uleb128 0x3f
 3569 0235 0C       		.uleb128 0xc
 3570 0236 3C       		.uleb128 0x3c
 3571 0237 0C       		.uleb128 0xc
 3572 0238 00       		.byte	0
 3573 0239 00       		.byte	0
 3574 023a 2C       		.uleb128 0x2c
 3575 023b 34       		.uleb128 0x34
 3576 023c 00       		.byte	0
 3577 023d 03       		.uleb128 0x3
 3578 023e 0E       		.uleb128 0xe
 3579 023f 3A       		.uleb128 0x3a
 3580 0240 0B       		.uleb128 0xb
 3581 0241 3B       		.uleb128 0x3b
 3582 0242 0B       		.uleb128 0xb
 3583 0243 49       		.uleb128 0x49
 3584 0244 13       		.uleb128 0x13
 3585 0245 3F       		.uleb128 0x3f
 3586 0246 0C       		.uleb128 0xc
 3587 0247 02       		.uleb128 0x2
 3588 0248 0A       		.uleb128 0xa
 3589 0249 00       		.byte	0
 3590 024a 00       		.byte	0
 3591 024b 2D       		.uleb128 0x2d
 3592 024c 2E       		.uleb128 0x2e
 3593 024d 00       		.byte	0
 3594 024e 3F       		.uleb128 0x3f
 3595 024f 0C       		.uleb128 0xc
 3596 0250 03       		.uleb128 0x3
 3597 0251 0E       		.uleb128 0xe
 3598 0252 3A       		.uleb128 0x3a
 3599 0253 0B       		.uleb128 0xb
 3600 0254 3B       		.uleb128 0x3b
 3601 0255 0B       		.uleb128 0xb
 3602 0256 27       		.uleb128 0x27
 3603 0257 0C       		.uleb128 0xc
 3604 0258 49       		.uleb128 0x49
 3605 0259 13       		.uleb128 0x13
 3606 025a 3C       		.uleb128 0x3c
 3607 025b 0C       		.uleb128 0xc
 3608 025c 00       		.byte	0
 3609 025d 00       		.byte	0
 3610 025e 2E       		.uleb128 0x2e
 3611 025f 2E       		.uleb128 0x2e
 3612 0260 01       		.byte	0x1
 3613 0261 3F       		.uleb128 0x3f
 3614 0262 0C       		.uleb128 0xc
 3615 0263 03       		.uleb128 0x3
 3616 0264 0E       		.uleb128 0xe
 3617 0265 3A       		.uleb128 0x3a
 3618 0266 0B       		.uleb128 0xb
 3619 0267 3B       		.uleb128 0x3b
 3620 0268 0B       		.uleb128 0xb
 3621 0269 27       		.uleb128 0x27
ARM GAS  /tmp/ccCPaF2U.s 			page 65


 3622 026a 0C       		.uleb128 0xc
 3623 026b 49       		.uleb128 0x49
 3624 026c 13       		.uleb128 0x13
 3625 026d 3C       		.uleb128 0x3c
 3626 026e 0C       		.uleb128 0xc
 3627 026f 01       		.uleb128 0x1
 3628 0270 13       		.uleb128 0x13
 3629 0271 00       		.byte	0
 3630 0272 00       		.byte	0
 3631 0273 2F       		.uleb128 0x2f
 3632 0274 2E       		.uleb128 0x2e
 3633 0275 01       		.byte	0x1
 3634 0276 3F       		.uleb128 0x3f
 3635 0277 0C       		.uleb128 0xc
 3636 0278 03       		.uleb128 0x3
 3637 0279 0E       		.uleb128 0xe
 3638 027a 3A       		.uleb128 0x3a
 3639 027b 0B       		.uleb128 0xb
 3640 027c 3B       		.uleb128 0x3b
 3641 027d 0B       		.uleb128 0xb
 3642 027e 27       		.uleb128 0x27
 3643 027f 0C       		.uleb128 0xc
 3644 0280 3C       		.uleb128 0x3c
 3645 0281 0C       		.uleb128 0xc
 3646 0282 01       		.uleb128 0x1
 3647 0283 13       		.uleb128 0x13
 3648 0284 00       		.byte	0
 3649 0285 00       		.byte	0
 3650 0286 30       		.uleb128 0x30
 3651 0287 2E       		.uleb128 0x2e
 3652 0288 01       		.byte	0x1
 3653 0289 3F       		.uleb128 0x3f
 3654 028a 0C       		.uleb128 0xc
 3655 028b 03       		.uleb128 0x3
 3656 028c 0E       		.uleb128 0xe
 3657 028d 3A       		.uleb128 0x3a
 3658 028e 0B       		.uleb128 0xb
 3659 028f 3B       		.uleb128 0x3b
 3660 0290 05       		.uleb128 0x5
 3661 0291 27       		.uleb128 0x27
 3662 0292 0C       		.uleb128 0xc
 3663 0293 3C       		.uleb128 0x3c
 3664 0294 0C       		.uleb128 0xc
 3665 0295 01       		.uleb128 0x1
 3666 0296 13       		.uleb128 0x13
 3667 0297 00       		.byte	0
 3668 0298 00       		.byte	0
 3669 0299 31       		.uleb128 0x31
 3670 029a 2E       		.uleb128 0x2e
 3671 029b 00       		.byte	0
 3672 029c 3F       		.uleb128 0x3f
 3673 029d 0C       		.uleb128 0xc
 3674 029e 03       		.uleb128 0x3
 3675 029f 0E       		.uleb128 0xe
 3676 02a0 3A       		.uleb128 0x3a
 3677 02a1 0B       		.uleb128 0xb
 3678 02a2 3B       		.uleb128 0x3b
ARM GAS  /tmp/ccCPaF2U.s 			page 66


 3679 02a3 0B       		.uleb128 0xb
 3680 02a4 27       		.uleb128 0x27
 3681 02a5 0C       		.uleb128 0xc
 3682 02a6 3C       		.uleb128 0x3c
 3683 02a7 0C       		.uleb128 0xc
 3684 02a8 00       		.byte	0
 3685 02a9 00       		.byte	0
 3686 02aa 32       		.uleb128 0x32
 3687 02ab 2E       		.uleb128 0x2e
 3688 02ac 01       		.byte	0x1
 3689 02ad 3F       		.uleb128 0x3f
 3690 02ae 0C       		.uleb128 0xc
 3691 02af 03       		.uleb128 0x3
 3692 02b0 0E       		.uleb128 0xe
 3693 02b1 3A       		.uleb128 0x3a
 3694 02b2 0B       		.uleb128 0xb
 3695 02b3 3B       		.uleb128 0x3b
 3696 02b4 0B       		.uleb128 0xb
 3697 02b5 27       		.uleb128 0x27
 3698 02b6 0C       		.uleb128 0xc
 3699 02b7 3C       		.uleb128 0x3c
 3700 02b8 0C       		.uleb128 0xc
 3701 02b9 00       		.byte	0
 3702 02ba 00       		.byte	0
 3703 02bb 00       		.byte	0
 3704              		.section	.debug_loc,"",%progbits
 3705              	.Ldebug_loc0:
 3706              	.LLST0:
 3707 0000 00000000 		.4byte	.LFB12
 3708 0004 02000000 		.4byte	.LCFI0
 3709 0008 0200     		.2byte	0x2
 3710 000a 7D       		.byte	0x7d
 3711 000b 00       		.sleb128 0
 3712 000c 02000000 		.4byte	.LCFI0
 3713 0010 24000000 		.4byte	.LFE12
 3714 0014 0200     		.2byte	0x2
 3715 0016 7D       		.byte	0x7d
 3716 0017 10       		.sleb128 16
 3717 0018 00000000 		.4byte	0
 3718 001c 00000000 		.4byte	0
 3719              	.LLST1:
 3720 0020 00000000 		.4byte	.LVL0
 3721 0024 07000000 		.4byte	.LVL1-1
 3722 0028 0100     		.2byte	0x1
 3723 002a 50       		.byte	0x50
 3724 002b 07000000 		.4byte	.LVL1-1
 3725 002f 24000000 		.4byte	.LFE12
 3726 0033 0100     		.2byte	0x1
 3727 0035 55       		.byte	0x55
 3728 0036 00000000 		.4byte	0
 3729 003a 00000000 		.4byte	0
 3730              	.LLST2:
 3731 003e 0C000000 		.4byte	.LVL2
 3732 0042 19000000 		.4byte	.LVL4-1
 3733 0046 0100     		.2byte	0x1
 3734 0048 50       		.byte	0x50
 3735 0049 1A000000 		.4byte	.LVL4
ARM GAS  /tmp/ccCPaF2U.s 			page 67


 3736 004d 22000000 		.4byte	.LVL5
 3737 0051 0100     		.2byte	0x1
 3738 0053 50       		.byte	0x50
 3739 0054 22000000 		.4byte	.LVL5
 3740 0058 24000000 		.4byte	.LFE12
 3741 005c 0100     		.2byte	0x1
 3742 005e 53       		.byte	0x53
 3743 005f 00000000 		.4byte	0
 3744 0063 00000000 		.4byte	0
 3745              	.LLST3:
 3746 0067 00000000 		.4byte	.LVL0
 3747 006b 0C000000 		.4byte	.LVL2
 3748 006f 0200     		.2byte	0x2
 3749 0071 30       		.byte	0x30
 3750 0072 9F       		.byte	0x9f
 3751 0073 0C000000 		.4byte	.LVL2
 3752 0077 24000000 		.4byte	.LFE12
 3753 007b 0100     		.2byte	0x1
 3754 007d 54       		.byte	0x54
 3755 007e 00000000 		.4byte	0
 3756 0082 00000000 		.4byte	0
 3757              	.LLST4:
 3758 0086 00000000 		.4byte	.LFB14
 3759 008a 02000000 		.4byte	.LCFI1
 3760 008e 0200     		.2byte	0x2
 3761 0090 7D       		.byte	0x7d
 3762 0091 00       		.sleb128 0
 3763 0092 02000000 		.4byte	.LCFI1
 3764 0096 10000000 		.4byte	.LCFI2
 3765 009a 0200     		.2byte	0x2
 3766 009c 7D       		.byte	0x7d
 3767 009d 08       		.sleb128 8
 3768 009e 10000000 		.4byte	.LCFI2
 3769 00a2 3C010000 		.4byte	.LFE14
 3770 00a6 0200     		.2byte	0x2
 3771 00a8 7D       		.byte	0x7d
 3772 00a9 10       		.sleb128 16
 3773 00aa 00000000 		.4byte	0
 3774 00ae 00000000 		.4byte	0
 3775              	.LLST5:
 3776 00b2 1E000000 		.4byte	.LVL8
 3777 00b6 20000000 		.4byte	.LVL9
 3778 00ba 0100     		.2byte	0x1
 3779 00bc 50       		.byte	0x50
 3780 00bd 20000000 		.4byte	.LVL9
 3781 00c1 3C010000 		.4byte	.LFE14
 3782 00c5 0100     		.2byte	0x1
 3783 00c7 54       		.byte	0x54
 3784 00c8 00000000 		.4byte	0
 3785 00cc 00000000 		.4byte	0
 3786              	.LLST6:
 3787 00d0 00000000 		.4byte	.LFB7
 3788 00d4 02000000 		.4byte	.LCFI3
 3789 00d8 0200     		.2byte	0x2
 3790 00da 7D       		.byte	0x7d
 3791 00db 00       		.sleb128 0
 3792 00dc 02000000 		.4byte	.LCFI3
ARM GAS  /tmp/ccCPaF2U.s 			page 68


 3793 00e0 0C000000 		.4byte	.LFE7
 3794 00e4 0200     		.2byte	0x2
 3795 00e6 7D       		.byte	0x7d
 3796 00e7 08       		.sleb128 8
 3797 00e8 00000000 		.4byte	0
 3798 00ec 00000000 		.4byte	0
 3799              	.LLST7:
 3800 00f0 00000000 		.4byte	.LVL32
 3801 00f4 04000000 		.4byte	.LVL33
 3802 00f8 0100     		.2byte	0x1
 3803 00fa 50       		.byte	0x50
 3804 00fb 04000000 		.4byte	.LVL33
 3805 00ff 0C000000 		.4byte	.LFE7
 3806 0103 0400     		.2byte	0x4
 3807 0105 F3       		.byte	0xf3
 3808 0106 01       		.uleb128 0x1
 3809 0107 50       		.byte	0x50
 3810 0108 9F       		.byte	0x9f
 3811 0109 00000000 		.4byte	0
 3812 010d 00000000 		.4byte	0
 3813              	.LLST8:
 3814 0111 00000000 		.4byte	.LFB11
 3815 0115 06000000 		.4byte	.LCFI4
 3816 0119 0200     		.2byte	0x2
 3817 011b 7D       		.byte	0x7d
 3818 011c 00       		.sleb128 0
 3819 011d 06000000 		.4byte	.LCFI4
 3820 0121 F8000000 		.4byte	.LFE11
 3821 0125 0200     		.2byte	0x2
 3822 0127 7D       		.byte	0x7d
 3823 0128 10       		.sleb128 16
 3824 0129 00000000 		.4byte	0
 3825 012d 00000000 		.4byte	0
 3826              	.LLST9:
 3827 0131 0A000000 		.4byte	.LVL37
 3828 0135 0E000000 		.4byte	.LVL38
 3829 0139 0200     		.2byte	0x2
 3830 013b 30       		.byte	0x30
 3831 013c 9F       		.byte	0x9f
 3832 013d 00000000 		.4byte	0
 3833 0141 00000000 		.4byte	0
 3834              	.LLST10:
 3835 0145 00000000 		.4byte	.LFB9
 3836 0149 02000000 		.4byte	.LCFI5
 3837 014d 0200     		.2byte	0x2
 3838 014f 7D       		.byte	0x7d
 3839 0150 00       		.sleb128 0
 3840 0151 02000000 		.4byte	.LCFI5
 3841 0155 0E000000 		.4byte	.LCFI6
 3842 0159 0200     		.2byte	0x2
 3843 015b 7D       		.byte	0x7d
 3844 015c 10       		.sleb128 16
 3845 015d 0E000000 		.4byte	.LCFI6
 3846 0161 F0000000 		.4byte	.LFE9
 3847 0165 0200     		.2byte	0x2
 3848 0167 7D       		.byte	0x7d
 3849 0168 20       		.sleb128 32
ARM GAS  /tmp/ccCPaF2U.s 			page 69


 3850 0169 00000000 		.4byte	0
 3851 016d 00000000 		.4byte	0
 3852              	.LLST11:
 3853 0171 AE000000 		.4byte	.LVL68
 3854 0175 BE000000 		.4byte	.LVL70
 3855 0179 0200     		.2byte	0x2
 3856 017b 91       		.byte	0x91
 3857 017c 6C       		.sleb128 -20
 3858 017d 00000000 		.4byte	0
 3859 0181 00000000 		.4byte	0
 3860              	.LLST12:
 3861 0185 58000000 		.4byte	.LVL59
 3862 0189 5C000000 		.4byte	.LVL60
 3863 018d 0100     		.2byte	0x1
 3864 018f 50       		.byte	0x50
 3865 0190 5C000000 		.4byte	.LVL60
 3866 0194 F0000000 		.4byte	.LFE9
 3867 0198 0100     		.2byte	0x1
 3868 019a 56       		.byte	0x56
 3869 019b 00000000 		.4byte	0
 3870 019f 00000000 		.4byte	0
 3871              		.section	.debug_aranges,"",%progbits
 3872 0000 54000000 		.4byte	0x54
 3873 0004 0200     		.2byte	0x2
 3874 0006 00000000 		.4byte	.Ldebug_info0
 3875 000a 04       		.byte	0x4
 3876 000b 00       		.byte	0
 3877 000c 0000     		.2byte	0
 3878 000e 0000     		.2byte	0
 3879 0010 00000000 		.4byte	.LFB12
 3880 0014 24000000 		.4byte	.LFE12-.LFB12
 3881 0018 00000000 		.4byte	.LFB14
 3882 001c 3C010000 		.4byte	.LFE14-.LFB14
 3883 0020 00000000 		.4byte	.LFB7
 3884 0024 0C000000 		.4byte	.LFE7-.LFB7
 3885 0028 00000000 		.4byte	.LFB13
 3886 002c 18000000 		.4byte	.LFE13-.LFB13
 3887 0030 00000000 		.4byte	.LFB8
 3888 0034 18000000 		.4byte	.LFE8-.LFB8
 3889 0038 00000000 		.4byte	.LFB11
 3890 003c F8000000 		.4byte	.LFE11-.LFB11
 3891 0040 00000000 		.4byte	.LFB10
 3892 0044 12000000 		.4byte	.LFE10-.LFB10
 3893 0048 00000000 		.4byte	.LFB9
 3894 004c F0000000 		.4byte	.LFE9-.LFB9
 3895 0050 00000000 		.4byte	0
 3896 0054 00000000 		.4byte	0
 3897              		.section	.debug_ranges,"",%progbits
 3898              	.Ldebug_ranges0:
 3899 0000 00000000 		.4byte	.LFB12
 3900 0004 24000000 		.4byte	.LFE12
 3901 0008 00000000 		.4byte	.LFB14
 3902 000c 3C010000 		.4byte	.LFE14
 3903 0010 00000000 		.4byte	.LFB7
 3904 0014 0C000000 		.4byte	.LFE7
 3905 0018 00000000 		.4byte	.LFB13
 3906 001c 18000000 		.4byte	.LFE13
ARM GAS  /tmp/ccCPaF2U.s 			page 70


 3907 0020 00000000 		.4byte	.LFB8
 3908 0024 18000000 		.4byte	.LFE8
 3909 0028 00000000 		.4byte	.LFB11
 3910 002c F8000000 		.4byte	.LFE11
 3911 0030 00000000 		.4byte	.LFB10
 3912 0034 12000000 		.4byte	.LFE10
 3913 0038 00000000 		.4byte	.LFB9
 3914 003c F0000000 		.4byte	.LFE9
 3915 0040 00000000 		.4byte	0
 3916 0044 00000000 		.4byte	0
 3917              		.section	.debug_line,"",%progbits
 3918              	.Ldebug_line0:
 3919 0000 1E030000 		.section	.debug_str,"MS",%progbits,1
 3919      0200DD01 
 3919      00000201 
 3919      FB0E0D00 
 3919      01010101 
 3920              	.LASF82:
 3921 0000 7466756E 		.ascii	"tfunc_t\000"
 3921      635F7400 
 3922              	.LASF38:
 3923 0008 705F6D73 		.ascii	"p_msg\000"
 3923      6700
 3924              	.LASF2:
 3925 000e 73697A65 		.ascii	"size_t\000"
 3925      5F7400
 3926              	.LASF98:
 3927 0015 7072696F 		.ascii	"prio\000"
 3927      00
 3928              	.LASF77:
 3929 001a 7264796D 		.ascii	"rdymsg\000"
 3929      736700
 3930              	.LASF12:
 3931 0021 75696E74 		.ascii	"uint64_t\000"
 3931      36345F74 
 3931      00
 3932              	.LASF76:
 3933 002a 4D656D6F 		.ascii	"MemoryPool\000"
 3933      7279506F 
 3933      6F6C00
 3934              	.LASF61:
 3935 0035 6D656D67 		.ascii	"memgetfunc_t\000"
 3935      65746675 
 3935      6E635F74 
 3935      00
 3936              	.LASF13:
 3937 0042 6C6F6E67 		.ascii	"long long unsigned int\000"
 3937      206C6F6E 
 3937      6720756E 
 3937      7369676E 
 3937      65642069 
 3938              	.LASF78:
 3939 0059 65786974 		.ascii	"exitcode\000"
 3939      636F6465 
 3939      00
 3940              	.LASF65:
 3941 0062 685F6672 		.ascii	"h_free\000"
ARM GAS  /tmp/ccCPaF2U.s 			page 71


 3941      656500
 3942              	.LASF104:
 3943 0069 74657374 		.ascii	"test\000"
 3943      00
 3944              	.LASF127:
 3945 006e 63685265 		.ascii	"chRegFirstThread\000"
 3945      67466972 
 3945      73745468 
 3945      72656164 
 3945      00
 3946              	.LASF121:
 3947 007f 6368506F 		.ascii	"chPoolInit\000"
 3947      6F6C496E 
 3947      697400
 3948              	.LASF116:
 3949 008a 63684865 		.ascii	"chHeapInit\000"
 3949      6170496E 
 3949      697400
 3950              	.LASF67:
 3951 0095 6E657874 		.ascii	"next\000"
 3951      00
 3952              	.LASF26:
 3953 009a 705F7072 		.ascii	"p_prio\000"
 3953      696F00
 3954              	.LASF99:
 3955 00a1 64796E32 		.ascii	"dyn2_setup\000"
 3955      5F736574 
 3955      757000
 3956              	.LASF11:
 3957 00ac 6C6F6E67 		.ascii	"long long int\000"
 3957      206C6F6E 
 3957      6720696E 
 3957      7400
 3958              	.LASF1:
 3959 00ba 7369676E 		.ascii	"signed char\000"
 3959      65642063 
 3959      68617200 
 3960              	.LASF66:
 3961 00c6 685F6D74 		.ascii	"h_mtx\000"
 3961      7800
 3962              	.LASF42:
 3963 00cc 705F6D70 		.ascii	"p_mpool\000"
 3963      6F6F6C00 
 3964              	.LASF14:
 3965 00d4 626F6F6C 		.ascii	"bool_t\000"
 3965      5F7400
 3966              	.LASF58:
 3967 00db 6D5F7175 		.ascii	"m_queue\000"
 3967      65756500 
 3968              	.LASF115:
 3969 00e3 74657374 		.ascii	"test_emit_token\000"
 3969      5F656D69 
 3969      745F746F 
 3969      6B656E00 
 3970              	.LASF129:
 3971 00f3 63684865 		.ascii	"chHeapFree\000"
 3971      61704672 
ARM GAS  /tmp/ccCPaF2U.s 			page 72


 3971      656500
 3972              	.LASF18:
 3973 00fe 74736C69 		.ascii	"tslices_t\000"
 3973      6365735F 
 3973      7400
 3974              	.LASF8:
 3975 0108 6C6F6E67 		.ascii	"long int\000"
 3975      20696E74 
 3975      00
 3976              	.LASF110:
 3977 0111 63685468 		.ascii	"chThdCreateFromHeap\000"
 3977      64437265 
 3977      61746546 
 3977      726F6D48 
 3977      65617000 
 3978              	.LASF16:
 3979 0125 74737461 		.ascii	"tstate_t\000"
 3979      74655F74 
 3979      00
 3980              	.LASF73:
 3981 012e 6D705F6E 		.ascii	"mp_next\000"
 3981      65787400 
 3982              	.LASF100:
 3983 0136 64796E31 		.ascii	"dyn1_execute\000"
 3983      5F657865 
 3983      63757465 
 3983      00
 3984              	.LASF28:
 3985 0143 705F6E65 		.ascii	"p_newer\000"
 3985      77657200 
 3986              	.LASF118:
 3987 014b 63685468 		.ascii	"chThdCreateFromMemoryPool\000"
 3987      64437265 
 3987      61746546 
 3987      726F6D4D 
 3987      656D6F72 
 3988              	.LASF53:
 3989 0165 725F6E65 		.ascii	"r_newer\000"
 3989      77657200 
 3990              	.LASF75:
 3991 016d 6D705F70 		.ascii	"mp_provider\000"
 3991      726F7669 
 3991      64657200 
 3992              	.LASF45:
 3993 0179 72656761 		.ascii	"regarm_t\000"
 3993      726D5F74 
 3993      00
 3994              	.LASF69:
 3995 0182 616C6967 		.ascii	"align\000"
 3995      6E00
 3996              	.LASF0:
 3997 0188 756E7369 		.ascii	"unsigned int\000"
 3997      676E6564 
 3997      20696E74 
 3997      00
 3998              	.LASF10:
 3999 0195 6C6F6E67 		.ascii	"long unsigned int\000"
ARM GAS  /tmp/ccCPaF2U.s 			page 73


 3999      20756E73 
 3999      69676E65 
 3999      6420696E 
 3999      7400
 4000              	.LASF86:
 4001 01a7 74656172 		.ascii	"teardown\000"
 4001      646F776E 
 4001      00
 4002              	.LASF96:
 4003 01b0 64796E31 		.ascii	"dyn1_setup\000"
 4003      5F736574 
 4003      757000
 4004              	.LASF84:
 4005 01bb 6E616D65 		.ascii	"name\000"
 4005      00
 4006              	.LASF48:
 4007 01c0 636F6E74 		.ascii	"context\000"
 4007      65787400 
 4008              	.LASF70:
 4009 01c8 73697A65 		.ascii	"size\000"
 4009      00
 4010              	.LASF6:
 4011 01cd 73686F72 		.ascii	"short unsigned int\000"
 4011      7420756E 
 4011      7369676E 
 4011      65642069 
 4011      6E7400
 4012              	.LASF97:
 4013 01e0 64796E32 		.ascii	"dyn2_execute\000"
 4013      5F657865 
 4013      63757465 
 4013      00
 4014              	.LASF20:
 4015 01ed 6D73675F 		.ascii	"msg_t\000"
 4015      7400
 4016              	.LASF15:
 4017 01f3 746D6F64 		.ascii	"tmode_t\000"
 4017      655F7400 
 4018              	.LASF44:
 4019 01fb 54687265 		.ascii	"ThreadsList\000"
 4019      6164734C 
 4019      69737400 
 4020              	.LASF21:
 4021 0207 6576656E 		.ascii	"eventmask_t\000"
 4021      746D6173 
 4021      6B5F7400 
 4022              	.LASF126:
 4023 0213 2F686F6D 		.ascii	"/home/kwilson/Sandbox/ChibiOS_2.5.1/demos/ARMCM4-ST"
 4023      652F6B77 
 4023      696C736F 
 4023      6E2F5361 
 4023      6E64626F 
 4024 0246 4D333246 		.ascii	"M32F407-LWIP-FATFS-USB\000"
 4024      3430372D 
 4024      4C574950 
 4024      2D464154 
 4024      46532D55 
ARM GAS  /tmp/ccCPaF2U.s 			page 74


 4025              	.LASF57:
 4026 025d 4D757465 		.ascii	"Mutex\000"
 4026      7800
 4027              	.LASF112:
 4028 0263 63685468 		.ascii	"chThdAddRef\000"
 4028      64416464 
 4028      52656600 
 4029              	.LASF46:
 4030 026f 73746B61 		.ascii	"stkalign_t\000"
 4030      6C69676E 
 4030      5F7400
 4031              	.LASF49:
 4032 027a 73697A65 		.ascii	"sizetype\000"
 4032      74797065 
 4032      00
 4033              	.LASF105:
 4034 0283 74657374 		.ascii	"testdyn1\000"
 4034      64796E31 
 4034      00
 4035              	.LASF106:
 4036 028c 74657374 		.ascii	"testdyn2\000"
 4036      64796E32 
 4036      00
 4037              	.LASF107:
 4038 0295 74657374 		.ascii	"testdyn3\000"
 4038      64796E33 
 4038      00
 4039              	.LASF94:
 4040 029e 64796E33 		.ascii	"dyn3_execute\000"
 4040      5F657865 
 4040      63757465 
 4040      00
 4041              	.LASF29:
 4042 02ab 705F6F6C 		.ascii	"p_older\000"
 4042      64657200 
 4043              	.LASF52:
 4044 02b3 725F6374 		.ascii	"r_ctx\000"
 4044      7800
 4045              	.LASF43:
 4046 02b9 54687265 		.ascii	"ThreadsQueue\000"
 4046      61647351 
 4046      75657565 
 4046      00
 4047              	.LASF74:
 4048 02c6 6D705F6F 		.ascii	"mp_object_size\000"
 4048      626A6563 
 4048      745F7369 
 4048      7A6500
 4049              	.LASF85:
 4050 02d5 73657475 		.ascii	"setup\000"
 4050      7000
 4051              	.LASF119:
 4052 02db 5F746573 		.ascii	"_test_assert_sequence\000"
 4052      745F6173 
 4052      73657274 
 4052      5F736571 
 4052      75656E63 
ARM GAS  /tmp/ccCPaF2U.s 			page 75


 4053              	.LASF124:
 4054 02f1 474E5520 		.ascii	"GNU C 4.7.2\000"
 4054      4320342E 
 4054      372E3200 
 4055              	.LASF55:
 4056 02fd 725F6375 		.ascii	"r_current\000"
 4056      7272656E 
 4056      7400
 4057              	.LASF54:
 4058 0307 725F6F6C 		.ascii	"r_older\000"
 4058      64657200 
 4059              	.LASF62:
 4060 030f 4D656D6F 		.ascii	"MemoryHeap\000"
 4060      72794865 
 4060      617000
 4061              	.LASF72:
 4062 031a 70685F6E 		.ascii	"ph_next\000"
 4062      65787400 
 4063              	.LASF17:
 4064 0322 74726566 		.ascii	"trefs_t\000"
 4064      735F7400 
 4065              	.LASF25:
 4066 032a 705F7072 		.ascii	"p_prev\000"
 4066      657600
 4067              	.LASF87:
 4068 0331 65786563 		.ascii	"execute\000"
 4068      75746500 
 4069              	.LASF19:
 4070 0339 74707269 		.ascii	"tprio_t\000"
 4070      6F5F7400 
 4071              	.LASF93:
 4072 0341 74687265 		.ascii	"thread\000"
 4072      616400
 4073              	.LASF7:
 4074 0348 696E7433 		.ascii	"int32_t\000"
 4074      325F7400 
 4075              	.LASF4:
 4076 0350 756E7369 		.ascii	"unsigned char\000"
 4076      676E6564 
 4076      20636861 
 4076      7200
 4077              	.LASF64:
 4078 035e 685F7072 		.ascii	"h_provider\000"
 4078      6F766964 
 4078      657200
 4079              	.LASF40:
 4080 0369 705F6D74 		.ascii	"p_mtxlist\000"
 4080      786C6973 
 4080      7400
 4081              	.LASF5:
 4082 0373 73686F72 		.ascii	"short int\000"
 4082      7420696E 
 4082      7400
 4083              	.LASF31:
 4084 037d 705F7374 		.ascii	"p_state\000"
 4084      61746500 
 4085              	.LASF34:
ARM GAS  /tmp/ccCPaF2U.s 			page 76


 4086 0385 705F7072 		.ascii	"p_preempt\000"
 4086      65656D70 
 4086      7400
 4087              	.LASF103:
 4088 038f 74687265 		.ascii	"threads\000"
 4088      61647300 
 4089              	.LASF51:
 4090 0397 725F7072 		.ascii	"r_prio\000"
 4090      696F00
 4091              	.LASF88:
 4092 039e 68656170 		.ascii	"heap_header\000"
 4092      5F686561 
 4092      64657200 
 4093              	.LASF80:
 4094 03aa 65776D61 		.ascii	"ewmask\000"
 4094      736B00
 4095              	.LASF24:
 4096 03b1 705F6E65 		.ascii	"p_next\000"
 4096      787400
 4097              	.LASF32:
 4098 03b8 705F666C 		.ascii	"p_flags\000"
 4098      61677300 
 4099              	.LASF113:
 4100 03c0 63685468 		.ascii	"chThdRelease\000"
 4100      6452656C 
 4100      65617365 
 4100      00
 4101              	.LASF23:
 4102 03cd 54687265 		.ascii	"Thread\000"
 4102      616400
 4103              	.LASF123:
 4104 03d4 63684865 		.ascii	"chHeapAlloc\000"
 4104      6170416C 
 4104      6C6F6300 
 4105              	.LASF83:
 4106 03e0 74657374 		.ascii	"testcase\000"
 4106      63617365 
 4106      00
 4107              	.LASF39:
 4108 03e9 705F6570 		.ascii	"p_epending\000"
 4108      656E6469 
 4108      6E6700
 4109              	.LASF114:
 4110 03f4 63685468 		.ascii	"chThdSleep\000"
 4110      64536C65 
 4110      657000
 4111              	.LASF9:
 4112 03ff 75696E74 		.ascii	"uint32_t\000"
 4112      33325F74 
 4112      00
 4113              	.LASF50:
 4114 0408 725F7175 		.ascii	"r_queue\000"
 4114      65756500 
 4115              	.LASF68:
 4116 0410 68656170 		.ascii	"heap\000"
 4116      00
 4117              	.LASF81:
ARM GAS  /tmp/ccCPaF2U.s 			page 77


 4118 0415 63686172 		.ascii	"char\000"
 4118      00
 4119              	.LASF109:
 4120 041a 63685265 		.ascii	"chRegNextThread\000"
 4120      674E6578 
 4120      74546872 
 4120      65616400 
 4121              	.LASF95:
 4122 042a 64796E33 		.ascii	"dyn3_setup\000"
 4122      5F736574 
 4122      757000
 4123              	.LASF122:
 4124 0435 63684865 		.ascii	"chHeapStatus\000"
 4124      61705374 
 4124      61747573 
 4124      00
 4125              	.LASF128:
 4126 0442 74657374 		.ascii	"test_wait_threads\000"
 4126      5F776169 
 4126      745F7468 
 4126      72656164 
 4126      7300
 4127              	.LASF60:
 4128 0454 6D5F6E65 		.ascii	"m_next\000"
 4128      787400
 4129              	.LASF22:
 4130 045b 73797374 		.ascii	"systime_t\000"
 4130      696D655F 
 4130      7400
 4131              	.LASF41:
 4132 0465 705F7265 		.ascii	"p_realprio\000"
 4132      616C7072 
 4132      696F00
 4133              	.LASF90:
 4134 0470 62756666 		.ascii	"buffer\000"
 4134      657200
 4135              	.LASF108:
 4136 0477 70617474 		.ascii	"patterndyn\000"
 4136      65726E64 
 4136      796E00
 4137              	.LASF35:
 4138 0482 705F7469 		.ascii	"p_time\000"
 4138      6D6500
 4139              	.LASF47:
 4140 0489 696E7463 		.ascii	"intctx\000"
 4140      747800
 4141              	.LASF37:
 4142 0490 705F6D73 		.ascii	"p_msgqueue\000"
 4142      67717565 
 4142      756500
 4143              	.LASF125:
 4144 049b 2E2E2F2E 		.ascii	"../../test/testdyn.c\000"
 4144      2E2F7465 
 4144      73742F74 
 4144      65737464 
 4144      796E2E63 
 4145              	.LASF91:
ARM GAS  /tmp/ccCPaF2U.s 			page 78


 4146 04b0 666F756E 		.ascii	"found\000"
 4146      6400
 4147              	.LASF89:
 4148 04b6 74657374 		.ascii	"test_buffers\000"
 4148      5F627566 
 4148      66657273 
 4148      00
 4149              	.LASF71:
 4150 04c3 706F6F6C 		.ascii	"pool_header\000"
 4150      5F686561 
 4150      64657200 
 4151              	.LASF33:
 4152 04cf 705F7265 		.ascii	"p_refs\000"
 4152      667300
 4153              	.LASF56:
 4154 04d6 52656164 		.ascii	"ReadyList\000"
 4154      794C6973 
 4154      7400
 4155              	.LASF92:
 4156 04e0 72656766 		.ascii	"regfind\000"
 4156      696E6400 
 4157              	.LASF102:
 4158 04e8 726C6973 		.ascii	"rlist\000"
 4158      7400
 4159              	.LASF3:
 4160 04ee 75696E74 		.ascii	"uint8_t\000"
 4160      385F7400 
 4161              	.LASF120:
 4162 04f6 6368506F 		.ascii	"chPoolAlloc\000"
 4162      6F6C416C 
 4162      6C6F6300 
 4163              	.LASF117:
 4164 0502 6368506F 		.ascii	"chPoolFree\000"
 4164      6F6C4672 
 4164      656500
 4165              	.LASF79:
 4166 050d 77746F62 		.ascii	"wtobjp\000"
 4166      6A7000
 4167              	.LASF30:
 4168 0514 705F6E61 		.ascii	"p_name\000"
 4168      6D6500
 4169              	.LASF111:
 4170 051b 5F746573 		.ascii	"_test_assert\000"
 4170      745F6173 
 4170      73657274 
 4170      00
 4171              	.LASF59:
 4172 0528 6D5F6F77 		.ascii	"m_owner\000"
 4172      6E657200 
 4173              	.LASF27:
 4174 0530 705F6374 		.ascii	"p_ctx\000"
 4174      7800
 4175              	.LASF36:
 4176 0536 705F7761 		.ascii	"p_waiting\000"
 4176      6974696E 
 4176      6700
 4177              	.LASF101:
ARM GAS  /tmp/ccCPaF2U.s 			page 79


 4178 0540 68656170 		.ascii	"heap1\000"
 4178      3100
 4179              	.LASF63:
 4180 0546 6D656D6F 		.ascii	"memory_heap\000"
 4180      72795F68 
 4180      65617000 
 4181              		.ident	"GCC: (crosstool-NG 1.17.0 - PSAS ST32F4 GFE) 4.7.2"
ARM GAS  /tmp/ccCPaF2U.s 			page 80


DEFINED SYMBOLS
                            *ABS*:0000000000000000 testdyn.c
     /tmp/ccCPaF2U.s:21     .text.regfind:0000000000000000 $t
     /tmp/ccCPaF2U.s:26     .text.regfind:0000000000000000 regfind
     /tmp/ccCPaF2U.s:74     .text.dyn3_execute:0000000000000000 $t
     /tmp/ccCPaF2U.s:79     .text.dyn3_execute:0000000000000000 dyn3_execute
     /tmp/ccCPaF2U.s:261    .text.dyn3_execute:000000000000012c $d
     /tmp/ccCPaF2U.s:274    .text.thread:0000000000000000 thread
     /tmp/ccCPaF2U.s:269    .text.thread:0000000000000000 $t
     /tmp/ccCPaF2U.s:298    .text.dyn3_setup:0000000000000000 $t
     /tmp/ccCPaF2U.s:303    .text.dyn3_setup:0000000000000000 dyn3_setup
     /tmp/ccCPaF2U.s:797    .bss.heap1:0000000000000000 .LANCHOR0
     /tmp/ccCPaF2U.s:324    .text.dyn1_setup:0000000000000000 $t
     /tmp/ccCPaF2U.s:329    .text.dyn1_setup:0000000000000000 dyn1_setup
     /tmp/ccCPaF2U.s:350    .text.dyn2_execute:0000000000000000 $t
     /tmp/ccCPaF2U.s:355    .text.dyn2_execute:0000000000000000 dyn2_execute
     /tmp/ccCPaF2U.s:507    .text.dyn2_execute:00000000000000cc $d
     /tmp/ccCPaF2U.s:522    .text.dyn2_setup:0000000000000000 $t
     /tmp/ccCPaF2U.s:527    .text.dyn2_setup:0000000000000000 dyn2_setup
     /tmp/ccCPaF2U.s:751    .bss.mp1:0000000000000000 .LANCHOR1
     /tmp/ccCPaF2U.s:547    .text.dyn1_execute:0000000000000000 $t
     /tmp/ccCPaF2U.s:552    .text.dyn1_execute:0000000000000000 dyn1_execute
     /tmp/ccCPaF2U.s:707    .text.dyn1_execute:00000000000000d0 $d
     /tmp/ccCPaF2U.s:790    .rodata.patterndyn:0000000000000000 patterndyn
     /tmp/ccCPaF2U.s:744    .rodata.testdyn3:0000000000000000 testdyn3
     /tmp/ccCPaF2U.s:735    .rodata.testdyn2:0000000000000000 testdyn2
     /tmp/ccCPaF2U.s:726    .rodata.testdyn1:0000000000000000 testdyn1
     /tmp/ccCPaF2U.s:723    .rodata.testdyn1:0000000000000000 $d
     /tmp/ccCPaF2U.s:732    .rodata.testdyn2:0000000000000000 $d
     /tmp/ccCPaF2U.s:741    .rodata.testdyn3:0000000000000000 $d
     /tmp/ccCPaF2U.s:750    .bss.mp1:0000000000000000 $d
     /tmp/ccCPaF2U.s:754    .bss.mp1:0000000000000000 mp1
     /tmp/ccCPaF2U.s:757    .rodata.str1.4:0000000000000000 $d
     /tmp/ccCPaF2U.s:787    .rodata.patterndyn:0000000000000000 $d
     /tmp/ccCPaF2U.s:796    .bss.heap1:0000000000000000 $d
     /tmp/ccCPaF2U.s:800    .bss.heap1:0000000000000000 heap1
                     .debug_frame:0000000000000010 $d
     /tmp/ccCPaF2U.s:268    .text.dyn3_execute:000000000000013c $t
     /tmp/ccCPaF2U.s:521    .text.dyn2_execute:00000000000000f8 $t

UNDEFINED SYMBOLS
chRegFirstThread
chRegNextThread
chThdCreateFromHeap
_test_assert
chThdAddRef
chThdRelease
chThdSleep
rlist
test_emit_token
test
chHeapInit
chPoolFree
chThdCreateFromMemoryPool
test_wait_threads
_test_assert_sequence
chPoolAlloc
ARM GAS  /tmp/ccCPaF2U.s 			page 81


wa
threads
chPoolInit
chHeapStatus
chHeapAlloc
chHeapFree
