ARM GAS  /tmp/ccdyk9ZN.s 			page 1


   1              		.syntax unified
   2              		.cpu cortex-m4
   3              		.eabi_attribute 27, 3
   4              		.eabi_attribute 28, 1
   5              		.fpu fpv4-sp-d16
   6              		.eabi_attribute 20, 1
   7              		.eabi_attribute 21, 1
   8              		.eabi_attribute 23, 3
   9              		.eabi_attribute 24, 1
  10              		.eabi_attribute 25, 1
  11              		.eabi_attribute 26, 1
  12              		.eabi_attribute 30, 2
  13              		.eabi_attribute 34, 1
  14              		.eabi_attribute 18, 4
  15              		.thumb
  16              		.file	"testpools.c"
  17              		.text
  18              	.Ltext0:
  19              		.cfi_sections	.debug_frame
  20              		.section	.text.null_provider,"ax",%progbits
  21              		.align	2
  22              		.p2align 4,,15
  23              		.thumb
  24              		.thumb_func
  25              		.type	null_provider, %function
  26              	null_provider:
  27              	.LFB7:
  28              		.file 1 "../../test/testpools.c"
  29              		.loc 1 64 0
  30              		.cfi_startproc
  31              		@ args = 0, pretend = 0, frame = 0
  32              		@ frame_needed = 0, uses_anonymous_args = 0
  33              		@ link register save eliminated.
  34              	.LVL0:
  35              		.loc 1 68 0
  36 0000 0020     		movs	r0, #0
  37              	.LVL1:
  38 0002 7047     		bx	lr
  39              		.cfi_endproc
  40              	.LFE7:
  41              		.size	null_provider, .-null_provider
  42 0004 AFF30080 		.section	.text.pools1_setup,"ax",%progbits
  42      AFF30080 
  42      AFF30080 
  43              		.align	2
  44              		.p2align 4,,15
  45              		.thumb
  46              		.thumb_func
  47              		.type	pools1_setup, %function
  48              	pools1_setup:
  49              	.LFB8:
  50              		.loc 1 70 0
  51              		.cfi_startproc
  52              		@ args = 0, pretend = 0, frame = 0
  53              		@ frame_needed = 0, uses_anonymous_args = 0
  54              		@ link register save eliminated.
  55              		.loc 1 72 0
ARM GAS  /tmp/ccdyk9ZN.s 			page 2


  56 0000 40F20000 		movw	r0, #:lower16:.LANCHOR0
  57 0004 C0F20000 		movt	r0, #:upper16:.LANCHOR0
  58 0008 4FF49871 		mov	r1, #304
  59 000c 0022     		movs	r2, #0
  60              		.loc 1 73 0
  61              		.loc 1 72 0
  62 000e FFF7FEBF 		b	chPoolInit
  63              	.LVL2:
  64              		.cfi_endproc
  65              	.LFE8:
  66              		.size	pools1_setup, .-pools1_setup
  67 0012 00BFAFF3 		.section	.text.pools1_execute,"ax",%progbits
  67      0080AFF3 
  67      0080AFF3 
  67      0080
  68              		.align	2
  69              		.p2align 4,,15
  70              		.thumb
  71              		.thumb_func
  72              		.type	pools1_execute, %function
  73              	pools1_execute:
  74              	.LFB9:
  75              		.loc 1 75 0
  76              		.cfi_startproc
  77              		@ args = 0, pretend = 0, frame = 0
  78              		@ frame_needed = 0, uses_anonymous_args = 0
  79              		.loc 1 79 0
  80 0000 2D4B     		ldr	r3, .L16
  81 0002 2E48     		ldr	r0, .L16+4
  82              		.loc 1 75 0
  83 0004 70B5     		push	{r4, r5, r6, lr}
  84              	.LCFI0:
  85              		.cfi_def_cfa_offset 16
  86              		.cfi_offset 4, -16
  87              		.cfi_offset 5, -12
  88              		.cfi_offset 6, -8
  89              		.cfi_offset 14, -4
  90              		.loc 1 79 0
  91 0006 1D68     		ldr	r5, [r3, #0]
  92 0008 0522     		movs	r2, #5
  93 000a 2946     		mov	r1, r5
  94 000c FFF7FEFF 		bl	chPoolLoadArray
  95              	.LVL3:
  96 0010 0524     		movs	r4, #5
  97              	.LVL4:
  98              	.L6:
  99              		.loc 1 83 0
 100 0012 2A48     		ldr	r0, .L16+4
 101 0014 FFF7FEFF 		bl	chPoolAlloc
 102              	.LVL5:
 103 0018 011C     		adds	r1, r0, #0
 104 001a 18BF     		it	ne
 105 001c 0121     		movne	r1, #1
 106 001e 0120     		movs	r0, #1
 107 0020 FFF7FEFF 		bl	_test_assert
 108              	.LVL6:
 109 0024 0028     		cmp	r0, #0
ARM GAS  /tmp/ccdyk9ZN.s 			page 3


 110 0026 35D1     		bne	.L3
 111              		.loc 1 82 0
 112 0028 013C     		subs	r4, r4, #1
 113 002a F2D1     		bne	.L6
 114              		.loc 1 86 0
 115 002c 2348     		ldr	r0, .L16+4
 116 002e FFF7FEFF 		bl	chPoolAlloc
 117              	.LVL7:
 118 0032 D0F10101 		rsbs	r1, r0, #1
 119 0036 38BF     		it	cc
 120 0038 0021     		movcc	r1, #0
 121 003a 0220     		movs	r0, #2
 122 003c FFF7FEFF 		bl	_test_assert
 123              	.LVL8:
 124 0040 40BB     		cbnz	r0, .L3
 125 0042 1D4C     		ldr	r4, .L16
 126              	.LBB4:
 127              	.LBB5:
 128              		.loc 1 90 0
 129 0044 1D48     		ldr	r0, .L16+4
 130              	.LBE5:
 131              	.LBE4:
 132              		.loc 1 75 0
 133 0046 04F11006 		add	r6, r4, #16
 134              	.LBB8:
 135              	.LBB6:
 136              		.loc 1 90 0
 137 004a 2946     		mov	r1, r5
 138 004c FFF7FEFF 		bl	chPoolFree
 139              	.LVL9:
 140              		.loc 1 89 0
 141 0050 B442     		cmp	r4, r6
 142 0052 07D0     		beq	.L10
 143              	.L14:
 144 0054 54F8045F 		ldr	r5, [r4, #4]!
 145              		.loc 1 90 0
 146 0058 1848     		ldr	r0, .L16+4
 147 005a 2946     		mov	r1, r5
 148 005c FFF7FEFF 		bl	chPoolFree
 149              	.LVL10:
 150              		.loc 1 89 0
 151 0060 B442     		cmp	r4, r6
 152 0062 F7D1     		bne	.L14
 153              	.L10:
 154 0064 0524     		movs	r4, #5
 155              	.L8:
 156              		.loc 1 94 0
 157 0066 1548     		ldr	r0, .L16+4
 158 0068 FFF7FEFF 		bl	chPoolAlloc
 159              	.LVL11:
 160 006c 011C     		adds	r1, r0, #0
 161 006e 18BF     		it	ne
 162 0070 0121     		movne	r1, #1
 163 0072 0320     		movs	r0, #3
 164 0074 FFF7FEFF 		bl	_test_assert
 165              	.LVL12:
 166 0078 60B9     		cbnz	r0, .L3
ARM GAS  /tmp/ccdyk9ZN.s 			page 4


 167              		.loc 1 93 0
 168 007a 013C     		subs	r4, r4, #1
 169 007c F3D1     		bne	.L8
 170              		.loc 1 97 0
 171 007e 0F48     		ldr	r0, .L16+4
 172 0080 FFF7FEFF 		bl	chPoolAlloc
 173              	.LVL13:
 174 0084 D0F10101 		rsbs	r1, r0, #1
 175 0088 38BF     		it	cc
 176 008a 0021     		movcc	r1, #0
 177 008c 0420     		movs	r0, #4
 178 008e FFF7FEFF 		bl	_test_assert
 179              	.LVL14:
 180 0092 00B1     		cbz	r0, .L15
 181              	.L3:
 182 0094 70BD     		pop	{r4, r5, r6, pc}
 183              	.L15:
 184              		.loc 1 100 0
 185 0096 1021     		movs	r1, #16
 186 0098 094A     		ldr	r2, .L16+8
 187 009a 0848     		ldr	r0, .L16+4
 188 009c FFF7FEFF 		bl	chPoolInit
 189              	.LVL15:
 190              		.loc 1 101 0
 191 00a0 0648     		ldr	r0, .L16+4
 192 00a2 FFF7FEFF 		bl	chPoolAlloc
 193              	.LVL16:
 194 00a6 D0F10101 		rsbs	r1, r0, #1
 195 00aa 38BF     		it	cc
 196 00ac 0021     		movcc	r1, #0
 197 00ae 0520     		movs	r0, #5
 198              	.LBE6:
 199              	.LBE8:
 200              		.loc 1 102 0
 201 00b0 BDE87040 		pop	{r4, r5, r6, lr}
 202              	.LBB9:
 203              	.LBB7:
 204              		.loc 1 101 0
 205 00b4 FFF7FEBF 		b	_test_assert
 206              	.LVL17:
 207              	.L17:
 208              		.align	2
 209              	.L16:
 210 00b8 00000000 		.word	wa
 211 00bc 00000000 		.word	.LANCHOR0
 212 00c0 00000000 		.word	null_provider
 213              	.LBE7:
 214              	.LBE9:
 215              		.cfi_endproc
 216              	.LFE9:
 217              		.size	pools1_execute, .-pools1_execute
 218              		.global	patternpools
 219              		.global	testpools1
 220 00c4 AFF30080 		.section	.rodata.str1.4,"aMS",%progbits,1
 220      AFF30080 
 220      AFF30080 
 221              		.align	2
ARM GAS  /tmp/ccdyk9ZN.s 			page 5


 222              	.LC0:
 223 0000 4D656D6F 		.ascii	"Memory Pools, queue/dequeue\000"
 223      72792050 
 223      6F6F6C73 
 223      2C207175 
 223      6575652F 
 224              		.section	.rodata.patternpools,"a",%progbits
 225              		.align	2
 226              		.type	patternpools, %object
 227              		.size	patternpools, 8
 228              	patternpools:
 229 0000 00000000 		.word	testpools1
 230 0004 00000000 		.word	0
 231              		.section	.data.mp1,"aw",%progbits
 232              		.align	2
 233              		.set	.LANCHOR0,. + 0
 234              		.type	mp1, %object
 235              		.size	mp1, 12
 236              	mp1:
 237 0000 00000000 		.word	0
 238 0004 30010000 		.word	304
 239 0008 00000000 		.word	0
 240              		.section	.rodata.testpools1,"a",%progbits
 241              		.align	2
 242              		.type	testpools1, %object
 243              		.size	testpools1, 16
 244              	testpools1:
 245 0000 00000000 		.word	.LC0
 246 0004 00000000 		.word	pools1_setup
 247 0008 00000000 		.word	0
 248 000c 00000000 		.word	pools1_execute
 249              		.text
 250              	.Letext0:
 251              		.file 2 "/opt/psas/x-tools/stm32f407/arm-psas-eabi/bin/../lib/gcc/arm-psas-eabi/4.7.2/include/stdd
 252              		.file 3 "/opt/psas/x-tools/stm32f407/arm-psas-eabi/bin/../lib/gcc/arm-psas-eabi/4.7.2/../../../../
 253              		.file 4 "../../os/ports/GCC/ARMCMx/chtypes.h"
 254              		.file 5 "../../os/kernel/include/chmemcore.h"
 255              		.file 6 "../../os/kernel/include/chmempools.h"
 256              		.file 7 "../../test/test.h"