ARM GAS  /tmp/cctvTqe7.s 			page 1


   1              		.syntax unified
   2              		.cpu cortex-m4
   3              		.eabi_attribute 27, 3
   4              		.eabi_attribute 28, 1
   5              		.fpu fpv4-sp-d16
   6              		.eabi_attribute 20, 1
   7              		.eabi_attribute 21, 1
   8              		.eabi_attribute 23, 3
   9              		.eabi_attribute 24, 1
  10              		.eabi_attribute 25, 1
  11              		.eabi_attribute 26, 1
  12              		.eabi_attribute 30, 2
  13              		.eabi_attribute 34, 1
  14              		.eabi_attribute 18, 4
  15              		.thumb
  16              		.file	"testqueues.c"
  17              		.text
  18              	.Ltext0:
  19              		.cfi_sections	.debug_frame
  20              		.section	.text.notify,"ax",%progbits
  21              		.align	2
  22              		.p2align 4,,15
  23              		.thumb
  24              		.thumb_func
  25              		.type	notify, %function
  26              	notify:
  27              	.LFB7:
  28              		.file 1 "../../test/testqueues.c"
  29              		.loc 1 61 0
  30              		.cfi_startproc
  31              		@ args = 0, pretend = 0, frame = 0
  32              		@ frame_needed = 0, uses_anonymous_args = 0
  33              		@ link register save eliminated.
  34              	.LVL0:
  35 0000 7047     		bx	lr
  36              		.cfi_endproc
  37              	.LFE7:
  38              		.size	notify, .-notify
  39 0002 00BFAFF3 		.section	.text.thread2,"ax",%progbits
  39      0080AFF3 
  39      0080AFF3 
  39      0080
  40              		.align	2
  41              		.p2align 4,,15
  42              		.thumb
  43              		.thumb_func
  44              		.type	thread2, %function
  45              	thread2:
  46              	.LFB12:
  47              		.loc 1 174 0
  48              		.cfi_startproc
  49              		@ args = 0, pretend = 0, frame = 0
  50              		@ frame_needed = 0, uses_anonymous_args = 0
  51              	.LVL1:
  52              		.loc 1 177 0
  53 0000 40F20000 		movw	r0, #:lower16:.LANCHOR0
  54              	.LVL2:
ARM GAS  /tmp/cctvTqe7.s 			page 2


  55              		.loc 1 174 0
  56 0004 08B5     		push	{r3, lr}
  57              	.LCFI0:
  58              		.cfi_def_cfa_offset 8
  59              		.cfi_offset 3, -8
  60              		.cfi_offset 14, -4
  61              		.loc 1 177 0
  62 0006 0021     		movs	r1, #0
  63 0008 C822     		movs	r2, #200
  64 000a C0F20000 		movt	r0, #:upper16:.LANCHOR0
  65 000e FFF7FEFF 		bl	chOQPutTimeout
  66              	.LVL3:
  67              		.loc 1 179 0
  68 0012 0020     		movs	r0, #0
  69 0014 08BD     		pop	{r3, pc}
  70              		.cfi_endproc
  71              	.LFE12:
  72              		.size	thread2, .-thread2
  73 0016 00BFAFF3 		.section	.text.queues2_setup,"ax",%progbits
  73      0080AFF3 
  73      0080
  74              		.align	2
  75              		.p2align 4,,15
  76              		.thumb
  77              		.thumb_func
  78              		.type	queues2_setup, %function
  79              	queues2_setup:
  80              	.LFB11:
  81              		.loc 1 169 0
  82              		.cfi_startproc
  83              		@ args = 0, pretend = 0, frame = 0
  84              		@ frame_needed = 0, uses_anonymous_args = 0
  85 0000 00B5     		push	{lr}
  86              	.LCFI1:
  87              		.cfi_def_cfa_offset 4
  88              		.cfi_offset 14, -4
  89              		.loc 1 171 0
  90 0002 40F20003 		movw	r3, #:lower16:wa
  91 0006 C0F20003 		movt	r3, #:upper16:wa
  92              		.loc 1 169 0
  93 000a 83B0     		sub	sp, sp, #12
  94              	.LCFI2:
  95              		.cfi_def_cfa_offset 16
  96              		.loc 1 171 0
  97 000c 1968     		ldr	r1, [r3, #0]
  98 000e 0023     		movs	r3, #0
  99 0010 0093     		str	r3, [sp, #0]
 100 0012 40F20000 		movw	r0, #:lower16:.LANCHOR0
 101 0016 40F20003 		movw	r3, #:lower16:notify
 102 001a C0F20000 		movt	r0, #:upper16:.LANCHOR0
 103 001e 0422     		movs	r2, #4
 104 0020 C0F20003 		movt	r3, #:upper16:notify
 105 0024 FFF7FEFF 		bl	chOQInit
 106              	.LVL4:
 107              		.loc 1 172 0
 108 0028 03B0     		add	sp, sp, #12
 109 002a 00BD     		pop	{pc}
ARM GAS  /tmp/cctvTqe7.s 			page 3


 110              		.cfi_endproc
 111              	.LFE11:
 112              		.size	queues2_setup, .-queues2_setup
 113 002c AFF30080 		.section	.text.thread1,"ax",%progbits
 114              		.align	2
 115              		.p2align 4,,15
 116              		.thumb
 117              		.thumb_func
 118              		.type	thread1, %function
 119              	thread1:
 120              	.LFB9:
 121              		.loc 1 87 0
 122              		.cfi_startproc
 123              		@ args = 0, pretend = 0, frame = 0
 124              		@ frame_needed = 0, uses_anonymous_args = 0
 125              	.LVL5:
 126              		.loc 1 90 0
 127 0000 40F20000 		movw	r0, #:lower16:.LANCHOR1
 128              	.LVL6:
 129              		.loc 1 87 0
 130 0004 08B5     		push	{r3, lr}
 131              	.LCFI3:
 132              		.cfi_def_cfa_offset 8
 133              		.cfi_offset 3, -8
 134              		.cfi_offset 14, -4
 135              		.loc 1 90 0
 136 0006 C821     		movs	r1, #200
 137 0008 C0F20000 		movt	r0, #:upper16:.LANCHOR1
 138 000c FFF7FEFF 		bl	chIQGetTimeout
 139              	.LVL7:
 140              		.loc 1 92 0
 141 0010 0020     		movs	r0, #0
 142 0012 08BD     		pop	{r3, pc}
 143              		.cfi_endproc
 144              	.LFE9:
 145              		.size	thread1, .-thread1
 146 0014 AFF30080 		.section	.text.queues1_setup,"ax",%progbits
 146      AFF30080 
 146      AFF30080 
 147              		.align	2
 148              		.p2align 4,,15
 149              		.thumb
 150              		.thumb_func
 151              		.type	queues1_setup, %function
 152              	queues1_setup:
 153              	.LFB8:
 154              		.loc 1 82 0
 155              		.cfi_startproc
 156              		@ args = 0, pretend = 0, frame = 0
 157              		@ frame_needed = 0, uses_anonymous_args = 0
 158 0000 00B5     		push	{lr}
 159              	.LCFI4:
 160              		.cfi_def_cfa_offset 4
 161              		.cfi_offset 14, -4
 162              		.loc 1 84 0
 163 0002 40F20003 		movw	r3, #:lower16:wa
 164 0006 C0F20003 		movt	r3, #:upper16:wa
ARM GAS  /tmp/cctvTqe7.s 			page 4


 165              		.loc 1 82 0
 166 000a 83B0     		sub	sp, sp, #12
 167              	.LCFI5:
 168              		.cfi_def_cfa_offset 16
 169              		.loc 1 84 0
 170 000c 1968     		ldr	r1, [r3, #0]
 171 000e 0023     		movs	r3, #0
 172 0010 0093     		str	r3, [sp, #0]
 173 0012 40F20000 		movw	r0, #:lower16:.LANCHOR1
 174 0016 40F20003 		movw	r3, #:lower16:notify
 175 001a C0F20000 		movt	r0, #:upper16:.LANCHOR1
 176 001e 0422     		movs	r2, #4
 177 0020 C0F20003 		movt	r3, #:upper16:notify
 178 0024 FFF7FEFF 		bl	chIQInit
 179              	.LVL8:
 180              		.loc 1 85 0
 181 0028 03B0     		add	sp, sp, #12
 182 002a 00BD     		pop	{pc}
 183              		.cfi_endproc
 184              	.LFE8:
 185              		.size	queues1_setup, .-queues1_setup
 186 002c AFF30080 		.section	.text.queues2_execute,"ax",%progbits
 187              		.align	2
 188              		.p2align 4,,15
 189              		.thumb
 190              		.thumb_func
 191              		.type	queues2_execute, %function
 192              	queues2_execute:
 193              	.LFB13:
 194              		.loc 1 181 0
 195              		.cfi_startproc
 196              		@ args = 0, pretend = 0, frame = 0
 197              		@ frame_needed = 0, uses_anonymous_args = 0
 198 0000 2DE9F041 		push	{r4, r5, r6, r7, r8, lr}
 199              	.LCFI6:
 200              		.cfi_def_cfa_offset 24
 201              		.cfi_offset 4, -24
 202              		.cfi_offset 5, -20
 203              		.cfi_offset 6, -16
 204              		.cfi_offset 7, -12
 205              		.cfi_offset 8, -8
 206              		.cfi_offset 14, -4
 207              	.LBB96:
 208              		.loc 1 186 0
 209 0004 2023     		movs	r3, #32
 210              	.LVL9:
 211              	.LBE96:
 212              		.loc 1 181 0
 213 0006 82B0     		sub	sp, sp, #8
 214              	.LCFI7:
 215              		.cfi_def_cfa_offset 32
 216              	.LBB97:
 217              		.loc 1 186 0
 218              	@ 186 "../../test/testqueues.c" 1
 219 0008 83F31188 		msr     BASEPRI, r3
 220              	@ 0 "" 2
 221              	.LVL10:
ARM GAS  /tmp/cctvTqe7.s 			page 5


 222              		.thumb
 223              	.LBE97:
 224 000c 904B     		ldr	r3, .L31
 225              	.LVL11:
 226 000e 5969     		ldr	r1, [r3, #20]
 227 0010 9A69     		ldr	r2, [r3, #24]
 228 0012 9142     		cmp	r1, r2
 229 0014 63D0     		beq	.L29
 230 0016 0021     		movs	r1, #0
 231              	.L7:
 232              		.loc 1 186 0 is_stmt 0 discriminator 4
 233 0018 0120     		movs	r0, #1
 234 001a FFF7FEFF 		bl	_test_assert
 235              	.LVL12:
 236 001e 0028     		cmp	r0, #0
 237 0020 3AD1     		bne	.L27
 238              	.LBB98:
 239              	.LBB99:
 240              	.LBB100:
 241              		.loc 1 186 0
 242 0022 0346     		mov	r3, r0
 243              	.LVL13:
 244              	@ 186 "../../test/testqueues.c" 1
 245 0024 83F31188 		msr     BASEPRI, r3
 246              	@ 0 "" 2
 247              	.LVL14:
 248              		.thumb
 249 0028 4124     		movs	r4, #65
 250              	.LVL15:
 251              	.L10:
 252              	.LBE100:
 253              		.loc 1 190 0 is_stmt 1
 254 002a 894D     		ldr	r5, .L31
 255 002c 2146     		mov	r1, r4
 256 002e 0134     		adds	r4, r4, #1
 257 0030 2846     		mov	r0, r5
 258 0032 4FF0FF32 		mov	r2, #-1
 259 0036 E4B2     		uxtb	r4, r4
 260 0038 FFF7FEFF 		bl	chOQPutTimeout
 261              	.LVL16:
 262              		.loc 1 189 0
 263 003c 452C     		cmp	r4, #69
 264 003e F4D1     		bne	.L10
 265              	.LBB101:
 266              		.loc 1 191 0
 267 0040 2023     		movs	r3, #32
 268              	.LVL17:
 269              	@ 191 "../../test/testqueues.c" 1
 270 0042 83F31188 		msr     BASEPRI, r3
 271              	@ 0 "" 2
 272              	.LVL18:
 273              		.thumb
 274              	.LBE101:
 275 0046 A968     		ldr	r1, [r5, #8]
 276 0048 0220     		movs	r0, #2
 277 004a D1F10101 		rsbs	r1, r1, #1
 278 004e 38BF     		it	cc
ARM GAS  /tmp/cctvTqe7.s 			page 6


 279 0050 0021     		movcc	r1, #0
 280 0052 FFF7FEFF 		bl	_test_assert
 281              	.LVL19:
 282 0056 F8B9     		cbnz	r0, .L27
 283              	.LBB102:
 284 0058 0346     		mov	r3, r0
 285              	.LVL20:
 286              	@ 191 "../../test/testqueues.c" 1
 287 005a 83F31188 		msr     BASEPRI, r3
 288              	@ 0 "" 2
 289              	.LVL21:
 290              		.thumb
 291 005e 0424     		movs	r4, #4
 292              	.LVL22:
 293              	.L12:
 294              	.LBE102:
 295              	.LBB103:
 296              	.LBB104:
 297              		.loc 1 197 0
 298 0060 2023     		movs	r3, #32
 299              	.LVL23:
 300              	@ 197 "../../test/testqueues.c" 1
 301 0062 83F31188 		msr     BASEPRI, r3
 302              	@ 0 "" 2
 303              	.LVL24:
 304              		.thumb
 305              	.LBE104:
 306              		.loc 1 198 0
 307 0066 7A4D     		ldr	r5, .L31
 308 0068 2846     		mov	r0, r5
 309 006a FFF7FEFF 		bl	chOQGetI
 310              	.LVL25:
 311              	.LBB105:
 312              		.loc 1 199 0
 313 006e 0023     		movs	r3, #0
 314              	.LVL26:
 315              	@ 199 "../../test/testqueues.c" 1
 316 0070 83F31188 		msr     BASEPRI, r3
 317              	@ 0 "" 2
 318              	.LVL27:
 319              		.thumb
 320              	.LBE105:
 321              		.loc 1 200 0
 322 0074 C0B2     		uxtb	r0, r0
 323              	.LVL28:
 324 0076 FFF7FEFF 		bl	test_emit_token
 325              	.LVL29:
 326              	.LBE103:
 327              		.loc 1 194 0
 328 007a 013C     		subs	r4, r4, #1
 329 007c F0D1     		bne	.L12
 330              	.LBB106:
 331              		.loc 1 202 0
 332 007e 2023     		movs	r3, #32
 333              	.LVL30:
 334              	@ 202 "../../test/testqueues.c" 1
 335 0080 83F31188 		msr     BASEPRI, r3
ARM GAS  /tmp/cctvTqe7.s 			page 7


 336              	@ 0 "" 2
 337              	.LVL31:
 338              		.thumb
 339              	.LBE106:
 340 0084 6A69     		ldr	r2, [r5, #20]
 341 0086 AB69     		ldr	r3, [r5, #24]
 342              	.LVL32:
 343 0088 9A42     		cmp	r2, r3
 344 008a 18BF     		it	ne
 345 008c 2146     		movne	r1, r4
 346 008e 2BD0     		beq	.L30
 347              	.L13:
 348 0090 0320     		movs	r0, #3
 349 0092 FFF7FEFF 		bl	_test_assert
 350              	.LVL33:
 351 0096 28B1     		cbz	r0, .L14
 352              	.L27:
 353              	.LBB107:
 354 0098 0023     		movs	r3, #0
 355              	.LVL34:
 356              	@ 202 "../../test/testqueues.c" 1
 357 009a 83F31188 		msr     BASEPRI, r3
 358              	@ 0 "" 2
 359              	.LVL35:
 360              		.thumb
 361              	.L6:
 362              	.LBE107:
 363              	.LBE99:
 364              	.LBE98:
 365              		.loc 1 229 0
 366 009e 02B0     		add	sp, sp, #8
 367 00a0 BDE8F081 		pop	{r4, r5, r6, r7, r8, pc}
 368              	.LVL36:
 369              	.L14:
 370              	.LBB129:
 371              	.LBB126:
 372              	.LBB108:
 373              		.loc 1 202 0
 374 00a4 0346     		mov	r3, r0
 375              	.LVL37:
 376              	@ 202 "../../test/testqueues.c" 1
 377 00a6 83F31188 		msr     BASEPRI, r3
 378              	@ 0 "" 2
 379              	.LVL38:
 380              		.thumb
 381              	.LBE108:
 382              		.loc 1 203 0
 383 00aa 0420     		movs	r0, #4
 384 00ac 6949     		ldr	r1, .L31+4
 385 00ae FFF7FEFF 		bl	_test_assert_sequence
 386              	.LVL39:
 387 00b2 0446     		mov	r4, r0
 388 00b4 0028     		cmp	r0, #0
 389 00b6 F2D1     		bne	.L6
 390              	.LBB109:
 391              		.loc 1 204 0
 392 00b8 2023     		movs	r3, #32
ARM GAS  /tmp/cctvTqe7.s 			page 8


 393              	.LVL40:
 394              	@ 204 "../../test/testqueues.c" 1
 395 00ba 83F31188 		msr     BASEPRI, r3
 396              	@ 0 "" 2
 397              	.LVL41:
 398              		.thumb
 399              	.LBE109:
 400 00be 644D     		ldr	r5, .L31
 401 00c0 2846     		mov	r0, r5
 402 00c2 FFF7FEFF 		bl	chOQGetI
 403              	.LVL42:
 404 00c6 0330     		adds	r0, r0, #3
 405 00c8 14BF     		ite	ne
 406 00ca 0021     		movne	r1, #0
 407 00cc 0121     		moveq	r1, #1
 408 00ce 0520     		movs	r0, #5
 409 00d0 FFF7FEFF 		bl	_test_assert
 410              	.LVL43:
 411 00d4 68B1     		cbz	r0, .L16
 412              	.LBB110:
 413 00d6 2346     		mov	r3, r4
 414              	@ 204 "../../test/testqueues.c" 1
 415 00d8 83F31188 		msr     BASEPRI, r3
 416              	@ 0 "" 2
 417              	.LVL44:
 418              		.thumb
 419 00dc DFE7     		b	.L6
 420              	.LVL45:
 421              	.L29:
 422              	.LBE110:
 423              	.LBE126:
 424              	.LBE129:
 425              		.loc 1 186 0 discriminator 1
 426 00de 9968     		ldr	r1, [r3, #8]
 427 00e0 0031     		adds	r1, r1, #0
 428 00e2 18BF     		it	ne
 429 00e4 0121     		movne	r1, #1
 430 00e6 97E7     		b	.L7
 431              	.L30:
 432              	.LBB130:
 433              	.LBB127:
 434              		.loc 1 202 0
 435 00e8 A968     		ldr	r1, [r5, #8]
 436 00ea 0031     		adds	r1, r1, #0
 437 00ec 18BF     		it	ne
 438 00ee 0121     		movne	r1, #1
 439 00f0 CEE7     		b	.L13
 440              	.L16:
 441              	.LBB111:
 442              		.loc 1 204 0
 443 00f2 0346     		mov	r3, r0
 444              	.LVL46:
 445              	@ 204 "../../test/testqueues.c" 1
 446 00f4 83F31188 		msr     BASEPRI, r3
 447              	@ 0 "" 2
 448              	.LVL47:
 449              		.thumb
ARM GAS  /tmp/cctvTqe7.s 			page 9


 450              	.LBE111:
 451              		.loc 1 207 0
 452 00f8 574E     		ldr	r6, .L31+8
 453 00fa 7468     		ldr	r4, [r6, #4]
 454 00fc 0822     		movs	r2, #8
 455 00fe 2146     		mov	r1, r4
 456 0100 2846     		mov	r0, r5
 457 0102 FFF7FEFF 		bl	chOQWriteTimeout
 458              	.LVL48:
 459              		.loc 1 208 0
 460 0106 031F     		subs	r3, r0, #4
 461 0108 5942     		rsbs	r1, r3, #0
 462 010a 5941     		adcs	r1, r1, r3
 463 010c 0620     		movs	r0, #6
 464              	.LVL49:
 465 010e FFF7FEFF 		bl	_test_assert
 466              	.LVL50:
 467 0112 0746     		mov	r7, r0
 468 0114 0028     		cmp	r0, #0
 469 0116 C2D1     		bne	.L6
 470              	.LBB112:
 471              		.loc 1 209 0
 472 0118 2023     		movs	r3, #32
 473              	.LVL51:
 474              	@ 209 "../../test/testqueues.c" 1
 475 011a 83F31188 		msr     BASEPRI, r3
 476              	@ 0 "" 2
 477              	.LVL52:
 478              		.thumb
 479              	.LBE112:
 480 011e A968     		ldr	r1, [r5, #8]
 481 0120 0720     		movs	r0, #7
 482 0122 D1F10101 		rsbs	r1, r1, #1
 483 0126 38BF     		it	cc
 484 0128 0021     		movcc	r1, #0
 485 012a FFF7FEFF 		bl	_test_assert
 486              	.LVL53:
 487 012e 8046     		mov	r8, r0
 488 0130 18B1     		cbz	r0, .L18
 489              	.LBB113:
 490 0132 3B46     		mov	r3, r7
 491              	@ 209 "../../test/testqueues.c" 1
 492 0134 83F31188 		msr     BASEPRI, r3
 493              	@ 0 "" 2
 494              	.LVL54:
 495              		.thumb
 496 0138 B1E7     		b	.L6
 497              	.LVL55:
 498              	.L18:
 499              	.LBE113:
 500              	.LBB114:
 501 013a 0346     		mov	r3, r0
 502              	.LVL56:
 503              	@ 209 "../../test/testqueues.c" 1
 504 013c 83F31188 		msr     BASEPRI, r3
 505              	@ 0 "" 2
 506              	.LVL57:
ARM GAS  /tmp/cctvTqe7.s 			page 10


 507              		.thumb
 508              	.LBE114:
 509              		.loc 1 210 0
 510 0140 464B     		ldr	r3, .L31+12
 511              	.LVL58:
 512 0142 3068     		ldr	r0, [r6, #0]
 513 0144 9A69     		ldr	r2, [r3, #24]
 514 0146 464B     		ldr	r3, .L31+16
 515 0148 9268     		ldr	r2, [r2, #8]
 516 014a CDF80080 		str	r8, [sp, #0]
 517 014e 0132     		adds	r2, r2, #1
 518 0150 4FF49871 		mov	r1, #304
 519 0154 FFF7FEFF 		bl	chThdCreateStatic
 520              	.LVL59:
 521 0158 424A     		ldr	r2, .L31+20
 522              	.LBB115:
 523              		.loc 1 211 0
 524 015a 2023     		movs	r3, #32
 525              	.LVL60:
 526              	.LBE115:
 527              		.loc 1 210 0
 528 015c 1060     		str	r0, [r2, #0]
 529              	.LBB116:
 530              		.loc 1 211 0
 531              	@ 211 "../../test/testqueues.c" 1
 532 015e 83F31188 		msr     BASEPRI, r3
 533              	@ 0 "" 2
 534              	.LVL61:
 535              		.thumb
 536              	.LBE116:
 537 0162 2969     		ldr	r1, [r5, #16]
 538 0164 EA68     		ldr	r2, [r5, #12]
 539 0166 AB68     		ldr	r3, [r5, #8]
 540              	.LVL62:
 541 0168 8A1A     		subs	r2, r1, r2
 542 016a D11A     		subs	r1, r2, r3
 543 016c 0820     		movs	r0, #8
 544 016e B1F1040C 		subs	ip, r1, #4
 545 0172 DCF10001 		rsbs	r1, ip, #0
 546 0176 51EB0C01 		adcs	r1, r1, ip
 547 017a FFF7FEFF 		bl	_test_assert
 548              	.LVL63:
 549 017e 0646     		mov	r6, r0
 550 0180 18B1     		cbz	r0, .L19
 551              	.LBB117:
 552 0182 4346     		mov	r3, r8
 553              	@ 211 "../../test/testqueues.c" 1
 554 0184 83F31188 		msr     BASEPRI, r3
 555              	@ 0 "" 2
 556              	.LVL64:
 557              		.thumb
 558 0188 89E7     		b	.L6
 559              	.LVL65:
 560              	.L19:
 561              	.LBE117:
 562              	.LBB118:
 563 018a 0346     		mov	r3, r0
ARM GAS  /tmp/cctvTqe7.s 			page 11


 564              	.LVL66:
 565              	@ 211 "../../test/testqueues.c" 1
 566 018c 83F31188 		msr     BASEPRI, r3
 567              	@ 0 "" 2
 568              	.LVL67:
 569              		.thumb
 570              	.LBE118:
 571              		.loc 1 212 0
 572 0190 FFF7FEFF 		bl	test_wait_threads
 573              	.LVL68:
 574              	.LBB119:
 575              		.loc 1 215 0
 576 0194 2023     		movs	r3, #32
 577              	.LVL69:
 578              	@ 215 "../../test/testqueues.c" 1
 579 0196 83F31188 		msr     BASEPRI, r3
 580              	@ 0 "" 2
 581              	.LVL70:
 582              		.thumb
 583              	.LBE119:
 584              		.loc 1 216 0
 585 019a 2846     		mov	r0, r5
 586 019c FFF7FEFF 		bl	chOQResetI
 587              	.LVL71:
 588              	.LBB120:
 589              		.loc 1 217 0
 590 01a0 3346     		mov	r3, r6
 591              	.LVL72:
 592              	@ 217 "../../test/testqueues.c" 1
 593 01a2 83F31188 		msr     BASEPRI, r3
 594              	@ 0 "" 2
 595              	.LVL73:
 596              		.thumb
 597              	.LBE120:
 598              	.LBB121:
 599              		.loc 1 218 0
 600 01a6 2023     		movs	r3, #32
 601              	.LVL74:
 602              	@ 218 "../../test/testqueues.c" 1
 603 01a8 83F31188 		msr     BASEPRI, r3
 604              	@ 0 "" 2
 605              	.LVL75:
 606              		.thumb
 607              	.LBE121:
 608 01ac 2969     		ldr	r1, [r5, #16]
 609 01ae EA68     		ldr	r2, [r5, #12]
 610 01b0 AB68     		ldr	r3, [r5, #8]
 611              	.LVL76:
 612 01b2 891A     		subs	r1, r1, r2
 613 01b4 0920     		movs	r0, #9
 614 01b6 B1EB030E 		subs	lr, r1, r3
 615 01ba DEF10001 		rsbs	r1, lr, #0
 616 01be 51EB0E01 		adcs	r1, r1, lr
 617 01c2 FFF7FEFF 		bl	_test_assert
 618              	.LVL77:
 619 01c6 0346     		mov	r3, r0
 620 01c8 18B1     		cbz	r0, .L20
ARM GAS  /tmp/cctvTqe7.s 			page 12


 621              	.LBB122:
 622 01ca 3346     		mov	r3, r6
 623              	@ 218 "../../test/testqueues.c" 1
 624 01cc 83F31188 		msr     BASEPRI, r3
 625              	@ 0 "" 2
 626              	.LVL78:
 627              		.thumb
 628 01d0 65E7     		b	.L6
 629              	.LVL79:
 630              	.L20:
 631              	.LBE122:
 632              	.LBB123:
 633              	@ 218 "../../test/testqueues.c" 1
 634 01d2 83F31188 		msr     BASEPRI, r3
 635              	@ 0 "" 2
 636              	.LVL80:
 637              		.thumb
 638              	.LBE123:
 639              		.loc 1 221 0
 640 01d6 0222     		movs	r2, #2
 641 01d8 2146     		mov	r1, r4
 642 01da 2846     		mov	r0, r5
 643 01dc FFF7FEFF 		bl	chOQWriteTimeout
 644              	.LVL81:
 645              		.loc 1 222 0
 646 01e0 0238     		subs	r0, r0, #2
 647              	.LVL82:
 648 01e2 4142     		rsbs	r1, r0, #0
 649 01e4 4141     		adcs	r1, r1, r0
 650 01e6 0A20     		movs	r0, #10
 651              	.LVL83:
 652 01e8 FFF7FEFF 		bl	_test_assert
 653              	.LVL84:
 654 01ec 0346     		mov	r3, r0
 655 01ee 0028     		cmp	r0, #0
 656 01f0 7FF455AF 		bne	.L6
 657              		.loc 1 223 0
 658 01f4 2146     		mov	r1, r4
 659 01f6 0222     		movs	r2, #2
 660 01f8 2846     		mov	r0, r5
 661 01fa FFF7FEFF 		bl	chOQWriteTimeout
 662              	.LVL85:
 663              		.loc 1 224 0
 664 01fe 821E     		subs	r2, r0, #2
 665 0200 5142     		rsbs	r1, r2, #0
 666 0202 5141     		adcs	r1, r1, r2
 667 0204 0B20     		movs	r0, #11
 668              	.LVL86:
 669 0206 FFF7FEFF 		bl	_test_assert
 670              	.LVL87:
 671 020a 0028     		cmp	r0, #0
 672 020c 7FF447AF 		bne	.L6
 673              	.LBB124:
 674              		.loc 1 225 0
 675 0210 2023     		movs	r3, #32
 676              	.LVL88:
 677              	@ 225 "../../test/testqueues.c" 1
ARM GAS  /tmp/cctvTqe7.s 			page 13


 678 0212 83F31188 		msr     BASEPRI, r3
 679              	@ 0 "" 2
 680              	.LVL89:
 681              		.thumb
 682              	.LBE124:
 683 0216 A968     		ldr	r1, [r5, #8]
 684 0218 0C20     		movs	r0, #12
 685 021a D1F10101 		rsbs	r1, r1, #1
 686 021e 38BF     		it	cc
 687 0220 0021     		movcc	r1, #0
 688 0222 FFF7FEFF 		bl	_test_assert
 689              	.LVL90:
 690              	.LBB125:
 691 0226 0023     		movs	r3, #0
 692              	@ 225 "../../test/testqueues.c" 1
 693 0228 83F31188 		msr     BASEPRI, r3
 694              	@ 0 "" 2
 695              	.LVL91:
 696              		.thumb
 697              	.LBE125:
 698 022c 0028     		cmp	r0, #0
 699 022e 7FF436AF 		bne	.L6
 700              		.loc 1 228 0
 701 0232 1946     		mov	r1, r3
 702              	.LVL92:
 703 0234 0A22     		movs	r2, #10
 704 0236 0648     		ldr	r0, .L31
 705 0238 FFF7FEFF 		bl	chOQPutTimeout
 706              	.LVL93:
 707 023c B0F1FF33 		subs	r3, r0, #-1
 708 0240 5942     		rsbs	r1, r3, #0
 709 0242 5941     		adcs	r1, r1, r3
 710 0244 0D20     		movs	r0, #13
 711              	.LBE127:
 712              	.LBE130:
 713              		.loc 1 229 0
 714 0246 02B0     		add	sp, sp, #8
 715 0248 BDE8F041 		pop	{r4, r5, r6, r7, r8, lr}
 716              	.LBB131:
 717              	.LBB128:
 718              		.loc 1 228 0
 719 024c FFF7FEBF 		b	_test_assert
 720              	.LVL94:
 721              	.L32:
 722              		.align	2
 723              	.L31:
 724 0250 00000000 		.word	.LANCHOR0
 725 0254 00000000 		.word	.LC0
 726 0258 00000000 		.word	wa
 727 025c 00000000 		.word	rlist
 728 0260 00000000 		.word	thread2
 729 0264 00000000 		.word	threads
 730              	.LBE128:
 731              	.LBE131:
 732              		.cfi_endproc
 733              	.LFE13:
 734              		.size	queues2_execute, .-queues2_execute
ARM GAS  /tmp/cctvTqe7.s 			page 14


 735 0268 AFF30080 		.section	.text.queues1_execute,"ax",%progbits
 735      AFF30080 
 736              		.align	2
 737              		.p2align 4,,15
 738              		.thumb
 739              		.thumb_func
 740              		.type	queues1_execute, %function
 741              	queues1_execute:
 742              	.LFB10:
 743              		.loc 1 94 0
 744              		.cfi_startproc
 745              		@ args = 0, pretend = 0, frame = 0
 746              		@ frame_needed = 0, uses_anonymous_args = 0
 747 0000 F0B5     		push	{r4, r5, r6, r7, lr}
 748              	.LCFI8:
 749              		.cfi_def_cfa_offset 20
 750              		.cfi_offset 4, -20
 751              		.cfi_offset 5, -16
 752              		.cfi_offset 6, -12
 753              		.cfi_offset 7, -8
 754              		.cfi_offset 14, -4
 755              	.LBB168:
 756              		.loc 1 99 0
 757 0002 2023     		movs	r3, #32
 758              	.LVL95:
 759              	.LBE168:
 760              		.loc 1 94 0
 761 0004 83B0     		sub	sp, sp, #12
 762              	.LCFI9:
 763              		.cfi_def_cfa_offset 32
 764              	.LBB169:
 765              		.loc 1 99 0
 766              	@ 99 "../../test/testqueues.c" 1
 767 0006 83F31188 		msr     BASEPRI, r3
 768              	@ 0 "" 2
 769              	.LVL96:
 770              		.thumb
 771              	.LBE169:
 772 000a A24C     		ldr	r4, .L52
 773 000c A168     		ldr	r1, [r4, #8]
 774 000e 0120     		movs	r0, #1
 775 0010 D1F10101 		rsbs	r1, r1, #1
 776 0014 38BF     		it	cc
 777 0016 0021     		movcc	r1, #0
 778 0018 FFF7FEFF 		bl	_test_assert
 779              	.LVL97:
 780 001c 0546     		mov	r5, r0
 781 001e 38BB     		cbnz	r0, .L49
 782              	.LBB170:
 783              	.LBB171:
 784              	.LBB172:
 785 0020 0346     		mov	r3, r0
 786              	.LVL98:
 787              	@ 99 "../../test/testqueues.c" 1
 788 0022 83F31188 		msr     BASEPRI, r3
 789              	@ 0 "" 2
 790              	.LVL99:
ARM GAS  /tmp/cctvTqe7.s 			page 15


 791              		.thumb
 792              	.LBE172:
 793              	.LBB173:
 794              		.loc 1 102 0
 795 0026 2023     		movs	r3, #32
 796              	.LVL100:
 797              	@ 102 "../../test/testqueues.c" 1
 798 0028 83F31188 		msr     BASEPRI, r3
 799              	@ 0 "" 2
 800              	.LVL101:
 801              		.thumb
 802              	.LBE173:
 803              		.loc 1 104 0
 804 002c 4121     		movs	r1, #65
 805 002e 2046     		mov	r0, r4
 806 0030 FFF7FEFF 		bl	chIQPutI
 807              	.LVL102:
 808 0034 4221     		movs	r1, #66
 809 0036 2046     		mov	r0, r4
 810 0038 FFF7FEFF 		bl	chIQPutI
 811              	.LVL103:
 812 003c 4321     		movs	r1, #67
 813 003e 2046     		mov	r0, r4
 814 0040 FFF7FEFF 		bl	chIQPutI
 815              	.LVL104:
 816 0044 2046     		mov	r0, r4
 817 0046 4421     		movs	r1, #68
 818 0048 FFF7FEFF 		bl	chIQPutI
 819              	.LVL105:
 820              	.LBB174:
 821              		.loc 1 105 0
 822 004c 2B46     		mov	r3, r5
 823              	.LVL106:
 824              	@ 105 "../../test/testqueues.c" 1
 825 004e 83F31188 		msr     BASEPRI, r3
 826              	@ 0 "" 2
 827              	.LVL107:
 828              		.thumb
 829              	.LBE174:
 830              	.LBB175:
 831              		.loc 1 106 0
 832 0052 2023     		movs	r3, #32
 833              	.LVL108:
 834              	@ 106 "../../test/testqueues.c" 1
 835 0054 83F31188 		msr     BASEPRI, r3
 836              	@ 0 "" 2
 837              	.LVL109:
 838              		.thumb
 839              	.LBE175:
 840 0058 6269     		ldr	r2, [r4, #20]
 841 005a A369     		ldr	r3, [r4, #24]
 842              	.LVL110:
 843 005c 9A42     		cmp	r2, r3
 844 005e 18BF     		it	ne
 845 0060 2946     		movne	r1, r5
 846 0062 00F01281 		beq	.L50
 847              	.L36:
ARM GAS  /tmp/cctvTqe7.s 			page 16


 848 0066 0220     		movs	r0, #2
 849 0068 FFF7FEFF 		bl	_test_assert
 850              	.LVL111:
 851 006c 0446     		mov	r4, r0
 852 006e 20B1     		cbz	r0, .L37
 853              	.LVL112:
 854              	.L49:
 855              	.LBB176:
 856 0070 0023     		movs	r3, #0
 857              	.LVL113:
 858              	@ 106 "../../test/testqueues.c" 1
 859 0072 83F31188 		msr     BASEPRI, r3
 860              	@ 0 "" 2
 861              	.LVL114:
 862              		.thumb
 863              	.L33:
 864              	.LBE176:
 865              	.LBE171:
 866              	.LBE170:
 867              		.loc 1 151 0
 868 0076 03B0     		add	sp, sp, #12
 869 0078 F0BD     		pop	{r4, r5, r6, r7, pc}
 870              	.LVL115:
 871              	.L37:
 872              	.LBB200:
 873              	.LBB198:
 874              	.LBB177:
 875              		.loc 1 106 0
 876 007a 0346     		mov	r3, r0
 877              	.LVL116:
 878              	@ 106 "../../test/testqueues.c" 1
 879 007c 83F31188 		msr     BASEPRI, r3
 880              	@ 0 "" 2
 881              	.LVL117:
 882              		.thumb
 883              	.LBE177:
 884              	.LBB178:
 885              		.loc 1 107 0
 886 0080 2023     		movs	r3, #32
 887              	.LVL118:
 888              	@ 107 "../../test/testqueues.c" 1
 889 0082 83F31188 		msr     BASEPRI, r3
 890              	@ 0 "" 2
 891              	.LVL119:
 892              		.thumb
 893              	.LBE178:
 894 0086 8348     		ldr	r0, .L52
 895 0088 2146     		mov	r1, r4
 896 008a FFF7FEFF 		bl	chIQPutI
 897              	.LVL120:
 898 008e 0430     		adds	r0, r0, #4
 899 0090 14BF     		ite	ne
 900 0092 0021     		movne	r1, #0
 901 0094 0121     		moveq	r1, #1
 902 0096 0320     		movs	r0, #3
 903 0098 FFF7FEFF 		bl	_test_assert
 904              	.LVL121:
ARM GAS  /tmp/cctvTqe7.s 			page 17


 905 009c 0028     		cmp	r0, #0
 906 009e 40F0F080 		bne	.L51
 907              	.LBB179:
 908 00a2 0346     		mov	r3, r0
 909              	.LVL122:
 910              	@ 107 "../../test/testqueues.c" 1
 911 00a4 83F31188 		msr     BASEPRI, r3
 912              	@ 0 "" 2
 913              	.LVL123:
 914              		.thumb
 915 00a8 0424     		movs	r4, #4
 916              	.LVL124:
 917              	.L39:
 918              	.LBE179:
 919              		.loc 1 111 0
 920 00aa 7A4D     		ldr	r5, .L52
 921 00ac 4FF0FF31 		mov	r1, #-1
 922 00b0 2846     		mov	r0, r5
 923 00b2 FFF7FEFF 		bl	chIQGetTimeout
 924              	.LVL125:
 925 00b6 C0B2     		uxtb	r0, r0
 926 00b8 FFF7FEFF 		bl	test_emit_token
 927              	.LVL126:
 928              		.loc 1 110 0
 929 00bc 013C     		subs	r4, r4, #1
 930 00be F4D1     		bne	.L39
 931              	.LBB180:
 932              		.loc 1 112 0
 933 00c0 2023     		movs	r3, #32
 934              	.LVL127:
 935              	@ 112 "../../test/testqueues.c" 1
 936 00c2 83F31188 		msr     BASEPRI, r3
 937              	@ 0 "" 2
 938              	.LVL128:
 939              		.thumb
 940              	.LBE180:
 941 00c6 A968     		ldr	r1, [r5, #8]
 942 00c8 0420     		movs	r0, #4
 943 00ca D1F10101 		rsbs	r1, r1, #1
 944 00ce 38BF     		it	cc
 945 00d0 0021     		movcc	r1, #0
 946 00d2 FFF7FEFF 		bl	_test_assert
 947              	.LVL129:
 948              	.LBB181:
 949 00d6 2346     		mov	r3, r4
 950              	@ 112 "../../test/testqueues.c" 1
 951 00d8 83F31188 		msr     BASEPRI, r3
 952              	@ 0 "" 2
 953              	.LVL130:
 954              		.thumb
 955              	.LBE181:
 956 00dc 0028     		cmp	r0, #0
 957 00de CAD1     		bne	.L33
 958              		.loc 1 113 0
 959 00e0 0520     		movs	r0, #5
 960 00e2 6D49     		ldr	r1, .L52+4
 961 00e4 FFF7FEFF 		bl	_test_assert_sequence
ARM GAS  /tmp/cctvTqe7.s 			page 18


 962              	.LVL131:
 963 00e8 0028     		cmp	r0, #0
 964 00ea C4D1     		bne	.L33
 965              	.LBB182:
 966              		.loc 1 116 0
 967 00ec 2023     		movs	r3, #32
 968              	.LVL132:
 969              	@ 116 "../../test/testqueues.c" 1
 970 00ee 83F31188 		msr     BASEPRI, r3
 971              	@ 0 "" 2
 972              	.LVL133:
 973              		.thumb
 974              	.LBE182:
 975              		.loc 1 118 0
 976 00f2 4121     		movs	r1, #65
 977 00f4 2846     		mov	r0, r5
 978 00f6 FFF7FEFF 		bl	chIQPutI
 979              	.LVL134:
 980 00fa 4221     		movs	r1, #66
 981 00fc 2846     		mov	r0, r5
 982 00fe FFF7FEFF 		bl	chIQPutI
 983              	.LVL135:
 984 0102 4321     		movs	r1, #67
 985 0104 2846     		mov	r0, r5
 986 0106 FFF7FEFF 		bl	chIQPutI
 987              	.LVL136:
 988 010a 2846     		mov	r0, r5
 989 010c 4421     		movs	r1, #68
 990 010e FFF7FEFF 		bl	chIQPutI
 991              	.LVL137:
 992              	.LBB183:
 993              		.loc 1 119 0
 994 0112 2346     		mov	r3, r4
 995              	.LVL138:
 996              	@ 119 "../../test/testqueues.c" 1
 997 0114 83F31188 		msr     BASEPRI, r3
 998              	@ 0 "" 2
 999              	.LVL139:
 1000              		.thumb
 1001              	.LBE183:
 1002              		.loc 1 122 0
 1003 0118 604F     		ldr	r7, .L52+8
 1004 011a 7E68     		ldr	r6, [r7, #4]
 1005 011c 0822     		movs	r2, #8
 1006 011e 3146     		mov	r1, r6
 1007 0120 2846     		mov	r0, r5
 1008 0122 FFF7FEFF 		bl	chIQReadTimeout
 1009              	.LVL140:
 1010              		.loc 1 123 0
 1011 0126 B0F1040C 		subs	ip, r0, #4
 1012 012a DCF10001 		rsbs	r1, ip, #0
 1013 012e 51EB0C01 		adcs	r1, r1, ip
 1014 0132 0620     		movs	r0, #6
 1015              	.LVL141:
 1016 0134 FFF7FEFF 		bl	_test_assert
 1017              	.LVL142:
 1018 0138 0028     		cmp	r0, #0
ARM GAS  /tmp/cctvTqe7.s 			page 19


 1019 013a 9CD1     		bne	.L33
 1020              	.LBB184:
 1021              		.loc 1 124 0
 1022 013c 2023     		movs	r3, #32
 1023              	.LVL143:
 1024              	@ 124 "../../test/testqueues.c" 1
 1025 013e 83F31188 		msr     BASEPRI, r3
 1026              	@ 0 "" 2
 1027              	.LVL144:
 1028              		.thumb
 1029              	.LBE184:
 1030 0142 A968     		ldr	r1, [r5, #8]
 1031 0144 0720     		movs	r0, #7
 1032 0146 D1F10101 		rsbs	r1, r1, #1
 1033 014a 38BF     		it	cc
 1034 014c 0021     		movcc	r1, #0
 1035 014e FFF7FEFF 		bl	_test_assert
 1036              	.LVL145:
 1037              	.LBB185:
 1038 0152 2346     		mov	r3, r4
 1039              	@ 124 "../../test/testqueues.c" 1
 1040 0154 83F31188 		msr     BASEPRI, r3
 1041              	@ 0 "" 2
 1042              	.LVL146:
 1043              		.thumb
 1044              	.LBE185:
 1045 0158 0028     		cmp	r0, #0
 1046 015a 8CD1     		bne	.L33
 1047              	.LBB186:
 1048              		.loc 1 127 0
 1049 015c 2023     		movs	r3, #32
 1050              	.LVL147:
 1051              	@ 127 "../../test/testqueues.c" 1
 1052 015e 83F31188 		msr     BASEPRI, r3
 1053              	@ 0 "" 2
 1054              	.LVL148:
 1055              		.thumb
 1056              	.LBE186:
 1057              		.loc 1 129 0
 1058 0162 4121     		movs	r1, #65
 1059 0164 2846     		mov	r0, r5
 1060 0166 FFF7FEFF 		bl	chIQPutI
 1061              	.LVL149:
 1062 016a 4221     		movs	r1, #66
 1063 016c 2846     		mov	r0, r5
 1064 016e FFF7FEFF 		bl	chIQPutI
 1065              	.LVL150:
 1066 0172 4321     		movs	r1, #67
 1067 0174 2846     		mov	r0, r5
 1068 0176 FFF7FEFF 		bl	chIQPutI
 1069              	.LVL151:
 1070 017a 2846     		mov	r0, r5
 1071 017c 4421     		movs	r1, #68
 1072 017e FFF7FEFF 		bl	chIQPutI
 1073              	.LVL152:
 1074              	.LBB187:
 1075              		.loc 1 130 0
ARM GAS  /tmp/cctvTqe7.s 			page 20


 1076 0182 2346     		mov	r3, r4
 1077              	.LVL153:
 1078              	@ 130 "../../test/testqueues.c" 1
 1079 0184 83F31188 		msr     BASEPRI, r3
 1080              	@ 0 "" 2
 1081              	.LVL154:
 1082              		.thumb
 1083              	.LBE187:
 1084              		.loc 1 133 0
 1085 0188 0222     		movs	r2, #2
 1086 018a 3146     		mov	r1, r6
 1087 018c 2846     		mov	r0, r5
 1088 018e FFF7FEFF 		bl	chIQReadTimeout
 1089              	.LVL155:
 1090              		.loc 1 134 0
 1091 0192 B0F1020E 		subs	lr, r0, #2
 1092 0196 DEF10001 		rsbs	r1, lr, #0
 1093 019a 51EB0E01 		adcs	r1, r1, lr
 1094 019e 0820     		movs	r0, #8
 1095              	.LVL156:
 1096 01a0 FFF7FEFF 		bl	_test_assert
 1097              	.LVL157:
 1098 01a4 0028     		cmp	r0, #0
 1099 01a6 7FF466AF 		bne	.L33
 1100              		.loc 1 135 0
 1101 01aa 3146     		mov	r1, r6
 1102 01ac 0222     		movs	r2, #2
 1103 01ae 2846     		mov	r0, r5
 1104 01b0 2346     		mov	r3, r4
 1105 01b2 FFF7FEFF 		bl	chIQReadTimeout
 1106              	.LVL158:
 1107              		.loc 1 136 0
 1108 01b6 0238     		subs	r0, r0, #2
 1109              	.LVL159:
 1110 01b8 4142     		rsbs	r1, r0, #0
 1111 01ba 4141     		adcs	r1, r1, r0
 1112 01bc 0920     		movs	r0, #9
 1113              	.LVL160:
 1114 01be FFF7FEFF 		bl	_test_assert
 1115              	.LVL161:
 1116 01c2 0028     		cmp	r0, #0
 1117 01c4 7FF457AF 		bne	.L33
 1118              	.LBB188:
 1119              		.loc 1 137 0
 1120 01c8 2023     		movs	r3, #32
 1121              	.LVL162:
 1122              	@ 137 "../../test/testqueues.c" 1
 1123 01ca 83F31188 		msr     BASEPRI, r3
 1124              	@ 0 "" 2
 1125              	.LVL163:
 1126              		.thumb
 1127              	.LBE188:
 1128 01ce A968     		ldr	r1, [r5, #8]
 1129 01d0 0A20     		movs	r0, #10
 1130 01d2 D1F10101 		rsbs	r1, r1, #1
 1131 01d6 38BF     		it	cc
 1132 01d8 0021     		movcc	r1, #0
ARM GAS  /tmp/cctvTqe7.s 			page 21


 1133 01da FFF7FEFF 		bl	_test_assert
 1134              	.LVL164:
 1135              	.LBB189:
 1136 01de 2346     		mov	r3, r4
 1137              	@ 137 "../../test/testqueues.c" 1
 1138 01e0 83F31188 		msr     BASEPRI, r3
 1139              	@ 0 "" 2
 1140              	.LVL165:
 1141              		.thumb
 1142              	.LBE189:
 1143 01e4 0028     		cmp	r0, #0
 1144 01e6 7FF446AF 		bne	.L33
 1145              	.LBB190:
 1146              		.loc 1 140 0
 1147 01ea 2023     		movs	r3, #32
 1148              	.LVL166:
 1149              	@ 140 "../../test/testqueues.c" 1
 1150 01ec 83F31188 		msr     BASEPRI, r3
 1151              	@ 0 "" 2
 1152              	.LVL167:
 1153              		.thumb
 1154              	.LBE190:
 1155              		.loc 1 141 0
 1156 01f0 2146     		mov	r1, r4
 1157 01f2 2846     		mov	r0, r5
 1158 01f4 FFF7FEFF 		bl	chIQPutI
 1159              	.LVL168:
 1160              		.loc 1 142 0
 1161 01f8 2846     		mov	r0, r5
 1162 01fa FFF7FEFF 		bl	chIQResetI
 1163              	.LVL169:
 1164              	.LBB191:
 1165              		.loc 1 143 0
 1166 01fe 2346     		mov	r3, r4
 1167              	.LVL170:
 1168              	@ 143 "../../test/testqueues.c" 1
 1169 0200 83F31188 		msr     BASEPRI, r3
 1170              	@ 0 "" 2
 1171              	.LVL171:
 1172              		.thumb
 1173              	.LBE191:
 1174              	.LBB192:
 1175              		.loc 1 144 0
 1176 0204 2023     		movs	r3, #32
 1177              	.LVL172:
 1178              	@ 144 "../../test/testqueues.c" 1
 1179 0206 83F31188 		msr     BASEPRI, r3
 1180              	@ 0 "" 2
 1181              	.LVL173:
 1182              		.thumb
 1183              	.LBE192:
 1184 020a A968     		ldr	r1, [r5, #8]
 1185 020c 0B20     		movs	r0, #11
 1186 020e D1F10101 		rsbs	r1, r1, #1
 1187 0212 38BF     		it	cc
 1188 0214 0021     		movcc	r1, #0
 1189 0216 FFF7FEFF 		bl	_test_assert
ARM GAS  /tmp/cctvTqe7.s 			page 22


 1190              	.LVL174:
 1191              	.LBB193:
 1192 021a 2346     		mov	r3, r4
 1193              	@ 144 "../../test/testqueues.c" 1
 1194 021c 83F31188 		msr     BASEPRI, r3
 1195              	@ 0 "" 2
 1196              	.LVL175:
 1197              		.thumb
 1198              	.LBE193:
 1199 0220 0028     		cmp	r0, #0
 1200 0222 7FF428AF 		bne	.L33
 1201              		.loc 1 145 0
 1202 0226 1E4A     		ldr	r2, .L52+12
 1203 0228 3868     		ldr	r0, [r7, #0]
 1204 022a 9269     		ldr	r2, [r2, #24]
 1205 022c 1D4B     		ldr	r3, .L52+16
 1206              	.LVL176:
 1207 022e 9268     		ldr	r2, [r2, #8]
 1208 0230 0094     		str	r4, [sp, #0]
 1209              	.LVL177:
 1210 0232 0132     		adds	r2, r2, #1
 1211 0234 4FF49871 		mov	r1, #304
 1212 0238 FFF7FEFF 		bl	chThdCreateStatic
 1213              	.LVL178:
 1214 023c 1A4A     		ldr	r2, .L52+20
 1215              	.LBB194:
 1216              		.loc 1 146 0
 1217 023e 2023     		movs	r3, #32
 1218              	.LVL179:
 1219              	.LBE194:
 1220              		.loc 1 145 0
 1221 0240 1060     		str	r0, [r2, #0]
 1222              	.LBB195:
 1223              		.loc 1 146 0
 1224              	@ 146 "../../test/testqueues.c" 1
 1225 0242 83F31188 		msr     BASEPRI, r3
 1226              	@ 0 "" 2
 1227              	.LVL180:
 1228              		.thumb
 1229              	.LBE195:
 1230 0246 A968     		ldr	r1, [r5, #8]
 1231 0248 0C20     		movs	r0, #12
 1232 024a D1F10101 		rsbs	r1, r1, #1
 1233 024e 38BF     		it	cc
 1234 0250 0021     		movcc	r1, #0
 1235 0252 FFF7FEFF 		bl	_test_assert
 1236              	.LVL181:
 1237              	.LBB196:
 1238 0256 0023     		movs	r3, #0
 1239              	@ 146 "../../test/testqueues.c" 1
 1240 0258 83F31188 		msr     BASEPRI, r3
 1241              	@ 0 "" 2
 1242              	.LVL182:
 1243              		.thumb
 1244              	.LBE196:
 1245 025c 0028     		cmp	r0, #0
 1246 025e 7FF40AAF 		bne	.L33
ARM GAS  /tmp/cctvTqe7.s 			page 23


 1247              		.loc 1 147 0
 1248 0262 FFF7FEFF 		bl	test_wait_threads
 1249              	.LVL183:
 1250              		.loc 1 150 0
 1251 0266 0A21     		movs	r1, #10
 1252 0268 0A48     		ldr	r0, .L52
 1253 026a FFF7FEFF 		bl	chIQGetTimeout
 1254              	.LVL184:
 1255 026e B0F1FF32 		subs	r2, r0, #-1
 1256 0272 5142     		rsbs	r1, r2, #0
 1257 0274 5141     		adcs	r1, r1, r2
 1258 0276 0D20     		movs	r0, #13
 1259              	.LBE198:
 1260              	.LBE200:
 1261              		.loc 1 151 0
 1262 0278 03B0     		add	sp, sp, #12
 1263 027a BDE8F040 		pop	{r4, r5, r6, r7, lr}
 1264              	.LBB201:
 1265              	.LBB199:
 1266              		.loc 1 150 0
 1267 027e FFF7FEBF 		b	_test_assert
 1268              	.LVL185:
 1269              	.L51:
 1270              	.LBB197:
 1271              		.loc 1 107 0
 1272 0282 2346     		mov	r3, r4
 1273              	@ 107 "../../test/testqueues.c" 1
 1274 0284 83F31188 		msr     BASEPRI, r3
 1275              	@ 0 "" 2
 1276              	.LVL186:
 1277              		.thumb
 1278 0288 F5E6     		b	.L33
 1279              	.LVL187:
 1280              	.L50:
 1281              	.LBE197:
 1282              		.loc 1 106 0
 1283 028a A168     		ldr	r1, [r4, #8]
 1284 028c 0031     		adds	r1, r1, #0
 1285 028e 18BF     		it	ne
 1286 0290 0121     		movne	r1, #1
 1287 0292 E8E6     		b	.L36
 1288              	.L53:
 1289              		.align	2
 1290              	.L52:
 1291 0294 00000000 		.word	.LANCHOR1
 1292 0298 00000000 		.word	.LC0
 1293 029c 00000000 		.word	wa
 1294 02a0 00000000 		.word	rlist
 1295 02a4 00000000 		.word	thread1
 1296 02a8 00000000 		.word	threads
 1297              	.LBE199:
 1298              	.LBE201:
 1299              		.cfi_endproc
 1300              	.LFE10:
 1301              		.size	queues1_execute, .-queues1_execute
 1302              		.global	patternqueues
 1303              		.global	testqueues2
ARM GAS  /tmp/cctvTqe7.s 			page 24


 1304              		.global	testqueues1
 1305 02ac AFF30080 		.section	.rodata.testqueues1,"a",%progbits
 1306              		.align	2
 1307              		.type	testqueues1, %object
 1308              		.size	testqueues1, 16
 1309              	testqueues1:
 1310 0000 20000000 		.word	.LC2
 1311 0004 00000000 		.word	queues1_setup
 1312 0008 00000000 		.word	0
 1313 000c 00000000 		.word	queues1_execute
 1314              		.section	.rodata.testqueues2,"a",%progbits
 1315              		.align	2
 1316              		.type	testqueues2, %object
 1317              		.size	testqueues2, 16
 1318              	testqueues2:
 1319 0000 08000000 		.word	.LC1
 1320 0004 00000000 		.word	queues2_setup
 1321 0008 00000000 		.word	0
 1322 000c 00000000 		.word	queues2_execute
 1323              		.section	.rodata.str1.4,"aMS",%progbits,1
 1324              		.align	2
 1325              	.LC0:
 1326 0000 41424344 		.ascii	"ABCD\000"
 1326      00
 1327 0005 000000   		.space	3
 1328              	.LC1:
 1329 0008 51756575 		.ascii	"Queues, output queues\000"
 1329      65732C20 
 1329      6F757470 
 1329      75742071 
 1329      75657565 
 1330 001e 0000     		.space	2
 1331              	.LC2:
 1332 0020 51756575 		.ascii	"Queues, input queues\000"
 1332      65732C20 
 1332      696E7075 
 1332      74207175 
 1332      65756573 
 1333 0035 000000   		.section	.rodata.patternqueues,"a",%progbits
 1334              		.align	2
 1335              		.type	patternqueues, %object
 1336              		.size	patternqueues, 12
 1337              	patternqueues:
 1338 0000 00000000 		.word	testqueues1
 1339 0004 00000000 		.word	testqueues2
 1340 0008 00000000 		.word	0
 1341              		.section	.data.oq,"aw",%progbits
 1342              		.align	2
 1343              		.set	.LANCHOR0,. + 0
 1344              		.type	oq, %object
 1345              		.size	oq, 36
 1346              	oq:
 1347 0000 00000000 		.word	oq
 1348 0004 00000000 		.word	oq
 1349 0008 04000000 		.word	4
 1350 000c 30010000 		.word	test+304
 1351 0010 34010000 		.word	test+308
ARM GAS  /tmp/cctvTqe7.s 			page 25


 1352 0014 30010000 		.word	test+304
 1353 0018 30010000 		.word	test+304
 1354 001c 00000000 		.word	notify
 1355 0020 00000000 		.word	0
 1356              		.section	.data.iq,"aw",%progbits
 1357              		.align	2
 1358              		.set	.LANCHOR1,. + 0
 1359              		.type	iq, %object
 1360              		.size	iq, 36
 1361              	iq:
 1362 0000 00000000 		.word	iq
 1363 0004 00000000 		.word	iq
 1364 0008 00000000 		.word	0
 1365 000c 00000000 		.word	test
 1366 0010 04000000 		.word	test+4
 1367 0014 00000000 		.word	test
 1368 0018 00000000 		.word	test
 1369 001c 00000000 		.word	notify
 1370 0020 00000000 		.word	0
 1371              		.text
 1372              	.Letext0:
 1373              		.file 2 "/opt/psas/x-tools/stm32f407/arm-psas-eabi/bin/../lib/gcc/arm-psas-eabi/4.7.2/include/stdd
 1374              		.file 3 "/opt/psas/x-tools/stm32f407/arm-psas-eabi/bin/../lib/gcc/arm-psas-eabi/4.7.2/../../../../
 1375              		.file 4 "../../os/ports/GCC/ARMCMx/chtypes.h"
 1376              		.file 5 "../../os/kernel/include/chlists.h"
 1377              		.file 6 "../../os/kernel/include/chthreads.h"
 1378              		.file 7 "../../os/ports/GCC/ARMCMx/chcore_v7m.h"
 1379              		.file 8 "../../os/kernel/include/chschd.h"
 1380              		.file 9 "../../os/kernel/include/chmtx.h"
 1381              		.file 10 "../../os/kernel/include/chqueues.h"
 1382              		.file 11 "../../test/test.h"