ARM GAS  /tmp/cc4PZCgV.s 			page 1


   1              		.syntax unified
   2              		.cpu cortex-m4
   3              		.eabi_attribute 27, 3
   4              		.eabi_attribute 28, 1
   5              		.fpu fpv4-sp-d16
   6              		.eabi_attribute 20, 1
   7              		.eabi_attribute 21, 1
   8              		.eabi_attribute 23, 3
   9              		.eabi_attribute 24, 1
  10              		.eabi_attribute 25, 1
  11              		.eabi_attribute 26, 1
  12              		.eabi_attribute 30, 2
  13              		.eabi_attribute 34, 1
  14              		.eabi_attribute 18, 4
  15              		.thumb
  16              		.file	"testmtx.c"
  17              		.text
  18              	.Ltext0:
  19              		.cfi_sections	.debug_frame
  20              		.section	.text.mtx8_execute,"ax",%progbits
  21              		.align	2
  22              		.p2align 4,,15
  23              		.thumb
  24              		.thumb_func
  25              		.type	mtx8_execute, %function
  26              	mtx8_execute:
  27              	.LFB36:
  28              		.file 1 "../../test/testmtx.c"
  29              		.loc 1 599 0
  30              		.cfi_startproc
  31              		@ args = 0, pretend = 0, frame = 0
  32              		@ frame_needed = 0, uses_anonymous_args = 0
  33 0000 F0B5     		push	{r4, r5, r6, r7, lr}
  34              	.LCFI0:
  35              		.cfi_def_cfa_offset 20
  36              		.cfi_offset 4, -20
  37              		.cfi_offset 5, -16
  38              		.cfi_offset 6, -12
  39              		.cfi_offset 7, -8
  40              		.cfi_offset 14, -4
  41              		.loc 1 601 0
  42 0002 40F20003 		movw	r3, #:lower16:rlist
  43 0006 C0F20003 		movt	r3, #:upper16:rlist
  44              		.loc 1 602 0
  45 000a 40F20005 		movw	r5, #:lower16:wa
  46              		.loc 1 601 0
  47 000e 9B69     		ldr	r3, [r3, #24]
  48              		.loc 1 599 0
  49 0010 83B0     		sub	sp, sp, #12
  50              	.LCFI1:
  51              		.cfi_def_cfa_offset 32
  52              		.loc 1 601 0
  53 0012 9E68     		ldr	r6, [r3, #8]
  54              	.LVL0:
  55              		.loc 1 602 0
  56 0014 C0F20005 		movt	r5, #:upper16:wa
  57 0018 40F20004 		movw	r4, #:lower16:.LC0
ARM GAS  /tmp/cc4PZCgV.s 			page 2


  58 001c C0F20004 		movt	r4, #:upper16:.LC0
  59 0020 40F20003 		movw	r3, #:lower16:thread11
  60 0024 721C     		adds	r2, r6, #1
  61 0026 0094     		str	r4, [sp, #0]
  62 0028 2868     		ldr	r0, [r5, #0]
  63 002a 4FF49871 		mov	r1, #304
  64 002e C0F20003 		movt	r3, #:upper16:thread11
  65 0032 FFF7FEFF 		bl	chThdCreateStatic
  66              	.LVL1:
  67 0036 40F20004 		movw	r4, #:lower16:threads
  68 003a C0F20004 		movt	r4, #:upper16:threads
  69              		.loc 1 603 0
  70 003e 6F68     		ldr	r7, [r5, #4]
  71              		.loc 1 602 0
  72 0040 2060     		str	r0, [r4, #0]
  73              		.loc 1 603 0
  74 0042 40F20000 		movw	r0, #:lower16:.LC1
  75 0046 C0F20000 		movt	r0, #:upper16:.LC1
  76 004a 40F20003 		movw	r3, #:lower16:thread10
  77 004e B21C     		adds	r2, r6, #2
  78 0050 0090     		str	r0, [sp, #0]
  79 0052 4FF49871 		mov	r1, #304
  80 0056 C0F20003 		movt	r3, #:upper16:thread10
  81 005a 3846     		mov	r0, r7
  82 005c FFF7FEFF 		bl	chThdCreateStatic
  83              	.LVL2:
  84              		.loc 1 604 0
  85 0060 AD68     		ldr	r5, [r5, #8]
  86              		.loc 1 603 0
  87 0062 6060     		str	r0, [r4, #4]
  88              		.loc 1 604 0
  89 0064 40F20000 		movw	r0, #:lower16:.LC2
  90 0068 C0F20000 		movt	r0, #:upper16:.LC2
  91 006c 40F20003 		movw	r3, #:lower16:thread12
  92 0070 4FF49871 		mov	r1, #304
  93 0074 F21C     		adds	r2, r6, #3
  94 0076 C0F20003 		movt	r3, #:upper16:thread12
  95 007a 0090     		str	r0, [sp, #0]
  96 007c 2846     		mov	r0, r5
  97 007e FFF7FEFF 		bl	chThdCreateStatic
  98              	.LVL3:
  99              		.loc 1 605 0
 100 0082 40F20005 		movw	r5, #:lower16:.LANCHOR0
 101 0086 C0F20005 		movt	r5, #:upper16:.LANCHOR0
 102              		.loc 1 604 0
 103 008a A060     		str	r0, [r4, #8]
 104              		.loc 1 605 0
 105 008c 2846     		mov	r0, r5
 106 008e FFF7FEFF 		bl	chCondSignal
 107              	.LVL4:
 108              		.loc 1 606 0
 109 0092 2846     		mov	r0, r5
 110 0094 FFF7FEFF 		bl	chCondSignal
 111              	.LVL5:
 112              		.loc 1 607 0
 113 0098 FFF7FEFF 		bl	test_wait_threads
 114              	.LVL6:
ARM GAS  /tmp/cc4PZCgV.s 			page 3


 115              		.loc 1 608 0
 116 009c 40F20001 		movw	r1, #:lower16:.LC3
 117 00a0 0120     		movs	r0, #1
 118 00a2 C0F20001 		movt	r1, #:upper16:.LC3
 119              		.loc 1 609 0
 120 00a6 03B0     		add	sp, sp, #12
 121 00a8 BDE8F040 		pop	{r4, r5, r6, r7, lr}
 122              		.loc 1 608 0
 123 00ac FFF7FEBF 		b	_test_assert_sequence
 124              	.LVL7:
 125              		.cfi_endproc
 126              	.LFE36:
 127              		.size	mtx8_execute, .-mtx8_execute
 128              		.section	.text.thread12,"ax",%progbits
 129              		.align	2
 130              		.p2align 4,,15
 131              		.thumb
 132              		.thumb_func
 133              		.type	thread12, %function
 134              	thread12:
 135              	.LFB35:
 136              		.loc 1 591 0
 137              		.cfi_startproc
 138              		@ args = 0, pretend = 0, frame = 0
 139              		@ frame_needed = 0, uses_anonymous_args = 0
 140              	.LVL8:
 141 0000 10B5     		push	{r4, lr}
 142              	.LCFI2:
 143              		.cfi_def_cfa_offset 8
 144              		.cfi_offset 4, -8
 145              		.cfi_offset 14, -4
 146              		.loc 1 591 0
 147 0002 0446     		mov	r4, r0
 148              		.loc 1 593 0
 149 0004 40F20000 		movw	r0, #:lower16:.LANCHOR1
 150              	.LVL9:
 151 0008 C0F20000 		movt	r0, #:upper16:.LANCHOR1
 152 000c FFF7FEFF 		bl	chMtxLock
 153              	.LVL10:
 154              		.loc 1 594 0
 155 0010 2078     		ldrb	r0, [r4, #0]	@ zero_extendqisi2
 156 0012 FFF7FEFF 		bl	test_emit_token
 157              	.LVL11:
 158              		.loc 1 595 0
 159 0016 FFF7FEFF 		bl	chMtxUnlock
 160              	.LVL12:
 161              		.loc 1 597 0
 162 001a 0020     		movs	r0, #0
 163 001c 10BD     		pop	{r4, pc}
 164              		.cfi_endproc
 165              	.LFE35:
 166              		.size	thread12, .-thread12
 167 001e 00BF     		.section	.text.thread1,"ax",%progbits
 168              		.align	2
 169              		.p2align 4,,15
 170              		.thumb
 171              		.thumb_func
ARM GAS  /tmp/cc4PZCgV.s 			page 4


 172              		.type	thread1, %function
 173              	thread1:
 174              	.LFB8:
 175              		.loc 1 93 0
 176              		.cfi_startproc
 177              		@ args = 0, pretend = 0, frame = 0
 178              		@ frame_needed = 0, uses_anonymous_args = 0
 179              	.LVL13:
 180 0000 10B5     		push	{r4, lr}
 181              	.LCFI3:
 182              		.cfi_def_cfa_offset 8
 183              		.cfi_offset 4, -8
 184              		.cfi_offset 14, -4
 185              		.loc 1 93 0
 186 0002 0446     		mov	r4, r0
 187              		.loc 1 95 0
 188 0004 40F20000 		movw	r0, #:lower16:.LANCHOR2
 189              	.LVL14:
 190 0008 C0F20000 		movt	r0, #:upper16:.LANCHOR2
 191 000c FFF7FEFF 		bl	chMtxLock
 192              	.LVL15:
 193              		.loc 1 96 0
 194 0010 2078     		ldrb	r0, [r4, #0]	@ zero_extendqisi2
 195 0012 FFF7FEFF 		bl	test_emit_token
 196              	.LVL16:
 197              		.loc 1 97 0
 198 0016 FFF7FEFF 		bl	chMtxUnlock
 199              	.LVL17:
 200              		.loc 1 99 0
 201 001a 0020     		movs	r0, #0
 202 001c 10BD     		pop	{r4, pc}
 203              		.cfi_endproc
 204              	.LFE8:
 205              		.size	thread1, .-thread1
 206 001e 00BF     		.section	.text.thread10,"ax",%progbits
 207              		.align	2
 208              		.p2align 4,,15
 209              		.thumb
 210              		.thumb_func
 211              		.type	thread10, %function
 212              	thread10:
 213              	.LFB29:
 214              		.loc 1 488 0
 215              		.cfi_startproc
 216              		@ args = 0, pretend = 0, frame = 0
 217              		@ frame_needed = 0, uses_anonymous_args = 0
 218              	.LVL18:
 219 0000 10B5     		push	{r4, lr}
 220              	.LCFI4:
 221              		.cfi_def_cfa_offset 8
 222              		.cfi_offset 4, -8
 223              		.cfi_offset 14, -4
 224              		.loc 1 488 0
 225 0002 0446     		mov	r4, r0
 226              		.loc 1 490 0
 227 0004 40F20000 		movw	r0, #:lower16:.LANCHOR2
 228              	.LVL19:
ARM GAS  /tmp/cc4PZCgV.s 			page 5


 229 0008 C0F20000 		movt	r0, #:upper16:.LANCHOR2
 230 000c FFF7FEFF 		bl	chMtxLock
 231              	.LVL20:
 232              		.loc 1 491 0
 233 0010 40F20000 		movw	r0, #:lower16:.LANCHOR0
 234 0014 C0F20000 		movt	r0, #:upper16:.LANCHOR0
 235 0018 FFF7FEFF 		bl	chCondWait
 236              	.LVL21:
 237              		.loc 1 492 0
 238 001c 2078     		ldrb	r0, [r4, #0]	@ zero_extendqisi2
 239 001e FFF7FEFF 		bl	test_emit_token
 240              	.LVL22:
 241              		.loc 1 493 0
 242 0022 FFF7FEFF 		bl	chMtxUnlock
 243              	.LVL23:
 244              		.loc 1 495 0
 245 0026 0020     		movs	r0, #0
 246 0028 10BD     		pop	{r4, pc}
 247              		.cfi_endproc
 248              	.LFE29:
 249              		.size	thread10, .-thread10
 250 002a 00BFAFF3 		.section	.text.thread11,"ax",%progbits
 250      0080
 251              		.align	2
 252              		.p2align 4,,15
 253              		.thumb
 254              		.thumb_func
 255              		.type	thread11, %function
 256              	thread11:
 257              	.LFB34:
 258              		.loc 1 576 0
 259              		.cfi_startproc
 260              		@ args = 0, pretend = 0, frame = 0
 261              		@ frame_needed = 0, uses_anonymous_args = 0
 262              	.LVL24:
 263 0000 10B5     		push	{r4, lr}
 264              	.LCFI5:
 265              		.cfi_def_cfa_offset 8
 266              		.cfi_offset 4, -8
 267              		.cfi_offset 14, -4
 268              		.loc 1 576 0
 269 0002 0446     		mov	r4, r0
 270              		.loc 1 578 0
 271 0004 40F20000 		movw	r0, #:lower16:.LANCHOR1
 272              	.LVL25:
 273 0008 C0F20000 		movt	r0, #:upper16:.LANCHOR1
 274 000c FFF7FEFF 		bl	chMtxLock
 275              	.LVL26:
 276              		.loc 1 579 0
 277 0010 40F20000 		movw	r0, #:lower16:.LANCHOR2
 278 0014 C0F20000 		movt	r0, #:upper16:.LANCHOR2
 279 0018 FFF7FEFF 		bl	chMtxLock
 280              	.LVL27:
 281              		.loc 1 581 0
 282 001c 40F20000 		movw	r0, #:lower16:.LANCHOR0
 283 0020 4FF0FF31 		mov	r1, #-1
 284 0024 C0F20000 		movt	r0, #:upper16:.LANCHOR0
ARM GAS  /tmp/cc4PZCgV.s 			page 6


 285 0028 FFF7FEFF 		bl	chCondWaitTimeout
 286              	.LVL28:
 287              		.loc 1 585 0
 288 002c 2078     		ldrb	r0, [r4, #0]	@ zero_extendqisi2
 289 002e FFF7FEFF 		bl	test_emit_token
 290              	.LVL29:
 291              		.loc 1 586 0
 292 0032 FFF7FEFF 		bl	chMtxUnlock
 293              	.LVL30:
 294              		.loc 1 587 0
 295 0036 FFF7FEFF 		bl	chMtxUnlock
 296              	.LVL31:
 297              		.loc 1 589 0
 298 003a 0020     		movs	r0, #0
 299 003c 10BD     		pop	{r4, pc}
 300              		.cfi_endproc
 301              	.LFE34:
 302              		.size	thread11, .-thread11
 303 003e 00BF     		.section	.text.mtx8_setup,"ax",%progbits
 304              		.align	2
 305              		.p2align 4,,15
 306              		.thumb
 307              		.thumb_func
 308              		.type	mtx8_setup, %function
 309              	mtx8_setup:
 310              	.LFB33:
 311              		.loc 1 569 0
 312              		.cfi_startproc
 313              		@ args = 0, pretend = 0, frame = 0
 314              		@ frame_needed = 0, uses_anonymous_args = 0
 315              		.loc 1 571 0
 316 0000 40F20000 		movw	r0, #:lower16:.LANCHOR0
 317              		.loc 1 569 0
 318 0004 08B5     		push	{r3, lr}
 319              	.LCFI6:
 320              		.cfi_def_cfa_offset 8
 321              		.cfi_offset 3, -8
 322              		.cfi_offset 14, -4
 323              		.loc 1 571 0
 324 0006 C0F20000 		movt	r0, #:upper16:.LANCHOR0
 325 000a FFF7FEFF 		bl	chCondInit
 326              	.LVL32:
 327              		.loc 1 572 0
 328 000e 40F20000 		movw	r0, #:lower16:.LANCHOR2
 329 0012 C0F20000 		movt	r0, #:upper16:.LANCHOR2
 330 0016 FFF7FEFF 		bl	chMtxInit
 331              	.LVL33:
 332              		.loc 1 573 0
 333 001a 40F20000 		movw	r0, #:lower16:.LANCHOR1
 334 001e C0F20000 		movt	r0, #:upper16:.LANCHOR1
 335              		.loc 1 574 0
 336 0022 BDE80840 		pop	{r3, lr}
 337              		.loc 1 573 0
 338 0026 FFF7FEBF 		b	chMtxInit
 339              	.LVL34:
 340              		.cfi_endproc
 341              	.LFE33:
ARM GAS  /tmp/cc4PZCgV.s 			page 7


 342              		.size	mtx8_setup, .-mtx8_setup
 343 002a 00BFAFF3 		.section	.text.mtx7_setup,"ax",%progbits
 343      0080
 344              		.align	2
 345              		.p2align 4,,15
 346              		.thumb
 347              		.thumb_func
 348              		.type	mtx7_setup, %function
 349              	mtx7_setup:
 350              	.LFB31:
 351              		.loc 1 534 0
 352              		.cfi_startproc
 353              		@ args = 0, pretend = 0, frame = 0
 354              		@ frame_needed = 0, uses_anonymous_args = 0
 355 0000 08B5     		push	{r3, lr}
 356              	.LCFI7:
 357              		.cfi_def_cfa_offset 8
 358              		.cfi_offset 3, -8
 359              		.cfi_offset 14, -4
 360              		.loc 1 536 0
 361 0002 40F20000 		movw	r0, #:lower16:.LANCHOR0
 362 0006 C0F20000 		movt	r0, #:upper16:.LANCHOR0
 363 000a FFF7FEFF 		bl	chCondInit
 364              	.LVL35:
 365              		.loc 1 537 0
 366 000e 40F20000 		movw	r0, #:lower16:.LANCHOR2
 367 0012 C0F20000 		movt	r0, #:upper16:.LANCHOR2
 368              		.loc 1 538 0
 369 0016 BDE80840 		pop	{r3, lr}
 370              		.loc 1 537 0
 371 001a FFF7FEBF 		b	chMtxInit
 372              	.LVL36:
 373              		.cfi_endproc
 374              	.LFE31:
 375              		.size	mtx7_setup, .-mtx7_setup
 376 001e 00BF     		.section	.text.mtx6_setup,"ax",%progbits
 377              		.align	2
 378              		.p2align 4,,15
 379              		.thumb
 380              		.thumb_func
 381              		.type	mtx6_setup, %function
 382              	mtx6_setup:
 383              	.LFB28:
 384              		.loc 1 482 0
 385              		.cfi_startproc
 386              		@ args = 0, pretend = 0, frame = 0
 387              		@ frame_needed = 0, uses_anonymous_args = 0
 388 0000 08B5     		push	{r3, lr}
 389              	.LCFI8:
 390              		.cfi_def_cfa_offset 8
 391              		.cfi_offset 3, -8
 392              		.cfi_offset 14, -4
 393              		.loc 1 484 0
 394 0002 40F20000 		movw	r0, #:lower16:.LANCHOR0
 395 0006 C0F20000 		movt	r0, #:upper16:.LANCHOR0
 396 000a FFF7FEFF 		bl	chCondInit
 397              	.LVL37:
ARM GAS  /tmp/cc4PZCgV.s 			page 8


 398              		.loc 1 485 0
 399 000e 40F20000 		movw	r0, #:lower16:.LANCHOR2
 400 0012 C0F20000 		movt	r0, #:upper16:.LANCHOR2
 401              		.loc 1 486 0
 402 0016 BDE80840 		pop	{r3, lr}
 403              		.loc 1 485 0
 404 001a FFF7FEBF 		b	chMtxInit
 405              	.LVL38:
 406              		.cfi_endproc
 407              	.LFE28:
 408              		.size	mtx6_setup, .-mtx6_setup
 409 001e 00BF     		.section	.text.mtx5_setup,"ax",%progbits
 410              		.align	2
 411              		.p2align 4,,15
 412              		.thumb
 413              		.thumb_func
 414              		.type	mtx5_setup, %function
 415              	mtx5_setup:
 416              	.LFB26:
 417              		.loc 1 432 0
 418              		.cfi_startproc
 419              		@ args = 0, pretend = 0, frame = 0
 420              		@ frame_needed = 0, uses_anonymous_args = 0
 421              		@ link register save eliminated.
 422              		.loc 1 434 0
 423 0000 40F20000 		movw	r0, #:lower16:.LANCHOR2
 424 0004 C0F20000 		movt	r0, #:upper16:.LANCHOR2
 425              		.loc 1 435 0
 426              		.loc 1 434 0
 427 0008 FFF7FEBF 		b	chMtxInit
 428              	.LVL39:
 429              		.cfi_endproc
 430              	.LFE26:
 431              		.size	mtx5_setup, .-mtx5_setup
 432 000c AFF30080 		.section	.text.mtx4_setup,"ax",%progbits
 433              		.align	2
 434              		.p2align 4,,15
 435              		.thumb
 436              		.thumb_func
 437              		.type	mtx4_setup, %function
 438              	mtx4_setup:
 439              	.LFB22:
 440              		.loc 1 345 0
 441              		.cfi_startproc
 442              		@ args = 0, pretend = 0, frame = 0
 443              		@ frame_needed = 0, uses_anonymous_args = 0
 444 0000 08B5     		push	{r3, lr}
 445              	.LCFI9:
 446              		.cfi_def_cfa_offset 8
 447              		.cfi_offset 3, -8
 448              		.cfi_offset 14, -4
 449              		.loc 1 347 0
 450 0002 40F20000 		movw	r0, #:lower16:.LANCHOR2
 451 0006 C0F20000 		movt	r0, #:upper16:.LANCHOR2
 452 000a FFF7FEFF 		bl	chMtxInit
 453              	.LVL40:
 454              		.loc 1 348 0
ARM GAS  /tmp/cc4PZCgV.s 			page 9


 455 000e 40F20000 		movw	r0, #:lower16:.LANCHOR1
 456 0012 C0F20000 		movt	r0, #:upper16:.LANCHOR1
 457              		.loc 1 349 0
 458 0016 BDE80840 		pop	{r3, lr}
 459              		.loc 1 348 0
 460 001a FFF7FEBF 		b	chMtxInit
 461              	.LVL41:
 462              		.cfi_endproc
 463              	.LFE22:
 464              		.size	mtx4_setup, .-mtx4_setup
 465 001e 00BF     		.section	.text.mtx3_setup,"ax",%progbits
 466              		.align	2
 467              		.p2align 4,,15
 468              		.thumb
 469              		.thumb_func
 470              		.type	mtx3_setup, %function
 471              	mtx3_setup:
 472              	.LFB15:
 473              		.loc 1 245 0
 474              		.cfi_startproc
 475              		@ args = 0, pretend = 0, frame = 0
 476              		@ frame_needed = 0, uses_anonymous_args = 0
 477 0000 08B5     		push	{r3, lr}
 478              	.LCFI10:
 479              		.cfi_def_cfa_offset 8
 480              		.cfi_offset 3, -8
 481              		.cfi_offset 14, -4
 482              		.loc 1 247 0
 483 0002 40F20000 		movw	r0, #:lower16:.LANCHOR2
 484 0006 C0F20000 		movt	r0, #:upper16:.LANCHOR2
 485 000a FFF7FEFF 		bl	chMtxInit
 486              	.LVL42:
 487              		.loc 1 248 0
 488 000e 40F20000 		movw	r0, #:lower16:.LANCHOR1
 489 0012 C0F20000 		movt	r0, #:upper16:.LANCHOR1
 490              		.loc 1 249 0
 491 0016 BDE80840 		pop	{r3, lr}
 492              		.loc 1 248 0
 493 001a FFF7FEBF 		b	chMtxInit
 494              	.LVL43:
 495              		.cfi_endproc
 496              	.LFE15:
 497              		.size	mtx3_setup, .-mtx3_setup
 498 001e 00BF     		.section	.text.mtx2_setup,"ax",%progbits
 499              		.align	2
 500              		.p2align 4,,15
 501              		.thumb
 502              		.thumb_func
 503              		.type	mtx2_setup, %function
 504              	mtx2_setup:
 505              	.LFB10:
 506              		.loc 1 155 0
 507              		.cfi_startproc
 508              		@ args = 0, pretend = 0, frame = 0
 509              		@ frame_needed = 0, uses_anonymous_args = 0
 510              		@ link register save eliminated.
 511              		.loc 1 157 0
ARM GAS  /tmp/cc4PZCgV.s 			page 10


 512 0000 40F20000 		movw	r0, #:lower16:.LANCHOR2
 513 0004 C0F20000 		movt	r0, #:upper16:.LANCHOR2
 514              		.loc 1 158 0
 515              		.loc 1 157 0
 516 0008 FFF7FEBF 		b	chMtxInit
 517              	.LVL44:
 518              		.cfi_endproc
 519              	.LFE10:
 520              		.size	mtx2_setup, .-mtx2_setup
 521 000c AFF30080 		.section	.text.mtx1_setup,"ax",%progbits
 522              		.align	2
 523              		.p2align 4,,15
 524              		.thumb
 525              		.thumb_func
 526              		.type	mtx1_setup, %function
 527              	mtx1_setup:
 528              	.LFB7:
 529              		.loc 1 88 0
 530              		.cfi_startproc
 531              		@ args = 0, pretend = 0, frame = 0
 532              		@ frame_needed = 0, uses_anonymous_args = 0
 533              		@ link register save eliminated.
 534              		.loc 1 90 0
 535 0000 40F20000 		movw	r0, #:lower16:.LANCHOR2
 536 0004 C0F20000 		movt	r0, #:upper16:.LANCHOR2
 537              		.loc 1 91 0
 538              		.loc 1 90 0
 539 0008 FFF7FEBF 		b	chMtxInit
 540              	.LVL45:
 541              		.cfi_endproc
 542              	.LFE7:
 543              		.size	mtx1_setup, .-mtx1_setup
 544 000c AFF30080 		.section	.text.mtx7_execute,"ax",%progbits
 545              		.align	2
 546              		.p2align 4,,15
 547              		.thumb
 548              		.thumb_func
 549              		.type	mtx7_execute, %function
 550              	mtx7_execute:
 551              	.LFB32:
 552              		.loc 1 540 0
 553              		.cfi_startproc
 554              		@ args = 0, pretend = 0, frame = 0
 555              		@ frame_needed = 0, uses_anonymous_args = 0
 556 0000 F0B5     		push	{r4, r5, r6, r7, lr}
 557              	.LCFI11:
 558              		.cfi_def_cfa_offset 20
 559              		.cfi_offset 4, -20
 560              		.cfi_offset 5, -16
 561              		.cfi_offset 6, -12
 562              		.cfi_offset 7, -8
 563              		.cfi_offset 14, -4
 564              		.loc 1 542 0
 565 0002 40F20003 		movw	r3, #:lower16:rlist
 566 0006 C0F20003 		movt	r3, #:upper16:rlist
 567              		.loc 1 543 0
 568 000a 40F20006 		movw	r6, #:lower16:wa
ARM GAS  /tmp/cc4PZCgV.s 			page 11


 569              		.loc 1 542 0
 570 000e 9B69     		ldr	r3, [r3, #24]
 571              		.loc 1 540 0
 572 0010 83B0     		sub	sp, sp, #12
 573              	.LCFI12:
 574              		.cfi_def_cfa_offset 32
 575              		.loc 1 542 0
 576 0012 9F68     		ldr	r7, [r3, #8]
 577              	.LVL46:
 578              		.loc 1 543 0
 579 0014 C0F20006 		movt	r6, #:upper16:wa
 580 0018 40F20005 		movw	r5, #:lower16:thread10
 581 001c 40F20004 		movw	r4, #:lower16:.LC4
 582 0020 C0F20005 		movt	r5, #:upper16:thread10
 583 0024 C0F20004 		movt	r4, #:upper16:.LC4
 584 0028 7A1C     		adds	r2, r7, #1
 585 002a 2B46     		mov	r3, r5
 586 002c 0094     		str	r4, [sp, #0]
 587 002e 3068     		ldr	r0, [r6, #0]
 588 0030 4FF49871 		mov	r1, #304
 589 0034 FFF7FEFF 		bl	chThdCreateStatic
 590              	.LVL47:
 591 0038 40F20004 		movw	r4, #:lower16:threads
 592 003c C0F20004 		movt	r4, #:upper16:threads
 593              		.loc 1 544 0
 594 0040 BA1C     		adds	r2, r7, #2
 595              		.loc 1 543 0
 596 0042 2060     		str	r0, [r4, #0]
 597              		.loc 1 544 0
 598 0044 40F20000 		movw	r0, #:lower16:.LC5
 599 0048 C0F20000 		movt	r0, #:upper16:.LC5
 600 004c 2B46     		mov	r3, r5
 601 004e 0090     		str	r0, [sp, #0]
 602 0050 4FF49871 		mov	r1, #304
 603 0054 7068     		ldr	r0, [r6, #4]
 604 0056 FFF7FEFF 		bl	chThdCreateStatic
 605              	.LVL48:
 606 005a 6060     		str	r0, [r4, #4]
 607              		.loc 1 545 0
 608 005c 40F20000 		movw	r0, #:lower16:.LC1
 609 0060 C0F20000 		movt	r0, #:upper16:.LC1
 610 0064 FA1C     		adds	r2, r7, #3
 611 0066 2B46     		mov	r3, r5
 612 0068 0090     		str	r0, [sp, #0]
 613 006a 4FF49871 		mov	r1, #304
 614 006e B068     		ldr	r0, [r6, #8]
 615 0070 FFF7FEFF 		bl	chThdCreateStatic
 616              	.LVL49:
 617 0074 A060     		str	r0, [r4, #8]
 618              		.loc 1 546 0
 619 0076 40F20000 		movw	r0, #:lower16:.LC2
 620 007a C0F20000 		movt	r0, #:upper16:.LC2
 621 007e 3A1D     		adds	r2, r7, #4
 622 0080 2B46     		mov	r3, r5
 623 0082 0090     		str	r0, [sp, #0]
 624 0084 4FF49871 		mov	r1, #304
 625 0088 F068     		ldr	r0, [r6, #12]
ARM GAS  /tmp/cc4PZCgV.s 			page 12


 626 008a FFF7FEFF 		bl	chThdCreateStatic
 627              	.LVL50:
 628              		.loc 1 547 0
 629 008e 3669     		ldr	r6, [r6, #16]
 630              		.loc 1 546 0
 631 0090 E060     		str	r0, [r4, #12]
 632              		.loc 1 547 0
 633 0092 40F20000 		movw	r0, #:lower16:.LC0
 634 0096 C0F20000 		movt	r0, #:upper16:.LC0
 635 009a 4FF49871 		mov	r1, #304
 636 009e 7A1D     		adds	r2, r7, #5
 637 00a0 2B46     		mov	r3, r5
 638 00a2 0090     		str	r0, [sp, #0]
 639 00a4 3046     		mov	r0, r6
 640 00a6 FFF7FEFF 		bl	chThdCreateStatic
 641              	.LVL51:
 642 00aa 2061     		str	r0, [r4, #16]
 643              		.loc 1 548 0
 644 00ac 40F20000 		movw	r0, #:lower16:.LANCHOR0
 645 00b0 C0F20000 		movt	r0, #:upper16:.LANCHOR0
 646 00b4 FFF7FEFF 		bl	chCondBroadcast
 647              	.LVL52:
 648              		.loc 1 549 0
 649 00b8 FFF7FEFF 		bl	test_wait_threads
 650              	.LVL53:
 651              		.loc 1 550 0
 652 00bc 40F20001 		movw	r1, #:lower16:.LC6
 653 00c0 0120     		movs	r0, #1
 654 00c2 C0F20001 		movt	r1, #:upper16:.LC6
 655              		.loc 1 551 0
 656 00c6 03B0     		add	sp, sp, #12
 657 00c8 BDE8F040 		pop	{r4, r5, r6, r7, lr}
 658              		.loc 1 550 0
 659 00cc FFF7FEBF 		b	_test_assert_sequence
 660              	.LVL54:
 661              		.cfi_endproc
 662              	.LFE32:
 663              		.size	mtx7_execute, .-mtx7_execute
 664              		.section	.text.mtx6_execute,"ax",%progbits
 665              		.align	2
 666              		.p2align 4,,15
 667              		.thumb
 668              		.thumb_func
 669              		.type	mtx6_execute, %function
 670              	mtx6_execute:
 671              	.LFB30:
 672              		.loc 1 497 0
 673              		.cfi_startproc
 674              		@ args = 0, pretend = 0, frame = 0
 675              		@ frame_needed = 0, uses_anonymous_args = 0
 676 0000 F0B5     		push	{r4, r5, r6, r7, lr}
 677              	.LCFI13:
 678              		.cfi_def_cfa_offset 20
 679              		.cfi_offset 4, -20
 680              		.cfi_offset 5, -16
 681              		.cfi_offset 6, -12
 682              		.cfi_offset 7, -8
ARM GAS  /tmp/cc4PZCgV.s 			page 13


 683              		.cfi_offset 14, -4
 684              		.loc 1 499 0
 685 0002 40F20003 		movw	r3, #:lower16:rlist
 686 0006 C0F20003 		movt	r3, #:upper16:rlist
 687              		.loc 1 500 0
 688 000a 40F20006 		movw	r6, #:lower16:wa
 689              		.loc 1 499 0
 690 000e 9B69     		ldr	r3, [r3, #24]
 691              		.loc 1 497 0
 692 0010 83B0     		sub	sp, sp, #12
 693              	.LCFI14:
 694              		.cfi_def_cfa_offset 32
 695              		.loc 1 499 0
 696 0012 9F68     		ldr	r7, [r3, #8]
 697              	.LVL55:
 698              		.loc 1 500 0
 699 0014 C0F20006 		movt	r6, #:upper16:wa
 700 0018 40F20005 		movw	r5, #:lower16:thread10
 701 001c 40F20001 		movw	r1, #:lower16:.LC4
 702 0020 C0F20005 		movt	r5, #:upper16:thread10
 703 0024 C0F20001 		movt	r1, #:upper16:.LC4
 704 0028 7A1C     		adds	r2, r7, #1
 705 002a 2B46     		mov	r3, r5
 706 002c 0091     		str	r1, [sp, #0]
 707 002e 3068     		ldr	r0, [r6, #0]
 708 0030 4FF49871 		mov	r1, #304
 709 0034 FFF7FEFF 		bl	chThdCreateStatic
 710              	.LVL56:
 711 0038 40F20004 		movw	r4, #:lower16:threads
 712 003c C0F20004 		movt	r4, #:upper16:threads
 713              		.loc 1 501 0
 714 0040 7168     		ldr	r1, [r6, #4]
 715              		.loc 1 500 0
 716 0042 2060     		str	r0, [r4, #0]
 717              		.loc 1 501 0
 718 0044 40F20000 		movw	r0, #:lower16:.LC5
 719 0048 C0F20000 		movt	r0, #:upper16:.LC5
 720 004c BA1C     		adds	r2, r7, #2
 721 004e 2B46     		mov	r3, r5
 722 0050 0090     		str	r0, [sp, #0]
 723 0052 0846     		mov	r0, r1
 724 0054 4FF49871 		mov	r1, #304
 725 0058 FFF7FEFF 		bl	chThdCreateStatic
 726              	.LVL57:
 727              		.loc 1 502 0
 728 005c B168     		ldr	r1, [r6, #8]
 729              		.loc 1 501 0
 730 005e 6060     		str	r0, [r4, #4]
 731              		.loc 1 502 0
 732 0060 40F20000 		movw	r0, #:lower16:.LC1
 733 0064 C0F20000 		movt	r0, #:upper16:.LC1
 734 0068 FA1C     		adds	r2, r7, #3
 735 006a 2B46     		mov	r3, r5
 736 006c 0090     		str	r0, [sp, #0]
 737 006e 0846     		mov	r0, r1
 738 0070 4FF49871 		mov	r1, #304
 739 0074 FFF7FEFF 		bl	chThdCreateStatic
ARM GAS  /tmp/cc4PZCgV.s 			page 14


 740              	.LVL58:
 741              		.loc 1 503 0
 742 0078 F168     		ldr	r1, [r6, #12]
 743              		.loc 1 502 0
 744 007a A060     		str	r0, [r4, #8]
 745              		.loc 1 503 0
 746 007c 40F20000 		movw	r0, #:lower16:.LC2
 747 0080 C0F20000 		movt	r0, #:upper16:.LC2
 748 0084 3A1D     		adds	r2, r7, #4
 749 0086 2B46     		mov	r3, r5
 750 0088 0090     		str	r0, [sp, #0]
 751 008a 0846     		mov	r0, r1
 752 008c 4FF49871 		mov	r1, #304
 753 0090 FFF7FEFF 		bl	chThdCreateStatic
 754              	.LVL59:
 755              		.loc 1 504 0
 756 0094 3269     		ldr	r2, [r6, #16]
 757              		.loc 1 503 0
 758 0096 E060     		str	r0, [r4, #12]
 759              		.loc 1 504 0
 760 0098 40F20001 		movw	r1, #:lower16:.LC0
 761 009c C0F20001 		movt	r1, #:upper16:.LC0
 762 00a0 2B46     		mov	r3, r5
 763 00a2 0091     		str	r1, [sp, #0]
 764 00a4 1046     		mov	r0, r2
 765 00a6 4FF49871 		mov	r1, #304
 766 00aa 7A1D     		adds	r2, r7, #5
 767 00ac FFF7FEFF 		bl	chThdCreateStatic
 768              	.LVL60:
 769              	.LBB2:
 770              		.loc 1 505 0
 771 00b0 2023     		movs	r3, #32
 772              	.LVL61:
 773              	.LBE2:
 774              		.loc 1 504 0
 775 00b2 2061     		str	r0, [r4, #16]
 776              	.LBB3:
 777              		.loc 1 505 0
 778              	@ 505 "../../test/testmtx.c" 1
 779 00b4 83F31188 		msr     BASEPRI, r3
 780              	@ 0 "" 2
 781              	.LVL62:
 782              		.thumb
 783              	.LBE3:
 784              		.loc 1 506 0
 785 00b8 40F20004 		movw	r4, #:lower16:.LANCHOR0
 786 00bc C0F20004 		movt	r4, #:upper16:.LANCHOR0
 787 00c0 2046     		mov	r0, r4
 788 00c2 FFF7FEFF 		bl	chCondSignalI
 789              	.LVL63:
 790              		.loc 1 507 0
 791 00c6 2046     		mov	r0, r4
 792 00c8 FFF7FEFF 		bl	chCondSignalI
 793              	.LVL64:
 794              		.loc 1 508 0
 795 00cc 2046     		mov	r0, r4
 796 00ce FFF7FEFF 		bl	chCondSignalI
ARM GAS  /tmp/cc4PZCgV.s 			page 15


 797              	.LVL65:
 798              		.loc 1 509 0
 799 00d2 2046     		mov	r0, r4
 800 00d4 FFF7FEFF 		bl	chCondSignalI
 801              	.LVL66:
 802              		.loc 1 510 0
 803 00d8 2046     		mov	r0, r4
 804 00da FFF7FEFF 		bl	chCondSignalI
 805              	.LVL67:
 806              		.loc 1 511 0
 807 00de FFF7FEFF 		bl	chSchRescheduleS
 808              	.LVL68:
 809              	.LBB4:
 810              		.loc 1 512 0
 811 00e2 0023     		movs	r3, #0
 812              	.LVL69:
 813              	@ 512 "../../test/testmtx.c" 1
 814 00e4 83F31188 		msr     BASEPRI, r3
 815              	@ 0 "" 2
 816              	.LVL70:
 817              		.thumb
 818              	.LBE4:
 819              		.loc 1 513 0
 820 00e8 FFF7FEFF 		bl	test_wait_threads
 821              	.LVL71:
 822              		.loc 1 514 0
 823 00ec 40F20001 		movw	r1, #:lower16:.LC6
 824 00f0 0120     		movs	r0, #1
 825 00f2 C0F20001 		movt	r1, #:upper16:.LC6
 826              		.loc 1 515 0
 827 00f6 03B0     		add	sp, sp, #12
 828 00f8 BDE8F040 		pop	{r4, r5, r6, r7, lr}
 829              		.loc 1 514 0
 830 00fc FFF7FEBF 		b	_test_assert_sequence
 831              	.LVL72:
 832              		.cfi_endproc
 833              	.LFE30:
 834              		.size	mtx6_execute, .-mtx6_execute
 835              		.section	.text.mtx1_execute,"ax",%progbits
 836              		.align	2
 837              		.p2align 4,,15
 838              		.thumb
 839              		.thumb_func
 840              		.type	mtx1_execute, %function
 841              	mtx1_execute:
 842              	.LFB9:
 843              		.loc 1 101 0
 844              		.cfi_startproc
 845              		@ args = 0, pretend = 0, frame = 8
 846              		@ frame_needed = 0, uses_anonymous_args = 0
 847 0000 F0B5     		push	{r4, r5, r6, r7, lr}
 848              	.LCFI15:
 849              		.cfi_def_cfa_offset 20
 850              		.cfi_offset 4, -20
 851              		.cfi_offset 5, -16
 852              		.cfi_offset 6, -12
 853              		.cfi_offset 7, -8
ARM GAS  /tmp/cc4PZCgV.s 			page 16


 854              		.cfi_offset 14, -4
 855              		.loc 1 103 0
 856 0002 2C4F     		ldr	r7, .L20
 857              		.loc 1 104 0
 858 0004 2C48     		ldr	r0, .L20+4
 859              		.loc 1 103 0
 860 0006 BB69     		ldr	r3, [r7, #24]
 861              		.loc 1 105 0
 862 0008 2C4E     		ldr	r6, .L20+8
 863              		.loc 1 103 0
 864 000a 9C68     		ldr	r4, [r3, #8]
 865              	.LVL73:
 866              		.loc 1 105 0
 867 000c 2C4D     		ldr	r5, .L20+12
 868              		.loc 1 101 0
 869 000e 85B0     		sub	sp, sp, #20
 870              	.LCFI16:
 871              		.cfi_def_cfa_offset 40
 872              		.loc 1 104 0
 873 0010 FFF7FEFF 		bl	chMtxLock
 874              	.LVL74:
 875              		.loc 1 105 0
 876 0014 2B4A     		ldr	r2, .L20+16
 877 0016 3068     		ldr	r0, [r6, #0]
 878 0018 2B4B     		ldr	r3, .L20+20
 879 001a 0092     		str	r2, [sp, #0]
 880 001c 4FF49871 		mov	r1, #304
 881 0020 621C     		adds	r2, r4, #1
 882 0022 FFF7FEFF 		bl	chThdCreateStatic
 883              	.LVL75:
 884              		.loc 1 106 0
 885 0026 7368     		ldr	r3, [r6, #4]
 886              		.loc 1 105 0
 887 0028 2860     		str	r0, [r5, #0]
 888              		.loc 1 106 0
 889 002a 2848     		ldr	r0, .L20+24
 890 002c 0393     		str	r3, [sp, #12]
 891 002e A21C     		adds	r2, r4, #2
 892 0030 4FF49871 		mov	r1, #304
 893 0034 244B     		ldr	r3, .L20+20
 894 0036 0090     		str	r0, [sp, #0]
 895 0038 0398     		ldr	r0, [sp, #12]
 896 003a FFF7FEFF 		bl	chThdCreateStatic
 897              	.LVL76:
 898              		.loc 1 107 0
 899 003e B368     		ldr	r3, [r6, #8]
 900              		.loc 1 106 0
 901 0040 6860     		str	r0, [r5, #4]
 902              		.loc 1 107 0
 903 0042 2348     		ldr	r0, .L20+28
 904 0044 0393     		str	r3, [sp, #12]
 905 0046 E21C     		adds	r2, r4, #3
 906 0048 4FF49871 		mov	r1, #304
 907 004c 1E4B     		ldr	r3, .L20+20
 908 004e 0090     		str	r0, [sp, #0]
 909 0050 0398     		ldr	r0, [sp, #12]
 910 0052 FFF7FEFF 		bl	chThdCreateStatic
ARM GAS  /tmp/cc4PZCgV.s 			page 17


 911              	.LVL77:
 912              		.loc 1 108 0
 913 0056 F368     		ldr	r3, [r6, #12]
 914              		.loc 1 107 0
 915 0058 A860     		str	r0, [r5, #8]
 916              		.loc 1 108 0
 917 005a 1E48     		ldr	r0, .L20+32
 918 005c 0393     		str	r3, [sp, #12]
 919 005e 221D     		adds	r2, r4, #4
 920 0060 4FF49871 		mov	r1, #304
 921 0064 184B     		ldr	r3, .L20+20
 922 0066 0090     		str	r0, [sp, #0]
 923 0068 0398     		ldr	r0, [sp, #12]
 924 006a FFF7FEFF 		bl	chThdCreateStatic
 925              	.LVL78:
 926              		.loc 1 109 0
 927 006e 3669     		ldr	r6, [r6, #16]
 928              		.loc 1 108 0
 929 0070 E860     		str	r0, [r5, #12]
 930              		.loc 1 109 0
 931 0072 1948     		ldr	r0, .L20+36
 932 0074 144B     		ldr	r3, .L20+20
 933 0076 0090     		str	r0, [sp, #0]
 934 0078 4FF49871 		mov	r1, #304
 935 007c 621D     		adds	r2, r4, #5
 936 007e 3046     		mov	r0, r6
 937 0080 FFF7FEFF 		bl	chThdCreateStatic
 938              	.LVL79:
 939 0084 2861     		str	r0, [r5, #16]
 940              		.loc 1 110 0
 941 0086 FFF7FEFF 		bl	chMtxUnlock
 942              	.LVL80:
 943              		.loc 1 111 0
 944 008a FFF7FEFF 		bl	test_wait_threads
 945              	.LVL81:
 946              		.loc 1 112 0
 947 008e BB69     		ldr	r3, [r7, #24]
 948 0090 9968     		ldr	r1, [r3, #8]
 949 0092 0120     		movs	r0, #1
 950 0094 0B1B     		subs	r3, r1, r4
 951 0096 5942     		rsbs	r1, r3, #0
 952 0098 5941     		adcs	r1, r1, r3
 953 009a FFF7FEFF 		bl	_test_assert
 954              	.LVL82:
 955 009e 08B1     		cbz	r0, .L19
 956              		.loc 1 114 0
 957 00a0 05B0     		add	sp, sp, #20
 958 00a2 F0BD     		pop	{r4, r5, r6, r7, pc}
 959              	.L19:
 960              		.loc 1 113 0
 961 00a4 0D49     		ldr	r1, .L20+40
 962 00a6 0220     		movs	r0, #2
 963              		.loc 1 114 0
 964 00a8 05B0     		add	sp, sp, #20
 965 00aa BDE8F040 		pop	{r4, r5, r6, r7, lr}
 966              		.loc 1 113 0
 967 00ae FFF7FEBF 		b	_test_assert_sequence
ARM GAS  /tmp/cc4PZCgV.s 			page 18


 968              	.LVL83:
 969              	.L21:
 970 00b2 00BF     		.align	2
 971              	.L20:
 972 00b4 00000000 		.word	rlist
 973 00b8 00000000 		.word	.LANCHOR2
 974 00bc 00000000 		.word	wa
 975 00c0 00000000 		.word	threads
 976 00c4 10000000 		.word	.LC4
 977 00c8 00000000 		.word	thread1
 978 00cc 14000000 		.word	.LC5
 979 00d0 04000000 		.word	.LC1
 980 00d4 08000000 		.word	.LC2
 981 00d8 00000000 		.word	.LC0
 982 00dc 18000000 		.word	.LC6
 983              		.cfi_endproc
 984              	.LFE9:
 985              		.size	mtx1_execute, .-mtx1_execute
 986              		.section	.text.mtx5_execute,"ax",%progbits
 987              		.align	2
 988              		.p2align 4,,15
 989              		.thumb
 990              		.thumb_func
 991              		.type	mtx5_execute, %function
 992              	mtx5_execute:
 993              	.LFB27:
 994              		.loc 1 437 0
 995              		.cfi_startproc
 996              		@ args = 0, pretend = 0, frame = 0
 997              		@ frame_needed = 0, uses_anonymous_args = 0
 998 0000 F8B5     		push	{r3, r4, r5, r6, r7, lr}
 999              	.LCFI17:
 1000              		.cfi_def_cfa_offset 24
 1001              		.cfi_offset 3, -24
 1002              		.cfi_offset 4, -20
 1003              		.cfi_offset 5, -16
 1004              		.cfi_offset 6, -12
 1005              		.cfi_offset 7, -8
 1006              		.cfi_offset 14, -4
 1007              		.loc 1 441 0
 1008 0002 2E4D     		ldr	r5, .L27
 1009              		.loc 1 443 0
 1010 0004 2E4C     		ldr	r4, .L27+4
 1011              		.loc 1 441 0
 1012 0006 AB69     		ldr	r3, [r5, #24]
 1013              		.loc 1 443 0
 1014 0008 2046     		mov	r0, r4
 1015              		.loc 1 441 0
 1016 000a 9E68     		ldr	r6, [r3, #8]
 1017              	.LVL84:
 1018              		.loc 1 443 0
 1019 000c FFF7FEFF 		bl	chMtxTryLock
 1020              	.LVL85:
 1021              		.loc 1 444 0
 1022 0010 0146     		mov	r1, r0
 1023 0012 0120     		movs	r0, #1
 1024              	.LVL86:
ARM GAS  /tmp/cc4PZCgV.s 			page 19


 1025 0014 FFF7FEFF 		bl	_test_assert
 1026              	.LVL87:
 1027 0018 00B1     		cbz	r0, .L26
 1028              	.L22:
 1029 001a F8BD     		pop	{r3, r4, r5, r6, r7, pc}
 1030              	.L26:
 1031              		.loc 1 446 0
 1032 001c 2046     		mov	r0, r4
 1033 001e FFF7FEFF 		bl	chMtxTryLock
 1034              	.LVL88:
 1035              		.loc 1 447 0
 1036 0022 D0F10101 		rsbs	r1, r0, #1
 1037 0026 38BF     		it	cc
 1038 0028 0021     		movcc	r1, #0
 1039 002a 0220     		movs	r0, #2
 1040              	.LVL89:
 1041 002c FFF7FEFF 		bl	_test_assert
 1042              	.LVL90:
 1043 0030 0746     		mov	r7, r0
 1044 0032 0028     		cmp	r0, #0
 1045 0034 F1D1     		bne	.L22
 1046              	.LBB5:
 1047              		.loc 1 449 0
 1048 0036 2023     		movs	r3, #32
 1049              	.LVL91:
 1050              	@ 449 "../../test/testmtx.c" 1
 1051 0038 83F31188 		msr     BASEPRI, r3
 1052              	@ 0 "" 2
 1053              	.LVL92:
 1054              		.thumb
 1055              	.LBE5:
 1056              		.loc 1 450 0
 1057 003c FFF7FEFF 		bl	chMtxUnlockS
 1058              	.LVL93:
 1059              	.LBB6:
 1060              		.loc 1 451 0
 1061 0040 3B46     		mov	r3, r7
 1062              	.LVL94:
 1063              	@ 451 "../../test/testmtx.c" 1
 1064 0042 83F31188 		msr     BASEPRI, r3
 1065              	@ 0 "" 2
 1066              	.LVL95:
 1067              		.thumb
 1068              	.LBE6:
 1069              		.loc 1 453 0
 1070 0046 2168     		ldr	r1, [r4, #0]
 1071 0048 0320     		movs	r0, #3
 1072 004a B1EB040C 		subs	ip, r1, r4
 1073 004e DCF10001 		rsbs	r1, ip, #0
 1074 0052 51EB0C01 		adcs	r1, r1, ip
 1075 0056 FFF7FEFF 		bl	_test_assert
 1076              	.LVL96:
 1077 005a 0028     		cmp	r0, #0
 1078 005c DDD1     		bne	.L22
 1079              		.loc 1 454 0
 1080 005e A168     		ldr	r1, [r4, #8]
 1081 0060 0420     		movs	r0, #4
ARM GAS  /tmp/cc4PZCgV.s 			page 20


 1082 0062 D1F10101 		rsbs	r1, r1, #1
 1083 0066 38BF     		it	cc
 1084 0068 0021     		movcc	r1, #0
 1085 006a FFF7FEFF 		bl	_test_assert
 1086              	.LVL97:
 1087 006e 0028     		cmp	r0, #0
 1088 0070 D3D1     		bne	.L22
 1089              		.loc 1 455 0
 1090 0072 AB69     		ldr	r3, [r5, #24]
 1091 0074 9968     		ldr	r1, [r3, #8]
 1092 0076 0520     		movs	r0, #5
 1093 0078 B1EB060E 		subs	lr, r1, r6
 1094 007c DEF10001 		rsbs	r1, lr, #0
 1095 0080 51EB0E01 		adcs	r1, r1, lr
 1096 0084 FFF7FEFF 		bl	_test_assert
 1097              	.LVL98:
 1098 0088 0028     		cmp	r0, #0
 1099 008a C6D1     		bne	.L22
 1100              		.loc 1 457 0
 1101 008c 2046     		mov	r0, r4
 1102 008e FFF7FEFF 		bl	chMtxLock
 1103              	.LVL99:
 1104              		.loc 1 458 0
 1105 0092 FFF7FEFF 		bl	chMtxUnlockAll
 1106              	.LVL100:
 1107              		.loc 1 459 0
 1108 0096 2168     		ldr	r1, [r4, #0]
 1109 0098 0620     		movs	r0, #6
 1110 009a 0A1B     		subs	r2, r1, r4
 1111 009c 5142     		rsbs	r1, r2, #0
 1112 009e 5141     		adcs	r1, r1, r2
 1113 00a0 FFF7FEFF 		bl	_test_assert
 1114              	.LVL101:
 1115 00a4 0028     		cmp	r0, #0
 1116 00a6 B8D1     		bne	.L22
 1117              		.loc 1 460 0
 1118 00a8 A168     		ldr	r1, [r4, #8]
 1119 00aa 0720     		movs	r0, #7
 1120 00ac D1F10101 		rsbs	r1, r1, #1
 1121 00b0 38BF     		it	cc
 1122 00b2 0021     		movcc	r1, #0
 1123              		.loc 1 461 0
 1124 00b4 BDE8F840 		pop	{r3, r4, r5, r6, r7, lr}
 1125              		.loc 1 460 0
 1126 00b8 FFF7FEBF 		b	_test_assert
 1127              	.LVL102:
 1128              	.L28:
 1129              		.align	2
 1130              	.L27:
 1131 00bc 00000000 		.word	rlist
 1132 00c0 00000000 		.word	.LANCHOR2
 1133              		.cfi_endproc
 1134              	.LFE27:
 1135              		.size	mtx5_execute, .-mtx5_execute
 1136 00c4 AFF30080 		.section	.text.mtx4_execute,"ax",%progbits
 1136      AFF30080 
 1136      AFF30080 
ARM GAS  /tmp/cc4PZCgV.s 			page 21


 1137              		.align	2
 1138              		.p2align 4,,15
 1139              		.thumb
 1140              		.thumb_func
 1141              		.type	mtx4_execute, %function
 1142              	mtx4_execute:
 1143              	.LFB25:
 1144              		.loc 1 369 0
 1145              		.cfi_startproc
 1146              		@ args = 0, pretend = 0, frame = 8
 1147              		@ frame_needed = 0, uses_anonymous_args = 0
 1148 0000 2DE9F046 		push	{r4, r5, r6, r7, r9, sl, lr}
 1149              	.LCFI18:
 1150              		.cfi_def_cfa_offset 28
 1151              		.cfi_offset 4, -28
 1152              		.cfi_offset 5, -24
 1153              		.cfi_offset 6, -20
 1154              		.cfi_offset 7, -16
 1155              		.cfi_offset 9, -12
 1156              		.cfi_offset 10, -8
 1157              		.cfi_offset 14, -4
 1158              		.loc 1 372 0
 1159 0004 8A4D     		ldr	r5, .L34
 1160              		.loc 1 375 0
 1161 0006 8B4E     		ldr	r6, .L34+4
 1162              		.loc 1 372 0
 1163 0008 AB69     		ldr	r3, [r5, #24]
 1164              		.loc 1 375 0
 1165 000a 3268     		ldr	r2, [r6, #0]
 1166              		.loc 1 372 0
 1167 000c 9C68     		ldr	r4, [r3, #8]
 1168              	.LVL103:
 1169              		.loc 1 375 0
 1170 000e 8A4B     		ldr	r3, .L34+8
 1171 0010 8A4F     		ldr	r7, .L34+12
 1172              		.loc 1 369 0
 1173 0012 85B0     		sub	sp, sp, #20
 1174              	.LCFI19:
 1175              		.cfi_def_cfa_offset 48
 1176              		.loc 1 373 0
 1177 0014 04F10109 		add	r9, r4, #1
 1178              	.LVL104:
 1179              		.loc 1 375 0
 1180 0018 0392     		str	r2, [sp, #12]
 1181 001a 894A     		ldr	r2, .L34+16
 1182 001c 0398     		ldr	r0, [sp, #12]
 1183 001e 0092     		str	r2, [sp, #0]
 1184 0020 4FF49871 		mov	r1, #304
 1185 0024 4A46     		mov	r2, r9
 1186 0026 FFF7FEFF 		bl	chThdCreateStatic
 1187              	.LVL105:
 1188              		.loc 1 376 0
 1189 002a 7668     		ldr	r6, [r6, #4]
 1190              		.loc 1 375 0
 1191 002c 3860     		str	r0, [r7, #0]
 1192              		.loc 1 376 0
 1193 002e 8548     		ldr	r0, .L34+20
ARM GAS  /tmp/cc4PZCgV.s 			page 22


 1194 0030 854B     		ldr	r3, .L34+24
 1195 0032 0090     		str	r0, [sp, #0]
 1196              		.loc 1 374 0
 1197 0034 04F1020A 		add	sl, r4, #2
 1198              	.LVL106:
 1199              		.loc 1 376 0
 1200 0038 4FF49871 		mov	r1, #304
 1201 003c 5246     		mov	r2, sl
 1202 003e 3046     		mov	r0, r6
 1203 0040 FFF7FEFF 		bl	chThdCreateStatic
 1204              	.LVL107:
 1205 0044 7860     		str	r0, [r7, #4]
 1206              		.loc 1 377 0
 1207 0046 8148     		ldr	r0, .L34+28
 1208 0048 FFF7FEFF 		bl	chMtxLock
 1209              	.LVL108:
 1210              		.loc 1 378 0
 1211 004c AB69     		ldr	r3, [r5, #24]
 1212 004e 9968     		ldr	r1, [r3, #8]
 1213 0050 0120     		movs	r0, #1
 1214 0052 0A1B     		subs	r2, r1, r4
 1215 0054 5142     		rsbs	r1, r2, #0
 1216 0056 5141     		adcs	r1, r1, r2
 1217 0058 FFF7FEFF 		bl	_test_assert
 1218              	.LVL109:
 1219 005c 10B1     		cbz	r0, .L33
 1220              	.L29:
 1221              		.loc 1 413 0
 1222 005e 05B0     		add	sp, sp, #20
 1223 0060 BDE8F086 		pop	{r4, r5, r6, r7, r9, sl, pc}
 1224              	.L33:
 1225              		.loc 1 379 0
 1226 0064 6420     		movs	r0, #100
 1227 0066 FFF7FEFF 		bl	chThdSleep
 1228              	.LVL110:
 1229              		.loc 1 380 0
 1230 006a AB69     		ldr	r3, [r5, #24]
 1231 006c 9968     		ldr	r1, [r3, #8]
 1232 006e 0220     		movs	r0, #2
 1233 0070 B1EB0903 		subs	r3, r1, r9
 1234 0074 5942     		rsbs	r1, r3, #0
 1235 0076 5941     		adcs	r1, r1, r3
 1236 0078 FFF7FEFF 		bl	_test_assert
 1237              	.LVL111:
 1238 007c 0028     		cmp	r0, #0
 1239 007e EED1     		bne	.L29
 1240              		.loc 1 381 0
 1241 0080 7348     		ldr	r0, .L34+32
 1242 0082 FFF7FEFF 		bl	chMtxLock
 1243              	.LVL112:
 1244              		.loc 1 382 0
 1245 0086 AB69     		ldr	r3, [r5, #24]
 1246 0088 9968     		ldr	r1, [r3, #8]
 1247 008a 0320     		movs	r0, #3
 1248 008c B1EB090C 		subs	ip, r1, r9
 1249 0090 DCF10001 		rsbs	r1, ip, #0
 1250 0094 51EB0C01 		adcs	r1, r1, ip
ARM GAS  /tmp/cc4PZCgV.s 			page 23


 1251 0098 FFF7FEFF 		bl	_test_assert
 1252              	.LVL113:
 1253 009c 0028     		cmp	r0, #0
 1254 009e DED1     		bne	.L29
 1255              		.loc 1 383 0
 1256 00a0 6420     		movs	r0, #100
 1257 00a2 FFF7FEFF 		bl	chThdSleep
 1258              	.LVL114:
 1259              		.loc 1 384 0
 1260 00a6 AB69     		ldr	r3, [r5, #24]
 1261 00a8 9968     		ldr	r1, [r3, #8]
 1262 00aa 0420     		movs	r0, #4
 1263 00ac B1EB0A0E 		subs	lr, r1, sl
 1264 00b0 DEF10001 		rsbs	r1, lr, #0
 1265 00b4 51EB0E01 		adcs	r1, r1, lr
 1266 00b8 FFF7FEFF 		bl	_test_assert
 1267              	.LVL115:
 1268 00bc 0028     		cmp	r0, #0
 1269 00be CED1     		bne	.L29
 1270              		.loc 1 385 0
 1271 00c0 FFF7FEFF 		bl	chMtxUnlock
 1272              	.LVL116:
 1273              		.loc 1 386 0
 1274 00c4 AB69     		ldr	r3, [r5, #24]
 1275 00c6 9968     		ldr	r1, [r3, #8]
 1276 00c8 0520     		movs	r0, #5
 1277 00ca B1EB0902 		subs	r2, r1, r9
 1278 00ce 5142     		rsbs	r1, r2, #0
 1279 00d0 5141     		adcs	r1, r1, r2
 1280 00d2 FFF7FEFF 		bl	_test_assert
 1281              	.LVL117:
 1282 00d6 0028     		cmp	r0, #0
 1283 00d8 C1D1     		bne	.L29
 1284              		.loc 1 387 0
 1285 00da 6420     		movs	r0, #100
 1286 00dc FFF7FEFF 		bl	chThdSleep
 1287              	.LVL118:
 1288              		.loc 1 388 0
 1289 00e0 AB69     		ldr	r3, [r5, #24]
 1290 00e2 9968     		ldr	r1, [r3, #8]
 1291 00e4 0620     		movs	r0, #6
 1292 00e6 B1EB0903 		subs	r3, r1, r9
 1293 00ea 5942     		rsbs	r1, r3, #0
 1294 00ec 5941     		adcs	r1, r1, r3
 1295 00ee FFF7FEFF 		bl	_test_assert
 1296              	.LVL119:
 1297 00f2 0028     		cmp	r0, #0
 1298 00f4 B3D1     		bne	.L29
 1299              		.loc 1 389 0
 1300 00f6 FFF7FEFF 		bl	chMtxUnlockAll
 1301              	.LVL120:
 1302              		.loc 1 390 0
 1303 00fa AB69     		ldr	r3, [r5, #24]
 1304 00fc 9968     		ldr	r1, [r3, #8]
 1305 00fe 0720     		movs	r0, #7
 1306 0100 B1EB040C 		subs	ip, r1, r4
 1307 0104 DCF10001 		rsbs	r1, ip, #0
ARM GAS  /tmp/cc4PZCgV.s 			page 24


 1308 0108 51EB0C01 		adcs	r1, r1, ip
 1309 010c FFF7FEFF 		bl	_test_assert
 1310              	.LVL121:
 1311 0110 0028     		cmp	r0, #0
 1312 0112 A4D1     		bne	.L29
 1313              		.loc 1 391 0
 1314 0114 FFF7FEFF 		bl	test_wait_threads
 1315              	.LVL122:
 1316              		.loc 1 394 0
 1317 0118 4E4A     		ldr	r2, .L34+36
 1318 011a 474B     		ldr	r3, .L34+8
 1319 011c 0092     		str	r2, [sp, #0]
 1320 011e 4FF49871 		mov	r1, #304
 1321 0122 4A46     		mov	r2, r9
 1322 0124 0398     		ldr	r0, [sp, #12]
 1323 0126 FFF7FEFF 		bl	chThdCreateStatic
 1324              	.LVL123:
 1325 012a 3860     		str	r0, [r7, #0]
 1326              		.loc 1 395 0
 1327 012c 4A48     		ldr	r0, .L34+40
 1328 012e 464B     		ldr	r3, .L34+24
 1329 0130 0090     		str	r0, [sp, #0]
 1330 0132 4FF49871 		mov	r1, #304
 1331 0136 5246     		mov	r2, sl
 1332 0138 3046     		mov	r0, r6
 1333 013a FFF7FEFF 		bl	chThdCreateStatic
 1334              	.LVL124:
 1335 013e 7860     		str	r0, [r7, #4]
 1336              		.loc 1 396 0
 1337 0140 4248     		ldr	r0, .L34+28
 1338 0142 FFF7FEFF 		bl	chMtxLock
 1339              	.LVL125:
 1340              		.loc 1 397 0
 1341 0146 AB69     		ldr	r3, [r5, #24]
 1342 0148 9968     		ldr	r1, [r3, #8]
 1343 014a 0820     		movs	r0, #8
 1344 014c B1EB040E 		subs	lr, r1, r4
 1345 0150 DEF10001 		rsbs	r1, lr, #0
 1346 0154 51EB0E01 		adcs	r1, r1, lr
 1347 0158 FFF7FEFF 		bl	_test_assert
 1348              	.LVL126:
 1349 015c 0028     		cmp	r0, #0
 1350 015e 7FF47EAF 		bne	.L29
 1351              		.loc 1 398 0
 1352 0162 6420     		movs	r0, #100
 1353 0164 FFF7FEFF 		bl	chThdSleep
 1354              	.LVL127:
 1355              		.loc 1 399 0
 1356 0168 AB69     		ldr	r3, [r5, #24]
 1357 016a 9968     		ldr	r1, [r3, #8]
 1358 016c 0920     		movs	r0, #9
 1359 016e B1EB0902 		subs	r2, r1, r9
 1360 0172 5142     		rsbs	r1, r2, #0
 1361 0174 5141     		adcs	r1, r1, r2
 1362 0176 FFF7FEFF 		bl	_test_assert
 1363              	.LVL128:
 1364 017a 0028     		cmp	r0, #0
ARM GAS  /tmp/cc4PZCgV.s 			page 25


 1365 017c 7FF46FAF 		bne	.L29
 1366              		.loc 1 400 0
 1367 0180 3348     		ldr	r0, .L34+32
 1368 0182 FFF7FEFF 		bl	chMtxLock
 1369              	.LVL129:
 1370              		.loc 1 401 0
 1371 0186 AB69     		ldr	r3, [r5, #24]
 1372 0188 9968     		ldr	r1, [r3, #8]
 1373 018a 0A20     		movs	r0, #10
 1374 018c B1EB0903 		subs	r3, r1, r9
 1375 0190 5942     		rsbs	r1, r3, #0
 1376 0192 5941     		adcs	r1, r1, r3
 1377 0194 FFF7FEFF 		bl	_test_assert
 1378              	.LVL130:
 1379 0198 0028     		cmp	r0, #0
 1380 019a 7FF460AF 		bne	.L29
 1381              		.loc 1 402 0
 1382 019e 6420     		movs	r0, #100
 1383 01a0 FFF7FEFF 		bl	chThdSleep
 1384              	.LVL131:
 1385              		.loc 1 403 0
 1386 01a4 AB69     		ldr	r3, [r5, #24]
 1387 01a6 9968     		ldr	r1, [r3, #8]
 1388 01a8 0B20     		movs	r0, #11
 1389 01aa B1EB0A0C 		subs	ip, r1, sl
 1390 01ae DCF10001 		rsbs	r1, ip, #0
 1391 01b2 51EB0C01 		adcs	r1, r1, ip
 1392 01b6 FFF7FEFF 		bl	_test_assert
 1393              	.LVL132:
 1394 01ba 0646     		mov	r6, r0
 1395 01bc 0028     		cmp	r0, #0
 1396 01be 7FF44EAF 		bne	.L29
 1397              	.LBB7:
 1398              		.loc 1 404 0
 1399 01c2 2023     		movs	r3, #32
 1400              	.LVL133:
 1401              	@ 404 "../../test/testmtx.c" 1
 1402 01c4 83F31188 		msr     BASEPRI, r3
 1403              	@ 0 "" 2
 1404              	.LVL134:
 1405              		.thumb
 1406              	.LBE7:
 1407              		.loc 1 405 0
 1408 01c8 FFF7FEFF 		bl	chMtxUnlockS
 1409              	.LVL135:
 1410              	.LBB8:
 1411              		.loc 1 406 0
 1412 01cc 3346     		mov	r3, r6
 1413              	.LVL136:
 1414              	@ 406 "../../test/testmtx.c" 1
 1415 01ce 83F31188 		msr     BASEPRI, r3
 1416              	@ 0 "" 2
 1417              	.LVL137:
 1418              		.thumb
 1419              	.LBE8:
 1420              		.loc 1 407 0
 1421 01d2 AB69     		ldr	r3, [r5, #24]
ARM GAS  /tmp/cc4PZCgV.s 			page 26


 1422              	.LVL138:
 1423 01d4 9968     		ldr	r1, [r3, #8]
 1424 01d6 0C20     		movs	r0, #12
 1425 01d8 B1EB090E 		subs	lr, r1, r9
 1426 01dc DEF10001 		rsbs	r1, lr, #0
 1427 01e0 51EB0E01 		adcs	r1, r1, lr
 1428 01e4 FFF7FEFF 		bl	_test_assert
 1429              	.LVL139:
 1430 01e8 0028     		cmp	r0, #0
 1431 01ea 7FF438AF 		bne	.L29
 1432              		.loc 1 408 0
 1433 01ee 6420     		movs	r0, #100
 1434 01f0 FFF7FEFF 		bl	chThdSleep
 1435              	.LVL140:
 1436              		.loc 1 409 0
 1437 01f4 AB69     		ldr	r3, [r5, #24]
 1438 01f6 9968     		ldr	r1, [r3, #8]
 1439 01f8 0D20     		movs	r0, #13
 1440 01fa B1EB0902 		subs	r2, r1, r9
 1441 01fe 5142     		rsbs	r1, r2, #0
 1442 0200 5141     		adcs	r1, r1, r2
 1443 0202 FFF7FEFF 		bl	_test_assert
 1444              	.LVL141:
 1445 0206 0028     		cmp	r0, #0
 1446 0208 7FF429AF 		bne	.L29
 1447              		.loc 1 410 0
 1448 020c FFF7FEFF 		bl	chMtxUnlockAll
 1449              	.LVL142:
 1450              		.loc 1 411 0
 1451 0210 AB69     		ldr	r3, [r5, #24]
 1452 0212 9968     		ldr	r1, [r3, #8]
 1453 0214 0E20     		movs	r0, #14
 1454 0216 0B1B     		subs	r3, r1, r4
 1455 0218 5942     		rsbs	r1, r3, #0
 1456 021a 5941     		adcs	r1, r1, r3
 1457 021c FFF7FEFF 		bl	_test_assert
 1458              	.LVL143:
 1459 0220 0028     		cmp	r0, #0
 1460 0222 7FF41CAF 		bne	.L29
 1461              		.loc 1 413 0
 1462 0226 05B0     		add	sp, sp, #20
 1463 0228 BDE8F046 		pop	{r4, r5, r6, r7, r9, sl, lr}
 1464              		.loc 1 412 0
 1465 022c FFF7FEBF 		b	test_wait_threads
 1466              	.LVL144:
 1467              	.L35:
 1468              		.align	2
 1469              	.L34:
 1470 0230 00000000 		.word	rlist
 1471 0234 00000000 		.word	wa
 1472 0238 00000000 		.word	thread4a
 1473 023c 00000000 		.word	threads
 1474 0240 08000000 		.word	.LC2
 1475 0244 00000000 		.word	.LC0
 1476 0248 00000000 		.word	thread4b
 1477 024c 00000000 		.word	.LANCHOR1
 1478 0250 00000000 		.word	.LANCHOR2
ARM GAS  /tmp/cc4PZCgV.s 			page 27


 1479 0254 14000000 		.word	.LC5
 1480 0258 04000000 		.word	.LC1
 1481              		.cfi_endproc
 1482              	.LFE25:
 1483              		.size	mtx4_execute, .-mtx4_execute
 1484 025c AFF30080 		.section	.text.thread4b,"ax",%progbits
 1485              		.align	2
 1486              		.p2align 4,,15
 1487              		.thumb
 1488              		.thumb_func
 1489              		.type	thread4b, %function
 1490              	thread4b:
 1491              	.LFB24:
 1492              		.loc 1 360 0
 1493              		.cfi_startproc
 1494              		@ args = 0, pretend = 0, frame = 0
 1495              		@ frame_needed = 0, uses_anonymous_args = 0
 1496              	.LVL145:
 1497 0000 08B5     		push	{r3, lr}
 1498              	.LCFI20:
 1499              		.cfi_def_cfa_offset 8
 1500              		.cfi_offset 3, -8
 1501              		.cfi_offset 14, -4
 1502              		.loc 1 363 0
 1503 0002 9620     		movs	r0, #150
 1504              	.LVL146:
 1505 0004 FFF7FEFF 		bl	chThdSleep
 1506              	.LVL147:
 1507              		.loc 1 364 0
 1508 0008 40F20000 		movw	r0, #:lower16:.LANCHOR2
 1509 000c C0F20000 		movt	r0, #:upper16:.LANCHOR2
 1510 0010 FFF7FEFF 		bl	chMtxLock
 1511              	.LVL148:
 1512              		.loc 1 365 0
 1513 0014 FFF7FEFF 		bl	chMtxUnlock
 1514              	.LVL149:
 1515              		.loc 1 367 0
 1516 0018 0020     		movs	r0, #0
 1517 001a 08BD     		pop	{r3, pc}
 1518              		.cfi_endproc
 1519              	.LFE24:
 1520              		.size	thread4b, .-thread4b
 1521 001c AFF30080 		.section	.text.thread4a,"ax",%progbits
 1522              		.align	2
 1523              		.p2align 4,,15
 1524              		.thumb
 1525              		.thumb_func
 1526              		.type	thread4a, %function
 1527              	thread4a:
 1528              	.LFB23:
 1529              		.loc 1 351 0
 1530              		.cfi_startproc
 1531              		@ args = 0, pretend = 0, frame = 0
 1532              		@ frame_needed = 0, uses_anonymous_args = 0
 1533              	.LVL150:
 1534 0000 08B5     		push	{r3, lr}
 1535              	.LCFI21:
ARM GAS  /tmp/cc4PZCgV.s 			page 28


 1536              		.cfi_def_cfa_offset 8
 1537              		.cfi_offset 3, -8
 1538              		.cfi_offset 14, -4
 1539              		.loc 1 354 0
 1540 0002 3220     		movs	r0, #50
 1541              	.LVL151:
 1542 0004 FFF7FEFF 		bl	chThdSleep
 1543              	.LVL152:
 1544              		.loc 1 355 0
 1545 0008 40F20000 		movw	r0, #:lower16:.LANCHOR1
 1546 000c C0F20000 		movt	r0, #:upper16:.LANCHOR1
 1547 0010 FFF7FEFF 		bl	chMtxLock
 1548              	.LVL153:
 1549              		.loc 1 356 0
 1550 0014 FFF7FEFF 		bl	chMtxUnlock
 1551              	.LVL154:
 1552              		.loc 1 358 0
 1553 0018 0020     		movs	r0, #0
 1554 001a 08BD     		pop	{r3, pc}
 1555              		.cfi_endproc
 1556              	.LFE23:
 1557              		.size	thread4a, .-thread4a
 1558 001c AFF30080 		.section	.text.mtx3_execute,"ax",%progbits
 1559              		.align	2
 1560              		.p2align 4,,15
 1561              		.thumb
 1562              		.thumb_func
 1563              		.type	mtx3_execute, %function
 1564              	mtx3_execute:
 1565              	.LFB21:
 1566              		.loc 1 312 0
 1567              		.cfi_startproc
 1568              		@ args = 0, pretend = 0, frame = 8
 1569              		@ frame_needed = 0, uses_anonymous_args = 0
 1570 0000 2DE9F041 		push	{r4, r5, r6, r7, r8, lr}
 1571              	.LCFI22:
 1572              		.cfi_def_cfa_offset 24
 1573              		.cfi_offset 4, -24
 1574              		.cfi_offset 5, -20
 1575              		.cfi_offset 6, -16
 1576              		.cfi_offset 7, -12
 1577              		.cfi_offset 8, -8
 1578              		.cfi_offset 14, -4
 1579              		.loc 1 317 0
 1580 0004 304E     		ldr	r6, .L41
 1581 0006 DFF8E480 		ldr	r8, .L41+36
 1582 000a 304C     		ldr	r4, .L41+4
 1583              		.loc 1 312 0
 1584 000c 84B0     		sub	sp, sp, #16
 1585              	.LCFI23:
 1586              		.cfi_def_cfa_offset 40
 1587              		.loc 1 315 0
 1588 000e FFF7FEFF 		bl	test_wait_tick
 1589              	.LVL155:
 1590              		.loc 1 317 0
 1591 0012 B369     		ldr	r3, [r6, #24]
 1592              		.loc 1 316 0
ARM GAS  /tmp/cc4PZCgV.s 			page 29


 1593 0014 2E49     		ldr	r1, .L41+8
 1594              		.loc 1 317 0
 1595 0016 9A68     		ldr	r2, [r3, #8]
 1596              		.loc 1 316 0
 1597 0018 CF68     		ldr	r7, [r1, #12]
 1598              	.LVL156:
 1599              		.loc 1 317 0
 1600 001a 2E4B     		ldr	r3, .L41+12
 1601 001c D8F80000 		ldr	r0, [r8, #0]
 1602 0020 0025     		movs	r5, #0
 1603 0022 4FF49871 		mov	r1, #304
 1604 0026 053A     		subs	r2, r2, #5
 1605 0028 0095     		str	r5, [sp, #0]
 1606 002a FFF7FEFF 		bl	chThdCreateStatic
 1607              	.LVL157:
 1608              		.loc 1 318 0
 1609 002e B369     		ldr	r3, [r6, #24]
 1610 0030 D8F80420 		ldr	r2, [r8, #4]
 1611 0034 0392     		str	r2, [sp, #12]
 1612 0036 9A68     		ldr	r2, [r3, #8]
 1613              		.loc 1 317 0
 1614 0038 2060     		str	r0, [r4, #0]
 1615              		.loc 1 318 0
 1616 003a 4FF49871 		mov	r1, #304
 1617 003e 043A     		subs	r2, r2, #4
 1618 0040 254B     		ldr	r3, .L41+16
 1619 0042 0095     		str	r5, [sp, #0]
 1620 0044 0398     		ldr	r0, [sp, #12]
 1621 0046 FFF7FEFF 		bl	chThdCreateStatic
 1622              	.LVL158:
 1623              		.loc 1 319 0
 1624 004a B369     		ldr	r3, [r6, #24]
 1625 004c D8F80820 		ldr	r2, [r8, #8]
 1626 0050 0392     		str	r2, [sp, #12]
 1627 0052 9A68     		ldr	r2, [r3, #8]
 1628              		.loc 1 318 0
 1629 0054 6060     		str	r0, [r4, #4]
 1630              		.loc 1 319 0
 1631 0056 4FF49871 		mov	r1, #304
 1632 005a 033A     		subs	r2, r2, #3
 1633 005c 1F4B     		ldr	r3, .L41+20
 1634 005e 0095     		str	r5, [sp, #0]
 1635 0060 0398     		ldr	r0, [sp, #12]
 1636 0062 FFF7FEFF 		bl	chThdCreateStatic
 1637              	.LVL159:
 1638              		.loc 1 320 0
 1639 0066 B369     		ldr	r3, [r6, #24]
 1640 0068 D8F80C20 		ldr	r2, [r8, #12]
 1641 006c 0392     		str	r2, [sp, #12]
 1642 006e 9A68     		ldr	r2, [r3, #8]
 1643              		.loc 1 319 0
 1644 0070 A060     		str	r0, [r4, #8]
 1645              		.loc 1 320 0
 1646 0072 4FF49871 		mov	r1, #304
 1647 0076 023A     		subs	r2, r2, #2
 1648 0078 194B     		ldr	r3, .L41+24
 1649 007a 0095     		str	r5, [sp, #0]
ARM GAS  /tmp/cc4PZCgV.s 			page 30


 1650 007c 0398     		ldr	r0, [sp, #12]
 1651 007e FFF7FEFF 		bl	chThdCreateStatic
 1652              	.LVL160:
 1653              		.loc 1 321 0
 1654 0082 B369     		ldr	r3, [r6, #24]
 1655 0084 D8F81060 		ldr	r6, [r8, #16]
 1656 0088 9A68     		ldr	r2, [r3, #8]
 1657              		.loc 1 320 0
 1658 008a E060     		str	r0, [r4, #12]
 1659              		.loc 1 321 0
 1660 008c 4FF49871 		mov	r1, #304
 1661 0090 013A     		subs	r2, r2, #1
 1662 0092 144B     		ldr	r3, .L41+28
 1663 0094 0095     		str	r5, [sp, #0]
 1664 0096 3046     		mov	r0, r6
 1665 0098 FFF7FEFF 		bl	chThdCreateStatic
 1666              	.LVL161:
 1667 009c 2061     		str	r0, [r4, #16]
 1668              		.loc 1 322 0
 1669 009e FFF7FEFF 		bl	test_wait_threads
 1670              	.LVL162:
 1671              		.loc 1 323 0
 1672 00a2 0120     		movs	r0, #1
 1673 00a4 1049     		ldr	r1, .L41+32
 1674 00a6 FFF7FEFF 		bl	_test_assert_sequence
 1675              	.LVL163:
 1676 00aa 10B1     		cbz	r0, .L40
 1677              		.loc 1 325 0
 1678 00ac 04B0     		add	sp, sp, #16
 1679 00ae BDE8F081 		pop	{r4, r5, r6, r7, r8, pc}
 1680              	.L40:
 1681              		.loc 1 324 0
 1682 00b2 0220     		movs	r0, #2
 1683 00b4 07F16E01 		add	r1, r7, #110
 1684 00b8 07F17302 		add	r2, r7, #115
 1685              		.loc 1 325 0
 1686 00bc 04B0     		add	sp, sp, #16
 1687 00be BDE8F041 		pop	{r4, r5, r6, r7, r8, lr}
 1688              		.loc 1 324 0
 1689 00c2 FFF7FEBF 		b	_test_assert_time_window
 1690              	.LVL164:
 1691              	.L42:
 1692 00c6 00BF     		.align	2
 1693              	.L41:
 1694 00c8 00000000 		.word	rlist
 1695 00cc 00000000 		.word	threads
 1696 00d0 00000000 		.word	vtlist
 1697 00d4 00000000 		.word	thread3LL
 1698 00d8 00000000 		.word	thread3L
 1699 00dc 00000000 		.word	thread3M
 1700 00e0 00000000 		.word	thread3H
 1701 00e4 00000000 		.word	thread3HH
 1702 00e8 18000000 		.word	.LC6
 1703 00ec 00000000 		.word	wa
 1704              		.cfi_endproc
 1705              	.LFE21:
 1706              		.size	mtx3_execute, .-mtx3_execute
ARM GAS  /tmp/cc4PZCgV.s 			page 31


 1707              		.section	.text.mtx2_execute,"ax",%progbits
 1708              		.align	2
 1709              		.p2align 4,,15
 1710              		.thumb
 1711              		.thumb_func
 1712              		.type	mtx2_execute, %function
 1713              	mtx2_execute:
 1714              	.LFB14:
 1715              		.loc 1 194 0
 1716              		.cfi_startproc
 1717              		@ args = 0, pretend = 0, frame = 8
 1718              		@ frame_needed = 0, uses_anonymous_args = 0
 1719 0000 2DE9F041 		push	{r4, r5, r6, r7, r8, lr}
 1720              	.LCFI24:
 1721              		.cfi_def_cfa_offset 24
 1722              		.cfi_offset 4, -24
 1723              		.cfi_offset 5, -20
 1724              		.cfi_offset 6, -16
 1725              		.cfi_offset 7, -12
 1726              		.cfi_offset 8, -8
 1727              		.cfi_offset 14, -4
 1728              		.loc 1 199 0
 1729 0004 224E     		ldr	r6, .L46
 1730 0006 DFF8A480 		ldr	r8, .L46+28
 1731 000a 224C     		ldr	r4, .L46+4
 1732              		.loc 1 194 0
 1733 000c 84B0     		sub	sp, sp, #16
 1734              	.LCFI25:
 1735              		.cfi_def_cfa_offset 40
 1736              		.loc 1 197 0
 1737 000e FFF7FEFF 		bl	test_wait_tick
 1738              	.LVL165:
 1739              		.loc 1 199 0
 1740 0012 B369     		ldr	r3, [r6, #24]
 1741              		.loc 1 198 0
 1742 0014 2049     		ldr	r1, .L46+8
 1743              		.loc 1 199 0
 1744 0016 9A68     		ldr	r2, [r3, #8]
 1745              		.loc 1 198 0
 1746 0018 CF68     		ldr	r7, [r1, #12]
 1747              	.LVL166:
 1748              		.loc 1 199 0
 1749 001a 204B     		ldr	r3, .L46+12
 1750 001c D8F80000 		ldr	r0, [r8, #0]
 1751 0020 0025     		movs	r5, #0
 1752 0022 4FF49871 		mov	r1, #304
 1753 0026 013A     		subs	r2, r2, #1
 1754 0028 0095     		str	r5, [sp, #0]
 1755 002a FFF7FEFF 		bl	chThdCreateStatic
 1756              	.LVL167:
 1757              		.loc 1 200 0
 1758 002e B369     		ldr	r3, [r6, #24]
 1759 0030 D8F80420 		ldr	r2, [r8, #4]
 1760 0034 0392     		str	r2, [sp, #12]
 1761 0036 9A68     		ldr	r2, [r3, #8]
 1762              		.loc 1 199 0
 1763 0038 2060     		str	r0, [r4, #0]
ARM GAS  /tmp/cc4PZCgV.s 			page 32


 1764              		.loc 1 200 0
 1765 003a 4FF49871 		mov	r1, #304
 1766 003e 023A     		subs	r2, r2, #2
 1767 0040 174B     		ldr	r3, .L46+16
 1768 0042 0095     		str	r5, [sp, #0]
 1769 0044 0398     		ldr	r0, [sp, #12]
 1770 0046 FFF7FEFF 		bl	chThdCreateStatic
 1771              	.LVL168:
 1772              		.loc 1 201 0
 1773 004a B369     		ldr	r3, [r6, #24]
 1774 004c D8F80860 		ldr	r6, [r8, #8]
 1775 0050 9A68     		ldr	r2, [r3, #8]
 1776              		.loc 1 200 0
 1777 0052 6060     		str	r0, [r4, #4]
 1778              		.loc 1 201 0
 1779 0054 4FF49871 		mov	r1, #304
 1780 0058 033A     		subs	r2, r2, #3
 1781 005a 124B     		ldr	r3, .L46+20
 1782 005c 0095     		str	r5, [sp, #0]
 1783 005e 3046     		mov	r0, r6
 1784 0060 FFF7FEFF 		bl	chThdCreateStatic
 1785              	.LVL169:
 1786 0064 A060     		str	r0, [r4, #8]
 1787              		.loc 1 202 0
 1788 0066 FFF7FEFF 		bl	test_wait_threads
 1789              	.LVL170:
 1790              		.loc 1 203 0
 1791 006a 0120     		movs	r0, #1
 1792 006c 0E49     		ldr	r1, .L46+24
 1793 006e FFF7FEFF 		bl	_test_assert_sequence
 1794              	.LVL171:
 1795 0072 10B1     		cbz	r0, .L45
 1796              		.loc 1 205 0
 1797 0074 04B0     		add	sp, sp, #16
 1798 0076 BDE8F081 		pop	{r4, r5, r6, r7, r8, pc}
 1799              	.L45:
 1800              		.loc 1 204 0
 1801 007a 0220     		movs	r0, #2
 1802 007c 07F16401 		add	r1, r7, #100
 1803 0080 07F16902 		add	r2, r7, #105
 1804              		.loc 1 205 0
 1805 0084 04B0     		add	sp, sp, #16
 1806 0086 BDE8F041 		pop	{r4, r5, r6, r7, r8, lr}
 1807              		.loc 1 204 0
 1808 008a FFF7FEBF 		b	_test_assert_time_window
 1809              	.LVL172:
 1810              	.L47:
 1811 008e 00BF     		.align	2
 1812              	.L46:
 1813 0090 00000000 		.word	rlist
 1814 0094 00000000 		.word	threads
 1815 0098 00000000 		.word	vtlist
 1816 009c 00000000 		.word	thread2H
 1817 00a0 00000000 		.word	thread2M
 1818 00a4 00000000 		.word	thread2L
 1819 00a8 0C000000 		.word	.LC3
 1820 00ac 00000000 		.word	wa
ARM GAS  /tmp/cc4PZCgV.s 			page 33


 1821              		.cfi_endproc
 1822              	.LFE14:
 1823              		.size	mtx2_execute, .-mtx2_execute
 1824              		.section	.text.thread3HH,"ax",%progbits
 1825              		.align	2
 1826              		.p2align 4,,15
 1827              		.thumb
 1828              		.thumb_func
 1829              		.type	thread3HH, %function
 1830              	thread3HH:
 1831              	.LFB20:
 1832              		.loc 1 301 0
 1833              		.cfi_startproc
 1834              		@ args = 0, pretend = 0, frame = 0
 1835              		@ frame_needed = 0, uses_anonymous_args = 0
 1836              	.LVL173:
 1837 0000 08B5     		push	{r3, lr}
 1838              	.LCFI26:
 1839              		.cfi_def_cfa_offset 8
 1840              		.cfi_offset 3, -8
 1841              		.cfi_offset 14, -4
 1842              		.loc 1 304 0
 1843 0002 3220     		movs	r0, #50
 1844              	.LVL174:
 1845 0004 FFF7FEFF 		bl	chThdSleep
 1846              	.LVL175:
 1847              		.loc 1 305 0
 1848 0008 40F20000 		movw	r0, #:lower16:.LANCHOR1
 1849 000c C0F20000 		movt	r0, #:upper16:.LANCHOR1
 1850 0010 FFF7FEFF 		bl	chMtxLock
 1851              	.LVL176:
 1852              		.loc 1 306 0
 1853 0014 0A20     		movs	r0, #10
 1854 0016 FFF7FEFF 		bl	test_cpu_pulse
 1855              	.LVL177:
 1856              		.loc 1 307 0
 1857 001a FFF7FEFF 		bl	chMtxUnlock
 1858              	.LVL178:
 1859              		.loc 1 308 0
 1860 001e 4120     		movs	r0, #65
 1861 0020 FFF7FEFF 		bl	test_emit_token
 1862              	.LVL179:
 1863              		.loc 1 310 0
 1864 0024 0020     		movs	r0, #0
 1865 0026 08BD     		pop	{r3, pc}
 1866              		.cfi_endproc
 1867              	.LFE20:
 1868              		.size	thread3HH, .-thread3HH
 1869 0028 AFF30080 		.section	.text.thread3H,"ax",%progbits
 1869      AFF30080 
 1870              		.align	2
 1871              		.p2align 4,,15
 1872              		.thumb
 1873              		.thumb_func
 1874              		.type	thread3H, %function
 1875              	thread3H:
 1876              	.LFB19:
ARM GAS  /tmp/cc4PZCgV.s 			page 34


 1877              		.loc 1 291 0
 1878              		.cfi_startproc
 1879              		@ args = 0, pretend = 0, frame = 0
 1880              		@ frame_needed = 0, uses_anonymous_args = 0
 1881              	.LVL180:
 1882 0000 08B5     		push	{r3, lr}
 1883              	.LCFI27:
 1884              		.cfi_def_cfa_offset 8
 1885              		.cfi_offset 3, -8
 1886              		.cfi_offset 14, -4
 1887              		.loc 1 294 0
 1888 0002 2820     		movs	r0, #40
 1889              	.LVL181:
 1890 0004 FFF7FEFF 		bl	chThdSleep
 1891              	.LVL182:
 1892              		.loc 1 295 0
 1893 0008 1420     		movs	r0, #20
 1894 000a FFF7FEFF 		bl	test_cpu_pulse
 1895              	.LVL183:
 1896              		.loc 1 296 0
 1897 000e 4220     		movs	r0, #66
 1898 0010 FFF7FEFF 		bl	test_emit_token
 1899              	.LVL184:
 1900              		.loc 1 298 0
 1901 0014 0020     		movs	r0, #0
 1902 0016 08BD     		pop	{r3, pc}
 1903              		.cfi_endproc
 1904              	.LFE19:
 1905              		.size	thread3H, .-thread3H
 1906 0018 AFF30080 		.section	.text.thread3M,"ax",%progbits
 1906      AFF30080 
 1907              		.align	2
 1908              		.p2align 4,,15
 1909              		.thumb
 1910              		.thumb_func
 1911              		.type	thread3M, %function
 1912              	thread3M:
 1913              	.LFB18:
 1914              		.loc 1 279 0
 1915              		.cfi_startproc
 1916              		@ args = 0, pretend = 0, frame = 0
 1917              		@ frame_needed = 0, uses_anonymous_args = 0
 1918              	.LVL185:
 1919 0000 08B5     		push	{r3, lr}
 1920              	.LCFI28:
 1921              		.cfi_def_cfa_offset 8
 1922              		.cfi_offset 3, -8
 1923              		.cfi_offset 14, -4
 1924              		.loc 1 282 0
 1925 0002 1420     		movs	r0, #20
 1926              	.LVL186:
 1927 0004 FFF7FEFF 		bl	chThdSleep
 1928              	.LVL187:
 1929              		.loc 1 283 0
 1930 0008 40F20000 		movw	r0, #:lower16:.LANCHOR1
 1931 000c C0F20000 		movt	r0, #:upper16:.LANCHOR1
 1932 0010 FFF7FEFF 		bl	chMtxLock
ARM GAS  /tmp/cc4PZCgV.s 			page 35


 1933              	.LVL188:
 1934              		.loc 1 284 0
 1935 0014 0A20     		movs	r0, #10
 1936 0016 FFF7FEFF 		bl	test_cpu_pulse
 1937              	.LVL189:
 1938              		.loc 1 285 0
 1939 001a FFF7FEFF 		bl	chMtxUnlock
 1940              	.LVL190:
 1941              		.loc 1 286 0
 1942 001e 4320     		movs	r0, #67
 1943 0020 FFF7FEFF 		bl	test_emit_token
 1944              	.LVL191:
 1945              		.loc 1 288 0
 1946 0024 0020     		movs	r0, #0
 1947 0026 08BD     		pop	{r3, pc}
 1948              		.cfi_endproc
 1949              	.LFE18:
 1950              		.size	thread3M, .-thread3M
 1951 0028 AFF30080 		.section	.text.thread3L,"ax",%progbits
 1951      AFF30080 
 1952              		.align	2
 1953              		.p2align 4,,15
 1954              		.thumb
 1955              		.thumb_func
 1956              		.type	thread3L, %function
 1957              	thread3L:
 1958              	.LFB17:
 1959              		.loc 1 263 0
 1960              		.cfi_startproc
 1961              		@ args = 0, pretend = 0, frame = 0
 1962              		@ frame_needed = 0, uses_anonymous_args = 0
 1963              	.LVL192:
 1964 0000 08B5     		push	{r3, lr}
 1965              	.LCFI29:
 1966              		.cfi_def_cfa_offset 8
 1967              		.cfi_offset 3, -8
 1968              		.cfi_offset 14, -4
 1969              		.loc 1 266 0
 1970 0002 0A20     		movs	r0, #10
 1971              	.LVL193:
 1972 0004 FFF7FEFF 		bl	chThdSleep
 1973              	.LVL194:
 1974              		.loc 1 267 0
 1975 0008 40F20000 		movw	r0, #:lower16:.LANCHOR1
 1976 000c C0F20000 		movt	r0, #:upper16:.LANCHOR1
 1977 0010 FFF7FEFF 		bl	chMtxLock
 1978              	.LVL195:
 1979              		.loc 1 268 0
 1980 0014 1420     		movs	r0, #20
 1981 0016 FFF7FEFF 		bl	test_cpu_pulse
 1982              	.LVL196:
 1983              		.loc 1 269 0
 1984 001a 40F20000 		movw	r0, #:lower16:.LANCHOR2
 1985 001e C0F20000 		movt	r0, #:upper16:.LANCHOR2
 1986 0022 FFF7FEFF 		bl	chMtxLock
 1987              	.LVL197:
 1988              		.loc 1 270 0
ARM GAS  /tmp/cc4PZCgV.s 			page 36


 1989 0026 0A20     		movs	r0, #10
 1990 0028 FFF7FEFF 		bl	test_cpu_pulse
 1991              	.LVL198:
 1992              		.loc 1 271 0
 1993 002c FFF7FEFF 		bl	chMtxUnlock
 1994              	.LVL199:
 1995              		.loc 1 272 0
 1996 0030 0A20     		movs	r0, #10
 1997 0032 FFF7FEFF 		bl	test_cpu_pulse
 1998              	.LVL200:
 1999              		.loc 1 273 0
 2000 0036 FFF7FEFF 		bl	chMtxUnlock
 2001              	.LVL201:
 2002              		.loc 1 274 0
 2003 003a 4420     		movs	r0, #68
 2004 003c FFF7FEFF 		bl	test_emit_token
 2005              	.LVL202:
 2006              		.loc 1 276 0
 2007 0040 0020     		movs	r0, #0
 2008 0042 08BD     		pop	{r3, pc}
 2009              		.cfi_endproc
 2010              	.LFE17:
 2011              		.size	thread3L, .-thread3L
 2012 0044 AFF30080 		.section	.text.thread3LL,"ax",%progbits
 2012      AFF30080 
 2012      AFF30080 
 2013              		.align	2
 2014              		.p2align 4,,15
 2015              		.thumb
 2016              		.thumb_func
 2017              		.type	thread3LL, %function
 2018              	thread3LL:
 2019              	.LFB16:
 2020              		.loc 1 252 0
 2021              		.cfi_startproc
 2022              		@ args = 0, pretend = 0, frame = 0
 2023              		@ frame_needed = 0, uses_anonymous_args = 0
 2024              	.LVL203:
 2025              		.loc 1 255 0
 2026 0000 40F20000 		movw	r0, #:lower16:.LANCHOR2
 2027              	.LVL204:
 2028              		.loc 1 252 0
 2029 0004 08B5     		push	{r3, lr}
 2030              	.LCFI30:
 2031              		.cfi_def_cfa_offset 8
 2032              		.cfi_offset 3, -8
 2033              		.cfi_offset 14, -4
 2034              		.loc 1 255 0
 2035 0006 C0F20000 		movt	r0, #:upper16:.LANCHOR2
 2036 000a FFF7FEFF 		bl	chMtxLock
 2037              	.LVL205:
 2038              		.loc 1 256 0
 2039 000e 1E20     		movs	r0, #30
 2040 0010 FFF7FEFF 		bl	test_cpu_pulse
 2041              	.LVL206:
 2042              		.loc 1 257 0
 2043 0014 FFF7FEFF 		bl	chMtxUnlock
ARM GAS  /tmp/cc4PZCgV.s 			page 37


 2044              	.LVL207:
 2045              		.loc 1 258 0
 2046 0018 4520     		movs	r0, #69
 2047 001a FFF7FEFF 		bl	test_emit_token
 2048              	.LVL208:
 2049              		.loc 1 260 0
 2050 001e 0020     		movs	r0, #0
 2051 0020 08BD     		pop	{r3, pc}
 2052              		.cfi_endproc
 2053              	.LFE16:
 2054              		.size	thread3LL, .-thread3LL
 2055 0022 00BFAFF3 		.section	.text.thread2L,"ax",%progbits
 2055      0080AFF3 
 2055      0080AFF3 
 2055      0080
 2056              		.align	2
 2057              		.p2align 4,,15
 2058              		.thumb
 2059              		.thumb_func
 2060              		.type	thread2L, %function
 2061              	thread2L:
 2062              	.LFB11:
 2063              		.loc 1 161 0
 2064              		.cfi_startproc
 2065              		@ args = 0, pretend = 0, frame = 0
 2066              		@ frame_needed = 0, uses_anonymous_args = 0
 2067              	.LVL209:
 2068              		.loc 1 164 0
 2069 0000 40F20000 		movw	r0, #:lower16:.LANCHOR2
 2070              	.LVL210:
 2071              		.loc 1 161 0
 2072 0004 08B5     		push	{r3, lr}
 2073              	.LCFI31:
 2074              		.cfi_def_cfa_offset 8
 2075              		.cfi_offset 3, -8
 2076              		.cfi_offset 14, -4
 2077              		.loc 1 164 0
 2078 0006 C0F20000 		movt	r0, #:upper16:.LANCHOR2
 2079 000a FFF7FEFF 		bl	chMtxLock
 2080              	.LVL211:
 2081              		.loc 1 165 0
 2082 000e 2820     		movs	r0, #40
 2083 0010 FFF7FEFF 		bl	test_cpu_pulse
 2084              	.LVL212:
 2085              		.loc 1 166 0
 2086 0014 FFF7FEFF 		bl	chMtxUnlock
 2087              	.LVL213:
 2088              		.loc 1 167 0
 2089 0018 0A20     		movs	r0, #10
 2090 001a FFF7FEFF 		bl	test_cpu_pulse
 2091              	.LVL214:
 2092              		.loc 1 168 0
 2093 001e 4320     		movs	r0, #67
 2094 0020 FFF7FEFF 		bl	test_emit_token
 2095              	.LVL215:
 2096              		.loc 1 170 0
 2097 0024 0020     		movs	r0, #0
ARM GAS  /tmp/cc4PZCgV.s 			page 38


 2098 0026 08BD     		pop	{r3, pc}
 2099              		.cfi_endproc
 2100              	.LFE11:
 2101              		.size	thread2L, .-thread2L
 2102 0028 AFF30080 		.section	.text.thread2M,"ax",%progbits
 2102      AFF30080 
 2103              		.align	2
 2104              		.p2align 4,,15
 2105              		.thumb
 2106              		.thumb_func
 2107              		.type	thread2M, %function
 2108              	thread2M:
 2109              	.LFB12:
 2110              		.loc 1 173 0
 2111              		.cfi_startproc
 2112              		@ args = 0, pretend = 0, frame = 0
 2113              		@ frame_needed = 0, uses_anonymous_args = 0
 2114              	.LVL216:
 2115 0000 08B5     		push	{r3, lr}
 2116              	.LCFI32:
 2117              		.cfi_def_cfa_offset 8
 2118              		.cfi_offset 3, -8
 2119              		.cfi_offset 14, -4
 2120              		.loc 1 176 0
 2121 0002 1420     		movs	r0, #20
 2122              	.LVL217:
 2123 0004 FFF7FEFF 		bl	chThdSleep
 2124              	.LVL218:
 2125              		.loc 1 177 0
 2126 0008 2820     		movs	r0, #40
 2127 000a FFF7FEFF 		bl	test_cpu_pulse
 2128              	.LVL219:
 2129              		.loc 1 178 0
 2130 000e 4220     		movs	r0, #66
 2131 0010 FFF7FEFF 		bl	test_emit_token
 2132              	.LVL220:
 2133              		.loc 1 180 0
 2134 0014 0020     		movs	r0, #0
 2135 0016 08BD     		pop	{r3, pc}
 2136              		.cfi_endproc
 2137              	.LFE12:
 2138              		.size	thread2M, .-thread2M
 2139 0018 AFF30080 		.section	.text.thread2H,"ax",%progbits
 2139      AFF30080 
 2140              		.align	2
 2141              		.p2align 4,,15
 2142              		.thumb
 2143              		.thumb_func
 2144              		.type	thread2H, %function
 2145              	thread2H:
 2146              	.LFB13:
 2147              		.loc 1 183 0
 2148              		.cfi_startproc
 2149              		@ args = 0, pretend = 0, frame = 0
 2150              		@ frame_needed = 0, uses_anonymous_args = 0
 2151              	.LVL221:
 2152 0000 08B5     		push	{r3, lr}
ARM GAS  /tmp/cc4PZCgV.s 			page 39


 2153              	.LCFI33:
 2154              		.cfi_def_cfa_offset 8
 2155              		.cfi_offset 3, -8
 2156              		.cfi_offset 14, -4
 2157              		.loc 1 186 0
 2158 0002 2820     		movs	r0, #40
 2159              	.LVL222:
 2160 0004 FFF7FEFF 		bl	chThdSleep
 2161              	.LVL223:
 2162              		.loc 1 187 0
 2163 0008 40F20000 		movw	r0, #:lower16:.LANCHOR2
 2164 000c C0F20000 		movt	r0, #:upper16:.LANCHOR2
 2165 0010 FFF7FEFF 		bl	chMtxLock
 2166              	.LVL224:
 2167              		.loc 1 188 0
 2168 0014 0A20     		movs	r0, #10
 2169 0016 FFF7FEFF 		bl	test_cpu_pulse
 2170              	.LVL225:
 2171              		.loc 1 189 0
 2172 001a FFF7FEFF 		bl	chMtxUnlock
 2173              	.LVL226:
 2174              		.loc 1 190 0
 2175 001e 4120     		movs	r0, #65
 2176 0020 FFF7FEFF 		bl	test_emit_token
 2177              	.LVL227:
 2178              		.loc 1 192 0
 2179 0024 0020     		movs	r0, #0
 2180 0026 08BD     		pop	{r3, pc}
 2181              		.cfi_endproc
 2182              	.LFE13:
 2183              		.size	thread2H, .-thread2H
 2184              		.global	patternmtx
 2185              		.global	testmtx8
 2186              		.global	testmtx7
 2187              		.global	testmtx6
 2188              		.global	testmtx5
 2189              		.global	testmtx4
 2190              		.global	testmtx3
 2191              		.global	testmtx2
 2192              		.global	testmtx1
 2193 0028 AFF30080 		.section	.rodata.testmtx5,"a",%progbits
 2193      AFF30080 
 2194              		.align	2
 2195              		.type	testmtx5, %object
 2196              		.size	testmtx5, 16
 2197              	testmtx5:
 2198 0000 64000000 		.word	.LC10
 2199 0004 00000000 		.word	mtx5_setup
 2200 0008 00000000 		.word	0
 2201 000c 00000000 		.word	mtx5_execute
 2202              		.section	.rodata.testmtx6,"a",%progbits
 2203              		.align	2
 2204              		.type	testmtx6, %object
 2205              		.size	testmtx6, 16
 2206              	testmtx6:
 2207 0000 4C000000 		.word	.LC9
 2208 0004 00000000 		.word	mtx6_setup
ARM GAS  /tmp/cc4PZCgV.s 			page 40


 2209 0008 00000000 		.word	0
 2210 000c 00000000 		.word	mtx6_execute
 2211              		.section	.rodata.testmtx7,"a",%progbits
 2212              		.align	2
 2213              		.type	testmtx7, %object
 2214              		.size	testmtx7, 16
 2215              	testmtx7:
 2216 0000 34000000 		.word	.LC8
 2217 0004 00000000 		.word	mtx7_setup
 2218 0008 00000000 		.word	0
 2219 000c 00000000 		.word	mtx7_execute
 2220              		.section	.rodata.testmtx8,"a",%progbits
 2221              		.align	2
 2222              		.type	testmtx8, %object
 2223              		.size	testmtx8, 16
 2224              	testmtx8:
 2225 0000 20000000 		.word	.LC7
 2226 0004 00000000 		.word	mtx8_setup
 2227 0008 00000000 		.word	0
 2228 000c 00000000 		.word	mtx8_execute
 2229              		.section	.data.m1,"aw",%progbits
 2230              		.align	2
 2231              		.set	.LANCHOR2,. + 0
 2232              		.type	m1, %object
 2233              		.size	m1, 16
 2234              	m1:
 2235 0000 00000000 		.word	m1
 2236 0004 00000000 		.word	m1
 2237 0008 00000000 		.word	0
 2238 000c 00000000 		.word	0
 2239              		.section	.data.m2,"aw",%progbits
 2240              		.align	2
 2241              		.set	.LANCHOR1,. + 0
 2242              		.type	m2, %object
 2243              		.size	m2, 16
 2244              	m2:
 2245 0000 00000000 		.word	m2
 2246 0004 00000000 		.word	m2
 2247 0008 00000000 		.word	0
 2248 000c 00000000 		.word	0
 2249              		.section	.rodata.str1.4,"aMS",%progbits,1
 2250              		.align	2
 2251              	.LC0:
 2252 0000 4100     		.ascii	"A\000"
 2253 0002 0000     		.space	2
 2254              	.LC1:
 2255 0004 4300     		.ascii	"C\000"
 2256 0006 0000     		.space	2
 2257              	.LC2:
 2258 0008 4200     		.ascii	"B\000"
 2259 000a 0000     		.space	2
 2260              	.LC3:
 2261 000c 41424300 		.ascii	"ABC\000"
 2262              	.LC4:
 2263 0010 4500     		.ascii	"E\000"
 2264 0012 0000     		.space	2
 2265              	.LC5:
ARM GAS  /tmp/cc4PZCgV.s 			page 41


 2266 0014 4400     		.ascii	"D\000"
 2267 0016 0000     		.space	2
 2268              	.LC6:
 2269 0018 41424344 		.ascii	"ABCDE\000"
 2269      4500
 2270 001e 0000     		.space	2
 2271              	.LC7:
 2272 0020 436F6E64 		.ascii	"CondVar, boost test\000"
 2272      5661722C 
 2272      20626F6F 
 2272      73742074 
 2272      65737400 
 2273              	.LC8:
 2274 0034 436F6E64 		.ascii	"CondVar, broadcast test\000"
 2274      5661722C 
 2274      2062726F 
 2274      61646361 
 2274      73742074 
 2275              	.LC9:
 2276 004c 436F6E64 		.ascii	"CondVar, signal test\000"
 2276      5661722C 
 2276      20736967 
 2276      6E616C20 
 2276      74657374 
 2277 0061 000000   		.space	3
 2278              	.LC10:
 2279 0064 4D757465 		.ascii	"Mutexes, status\000"
 2279      7865732C 
 2279      20737461 
 2279      74757300 
 2280              	.LC11:
 2281 0074 4D757465 		.ascii	"Mutexes, priority return\000"
 2281      7865732C 
 2281      20707269 
 2281      6F726974 
 2281      79207265 
 2282 008d 000000   		.space	3
 2283              	.LC12:
 2284 0090 4D757465 		.ascii	"Mutexes, priority inheritance, complex case\000"
 2284      7865732C 
 2284      20707269 
 2284      6F726974 
 2284      7920696E 
 2285              	.LC13:
 2286 00bc 4D757465 		.ascii	"Mutexes, priority inheritance, simple case\000"
 2286      7865732C 
 2286      20707269 
 2286      6F726974 
 2286      7920696E 
 2287 00e7 00       		.space	1
 2288              	.LC14:
 2289 00e8 4D757465 		.ascii	"Mutexes, priority enqueuing test\000"
 2289      7865732C 
 2289      20707269 
 2289      6F726974 
 2289      7920656E 
 2290 0109 000000   		.section	.rodata.patternmtx,"a",%progbits
ARM GAS  /tmp/cc4PZCgV.s 			page 42


 2291              		.align	2
 2292              		.type	patternmtx, %object
 2293              		.size	patternmtx, 36
 2294              	patternmtx:
 2295 0000 00000000 		.word	testmtx1
 2296 0004 00000000 		.word	testmtx2
 2297 0008 00000000 		.word	testmtx3
 2298 000c 00000000 		.word	testmtx4
 2299 0010 00000000 		.word	testmtx5
 2300 0014 00000000 		.word	testmtx6
 2301 0018 00000000 		.word	testmtx7
 2302 001c 00000000 		.word	testmtx8
 2303 0020 00000000 		.word	0
 2304              		.section	.data.c1,"aw",%progbits
 2305              		.align	2
 2306              		.set	.LANCHOR0,. + 0
 2307              		.type	c1, %object
 2308              		.size	c1, 8
 2309              	c1:
 2310 0000 00000000 		.word	c1
 2311 0004 00000000 		.word	c1
 2312              		.section	.rodata.testmtx1,"a",%progbits
 2313              		.align	2
 2314              		.type	testmtx1, %object
 2315              		.size	testmtx1, 16
 2316              	testmtx1:
 2317 0000 E8000000 		.word	.LC14
 2318 0004 00000000 		.word	mtx1_setup
 2319 0008 00000000 		.word	0
 2320 000c 00000000 		.word	mtx1_execute
 2321              		.section	.rodata.testmtx2,"a",%progbits
 2322              		.align	2
 2323              		.type	testmtx2, %object
 2324              		.size	testmtx2, 16
 2325              	testmtx2:
 2326 0000 BC000000 		.word	.LC13
 2327 0004 00000000 		.word	mtx2_setup
 2328 0008 00000000 		.word	0
 2329 000c 00000000 		.word	mtx2_execute
 2330              		.section	.rodata.testmtx3,"a",%progbits
 2331              		.align	2
 2332              		.type	testmtx3, %object
 2333              		.size	testmtx3, 16
 2334              	testmtx3:
 2335 0000 90000000 		.word	.LC12
 2336 0004 00000000 		.word	mtx3_setup
 2337 0008 00000000 		.word	0
 2338 000c 00000000 		.word	mtx3_execute
 2339              		.section	.rodata.testmtx4,"a",%progbits
 2340              		.align	2
 2341              		.type	testmtx4, %object
 2342              		.size	testmtx4, 16
 2343              	testmtx4:
 2344 0000 74000000 		.word	.LC11
 2345 0004 00000000 		.word	mtx4_setup
 2346 0008 00000000 		.word	0
 2347 000c 00000000 		.word	mtx4_execute
ARM GAS  /tmp/cc4PZCgV.s 			page 43


 2348              		.text
 2349              	.Letext0:
 2350              		.file 2 "/opt/psas/x-tools/stm32f407/arm-psas-eabi/bin/../lib/gcc/arm-psas-eabi/4.7.2/include/stdd
 2351              		.file 3 "/opt/psas/x-tools/stm32f407/arm-psas-eabi/bin/../lib/gcc/arm-psas-eabi/4.7.2/../../../../
 2352              		.file 4 "../../os/ports/GCC/ARMCMx/chtypes.h"
 2353              		.file 5 "../../os/kernel/include/chlists.h"
 2354              		.file 6 "../../os/kernel/include/chthreads.h"
 2355              		.file 7 "../../os/ports/GCC/ARMCMx/chcore_v7m.h"
 2356              		.file 8 "../../os/kernel/include/chvt.h"
 2357              		.file 9 "../../os/kernel/include/chschd.h"
 2358              		.file 10 "../../os/kernel/include/chmtx.h"
 2359              		.file 11 "../../os/kernel/include/chcond.h"
 2360              		.file 12 "../../test/test.h"