ARM GAS  /tmp/ccCPaF2U.s 			page 1


   1              		.syntax unified
   2              		.cpu cortex-m4
   3              		.eabi_attribute 27, 3
   4              		.eabi_attribute 28, 1
   5              		.fpu fpv4-sp-d16
   6              		.eabi_attribute 20, 1
   7              		.eabi_attribute 21, 1
   8              		.eabi_attribute 23, 3
   9              		.eabi_attribute 24, 1
  10              		.eabi_attribute 25, 1
  11              		.eabi_attribute 26, 1
  12              		.eabi_attribute 30, 2
  13              		.eabi_attribute 34, 1
  14              		.eabi_attribute 18, 4
  15              		.thumb
  16              		.file	"testdyn.c"
  17              		.text
  18              	.Ltext0:
  19              		.cfi_sections	.debug_frame
  20              		.section	.text.regfind,"ax",%progbits
  21              		.align	2
  22              		.p2align 4,,15
  23              		.thumb
  24              		.thumb_func
  25              		.type	regfind, %function
  26              	regfind:
  27              	.LFB12:
  28              		.file 1 "../../test/testdyn.c"
  29              		.loc 1 195 0
  30              		.cfi_startproc
  31              		@ args = 0, pretend = 0, frame = 0
  32              		@ frame_needed = 0, uses_anonymous_args = 0
  33              	.LVL0:
  34 0000 38B5     		push	{r3, r4, r5, lr}
  35              	.LCFI0:
  36              		.cfi_def_cfa_offset 16
  37              		.cfi_offset 3, -16
  38              		.cfi_offset 4, -12
  39              		.cfi_offset 5, -8
  40              		.cfi_offset 14, -4
  41              		.loc 1 195 0
  42 0002 0546     		mov	r5, r0
  43              		.loc 1 199 0
  44 0004 FFF7FEFF 		bl	chRegFirstThread
  45              	.LVL1:
  46              		.loc 1 197 0
  47 0008 0024     		movs	r4, #0
  48              		.loc 1 199 0
  49 000a 0346     		mov	r3, r0
  50              	.LVL2:
  51              	.L2:
  52              		.loc 1 202 0 discriminator 1
  53 000c 1846     		mov	r0, r3
  54              		.loc 1 201 0 discriminator 1
  55 000e AB42     		cmp	r3, r5
  56 0010 08BF     		it	eq
  57 0012 44F00104 		orreq	r4, r4, #1
ARM GAS  /tmp/ccCPaF2U.s 			page 2


  58              	.LVL3:
  59              		.loc 1 202 0 discriminator 1
  60 0016 FFF7FEFF 		bl	chRegNextThread
  61              	.LVL4:
  62              		.loc 1 203 0 discriminator 1
  63 001a 0346     		mov	r3, r0
  64 001c 0028     		cmp	r0, #0
  65 001e F5D1     		bne	.L2
  66              		.loc 1 205 0
  67 0020 2046     		mov	r0, r4
  68              	.LVL5:
  69 0022 38BD     		pop	{r3, r4, r5, pc}
  70              		.cfi_endproc
  71              	.LFE12:
  72              		.size	regfind, .-regfind
  73 0024 AFF30080 		.section	.text.dyn3_execute,"ax",%progbits
  73      AFF30080 
  73      AFF30080 
  74              		.align	2
  75              		.p2align 4,,15
  76              		.thumb
  77              		.thumb_func
  78              		.type	dyn3_execute, %function
  79              	dyn3_execute:
  80              	.LFB14:
  81              		.loc 1 212 0
  82              		.cfi_startproc
  83              		@ args = 0, pretend = 0, frame = 0
  84              		@ frame_needed = 0, uses_anonymous_args = 0
  85              	.LVL6:
  86 0000 10B5     		push	{r4, lr}
  87              	.LCFI1:
  88              		.cfi_def_cfa_offset 8
  89              		.cfi_offset 4, -8
  90              		.cfi_offset 14, -4
  91              		.loc 1 214 0
  92 0002 4A4B     		ldr	r3, .L10
  93              		.loc 1 217 0
  94 0004 4A49     		ldr	r1, .L10+4
  95              		.loc 1 214 0
  96 0006 9B69     		ldr	r3, [r3, #24]
  97              		.loc 1 217 0
  98 0008 4A48     		ldr	r0, .L10+8
  99 000a 9A68     		ldr	r2, [r3, #8]
 100 000c 4A4B     		ldr	r3, .L10+12
 101              		.loc 1 212 0
 102 000e 82B0     		sub	sp, sp, #8
 103              	.LCFI2:
 104              		.cfi_def_cfa_offset 16
 105              		.loc 1 217 0
 106 0010 013A     		subs	r2, r2, #1
 107 0012 0091     		str	r1, [sp, #0]
 108 0014 4FF49871 		mov	r1, #304
 109 0018 FFF7FEFF 		bl	chThdCreateFromHeap
 110              	.LVL7:
 111 001c 0446     		mov	r4, r0
 112              	.LVL8:
ARM GAS  /tmp/ccCPaF2U.s 			page 3


 113              		.loc 1 218 0
 114 001e 0120     		movs	r0, #1
 115              	.LVL9:
 116 0020 A17F     		ldrb	r1, [r4, #30]	@ zero_extendqisi2
 117 0022 B1EB000C 		subs	ip, r1, r0
 118 0026 DCF10001 		rsbs	r1, ip, #0
 119 002a 51EB0C01 		adcs	r1, r1, ip
 120 002e FFF7FEFF 		bl	_test_assert
 121              	.LVL10:
 122 0032 08B1     		cbz	r0, .L9
 123              	.L5:
 124              		.loc 1 240 0
 125 0034 02B0     		add	sp, sp, #8
 126 0036 10BD     		pop	{r4, pc}
 127              	.L9:
 128              		.loc 1 219 0
 129 0038 2046     		mov	r0, r4
 130 003a FFF7FEFF 		bl	chThdAddRef
 131              	.LVL11:
 132              		.loc 1 220 0
 133 003e A17F     		ldrb	r1, [r4, #30]	@ zero_extendqisi2
 134 0040 0220     		movs	r0, #2
 135 0042 B1EB000E 		subs	lr, r1, r0
 136 0046 DEF10001 		rsbs	r1, lr, #0
 137 004a 51EB0E01 		adcs	r1, r1, lr
 138 004e FFF7FEFF 		bl	_test_assert
 139              	.LVL12:
 140 0052 0028     		cmp	r0, #0
 141 0054 EED1     		bne	.L5
 142              		.loc 1 221 0
 143 0056 2046     		mov	r0, r4
 144 0058 FFF7FEFF 		bl	chThdRelease
 145              	.LVL13:
 146              		.loc 1 222 0
 147 005c A17F     		ldrb	r1, [r4, #30]	@ zero_extendqisi2
 148 005e 0320     		movs	r0, #3
 149 0060 4A1E     		subs	r2, r1, #1
 150 0062 5142     		rsbs	r1, r2, #0
 151 0064 5141     		adcs	r1, r1, r2
 152 0066 FFF7FEFF 		bl	_test_assert
 153              	.LVL14:
 154 006a 0028     		cmp	r0, #0
 155 006c E2D1     		bne	.L5
 156              		.loc 1 225 0
 157 006e 2046     		mov	r0, r4
 158 0070 FFF7FEFF 		bl	regfind
 159              	.LVL15:
 160 0074 0146     		mov	r1, r0
 161 0076 0420     		movs	r0, #4
 162 0078 FFF7FEFF 		bl	_test_assert
 163              	.LVL16:
 164 007c 0028     		cmp	r0, #0
 165 007e D9D1     		bne	.L5
 166              		.loc 1 226 0
 167 0080 2046     		mov	r0, r4
 168 0082 FFF7FEFF 		bl	regfind
 169              	.LVL17:
ARM GAS  /tmp/ccCPaF2U.s 			page 4


 170 0086 0146     		mov	r1, r0
 171 0088 0520     		movs	r0, #5
 172 008a FFF7FEFF 		bl	_test_assert
 173              	.LVL18:
 174 008e 0028     		cmp	r0, #0
 175 0090 D0D1     		bne	.L5
 176              		.loc 1 229 0
 177 0092 2046     		mov	r0, r4
 178 0094 FFF7FEFF 		bl	chThdRelease
 179              	.LVL19:
 180              		.loc 1 230 0
 181 0098 A17F     		ldrb	r1, [r4, #30]	@ zero_extendqisi2
 182 009a 0620     		movs	r0, #6
 183 009c D1F10101 		rsbs	r1, r1, #1
 184 00a0 38BF     		it	cc
 185 00a2 0021     		movcc	r1, #0
 186 00a4 FFF7FEFF 		bl	_test_assert
 187              	.LVL20:
 188 00a8 0028     		cmp	r0, #0
 189 00aa C3D1     		bne	.L5
 190              		.loc 1 231 0
 191 00ac 217F     		ldrb	r1, [r4, #28]	@ zero_extendqisi2
 192 00ae 0720     		movs	r0, #7
 193 00b0 D1F10101 		rsbs	r1, r1, #1
 194 00b4 38BF     		it	cc
 195 00b6 0021     		movcc	r1, #0
 196 00b8 FFF7FEFF 		bl	_test_assert
 197              	.LVL21:
 198 00bc 0028     		cmp	r0, #0
 199 00be B9D1     		bne	.L5
 200              		.loc 1 232 0
 201 00c0 2046     		mov	r0, r4
 202 00c2 FFF7FEFF 		bl	regfind
 203              	.LVL22:
 204 00c6 0146     		mov	r1, r0
 205 00c8 0820     		movs	r0, #8
 206 00ca FFF7FEFF 		bl	_test_assert
 207              	.LVL23:
 208 00ce 0028     		cmp	r0, #0
 209 00d0 B0D1     		bne	.L5
 210              		.loc 1 233 0
 211 00d2 2046     		mov	r0, r4
 212 00d4 FFF7FEFF 		bl	regfind
 213              	.LVL24:
 214 00d8 0146     		mov	r1, r0
 215 00da 0920     		movs	r0, #9
 216 00dc FFF7FEFF 		bl	_test_assert
 217              	.LVL25:
 218 00e0 0028     		cmp	r0, #0
 219 00e2 A7D1     		bne	.L5
 220              		.loc 1 234 0
 221 00e4 3220     		movs	r0, #50
 222 00e6 FFF7FEFF 		bl	chThdSleep
 223              	.LVL26:
 224              		.loc 1 235 0
 225 00ea 217F     		ldrb	r1, [r4, #28]	@ zero_extendqisi2
 226 00ec 0A20     		movs	r0, #10
ARM GAS  /tmp/ccCPaF2U.s 			page 5


 227 00ee B1F10E03 		subs	r3, r1, #14
 228 00f2 5942     		rsbs	r1, r3, #0
 229 00f4 5941     		adcs	r1, r1, r3
 230 00f6 FFF7FEFF 		bl	_test_assert
 231              	.LVL27:
 232 00fa 0028     		cmp	r0, #0
 233 00fc 9AD1     		bne	.L5
 234              		.loc 1 238 0
 235 00fe 2046     		mov	r0, r4
 236 0100 FFF7FEFF 		bl	regfind
 237              	.LVL28:
 238 0104 0146     		mov	r1, r0
 239 0106 0B20     		movs	r0, #11
 240 0108 FFF7FEFF 		bl	_test_assert
 241              	.LVL29:
 242 010c 0028     		cmp	r0, #0
 243 010e 91D1     		bne	.L5
 244              		.loc 1 239 0
 245 0110 2046     		mov	r0, r4
 246 0112 FFF7FEFF 		bl	regfind
 247              	.LVL30:
 248 0116 D0F10101 		rsbs	r1, r0, #1
 249 011a 38BF     		it	cc
 250 011c 0021     		movcc	r1, #0
 251 011e 0C20     		movs	r0, #12
 252              		.loc 1 240 0
 253 0120 02B0     		add	sp, sp, #8
 254 0122 BDE81040 		pop	{r4, lr}
 255              		.loc 1 239 0
 256 0126 FFF7FEBF 		b	_test_assert
 257              	.LVL31:
 258              	.L11:
 259 012a 00BF     		.align	2
 260              	.L10:
 261 012c 00000000 		.word	rlist
 262 0130 00000000 		.word	.LC0
 263 0134 00000000 		.word	.LANCHOR0
 264 0138 00000000 		.word	thread
 265              		.cfi_endproc
 266              	.LFE14:
 267              		.size	dyn3_execute, .-dyn3_execute
 268 013c AFF30080 		.section	.text.thread,"ax",%progbits
 269              		.align	2
 270              		.p2align 4,,15
 271              		.thumb
 272              		.thumb_func
 273              		.type	thread, %function
 274              	thread:
 275              	.LFB7:
 276              		.loc 1 75 0
 277              		.cfi_startproc
 278              		@ args = 0, pretend = 0, frame = 0
 279              		@ frame_needed = 0, uses_anonymous_args = 0
 280              	.LVL32:
 281 0000 08B5     		push	{r3, lr}
 282              	.LCFI3:
 283              		.cfi_def_cfa_offset 8
ARM GAS  /tmp/ccCPaF2U.s 			page 6


 284              		.cfi_offset 3, -8
 285              		.cfi_offset 14, -4
 286              		.loc 1 77 0
 287 0002 0078     		ldrb	r0, [r0, #0]	@ zero_extendqisi2
 288              	.LVL33:
 289 0004 FFF7FEFF 		bl	test_emit_token
 290              	.LVL34:
 291              		.loc 1 79 0
 292 0008 0020     		movs	r0, #0
 293 000a 08BD     		pop	{r3, pc}
 294              		.cfi_endproc
 295              	.LFE7:
 296              		.size	thread, .-thread
 297 000c AFF30080 		.section	.text.dyn3_setup,"ax",%progbits
 298              		.align	2
 299              		.p2align 4,,15
 300              		.thumb
 301              		.thumb_func
 302              		.type	dyn3_setup, %function
 303              	dyn3_setup:
 304              	.LFB13:
 305              		.loc 1 207 0
 306              		.cfi_startproc
 307              		@ args = 0, pretend = 0, frame = 0
 308              		@ frame_needed = 0, uses_anonymous_args = 0
 309              		@ link register save eliminated.
 310              		.loc 1 209 0
 311 0000 40F20000 		movw	r0, #:lower16:.LANCHOR0
 312 0004 40F20001 		movw	r1, #:lower16:test
 313 0008 C0F20000 		movt	r0, #:upper16:.LANCHOR0
 314 000c C0F20001 		movt	r1, #:upper16:test
 315 0010 4FF4BE62 		mov	r2, #1520
 316              		.loc 1 210 0
 317              		.loc 1 209 0
 318 0014 FFF7FEBF 		b	chHeapInit
 319              	.LVL35:
 320              		.cfi_endproc
 321              	.LFE13:
 322              		.size	dyn3_setup, .-dyn3_setup
 323 0018 AFF30080 		.section	.text.dyn1_setup,"ax",%progbits
 323      AFF30080 
 324              		.align	2
 325              		.p2align 4,,15
 326              		.thumb
 327              		.thumb_func
 328              		.type	dyn1_setup, %function
 329              	dyn1_setup:
 330              	.LFB8:
 331              		.loc 1 82 0
 332              		.cfi_startproc
 333              		@ args = 0, pretend = 0, frame = 0
 334              		@ frame_needed = 0, uses_anonymous_args = 0
 335              		@ link register save eliminated.
 336              		.loc 1 84 0
 337 0000 40F20000 		movw	r0, #:lower16:.LANCHOR0
 338 0004 40F20001 		movw	r1, #:lower16:test
 339 0008 C0F20000 		movt	r0, #:upper16:.LANCHOR0
ARM GAS  /tmp/ccCPaF2U.s 			page 7


 340 000c C0F20001 		movt	r1, #:upper16:test
 341 0010 4FF4BE62 		mov	r2, #1520
 342              		.loc 1 85 0
 343              		.loc 1 84 0
 344 0014 FFF7FEBF 		b	chHeapInit
 345              	.LVL36:
 346              		.cfi_endproc
 347              	.LFE8:
 348              		.size	dyn1_setup, .-dyn1_setup
 349 0018 AFF30080 		.section	.text.dyn2_execute,"ax",%progbits
 349      AFF30080 
 350              		.align	2
 351              		.p2align 4,,15
 352              		.thumb
 353              		.thumb_func
 354              		.type	dyn2_execute, %function
 355              	dyn2_execute:
 356              	.LFB11:
 357              		.loc 1 145 0
 358              		.cfi_startproc
 359              		@ args = 0, pretend = 0, frame = 0
 360              		@ frame_needed = 0, uses_anonymous_args = 0
 361              		.loc 1 147 0
 362 0000 324B     		ldr	r3, .L29
 363 0002 9B69     		ldr	r3, [r3, #24]
 364              		.loc 1 145 0
 365 0004 70B5     		push	{r4, r5, r6, lr}
 366              	.LCFI4:
 367              		.cfi_def_cfa_offset 16
 368              		.cfi_offset 4, -16
 369              		.cfi_offset 5, -12
 370              		.cfi_offset 6, -8
 371              		.cfi_offset 14, -4
 372 0006 324C     		ldr	r4, .L29+4
 373              		.loc 1 147 0
 374 0008 9D68     		ldr	r5, [r3, #8]
 375              	.LVL37:
 376              		.loc 1 145 0
 377 000a 04F11006 		add	r6, r4, #16
 378              	.LVL38:
 379              	.L16:
 380              		.loc 1 151 0 discriminator 2
 381 000e 54F8041F 		ldr	r1, [r4, #4]!
 382 0012 3048     		ldr	r0, .L29+8
 383 0014 FFF7FEFF 		bl	chPoolFree
 384              	.LVL39:
 385              		.loc 1 150 0 discriminator 2
 386 0018 B442     		cmp	r4, r6
 387 001a F8D1     		bne	.L16
 388              		.loc 1 154 0
 389 001c 691E     		subs	r1, r5, #1
 390 001e 2E4A     		ldr	r2, .L29+12
 391 0020 2E4B     		ldr	r3, .L29+16
 392 0022 2C48     		ldr	r0, .L29+8
 393 0024 2E4C     		ldr	r4, .L29+20
 394 0026 FFF7FEFF 		bl	chThdCreateFromMemoryPool
 395              	.LVL40:
ARM GAS  /tmp/ccCPaF2U.s 			page 8


 396              		.loc 1 155 0
 397 002a A91E     		subs	r1, r5, #2
 398              		.loc 1 154 0
 399 002c 2060     		str	r0, [r4, #0]
 400              		.loc 1 155 0
 401 002e 2A4A     		ldr	r2, .L29+12
 402 0030 2C4B     		ldr	r3, .L29+24
 403 0032 2848     		ldr	r0, .L29+8
 404 0034 FFF7FEFF 		bl	chThdCreateFromMemoryPool
 405              	.LVL41:
 406              		.loc 1 156 0
 407 0038 E91E     		subs	r1, r5, #3
 408              		.loc 1 155 0
 409 003a 6060     		str	r0, [r4, #4]
 410              		.loc 1 156 0
 411 003c 264A     		ldr	r2, .L29+12
 412 003e 2A4B     		ldr	r3, .L29+28
 413 0040 2448     		ldr	r0, .L29+8
 414 0042 FFF7FEFF 		bl	chThdCreateFromMemoryPool
 415              	.LVL42:
 416              		.loc 1 157 0
 417 0046 291F     		subs	r1, r5, #4
 418              		.loc 1 156 0
 419 0048 A060     		str	r0, [r4, #8]
 420              		.loc 1 157 0
 421 004a 234A     		ldr	r2, .L29+12
 422 004c 274B     		ldr	r3, .L29+32
 423 004e 2148     		ldr	r0, .L29+8
 424 0050 FFF7FEFF 		bl	chThdCreateFromMemoryPool
 425              	.LVL43:
 426              		.loc 1 158 0
 427 0054 691F     		subs	r1, r5, #5
 428              		.loc 1 157 0
 429 0056 E060     		str	r0, [r4, #12]
 430              		.loc 1 158 0
 431 0058 1F4A     		ldr	r2, .L29+12
 432 005a 1E48     		ldr	r0, .L29+8
 433 005c 244B     		ldr	r3, .L29+36
 434 005e FFF7FEFF 		bl	chThdCreateFromMemoryPool
 435              	.LVL44:
 436              		.loc 1 160 0
 437 0062 2168     		ldr	r1, [r4, #0]
 438              		.loc 1 158 0
 439 0064 2061     		str	r0, [r4, #16]
 440              		.loc 1 160 0
 441 0066 49B1     		cbz	r1, .L17
 442              		.loc 1 160 0 is_stmt 0 discriminator 1
 443 0068 6168     		ldr	r1, [r4, #4]
 444 006a 39B1     		cbz	r1, .L17
 445              		.loc 1 160 0 discriminator 3
 446 006c A168     		ldr	r1, [r4, #8]
 447 006e 29B1     		cbz	r1, .L17
 448              		.loc 1 160 0 discriminator 4
 449 0070 E168     		ldr	r1, [r4, #12]
 450 0072 19B1     		cbz	r1, .L17
 451              		.loc 1 160 0 discriminator 5
 452 0074 D0F10101 		rsbs	r1, r0, #1
ARM GAS  /tmp/ccCPaF2U.s 			page 9


 453 0078 38BF     		it	cc
 454 007a 0021     		movcc	r1, #0
 455              	.L17:
 456              		.loc 1 160 0 discriminator 7
 457 007c 0120     		movs	r0, #1
 458 007e FFF7FEFF 		bl	_test_assert
 459              	.LVL45:
 460 0082 00B1     		cbz	r0, .L28
 461              	.L15:
 462 0084 70BD     		pop	{r4, r5, r6, pc}
 463              	.L28:
 464              		.loc 1 168 0 is_stmt 1
 465 0086 FFF7FEFF 		bl	test_wait_threads
 466              	.LVL46:
 467              		.loc 1 169 0
 468 008a 0220     		movs	r0, #2
 469 008c 1949     		ldr	r1, .L29+40
 470 008e FFF7FEFF 		bl	_test_assert_sequence
 471              	.LVL47:
 472 0092 0028     		cmp	r0, #0
 473 0094 F6D1     		bne	.L15
 474 0096 0424     		movs	r4, #4
 475              	.L21:
 476              		.loc 1 173 0
 477 0098 0E48     		ldr	r0, .L29+8
 478 009a FFF7FEFF 		bl	chPoolAlloc
 479              	.LVL48:
 480 009e 011C     		adds	r1, r0, #0
 481 00a0 18BF     		it	ne
 482 00a2 0121     		movne	r1, #1
 483 00a4 0320     		movs	r0, #3
 484 00a6 FFF7FEFF 		bl	_test_assert
 485              	.LVL49:
 486 00aa 0028     		cmp	r0, #0
 487 00ac EAD1     		bne	.L15
 488              		.loc 1 172 0
 489 00ae 013C     		subs	r4, r4, #1
 490 00b0 F2D1     		bne	.L21
 491              		.loc 1 174 0
 492 00b2 0848     		ldr	r0, .L29+8
 493 00b4 FFF7FEFF 		bl	chPoolAlloc
 494              	.LVL50:
 495 00b8 D0F10101 		rsbs	r1, r0, #1
 496 00bc 38BF     		it	cc
 497 00be 0021     		movcc	r1, #0
 498 00c0 0420     		movs	r0, #4
 499              		.loc 1 175 0
 500 00c2 BDE87040 		pop	{r4, r5, r6, lr}
 501              		.loc 1 174 0
 502 00c6 FFF7FEBF 		b	_test_assert
 503              	.LVL51:
 504              	.L30:
 505 00ca 00BF     		.align	2
 506              	.L29:
 507 00cc 00000000 		.word	rlist
 508 00d0 FCFFFFFF 		.word	wa-4
 509 00d4 00000000 		.word	.LANCHOR1
ARM GAS  /tmp/ccCPaF2U.s 			page 10


 510 00d8 00000000 		.word	thread
 511 00dc 00000000 		.word	.LC0
 512 00e0 00000000 		.word	threads
 513 00e4 04000000 		.word	.LC1
 514 00e8 08000000 		.word	.LC2
 515 00ec 0C000000 		.word	.LC3
 516 00f0 10000000 		.word	.LC4
 517 00f4 14000000 		.word	.LC5
 518              		.cfi_endproc
 519              	.LFE11:
 520              		.size	dyn2_execute, .-dyn2_execute
 521 00f8 AFF30080 		.section	.text.dyn2_setup,"ax",%progbits
 521      AFF30080 
 522              		.align	2
 523              		.p2align 4,,15
 524              		.thumb
 525              		.thumb_func
 526              		.type	dyn2_setup, %function
 527              	dyn2_setup:
 528              	.LFB10:
 529              		.loc 1 140 0
 530              		.cfi_startproc
 531              		@ args = 0, pretend = 0, frame = 0
 532              		@ frame_needed = 0, uses_anonymous_args = 0
 533              		@ link register save eliminated.
 534              		.loc 1 142 0
 535 0000 40F20000 		movw	r0, #:lower16:.LANCHOR1
 536 0004 C0F20000 		movt	r0, #:upper16:.LANCHOR1
 537 0008 4FF49871 		mov	r1, #304
 538 000c 0022     		movs	r2, #0
 539              		.loc 1 143 0
 540              		.loc 1 142 0
 541 000e FFF7FEBF 		b	chPoolInit
 542              	.LVL52:
 543              		.cfi_endproc
 544              	.LFE10:
 545              		.size	dyn2_setup, .-dyn2_setup
 546 0012 00BFAFF3 		.section	.text.dyn1_execute,"ax",%progbits
 546      0080AFF3 
 546      0080AFF3 
 546      0080
 547              		.align	2
 548              		.p2align 4,,15
 549              		.thumb
 550              		.thumb_func
 551              		.type	dyn1_execute, %function
 552              	dyn1_execute:
 553              	.LFB9:
 554              		.loc 1 87 0
 555              		.cfi_startproc
 556              		@ args = 0, pretend = 0, frame = 8
 557              		@ frame_needed = 0, uses_anonymous_args = 0
 558 0000 70B5     		push	{r4, r5, r6, lr}
 559              	.LCFI5:
 560              		.cfi_def_cfa_offset 16
 561              		.cfi_offset 4, -16
 562              		.cfi_offset 5, -12
ARM GAS  /tmp/ccCPaF2U.s 			page 11


 563              		.cfi_offset 6, -8
 564              		.cfi_offset 14, -4
 565              		.loc 1 90 0
 566 0002 334B     		ldr	r3, .L42
 567              		.loc 1 92 0
 568 0004 3348     		ldr	r0, .L42+4
 569              		.loc 1 90 0
 570 0006 9B69     		ldr	r3, [r3, #24]
 571              		.loc 1 94 0
 572 0008 334C     		ldr	r4, .L42+8
 573              		.loc 1 90 0
 574 000a 9D68     		ldr	r5, [r3, #8]
 575              	.LVL53:
 576              		.loc 1 87 0
 577 000c 84B0     		sub	sp, sp, #16
 578              	.LCFI6:
 579              		.cfi_def_cfa_offset 32
 580              		.loc 1 92 0
 581 000e 03A9     		add	r1, sp, #12
 582 0010 FFF7FEFF 		bl	chHeapStatus
 583              	.LVL54:
 584              		.loc 1 94 0
 585 0014 314A     		ldr	r2, .L42+12
 586 0016 324B     		ldr	r3, .L42+16
 587 0018 0092     		str	r2, [sp, #0]
 588 001a 4FF49871 		mov	r1, #304
 589 001e 6A1E     		subs	r2, r5, #1
 590 0020 2C48     		ldr	r0, .L42+4
 591 0022 FFF7FEFF 		bl	chThdCreateFromHeap
 592              	.LVL55:
 593 0026 2060     		str	r0, [r4, #0]
 594              		.loc 1 96 0
 595 0028 2E48     		ldr	r0, .L42+20
 596 002a 2D4B     		ldr	r3, .L42+16
 597 002c 0090     		str	r0, [sp, #0]
 598 002e AA1E     		subs	r2, r5, #2
 599 0030 4FF49871 		mov	r1, #304
 600 0034 2748     		ldr	r0, .L42+4
 601 0036 FFF7FEFF 		bl	chThdCreateFromHeap
 602              	.LVL56:
 603              		.loc 1 99 0
 604 003a 02A9     		add	r1, sp, #8
 605              		.loc 1 96 0
 606 003c 6060     		str	r0, [r4, #4]
 607              		.loc 1 99 0
 608 003e 2548     		ldr	r0, .L42+4
 609 0040 FFF7FEFF 		bl	chHeapStatus
 610              	.LVL57:
 611              		.loc 1 100 0
 612 0044 0299     		ldr	r1, [sp, #8]
 613 0046 2348     		ldr	r0, .L42+4
 614 0048 FFF7FEFF 		bl	chHeapAlloc
 615              	.LVL58:
 616              		.loc 1 101 0
 617 004c 264A     		ldr	r2, .L42+24
 618 004e 244B     		ldr	r3, .L42+16
 619 0050 0092     		str	r2, [sp, #0]
ARM GAS  /tmp/ccCPaF2U.s 			page 12


 620 0052 4FF49871 		mov	r1, #304
 621              		.loc 1 100 0
 622 0056 0646     		mov	r6, r0
 623              	.LVL59:
 624              		.loc 1 101 0
 625 0058 EA1E     		subs	r2, r5, #3
 626 005a 1E48     		ldr	r0, .L42+4
 627              	.LVL60:
 628 005c FFF7FEFF 		bl	chThdCreateFromHeap
 629              	.LVL61:
 630 0060 A060     		str	r0, [r4, #8]
 631              		.loc 1 103 0
 632 0062 3046     		mov	r0, r6
 633 0064 FFF7FEFF 		bl	chHeapFree
 634              	.LVL62:
 635              		.loc 1 105 0
 636 0068 2168     		ldr	r1, [r4, #0]
 637 006a 29B1     		cbz	r1, .L33
 638              		.loc 1 105 0 is_stmt 0 discriminator 1
 639 006c 6168     		ldr	r1, [r4, #4]
 640 006e 19B1     		cbz	r1, .L33
 641              		.loc 1 105 0 discriminator 3
 642 0070 A168     		ldr	r1, [r4, #8]
 643 0072 0029     		cmp	r1, #0
 644 0074 23D0     		beq	.L40
 645              		.loc 1 105 0
 646 0076 0021     		movs	r1, #0
 647              	.L33:
 648              		.loc 1 105 0 discriminator 7
 649 0078 0120     		movs	r0, #1
 650 007a FFF7FEFF 		bl	_test_assert
 651              	.LVL63:
 652 007e 08B1     		cbz	r0, .L41
 653              	.L32:
 654              		.loc 1 119 0 is_stmt 1
 655 0080 04B0     		add	sp, sp, #16
 656 0082 70BD     		pop	{r4, r5, r6, pc}
 657              	.L41:
 658              		.loc 1 113 0
 659 0084 FFF7FEFF 		bl	test_wait_threads
 660              	.LVL64:
 661              		.loc 1 114 0
 662 0088 0220     		movs	r0, #2
 663 008a 1849     		ldr	r1, .L42+28
 664 008c FFF7FEFF 		bl	_test_assert_sequence
 665              	.LVL65:
 666 0090 0028     		cmp	r0, #0
 667 0092 F5D1     		bne	.L32
 668              		.loc 1 117 0
 669 0094 02A9     		add	r1, sp, #8
 670 0096 0F48     		ldr	r0, .L42+4
 671 0098 FFF7FEFF 		bl	chHeapStatus
 672              	.LVL66:
 673 009c 421E     		subs	r2, r0, #1
 674 009e 5142     		rsbs	r1, r2, #0
 675 00a0 5141     		adcs	r1, r1, r2
 676 00a2 0320     		movs	r0, #3
ARM GAS  /tmp/ccCPaF2U.s 			page 13


 677 00a4 FFF7FEFF 		bl	_test_assert
 678              	.LVL67:
 679 00a8 0028     		cmp	r0, #0
 680 00aa E9D1     		bne	.L32
 681              		.loc 1 118 0
 682 00ac 0299     		ldr	r1, [sp, #8]
 683              	.LVL68:
 684 00ae 039B     		ldr	r3, [sp, #12]
 685 00b0 0420     		movs	r0, #4
 686 00b2 CB1A     		subs	r3, r1, r3
 687 00b4 5942     		rsbs	r1, r3, #0
 688 00b6 5941     		adcs	r1, r1, r3
 689 00b8 FFF7FEFF 		bl	_test_assert
 690              	.LVL69:
 691 00bc E0E7     		b	.L32
 692              	.LVL70:
 693              	.L40:
 694              		.loc 1 105 0 discriminator 4
 695 00be E368     		ldr	r3, [r4, #12]
 696 00c0 002B     		cmp	r3, #0
 697 00c2 D9D1     		bne	.L33
 698              		.loc 1 105 0 is_stmt 0 discriminator 5
 699 00c4 2169     		ldr	r1, [r4, #16]
 700 00c6 D1F10101 		rsbs	r1, r1, #1
 701 00ca 38BF     		it	cc
 702 00cc 0021     		movcc	r1, #0
 703 00ce D3E7     		b	.L33
 704              	.L43:
 705              		.align	2
 706              	.L42:
 707 00d0 00000000 		.word	rlist
 708 00d4 00000000 		.word	.LANCHOR0
 709 00d8 00000000 		.word	threads
 710 00dc 00000000 		.word	.LC0
 711 00e0 00000000 		.word	thread
 712 00e4 04000000 		.word	.LC1
 713 00e8 08000000 		.word	.LC2
 714 00ec 1C000000 		.word	.LC6
 715              		.cfi_endproc
 716              	.LFE9:
 717              		.size	dyn1_execute, .-dyn1_execute
 718              		.global	patterndyn
 719              		.global	testdyn3
 720              		.global	testdyn2
 721              		.global	testdyn1
 722              		.section	.rodata.testdyn1,"a",%progbits
 723              		.align	2
 724              		.type	testdyn1, %object
 725              		.size	testdyn1, 16
 726              	testdyn1:
 727 0000 78000000 		.word	.LC9
 728 0004 00000000 		.word	dyn1_setup
 729 0008 00000000 		.word	0
 730 000c 00000000 		.word	dyn1_execute
 731              		.section	.rodata.testdyn2,"a",%progbits
 732              		.align	2
 733              		.type	testdyn2, %object
ARM GAS  /tmp/ccCPaF2U.s 			page 14


 734              		.size	testdyn2, 16
 735              	testdyn2:
 736 0000 48000000 		.word	.LC8
 737 0004 00000000 		.word	dyn2_setup
 738 0008 00000000 		.word	0
 739 000c 00000000 		.word	dyn2_execute
 740              		.section	.rodata.testdyn3,"a",%progbits
 741              		.align	2
 742              		.type	testdyn3, %object
 743              		.size	testdyn3, 16
 744              	testdyn3:
 745 0000 20000000 		.word	.LC7
 746 0004 00000000 		.word	dyn3_setup
 747 0008 00000000 		.word	0
 748 000c 00000000 		.word	dyn3_execute
 749              		.section	.bss.mp1,"aw",%nobits
 750              		.align	2
 751              		.set	.LANCHOR1,. + 0
 752              		.type	mp1, %object
 753              		.size	mp1, 12
 754              	mp1:
 755 0000 00000000 		.space	12
 755      00000000 
 755      00000000 
 756              		.section	.rodata.str1.4,"aMS",%progbits,1
 757              		.align	2
 758              	.LC0:
 759 0000 4100     		.ascii	"A\000"
 760 0002 0000     		.space	2
 761              	.LC1:
 762 0004 4200     		.ascii	"B\000"
 763 0006 0000     		.space	2
 764              	.LC2:
 765 0008 4300     		.ascii	"C\000"
 766 000a 0000     		.space	2
 767              	.LC3:
 768 000c 4400     		.ascii	"D\000"
 769 000e 0000     		.space	2
 770              	.LC4:
 771 0010 4500     		.ascii	"E\000"
 772 0012 0000     		.space	2
 773              	.LC5:
 774 0014 41424344 		.ascii	"ABCD\000"
 774      00
 775 0019 000000   		.space	3
 776              	.LC6:
 777 001c 414200   		.ascii	"AB\000"
 778 001f 00       		.space	1
 779              	.LC7:
 780 0020 44796E61 		.ascii	"Dynamic APIs, registry and references\000"
 780      6D696320 
 780      41504973 
 780      2C207265 
 780      67697374 
 781 0046 0000     		.space	2
 782              	.LC8:
 783 0048 44796E61 		.ascii	"Dynamic APIs, threads creation from memory pool\000"
ARM GAS  /tmp/ccCPaF2U.s 			page 15


 783      6D696320 
 783      41504973 
 783      2C207468 
 783      72656164 
 784              	.LC9:
 785 0078 44796E61 		.ascii	"Dynamic APIs, threads creation from heap\000"
 785      6D696320 
 785      41504973 
 785      2C207468 
 785      72656164 
 786 00a1 000000   		.section	.rodata.patterndyn,"a",%progbits
 787              		.align	2
 788              		.type	patterndyn, %object
 789              		.size	patterndyn, 16
 790              	patterndyn:
 791 0000 00000000 		.word	testdyn1
 792 0004 00000000 		.word	testdyn2
 793 0008 00000000 		.word	testdyn3
 794 000c 00000000 		.word	0
 795              		.section	.bss.heap1,"aw",%nobits
 796              		.align	3
 797              		.set	.LANCHOR0,. + 0
 798              		.type	heap1, %object
 799              		.size	heap1, 32
 800              	heap1:
 801 0000 00000000 		.space	32
 801      00000000 
 801      00000000 
 801      00000000 
 801      00000000 
 802              		.text
 803              	.Letext0:
 804              		.file 2 "/opt/psas/x-tools/stm32f407/arm-psas-eabi/bin/../lib/gcc/arm-psas-eabi/4.7.2/include/stdd
 805              		.file 3 "/opt/psas/x-tools/stm32f407/arm-psas-eabi/bin/../lib/gcc/arm-psas-eabi/4.7.2/../../../../
 806              		.file 4 "../../os/ports/GCC/ARMCMx/chtypes.h"
 807              		.file 5 "../../os/kernel/include/chlists.h"
 808              		.file 6 "../../os/kernel/include/chthreads.h"
 809              		.file 7 "../../os/ports/GCC/ARMCMx/chcore_v7m.h"
 810              		.file 8 "../../os/kernel/include/chschd.h"
 811              		.file 9 "../../os/kernel/include/chmtx.h"
 812              		.file 10 "../../os/kernel/include/chmemcore.h"
 813              		.file 11 "../../os/kernel/include/chheap.h"
 814              		.file 12 "../../os/kernel/include/chmempools.h"
 815              		.file 13 "../../test/test.h"
 816              		.file 14 "../../os/kernel/include/chregistry.h"
 817              		.file 15 "../../os/kernel/include/chdynamic.h"