ARM GAS  /tmp/cc9qVUJH.s 			page 1


   1              		.syntax unified
   2              		.cpu cortex-m4
   3              		.eabi_attribute 27, 3
   4              		.eabi_attribute 28, 1
   5              		.fpu fpv4-sp-d16
   6              		.eabi_attribute 20, 1
   7              		.eabi_attribute 21, 1
   8              		.eabi_attribute 23, 3
   9              		.eabi_attribute 24, 1
  10              		.eabi_attribute 25, 1
  11              		.eabi_attribute 26, 1
  12              		.eabi_attribute 30, 2
  13              		.eabi_attribute 34, 1
  14              		.eabi_attribute 18, 4
  15              		.thumb
  16              		.file	"testheap.c"
  17              		.text
  18              	.Ltext0:
  19              		.cfi_sections	.debug_frame
  20              		.section	.text.heap1_execute,"ax",%progbits
  21              		.align	2
  22              		.p2align 4,,15
  23              		.thumb
  24              		.thumb_func
  25              		.type	heap1_execute, %function
  26              	heap1_execute:
  27              	.LFB8:
  28              		.file 1 "../../test/testheap.c"
  29              		.loc 1 73 0
  30              		.cfi_startproc
  31              		@ args = 0, pretend = 0, frame = 8
  32              		@ frame_needed = 0, uses_anonymous_args = 0
  33 0000 70B5     		push	{r4, r5, r6, lr}
  34              	.LCFI0:
  35              		.cfi_def_cfa_offset 16
  36              		.cfi_offset 4, -16
  37              		.cfi_offset 5, -12
  38              		.cfi_offset 6, -8
  39              		.cfi_offset 14, -4
  40 0002 82B0     		sub	sp, sp, #8
  41              	.LCFI1:
  42              		.cfi_def_cfa_offset 24
  43              		.loc 1 78 0
  44 0004 FFF7FEFF 		bl	chCoreStatus
  45              	.LVL0:
  46              		.loc 1 84 0
  47 0008 01A9     		add	r1, sp, #4
  48 000a 0020     		movs	r0, #0
  49 000c FFF7FEFF 		bl	chHeapStatus
  50              	.LVL1:
  51              		.loc 1 85 0
  52 0010 1021     		movs	r1, #16
  53 0012 0020     		movs	r0, #0
  54 0014 FFF7FEFF 		bl	chHeapAlloc
  55              	.LVL2:
  56              		.loc 1 86 0
  57 0018 011C     		adds	r1, r0, #0
ARM GAS  /tmp/cc9qVUJH.s 			page 2


  58 001a 18BF     		it	ne
  59 001c 0121     		movne	r1, #1
  60 001e 0446     		mov	r4, r0
  61 0020 0120     		movs	r0, #1
  62              	.LVL3:
  63 0022 FFF7FEFF 		bl	_test_assert
  64              	.LVL4:
  65 0026 0546     		mov	r5, r0
  66 0028 08B1     		cbz	r0, .L7
  67              	.LVL5:
  68              	.L1:
  69              		.loc 1 144 0
  70 002a 02B0     		add	sp, sp, #8
  71 002c 70BD     		pop	{r4, r5, r6, pc}
  72              	.LVL6:
  73              	.L7:
  74              		.loc 1 87 0
  75 002e 2046     		mov	r0, r4
  76 0030 FFF7FEFF 		bl	chHeapFree
  77              	.LVL7:
  78              		.loc 1 88 0
  79 0034 6FF0FF01 		mvn	r1, #255
  80 0038 2846     		mov	r0, r5
  81 003a FFF7FEFF 		bl	chHeapAlloc
  82              	.LVL8:
  83              		.loc 1 89 0
  84 003e D0F10101 		rsbs	r1, r0, #1
  85 0042 38BF     		it	cc
  86 0044 0021     		movcc	r1, #0
  87 0046 0220     		movs	r0, #2
  88              	.LVL9:
  89 0048 FFF7FEFF 		bl	_test_assert
  90              	.LVL10:
  91 004c 0028     		cmp	r0, #0
  92 004e ECD1     		bne	.L1
  93              		.loc 1 92 0
  94 0050 01A9     		add	r1, sp, #4
  95 0052 7C48     		ldr	r0, .L8
  96 0054 FFF7FEFF 		bl	chHeapStatus
  97              	.LVL11:
  98              		.loc 1 95 0
  99 0058 1021     		movs	r1, #16
 100 005a 7A48     		ldr	r0, .L8
 101 005c FFF7FEFF 		bl	chHeapAlloc
 102              	.LVL12:
 103              		.loc 1 96 0
 104 0060 1021     		movs	r1, #16
 105              		.loc 1 95 0
 106 0062 0546     		mov	r5, r0
 107              	.LVL13:
 108              		.loc 1 96 0
 109 0064 7748     		ldr	r0, .L8
 110              	.LVL14:
 111 0066 FFF7FEFF 		bl	chHeapAlloc
 112              	.LVL15:
 113              		.loc 1 97 0
 114 006a 1021     		movs	r1, #16
ARM GAS  /tmp/cc9qVUJH.s 			page 3


 115              		.loc 1 96 0
 116 006c 0446     		mov	r4, r0
 117              	.LVL16:
 118              		.loc 1 97 0
 119 006e 7548     		ldr	r0, .L8
 120              	.LVL17:
 121 0070 FFF7FEFF 		bl	chHeapAlloc
 122              	.LVL18:
 123 0074 0646     		mov	r6, r0
 124              	.LVL19:
 125              		.loc 1 98 0
 126 0076 2846     		mov	r0, r5
 127              	.LVL20:
 128 0078 FFF7FEFF 		bl	chHeapFree
 129              	.LVL21:
 130              		.loc 1 99 0
 131 007c 2046     		mov	r0, r4
 132 007e FFF7FEFF 		bl	chHeapFree
 133              	.LVL22:
 134              		.loc 1 100 0
 135 0082 3046     		mov	r0, r6
 136 0084 FFF7FEFF 		bl	chHeapFree
 137              	.LVL23:
 138              		.loc 1 101 0
 139 0088 6946     		mov	r1, sp
 140 008a 6E48     		ldr	r0, .L8
 141 008c FFF7FEFF 		bl	chHeapStatus
 142              	.LVL24:
 143 0090 B0F1010E 		subs	lr, r0, #1
 144 0094 DEF10001 		rsbs	r1, lr, #0
 145 0098 51EB0E01 		adcs	r1, r1, lr
 146 009c 0320     		movs	r0, #3
 147 009e FFF7FEFF 		bl	_test_assert
 148              	.LVL25:
 149 00a2 0028     		cmp	r0, #0
 150 00a4 C1D1     		bne	.L1
 151              		.loc 1 104 0
 152 00a6 1021     		movs	r1, #16
 153 00a8 6648     		ldr	r0, .L8
 154 00aa FFF7FEFF 		bl	chHeapAlloc
 155              	.LVL26:
 156              		.loc 1 105 0
 157 00ae 1021     		movs	r1, #16
 158              		.loc 1 104 0
 159 00b0 0446     		mov	r4, r0
 160              	.LVL27:
 161              		.loc 1 105 0
 162 00b2 6448     		ldr	r0, .L8
 163              	.LVL28:
 164 00b4 FFF7FEFF 		bl	chHeapAlloc
 165              	.LVL29:
 166              		.loc 1 106 0
 167 00b8 1021     		movs	r1, #16
 168              		.loc 1 105 0
 169 00ba 0546     		mov	r5, r0
 170              	.LVL30:
 171              		.loc 1 106 0
ARM GAS  /tmp/cc9qVUJH.s 			page 4


 172 00bc 6148     		ldr	r0, .L8
 173              	.LVL31:
 174 00be FFF7FEFF 		bl	chHeapAlloc
 175              	.LVL32:
 176              		.loc 1 107 0
 177 00c2 FFF7FEFF 		bl	chHeapFree
 178              	.LVL33:
 179              		.loc 1 108 0
 180 00c6 2846     		mov	r0, r5
 181 00c8 FFF7FEFF 		bl	chHeapFree
 182              	.LVL34:
 183              		.loc 1 109 0
 184 00cc 2046     		mov	r0, r4
 185 00ce FFF7FEFF 		bl	chHeapFree
 186              	.LVL35:
 187              		.loc 1 110 0
 188 00d2 6946     		mov	r1, sp
 189 00d4 5B48     		ldr	r0, .L8
 190 00d6 FFF7FEFF 		bl	chHeapStatus
 191              	.LVL36:
 192 00da 0138     		subs	r0, r0, #1
 193 00dc 4142     		rsbs	r1, r0, #0
 194 00de 4141     		adcs	r1, r1, r0
 195 00e0 0420     		movs	r0, #4
 196 00e2 FFF7FEFF 		bl	_test_assert
 197              	.LVL37:
 198 00e6 0028     		cmp	r0, #0
 199 00e8 9FD1     		bne	.L1
 200              		.loc 1 113 0
 201 00ea 1121     		movs	r1, #17
 202 00ec 5548     		ldr	r0, .L8
 203 00ee FFF7FEFF 		bl	chHeapAlloc
 204              	.LVL38:
 205              		.loc 1 114 0
 206 00f2 1021     		movs	r1, #16
 207              		.loc 1 113 0
 208 00f4 0446     		mov	r4, r0
 209              	.LVL39:
 210              		.loc 1 114 0
 211 00f6 5348     		ldr	r0, .L8
 212              	.LVL40:
 213 00f8 FFF7FEFF 		bl	chHeapAlloc
 214              	.LVL41:
 215 00fc 0546     		mov	r5, r0
 216              	.LVL42:
 217              		.loc 1 115 0
 218 00fe 2046     		mov	r0, r4
 219              	.LVL43:
 220 0100 FFF7FEFF 		bl	chHeapFree
 221              	.LVL44:
 222              		.loc 1 116 0
 223 0104 6946     		mov	r1, sp
 224 0106 4F48     		ldr	r0, .L8
 225 0108 FFF7FEFF 		bl	chHeapStatus
 226              	.LVL45:
 227 010c 821E     		subs	r2, r0, #2
 228 010e 5142     		rsbs	r1, r2, #0
ARM GAS  /tmp/cc9qVUJH.s 			page 5


 229 0110 5141     		adcs	r1, r1, r2
 230 0112 0520     		movs	r0, #5
 231 0114 FFF7FEFF 		bl	_test_assert
 232              	.LVL46:
 233 0118 0028     		cmp	r0, #0
 234 011a 86D1     		bne	.L1
 235              		.loc 1 117 0
 236 011c 1021     		movs	r1, #16
 237 011e 4948     		ldr	r0, .L8
 238 0120 FFF7FEFF 		bl	chHeapAlloc
 239              	.LVL47:
 240              		.loc 1 120 0
 241 0124 6946     		mov	r1, sp
 242              		.loc 1 117 0
 243 0126 0446     		mov	r4, r0
 244              	.LVL48:
 245              		.loc 1 120 0
 246 0128 4648     		ldr	r0, .L8
 247              	.LVL49:
 248 012a FFF7FEFF 		bl	chHeapStatus
 249              	.LVL50:
 250 012e 0128     		cmp	r0, #1
 251 0130 08BF     		it	eq
 252 0132 0146     		moveq	r1, r0
 253 0134 06D0     		beq	.L3
 254              		.loc 1 120 0 is_stmt 0 discriminator 2
 255 0136 6946     		mov	r1, sp
 256 0138 4248     		ldr	r0, .L8
 257 013a FFF7FEFF 		bl	chHeapStatus
 258              	.LVL51:
 259 013e 831E     		subs	r3, r0, #2
 260 0140 5942     		rsbs	r1, r3, #0
 261 0142 5941     		adcs	r1, r1, r3
 262              	.L3:
 263              		.loc 1 120 0 discriminator 4
 264 0144 0620     		movs	r0, #6
 265 0146 FFF7FEFF 		bl	_test_assert
 266              	.LVL52:
 267 014a 0028     		cmp	r0, #0
 268 014c 7FF46DAF 		bne	.L1
 269              		.loc 1 122 0 is_stmt 1
 270 0150 2846     		mov	r0, r5
 271 0152 FFF7FEFF 		bl	chHeapFree
 272              	.LVL53:
 273              		.loc 1 123 0
 274 0156 2046     		mov	r0, r4
 275 0158 FFF7FEFF 		bl	chHeapFree
 276              	.LVL54:
 277              		.loc 1 124 0
 278 015c 6946     		mov	r1, sp
 279 015e 3948     		ldr	r0, .L8
 280 0160 FFF7FEFF 		bl	chHeapStatus
 281              	.LVL55:
 282 0164 B0F1010C 		subs	ip, r0, #1
 283 0168 DCF10001 		rsbs	r1, ip, #0
 284 016c 51EB0C01 		adcs	r1, r1, ip
 285 0170 0720     		movs	r0, #7
ARM GAS  /tmp/cc9qVUJH.s 			page 6


 286 0172 FFF7FEFF 		bl	_test_assert
 287              	.LVL56:
 288 0176 0028     		cmp	r0, #0
 289 0178 7FF457AF 		bne	.L1
 290              		.loc 1 127 0
 291 017c 1021     		movs	r1, #16
 292 017e 3148     		ldr	r0, .L8
 293 0180 FFF7FEFF 		bl	chHeapAlloc
 294              	.LVL57:
 295              		.loc 1 128 0
 296 0184 1021     		movs	r1, #16
 297              		.loc 1 127 0
 298 0186 0546     		mov	r5, r0
 299              	.LVL58:
 300              		.loc 1 128 0
 301 0188 2E48     		ldr	r0, .L8
 302              	.LVL59:
 303 018a FFF7FEFF 		bl	chHeapAlloc
 304              	.LVL60:
 305 018e 0446     		mov	r4, r0
 306              	.LVL61:
 307              		.loc 1 129 0
 308 0190 2846     		mov	r0, r5
 309              	.LVL62:
 310 0192 FFF7FEFF 		bl	chHeapFree
 311              	.LVL63:
 312              		.loc 1 130 0
 313 0196 6946     		mov	r1, sp
 314 0198 2A48     		ldr	r0, .L8
 315 019a FFF7FEFF 		bl	chHeapStatus
 316              	.LVL64:
 317 019e B0F1020E 		subs	lr, r0, #2
 318 01a2 DEF10001 		rsbs	r1, lr, #0
 319 01a6 51EB0E01 		adcs	r1, r1, lr
 320 01aa 0820     		movs	r0, #8
 321 01ac FFF7FEFF 		bl	_test_assert
 322              	.LVL65:
 323 01b0 0028     		cmp	r0, #0
 324 01b2 7FF43AAF 		bne	.L1
 325              		.loc 1 131 0
 326 01b6 2021     		movs	r1, #32
 327 01b8 2248     		ldr	r0, .L8
 328 01ba FFF7FEFF 		bl	chHeapAlloc
 329              	.LVL66:
 330              		.loc 1 132 0
 331 01be FFF7FEFF 		bl	chHeapFree
 332              	.LVL67:
 333              		.loc 1 133 0
 334 01c2 2046     		mov	r0, r4
 335 01c4 FFF7FEFF 		bl	chHeapFree
 336              	.LVL68:
 337              		.loc 1 134 0
 338 01c8 6946     		mov	r1, sp
 339 01ca 1E48     		ldr	r0, .L8
 340 01cc FFF7FEFF 		bl	chHeapStatus
 341              	.LVL69:
 342 01d0 0138     		subs	r0, r0, #1
ARM GAS  /tmp/cc9qVUJH.s 			page 7


 343 01d2 4142     		rsbs	r1, r0, #0
 344 01d4 4141     		adcs	r1, r1, r0
 345 01d6 0920     		movs	r0, #9
 346 01d8 FFF7FEFF 		bl	_test_assert
 347              	.LVL70:
 348 01dc 0028     		cmp	r0, #0
 349 01de 7FF424AF 		bne	.L1
 350              		.loc 1 137 0
 351 01e2 6946     		mov	r1, sp
 352 01e4 1748     		ldr	r0, .L8
 353 01e6 FFF7FEFF 		bl	chHeapStatus
 354              	.LVL71:
 355              		.loc 1 138 0
 356 01ea 0099     		ldr	r1, [sp, #0]
 357 01ec 1548     		ldr	r0, .L8
 358 01ee FFF7FEFF 		bl	chHeapAlloc
 359              	.LVL72:
 360              		.loc 1 139 0
 361 01f2 6946     		mov	r1, sp
 362              		.loc 1 138 0
 363 01f4 0446     		mov	r4, r0
 364              	.LVL73:
 365              		.loc 1 139 0
 366 01f6 1348     		ldr	r0, .L8
 367              	.LVL74:
 368 01f8 FFF7FEFF 		bl	chHeapStatus
 369              	.LVL75:
 370 01fc D0F10101 		rsbs	r1, r0, #1
 371 0200 38BF     		it	cc
 372 0202 0021     		movcc	r1, #0
 373 0204 0A20     		movs	r0, #10
 374 0206 FFF7FEFF 		bl	_test_assert
 375              	.LVL76:
 376 020a 0028     		cmp	r0, #0
 377 020c 7FF40DAF 		bne	.L1
 378              		.loc 1 140 0
 379 0210 2046     		mov	r0, r4
 380 0212 FFF7FEFF 		bl	chHeapFree
 381              	.LVL77:
 382              		.loc 1 142 0
 383 0216 6946     		mov	r1, sp
 384 0218 0A48     		ldr	r0, .L8
 385 021a FFF7FEFF 		bl	chHeapStatus
 386              	.LVL78:
 387 021e 421E     		subs	r2, r0, #1
 388 0220 5142     		rsbs	r1, r2, #0
 389 0222 5141     		adcs	r1, r1, r2
 390 0224 0B20     		movs	r0, #11
 391 0226 FFF7FEFF 		bl	_test_assert
 392              	.LVL79:
 393 022a 0028     		cmp	r0, #0
 394 022c 7FF4FDAE 		bne	.L1
 395              	.LVL80:
 396              		.loc 1 143 0
 397 0230 9DE80A00 		ldmia	sp, {r1, r3}
 398 0234 0C20     		movs	r0, #12
 399 0236 CB1A     		subs	r3, r1, r3
ARM GAS  /tmp/cc9qVUJH.s 			page 8


 400              	.LVL81:
 401 0238 5942     		rsbs	r1, r3, #0
 402              	.LVL82:
 403 023a 5941     		adcs	r1, r1, r3
 404 023c FFF7FEFF 		bl	_test_assert
 405              	.LVL83:
 406 0240 F3E6     		b	.L1
 407              	.L9:
 408 0242 00BF     		.align	2
 409              	.L8:
 410 0244 00000000 		.word	.LANCHOR0
 411              		.cfi_endproc
 412              	.LFE8:
 413              		.size	heap1_execute, .-heap1_execute
 414 0248 AFF30080 		.section	.text.heap1_setup,"ax",%progbits
 414      AFF30080 
 415              		.align	2
 416              		.p2align 4,,15
 417              		.thumb
 418              		.thumb_func
 419              		.type	heap1_setup, %function
 420              	heap1_setup:
 421              	.LFB7:
 422              		.loc 1 68 0
 423              		.cfi_startproc
 424              		@ args = 0, pretend = 0, frame = 0
 425              		@ frame_needed = 0, uses_anonymous_args = 0
 426              		@ link register save eliminated.
 427              		.loc 1 70 0
 428 0000 40F20000 		movw	r0, #:lower16:.LANCHOR0
 429 0004 40F20001 		movw	r1, #:lower16:test
 430 0008 C0F20000 		movt	r0, #:upper16:.LANCHOR0
 431 000c C0F20001 		movt	r1, #:upper16:test
 432 0010 4FF4BE62 		mov	r2, #1520
 433              		.loc 1 71 0
 434              		.loc 1 70 0
 435 0014 FFF7FEBF 		b	chHeapInit
 436              	.LVL84:
 437              		.cfi_endproc
 438              	.LFE7:
 439              		.size	heap1_setup, .-heap1_setup
 440              		.global	patternheap
 441              		.global	testheap1
 442 0018 AFF30080 		.section	.rodata.patternheap,"a",%progbits
 442      AFF30080 
 443              		.align	2
 444              		.type	patternheap, %object
 445              		.size	patternheap, 8
 446              	patternheap:
 447 0000 00000000 		.word	testheap1
 448 0004 00000000 		.word	0
 449              		.section	.rodata.str1.4,"aMS",%progbits,1
 450              		.align	2
 451              	.LC0:
 452 0000 48656170 		.ascii	"Heap, allocation and fragmentation test\000"
 452      2C20616C 
 452      6C6F6361 
ARM GAS  /tmp/cc9qVUJH.s 			page 9


 452      74696F6E 
 452      20616E64 
 453              		.section	.rodata.testheap1,"a",%progbits
 454              		.align	2
 455              		.type	testheap1, %object
 456              		.size	testheap1, 16
 457              	testheap1:
 458 0000 00000000 		.word	.LC0
 459 0004 00000000 		.word	heap1_setup
 460 0008 00000000 		.word	0
 461 000c 00000000 		.word	heap1_execute
 462              		.section	.bss.test_heap,"aw",%nobits
 463              		.align	3
 464              		.set	.LANCHOR0,. + 0
 465              		.type	test_heap, %object
 466              		.size	test_heap, 32
 467              	test_heap:
 468 0000 00000000 		.space	32
 468      00000000 
 468      00000000 
 468      00000000 
 468      00000000 
 469              		.text
 470              	.Letext0:
 471              		.file 2 "/opt/psas/x-tools/stm32f407/arm-psas-eabi/bin/../lib/gcc/arm-psas-eabi/4.7.2/include/stdd
 472              		.file 3 "/opt/psas/x-tools/stm32f407/arm-psas-eabi/bin/../lib/gcc/arm-psas-eabi/4.7.2/../../../../
 473              		.file 4 "../../os/ports/GCC/ARMCMx/chtypes.h"
 474              		.file 5 "../../os/kernel/include/chlists.h"
 475              		.file 6 "../../os/kernel/include/chthreads.h"
 476              		.file 7 "../../os/ports/GCC/ARMCMx/chcore_v7m.h"
 477              		.file 8 "../../os/kernel/include/chmtx.h"
 478              		.file 9 "../../os/kernel/include/chmemcore.h"
 479              		.file 10 "../../os/kernel/include/chheap.h"
 480              		.file 11 "../../test/test.h"