ARM GAS  /tmp/ccJsjeCt.s 			page 1


   1              		.syntax unified
   2              		.cpu cortex-m4
   3              		.eabi_attribute 27, 3
   4              		.eabi_attribute 28, 1
   5              		.fpu fpv4-sp-d16
   6              		.eabi_attribute 20, 1
   7              		.eabi_attribute 21, 1
   8              		.eabi_attribute 23, 3
   9              		.eabi_attribute 24, 1
  10              		.eabi_attribute 25, 1
  11              		.eabi_attribute 26, 1
  12              		.eabi_attribute 30, 2
  13              		.eabi_attribute 34, 1
  14              		.eabi_attribute 18, 4
  15              		.thumb
  16              		.file	"testevt.c"
  17              		.text
  18              	.Ltext0:
  19              		.cfi_sections	.debug_frame
  20              		.section	.text.evt3_setup,"ax",%progbits
  21              		.align	2
  22              		.p2align 4,,15
  23              		.thumb
  24              		.thumb_func
  25              		.type	evt3_setup, %function
  26              	evt3_setup:
  27              	.LFB16:
  28              		.file 1 "../../test/testevt.c"
  29              		.loc 1 251 0
  30              		.cfi_startproc
  31              		@ args = 0, pretend = 0, frame = 0
  32              		@ frame_needed = 0, uses_anonymous_args = 0
  33              		@ link register save eliminated.
  34              		.loc 1 253 0
  35 0000 4FF0FF30 		mov	r0, #-1
  36              		.loc 1 254 0
  37              		.loc 1 253 0
  38 0004 FFF7FEBF 		b	chEvtGetAndClearEvents
  39              	.LVL0:
  40              		.cfi_endproc
  41              	.LFE16:
  42              		.size	evt3_setup, .-evt3_setup
  43 0008 AFF30080 		.section	.text.evt2_setup,"ax",%progbits
  43      AFF30080 
  44              		.align	2
  45              		.p2align 4,,15
  46              		.thumb
  47              		.thumb_func
  48              		.type	evt2_setup, %function
  49              	evt2_setup:
  50              	.LFB12:
  51              		.loc 1 132 0
  52              		.cfi_startproc
  53              		@ args = 0, pretend = 0, frame = 0
  54              		@ frame_needed = 0, uses_anonymous_args = 0
  55              		@ link register save eliminated.
  56              		.loc 1 134 0
ARM GAS  /tmp/ccJsjeCt.s 			page 2


  57 0000 4FF0FF30 		mov	r0, #-1
  58              		.loc 1 135 0
  59              		.loc 1 134 0
  60 0004 FFF7FEBF 		b	chEvtGetAndClearEvents
  61              	.LVL1:
  62              		.cfi_endproc
  63              	.LFE12:
  64              		.size	evt2_setup, .-evt2_setup
  65 0008 AFF30080 		.section	.text.evt1_setup,"ax",%progbits
  65      AFF30080 
  66              		.align	2
  67              		.p2align 4,,15
  68              		.thumb
  69              		.thumb_func
  70              		.type	evt1_setup, %function
  71              	evt1_setup:
  72              	.LFB7:
  73              		.loc 1 79 0
  74              		.cfi_startproc
  75              		@ args = 0, pretend = 0, frame = 0
  76              		@ frame_needed = 0, uses_anonymous_args = 0
  77              		@ link register save eliminated.
  78              		.loc 1 81 0
  79 0000 4FF0FF30 		mov	r0, #-1
  80              		.loc 1 82 0
  81              		.loc 1 81 0
  82 0004 FFF7FEBF 		b	chEvtGetAndClearEvents
  83              	.LVL2:
  84              		.cfi_endproc
  85              	.LFE7:
  86              		.size	evt1_setup, .-evt1_setup
  87 0008 AFF30080 		.section	.text.evt2_execute,"ax",%progbits
  87      AFF30080 
  88              		.align	2
  89              		.p2align 4,,15
  90              		.thumb
  91              		.thumb_func
  92              		.type	evt2_execute, %function
  93              	evt2_execute:
  94              	.LFB15:
  95              		.loc 1 153 0
  96              		.cfi_startproc
  97              		@ args = 0, pretend = 0, frame = 40
  98              		@ frame_needed = 0, uses_anonymous_args = 0
  99 0000 2DE9F042 		push	{r4, r5, r6, r7, r9, lr}
 100              	.LCFI0:
 101              		.cfi_def_cfa_offset 24
 102              		.cfi_offset 4, -24
 103              		.cfi_offset 5, -20
 104              		.cfi_offset 6, -16
 105              		.cfi_offset 7, -12
 106              		.cfi_offset 9, -8
 107              		.cfi_offset 14, -4
 108              		.loc 1 161 0
 109 0004 0520     		movs	r0, #5
 110              		.loc 1 153 0
 111 0006 8CB0     		sub	sp, sp, #48
ARM GAS  /tmp/ccJsjeCt.s 			page 3


 112              	.LCFI1:
 113              		.cfi_def_cfa_offset 72
 114              		.loc 1 161 0
 115 0008 FFF7FEFF 		bl	chEvtAddEvents
 116              	.LVL3:
 117              		.loc 1 162 0
 118 000c 4FF0FF30 		mov	r0, #-1
 119 0010 FFF7FEFF 		bl	chEvtWaitOne
 120              	.LVL4:
 121              		.loc 1 163 0
 122 0014 0138     		subs	r0, r0, #1
 123              	.LVL5:
 124 0016 4142     		rsbs	r1, r0, #0
 125 0018 4141     		adcs	r1, r1, r0
 126 001a 0120     		movs	r0, #1
 127              	.LVL6:
 128 001c FFF7FEFF 		bl	_test_assert
 129              	.LVL7:
 130 0020 10B1     		cbz	r0, .L8
 131              	.L4:
 132              		.loc 1 226 0
 133 0022 0CB0     		add	sp, sp, #48
 134 0024 BDE8F082 		pop	{r4, r5, r6, r7, r9, pc}
 135              	.L8:
 136              		.loc 1 164 0
 137 0028 4FF0FF30 		mov	r0, #-1
 138 002c FFF7FEFF 		bl	chEvtWaitOne
 139              	.LVL8:
 140              		.loc 1 165 0
 141 0030 021F     		subs	r2, r0, #4
 142 0032 5142     		rsbs	r1, r2, #0
 143 0034 5141     		adcs	r1, r1, r2
 144 0036 0220     		movs	r0, #2
 145              	.LVL9:
 146 0038 FFF7FEFF 		bl	_test_assert
 147              	.LVL10:
 148 003c 0028     		cmp	r0, #0
 149 003e F0D1     		bne	.L4
 150              		.loc 1 166 0
 151 0040 4FF0FF30 		mov	r0, #-1
 152 0044 FFF7FEFF 		bl	chEvtGetAndClearEvents
 153              	.LVL11:
 154              		.loc 1 167 0
 155 0048 D0F10101 		rsbs	r1, r0, #1
 156 004c 38BF     		it	cc
 157 004e 0021     		movcc	r1, #0
 158 0050 0320     		movs	r0, #3
 159              	.LVL12:
 160 0052 FFF7FEFF 		bl	_test_assert
 161              	.LVL13:
 162 0056 0028     		cmp	r0, #0
 163 0058 E3D1     		bne	.L4
 164              		.loc 1 174 0
 165 005a 754D     		ldr	r5, .L9
 166              		.loc 1 173 0
 167 005c 754F     		ldr	r7, .L9+4
 168              		.loc 1 174 0
ARM GAS  /tmp/ccJsjeCt.s 			page 4


 169 005e 764E     		ldr	r6, .L9+8
 170              		.loc 1 172 0
 171 0060 FFF7FEFF 		bl	test_wait_tick
 172              	.LVL14:
 173              		.loc 1 174 0
 174 0064 754B     		ldr	r3, .L9+12
 175 0066 A969     		ldr	r1, [r5, #24]
 176 0068 1B68     		ldr	r3, [r3, #0]
 177 006a 8A68     		ldr	r2, [r1, #8]
 178 006c 0393     		str	r3, [sp, #12]
 179 006e 0091     		str	r1, [sp, #0]
 180 0070 013A     		subs	r2, r2, #1
 181 0072 4FF49871 		mov	r1, #304
 182 0076 724B     		ldr	r3, .L9+16
 183 0078 0398     		ldr	r0, [sp, #12]
 184              		.loc 1 173 0
 185 007a FC68     		ldr	r4, [r7, #12]
 186              	.LVL15:
 187              		.loc 1 174 0
 188 007c FFF7FEFF 		bl	chThdCreateStatic
 189              	.LVL16:
 190 0080 3060     		str	r0, [r6, #0]
 191              		.loc 1 176 0
 192 0082 4FF0FF30 		mov	r0, #-1
 193 0086 FFF7FEFF 		bl	chEvtWaitOne
 194              	.LVL17:
 195              		.loc 1 177 0
 196 008a 04F13201 		add	r1, r4, #50
 197              	.LVL18:
 198              		.loc 1 176 0
 199 008e 8146     		mov	r9, r0
 200              	.LVL19:
 201              		.loc 1 177 0
 202 0090 04F13702 		add	r2, r4, #55
 203 0094 0420     		movs	r0, #4
 204              	.LVL20:
 205 0096 FFF7FEFF 		bl	_test_assert_time_window
 206              	.LVL21:
 207 009a 0028     		cmp	r0, #0
 208 009c C1D1     		bne	.L4
 209              		.loc 1 178 0
 210 009e 0520     		movs	r0, #5
 211 00a0 B9F10103 		subs	r3, r9, #1
 212 00a4 5942     		rsbs	r1, r3, #0
 213 00a6 5941     		adcs	r1, r1, r3
 214 00a8 FFF7FEFF 		bl	_test_assert
 215              	.LVL22:
 216 00ac 0028     		cmp	r0, #0
 217 00ae B8D1     		bne	.L4
 218              		.loc 1 179 0
 219 00b0 4FF0FF30 		mov	r0, #-1
 220 00b4 FFF7FEFF 		bl	chEvtGetAndClearEvents
 221              	.LVL23:
 222              		.loc 1 180 0
 223 00b8 D0F10101 		rsbs	r1, r0, #1
 224 00bc 38BF     		it	cc
 225 00be 0021     		movcc	r1, #0
ARM GAS  /tmp/ccJsjeCt.s 			page 5


 226 00c0 0620     		movs	r0, #6
 227              	.LVL24:
 228 00c2 FFF7FEFF 		bl	_test_assert
 229              	.LVL25:
 230 00c6 0028     		cmp	r0, #0
 231 00c8 ABD1     		bne	.L4
 232              		.loc 1 181 0
 233 00ca FFF7FEFF 		bl	test_wait_threads
 234              	.LVL26:
 235              		.loc 1 186 0
 236 00ce 0520     		movs	r0, #5
 237 00d0 FFF7FEFF 		bl	chEvtAddEvents
 238              	.LVL27:
 239              		.loc 1 187 0
 240 00d4 4FF0FF30 		mov	r0, #-1
 241 00d8 FFF7FEFF 		bl	chEvtWaitAny
 242              	.LVL28:
 243              		.loc 1 188 0
 244 00dc B0F1050C 		subs	ip, r0, #5
 245 00e0 DCF10001 		rsbs	r1, ip, #0
 246 00e4 51EB0C01 		adcs	r1, r1, ip
 247 00e8 0720     		movs	r0, #7
 248              	.LVL29:
 249 00ea FFF7FEFF 		bl	_test_assert
 250              	.LVL30:
 251 00ee 0028     		cmp	r0, #0
 252 00f0 97D1     		bne	.L4
 253              		.loc 1 189 0
 254 00f2 4FF0FF30 		mov	r0, #-1
 255 00f6 FFF7FEFF 		bl	chEvtGetAndClearEvents
 256              	.LVL31:
 257              		.loc 1 190 0
 258 00fa D0F10101 		rsbs	r1, r0, #1
 259 00fe 38BF     		it	cc
 260 0100 0021     		movcc	r1, #0
 261 0102 0820     		movs	r0, #8
 262              	.LVL32:
 263 0104 FFF7FEFF 		bl	_test_assert
 264              	.LVL33:
 265 0108 0028     		cmp	r0, #0
 266 010a 8AD1     		bne	.L4
 267              		.loc 1 195 0
 268 010c FFF7FEFF 		bl	test_wait_tick
 269              	.LVL34:
 270              		.loc 1 197 0
 271 0110 A969     		ldr	r1, [r5, #24]
 272 0112 4B4B     		ldr	r3, .L9+16
 273 0114 8A68     		ldr	r2, [r1, #8]
 274 0116 0398     		ldr	r0, [sp, #12]
 275 0118 0091     		str	r1, [sp, #0]
 276 011a 013A     		subs	r2, r2, #1
 277 011c 4FF49871 		mov	r1, #304
 278              		.loc 1 196 0
 279 0120 FC68     		ldr	r4, [r7, #12]
 280              	.LVL35:
 281              		.loc 1 197 0
 282 0122 FFF7FEFF 		bl	chThdCreateStatic
ARM GAS  /tmp/ccJsjeCt.s 			page 6


 283              	.LVL36:
 284 0126 3060     		str	r0, [r6, #0]
 285              		.loc 1 199 0
 286 0128 4FF0FF30 		mov	r0, #-1
 287 012c FFF7FEFF 		bl	chEvtWaitAny
 288              	.LVL37:
 289              		.loc 1 200 0
 290 0130 04F13201 		add	r1, r4, #50
 291              	.LVL38:
 292              		.loc 1 199 0
 293 0134 8146     		mov	r9, r0
 294              	.LVL39:
 295              		.loc 1 200 0
 296 0136 04F13702 		add	r2, r4, #55
 297 013a 0920     		movs	r0, #9
 298              	.LVL40:
 299 013c FFF7FEFF 		bl	_test_assert_time_window
 300              	.LVL41:
 301 0140 0028     		cmp	r0, #0
 302 0142 7FF46EAF 		bne	.L4
 303              		.loc 1 201 0
 304 0146 0A20     		movs	r0, #10
 305 0148 B9F1010E 		subs	lr, r9, #1
 306 014c DEF10001 		rsbs	r1, lr, #0
 307 0150 51EB0E01 		adcs	r1, r1, lr
 308 0154 FFF7FEFF 		bl	_test_assert
 309              	.LVL42:
 310 0158 0028     		cmp	r0, #0
 311 015a 7FF462AF 		bne	.L4
 312              		.loc 1 202 0
 313 015e 4FF0FF30 		mov	r0, #-1
 314 0162 FFF7FEFF 		bl	chEvtGetAndClearEvents
 315              	.LVL43:
 316              		.loc 1 203 0
 317 0166 D0F10101 		rsbs	r1, r0, #1
 318 016a 38BF     		it	cc
 319 016c 0021     		movcc	r1, #0
 320 016e 0B20     		movs	r0, #11
 321              	.LVL44:
 322 0170 FFF7FEFF 		bl	_test_assert
 323              	.LVL45:
 324 0174 0028     		cmp	r0, #0
 325 0176 7FF454AF 		bne	.L4
 326              		.loc 1 209 0
 327 017a DFF8D490 		ldr	r9, .L9+32
 328              		.loc 1 210 0
 329 017e 314C     		ldr	r4, .L9+20
 330              	.LVL46:
 331              		.loc 1 204 0
 332 0180 FFF7FEFF 		bl	test_wait_threads
 333              	.LVL47:
 334              		.loc 1 211 0
 335 0184 4846     		mov	r0, r9
 336 0186 04A9     		add	r1, sp, #16
 337 0188 0122     		movs	r2, #1
 338              		.loc 1 209 0
 339 018a C9F80090 		str	r9, [r9, #0]
ARM GAS  /tmp/ccJsjeCt.s 			page 7


 340              		.loc 1 210 0
 341 018e 2460     		str	r4, [r4, #0]
 342              		.loc 1 211 0
 343 0190 FFF7FEFF 		bl	chEvtRegisterMask
 344              	.LVL48:
 345              		.loc 1 212 0
 346 0194 08A9     		add	r1, sp, #32
 347 0196 0422     		movs	r2, #4
 348 0198 2046     		mov	r0, r4
 349 019a FFF7FEFF 		bl	chEvtRegisterMask
 350              	.LVL49:
 351              		.loc 1 213 0
 352 019e FFF7FEFF 		bl	test_wait_tick
 353              	.LVL50:
 354              		.loc 1 215 0
 355 01a2 AB69     		ldr	r3, [r5, #24]
 356 01a4 2849     		ldr	r1, .L9+24
 357 01a6 9A68     		ldr	r2, [r3, #8]
 358 01a8 0398     		ldr	r0, [sp, #12]
 359 01aa 0091     		str	r1, [sp, #0]
 360 01ac 013A     		subs	r2, r2, #1
 361 01ae 4FF49871 		mov	r1, #304
 362 01b2 264B     		ldr	r3, .L9+28
 363              		.loc 1 214 0
 364 01b4 FD68     		ldr	r5, [r7, #12]
 365              	.LVL51:
 366              		.loc 1 215 0
 367 01b6 FFF7FEFF 		bl	chThdCreateStatic
 368              	.LVL52:
 369 01ba 3060     		str	r0, [r6, #0]
 370              		.loc 1 217 0
 371 01bc 0520     		movs	r0, #5
 372 01be FFF7FEFF 		bl	chEvtWaitAll
 373              	.LVL53:
 374              		.loc 1 218 0
 375 01c2 0C20     		movs	r0, #12
 376 01c4 05F13201 		add	r1, r5, #50
 377              	.LVL54:
 378 01c8 05F13702 		add	r2, r5, #55
 379 01cc FFF7FEFF 		bl	_test_assert_time_window
 380              	.LVL55:
 381 01d0 0028     		cmp	r0, #0
 382 01d2 7FF426AF 		bne	.L4
 383              		.loc 1 219 0
 384 01d6 4FF0FF30 		mov	r0, #-1
 385 01da FFF7FEFF 		bl	chEvtGetAndClearEvents
 386              	.LVL56:
 387              		.loc 1 220 0
 388 01de D0F10101 		rsbs	r1, r0, #1
 389 01e2 38BF     		it	cc
 390 01e4 0021     		movcc	r1, #0
 391 01e6 0D20     		movs	r0, #13
 392              	.LVL57:
 393 01e8 FFF7FEFF 		bl	_test_assert
 394              	.LVL58:
 395 01ec 0028     		cmp	r0, #0
 396 01ee 7FF418AF 		bne	.L4
ARM GAS  /tmp/ccJsjeCt.s 			page 8


 397              		.loc 1 221 0
 398 01f2 FFF7FEFF 		bl	test_wait_threads
 399              	.LVL59:
 400              		.loc 1 222 0
 401 01f6 4846     		mov	r0, r9
 402 01f8 04A9     		add	r1, sp, #16
 403 01fa FFF7FEFF 		bl	chEvtUnregister
 404              	.LVL60:
 405              		.loc 1 223 0
 406 01fe 2046     		mov	r0, r4
 407 0200 08A9     		add	r1, sp, #32
 408 0202 FFF7FEFF 		bl	chEvtUnregister
 409              	.LVL61:
 410              		.loc 1 224 0
 411 0206 D9F80010 		ldr	r1, [r9, #0]
 412 020a 0E20     		movs	r0, #14
 413 020c B1EB0902 		subs	r2, r1, r9
 414 0210 5142     		rsbs	r1, r2, #0
 415 0212 5141     		adcs	r1, r1, r2
 416 0214 FFF7FEFF 		bl	_test_assert
 417              	.LVL62:
 418 0218 0028     		cmp	r0, #0
 419 021a 7FF402AF 		bne	.L4
 420              		.loc 1 225 0
 421 021e 2168     		ldr	r1, [r4, #0]
 422 0220 0F20     		movs	r0, #15
 423 0222 0B1B     		subs	r3, r1, r4
 424 0224 5942     		rsbs	r1, r3, #0
 425 0226 5941     		adcs	r1, r1, r3
 426 0228 FFF7FEFF 		bl	_test_assert
 427              	.LVL63:
 428 022c F9E6     		b	.L4
 429              	.L10:
 430 022e 00BF     		.align	2
 431              	.L9:
 432 0230 00000000 		.word	rlist
 433 0234 00000000 		.word	vtlist
 434 0238 00000000 		.word	threads
 435 023c 00000000 		.word	wa
 436 0240 00000000 		.word	thread1
 437 0244 00000000 		.word	.LANCHOR1
 438 0248 00000000 		.word	.LC0
 439 024c 00000000 		.word	thread2
 440 0250 00000000 		.word	.LANCHOR0
 441              		.cfi_endproc
 442              	.LFE15:
 443              		.size	evt2_execute, .-evt2_execute
 444 0254 AFF30080 		.section	.text.thread2,"ax",%progbits
 444      AFF30080 
 444      AFF30080 
 445              		.align	2
 446              		.p2align 4,,15
 447              		.thumb
 448              		.thumb_func
 449              		.type	thread2, %function
 450              	thread2:
 451              	.LFB14:
ARM GAS  /tmp/ccJsjeCt.s 			page 9


 452              		.loc 1 144 0
 453              		.cfi_startproc
 454              		@ args = 0, pretend = 0, frame = 0
 455              		@ frame_needed = 0, uses_anonymous_args = 0
 456              	.LVL64:
 457              		.loc 1 147 0
 458 0000 40F20000 		movw	r0, #:lower16:.LANCHOR0
 459              	.LVL65:
 460              		.loc 1 144 0
 461 0004 08B5     		push	{r3, lr}
 462              	.LCFI2:
 463              		.cfi_def_cfa_offset 8
 464              		.cfi_offset 3, -8
 465              		.cfi_offset 14, -4
 466              		.loc 1 147 0
 467 0006 0021     		movs	r1, #0
 468 0008 C0F20000 		movt	r0, #:upper16:.LANCHOR0
 469 000c FFF7FEFF 		bl	chEvtBroadcastFlags
 470              	.LVL66:
 471              		.loc 1 148 0
 472 0010 3220     		movs	r0, #50
 473 0012 FFF7FEFF 		bl	chThdSleep
 474              	.LVL67:
 475              		.loc 1 149 0
 476 0016 40F20000 		movw	r0, #:lower16:.LANCHOR1
 477 001a C0F20000 		movt	r0, #:upper16:.LANCHOR1
 478 001e 0021     		movs	r1, #0
 479 0020 FFF7FEFF 		bl	chEvtBroadcastFlags
 480              	.LVL68:
 481              		.loc 1 151 0
 482 0024 0020     		movs	r0, #0
 483 0026 08BD     		pop	{r3, pc}
 484              		.cfi_endproc
 485              	.LFE14:
 486              		.size	thread2, .-thread2
 487 0028 AFF30080 		.section	.text.thread1,"ax",%progbits
 487      AFF30080 
 488              		.align	2
 489              		.p2align 4,,15
 490              		.thumb
 491              		.thumb_func
 492              		.type	thread1, %function
 493              	thread1:
 494              	.LFB13:
 495              		.loc 1 137 0
 496              		.cfi_startproc
 497              		@ args = 0, pretend = 0, frame = 0
 498              		@ frame_needed = 0, uses_anonymous_args = 0
 499              	.LVL69:
 500 0000 10B5     		push	{r4, lr}
 501              	.LCFI3:
 502              		.cfi_def_cfa_offset 8
 503              		.cfi_offset 4, -8
 504              		.cfi_offset 14, -4
 505              		.loc 1 137 0
 506 0002 0446     		mov	r4, r0
 507              		.loc 1 139 0
ARM GAS  /tmp/ccJsjeCt.s 			page 10


 508 0004 3220     		movs	r0, #50
 509              	.LVL70:
 510 0006 FFF7FEFF 		bl	chThdSleep
 511              	.LVL71:
 512              		.loc 1 140 0
 513 000a 2046     		mov	r0, r4
 514 000c 0121     		movs	r1, #1
 515 000e FFF7FEFF 		bl	chEvtSignal
 516              	.LVL72:
 517              		.loc 1 142 0
 518 0012 0020     		movs	r0, #0
 519 0014 10BD     		pop	{r4, pc}
 520              		.cfi_endproc
 521              	.LFE13:
 522              		.size	thread1, .-thread1
 523 0016 00BFAFF3 		.section	.text.evt1_execute,"ax",%progbits
 523      0080AFF3 
 523      0080
 524              		.align	2
 525              		.p2align 4,,15
 526              		.thumb
 527              		.thumb_func
 528              		.type	evt1_execute, %function
 529              	evt1_execute:
 530              	.LFB11:
 531              		.loc 1 89 0
 532              		.cfi_startproc
 533              		@ args = 0, pretend = 0, frame = 32
 534              		@ frame_needed = 0, uses_anonymous_args = 0
 535 0000 10B5     		push	{r4, lr}
 536              	.LCFI4:
 537              		.cfi_def_cfa_offset 8
 538              		.cfi_offset 4, -8
 539              		.cfi_offset 14, -4
 540              		.loc 1 95 0
 541 0002 1E4C     		ldr	r4, .L17
 542              		.loc 1 89 0
 543 0004 88B0     		sub	sp, sp, #32
 544              	.LCFI5:
 545              		.cfi_def_cfa_offset 40
 546              		.loc 1 96 0
 547 0006 0122     		movs	r2, #1
 548 0008 2046     		mov	r0, r4
 549 000a 6946     		mov	r1, sp
 550              		.loc 1 95 0
 551 000c 2460     		str	r4, [r4, #0]
 552              		.loc 1 96 0
 553 000e FFF7FEFF 		bl	chEvtRegisterMask
 554              	.LVL73:
 555              		.loc 1 97 0
 556 0012 2046     		mov	r0, r4
 557 0014 04A9     		add	r1, sp, #16
 558 0016 0222     		movs	r2, #2
 559 0018 FFF7FEFF 		bl	chEvtRegisterMask
 560              	.LVL74:
 561              		.loc 1 98 0
 562 001c 2168     		ldr	r1, [r4, #0]
ARM GAS  /tmp/ccJsjeCt.s 			page 11


 563 001e 0120     		movs	r0, #1
 564 0020 091B     		subs	r1, r1, r4
 565 0022 18BF     		it	ne
 566 0024 0121     		movne	r1, #1
 567 0026 FFF7FEFF 		bl	_test_assert
 568              	.LVL75:
 569 002a 08B1     		cbz	r0, .L16
 570              	.L13:
 571              		.loc 1 109 0
 572 002c 08B0     		add	sp, sp, #32
 573 002e 10BD     		pop	{r4, pc}
 574              	.L16:
 575              		.loc 1 99 0
 576 0030 2046     		mov	r0, r4
 577 0032 6946     		mov	r1, sp
 578 0034 FFF7FEFF 		bl	chEvtUnregister
 579              	.LVL76:
 580              		.loc 1 100 0
 581 0038 2168     		ldr	r1, [r4, #0]
 582 003a 0220     		movs	r0, #2
 583 003c 091B     		subs	r1, r1, r4
 584 003e 18BF     		it	ne
 585 0040 0121     		movne	r1, #1
 586 0042 FFF7FEFF 		bl	_test_assert
 587              	.LVL77:
 588 0046 0028     		cmp	r0, #0
 589 0048 F0D1     		bne	.L13
 590              		.loc 1 101 0
 591 004a 2046     		mov	r0, r4
 592 004c 04A9     		add	r1, sp, #16
 593 004e FFF7FEFF 		bl	chEvtUnregister
 594              	.LVL78:
 595              		.loc 1 102 0
 596 0052 2168     		ldr	r1, [r4, #0]
 597 0054 0320     		movs	r0, #3
 598 0056 B1EB040E 		subs	lr, r1, r4
 599 005a DEF10001 		rsbs	r1, lr, #0
 600 005e 51EB0E01 		adcs	r1, r1, lr
 601 0062 FFF7FEFF 		bl	_test_assert
 602              	.LVL79:
 603 0066 0028     		cmp	r0, #0
 604 0068 E0D1     		bne	.L13
 605              		.loc 1 107 0
 606 006a 0721     		movs	r1, #7
 607 006c 0448     		ldr	r0, .L17+4
 608 006e FFF7FEFF 		bl	chEvtDispatch
 609              	.LVL80:
 610              		.loc 1 108 0
 611 0072 0420     		movs	r0, #4
 612 0074 0349     		ldr	r1, .L17+8
 613 0076 FFF7FEFF 		bl	_test_assert_sequence
 614              	.LVL81:
 615 007a D7E7     		b	.L13
 616              	.L18:
 617              		.align	2
 618              	.L17:
 619 007c 00000000 		.word	.LANCHOR0
ARM GAS  /tmp/ccJsjeCt.s 			page 12


 620 0080 00000000 		.word	.LANCHOR2
 621 0084 04000000 		.word	.LC1
 622              		.cfi_endproc
 623              	.LFE11:
 624              		.size	evt1_execute, .-evt1_execute
 625 0088 AFF30080 		.section	.text.h3,"ax",%progbits
 625      AFF30080 
 626              		.align	2
 627              		.p2align 4,,15
 628              		.thumb
 629              		.thumb_func
 630              		.type	h3, %function
 631              	h3:
 632              	.LFB10:
 633              		.loc 1 86 0
 634              		.cfi_startproc
 635              		@ args = 0, pretend = 0, frame = 0
 636              		@ frame_needed = 0, uses_anonymous_args = 0
 637              		@ link register save eliminated.
 638              	.LVL82:
 639              		.loc 1 86 0
 640 0000 4320     		movs	r0, #67
 641              	.LVL83:
 642 0002 FFF7FEBF 		b	test_emit_token
 643              	.LVL84:
 644              		.cfi_endproc
 645              	.LFE10:
 646              		.size	h3, .-h3
 647 0006 00BFAFF3 		.section	.text.h2,"ax",%progbits
 647      0080AFF3 
 647      0080
 648              		.align	2
 649              		.p2align 4,,15
 650              		.thumb
 651              		.thumb_func
 652              		.type	h2, %function
 653              	h2:
 654              	.LFB9:
 655              		.loc 1 85 0
 656              		.cfi_startproc
 657              		@ args = 0, pretend = 0, frame = 0
 658              		@ frame_needed = 0, uses_anonymous_args = 0
 659              		@ link register save eliminated.
 660              	.LVL85:
 661              		.loc 1 85 0
 662 0000 4220     		movs	r0, #66
 663              	.LVL86:
 664 0002 FFF7FEBF 		b	test_emit_token
 665              	.LVL87:
 666              		.cfi_endproc
 667              	.LFE9:
 668              		.size	h2, .-h2
 669 0006 00BFAFF3 		.section	.text.h1,"ax",%progbits
 669      0080AFF3 
 669      0080
 670              		.align	2
 671              		.p2align 4,,15
ARM GAS  /tmp/ccJsjeCt.s 			page 13


 672              		.thumb
 673              		.thumb_func
 674              		.type	h1, %function
 675              	h1:
 676              	.LFB8:
 677              		.loc 1 84 0
 678              		.cfi_startproc
 679              		@ args = 0, pretend = 0, frame = 0
 680              		@ frame_needed = 0, uses_anonymous_args = 0
 681              		@ link register save eliminated.
 682              	.LVL88:
 683              		.loc 1 84 0
 684 0000 4120     		movs	r0, #65
 685              	.LVL89:
 686 0002 FFF7FEBF 		b	test_emit_token
 687              	.LVL90:
 688              		.cfi_endproc
 689              	.LFE8:
 690              		.size	h1, .-h1
 691 0006 00BFAFF3 		.section	.text.evt3_execute,"ax",%progbits
 691      0080AFF3 
 691      0080
 692              		.align	2
 693              		.p2align 4,,15
 694              		.thumb
 695              		.thumb_func
 696              		.type	evt3_execute, %function
 697              	evt3_execute:
 698              	.LFB17:
 699              		.loc 1 256 0
 700              		.cfi_startproc
 701              		@ args = 0, pretend = 0, frame = 0
 702              		@ frame_needed = 0, uses_anonymous_args = 0
 703 0000 08B5     		push	{r3, lr}
 704              	.LCFI6:
 705              		.cfi_def_cfa_offset 8
 706              		.cfi_offset 3, -8
 707              		.cfi_offset 14, -4
 708              		.loc 1 262 0
 709 0002 0021     		movs	r1, #0
 710 0004 4FF0FF30 		mov	r0, #-1
 711 0008 FFF7FEFF 		bl	chEvtWaitOneTimeout
 712              	.LVL91:
 713              		.loc 1 263 0
 714 000c D0F10101 		rsbs	r1, r0, #1
 715 0010 38BF     		it	cc
 716 0012 0021     		movcc	r1, #0
 717 0014 0120     		movs	r0, #1
 718              	.LVL92:
 719 0016 FFF7FEFF 		bl	_test_assert
 720              	.LVL93:
 721 001a 00B1     		cbz	r0, .L26
 722              	.L22:
 723 001c 08BD     		pop	{r3, pc}
 724              	.L26:
 725              		.loc 1 264 0
 726 001e 0146     		mov	r1, r0
ARM GAS  /tmp/ccJsjeCt.s 			page 14


 727 0020 4FF0FF30 		mov	r0, #-1
 728 0024 FFF7FEFF 		bl	chEvtWaitAnyTimeout
 729              	.LVL94:
 730              		.loc 1 265 0
 731 0028 D0F10101 		rsbs	r1, r0, #1
 732 002c 38BF     		it	cc
 733 002e 0021     		movcc	r1, #0
 734 0030 0220     		movs	r0, #2
 735              	.LVL95:
 736 0032 FFF7FEFF 		bl	_test_assert
 737              	.LVL96:
 738 0036 0028     		cmp	r0, #0
 739 0038 F0D1     		bne	.L22
 740              		.loc 1 266 0
 741 003a 0146     		mov	r1, r0
 742 003c 4FF0FF30 		mov	r0, #-1
 743 0040 FFF7FEFF 		bl	chEvtWaitAllTimeout
 744              	.LVL97:
 745              		.loc 1 267 0
 746 0044 D0F10101 		rsbs	r1, r0, #1
 747 0048 38BF     		it	cc
 748 004a 0021     		movcc	r1, #0
 749 004c 0320     		movs	r0, #3
 750              	.LVL98:
 751 004e FFF7FEFF 		bl	_test_assert
 752              	.LVL99:
 753 0052 0028     		cmp	r0, #0
 754 0054 E2D1     		bne	.L22
 755              	.LBB4:
 756              	.LBB5:
 757              		.loc 1 268 0
 758 0056 0A21     		movs	r1, #10
 759 0058 4FF0FF30 		mov	r0, #-1
 760 005c FFF7FEFF 		bl	chEvtWaitOneTimeout
 761              	.LVL100:
 762              		.loc 1 269 0
 763 0060 D0F10101 		rsbs	r1, r0, #1
 764 0064 38BF     		it	cc
 765 0066 0021     		movcc	r1, #0
 766 0068 0420     		movs	r0, #4
 767              	.LVL101:
 768 006a FFF7FEFF 		bl	_test_assert
 769              	.LVL102:
 770 006e 0028     		cmp	r0, #0
 771 0070 D4D1     		bne	.L22
 772              		.loc 1 270 0
 773 0072 0A21     		movs	r1, #10
 774 0074 4FF0FF30 		mov	r0, #-1
 775 0078 FFF7FEFF 		bl	chEvtWaitAnyTimeout
 776              	.LVL103:
 777              		.loc 1 271 0
 778 007c D0F10101 		rsbs	r1, r0, #1
 779 0080 38BF     		it	cc
 780 0082 0021     		movcc	r1, #0
 781 0084 0520     		movs	r0, #5
 782              	.LVL104:
 783 0086 FFF7FEFF 		bl	_test_assert
ARM GAS  /tmp/ccJsjeCt.s 			page 15


 784              	.LVL105:
 785 008a 0028     		cmp	r0, #0
 786 008c C6D1     		bne	.L22
 787              		.loc 1 272 0
 788 008e 0A21     		movs	r1, #10
 789 0090 4FF0FF30 		mov	r0, #-1
 790 0094 FFF7FEFF 		bl	chEvtWaitAllTimeout
 791              	.LVL106:
 792              		.loc 1 273 0
 793 0098 D0F10101 		rsbs	r1, r0, #1
 794 009c 38BF     		it	cc
 795 009e 0021     		movcc	r1, #0
 796 00a0 0620     		movs	r0, #6
 797              	.LVL107:
 798              	.LBE5:
 799              	.LBE4:
 800              		.loc 1 274 0
 801 00a2 BDE80840 		pop	{r3, lr}
 802              	.LBB7:
 803              	.LBB6:
 804              		.loc 1 273 0
 805 00a6 FFF7FEBF 		b	_test_assert
 806              	.LVL108:
 807              	.LBE6:
 808              	.LBE7:
 809              		.cfi_endproc
 810              	.LFE17:
 811              		.size	evt3_execute, .-evt3_execute
 812              		.global	patternevt
 813              		.global	testevt3
 814              		.global	testevt2
 815              		.global	testevt1
 816 00aa 00BFAFF3 		.section	.rodata.patternevt,"a",%progbits
 816      0080
 817              		.align	2
 818              		.type	patternevt, %object
 819              		.size	patternevt, 16
 820              	patternevt:
 821 0000 00000000 		.word	testevt1
 822 0004 00000000 		.word	testevt2
 823 0008 00000000 		.word	testevt3
 824 000c 00000000 		.word	0
 825              		.section	.rodata.testevt2,"a",%progbits
 826              		.align	2
 827              		.type	testevt2, %object
 828              		.size	testevt2, 16
 829              	testevt2:
 830 0000 1C000000 		.word	.LC3
 831 0004 00000000 		.word	evt2_setup
 832 0008 00000000 		.word	0
 833 000c 00000000 		.word	evt2_execute
 834              		.section	.rodata.str1.4,"aMS",%progbits,1
 835              		.align	2
 836              	.LC0:
 837 0000 4100     		.ascii	"A\000"
 838 0002 0000     		.space	2
 839              	.LC1:
ARM GAS  /tmp/ccJsjeCt.s 			page 16


 840 0004 41424300 		.ascii	"ABC\000"
 841              	.LC2:
 842 0008 4576656E 		.ascii	"Events, timeouts\000"
 842      74732C20 
 842      74696D65 
 842      6F757473 
 842      00
 843 0019 000000   		.space	3
 844              	.LC3:
 845 001c 4576656E 		.ascii	"Events, wait and broadcast\000"
 845      74732C20 
 845      77616974 
 845      20616E64 
 845      2062726F 
 846 0037 00       		.space	1
 847              	.LC4:
 848 0038 4576656E 		.ascii	"Events, registration and dispatch\000"
 848      74732C20 
 848      72656769 
 848      73747261 
 848      74696F6E 
 849 005a 0000     		.section	.rodata.testevt1,"a",%progbits
 850              		.align	2
 851              		.type	testevt1, %object
 852              		.size	testevt1, 16
 853              	testevt1:
 854 0000 38000000 		.word	.LC4
 855 0004 00000000 		.word	evt1_setup
 856 0008 00000000 		.word	0
 857 000c 00000000 		.word	evt1_execute
 858              		.section	.rodata.evhndl,"a",%progbits
 859              		.align	2
 860              		.set	.LANCHOR2,. + 0
 861              		.type	evhndl, %object
 862              		.size	evhndl, 12
 863              	evhndl:
 864 0000 00000000 		.word	h1
 865 0004 00000000 		.word	h2
 866 0008 00000000 		.word	h3
 867              		.section	.rodata.testevt3,"a",%progbits
 868              		.align	2
 869              		.type	testevt3, %object
 870              		.size	testevt3, 16
 871              	testevt3:
 872 0000 08000000 		.word	.LC2
 873 0004 00000000 		.word	evt3_setup
 874 0008 00000000 		.word	0
 875 000c 00000000 		.word	evt3_execute
 876              		.section	.data.es1,"aw",%progbits
 877              		.align	2
 878              		.set	.LANCHOR0,. + 0
 879              		.type	es1, %object
 880              		.size	es1, 4
 881              	es1:
 882 0000 00000000 		.word	es1
 883              		.section	.data.es2,"aw",%progbits
 884              		.align	2
ARM GAS  /tmp/ccJsjeCt.s 			page 17


 885              		.set	.LANCHOR1,. + 0
 886              		.type	es2, %object
 887              		.size	es2, 4
 888              	es2:
 889 0000 00000000 		.word	es2
 890              		.text
 891              	.Letext0:
 892              		.file 2 "/opt/psas/x-tools/stm32f407/arm-psas-eabi/bin/../lib/gcc/arm-psas-eabi/4.7.2/include/stdd
 893              		.file 3 "/opt/psas/x-tools/stm32f407/arm-psas-eabi/bin/../lib/gcc/arm-psas-eabi/4.7.2/../../../../
 894              		.file 4 "../../os/ports/GCC/ARMCMx/chtypes.h"
 895              		.file 5 "../../os/kernel/include/chlists.h"
 896              		.file 6 "../../os/kernel/include/chthreads.h"
 897              		.file 7 "../../os/ports/GCC/ARMCMx/chcore_v7m.h"
 898              		.file 8 "../../os/kernel/include/chvt.h"
 899              		.file 9 "../../os/kernel/include/chschd.h"
 900              		.file 10 "../../os/kernel/include/chmtx.h"
 901              		.file 11 "../../os/kernel/include/chevents.h"
 902              		.file 12 "../../test/test.h"