ARM GAS  /tmp/ccJsjeCt.s 			page 1


   1              		.syntax unified
   2              		.cpu cortex-m4
   3              		.eabi_attribute 27, 3
   4              		.eabi_attribute 28, 1
   5              		.fpu fpv4-sp-d16
   6              		.eabi_attribute 20, 1
   7              		.eabi_attribute 21, 1
   8              		.eabi_attribute 23, 3
   9              		.eabi_attribute 24, 1
  10              		.eabi_attribute 25, 1
  11              		.eabi_attribute 26, 1
  12              		.eabi_attribute 30, 2
  13              		.eabi_attribute 34, 1
  14              		.eabi_attribute 18, 4
  15              		.thumb
  16              		.file	"testevt.c"
  17              		.text
  18              	.Ltext0:
  19              		.cfi_sections	.debug_frame
  20              		.section	.text.evt3_setup,"ax",%progbits
  21              		.align	2
  22              		.p2align 4,,15
  23              		.thumb
  24              		.thumb_func
  25              		.type	evt3_setup, %function
  26              	evt3_setup:
  27              	.LFB16:
  28              		.file 1 "../../test/testevt.c"
  29              		.loc 1 251 0
  30              		.cfi_startproc
  31              		@ args = 0, pretend = 0, frame = 0
  32              		@ frame_needed = 0, uses_anonymous_args = 0
  33              		@ link register save eliminated.
  34              		.loc 1 253 0
  35 0000 4FF0FF30 		mov	r0, #-1
  36              		.loc 1 254 0
  37              		.loc 1 253 0
  38 0004 FFF7FEBF 		b	chEvtGetAndClearEvents
  39              	.LVL0:
  40              		.cfi_endproc
  41              	.LFE16:
  42              		.size	evt3_setup, .-evt3_setup
  43 0008 AFF30080 		.section	.text.evt2_setup,"ax",%progbits
  43      AFF30080 
  44              		.align	2
  45              		.p2align 4,,15
  46              		.thumb
  47              		.thumb_func
  48              		.type	evt2_setup, %function
  49              	evt2_setup:
  50              	.LFB12:
  51              		.loc 1 132 0
  52              		.cfi_startproc
  53              		@ args = 0, pretend = 0, frame = 0
  54              		@ frame_needed = 0, uses_anonymous_args = 0
  55              		@ link register save eliminated.
  56              		.loc 1 134 0
ARM GAS  /tmp/ccJsjeCt.s 			page 2


  57 0000 4FF0FF30 		mov	r0, #-1
  58              		.loc 1 135 0
  59              		.loc 1 134 0
  60 0004 FFF7FEBF 		b	chEvtGetAndClearEvents
  61              	.LVL1:
  62              		.cfi_endproc
  63              	.LFE12:
  64              		.size	evt2_setup, .-evt2_setup
  65 0008 AFF30080 		.section	.text.evt1_setup,"ax",%progbits
  65      AFF30080 
  66              		.align	2
  67              		.p2align 4,,15
  68              		.thumb
  69              		.thumb_func
  70              		.type	evt1_setup, %function
  71              	evt1_setup:
  72              	.LFB7:
  73              		.loc 1 79 0
  74              		.cfi_startproc
  75              		@ args = 0, pretend = 0, frame = 0
  76              		@ frame_needed = 0, uses_anonymous_args = 0
  77              		@ link register save eliminated.
  78              		.loc 1 81 0
  79 0000 4FF0FF30 		mov	r0, #-1
  80              		.loc 1 82 0
  81              		.loc 1 81 0
  82 0004 FFF7FEBF 		b	chEvtGetAndClearEvents
  83              	.LVL2:
  84              		.cfi_endproc
  85              	.LFE7:
  86              		.size	evt1_setup, .-evt1_setup
  87 0008 AFF30080 		.section	.text.evt2_execute,"ax",%progbits
  87      AFF30080 
  88              		.align	2
  89              		.p2align 4,,15
  90              		.thumb
  91              		.thumb_func
  92              		.type	evt2_execute, %function
  93              	evt2_execute:
  94              	.LFB15:
  95              		.loc 1 153 0
  96              		.cfi_startproc
  97              		@ args = 0, pretend = 0, frame = 40
  98              		@ frame_needed = 0, uses_anonymous_args = 0
  99 0000 2DE9F042 		push	{r4, r5, r6, r7, r9, lr}
 100              	.LCFI0:
 101              		.cfi_def_cfa_offset 24
 102              		.cfi_offset 4, -24
 103              		.cfi_offset 5, -20
 104              		.cfi_offset 6, -16
 105              		.cfi_offset 7, -12
 106              		.cfi_offset 9, -8
 107              		.cfi_offset 14, -4
 108              		.loc 1 161 0
 109 0004 0520     		movs	r0, #5
 110              		.loc 1 153 0
 111 0006 8CB0     		sub	sp, sp, #48
ARM GAS  /tmp/ccJsjeCt.s 			page 3


 112              	.LCFI1:
 113              		.cfi_def_cfa_offset 72
 114              		.loc 1 161 0
 115 0008 FFF7FEFF 		bl	chEvtAddEvents
 116              	.LVL3:
 117              		.loc 1 162 0
 118 000c 4FF0FF30 		mov	r0, #-1
 119 0010 FFF7FEFF 		bl	chEvtWaitOne
 120              	.LVL4:
 121              		.loc 1 163 0
 122 0014 0138     		subs	r0, r0, #1
 123              	.LVL5:
 124 0016 4142     		rsbs	r1, r0, #0
 125 0018 4141     		adcs	r1, r1, r0
 126 001a 0120     		movs	r0, #1
 127              	.LVL6:
 128 001c FFF7FEFF 		bl	_test_assert
 129              	.LVL7:
 130 0020 10B1     		cbz	r0, .L8
 131              	.L4:
 132              		.loc 1 226 0
 133 0022 0CB0     		add	sp, sp, #48
 134 0024 BDE8F082 		pop	{r4, r5, r6, r7, r9, pc}
 135              	.L8:
 136              		.loc 1 164 0
 137 0028 4FF0FF30 		mov	r0, #-1
 138 002c FFF7FEFF 		bl	chEvtWaitOne
 139              	.LVL8:
 140              		.loc 1 165 0
 141 0030 021F     		subs	r2, r0, #4
 142 0032 5142     		rsbs	r1, r2, #0
 143 0034 5141     		adcs	r1, r1, r2
 144 0036 0220     		movs	r0, #2
 145              	.LVL9:
 146 0038 FFF7FEFF 		bl	_test_assert
 147              	.LVL10:
 148 003c 0028     		cmp	r0, #0
 149 003e F0D1     		bne	.L4
 150              		.loc 1 166 0
 151 0040 4FF0FF30 		mov	r0, #-1
 152 0044 FFF7FEFF 		bl	chEvtGetAndClearEvents
 153              	.LVL11:
 154              		.loc 1 167 0
 155 0048 D0F10101 		rsbs	r1, r0, #1
 156 004c 38BF     		it	cc
 157 004e 0021     		movcc	r1, #0
 158 0050 0320     		movs	r0, #3
 159              	.LVL12:
 160 0052 FFF7FEFF 		bl	_test_assert
 161              	.LVL13:
 162 0056 0028     		cmp	r0, #0
 163 0058 E3D1     		bne	.L4
 164              		.loc 1 174 0
 165 005a 754D     		ldr	r5, .L9
 166              		.loc 1 173 0
 167 005c 754F     		ldr	r7, .L9+4
 168              		.loc 1 174 0
ARM GAS  /tmp/ccJsjeCt.s 			page 4


 169 005e 764E     		ldr	r6, .L9+8
 170              		.loc 1 172 0
 171 0060 FFF7FEFF 		bl	test_wait_tick
 172              	.LVL14:
 173              		.loc 1 174 0
 174 0064 754B     		ldr	r3, .L9+12
 175 0066 A969     		ldr	r1, [r5, #24]
 176 0068 1B68     		ldr	r3, [r3, #0]
 177 006a 8A68     		ldr	r2, [r1, #8]
 178 006c 0393     		str	r3, [sp, #12]
 179 006e 0091     		str	r1, [sp, #0]
 180 0070 013A     		subs	r2, r2, #1
 181 0072 4FF49871 		mov	r1, #304
 182 0076 724B     		ldr	r3, .L9+16
 183 0078 0398     		ldr	r0, [sp, #12]
 184              		.loc 1 173 0
 185 007a FC68     		ldr	r4, [r7, #12]
 186              	.LVL15:
 187              		.loc 1 174 0
 188 007c FFF7FEFF 		bl	chThdCreateStatic
 189              	.LVL16:
 190 0080 3060     		str	r0, [r6, #0]
 191              		.loc 1 176 0
 192 0082 4FF0FF30 		mov	r0, #-1
 193 0086 FFF7FEFF 		bl	chEvtWaitOne
 194              	.LVL17:
 195              		.loc 1 177 0
 196 008a 04F13201 		add	r1, r4, #50
 197              	.LVL18:
 198              		.loc 1 176 0
 199 008e 8146     		mov	r9, r0
 200              	.LVL19:
 201              		.loc 1 177 0
 202 0090 04F13702 		add	r2, r4, #55
 203 0094 0420     		movs	r0, #4
 204              	.LVL20:
 205 0096 FFF7FEFF 		bl	_test_assert_time_window
 206              	.LVL21:
 207 009a 0028     		cmp	r0, #0
 208 009c C1D1     		bne	.L4
 209              		.loc 1 178 0
 210 009e 0520     		movs	r0, #5
 211 00a0 B9F10103 		subs	r3, r9, #1
 212 00a4 5942     		rsbs	r1, r3, #0
 213 00a6 5941     		adcs	r1, r1, r3
 214 00a8 FFF7FEFF 		bl	_test_assert
 215              	.LVL22:
 216 00ac 0028     		cmp	r0, #0
 217 00ae B8D1     		bne	.L4
 218              		.loc 1 179 0
 219 00b0 4FF0FF30 		mov	r0, #-1
 220 00b4 FFF7FEFF 		bl	chEvtGetAndClearEvents
 221              	.LVL23:
 222              		.loc 1 180 0
 223 00b8 D0F10101 		rsbs	r1, r0, #1
 224 00bc 38BF     		it	cc
 225 00be 0021     		movcc	r1, #0
ARM GAS  /tmp/ccJsjeCt.s 			page 5


 226 00c0 0620     		movs	r0, #6
 227              	.LVL24:
 228 00c2 FFF7FEFF 		bl	_test_assert
 229              	.LVL25:
 230 00c6 0028     		cmp	r0, #0
 231 00c8 ABD1     		bne	.L4
 232              		.loc 1 181 0
 233 00ca FFF7FEFF 		bl	test_wait_threads
 234              	.LVL26:
 235              		.loc 1 186 0
 236 00ce 0520     		movs	r0, #5
 237 00d0 FFF7FEFF 		bl	chEvtAddEvents
 238              	.LVL27:
 239              		.loc 1 187 0
 240 00d4 4FF0FF30 		mov	r0, #-1
 241 00d8 FFF7FEFF 		bl	chEvtWaitAny
 242              	.LVL28:
 243              		.loc 1 188 0
 244 00dc B0F1050C 		subs	ip, r0, #5
 245 00e0 DCF10001 		rsbs	r1, ip, #0
 246 00e4 51EB0C01 		adcs	r1, r1, ip
 247 00e8 0720     		movs	r0, #7
 248              	.LVL29:
 249 00ea FFF7FEFF 		bl	_test_assert
 250              	.LVL30:
 251 00ee 0028     		cmp	r0, #0
 252 00f0 97D1     		bne	.L4
 253              		.loc 1 189 0
 254 00f2 4FF0FF30 		mov	r0, #-1
 255 00f6 FFF7FEFF 		bl	chEvtGetAndClearEvents
 256              	.LVL31:
 257              		.loc 1 190 0
 258 00fa D0F10101 		rsbs	r1, r0, #1
 259 00fe 38BF     		it	cc
 260 0100 0021     		movcc	r1, #0
 261 0102 0820     		movs	r0, #8
 262              	.LVL32:
 263 0104 FFF7FEFF 		bl	_test_assert
 264              	.LVL33:
 265 0108 0028     		cmp	r0, #0
 266 010a 8AD1     		bne	.L4
 267              		.loc 1 195 0
 268 010c FFF7FEFF 		bl	test_wait_tick
 269              	.LVL34:
 270              		.loc 1 197 0
 271 0110 A969     		ldr	r1, [r5, #24]
 272 0112 4B4B     		ldr	r3, .L9+16
 273 0114 8A68     		ldr	r2, [r1, #8]
 274 0116 0398     		ldr	r0, [sp, #12]
 275 0118 0091     		str	r1, [sp, #0]
 276 011a 013A     		subs	r2, r2, #1
 277 011c 4FF49871 		mov	r1, #304
 278              		.loc 1 196 0
 279 0120 FC68     		ldr	r4, [r7, #12]
 280              	.LVL35:
 281              		.loc 1 197 0
 282 0122 FFF7FEFF 		bl	chThdCreateStatic
ARM GAS  /tmp/ccJsjeCt.s 			page 6


 283              	.LVL36:
 284 0126 3060     		str	r0, [r6, #0]
 285              		.loc 1 199 0
 286 0128 4FF0FF30 		mov	r0, #-1
 287 012c FFF7FEFF 		bl	chEvtWaitAny
 288              	.LVL37:
 289              		.loc 1 200 0
 290 0130 04F13201 		add	r1, r4, #50
 291              	.LVL38:
 292              		.loc 1 199 0
 293 0134 8146     		mov	r9, r0
 294              	.LVL39:
 295              		.loc 1 200 0
 296 0136 04F13702 		add	r2, r4, #55
 297 013a 0920     		movs	r0, #9
 298              	.LVL40:
 299 013c FFF7FEFF 		bl	_test_assert_time_window
 300              	.LVL41:
 301 0140 0028     		cmp	r0, #0
 302 0142 7FF46EAF 		bne	.L4
 303              		.loc 1 201 0
 304 0146 0A20     		movs	r0, #10
 305 0148 B9F1010E 		subs	lr, r9, #1
 306 014c DEF10001 		rsbs	r1, lr, #0
 307 0150 51EB0E01 		adcs	r1, r1, lr
 308 0154 FFF7FEFF 		bl	_test_assert
 309              	.LVL42:
 310 0158 0028     		cmp	r0, #0
 311 015a 7FF462AF 		bne	.L4
 312              		.loc 1 202 0
 313 015e 4FF0FF30 		mov	r0, #-1
 314 0162 FFF7FEFF 		bl	chEvtGetAndClearEvents
 315              	.LVL43:
 316              		.loc 1 203 0
 317 0166 D0F10101 		rsbs	r1, r0, #1
 318 016a 38BF     		it	cc
 319 016c 0021     		movcc	r1, #0
 320 016e 0B20     		movs	r0, #11
 321              	.LVL44:
 322 0170 FFF7FEFF 		bl	_test_assert
 323              	.LVL45:
 324 0174 0028     		cmp	r0, #0
 325 0176 7FF454AF 		bne	.L4
 326              		.loc 1 209 0
 327 017a DFF8D490 		ldr	r9, .L9+32
 328              		.loc 1 210 0
 329 017e 314C     		ldr	r4, .L9+20
 330              	.LVL46:
 331              		.loc 1 204 0
 332 0180 FFF7FEFF 		bl	test_wait_threads
 333              	.LVL47:
 334              		.loc 1 211 0
 335 0184 4846     		mov	r0, r9
 336 0186 04A9     		add	r1, sp, #16
 337 0188 0122     		movs	r2, #1
 338              		.loc 1 209 0
 339 018a C9F80090 		str	r9, [r9, #0]
ARM GAS  /tmp/ccJsjeCt.s 			page 7


 340              		.loc 1 210 0
 341 018e 2460     		str	r4, [r4, #0]
 342              		.loc 1 211 0
 343 0190 FFF7FEFF 		bl	chEvtRegisterMask
 344              	.LVL48:
 345              		.loc 1 212 0
 346 0194 08A9     		add	r1, sp, #32
 347 0196 0422     		movs	r2, #4
 348 0198 2046     		mov	r0, r4
 349 019a FFF7FEFF 		bl	chEvtRegisterMask
 350              	.LVL49:
 351              		.loc 1 213 0
 352 019e FFF7FEFF 		bl	test_wait_tick
 353              	.LVL50:
 354              		.loc 1 215 0
 355 01a2 AB69     		ldr	r3, [r5, #24]
 356 01a4 2849     		ldr	r1, .L9+24
 357 01a6 9A68     		ldr	r2, [r3, #8]
 358 01a8 0398     		ldr	r0, [sp, #12]
 359 01aa 0091     		str	r1, [sp, #0]
 360 01ac 013A     		subs	r2, r2, #1
 361 01ae 4FF49871 		mov	r1, #304
 362 01b2 264B     		ldr	r3, .L9+28
 363              		.loc 1 214 0
 364 01b4 FD68     		ldr	r5, [r7, #12]
 365              	.LVL51:
 366              		.loc 1 215 0
 367 01b6 FFF7FEFF 		bl	chThdCreateStatic
 368              	.LVL52:
 369 01ba 3060     		str	r0, [r6, #0]
 370              		.loc 1 217 0
 371 01bc 0520     		movs	r0, #5
 372 01be FFF7FEFF 		bl	chEvtWaitAll
 373              	.LVL53:
 374              		.loc 1 218 0
 375 01c2 0C20     		movs	r0, #12
 376 01c4 05F13201 		add	r1, r5, #50
 377              	.LVL54:
 378 01c8 05F13702 		add	r2, r5, #55
 379 01cc FFF7FEFF 		bl	_test_assert_time_window
 380              	.LVL55:
 381 01d0 0028     		cmp	r0, #0
 382 01d2 7FF426AF 		bne	.L4
 383              		.loc 1 219 0
 384 01d6 4FF0FF30 		mov	r0, #-1
 385 01da FFF7FEFF 		bl	chEvtGetAndClearEvents
 386              	.LVL56:
 387              		.loc 1 220 0
 388 01de D0F10101 		rsbs	r1, r0, #1
 389 01e2 38BF     		it	cc
 390 01e4 0021     		movcc	r1, #0
 391 01e6 0D20     		movs	r0, #13
 392              	.LVL57:
 393 01e8 FFF7FEFF 		bl	_test_assert
 394              	.LVL58:
 395 01ec 0028     		cmp	r0, #0
 396 01ee 7FF418AF 		bne	.L4
ARM GAS  /tmp/ccJsjeCt.s 			page 8


 397              		.loc 1 221 0
 398 01f2 FFF7FEFF 		bl	test_wait_threads
 399              	.LVL59:
 400              		.loc 1 222 0
 401 01f6 4846     		mov	r0, r9
 402 01f8 04A9     		add	r1, sp, #16
 403 01fa FFF7FEFF 		bl	chEvtUnregister
 404              	.LVL60:
 405              		.loc 1 223 0
 406 01fe 2046     		mov	r0, r4
 407 0200 08A9     		add	r1, sp, #32
 408 0202 FFF7FEFF 		bl	chEvtUnregister
 409              	.LVL61:
 410              		.loc 1 224 0
 411 0206 D9F80010 		ldr	r1, [r9, #0]
 412 020a 0E20     		movs	r0, #14
 413 020c B1EB0902 		subs	r2, r1, r9
 414 0210 5142     		rsbs	r1, r2, #0
 415 0212 5141     		adcs	r1, r1, r2
 416 0214 FFF7FEFF 		bl	_test_assert
 417              	.LVL62:
 418 0218 0028     		cmp	r0, #0
 419 021a 7FF402AF 		bne	.L4
 420              		.loc 1 225 0
 421 021e 2168     		ldr	r1, [r4, #0]
 422 0220 0F20     		movs	r0, #15
 423 0222 0B1B     		subs	r3, r1, r4
 424 0224 5942     		rsbs	r1, r3, #0
 425 0226 5941     		adcs	r1, r1, r3
 426 0228 FFF7FEFF 		bl	_test_assert
 427              	.LVL63:
 428 022c F9E6     		b	.L4
 429              	.L10:
 430 022e 00BF     		.align	2
 431              	.L9:
 432 0230 00000000 		.word	rlist
 433 0234 00000000 		.word	vtlist
 434 0238 00000000 		.word	threads
 435 023c 00000000 		.word	wa
 436 0240 00000000 		.word	thread1
 437 0244 00000000 		.word	.LANCHOR1
 438 0248 00000000 		.word	.LC0
 439 024c 00000000 		.word	thread2
 440 0250 00000000 		.word	.LANCHOR0
 441              		.cfi_endproc
 442              	.LFE15:
 443              		.size	evt2_execute, .-evt2_execute
 444 0254 AFF30080 		.section	.text.thread2,"ax",%progbits
 444      AFF30080 
 444      AFF30080 
 445              		.align	2
 446              		.p2align 4,,15
 447              		.thumb
 448              		.thumb_func
 449              		.type	thread2, %function
 450              	thread2:
 451              	.LFB14:
ARM GAS  /tmp/ccJsjeCt.s 			page 9


 452              		.loc 1 144 0
 453              		.cfi_startproc
 454              		@ args = 0, pretend = 0, frame = 0
 455              		@ frame_needed = 0, uses_anonymous_args = 0
 456              	.LVL64:
 457              		.loc 1 147 0
 458 0000 40F20000 		movw	r0, #:lower16:.LANCHOR0
 459              	.LVL65:
 460              		.loc 1 144 0
 461 0004 08B5     		push	{r3, lr}
 462              	.LCFI2:
 463              		.cfi_def_cfa_offset 8
 464              		.cfi_offset 3, -8
 465              		.cfi_offset 14, -4
 466              		.loc 1 147 0
 467 0006 0021     		movs	r1, #0
 468 0008 C0F20000 		movt	r0, #:upper16:.LANCHOR0
 469 000c FFF7FEFF 		bl	chEvtBroadcastFlags
 470              	.LVL66:
 471              		.loc 1 148 0
 472 0010 3220     		movs	r0, #50
 473 0012 FFF7FEFF 		bl	chThdSleep
 474              	.LVL67:
 475              		.loc 1 149 0
 476 0016 40F20000 		movw	r0, #:lower16:.LANCHOR1
 477 001a C0F20000 		movt	r0, #:upper16:.LANCHOR1
 478 001e 0021     		movs	r1, #0
 479 0020 FFF7FEFF 		bl	chEvtBroadcastFlags
 480              	.LVL68:
 481              		.loc 1 151 0
 482 0024 0020     		movs	r0, #0
 483 0026 08BD     		pop	{r3, pc}
 484              		.cfi_endproc
 485              	.LFE14:
 486              		.size	thread2, .-thread2
 487 0028 AFF30080 		.section	.text.thread1,"ax",%progbits
 487      AFF30080 
 488              		.align	2
 489              		.p2align 4,,15
 490              		.thumb
 491              		.thumb_func
 492              		.type	thread1, %function
 493              	thread1:
 494              	.LFB13:
 495              		.loc 1 137 0
 496              		.cfi_startproc
 497              		@ args = 0, pretend = 0, frame = 0
 498              		@ frame_needed = 0, uses_anonymous_args = 0
 499              	.LVL69:
 500 0000 10B5     		push	{r4, lr}
 501              	.LCFI3:
 502              		.cfi_def_cfa_offset 8
 503              		.cfi_offset 4, -8
 504              		.cfi_offset 14, -4
 505              		.loc 1 137 0
 506 0002 0446     		mov	r4, r0
 507              		.loc 1 139 0
ARM GAS  /tmp/ccJsjeCt.s 			page 10


 508 0004 3220     		movs	r0, #50
 509              	.LVL70:
 510 0006 FFF7FEFF 		bl	chThdSleep
 511              	.LVL71:
 512              		.loc 1 140 0
 513 000a 2046     		mov	r0, r4
 514 000c 0121     		movs	r1, #1
 515 000e FFF7FEFF 		bl	chEvtSignal
 516              	.LVL72:
 517              		.loc 1 142 0
 518 0012 0020     		movs	r0, #0
 519 0014 10BD     		pop	{r4, pc}
 520              		.cfi_endproc
 521              	.LFE13:
 522              		.size	thread1, .-thread1
 523 0016 00BFAFF3 		.section	.text.evt1_execute,"ax",%progbits
 523      0080AFF3 
 523      0080
 524              		.align	2
 525              		.p2align 4,,15
 526              		.thumb
 527              		.thumb_func
 528              		.type	evt1_execute, %function
 529              	evt1_execute:
 530              	.LFB11:
 531              		.loc 1 89 0
 532              		.cfi_startproc
 533              		@ args = 0, pretend = 0, frame = 32
 534              		@ frame_needed = 0, uses_anonymous_args = 0
 535 0000 10B5     		push	{r4, lr}
 536              	.LCFI4:
 537              		.cfi_def_cfa_offset 8
 538              		.cfi_offset 4, -8
 539              		.cfi_offset 14, -4
 540              		.loc 1 95 0
 541 0002 1E4C     		ldr	r4, .L17
 542              		.loc 1 89 0
 543 0004 88B0     		sub	sp, sp, #32
 544              	.LCFI5:
 545              		.cfi_def_cfa_offset 40
 546              		.loc 1 96 0
 547 0006 0122     		movs	r2, #1
 548 0008 2046     		mov	r0, r4
 549 000a 6946     		mov	r1, sp
 550              		.loc 1 95 0
 551 000c 2460     		str	r4, [r4, #0]
 552              		.loc 1 96 0
 553 000e FFF7FEFF 		bl	chEvtRegisterMask
 554              	.LVL73:
 555              		.loc 1 97 0
 556 0012 2046     		mov	r0, r4
 557 0014 04A9     		add	r1, sp, #16
 558 0016 0222     		movs	r2, #2
 559 0018 FFF7FEFF 		bl	chEvtRegisterMask
 560              	.LVL74:
 561              		.loc 1 98 0
 562 001c 2168     		ldr	r1, [r4, #0]
ARM GAS  /tmp/ccJsjeCt.s 			page 11


 563 001e 0120     		movs	r0, #1
 564 0020 091B     		subs	r1, r1, r4
 565 0022 18BF     		it	ne
 566 0024 0121     		movne	r1, #1
 567 0026 FFF7FEFF 		bl	_test_assert
 568              	.LVL75:
 569 002a 08B1     		cbz	r0, .L16
 570              	.L13:
 571              		.loc 1 109 0
 572 002c 08B0     		add	sp, sp, #32
 573 002e 10BD     		pop	{r4, pc}
 574              	.L16:
 575              		.loc 1 99 0
 576 0030 2046     		mov	r0, r4
 577 0032 6946     		mov	r1, sp
 578 0034 FFF7FEFF 		bl	chEvtUnregister
 579              	.LVL76:
 580              		.loc 1 100 0
 581 0038 2168     		ldr	r1, [r4, #0]
 582 003a 0220     		movs	r0, #2
 583 003c 091B     		subs	r1, r1, r4
 584 003e 18BF     		it	ne
 585 0040 0121     		movne	r1, #1
 586 0042 FFF7FEFF 		bl	_test_assert
 587              	.LVL77:
 588 0046 0028     		cmp	r0, #0
 589 0048 F0D1     		bne	.L13
 590              		.loc 1 101 0
 591 004a 2046     		mov	r0, r4
 592 004c 04A9     		add	r1, sp, #16
 593 004e FFF7FEFF 		bl	chEvtUnregister
 594              	.LVL78:
 595              		.loc 1 102 0
 596 0052 2168     		ldr	r1, [r4, #0]
 597 0054 0320     		movs	r0, #3
 598 0056 B1EB040E 		subs	lr, r1, r4
 599 005a DEF10001 		rsbs	r1, lr, #0
 600 005e 51EB0E01 		adcs	r1, r1, lr
 601 0062 FFF7FEFF 		bl	_test_assert
 602              	.LVL79:
 603 0066 0028     		cmp	r0, #0
 604 0068 E0D1     		bne	.L13
 605              		.loc 1 107 0
 606 006a 0721     		movs	r1, #7
 607 006c 0448     		ldr	r0, .L17+4
 608 006e FFF7FEFF 		bl	chEvtDispatch
 609              	.LVL80:
 610              		.loc 1 108 0
 611 0072 0420     		movs	r0, #4
 612 0074 0349     		ldr	r1, .L17+8
 613 0076 FFF7FEFF 		bl	_test_assert_sequence
 614              	.LVL81:
 615 007a D7E7     		b	.L13
 616              	.L18:
 617              		.align	2
 618              	.L17:
 619 007c 00000000 		.word	.LANCHOR0
ARM GAS  /tmp/ccJsjeCt.s 			page 12


 620 0080 00000000 		.word	.LANCHOR2
 621 0084 04000000 		.word	.LC1
 622              		.cfi_endproc
 623              	.LFE11:
 624              		.size	evt1_execute, .-evt1_execute
 625 0088 AFF30080 		.section	.text.h3,"ax",%progbits
 625      AFF30080 
 626              		.align	2
 627              		.p2align 4,,15
 628              		.thumb
 629              		.thumb_func
 630              		.type	h3, %function
 631              	h3:
 632              	.LFB10:
 633              		.loc 1 86 0
 634              		.cfi_startproc
 635              		@ args = 0, pretend = 0, frame = 0
 636              		@ frame_needed = 0, uses_anonymous_args = 0
 637              		@ link register save eliminated.
 638              	.LVL82:
 639              		.loc 1 86 0
 640 0000 4320     		movs	r0, #67
 641              	.LVL83:
 642 0002 FFF7FEBF 		b	test_emit_token
 643              	.LVL84:
 644              		.cfi_endproc
 645              	.LFE10:
 646              		.size	h3, .-h3
 647 0006 00BFAFF3 		.section	.text.h2,"ax",%progbits
 647      0080AFF3 
 647      0080
 648              		.align	2
 649              		.p2align 4,,15
 650              		.thumb
 651              		.thumb_func
 652              		.type	h2, %function
 653              	h2:
 654              	.LFB9:
 655              		.loc 1 85 0
 656              		.cfi_startproc
 657              		@ args = 0, pretend = 0, frame = 0
 658              		@ frame_needed = 0, uses_anonymous_args = 0
 659              		@ link register save eliminated.
 660              	.LVL85:
 661              		.loc 1 85 0
 662 0000 4220     		movs	r0, #66
 663              	.LVL86:
 664 0002 FFF7FEBF 		b	test_emit_token
 665              	.LVL87:
 666              		.cfi_endproc
 667              	.LFE9:
 668              		.size	h2, .-h2
 669 0006 00BFAFF3 		.section	.text.h1,"ax",%progbits
 669      0080AFF3 
 669      0080
 670              		.align	2
 671              		.p2align 4,,15
ARM GAS  /tmp/ccJsjeCt.s 			page 13


 672              		.thumb
 673              		.thumb_func
 674              		.type	h1, %function
 675              	h1:
 676              	.LFB8:
 677              		.loc 1 84 0
 678              		.cfi_startproc
 679              		@ args = 0, pretend = 0, frame = 0
 680              		@ frame_needed = 0, uses_anonymous_args = 0
 681              		@ link register save eliminated.
 682              	.LVL88:
 683              		.loc 1 84 0
 684 0000 4120     		movs	r0, #65
 685              	.LVL89:
 686 0002 FFF7FEBF 		b	test_emit_token
 687              	.LVL90:
 688              		.cfi_endproc
 689              	.LFE8:
 690              		.size	h1, .-h1
 691 0006 00BFAFF3 		.section	.text.evt3_execute,"ax",%progbits
 691      0080AFF3 
 691      0080
 692              		.align	2
 693              		.p2align 4,,15
 694              		.thumb
 695              		.thumb_func
 696              		.type	evt3_execute, %function
 697              	evt3_execute:
 698              	.LFB17:
 699              		.loc 1 256 0
 700              		.cfi_startproc
 701              		@ args = 0, pretend = 0, frame = 0
 702              		@ frame_needed = 0, uses_anonymous_args = 0
 703 0000 08B5     		push	{r3, lr}
 704              	.LCFI6:
 705              		.cfi_def_cfa_offset 8
 706              		.cfi_offset 3, -8
 707              		.cfi_offset 14, -4
 708              		.loc 1 262 0
 709 0002 0021     		movs	r1, #0
 710 0004 4FF0FF30 		mov	r0, #-1
 711 0008 FFF7FEFF 		bl	chEvtWaitOneTimeout
 712              	.LVL91:
 713              		.loc 1 263 0
 714 000c D0F10101 		rsbs	r1, r0, #1
 715 0010 38BF     		it	cc
 716 0012 0021     		movcc	r1, #0
 717 0014 0120     		movs	r0, #1
 718              	.LVL92:
 719 0016 FFF7FEFF 		bl	_test_assert
 720              	.LVL93:
 721 001a 00B1     		cbz	r0, .L26
 722              	.L22:
 723 001c 08BD     		pop	{r3, pc}
 724              	.L26:
 725              		.loc 1 264 0
 726 001e 0146     		mov	r1, r0
ARM GAS  /tmp/ccJsjeCt.s 			page 14


 727 0020 4FF0FF30 		mov	r0, #-1
 728 0024 FFF7FEFF 		bl	chEvtWaitAnyTimeout
 729              	.LVL94:
 730              		.loc 1 265 0
 731 0028 D0F10101 		rsbs	r1, r0, #1
 732 002c 38BF     		it	cc
 733 002e 0021     		movcc	r1, #0
 734 0030 0220     		movs	r0, #2
 735              	.LVL95:
 736 0032 FFF7FEFF 		bl	_test_assert
 737              	.LVL96:
 738 0036 0028     		cmp	r0, #0
 739 0038 F0D1     		bne	.L22
 740              		.loc 1 266 0
 741 003a 0146     		mov	r1, r0
 742 003c 4FF0FF30 		mov	r0, #-1
 743 0040 FFF7FEFF 		bl	chEvtWaitAllTimeout
 744              	.LVL97:
 745              		.loc 1 267 0
 746 0044 D0F10101 		rsbs	r1, r0, #1
 747 0048 38BF     		it	cc
 748 004a 0021     		movcc	r1, #0
 749 004c 0320     		movs	r0, #3
 750              	.LVL98:
 751 004e FFF7FEFF 		bl	_test_assert
 752              	.LVL99:
 753 0052 0028     		cmp	r0, #0
 754 0054 E2D1     		bne	.L22
 755              	.LBB4:
 756              	.LBB5:
 757              		.loc 1 268 0
 758 0056 0A21     		movs	r1, #10
 759 0058 4FF0FF30 		mov	r0, #-1
 760 005c FFF7FEFF 		bl	chEvtWaitOneTimeout
 761              	.LVL100:
 762              		.loc 1 269 0
 763 0060 D0F10101 		rsbs	r1, r0, #1
 764 0064 38BF     		it	cc
 765 0066 0021     		movcc	r1, #0
 766 0068 0420     		movs	r0, #4
 767              	.LVL101:
 768 006a FFF7FEFF 		bl	_test_assert
 769              	.LVL102:
 770 006e 0028     		cmp	r0, #0
 771 0070 D4D1     		bne	.L22
 772              		.loc 1 270 0
 773 0072 0A21     		movs	r1, #10
 774 0074 4FF0FF30 		mov	r0, #-1
 775 0078 FFF7FEFF 		bl	chEvtWaitAnyTimeout
 776              	.LVL103:
 777              		.loc 1 271 0
 778 007c D0F10101 		rsbs	r1, r0, #1
 779 0080 38BF     		it	cc
 780 0082 0021     		movcc	r1, #0
 781 0084 0520     		movs	r0, #5
 782              	.LVL104:
 783 0086 FFF7FEFF 		bl	_test_assert
ARM GAS  /tmp/ccJsjeCt.s 			page 15


 784              	.LVL105:
 785 008a 0028     		cmp	r0, #0
 786 008c C6D1     		bne	.L22
 787              		.loc 1 272 0
 788 008e 0A21     		movs	r1, #10
 789 0090 4FF0FF30 		mov	r0, #-1
 790 0094 FFF7FEFF 		bl	chEvtWaitAllTimeout
 791              	.LVL106:
 792              		.loc 1 273 0
 793 0098 D0F10101 		rsbs	r1, r0, #1
 794 009c 38BF     		it	cc
 795 009e 0021     		movcc	r1, #0
 796 00a0 0620     		movs	r0, #6
 797              	.LVL107:
 798              	.LBE5:
 799              	.LBE4:
 800              		.loc 1 274 0
 801 00a2 BDE80840 		pop	{r3, lr}
 802              	.LBB7:
 803              	.LBB6:
 804              		.loc 1 273 0
 805 00a6 FFF7FEBF 		b	_test_assert
 806              	.LVL108:
 807              	.LBE6:
 808              	.LBE7:
 809              		.cfi_endproc
 810              	.LFE17:
 811              		.size	evt3_execute, .-evt3_execute
 812              		.global	patternevt
 813              		.global	testevt3
 814              		.global	testevt2
 815              		.global	testevt1
 816 00aa 00BFAFF3 		.section	.rodata.patternevt,"a",%progbits
 816      0080
 817              		.align	2
 818              		.type	patternevt, %object
 819              		.size	patternevt, 16
 820              	patternevt:
 821 0000 00000000 		.word	testevt1
 822 0004 00000000 		.word	testevt2
 823 0008 00000000 		.word	testevt3
 824 000c 00000000 		.word	0
 825              		.section	.rodata.testevt2,"a",%progbits
 826              		.align	2
 827              		.type	testevt2, %object
 828              		.size	testevt2, 16
 829              	testevt2:
 830 0000 1C000000 		.word	.LC3
 831 0004 00000000 		.word	evt2_setup
 832 0008 00000000 		.word	0
 833 000c 00000000 		.word	evt2_execute
 834              		.section	.rodata.str1.4,"aMS",%progbits,1
 835              		.align	2
 836              	.LC0:
 837 0000 4100     		.ascii	"A\000"
 838 0002 0000     		.space	2
 839              	.LC1:
ARM GAS  /tmp/ccJsjeCt.s 			page 16


 840 0004 41424300 		.ascii	"ABC\000"
 841              	.LC2:
 842 0008 4576656E 		.ascii	"Events, timeouts\000"
 842      74732C20 
 842      74696D65 
 842      6F757473 
 842      00
 843 0019 000000   		.space	3
 844              	.LC3:
 845 001c 4576656E 		.ascii	"Events, wait and broadcast\000"
 845      74732C20 
 845      77616974 
 845      20616E64 
 845      2062726F 
 846 0037 00       		.space	1
 847              	.LC4:
 848 0038 4576656E 		.ascii	"Events, registration and dispatch\000"
 848      74732C20 
 848      72656769 
 848      73747261 
 848      74696F6E 
 849 005a 0000     		.section	.rodata.testevt1,"a",%progbits
 850              		.align	2
 851              		.type	testevt1, %object
 852              		.size	testevt1, 16
 853              	testevt1:
 854 0000 38000000 		.word	.LC4
 855 0004 00000000 		.word	evt1_setup
 856 0008 00000000 		.word	0
 857 000c 00000000 		.word	evt1_execute
 858              		.section	.rodata.evhndl,"a",%progbits
 859              		.align	2
 860              		.set	.LANCHOR2,. + 0
 861              		.type	evhndl, %object
 862              		.size	evhndl, 12
 863              	evhndl:
 864 0000 00000000 		.word	h1
 865 0004 00000000 		.word	h2
 866 0008 00000000 		.word	h3
 867              		.section	.rodata.testevt3,"a",%progbits
 868              		.align	2
 869              		.type	testevt3, %object
 870              		.size	testevt3, 16
 871              	testevt3:
 872 0000 08000000 		.word	.LC2
 873 0004 00000000 		.word	evt3_setup
 874 0008 00000000 		.word	0
 875 000c 00000000 		.word	evt3_execute
 876              		.section	.data.es1,"aw",%progbits
 877              		.align	2
 878              		.set	.LANCHOR0,. + 0
 879              		.type	es1, %object
 880              		.size	es1, 4
 881              	es1:
 882 0000 00000000 		.word	es1
 883              		.section	.data.es2,"aw",%progbits
 884              		.align	2
ARM GAS  /tmp/ccJsjeCt.s 			page 17


 885              		.set	.LANCHOR1,. + 0
 886              		.type	es2, %object
 887              		.size	es2, 4
 888              	es2:
 889 0000 00000000 		.word	es2
 890              		.text
 891              	.Letext0:
 892              		.file 2 "/opt/psas/x-tools/stm32f407/arm-psas-eabi/bin/../lib/gcc/arm-psas-eabi/4.7.2/include/stdd
 893              		.file 3 "/opt/psas/x-tools/stm32f407/arm-psas-eabi/bin/../lib/gcc/arm-psas-eabi/4.7.2/../../../../
 894              		.file 4 "../../os/ports/GCC/ARMCMx/chtypes.h"
 895              		.file 5 "../../os/kernel/include/chlists.h"
 896              		.file 6 "../../os/kernel/include/chthreads.h"
 897              		.file 7 "../../os/ports/GCC/ARMCMx/chcore_v7m.h"
 898              		.file 8 "../../os/kernel/include/chvt.h"
 899              		.file 9 "../../os/kernel/include/chschd.h"
 900              		.file 10 "../../os/kernel/include/chmtx.h"
 901              		.file 11 "../../os/kernel/include/chevents.h"
 902              		.file 12 "../../test/test.h"
 903              		.section	.debug_info,"",%progbits
 904              	.Ldebug_info0:
 905 0000 74110000 		.4byte	0x1174
 906 0004 0200     		.2byte	0x2
 907 0006 00000000 		.4byte	.Ldebug_abbrev0
 908 000a 04       		.byte	0x4
 909 000b 01       		.uleb128 0x1
 910 000c 57030000 		.4byte	.LASF124
 911 0010 01       		.byte	0x1
 912 0011 47040000 		.4byte	.LASF125
 913 0015 5F020000 		.4byte	.LASF126
 914 0019 30000000 		.4byte	.Ldebug_ranges0+0x30
 915 001d 00000000 		.4byte	0
 916 0021 00000000 		.4byte	0
 917 0025 00000000 		.4byte	.Ldebug_line0
 918 0029 02       		.uleb128 0x2
 919 002a 04       		.byte	0x4
 920 002b 05       		.byte	0x5
 921 002c 696E7400 		.ascii	"int\000"
 922 0030 03       		.uleb128 0x3
 923 0031 19000000 		.4byte	.LASF2
 924 0035 02       		.byte	0x2
 925 0036 D5       		.byte	0xd5
 926 0037 3B000000 		.4byte	0x3b
 927 003b 04       		.uleb128 0x4
 928 003c 04       		.byte	0x4
 929 003d 07       		.byte	0x7
 930 003e 9D010000 		.4byte	.LASF0
 931 0042 04       		.uleb128 0x4
 932 0043 01       		.byte	0x1
 933 0044 06       		.byte	0x6
 934 0045 9F000000 		.4byte	.LASF1
 935 0049 03       		.uleb128 0x3
 936 004a 0F050000 		.4byte	.LASF3
 937 004e 03       		.byte	0x3
 938 004f 2A       		.byte	0x2a
 939 0050 54000000 		.4byte	0x54
 940 0054 04       		.uleb128 0x4
 941 0055 01       		.byte	0x1
ARM GAS  /tmp/ccJsjeCt.s 			page 18


 942 0056 08       		.byte	0x8
 943 0057 A4030000 		.4byte	.LASF4
 944 005b 04       		.uleb128 0x4
 945 005c 02       		.byte	0x2
 946 005d 05       		.byte	0x5
 947 005e EB030000 		.4byte	.LASF5
 948 0062 04       		.uleb128 0x4
 949 0063 02       		.byte	0x2
 950 0064 07       		.byte	0x7
 951 0065 FC010000 		.4byte	.LASF6
 952 0069 03       		.uleb128 0x3
 953 006a 9C030000 		.4byte	.LASF7
 954 006e 03       		.byte	0x3
 955 006f 4F       		.byte	0x4f
 956 0070 74000000 		.4byte	0x74
 957 0074 04       		.uleb128 0x4
 958 0075 04       		.byte	0x4
 959 0076 05       		.byte	0x5
 960 0077 F0000000 		.4byte	.LASF8
 961 007b 03       		.uleb128 0x3
 962 007c 6C040000 		.4byte	.LASF9
 963 0080 03       		.byte	0x3
 964 0081 50       		.byte	0x50
 965 0082 86000000 		.4byte	0x86
 966 0086 04       		.uleb128 0x4
 967 0087 04       		.byte	0x4
 968 0088 07       		.byte	0x7
 969 0089 B2010000 		.4byte	.LASF10
 970 008d 04       		.uleb128 0x4
 971 008e 08       		.byte	0x8
 972 008f 05       		.byte	0x5
 973 0090 91000000 		.4byte	.LASF11
 974 0094 04       		.uleb128 0x4
 975 0095 08       		.byte	0x8
 976 0096 07       		.byte	0x7
 977 0097 3A000000 		.4byte	.LASF12
 978 009b 03       		.uleb128 0x3
 979 009c C7000000 		.4byte	.LASF13
 980 00a0 04       		.byte	0x4
 981 00a1 27       		.byte	0x27
 982 00a2 69000000 		.4byte	0x69
 983 00a6 03       		.uleb128 0x3
 984 00a7 3F020000 		.4byte	.LASF14
 985 00ab 04       		.byte	0x4
 986 00ac 28       		.byte	0x28
 987 00ad 49000000 		.4byte	0x49
 988 00b1 03       		.uleb128 0x3
 989 00b2 05010000 		.4byte	.LASF15
 990 00b6 04       		.byte	0x4
 991 00b7 29       		.byte	0x29
 992 00b8 49000000 		.4byte	0x49
 993 00bc 03       		.uleb128 0x3
 994 00bd 7D030000 		.4byte	.LASF16
 995 00c1 04       		.byte	0x4
 996 00c2 2A       		.byte	0x2a
 997 00c3 49000000 		.4byte	0x49
 998 00c7 03       		.uleb128 0x3
ARM GAS  /tmp/ccJsjeCt.s 			page 19


 999 00c8 E6000000 		.4byte	.LASF17
 1000 00cc 04       		.byte	0x4
 1001 00cd 2B       		.byte	0x2b
 1002 00ce 49000000 		.4byte	0x49
 1003 00d2 03       		.uleb128 0x3
 1004 00d3 94030000 		.4byte	.LASF18
 1005 00d7 04       		.byte	0x4
 1006 00d8 2C       		.byte	0x2c
 1007 00d9 7B000000 		.4byte	0x7b
 1008 00dd 03       		.uleb128 0x3
 1009 00de 21020000 		.4byte	.LASF19
 1010 00e2 04       		.byte	0x4
 1011 00e3 2D       		.byte	0x2d
 1012 00e4 69000000 		.4byte	0x69
 1013 00e8 03       		.uleb128 0x3
 1014 00e9 7B010000 		.4byte	.LASF20
 1015 00ed 04       		.byte	0x4
 1016 00ee 2E       		.byte	0x2e
 1017 00ef 69000000 		.4byte	0x69
 1018 00f3 03       		.uleb128 0x3
 1019 00f4 53020000 		.4byte	.LASF21
 1020 00f8 04       		.byte	0x4
 1021 00f9 2F       		.byte	0x2f
 1022 00fa 7B000000 		.4byte	0x7b
 1023 00fe 03       		.uleb128 0x3
 1024 00ff E1040000 		.4byte	.LASF22
 1025 0103 04       		.byte	0x4
 1026 0104 30       		.byte	0x30
 1027 0105 7B000000 		.4byte	0x7b
 1028 0109 03       		.uleb128 0x3
 1029 010a 96040000 		.4byte	.LASF23
 1030 010e 04       		.byte	0x4
 1031 010f 31       		.byte	0x31
 1032 0110 7B000000 		.4byte	0x7b
 1033 0114 03       		.uleb128 0x3
 1034 0115 2C040000 		.4byte	.LASF24
 1035 0119 05       		.byte	0x5
 1036 011a 23       		.byte	0x23
 1037 011b 1F010000 		.4byte	0x11f
 1038 011f 05       		.uleb128 0x5
 1039 0120 2C040000 		.4byte	.LASF24
 1040 0124 48       		.byte	0x48
 1041 0125 06       		.byte	0x6
 1042 0126 57       		.byte	0x57
 1043 0127 44020000 		.4byte	0x244
 1044 012b 06       		.uleb128 0x6
 1045 012c 1D040000 		.4byte	.LASF25
 1046 0130 06       		.byte	0x6
 1047 0131 58       		.byte	0x58
 1048 0132 69020000 		.4byte	0x269
 1049 0136 02       		.byte	0x2
 1050 0137 23       		.byte	0x23
 1051 0138 00       		.uleb128 0
 1052 0139 06       		.uleb128 0x6
 1053 013a 85030000 		.4byte	.LASF26
 1054 013e 06       		.byte	0x6
 1055 013f 5A       		.byte	0x5a
ARM GAS  /tmp/ccJsjeCt.s 			page 20


 1056 0140 69020000 		.4byte	0x269
 1057 0144 02       		.byte	0x2
 1058 0145 23       		.byte	0x23
 1059 0146 04       		.uleb128 0x4
 1060 0147 06       		.uleb128 0x6
 1061 0148 7D000000 		.4byte	.LASF27
 1062 014c 06       		.byte	0x6
 1063 014d 5C       		.byte	0x5c
 1064 014e D2000000 		.4byte	0xd2
 1065 0152 02       		.byte	0x2
 1066 0153 23       		.byte	0x23
 1067 0154 08       		.uleb128 0x8
 1068 0155 06       		.uleb128 0x6
 1069 0156 92050000 		.4byte	.LASF28
 1070 015a 06       		.byte	0x6
 1071 015b 5D       		.byte	0x5d
 1072 015c 37030000 		.4byte	0x337
 1073 0160 02       		.byte	0x2
 1074 0161 23       		.byte	0x23
 1075 0162 0C       		.uleb128 0xc
 1076 0163 06       		.uleb128 0x6
 1077 0164 46010000 		.4byte	.LASF29
 1078 0168 06       		.byte	0x6
 1079 0169 5F       		.byte	0x5f
 1080 016a 69020000 		.4byte	0x269
 1081 016e 02       		.byte	0x2
 1082 016f 23       		.byte	0x23
 1083 0170 10       		.uleb128 0x10
 1084 0171 06       		.uleb128 0x6
 1085 0172 10030000 		.4byte	.LASF30
 1086 0176 06       		.byte	0x6
 1087 0177 60       		.byte	0x60
 1088 0178 69020000 		.4byte	0x269
 1089 017c 02       		.byte	0x2
 1090 017d 23       		.byte	0x23
 1091 017e 14       		.uleb128 0x14
 1092 017f 06       		.uleb128 0x6
 1093 0180 40050000 		.4byte	.LASF31
 1094 0184 06       		.byte	0x6
 1095 0185 67       		.byte	0x67
 1096 0186 B1050000 		.4byte	0x5b1
 1097 018a 02       		.byte	0x2
 1098 018b 23       		.byte	0x23
 1099 018c 18       		.uleb128 0x18
 1100 018d 06       		.uleb128 0x6
 1101 018e F5030000 		.4byte	.LASF32
 1102 0192 06       		.byte	0x6
 1103 0193 72       		.byte	0x72
 1104 0194 B1000000 		.4byte	0xb1
 1105 0198 02       		.byte	0x2
 1106 0199 23       		.byte	0x23
 1107 019a 1C       		.uleb128 0x1c
 1108 019b 06       		.uleb128 0x6
 1109 019c 24040000 		.4byte	.LASF33
 1110 01a0 06       		.byte	0x6
 1111 01a1 76       		.byte	0x76
 1112 01a2 A6000000 		.4byte	0xa6
ARM GAS  /tmp/ccJsjeCt.s 			page 21


 1113 01a6 02       		.byte	0x2
 1114 01a7 23       		.byte	0x23
 1115 01a8 1D       		.uleb128 0x1d
 1116 01a9 06       		.uleb128 0x6
 1117 01aa F8040000 		.4byte	.LASF34
 1118 01ae 06       		.byte	0x6
 1119 01af 7B       		.byte	0x7b
 1120 01b0 BC000000 		.4byte	0xbc
 1121 01b4 02       		.byte	0x2
 1122 01b5 23       		.byte	0x23
 1123 01b6 1E       		.uleb128 0x1e
 1124 01b7 06       		.uleb128 0x6
 1125 01b8 FD030000 		.4byte	.LASF35
 1126 01bc 06       		.byte	0x6
 1127 01bd 81       		.byte	0x81
 1128 01be C7000000 		.4byte	0xc7
 1129 01c2 02       		.byte	0x2
 1130 01c3 23       		.byte	0x23
 1131 01c4 1F       		.uleb128 0x1f
 1132 01c5 06       		.uleb128 0x6
 1133 01c6 B4040000 		.4byte	.LASF36
 1134 01ca 06       		.byte	0x6
 1135 01cb 88       		.byte	0x88
 1136 01cc 23040000 		.4byte	0x423
 1137 01d0 02       		.byte	0x2
 1138 01d1 23       		.byte	0x23
 1139 01d2 20       		.uleb128 0x20
 1140 01d3 07       		.uleb128 0x7
 1141 01d4 705F7500 		.ascii	"p_u\000"
 1142 01d8 06       		.byte	0x6
 1143 01d9 AD       		.byte	0xad
 1144 01da 7C050000 		.4byte	0x57c
 1145 01de 02       		.byte	0x2
 1146 01df 23       		.byte	0x23
 1147 01e0 24       		.uleb128 0x24
 1148 01e1 06       		.uleb128 0x6
 1149 01e2 98050000 		.4byte	.LASF37
 1150 01e6 06       		.byte	0x6
 1151 01e7 B2       		.byte	0xb2
 1152 01e8 91020000 		.4byte	0x291
 1153 01ec 02       		.byte	0x2
 1154 01ed 23       		.byte	0x23
 1155 01ee 28       		.uleb128 0x28
 1156 01ef 06       		.uleb128 0x6
 1157 01f0 C2040000 		.4byte	.LASF38
 1158 01f4 06       		.byte	0x6
 1159 01f5 B8       		.byte	0xb8
 1160 01f6 6F020000 		.4byte	0x26f
 1161 01fa 02       		.byte	0x2
 1162 01fb 23       		.byte	0x23
 1163 01fc 2C       		.uleb128 0x2c
 1164 01fd 06       		.uleb128 0x6
 1165 01fe 13000000 		.4byte	.LASF39
 1166 0202 06       		.byte	0x6
 1167 0203 BC       		.byte	0xbc
 1168 0204 DD000000 		.4byte	0xdd
 1169 0208 02       		.byte	0x2
ARM GAS  /tmp/ccJsjeCt.s 			page 22


 1170 0209 23       		.byte	0x23
 1171 020a 34       		.uleb128 0x34
 1172 020b 06       		.uleb128 0x6
 1173 020c 3C040000 		.4byte	.LASF40
 1174 0210 06       		.byte	0x6
 1175 0211 C2       		.byte	0xc2
 1176 0212 F3000000 		.4byte	0xf3
 1177 0216 02       		.byte	0x2
 1178 0217 23       		.byte	0x23
 1179 0218 38       		.uleb128 0x38
 1180 0219 06       		.uleb128 0x6
 1181 021a E1030000 		.4byte	.LASF41
 1182 021e 06       		.byte	0x6
 1183 021f C9       		.byte	0xc9
 1184 0220 C3050000 		.4byte	0x5c3
 1185 0224 02       		.byte	0x2
 1186 0225 23       		.byte	0x23
 1187 0226 3C       		.uleb128 0x3c
 1188 0227 06       		.uleb128 0x6
 1189 0228 A0040000 		.4byte	.LASF42
 1190 022c 06       		.byte	0x6
 1191 022d CD       		.byte	0xcd
 1192 022e D2000000 		.4byte	0xd2
 1193 0232 02       		.byte	0x2
 1194 0233 23       		.byte	0x23
 1195 0234 40       		.uleb128 0x40
 1196 0235 06       		.uleb128 0x6
 1197 0236 BF000000 		.4byte	.LASF43
 1198 023a 06       		.byte	0x6
 1199 023b D3       		.byte	0xd3
 1200 023c A7020000 		.4byte	0x2a7
 1201 0240 02       		.byte	0x2
 1202 0241 23       		.byte	0x23
 1203 0242 44       		.uleb128 0x44
 1204 0243 00       		.byte	0
 1205 0244 08       		.uleb128 0x8
 1206 0245 08       		.byte	0x8
 1207 0246 05       		.byte	0x5
 1208 0247 5A       		.byte	0x5a
 1209 0248 69020000 		.4byte	0x269
 1210 024c 06       		.uleb128 0x6
 1211 024d 1D040000 		.4byte	.LASF25
 1212 0251 05       		.byte	0x5
 1213 0252 5B       		.byte	0x5b
 1214 0253 69020000 		.4byte	0x269
 1215 0257 02       		.byte	0x2
 1216 0258 23       		.byte	0x23
 1217 0259 00       		.uleb128 0
 1218 025a 06       		.uleb128 0x6
 1219 025b 85030000 		.4byte	.LASF26
 1220 025f 05       		.byte	0x5
 1221 0260 5D       		.byte	0x5d
 1222 0261 69020000 		.4byte	0x269
 1223 0265 02       		.byte	0x2
 1224 0266 23       		.byte	0x23
 1225 0267 04       		.uleb128 0x4
 1226 0268 00       		.byte	0
ARM GAS  /tmp/ccJsjeCt.s 			page 23


 1227 0269 09       		.uleb128 0x9
 1228 026a 04       		.byte	0x4
 1229 026b 14010000 		.4byte	0x114
 1230 026f 03       		.uleb128 0x3
 1231 0270 2E030000 		.4byte	.LASF44
 1232 0274 05       		.byte	0x5
 1233 0275 5F       		.byte	0x5f
 1234 0276 44020000 		.4byte	0x244
 1235 027a 08       		.uleb128 0x8
 1236 027b 04       		.byte	0x4
 1237 027c 05       		.byte	0x5
 1238 027d 64       		.byte	0x64
 1239 027e 91020000 		.4byte	0x291
 1240 0282 06       		.uleb128 0x6
 1241 0283 1D040000 		.4byte	.LASF25
 1242 0287 05       		.byte	0x5
 1243 0288 66       		.byte	0x66
 1244 0289 69020000 		.4byte	0x269
 1245 028d 02       		.byte	0x2
 1246 028e 23       		.byte	0x23
 1247 028f 00       		.uleb128 0
 1248 0290 00       		.byte	0
 1249 0291 03       		.uleb128 0x3
 1250 0292 47020000 		.4byte	.LASF45
 1251 0296 05       		.byte	0x5
 1252 0297 69       		.byte	0x69
 1253 0298 7A020000 		.4byte	0x27a
 1254 029c 03       		.uleb128 0x3
 1255 029d 56010000 		.4byte	.LASF46
 1256 02a1 07       		.byte	0x7
 1257 02a2 DE       		.byte	0xde
 1258 02a3 A7020000 		.4byte	0x2a7
 1259 02a7 0A       		.uleb128 0xa
 1260 02a8 04       		.byte	0x4
 1261 02a9 0B       		.uleb128 0xb
 1262 02aa BB040000 		.4byte	.LASF47
 1263 02ae 24       		.byte	0x24
 1264 02af 07       		.byte	0x7
 1265 02b0 0501     		.2byte	0x105
 1266 02b2 37030000 		.4byte	0x337
 1267 02b6 0C       		.uleb128 0xc
 1268 02b7 723400   		.ascii	"r4\000"
 1269 02ba 07       		.byte	0x7
 1270 02bb 1801     		.2byte	0x118
 1271 02bd 9C020000 		.4byte	0x29c
 1272 02c1 02       		.byte	0x2
 1273 02c2 23       		.byte	0x23
 1274 02c3 00       		.uleb128 0
 1275 02c4 0C       		.uleb128 0xc
 1276 02c5 723500   		.ascii	"r5\000"
 1277 02c8 07       		.byte	0x7
 1278 02c9 1901     		.2byte	0x119
 1279 02cb 9C020000 		.4byte	0x29c
 1280 02cf 02       		.byte	0x2
 1281 02d0 23       		.byte	0x23
 1282 02d1 04       		.uleb128 0x4
 1283 02d2 0C       		.uleb128 0xc
ARM GAS  /tmp/ccJsjeCt.s 			page 24


 1284 02d3 723600   		.ascii	"r6\000"
 1285 02d6 07       		.byte	0x7
 1286 02d7 1A01     		.2byte	0x11a
 1287 02d9 9C020000 		.4byte	0x29c
 1288 02dd 02       		.byte	0x2
 1289 02de 23       		.byte	0x23
 1290 02df 08       		.uleb128 0x8
 1291 02e0 0C       		.uleb128 0xc
 1292 02e1 723700   		.ascii	"r7\000"
 1293 02e4 07       		.byte	0x7
 1294 02e5 1B01     		.2byte	0x11b
 1295 02e7 9C020000 		.4byte	0x29c
 1296 02eb 02       		.byte	0x2
 1297 02ec 23       		.byte	0x23
 1298 02ed 0C       		.uleb128 0xc
 1299 02ee 0C       		.uleb128 0xc
 1300 02ef 723800   		.ascii	"r8\000"
 1301 02f2 07       		.byte	0x7
 1302 02f3 1C01     		.2byte	0x11c
 1303 02f5 9C020000 		.4byte	0x29c
 1304 02f9 02       		.byte	0x2
 1305 02fa 23       		.byte	0x23
 1306 02fb 10       		.uleb128 0x10
 1307 02fc 0C       		.uleb128 0xc
 1308 02fd 723900   		.ascii	"r9\000"
 1309 0300 07       		.byte	0x7
 1310 0301 1D01     		.2byte	0x11d
 1311 0303 9C020000 		.4byte	0x29c
 1312 0307 02       		.byte	0x2
 1313 0308 23       		.byte	0x23
 1314 0309 14       		.uleb128 0x14
 1315 030a 0C       		.uleb128 0xc
 1316 030b 72313000 		.ascii	"r10\000"
 1317 030f 07       		.byte	0x7
 1318 0310 1E01     		.2byte	0x11e
 1319 0312 9C020000 		.4byte	0x29c
 1320 0316 02       		.byte	0x2
 1321 0317 23       		.byte	0x23
 1322 0318 18       		.uleb128 0x18
 1323 0319 0C       		.uleb128 0xc
 1324 031a 72313100 		.ascii	"r11\000"
 1325 031e 07       		.byte	0x7
 1326 031f 1F01     		.2byte	0x11f
 1327 0321 9C020000 		.4byte	0x29c
 1328 0325 02       		.byte	0x2
 1329 0326 23       		.byte	0x23
 1330 0327 1C       		.uleb128 0x1c
 1331 0328 0C       		.uleb128 0xc
 1332 0329 6C7200   		.ascii	"lr\000"
 1333 032c 07       		.byte	0x7
 1334 032d 2001     		.2byte	0x120
 1335 032f 9C020000 		.4byte	0x29c
 1336 0333 02       		.byte	0x2
 1337 0334 23       		.byte	0x23
 1338 0335 20       		.uleb128 0x20
 1339 0336 00       		.byte	0
 1340 0337 0B       		.uleb128 0xb
ARM GAS  /tmp/ccJsjeCt.s 			page 25


 1341 0338 F4010000 		.4byte	.LASF48
 1342 033c 04       		.byte	0x4
 1343 033d 07       		.byte	0x7
 1344 033e 2A01     		.2byte	0x12a
 1345 0340 54030000 		.4byte	0x354
 1346 0344 0C       		.uleb128 0xc
 1347 0345 72313300 		.ascii	"r13\000"
 1348 0349 07       		.byte	0x7
 1349 034a 2B01     		.2byte	0x12b
 1350 034c 54030000 		.4byte	0x354
 1351 0350 02       		.byte	0x2
 1352 0351 23       		.byte	0x23
 1353 0352 00       		.uleb128 0
 1354 0353 00       		.byte	0
 1355 0354 09       		.uleb128 0x9
 1356 0355 04       		.byte	0x4
 1357 0356 A9020000 		.4byte	0x2a9
 1358 035a 04       		.uleb128 0x4
 1359 035b 04       		.byte	0x4
 1360 035c 07       		.byte	0x7
 1361 035d D4020000 		.4byte	.LASF49
 1362 0361 03       		.uleb128 0x3
 1363 0362 AB040000 		.4byte	.LASF50
 1364 0366 08       		.byte	0x8
 1365 0367 4E       		.byte	0x4e
 1366 0368 6C030000 		.4byte	0x36c
 1367 036c 09       		.uleb128 0x9
 1368 036d 04       		.byte	0x4
 1369 036e 72030000 		.4byte	0x372
 1370 0372 0D       		.uleb128 0xd
 1371 0373 01       		.byte	0x1
 1372 0374 7E030000 		.4byte	0x37e
 1373 0378 0E       		.uleb128 0xe
 1374 0379 A7020000 		.4byte	0x2a7
 1375 037d 00       		.byte	0
 1376 037e 03       		.uleb128 0x3
 1377 037f 7D040000 		.4byte	.LASF51
 1378 0383 08       		.byte	0x8
 1379 0384 53       		.byte	0x53
 1380 0385 89030000 		.4byte	0x389
 1381 0389 05       		.uleb128 0x5
 1382 038a 7D040000 		.4byte	.LASF51
 1383 038e 14       		.byte	0x14
 1384 038f 08       		.byte	0x8
 1385 0390 5A       		.byte	0x5a
 1386 0391 DC030000 		.4byte	0x3dc
 1387 0395 06       		.uleb128 0x6
 1388 0396 AA010000 		.4byte	.LASF52
 1389 039a 08       		.byte	0x8
 1390 039b 5B       		.byte	0x5b
 1391 039c DC030000 		.4byte	0x3dc
 1392 03a0 02       		.byte	0x2
 1393 03a1 23       		.byte	0x23
 1394 03a2 00       		.uleb128 0
 1395 03a3 06       		.uleb128 0x6
 1396 03a4 5F010000 		.4byte	.LASF53
 1397 03a8 08       		.byte	0x8
ARM GAS  /tmp/ccJsjeCt.s 			page 26


 1398 03a9 5D       		.byte	0x5d
 1399 03aa DC030000 		.4byte	0x3dc
 1400 03ae 02       		.byte	0x2
 1401 03af 23       		.byte	0x23
 1402 03b0 04       		.uleb128 0x4
 1403 03b1 06       		.uleb128 0x6
 1404 03b2 C1020000 		.4byte	.LASF54
 1405 03b6 08       		.byte	0x8
 1406 03b7 5F       		.byte	0x5f
 1407 03b8 09010000 		.4byte	0x109
 1408 03bc 02       		.byte	0x2
 1409 03bd 23       		.byte	0x23
 1410 03be 08       		.uleb128 0x8
 1411 03bf 06       		.uleb128 0x6
 1412 03c0 DD020000 		.4byte	.LASF55
 1413 03c4 08       		.byte	0x8
 1414 03c5 60       		.byte	0x60
 1415 03c6 61030000 		.4byte	0x361
 1416 03ca 02       		.byte	0x2
 1417 03cb 23       		.byte	0x23
 1418 03cc 0C       		.uleb128 0xc
 1419 03cd 06       		.uleb128 0x6
 1420 03ce DA040000 		.4byte	.LASF56
 1421 03d2 08       		.byte	0x8
 1422 03d3 62       		.byte	0x62
 1423 03d4 A7020000 		.4byte	0x2a7
 1424 03d8 02       		.byte	0x2
 1425 03d9 23       		.byte	0x23
 1426 03da 10       		.uleb128 0x10
 1427 03db 00       		.byte	0
 1428 03dc 09       		.uleb128 0x9
 1429 03dd 04       		.byte	0x4
 1430 03de 7E030000 		.4byte	0x37e
 1431 03e2 08       		.uleb128 0x8
 1432 03e3 10       		.byte	0x10
 1433 03e4 08       		.byte	0x8
 1434 03e5 6C       		.byte	0x6c
 1435 03e6 23040000 		.4byte	0x423
 1436 03ea 06       		.uleb128 0x6
 1437 03eb AA010000 		.4byte	.LASF52
 1438 03ef 08       		.byte	0x8
 1439 03f0 6D       		.byte	0x6d
 1440 03f1 DC030000 		.4byte	0x3dc
 1441 03f5 02       		.byte	0x2
 1442 03f6 23       		.byte	0x23
 1443 03f7 00       		.uleb128 0
 1444 03f8 06       		.uleb128 0x6
 1445 03f9 5F010000 		.4byte	.LASF53
 1446 03fd 08       		.byte	0x8
 1447 03fe 6F       		.byte	0x6f
 1448 03ff DC030000 		.4byte	0x3dc
 1449 0403 02       		.byte	0x2
 1450 0404 23       		.byte	0x23
 1451 0405 04       		.uleb128 0x4
 1452 0406 06       		.uleb128 0x6
 1453 0407 C1020000 		.4byte	.LASF54
 1454 040b 08       		.byte	0x8
ARM GAS  /tmp/ccJsjeCt.s 			page 27


 1455 040c 71       		.byte	0x71
 1456 040d 09010000 		.4byte	0x109
 1457 0411 02       		.byte	0x2
 1458 0412 23       		.byte	0x23
 1459 0413 08       		.uleb128 0x8
 1460 0414 06       		.uleb128 0x6
 1461 0415 54050000 		.4byte	.LASF57
 1462 0419 08       		.byte	0x8
 1463 041a 72       		.byte	0x72
 1464 041b 23040000 		.4byte	0x423
 1465 041f 02       		.byte	0x2
 1466 0420 23       		.byte	0x23
 1467 0421 0C       		.uleb128 0xc
 1468 0422 00       		.byte	0
 1469 0423 0F       		.uleb128 0xf
 1470 0424 09010000 		.4byte	0x109
 1471 0428 03       		.uleb128 0x3
 1472 0429 67050000 		.4byte	.LASF58
 1473 042d 08       		.byte	0x8
 1474 042e 73       		.byte	0x73
 1475 042f E2030000 		.4byte	0x3e2
 1476 0433 08       		.uleb128 0x8
 1477 0434 1C       		.byte	0x1c
 1478 0435 09       		.byte	0x9
 1479 0436 57       		.byte	0x57
 1480 0437 90040000 		.4byte	0x490
 1481 043b 06       		.uleb128 0x6
 1482 043c 75040000 		.4byte	.LASF59
 1483 0440 09       		.byte	0x9
 1484 0441 58       		.byte	0x58
 1485 0442 6F020000 		.4byte	0x26f
 1486 0446 02       		.byte	0x2
 1487 0447 23       		.byte	0x23
 1488 0448 00       		.uleb128 0
 1489 0449 06       		.uleb128 0x6
 1490 044a 0F040000 		.4byte	.LASF60
 1491 044e 09       		.byte	0x9
 1492 044f 59       		.byte	0x59
 1493 0450 D2000000 		.4byte	0xd2
 1494 0454 02       		.byte	0x2
 1495 0455 23       		.byte	0x23
 1496 0456 08       		.uleb128 0x8
 1497 0457 06       		.uleb128 0x6
 1498 0458 28030000 		.4byte	.LASF61
 1499 045c 09       		.byte	0x9
 1500 045d 5B       		.byte	0x5b
 1501 045e 37030000 		.4byte	0x337
 1502 0462 02       		.byte	0x2
 1503 0463 23       		.byte	0x23
 1504 0464 0C       		.uleb128 0xc
 1505 0465 06       		.uleb128 0x6
 1506 0466 4E010000 		.4byte	.LASF62
 1507 046a 09       		.byte	0x9
 1508 046b 5E       		.byte	0x5e
 1509 046c 69020000 		.4byte	0x269
 1510 0470 02       		.byte	0x2
 1511 0471 23       		.byte	0x23
ARM GAS  /tmp/ccJsjeCt.s 			page 28


 1512 0472 10       		.uleb128 0x10
 1513 0473 06       		.uleb128 0x6
 1514 0474 6D030000 		.4byte	.LASF63
 1515 0478 09       		.byte	0x9
 1516 0479 5F       		.byte	0x5f
 1517 047a 69020000 		.4byte	0x269
 1518 047e 02       		.byte	0x2
 1519 047f 23       		.byte	0x23
 1520 0480 14       		.uleb128 0x14
 1521 0481 06       		.uleb128 0x6
 1522 0482 63030000 		.4byte	.LASF64
 1523 0486 09       		.byte	0x9
 1524 0487 62       		.byte	0x62
 1525 0488 69020000 		.4byte	0x269
 1526 048c 02       		.byte	0x2
 1527 048d 23       		.byte	0x23
 1528 048e 18       		.uleb128 0x18
 1529 048f 00       		.byte	0
 1530 0490 03       		.uleb128 0x3
 1531 0491 FF040000 		.4byte	.LASF65
 1532 0495 09       		.byte	0x9
 1533 0496 64       		.byte	0x64
 1534 0497 33040000 		.4byte	0x433
 1535 049b 05       		.uleb128 0x5
 1536 049c A9020000 		.4byte	.LASF66
 1537 04a0 10       		.byte	0x10
 1538 04a1 0A       		.byte	0xa
 1539 04a2 25       		.byte	0x25
 1540 04a3 D2040000 		.4byte	0x4d2
 1541 04a7 06       		.uleb128 0x6
 1542 04a8 CE000000 		.4byte	.LASF67
 1543 04ac 0A       		.byte	0xa
 1544 04ad 26       		.byte	0x26
 1545 04ae 6F020000 		.4byte	0x26f
 1546 04b2 02       		.byte	0x2
 1547 04b3 23       		.byte	0x23
 1548 04b4 00       		.uleb128 0
 1549 04b5 06       		.uleb128 0x6
 1550 04b6 6E050000 		.4byte	.LASF68
 1551 04ba 0A       		.byte	0xa
 1552 04bb 28       		.byte	0x28
 1553 04bc 69020000 		.4byte	0x269
 1554 04c0 02       		.byte	0x2
 1555 04c1 23       		.byte	0x23
 1556 04c2 08       		.uleb128 0x8
 1557 04c3 06       		.uleb128 0x6
 1558 04c4 8F040000 		.4byte	.LASF69
 1559 04c8 0A       		.byte	0xa
 1560 04c9 2A       		.byte	0x2a
 1561 04ca D2040000 		.4byte	0x4d2
 1562 04ce 02       		.byte	0x2
 1563 04cf 23       		.byte	0x23
 1564 04d0 0C       		.uleb128 0xc
 1565 04d1 00       		.byte	0
 1566 04d2 09       		.uleb128 0x9
 1567 04d3 04       		.byte	0x4
 1568 04d4 9B040000 		.4byte	0x49b
ARM GAS  /tmp/ccJsjeCt.s 			page 29


 1569 04d8 03       		.uleb128 0x3
 1570 04d9 A9020000 		.4byte	.LASF66
 1571 04dd 0A       		.byte	0xa
 1572 04de 2C       		.byte	0x2c
 1573 04df 9B040000 		.4byte	0x49b
 1574 04e3 03       		.uleb128 0x3
 1575 04e4 17050000 		.4byte	.LASF70
 1576 04e8 0B       		.byte	0xb
 1577 04e9 25       		.byte	0x25
 1578 04ea EE040000 		.4byte	0x4ee
 1579 04ee 05       		.uleb128 0x5
 1580 04ef 17050000 		.4byte	.LASF70
 1581 04f3 10       		.byte	0x10
 1582 04f4 0B       		.byte	0xb
 1583 04f5 2A       		.byte	0x2a
 1584 04f6 33050000 		.4byte	0x533
 1585 04fa 06       		.uleb128 0x6
 1586 04fb 27020000 		.4byte	.LASF71
 1587 04ff 0B       		.byte	0xb
 1588 0500 2B       		.byte	0x2b
 1589 0501 33050000 		.4byte	0x533
 1590 0505 02       		.byte	0x2
 1591 0506 23       		.byte	0x23
 1592 0507 00       		.uleb128 0
 1593 0508 06       		.uleb128 0x6
 1594 0509 BF030000 		.4byte	.LASF72
 1595 050d 0B       		.byte	0xb
 1596 050e 2E       		.byte	0x2e
 1597 050f 69020000 		.4byte	0x269
 1598 0513 02       		.byte	0x2
 1599 0514 23       		.byte	0x23
 1600 0515 04       		.uleb128 0x4
 1601 0516 06       		.uleb128 0x6
 1602 0517 75030000 		.4byte	.LASF73
 1603 051b 0B       		.byte	0xb
 1604 051c 30       		.byte	0x30
 1605 051d F3000000 		.4byte	0xf3
 1606 0521 02       		.byte	0x2
 1607 0522 23       		.byte	0x23
 1608 0523 08       		.uleb128 0x8
 1609 0524 06       		.uleb128 0x6
 1610 0525 D8030000 		.4byte	.LASF74
 1611 0529 0B       		.byte	0xb
 1612 052a 33       		.byte	0x33
 1613 052b FE000000 		.4byte	0xfe
 1614 052f 02       		.byte	0x2
 1615 0530 23       		.byte	0x23
 1616 0531 0C       		.uleb128 0xc
 1617 0532 00       		.byte	0
 1618 0533 09       		.uleb128 0x9
 1619 0534 04       		.byte	0x4
 1620 0535 E3040000 		.4byte	0x4e3
 1621 0539 05       		.uleb128 0x5
 1622 053a 85010000 		.4byte	.LASF75
 1623 053e 04       		.byte	0x4
 1624 053f 0B       		.byte	0xb
 1625 0540 3A       		.byte	0x3a
ARM GAS  /tmp/ccJsjeCt.s 			page 30


 1626 0541 54050000 		.4byte	0x554
 1627 0545 06       		.uleb128 0x6
 1628 0546 5F050000 		.4byte	.LASF76
 1629 054a 0B       		.byte	0xb
 1630 054b 3B       		.byte	0x3b
 1631 054c 33050000 		.4byte	0x533
 1632 0550 02       		.byte	0x2
 1633 0551 23       		.byte	0x23
 1634 0552 00       		.uleb128 0
 1635 0553 00       		.byte	0
 1636 0554 03       		.uleb128 0x3
 1637 0555 85010000 		.4byte	.LASF75
 1638 0559 0B       		.byte	0xb
 1639 055a 3E       		.byte	0x3e
 1640 055b 39050000 		.4byte	0x539
 1641 055f 03       		.uleb128 0x3
 1642 0560 91010000 		.4byte	.LASF77
 1643 0564 0B       		.byte	0xb
 1644 0565 43       		.byte	0x43
 1645 0566 6A050000 		.4byte	0x56a
 1646 056a 09       		.uleb128 0x9
 1647 056b 04       		.byte	0x4
 1648 056c 70050000 		.4byte	0x570
 1649 0570 0D       		.uleb128 0xd
 1650 0571 01       		.byte	0x1
 1651 0572 7C050000 		.4byte	0x57c
 1652 0576 0E       		.uleb128 0xe
 1653 0577 E8000000 		.4byte	0xe8
 1654 057b 00       		.byte	0
 1655 057c 10       		.uleb128 0x10
 1656 057d 04       		.byte	0x4
 1657 057e 06       		.byte	0x6
 1658 057f 8F       		.byte	0x8f
 1659 0580 B1050000 		.4byte	0x5b1
 1660 0584 11       		.uleb128 0x11
 1661 0585 20000000 		.4byte	.LASF78
 1662 0589 06       		.byte	0x6
 1663 058a 96       		.byte	0x96
 1664 058b DD000000 		.4byte	0xdd
 1665 058f 11       		.uleb128 0x11
 1666 0590 60000000 		.4byte	.LASF79
 1667 0594 06       		.byte	0x6
 1668 0595 9D       		.byte	0x9d
 1669 0596 DD000000 		.4byte	0xdd
 1670 059a 11       		.uleb128 0x11
 1671 059b 39050000 		.4byte	.LASF80
 1672 059f 06       		.byte	0x6
 1673 05a0 A4       		.byte	0xa4
 1674 05a1 A7020000 		.4byte	0x2a7
 1675 05a5 11       		.uleb128 0x11
 1676 05a6 16040000 		.4byte	.LASF81
 1677 05aa 06       		.byte	0x6
 1678 05ab AB       		.byte	0xab
 1679 05ac F3000000 		.4byte	0xf3
 1680 05b0 00       		.byte	0
 1681 05b1 09       		.uleb128 0x9
 1682 05b2 04       		.byte	0x4
ARM GAS  /tmp/ccJsjeCt.s 			page 31


 1683 05b3 B7050000 		.4byte	0x5b7
 1684 05b7 12       		.uleb128 0x12
 1685 05b8 BC050000 		.4byte	0x5bc
 1686 05bc 04       		.uleb128 0x4
 1687 05bd 01       		.byte	0x1
 1688 05be 08       		.byte	0x8
 1689 05bf 8A040000 		.4byte	.LASF82
 1690 05c3 09       		.uleb128 0x9
 1691 05c4 04       		.byte	0x4
 1692 05c5 D8040000 		.4byte	0x4d8
 1693 05c9 03       		.uleb128 0x3
 1694 05ca 00000000 		.4byte	.LASF83
 1695 05ce 06       		.byte	0x6
 1696 05cf DE       		.byte	0xde
 1697 05d0 D4050000 		.4byte	0x5d4
 1698 05d4 09       		.uleb128 0x9
 1699 05d5 04       		.byte	0x4
 1700 05d6 DA050000 		.4byte	0x5da
 1701 05da 13       		.uleb128 0x13
 1702 05db 01       		.byte	0x1
 1703 05dc DD000000 		.4byte	0xdd
 1704 05e0 EA050000 		.4byte	0x5ea
 1705 05e4 0E       		.uleb128 0xe
 1706 05e5 A7020000 		.4byte	0x2a7
 1707 05e9 00       		.byte	0
 1708 05ea 05       		.uleb128 0x5
 1709 05eb 33040000 		.4byte	.LASF84
 1710 05ef 10       		.byte	0x10
 1711 05f0 0C       		.byte	0xc
 1712 05f1 3F       		.byte	0x3f
 1713 05f2 2F060000 		.4byte	0x62f
 1714 05f6 06       		.uleb128 0x6
 1715 05f7 EF010000 		.4byte	.LASF85
 1716 05fb 0C       		.byte	0xc
 1717 05fc 40       		.byte	0x40
 1718 05fd B1050000 		.4byte	0x5b1
 1719 0601 02       		.byte	0x2
 1720 0602 23       		.byte	0x23
 1721 0603 00       		.uleb128 0
 1722 0604 06       		.uleb128 0x6
 1723 0605 3B030000 		.4byte	.LASF86
 1724 0609 0C       		.byte	0xc
 1725 060a 41       		.byte	0x41
 1726 060b 31060000 		.4byte	0x631
 1727 060f 02       		.byte	0x2
 1728 0610 23       		.byte	0x23
 1729 0611 04       		.uleb128 0x4
 1730 0612 06       		.uleb128 0x6
 1731 0613 DB010000 		.4byte	.LASF87
 1732 0617 0C       		.byte	0xc
 1733 0618 42       		.byte	0x42
 1734 0619 31060000 		.4byte	0x631
 1735 061d 02       		.byte	0x2
 1736 061e 23       		.byte	0x23
 1737 061f 08       		.uleb128 0x8
 1738 0620 06       		.uleb128 0x6
 1739 0621 8C030000 		.4byte	.LASF88
ARM GAS  /tmp/ccJsjeCt.s 			page 32


 1740 0625 0C       		.byte	0xc
 1741 0626 43       		.byte	0x43
 1742 0627 31060000 		.4byte	0x631
 1743 062b 02       		.byte	0x2
 1744 062c 23       		.byte	0x23
 1745 062d 0C       		.uleb128 0xc
 1746 062e 00       		.byte	0
 1747 062f 14       		.uleb128 0x14
 1748 0630 01       		.byte	0x1
 1749 0631 09       		.uleb128 0x9
 1750 0632 04       		.byte	0x4
 1751 0633 2F060000 		.4byte	0x62f
 1752 0637 15       		.uleb128 0x15
 1753 0638 CB030000 		.4byte	.LASF127
 1754 063c 01       		.byte	0x1
 1755 063d 0001     		.2byte	0x100
 1756 063f 01       		.byte	0x1
 1757 0640 01       		.byte	0x1
 1758 0641 50060000 		.4byte	0x650
 1759 0645 16       		.uleb128 0x16
 1760 0646 6D00     		.ascii	"m\000"
 1761 0648 01       		.byte	0x1
 1762 0649 0101     		.2byte	0x101
 1763 064b F3000000 		.4byte	0xf3
 1764 064f 00       		.byte	0
 1765 0650 17       		.uleb128 0x17
 1766 0651 F3020000 		.4byte	.LASF89
 1767 0655 01       		.byte	0x1
 1768 0656 FB       		.byte	0xfb
 1769 0657 01       		.byte	0x1
 1770 0658 00000000 		.4byte	.LFB16
 1771 065c 08000000 		.4byte	.LFE16
 1772 0660 02       		.byte	0x2
 1773 0661 7D       		.byte	0x7d
 1774 0662 00       		.sleb128 0
 1775 0663 01       		.byte	0x1
 1776 0664 7A060000 		.4byte	0x67a
 1777 0668 18       		.uleb128 0x18
 1778 0669 08000000 		.4byte	.LVL0
 1779 066d 01       		.byte	0x1
 1780 066e 490F0000 		.4byte	0xf49
 1781 0672 19       		.uleb128 0x19
 1782 0673 01       		.byte	0x1
 1783 0674 50       		.byte	0x50
 1784 0675 02       		.byte	0x2
 1785 0676 09       		.byte	0x9
 1786 0677 FF       		.byte	0xff
 1787 0678 00       		.byte	0
 1788 0679 00       		.byte	0
 1789 067a 17       		.uleb128 0x17
 1790 067b 08000000 		.4byte	.LASF90
 1791 067f 01       		.byte	0x1
 1792 0680 84       		.byte	0x84
 1793 0681 01       		.byte	0x1
 1794 0682 00000000 		.4byte	.LFB12
 1795 0686 08000000 		.4byte	.LFE12
 1796 068a 02       		.byte	0x2
ARM GAS  /tmp/ccJsjeCt.s 			page 33


 1797 068b 7D       		.byte	0x7d
 1798 068c 00       		.sleb128 0
 1799 068d 01       		.byte	0x1
 1800 068e A4060000 		.4byte	0x6a4
 1801 0692 18       		.uleb128 0x18
 1802 0693 08000000 		.4byte	.LVL1
 1803 0697 01       		.byte	0x1
 1804 0698 490F0000 		.4byte	0xf49
 1805 069c 19       		.uleb128 0x19
 1806 069d 01       		.byte	0x1
 1807 069e 50       		.byte	0x50
 1808 069f 02       		.byte	0x2
 1809 06a0 09       		.byte	0x9
 1810 06a1 FF       		.byte	0xff
 1811 06a2 00       		.byte	0
 1812 06a3 00       		.byte	0
 1813 06a4 17       		.uleb128 0x17
 1814 06a5 C9020000 		.4byte	.LASF91
 1815 06a9 01       		.byte	0x1
 1816 06aa 4F       		.byte	0x4f
 1817 06ab 01       		.byte	0x1
 1818 06ac 00000000 		.4byte	.LFB7
 1819 06b0 08000000 		.4byte	.LFE7
 1820 06b4 02       		.byte	0x2
 1821 06b5 7D       		.byte	0x7d
 1822 06b6 00       		.sleb128 0
 1823 06b7 01       		.byte	0x1
 1824 06b8 CE060000 		.4byte	0x6ce
 1825 06bc 18       		.uleb128 0x18
 1826 06bd 08000000 		.4byte	.LVL2
 1827 06c1 01       		.byte	0x1
 1828 06c2 490F0000 		.4byte	0xf49
 1829 06c6 19       		.uleb128 0x19
 1830 06c7 01       		.byte	0x1
 1831 06c8 50       		.byte	0x50
 1832 06c9 02       		.byte	0x2
 1833 06ca 09       		.byte	0x9
 1834 06cb FF       		.byte	0xff
 1835 06cc 00       		.byte	0
 1836 06cd 00       		.byte	0
 1837 06ce 1A       		.uleb128 0x1a
 1838 06cf 84000000 		.4byte	.LASF92
 1839 06d3 01       		.byte	0x1
 1840 06d4 99       		.byte	0x99
 1841 06d5 01       		.byte	0x1
 1842 06d6 00000000 		.4byte	.LFB15
 1843 06da 54020000 		.4byte	.LFE15
 1844 06de 00000000 		.4byte	.LLST0
 1845 06e2 01       		.byte	0x1
 1846 06e3 880A0000 		.4byte	0xa88
 1847 06e7 1B       		.uleb128 0x1b
 1848 06e8 6D00     		.ascii	"m\000"
 1849 06ea 01       		.byte	0x1
 1850 06eb 9A       		.byte	0x9a
 1851 06ec F3000000 		.4byte	0xf3
 1852 06f0 2D000000 		.4byte	.LLST1
 1853 06f4 1C       		.uleb128 0x1c
ARM GAS  /tmp/ccJsjeCt.s 			page 34


 1854 06f5 656C3100 		.ascii	"el1\000"
 1855 06f9 01       		.byte	0x1
 1856 06fa 9B       		.byte	0x9b
 1857 06fb E3040000 		.4byte	0x4e3
 1858 06ff 02       		.byte	0x2
 1859 0700 91       		.byte	0x91
 1860 0701 48       		.sleb128 -56
 1861 0702 1C       		.uleb128 0x1c
 1862 0703 656C3200 		.ascii	"el2\000"
 1863 0707 01       		.byte	0x1
 1864 0708 9B       		.byte	0x9b
 1865 0709 E3040000 		.4byte	0x4e3
 1866 070d 02       		.byte	0x2
 1867 070e 91       		.byte	0x91
 1868 070f 58       		.sleb128 -40
 1869 0710 1D       		.uleb128 0x1d
 1870 0711 F9000000 		.4byte	.LASF93
 1871 0715 01       		.byte	0x1
 1872 0716 9C       		.byte	0x9c
 1873 0717 09010000 		.4byte	0x109
 1874 071b E0000000 		.4byte	.LLST2
 1875 071f 1E       		.uleb128 0x1e
 1876 0720 0C000000 		.4byte	.LVL3
 1877 0724 610F0000 		.4byte	0xf61
 1878 0728 32070000 		.4byte	0x732
 1879 072c 19       		.uleb128 0x19
 1880 072d 01       		.byte	0x1
 1881 072e 50       		.byte	0x50
 1882 072f 01       		.byte	0x1
 1883 0730 35       		.byte	0x35
 1884 0731 00       		.byte	0
 1885 0732 1E       		.uleb128 0x1e
 1886 0733 14000000 		.4byte	.LVL4
 1887 0737 790F0000 		.4byte	0xf79
 1888 073b 46070000 		.4byte	0x746
 1889 073f 19       		.uleb128 0x19
 1890 0740 01       		.byte	0x1
 1891 0741 50       		.byte	0x50
 1892 0742 02       		.byte	0x2
 1893 0743 09       		.byte	0x9
 1894 0744 FF       		.byte	0xff
 1895 0745 00       		.byte	0
 1896 0746 1E       		.uleb128 0x1e
 1897 0747 20000000 		.4byte	.LVL7
 1898 074b 910F0000 		.4byte	0xf91
 1899 074f 59070000 		.4byte	0x759
 1900 0753 19       		.uleb128 0x19
 1901 0754 01       		.byte	0x1
 1902 0755 50       		.byte	0x50
 1903 0756 01       		.byte	0x1
 1904 0757 31       		.byte	0x31
 1905 0758 00       		.byte	0
 1906 0759 1E       		.uleb128 0x1e
 1907 075a 30000000 		.4byte	.LVL8
 1908 075e 790F0000 		.4byte	0xf79
 1909 0762 6D070000 		.4byte	0x76d
 1910 0766 19       		.uleb128 0x19
ARM GAS  /tmp/ccJsjeCt.s 			page 35


 1911 0767 01       		.byte	0x1
 1912 0768 50       		.byte	0x50
 1913 0769 02       		.byte	0x2
 1914 076a 09       		.byte	0x9
 1915 076b FF       		.byte	0xff
 1916 076c 00       		.byte	0
 1917 076d 1E       		.uleb128 0x1e
 1918 076e 3C000000 		.4byte	.LVL10
 1919 0772 910F0000 		.4byte	0xf91
 1920 0776 80070000 		.4byte	0x780
 1921 077a 19       		.uleb128 0x19
 1922 077b 01       		.byte	0x1
 1923 077c 50       		.byte	0x50
 1924 077d 01       		.byte	0x1
 1925 077e 32       		.byte	0x32
 1926 077f 00       		.byte	0
 1927 0780 1E       		.uleb128 0x1e
 1928 0781 48000000 		.4byte	.LVL11
 1929 0785 490F0000 		.4byte	0xf49
 1930 0789 94070000 		.4byte	0x794
 1931 078d 19       		.uleb128 0x19
 1932 078e 01       		.byte	0x1
 1933 078f 50       		.byte	0x50
 1934 0790 02       		.byte	0x2
 1935 0791 09       		.byte	0x9
 1936 0792 FF       		.byte	0xff
 1937 0793 00       		.byte	0
 1938 0794 1E       		.uleb128 0x1e
 1939 0795 56000000 		.4byte	.LVL13
 1940 0799 910F0000 		.4byte	0xf91
 1941 079d A7070000 		.4byte	0x7a7
 1942 07a1 19       		.uleb128 0x19
 1943 07a2 01       		.byte	0x1
 1944 07a3 50       		.byte	0x50
 1945 07a4 01       		.byte	0x1
 1946 07a5 33       		.byte	0x33
 1947 07a6 00       		.byte	0
 1948 07a7 1F       		.uleb128 0x1f
 1949 07a8 64000000 		.4byte	.LVL14
 1950 07ac AE0F0000 		.4byte	0xfae
 1951 07b0 1E       		.uleb128 0x1e
 1952 07b1 80000000 		.4byte	.LVL16
 1953 07b5 BC0F0000 		.4byte	0xfbc
 1954 07b9 CE070000 		.4byte	0x7ce
 1955 07bd 19       		.uleb128 0x19
 1956 07be 01       		.byte	0x1
 1957 07bf 53       		.byte	0x53
 1958 07c0 05       		.byte	0x5
 1959 07c1 03       		.byte	0x3
 1960 07c2 00000000 		.4byte	thread1
 1961 07c6 19       		.uleb128 0x19
 1962 07c7 01       		.byte	0x1
 1963 07c8 51       		.byte	0x51
 1964 07c9 03       		.byte	0x3
 1965 07ca 0A       		.byte	0xa
 1966 07cb 3001     		.2byte	0x130
 1967 07cd 00       		.byte	0
ARM GAS  /tmp/ccJsjeCt.s 			page 36


 1968 07ce 1E       		.uleb128 0x1e
 1969 07cf 8A000000 		.4byte	.LVL17
 1970 07d3 790F0000 		.4byte	0xf79
 1971 07d7 E2070000 		.4byte	0x7e2
 1972 07db 19       		.uleb128 0x19
 1973 07dc 01       		.byte	0x1
 1974 07dd 50       		.byte	0x50
 1975 07de 02       		.byte	0x2
 1976 07df 09       		.byte	0x9
 1977 07e0 FF       		.byte	0xff
 1978 07e1 00       		.byte	0
 1979 07e2 1E       		.uleb128 0x1e
 1980 07e3 9A000000 		.4byte	.LVL21
 1981 07e7 E90F0000 		.4byte	0xfe9
 1982 07eb 01080000 		.4byte	0x801
 1983 07ef 19       		.uleb128 0x19
 1984 07f0 01       		.byte	0x1
 1985 07f1 52       		.byte	0x52
 1986 07f2 02       		.byte	0x2
 1987 07f3 74       		.byte	0x74
 1988 07f4 37       		.sleb128 55
 1989 07f5 19       		.uleb128 0x19
 1990 07f6 01       		.byte	0x1
 1991 07f7 51       		.byte	0x51
 1992 07f8 02       		.byte	0x2
 1993 07f9 74       		.byte	0x74
 1994 07fa 32       		.sleb128 50
 1995 07fb 19       		.uleb128 0x19
 1996 07fc 01       		.byte	0x1
 1997 07fd 50       		.byte	0x50
 1998 07fe 01       		.byte	0x1
 1999 07ff 34       		.byte	0x34
 2000 0800 00       		.byte	0
 2001 0801 1E       		.uleb128 0x1e
 2002 0802 AC000000 		.4byte	.LVL22
 2003 0806 910F0000 		.4byte	0xf91
 2004 080a 1C080000 		.4byte	0x81c
 2005 080e 19       		.uleb128 0x19
 2006 080f 01       		.byte	0x1
 2007 0810 51       		.byte	0x51
 2008 0811 04       		.byte	0x4
 2009 0812 79       		.byte	0x79
 2010 0813 00       		.sleb128 0
 2011 0814 31       		.byte	0x31
 2012 0815 29       		.byte	0x29
 2013 0816 19       		.uleb128 0x19
 2014 0817 01       		.byte	0x1
 2015 0818 50       		.byte	0x50
 2016 0819 01       		.byte	0x1
 2017 081a 35       		.byte	0x35
 2018 081b 00       		.byte	0
 2019 081c 1E       		.uleb128 0x1e
 2020 081d B8000000 		.4byte	.LVL23
 2021 0821 490F0000 		.4byte	0xf49
 2022 0825 30080000 		.4byte	0x830
 2023 0829 19       		.uleb128 0x19
 2024 082a 01       		.byte	0x1
ARM GAS  /tmp/ccJsjeCt.s 			page 37


 2025 082b 50       		.byte	0x50
 2026 082c 02       		.byte	0x2
 2027 082d 09       		.byte	0x9
 2028 082e FF       		.byte	0xff
 2029 082f 00       		.byte	0
 2030 0830 1E       		.uleb128 0x1e
 2031 0831 C6000000 		.4byte	.LVL25
 2032 0835 910F0000 		.4byte	0xf91
 2033 0839 43080000 		.4byte	0x843
 2034 083d 19       		.uleb128 0x19
 2035 083e 01       		.byte	0x1
 2036 083f 50       		.byte	0x50
 2037 0840 01       		.byte	0x1
 2038 0841 36       		.byte	0x36
 2039 0842 00       		.byte	0
 2040 0843 1F       		.uleb128 0x1f
 2041 0844 CE000000 		.4byte	.LVL26
 2042 0848 0B100000 		.4byte	0x100b
 2043 084c 1E       		.uleb128 0x1e
 2044 084d D4000000 		.4byte	.LVL27
 2045 0851 610F0000 		.4byte	0xf61
 2046 0855 5F080000 		.4byte	0x85f
 2047 0859 19       		.uleb128 0x19
 2048 085a 01       		.byte	0x1
 2049 085b 50       		.byte	0x50
 2050 085c 01       		.byte	0x1
 2051 085d 35       		.byte	0x35
 2052 085e 00       		.byte	0
 2053 085f 1E       		.uleb128 0x1e
 2054 0860 DC000000 		.4byte	.LVL28
 2055 0864 15100000 		.4byte	0x1015
 2056 0868 73080000 		.4byte	0x873
 2057 086c 19       		.uleb128 0x19
 2058 086d 01       		.byte	0x1
 2059 086e 50       		.byte	0x50
 2060 086f 02       		.byte	0x2
 2061 0870 09       		.byte	0x9
 2062 0871 FF       		.byte	0xff
 2063 0872 00       		.byte	0
 2064 0873 1E       		.uleb128 0x1e
 2065 0874 EE000000 		.4byte	.LVL30
 2066 0878 910F0000 		.4byte	0xf91
 2067 087c 86080000 		.4byte	0x886
 2068 0880 19       		.uleb128 0x19
 2069 0881 01       		.byte	0x1
 2070 0882 50       		.byte	0x50
 2071 0883 01       		.byte	0x1
 2072 0884 37       		.byte	0x37
 2073 0885 00       		.byte	0
 2074 0886 1E       		.uleb128 0x1e
 2075 0887 FA000000 		.4byte	.LVL31
 2076 088b 490F0000 		.4byte	0xf49
 2077 088f 9A080000 		.4byte	0x89a
 2078 0893 19       		.uleb128 0x19
 2079 0894 01       		.byte	0x1
 2080 0895 50       		.byte	0x50
 2081 0896 02       		.byte	0x2
ARM GAS  /tmp/ccJsjeCt.s 			page 38


 2082 0897 09       		.byte	0x9
 2083 0898 FF       		.byte	0xff
 2084 0899 00       		.byte	0
 2085 089a 1E       		.uleb128 0x1e
 2086 089b 08010000 		.4byte	.LVL33
 2087 089f 910F0000 		.4byte	0xf91
 2088 08a3 AD080000 		.4byte	0x8ad
 2089 08a7 19       		.uleb128 0x19
 2090 08a8 01       		.byte	0x1
 2091 08a9 50       		.byte	0x50
 2092 08aa 01       		.byte	0x1
 2093 08ab 38       		.byte	0x38
 2094 08ac 00       		.byte	0
 2095 08ad 1F       		.uleb128 0x1f
 2096 08ae 10010000 		.4byte	.LVL34
 2097 08b2 AE0F0000 		.4byte	0xfae
 2098 08b6 1E       		.uleb128 0x1e
 2099 08b7 26010000 		.4byte	.LVL36
 2100 08bb BC0F0000 		.4byte	0xfbc
 2101 08bf DB080000 		.4byte	0x8db
 2102 08c3 19       		.uleb128 0x19
 2103 08c4 01       		.byte	0x1
 2104 08c5 53       		.byte	0x53
 2105 08c6 05       		.byte	0x5
 2106 08c7 03       		.byte	0x3
 2107 08c8 00000000 		.4byte	thread1
 2108 08cc 19       		.uleb128 0x19
 2109 08cd 01       		.byte	0x1
 2110 08ce 51       		.byte	0x51
 2111 08cf 03       		.byte	0x3
 2112 08d0 0A       		.byte	0xa
 2113 08d1 3001     		.2byte	0x130
 2114 08d3 19       		.uleb128 0x19
 2115 08d4 01       		.byte	0x1
 2116 08d5 50       		.byte	0x50
 2117 08d6 03       		.byte	0x3
 2118 08d7 91       		.byte	0x91
 2119 08d8 44       		.sleb128 -60
 2120 08d9 06       		.byte	0x6
 2121 08da 00       		.byte	0
 2122 08db 1E       		.uleb128 0x1e
 2123 08dc 30010000 		.4byte	.LVL37
 2124 08e0 15100000 		.4byte	0x1015
 2125 08e4 EF080000 		.4byte	0x8ef
 2126 08e8 19       		.uleb128 0x19
 2127 08e9 01       		.byte	0x1
 2128 08ea 50       		.byte	0x50
 2129 08eb 02       		.byte	0x2
 2130 08ec 09       		.byte	0x9
 2131 08ed FF       		.byte	0xff
 2132 08ee 00       		.byte	0
 2133 08ef 1E       		.uleb128 0x1e
 2134 08f0 40010000 		.4byte	.LVL41
 2135 08f4 E90F0000 		.4byte	0xfe9
 2136 08f8 0E090000 		.4byte	0x90e
 2137 08fc 19       		.uleb128 0x19
 2138 08fd 01       		.byte	0x1
ARM GAS  /tmp/ccJsjeCt.s 			page 39


 2139 08fe 52       		.byte	0x52
 2140 08ff 02       		.byte	0x2
 2141 0900 74       		.byte	0x74
 2142 0901 37       		.sleb128 55
 2143 0902 19       		.uleb128 0x19
 2144 0903 01       		.byte	0x1
 2145 0904 51       		.byte	0x51
 2146 0905 02       		.byte	0x2
 2147 0906 74       		.byte	0x74
 2148 0907 32       		.sleb128 50
 2149 0908 19       		.uleb128 0x19
 2150 0909 01       		.byte	0x1
 2151 090a 50       		.byte	0x50
 2152 090b 01       		.byte	0x1
 2153 090c 39       		.byte	0x39
 2154 090d 00       		.byte	0
 2155 090e 1E       		.uleb128 0x1e
 2156 090f 58010000 		.4byte	.LVL42
 2157 0913 910F0000 		.4byte	0xf91
 2158 0917 29090000 		.4byte	0x929
 2159 091b 19       		.uleb128 0x19
 2160 091c 01       		.byte	0x1
 2161 091d 51       		.byte	0x51
 2162 091e 04       		.byte	0x4
 2163 091f 79       		.byte	0x79
 2164 0920 00       		.sleb128 0
 2165 0921 31       		.byte	0x31
 2166 0922 29       		.byte	0x29
 2167 0923 19       		.uleb128 0x19
 2168 0924 01       		.byte	0x1
 2169 0925 50       		.byte	0x50
 2170 0926 01       		.byte	0x1
 2171 0927 3A       		.byte	0x3a
 2172 0928 00       		.byte	0
 2173 0929 1E       		.uleb128 0x1e
 2174 092a 66010000 		.4byte	.LVL43
 2175 092e 490F0000 		.4byte	0xf49
 2176 0932 3D090000 		.4byte	0x93d
 2177 0936 19       		.uleb128 0x19
 2178 0937 01       		.byte	0x1
 2179 0938 50       		.byte	0x50
 2180 0939 02       		.byte	0x2
 2181 093a 09       		.byte	0x9
 2182 093b FF       		.byte	0xff
 2183 093c 00       		.byte	0
 2184 093d 1E       		.uleb128 0x1e
 2185 093e 74010000 		.4byte	.LVL45
 2186 0942 910F0000 		.4byte	0xf91
 2187 0946 50090000 		.4byte	0x950
 2188 094a 19       		.uleb128 0x19
 2189 094b 01       		.byte	0x1
 2190 094c 50       		.byte	0x50
 2191 094d 01       		.byte	0x1
 2192 094e 3B       		.byte	0x3b
 2193 094f 00       		.byte	0
 2194 0950 1F       		.uleb128 0x1f
 2195 0951 84010000 		.4byte	.LVL47
ARM GAS  /tmp/ccJsjeCt.s 			page 40


 2196 0955 0B100000 		.4byte	0x100b
 2197 0959 1E       		.uleb128 0x1e
 2198 095a 94010000 		.4byte	.LVL48
 2199 095e 2D100000 		.4byte	0x102d
 2200 0962 78090000 		.4byte	0x978
 2201 0966 19       		.uleb128 0x19
 2202 0967 01       		.byte	0x1
 2203 0968 52       		.byte	0x52
 2204 0969 01       		.byte	0x1
 2205 096a 31       		.byte	0x31
 2206 096b 19       		.uleb128 0x19
 2207 096c 01       		.byte	0x1
 2208 096d 51       		.byte	0x51
 2209 096e 02       		.byte	0x2
 2210 096f 91       		.byte	0x91
 2211 0970 48       		.sleb128 -56
 2212 0971 19       		.uleb128 0x19
 2213 0972 01       		.byte	0x1
 2214 0973 50       		.byte	0x50
 2215 0974 02       		.byte	0x2
 2216 0975 79       		.byte	0x79
 2217 0976 00       		.sleb128 0
 2218 0977 00       		.byte	0
 2219 0978 1E       		.uleb128 0x1e
 2220 0979 9E010000 		.4byte	.LVL49
 2221 097d 2D100000 		.4byte	0x102d
 2222 0981 97090000 		.4byte	0x997
 2223 0985 19       		.uleb128 0x19
 2224 0986 01       		.byte	0x1
 2225 0987 52       		.byte	0x52
 2226 0988 01       		.byte	0x1
 2227 0989 34       		.byte	0x34
 2228 098a 19       		.uleb128 0x19
 2229 098b 01       		.byte	0x1
 2230 098c 51       		.byte	0x51
 2231 098d 02       		.byte	0x2
 2232 098e 91       		.byte	0x91
 2233 098f 58       		.sleb128 -40
 2234 0990 19       		.uleb128 0x19
 2235 0991 01       		.byte	0x1
 2236 0992 50       		.byte	0x50
 2237 0993 02       		.byte	0x2
 2238 0994 74       		.byte	0x74
 2239 0995 00       		.sleb128 0
 2240 0996 00       		.byte	0
 2241 0997 1F       		.uleb128 0x1f
 2242 0998 A2010000 		.4byte	.LVL50
 2243 099c AE0F0000 		.4byte	0xfae
 2244 09a0 1E       		.uleb128 0x1e
 2245 09a1 BA010000 		.4byte	.LVL52
 2246 09a5 BC0F0000 		.4byte	0xfbc
 2247 09a9 CF090000 		.4byte	0x9cf
 2248 09ad 19       		.uleb128 0x19
 2249 09ae 01       		.byte	0x1
 2250 09af 53       		.byte	0x53
 2251 09b0 05       		.byte	0x5
 2252 09b1 03       		.byte	0x3
ARM GAS  /tmp/ccJsjeCt.s 			page 41


 2253 09b2 00000000 		.4byte	thread2
 2254 09b6 19       		.uleb128 0x19
 2255 09b7 01       		.byte	0x1
 2256 09b8 51       		.byte	0x51
 2257 09b9 03       		.byte	0x3
 2258 09ba 0A       		.byte	0xa
 2259 09bb 3001     		.2byte	0x130
 2260 09bd 19       		.uleb128 0x19
 2261 09be 01       		.byte	0x1
 2262 09bf 50       		.byte	0x50
 2263 09c0 03       		.byte	0x3
 2264 09c1 91       		.byte	0x91
 2265 09c2 44       		.sleb128 -60
 2266 09c3 06       		.byte	0x6
 2267 09c4 19       		.uleb128 0x19
 2268 09c5 02       		.byte	0x2
 2269 09c6 7D       		.byte	0x7d
 2270 09c7 00       		.sleb128 0
 2271 09c8 05       		.byte	0x5
 2272 09c9 03       		.byte	0x3
 2273 09ca 00000000 		.4byte	.LC0
 2274 09ce 00       		.byte	0
 2275 09cf 1E       		.uleb128 0x1e
 2276 09d0 C2010000 		.4byte	.LVL53
 2277 09d4 51100000 		.4byte	0x1051
 2278 09d8 E2090000 		.4byte	0x9e2
 2279 09dc 19       		.uleb128 0x19
 2280 09dd 01       		.byte	0x1
 2281 09de 50       		.byte	0x50
 2282 09df 01       		.byte	0x1
 2283 09e0 35       		.byte	0x35
 2284 09e1 00       		.byte	0
 2285 09e2 1E       		.uleb128 0x1e
 2286 09e3 D0010000 		.4byte	.LVL55
 2287 09e7 E90F0000 		.4byte	0xfe9
 2288 09eb 010A0000 		.4byte	0xa01
 2289 09ef 19       		.uleb128 0x19
 2290 09f0 01       		.byte	0x1
 2291 09f1 52       		.byte	0x52
 2292 09f2 02       		.byte	0x2
 2293 09f3 75       		.byte	0x75
 2294 09f4 37       		.sleb128 55
 2295 09f5 19       		.uleb128 0x19
 2296 09f6 01       		.byte	0x1
 2297 09f7 51       		.byte	0x51
 2298 09f8 02       		.byte	0x2
 2299 09f9 75       		.byte	0x75
 2300 09fa 32       		.sleb128 50
 2301 09fb 19       		.uleb128 0x19
 2302 09fc 01       		.byte	0x1
 2303 09fd 50       		.byte	0x50
 2304 09fe 01       		.byte	0x1
 2305 09ff 3C       		.byte	0x3c
 2306 0a00 00       		.byte	0
 2307 0a01 1E       		.uleb128 0x1e
 2308 0a02 DE010000 		.4byte	.LVL56
 2309 0a06 490F0000 		.4byte	0xf49
ARM GAS  /tmp/ccJsjeCt.s 			page 42


 2310 0a0a 150A0000 		.4byte	0xa15
 2311 0a0e 19       		.uleb128 0x19
 2312 0a0f 01       		.byte	0x1
 2313 0a10 50       		.byte	0x50
 2314 0a11 02       		.byte	0x2
 2315 0a12 09       		.byte	0x9
 2316 0a13 FF       		.byte	0xff
 2317 0a14 00       		.byte	0
 2318 0a15 1E       		.uleb128 0x1e
 2319 0a16 EC010000 		.4byte	.LVL58
 2320 0a1a 910F0000 		.4byte	0xf91
 2321 0a1e 280A0000 		.4byte	0xa28
 2322 0a22 19       		.uleb128 0x19
 2323 0a23 01       		.byte	0x1
 2324 0a24 50       		.byte	0x50
 2325 0a25 01       		.byte	0x1
 2326 0a26 3D       		.byte	0x3d
 2327 0a27 00       		.byte	0
 2328 0a28 1F       		.uleb128 0x1f
 2329 0a29 F6010000 		.4byte	.LVL59
 2330 0a2d 0B100000 		.4byte	0x100b
 2331 0a31 1E       		.uleb128 0x1e
 2332 0a32 FE010000 		.4byte	.LVL60
 2333 0a36 69100000 		.4byte	0x1069
 2334 0a3a 4B0A0000 		.4byte	0xa4b
 2335 0a3e 19       		.uleb128 0x19
 2336 0a3f 01       		.byte	0x1
 2337 0a40 51       		.byte	0x51
 2338 0a41 02       		.byte	0x2
 2339 0a42 91       		.byte	0x91
 2340 0a43 48       		.sleb128 -56
 2341 0a44 19       		.uleb128 0x19
 2342 0a45 01       		.byte	0x1
 2343 0a46 50       		.byte	0x50
 2344 0a47 02       		.byte	0x2
 2345 0a48 79       		.byte	0x79
 2346 0a49 00       		.sleb128 0
 2347 0a4a 00       		.byte	0
 2348 0a4b 1E       		.uleb128 0x1e
 2349 0a4c 06020000 		.4byte	.LVL61
 2350 0a50 69100000 		.4byte	0x1069
 2351 0a54 650A0000 		.4byte	0xa65
 2352 0a58 19       		.uleb128 0x19
 2353 0a59 01       		.byte	0x1
 2354 0a5a 51       		.byte	0x51
 2355 0a5b 02       		.byte	0x2
 2356 0a5c 91       		.byte	0x91
 2357 0a5d 58       		.sleb128 -40
 2358 0a5e 19       		.uleb128 0x19
 2359 0a5f 01       		.byte	0x1
 2360 0a60 50       		.byte	0x50
 2361 0a61 02       		.byte	0x2
 2362 0a62 74       		.byte	0x74
 2363 0a63 00       		.sleb128 0
 2364 0a64 00       		.byte	0
 2365 0a65 1E       		.uleb128 0x1e
 2366 0a66 18020000 		.4byte	.LVL62
ARM GAS  /tmp/ccJsjeCt.s 			page 43


 2367 0a6a 910F0000 		.4byte	0xf91
 2368 0a6e 780A0000 		.4byte	0xa78
 2369 0a72 19       		.uleb128 0x19
 2370 0a73 01       		.byte	0x1
 2371 0a74 50       		.byte	0x50
 2372 0a75 01       		.byte	0x1
 2373 0a76 3E       		.byte	0x3e
 2374 0a77 00       		.byte	0
 2375 0a78 20       		.uleb128 0x20
 2376 0a79 2C020000 		.4byte	.LVL63
 2377 0a7d 910F0000 		.4byte	0xf91
 2378 0a81 19       		.uleb128 0x19
 2379 0a82 01       		.byte	0x1
 2380 0a83 50       		.byte	0x50
 2381 0a84 01       		.byte	0x1
 2382 0a85 3F       		.byte	0x3f
 2383 0a86 00       		.byte	0
 2384 0a87 00       		.byte	0
 2385 0a88 21       		.uleb128 0x21
 2386 0a89 20030000 		.4byte	.LASF94
 2387 0a8d 01       		.byte	0x1
 2388 0a8e 90       		.byte	0x90
 2389 0a8f 01       		.byte	0x1
 2390 0a90 DD000000 		.4byte	0xdd
 2391 0a94 00000000 		.4byte	.LFB14
 2392 0a98 28000000 		.4byte	.LFE14
 2393 0a9c 4A010000 		.4byte	.LLST3
 2394 0aa0 01       		.byte	0x1
 2395 0aa1 FB0A0000 		.4byte	0xafb
 2396 0aa5 22       		.uleb128 0x22
 2397 0aa6 7000     		.ascii	"p\000"
 2398 0aa8 01       		.byte	0x1
 2399 0aa9 90       		.byte	0x90
 2400 0aaa A7020000 		.4byte	0x2a7
 2401 0aae 6A010000 		.4byte	.LLST4
 2402 0ab2 1E       		.uleb128 0x1e
 2403 0ab3 10000000 		.4byte	.LVL66
 2404 0ab7 82100000 		.4byte	0x1082
 2405 0abb CE0A0000 		.4byte	0xace
 2406 0abf 19       		.uleb128 0x19
 2407 0ac0 01       		.byte	0x1
 2408 0ac1 51       		.byte	0x51
 2409 0ac2 01       		.byte	0x1
 2410 0ac3 30       		.byte	0x30
 2411 0ac4 19       		.uleb128 0x19
 2412 0ac5 01       		.byte	0x1
 2413 0ac6 50       		.byte	0x50
 2414 0ac7 05       		.byte	0x5
 2415 0ac8 03       		.byte	0x3
 2416 0ac9 00000000 		.4byte	.LANCHOR0
 2417 0acd 00       		.byte	0
 2418 0ace 1E       		.uleb128 0x1e
 2419 0acf 16000000 		.4byte	.LVL67
 2420 0ad3 9B100000 		.4byte	0x109b
 2421 0ad7 E20A0000 		.4byte	0xae2
 2422 0adb 19       		.uleb128 0x19
 2423 0adc 01       		.byte	0x1
ARM GAS  /tmp/ccJsjeCt.s 			page 44


 2424 0add 50       		.byte	0x50
 2425 0ade 02       		.byte	0x2
 2426 0adf 08       		.byte	0x8
 2427 0ae0 32       		.byte	0x32
 2428 0ae1 00       		.byte	0
 2429 0ae2 20       		.uleb128 0x20
 2430 0ae3 24000000 		.4byte	.LVL68
 2431 0ae7 82100000 		.4byte	0x1082
 2432 0aeb 19       		.uleb128 0x19
 2433 0aec 01       		.byte	0x1
 2434 0aed 51       		.byte	0x51
 2435 0aee 01       		.byte	0x1
 2436 0aef 30       		.byte	0x30
 2437 0af0 19       		.uleb128 0x19
 2438 0af1 01       		.byte	0x1
 2439 0af2 50       		.byte	0x50
 2440 0af3 05       		.byte	0x5
 2441 0af4 03       		.byte	0x3
 2442 0af5 00000000 		.4byte	.LANCHOR1
 2443 0af9 00       		.byte	0
 2444 0afa 00       		.byte	0
 2445 0afb 21       		.uleb128 0x21
 2446 0afc 18030000 		.4byte	.LASF95
 2447 0b00 01       		.byte	0x1
 2448 0b01 89       		.byte	0x89
 2449 0b02 01       		.byte	0x1
 2450 0b03 DD000000 		.4byte	0xdd
 2451 0b07 00000000 		.4byte	.LFB13
 2452 0b0b 16000000 		.4byte	.LFE13
 2453 0b0f 8B010000 		.4byte	.LLST5
 2454 0b13 01       		.byte	0x1
 2455 0b14 4F0B0000 		.4byte	0xb4f
 2456 0b18 22       		.uleb128 0x22
 2457 0b19 7000     		.ascii	"p\000"
 2458 0b1b 01       		.byte	0x1
 2459 0b1c 89       		.byte	0x89
 2460 0b1d A7020000 		.4byte	0x2a7
 2461 0b21 AB010000 		.4byte	.LLST6
 2462 0b25 1E       		.uleb128 0x1e
 2463 0b26 0A000000 		.4byte	.LVL71
 2464 0b2a 9B100000 		.4byte	0x109b
 2465 0b2e 390B0000 		.4byte	0xb39
 2466 0b32 19       		.uleb128 0x19
 2467 0b33 01       		.byte	0x1
 2468 0b34 50       		.byte	0x50
 2469 0b35 02       		.byte	0x2
 2470 0b36 08       		.byte	0x8
 2471 0b37 32       		.byte	0x32
 2472 0b38 00       		.byte	0
 2473 0b39 20       		.uleb128 0x20
 2474 0b3a 12000000 		.4byte	.LVL72
 2475 0b3e B0100000 		.4byte	0x10b0
 2476 0b42 19       		.uleb128 0x19
 2477 0b43 01       		.byte	0x1
 2478 0b44 51       		.byte	0x51
 2479 0b45 01       		.byte	0x1
 2480 0b46 31       		.byte	0x31
ARM GAS  /tmp/ccJsjeCt.s 			page 45


 2481 0b47 19       		.uleb128 0x19
 2482 0b48 01       		.byte	0x1
 2483 0b49 50       		.byte	0x50
 2484 0b4a 02       		.byte	0x2
 2485 0b4b 74       		.byte	0x74
 2486 0b4c 00       		.sleb128 0
 2487 0b4d 00       		.byte	0
 2488 0b4e 00       		.byte	0
 2489 0b4f 1A       		.uleb128 0x1a
 2490 0b50 85050000 		.4byte	.LASF96
 2491 0b54 01       		.byte	0x1
 2492 0b55 59       		.byte	0x59
 2493 0b56 01       		.byte	0x1
 2494 0b57 00000000 		.4byte	.LFB11
 2495 0b5b 88000000 		.4byte	.LFE11
 2496 0b5f C9010000 		.4byte	.LLST7
 2497 0b63 01       		.byte	0x1
 2498 0b64 640C0000 		.4byte	0xc64
 2499 0b68 1C       		.uleb128 0x1c
 2500 0b69 656C3100 		.ascii	"el1\000"
 2501 0b6d 01       		.byte	0x1
 2502 0b6e 5A       		.byte	0x5a
 2503 0b6f E3040000 		.4byte	0x4e3
 2504 0b73 02       		.byte	0x2
 2505 0b74 91       		.byte	0x91
 2506 0b75 58       		.sleb128 -40
 2507 0b76 1C       		.uleb128 0x1c
 2508 0b77 656C3200 		.ascii	"el2\000"
 2509 0b7b 01       		.byte	0x1
 2510 0b7c 5A       		.byte	0x5a
 2511 0b7d E3040000 		.4byte	0x4e3
 2512 0b81 02       		.byte	0x2
 2513 0b82 91       		.byte	0x91
 2514 0b83 68       		.sleb128 -24
 2515 0b84 1E       		.uleb128 0x1e
 2516 0b85 12000000 		.4byte	.LVL73
 2517 0b89 2D100000 		.4byte	0x102d
 2518 0b8d A30B0000 		.4byte	0xba3
 2519 0b91 19       		.uleb128 0x19
 2520 0b92 01       		.byte	0x1
 2521 0b93 52       		.byte	0x52
 2522 0b94 01       		.byte	0x1
 2523 0b95 31       		.byte	0x31
 2524 0b96 19       		.uleb128 0x19
 2525 0b97 01       		.byte	0x1
 2526 0b98 51       		.byte	0x51
 2527 0b99 02       		.byte	0x2
 2528 0b9a 7D       		.byte	0x7d
 2529 0b9b 00       		.sleb128 0
 2530 0b9c 19       		.uleb128 0x19
 2531 0b9d 01       		.byte	0x1
 2532 0b9e 50       		.byte	0x50
 2533 0b9f 02       		.byte	0x2
 2534 0ba0 74       		.byte	0x74
 2535 0ba1 00       		.sleb128 0
 2536 0ba2 00       		.byte	0
 2537 0ba3 1E       		.uleb128 0x1e
ARM GAS  /tmp/ccJsjeCt.s 			page 46


 2538 0ba4 1C000000 		.4byte	.LVL74
 2539 0ba8 2D100000 		.4byte	0x102d
 2540 0bac C20B0000 		.4byte	0xbc2
 2541 0bb0 19       		.uleb128 0x19
 2542 0bb1 01       		.byte	0x1
 2543 0bb2 52       		.byte	0x52
 2544 0bb3 01       		.byte	0x1
 2545 0bb4 32       		.byte	0x32
 2546 0bb5 19       		.uleb128 0x19
 2547 0bb6 01       		.byte	0x1
 2548 0bb7 51       		.byte	0x51
 2549 0bb8 02       		.byte	0x2
 2550 0bb9 91       		.byte	0x91
 2551 0bba 68       		.sleb128 -24
 2552 0bbb 19       		.uleb128 0x19
 2553 0bbc 01       		.byte	0x1
 2554 0bbd 50       		.byte	0x50
 2555 0bbe 02       		.byte	0x2
 2556 0bbf 74       		.byte	0x74
 2557 0bc0 00       		.sleb128 0
 2558 0bc1 00       		.byte	0
 2559 0bc2 1E       		.uleb128 0x1e
 2560 0bc3 2A000000 		.4byte	.LVL75
 2561 0bc7 910F0000 		.4byte	0xf91
 2562 0bcb D50B0000 		.4byte	0xbd5
 2563 0bcf 19       		.uleb128 0x19
 2564 0bd0 01       		.byte	0x1
 2565 0bd1 50       		.byte	0x50
 2566 0bd2 01       		.byte	0x1
 2567 0bd3 31       		.byte	0x31
 2568 0bd4 00       		.byte	0
 2569 0bd5 1E       		.uleb128 0x1e
 2570 0bd6 38000000 		.4byte	.LVL76
 2571 0bda 69100000 		.4byte	0x1069
 2572 0bde EF0B0000 		.4byte	0xbef
 2573 0be2 19       		.uleb128 0x19
 2574 0be3 01       		.byte	0x1
 2575 0be4 51       		.byte	0x51
 2576 0be5 02       		.byte	0x2
 2577 0be6 7D       		.byte	0x7d
 2578 0be7 00       		.sleb128 0
 2579 0be8 19       		.uleb128 0x19
 2580 0be9 01       		.byte	0x1
 2581 0bea 50       		.byte	0x50
 2582 0beb 02       		.byte	0x2
 2583 0bec 74       		.byte	0x74
 2584 0bed 00       		.sleb128 0
 2585 0bee 00       		.byte	0
 2586 0bef 1E       		.uleb128 0x1e
 2587 0bf0 46000000 		.4byte	.LVL77
 2588 0bf4 910F0000 		.4byte	0xf91
 2589 0bf8 020C0000 		.4byte	0xc02
 2590 0bfc 19       		.uleb128 0x19
 2591 0bfd 01       		.byte	0x1
 2592 0bfe 50       		.byte	0x50
 2593 0bff 01       		.byte	0x1
 2594 0c00 32       		.byte	0x32
ARM GAS  /tmp/ccJsjeCt.s 			page 47


 2595 0c01 00       		.byte	0
 2596 0c02 1E       		.uleb128 0x1e
 2597 0c03 52000000 		.4byte	.LVL78
 2598 0c07 69100000 		.4byte	0x1069
 2599 0c0b 1C0C0000 		.4byte	0xc1c
 2600 0c0f 19       		.uleb128 0x19
 2601 0c10 01       		.byte	0x1
 2602 0c11 51       		.byte	0x51
 2603 0c12 02       		.byte	0x2
 2604 0c13 91       		.byte	0x91
 2605 0c14 68       		.sleb128 -24
 2606 0c15 19       		.uleb128 0x19
 2607 0c16 01       		.byte	0x1
 2608 0c17 50       		.byte	0x50
 2609 0c18 02       		.byte	0x2
 2610 0c19 74       		.byte	0x74
 2611 0c1a 00       		.sleb128 0
 2612 0c1b 00       		.byte	0
 2613 0c1c 1E       		.uleb128 0x1e
 2614 0c1d 66000000 		.4byte	.LVL79
 2615 0c21 910F0000 		.4byte	0xf91
 2616 0c25 2F0C0000 		.4byte	0xc2f
 2617 0c29 19       		.uleb128 0x19
 2618 0c2a 01       		.byte	0x1
 2619 0c2b 50       		.byte	0x50
 2620 0c2c 01       		.byte	0x1
 2621 0c2d 33       		.byte	0x33
 2622 0c2e 00       		.byte	0
 2623 0c2f 1E       		.uleb128 0x1e
 2624 0c30 72000000 		.4byte	.LVL80
 2625 0c34 C9100000 		.4byte	0x10c9
 2626 0c38 4B0C0000 		.4byte	0xc4b
 2627 0c3c 19       		.uleb128 0x19
 2628 0c3d 01       		.byte	0x1
 2629 0c3e 51       		.byte	0x51
 2630 0c3f 01       		.byte	0x1
 2631 0c40 37       		.byte	0x37
 2632 0c41 19       		.uleb128 0x19
 2633 0c42 01       		.byte	0x1
 2634 0c43 50       		.byte	0x50
 2635 0c44 05       		.byte	0x5
 2636 0c45 03       		.byte	0x3
 2637 0c46 00000000 		.4byte	.LANCHOR2
 2638 0c4a 00       		.byte	0
 2639 0c4b 20       		.uleb128 0x20
 2640 0c4c 7A000000 		.4byte	.LVL81
 2641 0c50 ED100000 		.4byte	0x10ed
 2642 0c54 19       		.uleb128 0x19
 2643 0c55 01       		.byte	0x1
 2644 0c56 51       		.byte	0x51
 2645 0c57 05       		.byte	0x5
 2646 0c58 03       		.byte	0x3
 2647 0c59 04000000 		.4byte	.LC1
 2648 0c5d 19       		.uleb128 0x19
 2649 0c5e 01       		.byte	0x1
 2650 0c5f 50       		.byte	0x50
 2651 0c60 01       		.byte	0x1
ARM GAS  /tmp/ccJsjeCt.s 			page 48


 2652 0c61 34       		.byte	0x34
 2653 0c62 00       		.byte	0
 2654 0c63 00       		.byte	0
 2655 0c64 23       		.uleb128 0x23
 2656 0c65 683300   		.ascii	"h3\000"
 2657 0c68 01       		.byte	0x1
 2658 0c69 56       		.byte	0x56
 2659 0c6a 01       		.byte	0x1
 2660 0c6b 00000000 		.4byte	.LFB10
 2661 0c6f 06000000 		.4byte	.LFE10
 2662 0c73 02       		.byte	0x2
 2663 0c74 7D       		.byte	0x7d
 2664 0c75 00       		.sleb128 0
 2665 0c76 01       		.byte	0x1
 2666 0c77 9B0C0000 		.4byte	0xc9b
 2667 0c7b 22       		.uleb128 0x22
 2668 0c7c 696400   		.ascii	"id\000"
 2669 0c7f 01       		.byte	0x1
 2670 0c80 56       		.byte	0x56
 2671 0c81 E8000000 		.4byte	0xe8
 2672 0c85 F5010000 		.4byte	.LLST8
 2673 0c89 18       		.uleb128 0x18
 2674 0c8a 06000000 		.4byte	.LVL84
 2675 0c8e 01       		.byte	0x1
 2676 0c8f 10110000 		.4byte	0x1110
 2677 0c93 19       		.uleb128 0x19
 2678 0c94 01       		.byte	0x1
 2679 0c95 50       		.byte	0x50
 2680 0c96 02       		.byte	0x2
 2681 0c97 08       		.byte	0x8
 2682 0c98 43       		.byte	0x43
 2683 0c99 00       		.byte	0
 2684 0c9a 00       		.byte	0
 2685 0c9b 23       		.uleb128 0x23
 2686 0c9c 683200   		.ascii	"h2\000"
 2687 0c9f 01       		.byte	0x1
 2688 0ca0 55       		.byte	0x55
 2689 0ca1 01       		.byte	0x1
 2690 0ca2 00000000 		.4byte	.LFB9
 2691 0ca6 06000000 		.4byte	.LFE9
 2692 0caa 02       		.byte	0x2
 2693 0cab 7D       		.byte	0x7d
 2694 0cac 00       		.sleb128 0
 2695 0cad 01       		.byte	0x1
 2696 0cae D20C0000 		.4byte	0xcd2
 2697 0cb2 22       		.uleb128 0x22
 2698 0cb3 696400   		.ascii	"id\000"
 2699 0cb6 01       		.byte	0x1
 2700 0cb7 55       		.byte	0x55
 2701 0cb8 E8000000 		.4byte	0xe8
 2702 0cbc 16020000 		.4byte	.LLST9
 2703 0cc0 18       		.uleb128 0x18
 2704 0cc1 06000000 		.4byte	.LVL87
 2705 0cc5 01       		.byte	0x1
 2706 0cc6 10110000 		.4byte	0x1110
 2707 0cca 19       		.uleb128 0x19
 2708 0ccb 01       		.byte	0x1
ARM GAS  /tmp/ccJsjeCt.s 			page 49


 2709 0ccc 50       		.byte	0x50
 2710 0ccd 02       		.byte	0x2
 2711 0cce 08       		.byte	0x8
 2712 0ccf 42       		.byte	0x42
 2713 0cd0 00       		.byte	0
 2714 0cd1 00       		.byte	0
 2715 0cd2 23       		.uleb128 0x23
 2716 0cd3 683100   		.ascii	"h1\000"
 2717 0cd6 01       		.byte	0x1
 2718 0cd7 54       		.byte	0x54
 2719 0cd8 01       		.byte	0x1
 2720 0cd9 00000000 		.4byte	.LFB8
 2721 0cdd 06000000 		.4byte	.LFE8
 2722 0ce1 02       		.byte	0x2
 2723 0ce2 7D       		.byte	0x7d
 2724 0ce3 00       		.sleb128 0
 2725 0ce4 01       		.byte	0x1
 2726 0ce5 090D0000 		.4byte	0xd09
 2727 0ce9 22       		.uleb128 0x22
 2728 0cea 696400   		.ascii	"id\000"
 2729 0ced 01       		.byte	0x1
 2730 0cee 54       		.byte	0x54
 2731 0cef E8000000 		.4byte	0xe8
 2732 0cf3 37020000 		.4byte	.LLST10
 2733 0cf7 18       		.uleb128 0x18
 2734 0cf8 06000000 		.4byte	.LVL90
 2735 0cfc 01       		.byte	0x1
 2736 0cfd 10110000 		.4byte	0x1110
 2737 0d01 19       		.uleb128 0x19
 2738 0d02 01       		.byte	0x1
 2739 0d03 50       		.byte	0x50
 2740 0d04 02       		.byte	0x2
 2741 0d05 08       		.byte	0x8
 2742 0d06 41       		.byte	0x41
 2743 0d07 00       		.byte	0
 2744 0d08 00       		.byte	0
 2745 0d09 24       		.uleb128 0x24
 2746 0d0a 37060000 		.4byte	0x637
 2747 0d0e 00000000 		.4byte	.LFB17
 2748 0d12 AA000000 		.4byte	.LFE17
 2749 0d16 58020000 		.4byte	.LLST11
 2750 0d1a 01       		.byte	0x1
 2751 0d1b 440E0000 		.4byte	0xe44
 2752 0d1f 25       		.uleb128 0x25
 2753 0d20 45060000 		.4byte	0x645
 2754 0d24 78020000 		.4byte	.LLST12
 2755 0d28 26       		.uleb128 0x26
 2756 0d29 37060000 		.4byte	0x637
 2757 0d2d 56000000 		.4byte	.LBB4
 2758 0d31 00000000 		.4byte	.Ldebug_ranges0+0
 2759 0d35 01       		.byte	0x1
 2760 0d36 0001     		.2byte	0x100
 2761 0d38 CD0D0000 		.4byte	0xdcd
 2762 0d3c 27       		.uleb128 0x27
 2763 0d3d 18000000 		.4byte	.Ldebug_ranges0+0x18
 2764 0d41 25       		.uleb128 0x25
 2765 0d42 45060000 		.4byte	0x645
ARM GAS  /tmp/ccJsjeCt.s 			page 50


 2766 0d46 A1020000 		.4byte	.LLST13
 2767 0d4a 1E       		.uleb128 0x1e
 2768 0d4b 60000000 		.4byte	.LVL100
 2769 0d4f 24110000 		.4byte	0x1124
 2770 0d53 630D0000 		.4byte	0xd63
 2771 0d57 19       		.uleb128 0x19
 2772 0d58 01       		.byte	0x1
 2773 0d59 51       		.byte	0x51
 2774 0d5a 01       		.byte	0x1
 2775 0d5b 3A       		.byte	0x3a
 2776 0d5c 19       		.uleb128 0x19
 2777 0d5d 01       		.byte	0x1
 2778 0d5e 50       		.byte	0x50
 2779 0d5f 02       		.byte	0x2
 2780 0d60 09       		.byte	0x9
 2781 0d61 FF       		.byte	0xff
 2782 0d62 00       		.byte	0
 2783 0d63 1E       		.uleb128 0x1e
 2784 0d64 6E000000 		.4byte	.LVL102
 2785 0d68 910F0000 		.4byte	0xf91
 2786 0d6c 760D0000 		.4byte	0xd76
 2787 0d70 19       		.uleb128 0x19
 2788 0d71 01       		.byte	0x1
 2789 0d72 50       		.byte	0x50
 2790 0d73 01       		.byte	0x1
 2791 0d74 34       		.byte	0x34
 2792 0d75 00       		.byte	0
 2793 0d76 1E       		.uleb128 0x1e
 2794 0d77 7C000000 		.4byte	.LVL103
 2795 0d7b 41110000 		.4byte	0x1141
 2796 0d7f 8F0D0000 		.4byte	0xd8f
 2797 0d83 19       		.uleb128 0x19
 2798 0d84 01       		.byte	0x1
 2799 0d85 51       		.byte	0x51
 2800 0d86 01       		.byte	0x1
 2801 0d87 3A       		.byte	0x3a
 2802 0d88 19       		.uleb128 0x19
 2803 0d89 01       		.byte	0x1
 2804 0d8a 50       		.byte	0x50
 2805 0d8b 02       		.byte	0x2
 2806 0d8c 09       		.byte	0x9
 2807 0d8d FF       		.byte	0xff
 2808 0d8e 00       		.byte	0
 2809 0d8f 1E       		.uleb128 0x1e
 2810 0d90 8A000000 		.4byte	.LVL105
 2811 0d94 910F0000 		.4byte	0xf91
 2812 0d98 A20D0000 		.4byte	0xda2
 2813 0d9c 19       		.uleb128 0x19
 2814 0d9d 01       		.byte	0x1
 2815 0d9e 50       		.byte	0x50
 2816 0d9f 01       		.byte	0x1
 2817 0da0 35       		.byte	0x35
 2818 0da1 00       		.byte	0
 2819 0da2 1E       		.uleb128 0x1e
 2820 0da3 98000000 		.4byte	.LVL106
 2821 0da7 5E110000 		.4byte	0x115e
 2822 0dab BB0D0000 		.4byte	0xdbb
ARM GAS  /tmp/ccJsjeCt.s 			page 51


 2823 0daf 19       		.uleb128 0x19
 2824 0db0 01       		.byte	0x1
 2825 0db1 51       		.byte	0x51
 2826 0db2 01       		.byte	0x1
 2827 0db3 3A       		.byte	0x3a
 2828 0db4 19       		.uleb128 0x19
 2829 0db5 01       		.byte	0x1
 2830 0db6 50       		.byte	0x50
 2831 0db7 02       		.byte	0x2
 2832 0db8 09       		.byte	0x9
 2833 0db9 FF       		.byte	0xff
 2834 0dba 00       		.byte	0
 2835 0dbb 18       		.uleb128 0x18
 2836 0dbc AA000000 		.4byte	.LVL108
 2837 0dc0 01       		.byte	0x1
 2838 0dc1 910F0000 		.4byte	0xf91
 2839 0dc5 19       		.uleb128 0x19
 2840 0dc6 01       		.byte	0x1
 2841 0dc7 50       		.byte	0x50
 2842 0dc8 01       		.byte	0x1
 2843 0dc9 36       		.byte	0x36
 2844 0dca 00       		.byte	0
 2845 0dcb 00       		.byte	0
 2846 0dcc 00       		.byte	0
 2847 0dcd 1E       		.uleb128 0x1e
 2848 0dce 0C000000 		.4byte	.LVL91
 2849 0dd2 24110000 		.4byte	0x1124
 2850 0dd6 E60D0000 		.4byte	0xde6
 2851 0dda 19       		.uleb128 0x19
 2852 0ddb 01       		.byte	0x1
 2853 0ddc 51       		.byte	0x51
 2854 0ddd 01       		.byte	0x1
 2855 0dde 30       		.byte	0x30
 2856 0ddf 19       		.uleb128 0x19
 2857 0de0 01       		.byte	0x1
 2858 0de1 50       		.byte	0x50
 2859 0de2 02       		.byte	0x2
 2860 0de3 09       		.byte	0x9
 2861 0de4 FF       		.byte	0xff
 2862 0de5 00       		.byte	0
 2863 0de6 1E       		.uleb128 0x1e
 2864 0de7 1A000000 		.4byte	.LVL93
 2865 0deb 910F0000 		.4byte	0xf91
 2866 0def F90D0000 		.4byte	0xdf9
 2867 0df3 19       		.uleb128 0x19
 2868 0df4 01       		.byte	0x1
 2869 0df5 50       		.byte	0x50
 2870 0df6 01       		.byte	0x1
 2871 0df7 31       		.byte	0x31
 2872 0df8 00       		.byte	0
 2873 0df9 1E       		.uleb128 0x1e
 2874 0dfa 28000000 		.4byte	.LVL94
 2875 0dfe 41110000 		.4byte	0x1141
 2876 0e02 0D0E0000 		.4byte	0xe0d
 2877 0e06 19       		.uleb128 0x19
 2878 0e07 01       		.byte	0x1
 2879 0e08 50       		.byte	0x50
ARM GAS  /tmp/ccJsjeCt.s 			page 52


 2880 0e09 02       		.byte	0x2
 2881 0e0a 09       		.byte	0x9
 2882 0e0b FF       		.byte	0xff
 2883 0e0c 00       		.byte	0
 2884 0e0d 1E       		.uleb128 0x1e
 2885 0e0e 36000000 		.4byte	.LVL96
 2886 0e12 910F0000 		.4byte	0xf91
 2887 0e16 200E0000 		.4byte	0xe20
 2888 0e1a 19       		.uleb128 0x19
 2889 0e1b 01       		.byte	0x1
 2890 0e1c 50       		.byte	0x50
 2891 0e1d 01       		.byte	0x1
 2892 0e1e 32       		.byte	0x32
 2893 0e1f 00       		.byte	0
 2894 0e20 1E       		.uleb128 0x1e
 2895 0e21 44000000 		.4byte	.LVL97
 2896 0e25 5E110000 		.4byte	0x115e
 2897 0e29 340E0000 		.4byte	0xe34
 2898 0e2d 19       		.uleb128 0x19
 2899 0e2e 01       		.byte	0x1
 2900 0e2f 50       		.byte	0x50
 2901 0e30 02       		.byte	0x2
 2902 0e31 09       		.byte	0x9
 2903 0e32 FF       		.byte	0xff
 2904 0e33 00       		.byte	0
 2905 0e34 20       		.uleb128 0x20
 2906 0e35 52000000 		.4byte	.LVL99
 2907 0e39 910F0000 		.4byte	0xf91
 2908 0e3d 19       		.uleb128 0x19
 2909 0e3e 01       		.byte	0x1
 2910 0e3f 50       		.byte	0x50
 2911 0e40 01       		.byte	0x1
 2912 0e41 33       		.byte	0x33
 2913 0e42 00       		.byte	0
 2914 0e43 00       		.byte	0
 2915 0e44 1C       		.uleb128 0x1c
 2916 0e45 65733100 		.ascii	"es1\000"
 2917 0e49 01       		.byte	0x1
 2918 0e4a 3F       		.byte	0x3f
 2919 0e4b 54050000 		.4byte	0x554
 2920 0e4f 05       		.byte	0x5
 2921 0e50 03       		.byte	0x3
 2922 0e51 00000000 		.4byte	es1
 2923 0e55 1C       		.uleb128 0x1c
 2924 0e56 65733200 		.ascii	"es2\000"
 2925 0e5a 01       		.byte	0x1
 2926 0e5b 40       		.byte	0x40
 2927 0e5c 54050000 		.4byte	0x554
 2928 0e60 05       		.byte	0x5
 2929 0e61 03       		.byte	0x3
 2930 0e62 00000000 		.4byte	es2
 2931 0e66 28       		.uleb128 0x28
 2932 0e67 5F050000 		.4byte	0x55f
 2933 0e6b 760E0000 		.4byte	0xe76
 2934 0e6f 29       		.uleb128 0x29
 2935 0e70 5A030000 		.4byte	0x35a
 2936 0e74 02       		.byte	0x2
ARM GAS  /tmp/ccJsjeCt.s 			page 53


 2937 0e75 00       		.byte	0
 2938 0e76 2A       		.uleb128 0x2a
 2939 0e77 65040000 		.4byte	.LASF97
 2940 0e7b 01       		.byte	0x1
 2941 0e7c 57       		.byte	0x57
 2942 0e7d 870E0000 		.4byte	0xe87
 2943 0e81 05       		.byte	0x5
 2944 0e82 03       		.byte	0x3
 2945 0e83 00000000 		.4byte	evhndl
 2946 0e87 12       		.uleb128 0x12
 2947 0e88 660E0000 		.4byte	0xe66
 2948 0e8c 2B       		.uleb128 0x2b
 2949 0e8d 27000000 		.4byte	.LASF98
 2950 0e91 08       		.byte	0x8
 2951 0e92 D1       		.byte	0xd1
 2952 0e93 28040000 		.4byte	0x428
 2953 0e97 01       		.byte	0x1
 2954 0e98 01       		.byte	0x1
 2955 0e99 2B       		.uleb128 0x2b
 2956 0e9a 09050000 		.4byte	.LASF99
 2957 0e9e 09       		.byte	0x9
 2958 0e9f 68       		.byte	0x68
 2959 0ea0 90040000 		.4byte	0x490
 2960 0ea4 01       		.byte	0x1
 2961 0ea5 01       		.byte	0x1
 2962 0ea6 28       		.uleb128 0x28
 2963 0ea7 69020000 		.4byte	0x269
 2964 0eab B60E0000 		.4byte	0xeb6
 2965 0eaf 29       		.uleb128 0x29
 2966 0eb0 5A030000 		.4byte	0x35a
 2967 0eb4 04       		.byte	0x4
 2968 0eb5 00       		.byte	0
 2969 0eb6 2B       		.uleb128 0x2b
 2970 0eb7 07040000 		.4byte	.LASF100
 2971 0ebb 0C       		.byte	0xc
 2972 0ebc A9       		.byte	0xa9
 2973 0ebd A60E0000 		.4byte	0xea6
 2974 0ec1 01       		.byte	0x1
 2975 0ec2 01       		.byte	0x1
 2976 0ec3 28       		.uleb128 0x28
 2977 0ec4 A7020000 		.4byte	0x2a7
 2978 0ec8 CE0E0000 		.4byte	0xece
 2979 0ecc 2C       		.uleb128 0x2c
 2980 0ecd 00       		.byte	0
 2981 0ece 2D       		.uleb128 0x2d
 2982 0ecf 776100   		.ascii	"wa\000"
 2983 0ed2 0C       		.byte	0xc
 2984 0ed3 AB       		.byte	0xab
 2985 0ed4 DA0E0000 		.4byte	0xeda
 2986 0ed8 01       		.byte	0x1
 2987 0ed9 01       		.byte	0x1
 2988 0eda 12       		.uleb128 0x12
 2989 0edb C30E0000 		.4byte	0xec3
 2990 0edf 2E       		.uleb128 0x2e
 2991 0ee0 5C040000 		.4byte	.LASF101
 2992 0ee4 01       		.byte	0x1
 2993 0ee5 6F       		.byte	0x6f
ARM GAS  /tmp/ccJsjeCt.s 			page 54


 2994 0ee6 F10E0000 		.4byte	0xef1
 2995 0eea 01       		.byte	0x1
 2996 0eeb 05       		.byte	0x5
 2997 0eec 03       		.byte	0x3
 2998 0eed 00000000 		.4byte	testevt1
 2999 0ef1 12       		.uleb128 0x12
 3000 0ef2 EA050000 		.4byte	0x5ea
 3001 0ef6 2E       		.uleb128 0x2e
 3002 0ef7 27010000 		.4byte	.LASF102
 3003 0efb 01       		.byte	0x1
 3004 0efc E4       		.byte	0xe4
 3005 0efd F10E0000 		.4byte	0xef1
 3006 0f01 01       		.byte	0x1
 3007 0f02 05       		.byte	0x5
 3008 0f03 03       		.byte	0x3
 3009 0f04 00000000 		.4byte	testevt2
 3010 0f08 2F       		.uleb128 0x2f
 3011 0f09 3D010000 		.4byte	.LASF103
 3012 0f0d 01       		.byte	0x1
 3013 0f0e 1401     		.2byte	0x114
 3014 0f10 F10E0000 		.4byte	0xef1
 3015 0f14 01       		.byte	0x1
 3016 0f15 05       		.byte	0x5
 3017 0f16 03       		.byte	0x3
 3018 0f17 00000000 		.4byte	testevt3
 3019 0f1b 28       		.uleb128 0x28
 3020 0f1c 2B0F0000 		.4byte	0xf2b
 3021 0f20 2B0F0000 		.4byte	0xf2b
 3022 0f24 29       		.uleb128 0x29
 3023 0f25 5A030000 		.4byte	0x35a
 3024 0f29 03       		.byte	0x3
 3025 0f2a 00       		.byte	0
 3026 0f2b 09       		.uleb128 0x9
 3027 0f2c 04       		.byte	0x4
 3028 0f2d F10E0000 		.4byte	0xef1
 3029 0f31 2F       		.uleb128 0x2f
 3030 0f32 E4010000 		.4byte	.LASF104
 3031 0f36 01       		.byte	0x1
 3032 0f37 1F01     		.2byte	0x11f
 3033 0f39 440F0000 		.4byte	0xf44
 3034 0f3d 01       		.byte	0x1
 3035 0f3e 05       		.byte	0x5
 3036 0f3f 03       		.byte	0x3
 3037 0f40 00000000 		.4byte	patternevt
 3038 0f44 12       		.uleb128 0x12
 3039 0f45 1B0F0000 		.4byte	0xf1b
 3040 0f49 30       		.uleb128 0x30
 3041 0f4a 01       		.byte	0x1
 3042 0f4b C4010000 		.4byte	.LASF105
 3043 0f4f 0B       		.byte	0xb
 3044 0f50 AC       		.byte	0xac
 3045 0f51 01       		.byte	0x1
 3046 0f52 F3000000 		.4byte	0xf3
 3047 0f56 01       		.byte	0x1
 3048 0f57 610F0000 		.4byte	0xf61
 3049 0f5b 0E       		.uleb128 0xe
 3050 0f5c F3000000 		.4byte	0xf3
ARM GAS  /tmp/ccJsjeCt.s 			page 55


 3051 0f60 00       		.byte	0
 3052 0f61 30       		.uleb128 0x30
 3053 0f62 01       		.byte	0x1
 3054 0f63 51000000 		.4byte	.LASF106
 3055 0f67 0B       		.byte	0xb
 3056 0f68 AD       		.byte	0xad
 3057 0f69 01       		.byte	0x1
 3058 0f6a F3000000 		.4byte	0xf3
 3059 0f6e 01       		.byte	0x1
 3060 0f6f 790F0000 		.4byte	0xf79
 3061 0f73 0E       		.uleb128 0xe
 3062 0f74 F3000000 		.4byte	0xf3
 3063 0f78 00       		.byte	0
 3064 0f79 30       		.uleb128 0x30
 3065 0f7a 01       		.byte	0x1
 3066 0f7b B2030000 		.4byte	.LASF107
 3067 0f7f 0B       		.byte	0xb
 3068 0f80 B6       		.byte	0xb6
 3069 0f81 01       		.byte	0x1
 3070 0f82 F3000000 		.4byte	0xf3
 3071 0f86 01       		.byte	0x1
 3072 0f87 910F0000 		.4byte	0xf91
 3073 0f8b 0E       		.uleb128 0xe
 3074 0f8c F3000000 		.4byte	0xf3
 3075 0f90 00       		.byte	0
 3076 0f91 30       		.uleb128 0x30
 3077 0f92 01       		.byte	0x1
 3078 0f93 47050000 		.4byte	.LASF108
 3079 0f97 0C       		.byte	0xc
 3080 0f98 5C       		.byte	0x5c
 3081 0f99 01       		.byte	0x1
 3082 0f9a 9B000000 		.4byte	0x9b
 3083 0f9e 01       		.byte	0x1
 3084 0f9f AE0F0000 		.4byte	0xfae
 3085 0fa3 0E       		.uleb128 0xe
 3086 0fa4 3B000000 		.4byte	0x3b
 3087 0fa8 0E       		.uleb128 0xe
 3088 0fa9 9B000000 		.4byte	0x9b
 3089 0fad 00       		.byte	0
 3090 0fae 31       		.uleb128 0x31
 3091 0faf 01       		.byte	0x1
 3092 0fb0 76050000 		.4byte	.LASF128
 3093 0fb4 0C       		.byte	0xc
 3094 0fb5 61       		.byte	0x61
 3095 0fb6 01       		.byte	0x1
 3096 0fb7 09010000 		.4byte	0x109
 3097 0fbb 01       		.byte	0x1
 3098 0fbc 32       		.uleb128 0x32
 3099 0fbd 01       		.byte	0x1
 3100 0fbe AF020000 		.4byte	.LASF109
 3101 0fc2 06       		.byte	0x6
 3102 0fc3 6901     		.2byte	0x169
 3103 0fc5 01       		.byte	0x1
 3104 0fc6 69020000 		.4byte	0x269
 3105 0fca 01       		.byte	0x1
 3106 0fcb E90F0000 		.4byte	0xfe9
 3107 0fcf 0E       		.uleb128 0xe
ARM GAS  /tmp/ccJsjeCt.s 			page 56


 3108 0fd0 A7020000 		.4byte	0x2a7
 3109 0fd4 0E       		.uleb128 0xe
 3110 0fd5 30000000 		.4byte	0x30
 3111 0fd9 0E       		.uleb128 0xe
 3112 0fda D2000000 		.4byte	0xd2
 3113 0fde 0E       		.uleb128 0xe
 3114 0fdf C9050000 		.4byte	0x5c9
 3115 0fe3 0E       		.uleb128 0xe
 3116 0fe4 A7020000 		.4byte	0x2a7
 3117 0fe8 00       		.byte	0
 3118 0fe9 30       		.uleb128 0x30
 3119 0fea 01       		.byte	0x1
 3120 0feb 0E010000 		.4byte	.LASF110
 3121 0fef 0C       		.byte	0xc
 3122 0ff0 5E       		.byte	0x5e
 3123 0ff1 01       		.byte	0x1
 3124 0ff2 9B000000 		.4byte	0x9b
 3125 0ff6 01       		.byte	0x1
 3126 0ff7 0B100000 		.4byte	0x100b
 3127 0ffb 0E       		.uleb128 0xe
 3128 0ffc 3B000000 		.4byte	0x3b
 3129 1000 0E       		.uleb128 0xe
 3130 1001 09010000 		.4byte	0x109
 3131 1005 0E       		.uleb128 0xe
 3132 1006 09010000 		.4byte	0x109
 3133 100a 00       		.byte	0
 3134 100b 33       		.uleb128 0x33
 3135 100c 01       		.byte	0x1
 3136 100d FE020000 		.4byte	.LASF129
 3137 1011 0C       		.byte	0xc
 3138 1012 60       		.byte	0x60
 3139 1013 01       		.byte	0x1
 3140 1014 01       		.byte	0x1
 3141 1015 30       		.uleb128 0x30
 3142 1016 01       		.byte	0x1
 3143 1017 30010000 		.4byte	.LASF111
 3144 101b 0B       		.byte	0xb
 3145 101c B7       		.byte	0xb7
 3146 101d 01       		.byte	0x1
 3147 101e F3000000 		.4byte	0xf3
 3148 1022 01       		.byte	0x1
 3149 1023 2D100000 		.4byte	0x102d
 3150 1027 0E       		.uleb128 0xe
 3151 1028 F3000000 		.4byte	0xf3
 3152 102c 00       		.byte	0
 3153 102d 34       		.uleb128 0x34
 3154 102e 01       		.byte	0x1
 3155 102f 0F020000 		.4byte	.LASF113
 3156 1033 0B       		.byte	0xb
 3157 1034 A8       		.byte	0xa8
 3158 1035 01       		.byte	0x1
 3159 1036 01       		.byte	0x1
 3160 1037 4B100000 		.4byte	0x104b
 3161 103b 0E       		.uleb128 0xe
 3162 103c 4B100000 		.4byte	0x104b
 3163 1040 0E       		.uleb128 0xe
 3164 1041 33050000 		.4byte	0x533
ARM GAS  /tmp/ccJsjeCt.s 			page 57


 3165 1045 0E       		.uleb128 0xe
 3166 1046 F3000000 		.4byte	0xf3
 3167 104a 00       		.byte	0
 3168 104b 09       		.uleb128 0x9
 3169 104c 04       		.byte	0x4
 3170 104d 54050000 		.4byte	0x554
 3171 1051 30       		.uleb128 0x30
 3172 1052 01       		.byte	0x1
 3173 1053 CD040000 		.4byte	.LASF112
 3174 1057 0B       		.byte	0xb
 3175 1058 B8       		.byte	0xb8
 3176 1059 01       		.byte	0x1
 3177 105a F3000000 		.4byte	0xf3
 3178 105e 01       		.byte	0x1
 3179 105f 69100000 		.4byte	0x1069
 3180 1063 0E       		.uleb128 0xe
 3181 1064 F3000000 		.4byte	0xf3
 3182 1068 00       		.byte	0
 3183 1069 34       		.uleb128 0x34
 3184 106a 01       		.byte	0x1
 3185 106b 2F020000 		.4byte	.LASF114
 3186 106f 0B       		.byte	0xb
 3187 1070 AB       		.byte	0xab
 3188 1071 01       		.byte	0x1
 3189 1072 01       		.byte	0x1
 3190 1073 82100000 		.4byte	0x1082
 3191 1077 0E       		.uleb128 0xe
 3192 1078 4B100000 		.4byte	0x104b
 3193 107c 0E       		.uleb128 0xe
 3194 107d 33050000 		.4byte	0x533
 3195 1081 00       		.byte	0
 3196 1082 34       		.uleb128 0x34
 3197 1083 01       		.byte	0x1
 3198 1084 67010000 		.4byte	.LASF115
 3199 1088 0B       		.byte	0xb
 3200 1089 B2       		.byte	0xb2
 3201 108a 01       		.byte	0x1
 3202 108b 01       		.byte	0x1
 3203 108c 9B100000 		.4byte	0x109b
 3204 1090 0E       		.uleb128 0xe
 3205 1091 4B100000 		.4byte	0x104b
 3206 1095 0E       		.uleb128 0xe
 3207 1096 FE000000 		.4byte	0xfe
 3208 109a 00       		.byte	0
 3209 109b 35       		.uleb128 0x35
 3210 109c 01       		.byte	0x1
 3211 109d ED040000 		.4byte	.LASF116
 3212 10a1 06       		.byte	0x6
 3213 10a2 6E01     		.2byte	0x16e
 3214 10a4 01       		.byte	0x1
 3215 10a5 01       		.byte	0x1
 3216 10a6 B0100000 		.4byte	0x10b0
 3217 10aa 0E       		.uleb128 0xe
 3218 10ab 09010000 		.4byte	0x109
 3219 10af 00       		.byte	0
 3220 10b0 34       		.uleb128 0x34
 3221 10b1 01       		.byte	0x1
ARM GAS  /tmp/ccJsjeCt.s 			page 58


 3222 10b2 2E000000 		.4byte	.LASF117
 3223 10b6 0B       		.byte	0xb
 3224 10b7 B0       		.byte	0xb0
 3225 10b8 01       		.byte	0x1
 3226 10b9 01       		.byte	0x1
 3227 10ba C9100000 		.4byte	0x10c9
 3228 10be 0E       		.uleb128 0xe
 3229 10bf 69020000 		.4byte	0x269
 3230 10c3 0E       		.uleb128 0xe
 3231 10c4 F3000000 		.4byte	0xf3
 3232 10c8 00       		.byte	0
 3233 10c9 34       		.uleb128 0x34
 3234 10ca 01       		.byte	0x1
 3235 10cb E5020000 		.4byte	.LASF118
 3236 10cf 0B       		.byte	0xb
 3237 10d0 B4       		.byte	0xb4
 3238 10d1 01       		.byte	0x1
 3239 10d2 01       		.byte	0x1
 3240 10d3 E2100000 		.4byte	0x10e2
 3241 10d7 0E       		.uleb128 0xe
 3242 10d8 E2100000 		.4byte	0x10e2
 3243 10dc 0E       		.uleb128 0xe
 3244 10dd F3000000 		.4byte	0xf3
 3245 10e1 00       		.byte	0
 3246 10e2 09       		.uleb128 0x9
 3247 10e3 04       		.byte	0x4
 3248 10e4 E8100000 		.4byte	0x10e8
 3249 10e8 12       		.uleb128 0x12
 3250 10e9 5F050000 		.4byte	0x55f
 3251 10ed 30       		.uleb128 0x30
 3252 10ee 01       		.byte	0x1
 3253 10ef 41030000 		.4byte	.LASF119
 3254 10f3 0C       		.byte	0xc
 3255 10f4 5D       		.byte	0x5d
 3256 10f5 01       		.byte	0x1
 3257 10f6 9B000000 		.4byte	0x9b
 3258 10fa 01       		.byte	0x1
 3259 10fb 0A110000 		.4byte	0x110a
 3260 10ff 0E       		.uleb128 0xe
 3261 1100 3B000000 		.4byte	0x3b
 3262 1104 0E       		.uleb128 0xe
 3263 1105 0A110000 		.4byte	0x110a
 3264 1109 00       		.byte	0
 3265 110a 09       		.uleb128 0x9
 3266 110b 04       		.byte	0x4
 3267 110c BC050000 		.4byte	0x5bc
 3268 1110 34       		.uleb128 0x34
 3269 1111 01       		.byte	0x1
 3270 1112 D6000000 		.4byte	.LASF120
 3271 1116 0C       		.byte	0xc
 3272 1117 5A       		.byte	0x5a
 3273 1118 01       		.byte	0x1
 3274 1119 01       		.byte	0x1
 3275 111a 24110000 		.4byte	0x1124
 3276 111e 0E       		.uleb128 0xe
 3277 111f BC050000 		.4byte	0x5bc
 3278 1123 00       		.byte	0
ARM GAS  /tmp/ccJsjeCt.s 			page 59


 3279 1124 30       		.uleb128 0x30
 3280 1125 01       		.byte	0x1
 3281 1126 25050000 		.4byte	.LASF121
 3282 112a 0B       		.byte	0xb
 3283 112b BB       		.byte	0xbb
 3284 112c 01       		.byte	0x1
 3285 112d F3000000 		.4byte	0xf3
 3286 1131 01       		.byte	0x1
 3287 1132 41110000 		.4byte	0x1141
 3288 1136 0E       		.uleb128 0xe
 3289 1137 F3000000 		.4byte	0xf3
 3290 113b 0E       		.uleb128 0xe
 3291 113c 09010000 		.4byte	0x109
 3292 1140 00       		.byte	0
 3293 1141 30       		.uleb128 0x30
 3294 1142 01       		.byte	0x1
 3295 1143 69000000 		.4byte	.LASF122
 3296 1147 0B       		.byte	0xb
 3297 1148 BC       		.byte	0xbc
 3298 1149 01       		.byte	0x1
 3299 114a F3000000 		.4byte	0xf3
 3300 114e 01       		.byte	0x1
 3301 114f 5E110000 		.4byte	0x115e
 3302 1153 0E       		.uleb128 0xe
 3303 1154 F3000000 		.4byte	0xf3
 3304 1158 0E       		.uleb128 0xe
 3305 1159 09010000 		.4byte	0x109
 3306 115d 00       		.byte	0
 3307 115e 36       		.uleb128 0x36
 3308 115f 01       		.byte	0x1
 3309 1160 AB000000 		.4byte	.LASF123
 3310 1164 0B       		.byte	0xb
 3311 1165 BD       		.byte	0xbd
 3312 1166 01       		.byte	0x1
 3313 1167 F3000000 		.4byte	0xf3
 3314 116b 01       		.byte	0x1
 3315 116c 0E       		.uleb128 0xe
 3316 116d F3000000 		.4byte	0xf3
 3317 1171 0E       		.uleb128 0xe
 3318 1172 09010000 		.4byte	0x109
 3319 1176 00       		.byte	0
 3320 1177 00       		.byte	0
 3321              		.section	.debug_abbrev,"",%progbits
 3322              	.Ldebug_abbrev0:
 3323 0000 01       		.uleb128 0x1
 3324 0001 11       		.uleb128 0x11
 3325 0002 01       		.byte	0x1
 3326 0003 25       		.uleb128 0x25
 3327 0004 0E       		.uleb128 0xe
 3328 0005 13       		.uleb128 0x13
 3329 0006 0B       		.uleb128 0xb
 3330 0007 03       		.uleb128 0x3
 3331 0008 0E       		.uleb128 0xe
 3332 0009 1B       		.uleb128 0x1b
 3333 000a 0E       		.uleb128 0xe
 3334 000b 55       		.uleb128 0x55
 3335 000c 06       		.uleb128 0x6
ARM GAS  /tmp/ccJsjeCt.s 			page 60


 3336 000d 11       		.uleb128 0x11
 3337 000e 01       		.uleb128 0x1
 3338 000f 52       		.uleb128 0x52
 3339 0010 01       		.uleb128 0x1
 3340 0011 10       		.uleb128 0x10
 3341 0012 06       		.uleb128 0x6
 3342 0013 00       		.byte	0
 3343 0014 00       		.byte	0
 3344 0015 02       		.uleb128 0x2
 3345 0016 24       		.uleb128 0x24
 3346 0017 00       		.byte	0
 3347 0018 0B       		.uleb128 0xb
 3348 0019 0B       		.uleb128 0xb
 3349 001a 3E       		.uleb128 0x3e
 3350 001b 0B       		.uleb128 0xb
 3351 001c 03       		.uleb128 0x3
 3352 001d 08       		.uleb128 0x8
 3353 001e 00       		.byte	0
 3354 001f 00       		.byte	0
 3355 0020 03       		.uleb128 0x3
 3356 0021 16       		.uleb128 0x16
 3357 0022 00       		.byte	0
 3358 0023 03       		.uleb128 0x3
 3359 0024 0E       		.uleb128 0xe
 3360 0025 3A       		.uleb128 0x3a
 3361 0026 0B       		.uleb128 0xb
 3362 0027 3B       		.uleb128 0x3b
 3363 0028 0B       		.uleb128 0xb
 3364 0029 49       		.uleb128 0x49
 3365 002a 13       		.uleb128 0x13
 3366 002b 00       		.byte	0
 3367 002c 00       		.byte	0
 3368 002d 04       		.uleb128 0x4
 3369 002e 24       		.uleb128 0x24
 3370 002f 00       		.byte	0
 3371 0030 0B       		.uleb128 0xb
 3372 0031 0B       		.uleb128 0xb
 3373 0032 3E       		.uleb128 0x3e
 3374 0033 0B       		.uleb128 0xb
 3375 0034 03       		.uleb128 0x3
 3376 0035 0E       		.uleb128 0xe
 3377 0036 00       		.byte	0
 3378 0037 00       		.byte	0
 3379 0038 05       		.uleb128 0x5
 3380 0039 13       		.uleb128 0x13
 3381 003a 01       		.byte	0x1
 3382 003b 03       		.uleb128 0x3
 3383 003c 0E       		.uleb128 0xe
 3384 003d 0B       		.uleb128 0xb
 3385 003e 0B       		.uleb128 0xb
 3386 003f 3A       		.uleb128 0x3a
 3387 0040 0B       		.uleb128 0xb
 3388 0041 3B       		.uleb128 0x3b
 3389 0042 0B       		.uleb128 0xb
 3390 0043 01       		.uleb128 0x1
 3391 0044 13       		.uleb128 0x13
 3392 0045 00       		.byte	0
ARM GAS  /tmp/ccJsjeCt.s 			page 61


 3393 0046 00       		.byte	0
 3394 0047 06       		.uleb128 0x6
 3395 0048 0D       		.uleb128 0xd
 3396 0049 00       		.byte	0
 3397 004a 03       		.uleb128 0x3
 3398 004b 0E       		.uleb128 0xe
 3399 004c 3A       		.uleb128 0x3a
 3400 004d 0B       		.uleb128 0xb
 3401 004e 3B       		.uleb128 0x3b
 3402 004f 0B       		.uleb128 0xb
 3403 0050 49       		.uleb128 0x49
 3404 0051 13       		.uleb128 0x13
 3405 0052 38       		.uleb128 0x38
 3406 0053 0A       		.uleb128 0xa
 3407 0054 00       		.byte	0
 3408 0055 00       		.byte	0
 3409 0056 07       		.uleb128 0x7
 3410 0057 0D       		.uleb128 0xd
 3411 0058 00       		.byte	0
 3412 0059 03       		.uleb128 0x3
 3413 005a 08       		.uleb128 0x8
 3414 005b 3A       		.uleb128 0x3a
 3415 005c 0B       		.uleb128 0xb
 3416 005d 3B       		.uleb128 0x3b
 3417 005e 0B       		.uleb128 0xb
 3418 005f 49       		.uleb128 0x49
 3419 0060 13       		.uleb128 0x13
 3420 0061 38       		.uleb128 0x38
 3421 0062 0A       		.uleb128 0xa
 3422 0063 00       		.byte	0
 3423 0064 00       		.byte	0
 3424 0065 08       		.uleb128 0x8
 3425 0066 13       		.uleb128 0x13
 3426 0067 01       		.byte	0x1
 3427 0068 0B       		.uleb128 0xb
 3428 0069 0B       		.uleb128 0xb
 3429 006a 3A       		.uleb128 0x3a
 3430 006b 0B       		.uleb128 0xb
 3431 006c 3B       		.uleb128 0x3b
 3432 006d 0B       		.uleb128 0xb
 3433 006e 01       		.uleb128 0x1
 3434 006f 13       		.uleb128 0x13
 3435 0070 00       		.byte	0
 3436 0071 00       		.byte	0
 3437 0072 09       		.uleb128 0x9
 3438 0073 0F       		.uleb128 0xf
 3439 0074 00       		.byte	0
 3440 0075 0B       		.uleb128 0xb
 3441 0076 0B       		.uleb128 0xb
 3442 0077 49       		.uleb128 0x49
 3443 0078 13       		.uleb128 0x13
 3444 0079 00       		.byte	0
 3445 007a 00       		.byte	0
 3446 007b 0A       		.uleb128 0xa
 3447 007c 0F       		.uleb128 0xf
 3448 007d 00       		.byte	0
 3449 007e 0B       		.uleb128 0xb
ARM GAS  /tmp/ccJsjeCt.s 			page 62


 3450 007f 0B       		.uleb128 0xb
 3451 0080 00       		.byte	0
 3452 0081 00       		.byte	0
 3453 0082 0B       		.uleb128 0xb
 3454 0083 13       		.uleb128 0x13
 3455 0084 01       		.byte	0x1
 3456 0085 03       		.uleb128 0x3
 3457 0086 0E       		.uleb128 0xe
 3458 0087 0B       		.uleb128 0xb
 3459 0088 0B       		.uleb128 0xb
 3460 0089 3A       		.uleb128 0x3a
 3461 008a 0B       		.uleb128 0xb
 3462 008b 3B       		.uleb128 0x3b
 3463 008c 05       		.uleb128 0x5
 3464 008d 01       		.uleb128 0x1
 3465 008e 13       		.uleb128 0x13
 3466 008f 00       		.byte	0
 3467 0090 00       		.byte	0
 3468 0091 0C       		.uleb128 0xc
 3469 0092 0D       		.uleb128 0xd
 3470 0093 00       		.byte	0
 3471 0094 03       		.uleb128 0x3
 3472 0095 08       		.uleb128 0x8
 3473 0096 3A       		.uleb128 0x3a
 3474 0097 0B       		.uleb128 0xb
 3475 0098 3B       		.uleb128 0x3b
 3476 0099 05       		.uleb128 0x5
 3477 009a 49       		.uleb128 0x49
 3478 009b 13       		.uleb128 0x13
 3479 009c 38       		.uleb128 0x38
 3480 009d 0A       		.uleb128 0xa
 3481 009e 00       		.byte	0
 3482 009f 00       		.byte	0
 3483 00a0 0D       		.uleb128 0xd
 3484 00a1 15       		.uleb128 0x15
 3485 00a2 01       		.byte	0x1
 3486 00a3 27       		.uleb128 0x27
 3487 00a4 0C       		.uleb128 0xc
 3488 00a5 01       		.uleb128 0x1
 3489 00a6 13       		.uleb128 0x13
 3490 00a7 00       		.byte	0
 3491 00a8 00       		.byte	0
 3492 00a9 0E       		.uleb128 0xe
 3493 00aa 05       		.uleb128 0x5
 3494 00ab 00       		.byte	0
 3495 00ac 49       		.uleb128 0x49
 3496 00ad 13       		.uleb128 0x13
 3497 00ae 00       		.byte	0
 3498 00af 00       		.byte	0
 3499 00b0 0F       		.uleb128 0xf
 3500 00b1 35       		.uleb128 0x35
 3501 00b2 00       		.byte	0
 3502 00b3 49       		.uleb128 0x49
 3503 00b4 13       		.uleb128 0x13
 3504 00b5 00       		.byte	0
 3505 00b6 00       		.byte	0
 3506 00b7 10       		.uleb128 0x10
ARM GAS  /tmp/ccJsjeCt.s 			page 63


 3507 00b8 17       		.uleb128 0x17
 3508 00b9 01       		.byte	0x1
 3509 00ba 0B       		.uleb128 0xb
 3510 00bb 0B       		.uleb128 0xb
 3511 00bc 3A       		.uleb128 0x3a
 3512 00bd 0B       		.uleb128 0xb
 3513 00be 3B       		.uleb128 0x3b
 3514 00bf 0B       		.uleb128 0xb
 3515 00c0 01       		.uleb128 0x1
 3516 00c1 13       		.uleb128 0x13
 3517 00c2 00       		.byte	0
 3518 00c3 00       		.byte	0
 3519 00c4 11       		.uleb128 0x11
 3520 00c5 0D       		.uleb128 0xd
 3521 00c6 00       		.byte	0
 3522 00c7 03       		.uleb128 0x3
 3523 00c8 0E       		.uleb128 0xe
 3524 00c9 3A       		.uleb128 0x3a
 3525 00ca 0B       		.uleb128 0xb
 3526 00cb 3B       		.uleb128 0x3b
 3527 00cc 0B       		.uleb128 0xb
 3528 00cd 49       		.uleb128 0x49
 3529 00ce 13       		.uleb128 0x13
 3530 00cf 00       		.byte	0
 3531 00d0 00       		.byte	0
 3532 00d1 12       		.uleb128 0x12
 3533 00d2 26       		.uleb128 0x26
 3534 00d3 00       		.byte	0
 3535 00d4 49       		.uleb128 0x49
 3536 00d5 13       		.uleb128 0x13
 3537 00d6 00       		.byte	0
 3538 00d7 00       		.byte	0
 3539 00d8 13       		.uleb128 0x13
 3540 00d9 15       		.uleb128 0x15
 3541 00da 01       		.byte	0x1
 3542 00db 27       		.uleb128 0x27
 3543 00dc 0C       		.uleb128 0xc
 3544 00dd 49       		.uleb128 0x49
 3545 00de 13       		.uleb128 0x13
 3546 00df 01       		.uleb128 0x1
 3547 00e0 13       		.uleb128 0x13
 3548 00e1 00       		.byte	0
 3549 00e2 00       		.byte	0
 3550 00e3 14       		.uleb128 0x14
 3551 00e4 15       		.uleb128 0x15
 3552 00e5 00       		.byte	0
 3553 00e6 27       		.uleb128 0x27
 3554 00e7 0C       		.uleb128 0xc
 3555 00e8 00       		.byte	0
 3556 00e9 00       		.byte	0
 3557 00ea 15       		.uleb128 0x15
 3558 00eb 2E       		.uleb128 0x2e
 3559 00ec 01       		.byte	0x1
 3560 00ed 03       		.uleb128 0x3
 3561 00ee 0E       		.uleb128 0xe
 3562 00ef 3A       		.uleb128 0x3a
 3563 00f0 0B       		.uleb128 0xb
ARM GAS  /tmp/ccJsjeCt.s 			page 64


 3564 00f1 3B       		.uleb128 0x3b
 3565 00f2 05       		.uleb128 0x5
 3566 00f3 27       		.uleb128 0x27
 3567 00f4 0C       		.uleb128 0xc
 3568 00f5 20       		.uleb128 0x20
 3569 00f6 0B       		.uleb128 0xb
 3570 00f7 01       		.uleb128 0x1
 3571 00f8 13       		.uleb128 0x13
 3572 00f9 00       		.byte	0
 3573 00fa 00       		.byte	0
 3574 00fb 16       		.uleb128 0x16
 3575 00fc 34       		.uleb128 0x34
 3576 00fd 00       		.byte	0
 3577 00fe 03       		.uleb128 0x3
 3578 00ff 08       		.uleb128 0x8
 3579 0100 3A       		.uleb128 0x3a
 3580 0101 0B       		.uleb128 0xb
 3581 0102 3B       		.uleb128 0x3b
 3582 0103 05       		.uleb128 0x5
 3583 0104 49       		.uleb128 0x49
 3584 0105 13       		.uleb128 0x13
 3585 0106 00       		.byte	0
 3586 0107 00       		.byte	0
 3587 0108 17       		.uleb128 0x17
 3588 0109 2E       		.uleb128 0x2e
 3589 010a 01       		.byte	0x1
 3590 010b 03       		.uleb128 0x3
 3591 010c 0E       		.uleb128 0xe
 3592 010d 3A       		.uleb128 0x3a
 3593 010e 0B       		.uleb128 0xb
 3594 010f 3B       		.uleb128 0x3b
 3595 0110 0B       		.uleb128 0xb
 3596 0111 27       		.uleb128 0x27
 3597 0112 0C       		.uleb128 0xc
 3598 0113 11       		.uleb128 0x11
 3599 0114 01       		.uleb128 0x1
 3600 0115 12       		.uleb128 0x12
 3601 0116 01       		.uleb128 0x1
 3602 0117 40       		.uleb128 0x40
 3603 0118 0A       		.uleb128 0xa
 3604 0119 9742     		.uleb128 0x2117
 3605 011b 0C       		.uleb128 0xc
 3606 011c 01       		.uleb128 0x1
 3607 011d 13       		.uleb128 0x13
 3608 011e 00       		.byte	0
 3609 011f 00       		.byte	0
 3610 0120 18       		.uleb128 0x18
 3611 0121 898201   		.uleb128 0x4109
 3612 0124 01       		.byte	0x1
 3613 0125 11       		.uleb128 0x11
 3614 0126 01       		.uleb128 0x1
 3615 0127 9542     		.uleb128 0x2115
 3616 0129 0C       		.uleb128 0xc
 3617 012a 31       		.uleb128 0x31
 3618 012b 13       		.uleb128 0x13
 3619 012c 00       		.byte	0
 3620 012d 00       		.byte	0
ARM GAS  /tmp/ccJsjeCt.s 			page 65


 3621 012e 19       		.uleb128 0x19
 3622 012f 8A8201   		.uleb128 0x410a
 3623 0132 00       		.byte	0
 3624 0133 02       		.uleb128 0x2
 3625 0134 0A       		.uleb128 0xa
 3626 0135 9142     		.uleb128 0x2111
 3627 0137 0A       		.uleb128 0xa
 3628 0138 00       		.byte	0
 3629 0139 00       		.byte	0
 3630 013a 1A       		.uleb128 0x1a
 3631 013b 2E       		.uleb128 0x2e
 3632 013c 01       		.byte	0x1
 3633 013d 03       		.uleb128 0x3
 3634 013e 0E       		.uleb128 0xe
 3635 013f 3A       		.uleb128 0x3a
 3636 0140 0B       		.uleb128 0xb
 3637 0141 3B       		.uleb128 0x3b
 3638 0142 0B       		.uleb128 0xb
 3639 0143 27       		.uleb128 0x27
 3640 0144 0C       		.uleb128 0xc
 3641 0145 11       		.uleb128 0x11
 3642 0146 01       		.uleb128 0x1
 3643 0147 12       		.uleb128 0x12
 3644 0148 01       		.uleb128 0x1
 3645 0149 40       		.uleb128 0x40
 3646 014a 06       		.uleb128 0x6
 3647 014b 9742     		.uleb128 0x2117
 3648 014d 0C       		.uleb128 0xc
 3649 014e 01       		.uleb128 0x1
 3650 014f 13       		.uleb128 0x13
 3651 0150 00       		.byte	0
 3652 0151 00       		.byte	0
 3653 0152 1B       		.uleb128 0x1b
 3654 0153 34       		.uleb128 0x34
 3655 0154 00       		.byte	0
 3656 0155 03       		.uleb128 0x3
 3657 0156 08       		.uleb128 0x8
 3658 0157 3A       		.uleb128 0x3a
 3659 0158 0B       		.uleb128 0xb
 3660 0159 3B       		.uleb128 0x3b
 3661 015a 0B       		.uleb128 0xb
 3662 015b 49       		.uleb128 0x49
 3663 015c 13       		.uleb128 0x13
 3664 015d 02       		.uleb128 0x2
 3665 015e 06       		.uleb128 0x6
 3666 015f 00       		.byte	0
 3667 0160 00       		.byte	0
 3668 0161 1C       		.uleb128 0x1c
 3669 0162 34       		.uleb128 0x34
 3670 0163 00       		.byte	0
 3671 0164 03       		.uleb128 0x3
 3672 0165 08       		.uleb128 0x8
 3673 0166 3A       		.uleb128 0x3a
 3674 0167 0B       		.uleb128 0xb
 3675 0168 3B       		.uleb128 0x3b
 3676 0169 0B       		.uleb128 0xb
 3677 016a 49       		.uleb128 0x49
ARM GAS  /tmp/ccJsjeCt.s 			page 66


 3678 016b 13       		.uleb128 0x13
 3679 016c 02       		.uleb128 0x2
 3680 016d 0A       		.uleb128 0xa
 3681 016e 00       		.byte	0
 3682 016f 00       		.byte	0
 3683 0170 1D       		.uleb128 0x1d
 3684 0171 34       		.uleb128 0x34
 3685 0172 00       		.byte	0
 3686 0173 03       		.uleb128 0x3
 3687 0174 0E       		.uleb128 0xe
 3688 0175 3A       		.uleb128 0x3a
 3689 0176 0B       		.uleb128 0xb
 3690 0177 3B       		.uleb128 0x3b
 3691 0178 0B       		.uleb128 0xb
 3692 0179 49       		.uleb128 0x49
 3693 017a 13       		.uleb128 0x13
 3694 017b 02       		.uleb128 0x2
 3695 017c 06       		.uleb128 0x6
 3696 017d 00       		.byte	0
 3697 017e 00       		.byte	0
 3698 017f 1E       		.uleb128 0x1e
 3699 0180 898201   		.uleb128 0x4109
 3700 0183 01       		.byte	0x1
 3701 0184 11       		.uleb128 0x11
 3702 0185 01       		.uleb128 0x1
 3703 0186 31       		.uleb128 0x31
 3704 0187 13       		.uleb128 0x13
 3705 0188 01       		.uleb128 0x1
 3706 0189 13       		.uleb128 0x13
 3707 018a 00       		.byte	0
 3708 018b 00       		.byte	0
 3709 018c 1F       		.uleb128 0x1f
 3710 018d 898201   		.uleb128 0x4109
 3711 0190 00       		.byte	0
 3712 0191 11       		.uleb128 0x11
 3713 0192 01       		.uleb128 0x1
 3714 0193 31       		.uleb128 0x31
 3715 0194 13       		.uleb128 0x13
 3716 0195 00       		.byte	0
 3717 0196 00       		.byte	0
 3718 0197 20       		.uleb128 0x20
 3719 0198 898201   		.uleb128 0x4109
 3720 019b 01       		.byte	0x1
 3721 019c 11       		.uleb128 0x11
 3722 019d 01       		.uleb128 0x1
 3723 019e 31       		.uleb128 0x31
 3724 019f 13       		.uleb128 0x13
 3725 01a0 00       		.byte	0
 3726 01a1 00       		.byte	0
 3727 01a2 21       		.uleb128 0x21
 3728 01a3 2E       		.uleb128 0x2e
 3729 01a4 01       		.byte	0x1
 3730 01a5 03       		.uleb128 0x3
 3731 01a6 0E       		.uleb128 0xe
 3732 01a7 3A       		.uleb128 0x3a
 3733 01a8 0B       		.uleb128 0xb
 3734 01a9 3B       		.uleb128 0x3b
ARM GAS  /tmp/ccJsjeCt.s 			page 67


 3735 01aa 0B       		.uleb128 0xb
 3736 01ab 27       		.uleb128 0x27
 3737 01ac 0C       		.uleb128 0xc
 3738 01ad 49       		.uleb128 0x49
 3739 01ae 13       		.uleb128 0x13
 3740 01af 11       		.uleb128 0x11
 3741 01b0 01       		.uleb128 0x1
 3742 01b1 12       		.uleb128 0x12
 3743 01b2 01       		.uleb128 0x1
 3744 01b3 40       		.uleb128 0x40
 3745 01b4 06       		.uleb128 0x6
 3746 01b5 9742     		.uleb128 0x2117
 3747 01b7 0C       		.uleb128 0xc
 3748 01b8 01       		.uleb128 0x1
 3749 01b9 13       		.uleb128 0x13
 3750 01ba 00       		.byte	0
 3751 01bb 00       		.byte	0
 3752 01bc 22       		.uleb128 0x22
 3753 01bd 05       		.uleb128 0x5
 3754 01be 00       		.byte	0
 3755 01bf 03       		.uleb128 0x3
 3756 01c0 08       		.uleb128 0x8
 3757 01c1 3A       		.uleb128 0x3a
 3758 01c2 0B       		.uleb128 0xb
 3759 01c3 3B       		.uleb128 0x3b
 3760 01c4 0B       		.uleb128 0xb
 3761 01c5 49       		.uleb128 0x49
 3762 01c6 13       		.uleb128 0x13
 3763 01c7 02       		.uleb128 0x2
 3764 01c8 06       		.uleb128 0x6
 3765 01c9 00       		.byte	0
 3766 01ca 00       		.byte	0
 3767 01cb 23       		.uleb128 0x23
 3768 01cc 2E       		.uleb128 0x2e
 3769 01cd 01       		.byte	0x1
 3770 01ce 03       		.uleb128 0x3
 3771 01cf 08       		.uleb128 0x8
 3772 01d0 3A       		.uleb128 0x3a
 3773 01d1 0B       		.uleb128 0xb
 3774 01d2 3B       		.uleb128 0x3b
 3775 01d3 0B       		.uleb128 0xb
 3776 01d4 27       		.uleb128 0x27
 3777 01d5 0C       		.uleb128 0xc
 3778 01d6 11       		.uleb128 0x11
 3779 01d7 01       		.uleb128 0x1
 3780 01d8 12       		.uleb128 0x12
 3781 01d9 01       		.uleb128 0x1
 3782 01da 40       		.uleb128 0x40
 3783 01db 0A       		.uleb128 0xa
 3784 01dc 9742     		.uleb128 0x2117
 3785 01de 0C       		.uleb128 0xc
 3786 01df 01       		.uleb128 0x1
 3787 01e0 13       		.uleb128 0x13
 3788 01e1 00       		.byte	0
 3789 01e2 00       		.byte	0
 3790 01e3 24       		.uleb128 0x24
 3791 01e4 2E       		.uleb128 0x2e
ARM GAS  /tmp/ccJsjeCt.s 			page 68


 3792 01e5 01       		.byte	0x1
 3793 01e6 31       		.uleb128 0x31
 3794 01e7 13       		.uleb128 0x13
 3795 01e8 11       		.uleb128 0x11
 3796 01e9 01       		.uleb128 0x1
 3797 01ea 12       		.uleb128 0x12
 3798 01eb 01       		.uleb128 0x1
 3799 01ec 40       		.uleb128 0x40
 3800 01ed 06       		.uleb128 0x6
 3801 01ee 9742     		.uleb128 0x2117
 3802 01f0 0C       		.uleb128 0xc
 3803 01f1 01       		.uleb128 0x1
 3804 01f2 13       		.uleb128 0x13
 3805 01f3 00       		.byte	0
 3806 01f4 00       		.byte	0
 3807 01f5 25       		.uleb128 0x25
 3808 01f6 34       		.uleb128 0x34
 3809 01f7 00       		.byte	0
 3810 01f8 31       		.uleb128 0x31
 3811 01f9 13       		.uleb128 0x13
 3812 01fa 02       		.uleb128 0x2
 3813 01fb 06       		.uleb128 0x6
 3814 01fc 00       		.byte	0
 3815 01fd 00       		.byte	0
 3816 01fe 26       		.uleb128 0x26
 3817 01ff 1D       		.uleb128 0x1d
 3818 0200 01       		.byte	0x1
 3819 0201 31       		.uleb128 0x31
 3820 0202 13       		.uleb128 0x13
 3821 0203 52       		.uleb128 0x52
 3822 0204 01       		.uleb128 0x1
 3823 0205 55       		.uleb128 0x55
 3824 0206 06       		.uleb128 0x6
 3825 0207 58       		.uleb128 0x58
 3826 0208 0B       		.uleb128 0xb
 3827 0209 59       		.uleb128 0x59
 3828 020a 05       		.uleb128 0x5
 3829 020b 01       		.uleb128 0x1
 3830 020c 13       		.uleb128 0x13
 3831 020d 00       		.byte	0
 3832 020e 00       		.byte	0
 3833 020f 27       		.uleb128 0x27
 3834 0210 0B       		.uleb128 0xb
 3835 0211 01       		.byte	0x1
 3836 0212 55       		.uleb128 0x55
 3837 0213 06       		.uleb128 0x6
 3838 0214 00       		.byte	0
 3839 0215 00       		.byte	0
 3840 0216 28       		.uleb128 0x28
 3841 0217 01       		.uleb128 0x1
 3842 0218 01       		.byte	0x1
 3843 0219 49       		.uleb128 0x49
 3844 021a 13       		.uleb128 0x13
 3845 021b 01       		.uleb128 0x1
 3846 021c 13       		.uleb128 0x13
 3847 021d 00       		.byte	0
 3848 021e 00       		.byte	0
ARM GAS  /tmp/ccJsjeCt.s 			page 69


 3849 021f 29       		.uleb128 0x29
 3850 0220 21       		.uleb128 0x21
 3851 0221 00       		.byte	0
 3852 0222 49       		.uleb128 0x49
 3853 0223 13       		.uleb128 0x13
 3854 0224 2F       		.uleb128 0x2f
 3855 0225 0B       		.uleb128 0xb
 3856 0226 00       		.byte	0
 3857 0227 00       		.byte	0
 3858 0228 2A       		.uleb128 0x2a
 3859 0229 34       		.uleb128 0x34
 3860 022a 00       		.byte	0
 3861 022b 03       		.uleb128 0x3
 3862 022c 0E       		.uleb128 0xe
 3863 022d 3A       		.uleb128 0x3a
 3864 022e 0B       		.uleb128 0xb
 3865 022f 3B       		.uleb128 0x3b
 3866 0230 0B       		.uleb128 0xb
 3867 0231 49       		.uleb128 0x49
 3868 0232 13       		.uleb128 0x13
 3869 0233 02       		.uleb128 0x2
 3870 0234 0A       		.uleb128 0xa
 3871 0235 00       		.byte	0
 3872 0236 00       		.byte	0
 3873 0237 2B       		.uleb128 0x2b
 3874 0238 34       		.uleb128 0x34
 3875 0239 00       		.byte	0
 3876 023a 03       		.uleb128 0x3
 3877 023b 0E       		.uleb128 0xe
 3878 023c 3A       		.uleb128 0x3a
 3879 023d 0B       		.uleb128 0xb
 3880 023e 3B       		.uleb128 0x3b
 3881 023f 0B       		.uleb128 0xb
 3882 0240 49       		.uleb128 0x49
 3883 0241 13       		.uleb128 0x13
 3884 0242 3F       		.uleb128 0x3f
 3885 0243 0C       		.uleb128 0xc
 3886 0244 3C       		.uleb128 0x3c
 3887 0245 0C       		.uleb128 0xc
 3888 0246 00       		.byte	0
 3889 0247 00       		.byte	0
 3890 0248 2C       		.uleb128 0x2c
 3891 0249 21       		.uleb128 0x21
 3892 024a 00       		.byte	0
 3893 024b 00       		.byte	0
 3894 024c 00       		.byte	0
 3895 024d 2D       		.uleb128 0x2d
 3896 024e 34       		.uleb128 0x34
 3897 024f 00       		.byte	0
 3898 0250 03       		.uleb128 0x3
 3899 0251 08       		.uleb128 0x8
 3900 0252 3A       		.uleb128 0x3a
 3901 0253 0B       		.uleb128 0xb
 3902 0254 3B       		.uleb128 0x3b
 3903 0255 0B       		.uleb128 0xb
 3904 0256 49       		.uleb128 0x49
 3905 0257 13       		.uleb128 0x13
ARM GAS  /tmp/ccJsjeCt.s 			page 70


 3906 0258 3F       		.uleb128 0x3f
 3907 0259 0C       		.uleb128 0xc
 3908 025a 3C       		.uleb128 0x3c
 3909 025b 0C       		.uleb128 0xc
 3910 025c 00       		.byte	0
 3911 025d 00       		.byte	0
 3912 025e 2E       		.uleb128 0x2e
 3913 025f 34       		.uleb128 0x34
 3914 0260 00       		.byte	0
 3915 0261 03       		.uleb128 0x3
 3916 0262 0E       		.uleb128 0xe
 3917 0263 3A       		.uleb128 0x3a
 3918 0264 0B       		.uleb128 0xb
 3919 0265 3B       		.uleb128 0x3b
 3920 0266 0B       		.uleb128 0xb
 3921 0267 49       		.uleb128 0x49
 3922 0268 13       		.uleb128 0x13
 3923 0269 3F       		.uleb128 0x3f
 3924 026a 0C       		.uleb128 0xc
 3925 026b 02       		.uleb128 0x2
 3926 026c 0A       		.uleb128 0xa
 3927 026d 00       		.byte	0
 3928 026e 00       		.byte	0
 3929 026f 2F       		.uleb128 0x2f
 3930 0270 34       		.uleb128 0x34
 3931 0271 00       		.byte	0
 3932 0272 03       		.uleb128 0x3
 3933 0273 0E       		.uleb128 0xe
 3934 0274 3A       		.uleb128 0x3a
 3935 0275 0B       		.uleb128 0xb
 3936 0276 3B       		.uleb128 0x3b
 3937 0277 05       		.uleb128 0x5
 3938 0278 49       		.uleb128 0x49
 3939 0279 13       		.uleb128 0x13
 3940 027a 3F       		.uleb128 0x3f
 3941 027b 0C       		.uleb128 0xc
 3942 027c 02       		.uleb128 0x2
 3943 027d 0A       		.uleb128 0xa
 3944 027e 00       		.byte	0
 3945 027f 00       		.byte	0
 3946 0280 30       		.uleb128 0x30
 3947 0281 2E       		.uleb128 0x2e
 3948 0282 01       		.byte	0x1
 3949 0283 3F       		.uleb128 0x3f
 3950 0284 0C       		.uleb128 0xc
 3951 0285 03       		.uleb128 0x3
 3952 0286 0E       		.uleb128 0xe
 3953 0287 3A       		.uleb128 0x3a
 3954 0288 0B       		.uleb128 0xb
 3955 0289 3B       		.uleb128 0x3b
 3956 028a 0B       		.uleb128 0xb
 3957 028b 27       		.uleb128 0x27
 3958 028c 0C       		.uleb128 0xc
 3959 028d 49       		.uleb128 0x49
 3960 028e 13       		.uleb128 0x13
 3961 028f 3C       		.uleb128 0x3c
 3962 0290 0C       		.uleb128 0xc
ARM GAS  /tmp/ccJsjeCt.s 			page 71


 3963 0291 01       		.uleb128 0x1
 3964 0292 13       		.uleb128 0x13
 3965 0293 00       		.byte	0
 3966 0294 00       		.byte	0
 3967 0295 31       		.uleb128 0x31
 3968 0296 2E       		.uleb128 0x2e
 3969 0297 00       		.byte	0
 3970 0298 3F       		.uleb128 0x3f
 3971 0299 0C       		.uleb128 0xc
 3972 029a 03       		.uleb128 0x3
 3973 029b 0E       		.uleb128 0xe
 3974 029c 3A       		.uleb128 0x3a
 3975 029d 0B       		.uleb128 0xb
 3976 029e 3B       		.uleb128 0x3b
 3977 029f 0B       		.uleb128 0xb
 3978 02a0 27       		.uleb128 0x27
 3979 02a1 0C       		.uleb128 0xc
 3980 02a2 49       		.uleb128 0x49
 3981 02a3 13       		.uleb128 0x13
 3982 02a4 3C       		.uleb128 0x3c
 3983 02a5 0C       		.uleb128 0xc
 3984 02a6 00       		.byte	0
 3985 02a7 00       		.byte	0
 3986 02a8 32       		.uleb128 0x32
 3987 02a9 2E       		.uleb128 0x2e
 3988 02aa 01       		.byte	0x1
 3989 02ab 3F       		.uleb128 0x3f
 3990 02ac 0C       		.uleb128 0xc
 3991 02ad 03       		.uleb128 0x3
 3992 02ae 0E       		.uleb128 0xe
 3993 02af 3A       		.uleb128 0x3a
 3994 02b0 0B       		.uleb128 0xb
 3995 02b1 3B       		.uleb128 0x3b
 3996 02b2 05       		.uleb128 0x5
 3997 02b3 27       		.uleb128 0x27
 3998 02b4 0C       		.uleb128 0xc
 3999 02b5 49       		.uleb128 0x49
 4000 02b6 13       		.uleb128 0x13
 4001 02b7 3C       		.uleb128 0x3c
 4002 02b8 0C       		.uleb128 0xc
 4003 02b9 01       		.uleb128 0x1
 4004 02ba 13       		.uleb128 0x13
 4005 02bb 00       		.byte	0
 4006 02bc 00       		.byte	0
 4007 02bd 33       		.uleb128 0x33
 4008 02be 2E       		.uleb128 0x2e
 4009 02bf 00       		.byte	0
 4010 02c0 3F       		.uleb128 0x3f
 4011 02c1 0C       		.uleb128 0xc
 4012 02c2 03       		.uleb128 0x3
 4013 02c3 0E       		.uleb128 0xe
 4014 02c4 3A       		.uleb128 0x3a
 4015 02c5 0B       		.uleb128 0xb
 4016 02c6 3B       		.uleb128 0x3b
 4017 02c7 0B       		.uleb128 0xb
 4018 02c8 27       		.uleb128 0x27
 4019 02c9 0C       		.uleb128 0xc
ARM GAS  /tmp/ccJsjeCt.s 			page 72


 4020 02ca 3C       		.uleb128 0x3c
 4021 02cb 0C       		.uleb128 0xc
 4022 02cc 00       		.byte	0
 4023 02cd 00       		.byte	0
 4024 02ce 34       		.uleb128 0x34
 4025 02cf 2E       		.uleb128 0x2e
 4026 02d0 01       		.byte	0x1
 4027 02d1 3F       		.uleb128 0x3f
 4028 02d2 0C       		.uleb128 0xc
 4029 02d3 03       		.uleb128 0x3
 4030 02d4 0E       		.uleb128 0xe
 4031 02d5 3A       		.uleb128 0x3a
 4032 02d6 0B       		.uleb128 0xb
 4033 02d7 3B       		.uleb128 0x3b
 4034 02d8 0B       		.uleb128 0xb
 4035 02d9 27       		.uleb128 0x27
 4036 02da 0C       		.uleb128 0xc
 4037 02db 3C       		.uleb128 0x3c
 4038 02dc 0C       		.uleb128 0xc
 4039 02dd 01       		.uleb128 0x1
 4040 02de 13       		.uleb128 0x13
 4041 02df 00       		.byte	0
 4042 02e0 00       		.byte	0
 4043 02e1 35       		.uleb128 0x35
 4044 02e2 2E       		.uleb128 0x2e
 4045 02e3 01       		.byte	0x1
 4046 02e4 3F       		.uleb128 0x3f
 4047 02e5 0C       		.uleb128 0xc
 4048 02e6 03       		.uleb128 0x3
 4049 02e7 0E       		.uleb128 0xe
 4050 02e8 3A       		.uleb128 0x3a
 4051 02e9 0B       		.uleb128 0xb
 4052 02ea 3B       		.uleb128 0x3b
 4053 02eb 05       		.uleb128 0x5
 4054 02ec 27       		.uleb128 0x27
 4055 02ed 0C       		.uleb128 0xc
 4056 02ee 3C       		.uleb128 0x3c
 4057 02ef 0C       		.uleb128 0xc
 4058 02f0 01       		.uleb128 0x1
 4059 02f1 13       		.uleb128 0x13
 4060 02f2 00       		.byte	0
 4061 02f3 00       		.byte	0
 4062 02f4 36       		.uleb128 0x36
 4063 02f5 2E       		.uleb128 0x2e
 4064 02f6 01       		.byte	0x1
 4065 02f7 3F       		.uleb128 0x3f
 4066 02f8 0C       		.uleb128 0xc
 4067 02f9 03       		.uleb128 0x3
 4068 02fa 0E       		.uleb128 0xe
 4069 02fb 3A       		.uleb128 0x3a
 4070 02fc 0B       		.uleb128 0xb
 4071 02fd 3B       		.uleb128 0x3b
 4072 02fe 0B       		.uleb128 0xb
 4073 02ff 27       		.uleb128 0x27
 4074 0300 0C       		.uleb128 0xc
 4075 0301 49       		.uleb128 0x49
 4076 0302 13       		.uleb128 0x13
ARM GAS  /tmp/ccJsjeCt.s 			page 73


 4077 0303 3C       		.uleb128 0x3c
 4078 0304 0C       		.uleb128 0xc
 4079 0305 00       		.byte	0
 4080 0306 00       		.byte	0
 4081 0307 00       		.byte	0
 4082              		.section	.debug_loc,"",%progbits
 4083              	.Ldebug_loc0:
 4084              	.LLST0:
 4085 0000 00000000 		.4byte	.LFB15
 4086 0004 04000000 		.4byte	.LCFI0
 4087 0008 0200     		.2byte	0x2
 4088 000a 7D       		.byte	0x7d
 4089 000b 00       		.sleb128 0
 4090 000c 04000000 		.4byte	.LCFI0
 4091 0010 08000000 		.4byte	.LCFI1
 4092 0014 0200     		.2byte	0x2
 4093 0016 7D       		.byte	0x7d
 4094 0017 18       		.sleb128 24
 4095 0018 08000000 		.4byte	.LCFI1
 4096 001c 54020000 		.4byte	.LFE15
 4097 0020 0300     		.2byte	0x3
 4098 0022 7D       		.byte	0x7d
 4099 0023 C800     		.sleb128 72
 4100 0025 00000000 		.4byte	0
 4101 0029 00000000 		.4byte	0
 4102              	.LLST1:
 4103 002d 14000000 		.4byte	.LVL4
 4104 0031 16000000 		.4byte	.LVL5
 4105 0035 0100     		.2byte	0x1
 4106 0037 50       		.byte	0x50
 4107 0038 16000000 		.4byte	.LVL5
 4108 003c 1C000000 		.4byte	.LVL6
 4109 0040 0300     		.2byte	0x3
 4110 0042 70       		.byte	0x70
 4111 0043 01       		.sleb128 1
 4112 0044 9F       		.byte	0x9f
 4113 0045 30000000 		.4byte	.LVL8
 4114 0049 38000000 		.4byte	.LVL9
 4115 004d 0100     		.2byte	0x1
 4116 004f 50       		.byte	0x50
 4117 0050 38000000 		.4byte	.LVL9
 4118 0054 3B000000 		.4byte	.LVL10-1
 4119 0058 0300     		.2byte	0x3
 4120 005a 72       		.byte	0x72
 4121 005b 04       		.sleb128 4
 4122 005c 9F       		.byte	0x9f
 4123 005d 48000000 		.4byte	.LVL11
 4124 0061 52000000 		.4byte	.LVL12
 4125 0065 0100     		.2byte	0x1
 4126 0067 50       		.byte	0x50
 4127 0068 90000000 		.4byte	.LVL19
 4128 006c 96000000 		.4byte	.LVL20
 4129 0070 0100     		.2byte	0x1
 4130 0072 50       		.byte	0x50
 4131 0073 96000000 		.4byte	.LVL20
 4132 0077 B8000000 		.4byte	.LVL23
 4133 007b 0100     		.2byte	0x1
ARM GAS  /tmp/ccJsjeCt.s 			page 74


 4134 007d 59       		.byte	0x59
 4135 007e B8000000 		.4byte	.LVL23
 4136 0082 C2000000 		.4byte	.LVL24
 4137 0086 0100     		.2byte	0x1
 4138 0088 50       		.byte	0x50
 4139 0089 DC000000 		.4byte	.LVL28
 4140 008d EA000000 		.4byte	.LVL29
 4141 0091 0100     		.2byte	0x1
 4142 0093 50       		.byte	0x50
 4143 0094 EA000000 		.4byte	.LVL29
 4144 0098 ED000000 		.4byte	.LVL30-1
 4145 009c 0300     		.2byte	0x3
 4146 009e 7C       		.byte	0x7c
 4147 009f 05       		.sleb128 5
 4148 00a0 9F       		.byte	0x9f
 4149 00a1 FA000000 		.4byte	.LVL31
 4150 00a5 04010000 		.4byte	.LVL32
 4151 00a9 0100     		.2byte	0x1
 4152 00ab 50       		.byte	0x50
 4153 00ac 36010000 		.4byte	.LVL39
 4154 00b0 3C010000 		.4byte	.LVL40
 4155 00b4 0100     		.2byte	0x1
 4156 00b6 50       		.byte	0x50
 4157 00b7 3C010000 		.4byte	.LVL40
 4158 00bb 66010000 		.4byte	.LVL43
 4159 00bf 0100     		.2byte	0x1
 4160 00c1 59       		.byte	0x59
 4161 00c2 66010000 		.4byte	.LVL43
 4162 00c6 70010000 		.4byte	.LVL44
 4163 00ca 0100     		.2byte	0x1
 4164 00cc 50       		.byte	0x50
 4165 00cd DE010000 		.4byte	.LVL56
 4166 00d1 E8010000 		.4byte	.LVL57
 4167 00d5 0100     		.2byte	0x1
 4168 00d7 50       		.byte	0x50
 4169 00d8 00000000 		.4byte	0
 4170 00dc 00000000 		.4byte	0
 4171              	.LLST2:
 4172 00e0 7C000000 		.4byte	.LVL15
 4173 00e4 8E000000 		.4byte	.LVL18
 4174 00e8 0300     		.2byte	0x3
 4175 00ea 74       		.byte	0x74
 4176 00eb 32       		.sleb128 50
 4177 00ec 9F       		.byte	0x9f
 4178 00ed 8E000000 		.4byte	.LVL18
 4179 00f1 99000000 		.4byte	.LVL21-1
 4180 00f5 0100     		.2byte	0x1
 4181 00f7 51       		.byte	0x51
 4182 00f8 99000000 		.4byte	.LVL21-1
 4183 00fc 34010000 		.4byte	.LVL38
 4184 0100 0300     		.2byte	0x3
 4185 0102 74       		.byte	0x74
 4186 0103 32       		.sleb128 50
 4187 0104 9F       		.byte	0x9f
 4188 0105 34010000 		.4byte	.LVL38
 4189 0109 3F010000 		.4byte	.LVL41-1
 4190 010d 0100     		.2byte	0x1
ARM GAS  /tmp/ccJsjeCt.s 			page 75


 4191 010f 51       		.byte	0x51
 4192 0110 3F010000 		.4byte	.LVL41-1
 4193 0114 80010000 		.4byte	.LVL46
 4194 0118 0300     		.2byte	0x3
 4195 011a 74       		.byte	0x74
 4196 011b 32       		.sleb128 50
 4197 011c 9F       		.byte	0x9f
 4198 011d B6010000 		.4byte	.LVL51
 4199 0121 C8010000 		.4byte	.LVL54
 4200 0125 0300     		.2byte	0x3
 4201 0127 75       		.byte	0x75
 4202 0128 32       		.sleb128 50
 4203 0129 9F       		.byte	0x9f
 4204 012a C8010000 		.4byte	.LVL54
 4205 012e CF010000 		.4byte	.LVL55-1
 4206 0132 0100     		.2byte	0x1
 4207 0134 51       		.byte	0x51
 4208 0135 CF010000 		.4byte	.LVL55-1
 4209 0139 54020000 		.4byte	.LFE15
 4210 013d 0300     		.2byte	0x3
 4211 013f 75       		.byte	0x75
 4212 0140 32       		.sleb128 50
 4213 0141 9F       		.byte	0x9f
 4214 0142 00000000 		.4byte	0
 4215 0146 00000000 		.4byte	0
 4216              	.LLST3:
 4217 014a 00000000 		.4byte	.LFB14
 4218 014e 06000000 		.4byte	.LCFI2
 4219 0152 0200     		.2byte	0x2
 4220 0154 7D       		.byte	0x7d
 4221 0155 00       		.sleb128 0
 4222 0156 06000000 		.4byte	.LCFI2
 4223 015a 28000000 		.4byte	.LFE14
 4224 015e 0200     		.2byte	0x2
 4225 0160 7D       		.byte	0x7d
 4226 0161 08       		.sleb128 8
 4227 0162 00000000 		.4byte	0
 4228 0166 00000000 		.4byte	0
 4229              	.LLST4:
 4230 016a 00000000 		.4byte	.LVL64
 4231 016e 04000000 		.4byte	.LVL65
 4232 0172 0100     		.2byte	0x1
 4233 0174 50       		.byte	0x50
 4234 0175 04000000 		.4byte	.LVL65
 4235 0179 28000000 		.4byte	.LFE14
 4236 017d 0400     		.2byte	0x4
 4237 017f F3       		.byte	0xf3
 4238 0180 01       		.uleb128 0x1
 4239 0181 50       		.byte	0x50
 4240 0182 9F       		.byte	0x9f
 4241 0183 00000000 		.4byte	0
 4242 0187 00000000 		.4byte	0
 4243              	.LLST5:
 4244 018b 00000000 		.4byte	.LFB13
 4245 018f 02000000 		.4byte	.LCFI3
 4246 0193 0200     		.2byte	0x2
 4247 0195 7D       		.byte	0x7d
ARM GAS  /tmp/ccJsjeCt.s 			page 76


 4248 0196 00       		.sleb128 0
 4249 0197 02000000 		.4byte	.LCFI3
 4250 019b 16000000 		.4byte	.LFE13
 4251 019f 0200     		.2byte	0x2
 4252 01a1 7D       		.byte	0x7d
 4253 01a2 08       		.sleb128 8
 4254 01a3 00000000 		.4byte	0
 4255 01a7 00000000 		.4byte	0
 4256              	.LLST6:
 4257 01ab 00000000 		.4byte	.LVL69
 4258 01af 06000000 		.4byte	.LVL70
 4259 01b3 0100     		.2byte	0x1
 4260 01b5 50       		.byte	0x50
 4261 01b6 06000000 		.4byte	.LVL70
 4262 01ba 16000000 		.4byte	.LFE13
 4263 01be 0100     		.2byte	0x1
 4264 01c0 54       		.byte	0x54
 4265 01c1 00000000 		.4byte	0
 4266 01c5 00000000 		.4byte	0
 4267              	.LLST7:
 4268 01c9 00000000 		.4byte	.LFB11
 4269 01cd 02000000 		.4byte	.LCFI4
 4270 01d1 0200     		.2byte	0x2
 4271 01d3 7D       		.byte	0x7d
 4272 01d4 00       		.sleb128 0
 4273 01d5 02000000 		.4byte	.LCFI4
 4274 01d9 06000000 		.4byte	.LCFI5
 4275 01dd 0200     		.2byte	0x2
 4276 01df 7D       		.byte	0x7d
 4277 01e0 08       		.sleb128 8
 4278 01e1 06000000 		.4byte	.LCFI5
 4279 01e5 88000000 		.4byte	.LFE11
 4280 01e9 0200     		.2byte	0x2
 4281 01eb 7D       		.byte	0x7d
 4282 01ec 28       		.sleb128 40
 4283 01ed 00000000 		.4byte	0
 4284 01f1 00000000 		.4byte	0
 4285              	.LLST8:
 4286 01f5 00000000 		.4byte	.LVL82
 4287 01f9 02000000 		.4byte	.LVL83
 4288 01fd 0100     		.2byte	0x1
 4289 01ff 50       		.byte	0x50
 4290 0200 02000000 		.4byte	.LVL83
 4291 0204 06000000 		.4byte	.LFE10
 4292 0208 0400     		.2byte	0x4
 4293 020a F3       		.byte	0xf3
 4294 020b 01       		.uleb128 0x1
 4295 020c 50       		.byte	0x50
 4296 020d 9F       		.byte	0x9f
 4297 020e 00000000 		.4byte	0
 4298 0212 00000000 		.4byte	0
 4299              	.LLST9:
 4300 0216 00000000 		.4byte	.LVL85
 4301 021a 02000000 		.4byte	.LVL86
 4302 021e 0100     		.2byte	0x1
 4303 0220 50       		.byte	0x50
 4304 0221 02000000 		.4byte	.LVL86
ARM GAS  /tmp/ccJsjeCt.s 			page 77


 4305 0225 06000000 		.4byte	.LFE9
 4306 0229 0400     		.2byte	0x4
 4307 022b F3       		.byte	0xf3
 4308 022c 01       		.uleb128 0x1
 4309 022d 50       		.byte	0x50
 4310 022e 9F       		.byte	0x9f
 4311 022f 00000000 		.4byte	0
 4312 0233 00000000 		.4byte	0
 4313              	.LLST10:
 4314 0237 00000000 		.4byte	.LVL88
 4315 023b 02000000 		.4byte	.LVL89
 4316 023f 0100     		.2byte	0x1
 4317 0241 50       		.byte	0x50
 4318 0242 02000000 		.4byte	.LVL89
 4319 0246 06000000 		.4byte	.LFE8
 4320 024a 0400     		.2byte	0x4
 4321 024c F3       		.byte	0xf3
 4322 024d 01       		.uleb128 0x1
 4323 024e 50       		.byte	0x50
 4324 024f 9F       		.byte	0x9f
 4325 0250 00000000 		.4byte	0
 4326 0254 00000000 		.4byte	0
 4327              	.LLST11:
 4328 0258 00000000 		.4byte	.LFB17
 4329 025c 02000000 		.4byte	.LCFI6
 4330 0260 0200     		.2byte	0x2
 4331 0262 7D       		.byte	0x7d
 4332 0263 00       		.sleb128 0
 4333 0264 02000000 		.4byte	.LCFI6
 4334 0268 AA000000 		.4byte	.LFE17
 4335 026c 0200     		.2byte	0x2
 4336 026e 7D       		.byte	0x7d
 4337 026f 08       		.sleb128 8
 4338 0270 00000000 		.4byte	0
 4339 0274 00000000 		.4byte	0
 4340              	.LLST12:
 4341 0278 0C000000 		.4byte	.LVL91
 4342 027c 16000000 		.4byte	.LVL92
 4343 0280 0100     		.2byte	0x1
 4344 0282 50       		.byte	0x50
 4345 0283 28000000 		.4byte	.LVL94
 4346 0287 32000000 		.4byte	.LVL95
 4347 028b 0100     		.2byte	0x1
 4348 028d 50       		.byte	0x50
 4349 028e 44000000 		.4byte	.LVL97
 4350 0292 4E000000 		.4byte	.LVL98
 4351 0296 0100     		.2byte	0x1
 4352 0298 50       		.byte	0x50
 4353 0299 00000000 		.4byte	0
 4354 029d 00000000 		.4byte	0
 4355              	.LLST13:
 4356 02a1 60000000 		.4byte	.LVL100
 4357 02a5 6A000000 		.4byte	.LVL101
 4358 02a9 0100     		.2byte	0x1
 4359 02ab 50       		.byte	0x50
 4360 02ac 7C000000 		.4byte	.LVL103
 4361 02b0 86000000 		.4byte	.LVL104
ARM GAS  /tmp/ccJsjeCt.s 			page 78


 4362 02b4 0100     		.2byte	0x1
 4363 02b6 50       		.byte	0x50
 4364 02b7 98000000 		.4byte	.LVL106
 4365 02bb A2000000 		.4byte	.LVL107
 4366 02bf 0100     		.2byte	0x1
 4367 02c1 50       		.byte	0x50
 4368 02c2 00000000 		.4byte	0
 4369 02c6 00000000 		.4byte	0
 4370              		.section	.debug_aranges,"",%progbits
 4371 0000 6C000000 		.4byte	0x6c
 4372 0004 0200     		.2byte	0x2
 4373 0006 00000000 		.4byte	.Ldebug_info0
 4374 000a 04       		.byte	0x4
 4375 000b 00       		.byte	0
 4376 000c 0000     		.2byte	0
 4377 000e 0000     		.2byte	0
 4378 0010 00000000 		.4byte	.LFB16
 4379 0014 08000000 		.4byte	.LFE16-.LFB16
 4380 0018 00000000 		.4byte	.LFB12
 4381 001c 08000000 		.4byte	.LFE12-.LFB12
 4382 0020 00000000 		.4byte	.LFB7
 4383 0024 08000000 		.4byte	.LFE7-.LFB7
 4384 0028 00000000 		.4byte	.LFB15
 4385 002c 54020000 		.4byte	.LFE15-.LFB15
 4386 0030 00000000 		.4byte	.LFB14
 4387 0034 28000000 		.4byte	.LFE14-.LFB14
 4388 0038 00000000 		.4byte	.LFB13
 4389 003c 16000000 		.4byte	.LFE13-.LFB13
 4390 0040 00000000 		.4byte	.LFB11
 4391 0044 88000000 		.4byte	.LFE11-.LFB11
 4392 0048 00000000 		.4byte	.LFB10
 4393 004c 06000000 		.4byte	.LFE10-.LFB10
 4394 0050 00000000 		.4byte	.LFB9
 4395 0054 06000000 		.4byte	.LFE9-.LFB9
 4396 0058 00000000 		.4byte	.LFB8
 4397 005c 06000000 		.4byte	.LFE8-.LFB8
 4398 0060 00000000 		.4byte	.LFB17
 4399 0064 AA000000 		.4byte	.LFE17-.LFB17
 4400 0068 00000000 		.4byte	0
 4401 006c 00000000 		.4byte	0
 4402              		.section	.debug_ranges,"",%progbits
 4403              	.Ldebug_ranges0:
 4404 0000 56000000 		.4byte	.LBB4
 4405 0004 A2000000 		.4byte	.LBE4
 4406 0008 A6000000 		.4byte	.LBB7
 4407 000c AA000000 		.4byte	.LBE7
 4408 0010 00000000 		.4byte	0
 4409 0014 00000000 		.4byte	0
 4410 0018 56000000 		.4byte	.LBB5
 4411 001c A2000000 		.4byte	.LBE5
 4412 0020 A6000000 		.4byte	.LBB6
 4413 0024 AA000000 		.4byte	.LBE6
 4414 0028 00000000 		.4byte	0
 4415 002c 00000000 		.4byte	0
 4416 0030 00000000 		.4byte	.LFB16
 4417 0034 08000000 		.4byte	.LFE16
 4418 0038 00000000 		.4byte	.LFB12
ARM GAS  /tmp/ccJsjeCt.s 			page 79


 4419 003c 08000000 		.4byte	.LFE12
 4420 0040 00000000 		.4byte	.LFB7
 4421 0044 08000000 		.4byte	.LFE7
 4422 0048 00000000 		.4byte	.LFB15
 4423 004c 54020000 		.4byte	.LFE15
 4424 0050 00000000 		.4byte	.LFB14
 4425 0054 28000000 		.4byte	.LFE14
 4426 0058 00000000 		.4byte	.LFB13
 4427 005c 16000000 		.4byte	.LFE13
 4428 0060 00000000 		.4byte	.LFB11
 4429 0064 88000000 		.4byte	.LFE11
 4430 0068 00000000 		.4byte	.LFB10
 4431 006c 06000000 		.4byte	.LFE10
 4432 0070 00000000 		.4byte	.LFB9
 4433 0074 06000000 		.4byte	.LFE9
 4434 0078 00000000 		.4byte	.LFB8
 4435 007c 06000000 		.4byte	.LFE8
 4436 0080 00000000 		.4byte	.LFB17
 4437 0084 AA000000 		.4byte	.LFE17
 4438 0088 00000000 		.4byte	0
 4439 008c 00000000 		.4byte	0
 4440              		.section	.debug_line,"",%progbits
 4441              	.Ldebug_line0:
 4442 0000 DF020000 		.section	.debug_str,"MS",%progbits,1
 4442      0200AB01 
 4442      00000201 
 4442      FB0E0D00 
 4442      01010101 
 4443              	.LASF83:
 4444 0000 7466756E 		.ascii	"tfunc_t\000"
 4444      635F7400 
 4445              	.LASF90:
 4446 0008 65767432 		.ascii	"evt2_setup\000"
 4446      5F736574 
 4446      757000
 4447              	.LASF39:
 4448 0013 705F6D73 		.ascii	"p_msg\000"
 4448      6700
 4449              	.LASF2:
 4450 0019 73697A65 		.ascii	"size_t\000"
 4450      5F7400
 4451              	.LASF78:
 4452 0020 7264796D 		.ascii	"rdymsg\000"
 4452      736700
 4453              	.LASF98:
 4454 0027 76746C69 		.ascii	"vtlist\000"
 4454      737400
 4455              	.LASF117:
 4456 002e 63684576 		.ascii	"chEvtSignal\000"
 4456      74536967 
 4456      6E616C00 
 4457              	.LASF12:
 4458 003a 6C6F6E67 		.ascii	"long long unsigned int\000"
 4458      206C6F6E 
 4458      6720756E 
 4458      7369676E 
 4458      65642069 
ARM GAS  /tmp/ccJsjeCt.s 			page 80


 4459              	.LASF106:
 4460 0051 63684576 		.ascii	"chEvtAddEvents\000"
 4460      74416464 
 4460      4576656E 
 4460      747300
 4461              	.LASF79:
 4462 0060 65786974 		.ascii	"exitcode\000"
 4462      636F6465 
 4462      00
 4463              	.LASF122:
 4464 0069 63684576 		.ascii	"chEvtWaitAnyTimeout\000"
 4464      74576169 
 4464      74416E79 
 4464      54696D65 
 4464      6F757400 
 4465              	.LASF27:
 4466 007d 705F7072 		.ascii	"p_prio\000"
 4466      696F00
 4467              	.LASF92:
 4468 0084 65767432 		.ascii	"evt2_execute\000"
 4468      5F657865 
 4468      63757465 
 4468      00
 4469              	.LASF11:
 4470 0091 6C6F6E67 		.ascii	"long long int\000"
 4470      206C6F6E 
 4470      6720696E 
 4470      7400
 4471              	.LASF1:
 4472 009f 7369676E 		.ascii	"signed char\000"
 4472      65642063 
 4472      68617200 
 4473              	.LASF123:
 4474 00ab 63684576 		.ascii	"chEvtWaitAllTimeout\000"
 4474      74576169 
 4474      74416C6C 
 4474      54696D65 
 4474      6F757400 
 4475              	.LASF43:
 4476 00bf 705F6D70 		.ascii	"p_mpool\000"
 4476      6F6F6C00 
 4477              	.LASF13:
 4478 00c7 626F6F6C 		.ascii	"bool_t\000"
 4478      5F7400
 4479              	.LASF67:
 4480 00ce 6D5F7175 		.ascii	"m_queue\000"
 4480      65756500 
 4481              	.LASF120:
 4482 00d6 74657374 		.ascii	"test_emit_token\000"
 4482      5F656D69 
 4482      745F746F 
 4482      6B656E00 
 4483              	.LASF17:
 4484 00e6 74736C69 		.ascii	"tslices_t\000"
 4484      6365735F 
 4484      7400
 4485              	.LASF8:
ARM GAS  /tmp/ccJsjeCt.s 			page 81


 4486 00f0 6C6F6E67 		.ascii	"long int\000"
 4486      20696E74 
 4486      00
 4487              	.LASF93:
 4488 00f9 74617267 		.ascii	"target_time\000"
 4488      65745F74 
 4488      696D6500 
 4489              	.LASF15:
 4490 0105 74737461 		.ascii	"tstate_t\000"
 4490      74655F74 
 4490      00
 4491              	.LASF110:
 4492 010e 5F746573 		.ascii	"_test_assert_time_window\000"
 4492      745F6173 
 4492      73657274 
 4492      5F74696D 
 4492      655F7769 
 4493              	.LASF102:
 4494 0127 74657374 		.ascii	"testevt2\000"
 4494      65767432 
 4494      00
 4495              	.LASF111:
 4496 0130 63684576 		.ascii	"chEvtWaitAny\000"
 4496      74576169 
 4496      74416E79 
 4496      00
 4497              	.LASF103:
 4498 013d 74657374 		.ascii	"testevt3\000"
 4498      65767433 
 4498      00
 4499              	.LASF29:
 4500 0146 705F6E65 		.ascii	"p_newer\000"
 4500      77657200 
 4501              	.LASF62:
 4502 014e 725F6E65 		.ascii	"r_newer\000"
 4502      77657200 
 4503              	.LASF46:
 4504 0156 72656761 		.ascii	"regarm_t\000"
 4504      726D5F74 
 4504      00
 4505              	.LASF53:
 4506 015f 76745F70 		.ascii	"vt_prev\000"
 4506      72657600 
 4507              	.LASF115:
 4508 0167 63684576 		.ascii	"chEvtBroadcastFlags\000"
 4508      7442726F 
 4508      61646361 
 4508      7374466C 
 4508      61677300 
 4509              	.LASF20:
 4510 017b 6576656E 		.ascii	"eventid_t\000"
 4510      7469645F 
 4510      7400
 4511              	.LASF75:
 4512 0185 4576656E 		.ascii	"EventSource\000"
 4512      74536F75 
 4512      72636500 
ARM GAS  /tmp/ccJsjeCt.s 			page 82


 4513              	.LASF77:
 4514 0191 65766861 		.ascii	"evhandler_t\000"
 4514      6E646C65 
 4514      725F7400 
 4515              	.LASF0:
 4516 019d 756E7369 		.ascii	"unsigned int\000"
 4516      676E6564 
 4516      20696E74 
 4516      00
 4517              	.LASF52:
 4518 01aa 76745F6E 		.ascii	"vt_next\000"
 4518      65787400 
 4519              	.LASF10:
 4520 01b2 6C6F6E67 		.ascii	"long unsigned int\000"
 4520      20756E73 
 4520      69676E65 
 4520      6420696E 
 4520      7400
 4521              	.LASF105:
 4522 01c4 63684576 		.ascii	"chEvtGetAndClearEvents\000"
 4522      74476574 
 4522      416E6443 
 4522      6C656172 
 4522      4576656E 
 4523              	.LASF87:
 4524 01db 74656172 		.ascii	"teardown\000"
 4524      646F776E 
 4524      00
 4525              	.LASF104:
 4526 01e4 70617474 		.ascii	"patternevt\000"
 4526      65726E65 
 4526      767400
 4527              	.LASF85:
 4528 01ef 6E616D65 		.ascii	"name\000"
 4528      00
 4529              	.LASF48:
 4530 01f4 636F6E74 		.ascii	"context\000"
 4530      65787400 
 4531              	.LASF6:
 4532 01fc 73686F72 		.ascii	"short unsigned int\000"
 4532      7420756E 
 4532      7369676E 
 4532      65642069 
 4532      6E7400
 4533              	.LASF113:
 4534 020f 63684576 		.ascii	"chEvtRegisterMask\000"
 4534      74526567 
 4534      69737465 
 4534      724D6173 
 4534      6B00
 4535              	.LASF19:
 4536 0221 6D73675F 		.ascii	"msg_t\000"
 4536      7400
 4537              	.LASF71:
 4538 0227 656C5F6E 		.ascii	"el_next\000"
 4538      65787400 
 4539              	.LASF114:
ARM GAS  /tmp/ccJsjeCt.s 			page 83


 4540 022f 63684576 		.ascii	"chEvtUnregister\000"
 4540      74556E72 
 4540      65676973 
 4540      74657200 
 4541              	.LASF14:
 4542 023f 746D6F64 		.ascii	"tmode_t\000"
 4542      655F7400 
 4543              	.LASF45:
 4544 0247 54687265 		.ascii	"ThreadsList\000"
 4544      6164734C 
 4544      69737400 
 4545              	.LASF21:
 4546 0253 6576656E 		.ascii	"eventmask_t\000"
 4546      746D6173 
 4546      6B5F7400 
 4547              	.LASF126:
 4548 025f 2F686F6D 		.ascii	"/home/kwilson/Sandbox/ChibiOS_2.5.1/demos/ARMCM4-ST"
 4548      652F6B77 
 4548      696C736F 
 4548      6E2F5361 
 4548      6E64626F 
 4549 0292 4D333246 		.ascii	"M32F407-LWIP-FATFS-USB\000"
 4549      3430372D 
 4549      4C574950 
 4549      2D464154 
 4549      46532D55 
 4550              	.LASF66:
 4551 02a9 4D757465 		.ascii	"Mutex\000"
 4551      7800
 4552              	.LASF109:
 4553 02af 63685468 		.ascii	"chThdCreateStatic\000"
 4553      64437265 
 4553      61746553 
 4553      74617469 
 4553      6300
 4554              	.LASF54:
 4555 02c1 76745F74 		.ascii	"vt_time\000"
 4555      696D6500 
 4556              	.LASF91:
 4557 02c9 65767431 		.ascii	"evt1_setup\000"
 4557      5F736574 
 4557      757000
 4558              	.LASF49:
 4559 02d4 73697A65 		.ascii	"sizetype\000"
 4559      74797065 
 4559      00
 4560              	.LASF55:
 4561 02dd 76745F66 		.ascii	"vt_func\000"
 4561      756E6300 
 4562              	.LASF118:
 4563 02e5 63684576 		.ascii	"chEvtDispatch\000"
 4563      74446973 
 4563      70617463 
 4563      6800
 4564              	.LASF89:
 4565 02f3 65767433 		.ascii	"evt3_setup\000"
 4565      5F736574 
ARM GAS  /tmp/ccJsjeCt.s 			page 84


 4565      757000
 4566              	.LASF129:
 4567 02fe 74657374 		.ascii	"test_wait_threads\000"
 4567      5F776169 
 4567      745F7468 
 4567      72656164 
 4567      7300
 4568              	.LASF30:
 4569 0310 705F6F6C 		.ascii	"p_older\000"
 4569      64657200 
 4570              	.LASF95:
 4571 0318 74687265 		.ascii	"thread1\000"
 4571      61643100 
 4572              	.LASF94:
 4573 0320 74687265 		.ascii	"thread2\000"
 4573      61643200 
 4574              	.LASF61:
 4575 0328 725F6374 		.ascii	"r_ctx\000"
 4575      7800
 4576              	.LASF44:
 4577 032e 54687265 		.ascii	"ThreadsQueue\000"
 4577      61647351 
 4577      75657565 
 4577      00
 4578              	.LASF86:
 4579 033b 73657475 		.ascii	"setup\000"
 4579      7000
 4580              	.LASF119:
 4581 0341 5F746573 		.ascii	"_test_assert_sequence\000"
 4581      745F6173 
 4581      73657274 
 4581      5F736571 
 4581      75656E63 
 4582              	.LASF124:
 4583 0357 474E5520 		.ascii	"GNU C 4.7.2\000"
 4583      4320342E 
 4583      372E3200 
 4584              	.LASF64:
 4585 0363 725F6375 		.ascii	"r_current\000"
 4585      7272656E 
 4585      7400
 4586              	.LASF63:
 4587 036d 725F6F6C 		.ascii	"r_older\000"
 4587      64657200 
 4588              	.LASF73:
 4589 0375 656C5F6D 		.ascii	"el_mask\000"
 4589      61736B00 
 4590              	.LASF16:
 4591 037d 74726566 		.ascii	"trefs_t\000"
 4591      735F7400 
 4592              	.LASF26:
 4593 0385 705F7072 		.ascii	"p_prev\000"
 4593      657600
 4594              	.LASF88:
 4595 038c 65786563 		.ascii	"execute\000"
 4595      75746500 
 4596              	.LASF18:
ARM GAS  /tmp/ccJsjeCt.s 			page 85


 4597 0394 74707269 		.ascii	"tprio_t\000"
 4597      6F5F7400 
 4598              	.LASF7:
 4599 039c 696E7433 		.ascii	"int32_t\000"
 4599      325F7400 
 4600              	.LASF4:
 4601 03a4 756E7369 		.ascii	"unsigned char\000"
 4601      676E6564 
 4601      20636861 
 4601      7200
 4602              	.LASF107:
 4603 03b2 63684576 		.ascii	"chEvtWaitOne\000"
 4603      74576169 
 4603      744F6E65 
 4603      00
 4604              	.LASF72:
 4605 03bf 656C5F6C 		.ascii	"el_listener\000"
 4605      69737465 
 4605      6E657200 
 4606              	.LASF127:
 4607 03cb 65767433 		.ascii	"evt3_execute\000"
 4607      5F657865 
 4607      63757465 
 4607      00
 4608              	.LASF74:
 4609 03d8 656C5F66 		.ascii	"el_flags\000"
 4609      6C616773 
 4609      00
 4610              	.LASF41:
 4611 03e1 705F6D74 		.ascii	"p_mtxlist\000"
 4611      786C6973 
 4611      7400
 4612              	.LASF5:
 4613 03eb 73686F72 		.ascii	"short int\000"
 4613      7420696E 
 4613      7400
 4614              	.LASF32:
 4615 03f5 705F7374 		.ascii	"p_state\000"
 4615      61746500 
 4616              	.LASF35:
 4617 03fd 705F7072 		.ascii	"p_preempt\000"
 4617      65656D70 
 4617      7400
 4618              	.LASF100:
 4619 0407 74687265 		.ascii	"threads\000"
 4619      61647300 
 4620              	.LASF60:
 4621 040f 725F7072 		.ascii	"r_prio\000"
 4621      696F00
 4622              	.LASF81:
 4623 0416 65776D61 		.ascii	"ewmask\000"
 4623      736B00
 4624              	.LASF25:
 4625 041d 705F6E65 		.ascii	"p_next\000"
 4625      787400
 4626              	.LASF33:
 4627 0424 705F666C 		.ascii	"p_flags\000"
ARM GAS  /tmp/ccJsjeCt.s 			page 86


 4627      61677300 
 4628              	.LASF24:
 4629 042c 54687265 		.ascii	"Thread\000"
 4629      616400
 4630              	.LASF84:
 4631 0433 74657374 		.ascii	"testcase\000"
 4631      63617365 
 4631      00
 4632              	.LASF40:
 4633 043c 705F6570 		.ascii	"p_epending\000"
 4633      656E6469 
 4633      6E6700
 4634              	.LASF125:
 4635 0447 2E2E2F2E 		.ascii	"../../test/testevt.c\000"
 4635      2E2F7465 
 4635      73742F74 
 4635      65737465 
 4635      76742E63 
 4636              	.LASF101:
 4637 045c 74657374 		.ascii	"testevt1\000"
 4637      65767431 
 4637      00
 4638              	.LASF97:
 4639 0465 6576686E 		.ascii	"evhndl\000"
 4639      646C00
 4640              	.LASF9:
 4641 046c 75696E74 		.ascii	"uint32_t\000"
 4641      33325F74 
 4641      00
 4642              	.LASF59:
 4643 0475 725F7175 		.ascii	"r_queue\000"
 4643      65756500 
 4644              	.LASF51:
 4645 047d 56697274 		.ascii	"VirtualTimer\000"
 4645      75616C54 
 4645      696D6572 
 4645      00
 4646              	.LASF82:
 4647 048a 63686172 		.ascii	"char\000"
 4647      00
 4648              	.LASF69:
 4649 048f 6D5F6E65 		.ascii	"m_next\000"
 4649      787400
 4650              	.LASF23:
 4651 0496 73797374 		.ascii	"systime_t\000"
 4651      696D655F 
 4651      7400
 4652              	.LASF42:
 4653 04a0 705F7265 		.ascii	"p_realprio\000"
 4653      616C7072 
 4653      696F00
 4654              	.LASF50:
 4655 04ab 76746675 		.ascii	"vtfunc_t\000"
 4655      6E635F74 
 4655      00
 4656              	.LASF36:
 4657 04b4 705F7469 		.ascii	"p_time\000"
ARM GAS  /tmp/ccJsjeCt.s 			page 87


 4657      6D6500
 4658              	.LASF47:
 4659 04bb 696E7463 		.ascii	"intctx\000"
 4659      747800
 4660              	.LASF38:
 4661 04c2 705F6D73 		.ascii	"p_msgqueue\000"
 4661      67717565 
 4661      756500
 4662              	.LASF112:
 4663 04cd 63684576 		.ascii	"chEvtWaitAll\000"
 4663      74576169 
 4663      74416C6C 
 4663      00
 4664              	.LASF56:
 4665 04da 76745F70 		.ascii	"vt_par\000"
 4665      617200
 4666              	.LASF22:
 4667 04e1 666C6167 		.ascii	"flagsmask_t\000"
 4667      736D6173 
 4667      6B5F7400 
 4668              	.LASF116:
 4669 04ed 63685468 		.ascii	"chThdSleep\000"
 4669      64536C65 
 4669      657000
 4670              	.LASF34:
 4671 04f8 705F7265 		.ascii	"p_refs\000"
 4671      667300
 4672              	.LASF65:
 4673 04ff 52656164 		.ascii	"ReadyList\000"
 4673      794C6973 
 4673      7400
 4674              	.LASF99:
 4675 0509 726C6973 		.ascii	"rlist\000"
 4675      7400
 4676              	.LASF3:
 4677 050f 75696E74 		.ascii	"uint8_t\000"
 4677      385F7400 
 4678              	.LASF70:
 4679 0517 4576656E 		.ascii	"EventListener\000"
 4679      744C6973 
 4679      74656E65 
 4679      7200
 4680              	.LASF121:
 4681 0525 63684576 		.ascii	"chEvtWaitOneTimeout\000"
 4681      74576169 
 4681      744F6E65 
 4681      54696D65 
 4681      6F757400 
 4682              	.LASF80:
 4683 0539 77746F62 		.ascii	"wtobjp\000"
 4683      6A7000
 4684              	.LASF31:
 4685 0540 705F6E61 		.ascii	"p_name\000"
 4685      6D6500
 4686              	.LASF108:
 4687 0547 5F746573 		.ascii	"_test_assert\000"
 4687      745F6173 
ARM GAS  /tmp/ccJsjeCt.s 			page 88


 4687      73657274 
 4687      00
 4688              	.LASF57:
 4689 0554 76745F73 		.ascii	"vt_systime\000"
 4689      79737469 
 4689      6D6500
 4690              	.LASF76:
 4691 055f 65735F6E 		.ascii	"es_next\000"
 4691      65787400 
 4692              	.LASF58:
 4693 0567 56544C69 		.ascii	"VTList\000"
 4693      737400
 4694              	.LASF68:
 4695 056e 6D5F6F77 		.ascii	"m_owner\000"
 4695      6E657200 
 4696              	.LASF128:
 4697 0576 74657374 		.ascii	"test_wait_tick\000"
 4697      5F776169 
 4697      745F7469 
 4697      636B00
 4698              	.LASF96:
 4699 0585 65767431 		.ascii	"evt1_execute\000"
 4699      5F657865 
 4699      63757465 
 4699      00
 4700              	.LASF28:
 4701 0592 705F6374 		.ascii	"p_ctx\000"
 4701      7800
 4702              	.LASF37:
 4703 0598 705F7761 		.ascii	"p_waiting\000"
 4703      6974696E 
 4703      6700
 4704              		.ident	"GCC: (crosstool-NG 1.17.0 - PSAS ST32F4 GFE) 4.7.2"
ARM GAS  /tmp/ccJsjeCt.s 			page 89


DEFINED SYMBOLS
                            *ABS*:0000000000000000 testevt.c
     /tmp/ccJsjeCt.s:21     .text.evt3_setup:0000000000000000 $t
     /tmp/ccJsjeCt.s:26     .text.evt3_setup:0000000000000000 evt3_setup
     /tmp/ccJsjeCt.s:44     .text.evt2_setup:0000000000000000 $t
     /tmp/ccJsjeCt.s:49     .text.evt2_setup:0000000000000000 evt2_setup
     /tmp/ccJsjeCt.s:66     .text.evt1_setup:0000000000000000 $t
     /tmp/ccJsjeCt.s:71     .text.evt1_setup:0000000000000000 evt1_setup
     /tmp/ccJsjeCt.s:88     .text.evt2_execute:0000000000000000 $t
     /tmp/ccJsjeCt.s:93     .text.evt2_execute:0000000000000000 evt2_execute
     /tmp/ccJsjeCt.s:432    .text.evt2_execute:0000000000000230 $d
     /tmp/ccJsjeCt.s:493    .text.thread1:0000000000000000 thread1
     /tmp/ccJsjeCt.s:450    .text.thread2:0000000000000000 thread2
     /tmp/ccJsjeCt.s:445    .text.thread2:0000000000000000 $t
     /tmp/ccJsjeCt.s:878    .data.es1:0000000000000000 .LANCHOR0
     /tmp/ccJsjeCt.s:885    .data.es2:0000000000000000 .LANCHOR1
     /tmp/ccJsjeCt.s:488    .text.thread1:0000000000000000 $t
     /tmp/ccJsjeCt.s:524    .text.evt1_execute:0000000000000000 $t
     /tmp/ccJsjeCt.s:529    .text.evt1_execute:0000000000000000 evt1_execute
     /tmp/ccJsjeCt.s:619    .text.evt1_execute:000000000000007c $d
     /tmp/ccJsjeCt.s:626    .text.h3:0000000000000000 $t
     /tmp/ccJsjeCt.s:631    .text.h3:0000000000000000 h3
     /tmp/ccJsjeCt.s:648    .text.h2:0000000000000000 $t
     /tmp/ccJsjeCt.s:653    .text.h2:0000000000000000 h2
     /tmp/ccJsjeCt.s:670    .text.h1:0000000000000000 $t
     /tmp/ccJsjeCt.s:675    .text.h1:0000000000000000 h1
     /tmp/ccJsjeCt.s:692    .text.evt3_execute:0000000000000000 $t
     /tmp/ccJsjeCt.s:697    .text.evt3_execute:0000000000000000 evt3_execute
     /tmp/ccJsjeCt.s:820    .rodata.patternevt:0000000000000000 patternevt
     /tmp/ccJsjeCt.s:871    .rodata.testevt3:0000000000000000 testevt3
     /tmp/ccJsjeCt.s:829    .rodata.testevt2:0000000000000000 testevt2
     /tmp/ccJsjeCt.s:853    .rodata.testevt1:0000000000000000 testevt1
     /tmp/ccJsjeCt.s:817    .rodata.patternevt:0000000000000000 $d
     /tmp/ccJsjeCt.s:826    .rodata.testevt2:0000000000000000 $d
     /tmp/ccJsjeCt.s:835    .rodata.str1.4:0000000000000000 $d
     /tmp/ccJsjeCt.s:850    .rodata.testevt1:0000000000000000 $d
     /tmp/ccJsjeCt.s:859    .rodata.evhndl:0000000000000000 $d
     /tmp/ccJsjeCt.s:863    .rodata.evhndl:0000000000000000 evhndl
     /tmp/ccJsjeCt.s:868    .rodata.testevt3:0000000000000000 $d
     /tmp/ccJsjeCt.s:877    .data.es1:0000000000000000 $d
     /tmp/ccJsjeCt.s:881    .data.es1:0000000000000000 es1
     /tmp/ccJsjeCt.s:884    .data.es2:0000000000000000 $d
     /tmp/ccJsjeCt.s:888    .data.es2:0000000000000000 es2
                     .debug_frame:0000000000000010 $d
     /tmp/ccJsjeCt.s:444    .text.evt2_execute:0000000000000254 $t
     /tmp/ccJsjeCt.s:625    .text.evt1_execute:0000000000000088 $t

UNDEFINED SYMBOLS
chEvtGetAndClearEvents
chEvtAddEvents
chEvtWaitOne
_test_assert
test_wait_tick
chThdCreateStatic
_test_assert_time_window
test_wait_threads
chEvtWaitAny
ARM GAS  /tmp/ccJsjeCt.s 			page 90


chEvtRegisterMask
chEvtWaitAll
chEvtUnregister
rlist
vtlist
threads
wa
chEvtBroadcastFlags
chThdSleep
chEvtSignal
chEvtDispatch
_test_assert_sequence
test_emit_token
chEvtWaitOneTimeout
chEvtWaitAnyTimeout
chEvtWaitAllTimeout
