ARM GAS  /tmp/ccpWmyq1.s 			page 1


   1              		.syntax unified
   2              		.cpu cortex-m4
   3              		.eabi_attribute 27, 3
   4              		.eabi_attribute 28, 1
   5              		.fpu fpv4-sp-d16
   6              		.eabi_attribute 20, 1
   7              		.eabi_attribute 21, 1
   8              		.eabi_attribute 23, 3
   9              		.eabi_attribute 24, 1
  10              		.eabi_attribute 25, 1
  11              		.eabi_attribute 26, 1
  12              		.eabi_attribute 30, 2
  13              		.eabi_attribute 34, 1
  14              		.eabi_attribute 18, 4
  15              		.thumb
  16              		.file	"timers.c"
  17              		.text
  18              	.Ltext0:
  19              		.cfi_sections	.debug_frame
  20              		.section	.text.sys_timeout,"ax",%progbits
  21              		.align	2
  22              		.p2align 4,,15
  23              		.global	sys_timeout
  24              		.thumb
  25              		.thumb_func
  26              		.type	sys_timeout, %function
  27              	sys_timeout:
  28              	.LFB12:
  29              		.file 1 "../../ext/lwip/src/core/timers.c"
  30              		.loc 1 266 0
  31              		.cfi_startproc
  32              		@ args = 0, pretend = 0, frame = 0
  33              		@ frame_needed = 0, uses_anonymous_args = 0
  34              	.LVL0:
  35 0000 70B5     		push	{r4, r5, r6, lr}
  36              	.LCFI0:
  37              		.cfi_def_cfa_offset 16
  38              		.cfi_offset 4, -16
  39              		.cfi_offset 5, -12
  40              		.cfi_offset 6, -8
  41              		.cfi_offset 14, -4
  42              		.loc 1 266 0
  43 0002 0446     		mov	r4, r0
  44              		.loc 1 269 0
  45 0004 0B20     		movs	r0, #11
  46              	.LVL1:
  47              		.loc 1 266 0
  48 0006 0E46     		mov	r6, r1
  49 0008 1546     		mov	r5, r2
  50              		.loc 1 269 0
  51 000a FFF7FEFF 		bl	memp_malloc
  52              	.LVL2:
  53              		.loc 1 270 0
  54 000e E0B1     		cbz	r0, .L17
  55              		.loc 1 284 0
  56 0010 104B     		ldr	r3, .L19
  57              		.loc 1 275 0
ARM GAS  /tmp/ccpWmyq1.s 			page 2


  58 0012 8660     		str	r6, [r0, #8]
  59              		.loc 1 284 0
  60 0014 1968     		ldr	r1, [r3, #0]
  61              		.loc 1 276 0
  62 0016 C560     		str	r5, [r0, #12]
  63              		.loc 1 274 0
  64 0018 0022     		movs	r2, #0
  65              		.loc 1 277 0
  66 001a 80E81400 		stmia	r0, {r2, r4}
  67              		.loc 1 284 0
  68 001e 29B1     		cbz	r1, .L15
  69              		.loc 1 289 0
  70 0020 4A68     		ldr	r2, [r1, #4]
  71 0022 9442     		cmp	r4, r2
  72 0024 05D2     		bcs	.L12
  73              		.loc 1 290 0
  74 0026 141B     		subs	r4, r2, r4
  75              	.LVL3:
  76 0028 4C60     		str	r4, [r1, #4]
  77              		.loc 1 291 0
  78 002a 0160     		str	r1, [r0, #0]
  79              	.L15:
  80              		.loc 1 292 0
  81 002c 1860     		str	r0, [r3, #0]
  82 002e 70BD     		pop	{r4, r5, r6, pc}
  83              	.LVL4:
  84              	.L18:
  85              		.loc 1 296 0
  86 0030 1946     		mov	r1, r3
  87              	.LVL5:
  88              	.L12:
  89              		.loc 1 296 0 is_stmt 0 discriminator 1
  90 0032 0B68     		ldr	r3, [r1, #0]
  91              		.loc 1 295 0 is_stmt 1 discriminator 1
  92 0034 A41A     		subs	r4, r4, r2
  93 0036 4460     		str	r4, [r0, #4]
  94              		.loc 1 296 0 discriminator 1
  95 0038 23B1     		cbz	r3, .L8
  96 003a 5A68     		ldr	r2, [r3, #4]
  97 003c 9442     		cmp	r4, r2
  98 003e F7D2     		bcs	.L18
  99              		.loc 1 298 0
 100 0040 141B     		subs	r4, r2, r4
 101 0042 5C60     		str	r4, [r3, #4]
 102              	.L8:
 103              		.loc 1 300 0
 104 0044 0360     		str	r3, [r0, #0]
 105              		.loc 1 301 0
 106 0046 0860     		str	r0, [r1, #0]
 107              		.loc 1 302 0
 108 0048 70BD     		pop	{r4, r5, r6, pc}
 109              	.LVL6:
 110              	.L17:
 111              		.loc 1 306 0 discriminator 1
 112 004a BDE87040 		pop	{r4, r5, r6, lr}
 113              		.loc 1 271 0 discriminator 1
 114 004e FFF7FEBF 		b	port_halt
ARM GAS  /tmp/ccpWmyq1.s 			page 3


 115              	.LVL7:
 116              	.L20:
 117 0052 00BF     		.align	2
 118              	.L19:
 119 0054 00000000 		.word	.LANCHOR0
 120              		.cfi_endproc
 121              	.LFE12:
 122              		.size	sys_timeout, .-sys_timeout
 123 0058 AFF30080 		.section	.text.sys_timeouts_init,"ax",%progbits
 123      AFF30080 
 124              		.align	2
 125              		.p2align 4,,15
 126              		.global	sys_timeouts_init
 127              		.thumb
 128              		.thumb_func
 129              		.type	sys_timeouts_init, %function
 130              	sys_timeouts_init:
 131              	.LFB11:
 132              		.loc 1 222 0
 133              		.cfi_startproc
 134              		@ args = 0, pretend = 0, frame = 0
 135              		@ frame_needed = 0, uses_anonymous_args = 0
 136 0000 08B5     		push	{r3, lr}
 137              	.LCFI1:
 138              		.cfi_def_cfa_offset 8
 139              		.cfi_offset 3, -8
 140              		.cfi_offset 14, -4
 141              		.loc 1 224 0
 142 0002 40F20001 		movw	r1, #:lower16:ip_reass_timer
 143 0006 0022     		movs	r2, #0
 144 0008 4FF47A70 		mov	r0, #1000
 145 000c C0F20001 		movt	r1, #:upper16:ip_reass_timer
 146 0010 FFF7FEFF 		bl	sys_timeout
 147              	.LVL8:
 148              		.loc 1 227 0
 149 0014 40F20001 		movw	r1, #:lower16:arp_timer
 150 0018 41F28830 		movw	r0, #5000
 151 001c C0F20001 		movt	r1, #:upper16:arp_timer
 152 0020 0022     		movs	r2, #0
 153              		.loc 1 247 0
 154 0022 BDE80840 		pop	{r3, lr}
 155              		.loc 1 227 0
 156 0026 FFF7FEBF 		b	sys_timeout
 157              	.LVL9:
 158              		.cfi_endproc
 159              	.LFE11:
 160              		.size	sys_timeouts_init, .-sys_timeouts_init
 161              		.section	.text.arp_timer,"ax",%progbits
 162              		.align	2
 163              		.p2align 4,,15
 164              		.thumb
 165              		.thumb_func
 166              		.type	arp_timer, %function
 167              	arp_timer:
 168              	.LFB10:
 169              		.loc 1 134 0
 170              		.cfi_startproc
ARM GAS  /tmp/ccpWmyq1.s 			page 4


 171              		@ args = 0, pretend = 0, frame = 0
 172              		@ frame_needed = 0, uses_anonymous_args = 0
 173              	.LVL10:
 174 0000 08B5     		push	{r3, lr}
 175              	.LCFI2:
 176              		.cfi_def_cfa_offset 8
 177              		.cfi_offset 3, -8
 178              		.cfi_offset 14, -4
 179              		.loc 1 137 0
 180 0002 FFF7FEFF 		bl	etharp_tmr
 181              	.LVL11:
 182              		.loc 1 138 0
 183 0006 40F20001 		movw	r1, #:lower16:arp_timer
 184 000a 41F28830 		movw	r0, #5000
 185 000e C0F20001 		movt	r1, #:upper16:arp_timer
 186 0012 0022     		movs	r2, #0
 187              		.loc 1 139 0
 188 0014 BDE80840 		pop	{r3, lr}
 189              		.loc 1 138 0
 190 0018 FFF7FEBF 		b	sys_timeout
 191              	.LVL12:
 192              		.cfi_endproc
 193              	.LFE10:
 194              		.size	arp_timer, .-arp_timer
 195 001c AFF30080 		.section	.text.ip_reass_timer,"ax",%progbits
 196              		.align	2
 197              		.p2align 4,,15
 198              		.thumb
 199              		.thumb_func
 200              		.type	ip_reass_timer, %function
 201              	ip_reass_timer:
 202              	.LFB9:
 203              		.loc 1 118 0
 204              		.cfi_startproc
 205              		@ args = 0, pretend = 0, frame = 0
 206              		@ frame_needed = 0, uses_anonymous_args = 0
 207              	.LVL13:
 208 0000 08B5     		push	{r3, lr}
 209              	.LCFI3:
 210              		.cfi_def_cfa_offset 8
 211              		.cfi_offset 3, -8
 212              		.cfi_offset 14, -4
 213              		.loc 1 121 0
 214 0002 FFF7FEFF 		bl	ip_reass_tmr
 215              	.LVL14:
 216              		.loc 1 122 0
 217 0006 40F20001 		movw	r1, #:lower16:ip_reass_timer
 218 000a 4FF47A70 		mov	r0, #1000
 219 000e C0F20001 		movt	r1, #:upper16:ip_reass_timer
 220 0012 0022     		movs	r2, #0
 221              		.loc 1 123 0
 222 0014 BDE80840 		pop	{r3, lr}
 223              		.loc 1 122 0
 224 0018 FFF7FEBF 		b	sys_timeout
 225              	.LVL15:
 226              		.cfi_endproc
 227              	.LFE9:
ARM GAS  /tmp/ccpWmyq1.s 			page 5


 228              		.size	ip_reass_timer, .-ip_reass_timer
 229 001c AFF30080 		.section	.text.tcp_timer_needed,"ax",%progbits
 230              		.align	2
 231              		.p2align 4,,15
 232              		.global	tcp_timer_needed
 233              		.thumb
 234              		.thumb_func
 235              		.type	tcp_timer_needed, %function
 236              	tcp_timer_needed:
 237              	.LFB8:
 238              		.loc 1 100 0
 239              		.cfi_startproc
 240              		@ args = 0, pretend = 0, frame = 0
 241              		@ frame_needed = 0, uses_anonymous_args = 0
 242              		@ link register save eliminated.
 243              		.loc 1 102 0
 244 0000 084B     		ldr	r3, .L31
 245 0002 1A68     		ldr	r2, [r3, #0]
 246 0004 6AB9     		cbnz	r2, .L24
 247              		.loc 1 102 0 is_stmt 0 discriminator 1
 248 0006 084A     		ldr	r2, .L31+4
 249 0008 1268     		ldr	r2, [r2, #0]
 250 000a 32B1     		cbz	r2, .L30
 251              	.L26:
 252              		.loc 1 104 0 is_stmt 1
 253 000c 0122     		movs	r2, #1
 254              		.loc 1 105 0
 255 000e 0749     		ldr	r1, .L31+8
 256              		.loc 1 104 0
 257 0010 1A60     		str	r2, [r3, #0]
 258              		.loc 1 105 0
 259 0012 FA20     		movs	r0, #250
 260 0014 0022     		movs	r2, #0
 261              		.loc 1 107 0
 262              		.loc 1 105 0
 263 0016 FFF7FEBF 		b	sys_timeout
 264              	.LVL16:
 265              	.L30:
 266              		.loc 1 102 0 discriminator 1
 267 001a 054A     		ldr	r2, .L31+12
 268 001c 1268     		ldr	r2, [r2, #0]
 269 001e 002A     		cmp	r2, #0
 270 0020 F4D1     		bne	.L26
 271              	.L24:
 272 0022 7047     		bx	lr
 273              	.L32:
 274              		.align	2
 275              	.L31:
 276 0024 00000000 		.word	.LANCHOR1
 277 0028 00000000 		.word	tcp_active_pcbs
 278 002c 00000000 		.word	tcpip_tcp_timer
 279 0030 00000000 		.word	tcp_tw_pcbs
 280              		.cfi_endproc
 281              	.LFE8:
 282              		.size	tcp_timer_needed, .-tcp_timer_needed
 283 0034 AFF30080 		.section	.text.tcpip_tcp_timer,"ax",%progbits
 283      AFF30080 
ARM GAS  /tmp/ccpWmyq1.s 			page 6


 283      AFF30080 
 284              		.align	2
 285              		.p2align 4,,15
 286              		.thumb
 287              		.thumb_func
 288              		.type	tcpip_tcp_timer, %function
 289              	tcpip_tcp_timer:
 290              	.LFB7:
 291              		.loc 1 78 0
 292              		.cfi_startproc
 293              		@ args = 0, pretend = 0, frame = 0
 294              		@ frame_needed = 0, uses_anonymous_args = 0
 295              	.LVL17:
 296 0000 08B5     		push	{r3, lr}
 297              	.LCFI4:
 298              		.cfi_def_cfa_offset 8
 299              		.cfi_offset 3, -8
 300              		.cfi_offset 14, -4
 301              		.loc 1 82 0
 302 0002 FFF7FEFF 		bl	tcp_tmr
 303              	.LVL18:
 304              		.loc 1 84 0
 305 0006 084B     		ldr	r3, .L37
 306 0008 1B68     		ldr	r3, [r3, #0]
 307 000a 33B1     		cbz	r3, .L36
 308              	.L34:
 309              		.loc 1 86 0
 310 000c 0749     		ldr	r1, .L37+4
 311 000e FA20     		movs	r0, #250
 312 0010 0022     		movs	r2, #0
 313              		.loc 1 91 0
 314 0012 BDE80840 		pop	{r3, lr}
 315              		.loc 1 86 0
 316 0016 FFF7FEBF 		b	sys_timeout
 317              	.LVL19:
 318              	.L36:
 319              		.loc 1 84 0 discriminator 1
 320 001a 054B     		ldr	r3, .L37+8
 321 001c 1B68     		ldr	r3, [r3, #0]
 322 001e 002B     		cmp	r3, #0
 323 0020 F4D1     		bne	.L34
 324              		.loc 1 89 0
 325 0022 044A     		ldr	r2, .L37+12
 326 0024 1360     		str	r3, [r2, #0]
 327 0026 08BD     		pop	{r3, pc}
 328              	.L38:
 329              		.align	2
 330              	.L37:
 331 0028 00000000 		.word	tcp_active_pcbs
 332 002c 00000000 		.word	tcpip_tcp_timer
 333 0030 00000000 		.word	tcp_tw_pcbs
 334 0034 00000000 		.word	.LANCHOR1
 335              		.cfi_endproc
 336              	.LFE7:
 337              		.size	tcpip_tcp_timer, .-tcpip_tcp_timer
 338 0038 AFF30080 		.section	.text.sys_untimeout,"ax",%progbits
 338      AFF30080 
ARM GAS  /tmp/ccpWmyq1.s 			page 7


 339              		.align	2
 340              		.p2align 4,,15
 341              		.global	sys_untimeout
 342              		.thumb
 343              		.thumb_func
 344              		.type	sys_untimeout, %function
 345              	sys_untimeout:
 346              	.LFB13:
 347              		.loc 1 320 0
 348              		.cfi_startproc
 349              		@ args = 0, pretend = 0, frame = 0
 350              		@ frame_needed = 0, uses_anonymous_args = 0
 351              		@ link register save eliminated.
 352              	.LVL20:
 353 0000 30B4     		push	{r4, r5}
 354              	.LCFI5:
 355              		.cfi_def_cfa_offset 8
 356              		.cfi_offset 4, -8
 357              		.cfi_offset 5, -4
 358              		.loc 1 323 0
 359 0002 104D     		ldr	r5, .L54
 360 0004 2B68     		ldr	r3, [r5, #0]
 361 0006 CBB1     		cbz	r3, .L39
 362 0008 0024     		movs	r4, #0
 363 000a 03E0     		b	.L45
 364              	.LVL21:
 365              	.L41:
 366              		.loc 1 327 0
 367 000c 1A68     		ldr	r2, [r3, #0]
 368              	.LVL22:
 369 000e 1C46     		mov	r4, r3
 370 0010 A2B1     		cbz	r2, .L39
 371 0012 1346     		mov	r3, r2
 372              	.LVL23:
 373              	.L45:
 374              		.loc 1 328 0
 375 0014 9A68     		ldr	r2, [r3, #8]
 376 0016 8242     		cmp	r2, r0
 377 0018 F8D1     		bne	.L41
 378              		.loc 1 328 0 is_stmt 0 discriminator 1
 379 001a DA68     		ldr	r2, [r3, #12]
 380 001c 8A42     		cmp	r2, r1
 381 001e F5D1     		bne	.L41
 382              		.loc 1 332 0 is_stmt 1
 383 0020 1A68     		ldr	r2, [r3, #0]
 384              		.loc 1 331 0
 385 0022 6CB1     		cbz	r4, .L53
 386              		.loc 1 334 0
 387 0024 2260     		str	r2, [r4, #0]
 388 0026 1A68     		ldr	r2, [r3, #0]
 389              	.L43:
 390              		.loc 1 337 0
 391 0028 1AB1     		cbz	r2, .L44
 392              		.loc 1 338 0
 393 002a 5068     		ldr	r0, [r2, #4]
 394              	.LVL24:
 395 002c 5968     		ldr	r1, [r3, #4]
ARM GAS  /tmp/ccpWmyq1.s 			page 8


 396              	.LVL25:
 397 002e 4118     		adds	r1, r0, r1
 398 0030 5160     		str	r1, [r2, #4]
 399              	.L44:
 400              		.loc 1 340 0
 401 0032 0B20     		movs	r0, #11
 402 0034 1946     		mov	r1, r3
 403              		.loc 1 345 0
 404 0036 30BC     		pop	{r4, r5}
 405              		.loc 1 340 0
 406 0038 FFF7FEBF 		b	memp_free
 407              	.LVL26:
 408              	.L39:
 409              		.loc 1 345 0
 410 003c 30BC     		pop	{r4, r5}
 411 003e 7047     		bx	lr
 412              	.LVL27:
 413              	.L53:
 414              		.loc 1 332 0
 415 0040 2A60     		str	r2, [r5, #0]
 416 0042 F1E7     		b	.L43
 417              	.L55:
 418              		.align	2
 419              	.L54:
 420 0044 00000000 		.word	.LANCHOR0
 421              		.cfi_endproc
 422              	.LFE13:
 423              		.size	sys_untimeout, .-sys_untimeout
 424 0048 AFF30080 		.section	.text.sys_timeouts_mbox_fetch,"ax",%progbits
 424      AFF30080 
 425              		.align	2
 426              		.p2align 4,,15
 427              		.global	sys_timeouts_mbox_fetch
 428              		.thumb
 429              		.thumb_func
 430              		.type	sys_timeouts_mbox_fetch, %function
 431              	sys_timeouts_mbox_fetch:
 432              	.LFB14:
 433              		.loc 1 419 0
 434              		.cfi_startproc
 435              		@ args = 0, pretend = 0, frame = 0
 436              		@ frame_needed = 0, uses_anonymous_args = 0
 437              	.LVL28:
 438 0000 2DE9F843 		push	{r3, r4, r5, r6, r7, r8, r9, lr}
 439              	.LCFI6:
 440              		.cfi_def_cfa_offset 32
 441              		.cfi_offset 3, -32
 442              		.cfi_offset 4, -28
 443              		.cfi_offset 5, -24
 444              		.cfi_offset 6, -20
 445              		.cfi_offset 7, -16
 446              		.cfi_offset 8, -12
 447              		.cfi_offset 9, -8
 448              		.cfi_offset 14, -4
 449 0004 194C     		ldr	r4, .L75
 450              		.loc 1 419 0
 451 0006 0746     		mov	r7, r0
ARM GAS  /tmp/ccpWmyq1.s 			page 9


 452 0008 0E46     		mov	r6, r1
 453              		.loc 1 426 0
 454 000a A046     		mov	r8, r4
 455 000c 09E0     		b	.L72
 456              	.LVL29:
 457              	.L58:
 458              		.loc 1 441 0
 459 000e 9D68     		ldr	r5, [r3, #8]
 460              	.LVL30:
 461              		.loc 1 440 0
 462 0010 1A68     		ldr	r2, [r3, #0]
 463              		.loc 1 442 0
 464 0012 D3F80C90 		ldr	r9, [r3, #12]
 465              	.LVL31:
 466              		.loc 1 440 0
 467 0016 2260     		str	r2, [r4, #0]
 468              		.loc 1 449 0
 469 0018 0B20     		movs	r0, #11
 470 001a 1946     		mov	r1, r3
 471 001c FFF7FEFF 		bl	memp_free
 472              	.LVL32:
 473              		.loc 1 450 0
 474 0020 6DB9     		cbnz	r5, .L73
 475              	.LVL33:
 476              	.L72:
 477              		.loc 1 426 0
 478 0022 2368     		ldr	r3, [r4, #0]
 479 0024 83B1     		cbz	r3, .L74
 480              	.L57:
 481              		.loc 1 429 0
 482 0026 5A68     		ldr	r2, [r3, #4]
 483 0028 002A     		cmp	r2, #0
 484 002a F0D0     		beq	.L58
 485              		.loc 1 430 0
 486 002c 3146     		mov	r1, r6
 487 002e 3846     		mov	r0, r7
 488 0030 FFF7FEFF 		bl	sys_arch_mbox_fetch
 489              	.LVL34:
 490              		.loc 1 435 0
 491 0034 431C     		adds	r3, r0, #1
 492 0036 0ED1     		bne	.L59
 493 0038 D8F80030 		ldr	r3, [r8, #0]
 494 003c E7E7     		b	.L58
 495              	.LVL35:
 496              	.L73:
 497              		.loc 1 454 0
 498 003e 4846     		mov	r0, r9
 499 0040 A847     		blx	r5
 500              	.LVL36:
 501              		.loc 1 426 0
 502 0042 2368     		ldr	r3, [r4, #0]
 503 0044 002B     		cmp	r3, #0
 504 0046 EED1     		bne	.L57
 505              	.LVL37:
 506              	.L74:
 507              		.loc 1 427 0
 508 0048 3846     		mov	r0, r7
ARM GAS  /tmp/ccpWmyq1.s 			page 10


 509 004a 3146     		mov	r1, r6
 510 004c 1A46     		mov	r2, r3
 511              		.loc 1 472 0
 512 004e BDE8F843 		pop	{r3, r4, r5, r6, r7, r8, r9, lr}
 513              		.loc 1 427 0
 514 0052 FFF7FEBF 		b	sys_arch_mbox_fetch
 515              	.LVL38:
 516              	.L59:
 517              		.loc 1 465 0
 518 0056 054B     		ldr	r3, .L75
 519 0058 1B68     		ldr	r3, [r3, #0]
 520 005a 5A68     		ldr	r2, [r3, #4]
 521 005c 9042     		cmp	r0, r2
 522              		.loc 1 466 0
 523 005e 34BF     		ite	cc
 524 0060 C0EB0202 		rsbcc	r2, r0, r2
 525              		.loc 1 468 0
 526 0064 0022     		movcs	r2, #0
 527 0066 5A60     		str	r2, [r3, #4]
 528 0068 BDE8F883 		pop	{r3, r4, r5, r6, r7, r8, r9, pc}
 529              	.L76:
 530              		.align	2
 531              	.L75:
 532 006c 00000000 		.word	.LANCHOR0
 533              		.cfi_endproc
 534              	.LFE14:
 535              		.size	sys_timeouts_mbox_fetch, .-sys_timeouts_mbox_fetch
 536              		.section	.bss.tcpip_tcp_timer_active,"aw",%nobits
 537              		.align	2
 538              		.set	.LANCHOR1,. + 0
 539              		.type	tcpip_tcp_timer_active, %object
 540              		.size	tcpip_tcp_timer_active, 4
 541              	tcpip_tcp_timer_active:
 542 0000 00000000 		.space	4
 543              		.section	.bss.next_timeout,"aw",%nobits
 544              		.align	2
 545              		.set	.LANCHOR0,. + 0
 546              		.type	next_timeout, %object
 547              		.size	next_timeout, 4
 548              	next_timeout:
 549 0000 00000000 		.space	4
 550              		.text
 551              	.Letext0:
 552              		.file 2 "/opt/psas/x-tools/stm32f407/arm-psas-eabi/bin/../lib/gcc/arm-psas-eabi/4.7.2/../../../../
 553              		.file 3 "../../os/ports/GCC/ARMCMx/chtypes.h"
 554              		.file 4 "../../os/kernel/include/chlists.h"
 555              		.file 5 "../../os/kernel/include/chthreads.h"
 556              		.file 6 "../../os/ports/GCC/ARMCMx/chcore_v7m.h"
 557              		.file 7 "../../os/kernel/include/chsem.h"
 558              		.file 8 "../../os/kernel/include/chmtx.h"
 559              		.file 9 "../../os/kernel/include/chmboxes.h"
 560              		.file 10 "../../os/various/lwip_bindings/arch/cc.h"
 561              		.file 11 "../../ext/lwip/src/include/lwip/err.h"
 562              		.file 12 "../../os/various/lwip_bindings/arch/sys_arch.h"
 563              		.file 13 "../../ext/lwip/src/include/lwip/timers.h"
 564              		.file 14 "../../ext/lwip/src/include/lwip/pbuf.h"
 565              		.file 15 "../../ext/lwip/src/include/ipv4/lwip/ip_addr.h"
ARM GAS  /tmp/ccpWmyq1.s 			page 11


 566              		.file 16 "../../ext/lwip/src/include/lwip/tcp.h"
 567              		.file 17 "../../ext/lwip/src/include/lwip/tcp_impl.h"
 568              		.file 18 "../../ext/lwip/src/include/lwip/memp.h"
 569              		.file 19 "../../ext/lwip/src/include/netif/etharp.h"
 570              		.file 20 "../../ext/lwip/src/include/ipv4/lwip/ip_frag.h"
 571              		.file 21 "../../ext/lwip/src/include/lwip/sys.h"
 572              		.section	.debug_info,"",%progbits
 573              	.Ldebug_info0:
 574 0000 900F0000 		.4byte	0xf90
 575 0004 0200     		.2byte	0x2
 576 0006 00000000 		.4byte	.Ldebug_abbrev0
 577 000a 04       		.byte	0x4
 578 000b 01       		.uleb128 0x1
 579 000c A9010000 		.4byte	.LASF201
 580 0010 01       		.byte	0x1
 581 0011 B9020000 		.4byte	.LASF202
 582 0015 8B040000 		.4byte	.LASF203
 583 0019 00000000 		.4byte	.Ldebug_ranges0+0
 584 001d 00000000 		.4byte	0
 585 0021 00000000 		.4byte	0
 586 0025 00000000 		.4byte	.Ldebug_line0
 587 0029 02       		.uleb128 0x2
 588 002a 04       		.byte	0x4
 589 002b 05       		.byte	0x5
 590 002c 696E7400 		.ascii	"int\000"
 591 0030 03       		.uleb128 0x3
 592 0031 04       		.byte	0x4
 593 0032 07       		.byte	0x7
 594 0033 C9000000 		.4byte	.LASF0
 595 0037 04       		.uleb128 0x4
 596 0038 91010000 		.4byte	.LASF2
 597 003c 02       		.byte	0x2
 598 003d 29       		.byte	0x29
 599 003e 42000000 		.4byte	0x42
 600 0042 03       		.uleb128 0x3
 601 0043 01       		.byte	0x1
 602 0044 06       		.byte	0x6
 603 0045 A5070000 		.4byte	.LASF1
 604 0049 04       		.uleb128 0x4
 605 004a 9E030000 		.4byte	.LASF3
 606 004e 02       		.byte	0x2
 607 004f 2A       		.byte	0x2a
 608 0050 54000000 		.4byte	0x54
 609 0054 03       		.uleb128 0x3
 610 0055 01       		.byte	0x1
 611 0056 08       		.byte	0x8
 612 0057 E8060000 		.4byte	.LASF4
 613 005b 04       		.uleb128 0x4
 614 005c DB010000 		.4byte	.LASF5
 615 0060 02       		.byte	0x2
 616 0061 35       		.byte	0x35
 617 0062 66000000 		.4byte	0x66
 618 0066 03       		.uleb128 0x3
 619 0067 02       		.byte	0x2
 620 0068 05       		.byte	0x5
 621 0069 66050000 		.4byte	.LASF6
 622 006d 04       		.uleb128 0x4
ARM GAS  /tmp/ccpWmyq1.s 			page 12


 623 006e 23050000 		.4byte	.LASF7
 624 0072 02       		.byte	0x2
 625 0073 36       		.byte	0x36
 626 0074 78000000 		.4byte	0x78
 627 0078 03       		.uleb128 0x3
 628 0079 02       		.byte	0x2
 629 007a 07       		.byte	0x7
 630 007b B9070000 		.4byte	.LASF8
 631 007f 04       		.uleb128 0x4
 632 0080 C6060000 		.4byte	.LASF9
 633 0084 02       		.byte	0x2
 634 0085 4F       		.byte	0x4f
 635 0086 8A000000 		.4byte	0x8a
 636 008a 03       		.uleb128 0x3
 637 008b 04       		.byte	0x4
 638 008c 05       		.byte	0x5
 639 008d 8C050000 		.4byte	.LASF10
 640 0091 04       		.uleb128 0x4
 641 0092 88010000 		.4byte	.LASF11
 642 0096 02       		.byte	0x2
 643 0097 50       		.byte	0x50
 644 0098 9C000000 		.4byte	0x9c
 645 009c 03       		.uleb128 0x3
 646 009d 04       		.byte	0x4
 647 009e 07       		.byte	0x7
 648 009f 90060000 		.4byte	.LASF12
 649 00a3 03       		.uleb128 0x3
 650 00a4 08       		.byte	0x8
 651 00a5 05       		.byte	0x5
 652 00a6 FE030000 		.4byte	.LASF13
 653 00aa 03       		.uleb128 0x3
 654 00ab 08       		.byte	0x8
 655 00ac 07       		.byte	0x7
 656 00ad EB010000 		.4byte	.LASF14
 657 00b1 04       		.uleb128 0x4
 658 00b2 0F050000 		.4byte	.LASF15
 659 00b6 03       		.byte	0x3
 660 00b7 28       		.byte	0x28
 661 00b8 49000000 		.4byte	0x49
 662 00bc 04       		.uleb128 0x4
 663 00bd 80030000 		.4byte	.LASF16
 664 00c1 03       		.byte	0x3
 665 00c2 29       		.byte	0x29
 666 00c3 49000000 		.4byte	0x49
 667 00c7 04       		.uleb128 0x4
 668 00c8 88060000 		.4byte	.LASF17
 669 00cc 03       		.byte	0x3
 670 00cd 2A       		.byte	0x2a
 671 00ce 49000000 		.4byte	0x49
 672 00d2 04       		.uleb128 0x4
 673 00d3 D5040000 		.4byte	.LASF18
 674 00d7 03       		.byte	0x3
 675 00d8 2B       		.byte	0x2b
 676 00d9 49000000 		.4byte	0x49
 677 00dd 04       		.uleb128 0x4
 678 00de D3010000 		.4byte	.LASF19
 679 00e2 03       		.byte	0x3
ARM GAS  /tmp/ccpWmyq1.s 			page 13


 680 00e3 2C       		.byte	0x2c
 681 00e4 91000000 		.4byte	0x91
 682 00e8 04       		.uleb128 0x4
 683 00e9 36040000 		.4byte	.LASF20
 684 00ed 03       		.byte	0x3
 685 00ee 2D       		.byte	0x2d
 686 00ef 7F000000 		.4byte	0x7f
 687 00f3 04       		.uleb128 0x4
 688 00f4 9D010000 		.4byte	.LASF21
 689 00f8 03       		.byte	0x3
 690 00f9 2F       		.byte	0x2f
 691 00fa 91000000 		.4byte	0x91
 692 00fe 04       		.uleb128 0x4
 693 00ff A4000000 		.4byte	.LASF22
 694 0103 03       		.byte	0x3
 695 0104 31       		.byte	0x31
 696 0105 91000000 		.4byte	0x91
 697 0109 04       		.uleb128 0x4
 698 010a 02020000 		.4byte	.LASF23
 699 010e 03       		.byte	0x3
 700 010f 32       		.byte	0x32
 701 0110 7F000000 		.4byte	0x7f
 702 0114 04       		.uleb128 0x4
 703 0115 79030000 		.4byte	.LASF24
 704 0119 04       		.byte	0x4
 705 011a 23       		.byte	0x23
 706 011b 1F010000 		.4byte	0x11f
 707 011f 05       		.uleb128 0x5
 708 0120 79030000 		.4byte	.LASF24
 709 0124 48       		.byte	0x48
 710 0125 05       		.byte	0x5
 711 0126 57       		.byte	0x57
 712 0127 44020000 		.4byte	0x244
 713 012b 06       		.uleb128 0x6
 714 012c C6050000 		.4byte	.LASF25
 715 0130 05       		.byte	0x5
 716 0131 58       		.byte	0x58
 717 0132 69020000 		.4byte	0x269
 718 0136 02       		.byte	0x2
 719 0137 23       		.byte	0x23
 720 0138 00       		.uleb128 0
 721 0139 06       		.uleb128 0x6
 722 013a 78060000 		.4byte	.LASF26
 723 013e 05       		.byte	0x5
 724 013f 5A       		.byte	0x5a
 725 0140 69020000 		.4byte	0x269
 726 0144 02       		.byte	0x2
 727 0145 23       		.byte	0x23
 728 0146 04       		.uleb128 0x4
 729 0147 06       		.uleb128 0x6
 730 0148 62000000 		.4byte	.LASF27
 731 014c 05       		.byte	0x5
 732 014d 5C       		.byte	0x5c
 733 014e DD000000 		.4byte	0xdd
 734 0152 02       		.byte	0x2
 735 0153 23       		.byte	0x23
 736 0154 08       		.uleb128 0x8
ARM GAS  /tmp/ccpWmyq1.s 			page 14


 737 0155 06       		.uleb128 0x6
 738 0156 E3050000 		.4byte	.LASF28
 739 015a 05       		.byte	0x5
 740 015b 5D       		.byte	0x5d
 741 015c 37030000 		.4byte	0x337
 742 0160 02       		.byte	0x2
 743 0161 23       		.byte	0x23
 744 0162 0C       		.uleb128 0xc
 745 0163 06       		.uleb128 0x6
 746 0164 13020000 		.4byte	.LASF29
 747 0168 05       		.byte	0x5
 748 0169 5F       		.byte	0x5f
 749 016a 69020000 		.4byte	0x269
 750 016e 02       		.byte	0x2
 751 016f 23       		.byte	0x23
 752 0170 10       		.uleb128 0x10
 753 0171 06       		.uleb128 0x6
 754 0172 89030000 		.4byte	.LASF30
 755 0176 05       		.byte	0x5
 756 0177 60       		.byte	0x60
 757 0178 69020000 		.4byte	0x269
 758 017c 02       		.byte	0x2
 759 017d 23       		.byte	0x23
 760 017e 14       		.uleb128 0x14
 761 017f 06       		.uleb128 0x6
 762 0180 20030000 		.4byte	.LASF31
 763 0184 05       		.byte	0x5
 764 0185 67       		.byte	0x67
 765 0186 97040000 		.4byte	0x497
 766 018a 02       		.byte	0x2
 767 018b 23       		.byte	0x23
 768 018c 18       		.uleb128 0x18
 769 018d 06       		.uleb128 0x6
 770 018e 91030000 		.4byte	.LASF32
 771 0192 05       		.byte	0x5
 772 0193 72       		.byte	0x72
 773 0194 BC000000 		.4byte	0xbc
 774 0198 02       		.byte	0x2
 775 0199 23       		.byte	0x23
 776 019a 1C       		.uleb128 0x1c
 777 019b 06       		.uleb128 0x6
 778 019c 53040000 		.4byte	.LASF33
 779 01a0 05       		.byte	0x5
 780 01a1 76       		.byte	0x76
 781 01a2 B1000000 		.4byte	0xb1
 782 01a6 02       		.byte	0x2
 783 01a7 23       		.byte	0x23
 784 01a8 1D       		.uleb128 0x1d
 785 01a9 06       		.uleb128 0x6
 786 01aa 0C070000 		.4byte	.LASF34
 787 01ae 05       		.byte	0x5
 788 01af 7B       		.byte	0x7b
 789 01b0 C7000000 		.4byte	0xc7
 790 01b4 02       		.byte	0x2
 791 01b5 23       		.byte	0x23
 792 01b6 1E       		.uleb128 0x1e
 793 01b7 06       		.uleb128 0x6
ARM GAS  /tmp/ccpWmyq1.s 			page 15


 794 01b8 51070000 		.4byte	.LASF35
 795 01bc 05       		.byte	0x5
 796 01bd 81       		.byte	0x81
 797 01be D2000000 		.4byte	0xd2
 798 01c2 02       		.byte	0x2
 799 01c3 23       		.byte	0x23
 800 01c4 1F       		.uleb128 0x1f
 801 01c5 06       		.uleb128 0x6
 802 01c6 47000000 		.4byte	.LASF36
 803 01ca 05       		.byte	0x5
 804 01cb 88       		.byte	0x88
 805 01cc 73030000 		.4byte	0x373
 806 01d0 02       		.byte	0x2
 807 01d1 23       		.byte	0x23
 808 01d2 20       		.uleb128 0x20
 809 01d3 07       		.uleb128 0x7
 810 01d4 705F7500 		.ascii	"p_u\000"
 811 01d8 05       		.byte	0x5
 812 01d9 AD       		.byte	0xad
 813 01da 62040000 		.4byte	0x462
 814 01de 02       		.byte	0x2
 815 01df 23       		.byte	0x23
 816 01e0 24       		.uleb128 0x24
 817 01e1 06       		.uleb128 0x6
 818 01e2 1E000000 		.4byte	.LASF37
 819 01e6 05       		.byte	0x5
 820 01e7 B2       		.byte	0xb2
 821 01e8 91020000 		.4byte	0x291
 822 01ec 02       		.byte	0x2
 823 01ed 23       		.byte	0x23
 824 01ee 28       		.uleb128 0x28
 825 01ef 06       		.uleb128 0x6
 826 01f0 BE000000 		.4byte	.LASF38
 827 01f4 05       		.byte	0x5
 828 01f5 B8       		.byte	0xb8
 829 01f6 6F020000 		.4byte	0x26f
 830 01fa 02       		.byte	0x2
 831 01fb 23       		.byte	0x23
 832 01fc 2C       		.uleb128 0x2c
 833 01fd 06       		.uleb128 0x6
 834 01fe 09050000 		.4byte	.LASF39
 835 0202 05       		.byte	0x5
 836 0203 BC       		.byte	0xbc
 837 0204 E8000000 		.4byte	0xe8
 838 0208 02       		.byte	0x2
 839 0209 23       		.byte	0x23
 840 020a 34       		.uleb128 0x34
 841 020b 06       		.uleb128 0x6
 842 020c 79050000 		.4byte	.LASF40
 843 0210 05       		.byte	0x5
 844 0211 C2       		.byte	0xc2
 845 0212 F3000000 		.4byte	0xf3
 846 0216 02       		.byte	0x2
 847 0217 23       		.byte	0x23
 848 0218 38       		.uleb128 0x38
 849 0219 06       		.uleb128 0x6
 850 021a C9030000 		.4byte	.LASF41
ARM GAS  /tmp/ccpWmyq1.s 			page 16


 851 021e 05       		.byte	0x5
 852 021f C9       		.byte	0xc9
 853 0220 A9040000 		.4byte	0x4a9
 854 0224 02       		.byte	0x2
 855 0225 23       		.byte	0x23
 856 0226 3C       		.uleb128 0x3c
 857 0227 06       		.uleb128 0x6
 858 0228 4E050000 		.4byte	.LASF42
 859 022c 05       		.byte	0x5
 860 022d CD       		.byte	0xcd
 861 022e DD000000 		.4byte	0xdd
 862 0232 02       		.byte	0x2
 863 0233 23       		.byte	0x23
 864 0234 40       		.uleb128 0x40
 865 0235 06       		.uleb128 0x6
 866 0236 C1030000 		.4byte	.LASF43
 867 023a 05       		.byte	0x5
 868 023b D3       		.byte	0xd3
 869 023c A7020000 		.4byte	0x2a7
 870 0240 02       		.byte	0x2
 871 0241 23       		.byte	0x23
 872 0242 44       		.uleb128 0x44
 873 0243 00       		.byte	0
 874 0244 08       		.uleb128 0x8
 875 0245 08       		.byte	0x8
 876 0246 04       		.byte	0x4
 877 0247 5A       		.byte	0x5a
 878 0248 69020000 		.4byte	0x269
 879 024c 06       		.uleb128 0x6
 880 024d C6050000 		.4byte	.LASF25
 881 0251 04       		.byte	0x4
 882 0252 5B       		.byte	0x5b
 883 0253 69020000 		.4byte	0x269
 884 0257 02       		.byte	0x2
 885 0258 23       		.byte	0x23
 886 0259 00       		.uleb128 0
 887 025a 06       		.uleb128 0x6
 888 025b 78060000 		.4byte	.LASF26
 889 025f 04       		.byte	0x4
 890 0260 5D       		.byte	0x5d
 891 0261 69020000 		.4byte	0x269
 892 0265 02       		.byte	0x2
 893 0266 23       		.byte	0x23
 894 0267 04       		.uleb128 0x4
 895 0268 00       		.byte	0
 896 0269 09       		.uleb128 0x9
 897 026a 04       		.byte	0x4
 898 026b 14010000 		.4byte	0x114
 899 026f 04       		.uleb128 0x4
 900 0270 4A030000 		.4byte	.LASF44
 901 0274 04       		.byte	0x4
 902 0275 5F       		.byte	0x5f
 903 0276 44020000 		.4byte	0x244
 904 027a 08       		.uleb128 0x8
 905 027b 04       		.byte	0x4
 906 027c 04       		.byte	0x4
 907 027d 64       		.byte	0x64
ARM GAS  /tmp/ccpWmyq1.s 			page 17


 908 027e 91020000 		.4byte	0x291
 909 0282 06       		.uleb128 0x6
 910 0283 C6050000 		.4byte	.LASF25
 911 0287 04       		.byte	0x4
 912 0288 66       		.byte	0x66
 913 0289 69020000 		.4byte	0x269
 914 028d 02       		.byte	0x2
 915 028e 23       		.byte	0x23
 916 028f 00       		.uleb128 0
 917 0290 00       		.byte	0
 918 0291 04       		.uleb128 0x4
 919 0292 12000000 		.4byte	.LASF45
 920 0296 04       		.byte	0x4
 921 0297 69       		.byte	0x69
 922 0298 7A020000 		.4byte	0x27a
 923 029c 04       		.uleb128 0x4
 924 029d 59000000 		.4byte	.LASF46
 925 02a1 06       		.byte	0x6
 926 02a2 DE       		.byte	0xde
 927 02a3 A7020000 		.4byte	0x2a7
 928 02a7 0A       		.uleb128 0xa
 929 02a8 04       		.byte	0x4
 930 02a9 0B       		.uleb128 0xb
 931 02aa 31050000 		.4byte	.LASF47
 932 02ae 24       		.byte	0x24
 933 02af 06       		.byte	0x6
 934 02b0 0501     		.2byte	0x105
 935 02b2 37030000 		.4byte	0x337
 936 02b6 0C       		.uleb128 0xc
 937 02b7 723400   		.ascii	"r4\000"
 938 02ba 06       		.byte	0x6
 939 02bb 1801     		.2byte	0x118
 940 02bd 9C020000 		.4byte	0x29c
 941 02c1 02       		.byte	0x2
 942 02c2 23       		.byte	0x23
 943 02c3 00       		.uleb128 0
 944 02c4 0C       		.uleb128 0xc
 945 02c5 723500   		.ascii	"r5\000"
 946 02c8 06       		.byte	0x6
 947 02c9 1901     		.2byte	0x119
 948 02cb 9C020000 		.4byte	0x29c
 949 02cf 02       		.byte	0x2
 950 02d0 23       		.byte	0x23
 951 02d1 04       		.uleb128 0x4
 952 02d2 0C       		.uleb128 0xc
 953 02d3 723600   		.ascii	"r6\000"
 954 02d6 06       		.byte	0x6
 955 02d7 1A01     		.2byte	0x11a
 956 02d9 9C020000 		.4byte	0x29c
 957 02dd 02       		.byte	0x2
 958 02de 23       		.byte	0x23
 959 02df 08       		.uleb128 0x8
 960 02e0 0C       		.uleb128 0xc
 961 02e1 723700   		.ascii	"r7\000"
 962 02e4 06       		.byte	0x6
 963 02e5 1B01     		.2byte	0x11b
 964 02e7 9C020000 		.4byte	0x29c
ARM GAS  /tmp/ccpWmyq1.s 			page 18


 965 02eb 02       		.byte	0x2
 966 02ec 23       		.byte	0x23
 967 02ed 0C       		.uleb128 0xc
 968 02ee 0C       		.uleb128 0xc
 969 02ef 723800   		.ascii	"r8\000"
 970 02f2 06       		.byte	0x6
 971 02f3 1C01     		.2byte	0x11c
 972 02f5 9C020000 		.4byte	0x29c
 973 02f9 02       		.byte	0x2
 974 02fa 23       		.byte	0x23
 975 02fb 10       		.uleb128 0x10
 976 02fc 0C       		.uleb128 0xc
 977 02fd 723900   		.ascii	"r9\000"
 978 0300 06       		.byte	0x6
 979 0301 1D01     		.2byte	0x11d
 980 0303 9C020000 		.4byte	0x29c
 981 0307 02       		.byte	0x2
 982 0308 23       		.byte	0x23
 983 0309 14       		.uleb128 0x14
 984 030a 0C       		.uleb128 0xc
 985 030b 72313000 		.ascii	"r10\000"
 986 030f 06       		.byte	0x6
 987 0310 1E01     		.2byte	0x11e
 988 0312 9C020000 		.4byte	0x29c
 989 0316 02       		.byte	0x2
 990 0317 23       		.byte	0x23
 991 0318 18       		.uleb128 0x18
 992 0319 0C       		.uleb128 0xc
 993 031a 72313100 		.ascii	"r11\000"
 994 031e 06       		.byte	0x6
 995 031f 1F01     		.2byte	0x11f
 996 0321 9C020000 		.4byte	0x29c
 997 0325 02       		.byte	0x2
 998 0326 23       		.byte	0x23
 999 0327 1C       		.uleb128 0x1c
 1000 0328 0C       		.uleb128 0xc
 1001 0329 6C7200   		.ascii	"lr\000"
 1002 032c 06       		.byte	0x6
 1003 032d 2001     		.2byte	0x120
 1004 032f 9C020000 		.4byte	0x29c
 1005 0333 02       		.byte	0x2
 1006 0334 23       		.byte	0x23
 1007 0335 20       		.uleb128 0x20
 1008 0336 00       		.byte	0
 1009 0337 0B       		.uleb128 0xb
 1010 0338 46040000 		.4byte	.LASF48
 1011 033c 04       		.byte	0x4
 1012 033d 06       		.byte	0x6
 1013 033e 2A01     		.2byte	0x12a
 1014 0340 54030000 		.4byte	0x354
 1015 0344 0C       		.uleb128 0xc
 1016 0345 72313300 		.ascii	"r13\000"
 1017 0349 06       		.byte	0x6
 1018 034a 2B01     		.2byte	0x12b
 1019 034c 54030000 		.4byte	0x354
 1020 0350 02       		.byte	0x2
 1021 0351 23       		.byte	0x23
ARM GAS  /tmp/ccpWmyq1.s 			page 19


 1022 0352 00       		.uleb128 0
 1023 0353 00       		.byte	0
 1024 0354 09       		.uleb128 0x9
 1025 0355 04       		.byte	0x4
 1026 0356 A9020000 		.4byte	0x2a9
 1027 035a 03       		.uleb128 0x3
 1028 035b 04       		.byte	0x4
 1029 035c 07       		.byte	0x7
 1030 035d 7F060000 		.4byte	.LASF49
 1031 0361 09       		.uleb128 0x9
 1032 0362 04       		.byte	0x4
 1033 0363 67030000 		.4byte	0x367
 1034 0367 0D       		.uleb128 0xd
 1035 0368 01       		.byte	0x1
 1036 0369 73030000 		.4byte	0x373
 1037 036d 0E       		.uleb128 0xe
 1038 036e A7020000 		.4byte	0x2a7
 1039 0372 00       		.byte	0
 1040 0373 0F       		.uleb128 0xf
 1041 0374 FE000000 		.4byte	0xfe
 1042 0378 05       		.uleb128 0x5
 1043 0379 21060000 		.4byte	.LASF50
 1044 037d 0C       		.byte	0xc
 1045 037e 07       		.byte	0x7
 1046 037f 25       		.byte	0x25
 1047 0380 A1030000 		.4byte	0x3a1
 1048 0384 06       		.uleb128 0x6
 1049 0385 B6000000 		.4byte	.LASF51
 1050 0389 07       		.byte	0x7
 1051 038a 26       		.byte	0x26
 1052 038b 6F020000 		.4byte	0x26f
 1053 038f 02       		.byte	0x2
 1054 0390 23       		.byte	0x23
 1055 0391 00       		.uleb128 0
 1056 0392 06       		.uleb128 0x6
 1057 0393 74010000 		.4byte	.LASF52
 1058 0397 07       		.byte	0x7
 1059 0398 28       		.byte	0x28
 1060 0399 09010000 		.4byte	0x109
 1061 039d 02       		.byte	0x2
 1062 039e 23       		.byte	0x23
 1063 039f 08       		.uleb128 0x8
 1064 03a0 00       		.byte	0
 1065 03a1 04       		.uleb128 0x4
 1066 03a2 21060000 		.4byte	.LASF50
 1067 03a6 07       		.byte	0x7
 1068 03a7 29       		.byte	0x29
 1069 03a8 78030000 		.4byte	0x378
 1070 03ac 05       		.uleb128 0x5
 1071 03ad FB020000 		.4byte	.LASF53
 1072 03b1 10       		.byte	0x10
 1073 03b2 08       		.byte	0x8
 1074 03b3 25       		.byte	0x25
 1075 03b4 E3030000 		.4byte	0x3e3
 1076 03b8 06       		.uleb128 0x6
 1077 03b9 84050000 		.4byte	.LASF54
 1078 03bd 08       		.byte	0x8
ARM GAS  /tmp/ccpWmyq1.s 			page 20


 1079 03be 26       		.byte	0x26
 1080 03bf 6F020000 		.4byte	0x26f
 1081 03c3 02       		.byte	0x2
 1082 03c4 23       		.byte	0x23
 1083 03c5 00       		.uleb128 0
 1084 03c6 06       		.uleb128 0x6
 1085 03c7 AE000000 		.4byte	.LASF55
 1086 03cb 08       		.byte	0x8
 1087 03cc 28       		.byte	0x28
 1088 03cd 69020000 		.4byte	0x269
 1089 03d1 02       		.byte	0x2
 1090 03d2 23       		.byte	0x23
 1091 03d3 08       		.uleb128 0x8
 1092 03d4 06       		.uleb128 0x6
 1093 03d5 9E070000 		.4byte	.LASF56
 1094 03d9 08       		.byte	0x8
 1095 03da 2A       		.byte	0x2a
 1096 03db E3030000 		.4byte	0x3e3
 1097 03df 02       		.byte	0x2
 1098 03e0 23       		.byte	0x23
 1099 03e1 0C       		.uleb128 0xc
 1100 03e2 00       		.byte	0
 1101 03e3 09       		.uleb128 0x9
 1102 03e4 04       		.byte	0x4
 1103 03e5 AC030000 		.4byte	0x3ac
 1104 03e9 04       		.uleb128 0x4
 1105 03ea FB020000 		.4byte	.LASF53
 1106 03ee 08       		.byte	0x8
 1107 03ef 2C       		.byte	0x2c
 1108 03f0 AC030000 		.4byte	0x3ac
 1109 03f4 08       		.uleb128 0x8
 1110 03f5 28       		.byte	0x28
 1111 03f6 09       		.byte	0x9
 1112 03f7 2C       		.byte	0x2c
 1113 03f8 51040000 		.4byte	0x451
 1114 03fc 06       		.uleb128 0x6
 1115 03fd A2060000 		.4byte	.LASF57
 1116 0401 09       		.byte	0x9
 1117 0402 2D       		.byte	0x2d
 1118 0403 51040000 		.4byte	0x451
 1119 0407 02       		.byte	0x2
 1120 0408 23       		.byte	0x23
 1121 0409 00       		.uleb128 0
 1122 040a 06       		.uleb128 0x6
 1123 040b 78040000 		.4byte	.LASF58
 1124 040f 09       		.byte	0x9
 1125 0410 2F       		.byte	0x2f
 1126 0411 51040000 		.4byte	0x451
 1127 0415 02       		.byte	0x2
 1128 0416 23       		.byte	0x23
 1129 0417 04       		.uleb128 0x4
 1130 0418 06       		.uleb128 0x6
 1131 0419 70050000 		.4byte	.LASF59
 1132 041d 09       		.byte	0x9
 1133 041e 31       		.byte	0x31
 1134 041f 51040000 		.4byte	0x451
 1135 0423 02       		.byte	0x2
ARM GAS  /tmp/ccpWmyq1.s 			page 21


 1136 0424 23       		.byte	0x23
 1137 0425 08       		.uleb128 0x8
 1138 0426 06       		.uleb128 0x6
 1139 0427 A8020000 		.4byte	.LASF60
 1140 042b 09       		.byte	0x9
 1141 042c 32       		.byte	0x32
 1142 042d 51040000 		.4byte	0x451
 1143 0431 02       		.byte	0x2
 1144 0432 23       		.byte	0x23
 1145 0433 0C       		.uleb128 0xc
 1146 0434 06       		.uleb128 0x6
 1147 0435 A6030000 		.4byte	.LASF61
 1148 0439 09       		.byte	0x9
 1149 043a 33       		.byte	0x33
 1150 043b A1030000 		.4byte	0x3a1
 1151 043f 02       		.byte	0x2
 1152 0440 23       		.byte	0x23
 1153 0441 10       		.uleb128 0x10
 1154 0442 06       		.uleb128 0x6
 1155 0443 01030000 		.4byte	.LASF62
 1156 0447 09       		.byte	0x9
 1157 0448 35       		.byte	0x35
 1158 0449 A1030000 		.4byte	0x3a1
 1159 044d 02       		.byte	0x2
 1160 044e 23       		.byte	0x23
 1161 044f 1C       		.uleb128 0x1c
 1162 0450 00       		.byte	0
 1163 0451 09       		.uleb128 0x9
 1164 0452 04       		.byte	0x4
 1165 0453 E8000000 		.4byte	0xe8
 1166 0457 04       		.uleb128 0x4
 1167 0458 60010000 		.4byte	.LASF63
 1168 045c 09       		.byte	0x9
 1169 045d 37       		.byte	0x37
 1170 045e F4030000 		.4byte	0x3f4
 1171 0462 10       		.uleb128 0x10
 1172 0463 04       		.byte	0x4
 1173 0464 05       		.byte	0x5
 1174 0465 8F       		.byte	0x8f
 1175 0466 97040000 		.4byte	0x497
 1176 046a 11       		.uleb128 0x11
 1177 046b 73020000 		.4byte	.LASF64
 1178 046f 05       		.byte	0x5
 1179 0470 96       		.byte	0x96
 1180 0471 E8000000 		.4byte	0xe8
 1181 0475 11       		.uleb128 0x11
 1182 0476 29080000 		.4byte	.LASF65
 1183 047a 05       		.byte	0x5
 1184 047b 9D       		.byte	0x9d
 1185 047c E8000000 		.4byte	0xe8
 1186 0480 11       		.uleb128 0x11
 1187 0481 29010000 		.4byte	.LASF66
 1188 0485 05       		.byte	0x5
 1189 0486 A4       		.byte	0xa4
 1190 0487 A7020000 		.4byte	0x2a7
 1191 048b 11       		.uleb128 0x11
 1192 048c 4B010000 		.4byte	.LASF67
ARM GAS  /tmp/ccpWmyq1.s 			page 22


 1193 0490 05       		.byte	0x5
 1194 0491 AB       		.byte	0xab
 1195 0492 F3000000 		.4byte	0xf3
 1196 0496 00       		.byte	0
 1197 0497 09       		.uleb128 0x9
 1198 0498 04       		.byte	0x4
 1199 0499 9D040000 		.4byte	0x49d
 1200 049d 12       		.uleb128 0x12
 1201 049e A2040000 		.4byte	0x4a2
 1202 04a2 03       		.uleb128 0x3
 1203 04a3 01       		.byte	0x1
 1204 04a4 08       		.byte	0x8
 1205 04a5 57030000 		.4byte	.LASF68
 1206 04a9 09       		.uleb128 0x9
 1207 04aa 04       		.byte	0x4
 1208 04ab E9030000 		.4byte	0x3e9
 1209 04af 04       		.uleb128 0x4
 1210 04b0 4E040000 		.4byte	.LASF69
 1211 04b4 0A       		.byte	0xa
 1212 04b5 3C       		.byte	0x3c
 1213 04b6 49000000 		.4byte	0x49
 1214 04ba 04       		.uleb128 0x4
 1215 04bb EB020000 		.4byte	.LASF70
 1216 04bf 0A       		.byte	0xa
 1217 04c0 3D       		.byte	0x3d
 1218 04c1 37000000 		.4byte	0x37
 1219 04c5 04       		.uleb128 0x4
 1220 04c6 17010000 		.4byte	.LASF71
 1221 04ca 0A       		.byte	0xa
 1222 04cb 3E       		.byte	0x3e
 1223 04cc 6D000000 		.4byte	0x6d
 1224 04d0 04       		.uleb128 0x4
 1225 04d1 C0060000 		.4byte	.LASF72
 1226 04d5 0A       		.byte	0xa
 1227 04d6 3F       		.byte	0x3f
 1228 04d7 5B000000 		.4byte	0x5b
 1229 04db 04       		.uleb128 0x4
 1230 04dc 60050000 		.4byte	.LASF73
 1231 04e0 0A       		.byte	0xa
 1232 04e1 40       		.byte	0x40
 1233 04e2 91000000 		.4byte	0x91
 1234 04e6 04       		.uleb128 0x4
 1235 04e7 FA000000 		.4byte	.LASF74
 1236 04eb 0B       		.byte	0xb
 1237 04ec 2F       		.byte	0x2f
 1238 04ed BA040000 		.4byte	0x4ba
 1239 04f1 04       		.uleb128 0x4
 1240 04f2 28000000 		.4byte	.LASF75
 1241 04f6 0C       		.byte	0xc
 1242 04f7 3D       		.byte	0x3d
 1243 04f8 FC040000 		.4byte	0x4fc
 1244 04fc 09       		.uleb128 0x9
 1245 04fd 04       		.byte	0x4
 1246 04fe 57040000 		.4byte	0x457
 1247 0502 04       		.uleb128 0x4
 1248 0503 6F000000 		.4byte	.LASF76
 1249 0507 0D       		.byte	0xd
ARM GAS  /tmp/ccpWmyq1.s 			page 23


 1250 0508 3F       		.byte	0x3f
 1251 0509 61030000 		.4byte	0x361
 1252 050d 05       		.uleb128 0x5
 1253 050e AB050000 		.4byte	.LASF77
 1254 0512 10       		.byte	0x10
 1255 0513 0D       		.byte	0xd
 1256 0514 41       		.byte	0x41
 1257 0515 50050000 		.4byte	0x550
 1258 0519 06       		.uleb128 0x6
 1259 051a E7000000 		.4byte	.LASF78
 1260 051e 0D       		.byte	0xd
 1261 051f 42       		.byte	0x42
 1262 0520 50050000 		.4byte	0x550
 1263 0524 02       		.byte	0x2
 1264 0525 23       		.byte	0x23
 1265 0526 00       		.uleb128 0
 1266 0527 06       		.uleb128 0x6
 1267 0528 0E020000 		.4byte	.LASF79
 1268 052c 0D       		.byte	0xd
 1269 052d 43       		.byte	0x43
 1270 052e DB040000 		.4byte	0x4db
 1271 0532 02       		.byte	0x2
 1272 0533 23       		.byte	0x23
 1273 0534 04       		.uleb128 0x4
 1274 0535 07       		.uleb128 0x7
 1275 0536 6800     		.ascii	"h\000"
 1276 0538 0D       		.byte	0xd
 1277 0539 44       		.byte	0x44
 1278 053a 02050000 		.4byte	0x502
 1279 053e 02       		.byte	0x2
 1280 053f 23       		.byte	0x23
 1281 0540 08       		.uleb128 0x8
 1282 0541 07       		.uleb128 0x7
 1283 0542 61726700 		.ascii	"arg\000"
 1284 0546 0D       		.byte	0xd
 1285 0547 45       		.byte	0x45
 1286 0548 A7020000 		.4byte	0x2a7
 1287 054c 02       		.byte	0x2
 1288 054d 23       		.byte	0x23
 1289 054e 0C       		.uleb128 0xc
 1290 054f 00       		.byte	0
 1291 0550 09       		.uleb128 0x9
 1292 0551 04       		.byte	0x4
 1293 0552 0D050000 		.4byte	0x50d
 1294 0556 05       		.uleb128 0x5
 1295 0557 A3020000 		.4byte	.LASF80
 1296 055b 10       		.byte	0x10
 1297 055c 0E       		.byte	0xe
 1298 055d 49       		.byte	0x49
 1299 055e C5050000 		.4byte	0x5c5
 1300 0562 06       		.uleb128 0x6
 1301 0563 E7000000 		.4byte	.LASF78
 1302 0567 0E       		.byte	0xe
 1303 0568 4B       		.byte	0x4b
 1304 0569 C5050000 		.4byte	0x5c5
 1305 056d 02       		.byte	0x2
 1306 056e 23       		.byte	0x23
ARM GAS  /tmp/ccpWmyq1.s 			page 24


 1307 056f 00       		.uleb128 0
 1308 0570 06       		.uleb128 0x6
 1309 0571 7A020000 		.4byte	.LASF81
 1310 0575 0E       		.byte	0xe
 1311 0576 4E       		.byte	0x4e
 1312 0577 A7020000 		.4byte	0x2a7
 1313 057b 02       		.byte	0x2
 1314 057c 23       		.byte	0x23
 1315 057d 04       		.uleb128 0x4
 1316 057e 06       		.uleb128 0x6
 1317 057f 6B020000 		.4byte	.LASF82
 1318 0583 0E       		.byte	0xe
 1319 0584 57       		.byte	0x57
 1320 0585 C5040000 		.4byte	0x4c5
 1321 0589 02       		.byte	0x2
 1322 058a 23       		.byte	0x23
 1323 058b 08       		.uleb128 0x8
 1324 058c 07       		.uleb128 0x7
 1325 058d 6C656E00 		.ascii	"len\000"
 1326 0591 0E       		.byte	0xe
 1327 0592 5A       		.byte	0x5a
 1328 0593 C5040000 		.4byte	0x4c5
 1329 0597 02       		.byte	0x2
 1330 0598 23       		.byte	0x23
 1331 0599 0A       		.uleb128 0xa
 1332 059a 06       		.uleb128 0x6
 1333 059b E3060000 		.4byte	.LASF83
 1334 059f 0E       		.byte	0xe
 1335 05a0 5D       		.byte	0x5d
 1336 05a1 AF040000 		.4byte	0x4af
 1337 05a5 02       		.byte	0x2
 1338 05a6 23       		.byte	0x23
 1339 05a7 0C       		.uleb128 0xc
 1340 05a8 06       		.uleb128 0x6
 1341 05a9 9E000000 		.4byte	.LASF84
 1342 05ad 0E       		.byte	0xe
 1343 05ae 60       		.byte	0x60
 1344 05af AF040000 		.4byte	0x4af
 1345 05b3 02       		.byte	0x2
 1346 05b4 23       		.byte	0x23
 1347 05b5 0D       		.uleb128 0xd
 1348 05b6 07       		.uleb128 0x7
 1349 05b7 72656600 		.ascii	"ref\000"
 1350 05bb 0E       		.byte	0xe
 1351 05bc 67       		.byte	0x67
 1352 05bd C5040000 		.4byte	0x4c5
 1353 05c1 02       		.byte	0x2
 1354 05c2 23       		.byte	0x23
 1355 05c3 0E       		.uleb128 0xe
 1356 05c4 00       		.byte	0
 1357 05c5 09       		.uleb128 0x9
 1358 05c6 04       		.byte	0x4
 1359 05c7 56050000 		.4byte	0x556
 1360 05cb 05       		.uleb128 0x5
 1361 05cc 3B080000 		.4byte	.LASF85
 1362 05d0 04       		.byte	0x4
 1363 05d1 0F       		.byte	0xf
ARM GAS  /tmp/ccpWmyq1.s 			page 25


 1364 05d2 2C       		.byte	0x2c
 1365 05d3 E6050000 		.4byte	0x5e6
 1366 05d7 06       		.uleb128 0x6
 1367 05d8 5B070000 		.4byte	.LASF86
 1368 05dc 0F       		.byte	0xf
 1369 05dd 2D       		.byte	0x2d
 1370 05de DB040000 		.4byte	0x4db
 1371 05e2 02       		.byte	0x2
 1372 05e3 23       		.byte	0x23
 1373 05e4 00       		.uleb128 0
 1374 05e5 00       		.byte	0
 1375 05e6 04       		.uleb128 0x4
 1376 05e7 EE070000 		.4byte	.LASF87
 1377 05eb 0F       		.byte	0xf
 1378 05ec 40       		.byte	0x40
 1379 05ed CB050000 		.4byte	0x5cb
 1380 05f1 04       		.uleb128 0x4
 1381 05f2 90000000 		.4byte	.LASF88
 1382 05f6 10       		.byte	0x10
 1383 05f7 3D       		.byte	0x3d
 1384 05f8 FC050000 		.4byte	0x5fc
 1385 05fc 09       		.uleb128 0x9
 1386 05fd 04       		.byte	0x4
 1387 05fe 02060000 		.4byte	0x602
 1388 0602 13       		.uleb128 0x13
 1389 0603 01       		.byte	0x1
 1390 0604 E6040000 		.4byte	0x4e6
 1391 0608 1C060000 		.4byte	0x61c
 1392 060c 0E       		.uleb128 0xe
 1393 060d A7020000 		.4byte	0x2a7
 1394 0611 0E       		.uleb128 0xe
 1395 0612 1C060000 		.4byte	0x61c
 1396 0616 0E       		.uleb128 0xe
 1397 0617 E6040000 		.4byte	0x4e6
 1398 061b 00       		.byte	0
 1399 061c 09       		.uleb128 0x9
 1400 061d 04       		.byte	0x4
 1401 061e 22060000 		.4byte	0x622
 1402 0622 05       		.uleb128 0x5
 1403 0623 B1070000 		.4byte	.LASF89
 1404 0627 A4       		.byte	0xa4
 1405 0628 10       		.byte	0x10
 1406 0629 A9       		.byte	0xa9
 1407 062a 31090000 		.4byte	0x931
 1408 062e 06       		.uleb128 0x6
 1409 062f DA050000 		.4byte	.LASF90
 1410 0633 10       		.byte	0x10
 1411 0634 AB       		.byte	0xab
 1412 0635 E6050000 		.4byte	0x5e6
 1413 0639 02       		.byte	0x2
 1414 063a 23       		.byte	0x23
 1415 063b 00       		.uleb128 0
 1416 063c 06       		.uleb128 0x6
 1417 063d D8070000 		.4byte	.LASF91
 1418 0641 10       		.byte	0x10
 1419 0642 AB       		.byte	0xab
 1420 0643 E6050000 		.4byte	0x5e6
ARM GAS  /tmp/ccpWmyq1.s 			page 26


 1421 0647 02       		.byte	0x2
 1422 0648 23       		.byte	0x23
 1423 0649 04       		.uleb128 0x4
 1424 064a 06       		.uleb128 0x6
 1425 064b 4E000000 		.4byte	.LASF92
 1426 064f 10       		.byte	0x10
 1427 0650 AB       		.byte	0xab
 1428 0651 AF040000 		.4byte	0x4af
 1429 0655 02       		.byte	0x2
 1430 0656 23       		.byte	0x23
 1431 0657 08       		.uleb128 0x8
 1432 0658 07       		.uleb128 0x7
 1433 0659 746F7300 		.ascii	"tos\000"
 1434 065d 10       		.byte	0x10
 1435 065e AB       		.byte	0xab
 1436 065f AF040000 		.4byte	0x4af
 1437 0663 02       		.byte	0x2
 1438 0664 23       		.byte	0x23
 1439 0665 09       		.uleb128 0x9
 1440 0666 07       		.uleb128 0x7
 1441 0667 74746C00 		.ascii	"ttl\000"
 1442 066b 10       		.byte	0x10
 1443 066c AB       		.byte	0xab
 1444 066d AF040000 		.4byte	0x4af
 1445 0671 02       		.byte	0x2
 1446 0672 23       		.byte	0x23
 1447 0673 0A       		.uleb128 0xa
 1448 0674 06       		.uleb128 0x6
 1449 0675 E7000000 		.4byte	.LASF78
 1450 0679 10       		.byte	0x10
 1451 067a AD       		.byte	0xad
 1452 067b 1C060000 		.4byte	0x61c
 1453 067f 02       		.byte	0x2
 1454 0680 23       		.byte	0x23
 1455 0681 0C       		.uleb128 0xc
 1456 0682 06       		.uleb128 0x6
 1457 0683 72070000 		.4byte	.LASF93
 1458 0687 10       		.byte	0x10
 1459 0688 AD       		.byte	0xad
 1460 0689 DF090000 		.4byte	0x9df
 1461 068d 02       		.byte	0x2
 1462 068e 23       		.byte	0x23
 1463 068f 10       		.uleb128 0x10
 1464 0690 06       		.uleb128 0x6
 1465 0691 2F030000 		.4byte	.LASF94
 1466 0695 10       		.byte	0x10
 1467 0696 AD       		.byte	0xad
 1468 0697 AF040000 		.4byte	0x4af
 1469 069b 02       		.byte	0x2
 1470 069c 23       		.byte	0x23
 1471 069d 11       		.uleb128 0x11
 1472 069e 06       		.uleb128 0x6
 1473 069f 33070000 		.4byte	.LASF95
 1474 06a3 10       		.byte	0x10
 1475 06a4 AD       		.byte	0xad
 1476 06a5 A7020000 		.4byte	0x2a7
 1477 06a9 02       		.byte	0x2
ARM GAS  /tmp/ccpWmyq1.s 			page 27


 1478 06aa 23       		.byte	0x23
 1479 06ab 14       		.uleb128 0x14
 1480 06ac 06       		.uleb128 0x6
 1481 06ad 34030000 		.4byte	.LASF96
 1482 06b1 10       		.byte	0x10
 1483 06b2 AD       		.byte	0xad
 1484 06b3 F1050000 		.4byte	0x5f1
 1485 06b7 02       		.byte	0x2
 1486 06b8 23       		.byte	0x23
 1487 06b9 18       		.uleb128 0x18
 1488 06ba 06       		.uleb128 0x6
 1489 06bb C8010000 		.4byte	.LASF97
 1490 06bf 10       		.byte	0x10
 1491 06c0 AD       		.byte	0xad
 1492 06c1 C5040000 		.4byte	0x4c5
 1493 06c5 02       		.byte	0x2
 1494 06c6 23       		.byte	0x23
 1495 06c7 1C       		.uleb128 0x1c
 1496 06c8 06       		.uleb128 0x6
 1497 06c9 6C040000 		.4byte	.LASF98
 1498 06cd 10       		.byte	0x10
 1499 06ce B0       		.byte	0xb0
 1500 06cf C5040000 		.4byte	0x4c5
 1501 06d3 02       		.byte	0x2
 1502 06d4 23       		.byte	0x23
 1503 06d5 1E       		.uleb128 0x1e
 1504 06d6 06       		.uleb128 0x6
 1505 06d7 9E000000 		.4byte	.LASF84
 1506 06db 10       		.byte	0x10
 1507 06dc B2       		.byte	0xb2
 1508 06dd AF040000 		.4byte	0x4af
 1509 06e1 02       		.byte	0x2
 1510 06e2 23       		.byte	0x23
 1511 06e3 20       		.uleb128 0x20
 1512 06e4 06       		.uleb128 0x6
 1513 06e5 1B020000 		.4byte	.LASF99
 1514 06e9 10       		.byte	0x10
 1515 06ea BF       		.byte	0xbf
 1516 06eb DB040000 		.4byte	0x4db
 1517 06ef 02       		.byte	0x2
 1518 06f0 23       		.byte	0x23
 1519 06f1 24       		.uleb128 0x24
 1520 06f2 06       		.uleb128 0x6
 1521 06f3 9C050000 		.4byte	.LASF100
 1522 06f7 10       		.byte	0x10
 1523 06f8 C0       		.byte	0xc0
 1524 06f9 C5040000 		.4byte	0x4c5
 1525 06fd 02       		.byte	0x2
 1526 06fe 23       		.byte	0x23
 1527 06ff 28       		.uleb128 0x28
 1528 0700 06       		.uleb128 0x6
 1529 0701 7F040000 		.4byte	.LASF101
 1530 0705 10       		.byte	0x10
 1531 0706 C1       		.byte	0xc1
 1532 0707 C5040000 		.4byte	0x4c5
 1533 070b 02       		.byte	0x2
 1534 070c 23       		.byte	0x23
ARM GAS  /tmp/ccpWmyq1.s 			page 28


 1535 070d 2A       		.uleb128 0x2a
 1536 070e 06       		.uleb128 0x6
 1537 070f 38010000 		.4byte	.LASF102
 1538 0713 10       		.byte	0x10
 1539 0714 C2       		.byte	0xc2
 1540 0715 DB040000 		.4byte	0x4db
 1541 0719 02       		.byte	0x2
 1542 071a 23       		.byte	0x23
 1543 071b 2C       		.uleb128 0x2c
 1544 071c 07       		.uleb128 0x7
 1545 071d 746D7200 		.ascii	"tmr\000"
 1546 0721 10       		.byte	0x10
 1547 0722 C5       		.byte	0xc5
 1548 0723 DB040000 		.4byte	0x4db
 1549 0727 02       		.byte	0x2
 1550 0728 23       		.byte	0x23
 1551 0729 30       		.uleb128 0x30
 1552 072a 06       		.uleb128 0x6
 1553 072b 88000000 		.4byte	.LASF103
 1554 072f 10       		.byte	0x10
 1555 0730 C6       		.byte	0xc6
 1556 0731 AF040000 		.4byte	0x4af
 1557 0735 02       		.byte	0x2
 1558 0736 23       		.byte	0x23
 1559 0737 34       		.uleb128 0x34
 1560 0738 06       		.uleb128 0x6
 1561 0739 4B060000 		.4byte	.LASF104
 1562 073d 10       		.byte	0x10
 1563 073e C6       		.byte	0xc6
 1564 073f AF040000 		.4byte	0x4af
 1565 0743 02       		.byte	0x2
 1566 0744 23       		.byte	0x23
 1567 0745 35       		.uleb128 0x35
 1568 0746 06       		.uleb128 0x6
 1569 0747 08020000 		.4byte	.LASF105
 1570 074b 10       		.byte	0x10
 1571 074c C9       		.byte	0xc9
 1572 074d D0040000 		.4byte	0x4d0
 1573 0751 02       		.byte	0x2
 1574 0752 23       		.byte	0x23
 1575 0753 36       		.uleb128 0x36
 1576 0754 07       		.uleb128 0x7
 1577 0755 6D737300 		.ascii	"mss\000"
 1578 0759 10       		.byte	0x10
 1579 075a CB       		.byte	0xcb
 1580 075b C5040000 		.4byte	0x4c5
 1581 075f 02       		.byte	0x2
 1582 0760 23       		.byte	0x23
 1583 0761 38       		.uleb128 0x38
 1584 0762 06       		.uleb128 0x6
 1585 0763 A4050000 		.4byte	.LASF106
 1586 0767 10       		.byte	0x10
 1587 0768 CE       		.byte	0xce
 1588 0769 DB040000 		.4byte	0x4db
 1589 076d 02       		.byte	0x2
 1590 076e 23       		.byte	0x23
 1591 076f 3C       		.uleb128 0x3c
ARM GAS  /tmp/ccpWmyq1.s 			page 29


 1592 0770 06       		.uleb128 0x6
 1593 0771 1A030000 		.4byte	.LASF107
 1594 0775 10       		.byte	0x10
 1595 0776 CF       		.byte	0xcf
 1596 0777 DB040000 		.4byte	0x4db
 1597 077b 02       		.byte	0x2
 1598 077c 23       		.byte	0x23
 1599 077d 40       		.uleb128 0x40
 1600 077e 07       		.uleb128 0x7
 1601 077f 736100   		.ascii	"sa\000"
 1602 0782 10       		.byte	0x10
 1603 0783 D0       		.byte	0xd0
 1604 0784 D0040000 		.4byte	0x4d0
 1605 0788 02       		.byte	0x2
 1606 0789 23       		.byte	0x23
 1607 078a 44       		.uleb128 0x44
 1608 078b 07       		.uleb128 0x7
 1609 078c 737600   		.ascii	"sv\000"
 1610 078f 10       		.byte	0x10
 1611 0790 D0       		.byte	0xd0
 1612 0791 D0040000 		.4byte	0x4d0
 1613 0795 02       		.byte	0x2
 1614 0796 23       		.byte	0x23
 1615 0797 46       		.uleb128 0x46
 1616 0798 07       		.uleb128 0x7
 1617 0799 72746F00 		.ascii	"rto\000"
 1618 079d 10       		.byte	0x10
 1619 079e D2       		.byte	0xd2
 1620 079f D0040000 		.4byte	0x4d0
 1621 07a3 02       		.byte	0x2
 1622 07a4 23       		.byte	0x23
 1623 07a5 48       		.uleb128 0x48
 1624 07a6 06       		.uleb128 0x6
 1625 07a7 19080000 		.4byte	.LASF108
 1626 07ab 10       		.byte	0x10
 1627 07ac D3       		.byte	0xd3
 1628 07ad AF040000 		.4byte	0x4af
 1629 07b1 02       		.byte	0x2
 1630 07b2 23       		.byte	0x23
 1631 07b3 4A       		.uleb128 0x4a
 1632 07b4 06       		.uleb128 0x6
 1633 07b5 DA020000 		.4byte	.LASF109
 1634 07b9 10       		.byte	0x10
 1635 07ba D6       		.byte	0xd6
 1636 07bb DB040000 		.4byte	0x4db
 1637 07bf 02       		.byte	0x2
 1638 07c0 23       		.byte	0x23
 1639 07c1 4C       		.uleb128 0x4c
 1640 07c2 06       		.uleb128 0x6
 1641 07c3 27030000 		.4byte	.LASF110
 1642 07c7 10       		.byte	0x10
 1643 07c8 D7       		.byte	0xd7
 1644 07c9 AF040000 		.4byte	0x4af
 1645 07cd 02       		.byte	0x2
 1646 07ce 23       		.byte	0x23
 1647 07cf 50       		.uleb128 0x50
 1648 07d0 06       		.uleb128 0x6
ARM GAS  /tmp/ccpWmyq1.s 			page 30


 1649 07d1 98010000 		.4byte	.LASF111
 1650 07d5 10       		.byte	0x10
 1651 07d6 DA       		.byte	0xda
 1652 07d7 C5040000 		.4byte	0x4c5
 1653 07db 02       		.byte	0x2
 1654 07dc 23       		.byte	0x23
 1655 07dd 52       		.uleb128 0x52
 1656 07de 06       		.uleb128 0x6
 1657 07df 3A060000 		.4byte	.LASF112
 1658 07e3 10       		.byte	0x10
 1659 07e4 DB       		.byte	0xdb
 1660 07e5 C5040000 		.4byte	0x4c5
 1661 07e9 02       		.byte	0x2
 1662 07ea 23       		.byte	0x23
 1663 07eb 54       		.uleb128 0x54
 1664 07ec 06       		.uleb128 0x6
 1665 07ed 0D060000 		.4byte	.LASF113
 1666 07f1 10       		.byte	0x10
 1667 07f2 DE       		.byte	0xde
 1668 07f3 DB040000 		.4byte	0x4db
 1669 07f7 02       		.byte	0x2
 1670 07f8 23       		.byte	0x23
 1671 07f9 58       		.uleb128 0x58
 1672 07fa 06       		.uleb128 0x6
 1673 07fb 38050000 		.4byte	.LASF114
 1674 07ff 10       		.byte	0x10
 1675 0800 DF       		.byte	0xdf
 1676 0801 C5040000 		.4byte	0x4c5
 1677 0805 02       		.byte	0x2
 1678 0806 23       		.byte	0x23
 1679 0807 5C       		.uleb128 0x5c
 1680 0808 06       		.uleb128 0x6
 1681 0809 B1030000 		.4byte	.LASF115
 1682 080d 10       		.byte	0x10
 1683 080e E0       		.byte	0xe0
 1684 080f DB040000 		.4byte	0x4db
 1685 0813 02       		.byte	0x2
 1686 0814 23       		.byte	0x23
 1687 0815 60       		.uleb128 0x60
 1688 0816 06       		.uleb128 0x6
 1689 0817 B9030000 		.4byte	.LASF116
 1690 081b 10       		.byte	0x10
 1691 081c E0       		.byte	0xe0
 1692 081d DB040000 		.4byte	0x4db
 1693 0821 02       		.byte	0x2
 1694 0822 23       		.byte	0x23
 1695 0823 64       		.uleb128 0x64
 1696 0824 06       		.uleb128 0x6
 1697 0825 DE030000 		.4byte	.LASF117
 1698 0829 10       		.byte	0x10
 1699 082a E2       		.byte	0xe2
 1700 082b DB040000 		.4byte	0x4db
 1701 082f 02       		.byte	0x2
 1702 0830 23       		.byte	0x23
 1703 0831 68       		.uleb128 0x68
 1704 0832 06       		.uleb128 0x6
 1705 0833 68030000 		.4byte	.LASF118
ARM GAS  /tmp/ccpWmyq1.s 			page 31


 1706 0837 10       		.byte	0x10
 1707 0838 E4       		.byte	0xe4
 1708 0839 C5040000 		.4byte	0x4c5
 1709 083d 02       		.byte	0x2
 1710 083e 23       		.byte	0x23
 1711 083f 6C       		.uleb128 0x6c
 1712 0840 06       		.uleb128 0x6
 1713 0841 43060000 		.4byte	.LASF119
 1714 0845 10       		.byte	0x10
 1715 0846 E6       		.byte	0xe6
 1716 0847 C5040000 		.4byte	0x4c5
 1717 084b 02       		.byte	0x2
 1718 084c 23       		.byte	0x23
 1719 084d 6E       		.uleb128 0x6e
 1720 084e 06       		.uleb128 0x6
 1721 084f 85070000 		.4byte	.LASF120
 1722 0853 10       		.byte	0x10
 1723 0854 E8       		.byte	0xe8
 1724 0855 C5040000 		.4byte	0x4c5
 1725 0859 02       		.byte	0x2
 1726 085a 23       		.byte	0x23
 1727 085b 70       		.uleb128 0x70
 1728 085c 06       		.uleb128 0x6
 1729 085d EE050000 		.4byte	.LASF121
 1730 0861 10       		.byte	0x10
 1731 0862 EC       		.byte	0xec
 1732 0863 C5040000 		.4byte	0x4c5
 1733 0867 02       		.byte	0x2
 1734 0868 23       		.byte	0x23
 1735 0869 72       		.uleb128 0x72
 1736 086a 06       		.uleb128 0x6
 1737 086b 95050000 		.4byte	.LASF122
 1738 086f 10       		.byte	0x10
 1739 0870 F0       		.byte	0xf0
 1740 0871 850A0000 		.4byte	0xa85
 1741 0875 02       		.byte	0x2
 1742 0876 23       		.byte	0x23
 1743 0877 74       		.uleb128 0x74
 1744 0878 06       		.uleb128 0x6
 1745 0879 42020000 		.4byte	.LASF123
 1746 087d 10       		.byte	0x10
 1747 087e F1       		.byte	0xf1
 1748 087f 850A0000 		.4byte	0xa85
 1749 0883 02       		.byte	0x2
 1750 0884 23       		.byte	0x23
 1751 0885 78       		.uleb128 0x78
 1752 0886 06       		.uleb128 0x6
 1753 0887 48050000 		.4byte	.LASF124
 1754 088b 10       		.byte	0x10
 1755 088c F3       		.byte	0xf3
 1756 088d 850A0000 		.4byte	0xa85
 1757 0891 02       		.byte	0x2
 1758 0892 23       		.byte	0x23
 1759 0893 7C       		.uleb128 0x7c
 1760 0894 06       		.uleb128 0x6
 1761 0895 CE060000 		.4byte	.LASF125
 1762 0899 10       		.byte	0x10
ARM GAS  /tmp/ccpWmyq1.s 			page 32


 1763 089a F6       		.byte	0xf6
 1764 089b C5050000 		.4byte	0x5c5
 1765 089f 03       		.byte	0x3
 1766 08a0 23       		.byte	0x23
 1767 08a1 8001     		.uleb128 0x80
 1768 08a3 06       		.uleb128 0x6
 1769 08a4 99030000 		.4byte	.LASF126
 1770 08a8 10       		.byte	0x10
 1771 08a9 FA       		.byte	0xfa
 1772 08aa 61090000 		.4byte	0x961
 1773 08ae 03       		.byte	0x3
 1774 08af 23       		.byte	0x23
 1775 08b0 8401     		.uleb128 0x84
 1776 08b2 06       		.uleb128 0x6
 1777 08b3 99070000 		.4byte	.LASF127
 1778 08b7 10       		.byte	0x10
 1779 08b8 FC       		.byte	0xfc
 1780 08b9 31090000 		.4byte	0x931
 1781 08bd 03       		.byte	0x3
 1782 08be 23       		.byte	0x23
 1783 08bf 8801     		.uleb128 0x88
 1784 08c1 06       		.uleb128 0x6
 1785 08c2 99020000 		.4byte	.LASF128
 1786 08c6 10       		.byte	0x10
 1787 08c7 FE       		.byte	0xfe
 1788 08c8 D4090000 		.4byte	0x9d4
 1789 08cc 03       		.byte	0x3
 1790 08cd 23       		.byte	0x23
 1791 08ce 8C01     		.uleb128 0x8c
 1792 08d0 14       		.uleb128 0x14
 1793 08d1 45030000 		.4byte	.LASF129
 1794 08d5 10       		.byte	0x10
 1795 08d6 0001     		.2byte	0x100
 1796 08d8 8C090000 		.4byte	0x98c
 1797 08dc 03       		.byte	0x3
 1798 08dd 23       		.byte	0x23
 1799 08de 9001     		.uleb128 0x90
 1800 08e0 14       		.uleb128 0x14
 1801 08e1 2C050000 		.4byte	.LASF130
 1802 08e5 10       		.byte	0x10
 1803 08e6 0201     		.2byte	0x102
 1804 08e8 B2090000 		.4byte	0x9b2
 1805 08ec 03       		.byte	0x3
 1806 08ed 23       		.byte	0x23
 1807 08ee 9401     		.uleb128 0x94
 1808 08f0 14       		.uleb128 0x14
 1809 08f1 29070000 		.4byte	.LASF131
 1810 08f5 10       		.byte	0x10
 1811 08f6 0B01     		.2byte	0x10b
 1812 08f8 DB040000 		.4byte	0x4db
 1813 08fc 03       		.byte	0x3
 1814 08fd 23       		.byte	0x23
 1815 08fe 9801     		.uleb128 0x98
 1816 0900 14       		.uleb128 0x14
 1817 0901 CC070000 		.4byte	.LASF132
 1818 0905 10       		.byte	0x10
 1819 0906 1201     		.2byte	0x112
ARM GAS  /tmp/ccpWmyq1.s 			page 33


 1820 0908 DB040000 		.4byte	0x4db
 1821 090c 03       		.byte	0x3
 1822 090d 23       		.byte	0x23
 1823 090e 9C01     		.uleb128 0x9c
 1824 0910 14       		.uleb128 0x14
 1825 0911 26040000 		.4byte	.LASF133
 1826 0915 10       		.byte	0x10
 1827 0916 1401     		.2byte	0x114
 1828 0918 AF040000 		.4byte	0x4af
 1829 091c 03       		.byte	0x3
 1830 091d 23       		.byte	0x23
 1831 091e A001     		.uleb128 0xa0
 1832 0920 14       		.uleb128 0x14
 1833 0921 52010000 		.4byte	.LASF134
 1834 0925 10       		.byte	0x10
 1835 0926 1701     		.2byte	0x117
 1836 0928 AF040000 		.4byte	0x4af
 1837 092c 03       		.byte	0x3
 1838 092d 23       		.byte	0x23
 1839 092e A101     		.uleb128 0xa1
 1840 0930 00       		.byte	0
 1841 0931 04       		.uleb128 0x4
 1842 0932 FD040000 		.4byte	.LASF135
 1843 0936 10       		.byte	0x10
 1844 0937 49       		.byte	0x49
 1845 0938 3C090000 		.4byte	0x93c
 1846 093c 09       		.uleb128 0x9
 1847 093d 04       		.byte	0x4
 1848 093e 42090000 		.4byte	0x942
 1849 0942 13       		.uleb128 0x13
 1850 0943 01       		.byte	0x1
 1851 0944 E6040000 		.4byte	0x4e6
 1852 0948 61090000 		.4byte	0x961
 1853 094c 0E       		.uleb128 0xe
 1854 094d A7020000 		.4byte	0x2a7
 1855 0951 0E       		.uleb128 0xe
 1856 0952 1C060000 		.4byte	0x61c
 1857 0956 0E       		.uleb128 0xe
 1858 0957 C5050000 		.4byte	0x5c5
 1859 095b 0E       		.uleb128 0xe
 1860 095c E6040000 		.4byte	0x4e6
 1861 0960 00       		.byte	0
 1862 0961 04       		.uleb128 0x4
 1863 0962 68010000 		.4byte	.LASF136
 1864 0966 10       		.byte	0x10
 1865 0967 57       		.byte	0x57
 1866 0968 6C090000 		.4byte	0x96c
 1867 096c 09       		.uleb128 0x9
 1868 096d 04       		.byte	0x4
 1869 096e 72090000 		.4byte	0x972
 1870 0972 13       		.uleb128 0x13
 1871 0973 01       		.byte	0x1
 1872 0974 E6040000 		.4byte	0x4e6
 1873 0978 8C090000 		.4byte	0x98c
 1874 097c 0E       		.uleb128 0xe
 1875 097d A7020000 		.4byte	0x2a7
 1876 0981 0E       		.uleb128 0xe
ARM GAS  /tmp/ccpWmyq1.s 			page 34


 1877 0982 1C060000 		.4byte	0x61c
 1878 0986 0E       		.uleb128 0xe
 1879 0987 C5040000 		.4byte	0x4c5
 1880 098b 00       		.byte	0
 1881 098c 04       		.uleb128 0x4
 1882 098d 17050000 		.4byte	.LASF137
 1883 0991 10       		.byte	0x10
 1884 0992 63       		.byte	0x63
 1885 0993 97090000 		.4byte	0x997
 1886 0997 09       		.uleb128 0x9
 1887 0998 04       		.byte	0x4
 1888 0999 9D090000 		.4byte	0x99d
 1889 099d 13       		.uleb128 0x13
 1890 099e 01       		.byte	0x1
 1891 099f E6040000 		.4byte	0x4e6
 1892 09a3 B2090000 		.4byte	0x9b2
 1893 09a7 0E       		.uleb128 0xe
 1894 09a8 A7020000 		.4byte	0x2a7
 1895 09ac 0E       		.uleb128 0xe
 1896 09ad 1C060000 		.4byte	0x61c
 1897 09b1 00       		.byte	0
 1898 09b2 04       		.uleb128 0x4
 1899 09b3 D3030000 		.4byte	.LASF138
 1900 09b7 10       		.byte	0x10
 1901 09b8 6F       		.byte	0x6f
 1902 09b9 BD090000 		.4byte	0x9bd
 1903 09bd 09       		.uleb128 0x9
 1904 09be 04       		.byte	0x4
 1905 09bf C3090000 		.4byte	0x9c3
 1906 09c3 0D       		.uleb128 0xd
 1907 09c4 01       		.byte	0x1
 1908 09c5 D4090000 		.4byte	0x9d4
 1909 09c9 0E       		.uleb128 0xe
 1910 09ca A7020000 		.4byte	0x2a7
 1911 09ce 0E       		.uleb128 0xe
 1912 09cf E6040000 		.4byte	0x4e6
 1913 09d3 00       		.byte	0
 1914 09d4 04       		.uleb128 0x4
 1915 09d5 D6000000 		.4byte	.LASF139
 1916 09d9 10       		.byte	0x10
 1917 09da 7D       		.byte	0x7d
 1918 09db FC050000 		.4byte	0x5fc
 1919 09df 15       		.uleb128 0x15
 1920 09e0 F8070000 		.4byte	.LASF204
 1921 09e4 01       		.byte	0x1
 1922 09e5 10       		.byte	0x10
 1923 09e6 7F       		.byte	0x7f
 1924 09e7 2E0A0000 		.4byte	0xa2e
 1925 09eb 16       		.uleb128 0x16
 1926 09ec 59050000 		.4byte	.LASF140
 1927 09f0 00       		.sleb128 0
 1928 09f1 16       		.uleb128 0x16
 1929 09f2 4A070000 		.4byte	.LASF141
 1930 09f6 01       		.sleb128 1
 1931 09f7 16       		.uleb128 0x16
 1932 09f8 20070000 		.4byte	.LASF142
 1933 09fc 02       		.sleb128 2
ARM GAS  /tmp/ccpWmyq1.s 			page 35


 1934 09fd 16       		.uleb128 0x16
 1935 09fe 32080000 		.4byte	.LASF143
 1936 0a02 03       		.sleb128 3
 1937 0a03 16       		.uleb128 0x16
 1938 0a04 15060000 		.4byte	.LASF144
 1939 0a08 04       		.sleb128 4
 1940 0a09 16       		.uleb128 0x16
 1941 0a0a F6060000 		.4byte	.LASF145
 1942 0a0e 05       		.sleb128 5
 1943 0a0f 16       		.uleb128 0x16
 1944 0a10 01070000 		.4byte	.LASF146
 1945 0a14 06       		.sleb128 6
 1946 0a15 16       		.uleb128 0x16
 1947 0a16 6E030000 		.4byte	.LASF147
 1948 0a1a 07       		.sleb128 7
 1949 0a1b 16       		.uleb128 0x16
 1950 0a1c B1020000 		.4byte	.LASF148
 1951 0a20 08       		.sleb128 8
 1952 0a21 16       		.uleb128 0x16
 1953 0a22 62020000 		.4byte	.LASF149
 1954 0a26 09       		.sleb128 9
 1955 0a27 16       		.uleb128 0x16
 1956 0a28 3C040000 		.4byte	.LASF150
 1957 0a2c 0A       		.sleb128 10
 1958 0a2d 00       		.byte	0
 1959 0a2e 0B       		.uleb128 0xb
 1960 0a2f E3010000 		.4byte	.LASF151
 1961 0a33 10       		.byte	0x10
 1962 0a34 11       		.byte	0x11
 1963 0a35 1601     		.2byte	0x116
 1964 0a37 850A0000 		.4byte	0xa85
 1965 0a3b 14       		.uleb128 0x14
 1966 0a3c E7000000 		.4byte	.LASF78
 1967 0a40 11       		.byte	0x11
 1968 0a41 1701     		.2byte	0x117
 1969 0a43 850A0000 		.4byte	0xa85
 1970 0a47 02       		.byte	0x2
 1971 0a48 23       		.byte	0x23
 1972 0a49 00       		.uleb128 0
 1973 0a4a 0C       		.uleb128 0xc
 1974 0a4b 7000     		.ascii	"p\000"
 1975 0a4d 11       		.byte	0x11
 1976 0a4e 1801     		.2byte	0x118
 1977 0a50 C5050000 		.4byte	0x5c5
 1978 0a54 02       		.byte	0x2
 1979 0a55 23       		.byte	0x23
 1980 0a56 04       		.uleb128 0x4
 1981 0a57 0C       		.uleb128 0xc
 1982 0a58 6C656E00 		.ascii	"len\000"
 1983 0a5c 11       		.byte	0x11
 1984 0a5d 1901     		.2byte	0x119
 1985 0a5f C5040000 		.4byte	0x4c5
 1986 0a63 02       		.byte	0x2
 1987 0a64 23       		.byte	0x23
 1988 0a65 08       		.uleb128 0x8
 1989 0a66 14       		.uleb128 0x14
 1990 0a67 9E000000 		.4byte	.LASF84
ARM GAS  /tmp/ccpWmyq1.s 			page 36


 1991 0a6b 11       		.byte	0x11
 1992 0a6c 2301     		.2byte	0x123
 1993 0a6e AF040000 		.4byte	0x4af
 1994 0a72 02       		.byte	0x2
 1995 0a73 23       		.byte	0x23
 1996 0a74 0A       		.uleb128 0xa
 1997 0a75 14       		.uleb128 0x14
 1998 0a76 B9060000 		.4byte	.LASF152
 1999 0a7a 11       		.byte	0x11
 2000 0a7b 2801     		.2byte	0x128
 2001 0a7d 080B0000 		.4byte	0xb08
 2002 0a81 02       		.byte	0x2
 2003 0a82 23       		.byte	0x23
 2004 0a83 0C       		.uleb128 0xc
 2005 0a84 00       		.byte	0
 2006 0a85 09       		.uleb128 0x9
 2007 0a86 04       		.byte	0x4
 2008 0a87 2E0A0000 		.4byte	0xa2e
 2009 0a8b 05       		.uleb128 0x5
 2010 0a8c DB060000 		.4byte	.LASF153
 2011 0a90 14       		.byte	0x14
 2012 0a91 11       		.byte	0x11
 2013 0a92 9E       		.byte	0x9e
 2014 0a93 080B0000 		.4byte	0xb08
 2015 0a97 07       		.uleb128 0x7
 2016 0a98 73726300 		.ascii	"src\000"
 2017 0a9c 11       		.byte	0x11
 2018 0a9d 9F       		.byte	0x9f
 2019 0a9e C5040000 		.4byte	0x4c5
 2020 0aa2 02       		.byte	0x2
 2021 0aa3 23       		.byte	0x23
 2022 0aa4 00       		.uleb128 0
 2023 0aa5 06       		.uleb128 0x6
 2024 0aa6 24080000 		.4byte	.LASF154
 2025 0aaa 11       		.byte	0x11
 2026 0aab A0       		.byte	0xa0
 2027 0aac C5040000 		.4byte	0x4c5
 2028 0ab0 02       		.byte	0x2
 2029 0ab1 23       		.byte	0x23
 2030 0ab2 02       		.uleb128 0x2
 2031 0ab3 06       		.uleb128 0x6
 2032 0ab4 82010000 		.4byte	.LASF155
 2033 0ab8 11       		.byte	0x11
 2034 0ab9 A1       		.byte	0xa1
 2035 0aba DB040000 		.4byte	0x4db
 2036 0abe 02       		.byte	0x2
 2037 0abf 23       		.byte	0x23
 2038 0ac0 04       		.uleb128 0x4
 2039 0ac1 06       		.uleb128 0x6
 2040 0ac2 20040000 		.4byte	.LASF156
 2041 0ac6 11       		.byte	0x11
 2042 0ac7 A2       		.byte	0xa2
 2043 0ac8 DB040000 		.4byte	0x4db
 2044 0acc 02       		.byte	0x2
 2045 0acd 23       		.byte	0x23
 2046 0ace 08       		.uleb128 0x8
 2047 0acf 06       		.uleb128 0x6
ARM GAS  /tmp/ccpWmyq1.s 			page 37


 2048 0ad0 65060000 		.4byte	.LASF157
 2049 0ad4 11       		.byte	0x11
 2050 0ad5 A3       		.byte	0xa3
 2051 0ad6 C5040000 		.4byte	0x4c5
 2052 0ada 02       		.byte	0x2
 2053 0adb 23       		.byte	0x23
 2054 0adc 0C       		.uleb128 0xc
 2055 0add 07       		.uleb128 0x7
 2056 0ade 776E6400 		.ascii	"wnd\000"
 2057 0ae2 11       		.byte	0x11
 2058 0ae3 A4       		.byte	0xa4
 2059 0ae4 C5040000 		.4byte	0x4c5
 2060 0ae8 02       		.byte	0x2
 2061 0ae9 23       		.byte	0x23
 2062 0aea 0E       		.uleb128 0xe
 2063 0aeb 06       		.uleb128 0x6
 2064 0aec 92070000 		.4byte	.LASF158
 2065 0af0 11       		.byte	0x11
 2066 0af1 A5       		.byte	0xa5
 2067 0af2 C5040000 		.4byte	0x4c5
 2068 0af6 02       		.byte	0x2
 2069 0af7 23       		.byte	0x23
 2070 0af8 10       		.uleb128 0x10
 2071 0af9 06       		.uleb128 0x6
 2072 0afa 83000000 		.4byte	.LASF159
 2073 0afe 11       		.byte	0x11
 2074 0aff A6       		.byte	0xa6
 2075 0b00 C5040000 		.4byte	0x4c5
 2076 0b04 02       		.byte	0x2
 2077 0b05 23       		.byte	0x23
 2078 0b06 12       		.uleb128 0x12
 2079 0b07 00       		.byte	0
 2080 0b08 09       		.uleb128 0x9
 2081 0b09 04       		.byte	0x4
 2082 0b0a 8B0A0000 		.4byte	0xa8b
 2083 0b0e 17       		.uleb128 0x17
 2084 0b0f 01       		.byte	0x1
 2085 0b10 12       		.byte	0x12
 2086 0b11 2B       		.byte	0x2b
 2087 0b12 710B0000 		.4byte	0xb71
 2088 0b16 16       		.uleb128 0x16
 2089 0b17 58060000 		.4byte	.LASF160
 2090 0b1b 00       		.sleb128 0
 2091 0b1c 16       		.uleb128 0x16
 2092 0b1d CD050000 		.4byte	.LASF161
 2093 0b21 01       		.sleb128 1
 2094 0b22 16       		.uleb128 0x16
 2095 0b23 AC060000 		.4byte	.LASF162
 2096 0b27 02       		.sleb128 2
 2097 0b28 16       		.uleb128 0x16
 2098 0b29 33000000 		.4byte	.LASF163
 2099 0b2d 03       		.sleb128 3
 2100 0b2e 16       		.uleb128 0x16
 2101 0b2f 13070000 		.4byte	.LASF164
 2102 0b33 04       		.sleb128 4
 2103 0b34 16       		.uleb128 0x16
 2104 0b35 DF040000 		.4byte	.LASF165
ARM GAS  /tmp/ccpWmyq1.s 			page 38


 2105 0b39 05       		.sleb128 5
 2106 0b3a 16       		.uleb128 0x16
 2107 0b3b 2B060000 		.4byte	.LASF166
 2108 0b3f 06       		.sleb128 6
 2109 0b40 16       		.uleb128 0x16
 2110 0b41 F2030000 		.4byte	.LASF167
 2111 0b45 07       		.sleb128 7
 2112 0b46 16       		.uleb128 0x16
 2113 0b47 0D030000 		.4byte	.LASF168
 2114 0b4b 08       		.sleb128 8
 2115 0b4c 16       		.uleb128 0x16
 2116 0b4d B5010000 		.4byte	.LASF169
 2117 0b51 09       		.sleb128 9
 2118 0b52 16       		.uleb128 0x16
 2119 0b53 23020000 		.4byte	.LASF170
 2120 0b57 0A       		.sleb128 10
 2121 0b58 16       		.uleb128 0x16
 2122 0b59 B5050000 		.4byte	.LASF171
 2123 0b5d 0B       		.sleb128 11
 2124 0b5e 16       		.uleb128 0x16
 2125 0b5f 3B030000 		.4byte	.LASF172
 2126 0b63 0C       		.sleb128 12
 2127 0b64 16       		.uleb128 0x16
 2128 0b65 EE040000 		.4byte	.LASF173
 2129 0b69 0D       		.sleb128 13
 2130 0b6a 16       		.uleb128 0x16
 2131 0b6b E2020000 		.4byte	.LASF174
 2132 0b6f 0E       		.sleb128 14
 2133 0b70 00       		.byte	0
 2134 0b71 04       		.uleb128 0x4
 2135 0b72 02080000 		.4byte	.LASF175
 2136 0b76 12       		.byte	0x12
 2137 0b77 2F       		.byte	0x2f
 2138 0b78 0E0B0000 		.4byte	0xb0e
 2139 0b7c 18       		.uleb128 0x18
 2140 0b7d 01       		.byte	0x1
 2141 0b7e 5C030000 		.4byte	.LASF179
 2142 0b82 01       		.byte	0x1
 2143 0b83 0801     		.2byte	0x108
 2144 0b85 01       		.byte	0x1
 2145 0b86 00000000 		.4byte	.LFB12
 2146 0b8a 58000000 		.4byte	.LFE12
 2147 0b8e 00000000 		.4byte	.LLST0
 2148 0b92 01       		.byte	0x1
 2149 0b93 030C0000 		.4byte	0xc03
 2150 0b97 19       		.uleb128 0x19
 2151 0b98 1E080000 		.4byte	.LASF176
 2152 0b9c 01       		.byte	0x1
 2153 0b9d 0801     		.2byte	0x108
 2154 0b9f DB040000 		.4byte	0x4db
 2155 0ba3 20000000 		.4byte	.LLST1
 2156 0ba7 19       		.uleb128 0x19
 2157 0ba8 30010000 		.4byte	.LASF177
 2158 0bac 01       		.byte	0x1
 2159 0bad 0801     		.2byte	0x108
 2160 0baf 02050000 		.4byte	0x502
 2161 0bb3 55000000 		.4byte	.LLST2
ARM GAS  /tmp/ccpWmyq1.s 			page 39


 2162 0bb7 1A       		.uleb128 0x1a
 2163 0bb8 61726700 		.ascii	"arg\000"
 2164 0bbc 01       		.byte	0x1
 2165 0bbd 0801     		.2byte	0x108
 2166 0bbf A7020000 		.4byte	0x2a7
 2167 0bc3 73000000 		.4byte	.LLST3
 2168 0bc7 1B       		.uleb128 0x1b
 2169 0bc8 40050000 		.4byte	.LASF178
 2170 0bcc 01       		.byte	0x1
 2171 0bcd 0B01     		.2byte	0x10b
 2172 0bcf 50050000 		.4byte	0x550
 2173 0bd3 91000000 		.4byte	.LLST4
 2174 0bd7 1C       		.uleb128 0x1c
 2175 0bd8 7400     		.ascii	"t\000"
 2176 0bda 01       		.byte	0x1
 2177 0bdb 0B01     		.2byte	0x10b
 2178 0bdd 50050000 		.4byte	0x550
 2179 0be1 A4000000 		.4byte	.LLST5
 2180 0be5 1D       		.uleb128 0x1d
 2181 0be6 0E000000 		.4byte	.LVL2
 2182 0bea 1B0F0000 		.4byte	0xf1b
 2183 0bee F80B0000 		.4byte	0xbf8
 2184 0bf2 1E       		.uleb128 0x1e
 2185 0bf3 01       		.byte	0x1
 2186 0bf4 50       		.byte	0x50
 2187 0bf5 01       		.byte	0x1
 2188 0bf6 3B       		.byte	0x3b
 2189 0bf7 00       		.byte	0
 2190 0bf8 1F       		.uleb128 0x1f
 2191 0bf9 52000000 		.4byte	.LVL7
 2192 0bfd 01       		.byte	0x1
 2193 0bfe 330F0000 		.4byte	0xf33
 2194 0c02 00       		.byte	0
 2195 0c03 20       		.uleb128 0x20
 2196 0c04 01       		.byte	0x1
 2197 0c05 60070000 		.4byte	.LASF180
 2198 0c09 01       		.byte	0x1
 2199 0c0a DD       		.byte	0xdd
 2200 0c0b 01       		.byte	0x1
 2201 0c0c 00000000 		.4byte	.LFB11
 2202 0c10 2A000000 		.4byte	.LFE11
 2203 0c14 B7000000 		.4byte	.LLST6
 2204 0c18 01       		.byte	0x1
 2205 0c19 610C0000 		.4byte	0xc61
 2206 0c1d 1D       		.uleb128 0x1d
 2207 0c1e 14000000 		.4byte	.LVL8
 2208 0c22 7C0B0000 		.4byte	0xb7c
 2209 0c26 400C0000 		.4byte	0xc40
 2210 0c2a 1E       		.uleb128 0x1e
 2211 0c2b 01       		.byte	0x1
 2212 0c2c 52       		.byte	0x52
 2213 0c2d 01       		.byte	0x1
 2214 0c2e 30       		.byte	0x30
 2215 0c2f 1E       		.uleb128 0x1e
 2216 0c30 01       		.byte	0x1
 2217 0c31 51       		.byte	0x51
 2218 0c32 05       		.byte	0x5
ARM GAS  /tmp/ccpWmyq1.s 			page 40


 2219 0c33 03       		.byte	0x3
 2220 0c34 00000000 		.4byte	ip_reass_timer
 2221 0c38 1E       		.uleb128 0x1e
 2222 0c39 01       		.byte	0x1
 2223 0c3a 50       		.byte	0x50
 2224 0c3b 03       		.byte	0x3
 2225 0c3c 0A       		.byte	0xa
 2226 0c3d E803     		.2byte	0x3e8
 2227 0c3f 00       		.byte	0
 2228 0c40 21       		.uleb128 0x21
 2229 0c41 2A000000 		.4byte	.LVL9
 2230 0c45 01       		.byte	0x1
 2231 0c46 7C0B0000 		.4byte	0xb7c
 2232 0c4a 1E       		.uleb128 0x1e
 2233 0c4b 01       		.byte	0x1
 2234 0c4c 52       		.byte	0x52
 2235 0c4d 01       		.byte	0x1
 2236 0c4e 30       		.byte	0x30
 2237 0c4f 1E       		.uleb128 0x1e
 2238 0c50 01       		.byte	0x1
 2239 0c51 51       		.byte	0x51
 2240 0c52 05       		.byte	0x5
 2241 0c53 03       		.byte	0x3
 2242 0c54 00000000 		.4byte	arp_timer
 2243 0c58 1E       		.uleb128 0x1e
 2244 0c59 01       		.byte	0x1
 2245 0c5a 50       		.byte	0x50
 2246 0c5b 03       		.byte	0x3
 2247 0c5c 0A       		.byte	0xa
 2248 0c5d 8813     		.2byte	0x1388
 2249 0c5f 00       		.byte	0
 2250 0c60 00       		.byte	0
 2251 0c61 22       		.uleb128 0x22
 2252 0c62 82020000 		.4byte	.LASF181
 2253 0c66 01       		.byte	0x1
 2254 0c67 85       		.byte	0x85
 2255 0c68 01       		.byte	0x1
 2256 0c69 00000000 		.4byte	.LFB10
 2257 0c6d 1C000000 		.4byte	.LFE10
 2258 0c71 D7000000 		.4byte	.LLST7
 2259 0c75 01       		.byte	0x1
 2260 0c76 B30C0000 		.4byte	0xcb3
 2261 0c7a 23       		.uleb128 0x23
 2262 0c7b 61726700 		.ascii	"arg\000"
 2263 0c7f 01       		.byte	0x1
 2264 0c80 85       		.byte	0x85
 2265 0c81 A7020000 		.4byte	0x2a7
 2266 0c85 F7000000 		.4byte	.LLST8
 2267 0c89 24       		.uleb128 0x24
 2268 0c8a 06000000 		.4byte	.LVL11
 2269 0c8e 3E0F0000 		.4byte	0xf3e
 2270 0c92 21       		.uleb128 0x21
 2271 0c93 1C000000 		.4byte	.LVL12
 2272 0c97 01       		.byte	0x1
 2273 0c98 7C0B0000 		.4byte	0xb7c
 2274 0c9c 1E       		.uleb128 0x1e
 2275 0c9d 01       		.byte	0x1
ARM GAS  /tmp/ccpWmyq1.s 			page 41


 2276 0c9e 52       		.byte	0x52
 2277 0c9f 01       		.byte	0x1
 2278 0ca0 30       		.byte	0x30
 2279 0ca1 1E       		.uleb128 0x1e
 2280 0ca2 01       		.byte	0x1
 2281 0ca3 51       		.byte	0x51
 2282 0ca4 05       		.byte	0x5
 2283 0ca5 03       		.byte	0x3
 2284 0ca6 00000000 		.4byte	arp_timer
 2285 0caa 1E       		.uleb128 0x1e
 2286 0cab 01       		.byte	0x1
 2287 0cac 50       		.byte	0x50
 2288 0cad 03       		.byte	0x3
 2289 0cae 0A       		.byte	0xa
 2290 0caf 8813     		.2byte	0x1388
 2291 0cb1 00       		.byte	0
 2292 0cb2 00       		.byte	0
 2293 0cb3 22       		.uleb128 0x22
 2294 0cb4 FE050000 		.4byte	.LASF182
 2295 0cb8 01       		.byte	0x1
 2296 0cb9 75       		.byte	0x75
 2297 0cba 01       		.byte	0x1
 2298 0cbb 00000000 		.4byte	.LFB9
 2299 0cbf 1C000000 		.4byte	.LFE9
 2300 0cc3 18010000 		.4byte	.LLST9
 2301 0cc7 01       		.byte	0x1
 2302 0cc8 050D0000 		.4byte	0xd05
 2303 0ccc 23       		.uleb128 0x23
 2304 0ccd 61726700 		.ascii	"arg\000"
 2305 0cd1 01       		.byte	0x1
 2306 0cd2 75       		.byte	0x75
 2307 0cd3 A7020000 		.4byte	0x2a7
 2308 0cd7 38010000 		.4byte	.LLST10
 2309 0cdb 24       		.uleb128 0x24
 2310 0cdc 06000000 		.4byte	.LVL14
 2311 0ce0 480F0000 		.4byte	0xf48
 2312 0ce4 21       		.uleb128 0x21
 2313 0ce5 1C000000 		.4byte	.LVL15
 2314 0ce9 01       		.byte	0x1
 2315 0cea 7C0B0000 		.4byte	0xb7c
 2316 0cee 1E       		.uleb128 0x1e
 2317 0cef 01       		.byte	0x1
 2318 0cf0 52       		.byte	0x52
 2319 0cf1 01       		.byte	0x1
 2320 0cf2 30       		.byte	0x30
 2321 0cf3 1E       		.uleb128 0x1e
 2322 0cf4 01       		.byte	0x1
 2323 0cf5 51       		.byte	0x51
 2324 0cf6 05       		.byte	0x5
 2325 0cf7 03       		.byte	0x3
 2326 0cf8 00000000 		.4byte	ip_reass_timer
 2327 0cfc 1E       		.uleb128 0x1e
 2328 0cfd 01       		.byte	0x1
 2329 0cfe 50       		.byte	0x50
 2330 0cff 03       		.byte	0x3
 2331 0d00 0A       		.byte	0xa
 2332 0d01 E803     		.2byte	0x3e8
ARM GAS  /tmp/ccpWmyq1.s 			page 42


 2333 0d03 00       		.byte	0
 2334 0d04 00       		.byte	0
 2335 0d05 25       		.uleb128 0x25
 2336 0d06 01       		.byte	0x1
 2337 0d07 5B040000 		.4byte	.LASF183
 2338 0d0b 01       		.byte	0x1
 2339 0d0c 63       		.byte	0x63
 2340 0d0d 01       		.byte	0x1
 2341 0d0e 00000000 		.4byte	.LFB8
 2342 0d12 34000000 		.4byte	.LFE8
 2343 0d16 02       		.byte	0x2
 2344 0d17 7D       		.byte	0x7d
 2345 0d18 00       		.sleb128 0
 2346 0d19 01       		.byte	0x1
 2347 0d1a 3E0D0000 		.4byte	0xd3e
 2348 0d1e 21       		.uleb128 0x21
 2349 0d1f 1A000000 		.4byte	.LVL16
 2350 0d23 01       		.byte	0x1
 2351 0d24 7C0B0000 		.4byte	0xb7c
 2352 0d28 1E       		.uleb128 0x1e
 2353 0d29 01       		.byte	0x1
 2354 0d2a 52       		.byte	0x52
 2355 0d2b 01       		.byte	0x1
 2356 0d2c 30       		.byte	0x30
 2357 0d2d 1E       		.uleb128 0x1e
 2358 0d2e 01       		.byte	0x1
 2359 0d2f 51       		.byte	0x51
 2360 0d30 05       		.byte	0x5
 2361 0d31 03       		.byte	0x3
 2362 0d32 00000000 		.4byte	tcpip_tcp_timer
 2363 0d36 1E       		.uleb128 0x1e
 2364 0d37 01       		.byte	0x1
 2365 0d38 50       		.byte	0x50
 2366 0d39 02       		.byte	0x2
 2367 0d3a 08       		.byte	0x8
 2368 0d3b FA       		.byte	0xfa
 2369 0d3c 00       		.byte	0
 2370 0d3d 00       		.byte	0
 2371 0d3e 22       		.uleb128 0x22
 2372 0d3f 43080000 		.4byte	.LASF184
 2373 0d43 01       		.byte	0x1
 2374 0d44 4D       		.byte	0x4d
 2375 0d45 01       		.byte	0x1
 2376 0d46 00000000 		.4byte	.LFB7
 2377 0d4a 38000000 		.4byte	.LFE7
 2378 0d4e 59010000 		.4byte	.LLST11
 2379 0d52 01       		.byte	0x1
 2380 0d53 8F0D0000 		.4byte	0xd8f
 2381 0d57 23       		.uleb128 0x23
 2382 0d58 61726700 		.ascii	"arg\000"
 2383 0d5c 01       		.byte	0x1
 2384 0d5d 4D       		.byte	0x4d
 2385 0d5e A7020000 		.4byte	0x2a7
 2386 0d62 79010000 		.4byte	.LLST12
 2387 0d66 24       		.uleb128 0x24
 2388 0d67 06000000 		.4byte	.LVL18
 2389 0d6b 520F0000 		.4byte	0xf52
ARM GAS  /tmp/ccpWmyq1.s 			page 43


 2390 0d6f 21       		.uleb128 0x21
 2391 0d70 1A000000 		.4byte	.LVL19
 2392 0d74 01       		.byte	0x1
 2393 0d75 7C0B0000 		.4byte	0xb7c
 2394 0d79 1E       		.uleb128 0x1e
 2395 0d7a 01       		.byte	0x1
 2396 0d7b 52       		.byte	0x52
 2397 0d7c 01       		.byte	0x1
 2398 0d7d 30       		.byte	0x30
 2399 0d7e 1E       		.uleb128 0x1e
 2400 0d7f 01       		.byte	0x1
 2401 0d80 51       		.byte	0x51
 2402 0d81 05       		.byte	0x5
 2403 0d82 03       		.byte	0x3
 2404 0d83 00000000 		.4byte	tcpip_tcp_timer
 2405 0d87 1E       		.uleb128 0x1e
 2406 0d88 01       		.byte	0x1
 2407 0d89 50       		.byte	0x50
 2408 0d8a 02       		.byte	0x2
 2409 0d8b 08       		.byte	0x8
 2410 0d8c FA       		.byte	0xfa
 2411 0d8d 00       		.byte	0
 2412 0d8e 00       		.byte	0
 2413 0d8f 18       		.uleb128 0x18
 2414 0d90 01       		.byte	0x1
 2415 0d91 EC000000 		.4byte	.LASF185
 2416 0d95 01       		.byte	0x1
 2417 0d96 3F01     		.2byte	0x13f
 2418 0d98 01       		.byte	0x1
 2419 0d99 00000000 		.4byte	.LFB13
 2420 0d9d 48000000 		.4byte	.LFE13
 2421 0da1 9A010000 		.4byte	.LLST13
 2422 0da5 01       		.byte	0x1
 2423 0da6 F90D0000 		.4byte	0xdf9
 2424 0daa 19       		.uleb128 0x19
 2425 0dab 30010000 		.4byte	.LASF177
 2426 0daf 01       		.byte	0x1
 2427 0db0 3F01     		.2byte	0x13f
 2428 0db2 02050000 		.4byte	0x502
 2429 0db6 BA010000 		.4byte	.LLST14
 2430 0dba 1A       		.uleb128 0x1a
 2431 0dbb 61726700 		.ascii	"arg\000"
 2432 0dbf 01       		.byte	0x1
 2433 0dc0 3F01     		.2byte	0x13f
 2434 0dc2 A7020000 		.4byte	0x2a7
 2435 0dc6 E6010000 		.4byte	.LLST15
 2436 0dca 1B       		.uleb128 0x1b
 2437 0dcb 00000000 		.4byte	.LASF186
 2438 0dcf 01       		.byte	0x1
 2439 0dd0 4101     		.2byte	0x141
 2440 0dd2 50050000 		.4byte	0x550
 2441 0dd6 12020000 		.4byte	.LLST16
 2442 0dda 1C       		.uleb128 0x1c
 2443 0ddb 7400     		.ascii	"t\000"
 2444 0ddd 01       		.byte	0x1
 2445 0dde 4101     		.2byte	0x141
 2446 0de0 50050000 		.4byte	0x550
ARM GAS  /tmp/ccpWmyq1.s 			page 44


 2447 0de4 30020000 		.4byte	.LLST17
 2448 0de8 21       		.uleb128 0x21
 2449 0de9 3C000000 		.4byte	.LVL26
 2450 0ded 01       		.byte	0x1
 2451 0dee 5C0F0000 		.4byte	0xf5c
 2452 0df2 1E       		.uleb128 0x1e
 2453 0df3 01       		.byte	0x1
 2454 0df4 50       		.byte	0x50
 2455 0df5 01       		.byte	0x1
 2456 0df6 3B       		.byte	0x3b
 2457 0df7 00       		.byte	0
 2458 0df8 00       		.byte	0
 2459 0df9 18       		.uleb128 0x18
 2460 0dfa 01       		.byte	0x1
 2461 0dfb 4A020000 		.4byte	.LASF187
 2462 0dff 01       		.byte	0x1
 2463 0e00 A201     		.2byte	0x1a2
 2464 0e02 01       		.byte	0x1
 2465 0e03 00000000 		.4byte	.LFB14
 2466 0e07 70000000 		.4byte	.LFE14
 2467 0e0b 43020000 		.4byte	.LLST18
 2468 0e0f 01       		.byte	0x1
 2469 0e10 D10E0000 		.4byte	0xed1
 2470 0e14 19       		.uleb128 0x19
 2471 0e15 E9050000 		.4byte	.LASF188
 2472 0e19 01       		.byte	0x1
 2473 0e1a A201     		.2byte	0x1a2
 2474 0e1c D10E0000 		.4byte	0xed1
 2475 0e20 63020000 		.4byte	.LLST19
 2476 0e24 1A       		.uleb128 0x1a
 2477 0e25 6D736700 		.ascii	"msg\000"
 2478 0e29 01       		.byte	0x1
 2479 0e2a A201     		.2byte	0x1a2
 2480 0e2c D70E0000 		.4byte	0xed7
 2481 0e30 81020000 		.4byte	.LLST20
 2482 0e34 1B       		.uleb128 0x1b
 2483 0e35 1D010000 		.4byte	.LASF189
 2484 0e39 01       		.byte	0x1
 2485 0e3a A401     		.2byte	0x1a4
 2486 0e3c DB040000 		.4byte	0x4db
 2487 0e40 9F020000 		.4byte	.LLST21
 2488 0e44 1B       		.uleb128 0x1b
 2489 0e45 07000000 		.4byte	.LASF190
 2490 0e49 01       		.byte	0x1
 2491 0e4a A501     		.2byte	0x1a5
 2492 0e4c 50050000 		.4byte	0x550
 2493 0e50 BD020000 		.4byte	.LLST22
 2494 0e54 1B       		.uleb128 0x1b
 2495 0e55 30010000 		.4byte	.LASF177
 2496 0e59 01       		.byte	0x1
 2497 0e5a A601     		.2byte	0x1a6
 2498 0e5c 02050000 		.4byte	0x502
 2499 0e60 D0020000 		.4byte	.LLST23
 2500 0e64 1C       		.uleb128 0x1c
 2501 0e65 61726700 		.ascii	"arg\000"
 2502 0e69 01       		.byte	0x1
 2503 0e6a A701     		.2byte	0x1a7
ARM GAS  /tmp/ccpWmyq1.s 			page 45


 2504 0e6c A7020000 		.4byte	0x2a7
 2505 0e70 EE020000 		.4byte	.LLST24
 2506 0e74 26       		.uleb128 0x26
 2507 0e75 69000000 		.4byte	.LASF205
 2508 0e79 01       		.byte	0x1
 2509 0e7a A901     		.2byte	0x1a9
 2510 0e7c 1D       		.uleb128 0x1d
 2511 0e7d 20000000 		.4byte	.LVL32
 2512 0e81 5C0F0000 		.4byte	0xf5c
 2513 0e85 8F0E0000 		.4byte	0xe8f
 2514 0e89 1E       		.uleb128 0x1e
 2515 0e8a 01       		.byte	0x1
 2516 0e8b 50       		.byte	0x50
 2517 0e8c 01       		.byte	0x1
 2518 0e8d 3B       		.byte	0x3b
 2519 0e8e 00       		.byte	0
 2520 0e8f 1D       		.uleb128 0x1d
 2521 0e90 34000000 		.4byte	.LVL34
 2522 0e94 750F0000 		.4byte	0xf75
 2523 0e98 A90E0000 		.4byte	0xea9
 2524 0e9c 1E       		.uleb128 0x1e
 2525 0e9d 01       		.byte	0x1
 2526 0e9e 51       		.byte	0x51
 2527 0e9f 02       		.byte	0x2
 2528 0ea0 76       		.byte	0x76
 2529 0ea1 00       		.sleb128 0
 2530 0ea2 1E       		.uleb128 0x1e
 2531 0ea3 01       		.byte	0x1
 2532 0ea4 50       		.byte	0x50
 2533 0ea5 02       		.byte	0x2
 2534 0ea6 77       		.byte	0x77
 2535 0ea7 00       		.sleb128 0
 2536 0ea8 00       		.byte	0
 2537 0ea9 27       		.uleb128 0x27
 2538 0eaa 42000000 		.4byte	.LVL36
 2539 0eae B90E0000 		.4byte	0xeb9
 2540 0eb2 1E       		.uleb128 0x1e
 2541 0eb3 01       		.byte	0x1
 2542 0eb4 50       		.byte	0x50
 2543 0eb5 02       		.byte	0x2
 2544 0eb6 79       		.byte	0x79
 2545 0eb7 00       		.sleb128 0
 2546 0eb8 00       		.byte	0
 2547 0eb9 21       		.uleb128 0x21
 2548 0eba 56000000 		.4byte	.LVL38
 2549 0ebe 01       		.byte	0x1
 2550 0ebf 750F0000 		.4byte	0xf75
 2551 0ec3 1E       		.uleb128 0x1e
 2552 0ec4 01       		.byte	0x1
 2553 0ec5 51       		.byte	0x51
 2554 0ec6 02       		.byte	0x2
 2555 0ec7 76       		.byte	0x76
 2556 0ec8 00       		.sleb128 0
 2557 0ec9 1E       		.uleb128 0x1e
 2558 0eca 01       		.byte	0x1
 2559 0ecb 50       		.byte	0x50
 2560 0ecc 02       		.byte	0x2
ARM GAS  /tmp/ccpWmyq1.s 			page 46


 2561 0ecd 77       		.byte	0x77
 2562 0ece 00       		.sleb128 0
 2563 0ecf 00       		.byte	0
 2564 0ed0 00       		.byte	0
 2565 0ed1 09       		.uleb128 0x9
 2566 0ed2 04       		.byte	0x4
 2567 0ed3 F1040000 		.4byte	0x4f1
 2568 0ed7 09       		.uleb128 0x9
 2569 0ed8 04       		.byte	0x4
 2570 0ed9 A7020000 		.4byte	0x2a7
 2571 0edd 28       		.uleb128 0x28
 2572 0ede 78070000 		.4byte	.LASF191
 2573 0ee2 01       		.byte	0x1
 2574 0ee3 3E       		.byte	0x3e
 2575 0ee4 50050000 		.4byte	0x550
 2576 0ee8 05       		.byte	0x5
 2577 0ee9 03       		.byte	0x3
 2578 0eea 00000000 		.4byte	next_timeout
 2579 0eee 28       		.uleb128 0x28
 2580 0eef 00010000 		.4byte	.LASF192
 2581 0ef3 01       		.byte	0x1
 2582 0ef4 45       		.byte	0x45
 2583 0ef5 29000000 		.4byte	0x29
 2584 0ef9 05       		.byte	0x5
 2585 0efa 03       		.byte	0x3
 2586 0efb 00000000 		.4byte	tcpip_tcp_timer_active
 2587 0eff 29       		.uleb128 0x29
 2588 0f00 09080000 		.4byte	.LASF193
 2589 0f04 11       		.byte	0x11
 2590 0f05 4001     		.2byte	0x140
 2591 0f07 1C060000 		.4byte	0x61c
 2592 0f0b 01       		.byte	0x1
 2593 0f0c 01       		.byte	0x1
 2594 0f0d 29       		.uleb128 0x29
 2595 0f0e E2070000 		.4byte	.LASF194
 2596 0f12 11       		.byte	0x11
 2597 0f13 4301     		.2byte	0x143
 2598 0f15 1C060000 		.4byte	0x61c
 2599 0f19 01       		.byte	0x1
 2600 0f1a 01       		.byte	0x1
 2601 0f1b 2A       		.uleb128 0x2a
 2602 0f1c 01       		.byte	0x1
 2603 0f1d E6030000 		.4byte	.LASF206
 2604 0f21 12       		.byte	0x12
 2605 0f22 6A       		.byte	0x6a
 2606 0f23 01       		.byte	0x1
 2607 0f24 A7020000 		.4byte	0x2a7
 2608 0f28 01       		.byte	0x1
 2609 0f29 330F0000 		.4byte	0xf33
 2610 0f2d 0E       		.uleb128 0xe
 2611 0f2e 710B0000 		.4byte	0xb71
 2612 0f32 00       		.byte	0
 2613 0f33 2B       		.uleb128 0x2b
 2614 0f34 01       		.byte	0x1
 2615 0f35 40070000 		.4byte	.LASF195
 2616 0f39 06       		.byte	0x6
 2617 0f3a FA01     		.2byte	0x1fa
ARM GAS  /tmp/ccpWmyq1.s 			page 47


 2618 0f3c 01       		.byte	0x1
 2619 0f3d 01       		.byte	0x1
 2620 0f3e 2C       		.uleb128 0x2c
 2621 0f3f 01       		.byte	0x1
 2622 0f40 F0020000 		.4byte	.LASF196
 2623 0f44 13       		.byte	0x13
 2624 0f45 B6       		.byte	0xb6
 2625 0f46 01       		.byte	0x1
 2626 0f47 01       		.byte	0x1
 2627 0f48 2C       		.uleb128 0x2c
 2628 0f49 01       		.byte	0x1
 2629 0f4a 8C020000 		.4byte	.LASF197
 2630 0f4e 14       		.byte	0x14
 2631 0f4f 40       		.byte	0x40
 2632 0f50 01       		.byte	0x1
 2633 0f51 01       		.byte	0x1
 2634 0f52 2C       		.uleb128 0x2c
 2635 0f53 01       		.byte	0x1
 2636 0f54 7A010000 		.4byte	.LASF198
 2637 0f58 11       		.byte	0x11
 2638 0f59 37       		.byte	0x37
 2639 0f5a 01       		.byte	0x1
 2640 0f5b 01       		.byte	0x1
 2641 0f5c 2D       		.uleb128 0x2d
 2642 0f5d 01       		.byte	0x1
 2643 0f5e 38020000 		.4byte	.LASF199
 2644 0f62 12       		.byte	0x12
 2645 0f63 6C       		.byte	0x6c
 2646 0f64 01       		.byte	0x1
 2647 0f65 01       		.byte	0x1
 2648 0f66 750F0000 		.4byte	0xf75
 2649 0f6a 0E       		.uleb128 0xe
 2650 0f6b 710B0000 		.4byte	0xb71
 2651 0f6f 0E       		.uleb128 0xe
 2652 0f70 A7020000 		.4byte	0x2a7
 2653 0f74 00       		.byte	0
 2654 0f75 2E       		.uleb128 0x2e
 2655 0f76 01       		.byte	0x1
 2656 0f77 0C040000 		.4byte	.LASF200
 2657 0f7b 15       		.byte	0x15
 2658 0f7c B9       		.byte	0xb9
 2659 0f7d 01       		.byte	0x1
 2660 0f7e DB040000 		.4byte	0x4db
 2661 0f82 01       		.byte	0x1
 2662 0f83 0E       		.uleb128 0xe
 2663 0f84 D10E0000 		.4byte	0xed1
 2664 0f88 0E       		.uleb128 0xe
 2665 0f89 D70E0000 		.4byte	0xed7
 2666 0f8d 0E       		.uleb128 0xe
 2667 0f8e DB040000 		.4byte	0x4db
 2668 0f92 00       		.byte	0
 2669 0f93 00       		.byte	0
 2670              		.section	.debug_abbrev,"",%progbits
 2671              	.Ldebug_abbrev0:
 2672 0000 01       		.uleb128 0x1
 2673 0001 11       		.uleb128 0x11
 2674 0002 01       		.byte	0x1
ARM GAS  /tmp/ccpWmyq1.s 			page 48


 2675 0003 25       		.uleb128 0x25
 2676 0004 0E       		.uleb128 0xe
 2677 0005 13       		.uleb128 0x13
 2678 0006 0B       		.uleb128 0xb
 2679 0007 03       		.uleb128 0x3
 2680 0008 0E       		.uleb128 0xe
 2681 0009 1B       		.uleb128 0x1b
 2682 000a 0E       		.uleb128 0xe
 2683 000b 55       		.uleb128 0x55
 2684 000c 06       		.uleb128 0x6
 2685 000d 11       		.uleb128 0x11
 2686 000e 01       		.uleb128 0x1
 2687 000f 52       		.uleb128 0x52
 2688 0010 01       		.uleb128 0x1
 2689 0011 10       		.uleb128 0x10
 2690 0012 06       		.uleb128 0x6
 2691 0013 00       		.byte	0
 2692 0014 00       		.byte	0
 2693 0015 02       		.uleb128 0x2
 2694 0016 24       		.uleb128 0x24
 2695 0017 00       		.byte	0
 2696 0018 0B       		.uleb128 0xb
 2697 0019 0B       		.uleb128 0xb
 2698 001a 3E       		.uleb128 0x3e
 2699 001b 0B       		.uleb128 0xb
 2700 001c 03       		.uleb128 0x3
 2701 001d 08       		.uleb128 0x8
 2702 001e 00       		.byte	0
 2703 001f 00       		.byte	0
 2704 0020 03       		.uleb128 0x3
 2705 0021 24       		.uleb128 0x24
 2706 0022 00       		.byte	0
 2707 0023 0B       		.uleb128 0xb
 2708 0024 0B       		.uleb128 0xb
 2709 0025 3E       		.uleb128 0x3e
 2710 0026 0B       		.uleb128 0xb
 2711 0027 03       		.uleb128 0x3
 2712 0028 0E       		.uleb128 0xe
 2713 0029 00       		.byte	0
 2714 002a 00       		.byte	0
 2715 002b 04       		.uleb128 0x4
 2716 002c 16       		.uleb128 0x16
 2717 002d 00       		.byte	0
 2718 002e 03       		.uleb128 0x3
 2719 002f 0E       		.uleb128 0xe
 2720 0030 3A       		.uleb128 0x3a
 2721 0031 0B       		.uleb128 0xb
 2722 0032 3B       		.uleb128 0x3b
 2723 0033 0B       		.uleb128 0xb
 2724 0034 49       		.uleb128 0x49
 2725 0035 13       		.uleb128 0x13
 2726 0036 00       		.byte	0
 2727 0037 00       		.byte	0
 2728 0038 05       		.uleb128 0x5
 2729 0039 13       		.uleb128 0x13
 2730 003a 01       		.byte	0x1
 2731 003b 03       		.uleb128 0x3
ARM GAS  /tmp/ccpWmyq1.s 			page 49


 2732 003c 0E       		.uleb128 0xe
 2733 003d 0B       		.uleb128 0xb
 2734 003e 0B       		.uleb128 0xb
 2735 003f 3A       		.uleb128 0x3a
 2736 0040 0B       		.uleb128 0xb
 2737 0041 3B       		.uleb128 0x3b
 2738 0042 0B       		.uleb128 0xb
 2739 0043 01       		.uleb128 0x1
 2740 0044 13       		.uleb128 0x13
 2741 0045 00       		.byte	0
 2742 0046 00       		.byte	0
 2743 0047 06       		.uleb128 0x6
 2744 0048 0D       		.uleb128 0xd
 2745 0049 00       		.byte	0
 2746 004a 03       		.uleb128 0x3
 2747 004b 0E       		.uleb128 0xe
 2748 004c 3A       		.uleb128 0x3a
 2749 004d 0B       		.uleb128 0xb
 2750 004e 3B       		.uleb128 0x3b
 2751 004f 0B       		.uleb128 0xb
 2752 0050 49       		.uleb128 0x49
 2753 0051 13       		.uleb128 0x13
 2754 0052 38       		.uleb128 0x38
 2755 0053 0A       		.uleb128 0xa
 2756 0054 00       		.byte	0
 2757 0055 00       		.byte	0
 2758 0056 07       		.uleb128 0x7
 2759 0057 0D       		.uleb128 0xd
 2760 0058 00       		.byte	0
 2761 0059 03       		.uleb128 0x3
 2762 005a 08       		.uleb128 0x8
 2763 005b 3A       		.uleb128 0x3a
 2764 005c 0B       		.uleb128 0xb
 2765 005d 3B       		.uleb128 0x3b
 2766 005e 0B       		.uleb128 0xb
 2767 005f 49       		.uleb128 0x49
 2768 0060 13       		.uleb128 0x13
 2769 0061 38       		.uleb128 0x38
 2770 0062 0A       		.uleb128 0xa
 2771 0063 00       		.byte	0
 2772 0064 00       		.byte	0
 2773 0065 08       		.uleb128 0x8
 2774 0066 13       		.uleb128 0x13
 2775 0067 01       		.byte	0x1
 2776 0068 0B       		.uleb128 0xb
 2777 0069 0B       		.uleb128 0xb
 2778 006a 3A       		.uleb128 0x3a
 2779 006b 0B       		.uleb128 0xb
 2780 006c 3B       		.uleb128 0x3b
 2781 006d 0B       		.uleb128 0xb
 2782 006e 01       		.uleb128 0x1
 2783 006f 13       		.uleb128 0x13
 2784 0070 00       		.byte	0
 2785 0071 00       		.byte	0
 2786 0072 09       		.uleb128 0x9
 2787 0073 0F       		.uleb128 0xf
 2788 0074 00       		.byte	0
ARM GAS  /tmp/ccpWmyq1.s 			page 50


 2789 0075 0B       		.uleb128 0xb
 2790 0076 0B       		.uleb128 0xb
 2791 0077 49       		.uleb128 0x49
 2792 0078 13       		.uleb128 0x13
 2793 0079 00       		.byte	0
 2794 007a 00       		.byte	0
 2795 007b 0A       		.uleb128 0xa
 2796 007c 0F       		.uleb128 0xf
 2797 007d 00       		.byte	0
 2798 007e 0B       		.uleb128 0xb
 2799 007f 0B       		.uleb128 0xb
 2800 0080 00       		.byte	0
 2801 0081 00       		.byte	0
 2802 0082 0B       		.uleb128 0xb
 2803 0083 13       		.uleb128 0x13
 2804 0084 01       		.byte	0x1
 2805 0085 03       		.uleb128 0x3
 2806 0086 0E       		.uleb128 0xe
 2807 0087 0B       		.uleb128 0xb
 2808 0088 0B       		.uleb128 0xb
 2809 0089 3A       		.uleb128 0x3a
 2810 008a 0B       		.uleb128 0xb
 2811 008b 3B       		.uleb128 0x3b
 2812 008c 05       		.uleb128 0x5
 2813 008d 01       		.uleb128 0x1
 2814 008e 13       		.uleb128 0x13
 2815 008f 00       		.byte	0
 2816 0090 00       		.byte	0
 2817 0091 0C       		.uleb128 0xc
 2818 0092 0D       		.uleb128 0xd
 2819 0093 00       		.byte	0
 2820 0094 03       		.uleb128 0x3
 2821 0095 08       		.uleb128 0x8
 2822 0096 3A       		.uleb128 0x3a
 2823 0097 0B       		.uleb128 0xb
 2824 0098 3B       		.uleb128 0x3b
 2825 0099 05       		.uleb128 0x5
 2826 009a 49       		.uleb128 0x49
 2827 009b 13       		.uleb128 0x13
 2828 009c 38       		.uleb128 0x38
 2829 009d 0A       		.uleb128 0xa
 2830 009e 00       		.byte	0
 2831 009f 00       		.byte	0
 2832 00a0 0D       		.uleb128 0xd
 2833 00a1 15       		.uleb128 0x15
 2834 00a2 01       		.byte	0x1
 2835 00a3 27       		.uleb128 0x27
 2836 00a4 0C       		.uleb128 0xc
 2837 00a5 01       		.uleb128 0x1
 2838 00a6 13       		.uleb128 0x13
 2839 00a7 00       		.byte	0
 2840 00a8 00       		.byte	0
 2841 00a9 0E       		.uleb128 0xe
 2842 00aa 05       		.uleb128 0x5
 2843 00ab 00       		.byte	0
 2844 00ac 49       		.uleb128 0x49
 2845 00ad 13       		.uleb128 0x13
ARM GAS  /tmp/ccpWmyq1.s 			page 51


 2846 00ae 00       		.byte	0
 2847 00af 00       		.byte	0
 2848 00b0 0F       		.uleb128 0xf
 2849 00b1 35       		.uleb128 0x35
 2850 00b2 00       		.byte	0
 2851 00b3 49       		.uleb128 0x49
 2852 00b4 13       		.uleb128 0x13
 2853 00b5 00       		.byte	0
 2854 00b6 00       		.byte	0
 2855 00b7 10       		.uleb128 0x10
 2856 00b8 17       		.uleb128 0x17
 2857 00b9 01       		.byte	0x1
 2858 00ba 0B       		.uleb128 0xb
 2859 00bb 0B       		.uleb128 0xb
 2860 00bc 3A       		.uleb128 0x3a
 2861 00bd 0B       		.uleb128 0xb
 2862 00be 3B       		.uleb128 0x3b
 2863 00bf 0B       		.uleb128 0xb
 2864 00c0 01       		.uleb128 0x1
 2865 00c1 13       		.uleb128 0x13
 2866 00c2 00       		.byte	0
 2867 00c3 00       		.byte	0
 2868 00c4 11       		.uleb128 0x11
 2869 00c5 0D       		.uleb128 0xd
 2870 00c6 00       		.byte	0
 2871 00c7 03       		.uleb128 0x3
 2872 00c8 0E       		.uleb128 0xe
 2873 00c9 3A       		.uleb128 0x3a
 2874 00ca 0B       		.uleb128 0xb
 2875 00cb 3B       		.uleb128 0x3b
 2876 00cc 0B       		.uleb128 0xb
 2877 00cd 49       		.uleb128 0x49
 2878 00ce 13       		.uleb128 0x13
 2879 00cf 00       		.byte	0
 2880 00d0 00       		.byte	0
 2881 00d1 12       		.uleb128 0x12
 2882 00d2 26       		.uleb128 0x26
 2883 00d3 00       		.byte	0
 2884 00d4 49       		.uleb128 0x49
 2885 00d5 13       		.uleb128 0x13
 2886 00d6 00       		.byte	0
 2887 00d7 00       		.byte	0
 2888 00d8 13       		.uleb128 0x13
 2889 00d9 15       		.uleb128 0x15
 2890 00da 01       		.byte	0x1
 2891 00db 27       		.uleb128 0x27
 2892 00dc 0C       		.uleb128 0xc
 2893 00dd 49       		.uleb128 0x49
 2894 00de 13       		.uleb128 0x13
 2895 00df 01       		.uleb128 0x1
 2896 00e0 13       		.uleb128 0x13
 2897 00e1 00       		.byte	0
 2898 00e2 00       		.byte	0
 2899 00e3 14       		.uleb128 0x14
 2900 00e4 0D       		.uleb128 0xd
 2901 00e5 00       		.byte	0
 2902 00e6 03       		.uleb128 0x3
ARM GAS  /tmp/ccpWmyq1.s 			page 52


 2903 00e7 0E       		.uleb128 0xe
 2904 00e8 3A       		.uleb128 0x3a
 2905 00e9 0B       		.uleb128 0xb
 2906 00ea 3B       		.uleb128 0x3b
 2907 00eb 05       		.uleb128 0x5
 2908 00ec 49       		.uleb128 0x49
 2909 00ed 13       		.uleb128 0x13
 2910 00ee 38       		.uleb128 0x38
 2911 00ef 0A       		.uleb128 0xa
 2912 00f0 00       		.byte	0
 2913 00f1 00       		.byte	0
 2914 00f2 15       		.uleb128 0x15
 2915 00f3 04       		.uleb128 0x4
 2916 00f4 01       		.byte	0x1
 2917 00f5 03       		.uleb128 0x3
 2918 00f6 0E       		.uleb128 0xe
 2919 00f7 0B       		.uleb128 0xb
 2920 00f8 0B       		.uleb128 0xb
 2921 00f9 3A       		.uleb128 0x3a
 2922 00fa 0B       		.uleb128 0xb
 2923 00fb 3B       		.uleb128 0x3b
 2924 00fc 0B       		.uleb128 0xb
 2925 00fd 01       		.uleb128 0x1
 2926 00fe 13       		.uleb128 0x13
 2927 00ff 00       		.byte	0
 2928 0100 00       		.byte	0
 2929 0101 16       		.uleb128 0x16
 2930 0102 28       		.uleb128 0x28
 2931 0103 00       		.byte	0
 2932 0104 03       		.uleb128 0x3
 2933 0105 0E       		.uleb128 0xe
 2934 0106 1C       		.uleb128 0x1c
 2935 0107 0D       		.uleb128 0xd
 2936 0108 00       		.byte	0
 2937 0109 00       		.byte	0
 2938 010a 17       		.uleb128 0x17
 2939 010b 04       		.uleb128 0x4
 2940 010c 01       		.byte	0x1
 2941 010d 0B       		.uleb128 0xb
 2942 010e 0B       		.uleb128 0xb
 2943 010f 3A       		.uleb128 0x3a
 2944 0110 0B       		.uleb128 0xb
 2945 0111 3B       		.uleb128 0x3b
 2946 0112 0B       		.uleb128 0xb
 2947 0113 01       		.uleb128 0x1
 2948 0114 13       		.uleb128 0x13
 2949 0115 00       		.byte	0
 2950 0116 00       		.byte	0
 2951 0117 18       		.uleb128 0x18
 2952 0118 2E       		.uleb128 0x2e
 2953 0119 01       		.byte	0x1
 2954 011a 3F       		.uleb128 0x3f
 2955 011b 0C       		.uleb128 0xc
 2956 011c 03       		.uleb128 0x3
 2957 011d 0E       		.uleb128 0xe
 2958 011e 3A       		.uleb128 0x3a
 2959 011f 0B       		.uleb128 0xb
ARM GAS  /tmp/ccpWmyq1.s 			page 53


 2960 0120 3B       		.uleb128 0x3b
 2961 0121 05       		.uleb128 0x5
 2962 0122 27       		.uleb128 0x27
 2963 0123 0C       		.uleb128 0xc
 2964 0124 11       		.uleb128 0x11
 2965 0125 01       		.uleb128 0x1
 2966 0126 12       		.uleb128 0x12
 2967 0127 01       		.uleb128 0x1
 2968 0128 40       		.uleb128 0x40
 2969 0129 06       		.uleb128 0x6
 2970 012a 9742     		.uleb128 0x2117
 2971 012c 0C       		.uleb128 0xc
 2972 012d 01       		.uleb128 0x1
 2973 012e 13       		.uleb128 0x13
 2974 012f 00       		.byte	0
 2975 0130 00       		.byte	0
 2976 0131 19       		.uleb128 0x19
 2977 0132 05       		.uleb128 0x5
 2978 0133 00       		.byte	0
 2979 0134 03       		.uleb128 0x3
 2980 0135 0E       		.uleb128 0xe
 2981 0136 3A       		.uleb128 0x3a
 2982 0137 0B       		.uleb128 0xb
 2983 0138 3B       		.uleb128 0x3b
 2984 0139 05       		.uleb128 0x5
 2985 013a 49       		.uleb128 0x49
 2986 013b 13       		.uleb128 0x13
 2987 013c 02       		.uleb128 0x2
 2988 013d 06       		.uleb128 0x6
 2989 013e 00       		.byte	0
 2990 013f 00       		.byte	0
 2991 0140 1A       		.uleb128 0x1a
 2992 0141 05       		.uleb128 0x5
 2993 0142 00       		.byte	0
 2994 0143 03       		.uleb128 0x3
 2995 0144 08       		.uleb128 0x8
 2996 0145 3A       		.uleb128 0x3a
 2997 0146 0B       		.uleb128 0xb
 2998 0147 3B       		.uleb128 0x3b
 2999 0148 05       		.uleb128 0x5
 3000 0149 49       		.uleb128 0x49
 3001 014a 13       		.uleb128 0x13
 3002 014b 02       		.uleb128 0x2
 3003 014c 06       		.uleb128 0x6
 3004 014d 00       		.byte	0
 3005 014e 00       		.byte	0
 3006 014f 1B       		.uleb128 0x1b
 3007 0150 34       		.uleb128 0x34
 3008 0151 00       		.byte	0
 3009 0152 03       		.uleb128 0x3
 3010 0153 0E       		.uleb128 0xe
 3011 0154 3A       		.uleb128 0x3a
 3012 0155 0B       		.uleb128 0xb
 3013 0156 3B       		.uleb128 0x3b
 3014 0157 05       		.uleb128 0x5
 3015 0158 49       		.uleb128 0x49
 3016 0159 13       		.uleb128 0x13
ARM GAS  /tmp/ccpWmyq1.s 			page 54


 3017 015a 02       		.uleb128 0x2
 3018 015b 06       		.uleb128 0x6
 3019 015c 00       		.byte	0
 3020 015d 00       		.byte	0
 3021 015e 1C       		.uleb128 0x1c
 3022 015f 34       		.uleb128 0x34
 3023 0160 00       		.byte	0
 3024 0161 03       		.uleb128 0x3
 3025 0162 08       		.uleb128 0x8
 3026 0163 3A       		.uleb128 0x3a
 3027 0164 0B       		.uleb128 0xb
 3028 0165 3B       		.uleb128 0x3b
 3029 0166 05       		.uleb128 0x5
 3030 0167 49       		.uleb128 0x49
 3031 0168 13       		.uleb128 0x13
 3032 0169 02       		.uleb128 0x2
 3033 016a 06       		.uleb128 0x6
 3034 016b 00       		.byte	0
 3035 016c 00       		.byte	0
 3036 016d 1D       		.uleb128 0x1d
 3037 016e 898201   		.uleb128 0x4109
 3038 0171 01       		.byte	0x1
 3039 0172 11       		.uleb128 0x11
 3040 0173 01       		.uleb128 0x1
 3041 0174 31       		.uleb128 0x31
 3042 0175 13       		.uleb128 0x13
 3043 0176 01       		.uleb128 0x1
 3044 0177 13       		.uleb128 0x13
 3045 0178 00       		.byte	0
 3046 0179 00       		.byte	0
 3047 017a 1E       		.uleb128 0x1e
 3048 017b 8A8201   		.uleb128 0x410a
 3049 017e 00       		.byte	0
 3050 017f 02       		.uleb128 0x2
 3051 0180 0A       		.uleb128 0xa
 3052 0181 9142     		.uleb128 0x2111
 3053 0183 0A       		.uleb128 0xa
 3054 0184 00       		.byte	0
 3055 0185 00       		.byte	0
 3056 0186 1F       		.uleb128 0x1f
 3057 0187 898201   		.uleb128 0x4109
 3058 018a 00       		.byte	0
 3059 018b 11       		.uleb128 0x11
 3060 018c 01       		.uleb128 0x1
 3061 018d 9542     		.uleb128 0x2115
 3062 018f 0C       		.uleb128 0xc
 3063 0190 31       		.uleb128 0x31
 3064 0191 13       		.uleb128 0x13
 3065 0192 00       		.byte	0
 3066 0193 00       		.byte	0
 3067 0194 20       		.uleb128 0x20
 3068 0195 2E       		.uleb128 0x2e
 3069 0196 01       		.byte	0x1
 3070 0197 3F       		.uleb128 0x3f
 3071 0198 0C       		.uleb128 0xc
 3072 0199 03       		.uleb128 0x3
 3073 019a 0E       		.uleb128 0xe
ARM GAS  /tmp/ccpWmyq1.s 			page 55


 3074 019b 3A       		.uleb128 0x3a
 3075 019c 0B       		.uleb128 0xb
 3076 019d 3B       		.uleb128 0x3b
 3077 019e 0B       		.uleb128 0xb
 3078 019f 27       		.uleb128 0x27
 3079 01a0 0C       		.uleb128 0xc
 3080 01a1 11       		.uleb128 0x11
 3081 01a2 01       		.uleb128 0x1
 3082 01a3 12       		.uleb128 0x12
 3083 01a4 01       		.uleb128 0x1
 3084 01a5 40       		.uleb128 0x40
 3085 01a6 06       		.uleb128 0x6
 3086 01a7 9742     		.uleb128 0x2117
 3087 01a9 0C       		.uleb128 0xc
 3088 01aa 01       		.uleb128 0x1
 3089 01ab 13       		.uleb128 0x13
 3090 01ac 00       		.byte	0
 3091 01ad 00       		.byte	0
 3092 01ae 21       		.uleb128 0x21
 3093 01af 898201   		.uleb128 0x4109
 3094 01b2 01       		.byte	0x1
 3095 01b3 11       		.uleb128 0x11
 3096 01b4 01       		.uleb128 0x1
 3097 01b5 9542     		.uleb128 0x2115
 3098 01b7 0C       		.uleb128 0xc
 3099 01b8 31       		.uleb128 0x31
 3100 01b9 13       		.uleb128 0x13
 3101 01ba 00       		.byte	0
 3102 01bb 00       		.byte	0
 3103 01bc 22       		.uleb128 0x22
 3104 01bd 2E       		.uleb128 0x2e
 3105 01be 01       		.byte	0x1
 3106 01bf 03       		.uleb128 0x3
 3107 01c0 0E       		.uleb128 0xe
 3108 01c1 3A       		.uleb128 0x3a
 3109 01c2 0B       		.uleb128 0xb
 3110 01c3 3B       		.uleb128 0x3b
 3111 01c4 0B       		.uleb128 0xb
 3112 01c5 27       		.uleb128 0x27
 3113 01c6 0C       		.uleb128 0xc
 3114 01c7 11       		.uleb128 0x11
 3115 01c8 01       		.uleb128 0x1
 3116 01c9 12       		.uleb128 0x12
 3117 01ca 01       		.uleb128 0x1
 3118 01cb 40       		.uleb128 0x40
 3119 01cc 06       		.uleb128 0x6
 3120 01cd 9742     		.uleb128 0x2117
 3121 01cf 0C       		.uleb128 0xc
 3122 01d0 01       		.uleb128 0x1
 3123 01d1 13       		.uleb128 0x13
 3124 01d2 00       		.byte	0
 3125 01d3 00       		.byte	0
 3126 01d4 23       		.uleb128 0x23
 3127 01d5 05       		.uleb128 0x5
 3128 01d6 00       		.byte	0
 3129 01d7 03       		.uleb128 0x3
 3130 01d8 08       		.uleb128 0x8
ARM GAS  /tmp/ccpWmyq1.s 			page 56


 3131 01d9 3A       		.uleb128 0x3a
 3132 01da 0B       		.uleb128 0xb
 3133 01db 3B       		.uleb128 0x3b
 3134 01dc 0B       		.uleb128 0xb
 3135 01dd 49       		.uleb128 0x49
 3136 01de 13       		.uleb128 0x13
 3137 01df 02       		.uleb128 0x2
 3138 01e0 06       		.uleb128 0x6
 3139 01e1 00       		.byte	0
 3140 01e2 00       		.byte	0
 3141 01e3 24       		.uleb128 0x24
 3142 01e4 898201   		.uleb128 0x4109
 3143 01e7 00       		.byte	0
 3144 01e8 11       		.uleb128 0x11
 3145 01e9 01       		.uleb128 0x1
 3146 01ea 31       		.uleb128 0x31
 3147 01eb 13       		.uleb128 0x13
 3148 01ec 00       		.byte	0
 3149 01ed 00       		.byte	0
 3150 01ee 25       		.uleb128 0x25
 3151 01ef 2E       		.uleb128 0x2e
 3152 01f0 01       		.byte	0x1
 3153 01f1 3F       		.uleb128 0x3f
 3154 01f2 0C       		.uleb128 0xc
 3155 01f3 03       		.uleb128 0x3
 3156 01f4 0E       		.uleb128 0xe
 3157 01f5 3A       		.uleb128 0x3a
 3158 01f6 0B       		.uleb128 0xb
 3159 01f7 3B       		.uleb128 0x3b
 3160 01f8 0B       		.uleb128 0xb
 3161 01f9 27       		.uleb128 0x27
 3162 01fa 0C       		.uleb128 0xc
 3163 01fb 11       		.uleb128 0x11
 3164 01fc 01       		.uleb128 0x1
 3165 01fd 12       		.uleb128 0x12
 3166 01fe 01       		.uleb128 0x1
 3167 01ff 40       		.uleb128 0x40
 3168 0200 0A       		.uleb128 0xa
 3169 0201 9742     		.uleb128 0x2117
 3170 0203 0C       		.uleb128 0xc
 3171 0204 01       		.uleb128 0x1
 3172 0205 13       		.uleb128 0x13
 3173 0206 00       		.byte	0
 3174 0207 00       		.byte	0
 3175 0208 26       		.uleb128 0x26
 3176 0209 0A       		.uleb128 0xa
 3177 020a 00       		.byte	0
 3178 020b 03       		.uleb128 0x3
 3179 020c 0E       		.uleb128 0xe
 3180 020d 3A       		.uleb128 0x3a
 3181 020e 0B       		.uleb128 0xb
 3182 020f 3B       		.uleb128 0x3b
 3183 0210 05       		.uleb128 0x5
 3184 0211 00       		.byte	0
 3185 0212 00       		.byte	0
 3186 0213 27       		.uleb128 0x27
 3187 0214 898201   		.uleb128 0x4109
ARM GAS  /tmp/ccpWmyq1.s 			page 57


 3188 0217 01       		.byte	0x1
 3189 0218 11       		.uleb128 0x11
 3190 0219 01       		.uleb128 0x1
 3191 021a 01       		.uleb128 0x1
 3192 021b 13       		.uleb128 0x13
 3193 021c 00       		.byte	0
 3194 021d 00       		.byte	0
 3195 021e 28       		.uleb128 0x28
 3196 021f 34       		.uleb128 0x34
 3197 0220 00       		.byte	0
 3198 0221 03       		.uleb128 0x3
 3199 0222 0E       		.uleb128 0xe
 3200 0223 3A       		.uleb128 0x3a
 3201 0224 0B       		.uleb128 0xb
 3202 0225 3B       		.uleb128 0x3b
 3203 0226 0B       		.uleb128 0xb
 3204 0227 49       		.uleb128 0x49
 3205 0228 13       		.uleb128 0x13
 3206 0229 02       		.uleb128 0x2
 3207 022a 0A       		.uleb128 0xa
 3208 022b 00       		.byte	0
 3209 022c 00       		.byte	0
 3210 022d 29       		.uleb128 0x29
 3211 022e 34       		.uleb128 0x34
 3212 022f 00       		.byte	0
 3213 0230 03       		.uleb128 0x3
 3214 0231 0E       		.uleb128 0xe
 3215 0232 3A       		.uleb128 0x3a
 3216 0233 0B       		.uleb128 0xb
 3217 0234 3B       		.uleb128 0x3b
 3218 0235 05       		.uleb128 0x5
 3219 0236 49       		.uleb128 0x49
 3220 0237 13       		.uleb128 0x13
 3221 0238 3F       		.uleb128 0x3f
 3222 0239 0C       		.uleb128 0xc
 3223 023a 3C       		.uleb128 0x3c
 3224 023b 0C       		.uleb128 0xc
 3225 023c 00       		.byte	0
 3226 023d 00       		.byte	0
 3227 023e 2A       		.uleb128 0x2a
 3228 023f 2E       		.uleb128 0x2e
 3229 0240 01       		.byte	0x1
 3230 0241 3F       		.uleb128 0x3f
 3231 0242 0C       		.uleb128 0xc
 3232 0243 03       		.uleb128 0x3
 3233 0244 0E       		.uleb128 0xe
 3234 0245 3A       		.uleb128 0x3a
 3235 0246 0B       		.uleb128 0xb
 3236 0247 3B       		.uleb128 0x3b
 3237 0248 0B       		.uleb128 0xb
 3238 0249 27       		.uleb128 0x27
 3239 024a 0C       		.uleb128 0xc
 3240 024b 49       		.uleb128 0x49
 3241 024c 13       		.uleb128 0x13
 3242 024d 3C       		.uleb128 0x3c
 3243 024e 0C       		.uleb128 0xc
 3244 024f 01       		.uleb128 0x1
ARM GAS  /tmp/ccpWmyq1.s 			page 58


 3245 0250 13       		.uleb128 0x13
 3246 0251 00       		.byte	0
 3247 0252 00       		.byte	0
 3248 0253 2B       		.uleb128 0x2b
 3249 0254 2E       		.uleb128 0x2e
 3250 0255 00       		.byte	0
 3251 0256 3F       		.uleb128 0x3f
 3252 0257 0C       		.uleb128 0xc
 3253 0258 03       		.uleb128 0x3
 3254 0259 0E       		.uleb128 0xe
 3255 025a 3A       		.uleb128 0x3a
 3256 025b 0B       		.uleb128 0xb
 3257 025c 3B       		.uleb128 0x3b
 3258 025d 05       		.uleb128 0x5
 3259 025e 27       		.uleb128 0x27
 3260 025f 0C       		.uleb128 0xc
 3261 0260 3C       		.uleb128 0x3c
 3262 0261 0C       		.uleb128 0xc
 3263 0262 00       		.byte	0
 3264 0263 00       		.byte	0
 3265 0264 2C       		.uleb128 0x2c
 3266 0265 2E       		.uleb128 0x2e
 3267 0266 00       		.byte	0
 3268 0267 3F       		.uleb128 0x3f
 3269 0268 0C       		.uleb128 0xc
 3270 0269 03       		.uleb128 0x3
 3271 026a 0E       		.uleb128 0xe
 3272 026b 3A       		.uleb128 0x3a
 3273 026c 0B       		.uleb128 0xb
 3274 026d 3B       		.uleb128 0x3b
 3275 026e 0B       		.uleb128 0xb
 3276 026f 27       		.uleb128 0x27
 3277 0270 0C       		.uleb128 0xc
 3278 0271 3C       		.uleb128 0x3c
 3279 0272 0C       		.uleb128 0xc
 3280 0273 00       		.byte	0
 3281 0274 00       		.byte	0
 3282 0275 2D       		.uleb128 0x2d
 3283 0276 2E       		.uleb128 0x2e
 3284 0277 01       		.byte	0x1
 3285 0278 3F       		.uleb128 0x3f
 3286 0279 0C       		.uleb128 0xc
 3287 027a 03       		.uleb128 0x3
 3288 027b 0E       		.uleb128 0xe
 3289 027c 3A       		.uleb128 0x3a
 3290 027d 0B       		.uleb128 0xb
 3291 027e 3B       		.uleb128 0x3b
 3292 027f 0B       		.uleb128 0xb
 3293 0280 27       		.uleb128 0x27
 3294 0281 0C       		.uleb128 0xc
 3295 0282 3C       		.uleb128 0x3c
 3296 0283 0C       		.uleb128 0xc
 3297 0284 01       		.uleb128 0x1
 3298 0285 13       		.uleb128 0x13
 3299 0286 00       		.byte	0
 3300 0287 00       		.byte	0
 3301 0288 2E       		.uleb128 0x2e
ARM GAS  /tmp/ccpWmyq1.s 			page 59


 3302 0289 2E       		.uleb128 0x2e
 3303 028a 01       		.byte	0x1
 3304 028b 3F       		.uleb128 0x3f
 3305 028c 0C       		.uleb128 0xc
 3306 028d 03       		.uleb128 0x3
 3307 028e 0E       		.uleb128 0xe
 3308 028f 3A       		.uleb128 0x3a
 3309 0290 0B       		.uleb128 0xb
 3310 0291 3B       		.uleb128 0x3b
 3311 0292 0B       		.uleb128 0xb
 3312 0293 27       		.uleb128 0x27
 3313 0294 0C       		.uleb128 0xc
 3314 0295 49       		.uleb128 0x49
 3315 0296 13       		.uleb128 0x13
 3316 0297 3C       		.uleb128 0x3c
 3317 0298 0C       		.uleb128 0xc
 3318 0299 00       		.byte	0
 3319 029a 00       		.byte	0
 3320 029b 00       		.byte	0
 3321              		.section	.debug_loc,"",%progbits
 3322              	.Ldebug_loc0:
 3323              	.LLST0:
 3324 0000 00000000 		.4byte	.LFB12
 3325 0004 02000000 		.4byte	.LCFI0
 3326 0008 0200     		.2byte	0x2
 3327 000a 7D       		.byte	0x7d
 3328 000b 00       		.sleb128 0
 3329 000c 02000000 		.4byte	.LCFI0
 3330 0010 58000000 		.4byte	.LFE12
 3331 0014 0200     		.2byte	0x2
 3332 0016 7D       		.byte	0x7d
 3333 0017 10       		.sleb128 16
 3334 0018 00000000 		.4byte	0
 3335 001c 00000000 		.4byte	0
 3336              	.LLST1:
 3337 0020 00000000 		.4byte	.LVL0
 3338 0024 06000000 		.4byte	.LVL1
 3339 0028 0100     		.2byte	0x1
 3340 002a 50       		.byte	0x50
 3341 002b 06000000 		.4byte	.LVL1
 3342 002f 28000000 		.4byte	.LVL3
 3343 0033 0100     		.2byte	0x1
 3344 0035 54       		.byte	0x54
 3345 0036 28000000 		.4byte	.LVL3
 3346 003a 4A000000 		.4byte	.LVL6
 3347 003e 0200     		.2byte	0x2
 3348 0040 70       		.byte	0x70
 3349 0041 04       		.sleb128 4
 3350 0042 4A000000 		.4byte	.LVL6
 3351 0046 58000000 		.4byte	.LFE12
 3352 004a 0100     		.2byte	0x1
 3353 004c 54       		.byte	0x54
 3354 004d 00000000 		.4byte	0
 3355 0051 00000000 		.4byte	0
 3356              	.LLST2:
 3357 0055 00000000 		.4byte	.LVL0
 3358 0059 0D000000 		.4byte	.LVL2-1
ARM GAS  /tmp/ccpWmyq1.s 			page 60


 3359 005d 0100     		.2byte	0x1
 3360 005f 51       		.byte	0x51
 3361 0060 0D000000 		.4byte	.LVL2-1
 3362 0064 58000000 		.4byte	.LFE12
 3363 0068 0100     		.2byte	0x1
 3364 006a 56       		.byte	0x56
 3365 006b 00000000 		.4byte	0
 3366 006f 00000000 		.4byte	0
 3367              	.LLST3:
 3368 0073 00000000 		.4byte	.LVL0
 3369 0077 0D000000 		.4byte	.LVL2-1
 3370 007b 0100     		.2byte	0x1
 3371 007d 52       		.byte	0x52
 3372 007e 0D000000 		.4byte	.LVL2-1
 3373 0082 58000000 		.4byte	.LFE12
 3374 0086 0100     		.2byte	0x1
 3375 0088 55       		.byte	0x55
 3376 0089 00000000 		.4byte	0
 3377 008d 00000000 		.4byte	0
 3378              	.LLST4:
 3379 0091 0E000000 		.4byte	.LVL2
 3380 0095 51000000 		.4byte	.LVL7-1
 3381 0099 0100     		.2byte	0x1
 3382 009b 50       		.byte	0x50
 3383 009c 00000000 		.4byte	0
 3384 00a0 00000000 		.4byte	0
 3385              	.LLST5:
 3386 00a4 30000000 		.4byte	.LVL4
 3387 00a8 4A000000 		.4byte	.LVL6
 3388 00ac 0100     		.2byte	0x1
 3389 00ae 51       		.byte	0x51
 3390 00af 00000000 		.4byte	0
 3391 00b3 00000000 		.4byte	0
 3392              	.LLST6:
 3393 00b7 00000000 		.4byte	.LFB11
 3394 00bb 02000000 		.4byte	.LCFI1
 3395 00bf 0200     		.2byte	0x2
 3396 00c1 7D       		.byte	0x7d
 3397 00c2 00       		.sleb128 0
 3398 00c3 02000000 		.4byte	.LCFI1
 3399 00c7 2A000000 		.4byte	.LFE11
 3400 00cb 0200     		.2byte	0x2
 3401 00cd 7D       		.byte	0x7d
 3402 00ce 08       		.sleb128 8
 3403 00cf 00000000 		.4byte	0
 3404 00d3 00000000 		.4byte	0
 3405              	.LLST7:
 3406 00d7 00000000 		.4byte	.LFB10
 3407 00db 02000000 		.4byte	.LCFI2
 3408 00df 0200     		.2byte	0x2
 3409 00e1 7D       		.byte	0x7d
 3410 00e2 00       		.sleb128 0
 3411 00e3 02000000 		.4byte	.LCFI2
 3412 00e7 1C000000 		.4byte	.LFE10
 3413 00eb 0200     		.2byte	0x2
 3414 00ed 7D       		.byte	0x7d
 3415 00ee 08       		.sleb128 8
ARM GAS  /tmp/ccpWmyq1.s 			page 61


 3416 00ef 00000000 		.4byte	0
 3417 00f3 00000000 		.4byte	0
 3418              	.LLST8:
 3419 00f7 00000000 		.4byte	.LVL10
 3420 00fb 05000000 		.4byte	.LVL11-1
 3421 00ff 0100     		.2byte	0x1
 3422 0101 50       		.byte	0x50
 3423 0102 05000000 		.4byte	.LVL11-1
 3424 0106 1C000000 		.4byte	.LFE10
 3425 010a 0400     		.2byte	0x4
 3426 010c F3       		.byte	0xf3
 3427 010d 01       		.uleb128 0x1
 3428 010e 50       		.byte	0x50
 3429 010f 9F       		.byte	0x9f
 3430 0110 00000000 		.4byte	0
 3431 0114 00000000 		.4byte	0
 3432              	.LLST9:
 3433 0118 00000000 		.4byte	.LFB9
 3434 011c 02000000 		.4byte	.LCFI3
 3435 0120 0200     		.2byte	0x2
 3436 0122 7D       		.byte	0x7d
 3437 0123 00       		.sleb128 0
 3438 0124 02000000 		.4byte	.LCFI3
 3439 0128 1C000000 		.4byte	.LFE9
 3440 012c 0200     		.2byte	0x2
 3441 012e 7D       		.byte	0x7d
 3442 012f 08       		.sleb128 8
 3443 0130 00000000 		.4byte	0
 3444 0134 00000000 		.4byte	0
 3445              	.LLST10:
 3446 0138 00000000 		.4byte	.LVL13
 3447 013c 05000000 		.4byte	.LVL14-1
 3448 0140 0100     		.2byte	0x1
 3449 0142 50       		.byte	0x50
 3450 0143 05000000 		.4byte	.LVL14-1
 3451 0147 1C000000 		.4byte	.LFE9
 3452 014b 0400     		.2byte	0x4
 3453 014d F3       		.byte	0xf3
 3454 014e 01       		.uleb128 0x1
 3455 014f 50       		.byte	0x50
 3456 0150 9F       		.byte	0x9f
 3457 0151 00000000 		.4byte	0
 3458 0155 00000000 		.4byte	0
 3459              	.LLST11:
 3460 0159 00000000 		.4byte	.LFB7
 3461 015d 02000000 		.4byte	.LCFI4
 3462 0161 0200     		.2byte	0x2
 3463 0163 7D       		.byte	0x7d
 3464 0164 00       		.sleb128 0
 3465 0165 02000000 		.4byte	.LCFI4
 3466 0169 38000000 		.4byte	.LFE7
 3467 016d 0200     		.2byte	0x2
 3468 016f 7D       		.byte	0x7d
 3469 0170 08       		.sleb128 8
 3470 0171 00000000 		.4byte	0
 3471 0175 00000000 		.4byte	0
 3472              	.LLST12:
ARM GAS  /tmp/ccpWmyq1.s 			page 62


 3473 0179 00000000 		.4byte	.LVL17
 3474 017d 05000000 		.4byte	.LVL18-1
 3475 0181 0100     		.2byte	0x1
 3476 0183 50       		.byte	0x50
 3477 0184 05000000 		.4byte	.LVL18-1
 3478 0188 38000000 		.4byte	.LFE7
 3479 018c 0400     		.2byte	0x4
 3480 018e F3       		.byte	0xf3
 3481 018f 01       		.uleb128 0x1
 3482 0190 50       		.byte	0x50
 3483 0191 9F       		.byte	0x9f
 3484 0192 00000000 		.4byte	0
 3485 0196 00000000 		.4byte	0
 3486              	.LLST13:
 3487 019a 00000000 		.4byte	.LFB13
 3488 019e 02000000 		.4byte	.LCFI5
 3489 01a2 0200     		.2byte	0x2
 3490 01a4 7D       		.byte	0x7d
 3491 01a5 00       		.sleb128 0
 3492 01a6 02000000 		.4byte	.LCFI5
 3493 01aa 48000000 		.4byte	.LFE13
 3494 01ae 0200     		.2byte	0x2
 3495 01b0 7D       		.byte	0x7d
 3496 01b1 08       		.sleb128 8
 3497 01b2 00000000 		.4byte	0
 3498 01b6 00000000 		.4byte	0
 3499              	.LLST14:
 3500 01ba 00000000 		.4byte	.LVL20
 3501 01be 2C000000 		.4byte	.LVL24
 3502 01c2 0100     		.2byte	0x1
 3503 01c4 50       		.byte	0x50
 3504 01c5 2C000000 		.4byte	.LVL24
 3505 01c9 3C000000 		.4byte	.LVL26
 3506 01cd 0400     		.2byte	0x4
 3507 01cf F3       		.byte	0xf3
 3508 01d0 01       		.uleb128 0x1
 3509 01d1 50       		.byte	0x50
 3510 01d2 9F       		.byte	0x9f
 3511 01d3 3C000000 		.4byte	.LVL26
 3512 01d7 48000000 		.4byte	.LFE13
 3513 01db 0100     		.2byte	0x1
 3514 01dd 50       		.byte	0x50
 3515 01de 00000000 		.4byte	0
 3516 01e2 00000000 		.4byte	0
 3517              	.LLST15:
 3518 01e6 00000000 		.4byte	.LVL20
 3519 01ea 2E000000 		.4byte	.LVL25
 3520 01ee 0100     		.2byte	0x1
 3521 01f0 51       		.byte	0x51
 3522 01f1 2E000000 		.4byte	.LVL25
 3523 01f5 3C000000 		.4byte	.LVL26
 3524 01f9 0400     		.2byte	0x4
 3525 01fb F3       		.byte	0xf3
 3526 01fc 01       		.uleb128 0x1
 3527 01fd 51       		.byte	0x51
 3528 01fe 9F       		.byte	0x9f
 3529 01ff 3C000000 		.4byte	.LVL26
ARM GAS  /tmp/ccpWmyq1.s 			page 63


 3530 0203 48000000 		.4byte	.LFE13
 3531 0207 0100     		.2byte	0x1
 3532 0209 51       		.byte	0x51
 3533 020a 00000000 		.4byte	0
 3534 020e 00000000 		.4byte	0
 3535              	.LLST16:
 3536 0212 0C000000 		.4byte	.LVL21
 3537 0216 3B000000 		.4byte	.LVL26-1
 3538 021a 0100     		.2byte	0x1
 3539 021c 53       		.byte	0x53
 3540 021d 40000000 		.4byte	.LVL27
 3541 0221 48000000 		.4byte	.LFE13
 3542 0225 0100     		.2byte	0x1
 3543 0227 53       		.byte	0x53
 3544 0228 00000000 		.4byte	0
 3545 022c 00000000 		.4byte	0
 3546              	.LLST17:
 3547 0230 0E000000 		.4byte	.LVL22
 3548 0234 14000000 		.4byte	.LVL23
 3549 0238 0100     		.2byte	0x1
 3550 023a 52       		.byte	0x52
 3551 023b 00000000 		.4byte	0
 3552 023f 00000000 		.4byte	0
 3553              	.LLST18:
 3554 0243 00000000 		.4byte	.LFB14
 3555 0247 04000000 		.4byte	.LCFI6
 3556 024b 0200     		.2byte	0x2
 3557 024d 7D       		.byte	0x7d
 3558 024e 00       		.sleb128 0
 3559 024f 04000000 		.4byte	.LCFI6
 3560 0253 70000000 		.4byte	.LFE14
 3561 0257 0200     		.2byte	0x2
 3562 0259 7D       		.byte	0x7d
 3563 025a 20       		.sleb128 32
 3564 025b 00000000 		.4byte	0
 3565 025f 00000000 		.4byte	0
 3566              	.LLST19:
 3567 0263 00000000 		.4byte	.LVL28
 3568 0267 0E000000 		.4byte	.LVL29
 3569 026b 0100     		.2byte	0x1
 3570 026d 50       		.byte	0x50
 3571 026e 0E000000 		.4byte	.LVL29
 3572 0272 70000000 		.4byte	.LFE14
 3573 0276 0100     		.2byte	0x1
 3574 0278 57       		.byte	0x57
 3575 0279 00000000 		.4byte	0
 3576 027d 00000000 		.4byte	0
 3577              	.LLST20:
 3578 0281 00000000 		.4byte	.LVL28
 3579 0285 0E000000 		.4byte	.LVL29
 3580 0289 0100     		.2byte	0x1
 3581 028b 51       		.byte	0x51
 3582 028c 0E000000 		.4byte	.LVL29
 3583 0290 70000000 		.4byte	.LFE14
 3584 0294 0100     		.2byte	0x1
 3585 0296 56       		.byte	0x56
 3586 0297 00000000 		.4byte	0
ARM GAS  /tmp/ccpWmyq1.s 			page 64


 3587 029b 00000000 		.4byte	0
 3588              	.LLST21:
 3589 029f 34000000 		.4byte	.LVL34
 3590 02a3 3E000000 		.4byte	.LVL35
 3591 02a7 0100     		.2byte	0x1
 3592 02a9 50       		.byte	0x50
 3593 02aa 56000000 		.4byte	.LVL38
 3594 02ae 70000000 		.4byte	.LFE14
 3595 02b2 0100     		.2byte	0x1
 3596 02b4 50       		.byte	0x50
 3597 02b5 00000000 		.4byte	0
 3598 02b9 00000000 		.4byte	0
 3599              	.LLST22:
 3600 02bd 0E000000 		.4byte	.LVL29
 3601 02c1 1F000000 		.4byte	.LVL32-1
 3602 02c5 0100     		.2byte	0x1
 3603 02c7 53       		.byte	0x53
 3604 02c8 00000000 		.4byte	0
 3605 02cc 00000000 		.4byte	0
 3606              	.LLST23:
 3607 02d0 10000000 		.4byte	.LVL30
 3608 02d4 22000000 		.4byte	.LVL33
 3609 02d8 0100     		.2byte	0x1
 3610 02da 55       		.byte	0x55
 3611 02db 3E000000 		.4byte	.LVL35
 3612 02df 48000000 		.4byte	.LVL37
 3613 02e3 0100     		.2byte	0x1
 3614 02e5 55       		.byte	0x55
 3615 02e6 00000000 		.4byte	0
 3616 02ea 00000000 		.4byte	0
 3617              	.LLST24:
 3618 02ee 16000000 		.4byte	.LVL31
 3619 02f2 22000000 		.4byte	.LVL33
 3620 02f6 0100     		.2byte	0x1
 3621 02f8 59       		.byte	0x59
 3622 02f9 3E000000 		.4byte	.LVL35
 3623 02fd 48000000 		.4byte	.LVL37
 3624 0301 0100     		.2byte	0x1
 3625 0303 59       		.byte	0x59
 3626 0304 00000000 		.4byte	0
 3627 0308 00000000 		.4byte	0
 3628              		.section	.debug_aranges,"",%progbits
 3629 0000 54000000 		.4byte	0x54
 3630 0004 0200     		.2byte	0x2
 3631 0006 00000000 		.4byte	.Ldebug_info0
 3632 000a 04       		.byte	0x4
 3633 000b 00       		.byte	0
 3634 000c 0000     		.2byte	0
 3635 000e 0000     		.2byte	0
 3636 0010 00000000 		.4byte	.LFB12
 3637 0014 58000000 		.4byte	.LFE12-.LFB12
 3638 0018 00000000 		.4byte	.LFB11
 3639 001c 2A000000 		.4byte	.LFE11-.LFB11
 3640 0020 00000000 		.4byte	.LFB10
 3641 0024 1C000000 		.4byte	.LFE10-.LFB10
 3642 0028 00000000 		.4byte	.LFB9
 3643 002c 1C000000 		.4byte	.LFE9-.LFB9
ARM GAS  /tmp/ccpWmyq1.s 			page 65


 3644 0030 00000000 		.4byte	.LFB8
 3645 0034 34000000 		.4byte	.LFE8-.LFB8
 3646 0038 00000000 		.4byte	.LFB7
 3647 003c 38000000 		.4byte	.LFE7-.LFB7
 3648 0040 00000000 		.4byte	.LFB13
 3649 0044 48000000 		.4byte	.LFE13-.LFB13
 3650 0048 00000000 		.4byte	.LFB14
 3651 004c 70000000 		.4byte	.LFE14-.LFB14
 3652 0050 00000000 		.4byte	0
 3653 0054 00000000 		.4byte	0
 3654              		.section	.debug_ranges,"",%progbits
 3655              	.Ldebug_ranges0:
 3656 0000 00000000 		.4byte	.LFB12
 3657 0004 58000000 		.4byte	.LFE12
 3658 0008 00000000 		.4byte	.LFB11
 3659 000c 2A000000 		.4byte	.LFE11
 3660 0010 00000000 		.4byte	.LFB10
 3661 0014 1C000000 		.4byte	.LFE10
 3662 0018 00000000 		.4byte	.LFB9
 3663 001c 1C000000 		.4byte	.LFE9
 3664 0020 00000000 		.4byte	.LFB8
 3665 0024 34000000 		.4byte	.LFE8
 3666 0028 00000000 		.4byte	.LFB7
 3667 002c 38000000 		.4byte	.LFE7
 3668 0030 00000000 		.4byte	.LFB13
 3669 0034 48000000 		.4byte	.LFE13
 3670 0038 00000000 		.4byte	.LFB14
 3671 003c 70000000 		.4byte	.LFE14
 3672 0040 00000000 		.4byte	0
 3673 0044 00000000 		.4byte	0
 3674              		.section	.debug_line,"",%progbits
 3675              	.Ldebug_line0:
 3676 0000 78030000 		.section	.debug_str,"MS",%progbits,1
 3676      02005002 
 3676      00000201 
 3676      FB0E0D00 
 3676      01010101 
 3677              	.LASF186:
 3678 0000 70726576 		.ascii	"prev_t\000"
 3678      5F7400
 3679              	.LASF190:
 3680 0007 746D7074 		.ascii	"tmptimeout\000"
 3680      696D656F 
 3680      757400
 3681              	.LASF45:
 3682 0012 54687265 		.ascii	"ThreadsList\000"
 3682      6164734C 
 3682      69737400 
 3683              	.LASF37:
 3684 001e 705F7761 		.ascii	"p_waiting\000"
 3684      6974696E 
 3684      6700
 3685              	.LASF75:
 3686 0028 7379735F 		.ascii	"sys_mbox_t\000"
 3686      6D626F78 
 3686      5F7400
 3687              	.LASF163:
ARM GAS  /tmp/ccpWmyq1.s 			page 66


 3688 0033 4D454D50 		.ascii	"MEMP_TCP_PCB_LISTEN\000"
 3688      5F544350 
 3688      5F504342 
 3688      5F4C4953 
 3688      54454E00 
 3689              	.LASF36:
 3690 0047 705F7469 		.ascii	"p_time\000"
 3690      6D6500
 3691              	.LASF92:
 3692 004e 736F5F6F 		.ascii	"so_options\000"
 3692      7074696F 
 3692      6E7300
 3693              	.LASF46:
 3694 0059 72656761 		.ascii	"regarm_t\000"
 3694      726D5F74 
 3694      00
 3695              	.LASF27:
 3696 0062 705F7072 		.ascii	"p_prio\000"
 3696      696F00
 3697              	.LASF205:
 3698 0069 61676169 		.ascii	"again\000"
 3698      6E00
 3699              	.LASF76:
 3700 006f 7379735F 		.ascii	"sys_timeout_handler\000"
 3700      74696D65 
 3700      6F75745F 
 3700      68616E64 
 3700      6C657200 
 3701              	.LASF159:
 3702 0083 75726770 		.ascii	"urgp\000"
 3702      00
 3703              	.LASF103:
 3704 0088 706F6C6C 		.ascii	"polltmr\000"
 3704      746D7200 
 3705              	.LASF88:
 3706 0090 7463705F 		.ascii	"tcp_accept_fn\000"
 3706      61636365 
 3706      70745F66 
 3706      6E00
 3707              	.LASF84:
 3708 009e 666C6167 		.ascii	"flags\000"
 3708      7300
 3709              	.LASF22:
 3710 00a4 73797374 		.ascii	"systime_t\000"
 3710      696D655F 
 3710      7400
 3711              	.LASF55:
 3712 00ae 6D5F6F77 		.ascii	"m_owner\000"
 3712      6E657200 
 3713              	.LASF51:
 3714 00b6 735F7175 		.ascii	"s_queue\000"
 3714      65756500 
 3715              	.LASF38:
 3716 00be 705F6D73 		.ascii	"p_msgqueue\000"
 3716      67717565 
 3716      756500
 3717              	.LASF0:
ARM GAS  /tmp/ccpWmyq1.s 			page 67


 3718 00c9 756E7369 		.ascii	"unsigned int\000"
 3718      676E6564 
 3718      20696E74 
 3718      00
 3719              	.LASF139:
 3720 00d6 7463705F 		.ascii	"tcp_connected_fn\000"
 3720      636F6E6E 
 3720      65637465 
 3720      645F666E 
 3720      00
 3721              	.LASF78:
 3722 00e7 6E657874 		.ascii	"next\000"
 3722      00
 3723              	.LASF185:
 3724 00ec 7379735F 		.ascii	"sys_untimeout\000"
 3724      756E7469 
 3724      6D656F75 
 3724      7400
 3725              	.LASF74:
 3726 00fa 6572725F 		.ascii	"err_t\000"
 3726      7400
 3727              	.LASF192:
 3728 0100 74637069 		.ascii	"tcpip_tcp_timer_active\000"
 3728      705F7463 
 3728      705F7469 
 3728      6D65725F 
 3728      61637469 
 3729              	.LASF71:
 3730 0117 7531365F 		.ascii	"u16_t\000"
 3730      7400
 3731              	.LASF189:
 3732 011d 74696D65 		.ascii	"time_needed\000"
 3732      5F6E6565 
 3732      64656400 
 3733              	.LASF66:
 3734 0129 77746F62 		.ascii	"wtobjp\000"
 3734      6A7000
 3735              	.LASF177:
 3736 0130 68616E64 		.ascii	"handler\000"
 3736      6C657200 
 3737              	.LASF102:
 3738 0138 7263765F 		.ascii	"rcv_ann_right_edge\000"
 3738      616E6E5F 
 3738      72696768 
 3738      745F6564 
 3738      676500
 3739              	.LASF67:
 3740 014b 65776D61 		.ascii	"ewmask\000"
 3740      736B00
 3741              	.LASF134:
 3742 0152 6B656570 		.ascii	"keep_cnt_sent\000"
 3742      5F636E74 
 3742      5F73656E 
 3742      7400
 3743              	.LASF63:
 3744 0160 4D61696C 		.ascii	"Mailbox\000"
 3744      626F7800 
ARM GAS  /tmp/ccpWmyq1.s 			page 68


 3745              	.LASF136:
 3746 0168 7463705F 		.ascii	"tcp_sent_fn\000"
 3746      73656E74 
 3746      5F666E00 
 3747              	.LASF52:
 3748 0174 735F636E 		.ascii	"s_cnt\000"
 3748      7400
 3749              	.LASF198:
 3750 017a 7463705F 		.ascii	"tcp_tmr\000"
 3750      746D7200 
 3751              	.LASF155:
 3752 0182 7365716E 		.ascii	"seqno\000"
 3752      6F00
 3753              	.LASF11:
 3754 0188 75696E74 		.ascii	"uint32_t\000"
 3754      33325F74 
 3754      00
 3755              	.LASF2:
 3756 0191 696E7438 		.ascii	"int8_t\000"
 3756      5F7400
 3757              	.LASF111:
 3758 0198 63776E64 		.ascii	"cwnd\000"
 3758      00
 3759              	.LASF21:
 3760 019d 6576656E 		.ascii	"eventmask_t\000"
 3760      746D6173 
 3760      6B5F7400 
 3761              	.LASF201:
 3762 01a9 474E5520 		.ascii	"GNU C 4.7.2\000"
 3762      4320342E 
 3762      372E3200 
 3763              	.LASF169:
 3764 01b5 4D454D50 		.ascii	"MEMP_TCPIP_MSG_API\000"
 3764      5F544350 
 3764      49505F4D 
 3764      53475F41 
 3764      504900
 3765              	.LASF97:
 3766 01c8 6C6F6361 		.ascii	"local_port\000"
 3766      6C5F706F 
 3766      727400
 3767              	.LASF19:
 3768 01d3 74707269 		.ascii	"tprio_t\000"
 3768      6F5F7400 
 3769              	.LASF5:
 3770 01db 696E7431 		.ascii	"int16_t\000"
 3770      365F7400 
 3771              	.LASF151:
 3772 01e3 7463705F 		.ascii	"tcp_seg\000"
 3772      73656700 
 3773              	.LASF14:
 3774 01eb 6C6F6E67 		.ascii	"long long unsigned int\000"
 3774      206C6F6E 
 3774      6720756E 
 3774      7369676E 
 3774      65642069 
 3775              	.LASF23:
ARM GAS  /tmp/ccpWmyq1.s 			page 69


 3776 0202 636E745F 		.ascii	"cnt_t\000"
 3776      7400
 3777              	.LASF105:
 3778 0208 7274696D 		.ascii	"rtime\000"
 3778      6500
 3779              	.LASF79:
 3780 020e 74696D65 		.ascii	"time\000"
 3780      00
 3781              	.LASF29:
 3782 0213 705F6E65 		.ascii	"p_newer\000"
 3782      77657200 
 3783              	.LASF99:
 3784 021b 7263765F 		.ascii	"rcv_nxt\000"
 3784      6E787400 
 3785              	.LASF170:
 3786 0223 4D454D50 		.ascii	"MEMP_TCPIP_MSG_INPKT\000"
 3786      5F544350 
 3786      49505F4D 
 3786      53475F49 
 3786      4E504B54 
 3787              	.LASF199:
 3788 0238 6D656D70 		.ascii	"memp_free\000"
 3788      5F667265 
 3788      6500
 3789              	.LASF123:
 3790 0242 756E6163 		.ascii	"unacked\000"
 3790      6B656400 
 3791              	.LASF187:
 3792 024a 7379735F 		.ascii	"sys_timeouts_mbox_fetch\000"
 3792      74696D65 
 3792      6F757473 
 3792      5F6D626F 
 3792      785F6665 
 3793              	.LASF149:
 3794 0262 4C415354 		.ascii	"LAST_ACK\000"
 3794      5F41434B 
 3794      00
 3795              	.LASF82:
 3796 026b 746F745F 		.ascii	"tot_len\000"
 3796      6C656E00 
 3797              	.LASF64:
 3798 0273 7264796D 		.ascii	"rdymsg\000"
 3798      736700
 3799              	.LASF81:
 3800 027a 7061796C 		.ascii	"payload\000"
 3800      6F616400 
 3801              	.LASF181:
 3802 0282 6172705F 		.ascii	"arp_timer\000"
 3802      74696D65 
 3802      7200
 3803              	.LASF197:
 3804 028c 69705F72 		.ascii	"ip_reass_tmr\000"
 3804      65617373 
 3804      5F746D72 
 3804      00
 3805              	.LASF128:
 3806 0299 636F6E6E 		.ascii	"connected\000"
ARM GAS  /tmp/ccpWmyq1.s 			page 70


 3806      65637465 
 3806      6400
 3807              	.LASF80:
 3808 02a3 70627566 		.ascii	"pbuf\000"
 3808      00
 3809              	.LASF60:
 3810 02a8 6D625F72 		.ascii	"mb_rdptr\000"
 3810      64707472 
 3810      00
 3811              	.LASF148:
 3812 02b1 434C4F53 		.ascii	"CLOSING\000"
 3812      494E4700 
 3813              	.LASF202:
 3814 02b9 2E2E2F2E 		.ascii	"../../ext/lwip/src/core/timers.c\000"
 3814      2E2F6578 
 3814      742F6C77 
 3814      69702F73 
 3814      72632F63 
 3815              	.LASF109:
 3816 02da 6C617374 		.ascii	"lastack\000"
 3816      61636B00 
 3817              	.LASF174:
 3818 02e2 4D454D50 		.ascii	"MEMP_MAX\000"
 3818      5F4D4158 
 3818      00
 3819              	.LASF70:
 3820 02eb 73385F74 		.ascii	"s8_t\000"
 3820      00
 3821              	.LASF196:
 3822 02f0 65746861 		.ascii	"etharp_tmr\000"
 3822      72705F74 
 3822      6D7200
 3823              	.LASF53:
 3824 02fb 4D757465 		.ascii	"Mutex\000"
 3824      7800
 3825              	.LASF62:
 3826 0301 6D625F65 		.ascii	"mb_emptysem\000"
 3826      6D707479 
 3826      73656D00 
 3827              	.LASF168:
 3828 030d 4D454D50 		.ascii	"MEMP_NETCONN\000"
 3828      5F4E4554 
 3828      434F4E4E 
 3828      00
 3829              	.LASF107:
 3830 031a 72747365 		.ascii	"rtseq\000"
 3830      7100
 3831              	.LASF31:
 3832 0320 705F6E61 		.ascii	"p_name\000"
 3832      6D6500
 3833              	.LASF110:
 3834 0327 64757061 		.ascii	"dupacks\000"
 3834      636B7300 
 3835              	.LASF94:
 3836 032f 7072696F 		.ascii	"prio\000"
 3836      00
 3837              	.LASF96:
ARM GAS  /tmp/ccpWmyq1.s 			page 71


 3838 0334 61636365 		.ascii	"accept\000"
 3838      707400
 3839              	.LASF172:
 3840 033b 4D454D50 		.ascii	"MEMP_PBUF\000"
 3840      5F504255 
 3840      4600
 3841              	.LASF129:
 3842 0345 706F6C6C 		.ascii	"poll\000"
 3842      00
 3843              	.LASF44:
 3844 034a 54687265 		.ascii	"ThreadsQueue\000"
 3844      61647351 
 3844      75657565 
 3844      00
 3845              	.LASF68:
 3846 0357 63686172 		.ascii	"char\000"
 3846      00
 3847              	.LASF179:
 3848 035c 7379735F 		.ascii	"sys_timeout\000"
 3848      74696D65 
 3848      6F757400 
 3849              	.LASF118:
 3850 0368 61636B65 		.ascii	"acked\000"
 3850      6400
 3851              	.LASF147:
 3852 036e 434C4F53 		.ascii	"CLOSE_WAIT\000"
 3852      455F5741 
 3852      495400
 3853              	.LASF24:
 3854 0379 54687265 		.ascii	"Thread\000"
 3854      616400
 3855              	.LASF16:
 3856 0380 74737461 		.ascii	"tstate_t\000"
 3856      74655F74 
 3856      00
 3857              	.LASF30:
 3858 0389 705F6F6C 		.ascii	"p_older\000"
 3858      64657200 
 3859              	.LASF32:
 3860 0391 705F7374 		.ascii	"p_state\000"
 3860      61746500 
 3861              	.LASF126:
 3862 0399 73656E74 		.ascii	"sent\000"
 3862      00
 3863              	.LASF3:
 3864 039e 75696E74 		.ascii	"uint8_t\000"
 3864      385F7400 
 3865              	.LASF61:
 3866 03a6 6D625F66 		.ascii	"mb_fullsem\000"
 3866      756C6C73 
 3866      656D00
 3867              	.LASF115:
 3868 03b1 736E645F 		.ascii	"snd_wl1\000"
 3868      776C3100 
 3869              	.LASF116:
 3870 03b9 736E645F 		.ascii	"snd_wl2\000"
 3870      776C3200 
ARM GAS  /tmp/ccpWmyq1.s 			page 72


 3871              	.LASF43:
 3872 03c1 705F6D70 		.ascii	"p_mpool\000"
 3872      6F6F6C00 
 3873              	.LASF41:
 3874 03c9 705F6D74 		.ascii	"p_mtxlist\000"
 3874      786C6973 
 3874      7400
 3875              	.LASF138:
 3876 03d3 7463705F 		.ascii	"tcp_err_fn\000"
 3876      6572725F 
 3876      666E00
 3877              	.LASF117:
 3878 03de 736E645F 		.ascii	"snd_lbb\000"
 3878      6C626200 
 3879              	.LASF206:
 3880 03e6 6D656D70 		.ascii	"memp_malloc\000"
 3880      5F6D616C 
 3880      6C6F6300 
 3881              	.LASF167:
 3882 03f2 4D454D50 		.ascii	"MEMP_NETBUF\000"
 3882      5F4E4554 
 3882      42554600 
 3883              	.LASF13:
 3884 03fe 6C6F6E67 		.ascii	"long long int\000"
 3884      206C6F6E 
 3884      6720696E 
 3884      7400
 3885              	.LASF200:
 3886 040c 7379735F 		.ascii	"sys_arch_mbox_fetch\000"
 3886      61726368 
 3886      5F6D626F 
 3886      785F6665 
 3886      74636800 
 3887              	.LASF156:
 3888 0420 61636B6E 		.ascii	"ackno\000"
 3888      6F00
 3889              	.LASF133:
 3890 0426 70657273 		.ascii	"persist_backoff\000"
 3890      6973745F 
 3890      6261636B 
 3890      6F666600 
 3891              	.LASF20:
 3892 0436 6D73675F 		.ascii	"msg_t\000"
 3892      7400
 3893              	.LASF150:
 3894 043c 54494D45 		.ascii	"TIME_WAIT\000"
 3894      5F574149 
 3894      5400
 3895              	.LASF48:
 3896 0446 636F6E74 		.ascii	"context\000"
 3896      65787400 
 3897              	.LASF69:
 3898 044e 75385F74 		.ascii	"u8_t\000"
 3898      00
 3899              	.LASF33:
 3900 0453 705F666C 		.ascii	"p_flags\000"
 3900      61677300 
ARM GAS  /tmp/ccpWmyq1.s 			page 73


 3901              	.LASF183:
 3902 045b 7463705F 		.ascii	"tcp_timer_needed\000"
 3902      74696D65 
 3902      725F6E65 
 3902      65646564 
 3902      00
 3903              	.LASF98:
 3904 046c 72656D6F 		.ascii	"remote_port\000"
 3904      74655F70 
 3904      6F727400 
 3905              	.LASF58:
 3906 0478 6D625F74 		.ascii	"mb_top\000"
 3906      6F7000
 3907              	.LASF101:
 3908 047f 7263765F 		.ascii	"rcv_ann_wnd\000"
 3908      616E6E5F 
 3908      776E6400 
 3909              	.LASF203:
 3910 048b 2F686F6D 		.ascii	"/home/kwilson/Sandbox/ChibiOS_2.5.1/demos/ARMCM4-ST"
 3910      652F6B77 
 3910      696C736F 
 3910      6E2F5361 
 3910      6E64626F 
 3911 04be 4D333246 		.ascii	"M32F407-LWIP-FATFS-USB\000"
 3911      3430372D 
 3911      4C574950 
 3911      2D464154 
 3911      46532D55 
 3912              	.LASF18:
 3913 04d5 74736C69 		.ascii	"tslices_t\000"
 3913      6365735F 
 3913      7400
 3914              	.LASF165:
 3915 04df 4D454D50 		.ascii	"MEMP_REASSDATA\000"
 3915      5F524541 
 3915      53534441 
 3915      544100
 3916              	.LASF173:
 3917 04ee 4D454D50 		.ascii	"MEMP_PBUF_POOL\000"
 3917      5F504255 
 3917      465F504F 
 3917      4F4C00
 3918              	.LASF135:
 3919 04fd 7463705F 		.ascii	"tcp_recv_fn\000"
 3919      72656376 
 3919      5F666E00 
 3920              	.LASF39:
 3921 0509 705F6D73 		.ascii	"p_msg\000"
 3921      6700
 3922              	.LASF15:
 3923 050f 746D6F64 		.ascii	"tmode_t\000"
 3923      655F7400 
 3924              	.LASF137:
 3925 0517 7463705F 		.ascii	"tcp_poll_fn\000"
 3925      706F6C6C 
 3925      5F666E00 
 3926              	.LASF7:
ARM GAS  /tmp/ccpWmyq1.s 			page 74


 3927 0523 75696E74 		.ascii	"uint16_t\000"
 3927      31365F74 
 3927      00
 3928              	.LASF130:
 3929 052c 65727266 		.ascii	"errf\000"
 3929      00
 3930              	.LASF47:
 3931 0531 696E7463 		.ascii	"intctx\000"
 3931      747800
 3932              	.LASF114:
 3933 0538 736E645F 		.ascii	"snd_wnd\000"
 3933      776E6400 
 3934              	.LASF178:
 3935 0540 74696D65 		.ascii	"timeout\000"
 3935      6F757400 
 3936              	.LASF124:
 3937 0548 6F6F7365 		.ascii	"ooseq\000"
 3937      7100
 3938              	.LASF42:
 3939 054e 705F7265 		.ascii	"p_realprio\000"
 3939      616C7072 
 3939      696F00
 3940              	.LASF140:
 3941 0559 434C4F53 		.ascii	"CLOSED\000"
 3941      454400
 3942              	.LASF73:
 3943 0560 7533325F 		.ascii	"u32_t\000"
 3943      7400
 3944              	.LASF6:
 3945 0566 73686F72 		.ascii	"short int\000"
 3945      7420696E 
 3945      7400
 3946              	.LASF59:
 3947 0570 6D625F77 		.ascii	"mb_wrptr\000"
 3947      72707472 
 3947      00
 3948              	.LASF40:
 3949 0579 705F6570 		.ascii	"p_epending\000"
 3949      656E6469 
 3949      6E6700
 3950              	.LASF54:
 3951 0584 6D5F7175 		.ascii	"m_queue\000"
 3951      65756500 
 3952              	.LASF10:
 3953 058c 6C6F6E67 		.ascii	"long int\000"
 3953      20696E74 
 3953      00
 3954              	.LASF122:
 3955 0595 756E7365 		.ascii	"unsent\000"
 3955      6E7400
 3956              	.LASF100:
 3957 059c 7263765F 		.ascii	"rcv_wnd\000"
 3957      776E6400 
 3958              	.LASF106:
 3959 05a4 72747465 		.ascii	"rttest\000"
 3959      737400
 3960              	.LASF77:
ARM GAS  /tmp/ccpWmyq1.s 			page 75


 3961 05ab 7379735F 		.ascii	"sys_timeo\000"
 3961      74696D65 
 3961      6F00
 3962              	.LASF171:
 3963 05b5 4D454D50 		.ascii	"MEMP_SYS_TIMEOUT\000"
 3963      5F535953 
 3963      5F54494D 
 3963      454F5554 
 3963      00
 3964              	.LASF25:
 3965 05c6 705F6E65 		.ascii	"p_next\000"
 3965      787400
 3966              	.LASF161:
 3967 05cd 4D454D50 		.ascii	"MEMP_UDP_PCB\000"
 3967      5F554450 
 3967      5F504342 
 3967      00
 3968              	.LASF90:
 3969 05da 6C6F6361 		.ascii	"local_ip\000"
 3969      6C5F6970 
 3969      00
 3970              	.LASF28:
 3971 05e3 705F6374 		.ascii	"p_ctx\000"
 3971      7800
 3972              	.LASF188:
 3973 05e9 6D626F78 		.ascii	"mbox\000"
 3973      00
 3974              	.LASF121:
 3975 05ee 756E7365 		.ascii	"unsent_oversize\000"
 3975      6E745F6F 
 3975      76657273 
 3975      697A6500 
 3976              	.LASF182:
 3977 05fe 69705F72 		.ascii	"ip_reass_timer\000"
 3977      65617373 
 3977      5F74696D 
 3977      657200
 3978              	.LASF113:
 3979 060d 736E645F 		.ascii	"snd_nxt\000"
 3979      6E787400 
 3980              	.LASF144:
 3981 0615 45535441 		.ascii	"ESTABLISHED\000"
 3981      424C4953 
 3981      48454400 
 3982              	.LASF50:
 3983 0621 53656D61 		.ascii	"Semaphore\000"
 3983      70686F72 
 3983      6500
 3984              	.LASF166:
 3985 062b 4D454D50 		.ascii	"MEMP_FRAG_PBUF\000"
 3985      5F465241 
 3985      475F5042 
 3985      554600
 3986              	.LASF112:
 3987 063a 73737468 		.ascii	"ssthresh\000"
 3987      72657368 
 3987      00
ARM GAS  /tmp/ccpWmyq1.s 			page 76


 3988              	.LASF119:
 3989 0643 736E645F 		.ascii	"snd_buf\000"
 3989      62756600 
 3990              	.LASF104:
 3991 064b 706F6C6C 		.ascii	"pollinterval\000"
 3991      696E7465 
 3991      7276616C 
 3991      00
 3992              	.LASF160:
 3993 0658 4D454D50 		.ascii	"MEMP_RAW_PCB\000"
 3993      5F524157 
 3993      5F504342 
 3993      00
 3994              	.LASF157:
 3995 0665 5F686472 		.ascii	"_hdrlen_rsvd_flags\000"
 3995      6C656E5F 
 3995      72737664 
 3995      5F666C61 
 3995      677300
 3996              	.LASF26:
 3997 0678 705F7072 		.ascii	"p_prev\000"
 3997      657600
 3998              	.LASF49:
 3999 067f 73697A65 		.ascii	"sizetype\000"
 3999      74797065 
 3999      00
 4000              	.LASF17:
 4001 0688 74726566 		.ascii	"trefs_t\000"
 4001      735F7400 
 4002              	.LASF12:
 4003 0690 6C6F6E67 		.ascii	"long unsigned int\000"
 4003      20756E73 
 4003      69676E65 
 4003      6420696E 
 4003      7400
 4004              	.LASF57:
 4005 06a2 6D625F62 		.ascii	"mb_buffer\000"
 4005      75666665 
 4005      7200
 4006              	.LASF162:
 4007 06ac 4D454D50 		.ascii	"MEMP_TCP_PCB\000"
 4007      5F544350 
 4007      5F504342 
 4007      00
 4008              	.LASF152:
 4009 06b9 74637068 		.ascii	"tcphdr\000"
 4009      647200
 4010              	.LASF72:
 4011 06c0 7331365F 		.ascii	"s16_t\000"
 4011      7400
 4012              	.LASF9:
 4013 06c6 696E7433 		.ascii	"int32_t\000"
 4013      325F7400 
 4014              	.LASF125:
 4015 06ce 72656675 		.ascii	"refused_data\000"
 4015      7365645F 
 4015      64617461 
ARM GAS  /tmp/ccpWmyq1.s 			page 77


 4015      00
 4016              	.LASF153:
 4017 06db 7463705F 		.ascii	"tcp_hdr\000"
 4017      68647200 
 4018              	.LASF83:
 4019 06e3 74797065 		.ascii	"type\000"
 4019      00
 4020              	.LASF4:
 4021 06e8 756E7369 		.ascii	"unsigned char\000"
 4021      676E6564 
 4021      20636861 
 4021      7200
 4022              	.LASF145:
 4023 06f6 46494E5F 		.ascii	"FIN_WAIT_1\000"
 4023      57414954 
 4023      5F3100
 4024              	.LASF146:
 4025 0701 46494E5F 		.ascii	"FIN_WAIT_2\000"
 4025      57414954 
 4025      5F3200
 4026              	.LASF34:
 4027 070c 705F7265 		.ascii	"p_refs\000"
 4027      667300
 4028              	.LASF164:
 4029 0713 4D454D50 		.ascii	"MEMP_TCP_SEG\000"
 4029      5F544350 
 4029      5F534547 
 4029      00
 4030              	.LASF142:
 4031 0720 53594E5F 		.ascii	"SYN_SENT\000"
 4031      53454E54 
 4031      00
 4032              	.LASF131:
 4033 0729 6B656570 		.ascii	"keep_idle\000"
 4033      5F69646C 
 4033      6500
 4034              	.LASF95:
 4035 0733 63616C6C 		.ascii	"callback_arg\000"
 4035      6261636B 
 4035      5F617267 
 4035      00
 4036              	.LASF195:
 4037 0740 706F7274 		.ascii	"port_halt\000"
 4037      5F68616C 
 4037      7400
 4038              	.LASF141:
 4039 074a 4C495354 		.ascii	"LISTEN\000"
 4039      454E00
 4040              	.LASF35:
 4041 0751 705F7072 		.ascii	"p_preempt\000"
 4041      65656D70 
 4041      7400
 4042              	.LASF86:
 4043 075b 61646472 		.ascii	"addr\000"
 4043      00
 4044              	.LASF180:
 4045 0760 7379735F 		.ascii	"sys_timeouts_init\000"
ARM GAS  /tmp/ccpWmyq1.s 			page 78


 4045      74696D65 
 4045      6F757473 
 4045      5F696E69 
 4045      7400
 4046              	.LASF93:
 4047 0772 73746174 		.ascii	"state\000"
 4047      6500
 4048              	.LASF191:
 4049 0778 6E657874 		.ascii	"next_timeout\000"
 4049      5F74696D 
 4049      656F7574 
 4049      00
 4050              	.LASF120:
 4051 0785 736E645F 		.ascii	"snd_queuelen\000"
 4051      71756575 
 4051      656C656E 
 4051      00
 4052              	.LASF158:
 4053 0792 63686B73 		.ascii	"chksum\000"
 4053      756D00
 4054              	.LASF127:
 4055 0799 72656376 		.ascii	"recv\000"
 4055      00
 4056              	.LASF56:
 4057 079e 6D5F6E65 		.ascii	"m_next\000"
 4057      787400
 4058              	.LASF1:
 4059 07a5 7369676E 		.ascii	"signed char\000"
 4059      65642063 
 4059      68617200 
 4060              	.LASF89:
 4061 07b1 7463705F 		.ascii	"tcp_pcb\000"
 4061      70636200 
 4062              	.LASF8:
 4063 07b9 73686F72 		.ascii	"short unsigned int\000"
 4063      7420756E 
 4063      7369676E 
 4063      65642069 
 4063      6E7400
 4064              	.LASF132:
 4065 07cc 70657273 		.ascii	"persist_cnt\000"
 4065      6973745F 
 4065      636E7400 
 4066              	.LASF91:
 4067 07d8 72656D6F 		.ascii	"remote_ip\000"
 4067      74655F69 
 4067      7000
 4068              	.LASF194:
 4069 07e2 7463705F 		.ascii	"tcp_tw_pcbs\000"
 4069      74775F70 
 4069      63627300 
 4070              	.LASF87:
 4071 07ee 69705F61 		.ascii	"ip_addr_t\000"
 4071      6464725F 
 4071      7400
 4072              	.LASF204:
 4073 07f8 7463705F 		.ascii	"tcp_state\000"
ARM GAS  /tmp/ccpWmyq1.s 			page 79


 4073      73746174 
 4073      6500
 4074              	.LASF175:
 4075 0802 6D656D70 		.ascii	"memp_t\000"
 4075      5F7400
 4076              	.LASF193:
 4077 0809 7463705F 		.ascii	"tcp_active_pcbs\000"
 4077      61637469 
 4077      76655F70 
 4077      63627300 
 4078              	.LASF108:
 4079 0819 6E727478 		.ascii	"nrtx\000"
 4079      00
 4080              	.LASF176:
 4081 081e 6D736563 		.ascii	"msecs\000"
 4081      7300
 4082              	.LASF154:
 4083 0824 64657374 		.ascii	"dest\000"
 4083      00
 4084              	.LASF65:
 4085 0829 65786974 		.ascii	"exitcode\000"
 4085      636F6465 
 4085      00
 4086              	.LASF143:
 4087 0832 53594E5F 		.ascii	"SYN_RCVD\000"
 4087      52435644 
 4087      00
 4088              	.LASF85:
 4089 083b 69705F61 		.ascii	"ip_addr\000"
 4089      64647200 
 4090              	.LASF184:
 4091 0843 74637069 		.ascii	"tcpip_tcp_timer\000"
 4091      705F7463 
 4091      705F7469 
 4091      6D657200 
 4092              		.ident	"GCC: (crosstool-NG 1.17.0 - PSAS ST32F4 GFE) 4.7.2"
ARM GAS  /tmp/ccpWmyq1.s 			page 80


DEFINED SYMBOLS
                            *ABS*:0000000000000000 timers.c
     /tmp/ccpWmyq1.s:21     .text.sys_timeout:0000000000000000 $t
     /tmp/ccpWmyq1.s:27     .text.sys_timeout:0000000000000000 sys_timeout
     /tmp/ccpWmyq1.s:119    .text.sys_timeout:0000000000000054 $d
     /tmp/ccpWmyq1.s:124    .text.sys_timeouts_init:0000000000000000 $t
     /tmp/ccpWmyq1.s:130    .text.sys_timeouts_init:0000000000000000 sys_timeouts_init
     /tmp/ccpWmyq1.s:201    .text.ip_reass_timer:0000000000000000 ip_reass_timer
     /tmp/ccpWmyq1.s:167    .text.arp_timer:0000000000000000 arp_timer
     /tmp/ccpWmyq1.s:162    .text.arp_timer:0000000000000000 $t
     /tmp/ccpWmyq1.s:196    .text.ip_reass_timer:0000000000000000 $t
     /tmp/ccpWmyq1.s:230    .text.tcp_timer_needed:0000000000000000 $t
     /tmp/ccpWmyq1.s:236    .text.tcp_timer_needed:0000000000000000 tcp_timer_needed
     /tmp/ccpWmyq1.s:276    .text.tcp_timer_needed:0000000000000024 $d
     /tmp/ccpWmyq1.s:289    .text.tcpip_tcp_timer:0000000000000000 tcpip_tcp_timer
     /tmp/ccpWmyq1.s:284    .text.tcpip_tcp_timer:0000000000000000 $t
     /tmp/ccpWmyq1.s:331    .text.tcpip_tcp_timer:0000000000000028 $d
     /tmp/ccpWmyq1.s:339    .text.sys_untimeout:0000000000000000 $t
     /tmp/ccpWmyq1.s:345    .text.sys_untimeout:0000000000000000 sys_untimeout
     /tmp/ccpWmyq1.s:420    .text.sys_untimeout:0000000000000044 $d
     /tmp/ccpWmyq1.s:425    .text.sys_timeouts_mbox_fetch:0000000000000000 $t
     /tmp/ccpWmyq1.s:431    .text.sys_timeouts_mbox_fetch:0000000000000000 sys_timeouts_mbox_fetch
     /tmp/ccpWmyq1.s:532    .text.sys_timeouts_mbox_fetch:000000000000006c $d
     /tmp/ccpWmyq1.s:537    .bss.tcpip_tcp_timer_active:0000000000000000 $d
     /tmp/ccpWmyq1.s:541    .bss.tcpip_tcp_timer_active:0000000000000000 tcpip_tcp_timer_active
     /tmp/ccpWmyq1.s:544    .bss.next_timeout:0000000000000000 $d
     /tmp/ccpWmyq1.s:548    .bss.next_timeout:0000000000000000 next_timeout
                     .debug_frame:0000000000000010 $d
     /tmp/ccpWmyq1.s:123    .text.sys_timeout:0000000000000058 $t
     /tmp/ccpWmyq1.s:283    .text.tcp_timer_needed:0000000000000034 $t
     /tmp/ccpWmyq1.s:338    .text.tcpip_tcp_timer:0000000000000038 $t
     /tmp/ccpWmyq1.s:424    .text.sys_untimeout:0000000000000048 $t

UNDEFINED SYMBOLS
memp_malloc
port_halt
etharp_tmr
ip_reass_tmr
tcp_active_pcbs
tcp_tw_pcbs
tcp_tmr
memp_free
sys_arch_mbox_fetch
