ARM GAS  /tmp/cc49k1oN.s 			page 1


   1              		.syntax unified
   2              		.cpu cortex-m4
   3              		.eabi_attribute 27, 3
   4              		.eabi_attribute 28, 1
   5              		.fpu fpv4-sp-d16
   6              		.eabi_attribute 20, 1
   7              		.eabi_attribute 21, 1
   8              		.eabi_attribute 23, 3
   9              		.eabi_attribute 24, 1
  10              		.eabi_attribute 25, 1
  11              		.eabi_attribute 26, 1
  12              		.eabi_attribute 30, 2
  13              		.eabi_attribute 34, 1
  14              		.eabi_attribute 18, 4
  15              		.thumb
  16              		.file	"usb.c"
  17              		.text
  18              	.Ltext0:
  19              		.cfi_sections	.debug_frame
  20              		.section	.text.usbInit,"ax",%progbits
  21              		.align	2
  22              		.p2align 4,,15
  23              		.global	usbInit
  24              		.thumb
  25              		.thumb_func
  26              		.type	usbInit, %function
  27              	usbInit:
  28              	.LFB120:
  29              		.file 1 "../../os/hal/src/usb.c"
  30              		.loc 1 228 0
  31              		.cfi_startproc
  32              		@ args = 0, pretend = 0, frame = 0
  33              		@ frame_needed = 0, uses_anonymous_args = 0
  34              		@ link register save eliminated.
  35              		.loc 1 231 0
  36              		.loc 1 230 0
  37 0000 FFF7FEBF 		b	usb_lld_init
  38              	.LVL0:
  39              		.cfi_endproc
  40              	.LFE120:
  41              		.size	usbInit, .-usbInit
  42 0004 AFF30080 		.section	.text.usbObjectInit,"ax",%progbits
  42      AFF30080 
  42      AFF30080 
  43              		.align	2
  44              		.p2align 4,,15
  45              		.global	usbObjectInit
  46              		.thumb
  47              		.thumb_func
  48              		.type	usbObjectInit, %function
  49              	usbObjectInit:
  50              	.LFB121:
  51              		.loc 1 240 0
  52              		.cfi_startproc
  53              		@ args = 0, pretend = 0, frame = 0
  54              		@ frame_needed = 0, uses_anonymous_args = 0
  55              		@ link register save eliminated.
ARM GAS  /tmp/cc49k1oN.s 			page 2


  56              	.LVL1:
  57              		.loc 1 243 0
  58 0000 0023     		movs	r3, #0
  59              		.loc 1 242 0
  60 0002 0122     		movs	r2, #1
  61 0004 0270     		strb	r2, [r0, #0]
  62              		.loc 1 243 0
  63 0006 4360     		str	r3, [r0, #4]
  64              		.loc 1 244 0
  65 0008 8360     		str	r3, [r0, #8]
  66              		.loc 1 245 0
  67 000a 8381     		strh	r3, [r0, #12]	@ movhi
  68              		.loc 1 246 0
  69 000c C381     		strh	r3, [r0, #14]	@ movhi
  70 000e 7047     		bx	lr
  71              		.cfi_endproc
  72              	.LFE121:
  73              		.size	usbObjectInit, .-usbObjectInit
  74              		.section	.text.usbStart,"ax",%progbits
  75              		.align	2
  76              		.p2align 4,,15
  77              		.global	usbStart
  78              		.thumb
  79              		.thumb_func
  80              		.type	usbStart, %function
  81              	usbStart:
  82              	.LFB122:
  83              		.loc 1 257 0
  84              		.cfi_startproc
  85              		@ args = 0, pretend = 0, frame = 0
  86              		@ frame_needed = 0, uses_anonymous_args = 0
  87              	.LVL2:
  88 0000 38B5     		push	{r3, r4, r5, lr}
  89              	.LCFI0:
  90              		.cfi_def_cfa_offset 16
  91              		.cfi_offset 3, -16
  92              		.cfi_offset 4, -12
  93              		.cfi_offset 5, -8
  94              		.cfi_offset 14, -4
  95              		.loc 1 257 0
  96 0002 0446     		mov	r4, r0
  97              	.LBB2:
  98              		.loc 1 262 0
  99 0004 2023     		movs	r3, #32
 100              	.LVL3:
 101              	@ 262 "../../os/hal/src/usb.c" 1
 102 0006 83F31188 		msr     BASEPRI, r3
 103              	@ 0 "" 2
 104              	.LVL4:
 105              		.thumb
 106              	.LBE2:
 107              		.loc 1 267 0
 108 000a 0025     		movs	r5, #0
 109              		.loc 1 265 0
 110 000c 4160     		str	r1, [r0, #4]
 111              	.LVL5:
 112              		.loc 1 267 0
ARM GAS  /tmp/cc49k1oN.s 			page 3


 113 000e 0561     		str	r5, [r0, #16]
 114              	.LVL6:
 115 0010 4561     		str	r5, [r0, #20]
 116              	.LVL7:
 117 0012 8561     		str	r5, [r0, #24]
 118              	.LVL8:
 119 0014 C561     		str	r5, [r0, #28]
 120              	.LVL9:
 121              		.loc 1 268 0
 122 0016 FFF7FEFF 		bl	usb_lld_start
 123              	.LVL10:
 124              		.loc 1 269 0
 125 001a 0223     		movs	r3, #2
 126 001c 2370     		strb	r3, [r4, #0]
 127              	.LBB3:
 128              		.loc 1 270 0
 129 001e 2B46     		mov	r3, r5
 130              	.LVL11:
 131              	@ 270 "../../os/hal/src/usb.c" 1
 132 0020 83F31188 		msr     BASEPRI, r3
 133              	@ 0 "" 2
 134              	.LVL12:
 135              		.thumb
 136 0024 38BD     		pop	{r3, r4, r5, pc}
 137              	.LBE3:
 138              		.cfi_endproc
 139              	.LFE122:
 140              		.size	usbStart, .-usbStart
 141 0026 00BFAFF3 		.section	.text.usbStop,"ax",%progbits
 141      0080AFF3 
 141      0080
 142              		.align	2
 143              		.p2align 4,,15
 144              		.global	usbStop
 145              		.thumb
 146              		.thumb_func
 147              		.type	usbStop, %function
 148              	usbStop:
 149              	.LFB123:
 150              		.loc 1 280 0
 151              		.cfi_startproc
 152              		@ args = 0, pretend = 0, frame = 0
 153              		@ frame_needed = 0, uses_anonymous_args = 0
 154              	.LVL13:
 155 0000 10B5     		push	{r4, lr}
 156              	.LCFI1:
 157              		.cfi_def_cfa_offset 8
 158              		.cfi_offset 4, -8
 159              		.cfi_offset 14, -4
 160              	.LBB4:
 161              		.loc 1 284 0
 162 0002 2023     		movs	r3, #32
 163              	.LVL14:
 164              	.LBE4:
 165              		.loc 1 280 0
 166 0004 0446     		mov	r4, r0
 167              	.LBB5:
ARM GAS  /tmp/cc49k1oN.s 			page 4


 168              		.loc 1 284 0
 169              	@ 284 "../../os/hal/src/usb.c" 1
 170 0006 83F31188 		msr     BASEPRI, r3
 171              	@ 0 "" 2
 172              	.LVL15:
 173              		.thumb
 174              	.LBE5:
 175              		.loc 1 287 0
 176 000a FFF7FEFF 		bl	usb_lld_stop
 177              	.LVL16:
 178              		.loc 1 288 0
 179 000e 0123     		movs	r3, #1
 180 0010 2370     		strb	r3, [r4, #0]
 181              	.LBB6:
 182              		.loc 1 289 0
 183 0012 0023     		movs	r3, #0
 184              	.LVL17:
 185              	@ 289 "../../os/hal/src/usb.c" 1
 186 0014 83F31188 		msr     BASEPRI, r3
 187              	@ 0 "" 2
 188              	.LVL18:
 189              		.thumb
 190 0018 10BD     		pop	{r4, pc}
 191              	.LBE6:
 192              		.cfi_endproc
 193              	.LFE123:
 194              		.size	usbStop, .-usbStop
 195 001a 00BFAFF3 		.section	.text.usbInitEndpointI,"ax",%progbits
 195      0080
 196              		.align	2
 197              		.p2align 4,,15
 198              		.global	usbInitEndpointI
 199              		.thumb
 200              		.thumb_func
 201              		.type	usbInitEndpointI, %function
 202              	usbInitEndpointI:
 203              	.LFB124:
 204              		.loc 1 306 0
 205              		.cfi_startproc
 206              		@ args = 0, pretend = 0, frame = 0
 207              		@ frame_needed = 0, uses_anonymous_args = 0
 208              	.LVL19:
 209 0000 70B5     		push	{r4, r5, r6, lr}
 210              	.LCFI2:
 211              		.cfi_def_cfa_offset 16
 212              		.cfi_offset 4, -16
 213              		.cfi_offset 5, -12
 214              		.cfi_offset 6, -8
 215              		.cfi_offset 14, -4
 216              		.loc 1 306 0
 217 0002 0646     		mov	r6, r0
 218              		.loc 1 316 0
 219 0004 5069     		ldr	r0, [r2, #20]
 220              	.LVL20:
 221              		.loc 1 306 0
 222 0006 1446     		mov	r4, r2
 223 0008 0D46     		mov	r5, r1
ARM GAS  /tmp/cc49k1oN.s 			page 5


 224              		.loc 1 316 0
 225 000a 18B1     		cbz	r0, .L6
 226              		.loc 1 317 0
 227 000c 0021     		movs	r1, #0
 228              	.LVL21:
 229 000e 1022     		movs	r2, #16
 230              	.LVL22:
 231 0010 FFF7FEFF 		bl	memset
 232              	.LVL23:
 233              	.L6:
 234              		.loc 1 318 0
 235 0014 A069     		ldr	r0, [r4, #24]
 236 0016 18B1     		cbz	r0, .L7
 237              		.loc 1 319 0
 238 0018 0021     		movs	r1, #0
 239 001a 1022     		movs	r2, #16
 240 001c FFF7FEFF 		bl	memset
 241              	.LVL24:
 242              	.L7:
 243              		.loc 1 321 0
 244 0020 2B1D     		adds	r3, r5, #4
 245              		.loc 1 324 0
 246 0022 3046     		mov	r0, r6
 247 0024 2946     		mov	r1, r5
 248              		.loc 1 321 0
 249 0026 46F82340 		str	r4, [r6, r3, lsl #2]
 250              		.loc 1 325 0
 251 002a BDE87040 		pop	{r4, r5, r6, lr}
 252              		.loc 1 324 0
 253 002e FFF7FEBF 		b	usb_lld_init_endpoint
 254              	.LVL25:
 255              		.cfi_endproc
 256              	.LFE124:
 257              		.size	usbInitEndpointI, .-usbInitEndpointI
 258 0032 00BFAFF3 		.section	.text.usbDisableEndpointsI,"ax",%progbits
 258      0080AFF3 
 258      0080AFF3 
 258      0080
 259              		.align	2
 260              		.p2align 4,,15
 261              		.global	usbDisableEndpointsI
 262              		.thumb
 263              		.thumb_func
 264              		.type	usbDisableEndpointsI, %function
 265              	usbDisableEndpointsI:
 266              	.LFB125:
 267              		.loc 1 338 0
 268              		.cfi_startproc
 269              		@ args = 0, pretend = 0, frame = 0
 270              		@ frame_needed = 0, uses_anonymous_args = 0
 271              		@ link register save eliminated.
 272              	.LVL26:
 273 0000 10B4     		push	{r4}
 274              	.LCFI3:
 275              		.cfi_def_cfa_offset 4
 276              		.cfi_offset 4, -4
 277              		.loc 1 347 0
ARM GAS  /tmp/cc49k1oN.s 			page 6


 278 0002 C189     		ldrh	r1, [r0, #14]
 279              		.loc 1 346 0
 280 0004 8489     		ldrh	r4, [r0, #12]
 281              		.loc 1 349 0
 282 0006 0022     		movs	r2, #0
 283              		.loc 1 346 0
 284 0008 24F00104 		bic	r4, r4, #1
 285              		.loc 1 347 0
 286 000c 21F00101 		bic	r1, r1, #1
 287              		.loc 1 349 0
 288 0010 4261     		str	r2, [r0, #20]
 289              		.loc 1 346 0
 290 0012 8481     		strh	r4, [r0, #12]	@ movhi
 291              		.loc 1 347 0
 292 0014 C181     		strh	r1, [r0, #14]	@ movhi
 293              	.LVL27:
 294              		.loc 1 349 0
 295 0016 8261     		str	r2, [r0, #24]
 296              	.LVL28:
 297 0018 C261     		str	r2, [r0, #28]
 298              	.LVL29:
 299              		.loc 1 353 0
 300 001a 10BC     		pop	{r4}
 301              		.loc 1 352 0
 302 001c FFF7FEBF 		b	usb_lld_disable_endpoints
 303              	.LVL30:
 304              		.cfi_endproc
 305              	.LFE125:
 306              		.size	usbDisableEndpointsI, .-usbDisableEndpointsI
 307              		.section	.text.usbPrepareReceive,"ax",%progbits
 308              		.align	2
 309              		.p2align 4,,15
 310              		.global	usbPrepareReceive
 311              		.thumb
 312              		.thumb_func
 313              		.type	usbPrepareReceive, %function
 314              	usbPrepareReceive:
 315              	.LFB126:
 316              		.loc 1 367 0
 317              		.cfi_startproc
 318              		@ args = 0, pretend = 0, frame = 0
 319              		@ frame_needed = 0, uses_anonymous_args = 0
 320              		@ link register save eliminated.
 321              	.LVL31:
 322 0000 30B4     		push	{r4, r5}
 323              	.LCFI4:
 324              		.cfi_def_cfa_offset 8
 325              		.cfi_offset 4, -8
 326              		.cfi_offset 5, -4
 327              		.loc 1 368 0
 328 0002 0C1D     		adds	r4, r1, #4
 329              		.loc 1 370 0
 330 0004 0025     		movs	r5, #0
 331              		.loc 1 368 0
 332 0006 50F82440 		ldr	r4, [r0, r4, lsl #2]
 333 000a A469     		ldr	r4, [r4, #24]
 334              	.LVL32:
ARM GAS  /tmp/cc49k1oN.s 			page 7


 335              		.loc 1 370 0
 336 000c 2560     		str	r5, [r4, #0]
 337              		.loc 1 371 0
 338 000e E260     		str	r2, [r4, #12]
 339              		.loc 1 372 0
 340 0010 6360     		str	r3, [r4, #4]
 341              		.loc 1 373 0
 342 0012 A560     		str	r5, [r4, #8]
 343              		.loc 1 376 0
 344 0014 30BC     		pop	{r4, r5}
 345              		.loc 1 375 0
 346 0016 FFF7FEBF 		b	usb_lld_prepare_receive
 347              	.LVL33:
 348              		.cfi_endproc
 349              	.LFE126:
 350              		.size	usbPrepareReceive, .-usbPrepareReceive
 351 001a 00BFAFF3 		.section	.text.usbPrepareTransmit,"ax",%progbits
 351      0080
 352              		.align	2
 353              		.p2align 4,,15
 354              		.global	usbPrepareTransmit
 355              		.thumb
 356              		.thumb_func
 357              		.type	usbPrepareTransmit, %function
 358              	usbPrepareTransmit:
 359              	.LFB127:
 360              		.loc 1 393 0
 361              		.cfi_startproc
 362              		@ args = 0, pretend = 0, frame = 0
 363              		@ frame_needed = 0, uses_anonymous_args = 0
 364              		@ link register save eliminated.
 365              	.LVL34:
 366 0000 30B4     		push	{r4, r5}
 367              	.LCFI5:
 368              		.cfi_def_cfa_offset 8
 369              		.cfi_offset 4, -8
 370              		.cfi_offset 5, -4
 371              		.loc 1 394 0
 372 0002 0C1D     		adds	r4, r1, #4
 373              		.loc 1 396 0
 374 0004 0025     		movs	r5, #0
 375              		.loc 1 394 0
 376 0006 50F82440 		ldr	r4, [r0, r4, lsl #2]
 377 000a 6469     		ldr	r4, [r4, #20]
 378              	.LVL35:
 379              		.loc 1 396 0
 380 000c 2560     		str	r5, [r4, #0]
 381              		.loc 1 397 0
 382 000e E260     		str	r2, [r4, #12]
 383              		.loc 1 398 0
 384 0010 6360     		str	r3, [r4, #4]
 385              		.loc 1 399 0
 386 0012 A560     		str	r5, [r4, #8]
 387              		.loc 1 402 0
 388 0014 30BC     		pop	{r4, r5}
 389              		.loc 1 401 0
 390 0016 FFF7FEBF 		b	usb_lld_prepare_transmit
ARM GAS  /tmp/cc49k1oN.s 			page 8


 391              	.LVL36:
 392              		.cfi_endproc
 393              	.LFE127:
 394              		.size	usbPrepareTransmit, .-usbPrepareTransmit
 395 001a 00BFAFF3 		.section	.text.usbPrepareQueuedReceive,"ax",%progbits
 395      0080
 396              		.align	2
 397              		.p2align 4,,15
 398              		.global	usbPrepareQueuedReceive
 399              		.thumb
 400              		.thumb_func
 401              		.type	usbPrepareQueuedReceive, %function
 402              	usbPrepareQueuedReceive:
 403              	.LFB128:
 404              		.loc 1 422 0
 405              		.cfi_startproc
 406              		@ args = 0, pretend = 0, frame = 0
 407              		@ frame_needed = 0, uses_anonymous_args = 0
 408              		@ link register save eliminated.
 409              	.LVL37:
 410 0000 30B4     		push	{r4, r5}
 411              	.LCFI6:
 412              		.cfi_def_cfa_offset 8
 413              		.cfi_offset 4, -8
 414              		.cfi_offset 5, -4
 415              		.loc 1 423 0
 416 0002 0C1D     		adds	r4, r1, #4
 417              		.loc 1 425 0
 418 0004 0125     		movs	r5, #1
 419              		.loc 1 423 0
 420 0006 50F82440 		ldr	r4, [r0, r4, lsl #2]
 421 000a A469     		ldr	r4, [r4, #24]
 422              	.LVL38:
 423              		.loc 1 427 0
 424 000c 6360     		str	r3, [r4, #4]
 425              		.loc 1 428 0
 426 000e 0023     		movs	r3, #0
 427              	.LVL39:
 428              		.loc 1 425 0
 429 0010 2560     		str	r5, [r4, #0]
 430              		.loc 1 426 0
 431 0012 E260     		str	r2, [r4, #12]
 432              		.loc 1 428 0
 433 0014 A360     		str	r3, [r4, #8]
 434              		.loc 1 431 0
 435 0016 30BC     		pop	{r4, r5}
 436              		.loc 1 430 0
 437 0018 FFF7FEBF 		b	usb_lld_prepare_receive
 438              	.LVL40:
 439              		.cfi_endproc
 440              	.LFE128:
 441              		.size	usbPrepareQueuedReceive, .-usbPrepareQueuedReceive
 442 001c AFF30080 		.section	.text.usbPrepareQueuedTransmit,"ax",%progbits
 443              		.align	2
 444              		.p2align 4,,15
 445              		.global	usbPrepareQueuedTransmit
 446              		.thumb
ARM GAS  /tmp/cc49k1oN.s 			page 9


 447              		.thumb_func
 448              		.type	usbPrepareQueuedTransmit, %function
 449              	usbPrepareQueuedTransmit:
 450              	.LFB129:
 451              		.loc 1 448 0
 452              		.cfi_startproc
 453              		@ args = 0, pretend = 0, frame = 0
 454              		@ frame_needed = 0, uses_anonymous_args = 0
 455              		@ link register save eliminated.
 456              	.LVL41:
 457 0000 30B4     		push	{r4, r5}
 458              	.LCFI7:
 459              		.cfi_def_cfa_offset 8
 460              		.cfi_offset 4, -8
 461              		.cfi_offset 5, -4
 462              		.loc 1 449 0
 463 0002 0C1D     		adds	r4, r1, #4
 464              		.loc 1 451 0
 465 0004 0125     		movs	r5, #1
 466              		.loc 1 449 0
 467 0006 50F82440 		ldr	r4, [r0, r4, lsl #2]
 468 000a 6469     		ldr	r4, [r4, #20]
 469              	.LVL42:
 470              		.loc 1 453 0
 471 000c 6360     		str	r3, [r4, #4]
 472              		.loc 1 454 0
 473 000e 0023     		movs	r3, #0
 474              	.LVL43:
 475              		.loc 1 451 0
 476 0010 2560     		str	r5, [r4, #0]
 477              		.loc 1 452 0
 478 0012 E260     		str	r2, [r4, #12]
 479              		.loc 1 454 0
 480 0014 A360     		str	r3, [r4, #8]
 481              		.loc 1 457 0
 482 0016 30BC     		pop	{r4, r5}
 483              		.loc 1 456 0
 484 0018 FFF7FEBF 		b	usb_lld_prepare_transmit
 485              	.LVL44:
 486              		.cfi_endproc
 487              	.LFE129:
 488              		.size	usbPrepareQueuedTransmit, .-usbPrepareQueuedTransmit
 489 001c AFF30080 		.section	.text.usbStartReceiveI,"ax",%progbits
 490              		.align	2
 491              		.p2align 4,,15
 492              		.global	usbStartReceiveI
 493              		.thumb
 494              		.thumb_func
 495              		.type	usbStartReceiveI, %function
 496              	usbStartReceiveI:
 497              	.LFB130:
 498              		.loc 1 473 0
 499              		.cfi_startproc
 500              		@ args = 0, pretend = 0, frame = 0
 501              		@ frame_needed = 0, uses_anonymous_args = 0
 502              	.LVL45:
 503 0000 70B5     		push	{r4, r5, r6, lr}
ARM GAS  /tmp/cc49k1oN.s 			page 10


 504              	.LCFI8:
 505              		.cfi_def_cfa_offset 16
 506              		.cfi_offset 4, -16
 507              		.cfi_offset 5, -12
 508              		.cfi_offset 6, -8
 509              		.cfi_offset 14, -4
 510              		.loc 1 478 0
 511 0002 C489     		ldrh	r4, [r0, #14]
 512 0004 44FA01F3 		asr	r3, r4, r1
 513 0008 13F00106 		ands	r6, r3, #1
 514              		.loc 1 473 0
 515 000c 0D46     		mov	r5, r1
 516              		.loc 1 478 0
 517 000e 01D0     		beq	.L23
 518              		.loc 1 479 0
 519 0010 0120     		movs	r0, #1
 520              	.LVL46:
 521              		.loc 1 484 0
 522 0012 70BD     		pop	{r4, r5, r6, pc}
 523              	.LVL47:
 524              	.L23:
 525              		.loc 1 481 0
 526 0014 0123     		movs	r3, #1
 527 0016 03FA01F5 		lsl	r5, r3, r1
 528 001a 2C43     		orrs	r4, r4, r5
 529 001c C481     		strh	r4, [r0, #14]	@ movhi
 530              		.loc 1 482 0
 531 001e FFF7FEFF 		bl	usb_lld_start_out
 532              	.LVL48:
 533              		.loc 1 483 0
 534 0022 3046     		mov	r0, r6
 535 0024 70BD     		pop	{r4, r5, r6, pc}
 536              		.cfi_endproc
 537              	.LFE130:
 538              		.size	usbStartReceiveI, .-usbStartReceiveI
 539 0026 00BFAFF3 		.section	.text.usbStartTransmitI,"ax",%progbits
 539      0080AFF3 
 539      0080
 540              		.align	2
 541              		.p2align 4,,15
 542              		.global	usbStartTransmitI
 543              		.thumb
 544              		.thumb_func
 545              		.type	usbStartTransmitI, %function
 546              	usbStartTransmitI:
 547              	.LFB131:
 548              		.loc 1 500 0
 549              		.cfi_startproc
 550              		@ args = 0, pretend = 0, frame = 0
 551              		@ frame_needed = 0, uses_anonymous_args = 0
 552              	.LVL49:
 553 0000 70B5     		push	{r4, r5, r6, lr}
 554              	.LCFI9:
 555              		.cfi_def_cfa_offset 16
 556              		.cfi_offset 4, -16
 557              		.cfi_offset 5, -12
 558              		.cfi_offset 6, -8
ARM GAS  /tmp/cc49k1oN.s 			page 11


 559              		.cfi_offset 14, -4
 560              		.loc 1 505 0
 561 0002 8489     		ldrh	r4, [r0, #12]
 562 0004 44FA01F3 		asr	r3, r4, r1
 563 0008 13F00106 		ands	r6, r3, #1
 564              		.loc 1 500 0
 565 000c 0D46     		mov	r5, r1
 566              		.loc 1 505 0
 567 000e 01D0     		beq	.L27
 568              		.loc 1 506 0
 569 0010 0120     		movs	r0, #1
 570              	.LVL50:
 571              		.loc 1 511 0
 572 0012 70BD     		pop	{r4, r5, r6, pc}
 573              	.LVL51:
 574              	.L27:
 575              		.loc 1 508 0
 576 0014 0123     		movs	r3, #1
 577 0016 03FA01F5 		lsl	r5, r3, r1
 578 001a 2C43     		orrs	r4, r4, r5
 579 001c 8481     		strh	r4, [r0, #12]	@ movhi
 580              		.loc 1 509 0
 581 001e FFF7FEFF 		bl	usb_lld_start_in
 582              	.LVL52:
 583              		.loc 1 510 0
 584 0022 3046     		mov	r0, r6
 585 0024 70BD     		pop	{r4, r5, r6, pc}
 586              		.cfi_endproc
 587              	.LFE131:
 588              		.size	usbStartTransmitI, .-usbStartTransmitI
 589 0026 00BFAFF3 		.section	.text.usbStallReceiveI,"ax",%progbits
 589      0080AFF3 
 589      0080
 590              		.align	2
 591              		.p2align 4,,15
 592              		.global	usbStallReceiveI
 593              		.thumb
 594              		.thumb_func
 595              		.type	usbStallReceiveI, %function
 596              	usbStallReceiveI:
 597              	.LFB132:
 598              		.loc 1 525 0
 599              		.cfi_startproc
 600              		@ args = 0, pretend = 0, frame = 0
 601              		@ frame_needed = 0, uses_anonymous_args = 0
 602              	.LVL53:
 603              		.loc 1 530 0
 604 0000 C389     		ldrh	r3, [r0, #14]
 605 0002 43FA01F3 		asr	r3, r3, r1
 606              		.loc 1 525 0
 607 0006 10B5     		push	{r4, lr}
 608              	.LCFI10:
 609              		.cfi_def_cfa_offset 8
 610              		.cfi_offset 4, -8
 611              		.cfi_offset 14, -4
 612              		.loc 1 530 0
 613 0008 13F00104 		ands	r4, r3, #1
ARM GAS  /tmp/cc49k1oN.s 			page 12


 614 000c 01D0     		beq	.L31
 615              		.loc 1 531 0
 616 000e 0120     		movs	r0, #1
 617              	.LVL54:
 618              		.loc 1 535 0
 619 0010 10BD     		pop	{r4, pc}
 620              	.LVL55:
 621              	.L31:
 622              		.loc 1 533 0
 623 0012 FFF7FEFF 		bl	usb_lld_stall_out
 624              	.LVL56:
 625              		.loc 1 534 0
 626 0016 2046     		mov	r0, r4
 627 0018 10BD     		pop	{r4, pc}
 628              		.cfi_endproc
 629              	.LFE132:
 630              		.size	usbStallReceiveI, .-usbStallReceiveI
 631 001a 00BFAFF3 		.section	.text.usbStallTransmitI,"ax",%progbits
 631      0080
 632              		.align	2
 633              		.p2align 4,,15
 634              		.global	usbStallTransmitI
 635              		.thumb
 636              		.thumb_func
 637              		.type	usbStallTransmitI, %function
 638              	usbStallTransmitI:
 639              	.LFB133:
 640              		.loc 1 549 0
 641              		.cfi_startproc
 642              		@ args = 0, pretend = 0, frame = 0
 643              		@ frame_needed = 0, uses_anonymous_args = 0
 644              	.LVL57:
 645              		.loc 1 554 0
 646 0000 8389     		ldrh	r3, [r0, #12]
 647 0002 43FA01F3 		asr	r3, r3, r1
 648              		.loc 1 549 0
 649 0006 10B5     		push	{r4, lr}
 650              	.LCFI11:
 651              		.cfi_def_cfa_offset 8
 652              		.cfi_offset 4, -8
 653              		.cfi_offset 14, -4
 654              		.loc 1 554 0
 655 0008 13F00104 		ands	r4, r3, #1
 656 000c 01D0     		beq	.L35
 657              		.loc 1 555 0
 658 000e 0120     		movs	r0, #1
 659              	.LVL58:
 660              		.loc 1 559 0
 661 0010 10BD     		pop	{r4, pc}
 662              	.LVL59:
 663              	.L35:
 664              		.loc 1 557 0
 665 0012 FFF7FEFF 		bl	usb_lld_stall_in
 666              	.LVL60:
 667              		.loc 1 558 0
 668 0016 2046     		mov	r0, r4
 669 0018 10BD     		pop	{r4, pc}
ARM GAS  /tmp/cc49k1oN.s 			page 13


 670              		.cfi_endproc
 671              	.LFE133:
 672              		.size	usbStallTransmitI, .-usbStallTransmitI
 673 001a 00BFAFF3 		.section	.text._usb_reset,"ax",%progbits
 673      0080
 674              		.align	2
 675              		.p2align 4,,15
 676              		.global	_usb_reset
 677              		.thumb
 678              		.thumb_func
 679              		.type	_usb_reset, %function
 680              	_usb_reset:
 681              	.LFB134:
 682              		.loc 1 570 0
 683              		.cfi_startproc
 684              		@ args = 0, pretend = 0, frame = 0
 685              		@ frame_needed = 0, uses_anonymous_args = 0
 686              		@ link register save eliminated.
 687              	.LVL61:
 688 0000 10B4     		push	{r4}
 689              	.LCFI12:
 690              		.cfi_def_cfa_offset 4
 691              		.cfi_offset 4, -4
 692              		.loc 1 570 0
 693 0002 0346     		mov	r3, r0
 694              		.loc 1 574 0
 695 0004 0022     		movs	r2, #0
 696              		.loc 1 573 0
 697 0006 0224     		movs	r4, #2
 698 0008 0470     		strb	r4, [r0, #0]
 699              		.loc 1 574 0
 700 000a 0287     		strh	r2, [r0, #56]	@ movhi
 701              		.loc 1 575 0
 702 000c 83F83A20 		strb	r2, [r3, #58]
 703              		.loc 1 576 0
 704 0010 80F83B20 		strb	r2, [r0, #59]
 705              		.loc 1 577 0
 706 0014 8281     		strh	r2, [r0, #12]	@ movhi
 707              		.loc 1 578 0
 708 0016 C281     		strh	r2, [r0, #14]	@ movhi
 709              	.LVL62:
 710              		.loc 1 582 0
 711 0018 0261     		str	r2, [r0, #16]
 712              	.LVL63:
 713 001a 4261     		str	r2, [r0, #20]
 714              	.LVL64:
 715 001c 8261     		str	r2, [r0, #24]
 716              	.LVL65:
 717 001e C261     		str	r2, [r0, #28]
 718              	.LVL66:
 719              		.loc 1 585 0
 720 0020 83F82020 		strb	r2, [r3, #32]
 721              		.loc 1 589 0
 722 0024 10BC     		pop	{r4}
 723              		.loc 1 588 0
 724 0026 FFF7FEBF 		b	usb_lld_reset
 725              	.LVL67:
ARM GAS  /tmp/cc49k1oN.s 			page 14


 726              		.cfi_endproc
 727              	.LFE134:
 728              		.size	_usb_reset, .-_usb_reset
 729 002a 00BFAFF3 		.section	.text._usb_ep0setup,"ax",%progbits
 729      0080
 730              		.align	2
 731              		.p2align 4,,15
 732              		.global	_usb_ep0setup
 733              		.thumb
 734              		.thumb_func
 735              		.type	_usb_ep0setup, %function
 736              	_usb_ep0setup:
 737              	.LFB135:
 738              		.loc 1 601 0
 739              		.cfi_startproc
 740              		@ args = 0, pretend = 0, frame = 0
 741              		@ frame_needed = 0, uses_anonymous_args = 0
 742              	.LVL68:
 743 0000 F8B5     		push	{r3, r4, r5, r6, r7, lr}
 744              	.LCFI13:
 745              		.cfi_def_cfa_offset 24
 746              		.cfi_offset 3, -24
 747              		.cfi_offset 4, -20
 748              		.cfi_offset 5, -16
 749              		.cfi_offset 6, -12
 750              		.cfi_offset 7, -8
 751              		.cfi_offset 14, -4
 752              		.loc 1 604 0
 753 0002 0023     		movs	r3, #0
 754              		.loc 1 601 0
 755 0004 0446     		mov	r4, r0
 756              		.loc 1 604 0
 757 0006 80F82030 		strb	r3, [r0, #32]
 758              		.loc 1 605 0
 759 000a 00F13002 		add	r2, r0, #48
 760 000e FFF7FEFF 		bl	usb_lld_read_setup
 761              	.LVL69:
 762              		.loc 1 609 0
 763 0012 6368     		ldr	r3, [r4, #4]
 764 0014 9B68     		ldr	r3, [r3, #8]
 765 0016 43B3     		cbz	r3, .L41
 766              		.loc 1 610 0 discriminator 1
 767 0018 2046     		mov	r0, r4
 768 001a 9847     		blx	r3
 769              	.LVL70:
 770              		.loc 1 609 0 discriminator 1
 771 001c 28B3     		cbz	r0, .L41
 772 001e A56A     		ldr	r5, [r4, #40]
 773 0020 94F83030 		ldrb	r3, [r4, #48]	@ zero_extendqisi2
 774              	.L81:
 775              		.loc 1 629 0
 776 0024 94F83710 		ldrb	r1, [r4, #55]	@ zero_extendqisi2
 777 0028 94F83620 		ldrb	r2, [r4, #54]	@ zero_extendqisi2
 778 002c 42EA0122 		orr	r2, r2, r1, lsl #8
 779              	.LVL71:
 780              		.loc 1 631 0
 781 0030 AA42     		cmp	r2, r5
ARM GAS  /tmp/cc49k1oN.s 			page 15


 782              		.loc 1 632 0
 783 0032 3CBF     		itt	cc
 784 0034 1546     		movcc	r5, r2
 785 0036 A262     		strcc	r2, [r4, #40]
 786              		.loc 1 633 0
 787 0038 13F0800F 		tst	r3, #128
 788              		.loc 1 638 0
 789 003c 2B46     		mov	r3, r5
 790              		.loc 1 633 0
 791 003e 7DD1     		bne	.L110
 792              		.loc 1 655 0
 793 0040 002D     		cmp	r5, #0
 794 0042 68D1     		bne	.L111
 795              		.loc 1 666 0
 796 0044 0422     		movs	r2, #4
 797              	.LVL72:
 798 0046 84F82020 		strb	r2, [r4, #32]
 799              		.loc 1 667 0
 800 004a 2046     		mov	r0, r4
 801 004c 2946     		mov	r1, r5
 802              	.LVL73:
 803 004e 2A46     		mov	r2, r5
 804 0050 FFF7FEFF 		bl	usbPrepareTransmit
 805              	.LVL74:
 806              	.LBB19:
 807              		.loc 1 668 0
 808 0054 2023     		movs	r3, #32
 809              	.LVL75:
 810              	@ 668 "../../os/hal/src/usb.c" 1
 811 0056 83F31188 		msr     BASEPRI, r3
 812              	@ 0 "" 2
 813              	.LVL76:
 814              		.thumb
 815              	.LBE19:
 816              		.loc 1 669 0
 817 005a 2046     		mov	r0, r4
 818 005c 2946     		mov	r1, r5
 819 005e FFF7FEFF 		bl	usbStartTransmitI
 820              	.LVL77:
 821              	.LBB20:
 822              		.loc 1 670 0
 823 0062 2B46     		mov	r3, r5
 824              	.LVL78:
 825              	@ 670 "../../os/hal/src/usb.c" 1
 826 0064 83F31188 		msr     BASEPRI, r3
 827              	@ 0 "" 2
 828              	.LVL79:
 829              		.thumb
 830 0068 F8BD     		pop	{r3, r4, r5, r6, r7, pc}
 831              	.LVL80:
 832              	.L41:
 833              	.LBE20:
 834              		.loc 1 613 0
 835 006a 94F83030 		ldrb	r3, [r4, #48]	@ zero_extendqisi2
 836 006e 13F06007 		ands	r7, r3, #96
 837 0072 11D0     		beq	.L112
 838              	.L39:
ARM GAS  /tmp/cc49k1oN.s 			page 16


 839              		.loc 1 618 0
 840 0074 0021     		movs	r1, #0
 841 0076 2046     		mov	r0, r4
 842 0078 FFF7FEFF 		bl	usb_lld_stall_in
 843              	.LVL81:
 844              		.loc 1 619 0
 845 007c 2046     		mov	r0, r4
 846 007e 0021     		movs	r1, #0
 847 0080 FFF7FEFF 		bl	usb_lld_stall_out
 848              	.LVL82:
 849              		.loc 1 620 0
 850 0084 6368     		ldr	r3, [r4, #4]
 851 0086 1B68     		ldr	r3, [r3, #0]
 852 0088 13B1     		cbz	r3, .L75
 853              		.loc 1 620 0 is_stmt 0 discriminator 1
 854 008a 2046     		mov	r0, r4
 855 008c 0521     		movs	r1, #5
 856 008e 9847     		blx	r3
 857              	.LVL83:
 858              	.L75:
 859              		.loc 1 621 0 is_stmt 1
 860 0090 0523     		movs	r3, #5
 861 0092 84F82030 		strb	r3, [r4, #32]
 862              		.loc 1 622 0
 863 0096 F8BD     		pop	{r3, r4, r5, r6, r7, pc}
 864              	.L112:
 865              	.LVL84:
 866              	.LBB21:
 867              	.LBB22:
 868              		.loc 1 88 0
 869 0098 94F83160 		ldrb	r6, [r4, #49]	@ zero_extendqisi2
 870              		.loc 1 86 0
 871 009c 03F07F02 		and	r2, r3, #127
 872              		.loc 1 87 0
 873 00a0 42EA0626 		orr	r6, r2, r6, lsl #8
 874              		.loc 1 86 0
 875 00a4 B6F5407F 		cmp	r6, #768
 876 00a8 00F0F680 		beq	.L49
 877 00ac 16DD     		ble	.L113
 878 00ae B6F5C06F 		cmp	r6, #1536
 879 00b2 00F08880 		beq	.L52
 880 00b6 68DD     		ble	.L114
 881 00b8 B6F5106F 		cmp	r6, #2304
 882 00bc 00F0B180 		beq	.L54
 883 00c0 40F60242 		movw	r2, #3074
 884 00c4 9642     		cmp	r6, r2
 885 00c6 77D0     		beq	.L45
 886 00c8 B6F5006F 		cmp	r6, #2048
 887 00cc D2D1     		bne	.L39
 888              		.loc 1 135 0
 889 00ce 0125     		movs	r5, #1
 890 00d0 04F13B02 		add	r2, r4, #59
 891 00d4 6262     		str	r2, [r4, #36]
 892 00d6 A562     		str	r5, [r4, #40]
 893 00d8 E762     		str	r7, [r4, #44]
 894 00da A3E7     		b	.L81
 895              	.L113:
ARM GAS  /tmp/cc49k1oN.s 			page 17


 896              		.loc 1 86 0
 897 00dc 022E     		cmp	r6, #2
 898 00de 00F0B280 		beq	.L46
 899 00e2 64DD     		ble	.L115
 900 00e4 B6F5807F 		cmp	r6, #256
 901 00e8 00F08680 		beq	.L47
 902 00ec B6F5817F 		cmp	r6, #258
 903 00f0 C0D1     		bne	.L39
 904              		.loc 1 181 0
 905 00f2 94F83220 		ldrb	r2, [r4, #50]	@ zero_extendqisi2
 906 00f6 002A     		cmp	r2, #0
 907 00f8 BCD1     		bne	.L39
 908              		.loc 1 184 0
 909 00fa 94F83420 		ldrb	r2, [r4, #52]	@ zero_extendqisi2
 910 00fe 12F00F01 		ands	r1, r2, #15
 911 0102 4FD0     		beq	.L73
 912              		.loc 1 185 0
 913 0104 1206     		lsls	r2, r2, #24
 914              		.loc 1 186 0
 915 0106 2046     		mov	r0, r4
 916              		.loc 1 185 0
 917 0108 00F1F580 		bmi	.L116
 918              	.LVL85:
 919              		.loc 1 188 0
 920 010c FFF7FEFF 		bl	usb_lld_clear_out
 921              	.LVL86:
 922 0110 94F83030 		ldrb	r3, [r4, #48]	@ zero_extendqisi2
 923 0114 46E0     		b	.L73
 924              	.LVL87:
 925              	.L111:
 926              	.LBE22:
 927              	.LBE21:
 928              		.loc 1 657 0
 929 0116 0322     		movs	r2, #3
 930              	.LVL88:
 931 0118 84F82020 		strb	r2, [r4, #32]
 932              		.loc 1 658 0
 933 011c 2046     		mov	r0, r4
 934 011e 0021     		movs	r1, #0
 935              	.LVL89:
 936 0120 626A     		ldr	r2, [r4, #36]
 937 0122 FFF7FEFF 		bl	usbPrepareReceive
 938              	.LVL90:
 939              	.LBB26:
 940              		.loc 1 659 0
 941 0126 2023     		movs	r3, #32
 942              	.LVL91:
 943              	@ 659 "../../os/hal/src/usb.c" 1
 944 0128 83F31188 		msr     BASEPRI, r3
 945              	@ 0 "" 2
 946              	.LVL92:
 947              		.thumb
 948              	.LBE26:
 949              		.loc 1 660 0
 950 012c 0021     		movs	r1, #0
 951 012e 2046     		mov	r0, r4
 952 0130 FFF7FEFF 		bl	usbStartReceiveI
ARM GAS  /tmp/cc49k1oN.s 			page 18


 953              	.LVL93:
 954              	.LBB27:
 955              		.loc 1 661 0
 956 0134 0023     		movs	r3, #0
 957              	.LVL94:
 958              	@ 661 "../../os/hal/src/usb.c" 1
 959 0136 83F31188 		msr     BASEPRI, r3
 960              	@ 0 "" 2
 961              	.LVL95:
 962              		.thumb
 963 013a F8BD     		pop	{r3, r4, r5, r6, r7, pc}
 964              	.LVL96:
 965              	.L110:
 966              	.LBE27:
 967              		.loc 1 635 0
 968 013c 95B1     		cbz	r5, .L79
 969              		.loc 1 637 0
 970 013e 0122     		movs	r2, #1
 971              	.LVL97:
 972 0140 84F82020 		strb	r2, [r4, #32]
 973              		.loc 1 638 0
 974 0144 2046     		mov	r0, r4
 975 0146 0021     		movs	r1, #0
 976              	.LVL98:
 977 0148 626A     		ldr	r2, [r4, #36]
 978 014a FFF7FEFF 		bl	usbPrepareTransmit
 979              	.LVL99:
 980              	.LBB28:
 981              		.loc 1 639 0
 982 014e 2023     		movs	r3, #32
 983              	.LVL100:
 984              	@ 639 "../../os/hal/src/usb.c" 1
 985 0150 83F31188 		msr     BASEPRI, r3
 986              	@ 0 "" 2
 987              	.LVL101:
 988              		.thumb
 989              	.LBE28:
 990              		.loc 1 640 0
 991 0154 0021     		movs	r1, #0
 992 0156 2046     		mov	r0, r4
 993 0158 FFF7FEFF 		bl	usbStartTransmitI
 994              	.LVL102:
 995              	.LBB29:
 996              		.loc 1 641 0
 997 015c 0023     		movs	r3, #0
 998              	.LVL103:
 999              	@ 641 "../../os/hal/src/usb.c" 1
 1000 015e 83F31188 		msr     BASEPRI, r3
 1001              	@ 0 "" 2
 1002              	.LVL104:
 1003              		.thumb
 1004 0162 F8BD     		pop	{r3, r4, r5, r6, r7, pc}
 1005              	.LVL105:
 1006              	.L79:
 1007              	.LBE29:
 1008              		.loc 1 646 0
 1009 0164 0222     		movs	r2, #2
ARM GAS  /tmp/cc49k1oN.s 			page 19


 1010              	.LVL106:
 1011 0166 84F82020 		strb	r2, [r4, #32]
 1012              		.loc 1 647 0
 1013 016a 2046     		mov	r0, r4
 1014 016c 2946     		mov	r1, r5
 1015              	.LVL107:
 1016 016e 2A46     		mov	r2, r5
 1017 0170 FFF7FEFF 		bl	usbPrepareReceive
 1018              	.LVL108:
 1019              	.LBB30:
 1020              		.loc 1 648 0
 1021 0174 2023     		movs	r3, #32
 1022              	.LVL109:
 1023              	@ 648 "../../os/hal/src/usb.c" 1
 1024 0176 83F31188 		msr     BASEPRI, r3
 1025              	@ 0 "" 2
 1026              	.LVL110:
 1027              		.thumb
 1028              	.LBE30:
 1029              		.loc 1 649 0
 1030 017a 2046     		mov	r0, r4
 1031 017c 2946     		mov	r1, r5
 1032 017e FFF7FEFF 		bl	usbStartReceiveI
 1033              	.LVL111:
 1034              	.LBB31:
 1035              		.loc 1 650 0
 1036 0182 2B46     		mov	r3, r5
 1037              	.LVL112:
 1038              	@ 650 "../../os/hal/src/usb.c" 1
 1039 0184 83F31188 		msr     BASEPRI, r3
 1040              	@ 0 "" 2
 1041              	.LVL113:
 1042              		.thumb
 1043 0188 F8BD     		pop	{r3, r4, r5, r6, r7, pc}
 1044              	.LVL114:
 1045              	.L114:
 1046              	.LBE31:
 1047              	.LBB32:
 1048              	.LBB25:
 1049              		.loc 1 86 0
 1050 018a 40F20232 		movw	r2, #770
 1051 018e 9642     		cmp	r6, r2
 1052 0190 70D0     		beq	.L50
 1053 0192 B6F5A06F 		cmp	r6, #1280
 1054 0196 7FF46DAF 		bne	.L39
 1055              		.loc 1 116 0
 1056 019a 228E     		ldrh	r2, [r4, #48]
 1057 019c B2F5A06F 		cmp	r2, #1280
 1058 01a0 00F09780 		beq	.L117
 1059              	.L73:
 1060              		.loc 1 203 0
 1061 01a4 0025     		movs	r5, #0
 1062 01a6 6562     		str	r5, [r4, #36]
 1063 01a8 A562     		str	r5, [r4, #40]
 1064 01aa E562     		str	r5, [r4, #44]
 1065 01ac 3AE7     		b	.L81
 1066              	.L115:
ARM GAS  /tmp/cc49k1oN.s 			page 20


 1067              		.loc 1 86 0
 1068 01ae 002E     		cmp	r6, #0
 1069 01b0 30D0     		beq	.L44
 1070 01b2 012E     		cmp	r6, #1
 1071 01b4 7FF45EAF 		bne	.L39
 1072              	.L45:
 1073              		.loc 1 151 0
 1074 01b8 544A     		ldr	r2, .L120
 1075 01ba 0225     		movs	r5, #2
 1076 01bc 6262     		str	r2, [r4, #36]
 1077 01be 0022     		movs	r2, #0
 1078 01c0 A562     		str	r5, [r4, #40]
 1079 01c2 E262     		str	r2, [r4, #44]
 1080 01c4 2EE7     		b	.L81
 1081              	.L52:
 1082              		.loc 1 126 0
 1083 01c6 6268     		ldr	r2, [r4, #4]
 1084              		.loc 1 128 0
 1085 01c8 94F83560 		ldrb	r6, [r4, #53]	@ zero_extendqisi2
 1086              		.loc 1 126 0
 1087 01cc 94F83430 		ldrb	r3, [r4, #52]	@ zero_extendqisi2
 1088 01d0 5568     		ldr	r5, [r2, #4]
 1089 01d2 94F83310 		ldrb	r1, [r4, #51]	@ zero_extendqisi2
 1090 01d6 94F83220 		ldrb	r2, [r4, #50]	@ zero_extendqisi2
 1091 01da 2046     		mov	r0, r4
 1092 01dc 43EA0623 		orr	r3, r3, r6, lsl #8
 1093 01e0 A847     		blx	r5
 1094              	.LVL115:
 1095              		.loc 1 129 0
 1096 01e2 0028     		cmp	r0, #0
 1097 01e4 3FF446AF 		beq	.L39
 1098              		.loc 1 131 0
 1099 01e8 4368     		ldr	r3, [r0, #4]
 1100 01ea 0568     		ldr	r5, [r0, #0]
 1101 01ec 6362     		str	r3, [r4, #36]
 1102 01ee A562     		str	r5, [r4, #40]
 1103 01f0 E762     		str	r7, [r4, #44]
 1104 01f2 94F83030 		ldrb	r3, [r4, #48]	@ zero_extendqisi2
 1105 01f6 15E7     		b	.L81
 1106              	.LVL116:
 1107              	.L47:
 1108              		.loc 1 96 0
 1109 01f8 94F83220 		ldrb	r2, [r4, #50]	@ zero_extendqisi2
 1110 01fc 012A     		cmp	r2, #1
 1111 01fe 7FF439AF 		bne	.L39
 1112              		.loc 1 97 0
 1113 0202 228F     		ldrh	r2, [r4, #56]
 1114              		.loc 1 98 0
 1115 0204 6762     		str	r7, [r4, #36]
 1116              		.loc 1 97 0
 1117 0206 22F00202 		bic	r2, r2, #2
 1118 020a 2287     		strh	r2, [r4, #56]	@ movhi
 1119              		.loc 1 98 0
 1120 020c A762     		str	r7, [r4, #40]
 1121 020e E762     		str	r7, [r4, #44]
 1122 0210 3D46     		mov	r5, r7
 1123 0212 07E7     		b	.L81
ARM GAS  /tmp/cc49k1oN.s 			page 21


 1124              	.L44:
 1125              		.loc 1 91 0
 1126 0214 0225     		movs	r5, #2
 1127 0216 04F13802 		add	r2, r4, #56
 1128 021a 6262     		str	r2, [r4, #36]
 1129 021c A562     		str	r5, [r4, #40]
 1130 021e E662     		str	r6, [r4, #44]
 1131 0220 00E7     		b	.L81
 1132              	.L54:
 1133              		.loc 1 139 0
 1134 0222 94F83220 		ldrb	r2, [r4, #50]	@ zero_extendqisi2
 1135 0226 84F83B20 		strb	r2, [r4, #59]
 1136              		.loc 1 140 0
 1137 022a 002A     		cmp	r2, #0
 1138 022c 42D1     		bne	.L63
 1139              		.loc 1 141 0
 1140 022e 0322     		movs	r2, #3
 1141 0230 2270     		strb	r2, [r4, #0]
 1142              	.L64:
 1143              		.loc 1 144 0
 1144 0232 6268     		ldr	r2, [r4, #4]
 1145 0234 1268     		ldr	r2, [r2, #0]
 1146 0236 002A     		cmp	r2, #0
 1147 0238 B4D0     		beq	.L73
 1148 023a 2046     		mov	r0, r4
 1149 023c 0221     		movs	r1, #2
 1150 023e 9047     		blx	r2
 1151              	.LVL117:
 1152 0240 94F83030 		ldrb	r3, [r4, #48]	@ zero_extendqisi2
 1153 0244 AEE7     		b	.L73
 1154              	.L46:
 1155              		.loc 1 155 0
 1156 0246 94F83410 		ldrb	r1, [r4, #52]	@ zero_extendqisi2
 1157 024a 11F0800F 		tst	r1, #128
 1158              		.loc 1 156 0
 1159 024e 2046     		mov	r0, r4
 1160 0250 01F00F01 		and	r1, r1, #15
 1161              		.loc 1 155 0
 1162 0254 31D1     		bne	.L118
 1163              	.LVL118:
 1164              		.loc 1 168 0
 1165 0256 FFF7FEFF 		bl	usb_lld_get_status_out
 1166              	.LVL119:
 1167 025a 0128     		cmp	r0, #1
 1168 025c 31D0     		beq	.L69
 1169              	.L109:
 1170 025e 0228     		cmp	r0, #2
 1171 0260 7FF408AF 		bne	.L39
 1172              		.loc 1 173 0
 1173 0264 2A4B     		ldr	r3, .L120+4
 1174 0266 A062     		str	r0, [r4, #40]
 1175 0268 6362     		str	r3, [r4, #36]
 1176 026a E762     		str	r7, [r4, #44]
 1177 026c 94F83030 		ldrb	r3, [r4, #48]	@ zero_extendqisi2
 1178 0270 0546     		mov	r5, r0
 1179 0272 D7E6     		b	.L81
 1180              	.L50:
ARM GAS  /tmp/cc49k1oN.s 			page 22


 1181              		.loc 1 194 0
 1182 0274 94F83220 		ldrb	r2, [r4, #50]	@ zero_extendqisi2
 1183 0278 002A     		cmp	r2, #0
 1184 027a 7FF4FBAE 		bne	.L39
 1185              		.loc 1 197 0
 1186 027e 94F83420 		ldrb	r2, [r4, #52]	@ zero_extendqisi2
 1187 0282 12F00F01 		ands	r1, r2, #15
 1188 0286 8DD0     		beq	.L73
 1189              		.loc 1 198 0
 1190 0288 1306     		lsls	r3, r2, #24
 1191              		.loc 1 199 0
 1192 028a 2046     		mov	r0, r4
 1193              		.loc 1 198 0
 1194 028c 38D4     		bmi	.L119
 1195              	.LVL120:
 1196              		.loc 1 201 0
 1197 028e FFF7FEFF 		bl	usb_lld_stall_out
 1198              	.LVL121:
 1199 0292 94F83030 		ldrb	r3, [r4, #48]	@ zero_extendqisi2
 1200 0296 85E7     		b	.L73
 1201              	.L49:
 1202              		.loc 1 105 0
 1203 0298 94F83220 		ldrb	r2, [r4, #50]	@ zero_extendqisi2
 1204 029c 012A     		cmp	r2, #1
 1205 029e 7FF4E9AE 		bne	.L39
 1206              		.loc 1 106 0
 1207 02a2 228F     		ldrh	r2, [r4, #56]
 1208              		.loc 1 107 0
 1209 02a4 6762     		str	r7, [r4, #36]
 1210              		.loc 1 106 0
 1211 02a6 42F00202 		orr	r2, r2, #2
 1212 02aa 2287     		strh	r2, [r4, #56]	@ movhi
 1213              		.loc 1 107 0
 1214 02ac A762     		str	r7, [r4, #40]
 1215 02ae E762     		str	r7, [r4, #44]
 1216 02b0 3D46     		mov	r5, r7
 1217 02b2 B7E6     		b	.L81
 1218              	.L63:
 1219              		.loc 1 143 0
 1220 02b4 0422     		movs	r2, #4
 1221 02b6 2270     		strb	r2, [r4, #0]
 1222 02b8 BBE7     		b	.L64
 1223              	.LVL122:
 1224              	.L118:
 1225              		.loc 1 156 0
 1226 02ba FFF7FEFF 		bl	usb_lld_get_status_in
 1227              	.LVL123:
 1228 02be 0128     		cmp	r0, #1
 1229 02c0 CDD1     		bne	.L109
 1230              	.L69:
 1231              		.loc 1 170 0
 1232 02c2 144B     		ldr	r3, .L120+8
 1233 02c4 A662     		str	r6, [r4, #40]
 1234 02c6 6362     		str	r3, [r4, #36]
 1235 02c8 E762     		str	r7, [r4, #44]
 1236 02ca 94F83030 		ldrb	r3, [r4, #48]	@ zero_extendqisi2
 1237 02ce 3546     		mov	r5, r6
ARM GAS  /tmp/cc49k1oN.s 			page 23


 1238 02d0 A8E6     		b	.L81
 1239              	.L117:
 1240              	.LVL124:
 1241              	.LBB23:
 1242              	.LBB24:
 1243              		.loc 1 64 0
 1244 02d2 94F83230 		ldrb	r3, [r4, #50]	@ zero_extendqisi2
 1245              		.loc 1 65 0
 1246 02d6 2046     		mov	r0, r4
 1247              		.loc 1 64 0
 1248 02d8 84F83A30 		strb	r3, [r4, #58]
 1249              		.loc 1 65 0
 1250 02dc FFF7FEFF 		bl	usb_lld_set_address
 1251              	.LVL125:
 1252              		.loc 1 66 0
 1253 02e0 6368     		ldr	r3, [r4, #4]
 1254 02e2 1B68     		ldr	r3, [r3, #0]
 1255 02e4 13B1     		cbz	r3, .L62
 1256 02e6 2046     		mov	r0, r4
 1257 02e8 0121     		movs	r1, #1
 1258 02ea 9847     		blx	r3
 1259              	.LVL126:
 1260              	.L62:
 1261              		.loc 1 67 0
 1262 02ec 0322     		movs	r2, #3
 1263 02ee 94F83030 		ldrb	r3, [r4, #48]	@ zero_extendqisi2
 1264 02f2 2270     		strb	r2, [r4, #0]
 1265 02f4 56E7     		b	.L73
 1266              	.LVL127:
 1267              	.L116:
 1268              	.LBE24:
 1269              	.LBE23:
 1270              		.loc 1 186 0
 1271 02f6 FFF7FEFF 		bl	usb_lld_clear_in
 1272              	.LVL128:
 1273 02fa 94F83030 		ldrb	r3, [r4, #48]	@ zero_extendqisi2
 1274 02fe 51E7     		b	.L73
 1275              	.LVL129:
 1276              	.L119:
 1277              		.loc 1 199 0
 1278 0300 FFF7FEFF 		bl	usb_lld_stall_in
 1279              	.LVL130:
 1280 0304 94F83030 		ldrb	r3, [r4, #48]	@ zero_extendqisi2
 1281 0308 4CE7     		b	.L73
 1282              	.L121:
 1283 030a 00BF     		.align	2
 1284              	.L120:
 1285 030c 00000000 		.word	.LANCHOR0
 1286 0310 00000000 		.word	.LANCHOR2
 1287 0314 00000000 		.word	.LANCHOR1
 1288              	.LBE25:
 1289              	.LBE32:
 1290              		.cfi_endproc
 1291              	.LFE135:
 1292              		.size	_usb_ep0setup, .-_usb_ep0setup
 1293 0318 AFF30080 		.section	.text._usb_ep0in,"ax",%progbits
 1293      AFF30080 
ARM GAS  /tmp/cc49k1oN.s 			page 24


 1294              		.align	2
 1295              		.p2align 4,,15
 1296              		.global	_usb_ep0in
 1297              		.thumb
 1298              		.thumb_func
 1299              		.type	_usb_ep0in, %function
 1300              	_usb_ep0in:
 1301              	.LFB136:
 1302              		.loc 1 685 0
 1303              		.cfi_startproc
 1304              		@ args = 0, pretend = 0, frame = 0
 1305              		@ frame_needed = 0, uses_anonymous_args = 0
 1306              	.LVL131:
 1307 0000 38B5     		push	{r3, r4, r5, lr}
 1308              	.LCFI14:
 1309              		.cfi_def_cfa_offset 16
 1310              		.cfi_offset 3, -16
 1311              		.cfi_offset 4, -12
 1312              		.cfi_offset 5, -8
 1313              		.cfi_offset 14, -4
 1314              		.loc 1 689 0
 1315 0002 90F82030 		ldrb	r3, [r0, #32]	@ zero_extendqisi2
 1316 0006 012B     		cmp	r3, #1
 1317              		.loc 1 685 0
 1318 0008 0446     		mov	r4, r0
 1319              		.loc 1 689 0
 1320 000a 19D0     		beq	.L124
 1321 000c 042B     		cmp	r3, #4
 1322 000e 10D0     		beq	.L137
 1323              		.loc 1 723 0
 1324 0010 0021     		movs	r1, #0
 1325              	.LVL132:
 1326 0012 FFF7FEFF 		bl	usb_lld_stall_in
 1327              	.LVL133:
 1328              		.loc 1 724 0
 1329 0016 2046     		mov	r0, r4
 1330 0018 0021     		movs	r1, #0
 1331 001a FFF7FEFF 		bl	usb_lld_stall_out
 1332              	.LVL134:
 1333              		.loc 1 725 0
 1334 001e 6368     		ldr	r3, [r4, #4]
 1335 0020 1B68     		ldr	r3, [r3, #0]
 1336 0022 13B1     		cbz	r3, .L129
 1337              		.loc 1 725 0 is_stmt 0 discriminator 1
 1338 0024 2046     		mov	r0, r4
 1339 0026 0521     		movs	r1, #5
 1340 0028 9847     		blx	r3
 1341              	.LVL135:
 1342              	.L129:
 1343              		.loc 1 726 0 is_stmt 1
 1344 002a 0523     		movs	r3, #5
 1345 002c 84F82030 		strb	r3, [r4, #32]
 1346 0030 38BD     		pop	{r3, r4, r5, pc}
 1347              	.LVL136:
 1348              	.L137:
 1349              		.loc 1 713 0
 1350 0032 C36A     		ldr	r3, [r0, #44]
ARM GAS  /tmp/cc49k1oN.s 			page 25


 1351 0034 03B1     		cbz	r3, .L128
 1352              		.loc 1 714 0
 1353 0036 9847     		blx	r3
 1354              	.LVL137:
 1355              	.L128:
 1356              		.loc 1 715 0
 1357 0038 0023     		movs	r3, #0
 1358 003a 84F82030 		strb	r3, [r4, #32]
 1359              		.loc 1 716 0
 1360 003e 38BD     		pop	{r3, r4, r5, pc}
 1361              	.LVL138:
 1362              	.L124:
 1363              		.loc 1 691 0
 1364 0040 90F83720 		ldrb	r2, [r0, #55]	@ zero_extendqisi2
 1365 0044 90F83630 		ldrb	r3, [r0, #54]	@ zero_extendqisi2
 1366              		.loc 1 695 0
 1367 0048 856A     		ldr	r5, [r0, #40]
 1368              		.loc 1 691 0
 1369 004a 43EA0223 		orr	r3, r3, r2, lsl #8
 1370              	.LVL139:
 1371              		.loc 1 695 0
 1372 004e AB42     		cmp	r3, r5
 1373 0050 06D9     		bls	.L126
 1374              		.loc 1 696 0 discriminator 1
 1375 0052 0369     		ldr	r3, [r0, #16]
 1376              	.LVL140:
 1377 0054 1B8A     		ldrh	r3, [r3, #16]
 1378 0056 B5FBF3F2 		udiv	r2, r5, r3
 1379 005a 03FB1255 		mls	r5, r3, r2, r5
 1380              		.loc 1 695 0 discriminator 1
 1381 005e 9DB1     		cbz	r5, .L138
 1382              	.L126:
 1383              		.loc 1 706 0
 1384 0060 0021     		movs	r1, #0
 1385              	.LVL141:
 1386              		.loc 1 705 0
 1387 0062 0222     		movs	r2, #2
 1388              		.loc 1 706 0
 1389 0064 0B46     		mov	r3, r1
 1390              		.loc 1 705 0
 1391 0066 84F82020 		strb	r2, [r4, #32]
 1392              		.loc 1 706 0
 1393 006a 2046     		mov	r0, r4
 1394              	.LVL142:
 1395 006c 0A46     		mov	r2, r1
 1396 006e FFF7FEFF 		bl	usbPrepareReceive
 1397              	.LVL143:
 1398              	.LBB33:
 1399              		.loc 1 707 0
 1400 0072 2023     		movs	r3, #32
 1401              	.LVL144:
 1402              	@ 707 "../../os/hal/src/usb.c" 1
 1403 0074 83F31188 		msr     BASEPRI, r3
 1404              	@ 0 "" 2
 1405              	.LVL145:
 1406              		.thumb
 1407              	.LBE33:
ARM GAS  /tmp/cc49k1oN.s 			page 26


 1408              		.loc 1 708 0
 1409 0078 0021     		movs	r1, #0
 1410 007a 2046     		mov	r0, r4
 1411 007c FFF7FEFF 		bl	usbStartReceiveI
 1412              	.LVL146:
 1413              	.LBB34:
 1414              		.loc 1 709 0
 1415 0080 0023     		movs	r3, #0
 1416              	.LVL147:
 1417              	@ 709 "../../os/hal/src/usb.c" 1
 1418 0082 83F31188 		msr     BASEPRI, r3
 1419              	@ 0 "" 2
 1420              	.LVL148:
 1421              		.thumb
 1422              	.LBE34:
 1423              		.loc 1 710 0
 1424 0086 38BD     		pop	{r3, r4, r5, pc}
 1425              	.LVL149:
 1426              	.L138:
 1427              		.loc 1 697 0
 1428 0088 2B46     		mov	r3, r5
 1429 008a 2946     		mov	r1, r5
 1430              	.LVL150:
 1431 008c 2A46     		mov	r2, r5
 1432 008e FFF7FEFF 		bl	usbPrepareTransmit
 1433              	.LVL151:
 1434              	.LBB35:
 1435              		.loc 1 698 0
 1436 0092 2023     		movs	r3, #32
 1437              	.LVL152:
 1438              	@ 698 "../../os/hal/src/usb.c" 1
 1439 0094 83F31188 		msr     BASEPRI, r3
 1440              	@ 0 "" 2
 1441              	.LVL153:
 1442              		.thumb
 1443              	.LBE35:
 1444              		.loc 1 699 0
 1445 0098 2046     		mov	r0, r4
 1446 009a 2946     		mov	r1, r5
 1447 009c FFF7FEFF 		bl	usbStartTransmitI
 1448              	.LVL154:
 1449              	.LBB36:
 1450              		.loc 1 700 0
 1451 00a0 2B46     		mov	r3, r5
 1452              	.LVL155:
 1453              	@ 700 "../../os/hal/src/usb.c" 1
 1454 00a2 83F31188 		msr     BASEPRI, r3
 1455              	@ 0 "" 2
 1456              	.LVL156:
 1457              		.thumb
 1458              	.LBE36:
 1459              		.loc 1 701 0
 1460 00a6 38BD     		pop	{r3, r4, r5, pc}
 1461              		.cfi_endproc
 1462              	.LFE136:
 1463              		.size	_usb_ep0in, .-_usb_ep0in
 1464 00a8 AFF30080 		.section	.text._usb_ep0out,"ax",%progbits
ARM GAS  /tmp/cc49k1oN.s 			page 27


 1464      AFF30080 
 1465              		.align	2
 1466              		.p2align 4,,15
 1467              		.global	_usb_ep0out
 1468              		.thumb
 1469              		.thumb_func
 1470              		.type	_usb_ep0out, %function
 1471              	_usb_ep0out:
 1472              	.LFB137:
 1473              		.loc 1 739 0
 1474              		.cfi_startproc
 1475              		@ args = 0, pretend = 0, frame = 0
 1476              		@ frame_needed = 0, uses_anonymous_args = 0
 1477              	.LVL157:
 1478              		.loc 1 742 0
 1479 0000 90F82030 		ldrb	r3, [r0, #32]	@ zero_extendqisi2
 1480 0004 022B     		cmp	r3, #2
 1481              		.loc 1 739 0
 1482 0006 10B5     		push	{r4, lr}
 1483              	.LCFI15:
 1484              		.cfi_def_cfa_offset 8
 1485              		.cfi_offset 4, -8
 1486              		.cfi_offset 14, -4
 1487              		.loc 1 739 0
 1488 0008 0446     		mov	r4, r0
 1489              		.loc 1 742 0
 1490 000a 26D0     		beq	.L141
 1491 000c 032B     		cmp	r3, #3
 1492 000e 11D0     		beq	.L152
 1493              	.L140:
 1494              		.loc 1 766 0
 1495 0010 0021     		movs	r1, #0
 1496              	.LVL158:
 1497 0012 2046     		mov	r0, r4
 1498              	.LVL159:
 1499 0014 FFF7FEFF 		bl	usb_lld_stall_in
 1500              	.LVL160:
 1501              		.loc 1 767 0
 1502 0018 2046     		mov	r0, r4
 1503 001a 0021     		movs	r1, #0
 1504 001c FFF7FEFF 		bl	usb_lld_stall_out
 1505              	.LVL161:
 1506              		.loc 1 768 0
 1507 0020 6368     		ldr	r3, [r4, #4]
 1508 0022 1B68     		ldr	r3, [r3, #0]
 1509 0024 13B1     		cbz	r3, .L145
 1510              		.loc 1 768 0 is_stmt 0 discriminator 1
 1511 0026 2046     		mov	r0, r4
 1512 0028 0521     		movs	r1, #5
 1513 002a 9847     		blx	r3
 1514              	.LVL162:
 1515              	.L145:
 1516              		.loc 1 769 0 is_stmt 1
 1517 002c 0523     		movs	r3, #5
 1518 002e 84F82030 		strb	r3, [r4, #32]
 1519 0032 10BD     		pop	{r4, pc}
 1520              	.LVL163:
ARM GAS  /tmp/cc49k1oN.s 			page 28


 1521              	.L152:
 1522              		.loc 1 746 0
 1523 0034 0021     		movs	r1, #0
 1524              	.LVL164:
 1525              		.loc 1 745 0
 1526 0036 0422     		movs	r2, #4
 1527              		.loc 1 746 0
 1528 0038 0B46     		mov	r3, r1
 1529              		.loc 1 745 0
 1530 003a 80F82020 		strb	r2, [r0, #32]
 1531              		.loc 1 746 0
 1532 003e 0A46     		mov	r2, r1
 1533 0040 FFF7FEFF 		bl	usbPrepareTransmit
 1534              	.LVL165:
 1535              	.LBB37:
 1536              		.loc 1 747 0
 1537 0044 2023     		movs	r3, #32
 1538              	.LVL166:
 1539              	@ 747 "../../os/hal/src/usb.c" 1
 1540 0046 83F31188 		msr     BASEPRI, r3
 1541              	@ 0 "" 2
 1542              	.LVL167:
 1543              		.thumb
 1544              	.LBE37:
 1545              		.loc 1 748 0
 1546 004a 0021     		movs	r1, #0
 1547 004c 2046     		mov	r0, r4
 1548 004e FFF7FEFF 		bl	usbStartTransmitI
 1549              	.LVL168:
 1550              	.LBB38:
 1551              		.loc 1 749 0
 1552 0052 0023     		movs	r3, #0
 1553              	.LVL169:
 1554              	@ 749 "../../os/hal/src/usb.c" 1
 1555 0054 83F31188 		msr     BASEPRI, r3
 1556              	@ 0 "" 2
 1557              	.LVL170:
 1558              		.thumb
 1559              	.LBE38:
 1560              		.loc 1 750 0
 1561 0058 10BD     		pop	{r4, pc}
 1562              	.LVL171:
 1563              	.L141:
 1564              		.loc 1 754 0
 1565 005a 0369     		ldr	r3, [r0, #16]
 1566 005c 9B69     		ldr	r3, [r3, #24]
 1567 005e 9B68     		ldr	r3, [r3, #8]
 1568 0060 002B     		cmp	r3, #0
 1569 0062 D5D1     		bne	.L140
 1570              		.loc 1 756 0
 1571 0064 C36A     		ldr	r3, [r0, #44]
 1572 0066 03B1     		cbz	r3, .L144
 1573              		.loc 1 757 0
 1574 0068 9847     		blx	r3
 1575              	.LVL172:
 1576              	.L144:
 1577              		.loc 1 758 0
ARM GAS  /tmp/cc49k1oN.s 			page 29


 1578 006a 0023     		movs	r3, #0
 1579 006c 84F82030 		strb	r3, [r4, #32]
 1580              		.loc 1 759 0
 1581 0070 10BD     		pop	{r4, pc}
 1582              		.cfi_endproc
 1583              	.LFE137:
 1584              		.size	_usb_ep0out, .-_usb_ep0out
 1585 0072 00BFAFF3 		.section	.rodata.zero_status,"a",%progbits
 1585      0080AFF3 
 1585      0080AFF3 
 1585      0080
 1586              		.align	2
 1587              		.set	.LANCHOR0,. + 0
 1588              		.type	zero_status, %object
 1589              		.size	zero_status, 2
 1590              	zero_status:
 1591 0000 0000     		.space	2
 1592 0002 0000     		.section	.rodata.active_status,"a",%progbits
 1593              		.align	2
 1594              		.set	.LANCHOR2,. + 0
 1595              		.type	active_status, %object
 1596              		.size	active_status, 2
 1597              	active_status:
 1598 0000 0000     		.space	2
 1599 0002 0000     		.section	.rodata.halted_status,"a",%progbits
 1600              		.align	2
 1601              		.set	.LANCHOR1,. + 0
 1602              		.type	halted_status, %object
 1603              		.size	halted_status, 2
 1604              	halted_status:
 1605 0000 01       		.byte	1
 1606 0001 00       		.byte	0
 1607 0002 0000     		.text
 1608              	.Letext0:
 1609              		.file 2 "/opt/psas/x-tools/stm32f407/arm-psas-eabi/bin/../lib/gcc/arm-psas-eabi/4.7.2/include/stdd
 1610              		.file 3 "/opt/psas/x-tools/stm32f407/arm-psas-eabi/bin/../lib/gcc/arm-psas-eabi/4.7.2/../../../../
 1611              		.file 4 "../../os/ports/GCC/ARMCMx/chtypes.h"
 1612              		.file 5 "../../os/kernel/include/chlists.h"
 1613              		.file 6 "../../os/kernel/include/chthreads.h"
 1614              		.file 7 "../../os/ports/GCC/ARMCMx/chcore_v7m.h"
 1615              		.file 8 "../../os/kernel/include/chmtx.h"
 1616              		.file 9 "../../os/kernel/include/chqueues.h"
 1617              		.file 10 "../../os/hal/include/usb.h"
 1618              		.file 11 "../../os/hal/platforms/STM32/OTGv1/usb_lld.h"
 1619              		.file 12 "../../os/hal/platforms/STM32/OTGv1/stm32_otg.h"
 1620              		.file 13 "../../os/ports/common/ARMCMx/CMSIS/include/core_cm4.h"