ARM GAS  /tmp/ccdEZAv8.s 			page 1


   1              		.syntax unified
   2              		.cpu cortex-m4
   3              		.eabi_attribute 27, 3
   4              		.eabi_attribute 28, 1
   5              		.fpu fpv4-sp-d16
   6              		.eabi_attribute 20, 1
   7              		.eabi_attribute 21, 1
   8              		.eabi_attribute 23, 3
   9              		.eabi_attribute 24, 1
  10              		.eabi_attribute 25, 1
  11              		.eabi_attribute 26, 1
  12              		.eabi_attribute 30, 2
  13              		.eabi_attribute 34, 1
  14              		.eabi_attribute 18, 4
  15              		.thumb
  16              		.file	"usb_lld.c"
  17              		.text
  18              	.Ltext0:
  19              		.cfi_sections	.debug_frame
  20              		.section	.text.otg_disable_ep,"ax",%progbits
  21              		.align	2
  22              		.p2align 4,,15
  23              		.thumb
  24              		.thumb_func
  25              		.type	otg_disable_ep, %function
  26              	otg_disable_ep:
  27              	.LFB120:
  28              		.file 1 "../../os/hal/platforms/STM32/OTGv1/usb_lld.c"
  29              		.loc 1 145 0
  30              		.cfi_startproc
  31              		@ args = 0, pretend = 0, frame = 0
  32              		@ frame_needed = 0, uses_anonymous_args = 0
  33              		@ link register save eliminated.
  34              	.LVL0:
  35 0000 016C     		ldr	r1, [r0, #64]
  36              		.loc 1 146 0
  37 0002 C36B     		ldr	r3, [r0, #60]
  38              	.LVL1:
  39              		.loc 1 149 0
  40 0004 0022     		movs	r2, #0
  41              		.loc 1 145 0
  42 0006 2DE9F001 		push	{r4, r5, r6, r7, r8}
  43              	.LCFI0:
  44              		.cfi_def_cfa_offset 20
  45              		.cfi_offset 4, -20
  46              		.cfi_offset 5, -16
  47              		.cfi_offset 6, -12
  48              		.cfi_offset 7, -8
  49              		.cfi_offset 8, -4
  50              		.loc 1 160 0
  51 000a 1046     		mov	r0, r2
  52              	.LVL2:
  53 000c 8F68     		ldr	r7, [r1, #8]
  54              		.loc 1 154 0
  55 000e 4FF0804C 		mov	ip, #1073741824
  56              		.loc 1 162 0
  57 0012 4FF0FF36 		mov	r6, #-1
ARM GAS  /tmp/ccdEZAv8.s 			page 2


  58 0016 18E0     		b	.L8
  59              	.LVL3:
  60              	.L2:
  61              		.loc 1 160 0
  62 0018 5850     		str	r0, [r3, r1]
  63 001a 5501     		lsls	r5, r2, #5
  64              	.L4:
  65              		.loc 1 161 0
  66 001c 5C19     		adds	r4, r3, r5
  67              		.loc 1 168 0
  68 001e 02F15801 		add	r1, r2, #88
  69 0022 4901     		lsls	r1, r1, #5
  70              		.loc 1 161 0
  71 0024 C4F81009 		str	r0, [r4, #2320]
  72              		.loc 1 162 0
  73 0028 C4F80869 		str	r6, [r4, #2312]
  74              		.loc 1 168 0
  75 002c 53F80180 		ldr	r8, [r3, r1]
  76 0030 B8F1000F 		cmp	r8, #0
  77              		.loc 1 175 0
  78 0034 A8BF     		it	ge
  79 0036 5850     		strge	r0, [r3, r1]
  80              		.loc 1 168 0
  81 0038 16DB     		blt	.L19
  82              	.L7:
  83              		.loc 1 176 0
  84 003a 5D19     		adds	r5, r3, r5
  85              		.loc 1 149 0
  86 003c 0132     		adds	r2, r2, #1
  87              	.LVL4:
  88 003e BA42     		cmp	r2, r7
  89              		.loc 1 176 0
  90 0040 C5F8100B 		str	r0, [r5, #2832]
  91              		.loc 1 177 0
  92 0044 C5F8086B 		str	r6, [r5, #2824]
  93              		.loc 1 149 0
  94 0048 15D8     		bhi	.L20
  95              	.LVL5:
  96              	.L8:
  97              		.loc 1 153 0
  98 004a 02F14801 		add	r1, r2, #72
  99 004e 4901     		lsls	r1, r1, #5
 100 0050 5C58     		ldr	r4, [r3, r1]
 101 0052 002C     		cmp	r4, #0
 102 0054 E0DA     		bge	.L2
 103 0056 5501     		lsls	r5, r2, #5
 104              		.loc 1 154 0
 105 0058 43F801C0 		str	ip, [r3, r1]
 106              		.loc 1 156 0
 107 005c 5C19     		adds	r4, r3, r5
 108              	.L3:
 109              		.loc 1 156 0 is_stmt 0 discriminator 1
 110 005e D4F80819 		ldr	r1, [r4, #2312]
 111 0062 8907     		lsls	r1, r1, #30
 112 0064 FBD5     		bpl	.L3
 113 0066 D9E7     		b	.L4
 114              	.L19:
ARM GAS  /tmp/ccdEZAv8.s 			page 3


 115              		.loc 1 169 0 is_stmt 1
 116 0068 43F801C0 		str	ip, [r3, r1]
 117              	.L6:
 118              		.loc 1 171 0 discriminator 1
 119 006c D4F8081B 		ldr	r1, [r4, #2824]
 120 0070 C906     		lsls	r1, r1, #27
 121 0072 FBD5     		bpl	.L6
 122 0074 E1E7     		b	.L7
 123              	.LVL6:
 124              	.L20:
 125              		.loc 1 179 0
 126 0076 4FF00112 		mov	r2, #65537
 127              	.LVL7:
 128 007a C3F81C28 		str	r2, [r3, #2076]
 129              		.loc 1 180 0
 130 007e BDE8F001 		pop	{r4, r5, r6, r7, r8}
 131 0082 7047     		bx	lr
 132              		.cfi_endproc
 133              	.LFE120:
 134              		.size	otg_disable_ep, .-otg_disable_ep
 135 0084 AFF30080 		.section	.text.otg_epout_handler,"ax",%progbits
 135      AFF30080 
 135      AFF30080 
 136              		.align	2
 137              		.p2align 4,,15
 138              		.thumb
 139              		.thumb_func
 140              		.type	otg_epout_handler, %function
 141              	otg_epout_handler:
 142              	.LFB134:
 143              		.loc 1 580 0
 144              		.cfi_startproc
 145              		@ args = 0, pretend = 0, frame = 0
 146              		@ frame_needed = 0, uses_anonymous_args = 0
 147              	.LVL8:
 148 0000 F8B5     		push	{r3, r4, r5, r6, r7, lr}
 149              	.LCFI1:
 150              		.cfi_def_cfa_offset 24
 151              		.cfi_offset 3, -24
 152              		.cfi_offset 4, -20
 153              		.cfi_offset 5, -16
 154              		.cfi_offset 6, -12
 155              		.cfi_offset 7, -8
 156              		.cfi_offset 14, -4
 157              		.loc 1 581 0
 158 0002 C46B     		ldr	r4, [r0, #60]
 159              	.LVL9:
 160              		.loc 1 582 0
 161 0004 04EB4113 		add	r3, r4, r1, lsl #5
 162              		.loc 1 585 0
 163 0008 4FF0FF32 		mov	r2, #-1
 164              		.loc 1 582 0
 165 000c D3F8086B 		ldr	r6, [r3, #2824]
 166              	.LVL10:
 167              		.loc 1 585 0
 168 0010 C3F8082B 		str	r2, [r3, #2824]
 169              		.loc 1 587 0
ARM GAS  /tmp/ccdEZAv8.s 			page 4


 170 0014 3307     		lsls	r3, r6, #28
 171              		.loc 1 580 0
 172 0016 0546     		mov	r5, r0
 173 0018 0F46     		mov	r7, r1
 174              		.loc 1 587 0
 175 001a 03D5     		bpl	.L22
 176              		.loc 1 587 0 is_stmt 0 discriminator 1
 177 001c D4F81438 		ldr	r3, [r4, #2068]
 178 0020 1A07     		lsls	r2, r3, #28
 179 0022 15D4     		bmi	.L36
 180              	.LVL11:
 181              	.L22:
 182              		.loc 1 593 0 is_stmt 1
 183 0024 F307     		lsls	r3, r6, #31
 184 0026 03D5     		bpl	.L21
 185              		.loc 1 593 0 is_stmt 0 discriminator 1
 186 0028 D4F81438 		ldr	r3, [r4, #2068]
 187 002c D807     		lsls	r0, r3, #31
 188 002e 00D4     		bmi	.L37
 189              	.L21:
 190 0030 F8BD     		pop	{r3, r4, r5, r6, r7, pc}
 191              	.L37:
 192              		.loc 1 595 0 is_stmt 1
 193 0032 3B1D     		adds	r3, r7, #4
 194 0034 E989     		ldrh	r1, [r5, #14]
 195 0036 55F82330 		ldr	r3, [r5, r3, lsl #2]
 196 003a 0122     		movs	r2, #1
 197 003c 02FA07F2 		lsl	r2, r2, r7
 198 0040 21EA0202 		bic	r2, r1, r2
 199 0044 EA81     		strh	r2, [r5, #14]	@ movhi
 200 0046 DB68     		ldr	r3, [r3, #12]
 201 0048 2846     		mov	r0, r5
 202 004a 3946     		mov	r1, r7
 203 004c 9847     		blx	r3
 204              	.LVL12:
 205 004e F8BD     		pop	{r3, r4, r5, r6, r7, pc}
 206              	.LVL13:
 207              	.L36:
 208              		.loc 1 590 0
 209 0050 0B1D     		adds	r3, r1, #4
 210 0052 50F82330 		ldr	r3, [r0, r3, lsl #2]
 211 0056 5B68     		ldr	r3, [r3, #4]
 212 0058 9847     		blx	r3
 213              	.LVL14:
 214 005a E3E7     		b	.L22
 215              		.cfi_endproc
 216              	.LFE134:
 217              		.size	otg_epout_handler, .-otg_epout_handler
 218 005c AFF30080 		.section	.text.otg_txfifo_flush,"ax",%progbits
 219              		.align	2
 220              		.p2align 4,,15
 221              		.thumb
 222              		.thumb_func
 223              		.type	otg_txfifo_flush, %function
 224              	otg_txfifo_flush:
 225              	.LFB122:
 226              		.loc 1 192 0
ARM GAS  /tmp/ccdEZAv8.s 			page 5


 227              		.cfi_startproc
 228              		@ args = 0, pretend = 0, frame = 0
 229              		@ frame_needed = 0, uses_anonymous_args = 0
 230              		@ link register save eliminated.
 231              	.LVL15:
 232              		.loc 1 193 0
 233 0000 C26B     		ldr	r2, [r0, #60]
 234              	.LVL16:
 235              		.loc 1 195 0
 236 0002 8901     		lsls	r1, r1, #6
 237              	.LVL17:
 238 0004 41F02003 		orr	r3, r1, #32
 239 0008 1361     		str	r3, [r2, #16]
 240              	.L39:
 241              		.loc 1 196 0 discriminator 1
 242 000a 1369     		ldr	r3, [r2, #16]
 243 000c 9906     		lsls	r1, r3, #26
 244 000e FCD4     		bmi	.L39
 245              		.loc 1 199 0
 246 0010 0C20     		movs	r0, #12
 247              	.LVL18:
 248              		.loc 1 200 0
 249              		.loc 1 199 0
 250 0012 FFF7FEBF 		b	halPolledDelay
 251              	.LVL19:
 252              		.cfi_endproc
 253              	.LFE122:
 254              		.size	otg_txfifo_flush, .-otg_txfifo_flush
 255 0016 00BFAFF3 		.section	.text.usb_lld_pump,"ax",%progbits
 255      0080AFF3 
 255      0080
 256              		.align	2
 257              		.p2align 4,,15
 258              		.thumb
 259              		.thumb_func
 260              		.type	usb_lld_pump, %function
 261              	usb_lld_pump:
 262              	.LFB136:
 263              		.loc 1 679 0
 264              		.cfi_startproc
 265              		@ args = 0, pretend = 0, frame = 24
 266              		@ frame_needed = 0, uses_anonymous_args = 0
 267              	.LVL20:
 268 0000 2DE9F04F 		push	{r4, r5, r6, r7, r8, r9, sl, fp, lr}
 269              	.LCFI2:
 270              		.cfi_def_cfa_offset 36
 271              		.cfi_offset 4, -36
 272              		.cfi_offset 5, -32
 273              		.cfi_offset 6, -28
 274              		.cfi_offset 7, -24
 275              		.cfi_offset 8, -20
 276              		.cfi_offset 9, -16
 277              		.cfi_offset 10, -12
 278              		.cfi_offset 11, -8
 279              		.cfi_offset 14, -4
 280              		.loc 1 683 0
 281 0004 40F20001 		movw	r1, #:lower16:rlist
ARM GAS  /tmp/ccdEZAv8.s 			page 6


 282 0008 C0F20001 		movt	r1, #:upper16:rlist
 283              		.loc 1 681 0
 284 000c C56B     		ldr	r5, [r0, #60]
 285              		.loc 1 683 0
 286 000e 8A69     		ldr	r2, [r1, #24]
 287 0010 A549     		ldr	r1, .L163
 288              		.loc 1 679 0
 289 0012 87B0     		sub	sp, sp, #28
 290              	.LCFI3:
 291              		.cfi_def_cfa_offset 64
 292              		.loc 1 679 0
 293 0014 8046     		mov	r8, r0
 294              	.LVL21:
 295              	.LBB85:
 296              		.loc 1 684 0
 297 0016 2023     		movs	r3, #32
 298              	.LVL22:
 299              	.LBE85:
 300              		.loc 1 681 0
 301 0018 0195     		str	r5, [sp, #4]
 302              	.LVL23:
 303              		.loc 1 683 0
 304 001a 9161     		str	r1, [r2, #24]
 305              	.LBB86:
 306              		.loc 1 684 0
 307              	@ 684 "../../os/hal/platforms/STM32/OTGv1/usb_lld.c" 1
 308 001c 83F31188 		msr     BASEPRI, r3
 309              	@ 0 "" 2
 310              	.LVL24:
 311              		.thumb
 312              	.LBE86:
 313              	.LBB87:
 314              	.LBB88:
 315              		.loc 1 696 0
 316 0020 4FF00009 		mov	r9, #0
 317              	.LVL25:
 318              	.L98:
 319              	.LBE88:
 320              		.loc 1 690 0
 321 0024 98F80030 		ldrb	r3, [r8, #0]	@ zero_extendqisi2
 322              	.LVL26:
 323 0028 012B     		cmp	r3, #1
 324 002a 06D0     		beq	.L42
 325              		.loc 1 690 0 is_stmt 0 discriminator 1
 326 002c D8F84830 		ldr	r3, [r8, #72]
 327 0030 93B9     		cbnz	r3, .L43
 328              		.loc 1 691 0 is_stmt 1
 329 0032 0199     		ldr	r1, [sp, #4]
 330 0034 4B69     		ldr	r3, [r1, #20]
 331 0036 D806     		lsls	r0, r3, #27
 332 0038 0ED4     		bmi	.L43
 333              	.L42:
 334              		.loc 1 692 0
 335 003a 019D     		ldr	r5, [sp, #4]
 336              		.loc 1 693 0
 337 003c 40F20001 		movw	r1, #:lower16:rlist
 338 0040 C0F20001 		movt	r1, #:upper16:rlist
ARM GAS  /tmp/ccdEZAv8.s 			page 7


 339              		.loc 1 692 0
 340 0044 AA69     		ldr	r2, [r5, #24]
 341              		.loc 1 693 0
 342 0046 8B69     		ldr	r3, [r1, #24]
 343              		.loc 1 692 0
 344 0048 42F01002 		orr	r2, r2, #16
 345 004c AA61     		str	r2, [r5, #24]
 346              		.loc 1 694 0
 347 004e 0220     		movs	r0, #2
 348              		.loc 1 693 0
 349 0050 C8F85030 		str	r3, [r8, #80]
 350              		.loc 1 694 0
 351 0054 FFF7FEFF 		bl	chSchGoSleepS
 352              	.LVL27:
 353              	.L43:
 354              	.LBB89:
 355              		.loc 1 696 0
 356 0058 0023     		movs	r3, #0
 357              	.LVL28:
 358              	@ 696 "../../os/hal/platforms/STM32/OTGv1/usb_lld.c" 1
 359 005a 83F31188 		msr     BASEPRI, r3
 360              	@ 0 "" 2
 361              	.LVL29:
 362              		.loc 1 699 0
 363              		.thumb
 364 005e 1C46     		mov	r4, r3
 365              	.LVL30:
 366              	.L146:
 367              	.LBE89:
 368              		.loc 1 702 0 discriminator 1
 369 0060 019A     		ldr	r2, [sp, #4]
 370 0062 5369     		ldr	r3, [r2, #20]
 371 0064 13F01002 		ands	r2, r3, #16
 372 0068 25D0     		beq	.L157
 373              	.L67:
 374              	.LVL31:
 375              	.LBB90:
 376              	.LBB91:
 377              		.loc 1 452 0
 378 006a D8F83C10 		ldr	r1, [r8, #60]
 379 006e 0E6A     		ldr	r6, [r1, #32]
 380              	.LVL32:
 381              		.loc 1 453 0
 382 0070 06F4F013 		and	r3, r6, #1966080
 383 0074 B3F5802F 		cmp	r3, #262144
 384 0078 31D0     		beq	.L46
 385 007a B3F5402F 		cmp	r3, #786432
 386 007e EFD1     		bne	.L146
 387              	.LVL33:
 388              		.loc 1 458 0
 389 0080 06F00F02 		and	r2, r6, #15
 390              	.LVL34:
 391              		.loc 1 459 0
 392 0084 0432     		adds	r2, r2, #4
 393              	.LVL35:
 394              		.loc 1 457 0
 395 0086 C6F30A13 		ubfx	r3, r6, #4, #11
ARM GAS  /tmp/ccdEZAv8.s 			page 8


 396              		.loc 1 459 0
 397 008a 58F82220 		ldr	r2, [r8, r2, lsl #2]
 398              	.LVL36:
 399              	.LBB92:
 400              	.LBB93:
 401              		.loc 1 370 0
 402 008e 0333     		adds	r3, r3, #3
 403              		.loc 1 372 0
 404 0090 9B08     		lsrs	r3, r3, #2
 405              	.LBE93:
 406              	.LBE92:
 407              		.loc 1 459 0
 408 0092 106A     		ldr	r0, [r2, #32]
 409              	.LVL37:
 410              	.LBB96:
 411              	.LBB95:
 412              		.loc 1 372 0
 413 0094 E4D0     		beq	.L146
 414 0096 0222     		movs	r2, #2
 415 0098 01F5805E 		add	lr, r1, #4096
 416              	.LVL38:
 417              	.L48:
 418              	.LBB94:
 419              		.loc 1 373 0
 420 009c DEF80010 		ldr	r1, [lr, #0]
 421              	.LVL39:
 422              		.loc 1 374 0
 423 00a0 12B1     		cbz	r2, .L50
 424              		.loc 1 377 0
 425 00a2 40F8041B 		str	r1, [r0], #4
 426              	.LVL40:
 427              		.loc 1 379 0
 428 00a6 013A     		subs	r2, r2, #1
 429              	.LVL41:
 430              	.L50:
 431              	.LBE94:
 432              		.loc 1 372 0
 433 00a8 013B     		subs	r3, r3, #1
 434              	.LVL42:
 435 00aa F7D1     		bne	.L48
 436              	.LBE95:
 437              	.LBE96:
 438              	.LBE91:
 439              	.LBE90:
 440              		.loc 1 702 0
 441 00ac 019A     		ldr	r2, [sp, #4]
 442              	.LVL43:
 443 00ae 5369     		ldr	r3, [r2, #20]
 444              	.LVL44:
 445 00b0 13F01002 		ands	r2, r3, #16
 446 00b4 D9D1     		bne	.L67
 447              	.LVL45:
 448              	.L157:
 449              		.loc 1 706 0
 450 00b6 0125     		movs	r5, #1
 451              		.loc 1 707 0
 452 00b8 D8F84830 		ldr	r3, [r8, #72]
ARM GAS  /tmp/ccdEZAv8.s 			page 9


 453              		.loc 1 706 0
 454 00bc A540     		lsls	r5, r5, r4
 455              		.loc 1 707 0
 456 00be 1D42     		tst	r5, r3
 457              		.loc 1 706 0
 458 00c0 0395     		str	r5, [sp, #12]
 459              	.LVL46:
 460              		.loc 1 707 0
 461 00c2 7ED1     		bne	.L148
 462 00c4 0134     		adds	r4, r4, #1
 463 00c6 0494     		str	r4, [sp, #16]
 464              	.LVL47:
 465              	.L68:
 466              		.loc 1 699 0
 467 00c8 D8F84030 		ldr	r3, [r8, #64]
 468              	.LVL48:
 469 00cc 049A     		ldr	r2, [sp, #16]
 470 00ce 9B68     		ldr	r3, [r3, #8]
 471 00d0 D4B2     		uxtb	r4, r2
 472              	.LVL49:
 473 00d2 9C42     		cmp	r4, r3
 474 00d4 C4D9     		bls	.L146
 475              	.LBB112:
 476              		.loc 1 731 0
 477 00d6 2023     		movs	r3, #32
 478              	@ 731 "../../os/hal/platforms/STM32/OTGv1/usb_lld.c" 1
 479 00d8 83F31188 		msr     BASEPRI, r3
 480              	@ 0 "" 2
 481              	.LVL50:
 482              		.thumb
 483              	.LBE112:
 484              	.LBE87:
 485              		.loc 1 732 0
 486 00dc A2E7     		b	.L98
 487              	.LVL51:
 488              	.L46:
 489              	.LBB149:
 490              	.LBB113:
 491              	.LBB111:
 492              		.loc 1 464 0
 493 00de 06F00F07 		and	r7, r6, #15
 494              		.loc 1 465 0
 495 00e2 0437     		adds	r7, r7, #4
 496              		.loc 1 463 0
 497 00e4 C6F30A16 		ubfx	r6, r6, #4, #11
 498              	.LVL52:
 499              		.loc 1 465 0
 500 00e8 58F82730 		ldr	r3, [r8, r7, lsl #2]
 501 00ec 9869     		ldr	r0, [r3, #24]
 502 00ee 0368     		ldr	r3, [r0, #0]
 503 00f0 DBB9     		cbnz	r3, .L158
 504              		.loc 1 472 0
 505 00f2 021D     		adds	r2, r0, #4
 506 00f4 2CCA     		ldmia	r2, {r2, r3, r5}
 507              	.LVL53:
 508 00f6 0332     		adds	r2, r2, #3
 509              	.LVL54:
ARM GAS  /tmp/ccdEZAv8.s 			page 10


 510              	.LBB97:
 511              	.LBB98:
 512              		.loc 1 371 0
 513 00f8 D21A     		subs	r2, r2, r3
 514              		.loc 1 370 0
 515 00fa F31C     		adds	r3, r6, #3
 516              	.LVL55:
 517              		.loc 1 371 0
 518 00fc 9208     		lsrs	r2, r2, #2
 519              	.LVL56:
 520              		.loc 1 372 0
 521 00fe 9B08     		lsrs	r3, r3, #2
 522              	.LVL57:
 523 0100 0AD0     		beq	.L64
 524 0102 01F5805E 		add	lr, r1, #4096
 525              	.LVL58:
 526              	.L66:
 527              	.LBB99:
 528              		.loc 1 373 0
 529 0106 DEF80010 		ldr	r1, [lr, #0]
 530              	.LVL59:
 531              		.loc 1 374 0
 532 010a 12B1     		cbz	r2, .L65
 533              		.loc 1 377 0
 534 010c 45F8041B 		str	r1, [r5], #4
 535              	.LVL60:
 536              		.loc 1 379 0
 537 0110 013A     		subs	r2, r2, #1
 538              	.LVL61:
 539              	.L65:
 540              	.LBE99:
 541              		.loc 1 372 0
 542 0112 013B     		subs	r3, r3, #1
 543              	.LVL62:
 544 0114 F7D1     		bne	.L66
 545 0116 C568     		ldr	r5, [r0, #12]
 546              	.LVL63:
 547              	.L64:
 548              	.LBE98:
 549              	.LBE97:
 550              		.loc 1 477 0
 551 0118 AD19     		adds	r5, r5, r6
 552 011a C560     		str	r5, [r0, #12]
 553              	.LVL64:
 554              	.L62:
 555              		.loc 1 479 0
 556 011c 58F82730 		ldr	r3, [r8, r7, lsl #2]
 557              	.LVL65:
 558 0120 9B69     		ldr	r3, [r3, #24]
 559 0122 9A68     		ldr	r2, [r3, #8]
 560 0124 9219     		adds	r2, r2, r6
 561 0126 9A60     		str	r2, [r3, #8]
 562 0128 9AE7     		b	.L146
 563              	.L158:
 564              		.loc 1 467 0
 565 012a 01F5805E 		add	lr, r1, #4096
 566 012e C568     		ldr	r5, [r0, #12]
ARM GAS  /tmp/ccdEZAv8.s 			page 11


 567              	.LVL66:
 568              	.LBB100:
 569              	.LBB101:
 570              		.loc 1 400 0
 571 0130 5EB3     		cbz	r6, .L53
 572 0132 3046     		mov	r0, r6
 573              	.LVL67:
 574              	.L145:
 575              	.LBB102:
 576              		.loc 1 404 0
 577 0134 0328     		cmp	r0, #3
 578 0136 07D9     		bls	.L57
 579              	.LVL68:
 580              	.L159:
 581              	.LBB103:
 582              		.loc 1 410 0
 583 0138 6B69     		ldr	r3, [r5, #20]
 584 013a 2A69     		ldr	r2, [r5, #16]
 585 013c 9342     		cmp	r3, r2
 586 013e 3DD3     		bcc	.L58
 587              		.loc 1 411 0
 588 0140 EB68     		ldr	r3, [r5, #12]
 589              	.LBE103:
 590              		.loc 1 404 0
 591 0142 0328     		cmp	r0, #3
 592              	.LBB104:
 593              		.loc 1 411 0
 594 0144 6B61     		str	r3, [r5, #20]
 595              	.LVL69:
 596              	.LBE104:
 597              		.loc 1 404 0
 598 0146 F7D8     		bhi	.L159
 599              	.LVL70:
 600              	.L57:
 601              		.loc 1 422 0
 602 0148 DEF800C0 		ldr	ip, [lr, #0]
 603              	.LVL71:
 604              		.loc 1 424 0
 605 014c E8B1     		cbz	r0, .L53
 606 014e 6B69     		ldr	r3, [r5, #20]
 607              	.L99:
 608              	.LBE102:
 609              		.loc 1 400 0
 610 0150 0022     		movs	r2, #0
 611 0152 00E0     		b	.L61
 612              	.LVL72:
 613              	.L160:
 614 0154 6B69     		ldr	r3, [r5, #20]
 615              	.LVL73:
 616              	.L61:
 617              	.LBB105:
 618              		.loc 1 679 0
 619 0156 D100     		lsls	r1, r2, #3
 620              		.loc 1 425 0
 621 0158 2CFA01F1 		lsr	r1, ip, r1
 622 015c 03F8011B 		strb	r1, [r3], #1
 623              		.loc 1 426 0
ARM GAS  /tmp/ccdEZAv8.s 			page 12


 624 0160 2969     		ldr	r1, [r5, #16]
 625              		.loc 1 425 0
 626 0162 6B61     		str	r3, [r5, #20]
 627              		.loc 1 426 0
 628 0164 8B42     		cmp	r3, r1
 629              		.loc 1 427 0
 630 0166 24BF     		itt	cs
 631 0168 EB68     		ldrcs	r3, [r5, #12]
 632 016a 6B61     		strcs	r3, [r5, #20]
 633              		.loc 1 424 0
 634 016c 0138     		subs	r0, r0, #1
 635              	.LVL74:
 636              		.loc 1 429 0
 637 016e 02F10102 		add	r2, r2, #1
 638              	.LVL75:
 639              		.loc 1 424 0
 640 0172 0CBF     		ite	eq
 641 0174 0023     		moveq	r3, #0
 642 0176 0123     		movne	r3, #1
 643 0178 032A     		cmp	r2, #3
 644 017a 8CBF     		ite	hi
 645 017c 0023     		movhi	r3, #0
 646 017e 03F00103 		andls	r3, r3, #1
 647 0182 002B     		cmp	r3, #0
 648 0184 E6D1     		bne	.L160
 649              	.LVL76:
 650              	.LBE105:
 651              		.loc 1 400 0
 652 0186 0028     		cmp	r0, #0
 653 0188 D4D1     		bne	.L145
 654              	.LVL77:
 655              	.L53:
 656              	.LBB106:
 657              		.loc 1 434 0
 658 018a 2023     		movs	r3, #32
 659              	.LVL78:
 660              	@ 434 "../../os/hal/platforms/STM32/OTGv1/usb_lld.c" 1
 661 018c 83F31188 		msr     BASEPRI, r3
 662              	@ 0 "" 2
 663              	.LVL79:
 664              		.thumb
 665              	.LBE106:
 666              		.loc 1 435 0
 667 0190 AB68     		ldr	r3, [r5, #8]
 668              	.LVL80:
 669              		.loc 1 436 0
 670 0192 2868     		ldr	r0, [r5, #0]
 671              		.loc 1 435 0
 672 0194 9B19     		adds	r3, r3, r6
 673              		.loc 1 436 0
 674 0196 A842     		cmp	r0, r5
 675              		.loc 1 435 0
 676 0198 AB60     		str	r3, [r5, #8]
 677              		.loc 1 436 0
 678 019a 09D0     		beq	.L56
 679              	.LVL81:
 680              	.L125:
ARM GAS  /tmp/ccdEZAv8.s 			page 13


 681              	.LBB107:
 682              	.LBB108:
 683              		.file 2 "../../os/kernel/include/chinline.h"
 684              		.loc 2 55 0
 685 019c 0368     		ldr	r3, [r0, #0]
 686 019e 2B60     		str	r3, [r5, #0]
 687 01a0 5D60     		str	r5, [r3, #4]
 688              	.LBE108:
 689              	.LBE107:
 690              		.loc 1 437 0
 691 01a2 FFF7FEFF 		bl	chSchReadyI
 692              	.LVL82:
 693 01a6 C0F82490 		str	r9, [r0, #36]
 694              		.loc 1 436 0
 695 01aa 2868     		ldr	r0, [r5, #0]
 696 01ac A842     		cmp	r0, r5
 697 01ae F5D1     		bne	.L125
 698              	.LVL83:
 699              	.L56:
 700              		.loc 1 438 0
 701 01b0 FFF7FEFF 		bl	chSchRescheduleS
 702              	.LVL84:
 703              	.LBB109:
 704              		.loc 1 439 0
 705 01b4 0023     		movs	r3, #0
 706              	@ 439 "../../os/hal/platforms/STM32/OTGv1/usb_lld.c" 1
 707 01b6 83F31188 		msr     BASEPRI, r3
 708              	@ 0 "" 2
 709              	.LVL85:
 710              		.thumb
 711 01ba AFE7     		b	.L62
 712              	.LVL86:
 713              	.L58:
 714              	.LBE109:
 715              	.LBB110:
 716              		.loc 1 422 0
 717 01bc DEF800C0 		ldr	ip, [lr, #0]
 718              	.LVL87:
 719 01c0 C6E7     		b	.L99
 720              	.LVL88:
 721              	.L148:
 722              	.LBE110:
 723              	.LBE101:
 724              	.LBE100:
 725              	.LBE111:
 726              	.LBE113:
 727              	.LBB114:
 728              	.LBB115:
 729              		.loc 1 710 0
 730 01c2 2023     		movs	r3, #32
 731              	.LVL89:
 732              	@ 710 "../../os/hal/platforms/STM32/OTGv1/usb_lld.c" 1
 733 01c4 83F31188 		msr     BASEPRI, r3
 734              	@ 0 "" 2
 735              	.LVL90:
 736              		.thumb
 737              	.LBE115:
ARM GAS  /tmp/ccdEZAv8.s 			page 14


 738              		.loc 1 718 0
 739 01c8 0199     		ldr	r1, [sp, #4]
 740              		.loc 1 719 0
 741 01ca D8F84830 		ldr	r3, [r8, #72]
 742              	.LVL91:
 743 01ce 039D     		ldr	r5, [sp, #12]
 744              	.LVL92:
 745              		.loc 1 718 0
 746 01d0 8868     		ldr	r0, [r1, #8]
 747              		.loc 1 719 0
 748 01d2 23EA0501 		bic	r1, r3, r5
 749              		.loc 1 718 0
 750 01d6 019D     		ldr	r5, [sp, #4]
 751 01d8 20F00100 		bic	r0, r0, #1
 752 01dc A860     		str	r0, [r5, #8]
 753              	.LBB116:
 754              		.loc 1 720 0
 755 01de 1346     		mov	r3, r2
 756              	.LVL93:
 757              	.LBE116:
 758              		.loc 1 719 0
 759 01e0 C8F84810 		str	r1, [r8, #72]
 760              	.LBB117:
 761              		.loc 1 720 0
 762              	@ 720 "../../os/hal/platforms/STM32/OTGv1/usb_lld.c" 1
 763 01e4 83F31188 		msr     BASEPRI, r3
 764              	@ 0 "" 2
 765              	.LVL94:
 766              		.thumb
 767              	.LBE117:
 768              	.LBB118:
 769              	.LBB119:
 770              		.loc 1 503 0
 771 01e8 261D     		adds	r6, r4, #4
 772 01ea 58F82650 		ldr	r5, [r8, r6, lsl #2]
 773 01ee 6869     		ldr	r0, [r5, #20]
 774 01f0 8368     		ldr	r3, [r0, #8]
 775              	.LVL95:
 776 01f2 4168     		ldr	r1, [r0, #4]
 777 01f4 9942     		cmp	r1, r3
 778 01f6 40F2C580 		bls	.L161
 779              		.loc 1 513 0
 780 01fa D8F83C20 		ldr	r2, [r8, #60]
 781              		.loc 1 508 0
 782 01fe 2D8A     		ldrh	r5, [r5, #16]
 783              		.loc 1 513 0
 784 0200 6701     		lsls	r7, r4, #5
 785 0202 02EB070E 		add	lr, r2, r7
 786              		.loc 1 507 0
 787 0206 C91A     		subs	r1, r1, r3
 788              	.LVL96:
 789              		.loc 1 513 0
 790 0208 DEF81839 		ldr	r3, [lr, #2328]
 791 020c A942     		cmp	r1, r5
 792 020e 38BF     		it	cc
 793 0210 0D46     		movcc	r5, r1
 794              	.LVL97:
ARM GAS  /tmp/ccdEZAv8.s 			page 15


 795 0212 9BB2     		uxth	r3, r3
 796 0214 0134     		adds	r4, r4, #1
 797              	.LVL98:
 798 0216 B5EB830F 		cmp	r5, r3, lsl #2
 799 021a 0494     		str	r4, [sp, #16]
 800 021c 2FD8     		bhi	.L72
 801              		.loc 1 528 0
 802 021e 2103     		lsls	r1, r4, #12
 803 0220 0291     		str	r1, [sp, #8]
 804              	.LVL99:
 805              	.L73:
 806              		.loc 1 520 0
 807 0222 0368     		ldr	r3, [r0, #0]
 808 0224 002B     		cmp	r3, #0
 809 0226 41D1     		bne	.L162
 810              	.LBB120:
 811              	.LBB121:
 812              		.loc 1 269 0
 813 0228 EB1C     		adds	r3, r5, #3
 814              	.LBE121:
 815              	.LBE120:
 816              		.loc 1 528 0
 817 022a 0299     		ldr	r1, [sp, #8]
 818              	.LBB128:
 819              	.LBB126:
 820              	.LBB122:
 821              	.LBB123:
 822              		.loc 1 246 0
 823 022c 9B08     		lsrs	r3, r3, #2
 824              	.LBE123:
 825              	.LBE122:
 826              	.LBE126:
 827              	.LBE128:
 828              		.loc 1 528 0
 829 022e 02EB010C 		add	ip, r2, r1
 830 0232 C268     		ldr	r2, [r0, #12]
 831              	.LVL100:
 832              	.LBB129:
 833              	.LBB127:
 834              	.LBB125:
 835              	.LBB124:
 836              		.loc 1 246 0
 837 0234 08D0     		beq	.L91
 838              		.loc 1 679 0
 839 0236 0432     		adds	r2, r2, #4
 840              	.LVL101:
 841              	.L92:
 842              		.loc 1 249 0
 843 0238 52F8041C 		ldr	r1, [r2, #-4]
 844 023c 0432     		adds	r2, r2, #4
 845              		.loc 1 246 0
 846 023e 013B     		subs	r3, r3, #1
 847              		.loc 1 249 0
 848 0240 CCF80010 		str	r1, [ip, #0]
 849              		.loc 1 246 0
 850 0244 F8D1     		bne	.L92
 851 0246 C268     		ldr	r2, [r0, #12]
ARM GAS  /tmp/ccdEZAv8.s 			page 16


 852              	.L91:
 853              	.LBE124:
 854              	.LBE125:
 855              	.LBE127:
 856              	.LBE129:
 857              		.loc 1 531 0
 858 0248 5219     		adds	r2, r2, r5
 859 024a C260     		str	r2, [r0, #12]
 860              	.LVL102:
 861              	.L89:
 862              		.loc 1 533 0
 863 024c 58F82640 		ldr	r4, [r8, r6, lsl #2]
 864 0250 6069     		ldr	r0, [r4, #20]
 865 0252 8368     		ldr	r3, [r0, #8]
 866              	.LVL103:
 867              		.loc 1 503 0
 868 0254 4168     		ldr	r1, [r0, #4]
 869              		.loc 1 533 0
 870 0256 EB18     		adds	r3, r5, r3
 871              		.loc 1 503 0
 872 0258 9942     		cmp	r1, r3
 873              		.loc 1 533 0
 874 025a 8360     		str	r3, [r0, #8]
 875              		.loc 1 503 0
 876 025c 40F29480 		bls	.L93
 877              		.loc 1 513 0
 878 0260 D8F83C20 		ldr	r2, [r8, #60]
 879              		.loc 1 508 0
 880 0264 248A     		ldrh	r4, [r4, #16]
 881              		.loc 1 513 0
 882 0266 02EB070E 		add	lr, r2, r7
 883              		.loc 1 507 0
 884 026a CD1A     		subs	r5, r1, r3
 885              	.LVL104:
 886              		.loc 1 513 0
 887 026c DEF81839 		ldr	r3, [lr, #2328]
 888 0270 A542     		cmp	r5, r4
 889 0272 28BF     		it	cs
 890 0274 2546     		movcs	r5, r4
 891              	.LVL105:
 892 0276 9BB2     		uxth	r3, r3
 893 0278 B5EB830F 		cmp	r5, r3, lsl #2
 894 027c D1D9     		bls	.L73
 895              	.L72:
 896              	.LBB130:
 897              	.LBB131:
 898              	.LBB132:
 899              		.loc 1 514 0
 900 027e 0022     		movs	r2, #0
 901              	.LVL106:
 902              	.L70:
 903              	.LBE132:
 904              	.LBE131:
 905              	.LBE130:
 906              	.LBE119:
 907              	.LBE118:
 908              	.LBB146:
ARM GAS  /tmp/ccdEZAv8.s 			page 17


 909              		.loc 1 724 0
 910 0280 2023     		movs	r3, #32
 911              	.LVL107:
 912              	@ 724 "../../os/hal/platforms/STM32/OTGv1/usb_lld.c" 1
 913 0282 83F31188 		msr     BASEPRI, r3
 914              	@ 0 "" 2
 915              	.LVL108:
 916              		.thumb
 917              	.LBE146:
 918              		.loc 1 725 0
 919 0286 019D     		ldr	r5, [sp, #4]
 920 0288 AB68     		ldr	r3, [r5, #8]
 921              	.LVL109:
 922 028a 43F00103 		orr	r3, r3, #1
 923 028e AB60     		str	r3, [r5, #8]
 924              		.loc 1 726 0
 925 0290 2AB9     		cbnz	r2, .L95
 926              		.loc 1 727 0
 927 0292 D5F83438 		ldr	r3, [r5, #2100]
 928 0296 0399     		ldr	r1, [sp, #12]
 929 0298 0B43     		orrs	r3, r3, r1
 930 029a C5F83438 		str	r3, [r5, #2100]
 931              	.L95:
 932              	.LBB147:
 933              		.loc 1 728 0
 934 029e 0023     		movs	r3, #0
 935              	@ 728 "../../os/hal/platforms/STM32/OTGv1/usb_lld.c" 1
 936 02a0 83F31188 		msr     BASEPRI, r3
 937              	@ 0 "" 2
 938              	.LVL110:
 939              		.thumb
 940 02a4 10E7     		b	.L68
 941              	.L164:
 942 02a6 00BF     		.align	2
 943              	.L163:
 944 02a8 00000000 		.word	.LC0
 945              	.LVL111:
 946              	.L162:
 947              	.LBE147:
 948              	.LBB148:
 949              	.LBB145:
 950              		.loc 1 522 0
 951 02ac 0299     		ldr	r1, [sp, #8]
 952 02ae C468     		ldr	r4, [r0, #12]
 953 02b0 02EB010C 		add	ip, r2, r1
 954              	.LVL112:
 955              	.LBB144:
 956              	.LBB143:
 957              		.loc 1 287 0
 958 02b4 3DB3     		cbz	r5, .L83
 959 02b6 2946     		mov	r1, r5
 960 02b8 AE46     		mov	lr, r5
 961 02ba 0596     		str	r6, [sp, #20]
 962              	.LVL113:
 963              	.L88:
 964              	.LBB136:
 965              		.loc 1 291 0
ARM GAS  /tmp/ccdEZAv8.s 			page 18


 966 02bc 8808     		lsrs	r0, r1, #2
 967              	.LVL114:
 968 02be 3BD0     		beq	.L78
 969              	.LBB133:
 970              		.loc 1 293 0
 971 02c0 2569     		ldr	r5, [r4, #16]
 972 02c2 A669     		ldr	r6, [r4, #24]
 973              	.LVL115:
 974 02c4 AA1B     		subs	r2, r5, r6
 975 02c6 D31C     		adds	r3, r2, #3
 976 02c8 32EA2202 		bics	r2, r2, r2, asr #32
 977 02cc 28BF     		it	cs
 978 02ce 1A46     		movcs	r2, r3
 979 02d0 9310     		asrs	r3, r2, #2
 980              		.loc 1 295 0
 981 02d2 9842     		cmp	r0, r3
 982 02d4 38BF     		it	cc
 983 02d6 0346     		movcc	r3, r0
 984              	.LVL116:
 985 02d8 4FEA830B 		lsl	fp, r3, #2
 986 02dc CBEB0101 		rsb	r1, fp, r1
 987              	.LVL117:
 988              	.LBB134:
 989              	.LBB135:
 990              		.loc 1 246 0
 991 02e0 43B1     		cbz	r3, .L79
 992              		.loc 1 679 0
 993 02e2 321D     		adds	r2, r6, #4
 994              	.LVL118:
 995              	.L80:
 996              		.loc 1 249 0
 997 02e4 52F8040C 		ldr	r0, [r2, #-4]
 998 02e8 0432     		adds	r2, r2, #4
 999              		.loc 1 246 0
 1000 02ea 013B     		subs	r3, r3, #1
 1001              		.loc 1 249 0
 1002 02ec CCF80000 		str	r0, [ip, #0]
 1003              		.loc 1 246 0
 1004 02f0 F8D1     		bne	.L80
 1005 02f2 5E44     		add	r6, r6, fp
 1006              	.LVL119:
 1007              	.L79:
 1008              	.LBE135:
 1009              	.LBE134:
 1010              		.loc 1 297 0
 1011 02f4 B542     		cmp	r5, r6
 1012              		.loc 1 296 0
 1013 02f6 A661     		str	r6, [r4, #24]
 1014              		.loc 1 297 0
 1015 02f8 41D8     		bhi	.L81
 1016              		.loc 1 298 0
 1017 02fa E368     		ldr	r3, [r4, #12]
 1018 02fc A361     		str	r3, [r4, #24]
 1019              	.LBE133:
 1020              	.LBE136:
 1021              		.loc 1 287 0
 1022 02fe 0029     		cmp	r1, #0
ARM GAS  /tmp/ccdEZAv8.s 			page 19


 1023 0300 DCD1     		bne	.L88
 1024              	.LVL120:
 1025              	.L156:
 1026 0302 059E     		ldr	r6, [sp, #20]
 1027 0304 7546     		mov	r5, lr
 1028              	.LVL121:
 1029              	.L83:
 1030              	.LBB137:
 1031              		.loc 1 322 0
 1032 0306 2023     		movs	r3, #32
 1033              	.LVL122:
 1034              	@ 322 "../../os/hal/platforms/STM32/OTGv1/usb_lld.c" 1
 1035 0308 83F31188 		msr     BASEPRI, r3
 1036              	@ 0 "" 2
 1037              	.LVL123:
 1038              		.thumb
 1039              	.LBE137:
 1040              		.loc 1 323 0
 1041 030c A368     		ldr	r3, [r4, #8]
 1042              	.LVL124:
 1043              		.loc 1 324 0
 1044 030e 2068     		ldr	r0, [r4, #0]
 1045              		.loc 1 323 0
 1046 0310 5B19     		adds	r3, r3, r5
 1047              		.loc 1 324 0
 1048 0312 A042     		cmp	r0, r4
 1049              		.loc 1 323 0
 1050 0314 A360     		str	r3, [r4, #8]
 1051              		.loc 1 324 0
 1052 0316 09D0     		beq	.L77
 1053              	.LVL125:
 1054              	.L126:
 1055              	.LBB138:
 1056              	.LBB139:
 1057              		.loc 2 55 0
 1058 0318 0368     		ldr	r3, [r0, #0]
 1059 031a 2360     		str	r3, [r4, #0]
 1060 031c 5C60     		str	r4, [r3, #4]
 1061              	.LBE139:
 1062              	.LBE138:
 1063              		.loc 1 325 0
 1064 031e FFF7FEFF 		bl	chSchReadyI
 1065              	.LVL126:
 1066 0322 C0F82490 		str	r9, [r0, #36]
 1067              		.loc 1 324 0
 1068 0326 2068     		ldr	r0, [r4, #0]
 1069 0328 A042     		cmp	r0, r4
 1070 032a F5D1     		bne	.L126
 1071              	.LVL127:
 1072              	.L77:
 1073              		.loc 1 326 0
 1074 032c FFF7FEFF 		bl	chSchRescheduleS
 1075              	.LVL128:
 1076              	.LBB140:
 1077              		.loc 1 327 0
 1078 0330 0023     		movs	r3, #0
 1079              	@ 327 "../../os/hal/platforms/STM32/OTGv1/usb_lld.c" 1
ARM GAS  /tmp/ccdEZAv8.s 			page 20


 1080 0332 83F31188 		msr     BASEPRI, r3
 1081              	@ 0 "" 2
 1082              	.LVL129:
 1083              		.thumb
 1084 0336 89E7     		b	.L89
 1085              	.LVL130:
 1086              	.L78:
 1087              	.LBE140:
 1088              	.LBB141:
 1089              		.loc 1 311 0
 1090 0338 0846     		mov	r0, r1
 1091              	.LVL131:
 1092 033a D9B1     		cbz	r1, .L86
 1093              	.LVL132:
 1094 033c 2569     		ldr	r5, [r4, #16]
 1095              	.LVL133:
 1096              	.L85:
 1097              		.loc 1 313 0
 1098 033e 0020     		movs	r0, #0
 1099 0340 0246     		mov	r2, r0
 1100              	.LVL134:
 1101              	.L84:
 1102              		.loc 1 312 0
 1103 0342 A369     		ldr	r3, [r4, #24]
 1104 0344 13F801AB 		ldrb	sl, [r3], #1	@ zero_extendqisi2
 1105              		.loc 1 679 0
 1106 0348 D600     		lsls	r6, r2, #3
 1107              		.loc 1 313 0
 1108 034a AB42     		cmp	r3, r5
 1109              		.loc 1 312 0
 1110 034c A361     		str	r3, [r4, #24]
 1111              		.loc 1 314 0
 1112 034e 24BF     		itt	cs
 1113 0350 E368     		ldrcs	r3, [r4, #12]
 1114 0352 A361     		strcs	r3, [r4, #24]
 1115              		.loc 1 311 0
 1116 0354 0139     		subs	r1, r1, #1
 1117              	.LVL135:
 1118              		.loc 1 316 0
 1119 0356 02F10102 		add	r2, r2, #1
 1120              		.loc 1 311 0
 1121 035a 0CBF     		ite	eq
 1122 035c 0023     		moveq	r3, #0
 1123 035e 0123     		movne	r3, #1
 1124              		.loc 1 312 0
 1125 0360 0AFA06F6 		lsl	r6, sl, r6
 1126              		.loc 1 311 0
 1127 0364 032A     		cmp	r2, #3
 1128 0366 8CBF     		ite	hi
 1129 0368 0023     		movhi	r3, #0
 1130 036a 03F00103 		andls	r3, r3, #1
 1131              		.loc 1 312 0
 1132 036e 3043     		orrs	r0, r0, r6
 1133              	.LVL136:
 1134              		.loc 1 311 0
 1135 0370 002B     		cmp	r3, #0
 1136 0372 E6D1     		bne	.L84
ARM GAS  /tmp/ccdEZAv8.s 			page 21


 1137              	.LVL137:
 1138              	.L86:
 1139              		.loc 1 318 0
 1140 0374 CCF80000 		str	r0, [ip, #0]
 1141              	.LVL138:
 1142              	.LBE141:
 1143              		.loc 1 287 0
 1144 0378 0029     		cmp	r1, #0
 1145 037a 9FD1     		bne	.L88
 1146 037c C1E7     		b	.L156
 1147              	.LVL139:
 1148              	.L81:
 1149              	.LBB142:
 1150              		.loc 1 305 0
 1151 037e 0029     		cmp	r1, #0
 1152 0380 DDD1     		bne	.L85
 1153 0382 BEE7     		b	.L156
 1154              	.LVL140:
 1155              	.L161:
 1156 0384 0134     		adds	r4, r4, #1
 1157              	.LVL141:
 1158 0386 0494     		str	r4, [sp, #16]
 1159              	.LVL142:
 1160              	.L93:
 1161              		.loc 1 504 0
 1162 0388 0122     		movs	r2, #1
 1163 038a 79E7     		b	.L70
 1164              	.LBE142:
 1165              	.LBE143:
 1166              	.LBE144:
 1167              	.LBE145:
 1168              	.LBE148:
 1169              	.LBE114:
 1170              	.LBE149:
 1171              		.cfi_endproc
 1172              	.LFE136:
 1173              		.size	usb_lld_pump, .-usb_lld_pump
 1174 038c AFF30080 		.section	.text.otg_epin_handler,"ax",%progbits
 1175              		.align	2
 1176              		.p2align 4,,15
 1177              		.thumb
 1178              		.thumb_func
 1179              		.type	otg_epin_handler, %function
 1180              	otg_epin_handler:
 1181              	.LFB133:
 1182              		.loc 1 548 0
 1183              		.cfi_startproc
 1184              		@ args = 0, pretend = 0, frame = 0
 1185              		@ frame_needed = 0, uses_anonymous_args = 0
 1186              	.LVL143:
 1187 0000 F8B5     		push	{r3, r4, r5, r6, r7, lr}
 1188              	.LCFI4:
 1189              		.cfi_def_cfa_offset 24
 1190              		.cfi_offset 3, -24
 1191              		.cfi_offset 4, -20
 1192              		.cfi_offset 5, -16
 1193              		.cfi_offset 6, -12
ARM GAS  /tmp/ccdEZAv8.s 			page 22


 1194              		.cfi_offset 7, -8
 1195              		.cfi_offset 14, -4
 1196              		.loc 1 549 0
 1197 0002 C46B     		ldr	r4, [r0, #60]
 1198              	.LVL144:
 1199              		.loc 1 550 0
 1200 0004 04EB4113 		add	r3, r4, r1, lsl #5
 1201              		.loc 1 552 0
 1202 0008 4FF0FF32 		mov	r2, #-1
 1203              		.loc 1 550 0
 1204 000c D3F80869 		ldr	r6, [r3, #2312]
 1205              	.LVL145:
 1206              		.loc 1 552 0
 1207 0010 C3F80829 		str	r2, [r3, #2312]
 1208              		.loc 1 557 0
 1209 0014 F307     		lsls	r3, r6, #31
 1210              		.loc 1 548 0
 1211 0016 0546     		mov	r5, r0
 1212 0018 0F46     		mov	r7, r1
 1213              		.loc 1 557 0
 1214 001a 03D5     		bpl	.L166
 1215              		.loc 1 557 0 is_stmt 0 discriminator 1
 1216 001c D4F81038 		ldr	r3, [r4, #2064]
 1217 0020 DA07     		lsls	r2, r3, #31
 1218 0022 1FD4     		bmi	.L184
 1219              	.LVL146:
 1220              	.L166:
 1221              		.loc 1 561 0 is_stmt 1
 1222 0024 3306     		lsls	r3, r6, #24
 1223 0026 06D5     		bpl	.L165
 1224              		.loc 1 562 0 discriminator 1
 1225 0028 0122     		movs	r2, #1
 1226 002a D4F83438 		ldr	r3, [r4, #2100]
 1227 002e 02FA07F7 		lsl	r7, r2, r7
 1228              		.loc 1 561 0 discriminator 1
 1229 0032 1F42     		tst	r7, r3
 1230 0034 00D1     		bne	.L185
 1231              	.L165:
 1232 0036 F8BD     		pop	{r3, r4, r5, r6, r7, pc}
 1233              	.L185:
 1234              	.LBB154:
 1235              		.loc 1 564 0
 1236 0038 2023     		movs	r3, #32
 1237              	.LVL147:
 1238              	@ 564 "../../os/hal/platforms/STM32/OTGv1/usb_lld.c" 1
 1239 003a 83F31188 		msr     BASEPRI, r3
 1240              	@ 0 "" 2
 1241              	.LVL148:
 1242              		.thumb
 1243              	.LBE154:
 1244              		.loc 1 565 0
 1245 003e AB6C     		ldr	r3, [r5, #72]
 1246              	.LVL149:
 1247              		.loc 1 566 0
 1248 0040 D4F83428 		ldr	r2, [r4, #2100]
 1249              	.LBB155:
 1250              	.LBB156:
ARM GAS  /tmp/ccdEZAv8.s 			page 23


 1251              		.loc 1 126 0
 1252 0044 286D     		ldr	r0, [r5, #80]
 1253              	.LBE156:
 1254              	.LBE155:
 1255              		.loc 1 565 0
 1256 0046 3B43     		orrs	r3, r3, r7
 1257              		.loc 1 566 0
 1258 0048 22EA0707 		bic	r7, r2, r7
 1259              		.loc 1 565 0
 1260 004c AB64     		str	r3, [r5, #72]
 1261              		.loc 1 566 0
 1262 004e C4F83478 		str	r7, [r4, #2100]
 1263              	.LVL150:
 1264              	.LBB158:
 1265              	.LBB157:
 1266              		.loc 1 126 0
 1267 0052 18B1     		cbz	r0, .L168
 1268              		.loc 1 127 0
 1269 0054 FFF7FEFF 		bl	chSchReadyI
 1270              	.LVL151:
 1271              		.loc 1 128 0
 1272 0058 0023     		movs	r3, #0
 1273 005a 2B65     		str	r3, [r5, #80]
 1274              	.L168:
 1275              	.LBE157:
 1276              	.LBE158:
 1277              	.LBB159:
 1278              		.loc 1 568 0
 1279 005c 0023     		movs	r3, #0
 1280              	.LVL152:
 1281              	@ 568 "../../os/hal/platforms/STM32/OTGv1/usb_lld.c" 1
 1282 005e 83F31188 		msr     BASEPRI, r3
 1283              	@ 0 "" 2
 1284              	.LVL153:
 1285              		.thumb
 1286 0062 F8BD     		pop	{r3, r4, r5, r6, r7, pc}
 1287              	.LVL154:
 1288              	.L184:
 1289              	.LBE159:
 1290              		.loc 1 559 0
 1291 0064 0B1D     		adds	r3, r1, #4
 1292 0066 B0F80CE0 		ldrh	lr, [r0, #12]
 1293 006a 50F82330 		ldr	r3, [r0, r3, lsl #2]
 1294 006e 0122     		movs	r2, #1
 1295 0070 02FA01F2 		lsl	r2, r2, r1
 1296 0074 2EEA0202 		bic	r2, lr, r2
 1297 0078 8281     		strh	r2, [r0, #12]	@ movhi
 1298 007a 9B68     		ldr	r3, [r3, #8]
 1299 007c 9847     		blx	r3
 1300              	.LVL155:
 1301 007e D1E7     		b	.L166
 1302              		.cfi_endproc
 1303              	.LFE133:
 1304              		.size	otg_epin_handler, .-otg_epin_handler
 1305              		.section	.text.Vector14C,"ax",%progbits
 1306              		.align	2
 1307              		.p2align 4,,15
ARM GAS  /tmp/ccdEZAv8.s 			page 24


 1308              		.global	Vector14C
 1309              		.thumb
 1310              		.thumb_func
 1311              		.type	Vector14C, %function
 1312              	Vector14C:
 1313              	.LFB137:
 1314              		.loc 1 746 0
 1315              		.cfi_startproc
 1316              		@ args = 0, pretend = 0, frame = 0
 1317              		@ frame_needed = 0, uses_anonymous_args = 0
 1318              	.LVL156:
 1319 0000 70B5     		push	{r4, r5, r6, lr}
 1320              	.LCFI5:
 1321              		.cfi_def_cfa_offset 16
 1322              		.cfi_offset 4, -16
 1323              		.cfi_offset 5, -12
 1324              		.cfi_offset 6, -8
 1325              		.cfi_offset 14, -4
 1326              	.LBB166:
 1327              	.LBB167:
 1328              		.loc 1 607 0
 1329 0002 3E4E     		ldr	r6, .L258
 1330 0004 F56B     		ldr	r5, [r6, #60]
 1331              	.LVL157:
 1332              		.loc 1 610 0
 1333 0006 6B69     		ldr	r3, [r5, #20]
 1334 0008 AC69     		ldr	r4, [r5, #24]
 1335 000a 1C40     		ands	r4, r4, r3
 1336              	.LVL158:
 1337              		.loc 1 614 0
 1338 000c E104     		lsls	r1, r4, #19
 1339              		.loc 1 611 0
 1340 000e 6C61     		str	r4, [r5, #20]
 1341              		.loc 1 614 0
 1342 0010 2BD4     		bmi	.L248
 1343              	.L188:
 1344              		.loc 1 620 0
 1345 0012 A204     		lsls	r2, r4, #18
 1346              		.loc 1 621 0
 1347 0014 48BF     		it	mi
 1348 0016 D5F80838 		ldrmi	r3, [r5, #2056]
 1349              		.loc 1 625 0
 1350 001a 2307     		lsls	r3, r4, #28
 1351 001c 04D5     		bpl	.L191
 1352              		.loc 1 626 0
 1353 001e 7368     		ldr	r3, [r6, #4]
 1354 0020 DB68     		ldr	r3, [r3, #12]
 1355 0022 0BB1     		cbz	r3, .L191
 1356 0024 3548     		ldr	r0, .L258
 1357 0026 9847     		blx	r3
 1358              	.LVL159:
 1359              	.L191:
 1360              		.loc 1 630 0
 1361 0028 E006     		lsls	r0, r4, #27
 1362 002a 29D4     		bmi	.L249
 1363              	.LVL160:
 1364              	.L192:
ARM GAS  /tmp/ccdEZAv8.s 			page 25


 1365              		.loc 1 641 0
 1366 002c 6103     		lsls	r1, r4, #13
 1367              		.loc 1 640 0
 1368 002e D5F81858 		ldr	r5, [r5, #2072]
 1369              	.LVL161:
 1370              		.loc 1 641 0
 1371 0032 07D5     		bpl	.L195
 1372              		.loc 1 642 0
 1373 0034 EA07     		lsls	r2, r5, #31
 1374 0036 49D4     		bmi	.L250
 1375              		.loc 1 644 0
 1376 0038 AB07     		lsls	r3, r5, #30
 1377              	.LVL162:
 1378 003a 4DD4     		bmi	.L251
 1379              	.L197:
 1380              		.loc 1 646 0
 1381 003c 6807     		lsls	r0, r5, #29
 1382 003e 51D4     		bmi	.L252
 1383              	.L198:
 1384              		.loc 1 648 0
 1385 0040 2907     		lsls	r1, r5, #28
 1386 0042 55D4     		bmi	.L253
 1387              	.LVL163:
 1388              	.L195:
 1389              		.loc 1 657 0
 1390 0044 2203     		lsls	r2, r4, #12
 1391 0046 07D5     		bpl	.L201
 1392              		.loc 1 658 0
 1393 0048 EB03     		lsls	r3, r5, #15
 1394              	.LVL164:
 1395 004a 32D4     		bmi	.L254
 1396              		.loc 1 660 0
 1397 004c A803     		lsls	r0, r5, #14
 1398 004e 36D4     		bmi	.L255
 1399              	.L203:
 1400              		.loc 1 662 0
 1401 0050 6903     		lsls	r1, r5, #13
 1402 0052 27D4     		bmi	.L256
 1403              	.L204:
 1404              		.loc 1 664 0
 1405 0054 2A03     		lsls	r2, r5, #12
 1406 0056 03D4     		bmi	.L257
 1407              	.LVL165:
 1408              	.L201:
 1409              	.LBE167:
 1410              	.LBE166:
 1411              		.loc 1 753 0
 1412 0058 BDE87040 		pop	{r4, r5, r6, lr}
 1413              		.loc 1 752 0
 1414 005c FFF7FEBF 		b	_port_irq_epilogue
 1415              	.LVL166:
 1416              	.L257:
 1417              	.LBB175:
 1418              	.LBB174:
 1419              		.loc 1 665 0
 1420 0060 2648     		ldr	r0, .L258
 1421 0062 0321     		movs	r1, #3
ARM GAS  /tmp/ccdEZAv8.s 			page 26


 1422 0064 FFF7FEFF 		bl	otg_epout_handler
 1423              	.LVL167:
 1424 0068 F6E7     		b	.L201
 1425              	.LVL168:
 1426              	.L248:
 1427              		.loc 1 615 0
 1428 006a 3046     		mov	r0, r6
 1429 006c FFF7FEFF 		bl	_usb_reset
 1430              	.LVL169:
 1431              		.loc 1 616 0
 1432 0070 7368     		ldr	r3, [r6, #4]
 1433 0072 1B68     		ldr	r3, [r3, #0]
 1434 0074 002B     		cmp	r3, #0
 1435 0076 CCD0     		beq	.L188
 1436 0078 3046     		mov	r0, r6
 1437 007a 0021     		movs	r1, #0
 1438 007c 9847     		blx	r3
 1439              	.LVL170:
 1440 007e C8E7     		b	.L188
 1441              	.L249:
 1442              	.LBB168:
 1443              		.loc 1 633 0
 1444 0080 2023     		movs	r3, #32
 1445              	.LVL171:
 1446              	@ 633 "../../os/hal/platforms/STM32/OTGv1/usb_lld.c" 1
 1447 0082 83F31188 		msr     BASEPRI, r3
 1448              	@ 0 "" 2
 1449              	.LVL172:
 1450              		.thumb
 1451              	.LBE168:
 1452              		.loc 1 634 0
 1453 0086 AB69     		ldr	r3, [r5, #24]
 1454              	.LVL173:
 1455              	.LBB169:
 1456              	.LBB170:
 1457              		.loc 1 126 0
 1458 0088 306D     		ldr	r0, [r6, #80]
 1459              	.LBE170:
 1460              	.LBE169:
 1461              		.loc 1 634 0
 1462 008a 23F01003 		bic	r3, r3, #16
 1463 008e AB61     		str	r3, [r5, #24]
 1464              	.LVL174:
 1465              	.LBB172:
 1466              	.LBB171:
 1467              		.loc 1 126 0
 1468 0090 20B1     		cbz	r0, .L193
 1469              		.loc 1 127 0
 1470 0092 FFF7FEFF 		bl	chSchReadyI
 1471              	.LVL175:
 1472              		.loc 1 128 0
 1473 0096 194B     		ldr	r3, .L258
 1474 0098 0022     		movs	r2, #0
 1475 009a 1A65     		str	r2, [r3, #80]
 1476              	.L193:
 1477              	.LBE171:
 1478              	.LBE172:
ARM GAS  /tmp/ccdEZAv8.s 			page 27


 1479              	.LBB173:
 1480              		.loc 1 636 0
 1481 009c 0023     		movs	r3, #0
 1482              	@ 636 "../../os/hal/platforms/STM32/OTGv1/usb_lld.c" 1
 1483 009e 83F31188 		msr     BASEPRI, r3
 1484              	@ 0 "" 2
 1485              	.LVL176:
 1486              		.thumb
 1487 00a2 C3E7     		b	.L192
 1488              	.LVL177:
 1489              	.L256:
 1490              	.LBE173:
 1491              		.loc 1 663 0
 1492 00a4 0221     		movs	r1, #2
 1493 00a6 1548     		ldr	r0, .L258
 1494 00a8 FFF7FEFF 		bl	otg_epout_handler
 1495              	.LVL178:
 1496              		.loc 1 664 0
 1497 00ac 2A03     		lsls	r2, r5, #12
 1498 00ae D3D5     		bpl	.L201
 1499 00b0 D6E7     		b	.L257
 1500              	.L254:
 1501              		.loc 1 659 0
 1502 00b2 1248     		ldr	r0, .L258
 1503 00b4 0021     		movs	r1, #0
 1504 00b6 FFF7FEFF 		bl	otg_epout_handler
 1505              	.LVL179:
 1506              		.loc 1 660 0
 1507 00ba A803     		lsls	r0, r5, #14
 1508 00bc C8D5     		bpl	.L203
 1509              	.L255:
 1510              		.loc 1 661 0
 1511 00be 0121     		movs	r1, #1
 1512 00c0 0E48     		ldr	r0, .L258
 1513 00c2 FFF7FEFF 		bl	otg_epout_handler
 1514              	.LVL180:
 1515              		.loc 1 662 0
 1516 00c6 6903     		lsls	r1, r5, #13
 1517 00c8 C4D5     		bpl	.L204
 1518 00ca EBE7     		b	.L256
 1519              	.LVL181:
 1520              	.L250:
 1521              		.loc 1 643 0
 1522 00cc 0021     		movs	r1, #0
 1523 00ce 0B48     		ldr	r0, .L258
 1524 00d0 FFF7FEFF 		bl	otg_epin_handler
 1525              	.LVL182:
 1526              		.loc 1 644 0
 1527 00d4 AB07     		lsls	r3, r5, #30
 1528 00d6 B1D5     		bpl	.L197
 1529              	.L251:
 1530              		.loc 1 645 0
 1531 00d8 0848     		ldr	r0, .L258
 1532 00da 0121     		movs	r1, #1
 1533 00dc FFF7FEFF 		bl	otg_epin_handler
 1534              	.LVL183:
 1535              		.loc 1 646 0
ARM GAS  /tmp/ccdEZAv8.s 			page 28


 1536 00e0 6807     		lsls	r0, r5, #29
 1537 00e2 ADD5     		bpl	.L198
 1538              	.L252:
 1539              		.loc 1 647 0
 1540 00e4 0221     		movs	r1, #2
 1541 00e6 0548     		ldr	r0, .L258
 1542 00e8 FFF7FEFF 		bl	otg_epin_handler
 1543              	.LVL184:
 1544              		.loc 1 648 0
 1545 00ec 2907     		lsls	r1, r5, #28
 1546 00ee A9D5     		bpl	.L195
 1547              	.L253:
 1548              		.loc 1 649 0
 1549 00f0 0248     		ldr	r0, .L258
 1550 00f2 0321     		movs	r1, #3
 1551 00f4 FFF7FEFF 		bl	otg_epin_handler
 1552              	.LVL185:
 1553 00f8 A4E7     		b	.L195
 1554              	.L259:
 1555 00fa 00BF     		.align	2
 1556              	.L258:
 1557 00fc 00000000 		.word	.LANCHOR0
 1558              	.LBE174:
 1559              	.LBE175:
 1560              		.cfi_endproc
 1561              	.LFE137:
 1562              		.size	Vector14C, .-Vector14C
 1563              		.section	.text.usb_lld_init,"ax",%progbits
 1564              		.align	2
 1565              		.p2align 4,,15
 1566              		.global	usb_lld_init
 1567              		.thumb
 1568              		.thumb_func
 1569              		.type	usb_lld_init, %function
 1570              	usb_lld_init:
 1571              	.LFB138:
 1572              		.loc 1 784 0
 1573              		.cfi_startproc
 1574              		@ args = 0, pretend = 0, frame = 0
 1575              		@ frame_needed = 0, uses_anonymous_args = 0
 1576 0000 10B5     		push	{r4, lr}
 1577              	.LCFI6:
 1578              		.cfi_def_cfa_offset 8
 1579              		.cfi_offset 4, -8
 1580              		.cfi_offset 14, -4
 1581              		.loc 1 788 0
 1582 0002 40F20004 		movw	r4, #:lower16:.LANCHOR0
 1583 0006 C0F20004 		movt	r4, #:upper16:.LANCHOR0
 1584 000a 2046     		mov	r0, r4
 1585 000c FFF7FEFF 		bl	usbObjectInit
 1586              	.LVL186:
 1587              		.loc 1 789 0
 1588 0010 0023     		movs	r3, #0
 1589 0012 E364     		str	r3, [r4, #76]
 1590              		.loc 1 790 0
 1591 0014 2365     		str	r3, [r4, #80]
 1592              		.loc 1 791 0
ARM GAS  /tmp/ccdEZAv8.s 			page 29


 1593 0016 4FF0A043 		mov	r3, #1342177280
 1594 001a E363     		str	r3, [r4, #60]
 1595              		.loc 1 792 0
 1596 001c 40F20003 		movw	r3, #:lower16:.LANCHOR1
 1597 0020 C0F20003 		movt	r3, #:upper16:.LANCHOR1
 1598 0024 2364     		str	r3, [r4, #64]
 1599 0026 10BD     		pop	{r4, pc}
 1600              		.cfi_endproc
 1601              	.LFE138:
 1602              		.size	usb_lld_init, .-usb_lld_init
 1603 0028 AFF30080 		.section	.text.usb_lld_start,"ax",%progbits
 1603      AFF30080 
 1604              		.align	2
 1605              		.p2align 4,,15
 1606              		.global	usb_lld_start
 1607              		.thumb
 1608              		.thumb_func
 1609              		.type	usb_lld_start, %function
 1610              	usb_lld_start:
 1611              	.LFB139:
 1612              		.loc 1 842 0
 1613              		.cfi_startproc
 1614              		@ args = 0, pretend = 0, frame = 0
 1615              		@ frame_needed = 0, uses_anonymous_args = 0
 1616              	.LVL187:
 1617 0000 70B5     		push	{r4, r5, r6, lr}
 1618              	.LCFI7:
 1619              		.cfi_def_cfa_offset 16
 1620              		.cfi_offset 4, -16
 1621              		.cfi_offset 5, -12
 1622              		.cfi_offset 6, -8
 1623              		.cfi_offset 14, -4
 1624              		.loc 1 845 0
 1625 0002 0378     		ldrb	r3, [r0, #0]	@ zero_extendqisi2
 1626              		.loc 1 843 0
 1627 0004 C56B     		ldr	r5, [r0, #60]
 1628              	.LVL188:
 1629              		.loc 1 845 0
 1630 0006 012B     		cmp	r3, #1
 1631              		.loc 1 842 0
 1632 0008 82B0     		sub	sp, sp, #8
 1633              	.LCFI8:
 1634              		.cfi_def_cfa_offset 24
 1635              		.loc 1 842 0
 1636 000a 0646     		mov	r6, r0
 1637              		.loc 1 845 0
 1638 000c 01D0     		beq	.L271
 1639              	.LVL189:
 1640              	.L261:
 1641              		.loc 1 919 0
 1642 000e 02B0     		add	sp, sp, #8
 1643 0010 70BD     		pop	{r4, r5, r6, pc}
 1644              	.LVL190:
 1645              	.L271:
 1646              		.loc 1 848 0
 1647 0012 304B     		ldr	r3, .L275
 1648 0014 9842     		cmp	r0, r3
ARM GAS  /tmp/ccdEZAv8.s 			page 30


 1649 0016 49D0     		beq	.L272
 1650              	.LVL191:
 1651              	.L263:
 1652              		.loc 1 873 0
 1653 0018 F36C     		ldr	r3, [r6, #76]
 1654              		.loc 1 872 0
 1655 001a 0022     		movs	r2, #0
 1656 001c B264     		str	r2, [r6, #72]
 1657              		.loc 1 873 0
 1658 001e 002B     		cmp	r3, #0
 1659 0020 38D0     		beq	.L273
 1660              	.L264:
 1661              		.loc 1 883 0
 1662 0022 4FF4A252 		mov	r2, #5184
 1663              		.loc 1 886 0
 1664 0026 0323     		movs	r3, #3
 1665 0028 C0F22023 		movt	r3, 544
 1666              		.loc 1 883 0
 1667 002c C4F20002 		movt	r2, 16384
 1668              	.LBB178:
 1669              	.LBB179:
 1670              		.loc 1 133 0
 1671 0030 F46B     		ldr	r4, [r6, #60]
 1672              	.LBE179:
 1673              	.LBE178:
 1674              		.loc 1 883 0
 1675 0032 EA60     		str	r2, [r5, #12]
 1676              		.loc 1 886 0
 1677 0034 C5F80038 		str	r3, [r5, #2048]
 1678              		.loc 1 889 0
 1679 0038 0023     		movs	r3, #0
 1680 003a C5F8003E 		str	r3, [r5, #3584]
 1681              		.loc 1 892 0
 1682 003e 4FF45023 		mov	r3, #851968
 1683 0042 AB63     		str	r3, [r5, #56]
 1684              	.LVL192:
 1685              	.LBB181:
 1686              	.LBB180:
 1687              		.loc 1 136 0
 1688 0044 0123     		movs	r3, #1
 1689 0046 2361     		str	r3, [r4, #16]
 1690              	.L265:
 1691              		.loc 1 137 0
 1692 0048 2369     		ldr	r3, [r4, #16]
 1693 004a D807     		lsls	r0, r3, #31
 1694 004c FCD4     		bmi	.L265
 1695              		.loc 1 139 0
 1696 004e 0C20     		movs	r0, #12
 1697 0050 FFF7FEFF 		bl	halPolledDelay
 1698              	.LVL193:
 1699              	.L266:
 1700              		.loc 1 141 0
 1701 0054 2369     		ldr	r3, [r4, #16]
 1702 0056 002B     		cmp	r3, #0
 1703 0058 FCDA     		bge	.L266
 1704              	.LBE180:
 1705              	.LBE181:
ARM GAS  /tmp/ccdEZAv8.s 			page 31


 1706              		.loc 1 898 0
 1707 005a 0024     		movs	r4, #0
 1708              	.LVL194:
 1709 005c AC60     		str	r4, [r5, #8]
 1710              		.loc 1 901 0
 1711 005e 3046     		mov	r0, r6
 1712 0060 FFF7FEFF 		bl	otg_disable_ep
 1713              	.LVL195:
 1714              		.loc 1 908 0
 1715 0064 7368     		ldr	r3, [r6, #4]
 1716              		.loc 1 905 0
 1717 0066 C5F81048 		str	r4, [r5, #2064]
 1718              		.loc 1 908 0
 1719 006a DB68     		ldr	r3, [r3, #12]
 1720              		.loc 1 906 0
 1721 006c C5F81448 		str	r4, [r5, #2068]
 1722              		.loc 1 907 0
 1723 0070 C5F81C48 		str	r4, [r5, #2076]
 1724              		.loc 1 908 0
 1725 0074 53B1     		cbz	r3, .L274
 1726              		.loc 1 912 0
 1727 0076 43F20803 		movw	r3, #12296
 1728 007a AB61     		str	r3, [r5, #24]
 1729              	.L268:
 1730              		.loc 1 914 0
 1731 007c 4FF0FF33 		mov	r3, #-1
 1732 0080 6B61     		str	r3, [r5, #20]
 1733              		.loc 1 917 0
 1734 0082 AB68     		ldr	r3, [r5, #8]
 1735 0084 43F00103 		orr	r3, r3, #1
 1736 0088 AB60     		str	r3, [r5, #8]
 1737 008a C0E7     		b	.L261
 1738              	.L274:
 1739              		.loc 1 909 0
 1740 008c 4FF44053 		mov	r3, #12288
 1741 0090 AB61     		str	r3, [r5, #24]
 1742 0092 F3E7     		b	.L268
 1743              	.LVL196:
 1744              	.L273:
 1745              		.loc 1 874 0
 1746 0094 0096     		str	r6, [sp, #0]
 1747 0096 06F15800 		add	r0, r6, #88
 1748 009a 4FF49871 		mov	r1, #304
 1749 009e 0222     		movs	r2, #2
 1750 00a0 0D4B     		ldr	r3, .L275+4
 1751 00a2 FFF7FEFF 		bl	chThdCreateI
 1752              	.LVL197:
 1753 00a6 3065     		str	r0, [r6, #80]
 1754 00a8 F064     		str	r0, [r6, #76]
 1755 00aa BAE7     		b	.L264
 1756              	.LVL198:
 1757              	.L272:
 1758              		.loc 1 850 0
 1759 00ac 4FF46053 		mov	r3, #14336
 1760 00b0 C4F20203 		movt	r3, 16386
 1761              		.loc 1 854 0
 1762 00b4 4320     		movs	r0, #67
ARM GAS  /tmp/ccdEZAv8.s 			page 32


 1763              	.LVL199:
 1764              		.loc 1 850 0
 1765 00b6 5A6B     		ldr	r2, [r3, #52]
 1766 00b8 42F08002 		orr	r2, r2, #128
 1767 00bc 5A63     		str	r2, [r3, #52]
 1768              		.loc 1 851 0
 1769 00be 5A69     		ldr	r2, [r3, #20]
 1770 00c0 42F08002 		orr	r2, r2, #128
 1771 00c4 5A61     		str	r2, [r3, #20]
 1772 00c6 0022     		movs	r2, #0
 1773 00c8 5A61     		str	r2, [r3, #20]
 1774              		.loc 1 854 0
 1775 00ca E021     		movs	r1, #224
 1776 00cc FFF7FEFF 		bl	nvicEnableVector
 1777              	.LVL200:
 1778 00d0 A2E7     		b	.L263
 1779              	.L276:
 1780 00d2 00BF     		.align	2
 1781              	.L275:
 1782 00d4 00000000 		.word	.LANCHOR0
 1783 00d8 00000000 		.word	usb_lld_pump
 1784              		.cfi_endproc
 1785              	.LFE139:
 1786              		.size	usb_lld_start, .-usb_lld_start
 1787 00dc AFF30080 		.section	.text.usb_lld_stop,"ax",%progbits
 1788              		.align	2
 1789              		.p2align 4,,15
 1790              		.global	usb_lld_stop
 1791              		.thumb
 1792              		.thumb_func
 1793              		.type	usb_lld_stop, %function
 1794              	usb_lld_stop:
 1795              	.LFB140:
 1796              		.loc 1 928 0
 1797              		.cfi_startproc
 1798              		@ args = 0, pretend = 0, frame = 0
 1799              		@ frame_needed = 0, uses_anonymous_args = 0
 1800              		@ link register save eliminated.
 1801              	.LVL201:
 1802              		.loc 1 932 0
 1803 0000 0378     		ldrb	r3, [r0, #0]	@ zero_extendqisi2
 1804              		.loc 1 929 0
 1805 0002 C26B     		ldr	r2, [r0, #60]
 1806              	.LVL202:
 1807              		.loc 1 932 0
 1808 0004 012B     		cmp	r3, #1
 1809 0006 05D0     		beq	.L277
 1810              		.loc 1 934 0
 1811 0008 0023     		movs	r3, #0
 1812 000a 8364     		str	r3, [r0, #72]
 1813              		.loc 1 936 0
 1814 000c C2F81C38 		str	r3, [r2, #2076]
 1815              		.loc 1 937 0
 1816 0010 9360     		str	r3, [r2, #8]
 1817              		.loc 1 938 0
 1818 0012 9363     		str	r3, [r2, #56]
 1819              	.L277:
ARM GAS  /tmp/ccdEZAv8.s 			page 33


 1820 0014 7047     		bx	lr
 1821              		.cfi_endproc
 1822              	.LFE140:
 1823              		.size	usb_lld_stop, .-usb_lld_stop
 1824 0016 00BFAFF3 		.section	.text.usb_lld_reset,"ax",%progbits
 1824      0080AFF3 
 1824      0080
 1825              		.align	2
 1826              		.p2align 4,,15
 1827              		.global	usb_lld_reset
 1828              		.thumb
 1829              		.thumb_func
 1830              		.type	usb_lld_reset, %function
 1831              	usb_lld_reset:
 1832              	.LFB141:
 1833              		.loc 1 963 0
 1834              		.cfi_startproc
 1835              		@ args = 0, pretend = 0, frame = 0
 1836              		@ frame_needed = 0, uses_anonymous_args = 0
 1837              	.LVL203:
 1838 0000 2DE9F041 		push	{r4, r5, r6, r7, r8, lr}
 1839              	.LCFI9:
 1840              		.cfi_def_cfa_offset 24
 1841              		.cfi_offset 4, -24
 1842              		.cfi_offset 5, -20
 1843              		.cfi_offset 6, -16
 1844              		.cfi_offset 7, -12
 1845              		.cfi_offset 8, -8
 1846              		.cfi_offset 14, -4
 1847              		.loc 1 963 0
 1848 0004 8046     		mov	r8, r0
 1849              		.loc 1 968 0
 1850 0006 0021     		movs	r1, #0
 1851              		.loc 1 965 0
 1852 0008 C46B     		ldr	r4, [r0, #60]
 1853              	.LVL204:
 1854              		.loc 1 968 0
 1855 000a FFF7FEFF 		bl	otg_txfifo_flush
 1856              	.LVL205:
 1857 000e D8F840E0 		ldr	lr, [r8, #64]
 1858 0012 DEF80800 		ldr	r0, [lr, #8]
 1859              		.loc 1 971 0
 1860 0016 0023     		movs	r3, #0
 1861              		.loc 1 972 0
 1862 0018 4FF00065 		mov	r5, #134217728
 1863              		.loc 1 974 0
 1864 001c FF21     		movs	r1, #255
 1865              	.LVL206:
 1866              	.L283:
 1867              		.loc 1 972 0 discriminator 2
 1868 001e 03F14807 		add	r7, r3, #72
 1869              		.loc 1 973 0 discriminator 2
 1870 0022 03F15806 		add	r6, r3, #88
 1871              		.loc 1 974 0 discriminator 2
 1872 0026 04EB4312 		add	r2, r4, r3, lsl #5
 1873              		.loc 1 972 0 discriminator 2
 1874 002a 7F01     		lsls	r7, r7, #5
ARM GAS  /tmp/ccdEZAv8.s 			page 34


 1875              		.loc 1 973 0 discriminator 2
 1876 002c 7601     		lsls	r6, r6, #5
 1877              		.loc 1 971 0 discriminator 2
 1878 002e 0133     		adds	r3, r3, #1
 1879              	.LVL207:
 1880 0030 8342     		cmp	r3, r0
 1881              		.loc 1 972 0 discriminator 2
 1882 0032 E551     		str	r5, [r4, r7]
 1883              		.loc 1 973 0 discriminator 2
 1884 0034 A551     		str	r5, [r4, r6]
 1885              		.loc 1 974 0 discriminator 2
 1886 0036 C2F80819 		str	r1, [r2, #2312]
 1887              		.loc 1 975 0 discriminator 2
 1888 003a C2F8081B 		str	r1, [r2, #2824]
 1889              		.loc 1 971 0 discriminator 2
 1890 003e EED9     		bls	.L283
 1891              	.LBB188:
 1892              	.LBB189:
 1893              		.loc 1 211 0
 1894 0040 DEF80030 		ldr	r3, [lr, #0]
 1895              	.LVL208:
 1896              	.LBE189:
 1897              	.LBE188:
 1898              	.LBB191:
 1899              	.LBB192:
 1900              		.loc 1 183 0
 1901 0044 D8F83C20 		ldr	r2, [r8, #60]
 1902              	.LBE192:
 1903              	.LBE191:
 1904              		.loc 1 979 0
 1905 0048 4FF0FF31 		mov	r1, #-1
 1906 004c C4F81818 		str	r1, [r4, #2072]
 1907              		.loc 1 980 0
 1908 0050 4FF00111 		mov	r1, #65537
 1909 0054 C4F81C18 		str	r1, [r4, #2076]
 1910              	.LVL209:
 1911              	.LBB194:
 1912              	.LBB190:
 1913              		.loc 1 211 0
 1914 0058 C8F84430 		str	r3, [r8, #68]
 1915              	.LBE190:
 1916              	.LBE194:
 1917              		.loc 1 986 0
 1918 005c 6362     		str	r3, [r4, #36]
 1919              	.LVL210:
 1920              	.LBB195:
 1921              	.LBB193:
 1922              		.loc 1 185 0
 1923 005e 1023     		movs	r3, #16
 1924 0060 1361     		str	r3, [r2, #16]
 1925              	.L284:
 1926              		.loc 1 186 0
 1927 0062 1369     		ldr	r3, [r2, #16]
 1928 0064 13F01005 		ands	r5, r3, #16
 1929 0068 FBD1     		bne	.L284
 1930              		.loc 1 189 0
 1931 006a 0C20     		movs	r0, #12
ARM GAS  /tmp/ccdEZAv8.s 			page 35


 1932 006c FFF7FEFF 		bl	halPolledDelay
 1933              	.LVL211:
 1934              	.LBE193:
 1935              	.LBE195:
 1936              		.loc 1 990 0
 1937 0070 D4F80038 		ldr	r3, [r4, #2048]
 1938              	.LBB196:
 1939              	.LBB197:
 1940              		.loc 1 225 0
 1941 0074 D8F84410 		ldr	r1, [r8, #68]
 1942              	.LBE197:
 1943              	.LBE196:
 1944              		.loc 1 990 0
 1945 0078 23F4FE63 		bic	r3, r3, #2032
 1946 007c C4F80038 		str	r3, [r4, #2048]
 1947              		.loc 1 993 0
 1948 0080 A669     		ldr	r6, [r4, #24]
 1949 0082 46F44026 		orr	r6, r6, #786432
 1950              		.loc 1 994 0
 1951 0086 0922     		movs	r2, #9
 1952              		.loc 1 993 0
 1953 0088 46F01006 		orr	r6, r6, #16
 1954 008c A661     		str	r6, [r4, #24]
 1955              		.loc 1 1000 0
 1956 008e 48F24003 		movw	r3, #32832
 1957              		.loc 1 994 0
 1958 0092 C4F81028 		str	r2, [r4, #2064]
 1959              		.loc 1 995 0
 1960 0096 C4F81428 		str	r2, [r4, #2068]
 1961              		.loc 1 998 0
 1962 009a 0B4A     		ldr	r2, .L287
 1963              		.loc 1 1000 0
 1964 009c C1F20003 		movt	r3, 4096
 1965              	.LBB200:
 1966              	.LBB198:
 1967              		.loc 1 226 0
 1968 00a0 01F11000 		add	r0, r1, #16
 1969              	.LBE198:
 1970              	.LBE200:
 1971              		.loc 1 1005 0
 1972 00a4 41F48011 		orr	r1, r1, #1048576
 1973              		.loc 1 998 0
 1974 00a8 C8F81020 		str	r2, [r8, #16]
 1975              		.loc 1 999 0
 1976 00ac C4F8105B 		str	r5, [r4, #2832]
 1977              		.loc 1 1000 0
 1978 00b0 C4F8003B 		str	r3, [r4, #2816]
 1979              		.loc 1 1002 0
 1980 00b4 C4F81059 		str	r5, [r4, #2320]
 1981              		.loc 1 1003 0
 1982 00b8 C4F80039 		str	r3, [r4, #2304]
 1983              	.LVL212:
 1984              	.LBB201:
 1985              	.LBB199:
 1986              		.loc 1 226 0
 1987 00bc C8F84400 		str	r0, [r8, #68]
 1988              	.LBE199:
ARM GAS  /tmp/ccdEZAv8.s 			page 36


 1989              	.LBE201:
 1990              		.loc 1 1005 0
 1991 00c0 A162     		str	r1, [r4, #40]
 1992 00c2 BDE8F081 		pop	{r4, r5, r6, r7, r8, pc}
 1993              	.L288:
 1994 00c6 00BF     		.align	2
 1995              	.L287:
 1996 00c8 00000000 		.word	.LANCHOR2
 1997              		.cfi_endproc
 1998              	.LFE141:
 1999              		.size	usb_lld_reset, .-usb_lld_reset
 2000 00cc AFF30080 		.section	.text.usb_lld_set_address,"ax",%progbits
 2001              		.align	2
 2002              		.p2align 4,,15
 2003              		.global	usb_lld_set_address
 2004              		.thumb
 2005              		.thumb_func
 2006              		.type	usb_lld_set_address, %function
 2007              	usb_lld_set_address:
 2008              	.LFB142:
 2009              		.loc 1 1017 0
 2010              		.cfi_startproc
 2011              		@ args = 0, pretend = 0, frame = 0
 2012              		@ frame_needed = 0, uses_anonymous_args = 0
 2013              		@ link register save eliminated.
 2014              	.LVL213:
 2015              		.loc 1 1018 0
 2016 0000 C36B     		ldr	r3, [r0, #60]
 2017              	.LVL214:
 2018              		.loc 1 1020 0
 2019 0002 90F83A10 		ldrb	r1, [r0, #58]	@ zero_extendqisi2
 2020 0006 D3F80028 		ldr	r2, [r3, #2048]
 2021 000a 22F4FE62 		bic	r2, r2, #2032
 2022 000e 42EA0112 		orr	r2, r2, r1, lsl #4
 2023 0012 C3F80028 		str	r2, [r3, #2048]
 2024 0016 7047     		bx	lr
 2025              		.cfi_endproc
 2026              	.LFE142:
 2027              		.size	usb_lld_set_address, .-usb_lld_set_address
 2028 0018 AFF30080 		.section	.text.usb_lld_init_endpoint,"ax",%progbits
 2028      AFF30080 
 2029              		.align	2
 2030              		.p2align 4,,15
 2031              		.global	usb_lld_init_endpoint
 2032              		.thumb
 2033              		.thumb_func
 2034              		.type	usb_lld_init_endpoint, %function
 2035              	usb_lld_init_endpoint:
 2036              	.LFB143:
 2037              		.loc 1 1031 0
 2038              		.cfi_startproc
 2039              		@ args = 0, pretend = 0, frame = 0
 2040              		@ frame_needed = 0, uses_anonymous_args = 0
 2041              	.LVL215:
 2042 0000 2DE9F041 		push	{r4, r5, r6, r7, r8, lr}
 2043              	.LCFI10:
 2044              		.cfi_def_cfa_offset 24
ARM GAS  /tmp/ccdEZAv8.s 			page 37


 2045              		.cfi_offset 4, -24
 2046              		.cfi_offset 5, -20
 2047              		.cfi_offset 6, -16
 2048              		.cfi_offset 7, -12
 2049              		.cfi_offset 8, -8
 2050              		.cfi_offset 14, -4
 2051              		.loc 1 1036 0
 2052 0004 0F1D     		adds	r7, r1, #4
 2053              		.loc 1 1044 0
 2054 0006 4FF40048 		mov	r8, #32768
 2055              		.loc 1 1036 0
 2056 000a 50F82730 		ldr	r3, [r0, r7, lsl #2]
 2057              		.loc 1 1033 0
 2058 000e C46B     		ldr	r4, [r0, #60]
 2059              	.LVL216:
 2060              		.loc 1 1036 0
 2061 0010 1A68     		ldr	r2, [r3, #0]
 2062 0012 02F00302 		and	r2, r2, #3
 2063 0016 022A     		cmp	r2, #2
 2064              		.loc 1 1031 0
 2065 0018 0D46     		mov	r5, r1
 2066 001a 0646     		mov	r6, r0
 2067              		.loc 1 1044 0
 2068 001c 08BF     		it	eq
 2069 001e C1F20808 		movteq	r8, 4104
 2070              		.loc 1 1036 0
 2071 0022 0CD0     		beq	.L292
 2072 0024 032A     		cmp	r2, #3
 2073              		.loc 1 1047 0
 2074 0026 08BF     		it	eq
 2075 0028 C1F20C08 		movteq	r8, 4108
 2076              		.loc 1 1036 0
 2077 002c 07D0     		beq	.L292
 2078              		.loc 1 1038 0
 2079 002e 4146     		mov	r1, r8
 2080              	.LVL217:
 2081 0030 C1F20001 		movt	r1, 4096
 2082 0034 C1F20408 		movt	r8, 4100
 2083 0038 012A     		cmp	r2, #1
 2084 003a 18BF     		it	ne
 2085 003c 8846     		movne	r8, r1
 2086              	.L292:
 2087              	.LVL218:
 2088              		.loc 1 1054 0
 2089 003e 6A01     		lsls	r2, r5, #5
 2090 0040 A018     		adds	r0, r4, r2
 2091              	.LVL219:
 2092 0042 0021     		movs	r1, #0
 2093 0044 C0F8101B 		str	r1, [r0, #2832]
 2094              		.loc 1 1055 0
 2095 0048 D968     		ldr	r1, [r3, #12]
 2096 004a 0029     		cmp	r1, #0
 2097 004c 41D0     		beq	.L295
 2098              		.loc 1 1056 0
 2099 004e 588A     		ldrh	r0, [r3, #18]
 2100 0050 05F15801 		add	r1, r5, #88
 2101 0054 4901     		lsls	r1, r1, #5
ARM GAS  /tmp/ccdEZAv8.s 			page 38


 2102 0056 48EA0000 		orr	r0, r8, r0
 2103 005a 6050     		str	r0, [r4, r1]
 2104              		.loc 1 1057 0
 2105 005c 4FF0010E 		mov	lr, #1
 2106 0060 D4F81C08 		ldr	r0, [r4, #2076]
 2107 0064 05F11001 		add	r1, r5, #16
 2108 0068 0EFA01F1 		lsl	r1, lr, r1
 2109 006c 0143     		orrs	r1, r1, r0
 2110 006e C4F81C18 		str	r1, [r4, #2076]
 2111              	.L296:
 2112              		.loc 1 1065 0
 2113 0072 A218     		adds	r2, r4, r2
 2114              		.loc 1 1066 0
 2115 0074 9968     		ldr	r1, [r3, #8]
 2116              		.loc 1 1065 0
 2117 0076 0020     		movs	r0, #0
 2118 0078 C2F81009 		str	r0, [r2, #2320]
 2119              		.loc 1 1066 0
 2120 007c 0029     		cmp	r1, #0
 2121 007e 3BD0     		beq	.L297
 2122              		.loc 1 1069 0
 2123 0080 9A8B     		ldrh	r2, [r3, #28]
 2124              		.loc 1 1068 0
 2125 0082 198A     		ldrh	r1, [r3, #16]
 2126 0084 8B08     		lsrs	r3, r1, #2
 2127              	.LVL220:
 2128              		.loc 1 1069 0
 2129 0086 012A     		cmp	r2, #1
 2130              		.loc 1 1070 0
 2131 0088 88BF     		it	hi
 2132 008a 5343     		mulhi	r3, r2, r3
 2133              	.LVL221:
 2134              		.loc 1 1071 0
 2135 008c 05F13F01 		add	r1, r5, #63
 2136              	.LBB202:
 2137              	.LBB203:
 2138              		.loc 1 225 0
 2139 0090 726C     		ldr	r2, [r6, #68]
 2140              	.LVL222:
 2141              	.LBE203:
 2142              	.LBE202:
 2143              		.loc 1 1071 0
 2144 0092 04EB8101 		add	r1, r4, r1, lsl #2
 2145              	.LBB206:
 2146              	.LBB204:
 2147              		.loc 1 226 0
 2148 0096 9818     		adds	r0, r3, r2
 2149              	.LBE204:
 2150              	.LBE206:
 2151              		.loc 1 1071 0
 2152 0098 42EA0343 		orr	r3, r2, r3, lsl #16
 2153              	.LVL223:
 2154              	.LBB207:
 2155              	.LBB205:
 2156              		.loc 1 226 0
 2157 009c 7064     		str	r0, [r6, #68]
 2158              	.LBE205:
ARM GAS  /tmp/ccdEZAv8.s 			page 39


 2159              	.LBE207:
 2160              		.loc 1 1071 0
 2161 009e 4B60     		str	r3, [r1, #4]
 2162              		.loc 1 1073 0
 2163 00a0 3046     		mov	r0, r6
 2164 00a2 2946     		mov	r1, r5
 2165 00a4 FFF7FEFF 		bl	otg_txfifo_flush
 2166              	.LVL224:
 2167              		.loc 1 1077 0
 2168 00a8 56F82730 		ldr	r3, [r6, r7, lsl #2]
 2169              		.loc 1 1076 0
 2170 00ac 1A8A     		ldrh	r2, [r3, #16]
 2171              		.loc 1 1075 0
 2172 00ae 05F14803 		add	r3, r5, #72
 2173 00b2 42EA8552 		orr	r2, r2, r5, lsl #22
 2174 00b6 5B01     		lsls	r3, r3, #5
 2175              		.loc 1 1076 0
 2176 00b8 42EA0802 		orr	r2, r2, r8
 2177              		.loc 1 1075 0
 2178 00bc E250     		str	r2, [r4, r3]
 2179              		.loc 1 1078 0
 2180 00be 0122     		movs	r2, #1
 2181 00c0 D4F81C38 		ldr	r3, [r4, #2076]
 2182 00c4 02FA05F5 		lsl	r5, r2, r5
 2183 00c8 1D43     		orrs	r5, r5, r3
 2184 00ca C4F81C58 		str	r5, [r4, #2076]
 2185 00ce BDE8F081 		pop	{r4, r5, r6, r7, r8, pc}
 2186              	.LVL225:
 2187              	.L295:
 2188              		.loc 1 1060 0
 2189 00d2 05F15801 		add	r1, r5, #88
 2190 00d6 4901     		lsls	r1, r1, #5
 2191              		.loc 1 1061 0
 2192 00d8 05F1100E 		add	lr, r5, #16
 2193              		.loc 1 1060 0
 2194 00dc 6058     		ldr	r0, [r4, r1]
 2195 00de 20F40040 		bic	r0, r0, #32768
 2196 00e2 6050     		str	r0, [r4, r1]
 2197              		.loc 1 1061 0
 2198 00e4 0121     		movs	r1, #1
 2199 00e6 D4F81C08 		ldr	r0, [r4, #2076]
 2200 00ea 01FA0EF1 		lsl	r1, r1, lr
 2201 00ee 20EA0101 		bic	r1, r0, r1
 2202 00f2 C4F81C18 		str	r1, [r4, #2076]
 2203 00f6 BCE7     		b	.L296
 2204              	.L297:
 2205              		.loc 1 1081 0
 2206 00f8 05F13F02 		add	r2, r5, #63
 2207 00fc 04EB8202 		add	r2, r4, r2, lsl #2
 2208 0100 4FF48063 		mov	r3, #1024
 2209 0104 C0F20023 		movt	r3, 512
 2210 0108 5360     		str	r3, [r2, #4]
 2211              		.loc 1 1082 0
 2212 010a 2946     		mov	r1, r5
 2213 010c 3046     		mov	r0, r6
 2214 010e FFF7FEFF 		bl	otg_txfifo_flush
 2215              	.LVL226:
ARM GAS  /tmp/ccdEZAv8.s 			page 40


 2216              		.loc 1 1083 0
 2217 0112 05F14803 		add	r3, r5, #72
 2218 0116 5B01     		lsls	r3, r3, #5
 2219 0118 E258     		ldr	r2, [r4, r3]
 2220 011a 22F40042 		bic	r2, r2, #32768
 2221 011e E250     		str	r2, [r4, r3]
 2222              		.loc 1 1084 0
 2223 0120 0122     		movs	r2, #1
 2224 0122 D4F81C38 		ldr	r3, [r4, #2076]
 2225 0126 02FA05F5 		lsl	r5, r2, r5
 2226 012a 23EA0505 		bic	r5, r3, r5
 2227 012e C4F81C58 		str	r5, [r4, #2076]
 2228 0132 BDE8F081 		pop	{r4, r5, r6, r7, r8, pc}
 2229              		.cfi_endproc
 2230              	.LFE143:
 2231              		.size	usb_lld_init_endpoint, .-usb_lld_init_endpoint
 2232 0136 00BFAFF3 		.section	.text.usb_lld_disable_endpoints,"ax",%progbits
 2232      0080AFF3 
 2232      0080
 2233              		.align	2
 2234              		.p2align 4,,15
 2235              		.global	usb_lld_disable_endpoints
 2236              		.thumb
 2237              		.thumb_func
 2238              		.type	usb_lld_disable_endpoints, %function
 2239              	usb_lld_disable_endpoints:
 2240              	.LFB144:
 2241              		.loc 1 1095 0
 2242              		.cfi_startproc
 2243              		@ args = 0, pretend = 0, frame = 0
 2244              		@ frame_needed = 0, uses_anonymous_args = 0
 2245              		@ link register save eliminated.
 2246              	.LVL227:
 2247              	.LBB208:
 2248              	.LBB209:
 2249              		.loc 1 211 0
 2250 0000 026C     		ldr	r2, [r0, #64]
 2251 0002 1268     		ldr	r2, [r2, #0]
 2252 0004 4264     		str	r2, [r0, #68]
 2253              	.LBE209:
 2254              	.LBE208:
 2255              		.loc 1 1102 0
 2256              		.loc 1 1101 0
 2257 0006 FFF7FEBF 		b	otg_disable_ep
 2258              	.LVL228:
 2259              		.cfi_endproc
 2260              	.LFE144:
 2261              		.size	usb_lld_disable_endpoints, .-usb_lld_disable_endpoints
 2262 000a 00BFAFF3 		.section	.text.usb_lld_get_status_out,"ax",%progbits
 2262      0080
 2263              		.align	2
 2264              		.p2align 4,,15
 2265              		.global	usb_lld_get_status_out
 2266              		.thumb
 2267              		.thumb_func
 2268              		.type	usb_lld_get_status_out, %function
 2269              	usb_lld_get_status_out:
ARM GAS  /tmp/ccdEZAv8.s 			page 41


 2270              	.LFB145:
 2271              		.loc 1 1116 0
 2272              		.cfi_startproc
 2273              		@ args = 0, pretend = 0, frame = 0
 2274              		@ frame_needed = 0, uses_anonymous_args = 0
 2275              		@ link register save eliminated.
 2276              	.LVL229:
 2277              		.loc 1 1121 0
 2278 0000 5831     		adds	r1, r1, #88
 2279              	.LVL230:
 2280 0002 C36B     		ldr	r3, [r0, #60]
 2281 0004 4901     		lsls	r1, r1, #5
 2282 0006 5B58     		ldr	r3, [r3, r1]
 2283              	.LVL231:
 2284              		.loc 1 1122 0
 2285 0008 13F40040 		ands	r0, r3, #32768
 2286              	.LVL232:
 2287 000c 04D0     		beq	.L303
 2288              		.loc 1 1124 0
 2289 000e 13F4001F 		tst	r3, #2097152
 2290              		.loc 1 1125 0
 2291 0012 0CBF     		ite	eq
 2292 0014 0220     		moveq	r0, #2
 2293 0016 0120     		movne	r0, #1
 2294              	.L303:
 2295              		.loc 1 1127 0
 2296 0018 7047     		bx	lr
 2297              		.cfi_endproc
 2298              	.LFE145:
 2299              		.size	usb_lld_get_status_out, .-usb_lld_get_status_out
 2300 001a 00BFAFF3 		.section	.text.usb_lld_get_status_in,"ax",%progbits
 2300      0080
 2301              		.align	2
 2302              		.p2align 4,,15
 2303              		.global	usb_lld_get_status_in
 2304              		.thumb
 2305              		.thumb_func
 2306              		.type	usb_lld_get_status_in, %function
 2307              	usb_lld_get_status_in:
 2308              	.LFB146:
 2309              		.loc 1 1141 0
 2310              		.cfi_startproc
 2311              		@ args = 0, pretend = 0, frame = 0
 2312              		@ frame_needed = 0, uses_anonymous_args = 0
 2313              		@ link register save eliminated.
 2314              	.LVL233:
 2315              		.loc 1 1146 0
 2316 0000 4831     		adds	r1, r1, #72
 2317              	.LVL234:
 2318 0002 C36B     		ldr	r3, [r0, #60]
 2319 0004 4901     		lsls	r1, r1, #5
 2320 0006 5B58     		ldr	r3, [r3, r1]
 2321              	.LVL235:
 2322              		.loc 1 1147 0
 2323 0008 13F40040 		ands	r0, r3, #32768
 2324              	.LVL236:
 2325 000c 04D0     		beq	.L307
ARM GAS  /tmp/ccdEZAv8.s 			page 42


 2326              		.loc 1 1149 0
 2327 000e 13F4001F 		tst	r3, #2097152
 2328              		.loc 1 1150 0
 2329 0012 0CBF     		ite	eq
 2330 0014 0220     		moveq	r0, #2
 2331 0016 0120     		movne	r0, #1
 2332              	.L307:
 2333              		.loc 1 1152 0
 2334 0018 7047     		bx	lr
 2335              		.cfi_endproc
 2336              	.LFE146:
 2337              		.size	usb_lld_get_status_in, .-usb_lld_get_status_in
 2338 001a 00BFAFF3 		.section	.text.usb_lld_read_setup,"ax",%progbits
 2338      0080
 2339              		.align	2
 2340              		.p2align 4,,15
 2341              		.global	usb_lld_read_setup
 2342              		.thumb
 2343              		.thumb_func
 2344              		.type	usb_lld_read_setup, %function
 2345              	usb_lld_read_setup:
 2346              	.LFB147:
 2347              		.loc 1 1168 0
 2348              		.cfi_startproc
 2349              		@ args = 0, pretend = 0, frame = 0
 2350              		@ frame_needed = 0, uses_anonymous_args = 0
 2351              		@ link register save eliminated.
 2352              	.LVL237:
 2353              		.loc 1 1170 0
 2354 0000 0431     		adds	r1, r1, #4
 2355              	.LVL238:
 2356 0002 50F82130 		ldr	r3, [r0, r1, lsl #2]
 2357 0006 1B6A     		ldr	r3, [r3, #32]
 2358 0008 1968     		ldr	r1, [r3, #0]	@ unaligned
 2359 000a 5B68     		ldr	r3, [r3, #4]	@ unaligned
 2360 000c 1160     		str	r1, [r2, #0]	@ unaligned
 2361 000e 5360     		str	r3, [r2, #4]	@ unaligned
 2362 0010 7047     		bx	lr
 2363              		.cfi_endproc
 2364              	.LFE147:
 2365              		.size	usb_lld_read_setup, .-usb_lld_read_setup
 2366 0012 00BFAFF3 		.section	.text.usb_lld_prepare_receive,"ax",%progbits
 2366      0080AFF3 
 2366      0080AFF3 
 2366      0080
 2367              		.align	2
 2368              		.p2align 4,,15
 2369              		.global	usb_lld_prepare_receive
 2370              		.thumb
 2371              		.thumb_func
 2372              		.type	usb_lld_prepare_receive, %function
 2373              	usb_lld_prepare_receive:
 2374              	.LFB148:
 2375              		.loc 1 1181 0
 2376              		.cfi_startproc
 2377              		@ args = 0, pretend = 0, frame = 0
 2378              		@ frame_needed = 0, uses_anonymous_args = 0
ARM GAS  /tmp/ccdEZAv8.s 			page 43


 2379              		@ link register save eliminated.
 2380              	.LVL239:
 2381              		.loc 1 1183 0
 2382 0000 0B1D     		adds	r3, r1, #4
 2383              		.loc 1 1181 0
 2384 0002 10B4     		push	{r4}
 2385              	.LCFI11:
 2386              		.cfi_def_cfa_offset 4
 2387              		.cfi_offset 4, -4
 2388              		.loc 1 1183 0
 2389 0004 50F82330 		ldr	r3, [r0, r3, lsl #2]
 2390              	.LVL240:
 2391              		.loc 1 1188 0
 2392 0008 C46B     		ldr	r4, [r0, #60]
 2393              		.loc 1 1186 0
 2394 000a 9A69     		ldr	r2, [r3, #24]
 2395 000c 5B8A     		ldrh	r3, [r3, #18]
 2396              	.LVL241:
 2397 000e 5068     		ldr	r0, [r2, #4]
 2398              	.LVL242:
 2399 0010 0138     		subs	r0, r0, #1
 2400 0012 C018     		adds	r0, r0, r3
 2401              		.loc 1 1188 0
 2402 0014 43F0C042 		orr	r2, r3, #1610612736
 2403              	.LVL243:
 2404 0018 04EB4111 		add	r1, r4, r1, lsl #5
 2405              	.LVL244:
 2406              		.loc 1 1186 0
 2407 001c B0FBF3F3 		udiv	r3, r0, r3
 2408              		.loc 1 1188 0
 2409 0020 42EAC343 		orr	r3, r2, r3, lsl #19
 2410 0024 C1F8103B 		str	r3, [r1, #2832]
 2411              		.loc 1 1191 0
 2412 0028 10BC     		pop	{r4}
 2413 002a 7047     		bx	lr
 2414              		.cfi_endproc
 2415              	.LFE148:
 2416              		.size	usb_lld_prepare_receive, .-usb_lld_prepare_receive
 2417 002c AFF30080 		.section	.text.usb_lld_prepare_transmit,"ax",%progbits
 2418              		.align	2
 2419              		.p2align 4,,15
 2420              		.global	usb_lld_prepare_transmit
 2421              		.thumb
 2422              		.thumb_func
 2423              		.type	usb_lld_prepare_transmit, %function
 2424              	usb_lld_prepare_transmit:
 2425              	.LFB149:
 2426              		.loc 1 1201 0
 2427              		.cfi_startproc
 2428              		@ args = 0, pretend = 0, frame = 0
 2429              		@ frame_needed = 0, uses_anonymous_args = 0
 2430              		@ link register save eliminated.
 2431              	.LVL245:
 2432              		.loc 1 1202 0
 2433 0000 0B1D     		adds	r3, r1, #4
 2434              		.loc 1 1201 0
 2435 0002 10B4     		push	{r4}
ARM GAS  /tmp/ccdEZAv8.s 			page 44


 2436              	.LCFI12:
 2437              		.cfi_def_cfa_offset 4
 2438              		.cfi_offset 4, -4
 2439              		.loc 1 1202 0
 2440 0004 50F82320 		ldr	r2, [r0, r3, lsl #2]
 2441              	.LVL246:
 2442              		.loc 1 1205 0
 2443 0008 5369     		ldr	r3, [r2, #20]
 2444 000a 5B68     		ldr	r3, [r3, #4]
 2445 000c 6BB1     		cbz	r3, .L315
 2446              	.LBB210:
 2447              		.loc 1 1211 0
 2448 000e 128A     		ldrh	r2, [r2, #16]
 2449              	.LVL247:
 2450              		.loc 1 1213 0
 2451 0010 C06B     		ldr	r0, [r0, #60]
 2452              	.LVL248:
 2453              		.loc 1 1211 0
 2454 0012 5C1E     		subs	r4, r3, #1
 2455 0014 A418     		adds	r4, r4, r2
 2456 0016 B4FBF2F2 		udiv	r2, r4, r2
 2457              	.LVL249:
 2458              		.loc 1 1213 0
 2459 001a 00EB4111 		add	r1, r0, r1, lsl #5
 2460              	.LVL250:
 2461 001e 43EAC243 		orr	r3, r3, r2, lsl #19
 2462 0022 C1F81039 		str	r3, [r1, #2320]
 2463              	.L312:
 2464              	.LBE210:
 2465              		.loc 1 1217 0
 2466 0026 10BC     		pop	{r4}
 2467 0028 7047     		bx	lr
 2468              	.LVL251:
 2469              	.L315:
 2470              		.loc 1 1207 0
 2471 002a C36B     		ldr	r3, [r0, #60]
 2472 002c 03EB4111 		add	r1, r3, r1, lsl #5
 2473              	.LVL252:
 2474 0030 4FF40023 		mov	r3, #524288
 2475 0034 C1F81039 		str	r3, [r1, #2320]
 2476 0038 F5E7     		b	.L312
 2477              		.cfi_endproc
 2478              	.LFE149:
 2479              		.size	usb_lld_prepare_transmit, .-usb_lld_prepare_transmit
 2480 003a 00BFAFF3 		.section	.text.usb_lld_start_out,"ax",%progbits
 2480      0080
 2481              		.align	2
 2482              		.p2align 4,,15
 2483              		.global	usb_lld_start_out
 2484              		.thumb
 2485              		.thumb_func
 2486              		.type	usb_lld_start_out, %function
 2487              	usb_lld_start_out:
 2488              	.LFB150:
 2489              		.loc 1 1227 0
 2490              		.cfi_startproc
 2491              		@ args = 0, pretend = 0, frame = 0
ARM GAS  /tmp/ccdEZAv8.s 			page 45


 2492              		@ frame_needed = 0, uses_anonymous_args = 0
 2493              		@ link register save eliminated.
 2494              	.LVL253:
 2495              		.loc 1 1229 0
 2496 0000 5831     		adds	r1, r1, #88
 2497              	.LVL254:
 2498 0002 C36B     		ldr	r3, [r0, #60]
 2499 0004 4901     		lsls	r1, r1, #5
 2500 0006 5A58     		ldr	r2, [r3, r1]
 2501 0008 42F08062 		orr	r2, r2, #67108864
 2502 000c 5A50     		str	r2, [r3, r1]
 2503 000e 7047     		bx	lr
 2504              		.cfi_endproc
 2505              	.LFE150:
 2506              		.size	usb_lld_start_out, .-usb_lld_start_out
 2507              		.section	.text.usb_lld_start_in,"ax",%progbits
 2508              		.align	2
 2509              		.p2align 4,,15
 2510              		.global	usb_lld_start_in
 2511              		.thumb
 2512              		.thumb_func
 2513              		.type	usb_lld_start_in, %function
 2514              	usb_lld_start_in:
 2515              	.LFB151:
 2516              		.loc 1 1240 0
 2517              		.cfi_startproc
 2518              		@ args = 0, pretend = 0, frame = 0
 2519              		@ frame_needed = 0, uses_anonymous_args = 0
 2520              		@ link register save eliminated.
 2521              	.LVL255:
 2522              		.loc 1 1242 0
 2523 0000 01F14802 		add	r2, r1, #72
 2524 0004 C36B     		ldr	r3, [r0, #60]
 2525 0006 5201     		lsls	r2, r2, #5
 2526 0008 9858     		ldr	r0, [r3, r2]
 2527              	.LVL256:
 2528 000a 40F00440 		orr	r0, r0, #-2080374784
 2529 000e 9850     		str	r0, [r3, r2]
 2530              		.loc 1 1243 0
 2531 0010 0120     		movs	r0, #1
 2532 0012 D3F83428 		ldr	r2, [r3, #2100]
 2533 0016 00FA01F1 		lsl	r1, r0, r1
 2534              	.LVL257:
 2535 001a 1143     		orrs	r1, r1, r2
 2536 001c C3F83418 		str	r1, [r3, #2100]
 2537 0020 7047     		bx	lr
 2538              		.cfi_endproc
 2539              	.LFE151:
 2540              		.size	usb_lld_start_in, .-usb_lld_start_in
 2541 0022 00BFAFF3 		.section	.text.usb_lld_stall_out,"ax",%progbits
 2541      0080AFF3 
 2541      0080AFF3 
 2541      0080
 2542              		.align	2
 2543              		.p2align 4,,15
 2544              		.global	usb_lld_stall_out
 2545              		.thumb
ARM GAS  /tmp/ccdEZAv8.s 			page 46


 2546              		.thumb_func
 2547              		.type	usb_lld_stall_out, %function
 2548              	usb_lld_stall_out:
 2549              	.LFB152:
 2550              		.loc 1 1254 0
 2551              		.cfi_startproc
 2552              		@ args = 0, pretend = 0, frame = 0
 2553              		@ frame_needed = 0, uses_anonymous_args = 0
 2554              		@ link register save eliminated.
 2555              	.LVL258:
 2556              		.loc 1 1256 0
 2557 0000 5831     		adds	r1, r1, #88
 2558              	.LVL259:
 2559 0002 C36B     		ldr	r3, [r0, #60]
 2560 0004 4901     		lsls	r1, r1, #5
 2561 0006 5A58     		ldr	r2, [r3, r1]
 2562 0008 42F40012 		orr	r2, r2, #2097152
 2563 000c 5A50     		str	r2, [r3, r1]
 2564 000e 7047     		bx	lr
 2565              		.cfi_endproc
 2566              	.LFE152:
 2567              		.size	usb_lld_stall_out, .-usb_lld_stall_out
 2568              		.section	.text.usb_lld_stall_in,"ax",%progbits
 2569              		.align	2
 2570              		.p2align 4,,15
 2571              		.global	usb_lld_stall_in
 2572              		.thumb
 2573              		.thumb_func
 2574              		.type	usb_lld_stall_in, %function
 2575              	usb_lld_stall_in:
 2576              	.LFB153:
 2577              		.loc 1 1267 0
 2578              		.cfi_startproc
 2579              		@ args = 0, pretend = 0, frame = 0
 2580              		@ frame_needed = 0, uses_anonymous_args = 0
 2581              		@ link register save eliminated.
 2582              	.LVL260:
 2583              		.loc 1 1269 0
 2584 0000 4831     		adds	r1, r1, #72
 2585              	.LVL261:
 2586 0002 C36B     		ldr	r3, [r0, #60]
 2587 0004 4901     		lsls	r1, r1, #5
 2588 0006 5A58     		ldr	r2, [r3, r1]
 2589 0008 42F40012 		orr	r2, r2, #2097152
 2590 000c 5A50     		str	r2, [r3, r1]
 2591 000e 7047     		bx	lr
 2592              		.cfi_endproc
 2593              	.LFE153:
 2594              		.size	usb_lld_stall_in, .-usb_lld_stall_in
 2595              		.section	.text.usb_lld_clear_out,"ax",%progbits
 2596              		.align	2
 2597              		.p2align 4,,15
 2598              		.global	usb_lld_clear_out
 2599              		.thumb
 2600              		.thumb_func
 2601              		.type	usb_lld_clear_out, %function
 2602              	usb_lld_clear_out:
ARM GAS  /tmp/ccdEZAv8.s 			page 47


 2603              	.LFB154:
 2604              		.loc 1 1280 0
 2605              		.cfi_startproc
 2606              		@ args = 0, pretend = 0, frame = 0
 2607              		@ frame_needed = 0, uses_anonymous_args = 0
 2608              		@ link register save eliminated.
 2609              	.LVL262:
 2610              		.loc 1 1282 0
 2611 0000 5831     		adds	r1, r1, #88
 2612              	.LVL263:
 2613 0002 C36B     		ldr	r3, [r0, #60]
 2614 0004 4901     		lsls	r1, r1, #5
 2615 0006 5A58     		ldr	r2, [r3, r1]
 2616 0008 22F40012 		bic	r2, r2, #2097152
 2617 000c 5A50     		str	r2, [r3, r1]
 2618 000e 7047     		bx	lr
 2619              		.cfi_endproc
 2620              	.LFE154:
 2621              		.size	usb_lld_clear_out, .-usb_lld_clear_out
 2622              		.section	.text.usb_lld_clear_in,"ax",%progbits
 2623              		.align	2
 2624              		.p2align 4,,15
 2625              		.global	usb_lld_clear_in
 2626              		.thumb
 2627              		.thumb_func
 2628              		.type	usb_lld_clear_in, %function
 2629              	usb_lld_clear_in:
 2630              	.LFB155:
 2631              		.loc 1 1293 0
 2632              		.cfi_startproc
 2633              		@ args = 0, pretend = 0, frame = 0
 2634              		@ frame_needed = 0, uses_anonymous_args = 0
 2635              		@ link register save eliminated.
 2636              	.LVL264:
 2637              		.loc 1 1295 0
 2638 0000 4831     		adds	r1, r1, #72
 2639              	.LVL265:
 2640 0002 C36B     		ldr	r3, [r0, #60]
 2641 0004 4901     		lsls	r1, r1, #5
 2642 0006 5A58     		ldr	r2, [r3, r1]
 2643 0008 22F40012 		bic	r2, r2, #2097152
 2644 000c 5A50     		str	r2, [r3, r1]
 2645 000e 7047     		bx	lr
 2646              		.cfi_endproc
 2647              	.LFE155:
 2648              		.size	usb_lld_clear_in, .-usb_lld_clear_in
 2649              		.global	USBD1
 2650              		.section	.rodata.fsparams,"a",%progbits
 2651              		.align	2
 2652              		.set	.LANCHOR1,. + 0
 2653              		.type	fsparams, %object
 2654              		.size	fsparams, 12
 2655              	fsparams:
 2656 0000 80000000 		.word	128
 2657 0004 80010000 		.word	384
 2658 0008 03000000 		.word	3
 2659              		.section	.bss.USBD1,"aw",%nobits
ARM GAS  /tmp/ccdEZAv8.s 			page 48


 2660              		.align	3
 2661              		.set	.LANCHOR0,. + 0
 2662              		.type	USBD1, %object
 2663              		.size	USBD1, 392
 2664              	USBD1:
 2665 0000 00000000 		.space	392
 2665      00000000 
 2665      00000000 
 2665      00000000 
 2665      00000000 
 2666              		.section	.rodata.str1.4,"aMS",%progbits,1
 2667              		.align	2
 2668              	.LC0:
 2669 0000 7573625F 		.ascii	"usb_lld_pump\000"
 2669      6C6C645F 
 2669      70756D70 
 2669      00
 2670 000d 000000   		.section	.rodata.ep0config,"a",%progbits
 2671              		.align	2
 2672              		.set	.LANCHOR2,. + 0
 2673              		.type	ep0config, %object
 2674              		.size	ep0config, 36
 2675              	ep0config:
 2676 0000 00000000 		.word	0
 2677 0004 00000000 		.word	_usb_ep0setup
 2678 0008 00000000 		.word	_usb_ep0in
 2679 000c 00000000 		.word	_usb_ep0out
 2680 0010 4000     		.short	64
 2681 0012 4000     		.short	64
 2682 0014 00000000 		.word	ep0_state
 2683 0018 00000000 		.word	ep0_state
 2684 001c 0100     		.short	1
 2685 001e 0000     		.space	2
 2686 0020 00000000 		.word	ep0setup_buffer
 2687              		.section	.bss.ep0_state,"aw",%nobits
 2688              		.align	2
 2689              		.type	ep0_state, %object
 2690              		.size	ep0_state, 16
 2691              	ep0_state:
 2692 0000 00000000 		.space	16
 2692      00000000 
 2692      00000000 
 2692      00000000 
 2693              		.section	.bss.ep0setup_buffer,"aw",%nobits
 2694              		.align	2
 2695              		.type	ep0setup_buffer, %object
 2696              		.size	ep0setup_buffer, 8
 2697              	ep0setup_buffer:
 2698 0000 00000000 		.space	8
 2698      00000000 
 2699              		.text
 2700              	.Letext0:
 2701              		.file 3 "/opt/psas/x-tools/stm32f407/arm-psas-eabi/bin/../lib/gcc/arm-psas-eabi/4.7.2/include/stdd
 2702              		.file 4 "/opt/psas/x-tools/stm32f407/arm-psas-eabi/bin/../lib/gcc/arm-psas-eabi/4.7.2/../../../../
 2703              		.file 5 "../../os/ports/GCC/ARMCMx/chtypes.h"
 2704              		.file 6 "../../os/kernel/include/chlists.h"
 2705              		.file 7 "../../os/kernel/include/chthreads.h"
ARM GAS  /tmp/ccdEZAv8.s 			page 49


 2706              		.file 8 "../../os/ports/GCC/ARMCMx/chcore_v7m.h"
 2707              		.file 9 "../../os/kernel/include/chschd.h"
 2708              		.file 10 "../../os/kernel/include/chmtx.h"
 2709              		.file 11 "../../os/kernel/include/chqueues.h"
 2710              		.file 12 "../../os/hal/platforms/STM32F4xx/stm32f4xx.h"
 2711              		.file 13 "../../os/hal/platforms/STM32F4xx/hal_lld.h"
 2712              		.file 14 "../../os/hal/include/usb.h"
 2713              		.file 15 "../../os/hal/platforms/STM32/OTGv1/usb_lld.h"
 2714              		.file 16 "../../os/hal/platforms/STM32/OTGv1/stm32_otg.h"
 2715              		.file 17 "../../os/ports/common/ARMCMx/CMSIS/include/core_cm4.h"
 2716              		.file 18 "../../os/hal/include/hal.h"
 2717              		.file 19 "../../os/ports/common/ARMCMx/nvic.h"