ARM GAS  /tmp/cccciJDL.s 			page 1


   1              		.syntax unified
   2              		.cpu cortex-m4
   3              		.eabi_attribute 27, 3
   4              		.eabi_attribute 28, 1
   5              		.fpu fpv4-sp-d16
   6              		.eabi_attribute 20, 1
   7              		.eabi_attribute 21, 1
   8              		.eabi_attribute 23, 3
   9              		.eabi_attribute 24, 1
  10              		.eabi_attribute 25, 1
  11              		.eabi_attribute 26, 1
  12              		.eabi_attribute 30, 2
  13              		.eabi_attribute 34, 1
  14              		.eabi_attribute 18, 4
  15              		.thumb
  16              		.file	"web.c"
  17              		.text
  18              	.Ltext0:
  19              		.cfi_sections	.debug_frame
  20              		.section	.text.http_server,"ax",%progbits
  21              		.align	2
  22              		.p2align 4,,15
  23              		.global	http_server
  24              		.thumb
  25              		.thumb_func
  26              		.type	http_server, %function
  27              	http_server:
  28              	.LFB8:
  29              		.file 1 "web/web.c"
  30              		.loc 1 94 0
  31              		.cfi_startproc
  32              		@ args = 0, pretend = 0, frame = 16
  33              		@ frame_needed = 0, uses_anonymous_args = 0
  34              	.LVL0:
  35 0000 70B5     		push	{r4, r5, r6, lr}
  36              	.LCFI0:
  37              		.cfi_def_cfa_offset 16
  38              		.cfi_offset 4, -16
  39              		.cfi_offset 5, -12
  40              		.cfi_offset 6, -8
  41              		.cfi_offset 14, -4
  42              		.loc 1 99 0
  43 0002 2E4B     		ldr	r3, .L15
  44 0004 2E4A     		ldr	r2, .L15+4
  45 0006 9B69     		ldr	r3, [r3, #24]
  46              		.loc 1 102 0
  47 0008 0021     		movs	r1, #0
  48              		.loc 1 99 0
  49 000a 9A61     		str	r2, [r3, #24]
  50              		.loc 1 94 0
  51 000c 84B0     		sub	sp, sp, #16
  52              	.LCFI1:
  53              		.cfi_def_cfa_offset 32
  54              		.loc 1 102 0
  55 000e 1020     		movs	r0, #16
  56              	.LVL1:
  57 0010 0A46     		mov	r2, r1
ARM GAS  /tmp/cccciJDL.s 			page 2


  58 0012 FFF7FEFF 		bl	netconn_new_with_proto_and_callback
  59              	.LVL2:
  60              		.loc 1 103 0
  61 0016 0546     		mov	r5, r0
  62 0018 0028     		cmp	r0, #0
  63 001a 48D0     		beq	.L12
  64              		.loc 1 106 0
  65 001c 5022     		movs	r2, #80
  66 001e 0021     		movs	r1, #0
  67 0020 FFF7FEFF 		bl	netconn_bind
  68              	.LVL3:
  69              		.loc 1 109 0
  70 0024 2846     		mov	r0, r5
  71 0026 FF21     		movs	r1, #255
  72 0028 FFF7FEFF 		bl	netconn_listen_with_backlog
  73              	.LVL4:
  74              		.loc 1 112 0
  75 002c 0420     		movs	r0, #4
  76 002e FFF7FEFF 		bl	chThdSetPriority
  77              	.LVL5:
  78              	.L10:
  79              		.loc 1 115 0
  80 0032 01A9     		add	r1, sp, #4
  81 0034 2846     		mov	r0, r5
  82 0036 FFF7FEFF 		bl	netconn_accept
  83              	.LVL6:
  84              	.LBB4:
  85              	.LBB5:
  86              		.loc 1 54 0
  87 003a 02A9     		add	r1, sp, #8
  88              	.LBE5:
  89              	.LBE4:
  90              		.loc 1 116 0
  91 003c 0028     		cmp	r0, #0
  92 003e F8D1     		bne	.L10
  93              		.loc 1 118 0
  94 0040 019C     		ldr	r4, [sp, #4]
  95              	.LVL7:
  96              	.LBB8:
  97              	.LBB6:
  98              		.loc 1 54 0
  99 0042 2046     		mov	r0, r4
 100              	.LVL8:
 101 0044 FFF7FEFF 		bl	netconn_recv
 102              	.LVL9:
 103              		.loc 1 56 0
 104 0048 0646     		mov	r6, r0
 105 004a 48B1     		cbz	r0, .L14
 106              	.LVL10:
 107              	.L5:
 108              		.loc 1 79 0
 109 004c 2046     		mov	r0, r4
 110 004e FFF7FEFF 		bl	netconn_close
 111              	.LVL11:
 112              		.loc 1 83 0
 113 0052 0298     		ldr	r0, [sp, #8]
 114 0054 FFF7FEFF 		bl	netbuf_delete
ARM GAS  /tmp/cccciJDL.s 			page 3


 115              	.LVL12:
 116              	.LBE6:
 117              	.LBE8:
 118              		.loc 1 119 0
 119 0058 0198     		ldr	r0, [sp, #4]
 120 005a FFF7FEFF 		bl	netconn_delete
 121              	.LVL13:
 122 005e E8E7     		b	.L10
 123              	.LVL14:
 124              	.L14:
 125              	.LBB9:
 126              	.LBB7:
 127              		.loc 1 57 0
 128 0060 03A9     		add	r1, sp, #12
 129 0062 0DF10202 		add	r2, sp, #2
 130 0066 0298     		ldr	r0, [sp, #8]
 131              	.LVL15:
 132 0068 FFF7FEFF 		bl	netbuf_data
 133              	.LVL16:
 134              		.loc 1 61 0
 135 006c BDF80230 		ldrh	r3, [sp, #2]
 136              	.LVL17:
 137 0070 042B     		cmp	r3, #4
 138              	.LVL18:
 139 0072 EBD9     		bls	.L5
 140              		.loc 1 62 0
 141 0074 039B     		ldr	r3, [sp, #12]
 142              	.LVL19:
 143              		.loc 1 61 0
 144 0076 1A78     		ldrb	r2, [r3, #0]	@ zero_extendqisi2
 145 0078 472A     		cmp	r2, #71
 146 007a E7D1     		bne	.L5
 147              		.loc 1 62 0
 148 007c 5A78     		ldrb	r2, [r3, #1]	@ zero_extendqisi2
 149 007e 452A     		cmp	r2, #69
 150 0080 E4D1     		bne	.L5
 151              		.loc 1 63 0
 152 0082 9A78     		ldrb	r2, [r3, #2]	@ zero_extendqisi2
 153 0084 542A     		cmp	r2, #84
 154 0086 E1D1     		bne	.L5
 155              		.loc 1 64 0
 156 0088 DA78     		ldrb	r2, [r3, #3]	@ zero_extendqisi2
 157 008a 202A     		cmp	r2, #32
 158 008c DED1     		bne	.L5
 159              		.loc 1 65 0
 160 008e 1B79     		ldrb	r3, [r3, #4]	@ zero_extendqisi2
 161 0090 2F2B     		cmp	r3, #47
 162 0092 DBD1     		bne	.L5
 163              		.loc 1 72 0
 164 0094 3346     		mov	r3, r6
 165 0096 2C22     		movs	r2, #44
 166 0098 2046     		mov	r0, r4
 167 009a 0A49     		ldr	r1, .L15+8
 168 009c FFF7FEFF 		bl	netconn_write
 169              	.LVL20:
 170              		.loc 1 75 0
 171 00a0 2046     		mov	r0, r4
ARM GAS  /tmp/cccciJDL.s 			page 4


 172 00a2 0949     		ldr	r1, .L15+12
 173 00a4 8522     		movs	r2, #133
 174 00a6 3346     		mov	r3, r6
 175 00a8 FFF7FEFF 		bl	netconn_write
 176              	.LVL21:
 177 00ac CEE7     		b	.L5
 178              	.LVL22:
 179              	.L12:
 180              	.LBE7:
 181              	.LBE9:
 182              		.loc 1 103 0 discriminator 1
 183 00ae FFF7FEFF 		bl	port_halt
 184              	.LVL23:
 185              		.loc 1 122 0 discriminator 1
 186 00b2 6FF00100 		mvn	r0, #1
 187 00b6 04B0     		add	sp, sp, #16
 188 00b8 70BD     		pop	{r4, r5, r6, pc}
 189              	.L16:
 190 00ba 00BF     		.align	2
 191              	.L15:
 192 00bc 00000000 		.word	rlist
 193 00c0 00000000 		.word	.LC0
 194 00c4 00000000 		.word	.LANCHOR0
 195 00c8 00000000 		.word	.LANCHOR1
 196              		.cfi_endproc
 197              	.LFE8:
 198              		.size	http_server, .-http_server
 199              		.global	wa_http_server
 200 00cc AFF30080 		.section	.rodata.http_index_html,"a",%progbits
 201              		.align	2
 202              		.set	.LANCHOR1,. + 0
 203              		.type	http_index_html, %object
 204              		.size	http_index_html, 134
 205              	http_index_html:
 206 0000 3C68746D 		.ascii	"<html><head><title>Congrats!</title></head><body><h"
 206      6C3E3C68 
 206      6561643E 
 206      3C746974 
 206      6C653E43 
 207 0033 313E5765 		.ascii	"1>Welcome to our lwIP HTTP server!</h1><p>This is a"
 207      6C636F6D 
 207      6520746F 
 207      206F7572 
 207      206C7749 
 208 0066 20736D61 		.ascii	" small test page.</body></html>\000"
 208      6C6C2074 
 208      65737420 
 208      70616765 
 208      2E3C2F62 
 209 0086 0000     		.section	.rodata.str1.4,"aMS",%progbits,1
 210              		.align	2
 211              	.LC0:
 212 0000 68747470 		.ascii	"http\000"
 212      00
 213 0005 000000   		.section	.bss.wa_http_server,"aw",%nobits
 214              		.align	3
 215              		.type	wa_http_server, %object
ARM GAS  /tmp/cccciJDL.s 			page 5


 216              		.size	wa_http_server, 1200
 217              	wa_http_server:
 218 0000 00000000 		.space	1200
 218      00000000 
 218      00000000 
 218      00000000 
 218      00000000 
 219              		.section	.rodata.http_html_hdr,"a",%progbits
 220              		.align	2
 221              		.set	.LANCHOR0,. + 0
 222              		.type	http_html_hdr, %object
 223              		.size	http_html_hdr, 45
 224              	http_html_hdr:
 225 0000 48545450 		.ascii	"HTTP/1.1 200 OK\015\012Content-type: text/html\015\012"
 225      2F312E31 
 225      20323030 
 225      204F4B0D 
 225      0A436F6E 
 226 002a 0D0A00   		.ascii	"\015\012\000"
 227 002d 000000   		.text
 228              	.Letext0:
 229              		.file 2 "/opt/psas/x-tools/stm32f407/arm-psas-eabi/bin/../lib/gcc/arm-psas-eabi/4.7.2/include/stdd
 230              		.file 3 "/opt/psas/x-tools/stm32f407/arm-psas-eabi/bin/../lib/gcc/arm-psas-eabi/4.7.2/../../../../
 231              		.file 4 "../../os/ports/GCC/ARMCMx/chtypes.h"
 232              		.file 5 "../../os/kernel/include/chlists.h"
 233              		.file 6 "../../os/kernel/include/chthreads.h"
 234              		.file 7 "../../os/ports/GCC/ARMCMx/chcore_v7m.h"
 235              		.file 8 "../../os/kernel/include/chschd.h"
 236              		.file 9 "../../os/kernel/include/chsem.h"
 237              		.file 10 "../../os/kernel/include/chmtx.h"
 238              		.file 11 "../../os/kernel/include/chmboxes.h"
 239              		.file 12 "../../os/various/lwip_bindings/arch/cc.h"
 240              		.file 13 "../../ext/lwip/src/include/lwip/err.h"
 241              		.file 14 "../../ext/lwip/src/include/lwip/pbuf.h"
 242              		.file 15 "../../ext/lwip/src/include/ipv4/lwip/ip_addr.h"
 243              		.file 16 "../../ext/lwip/src/include/lwip/netbuf.h"
 244              		.file 17 "../../os/various/lwip_bindings/arch/sys_arch.h"
 245              		.file 18 "../../ext/lwip/src/include/lwip/api.h"