ARM GAS  /tmp/cccciJDL.s 			page 1


   1              		.syntax unified
   2              		.cpu cortex-m4
   3              		.eabi_attribute 27, 3
   4              		.eabi_attribute 28, 1
   5              		.fpu fpv4-sp-d16
   6              		.eabi_attribute 20, 1
   7              		.eabi_attribute 21, 1
   8              		.eabi_attribute 23, 3
   9              		.eabi_attribute 24, 1
  10              		.eabi_attribute 25, 1
  11              		.eabi_attribute 26, 1
  12              		.eabi_attribute 30, 2
  13              		.eabi_attribute 34, 1
  14              		.eabi_attribute 18, 4
  15              		.thumb
  16              		.file	"web.c"
  17              		.text
  18              	.Ltext0:
  19              		.cfi_sections	.debug_frame
  20              		.section	.text.http_server,"ax",%progbits
  21              		.align	2
  22              		.p2align 4,,15
  23              		.global	http_server
  24              		.thumb
  25              		.thumb_func
  26              		.type	http_server, %function
  27              	http_server:
  28              	.LFB8:
  29              		.file 1 "web/web.c"
  30              		.loc 1 94 0
  31              		.cfi_startproc
  32              		@ args = 0, pretend = 0, frame = 16
  33              		@ frame_needed = 0, uses_anonymous_args = 0
  34              	.LVL0:
  35 0000 70B5     		push	{r4, r5, r6, lr}
  36              	.LCFI0:
  37              		.cfi_def_cfa_offset 16
  38              		.cfi_offset 4, -16
  39              		.cfi_offset 5, -12
  40              		.cfi_offset 6, -8
  41              		.cfi_offset 14, -4
  42              		.loc 1 99 0
  43 0002 2E4B     		ldr	r3, .L15
  44 0004 2E4A     		ldr	r2, .L15+4
  45 0006 9B69     		ldr	r3, [r3, #24]
  46              		.loc 1 102 0
  47 0008 0021     		movs	r1, #0
  48              		.loc 1 99 0
  49 000a 9A61     		str	r2, [r3, #24]
  50              		.loc 1 94 0
  51 000c 84B0     		sub	sp, sp, #16
  52              	.LCFI1:
  53              		.cfi_def_cfa_offset 32
  54              		.loc 1 102 0
  55 000e 1020     		movs	r0, #16
  56              	.LVL1:
  57 0010 0A46     		mov	r2, r1
ARM GAS  /tmp/cccciJDL.s 			page 2


  58 0012 FFF7FEFF 		bl	netconn_new_with_proto_and_callback
  59              	.LVL2:
  60              		.loc 1 103 0
  61 0016 0546     		mov	r5, r0
  62 0018 0028     		cmp	r0, #0
  63 001a 48D0     		beq	.L12
  64              		.loc 1 106 0
  65 001c 5022     		movs	r2, #80
  66 001e 0021     		movs	r1, #0
  67 0020 FFF7FEFF 		bl	netconn_bind
  68              	.LVL3:
  69              		.loc 1 109 0
  70 0024 2846     		mov	r0, r5
  71 0026 FF21     		movs	r1, #255
  72 0028 FFF7FEFF 		bl	netconn_listen_with_backlog
  73              	.LVL4:
  74              		.loc 1 112 0
  75 002c 0420     		movs	r0, #4
  76 002e FFF7FEFF 		bl	chThdSetPriority
  77              	.LVL5:
  78              	.L10:
  79              		.loc 1 115 0
  80 0032 01A9     		add	r1, sp, #4
  81 0034 2846     		mov	r0, r5
  82 0036 FFF7FEFF 		bl	netconn_accept
  83              	.LVL6:
  84              	.LBB4:
  85              	.LBB5:
  86              		.loc 1 54 0
  87 003a 02A9     		add	r1, sp, #8
  88              	.LBE5:
  89              	.LBE4:
  90              		.loc 1 116 0
  91 003c 0028     		cmp	r0, #0
  92 003e F8D1     		bne	.L10
  93              		.loc 1 118 0
  94 0040 019C     		ldr	r4, [sp, #4]
  95              	.LVL7:
  96              	.LBB8:
  97              	.LBB6:
  98              		.loc 1 54 0
  99 0042 2046     		mov	r0, r4
 100              	.LVL8:
 101 0044 FFF7FEFF 		bl	netconn_recv
 102              	.LVL9:
 103              		.loc 1 56 0
 104 0048 0646     		mov	r6, r0
 105 004a 48B1     		cbz	r0, .L14
 106              	.LVL10:
 107              	.L5:
 108              		.loc 1 79 0
 109 004c 2046     		mov	r0, r4
 110 004e FFF7FEFF 		bl	netconn_close
 111              	.LVL11:
 112              		.loc 1 83 0
 113 0052 0298     		ldr	r0, [sp, #8]
 114 0054 FFF7FEFF 		bl	netbuf_delete
ARM GAS  /tmp/cccciJDL.s 			page 3


 115              	.LVL12:
 116              	.LBE6:
 117              	.LBE8:
 118              		.loc 1 119 0
 119 0058 0198     		ldr	r0, [sp, #4]
 120 005a FFF7FEFF 		bl	netconn_delete
 121              	.LVL13:
 122 005e E8E7     		b	.L10
 123              	.LVL14:
 124              	.L14:
 125              	.LBB9:
 126              	.LBB7:
 127              		.loc 1 57 0
 128 0060 03A9     		add	r1, sp, #12
 129 0062 0DF10202 		add	r2, sp, #2
 130 0066 0298     		ldr	r0, [sp, #8]
 131              	.LVL15:
 132 0068 FFF7FEFF 		bl	netbuf_data
 133              	.LVL16:
 134              		.loc 1 61 0
 135 006c BDF80230 		ldrh	r3, [sp, #2]
 136              	.LVL17:
 137 0070 042B     		cmp	r3, #4
 138              	.LVL18:
 139 0072 EBD9     		bls	.L5
 140              		.loc 1 62 0
 141 0074 039B     		ldr	r3, [sp, #12]
 142              	.LVL19:
 143              		.loc 1 61 0
 144 0076 1A78     		ldrb	r2, [r3, #0]	@ zero_extendqisi2
 145 0078 472A     		cmp	r2, #71
 146 007a E7D1     		bne	.L5
 147              		.loc 1 62 0
 148 007c 5A78     		ldrb	r2, [r3, #1]	@ zero_extendqisi2
 149 007e 452A     		cmp	r2, #69
 150 0080 E4D1     		bne	.L5
 151              		.loc 1 63 0
 152 0082 9A78     		ldrb	r2, [r3, #2]	@ zero_extendqisi2
 153 0084 542A     		cmp	r2, #84
 154 0086 E1D1     		bne	.L5
 155              		.loc 1 64 0
 156 0088 DA78     		ldrb	r2, [r3, #3]	@ zero_extendqisi2
 157 008a 202A     		cmp	r2, #32
 158 008c DED1     		bne	.L5
 159              		.loc 1 65 0
 160 008e 1B79     		ldrb	r3, [r3, #4]	@ zero_extendqisi2
 161 0090 2F2B     		cmp	r3, #47
 162 0092 DBD1     		bne	.L5
 163              		.loc 1 72 0
 164 0094 3346     		mov	r3, r6
 165 0096 2C22     		movs	r2, #44
 166 0098 2046     		mov	r0, r4
 167 009a 0A49     		ldr	r1, .L15+8
 168 009c FFF7FEFF 		bl	netconn_write
 169              	.LVL20:
 170              		.loc 1 75 0
 171 00a0 2046     		mov	r0, r4
ARM GAS  /tmp/cccciJDL.s 			page 4


 172 00a2 0949     		ldr	r1, .L15+12
 173 00a4 8522     		movs	r2, #133
 174 00a6 3346     		mov	r3, r6
 175 00a8 FFF7FEFF 		bl	netconn_write
 176              	.LVL21:
 177 00ac CEE7     		b	.L5
 178              	.LVL22:
 179              	.L12:
 180              	.LBE7:
 181              	.LBE9:
 182              		.loc 1 103 0 discriminator 1
 183 00ae FFF7FEFF 		bl	port_halt
 184              	.LVL23:
 185              		.loc 1 122 0 discriminator 1
 186 00b2 6FF00100 		mvn	r0, #1
 187 00b6 04B0     		add	sp, sp, #16
 188 00b8 70BD     		pop	{r4, r5, r6, pc}
 189              	.L16:
 190 00ba 00BF     		.align	2
 191              	.L15:
 192 00bc 00000000 		.word	rlist
 193 00c0 00000000 		.word	.LC0
 194 00c4 00000000 		.word	.LANCHOR0
 195 00c8 00000000 		.word	.LANCHOR1
 196              		.cfi_endproc
 197              	.LFE8:
 198              		.size	http_server, .-http_server
 199              		.global	wa_http_server
 200 00cc AFF30080 		.section	.rodata.http_index_html,"a",%progbits
 201              		.align	2
 202              		.set	.LANCHOR1,. + 0
 203              		.type	http_index_html, %object
 204              		.size	http_index_html, 134
 205              	http_index_html:
 206 0000 3C68746D 		.ascii	"<html><head><title>Congrats!</title></head><body><h"
 206      6C3E3C68 
 206      6561643E 
 206      3C746974 
 206      6C653E43 
 207 0033 313E5765 		.ascii	"1>Welcome to our lwIP HTTP server!</h1><p>This is a"
 207      6C636F6D 
 207      6520746F 
 207      206F7572 
 207      206C7749 
 208 0066 20736D61 		.ascii	" small test page.</body></html>\000"
 208      6C6C2074 
 208      65737420 
 208      70616765 
 208      2E3C2F62 
 209 0086 0000     		.section	.rodata.str1.4,"aMS",%progbits,1
 210              		.align	2
 211              	.LC0:
 212 0000 68747470 		.ascii	"http\000"
 212      00
 213 0005 000000   		.section	.bss.wa_http_server,"aw",%nobits
 214              		.align	3
 215              		.type	wa_http_server, %object
ARM GAS  /tmp/cccciJDL.s 			page 5


 216              		.size	wa_http_server, 1200
 217              	wa_http_server:
 218 0000 00000000 		.space	1200
 218      00000000 
 218      00000000 
 218      00000000 
 218      00000000 
 219              		.section	.rodata.http_html_hdr,"a",%progbits
 220              		.align	2
 221              		.set	.LANCHOR0,. + 0
 222              		.type	http_html_hdr, %object
 223              		.size	http_html_hdr, 45
 224              	http_html_hdr:
 225 0000 48545450 		.ascii	"HTTP/1.1 200 OK\015\012Content-type: text/html\015\012"
 225      2F312E31 
 225      20323030 
 225      204F4B0D 
 225      0A436F6E 
 226 002a 0D0A00   		.ascii	"\015\012\000"
 227 002d 000000   		.text
 228              	.Letext0:
 229              		.file 2 "/opt/psas/x-tools/stm32f407/arm-psas-eabi/bin/../lib/gcc/arm-psas-eabi/4.7.2/include/stdd
 230              		.file 3 "/opt/psas/x-tools/stm32f407/arm-psas-eabi/bin/../lib/gcc/arm-psas-eabi/4.7.2/../../../../
 231              		.file 4 "../../os/ports/GCC/ARMCMx/chtypes.h"
 232              		.file 5 "../../os/kernel/include/chlists.h"
 233              		.file 6 "../../os/kernel/include/chthreads.h"
 234              		.file 7 "../../os/ports/GCC/ARMCMx/chcore_v7m.h"
 235              		.file 8 "../../os/kernel/include/chschd.h"
 236              		.file 9 "../../os/kernel/include/chsem.h"
 237              		.file 10 "../../os/kernel/include/chmtx.h"
 238              		.file 11 "../../os/kernel/include/chmboxes.h"
 239              		.file 12 "../../os/various/lwip_bindings/arch/cc.h"
 240              		.file 13 "../../ext/lwip/src/include/lwip/err.h"
 241              		.file 14 "../../ext/lwip/src/include/lwip/pbuf.h"
 242              		.file 15 "../../ext/lwip/src/include/ipv4/lwip/ip_addr.h"
 243              		.file 16 "../../ext/lwip/src/include/lwip/netbuf.h"
 244              		.file 17 "../../os/various/lwip_bindings/arch/sys_arch.h"
 245              		.file 18 "../../ext/lwip/src/include/lwip/api.h"
 246              		.section	.debug_info,"",%progbits
 247              	.Ldebug_info0:
 248 0000 3A0C0000 		.4byte	0xc3a
 249 0004 0200     		.2byte	0x2
 250 0006 00000000 		.4byte	.Ldebug_abbrev0
 251 000a 04       		.byte	0x4
 252 000b 01       		.uleb128 0x1
 253 000c 3C010000 		.4byte	.LASF149
 254 0010 01       		.byte	0x1
 255 0011 DF040000 		.4byte	.LASF150
 256 0015 5D030000 		.4byte	.LASF151
 257 0019 40000000 		.4byte	.Ldebug_ranges0+0x40
 258 001d 00000000 		.4byte	0
 259 0021 00000000 		.4byte	0
 260 0025 00000000 		.4byte	.Ldebug_line0
 261 0029 02       		.uleb128 0x2
 262 002a 04       		.byte	0x4
 263 002b 05       		.byte	0x5
 264 002c 696E7400 		.ascii	"int\000"
ARM GAS  /tmp/cccciJDL.s 			page 6


 265 0030 03       		.uleb128 0x3
 266 0031 DB010000 		.4byte	.LASF1
 267 0035 02       		.byte	0x2
 268 0036 D5       		.byte	0xd5
 269 0037 3B000000 		.4byte	0x3b
 270 003b 04       		.uleb128 0x4
 271 003c 04       		.byte	0x4
 272 003d 07       		.byte	0x7
 273 003e 7C000000 		.4byte	.LASF0
 274 0042 03       		.uleb128 0x3
 275 0043 22010000 		.4byte	.LASF2
 276 0047 03       		.byte	0x3
 277 0048 29       		.byte	0x29
 278 0049 4D000000 		.4byte	0x4d
 279 004d 04       		.uleb128 0x4
 280 004e 01       		.byte	0x1
 281 004f 06       		.byte	0x6
 282 0050 08060000 		.4byte	.LASF3
 283 0054 03       		.uleb128 0x3
 284 0055 E0020000 		.4byte	.LASF4
 285 0059 03       		.byte	0x3
 286 005a 2A       		.byte	0x2a
 287 005b 5F000000 		.4byte	0x5f
 288 005f 04       		.uleb128 0x4
 289 0060 01       		.byte	0x1
 290 0061 08       		.byte	0x8
 291 0062 75050000 		.4byte	.LASF5
 292 0066 04       		.uleb128 0x4
 293 0067 02       		.byte	0x2
 294 0068 05       		.byte	0x5
 295 0069 3A040000 		.4byte	.LASF6
 296 006d 03       		.uleb128 0x3
 297 006e D5030000 		.4byte	.LASF7
 298 0072 03       		.byte	0x3
 299 0073 36       		.byte	0x36
 300 0074 78000000 		.4byte	0x78
 301 0078 04       		.uleb128 0x4
 302 0079 02       		.byte	0x2
 303 007a 07       		.byte	0x7
 304 007b 1C060000 		.4byte	.LASF8
 305 007f 03       		.uleb128 0x3
 306 0080 2A050000 		.4byte	.LASF9
 307 0084 03       		.byte	0x3
 308 0085 4F       		.byte	0x4f
 309 0086 8A000000 		.4byte	0x8a
 310 008a 04       		.uleb128 0x4
 311 008b 04       		.byte	0x4
 312 008c 05       		.byte	0x5
 313 008d 6A040000 		.4byte	.LASF10
 314 0091 03       		.uleb128 0x3
 315 0092 19010000 		.4byte	.LASF11
 316 0096 03       		.byte	0x3
 317 0097 50       		.byte	0x50
 318 0098 9C000000 		.4byte	0x9c
 319 009c 04       		.uleb128 0x4
 320 009d 04       		.byte	0x4
 321 009e 07       		.byte	0x7
ARM GAS  /tmp/cccciJDL.s 			page 7


 322 009f 0E050000 		.4byte	.LASF12
 323 00a3 04       		.uleb128 0x4
 324 00a4 08       		.byte	0x8
 325 00a5 05       		.byte	0x5
 326 00a6 25030000 		.4byte	.LASF13
 327 00aa 03       		.uleb128 0x3
 328 00ab A2040000 		.4byte	.LASF14
 329 00af 03       		.byte	0x3
 330 00b0 78       		.byte	0x78
 331 00b1 B5000000 		.4byte	0xb5
 332 00b5 04       		.uleb128 0x4
 333 00b6 08       		.byte	0x8
 334 00b7 07       		.byte	0x7
 335 00b8 70010000 		.4byte	.LASF15
 336 00bc 03       		.uleb128 0x3
 337 00bd BF030000 		.4byte	.LASF16
 338 00c1 04       		.byte	0x4
 339 00c2 28       		.byte	0x28
 340 00c3 54000000 		.4byte	0x54
 341 00c7 03       		.uleb128 0x3
 342 00c8 C0020000 		.4byte	.LASF17
 343 00cc 04       		.byte	0x4
 344 00cd 29       		.byte	0x29
 345 00ce 54000000 		.4byte	0x54
 346 00d2 03       		.uleb128 0x3
 347 00d3 06050000 		.4byte	.LASF18
 348 00d7 04       		.byte	0x4
 349 00d8 2A       		.byte	0x2a
 350 00d9 54000000 		.4byte	0x54
 351 00dd 03       		.uleb128 0x3
 352 00de A7030000 		.4byte	.LASF19
 353 00e2 04       		.byte	0x4
 354 00e3 2B       		.byte	0x2b
 355 00e4 54000000 		.4byte	0x54
 356 00e8 03       		.uleb128 0x3
 357 00e9 5A010000 		.4byte	.LASF20
 358 00ed 04       		.byte	0x4
 359 00ee 2C       		.byte	0x2c
 360 00ef 91000000 		.4byte	0x91
 361 00f3 03       		.uleb128 0x3
 362 00f4 3B030000 		.4byte	.LASF21
 363 00f8 04       		.byte	0x4
 364 00f9 2D       		.byte	0x2d
 365 00fa 7F000000 		.4byte	0x7f
 366 00fe 03       		.uleb128 0x3
 367 00ff 29010000 		.4byte	.LASF22
 368 0103 04       		.byte	0x4
 369 0104 2F       		.byte	0x2f
 370 0105 91000000 		.4byte	0x91
 371 0109 03       		.uleb128 0x3
 372 010a 46000000 		.4byte	.LASF23
 373 010e 04       		.byte	0x4
 374 010f 31       		.byte	0x31
 375 0110 91000000 		.4byte	0x91
 376 0114 03       		.uleb128 0x3
 377 0115 A5010000 		.4byte	.LASF24
 378 0119 04       		.byte	0x4
ARM GAS  /tmp/cccciJDL.s 			page 8


 379 011a 32       		.byte	0x32
 380 011b 7F000000 		.4byte	0x7f
 381 011f 03       		.uleb128 0x3
 382 0120 B9020000 		.4byte	.LASF25
 383 0124 05       		.byte	0x5
 384 0125 23       		.byte	0x23
 385 0126 2A010000 		.4byte	0x12a
 386 012a 05       		.uleb128 0x5
 387 012b B9020000 		.4byte	.LASF25
 388 012f 48       		.byte	0x48
 389 0130 06       		.byte	0x6
 390 0131 57       		.byte	0x57
 391 0132 4F020000 		.4byte	0x24f
 392 0136 06       		.uleb128 0x6
 393 0137 8E040000 		.4byte	.LASF26
 394 013b 06       		.byte	0x6
 395 013c 58       		.byte	0x58
 396 013d 74020000 		.4byte	0x274
 397 0141 02       		.byte	0x2
 398 0142 23       		.byte	0x23
 399 0143 00       		.uleb128 0
 400 0144 06       		.uleb128 0x6
 401 0145 F6040000 		.4byte	.LASF27
 402 0149 06       		.byte	0x6
 403 014a 5A       		.byte	0x5a
 404 014b 74020000 		.4byte	0x274
 405 014f 02       		.byte	0x2
 406 0150 23       		.byte	0x23
 407 0151 04       		.uleb128 0x4
 408 0152 06       		.uleb128 0x6
 409 0153 39000000 		.4byte	.LASF28
 410 0157 06       		.byte	0x6
 411 0158 5C       		.byte	0x5c
 412 0159 E8000000 		.4byte	0xe8
 413 015d 02       		.byte	0x2
 414 015e 23       		.byte	0x23
 415 015f 08       		.uleb128 0x8
 416 0160 06       		.uleb128 0x6
 417 0161 AB040000 		.4byte	.LASF29
 418 0165 06       		.byte	0x6
 419 0166 5D       		.byte	0x5d
 420 0167 4D030000 		.4byte	0x34d
 421 016b 02       		.byte	0x2
 422 016c 23       		.byte	0x23
 423 016d 0C       		.uleb128 0xc
 424 016e 06       		.uleb128 0x6
 425 016f AB010000 		.4byte	.LASF30
 426 0173 06       		.byte	0x6
 427 0174 5F       		.byte	0x5f
 428 0175 74020000 		.4byte	0x274
 429 0179 02       		.byte	0x2
 430 017a 23       		.byte	0x23
 431 017b 10       		.uleb128 0x10
 432 017c 06       		.uleb128 0x6
 433 017d D0020000 		.4byte	.LASF31
 434 0181 06       		.byte	0x6
 435 0182 60       		.byte	0x60
ARM GAS  /tmp/cccciJDL.s 			page 9


 436 0183 74020000 		.4byte	0x274
 437 0187 02       		.byte	0x2
 438 0188 23       		.byte	0x23
 439 0189 14       		.uleb128 0x14
 440 018a 06       		.uleb128 0x6
 441 018b 76020000 		.4byte	.LASF32
 442 018f 06       		.byte	0x6
 443 0190 67       		.byte	0x67
 444 0191 03050000 		.4byte	0x503
 445 0195 02       		.byte	0x2
 446 0196 23       		.byte	0x23
 447 0197 18       		.uleb128 0x18
 448 0198 06       		.uleb128 0x6
 449 0199 D8020000 		.4byte	.LASF33
 450 019d 06       		.byte	0x6
 451 019e 72       		.byte	0x72
 452 019f C7000000 		.4byte	0xc7
 453 01a3 02       		.byte	0x2
 454 01a4 23       		.byte	0x23
 455 01a5 1C       		.uleb128 0x1c
 456 01a6 06       		.uleb128 0x6
 457 01a7 4E030000 		.4byte	.LASF34
 458 01ab 06       		.byte	0x6
 459 01ac 76       		.byte	0x76
 460 01ad BC000000 		.4byte	0xbc
 461 01b1 02       		.byte	0x2
 462 01b2 23       		.byte	0x23
 463 01b3 1D       		.uleb128 0x1d
 464 01b4 06       		.uleb128 0x6
 465 01b5 83050000 		.4byte	.LASF35
 466 01b9 06       		.byte	0x6
 467 01ba 7B       		.byte	0x7b
 468 01bb D2000000 		.4byte	0xd2
 469 01bf 02       		.byte	0x2
 470 01c0 23       		.byte	0x23
 471 01c1 1E       		.uleb128 0x1e
 472 01c2 06       		.uleb128 0x6
 473 01c3 C0050000 		.4byte	.LASF36
 474 01c7 06       		.byte	0x6
 475 01c8 81       		.byte	0x81
 476 01c9 DD000000 		.4byte	0xdd
 477 01cd 02       		.byte	0x2
 478 01ce 23       		.byte	0x23
 479 01cf 1F       		.uleb128 0x1f
 480 01d0 06       		.uleb128 0x6
 481 01d1 29000000 		.4byte	.LASF37
 482 01d5 06       		.byte	0x6
 483 01d6 88       		.byte	0x88
 484 01d7 77030000 		.4byte	0x377
 485 01db 02       		.byte	0x2
 486 01dc 23       		.byte	0x23
 487 01dd 20       		.uleb128 0x20
 488 01de 07       		.uleb128 0x7
 489 01df 705F7500 		.ascii	"p_u\000"
 490 01e3 06       		.byte	0x6
 491 01e4 AD       		.byte	0xad
 492 01e5 CE040000 		.4byte	0x4ce
ARM GAS  /tmp/cccciJDL.s 			page 10


 493 01e9 02       		.byte	0x2
 494 01ea 23       		.byte	0x23
 495 01eb 24       		.uleb128 0x24
 496 01ec 06       		.uleb128 0x6
 497 01ed 0C000000 		.4byte	.LASF38
 498 01f1 06       		.byte	0x6
 499 01f2 B2       		.byte	0xb2
 500 01f3 9C020000 		.4byte	0x29c
 501 01f7 02       		.byte	0x2
 502 01f8 23       		.byte	0x23
 503 01f9 28       		.uleb128 0x28
 504 01fa 06       		.uleb128 0x6
 505 01fb 71000000 		.4byte	.LASF39
 506 01ff 06       		.byte	0x6
 507 0200 B8       		.byte	0xb8
 508 0201 7A020000 		.4byte	0x27a
 509 0205 02       		.byte	0x2
 510 0206 23       		.byte	0x23
 511 0207 2C       		.uleb128 0x2c
 512 0208 06       		.uleb128 0x6
 513 0209 B9030000 		.4byte	.LASF40
 514 020d 06       		.byte	0x6
 515 020e BC       		.byte	0xbc
 516 020f F3000000 		.4byte	0xf3
 517 0213 02       		.byte	0x2
 518 0214 23       		.byte	0x23
 519 0215 34       		.uleb128 0x34
 520 0216 06       		.uleb128 0x6
 521 0217 57040000 		.4byte	.LASF41
 522 021b 06       		.byte	0x6
 523 021c C2       		.byte	0xc2
 524 021d FE000000 		.4byte	0xfe
 525 0221 02       		.byte	0x2
 526 0222 23       		.byte	0x23
 527 0223 38       		.uleb128 0x38
 528 0224 06       		.uleb128 0x6
 529 0225 01030000 		.4byte	.LASF42
 530 0229 06       		.byte	0x6
 531 022a C9       		.byte	0xc9
 532 022b 15050000 		.4byte	0x515
 533 022f 02       		.byte	0x2
 534 0230 23       		.byte	0x23
 535 0231 3C       		.uleb128 0x3c
 536 0232 06       		.uleb128 0x6
 537 0233 29040000 		.4byte	.LASF43
 538 0237 06       		.byte	0x6
 539 0238 CD       		.byte	0xcd
 540 0239 E8000000 		.4byte	0xe8
 541 023d 02       		.byte	0x2
 542 023e 23       		.byte	0x23
 543 023f 40       		.uleb128 0x40
 544 0240 06       		.uleb128 0x6
 545 0241 F3020000 		.4byte	.LASF44
 546 0245 06       		.byte	0x6
 547 0246 D3       		.byte	0xd3
 548 0247 B2020000 		.4byte	0x2b2
 549 024b 02       		.byte	0x2
ARM GAS  /tmp/cccciJDL.s 			page 11


 550 024c 23       		.byte	0x23
 551 024d 44       		.uleb128 0x44
 552 024e 00       		.byte	0
 553 024f 08       		.uleb128 0x8
 554 0250 08       		.byte	0x8
 555 0251 05       		.byte	0x5
 556 0252 5A       		.byte	0x5a
 557 0253 74020000 		.4byte	0x274
 558 0257 06       		.uleb128 0x6
 559 0258 8E040000 		.4byte	.LASF26
 560 025c 05       		.byte	0x5
 561 025d 5B       		.byte	0x5b
 562 025e 74020000 		.4byte	0x274
 563 0262 02       		.byte	0x2
 564 0263 23       		.byte	0x23
 565 0264 00       		.uleb128 0
 566 0265 06       		.uleb128 0x6
 567 0266 F6040000 		.4byte	.LASF27
 568 026a 05       		.byte	0x5
 569 026b 5D       		.byte	0x5d
 570 026c 74020000 		.4byte	0x274
 571 0270 02       		.byte	0x2
 572 0271 23       		.byte	0x23
 573 0272 04       		.uleb128 0x4
 574 0273 00       		.byte	0
 575 0274 09       		.uleb128 0x9
 576 0275 04       		.byte	0x4
 577 0276 1F010000 		.4byte	0x11f
 578 027a 03       		.uleb128 0x3
 579 027b 7D020000 		.4byte	.LASF45
 580 027f 05       		.byte	0x5
 581 0280 5F       		.byte	0x5f
 582 0281 4F020000 		.4byte	0x24f
 583 0285 08       		.uleb128 0x8
 584 0286 04       		.byte	0x4
 585 0287 05       		.byte	0x5
 586 0288 64       		.byte	0x64
 587 0289 9C020000 		.4byte	0x29c
 588 028d 06       		.uleb128 0x6
 589 028e 8E040000 		.4byte	.LASF26
 590 0292 05       		.byte	0x5
 591 0293 66       		.byte	0x66
 592 0294 74020000 		.4byte	0x274
 593 0298 02       		.byte	0x2
 594 0299 23       		.byte	0x23
 595 029a 00       		.uleb128 0
 596 029b 00       		.byte	0
 597 029c 03       		.uleb128 0x3
 598 029d 00000000 		.4byte	.LASF46
 599 02a1 05       		.byte	0x5
 600 02a2 69       		.byte	0x69
 601 02a3 85020000 		.4byte	0x285
 602 02a7 03       		.uleb128 0x3
 603 02a8 30000000 		.4byte	.LASF47
 604 02ac 07       		.byte	0x7
 605 02ad DE       		.byte	0xde
 606 02ae B2020000 		.4byte	0x2b2
ARM GAS  /tmp/cccciJDL.s 			page 12


 607 02b2 0A       		.uleb128 0xa
 608 02b3 04       		.byte	0x4
 609 02b4 03       		.uleb128 0x3
 610 02b5 35060000 		.4byte	.LASF48
 611 02b9 07       		.byte	0x7
 612 02ba E4       		.byte	0xe4
 613 02bb AA000000 		.4byte	0xaa
 614 02bf 0B       		.uleb128 0xb
 615 02c0 F9030000 		.4byte	.LASF49
 616 02c4 24       		.byte	0x24
 617 02c5 07       		.byte	0x7
 618 02c6 0501     		.2byte	0x105
 619 02c8 4D030000 		.4byte	0x34d
 620 02cc 0C       		.uleb128 0xc
 621 02cd 723400   		.ascii	"r4\000"
 622 02d0 07       		.byte	0x7
 623 02d1 1801     		.2byte	0x118
 624 02d3 A7020000 		.4byte	0x2a7
 625 02d7 02       		.byte	0x2
 626 02d8 23       		.byte	0x23
 627 02d9 00       		.uleb128 0
 628 02da 0C       		.uleb128 0xc
 629 02db 723500   		.ascii	"r5\000"
 630 02de 07       		.byte	0x7
 631 02df 1901     		.2byte	0x119
 632 02e1 A7020000 		.4byte	0x2a7
 633 02e5 02       		.byte	0x2
 634 02e6 23       		.byte	0x23
 635 02e7 04       		.uleb128 0x4
 636 02e8 0C       		.uleb128 0xc
 637 02e9 723600   		.ascii	"r6\000"
 638 02ec 07       		.byte	0x7
 639 02ed 1A01     		.2byte	0x11a
 640 02ef A7020000 		.4byte	0x2a7
 641 02f3 02       		.byte	0x2
 642 02f4 23       		.byte	0x23
 643 02f5 08       		.uleb128 0x8
 644 02f6 0C       		.uleb128 0xc
 645 02f7 723700   		.ascii	"r7\000"
 646 02fa 07       		.byte	0x7
 647 02fb 1B01     		.2byte	0x11b
 648 02fd A7020000 		.4byte	0x2a7
 649 0301 02       		.byte	0x2
 650 0302 23       		.byte	0x23
 651 0303 0C       		.uleb128 0xc
 652 0304 0C       		.uleb128 0xc
 653 0305 723800   		.ascii	"r8\000"
 654 0308 07       		.byte	0x7
 655 0309 1C01     		.2byte	0x11c
 656 030b A7020000 		.4byte	0x2a7
 657 030f 02       		.byte	0x2
 658 0310 23       		.byte	0x23
 659 0311 10       		.uleb128 0x10
 660 0312 0C       		.uleb128 0xc
 661 0313 723900   		.ascii	"r9\000"
 662 0316 07       		.byte	0x7
 663 0317 1D01     		.2byte	0x11d
ARM GAS  /tmp/cccciJDL.s 			page 13


 664 0319 A7020000 		.4byte	0x2a7
 665 031d 02       		.byte	0x2
 666 031e 23       		.byte	0x23
 667 031f 14       		.uleb128 0x14
 668 0320 0C       		.uleb128 0xc
 669 0321 72313000 		.ascii	"r10\000"
 670 0325 07       		.byte	0x7
 671 0326 1E01     		.2byte	0x11e
 672 0328 A7020000 		.4byte	0x2a7
 673 032c 02       		.byte	0x2
 674 032d 23       		.byte	0x23
 675 032e 18       		.uleb128 0x18
 676 032f 0C       		.uleb128 0xc
 677 0330 72313100 		.ascii	"r11\000"
 678 0334 07       		.byte	0x7
 679 0335 1F01     		.2byte	0x11f
 680 0337 A7020000 		.4byte	0x2a7
 681 033b 02       		.byte	0x2
 682 033c 23       		.byte	0x23
 683 033d 1C       		.uleb128 0x1c
 684 033e 0C       		.uleb128 0xc
 685 033f 6C7200   		.ascii	"lr\000"
 686 0342 07       		.byte	0x7
 687 0343 2001     		.2byte	0x120
 688 0345 A7020000 		.4byte	0x2a7
 689 0349 02       		.byte	0x2
 690 034a 23       		.byte	0x23
 691 034b 20       		.uleb128 0x20
 692 034c 00       		.byte	0
 693 034d 0B       		.uleb128 0xb
 694 034e 41030000 		.4byte	.LASF50
 695 0352 04       		.byte	0x4
 696 0353 07       		.byte	0x7
 697 0354 2A01     		.2byte	0x12a
 698 0356 6A030000 		.4byte	0x36a
 699 035a 0C       		.uleb128 0xc
 700 035b 72313300 		.ascii	"r13\000"
 701 035f 07       		.byte	0x7
 702 0360 2B01     		.2byte	0x12b
 703 0362 6A030000 		.4byte	0x36a
 704 0366 02       		.byte	0x2
 705 0367 23       		.byte	0x23
 706 0368 00       		.uleb128 0
 707 0369 00       		.byte	0
 708 036a 09       		.uleb128 0x9
 709 036b 04       		.byte	0x4
 710 036c BF020000 		.4byte	0x2bf
 711 0370 04       		.uleb128 0x4
 712 0371 04       		.byte	0x4
 713 0372 07       		.byte	0x7
 714 0373 FD040000 		.4byte	.LASF51
 715 0377 0D       		.uleb128 0xd
 716 0378 09010000 		.4byte	0x109
 717 037c 08       		.uleb128 0x8
 718 037d 1C       		.byte	0x1c
 719 037e 08       		.byte	0x8
 720 037f 57       		.byte	0x57
ARM GAS  /tmp/cccciJDL.s 			page 14


 721 0380 D9030000 		.4byte	0x3d9
 722 0384 06       		.uleb128 0x6
 723 0385 33030000 		.4byte	.LASF52
 724 0389 08       		.byte	0x8
 725 038a 58       		.byte	0x58
 726 038b 7A020000 		.4byte	0x27a
 727 038f 02       		.byte	0x2
 728 0390 23       		.byte	0x23
 729 0391 00       		.uleb128 0
 730 0392 06       		.uleb128 0x6
 731 0393 35010000 		.4byte	.LASF53
 732 0397 08       		.byte	0x8
 733 0398 59       		.byte	0x59
 734 0399 E8000000 		.4byte	0xe8
 735 039d 02       		.byte	0x2
 736 039e 23       		.byte	0x23
 737 039f 08       		.uleb128 0x8
 738 03a0 06       		.uleb128 0x6
 739 03a1 2F060000 		.4byte	.LASF54
 740 03a5 08       		.byte	0x8
 741 03a6 5B       		.byte	0x5b
 742 03a7 4D030000 		.4byte	0x34d
 743 03ab 02       		.byte	0x2
 744 03ac 23       		.byte	0x23
 745 03ad 0C       		.uleb128 0xc
 746 03ae 06       		.uleb128 0x6
 747 03af B1020000 		.4byte	.LASF55
 748 03b3 08       		.byte	0x8
 749 03b4 5E       		.byte	0x5e
 750 03b5 74020000 		.4byte	0x274
 751 03b9 02       		.byte	0x2
 752 03ba 23       		.byte	0x23
 753 03bb 10       		.uleb128 0x10
 754 03bc 06       		.uleb128 0x6
 755 03bd B1030000 		.4byte	.LASF56
 756 03c1 08       		.byte	0x8
 757 03c2 5F       		.byte	0x5f
 758 03c3 74020000 		.4byte	0x274
 759 03c7 02       		.byte	0x2
 760 03c8 23       		.byte	0x23
 761 03c9 14       		.uleb128 0x14
 762 03ca 06       		.uleb128 0x6
 763 03cb 4D040000 		.4byte	.LASF57
 764 03cf 08       		.byte	0x8
 765 03d0 62       		.byte	0x62
 766 03d1 74020000 		.4byte	0x274
 767 03d5 02       		.byte	0x2
 768 03d6 23       		.byte	0x23
 769 03d7 18       		.uleb128 0x18
 770 03d8 00       		.byte	0
 771 03d9 03       		.uleb128 0x3
 772 03da 8A050000 		.4byte	.LASF58
 773 03de 08       		.byte	0x8
 774 03df 64       		.byte	0x64
 775 03e0 7C030000 		.4byte	0x37c
 776 03e4 05       		.uleb128 0x5
 777 03e5 CE040000 		.4byte	.LASF59
ARM GAS  /tmp/cccciJDL.s 			page 15


 778 03e9 0C       		.byte	0xc
 779 03ea 09       		.byte	0x9
 780 03eb 25       		.byte	0x25
 781 03ec 0D040000 		.4byte	0x40d
 782 03f0 06       		.uleb128 0x6
 783 03f1 58000000 		.4byte	.LASF60
 784 03f5 09       		.byte	0x9
 785 03f6 26       		.byte	0x26
 786 03f7 7A020000 		.4byte	0x27a
 787 03fb 02       		.byte	0x2
 788 03fc 23       		.byte	0x23
 789 03fd 00       		.uleb128 0
 790 03fe 06       		.uleb128 0x6
 791 03ff 13010000 		.4byte	.LASF61
 792 0403 09       		.byte	0x9
 793 0404 28       		.byte	0x28
 794 0405 14010000 		.4byte	0x114
 795 0409 02       		.byte	0x2
 796 040a 23       		.byte	0x23
 797 040b 08       		.uleb128 0x8
 798 040c 00       		.byte	0
 799 040d 03       		.uleb128 0x3
 800 040e CE040000 		.4byte	.LASF59
 801 0412 09       		.byte	0x9
 802 0413 29       		.byte	0x29
 803 0414 E4030000 		.4byte	0x3e4
 804 0418 05       		.uleb128 0x5
 805 0419 1C020000 		.4byte	.LASF62
 806 041d 10       		.byte	0x10
 807 041e 0A       		.byte	0xa
 808 041f 25       		.byte	0x25
 809 0420 4F040000 		.4byte	0x44f
 810 0424 06       		.uleb128 0x6
 811 0425 62040000 		.4byte	.LASF63
 812 0429 0A       		.byte	0xa
 813 042a 26       		.byte	0x26
 814 042b 7A020000 		.4byte	0x27a
 815 042f 02       		.byte	0x2
 816 0430 23       		.byte	0x23
 817 0431 00       		.uleb128 0
 818 0432 06       		.uleb128 0x6
 819 0433 50000000 		.4byte	.LASF64
 820 0437 0A       		.byte	0xa
 821 0438 28       		.byte	0x28
 822 0439 74020000 		.4byte	0x274
 823 043d 02       		.byte	0x2
 824 043e 23       		.byte	0x23
 825 043f 08       		.uleb128 0x8
 826 0440 06       		.uleb128 0x6
 827 0441 F9050000 		.4byte	.LASF65
 828 0445 0A       		.byte	0xa
 829 0446 2A       		.byte	0x2a
 830 0447 4F040000 		.4byte	0x44f
 831 044b 02       		.byte	0x2
 832 044c 23       		.byte	0x23
 833 044d 0C       		.uleb128 0xc
 834 044e 00       		.byte	0
ARM GAS  /tmp/cccciJDL.s 			page 16


 835 044f 09       		.uleb128 0x9
 836 0450 04       		.byte	0x4
 837 0451 18040000 		.4byte	0x418
 838 0455 03       		.uleb128 0x3
 839 0456 1C020000 		.4byte	.LASF62
 840 045a 0A       		.byte	0xa
 841 045b 2C       		.byte	0x2c
 842 045c 18040000 		.4byte	0x418
 843 0460 08       		.uleb128 0x8
 844 0461 28       		.byte	0x28
 845 0462 0B       		.byte	0xb
 846 0463 2C       		.byte	0x2c
 847 0464 BD040000 		.4byte	0x4bd
 848 0468 06       		.uleb128 0x6
 849 0469 20050000 		.4byte	.LASF66
 850 046d 0B       		.byte	0xb
 851 046e 2D       		.byte	0x2d
 852 046f BD040000 		.4byte	0x4bd
 853 0473 02       		.byte	0x2
 854 0474 23       		.byte	0x23
 855 0475 00       		.uleb128 0
 856 0476 06       		.uleb128 0x6
 857 0477 56030000 		.4byte	.LASF67
 858 047b 0B       		.byte	0xb
 859 047c 2F       		.byte	0x2f
 860 047d BD040000 		.4byte	0x4bd
 861 0481 02       		.byte	0x2
 862 0482 23       		.byte	0x23
 863 0483 04       		.uleb128 0x4
 864 0484 06       		.uleb128 0x6
 865 0485 44040000 		.4byte	.LASF68
 866 0489 0B       		.byte	0xb
 867 048a 31       		.byte	0x31
 868 048b BD040000 		.4byte	0x4bd
 869 048f 02       		.byte	0x2
 870 0490 23       		.byte	0x23
 871 0491 08       		.uleb128 0x8
 872 0492 06       		.uleb128 0x6
 873 0493 F6010000 		.4byte	.LASF69
 874 0497 0B       		.byte	0xb
 875 0498 32       		.byte	0x32
 876 0499 BD040000 		.4byte	0x4bd
 877 049d 02       		.byte	0x2
 878 049e 23       		.byte	0x23
 879 049f 0C       		.uleb128 0xc
 880 04a0 06       		.uleb128 0x6
 881 04a1 E8020000 		.4byte	.LASF70
 882 04a5 0B       		.byte	0xb
 883 04a6 33       		.byte	0x33
 884 04a7 0D040000 		.4byte	0x40d
 885 04ab 02       		.byte	0x2
 886 04ac 23       		.byte	0x23
 887 04ad 10       		.uleb128 0x10
 888 04ae 06       		.uleb128 0x6
 889 04af 22020000 		.4byte	.LASF71
 890 04b3 0B       		.byte	0xb
 891 04b4 35       		.byte	0x35
ARM GAS  /tmp/cccciJDL.s 			page 17


 892 04b5 0D040000 		.4byte	0x40d
 893 04b9 02       		.byte	0x2
 894 04ba 23       		.byte	0x23
 895 04bb 1C       		.uleb128 0x1c
 896 04bc 00       		.byte	0
 897 04bd 09       		.uleb128 0x9
 898 04be 04       		.byte	0x4
 899 04bf F3000000 		.4byte	0xf3
 900 04c3 03       		.uleb128 0x3
 901 04c4 FD000000 		.4byte	.LASF72
 902 04c8 0B       		.byte	0xb
 903 04c9 37       		.byte	0x37
 904 04ca 60040000 		.4byte	0x460
 905 04ce 0E       		.uleb128 0xe
 906 04cf 04       		.byte	0x4
 907 04d0 06       		.byte	0x6
 908 04d1 8F       		.byte	0x8f
 909 04d2 03050000 		.4byte	0x503
 910 04d6 0F       		.uleb128 0xf
 911 04d7 E2010000 		.4byte	.LASF73
 912 04db 06       		.byte	0x6
 913 04dc 96       		.byte	0x96
 914 04dd F3000000 		.4byte	0xf3
 915 04e1 0F       		.uleb128 0xf
 916 04e2 8C060000 		.4byte	.LASF74
 917 04e6 06       		.byte	0x6
 918 04e7 9D       		.byte	0x9d
 919 04e8 F3000000 		.4byte	0xf3
 920 04ec 0F       		.uleb128 0xf
 921 04ed BC000000 		.4byte	.LASF75
 922 04f1 06       		.byte	0x6
 923 04f2 A4       		.byte	0xa4
 924 04f3 B2020000 		.4byte	0x2b2
 925 04f7 0F       		.uleb128 0xf
 926 04f8 F6000000 		.4byte	.LASF76
 927 04fc 06       		.byte	0x6
 928 04fd AB       		.byte	0xab
 929 04fe FE000000 		.4byte	0xfe
 930 0502 00       		.byte	0
 931 0503 09       		.uleb128 0x9
 932 0504 04       		.byte	0x4
 933 0505 09050000 		.4byte	0x509
 934 0509 10       		.uleb128 0x10
 935 050a 0E050000 		.4byte	0x50e
 936 050e 04       		.uleb128 0x4
 937 050f 01       		.byte	0x1
 938 0510 08       		.byte	0x8
 939 0511 96020000 		.4byte	.LASF77
 940 0515 09       		.uleb128 0x9
 941 0516 04       		.byte	0x4
 942 0517 55040000 		.4byte	0x455
 943 051b 03       		.uleb128 0x3
 944 051c 49030000 		.4byte	.LASF78
 945 0520 0C       		.byte	0xc
 946 0521 3C       		.byte	0x3c
 947 0522 54000000 		.4byte	0x54
 948 0526 03       		.uleb128 0x3
ARM GAS  /tmp/cccciJDL.s 			page 18


 949 0527 17020000 		.4byte	.LASF79
 950 052b 0C       		.byte	0xc
 951 052c 3D       		.byte	0x3d
 952 052d 42000000 		.4byte	0x42
 953 0531 03       		.uleb128 0x3
 954 0532 B6000000 		.4byte	.LASF80
 955 0536 0C       		.byte	0xc
 956 0537 3E       		.byte	0x3e
 957 0538 6D000000 		.4byte	0x6d
 958 053c 03       		.uleb128 0x3
 959 053d 34040000 		.4byte	.LASF81
 960 0541 0C       		.byte	0xc
 961 0542 40       		.byte	0x40
 962 0543 91000000 		.4byte	0x91
 963 0547 03       		.uleb128 0x3
 964 0548 B0000000 		.4byte	.LASF82
 965 054c 0D       		.byte	0xd
 966 054d 2F       		.byte	0x2f
 967 054e 26050000 		.4byte	0x526
 968 0552 05       		.uleb128 0x5
 969 0553 F1010000 		.4byte	.LASF83
 970 0557 10       		.byte	0x10
 971 0558 0E       		.byte	0xe
 972 0559 49       		.byte	0x49
 973 055a C1050000 		.4byte	0x5c1
 974 055e 06       		.uleb128 0x6
 975 055f 97000000 		.4byte	.LASF84
 976 0563 0E       		.byte	0xe
 977 0564 4B       		.byte	0x4b
 978 0565 C1050000 		.4byte	0x5c1
 979 0569 02       		.byte	0x2
 980 056a 23       		.byte	0x23
 981 056b 00       		.uleb128 0
 982 056c 06       		.uleb128 0x6
 983 056d E9010000 		.4byte	.LASF85
 984 0571 0E       		.byte	0xe
 985 0572 4E       		.byte	0x4e
 986 0573 B2020000 		.4byte	0x2b2
 987 0577 02       		.byte	0x2
 988 0578 23       		.byte	0x23
 989 0579 04       		.uleb128 0x4
 990 057a 06       		.uleb128 0x6
 991 057b D3010000 		.4byte	.LASF86
 992 057f 0E       		.byte	0xe
 993 0580 57       		.byte	0x57
 994 0581 31050000 		.4byte	0x531
 995 0585 02       		.byte	0x2
 996 0586 23       		.byte	0x23
 997 0587 08       		.uleb128 0x8
 998 0588 07       		.uleb128 0x7
 999 0589 6C656E00 		.ascii	"len\000"
 1000 058d 0E       		.byte	0xe
 1001 058e 5A       		.byte	0x5a
 1002 058f 31050000 		.4byte	0x531
 1003 0593 02       		.byte	0x2
 1004 0594 23       		.byte	0x23
 1005 0595 0A       		.uleb128 0xa
ARM GAS  /tmp/cccciJDL.s 			page 19


 1006 0596 06       		.uleb128 0x6
 1007 0597 70050000 		.4byte	.LASF87
 1008 059b 0E       		.byte	0xe
 1009 059c 5D       		.byte	0x5d
 1010 059d 1B050000 		.4byte	0x51b
 1011 05a1 02       		.byte	0x2
 1012 05a2 23       		.byte	0x23
 1013 05a3 0C       		.uleb128 0xc
 1014 05a4 06       		.uleb128 0x6
 1015 05a5 40000000 		.4byte	.LASF88
 1016 05a9 0E       		.byte	0xe
 1017 05aa 60       		.byte	0x60
 1018 05ab 1B050000 		.4byte	0x51b
 1019 05af 02       		.byte	0x2
 1020 05b0 23       		.byte	0x23
 1021 05b1 0D       		.uleb128 0xd
 1022 05b2 07       		.uleb128 0x7
 1023 05b3 72656600 		.ascii	"ref\000"
 1024 05b7 0E       		.byte	0xe
 1025 05b8 67       		.byte	0x67
 1026 05b9 31050000 		.4byte	0x531
 1027 05bd 02       		.byte	0x2
 1028 05be 23       		.byte	0x23
 1029 05bf 0E       		.uleb128 0xe
 1030 05c0 00       		.byte	0
 1031 05c1 09       		.uleb128 0x9
 1032 05c2 04       		.byte	0x4
 1033 05c3 52050000 		.4byte	0x552
 1034 05c7 05       		.uleb128 0x5
 1035 05c8 95060000 		.4byte	.LASF89
 1036 05cc 04       		.byte	0x4
 1037 05cd 0F       		.byte	0xf
 1038 05ce 2C       		.byte	0x2c
 1039 05cf E2050000 		.4byte	0x5e2
 1040 05d3 06       		.uleb128 0x6
 1041 05d4 D7050000 		.4byte	.LASF90
 1042 05d8 0F       		.byte	0xf
 1043 05d9 2D       		.byte	0x2d
 1044 05da 3C050000 		.4byte	0x53c
 1045 05de 02       		.byte	0x2
 1046 05df 23       		.byte	0x23
 1047 05e0 00       		.uleb128 0
 1048 05e1 00       		.byte	0
 1049 05e2 03       		.uleb128 0x3
 1050 05e3 7A060000 		.4byte	.LASF91
 1051 05e7 0F       		.byte	0xf
 1052 05e8 40       		.byte	0x40
 1053 05e9 C7050000 		.4byte	0x5c7
 1054 05ed 05       		.uleb128 0x5
 1055 05ee D8040000 		.4byte	.LASF92
 1056 05f2 10       		.byte	0x10
 1057 05f3 10       		.byte	0x10
 1058 05f4 30       		.byte	0x30
 1059 05f5 30060000 		.4byte	0x630
 1060 05f9 07       		.uleb128 0x7
 1061 05fa 7000     		.ascii	"p\000"
 1062 05fc 10       		.byte	0x10
ARM GAS  /tmp/cccciJDL.s 			page 20


 1063 05fd 31       		.byte	0x31
 1064 05fe C1050000 		.4byte	0x5c1
 1065 0602 02       		.byte	0x2
 1066 0603 23       		.byte	0x23
 1067 0604 00       		.uleb128 0
 1068 0605 07       		.uleb128 0x7
 1069 0606 70747200 		.ascii	"ptr\000"
 1070 060a 10       		.byte	0x10
 1071 060b 31       		.byte	0x31
 1072 060c C1050000 		.4byte	0x5c1
 1073 0610 02       		.byte	0x2
 1074 0611 23       		.byte	0x23
 1075 0612 04       		.uleb128 0x4
 1076 0613 06       		.uleb128 0x6
 1077 0614 D7050000 		.4byte	.LASF90
 1078 0618 10       		.byte	0x10
 1079 0619 32       		.byte	0x32
 1080 061a E2050000 		.4byte	0x5e2
 1081 061e 02       		.byte	0x2
 1082 061f 23       		.byte	0x23
 1083 0620 08       		.uleb128 0x8
 1084 0621 06       		.uleb128 0x6
 1085 0622 32050000 		.4byte	.LASF93
 1086 0626 10       		.byte	0x10
 1087 0627 33       		.byte	0x33
 1088 0628 31050000 		.4byte	0x531
 1089 062c 02       		.byte	0x2
 1090 062d 23       		.byte	0x23
 1091 062e 0C       		.uleb128 0xc
 1092 062f 00       		.byte	0
 1093 0630 03       		.uleb128 0x3
 1094 0631 04020000 		.4byte	.LASF94
 1095 0635 11       		.byte	0x11
 1096 0636 3C       		.byte	0x3c
 1097 0637 3B060000 		.4byte	0x63b
 1098 063b 09       		.uleb128 0x9
 1099 063c 04       		.byte	0x4
 1100 063d 0D040000 		.4byte	0x40d
 1101 0641 03       		.uleb128 0x3
 1102 0642 1E000000 		.4byte	.LASF95
 1103 0646 11       		.byte	0x11
 1104 0647 3D       		.byte	0x3d
 1105 0648 4C060000 		.4byte	0x64c
 1106 064c 09       		.uleb128 0x9
 1107 064d 04       		.byte	0x4
 1108 064e C3040000 		.4byte	0x4c3
 1109 0652 11       		.uleb128 0x11
 1110 0653 00040000 		.4byte	.LASF102
 1111 0657 01       		.byte	0x1
 1112 0658 12       		.byte	0x12
 1113 0659 53       		.byte	0x53
 1114 065a 84060000 		.4byte	0x684
 1115 065e 12       		.uleb128 0x12
 1116 065f 95010000 		.4byte	.LASF96
 1117 0663 00       		.sleb128 0
 1118 0664 12       		.uleb128 0x12
 1119 0665 9B050000 		.4byte	.LASF97
ARM GAS  /tmp/cccciJDL.s 			page 21


 1120 0669 10       		.sleb128 16
 1121 066a 12       		.uleb128 0x12
 1122 066b C7010000 		.4byte	.LASF98
 1123 066f 20       		.sleb128 32
 1124 0670 12       		.uleb128 0x12
 1125 0671 4C060000 		.4byte	.LASF99
 1126 0675 21       		.sleb128 33
 1127 0676 12       		.uleb128 0x12
 1128 0677 9C000000 		.4byte	.LASF100
 1129 067b 22       		.sleb128 34
 1130 067c 12       		.uleb128 0x12
 1131 067d 40060000 		.4byte	.LASF101
 1132 0681 C000     		.sleb128 64
 1133 0683 00       		.byte	0
 1134 0684 11       		.uleb128 0x11
 1135 0685 05010000 		.4byte	.LASF103
 1136 0689 01       		.byte	0x1
 1137 068a 12       		.byte	0x12
 1138 068b 61       		.byte	0x61
 1139 068c AF060000 		.4byte	0x6af
 1140 0690 12       		.uleb128 0x12
 1141 0691 EC030000 		.4byte	.LASF104
 1142 0695 00       		.sleb128 0
 1143 0696 12       		.uleb128 0x12
 1144 0697 89000000 		.4byte	.LASF105
 1145 069b 01       		.sleb128 1
 1146 069c 12       		.uleb128 0x12
 1147 069d A7050000 		.4byte	.LASF106
 1148 06a1 02       		.sleb128 2
 1149 06a2 12       		.uleb128 0x12
 1150 06a3 0D040000 		.4byte	.LASF107
 1151 06a7 03       		.sleb128 3
 1152 06a8 12       		.uleb128 0x12
 1153 06a9 EB050000 		.4byte	.LASF108
 1154 06ad 04       		.sleb128 4
 1155 06ae 00       		.byte	0
 1156 06af 11       		.uleb128 0x11
 1157 06b0 37050000 		.4byte	.LASF109
 1158 06b4 01       		.byte	0x1
 1159 06b5 12       		.byte	0x12
 1160 06b6 6A       		.byte	0x6a
 1161 06b7 DA060000 		.4byte	0x6da
 1162 06bb 12       		.uleb128 0x12
 1163 06bc B3010000 		.4byte	.LASF110
 1164 06c0 00       		.sleb128 0
 1165 06c1 12       		.uleb128 0x12
 1166 06c2 61020000 		.4byte	.LASF111
 1167 06c6 01       		.sleb128 1
 1168 06c7 12       		.uleb128 0x12
 1169 06c8 2E020000 		.4byte	.LASF112
 1170 06cc 02       		.sleb128 2
 1171 06cd 12       		.uleb128 0x12
 1172 06ce 9B020000 		.4byte	.LASF113
 1173 06d2 03       		.sleb128 3
 1174 06d3 12       		.uleb128 0x12
 1175 06d4 48010000 		.4byte	.LASF114
 1176 06d8 04       		.sleb128 4
ARM GAS  /tmp/cccciJDL.s 			page 22


 1177 06d9 00       		.byte	0
 1178 06da 03       		.uleb128 0x3
 1179 06db 43050000 		.4byte	.LASF115
 1180 06df 12       		.byte	0x12
 1181 06e0 83       		.byte	0x83
 1182 06e1 E5060000 		.4byte	0x6e5
 1183 06e5 09       		.uleb128 0x9
 1184 06e6 04       		.byte	0x4
 1185 06e7 EB060000 		.4byte	0x6eb
 1186 06eb 13       		.uleb128 0x13
 1187 06ec 01       		.byte	0x1
 1188 06ed 01070000 		.4byte	0x701
 1189 06f1 14       		.uleb128 0x14
 1190 06f2 01070000 		.4byte	0x701
 1191 06f6 14       		.uleb128 0x14
 1192 06f7 AF060000 		.4byte	0x6af
 1193 06fb 14       		.uleb128 0x14
 1194 06fc 31050000 		.4byte	0x531
 1195 0700 00       		.byte	0
 1196 0701 09       		.uleb128 0x9
 1197 0702 04       		.byte	0x4
 1198 0703 07070000 		.4byte	0x707
 1199 0707 05       		.uleb128 0x5
 1200 0708 84060000 		.4byte	.LASF116
 1201 070c 2C       		.byte	0x2c
 1202 070d 12       		.byte	0x12
 1203 070e 86       		.byte	0x86
 1204 070f BC070000 		.4byte	0x7bc
 1205 0713 06       		.uleb128 0x6
 1206 0714 70050000 		.4byte	.LASF87
 1207 0718 12       		.byte	0x12
 1208 0719 88       		.byte	0x88
 1209 071a 52060000 		.4byte	0x652
 1210 071e 02       		.byte	0x2
 1211 071f 23       		.byte	0x23
 1212 0720 00       		.uleb128 0
 1213 0721 06       		.uleb128 0x6
 1214 0722 DC050000 		.4byte	.LASF117
 1215 0726 12       		.byte	0x12
 1216 0727 8A       		.byte	0x8a
 1217 0728 84060000 		.4byte	0x684
 1218 072c 02       		.byte	0x2
 1219 072d 23       		.byte	0x23
 1220 072e 01       		.uleb128 0x1
 1221 072f 07       		.uleb128 0x7
 1222 0730 70636200 		.ascii	"pcb\000"
 1223 0734 12       		.byte	0x12
 1224 0735 91       		.byte	0x91
 1225 0736 BC070000 		.4byte	0x7bc
 1226 073a 02       		.byte	0x2
 1227 073b 23       		.byte	0x23
 1228 073c 04       		.uleb128 0x4
 1229 073d 06       		.uleb128 0x6
 1230 073e 0E020000 		.4byte	.LASF118
 1231 0742 12       		.byte	0x12
 1232 0743 93       		.byte	0x93
 1233 0744 47050000 		.4byte	0x547
ARM GAS  /tmp/cccciJDL.s 			page 23


 1234 0748 02       		.byte	0x2
 1235 0749 23       		.byte	0x23
 1236 074a 08       		.uleb128 0x8
 1237 074b 06       		.uleb128 0x6
 1238 074c 6D060000 		.4byte	.LASF119
 1239 0750 12       		.byte	0x12
 1240 0751 95       		.byte	0x95
 1241 0752 30060000 		.4byte	0x630
 1242 0756 02       		.byte	0x2
 1243 0757 23       		.byte	0x23
 1244 0758 0C       		.uleb128 0xc
 1245 0759 06       		.uleb128 0x6
 1246 075a 60000000 		.4byte	.LASF120
 1247 075e 12       		.byte	0x12
 1248 075f 98       		.byte	0x98
 1249 0760 41060000 		.4byte	0x641
 1250 0764 02       		.byte	0x2
 1251 0765 23       		.byte	0x23
 1252 0766 10       		.uleb128 0x10
 1253 0767 06       		.uleb128 0x6
 1254 0768 0B030000 		.4byte	.LASF121
 1255 076c 12       		.byte	0x12
 1256 076d 9C       		.byte	0x9c
 1257 076e 41060000 		.4byte	0x641
 1258 0772 02       		.byte	0x2
 1259 0773 23       		.byte	0x23
 1260 0774 14       		.uleb128 0x14
 1261 0775 06       		.uleb128 0x6
 1262 0776 B7040000 		.4byte	.LASF122
 1263 077a 12       		.byte	0x12
 1264 077b A0       		.byte	0xa0
 1265 077c 29000000 		.4byte	0x29
 1266 0780 02       		.byte	0x2
 1267 0781 23       		.byte	0x23
 1268 0782 18       		.uleb128 0x18
 1269 0783 06       		.uleb128 0x6
 1270 0784 40000000 		.4byte	.LASF88
 1271 0788 12       		.byte	0x12
 1272 0789 B1       		.byte	0xb1
 1273 078a 1B050000 		.4byte	0x51b
 1274 078e 02       		.byte	0x2
 1275 078f 23       		.byte	0x23
 1276 0790 1C       		.uleb128 0x1c
 1277 0791 06       		.uleb128 0x6
 1278 0792 CA050000 		.4byte	.LASF123
 1279 0796 12       		.byte	0x12
 1280 0797 B5       		.byte	0xb5
 1281 0798 30000000 		.4byte	0x30
 1282 079c 02       		.byte	0x2
 1283 079d 23       		.byte	0x23
 1284 079e 20       		.uleb128 0x20
 1285 079f 06       		.uleb128 0x6
 1286 07a0 82040000 		.4byte	.LASF124
 1287 07a4 12       		.byte	0x12
 1288 07a5 B9       		.byte	0xb9
 1289 07a6 26080000 		.4byte	0x826
 1290 07aa 02       		.byte	0x2
ARM GAS  /tmp/cccciJDL.s 			page 24


 1291 07ab 23       		.byte	0x23
 1292 07ac 24       		.uleb128 0x24
 1293 07ad 06       		.uleb128 0x6
 1294 07ae E2050000 		.4byte	.LASF125
 1295 07b2 12       		.byte	0x12
 1296 07b3 BC       		.byte	0xbc
 1297 07b4 DA060000 		.4byte	0x6da
 1298 07b8 02       		.byte	0x2
 1299 07b9 23       		.byte	0x23
 1300 07ba 28       		.uleb128 0x28
 1301 07bb 00       		.byte	0
 1302 07bc 0E       		.uleb128 0xe
 1303 07bd 04       		.byte	0x4
 1304 07be 12       		.byte	0x12
 1305 07bf 8C       		.byte	0x8c
 1306 07c0 F0070000 		.4byte	0x7f0
 1307 07c4 15       		.uleb128 0x15
 1308 07c5 697000   		.ascii	"ip\000"
 1309 07c8 12       		.byte	0x12
 1310 07c9 8D       		.byte	0x8d
 1311 07ca F6070000 		.4byte	0x7f6
 1312 07ce 15       		.uleb128 0x15
 1313 07cf 74637000 		.ascii	"tcp\000"
 1314 07d3 12       		.byte	0x12
 1315 07d4 8E       		.byte	0x8e
 1316 07d5 02080000 		.4byte	0x802
 1317 07d9 15       		.uleb128 0x15
 1318 07da 75647000 		.ascii	"udp\000"
 1319 07de 12       		.byte	0x12
 1320 07df 8F       		.byte	0x8f
 1321 07e0 0E080000 		.4byte	0x80e
 1322 07e4 15       		.uleb128 0x15
 1323 07e5 72617700 		.ascii	"raw\000"
 1324 07e9 12       		.byte	0x12
 1325 07ea 90       		.byte	0x90
 1326 07eb 1A080000 		.4byte	0x81a
 1327 07ef 00       		.byte	0
 1328 07f0 16       		.uleb128 0x16
 1329 07f1 94050000 		.4byte	.LASF126
 1330 07f5 01       		.byte	0x1
 1331 07f6 09       		.uleb128 0x9
 1332 07f7 04       		.byte	0x4
 1333 07f8 F0070000 		.4byte	0x7f0
 1334 07fc 16       		.uleb128 0x16
 1335 07fd 14060000 		.4byte	.LASF127
 1336 0801 01       		.byte	0x1
 1337 0802 09       		.uleb128 0x9
 1338 0803 04       		.byte	0x4
 1339 0804 FC070000 		.4byte	0x7fc
 1340 0808 16       		.uleb128 0x16
 1341 0809 16000000 		.4byte	.LASF128
 1342 080d 01       		.byte	0x1
 1343 080e 09       		.uleb128 0x9
 1344 080f 04       		.byte	0x4
 1345 0810 08080000 		.4byte	0x808
 1346 0814 16       		.uleb128 0x16
 1347 0815 69000000 		.4byte	.LASF129
ARM GAS  /tmp/cccciJDL.s 			page 25


 1348 0819 01       		.byte	0x1
 1349 081a 09       		.uleb128 0x9
 1350 081b 04       		.byte	0x4
 1351 081c 14080000 		.4byte	0x814
 1352 0820 16       		.uleb128 0x16
 1353 0821 43020000 		.4byte	.LASF130
 1354 0825 01       		.byte	0x1
 1355 0826 09       		.uleb128 0x9
 1356 0827 04       		.byte	0x4
 1357 0828 20080000 		.4byte	0x820
 1358 082c 17       		.uleb128 0x17
 1359 082d 4F020000 		.4byte	.LASF152
 1360 0831 01       		.byte	0x1
 1361 0832 2E       		.byte	0x2e
 1362 0833 01       		.byte	0x1
 1363 0834 01       		.byte	0x1
 1364 0835 71080000 		.4byte	0x871
 1365 0839 18       		.uleb128 0x18
 1366 083a FF010000 		.4byte	.LASF133
 1367 083e 01       		.byte	0x1
 1368 083f 2E       		.byte	0x2e
 1369 0840 01070000 		.4byte	0x701
 1370 0844 19       		.uleb128 0x19
 1371 0845 FB020000 		.4byte	.LASF131
 1372 0849 01       		.byte	0x1
 1373 084a 2F       		.byte	0x2f
 1374 084b 71080000 		.4byte	0x871
 1375 084f 1A       		.uleb128 0x1a
 1376 0850 62756600 		.ascii	"buf\000"
 1377 0854 01       		.byte	0x1
 1378 0855 30       		.byte	0x30
 1379 0856 77080000 		.4byte	0x877
 1380 085a 19       		.uleb128 0x19
 1381 085b C9020000 		.4byte	.LASF132
 1382 085f 01       		.byte	0x1
 1383 0860 31       		.byte	0x31
 1384 0861 31050000 		.4byte	0x531
 1385 0865 1A       		.uleb128 0x1a
 1386 0866 65727200 		.ascii	"err\000"
 1387 086a 01       		.byte	0x1
 1388 086b 32       		.byte	0x32
 1389 086c 47050000 		.4byte	0x547
 1390 0870 00       		.byte	0
 1391 0871 09       		.uleb128 0x9
 1392 0872 04       		.byte	0x4
 1393 0873 ED050000 		.4byte	0x5ed
 1394 0877 09       		.uleb128 0x9
 1395 0878 04       		.byte	0x4
 1396 0879 0E050000 		.4byte	0x50e
 1397 087d 1B       		.uleb128 0x1b
 1398 087e 01       		.byte	0x1
 1399 087f 1D040000 		.4byte	.LASF153
 1400 0883 01       		.byte	0x1
 1401 0884 5E       		.byte	0x5e
 1402 0885 01       		.byte	0x1
 1403 0886 F3000000 		.4byte	0xf3
 1404 088a 00000000 		.4byte	.LFB8
ARM GAS  /tmp/cccciJDL.s 			page 26


 1405 088e CC000000 		.4byte	.LFE8
 1406 0892 00000000 		.4byte	.LLST0
 1407 0896 01       		.byte	0x1
 1408 0897 510A0000 		.4byte	0xa51
 1409 089b 1C       		.uleb128 0x1c
 1410 089c 7000     		.ascii	"p\000"
 1411 089e 01       		.byte	0x1
 1412 089f 5E       		.byte	0x5e
 1413 08a0 B2020000 		.4byte	0x2b2
 1414 08a4 2C000000 		.4byte	.LLST1
 1415 08a8 1D       		.uleb128 0x1d
 1416 08a9 FF010000 		.4byte	.LASF133
 1417 08ad 01       		.byte	0x1
 1418 08ae 5F       		.byte	0x5f
 1419 08af 01070000 		.4byte	0x701
 1420 08b3 4D000000 		.4byte	.LLST2
 1421 08b7 1D       		.uleb128 0x1d
 1422 08b8 00060000 		.4byte	.LASF134
 1423 08bc 01       		.byte	0x1
 1424 08bd 5F       		.byte	0x5f
 1425 08be 01070000 		.4byte	0x701
 1426 08c2 81000000 		.4byte	.LLST3
 1427 08c6 1E       		.uleb128 0x1e
 1428 08c7 65727200 		.ascii	"err\000"
 1429 08cb 01       		.byte	0x1
 1430 08cc 60       		.byte	0x60
 1431 08cd 47050000 		.4byte	0x547
 1432 08d1 95000000 		.4byte	.LLST4
 1433 08d5 1F       		.uleb128 0x1f
 1434 08d6 2C080000 		.4byte	0x82c
 1435 08da 3A000000 		.4byte	.LBB4
 1436 08de 00000000 		.4byte	.Ldebug_ranges0+0
 1437 08e2 01       		.byte	0x1
 1438 08e3 76       		.byte	0x76
 1439 08e4 BB090000 		.4byte	0x9bb
 1440 08e8 20       		.uleb128 0x20
 1441 08e9 39080000 		.4byte	0x839
 1442 08ed A8000000 		.4byte	.LLST5
 1443 08f1 21       		.uleb128 0x21
 1444 08f2 20000000 		.4byte	.Ldebug_ranges0+0x20
 1445 08f6 22       		.uleb128 0x22
 1446 08f7 44080000 		.4byte	0x844
 1447 08fb BB000000 		.4byte	.LLST6
 1448 08ff 22       		.uleb128 0x22
 1449 0900 4F080000 		.4byte	0x84f
 1450 0904 CF000000 		.4byte	.LLST7
 1451 0908 22       		.uleb128 0x22
 1452 0909 5A080000 		.4byte	0x85a
 1453 090d E3000000 		.4byte	.LLST8
 1454 0911 22       		.uleb128 0x22
 1455 0912 65080000 		.4byte	0x865
 1456 0916 0D010000 		.4byte	.LLST9
 1457 091a 23       		.uleb128 0x23
 1458 091b 48000000 		.4byte	.LVL9
 1459 091f CC0A0000 		.4byte	0xacc
 1460 0923 34090000 		.4byte	0x934
 1461 0927 24       		.uleb128 0x24
ARM GAS  /tmp/cccciJDL.s 			page 27


 1462 0928 01       		.byte	0x1
 1463 0929 51       		.byte	0x51
 1464 092a 02       		.byte	0x2
 1465 092b 91       		.byte	0x91
 1466 092c 68       		.sleb128 -24
 1467 092d 24       		.uleb128 0x24
 1468 092e 01       		.byte	0x1
 1469 092f 50       		.byte	0x50
 1470 0930 02       		.byte	0x2
 1471 0931 74       		.byte	0x74
 1472 0932 00       		.sleb128 0
 1473 0933 00       		.byte	0
 1474 0934 23       		.uleb128 0x23
 1475 0935 52000000 		.4byte	.LVL11
 1476 0939 EF0A0000 		.4byte	0xaef
 1477 093d 48090000 		.4byte	0x948
 1478 0941 24       		.uleb128 0x24
 1479 0942 01       		.byte	0x1
 1480 0943 50       		.byte	0x50
 1481 0944 02       		.byte	0x2
 1482 0945 74       		.byte	0x74
 1483 0946 00       		.sleb128 0
 1484 0947 00       		.byte	0
 1485 0948 25       		.uleb128 0x25
 1486 0949 58000000 		.4byte	.LVL12
 1487 094d 070B0000 		.4byte	0xb07
 1488 0951 23       		.uleb128 0x23
 1489 0952 6C000000 		.4byte	.LVL16
 1490 0956 1B0B0000 		.4byte	0xb1b
 1491 095a 6B090000 		.4byte	0x96b
 1492 095e 24       		.uleb128 0x24
 1493 095f 01       		.byte	0x1
 1494 0960 52       		.byte	0x52
 1495 0961 02       		.byte	0x2
 1496 0962 91       		.byte	0x91
 1497 0963 62       		.sleb128 -30
 1498 0964 24       		.uleb128 0x24
 1499 0965 01       		.byte	0x1
 1500 0966 51       		.byte	0x51
 1501 0967 02       		.byte	0x2
 1502 0968 91       		.byte	0x91
 1503 0969 6C       		.sleb128 -20
 1504 096a 00       		.byte	0
 1505 096b 23       		.uleb128 0x23
 1506 096c A0000000 		.4byte	.LVL20
 1507 0970 490B0000 		.4byte	0xb49
 1508 0974 94090000 		.4byte	0x994
 1509 0978 24       		.uleb128 0x24
 1510 0979 01       		.byte	0x1
 1511 097a 53       		.byte	0x53
 1512 097b 02       		.byte	0x2
 1513 097c 76       		.byte	0x76
 1514 097d 00       		.sleb128 0
 1515 097e 24       		.uleb128 0x24
 1516 097f 01       		.byte	0x1
 1517 0980 52       		.byte	0x52
 1518 0981 02       		.byte	0x2
ARM GAS  /tmp/cccciJDL.s 			page 28


 1519 0982 08       		.byte	0x8
 1520 0983 2C       		.byte	0x2c
 1521 0984 24       		.uleb128 0x24
 1522 0985 01       		.byte	0x1
 1523 0986 51       		.byte	0x51
 1524 0987 05       		.byte	0x5
 1525 0988 03       		.byte	0x3
 1526 0989 00000000 		.4byte	.LANCHOR0
 1527 098d 24       		.uleb128 0x24
 1528 098e 01       		.byte	0x1
 1529 098f 50       		.byte	0x50
 1530 0990 02       		.byte	0x2
 1531 0991 74       		.byte	0x74
 1532 0992 00       		.sleb128 0
 1533 0993 00       		.byte	0
 1534 0994 26       		.uleb128 0x26
 1535 0995 AC000000 		.4byte	.LVL21
 1536 0999 490B0000 		.4byte	0xb49
 1537 099d 24       		.uleb128 0x24
 1538 099e 01       		.byte	0x1
 1539 099f 53       		.byte	0x53
 1540 09a0 02       		.byte	0x2
 1541 09a1 76       		.byte	0x76
 1542 09a2 00       		.sleb128 0
 1543 09a3 24       		.uleb128 0x24
 1544 09a4 01       		.byte	0x1
 1545 09a5 52       		.byte	0x52
 1546 09a6 02       		.byte	0x2
 1547 09a7 08       		.byte	0x8
 1548 09a8 85       		.byte	0x85
 1549 09a9 24       		.uleb128 0x24
 1550 09aa 01       		.byte	0x1
 1551 09ab 51       		.byte	0x51
 1552 09ac 05       		.byte	0x5
 1553 09ad 03       		.byte	0x3
 1554 09ae 00000000 		.4byte	.LANCHOR1
 1555 09b2 24       		.uleb128 0x24
 1556 09b3 01       		.byte	0x1
 1557 09b4 50       		.byte	0x50
 1558 09b5 02       		.byte	0x2
 1559 09b6 74       		.byte	0x74
 1560 09b7 00       		.sleb128 0
 1561 09b8 00       		.byte	0
 1562 09b9 00       		.byte	0
 1563 09ba 00       		.byte	0
 1564 09bb 23       		.uleb128 0x23
 1565 09bc 16000000 		.4byte	.LVL2
 1566 09c0 770B0000 		.4byte	0xb77
 1567 09c4 D8090000 		.4byte	0x9d8
 1568 09c8 24       		.uleb128 0x24
 1569 09c9 01       		.byte	0x1
 1570 09ca 52       		.byte	0x52
 1571 09cb 01       		.byte	0x1
 1572 09cc 30       		.byte	0x30
 1573 09cd 24       		.uleb128 0x24
 1574 09ce 01       		.byte	0x1
 1575 09cf 51       		.byte	0x51
ARM GAS  /tmp/cccciJDL.s 			page 29


 1576 09d0 01       		.byte	0x1
 1577 09d1 30       		.byte	0x30
 1578 09d2 24       		.uleb128 0x24
 1579 09d3 01       		.byte	0x1
 1580 09d4 50       		.byte	0x50
 1581 09d5 01       		.byte	0x1
 1582 09d6 40       		.byte	0x40
 1583 09d7 00       		.byte	0
 1584 09d8 23       		.uleb128 0x23
 1585 09d9 24000000 		.4byte	.LVL3
 1586 09dd 990B0000 		.4byte	0xb99
 1587 09e1 F7090000 		.4byte	0x9f7
 1588 09e5 24       		.uleb128 0x24
 1589 09e6 01       		.byte	0x1
 1590 09e7 52       		.byte	0x52
 1591 09e8 02       		.byte	0x2
 1592 09e9 08       		.byte	0x8
 1593 09ea 50       		.byte	0x50
 1594 09eb 24       		.uleb128 0x24
 1595 09ec 01       		.byte	0x1
 1596 09ed 51       		.byte	0x51
 1597 09ee 01       		.byte	0x1
 1598 09ef 30       		.byte	0x30
 1599 09f0 24       		.uleb128 0x24
 1600 09f1 01       		.byte	0x1
 1601 09f2 50       		.byte	0x50
 1602 09f3 02       		.byte	0x2
 1603 09f4 75       		.byte	0x75
 1604 09f5 00       		.sleb128 0
 1605 09f6 00       		.byte	0
 1606 09f7 23       		.uleb128 0x23
 1607 09f8 2C000000 		.4byte	.LVL4
 1608 09fc C10B0000 		.4byte	0xbc1
 1609 0a00 110A0000 		.4byte	0xa11
 1610 0a04 24       		.uleb128 0x24
 1611 0a05 01       		.byte	0x1
 1612 0a06 51       		.byte	0x51
 1613 0a07 02       		.byte	0x2
 1614 0a08 09       		.byte	0x9
 1615 0a09 FF       		.byte	0xff
 1616 0a0a 24       		.uleb128 0x24
 1617 0a0b 01       		.byte	0x1
 1618 0a0c 50       		.byte	0x50
 1619 0a0d 02       		.byte	0x2
 1620 0a0e 75       		.byte	0x75
 1621 0a0f 00       		.sleb128 0
 1622 0a10 00       		.byte	0
 1623 0a11 23       		.uleb128 0x23
 1624 0a12 32000000 		.4byte	.LVL5
 1625 0a16 DE0B0000 		.4byte	0xbde
 1626 0a1a 240A0000 		.4byte	0xa24
 1627 0a1e 24       		.uleb128 0x24
 1628 0a1f 01       		.byte	0x1
 1629 0a20 50       		.byte	0x50
 1630 0a21 01       		.byte	0x1
 1631 0a22 34       		.byte	0x34
 1632 0a23 00       		.byte	0
ARM GAS  /tmp/cccciJDL.s 			page 30


 1633 0a24 23       		.uleb128 0x23
 1634 0a25 3A000000 		.4byte	.LVL6
 1635 0a29 F70B0000 		.4byte	0xbf7
 1636 0a2d 3E0A0000 		.4byte	0xa3e
 1637 0a31 24       		.uleb128 0x24
 1638 0a32 01       		.byte	0x1
 1639 0a33 51       		.byte	0x51
 1640 0a34 02       		.byte	0x2
 1641 0a35 91       		.byte	0x91
 1642 0a36 64       		.sleb128 -28
 1643 0a37 24       		.uleb128 0x24
 1644 0a38 01       		.byte	0x1
 1645 0a39 50       		.byte	0x50
 1646 0a3a 02       		.byte	0x2
 1647 0a3b 75       		.byte	0x75
 1648 0a3c 00       		.sleb128 0
 1649 0a3d 00       		.byte	0
 1650 0a3e 25       		.uleb128 0x25
 1651 0a3f 5E000000 		.4byte	.LVL13
 1652 0a43 1A0C0000 		.4byte	0xc1a
 1653 0a47 25       		.uleb128 0x25
 1654 0a48 B2000000 		.4byte	.LVL23
 1655 0a4c 320C0000 		.4byte	0xc32
 1656 0a50 00       		.byte	0
 1657 0a51 27       		.uleb128 0x27
 1658 0a52 0E050000 		.4byte	0x50e
 1659 0a56 610A0000 		.4byte	0xa61
 1660 0a5a 28       		.uleb128 0x28
 1661 0a5b 70030000 		.4byte	0x370
 1662 0a5f 2C       		.byte	0x2c
 1663 0a60 00       		.byte	0
 1664 0a61 29       		.uleb128 0x29
 1665 0a62 DE030000 		.4byte	.LASF135
 1666 0a66 01       		.byte	0x1
 1667 0a67 2B       		.byte	0x2b
 1668 0a68 720A0000 		.4byte	0xa72
 1669 0a6c 05       		.byte	0x5
 1670 0a6d 03       		.byte	0x3
 1671 0a6e 00000000 		.4byte	http_html_hdr
 1672 0a72 10       		.uleb128 0x10
 1673 0a73 510A0000 		.4byte	0xa51
 1674 0a77 27       		.uleb128 0x27
 1675 0a78 0E050000 		.4byte	0x50e
 1676 0a7c 870A0000 		.4byte	0xa87
 1677 0a80 28       		.uleb128 0x28
 1678 0a81 70030000 		.4byte	0x370
 1679 0a85 85       		.byte	0x85
 1680 0a86 00       		.byte	0
 1681 0a87 29       		.uleb128 0x29
 1682 0a88 BE040000 		.4byte	.LASF136
 1683 0a8c 01       		.byte	0x1
 1684 0a8d 2C       		.byte	0x2c
 1685 0a8e 980A0000 		.4byte	0xa98
 1686 0a92 05       		.byte	0x5
 1687 0a93 03       		.byte	0x3
 1688 0a94 00000000 		.4byte	http_index_html
 1689 0a98 10       		.uleb128 0x10
ARM GAS  /tmp/cccciJDL.s 			page 31


 1690 0a99 770A0000 		.4byte	0xa77
 1691 0a9d 2A       		.uleb128 0x2a
 1692 0a9e B1040000 		.4byte	.LASF137
 1693 0aa2 08       		.byte	0x8
 1694 0aa3 68       		.byte	0x68
 1695 0aa4 D9030000 		.4byte	0x3d9
 1696 0aa8 01       		.byte	0x1
 1697 0aa9 01       		.byte	0x1
 1698 0aaa 27       		.uleb128 0x27
 1699 0aab B4020000 		.4byte	0x2b4
 1700 0aaf BA0A0000 		.4byte	0xaba
 1701 0ab3 28       		.uleb128 0x28
 1702 0ab4 70030000 		.4byte	0x370
 1703 0ab8 95       		.byte	0x95
 1704 0ab9 00       		.byte	0
 1705 0aba 2B       		.uleb128 0x2b
 1706 0abb 73040000 		.4byte	.LASF138
 1707 0abf 01       		.byte	0x1
 1708 0ac0 59       		.byte	0x59
 1709 0ac1 AA0A0000 		.4byte	0xaaa
 1710 0ac5 01       		.byte	0x1
 1711 0ac6 05       		.byte	0x5
 1712 0ac7 03       		.byte	0x3
 1713 0ac8 00000000 		.4byte	wa_http_server
 1714 0acc 2C       		.uleb128 0x2c
 1715 0acd 01       		.byte	0x1
 1716 0ace 95040000 		.4byte	.LASF139
 1717 0ad2 12       		.byte	0x12
 1718 0ad3 E3       		.byte	0xe3
 1719 0ad4 01       		.byte	0x1
 1720 0ad5 47050000 		.4byte	0x547
 1721 0ad9 01       		.byte	0x1
 1722 0ada E90A0000 		.4byte	0xae9
 1723 0ade 14       		.uleb128 0x14
 1724 0adf 01070000 		.4byte	0x701
 1725 0ae3 14       		.uleb128 0x14
 1726 0ae4 E90A0000 		.4byte	0xae9
 1727 0ae8 00       		.byte	0
 1728 0ae9 09       		.uleb128 0x9
 1729 0aea 04       		.byte	0x4
 1730 0aeb 71080000 		.4byte	0x871
 1731 0aef 2C       		.uleb128 0x2c
 1732 0af0 01       		.byte	0x1
 1733 0af1 C7030000 		.4byte	.LASF140
 1734 0af5 12       		.byte	0x12
 1735 0af6 EB       		.byte	0xeb
 1736 0af7 01       		.byte	0x1
 1737 0af8 47050000 		.4byte	0x547
 1738 0afc 01       		.byte	0x1
 1739 0afd 070B0000 		.4byte	0xb07
 1740 0b01 14       		.uleb128 0x14
 1741 0b02 01070000 		.4byte	0x701
 1742 0b06 00       		.byte	0
 1743 0b07 2D       		.uleb128 0x2d
 1744 0b08 01       		.byte	0x1
 1745 0b09 62010000 		.4byte	.LASF154
 1746 0b0d 10       		.byte	0x10
ARM GAS  /tmp/cccciJDL.s 			page 32


 1747 0b0e 41       		.byte	0x41
 1748 0b0f 01       		.byte	0x1
 1749 0b10 01       		.byte	0x1
 1750 0b11 1B0B0000 		.4byte	0xb1b
 1751 0b15 14       		.uleb128 0x14
 1752 0b16 71080000 		.4byte	0x871
 1753 0b1a 00       		.byte	0
 1754 0b1b 2C       		.uleb128 0x2c
 1755 0b1c 01       		.byte	0x1
 1756 0b1d 8A020000 		.4byte	.LASF141
 1757 0b21 10       		.byte	0x10
 1758 0b22 49       		.byte	0x49
 1759 0b23 01       		.byte	0x1
 1760 0b24 47050000 		.4byte	0x547
 1761 0b28 01       		.byte	0x1
 1762 0b29 3D0B0000 		.4byte	0xb3d
 1763 0b2d 14       		.uleb128 0x14
 1764 0b2e 71080000 		.4byte	0x871
 1765 0b32 14       		.uleb128 0x14
 1766 0b33 3D0B0000 		.4byte	0xb3d
 1767 0b37 14       		.uleb128 0x14
 1768 0b38 430B0000 		.4byte	0xb43
 1769 0b3c 00       		.byte	0
 1770 0b3d 09       		.uleb128 0x9
 1771 0b3e 04       		.byte	0x4
 1772 0b3f B2020000 		.4byte	0x2b2
 1773 0b43 09       		.uleb128 0x9
 1774 0b44 04       		.byte	0x4
 1775 0b45 31050000 		.4byte	0x531
 1776 0b49 2C       		.uleb128 0x2c
 1777 0b4a 01       		.byte	0x1
 1778 0b4b 87010000 		.4byte	.LASF142
 1779 0b4f 12       		.byte	0x12
 1780 0b50 E9       		.byte	0xe9
 1781 0b51 01       		.byte	0x1
 1782 0b52 47050000 		.4byte	0x547
 1783 0b56 01       		.byte	0x1
 1784 0b57 700B0000 		.4byte	0xb70
 1785 0b5b 14       		.uleb128 0x14
 1786 0b5c 01070000 		.4byte	0x701
 1787 0b60 14       		.uleb128 0x14
 1788 0b61 700B0000 		.4byte	0xb70
 1789 0b65 14       		.uleb128 0x14
 1790 0b66 30000000 		.4byte	0x30
 1791 0b6a 14       		.uleb128 0x14
 1792 0b6b 1B050000 		.4byte	0x51b
 1793 0b6f 00       		.byte	0
 1794 0b70 09       		.uleb128 0x9
 1795 0b71 04       		.byte	0x4
 1796 0b72 760B0000 		.4byte	0xb76
 1797 0b76 2E       		.uleb128 0x2e
 1798 0b77 2C       		.uleb128 0x2c
 1799 0b78 01       		.byte	0x1
 1800 0b79 D2000000 		.4byte	.LASF143
 1801 0b7d 12       		.byte	0x12
 1802 0b7e D2       		.byte	0xd2
 1803 0b7f 01       		.byte	0x1
ARM GAS  /tmp/cccciJDL.s 			page 33


 1804 0b80 01070000 		.4byte	0x701
 1805 0b84 01       		.byte	0x1
 1806 0b85 990B0000 		.4byte	0xb99
 1807 0b89 14       		.uleb128 0x14
 1808 0b8a 52060000 		.4byte	0x652
 1809 0b8e 14       		.uleb128 0x14
 1810 0b8f 1B050000 		.4byte	0x51b
 1811 0b93 14       		.uleb128 0x14
 1812 0b94 DA060000 		.4byte	0x6da
 1813 0b98 00       		.byte	0
 1814 0b99 2C       		.uleb128 0x2c
 1815 0b9a 01       		.byte	0x1
 1816 0b9b E9040000 		.4byte	.LASF144
 1817 0b9f 12       		.byte	0x12
 1818 0ba0 DD       		.byte	0xdd
 1819 0ba1 01       		.byte	0x1
 1820 0ba2 47050000 		.4byte	0x547
 1821 0ba6 01       		.byte	0x1
 1822 0ba7 BB0B0000 		.4byte	0xbbb
 1823 0bab 14       		.uleb128 0x14
 1824 0bac 01070000 		.4byte	0x701
 1825 0bb0 14       		.uleb128 0x14
 1826 0bb1 BB0B0000 		.4byte	0xbbb
 1827 0bb5 14       		.uleb128 0x14
 1828 0bb6 31050000 		.4byte	0x531
 1829 0bba 00       		.byte	0
 1830 0bbb 09       		.uleb128 0x9
 1831 0bbc 04       		.byte	0x4
 1832 0bbd E2050000 		.4byte	0x5e2
 1833 0bc1 2C       		.uleb128 0x2c
 1834 0bc2 01       		.byte	0x1
 1835 0bc3 54050000 		.4byte	.LASF145
 1836 0bc7 12       		.byte	0x12
 1837 0bc8 E0       		.byte	0xe0
 1838 0bc9 01       		.byte	0x1
 1839 0bca 47050000 		.4byte	0x547
 1840 0bce 01       		.byte	0x1
 1841 0bcf DE0B0000 		.4byte	0xbde
 1842 0bd3 14       		.uleb128 0x14
 1843 0bd4 01070000 		.4byte	0x701
 1844 0bd8 14       		.uleb128 0x14
 1845 0bd9 1B050000 		.4byte	0x51b
 1846 0bdd 00       		.byte	0
 1847 0bde 2F       		.uleb128 0x2f
 1848 0bdf 01       		.byte	0x1
 1849 0be0 5C060000 		.4byte	.LASF146
 1850 0be4 06       		.byte	0x6
 1851 0be5 6B01     		.2byte	0x16b
 1852 0be7 01       		.byte	0x1
 1853 0be8 E8000000 		.4byte	0xe8
 1854 0bec 01       		.byte	0x1
 1855 0bed F70B0000 		.4byte	0xbf7
 1856 0bf1 14       		.uleb128 0x14
 1857 0bf2 E8000000 		.4byte	0xe8
 1858 0bf6 00       		.byte	0
 1859 0bf7 2C       		.uleb128 0x2c
 1860 0bf8 01       		.byte	0x1
ARM GAS  /tmp/cccciJDL.s 			page 34


 1861 0bf9 16030000 		.4byte	.LASF147
 1862 0bfd 12       		.byte	0x12
 1863 0bfe E2       		.byte	0xe2
 1864 0bff 01       		.byte	0x1
 1865 0c00 47050000 		.4byte	0x547
 1866 0c04 01       		.byte	0x1
 1867 0c05 140C0000 		.4byte	0xc14
 1868 0c09 14       		.uleb128 0x14
 1869 0c0a 01070000 		.4byte	0x701
 1870 0c0e 14       		.uleb128 0x14
 1871 0c0f 140C0000 		.4byte	0xc14
 1872 0c13 00       		.byte	0
 1873 0c14 09       		.uleb128 0x9
 1874 0c15 04       		.byte	0x4
 1875 0c16 01070000 		.4byte	0x701
 1876 0c1a 2C       		.uleb128 0x2c
 1877 0c1b 01       		.byte	0x1
 1878 0c1c C3000000 		.4byte	.LASF148
 1879 0c20 12       		.byte	0x12
 1880 0c21 D4       		.byte	0xd4
 1881 0c22 01       		.byte	0x1
 1882 0c23 47050000 		.4byte	0x547
 1883 0c27 01       		.byte	0x1
 1884 0c28 320C0000 		.4byte	0xc32
 1885 0c2c 14       		.uleb128 0x14
 1886 0c2d 01070000 		.4byte	0x701
 1887 0c31 00       		.byte	0
 1888 0c32 30       		.uleb128 0x30
 1889 0c33 01       		.byte	0x1
 1890 0c34 B6050000 		.4byte	.LASF155
 1891 0c38 07       		.byte	0x7
 1892 0c39 FA01     		.2byte	0x1fa
 1893 0c3b 01       		.byte	0x1
 1894 0c3c 01       		.byte	0x1
 1895 0c3d 00       		.byte	0
 1896              		.section	.debug_abbrev,"",%progbits
 1897              	.Ldebug_abbrev0:
 1898 0000 01       		.uleb128 0x1
 1899 0001 11       		.uleb128 0x11
 1900 0002 01       		.byte	0x1
 1901 0003 25       		.uleb128 0x25
 1902 0004 0E       		.uleb128 0xe
 1903 0005 13       		.uleb128 0x13
 1904 0006 0B       		.uleb128 0xb
 1905 0007 03       		.uleb128 0x3
 1906 0008 0E       		.uleb128 0xe
 1907 0009 1B       		.uleb128 0x1b
 1908 000a 0E       		.uleb128 0xe
 1909 000b 55       		.uleb128 0x55
 1910 000c 06       		.uleb128 0x6
 1911 000d 11       		.uleb128 0x11
 1912 000e 01       		.uleb128 0x1
 1913 000f 52       		.uleb128 0x52
 1914 0010 01       		.uleb128 0x1
 1915 0011 10       		.uleb128 0x10
 1916 0012 06       		.uleb128 0x6
 1917 0013 00       		.byte	0
ARM GAS  /tmp/cccciJDL.s 			page 35


 1918 0014 00       		.byte	0
 1919 0015 02       		.uleb128 0x2
 1920 0016 24       		.uleb128 0x24
 1921 0017 00       		.byte	0
 1922 0018 0B       		.uleb128 0xb
 1923 0019 0B       		.uleb128 0xb
 1924 001a 3E       		.uleb128 0x3e
 1925 001b 0B       		.uleb128 0xb
 1926 001c 03       		.uleb128 0x3
 1927 001d 08       		.uleb128 0x8
 1928 001e 00       		.byte	0
 1929 001f 00       		.byte	0
 1930 0020 03       		.uleb128 0x3
 1931 0021 16       		.uleb128 0x16
 1932 0022 00       		.byte	0
 1933 0023 03       		.uleb128 0x3
 1934 0024 0E       		.uleb128 0xe
 1935 0025 3A       		.uleb128 0x3a
 1936 0026 0B       		.uleb128 0xb
 1937 0027 3B       		.uleb128 0x3b
 1938 0028 0B       		.uleb128 0xb
 1939 0029 49       		.uleb128 0x49
 1940 002a 13       		.uleb128 0x13
 1941 002b 00       		.byte	0
 1942 002c 00       		.byte	0
 1943 002d 04       		.uleb128 0x4
 1944 002e 24       		.uleb128 0x24
 1945 002f 00       		.byte	0
 1946 0030 0B       		.uleb128 0xb
 1947 0031 0B       		.uleb128 0xb
 1948 0032 3E       		.uleb128 0x3e
 1949 0033 0B       		.uleb128 0xb
 1950 0034 03       		.uleb128 0x3
 1951 0035 0E       		.uleb128 0xe
 1952 0036 00       		.byte	0
 1953 0037 00       		.byte	0
 1954 0038 05       		.uleb128 0x5
 1955 0039 13       		.uleb128 0x13
 1956 003a 01       		.byte	0x1
 1957 003b 03       		.uleb128 0x3
 1958 003c 0E       		.uleb128 0xe
 1959 003d 0B       		.uleb128 0xb
 1960 003e 0B       		.uleb128 0xb
 1961 003f 3A       		.uleb128 0x3a
 1962 0040 0B       		.uleb128 0xb
 1963 0041 3B       		.uleb128 0x3b
 1964 0042 0B       		.uleb128 0xb
 1965 0043 01       		.uleb128 0x1
 1966 0044 13       		.uleb128 0x13
 1967 0045 00       		.byte	0
 1968 0046 00       		.byte	0
 1969 0047 06       		.uleb128 0x6
 1970 0048 0D       		.uleb128 0xd
 1971 0049 00       		.byte	0
 1972 004a 03       		.uleb128 0x3
 1973 004b 0E       		.uleb128 0xe
 1974 004c 3A       		.uleb128 0x3a
ARM GAS  /tmp/cccciJDL.s 			page 36


 1975 004d 0B       		.uleb128 0xb
 1976 004e 3B       		.uleb128 0x3b
 1977 004f 0B       		.uleb128 0xb
 1978 0050 49       		.uleb128 0x49
 1979 0051 13       		.uleb128 0x13
 1980 0052 38       		.uleb128 0x38
 1981 0053 0A       		.uleb128 0xa
 1982 0054 00       		.byte	0
 1983 0055 00       		.byte	0
 1984 0056 07       		.uleb128 0x7
 1985 0057 0D       		.uleb128 0xd
 1986 0058 00       		.byte	0
 1987 0059 03       		.uleb128 0x3
 1988 005a 08       		.uleb128 0x8
 1989 005b 3A       		.uleb128 0x3a
 1990 005c 0B       		.uleb128 0xb
 1991 005d 3B       		.uleb128 0x3b
 1992 005e 0B       		.uleb128 0xb
 1993 005f 49       		.uleb128 0x49
 1994 0060 13       		.uleb128 0x13
 1995 0061 38       		.uleb128 0x38
 1996 0062 0A       		.uleb128 0xa
 1997 0063 00       		.byte	0
 1998 0064 00       		.byte	0
 1999 0065 08       		.uleb128 0x8
 2000 0066 13       		.uleb128 0x13
 2001 0067 01       		.byte	0x1
 2002 0068 0B       		.uleb128 0xb
 2003 0069 0B       		.uleb128 0xb
 2004 006a 3A       		.uleb128 0x3a
 2005 006b 0B       		.uleb128 0xb
 2006 006c 3B       		.uleb128 0x3b
 2007 006d 0B       		.uleb128 0xb
 2008 006e 01       		.uleb128 0x1
 2009 006f 13       		.uleb128 0x13
 2010 0070 00       		.byte	0
 2011 0071 00       		.byte	0
 2012 0072 09       		.uleb128 0x9
 2013 0073 0F       		.uleb128 0xf
 2014 0074 00       		.byte	0
 2015 0075 0B       		.uleb128 0xb
 2016 0076 0B       		.uleb128 0xb
 2017 0077 49       		.uleb128 0x49
 2018 0078 13       		.uleb128 0x13
 2019 0079 00       		.byte	0
 2020 007a 00       		.byte	0
 2021 007b 0A       		.uleb128 0xa
 2022 007c 0F       		.uleb128 0xf
 2023 007d 00       		.byte	0
 2024 007e 0B       		.uleb128 0xb
 2025 007f 0B       		.uleb128 0xb
 2026 0080 00       		.byte	0
 2027 0081 00       		.byte	0
 2028 0082 0B       		.uleb128 0xb
 2029 0083 13       		.uleb128 0x13
 2030 0084 01       		.byte	0x1
 2031 0085 03       		.uleb128 0x3
ARM GAS  /tmp/cccciJDL.s 			page 37


 2032 0086 0E       		.uleb128 0xe
 2033 0087 0B       		.uleb128 0xb
 2034 0088 0B       		.uleb128 0xb
 2035 0089 3A       		.uleb128 0x3a
 2036 008a 0B       		.uleb128 0xb
 2037 008b 3B       		.uleb128 0x3b
 2038 008c 05       		.uleb128 0x5
 2039 008d 01       		.uleb128 0x1
 2040 008e 13       		.uleb128 0x13
 2041 008f 00       		.byte	0
 2042 0090 00       		.byte	0
 2043 0091 0C       		.uleb128 0xc
 2044 0092 0D       		.uleb128 0xd
 2045 0093 00       		.byte	0
 2046 0094 03       		.uleb128 0x3
 2047 0095 08       		.uleb128 0x8
 2048 0096 3A       		.uleb128 0x3a
 2049 0097 0B       		.uleb128 0xb
 2050 0098 3B       		.uleb128 0x3b
 2051 0099 05       		.uleb128 0x5
 2052 009a 49       		.uleb128 0x49
 2053 009b 13       		.uleb128 0x13
 2054 009c 38       		.uleb128 0x38
 2055 009d 0A       		.uleb128 0xa
 2056 009e 00       		.byte	0
 2057 009f 00       		.byte	0
 2058 00a0 0D       		.uleb128 0xd
 2059 00a1 35       		.uleb128 0x35
 2060 00a2 00       		.byte	0
 2061 00a3 49       		.uleb128 0x49
 2062 00a4 13       		.uleb128 0x13
 2063 00a5 00       		.byte	0
 2064 00a6 00       		.byte	0
 2065 00a7 0E       		.uleb128 0xe
 2066 00a8 17       		.uleb128 0x17
 2067 00a9 01       		.byte	0x1
 2068 00aa 0B       		.uleb128 0xb
 2069 00ab 0B       		.uleb128 0xb
 2070 00ac 3A       		.uleb128 0x3a
 2071 00ad 0B       		.uleb128 0xb
 2072 00ae 3B       		.uleb128 0x3b
 2073 00af 0B       		.uleb128 0xb
 2074 00b0 01       		.uleb128 0x1
 2075 00b1 13       		.uleb128 0x13
 2076 00b2 00       		.byte	0
 2077 00b3 00       		.byte	0
 2078 00b4 0F       		.uleb128 0xf
 2079 00b5 0D       		.uleb128 0xd
 2080 00b6 00       		.byte	0
 2081 00b7 03       		.uleb128 0x3
 2082 00b8 0E       		.uleb128 0xe
 2083 00b9 3A       		.uleb128 0x3a
 2084 00ba 0B       		.uleb128 0xb
 2085 00bb 3B       		.uleb128 0x3b
 2086 00bc 0B       		.uleb128 0xb
 2087 00bd 49       		.uleb128 0x49
 2088 00be 13       		.uleb128 0x13
ARM GAS  /tmp/cccciJDL.s 			page 38


 2089 00bf 00       		.byte	0
 2090 00c0 00       		.byte	0
 2091 00c1 10       		.uleb128 0x10
 2092 00c2 26       		.uleb128 0x26
 2093 00c3 00       		.byte	0
 2094 00c4 49       		.uleb128 0x49
 2095 00c5 13       		.uleb128 0x13
 2096 00c6 00       		.byte	0
 2097 00c7 00       		.byte	0
 2098 00c8 11       		.uleb128 0x11
 2099 00c9 04       		.uleb128 0x4
 2100 00ca 01       		.byte	0x1
 2101 00cb 03       		.uleb128 0x3
 2102 00cc 0E       		.uleb128 0xe
 2103 00cd 0B       		.uleb128 0xb
 2104 00ce 0B       		.uleb128 0xb
 2105 00cf 3A       		.uleb128 0x3a
 2106 00d0 0B       		.uleb128 0xb
 2107 00d1 3B       		.uleb128 0x3b
 2108 00d2 0B       		.uleb128 0xb
 2109 00d3 01       		.uleb128 0x1
 2110 00d4 13       		.uleb128 0x13
 2111 00d5 00       		.byte	0
 2112 00d6 00       		.byte	0
 2113 00d7 12       		.uleb128 0x12
 2114 00d8 28       		.uleb128 0x28
 2115 00d9 00       		.byte	0
 2116 00da 03       		.uleb128 0x3
 2117 00db 0E       		.uleb128 0xe
 2118 00dc 1C       		.uleb128 0x1c
 2119 00dd 0D       		.uleb128 0xd
 2120 00de 00       		.byte	0
 2121 00df 00       		.byte	0
 2122 00e0 13       		.uleb128 0x13
 2123 00e1 15       		.uleb128 0x15
 2124 00e2 01       		.byte	0x1
 2125 00e3 27       		.uleb128 0x27
 2126 00e4 0C       		.uleb128 0xc
 2127 00e5 01       		.uleb128 0x1
 2128 00e6 13       		.uleb128 0x13
 2129 00e7 00       		.byte	0
 2130 00e8 00       		.byte	0
 2131 00e9 14       		.uleb128 0x14
 2132 00ea 05       		.uleb128 0x5
 2133 00eb 00       		.byte	0
 2134 00ec 49       		.uleb128 0x49
 2135 00ed 13       		.uleb128 0x13
 2136 00ee 00       		.byte	0
 2137 00ef 00       		.byte	0
 2138 00f0 15       		.uleb128 0x15
 2139 00f1 0D       		.uleb128 0xd
 2140 00f2 00       		.byte	0
 2141 00f3 03       		.uleb128 0x3
 2142 00f4 08       		.uleb128 0x8
 2143 00f5 3A       		.uleb128 0x3a
 2144 00f6 0B       		.uleb128 0xb
 2145 00f7 3B       		.uleb128 0x3b
ARM GAS  /tmp/cccciJDL.s 			page 39


 2146 00f8 0B       		.uleb128 0xb
 2147 00f9 49       		.uleb128 0x49
 2148 00fa 13       		.uleb128 0x13
 2149 00fb 00       		.byte	0
 2150 00fc 00       		.byte	0
 2151 00fd 16       		.uleb128 0x16
 2152 00fe 13       		.uleb128 0x13
 2153 00ff 00       		.byte	0
 2154 0100 03       		.uleb128 0x3
 2155 0101 0E       		.uleb128 0xe
 2156 0102 3C       		.uleb128 0x3c
 2157 0103 0C       		.uleb128 0xc
 2158 0104 00       		.byte	0
 2159 0105 00       		.byte	0
 2160 0106 17       		.uleb128 0x17
 2161 0107 2E       		.uleb128 0x2e
 2162 0108 01       		.byte	0x1
 2163 0109 03       		.uleb128 0x3
 2164 010a 0E       		.uleb128 0xe
 2165 010b 3A       		.uleb128 0x3a
 2166 010c 0B       		.uleb128 0xb
 2167 010d 3B       		.uleb128 0x3b
 2168 010e 0B       		.uleb128 0xb
 2169 010f 27       		.uleb128 0x27
 2170 0110 0C       		.uleb128 0xc
 2171 0111 20       		.uleb128 0x20
 2172 0112 0B       		.uleb128 0xb
 2173 0113 01       		.uleb128 0x1
 2174 0114 13       		.uleb128 0x13
 2175 0115 00       		.byte	0
 2176 0116 00       		.byte	0
 2177 0117 18       		.uleb128 0x18
 2178 0118 05       		.uleb128 0x5
 2179 0119 00       		.byte	0
 2180 011a 03       		.uleb128 0x3
 2181 011b 0E       		.uleb128 0xe
 2182 011c 3A       		.uleb128 0x3a
 2183 011d 0B       		.uleb128 0xb
 2184 011e 3B       		.uleb128 0x3b
 2185 011f 0B       		.uleb128 0xb
 2186 0120 49       		.uleb128 0x49
 2187 0121 13       		.uleb128 0x13
 2188 0122 00       		.byte	0
 2189 0123 00       		.byte	0
 2190 0124 19       		.uleb128 0x19
 2191 0125 34       		.uleb128 0x34
 2192 0126 00       		.byte	0
 2193 0127 03       		.uleb128 0x3
 2194 0128 0E       		.uleb128 0xe
 2195 0129 3A       		.uleb128 0x3a
 2196 012a 0B       		.uleb128 0xb
 2197 012b 3B       		.uleb128 0x3b
 2198 012c 0B       		.uleb128 0xb
 2199 012d 49       		.uleb128 0x49
 2200 012e 13       		.uleb128 0x13
 2201 012f 00       		.byte	0
 2202 0130 00       		.byte	0
ARM GAS  /tmp/cccciJDL.s 			page 40


 2203 0131 1A       		.uleb128 0x1a
 2204 0132 34       		.uleb128 0x34
 2205 0133 00       		.byte	0
 2206 0134 03       		.uleb128 0x3
 2207 0135 08       		.uleb128 0x8
 2208 0136 3A       		.uleb128 0x3a
 2209 0137 0B       		.uleb128 0xb
 2210 0138 3B       		.uleb128 0x3b
 2211 0139 0B       		.uleb128 0xb
 2212 013a 49       		.uleb128 0x49
 2213 013b 13       		.uleb128 0x13
 2214 013c 00       		.byte	0
 2215 013d 00       		.byte	0
 2216 013e 1B       		.uleb128 0x1b
 2217 013f 2E       		.uleb128 0x2e
 2218 0140 01       		.byte	0x1
 2219 0141 3F       		.uleb128 0x3f
 2220 0142 0C       		.uleb128 0xc
 2221 0143 03       		.uleb128 0x3
 2222 0144 0E       		.uleb128 0xe
 2223 0145 3A       		.uleb128 0x3a
 2224 0146 0B       		.uleb128 0xb
 2225 0147 3B       		.uleb128 0x3b
 2226 0148 0B       		.uleb128 0xb
 2227 0149 27       		.uleb128 0x27
 2228 014a 0C       		.uleb128 0xc
 2229 014b 49       		.uleb128 0x49
 2230 014c 13       		.uleb128 0x13
 2231 014d 11       		.uleb128 0x11
 2232 014e 01       		.uleb128 0x1
 2233 014f 12       		.uleb128 0x12
 2234 0150 01       		.uleb128 0x1
 2235 0151 40       		.uleb128 0x40
 2236 0152 06       		.uleb128 0x6
 2237 0153 9742     		.uleb128 0x2117
 2238 0155 0C       		.uleb128 0xc
 2239 0156 01       		.uleb128 0x1
 2240 0157 13       		.uleb128 0x13
 2241 0158 00       		.byte	0
 2242 0159 00       		.byte	0
 2243 015a 1C       		.uleb128 0x1c
 2244 015b 05       		.uleb128 0x5
 2245 015c 00       		.byte	0
 2246 015d 03       		.uleb128 0x3
 2247 015e 08       		.uleb128 0x8
 2248 015f 3A       		.uleb128 0x3a
 2249 0160 0B       		.uleb128 0xb
 2250 0161 3B       		.uleb128 0x3b
 2251 0162 0B       		.uleb128 0xb
 2252 0163 49       		.uleb128 0x49
 2253 0164 13       		.uleb128 0x13
 2254 0165 02       		.uleb128 0x2
 2255 0166 06       		.uleb128 0x6
 2256 0167 00       		.byte	0
 2257 0168 00       		.byte	0
 2258 0169 1D       		.uleb128 0x1d
 2259 016a 34       		.uleb128 0x34
ARM GAS  /tmp/cccciJDL.s 			page 41


 2260 016b 00       		.byte	0
 2261 016c 03       		.uleb128 0x3
 2262 016d 0E       		.uleb128 0xe
 2263 016e 3A       		.uleb128 0x3a
 2264 016f 0B       		.uleb128 0xb
 2265 0170 3B       		.uleb128 0x3b
 2266 0171 0B       		.uleb128 0xb
 2267 0172 49       		.uleb128 0x49
 2268 0173 13       		.uleb128 0x13
 2269 0174 02       		.uleb128 0x2
 2270 0175 06       		.uleb128 0x6
 2271 0176 00       		.byte	0
 2272 0177 00       		.byte	0
 2273 0178 1E       		.uleb128 0x1e
 2274 0179 34       		.uleb128 0x34
 2275 017a 00       		.byte	0
 2276 017b 03       		.uleb128 0x3
 2277 017c 08       		.uleb128 0x8
 2278 017d 3A       		.uleb128 0x3a
 2279 017e 0B       		.uleb128 0xb
 2280 017f 3B       		.uleb128 0x3b
 2281 0180 0B       		.uleb128 0xb
 2282 0181 49       		.uleb128 0x49
 2283 0182 13       		.uleb128 0x13
 2284 0183 02       		.uleb128 0x2
 2285 0184 06       		.uleb128 0x6
 2286 0185 00       		.byte	0
 2287 0186 00       		.byte	0
 2288 0187 1F       		.uleb128 0x1f
 2289 0188 1D       		.uleb128 0x1d
 2290 0189 01       		.byte	0x1
 2291 018a 31       		.uleb128 0x31
 2292 018b 13       		.uleb128 0x13
 2293 018c 52       		.uleb128 0x52
 2294 018d 01       		.uleb128 0x1
 2295 018e 55       		.uleb128 0x55
 2296 018f 06       		.uleb128 0x6
 2297 0190 58       		.uleb128 0x58
 2298 0191 0B       		.uleb128 0xb
 2299 0192 59       		.uleb128 0x59
 2300 0193 0B       		.uleb128 0xb
 2301 0194 01       		.uleb128 0x1
 2302 0195 13       		.uleb128 0x13
 2303 0196 00       		.byte	0
 2304 0197 00       		.byte	0
 2305 0198 20       		.uleb128 0x20
 2306 0199 05       		.uleb128 0x5
 2307 019a 00       		.byte	0
 2308 019b 31       		.uleb128 0x31
 2309 019c 13       		.uleb128 0x13
 2310 019d 02       		.uleb128 0x2
 2311 019e 06       		.uleb128 0x6
 2312 019f 00       		.byte	0
 2313 01a0 00       		.byte	0
 2314 01a1 21       		.uleb128 0x21
 2315 01a2 0B       		.uleb128 0xb
 2316 01a3 01       		.byte	0x1
ARM GAS  /tmp/cccciJDL.s 			page 42


 2317 01a4 55       		.uleb128 0x55
 2318 01a5 06       		.uleb128 0x6
 2319 01a6 00       		.byte	0
 2320 01a7 00       		.byte	0
 2321 01a8 22       		.uleb128 0x22
 2322 01a9 34       		.uleb128 0x34
 2323 01aa 00       		.byte	0
 2324 01ab 31       		.uleb128 0x31
 2325 01ac 13       		.uleb128 0x13
 2326 01ad 02       		.uleb128 0x2
 2327 01ae 06       		.uleb128 0x6
 2328 01af 00       		.byte	0
 2329 01b0 00       		.byte	0
 2330 01b1 23       		.uleb128 0x23
 2331 01b2 898201   		.uleb128 0x4109
 2332 01b5 01       		.byte	0x1
 2333 01b6 11       		.uleb128 0x11
 2334 01b7 01       		.uleb128 0x1
 2335 01b8 31       		.uleb128 0x31
 2336 01b9 13       		.uleb128 0x13
 2337 01ba 01       		.uleb128 0x1
 2338 01bb 13       		.uleb128 0x13
 2339 01bc 00       		.byte	0
 2340 01bd 00       		.byte	0
 2341 01be 24       		.uleb128 0x24
 2342 01bf 8A8201   		.uleb128 0x410a
 2343 01c2 00       		.byte	0
 2344 01c3 02       		.uleb128 0x2
 2345 01c4 0A       		.uleb128 0xa
 2346 01c5 9142     		.uleb128 0x2111
 2347 01c7 0A       		.uleb128 0xa
 2348 01c8 00       		.byte	0
 2349 01c9 00       		.byte	0
 2350 01ca 25       		.uleb128 0x25
 2351 01cb 898201   		.uleb128 0x4109
 2352 01ce 00       		.byte	0
 2353 01cf 11       		.uleb128 0x11
 2354 01d0 01       		.uleb128 0x1
 2355 01d1 31       		.uleb128 0x31
 2356 01d2 13       		.uleb128 0x13
 2357 01d3 00       		.byte	0
 2358 01d4 00       		.byte	0
 2359 01d5 26       		.uleb128 0x26
 2360 01d6 898201   		.uleb128 0x4109
 2361 01d9 01       		.byte	0x1
 2362 01da 11       		.uleb128 0x11
 2363 01db 01       		.uleb128 0x1
 2364 01dc 31       		.uleb128 0x31
 2365 01dd 13       		.uleb128 0x13
 2366 01de 00       		.byte	0
 2367 01df 00       		.byte	0
 2368 01e0 27       		.uleb128 0x27
 2369 01e1 01       		.uleb128 0x1
 2370 01e2 01       		.byte	0x1
 2371 01e3 49       		.uleb128 0x49
 2372 01e4 13       		.uleb128 0x13
 2373 01e5 01       		.uleb128 0x1
ARM GAS  /tmp/cccciJDL.s 			page 43


 2374 01e6 13       		.uleb128 0x13
 2375 01e7 00       		.byte	0
 2376 01e8 00       		.byte	0
 2377 01e9 28       		.uleb128 0x28
 2378 01ea 21       		.uleb128 0x21
 2379 01eb 00       		.byte	0
 2380 01ec 49       		.uleb128 0x49
 2381 01ed 13       		.uleb128 0x13
 2382 01ee 2F       		.uleb128 0x2f
 2383 01ef 0B       		.uleb128 0xb
 2384 01f0 00       		.byte	0
 2385 01f1 00       		.byte	0
 2386 01f2 29       		.uleb128 0x29
 2387 01f3 34       		.uleb128 0x34
 2388 01f4 00       		.byte	0
 2389 01f5 03       		.uleb128 0x3
 2390 01f6 0E       		.uleb128 0xe
 2391 01f7 3A       		.uleb128 0x3a
 2392 01f8 0B       		.uleb128 0xb
 2393 01f9 3B       		.uleb128 0x3b
 2394 01fa 0B       		.uleb128 0xb
 2395 01fb 49       		.uleb128 0x49
 2396 01fc 13       		.uleb128 0x13
 2397 01fd 02       		.uleb128 0x2
 2398 01fe 0A       		.uleb128 0xa
 2399 01ff 00       		.byte	0
 2400 0200 00       		.byte	0
 2401 0201 2A       		.uleb128 0x2a
 2402 0202 34       		.uleb128 0x34
 2403 0203 00       		.byte	0
 2404 0204 03       		.uleb128 0x3
 2405 0205 0E       		.uleb128 0xe
 2406 0206 3A       		.uleb128 0x3a
 2407 0207 0B       		.uleb128 0xb
 2408 0208 3B       		.uleb128 0x3b
 2409 0209 0B       		.uleb128 0xb
 2410 020a 49       		.uleb128 0x49
 2411 020b 13       		.uleb128 0x13
 2412 020c 3F       		.uleb128 0x3f
 2413 020d 0C       		.uleb128 0xc
 2414 020e 3C       		.uleb128 0x3c
 2415 020f 0C       		.uleb128 0xc
 2416 0210 00       		.byte	0
 2417 0211 00       		.byte	0
 2418 0212 2B       		.uleb128 0x2b
 2419 0213 34       		.uleb128 0x34
 2420 0214 00       		.byte	0
 2421 0215 03       		.uleb128 0x3
 2422 0216 0E       		.uleb128 0xe
 2423 0217 3A       		.uleb128 0x3a
 2424 0218 0B       		.uleb128 0xb
 2425 0219 3B       		.uleb128 0x3b
 2426 021a 0B       		.uleb128 0xb
 2427 021b 49       		.uleb128 0x49
 2428 021c 13       		.uleb128 0x13
 2429 021d 3F       		.uleb128 0x3f
 2430 021e 0C       		.uleb128 0xc
ARM GAS  /tmp/cccciJDL.s 			page 44


 2431 021f 02       		.uleb128 0x2
 2432 0220 0A       		.uleb128 0xa
 2433 0221 00       		.byte	0
 2434 0222 00       		.byte	0
 2435 0223 2C       		.uleb128 0x2c
 2436 0224 2E       		.uleb128 0x2e
 2437 0225 01       		.byte	0x1
 2438 0226 3F       		.uleb128 0x3f
 2439 0227 0C       		.uleb128 0xc
 2440 0228 03       		.uleb128 0x3
 2441 0229 0E       		.uleb128 0xe
 2442 022a 3A       		.uleb128 0x3a
 2443 022b 0B       		.uleb128 0xb
 2444 022c 3B       		.uleb128 0x3b
 2445 022d 0B       		.uleb128 0xb
 2446 022e 27       		.uleb128 0x27
 2447 022f 0C       		.uleb128 0xc
 2448 0230 49       		.uleb128 0x49
 2449 0231 13       		.uleb128 0x13
 2450 0232 3C       		.uleb128 0x3c
 2451 0233 0C       		.uleb128 0xc
 2452 0234 01       		.uleb128 0x1
 2453 0235 13       		.uleb128 0x13
 2454 0236 00       		.byte	0
 2455 0237 00       		.byte	0
 2456 0238 2D       		.uleb128 0x2d
 2457 0239 2E       		.uleb128 0x2e
 2458 023a 01       		.byte	0x1
 2459 023b 3F       		.uleb128 0x3f
 2460 023c 0C       		.uleb128 0xc
 2461 023d 03       		.uleb128 0x3
 2462 023e 0E       		.uleb128 0xe
 2463 023f 3A       		.uleb128 0x3a
 2464 0240 0B       		.uleb128 0xb
 2465 0241 3B       		.uleb128 0x3b
 2466 0242 0B       		.uleb128 0xb
 2467 0243 27       		.uleb128 0x27
 2468 0244 0C       		.uleb128 0xc
 2469 0245 3C       		.uleb128 0x3c
 2470 0246 0C       		.uleb128 0xc
 2471 0247 01       		.uleb128 0x1
 2472 0248 13       		.uleb128 0x13
 2473 0249 00       		.byte	0
 2474 024a 00       		.byte	0
 2475 024b 2E       		.uleb128 0x2e
 2476 024c 26       		.uleb128 0x26
 2477 024d 00       		.byte	0
 2478 024e 00       		.byte	0
 2479 024f 00       		.byte	0
 2480 0250 2F       		.uleb128 0x2f
 2481 0251 2E       		.uleb128 0x2e
 2482 0252 01       		.byte	0x1
 2483 0253 3F       		.uleb128 0x3f
 2484 0254 0C       		.uleb128 0xc
 2485 0255 03       		.uleb128 0x3
 2486 0256 0E       		.uleb128 0xe
 2487 0257 3A       		.uleb128 0x3a
ARM GAS  /tmp/cccciJDL.s 			page 45


 2488 0258 0B       		.uleb128 0xb
 2489 0259 3B       		.uleb128 0x3b
 2490 025a 05       		.uleb128 0x5
 2491 025b 27       		.uleb128 0x27
 2492 025c 0C       		.uleb128 0xc
 2493 025d 49       		.uleb128 0x49
 2494 025e 13       		.uleb128 0x13
 2495 025f 3C       		.uleb128 0x3c
 2496 0260 0C       		.uleb128 0xc
 2497 0261 01       		.uleb128 0x1
 2498 0262 13       		.uleb128 0x13
 2499 0263 00       		.byte	0
 2500 0264 00       		.byte	0
 2501 0265 30       		.uleb128 0x30
 2502 0266 2E       		.uleb128 0x2e
 2503 0267 00       		.byte	0
 2504 0268 3F       		.uleb128 0x3f
 2505 0269 0C       		.uleb128 0xc
 2506 026a 03       		.uleb128 0x3
 2507 026b 0E       		.uleb128 0xe
 2508 026c 3A       		.uleb128 0x3a
 2509 026d 0B       		.uleb128 0xb
 2510 026e 3B       		.uleb128 0x3b
 2511 026f 05       		.uleb128 0x5
 2512 0270 27       		.uleb128 0x27
 2513 0271 0C       		.uleb128 0xc
 2514 0272 3C       		.uleb128 0x3c
 2515 0273 0C       		.uleb128 0xc
 2516 0274 00       		.byte	0
 2517 0275 00       		.byte	0
 2518 0276 00       		.byte	0
 2519              		.section	.debug_loc,"",%progbits
 2520              	.Ldebug_loc0:
 2521              	.LLST0:
 2522 0000 00000000 		.4byte	.LFB8
 2523 0004 02000000 		.4byte	.LCFI0
 2524 0008 0200     		.2byte	0x2
 2525 000a 7D       		.byte	0x7d
 2526 000b 00       		.sleb128 0
 2527 000c 02000000 		.4byte	.LCFI0
 2528 0010 0E000000 		.4byte	.LCFI1
 2529 0014 0200     		.2byte	0x2
 2530 0016 7D       		.byte	0x7d
 2531 0017 10       		.sleb128 16
 2532 0018 0E000000 		.4byte	.LCFI1
 2533 001c CC000000 		.4byte	.LFE8
 2534 0020 0200     		.2byte	0x2
 2535 0022 7D       		.byte	0x7d
 2536 0023 20       		.sleb128 32
 2537 0024 00000000 		.4byte	0
 2538 0028 00000000 		.4byte	0
 2539              	.LLST1:
 2540 002c 00000000 		.4byte	.LVL0
 2541 0030 10000000 		.4byte	.LVL1
 2542 0034 0100     		.2byte	0x1
 2543 0036 50       		.byte	0x50
 2544 0037 10000000 		.4byte	.LVL1
ARM GAS  /tmp/cccciJDL.s 			page 46


 2545 003b CC000000 		.4byte	.LFE8
 2546 003f 0400     		.2byte	0x4
 2547 0041 F3       		.byte	0xf3
 2548 0042 01       		.uleb128 0x1
 2549 0043 50       		.byte	0x50
 2550 0044 9F       		.byte	0x9f
 2551 0045 00000000 		.4byte	0
 2552 0049 00000000 		.4byte	0
 2553              	.LLST2:
 2554 004d 16000000 		.4byte	.LVL2
 2555 0051 23000000 		.4byte	.LVL3-1
 2556 0055 0100     		.2byte	0x1
 2557 0057 50       		.byte	0x50
 2558 0058 23000000 		.4byte	.LVL3-1
 2559 005c AE000000 		.4byte	.LVL22
 2560 0060 0100     		.2byte	0x1
 2561 0062 55       		.byte	0x55
 2562 0063 AE000000 		.4byte	.LVL22
 2563 0067 B1000000 		.4byte	.LVL23-1
 2564 006b 0100     		.2byte	0x1
 2565 006d 50       		.byte	0x50
 2566 006e B1000000 		.4byte	.LVL23-1
 2567 0072 CC000000 		.4byte	.LFE8
 2568 0076 0100     		.2byte	0x1
 2569 0078 55       		.byte	0x55
 2570 0079 00000000 		.4byte	0
 2571 007d 00000000 		.4byte	0
 2572              	.LLST3:
 2573 0081 32000000 		.4byte	.LVL5
 2574 0085 AE000000 		.4byte	.LVL22
 2575 0089 0200     		.2byte	0x2
 2576 008b 91       		.byte	0x91
 2577 008c 64       		.sleb128 -28
 2578 008d 00000000 		.4byte	0
 2579 0091 00000000 		.4byte	0
 2580              	.LLST4:
 2581 0095 3A000000 		.4byte	.LVL6
 2582 0099 44000000 		.4byte	.LVL8
 2583 009d 0100     		.2byte	0x1
 2584 009f 50       		.byte	0x50
 2585 00a0 00000000 		.4byte	0
 2586 00a4 00000000 		.4byte	0
 2587              	.LLST5:
 2588 00a8 42000000 		.4byte	.LVL7
 2589 00ac AE000000 		.4byte	.LVL22
 2590 00b0 0100     		.2byte	0x1
 2591 00b2 54       		.byte	0x54
 2592 00b3 00000000 		.4byte	0
 2593 00b7 00000000 		.4byte	0
 2594              	.LLST6:
 2595 00bb 32000000 		.4byte	.LVL5
 2596 00bf AE000000 		.4byte	.LVL22
 2597 00c3 0200     		.2byte	0x2
 2598 00c5 91       		.byte	0x91
 2599 00c6 68       		.sleb128 -24
 2600 00c7 00000000 		.4byte	0
 2601 00cb 00000000 		.4byte	0
ARM GAS  /tmp/cccciJDL.s 			page 47


 2602              	.LLST7:
 2603 00cf 32000000 		.4byte	.LVL5
 2604 00d3 AE000000 		.4byte	.LVL22
 2605 00d7 0200     		.2byte	0x2
 2606 00d9 91       		.byte	0x91
 2607 00da 6C       		.sleb128 -20
 2608 00db 00000000 		.4byte	0
 2609 00df 00000000 		.4byte	0
 2610              	.LLST8:
 2611 00e3 4C000000 		.4byte	.LVL10
 2612 00e7 51000000 		.4byte	.LVL11-1
 2613 00eb 0100     		.2byte	0x1
 2614 00ed 53       		.byte	0x53
 2615 00ee 6C000000 		.4byte	.LVL16
 2616 00f2 70000000 		.4byte	.LVL17
 2617 00f6 0200     		.2byte	0x2
 2618 00f8 91       		.byte	0x91
 2619 00f9 62       		.sleb128 -30
 2620 00fa 72000000 		.4byte	.LVL18
 2621 00fe 76000000 		.4byte	.LVL19
 2622 0102 0100     		.2byte	0x1
 2623 0104 53       		.byte	0x53
 2624 0105 00000000 		.4byte	0
 2625 0109 00000000 		.4byte	0
 2626              	.LLST9:
 2627 010d 48000000 		.4byte	.LVL9
 2628 0111 4C000000 		.4byte	.LVL10
 2629 0115 0100     		.2byte	0x1
 2630 0117 50       		.byte	0x50
 2631 0118 60000000 		.4byte	.LVL14
 2632 011c 68000000 		.4byte	.LVL15
 2633 0120 0100     		.2byte	0x1
 2634 0122 50       		.byte	0x50
 2635 0123 00000000 		.4byte	0
 2636 0127 00000000 		.4byte	0
 2637              		.section	.debug_aranges,"",%progbits
 2638 0000 1C000000 		.4byte	0x1c
 2639 0004 0200     		.2byte	0x2
 2640 0006 00000000 		.4byte	.Ldebug_info0
 2641 000a 04       		.byte	0x4
 2642 000b 00       		.byte	0
 2643 000c 0000     		.2byte	0
 2644 000e 0000     		.2byte	0
 2645 0010 00000000 		.4byte	.LFB8
 2646 0014 CC000000 		.4byte	.LFE8-.LFB8
 2647 0018 00000000 		.4byte	0
 2648 001c 00000000 		.4byte	0
 2649              		.section	.debug_ranges,"",%progbits
 2650              	.Ldebug_ranges0:
 2651 0000 3A000000 		.4byte	.LBB4
 2652 0004 3C000000 		.4byte	.LBE4
 2653 0008 42000000 		.4byte	.LBB8
 2654 000c 58000000 		.4byte	.LBE8
 2655 0010 60000000 		.4byte	.LBB9
 2656 0014 AE000000 		.4byte	.LBE9
 2657 0018 00000000 		.4byte	0
 2658 001c 00000000 		.4byte	0
ARM GAS  /tmp/cccciJDL.s 			page 48


 2659 0020 3A000000 		.4byte	.LBB5
 2660 0024 3C000000 		.4byte	.LBE5
 2661 0028 42000000 		.4byte	.LBB6
 2662 002c 58000000 		.4byte	.LBE6
 2663 0030 60000000 		.4byte	.LBB7
 2664 0034 AE000000 		.4byte	.LBE7
 2665 0038 00000000 		.4byte	0
 2666 003c 00000000 		.4byte	0
 2667 0040 00000000 		.4byte	.LFB8
 2668 0044 CC000000 		.4byte	.LFE8
 2669 0048 00000000 		.4byte	0
 2670 004c 00000000 		.4byte	0
 2671              		.section	.debug_line,"",%progbits
 2672              	.Ldebug_line0:
 2673 0000 97020000 		.section	.debug_str,"MS",%progbits,1
 2673      02004B02 
 2673      00000201 
 2673      FB0E0D00 
 2673      01010101 
 2674              	.LASF46:
 2675 0000 54687265 		.ascii	"ThreadsList\000"
 2675      6164734C 
 2675      69737400 
 2676              	.LASF38:
 2677 000c 705F7761 		.ascii	"p_waiting\000"
 2677      6974696E 
 2677      6700
 2678              	.LASF128:
 2679 0016 7564705F 		.ascii	"udp_pcb\000"
 2679      70636200 
 2680              	.LASF95:
 2681 001e 7379735F 		.ascii	"sys_mbox_t\000"
 2681      6D626F78 
 2681      5F7400
 2682              	.LASF37:
 2683 0029 705F7469 		.ascii	"p_time\000"
 2683      6D6500
 2684              	.LASF47:
 2685 0030 72656761 		.ascii	"regarm_t\000"
 2685      726D5F74 
 2685      00
 2686              	.LASF28:
 2687 0039 705F7072 		.ascii	"p_prio\000"
 2687      696F00
 2688              	.LASF88:
 2689 0040 666C6167 		.ascii	"flags\000"
 2689      7300
 2690              	.LASF23:
 2691 0046 73797374 		.ascii	"systime_t\000"
 2691      696D655F 
 2691      7400
 2692              	.LASF64:
 2693 0050 6D5F6F77 		.ascii	"m_owner\000"
 2693      6E657200 
 2694              	.LASF60:
 2695 0058 735F7175 		.ascii	"s_queue\000"
 2695      65756500 
ARM GAS  /tmp/cccciJDL.s 			page 49


 2696              	.LASF120:
 2697 0060 72656376 		.ascii	"recvmbox\000"
 2697      6D626F78 
 2697      00
 2698              	.LASF129:
 2699 0069 7261775F 		.ascii	"raw_pcb\000"
 2699      70636200 
 2700              	.LASF39:
 2701 0071 705F6D73 		.ascii	"p_msgqueue\000"
 2701      67717565 
 2701      756500
 2702              	.LASF0:
 2703 007c 756E7369 		.ascii	"unsigned int\000"
 2703      676E6564 
 2703      20696E74 
 2703      00
 2704              	.LASF105:
 2705 0089 4E455443 		.ascii	"NETCONN_WRITE\000"
 2705      4F4E4E5F 
 2705      57524954 
 2705      4500
 2706              	.LASF84:
 2707 0097 6E657874 		.ascii	"next\000"
 2707      00
 2708              	.LASF100:
 2709 009c 4E455443 		.ascii	"NETCONN_UDPNOCHKSUM\000"
 2709      4F4E4E5F 
 2709      5544504E 
 2709      4F43484B 
 2709      53554D00 
 2710              	.LASF82:
 2711 00b0 6572725F 		.ascii	"err_t\000"
 2711      7400
 2712              	.LASF80:
 2713 00b6 7531365F 		.ascii	"u16_t\000"
 2713      7400
 2714              	.LASF75:
 2715 00bc 77746F62 		.ascii	"wtobjp\000"
 2715      6A7000
 2716              	.LASF148:
 2717 00c3 6E657463 		.ascii	"netconn_delete\000"
 2717      6F6E6E5F 
 2717      64656C65 
 2717      746500
 2718              	.LASF143:
 2719 00d2 6E657463 		.ascii	"netconn_new_with_proto_and_callback\000"
 2719      6F6E6E5F 
 2719      6E65775F 
 2719      77697468 
 2719      5F70726F 
 2720              	.LASF76:
 2721 00f6 65776D61 		.ascii	"ewmask\000"
 2721      736B00
 2722              	.LASF72:
 2723 00fd 4D61696C 		.ascii	"Mailbox\000"
 2723      626F7800 
 2724              	.LASF103:
ARM GAS  /tmp/cccciJDL.s 			page 50


 2725 0105 6E657463 		.ascii	"netconn_state\000"
 2725      6F6E6E5F 
 2725      73746174 
 2725      6500
 2726              	.LASF61:
 2727 0113 735F636E 		.ascii	"s_cnt\000"
 2727      7400
 2728              	.LASF11:
 2729 0119 75696E74 		.ascii	"uint32_t\000"
 2729      33325F74 
 2729      00
 2730              	.LASF2:
 2731 0122 696E7438 		.ascii	"int8_t\000"
 2731      5F7400
 2732              	.LASF22:
 2733 0129 6576656E 		.ascii	"eventmask_t\000"
 2733      746D6173 
 2733      6B5F7400 
 2734              	.LASF53:
 2735 0135 725F7072 		.ascii	"r_prio\000"
 2735      696F00
 2736              	.LASF149:
 2737 013c 474E5520 		.ascii	"GNU C 4.7.2\000"
 2737      4320342E 
 2737      372E3200 
 2738              	.LASF114:
 2739 0148 4E455443 		.ascii	"NETCONN_EVT_ERROR\000"
 2739      4F4E4E5F 
 2739      4556545F 
 2739      4552524F 
 2739      5200
 2740              	.LASF20:
 2741 015a 74707269 		.ascii	"tprio_t\000"
 2741      6F5F7400 
 2742              	.LASF154:
 2743 0162 6E657462 		.ascii	"netbuf_delete\000"
 2743      75665F64 
 2743      656C6574 
 2743      6500
 2744              	.LASF15:
 2745 0170 6C6F6E67 		.ascii	"long long unsigned int\000"
 2745      206C6F6E 
 2745      6720756E 
 2745      7369676E 
 2745      65642069 
 2746              	.LASF142:
 2747 0187 6E657463 		.ascii	"netconn_write\000"
 2747      6F6E6E5F 
 2747      77726974 
 2747      6500
 2748              	.LASF96:
 2749 0195 4E455443 		.ascii	"NETCONN_INVALID\000"
 2749      4F4E4E5F 
 2749      494E5641 
 2749      4C494400 
 2750              	.LASF24:
 2751 01a5 636E745F 		.ascii	"cnt_t\000"
ARM GAS  /tmp/cccciJDL.s 			page 51


 2751      7400
 2752              	.LASF30:
 2753 01ab 705F6E65 		.ascii	"p_newer\000"
 2753      77657200 
 2754              	.LASF110:
 2755 01b3 4E455443 		.ascii	"NETCONN_EVT_RCVPLUS\000"
 2755      4F4E4E5F 
 2755      4556545F 
 2755      52435650 
 2755      4C555300 
 2756              	.LASF98:
 2757 01c7 4E455443 		.ascii	"NETCONN_UDP\000"
 2757      4F4E4E5F 
 2757      55445000 
 2758              	.LASF86:
 2759 01d3 746F745F 		.ascii	"tot_len\000"
 2759      6C656E00 
 2760              	.LASF1:
 2761 01db 73697A65 		.ascii	"size_t\000"
 2761      5F7400
 2762              	.LASF73:
 2763 01e2 7264796D 		.ascii	"rdymsg\000"
 2763      736700
 2764              	.LASF85:
 2765 01e9 7061796C 		.ascii	"payload\000"
 2765      6F616400 
 2766              	.LASF83:
 2767 01f1 70627566 		.ascii	"pbuf\000"
 2767      00
 2768              	.LASF69:
 2769 01f6 6D625F72 		.ascii	"mb_rdptr\000"
 2769      64707472 
 2769      00
 2770              	.LASF133:
 2771 01ff 636F6E6E 		.ascii	"conn\000"
 2771      00
 2772              	.LASF94:
 2773 0204 7379735F 		.ascii	"sys_sem_t\000"
 2773      73656D5F 
 2773      7400
 2774              	.LASF118:
 2775 020e 6C617374 		.ascii	"last_err\000"
 2775      5F657272 
 2775      00
 2776              	.LASF79:
 2777 0217 73385F74 		.ascii	"s8_t\000"
 2777      00
 2778              	.LASF62:
 2779 021c 4D757465 		.ascii	"Mutex\000"
 2779      7800
 2780              	.LASF71:
 2781 0222 6D625F65 		.ascii	"mb_emptysem\000"
 2781      6D707479 
 2781      73656D00 
 2782              	.LASF112:
 2783 022e 4E455443 		.ascii	"NETCONN_EVT_SENDPLUS\000"
 2783      4F4E4E5F 
ARM GAS  /tmp/cccciJDL.s 			page 52


 2783      4556545F 
 2783      53454E44 
 2783      504C5553 
 2784              	.LASF130:
 2785 0243 6170695F 		.ascii	"api_msg_msg\000"
 2785      6D73675F 
 2785      6D736700 
 2786              	.LASF152:
 2787 024f 68747470 		.ascii	"http_server_serve\000"
 2787      5F736572 
 2787      7665725F 
 2787      73657276 
 2787      6500
 2788              	.LASF111:
 2789 0261 4E455443 		.ascii	"NETCONN_EVT_RCVMINUS\000"
 2789      4F4E4E5F 
 2789      4556545F 
 2789      5243564D 
 2789      494E5553 
 2790              	.LASF32:
 2791 0276 705F6E61 		.ascii	"p_name\000"
 2791      6D6500
 2792              	.LASF45:
 2793 027d 54687265 		.ascii	"ThreadsQueue\000"
 2793      61647351 
 2793      75657565 
 2793      00
 2794              	.LASF141:
 2795 028a 6E657462 		.ascii	"netbuf_data\000"
 2795      75665F64 
 2795      61746100 
 2796              	.LASF77:
 2797 0296 63686172 		.ascii	"char\000"
 2797      00
 2798              	.LASF113:
 2799 029b 4E455443 		.ascii	"NETCONN_EVT_SENDMINUS\000"
 2799      4F4E4E5F 
 2799      4556545F 
 2799      53454E44 
 2799      4D494E55 
 2800              	.LASF55:
 2801 02b1 725F6E65 		.ascii	"r_newer\000"
 2801      77657200 
 2802              	.LASF25:
 2803 02b9 54687265 		.ascii	"Thread\000"
 2803      616400
 2804              	.LASF17:
 2805 02c0 74737461 		.ascii	"tstate_t\000"
 2805      74655F74 
 2805      00
 2806              	.LASF132:
 2807 02c9 6275666C 		.ascii	"buflen\000"
 2807      656E00
 2808              	.LASF31:
 2809 02d0 705F6F6C 		.ascii	"p_older\000"
 2809      64657200 
 2810              	.LASF33:
ARM GAS  /tmp/cccciJDL.s 			page 53


 2811 02d8 705F7374 		.ascii	"p_state\000"
 2811      61746500 
 2812              	.LASF4:
 2813 02e0 75696E74 		.ascii	"uint8_t\000"
 2813      385F7400 
 2814              	.LASF70:
 2815 02e8 6D625F66 		.ascii	"mb_fullsem\000"
 2815      756C6C73 
 2815      656D00
 2816              	.LASF44:
 2817 02f3 705F6D70 		.ascii	"p_mpool\000"
 2817      6F6F6C00 
 2818              	.LASF131:
 2819 02fb 696E6275 		.ascii	"inbuf\000"
 2819      6600
 2820              	.LASF42:
 2821 0301 705F6D74 		.ascii	"p_mtxlist\000"
 2821      786C6973 
 2821      7400
 2822              	.LASF121:
 2823 030b 61636365 		.ascii	"acceptmbox\000"
 2823      70746D62 
 2823      6F7800
 2824              	.LASF147:
 2825 0316 6E657463 		.ascii	"netconn_accept\000"
 2825      6F6E6E5F 
 2825      61636365 
 2825      707400
 2826              	.LASF13:
 2827 0325 6C6F6E67 		.ascii	"long long int\000"
 2827      206C6F6E 
 2827      6720696E 
 2827      7400
 2828              	.LASF52:
 2829 0333 725F7175 		.ascii	"r_queue\000"
 2829      65756500 
 2830              	.LASF21:
 2831 033b 6D73675F 		.ascii	"msg_t\000"
 2831      7400
 2832              	.LASF50:
 2833 0341 636F6E74 		.ascii	"context\000"
 2833      65787400 
 2834              	.LASF78:
 2835 0349 75385F74 		.ascii	"u8_t\000"
 2835      00
 2836              	.LASF34:
 2837 034e 705F666C 		.ascii	"p_flags\000"
 2837      61677300 
 2838              	.LASF67:
 2839 0356 6D625F74 		.ascii	"mb_top\000"
 2839      6F7000
 2840              	.LASF151:
 2841 035d 2F686F6D 		.ascii	"/home/kwilson/Sandbox/ChibiOS_2.5.1/demos/ARMCM4-ST"
 2841      652F6B77 
 2841      696C736F 
 2841      6E2F5361 
 2841      6E64626F 
ARM GAS  /tmp/cccciJDL.s 			page 54


 2842 0390 4D333246 		.ascii	"M32F407-LWIP-FATFS-USB\000"
 2842      3430372D 
 2842      4C574950 
 2842      2D464154 
 2842      46532D55 
 2843              	.LASF19:
 2844 03a7 74736C69 		.ascii	"tslices_t\000"
 2844      6365735F 
 2844      7400
 2845              	.LASF56:
 2846 03b1 725F6F6C 		.ascii	"r_older\000"
 2846      64657200 
 2847              	.LASF40:
 2848 03b9 705F6D73 		.ascii	"p_msg\000"
 2848      6700
 2849              	.LASF16:
 2850 03bf 746D6F64 		.ascii	"tmode_t\000"
 2850      655F7400 
 2851              	.LASF140:
 2852 03c7 6E657463 		.ascii	"netconn_close\000"
 2852      6F6E6E5F 
 2852      636C6F73 
 2852      6500
 2853              	.LASF7:
 2854 03d5 75696E74 		.ascii	"uint16_t\000"
 2854      31365F74 
 2854      00
 2855              	.LASF135:
 2856 03de 68747470 		.ascii	"http_html_hdr\000"
 2856      5F68746D 
 2856      6C5F6864 
 2856      7200
 2857              	.LASF104:
 2858 03ec 4E455443 		.ascii	"NETCONN_NONE\000"
 2858      4F4E4E5F 
 2858      4E4F4E45 
 2858      00
 2859              	.LASF49:
 2860 03f9 696E7463 		.ascii	"intctx\000"
 2860      747800
 2861              	.LASF102:
 2862 0400 6E657463 		.ascii	"netconn_type\000"
 2862      6F6E6E5F 
 2862      74797065 
 2862      00
 2863              	.LASF107:
 2864 040d 4E455443 		.ascii	"NETCONN_CONNECT\000"
 2864      4F4E4E5F 
 2864      434F4E4E 
 2864      45435400 
 2865              	.LASF153:
 2866 041d 68747470 		.ascii	"http_server\000"
 2866      5F736572 
 2866      76657200 
 2867              	.LASF43:
 2868 0429 705F7265 		.ascii	"p_realprio\000"
 2868      616C7072 
ARM GAS  /tmp/cccciJDL.s 			page 55


 2868      696F00
 2869              	.LASF81:
 2870 0434 7533325F 		.ascii	"u32_t\000"
 2870      7400
 2871              	.LASF6:
 2872 043a 73686F72 		.ascii	"short int\000"
 2872      7420696E 
 2872      7400
 2873              	.LASF68:
 2874 0444 6D625F77 		.ascii	"mb_wrptr\000"
 2874      72707472 
 2874      00
 2875              	.LASF57:
 2876 044d 725F6375 		.ascii	"r_current\000"
 2876      7272656E 
 2876      7400
 2877              	.LASF41:
 2878 0457 705F6570 		.ascii	"p_epending\000"
 2878      656E6469 
 2878      6E6700
 2879              	.LASF63:
 2880 0462 6D5F7175 		.ascii	"m_queue\000"
 2880      65756500 
 2881              	.LASF10:
 2882 046a 6C6F6E67 		.ascii	"long int\000"
 2882      20696E74 
 2882      00
 2883              	.LASF138:
 2884 0473 77615F68 		.ascii	"wa_http_server\000"
 2884      7474705F 
 2884      73657276 
 2884      657200
 2885              	.LASF124:
 2886 0482 63757272 		.ascii	"current_msg\000"
 2886      656E745F 
 2886      6D736700 
 2887              	.LASF26:
 2888 048e 705F6E65 		.ascii	"p_next\000"
 2888      787400
 2889              	.LASF139:
 2890 0495 6E657463 		.ascii	"netconn_recv\000"
 2890      6F6E6E5F 
 2890      72656376 
 2890      00
 2891              	.LASF14:
 2892 04a2 75696E74 		.ascii	"uint64_t\000"
 2892      36345F74 
 2892      00
 2893              	.LASF29:
 2894 04ab 705F6374 		.ascii	"p_ctx\000"
 2894      7800
 2895              	.LASF137:
 2896 04b1 726C6973 		.ascii	"rlist\000"
 2896      7400
 2897              	.LASF122:
 2898 04b7 736F636B 		.ascii	"socket\000"
 2898      657400
ARM GAS  /tmp/cccciJDL.s 			page 56


 2899              	.LASF136:
 2900 04be 68747470 		.ascii	"http_index_html\000"
 2900      5F696E64 
 2900      65785F68 
 2900      746D6C00 
 2901              	.LASF59:
 2902 04ce 53656D61 		.ascii	"Semaphore\000"
 2902      70686F72 
 2902      6500
 2903              	.LASF92:
 2904 04d8 6E657462 		.ascii	"netbuf\000"
 2904      756600
 2905              	.LASF150:
 2906 04df 7765622F 		.ascii	"web/web.c\000"
 2906      7765622E 
 2906      6300
 2907              	.LASF144:
 2908 04e9 6E657463 		.ascii	"netconn_bind\000"
 2908      6F6E6E5F 
 2908      62696E64 
 2908      00
 2909              	.LASF27:
 2910 04f6 705F7072 		.ascii	"p_prev\000"
 2910      657600
 2911              	.LASF51:
 2912 04fd 73697A65 		.ascii	"sizetype\000"
 2912      74797065 
 2912      00
 2913              	.LASF18:
 2914 0506 74726566 		.ascii	"trefs_t\000"
 2914      735F7400 
 2915              	.LASF12:
 2916 050e 6C6F6E67 		.ascii	"long unsigned int\000"
 2916      20756E73 
 2916      69676E65 
 2916      6420696E 
 2916      7400
 2917              	.LASF66:
 2918 0520 6D625F62 		.ascii	"mb_buffer\000"
 2918      75666665 
 2918      7200
 2919              	.LASF9:
 2920 052a 696E7433 		.ascii	"int32_t\000"
 2920      325F7400 
 2921              	.LASF93:
 2922 0532 706F7274 		.ascii	"port\000"
 2922      00
 2923              	.LASF109:
 2924 0537 6E657463 		.ascii	"netconn_evt\000"
 2924      6F6E6E5F 
 2924      65767400 
 2925              	.LASF115:
 2926 0543 6E657463 		.ascii	"netconn_callback\000"
 2926      6F6E6E5F 
 2926      63616C6C 
 2926      6261636B 
 2926      00
ARM GAS  /tmp/cccciJDL.s 			page 57


 2927              	.LASF145:
 2928 0554 6E657463 		.ascii	"netconn_listen_with_backlog\000"
 2928      6F6E6E5F 
 2928      6C697374 
 2928      656E5F77 
 2928      6974685F 
 2929              	.LASF87:
 2930 0570 74797065 		.ascii	"type\000"
 2930      00
 2931              	.LASF5:
 2932 0575 756E7369 		.ascii	"unsigned char\000"
 2932      676E6564 
 2932      20636861 
 2932      7200
 2933              	.LASF35:
 2934 0583 705F7265 		.ascii	"p_refs\000"
 2934      667300
 2935              	.LASF58:
 2936 058a 52656164 		.ascii	"ReadyList\000"
 2936      794C6973 
 2936      7400
 2937              	.LASF126:
 2938 0594 69705F70 		.ascii	"ip_pcb\000"
 2938      636200
 2939              	.LASF97:
 2940 059b 4E455443 		.ascii	"NETCONN_TCP\000"
 2940      4F4E4E5F 
 2940      54435000 
 2941              	.LASF106:
 2942 05a7 4E455443 		.ascii	"NETCONN_LISTEN\000"
 2942      4F4E4E5F 
 2942      4C495354 
 2942      454E00
 2943              	.LASF155:
 2944 05b6 706F7274 		.ascii	"port_halt\000"
 2944      5F68616C 
 2944      7400
 2945              	.LASF36:
 2946 05c0 705F7072 		.ascii	"p_preempt\000"
 2946      65656D70 
 2946      7400
 2947              	.LASF123:
 2948 05ca 77726974 		.ascii	"write_offset\000"
 2948      655F6F66 
 2948      66736574 
 2948      00
 2949              	.LASF90:
 2950 05d7 61646472 		.ascii	"addr\000"
 2950      00
 2951              	.LASF117:
 2952 05dc 73746174 		.ascii	"state\000"
 2952      6500
 2953              	.LASF125:
 2954 05e2 63616C6C 		.ascii	"callback\000"
 2954      6261636B 
 2954      00
 2955              	.LASF108:
ARM GAS  /tmp/cccciJDL.s 			page 58


 2956 05eb 4E455443 		.ascii	"NETCONN_CLOSE\000"
 2956      4F4E4E5F 
 2956      434C4F53 
 2956      4500
 2957              	.LASF65:
 2958 05f9 6D5F6E65 		.ascii	"m_next\000"
 2958      787400
 2959              	.LASF134:
 2960 0600 6E657763 		.ascii	"newconn\000"
 2960      6F6E6E00 
 2961              	.LASF3:
 2962 0608 7369676E 		.ascii	"signed char\000"
 2962      65642063 
 2962      68617200 
 2963              	.LASF127:
 2964 0614 7463705F 		.ascii	"tcp_pcb\000"
 2964      70636200 
 2965              	.LASF8:
 2966 061c 73686F72 		.ascii	"short unsigned int\000"
 2966      7420756E 
 2966      7369676E 
 2966      65642069 
 2966      6E7400
 2967              	.LASF54:
 2968 062f 725F6374 		.ascii	"r_ctx\000"
 2968      7800
 2969              	.LASF48:
 2970 0635 73746B61 		.ascii	"stkalign_t\000"
 2970      6C69676E 
 2970      5F7400
 2971              	.LASF101:
 2972 0640 4E455443 		.ascii	"NETCONN_RAW\000"
 2972      4F4E4E5F 
 2972      52415700 
 2973              	.LASF99:
 2974 064c 4E455443 		.ascii	"NETCONN_UDPLITE\000"
 2974      4F4E4E5F 
 2974      5544504C 
 2974      49544500 
 2975              	.LASF146:
 2976 065c 63685468 		.ascii	"chThdSetPriority\000"
 2976      64536574 
 2976      5072696F 
 2976      72697479 
 2976      00
 2977              	.LASF119:
 2978 066d 6F705F63 		.ascii	"op_completed\000"
 2978      6F6D706C 
 2978      65746564 
 2978      00
 2979              	.LASF91:
 2980 067a 69705F61 		.ascii	"ip_addr_t\000"
 2980      6464725F 
 2980      7400
 2981              	.LASF116:
 2982 0684 6E657463 		.ascii	"netconn\000"
 2982      6F6E6E00 
ARM GAS  /tmp/cccciJDL.s 			page 59


 2983              	.LASF74:
 2984 068c 65786974 		.ascii	"exitcode\000"
 2984      636F6465 
 2984      00
 2985              	.LASF89:
 2986 0695 69705F61 		.ascii	"ip_addr\000"
 2986      64647200 
 2987              		.ident	"GCC: (crosstool-NG 1.17.0 - PSAS ST32F4 GFE) 4.7.2"
ARM GAS  /tmp/cccciJDL.s 			page 60


DEFINED SYMBOLS
                            *ABS*:0000000000000000 web.c
     /tmp/cccciJDL.s:21     .text.http_server:0000000000000000 $t
     /tmp/cccciJDL.s:27     .text.http_server:0000000000000000 http_server
     /tmp/cccciJDL.s:192    .text.http_server:00000000000000bc $d
     /tmp/cccciJDL.s:217    .bss.wa_http_server:0000000000000000 wa_http_server
     /tmp/cccciJDL.s:201    .rodata.http_index_html:0000000000000000 $d
     /tmp/cccciJDL.s:205    .rodata.http_index_html:0000000000000000 http_index_html
     /tmp/cccciJDL.s:210    .rodata.str1.4:0000000000000000 $d
     /tmp/cccciJDL.s:214    .bss.wa_http_server:0000000000000000 $d
     /tmp/cccciJDL.s:220    .rodata.http_html_hdr:0000000000000000 $d
     /tmp/cccciJDL.s:224    .rodata.http_html_hdr:0000000000000000 http_html_hdr
                     .debug_frame:0000000000000010 $d
     /tmp/cccciJDL.s:200    .text.http_server:00000000000000cc $t

UNDEFINED SYMBOLS
netconn_new_with_proto_and_callback
netconn_bind
netconn_listen_with_backlog
chThdSetPriority
netconn_accept
netconn_recv
netconn_close
netbuf_delete
netconn_delete
netbuf_data
netconn_write
port_halt
rlist
