ARM GAS  /tmp/ccuV2Yv3.s 			page 1


   1              		.syntax unified
   2              		.cpu cortex-m4
   3              		.eabi_attribute 27, 3
   4              		.eabi_attribute 28, 1
   5              		.fpu fpv4-sp-d16
   6              		.eabi_attribute 20, 1
   7              		.eabi_attribute 21, 1
   8              		.eabi_attribute 23, 3
   9              		.eabi_attribute 24, 1
  10              		.eabi_attribute 25, 1
  11              		.eabi_attribute 26, 1
  12              		.eabi_attribute 30, 2
  13              		.eabi_attribute 34, 1
  14              		.eabi_attribute 18, 4
  15              		.thumb
  16              		.file	"adc.c"
  17              		.text
  18              	.Ltext0:
  19              		.cfi_sections	.debug_frame
  20              		.section	.text.adcInit,"ax",%progbits
  21              		.align	2
  22              		.p2align 4,,15
  23              		.global	adcInit
  24              		.thumb
  25              		.thumb_func
  26              		.type	adcInit, %function
  27              	adcInit:
  28              	.LFB118:
  29              		.file 1 "../../ChibiOS/os/hal/src/adc.c"
  30              		.loc 1 61 0
  31              		.cfi_startproc
  32              		@ args = 0, pretend = 0, frame = 0
  33              		@ frame_needed = 0, uses_anonymous_args = 0
  34              		@ link register save eliminated.
  35              		.loc 1 64 0
  36              		.loc 1 63 0
  37 0000 FFF7FEBF 		b	adc_lld_init
  38              	.LVL0:
  39              		.cfi_endproc
  40              	.LFE118:
  41              		.size	adcInit, .-adcInit
  42 0004 AFF30080 		.section	.text.adcObjectInit,"ax",%progbits
  42      AFF30080 
  42      AFF30080 
  43              		.align	2
  44              		.p2align 4,,15
  45              		.global	adcObjectInit
  46              		.thumb
  47              		.thumb_func
  48              		.type	adcObjectInit, %function
  49              	adcObjectInit:
  50              	.LFB119:
  51              		.loc 1 73 0
  52              		.cfi_startproc
  53              		@ args = 0, pretend = 0, frame = 0
  54              		@ frame_needed = 0, uses_anonymous_args = 0
  55              		@ link register save eliminated.
ARM GAS  /tmp/ccuV2Yv3.s 			page 2


  56              	.LVL1:
  57              		.loc 1 76 0
  58 0000 0023     		movs	r3, #0
  59              		.loc 1 75 0
  60 0002 0122     		movs	r2, #1
  61 0004 0270     		strb	r2, [r0, #0]
  62              		.loc 1 76 0
  63 0006 4360     		str	r3, [r0, #4]
  64              		.loc 1 77 0
  65 0008 8360     		str	r3, [r0, #8]
  66              		.loc 1 78 0
  67 000a C360     		str	r3, [r0, #12]
  68              		.loc 1 79 0
  69 000c 0361     		str	r3, [r0, #16]
  70              		.loc 1 81 0
  71 000e 4361     		str	r3, [r0, #20]
  72              		.loc 1 85 0
  73 0010 1830     		adds	r0, r0, #24
  74              	.LVL2:
  75              		.loc 1 93 0
  76              		.loc 1 85 0
  77 0012 FFF7FEBF 		b	chMtxInit
  78              	.LVL3:
  79              		.cfi_endproc
  80              	.LFE119:
  81              		.size	adcObjectInit, .-adcObjectInit
  82 0016 00BFAFF3 		.section	.text.adcStart,"ax",%progbits
  82      0080AFF3 
  82      0080
  83              		.align	2
  84              		.p2align 4,,15
  85              		.global	adcStart
  86              		.thumb
  87              		.thumb_func
  88              		.type	adcStart, %function
  89              	adcStart:
  90              	.LFB120:
  91              		.loc 1 104 0
  92              		.cfi_startproc
  93              		@ args = 0, pretend = 0, frame = 0
  94              		@ frame_needed = 0, uses_anonymous_args = 0
  95              	.LVL4:
  96 0000 38B5     		push	{r3, r4, r5, lr}
  97              	.LCFI0:
  98              		.cfi_def_cfa_offset 16
  99              		.cfi_offset 3, -16
 100              		.cfi_offset 4, -12
 101              		.cfi_offset 5, -8
 102              		.cfi_offset 14, -4
 103              		.loc 1 106 0
 104 0002 0446     		mov	r4, r0
 105              		.loc 1 104 0
 106 0004 0D46     		mov	r5, r1
 107              		.loc 1 106 0
 108 0006 B8B1     		cbz	r0, .L7
 109              	.LVL5:
 110              	.L4:
ARM GAS  /tmp/ccuV2Yv3.s 			page 3


 111              	.LBB2:
 112              		.loc 1 108 0
 113 0008 2023     		movs	r3, #32
 114              	.LVL6:
 115              	@ 108 "../../ChibiOS/os/hal/src/adc.c" 1
 116 000a 83F31188 		msr     BASEPRI, r3
 117              	@ 0 "" 2
 118              	.LVL7:
 119              		.thumb
 120              	.LBE2:
 121 000e FFF7FEFF 		bl	dbg_check_lock
 122              	.LVL8:
 123              		.loc 1 109 0
 124 0012 2378     		ldrb	r3, [r4, #0]	@ zero_extendqisi2
 125 0014 013B     		subs	r3, r3, #1
 126 0016 012B     		cmp	r3, #1
 127 0018 02D9     		bls	.L5
 128              		.loc 1 109 0 is_stmt 0 discriminator 1
 129 001a 0948     		ldr	r0, .L8
 130 001c FFF7FEFF 		bl	chDbgPanic
 131              	.LVL9:
 132              	.L5:
 133              		.loc 1 112 0 is_stmt 1
 134 0020 2046     		mov	r0, r4
 135              		.loc 1 111 0
 136 0022 6560     		str	r5, [r4, #4]
 137              		.loc 1 112 0
 138 0024 FFF7FEFF 		bl	adc_lld_start
 139              	.LVL10:
 140              		.loc 1 113 0
 141 0028 0223     		movs	r3, #2
 142 002a 2370     		strb	r3, [r4, #0]
 143              		.loc 1 114 0
 144 002c FFF7FEFF 		bl	dbg_check_unlock
 145              	.LVL11:
 146              	.LBB3:
 147 0030 0023     		movs	r3, #0
 148              	.LVL12:
 149              	@ 114 "../../ChibiOS/os/hal/src/adc.c" 1
 150 0032 83F31188 		msr     BASEPRI, r3
 151              	@ 0 "" 2
 152              	.LVL13:
 153              		.thumb
 154 0036 38BD     		pop	{r3, r4, r5, pc}
 155              	.LVL14:
 156              	.L7:
 157              	.LBE3:
 158              		.loc 1 106 0 discriminator 1
 159 0038 0248     		ldr	r0, .L8+4
 160              	.LVL15:
 161 003a FFF7FEFF 		bl	chDbgPanic
 162              	.LVL16:
 163 003e E3E7     		b	.L4
 164              	.L9:
 165              		.align	2
 166              	.L8:
 167 0040 10000000 		.word	.LC1
ARM GAS  /tmp/ccuV2Yv3.s 			page 4


 168 0044 00000000 		.word	.LC0
 169              		.cfi_endproc
 170              	.LFE120:
 171              		.size	adcStart, .-adcStart
 172 0048 AFF30080 		.section	.text.adcStop,"ax",%progbits
 172      AFF30080 
 173              		.align	2
 174              		.p2align 4,,15
 175              		.global	adcStop
 176              		.thumb
 177              		.thumb_func
 178              		.type	adcStop, %function
 179              	adcStop:
 180              	.LFB121:
 181              		.loc 1 124 0
 182              		.cfi_startproc
 183              		@ args = 0, pretend = 0, frame = 0
 184              		@ frame_needed = 0, uses_anonymous_args = 0
 185              	.LVL17:
 186 0000 10B5     		push	{r4, lr}
 187              	.LCFI1:
 188              		.cfi_def_cfa_offset 8
 189              		.cfi_offset 4, -8
 190              		.cfi_offset 14, -4
 191              		.loc 1 126 0
 192 0002 0446     		mov	r4, r0
 193 0004 B0B1     		cbz	r0, .L13
 194              	.LVL18:
 195              	.L11:
 196              	.LBB4:
 197              		.loc 1 128 0
 198 0006 2023     		movs	r3, #32
 199              	.LVL19:
 200              	@ 128 "../../ChibiOS/os/hal/src/adc.c" 1
 201 0008 83F31188 		msr     BASEPRI, r3
 202              	@ 0 "" 2
 203              	.LVL20:
 204              		.thumb
 205              	.LBE4:
 206 000c FFF7FEFF 		bl	dbg_check_lock
 207              	.LVL21:
 208              		.loc 1 129 0
 209 0010 2378     		ldrb	r3, [r4, #0]	@ zero_extendqisi2
 210 0012 013B     		subs	r3, r3, #1
 211 0014 012B     		cmp	r3, #1
 212 0016 02D9     		bls	.L12
 213              		.loc 1 129 0 is_stmt 0 discriminator 1
 214 0018 0848     		ldr	r0, .L14
 215 001a FFF7FEFF 		bl	chDbgPanic
 216              	.LVL22:
 217              	.L12:
 218              		.loc 1 131 0 is_stmt 1
 219 001e 2046     		mov	r0, r4
 220 0020 FFF7FEFF 		bl	adc_lld_stop
 221              	.LVL23:
 222              		.loc 1 132 0
 223 0024 0123     		movs	r3, #1
ARM GAS  /tmp/ccuV2Yv3.s 			page 5


 224 0026 2370     		strb	r3, [r4, #0]
 225              		.loc 1 133 0
 226 0028 FFF7FEFF 		bl	dbg_check_unlock
 227              	.LVL24:
 228              	.LBB5:
 229 002c 0023     		movs	r3, #0
 230              	.LVL25:
 231              	@ 133 "../../ChibiOS/os/hal/src/adc.c" 1
 232 002e 83F31188 		msr     BASEPRI, r3
 233              	@ 0 "" 2
 234              	.LVL26:
 235              		.thumb
 236 0032 10BD     		pop	{r4, pc}
 237              	.LVL27:
 238              	.L13:
 239              	.LBE5:
 240              		.loc 1 126 0 discriminator 1
 241 0034 0248     		ldr	r0, .L14+4
 242              	.LVL28:
 243 0036 FFF7FEFF 		bl	chDbgPanic
 244              	.LVL29:
 245 003a E4E7     		b	.L11
 246              	.L15:
 247              		.align	2
 248              	.L14:
 249 003c 2C000000 		.word	.LC3
 250 0040 20000000 		.word	.LC2
 251              		.cfi_endproc
 252              	.LFE121:
 253              		.size	adcStop, .-adcStop
 254 0044 AFF30080 		.section	.text.adcStartConversionI,"ax",%progbits
 254      AFF30080 
 254      AFF30080 
 255              		.align	2
 256              		.p2align 4,,15
 257              		.global	adcStartConversionI
 258              		.thumb
 259              		.thumb_func
 260              		.type	adcStartConversionI, %function
 261              	adcStartConversionI:
 262              	.LFB123:
 263              		.loc 1 183 0
 264              		.cfi_startproc
 265              		@ args = 0, pretend = 0, frame = 0
 266              		@ frame_needed = 0, uses_anonymous_args = 0
 267              	.LVL30:
 268 0000 F8B5     		push	{r3, r4, r5, r6, r7, lr}
 269              	.LCFI2:
 270              		.cfi_def_cfa_offset 24
 271              		.cfi_offset 3, -24
 272              		.cfi_offset 4, -20
 273              		.cfi_offset 5, -16
 274              		.cfi_offset 6, -12
 275              		.cfi_offset 7, -8
 276              		.cfi_offset 14, -4
 277              		.loc 1 183 0
 278 0002 0446     		mov	r4, r0
ARM GAS  /tmp/ccuV2Yv3.s 			page 6


 279 0004 0E46     		mov	r6, r1
 280 0006 1746     		mov	r7, r2
 281 0008 1D46     		mov	r5, r3
 282              		.loc 1 185 0
 283 000a FFF7FEFF 		bl	chDbgCheckClassI
 284              	.LVL31:
 285              		.loc 1 186 0
 286 000e 002C     		cmp	r4, #0
 287 0010 18BF     		it	ne
 288 0012 002E     		cmpne	r6, #0
 289 0014 18D0     		beq	.L17
 290              		.loc 1 186 0 is_stmt 0 discriminator 2
 291 0016 BFB1     		cbz	r7, .L17
 292              		.loc 1 186 0 discriminator 3
 293 0018 012D     		cmp	r5, #1
 294 001a 01D0     		beq	.L18
 295              		.loc 1 186 0 discriminator 4
 296 001c EB07     		lsls	r3, r5, #31
 297 001e 13D4     		bmi	.L17
 298              	.L18:
 299              		.loc 1 189 0 is_stmt 1
 300 0020 2078     		ldrb	r0, [r4, #0]	@ zero_extendqisi2
 301 0022 0428     		cmp	r0, #4
 302 0024 18BF     		it	ne
 303 0026 0228     		cmpne	r0, #2
 304 0028 04D0     		beq	.L19
 305              		.loc 1 189 0 is_stmt 0 discriminator 1
 306 002a 0528     		cmp	r0, #5
 307 002c 02D0     		beq	.L19
 308              		.loc 1 189 0 discriminator 2
 309 002e 0848     		ldr	r0, .L35
 310 0030 FFF7FEFF 		bl	chDbgPanic
 311              	.LVL32:
 312              	.L19:
 313              		.loc 1 197 0 is_stmt 1
 314 0034 0323     		movs	r3, #3
 315              		.loc 1 198 0
 316 0036 2046     		mov	r0, r4
 317              		.loc 1 194 0
 318 0038 A760     		str	r7, [r4, #8]
 319              		.loc 1 195 0
 320 003a E560     		str	r5, [r4, #12]
 321              		.loc 1 196 0
 322 003c 2661     		str	r6, [r4, #16]
 323              		.loc 1 197 0
 324 003e 2370     		strb	r3, [r4, #0]
 325              		.loc 1 199 0
 326 0040 BDE8F840 		pop	{r3, r4, r5, r6, r7, lr}
 327              		.loc 1 198 0
 328 0044 FFF7FEBF 		b	adc_lld_start_conversion
 329              	.LVL33:
 330              	.L17:
 331              		.loc 1 186 0 discriminator 1
 332 0048 0248     		ldr	r0, .L35+4
 333 004a FFF7FEFF 		bl	chDbgPanic
 334              	.LVL34:
 335 004e E7E7     		b	.L18
ARM GAS  /tmp/ccuV2Yv3.s 			page 7


 336              	.L36:
 337              		.align	2
 338              	.L35:
 339 0050 54000000 		.word	.LC5
 340 0054 3C000000 		.word	.LC4
 341              		.cfi_endproc
 342              	.LFE123:
 343              		.size	adcStartConversionI, .-adcStartConversionI
 344 0058 AFF30080 		.section	.text.adcStartConversion,"ax",%progbits
 344      AFF30080 
 345              		.align	2
 346              		.p2align 4,,15
 347              		.global	adcStartConversion
 348              		.thumb
 349              		.thumb_func
 350              		.type	adcStartConversion, %function
 351              	adcStartConversion:
 352              	.LFB122:
 353              		.loc 1 155 0
 354              		.cfi_startproc
 355              		@ args = 0, pretend = 0, frame = 0
 356              		@ frame_needed = 0, uses_anonymous_args = 0
 357              	.LVL35:
 358 0000 F8B5     		push	{r3, r4, r5, r6, r7, lr}
 359              	.LCFI3:
 360              		.cfi_def_cfa_offset 24
 361              		.cfi_offset 3, -24
 362              		.cfi_offset 4, -20
 363              		.cfi_offset 5, -16
 364              		.cfi_offset 6, -12
 365              		.cfi_offset 7, -8
 366              		.cfi_offset 14, -4
 367              		.loc 1 155 0
 368 0002 1C46     		mov	r4, r3
 369 0004 0746     		mov	r7, r0
 370 0006 0E46     		mov	r6, r1
 371 0008 1546     		mov	r5, r2
 372              	.LBB6:
 373              		.loc 1 157 0
 374 000a 2023     		movs	r3, #32
 375              	.LVL36:
 376              	@ 157 "../../ChibiOS/os/hal/src/adc.c" 1
 377 000c 83F31188 		msr     BASEPRI, r3
 378              	@ 0 "" 2
 379              	.LVL37:
 380              		.thumb
 381              	.LBE6:
 382 0010 FFF7FEFF 		bl	dbg_check_lock
 383              	.LVL38:
 384              		.loc 1 158 0
 385 0014 2346     		mov	r3, r4
 386 0016 3846     		mov	r0, r7
 387 0018 3146     		mov	r1, r6
 388 001a 2A46     		mov	r2, r5
 389 001c FFF7FEFF 		bl	adcStartConversionI
 390              	.LVL39:
 391              		.loc 1 159 0
ARM GAS  /tmp/ccuV2Yv3.s 			page 8


 392 0020 FFF7FEFF 		bl	dbg_check_unlock
 393              	.LVL40:
 394              	.LBB7:
 395 0024 0023     		movs	r3, #0
 396              	.LVL41:
 397              	@ 159 "../../ChibiOS/os/hal/src/adc.c" 1
 398 0026 83F31188 		msr     BASEPRI, r3
 399              	@ 0 "" 2
 400              	.LVL42:
 401              		.thumb
 402 002a F8BD     		pop	{r3, r4, r5, r6, r7, pc}
 403              	.LBE7:
 404              		.cfi_endproc
 405              	.LFE122:
 406              		.size	adcStartConversion, .-adcStartConversion
 407 002c AFF30080 		.section	.text.adcStopConversion,"ax",%progbits
 408              		.align	2
 409              		.p2align 4,,15
 410              		.global	adcStopConversion
 411              		.thumb
 412              		.thumb_func
 413              		.type	adcStopConversion, %function
 414              	adcStopConversion:
 415              	.LFB124:
 416              		.loc 1 211 0
 417              		.cfi_startproc
 418              		@ args = 0, pretend = 0, frame = 0
 419              		@ frame_needed = 0, uses_anonymous_args = 0
 420              	.LVL43:
 421 0000 10B5     		push	{r4, lr}
 422              	.LCFI4:
 423              		.cfi_def_cfa_offset 8
 424              		.cfi_offset 4, -8
 425              		.cfi_offset 14, -4
 426              		.loc 1 213 0
 427 0002 0446     		mov	r4, r0
 428 0004 10B3     		cbz	r0, .L48
 429              	.LVL44:
 430              	.L39:
 431              	.LBB8:
 432              		.loc 1 215 0
 433 0006 2023     		movs	r3, #32
 434              	.LVL45:
 435              	@ 215 "../../ChibiOS/os/hal/src/adc.c" 1
 436 0008 83F31188 		msr     BASEPRI, r3
 437              	@ 0 "" 2
 438              	.LVL46:
 439              		.thumb
 440              	.LBE8:
 441 000c FFF7FEFF 		bl	dbg_check_lock
 442              	.LVL47:
 443              		.loc 1 216 0
 444 0010 2378     		ldrb	r3, [r4, #0]	@ zero_extendqisi2
 445 0012 9A1E     		subs	r2, r3, #2
 446 0014 012A     		cmp	r2, #1
 447 0016 03D9     		bls	.L40
 448              		.loc 1 216 0 is_stmt 0 discriminator 1
ARM GAS  /tmp/ccuV2Yv3.s 			page 9


 449 0018 0E48     		ldr	r0, .L49
 450 001a FFF7FEFF 		bl	chDbgPanic
 451              	.LVL48:
 452 001e 2378     		ldrb	r3, [r4, #0]	@ zero_extendqisi2
 453              	.L40:
 454              		.loc 1 219 0 is_stmt 1
 455 0020 022B     		cmp	r3, #2
 456 0022 0DD0     		beq	.L42
 457              		.loc 1 220 0
 458 0024 2046     		mov	r0, r4
 459 0026 FFF7FEFF 		bl	adc_lld_stop_conversion
 460              	.LVL49:
 461              		.loc 1 223 0
 462 002a 6069     		ldr	r0, [r4, #20]
 463              		.loc 1 221 0
 464 002c 0023     		movs	r3, #0
 465              		.loc 1 222 0
 466 002e 0222     		movs	r2, #2
 467              		.loc 1 221 0
 468 0030 2361     		str	r3, [r4, #16]
 469              		.loc 1 222 0
 470 0032 2270     		strb	r2, [r4, #0]
 471              		.loc 1 223 0
 472 0034 20B1     		cbz	r0, .L42
 473              	.LVL50:
 474              	.LBB9:
 475              		.loc 1 223 0 is_stmt 0 discriminator 1
 476 0036 6361     		str	r3, [r4, #20]
 477 0038 6FF00101 		mvn	r1, #1
 478 003c FFF7FEFF 		bl	chSchWakeupS
 479              	.LVL51:
 480              	.L42:
 481              	.LBE9:
 482              		.loc 1 225 0 is_stmt 1
 483 0040 FFF7FEFF 		bl	dbg_check_unlock
 484              	.LVL52:
 485              	.LBB10:
 486 0044 0023     		movs	r3, #0
 487              	.LVL53:
 488              	@ 225 "../../ChibiOS/os/hal/src/adc.c" 1
 489 0046 83F31188 		msr     BASEPRI, r3
 490              	@ 0 "" 2
 491              	.LVL54:
 492              		.thumb
 493 004a 10BD     		pop	{r4, pc}
 494              	.LVL55:
 495              	.L48:
 496              	.LBE10:
 497              		.loc 1 213 0 discriminator 1
 498 004c 0248     		ldr	r0, .L49+4
 499              	.LVL56:
 500 004e FFF7FEFF 		bl	chDbgPanic
 501              	.LVL57:
 502 0052 D8E7     		b	.L39
 503              	.L50:
 504              		.align	2
 505              	.L49:
ARM GAS  /tmp/ccuV2Yv3.s 			page 10


 506 0054 88000000 		.word	.LC7
 507 0058 70000000 		.word	.LC6
 508              		.cfi_endproc
 509              	.LFE124:
 510              		.size	adcStopConversion, .-adcStopConversion
 511 005c AFF30080 		.section	.text.adcStopConversionI,"ax",%progbits
 512              		.align	2
 513              		.p2align 4,,15
 514              		.global	adcStopConversionI
 515              		.thumb
 516              		.thumb_func
 517              		.type	adcStopConversionI, %function
 518              	adcStopConversionI:
 519              	.LFB125:
 520              		.loc 1 238 0
 521              		.cfi_startproc
 522              		@ args = 0, pretend = 0, frame = 0
 523              		@ frame_needed = 0, uses_anonymous_args = 0
 524              	.LVL58:
 525 0000 10B5     		push	{r4, lr}
 526              	.LCFI5:
 527              		.cfi_def_cfa_offset 8
 528              		.cfi_offset 4, -8
 529              		.cfi_offset 14, -4
 530              		.loc 1 238 0
 531 0002 0446     		mov	r4, r0
 532              		.loc 1 240 0
 533 0004 FFF7FEFF 		bl	chDbgCheckClassI
 534              	.LVL59:
 535              		.loc 1 241 0
 536 0008 ECB1     		cbz	r4, .L61
 537              	.L52:
 538              		.loc 1 242 0
 539 000a 2378     		ldrb	r3, [r4, #0]	@ zero_extendqisi2
 540 000c 9A1E     		subs	r2, r3, #2
 541 000e 022A     		cmp	r2, #2
 542 0010 14D8     		bhi	.L62
 543              	.L53:
 544              		.loc 1 247 0
 545 0012 022B     		cmp	r3, #2
 546 0014 11D0     		beq	.L51
 547              		.loc 1 248 0
 548 0016 2046     		mov	r0, r4
 549 0018 FFF7FEFF 		bl	adc_lld_stop_conversion
 550              	.LVL60:
 551              		.loc 1 251 0
 552 001c 6369     		ldr	r3, [r4, #20]
 553              		.loc 1 249 0
 554 001e 0022     		movs	r2, #0
 555              		.loc 1 250 0
 556 0020 0221     		movs	r1, #2
 557              		.loc 1 249 0
 558 0022 2261     		str	r2, [r4, #16]
 559              		.loc 1 250 0
 560 0024 2170     		strb	r1, [r4, #0]
 561              		.loc 1 251 0
 562 0026 43B1     		cbz	r3, .L51
ARM GAS  /tmp/ccuV2Yv3.s 			page 11


 563              	.LVL61:
 564              	.LBB11:
 565              		.loc 1 251 0 is_stmt 0 discriminator 1
 566 0028 6261     		str	r2, [r4, #20]
 567 002a 1846     		mov	r0, r3
 568 002c 6FF00102 		mvn	r2, #1
 569 0030 9A62     		str	r2, [r3, #40]
 570              	.LBE11:
 571              		.loc 1 253 0 is_stmt 1 discriminator 1
 572 0032 BDE81040 		pop	{r4, lr}
 573              	.LBB12:
 574              		.loc 1 251 0 discriminator 1
 575 0036 FFF7FEBF 		b	chSchReadyI
 576              	.LVL62:
 577              	.L51:
 578 003a 10BD     		pop	{r4, pc}
 579              	.L62:
 580              	.LBE12:
 581              		.loc 1 242 0 discriminator 1
 582 003c 0448     		ldr	r0, .L63
 583 003e FFF7FEFF 		bl	chDbgPanic
 584              	.LVL63:
 585 0042 2378     		ldrb	r3, [r4, #0]	@ zero_extendqisi2
 586 0044 E5E7     		b	.L53
 587              	.L61:
 588              		.loc 1 241 0 discriminator 1
 589 0046 0348     		ldr	r0, .L63+4
 590 0048 FFF7FEFF 		bl	chDbgPanic
 591              	.LVL64:
 592 004c DDE7     		b	.L52
 593              	.L64:
 594 004e 00BF     		.align	2
 595              	.L63:
 596 0050 B8000000 		.word	.LC9
 597 0054 A0000000 		.word	.LC8
 598              		.cfi_endproc
 599              	.LFE125:
 600              		.size	adcStopConversionI, .-adcStopConversionI
 601 0058 AFF30080 		.section	.text.adcConvert,"ax",%progbits
 601      AFF30080 
 602              		.align	2
 603              		.p2align 4,,15
 604              		.global	adcConvert
 605              		.thumb
 606              		.thumb_func
 607              		.type	adcConvert, %function
 608              	adcConvert:
 609              	.LFB126:
 610              		.loc 1 282 0
 611              		.cfi_startproc
 612              		@ args = 0, pretend = 0, frame = 0
 613              		@ frame_needed = 0, uses_anonymous_args = 0
 614              	.LVL65:
 615 0000 2DE9F041 		push	{r4, r5, r6, r7, r8, lr}
 616              	.LCFI6:
 617              		.cfi_def_cfa_offset 24
 618              		.cfi_offset 4, -24
ARM GAS  /tmp/ccuV2Yv3.s 			page 12


 619              		.cfi_offset 5, -20
 620              		.cfi_offset 6, -16
 621              		.cfi_offset 7, -12
 622              		.cfi_offset 8, -8
 623              		.cfi_offset 14, -4
 624              		.loc 1 282 0
 625 0004 9846     		mov	r8, r3
 626 0006 0446     		mov	r4, r0
 627 0008 0F46     		mov	r7, r1
 628 000a 1646     		mov	r6, r2
 629              	.LBB13:
 630              		.loc 1 285 0
 631 000c 2023     		movs	r3, #32
 632              	.LVL66:
 633              	@ 285 "../../ChibiOS/os/hal/src/adc.c" 1
 634 000e 83F31188 		msr     BASEPRI, r3
 635              	@ 0 "" 2
 636              	.LVL67:
 637              		.thumb
 638              	.LBE13:
 639 0012 FFF7FEFF 		bl	dbg_check_lock
 640              	.LVL68:
 641              		.loc 1 286 0
 642 0016 6369     		ldr	r3, [r4, #20]
 643 0018 13B1     		cbz	r3, .L66
 644              		.loc 1 286 0 is_stmt 0 discriminator 1
 645 001a 0C48     		ldr	r0, .L70
 646 001c FFF7FEFF 		bl	chDbgPanic
 647              	.LVL69:
 648              	.L66:
 649              		.loc 1 288 0 is_stmt 1
 650 0020 0B4D     		ldr	r5, .L70+4
 651              		.loc 1 287 0
 652 0022 3946     		mov	r1, r7
 653 0024 3246     		mov	r2, r6
 654 0026 4346     		mov	r3, r8
 655 0028 2046     		mov	r0, r4
 656 002a FFF7FEFF 		bl	adcStartConversionI
 657              	.LVL70:
 658              		.loc 1 288 0
 659 002e AB69     		ldr	r3, [r5, #24]
 660              		.loc 1 289 0
 661 0030 0220     		movs	r0, #2
 662              		.loc 1 288 0
 663 0032 6361     		str	r3, [r4, #20]
 664              		.loc 1 289 0
 665 0034 FFF7FEFF 		bl	chSchGoSleepS
 666              	.LVL71:
 667              		.loc 1 290 0
 668 0038 AB69     		ldr	r3, [r5, #24]
 669 003a 9C6A     		ldr	r4, [r3, #40]
 670              	.LVL72:
 671              		.loc 1 291 0
 672 003c FFF7FEFF 		bl	dbg_check_unlock
 673              	.LVL73:
 674              	.LBB14:
 675 0040 0023     		movs	r3, #0
ARM GAS  /tmp/ccuV2Yv3.s 			page 13


 676              	.LVL74:
 677              	@ 291 "../../ChibiOS/os/hal/src/adc.c" 1
 678 0042 83F31188 		msr     BASEPRI, r3
 679              	@ 0 "" 2
 680              	.LVL75:
 681              		.thumb
 682              	.LBE14:
 683              		.loc 1 293 0
 684 0046 2046     		mov	r0, r4
 685 0048 BDE8F081 		pop	{r4, r5, r6, r7, r8, pc}
 686              	.L71:
 687              		.align	2
 688              	.L70:
 689 004c D4000000 		.word	.LC10
 690 0050 00000000 		.word	rlist
 691              		.cfi_endproc
 692              	.LFE126:
 693              		.size	adcConvert, .-adcConvert
 694 0054 AFF30080 		.section	.text.adcAcquireBus,"ax",%progbits
 694      AFF30080 
 694      AFF30080 
 695              		.align	2
 696              		.p2align 4,,15
 697              		.global	adcAcquireBus
 698              		.thumb
 699              		.thumb_func
 700              		.type	adcAcquireBus, %function
 701              	adcAcquireBus:
 702              	.LFB127:
 703              		.loc 1 308 0
 704              		.cfi_startproc
 705              		@ args = 0, pretend = 0, frame = 0
 706              		@ frame_needed = 0, uses_anonymous_args = 0
 707              	.LVL76:
 708 0000 10B5     		push	{r4, lr}
 709              	.LCFI7:
 710              		.cfi_def_cfa_offset 8
 711              		.cfi_offset 4, -8
 712              		.cfi_offset 14, -4
 713              		.loc 1 310 0
 714 0002 0446     		mov	r4, r0
 715 0004 28B1     		cbz	r0, .L74
 716              	.LVL77:
 717              	.L73:
 718              		.loc 1 313 0
 719 0006 04F11800 		add	r0, r4, #24
 720              		.loc 1 317 0
 721 000a BDE81040 		pop	{r4, lr}
 722              		.loc 1 313 0
 723 000e FFF7FEBF 		b	chMtxLock
 724              	.LVL78:
 725              	.L74:
 726              		.loc 1 310 0 discriminator 1
 727 0012 0248     		ldr	r0, .L75
 728              	.LVL79:
 729 0014 FFF7FEFF 		bl	chDbgPanic
 730              	.LVL80:
ARM GAS  /tmp/ccuV2Yv3.s 			page 14


 731 0018 F5E7     		b	.L73
 732              	.L76:
 733 001a 00BF     		.align	2
 734              	.L75:
 735 001c E8000000 		.word	.LC11
 736              		.cfi_endproc
 737              	.LFE127:
 738              		.size	adcAcquireBus, .-adcAcquireBus
 739              		.section	.text.adcReleaseBus,"ax",%progbits
 740              		.align	2
 741              		.p2align 4,,15
 742              		.global	adcReleaseBus
 743              		.thumb
 744              		.thumb_func
 745              		.type	adcReleaseBus, %function
 746              	adcReleaseBus:
 747              	.LFB128:
 748              		.loc 1 328 0
 749              		.cfi_startproc
 750              		@ args = 0, pretend = 0, frame = 0
 751              		@ frame_needed = 0, uses_anonymous_args = 0
 752              	.LVL81:
 753 0000 08B5     		push	{r3, lr}
 754              	.LCFI8:
 755              		.cfi_def_cfa_offset 8
 756              		.cfi_offset 3, -8
 757              		.cfi_offset 14, -4
 758              		.loc 1 330 0
 759 0002 18B1     		cbz	r0, .L79
 760              	.LVL82:
 761              	.L78:
 762              		.loc 1 338 0
 763 0004 BDE80840 		pop	{r3, lr}
 764              		.loc 1 334 0
 765 0008 FFF7FEBF 		b	chMtxUnlock
 766              	.LVL83:
 767              	.L79:
 768              		.loc 1 330 0 discriminator 1
 769 000c 0148     		ldr	r0, .L80
 770              	.LVL84:
 771 000e FFF7FEFF 		bl	chDbgPanic
 772              	.LVL85:
 773 0012 F7E7     		b	.L78
 774              	.L81:
 775              		.align	2
 776              	.L80:
 777 0014 FC000000 		.word	.LC12
 778              		.cfi_endproc
 779              	.LFE128:
 780              		.size	adcReleaseBus, .-adcReleaseBus
 781 0018 AFF30080 		.section	.rodata.str1.4,"aMS",%progbits,1
 781      AFF30080 
 782              		.align	2
 783              	.LC0:
 784 0000 22616463 		.ascii	"\"adcStart\"()\000"
 784      53746172 
 784      74222829 
ARM GAS  /tmp/ccuV2Yv3.s 			page 15


 784      00
 785 000d 000000   		.space	3
 786              	.LC1:
 787 0010 61646353 		.ascii	"adcStart(), #1\000"
 787      74617274 
 787      28292C20 
 787      233100
 788 001f 00       		.space	1
 789              	.LC2:
 790 0020 22616463 		.ascii	"\"adcStop\"()\000"
 790      53746F70 
 790      22282900 
 791              	.LC3:
 792 002c 61646353 		.ascii	"adcStop(), #1\000"
 792      746F7028 
 792      292C2023 
 792      3100
 793 003a 0000     		.space	2
 794              	.LC4:
 795 003c 22616463 		.ascii	"\"adcStartConversionI\"()\000"
 795      53746172 
 795      74436F6E 
 795      76657273 
 795      696F6E49 
 796              	.LC5:
 797 0054 61646353 		.ascii	"adcStartConversionI(), #1\000"
 797      74617274 
 797      436F6E76 
 797      65727369 
 797      6F6E4928 
 798 006e 0000     		.space	2
 799              	.LC6:
 800 0070 22616463 		.ascii	"\"adcStopConversion\"()\000"
 800      53746F70 
 800      436F6E76 
 800      65727369 
 800      6F6E2228 
 801 0086 0000     		.space	2
 802              	.LC7:
 803 0088 61646353 		.ascii	"adcStopConversion(), #1\000"
 803      746F7043 
 803      6F6E7665 
 803      7273696F 
 803      6E28292C 
 804              	.LC8:
 805 00a0 22616463 		.ascii	"\"adcStopConversionI\"()\000"
 805      53746F70 
 805      436F6E76 
 805      65727369 
 805      6F6E4922 
 806 00b7 00       		.space	1
 807              	.LC9:
 808 00b8 61646353 		.ascii	"adcStopConversionI(), #1\000"
 808      746F7043 
 808      6F6E7665 
 808      7273696F 
 808      6E492829 
ARM GAS  /tmp/ccuV2Yv3.s 			page 16


 809 00d1 000000   		.space	3
 810              	.LC10:
 811 00d4 61646343 		.ascii	"adcConvert(), #1\000"
 811      6F6E7665 
 811      72742829 
 811      2C202331 
 811      00
 812 00e5 000000   		.space	3
 813              	.LC11:
 814 00e8 22616463 		.ascii	"\"adcAcquireBus\"()\000"
 814      41637175 
 814      69726542 
 814      75732228 
 814      2900
 815 00fa 0000     		.space	2
 816              	.LC12:
 817 00fc 22616463 		.ascii	"\"adcReleaseBus\"()\000"
 817      52656C65 
 817      61736542 
 817      75732228 
 817      2900
 818 010e 0000     		.text
 819              	.Letext0:
 820              		.file 2 "/opt/psas/x-tools/stm32f407/arm-psas-eabi/bin/../lib/gcc/arm-psas-eabi/4.7.2/include/stdd
 821              		.file 3 "/opt/psas/x-tools/stm32f407/arm-psas-eabi/bin/../lib/gcc/arm-psas-eabi/4.7.2/../../../../
 822              		.file 4 "../../ChibiOS/os/ports/GCC/ARMCMx/chtypes.h"
 823              		.file 5 "../../ChibiOS/os/kernel/include/chlists.h"
 824              		.file 6 "../../ChibiOS/os/kernel/include/chthreads.h"
 825              		.file 7 "../../ChibiOS/os/ports/GCC/ARMCMx/chcore_v7m.h"
 826              		.file 8 "../../ChibiOS/os/kernel/include/chschd.h"
 827              		.file 9 "../../ChibiOS/os/kernel/include/chmtx.h"
 828              		.file 10 "../../ChibiOS/os/hal/platforms/STM32F4xx/stm32f4xx.h"
 829              		.file 11 "../../ChibiOS/os/hal/platforms/STM32F4xx/stm32_dma.h"
 830              		.file 12 "../../ChibiOS/os/hal/include/adc.h"
 831              		.file 13 "../../ChibiOS/os/hal/platforms/STM32F4xx/adc_lld.h"
 832              		.file 14 "../../ChibiOS/os/ports/common/ARMCMx/CMSIS/include/core_cm4.h"
 833              		.file 15 "../../ChibiOS/os/kernel/include/chdebug.h"