ARM GAS  /tmp/cc6XCPyH.s 			page 1


   1              		.syntax unified
   2              		.cpu cortex-m4
   3              		.eabi_attribute 27, 3
   4              		.eabi_attribute 28, 1
   5              		.fpu fpv4-sp-d16
   6              		.eabi_attribute 20, 1
   7              		.eabi_attribute 21, 1
   8              		.eabi_attribute 23, 3
   9              		.eabi_attribute 24, 1
  10              		.eabi_attribute 25, 1
  11              		.eabi_attribute 26, 1
  12              		.eabi_attribute 30, 2
  13              		.eabi_attribute 34, 1
  14              		.eabi_attribute 18, 4
  15              		.thumb
  16              		.file	"adc_lld.c"
  17              		.text
  18              	.Ltext0:
  19              		.cfi_sections	.debug_frame
  20              		.section	.text.adc_lld_init,"ax",%progbits
  21              		.align	2
  22              		.p2align 4,,15
  23              		.global	adc_lld_init
  24              		.thumb
  25              		.thumb_func
  26              		.type	adc_lld_init, %function
  27              	adc_lld_init:
  28              	.LFB120:
  29              		.file 1 "../../ChibiOS/os/hal/platforms/STM32F4xx/adc_lld.c"
  30              		.loc 1 171 0
  31              		.cfi_startproc
  32              		@ args = 0, pretend = 0, frame = 0
  33              		@ frame_needed = 0, uses_anonymous_args = 0
  34 0000 F8B5     		push	{r3, r4, r5, r6, r7, lr}
  35              	.LCFI0:
  36              		.cfi_def_cfa_offset 24
  37              		.cfi_offset 3, -24
  38              		.cfi_offset 4, -20
  39              		.cfi_offset 5, -16
  40              		.cfi_offset 6, -12
  41              		.cfi_offset 7, -8
  42              		.cfi_offset 14, -4
  43              		.loc 1 175 0
  44 0002 40F20006 		movw	r6, #:lower16:.LANCHOR0
  45 0006 C0F20006 		movt	r6, #:upper16:.LANCHOR0
  46 000a 3046     		mov	r0, r6
  47              		.loc 1 188 0
  48 000c 40F20005 		movw	r5, #:lower16:.LANCHOR1
  49              		.loc 1 175 0
  50 0010 FFF7FEFF 		bl	adcObjectInit
  51              	.LVL0:
  52              		.loc 1 188 0
  53 0014 C0F20005 		movt	r5, #:upper16:.LANCHOR1
  54              		.loc 1 177 0
  55 0018 1A4F     		ldr	r7, .L2
  56              		.loc 1 176 0
  57 001a 4FF40052 		mov	r2, #8192
ARM GAS  /tmp/cc6XCPyH.s 			page 2


  58              		.loc 1 178 0
  59 001e 42F61643 		movw	r3, #11286
  60              		.loc 1 176 0
  61 0022 C4F20102 		movt	r2, 16385
  62              		.loc 1 178 0
  63 0026 C0F20203 		movt	r3, 2
  64              		.loc 1 188 0
  65 002a 2846     		mov	r0, r5
  66              		.loc 1 201 0
  67 002c 40F20004 		movw	r4, #:lower16:.LANCHOR2
  68 0030 C0F20004 		movt	r4, #:upper16:.LANCHOR2
  69              		.loc 1 176 0
  70 0034 B262     		str	r2, [r6, #40]
  71              		.loc 1 177 0
  72 0036 F762     		str	r7, [r6, #44]
  73              		.loc 1 178 0
  74 0038 3363     		str	r3, [r6, #48]
  75              		.loc 1 188 0
  76 003a FFF7FEFF 		bl	adcObjectInit
  77              	.LVL1:
  78              		.loc 1 189 0
  79 003e 4FF40452 		mov	r2, #8448
  80              		.loc 1 191 0
  81 0042 42F61643 		movw	r3, #11286
  82              		.loc 1 190 0
  83 0046 A7F11801 		sub	r1, r7, #24
  84              		.loc 1 189 0
  85 004a C4F20102 		movt	r2, 16385
  86              		.loc 1 191 0
  87 004e C0F20223 		movt	r3, 514
  88              		.loc 1 201 0
  89 0052 2046     		mov	r0, r4
  90              		.loc 1 189 0
  91 0054 AA62     		str	r2, [r5, #40]
  92              		.loc 1 190 0
  93 0056 E962     		str	r1, [r5, #44]
  94              		.loc 1 191 0
  95 0058 2B63     		str	r3, [r5, #48]
  96              		.loc 1 201 0
  97 005a FFF7FEFF 		bl	adcObjectInit
  98              	.LVL2:
  99              		.loc 1 202 0
 100 005e 4FF40852 		mov	r2, #8704
 101              		.loc 1 204 0
 102 0062 42F61643 		movw	r3, #11286
 103              		.loc 1 202 0
 104 0066 C4F20102 		movt	r2, 16385
 105              		.loc 1 203 0
 106 006a 243F     		subs	r7, r7, #36
 107              		.loc 1 204 0
 108 006c C0F20243 		movt	r3, 1026
 109              		.loc 1 214 0
 110 0070 1220     		movs	r0, #18
 111 0072 6021     		movs	r1, #96
 112              		.loc 1 202 0
 113 0074 A262     		str	r2, [r4, #40]
 114              		.loc 1 203 0
ARM GAS  /tmp/cc6XCPyH.s 			page 3


 115 0076 E762     		str	r7, [r4, #44]
 116              		.loc 1 204 0
 117 0078 2363     		str	r3, [r4, #48]
 118              		.loc 1 215 0
 119 007a BDE8F840 		pop	{r3, r4, r5, r6, r7, lr}
 120              		.loc 1 214 0
 121 007e FFF7FEBF 		b	nvicEnableVector
 122              	.LVL3:
 123              	.L3:
 124 0082 00BF     		.align	2
 125              	.L2:
 126 0084 90000000 		.word	_stm32_dma_streams+144
 127              		.cfi_endproc
 128              	.LFE120:
 129              		.size	adc_lld_init, .-adc_lld_init
 130 0088 AFF30080 		.section	.text.adc_lld_start,"ax",%progbits
 130      AFF30080 
 131              		.align	2
 132              		.p2align 4,,15
 133              		.global	adc_lld_start
 134              		.thumb
 135              		.thumb_func
 136              		.type	adc_lld_start, %function
 137              	adc_lld_start:
 138              	.LFB121:
 139              		.loc 1 224 0
 140              		.cfi_startproc
 141              		@ args = 0, pretend = 0, frame = 0
 142              		@ frame_needed = 0, uses_anonymous_args = 0
 143              	.LVL4:
 144 0000 38B5     		push	{r3, r4, r5, lr}
 145              	.LCFI1:
 146              		.cfi_def_cfa_offset 16
 147              		.cfi_offset 3, -16
 148              		.cfi_offset 4, -12
 149              		.cfi_offset 5, -8
 150              		.cfi_offset 14, -4
 151              		.loc 1 227 0
 152 0002 0378     		ldrb	r3, [r0, #0]	@ zero_extendqisi2
 153 0004 012B     		cmp	r3, #1
 154              		.loc 1 224 0
 155 0006 0446     		mov	r4, r0
 156              		.loc 1 227 0
 157 0008 00D0     		beq	.L22
 158 000a 38BD     		pop	{r3, r4, r5, pc}
 159              	.L22:
 160              		.loc 1 229 0
 161 000c 354D     		ldr	r5, .L29
 162 000e A842     		cmp	r0, r5
 163 0010 16D0     		beq	.L23
 164              		.loc 1 242 0
 165 0012 354D     		ldr	r5, .L29+4
 166 0014 A842     		cmp	r0, r5
 167 0016 2BD0     		beq	.L24
 168              		.loc 1 255 0
 169 0018 344D     		ldr	r5, .L29+8
 170 001a A842     		cmp	r0, r5
ARM GAS  /tmp/cc6XCPyH.s 			page 4


 171 001c 3FD0     		beq	.L25
 172              	.LVL5:
 173              	.L8:
 174              		.loc 1 269 0
 175 001e 4FF40C52 		mov	r2, #8960
 176 0022 C4F20102 		movt	r2, 16385
 177              		.loc 1 274 0
 178 0026 A36A     		ldr	r3, [r4, #40]
 179              		.loc 1 269 0
 180 0028 5068     		ldr	r0, [r2, #4]
 181 002a 00F44000 		and	r0, r0, #12582912
 182 002e 40F48030 		orr	r0, r0, #65536
 183 0032 5060     		str	r0, [r2, #4]
 184              		.loc 1 274 0
 185 0034 0021     		movs	r1, #0
 186              		.loc 1 276 0
 187 0036 0122     		movs	r2, #1
 188              		.loc 1 274 0
 189 0038 5960     		str	r1, [r3, #4]
 190              		.loc 1 275 0
 191 003a 9960     		str	r1, [r3, #8]
 192              		.loc 1 276 0
 193 003c 9A60     		str	r2, [r3, #8]
 194 003e 38BD     		pop	{r3, r4, r5, pc}
 195              	.LVL6:
 196              	.L23:
 197              	.LBB2:
 198              		.loc 1 231 0
 199 0040 C06A     		ldr	r0, [r0, #44]
 200              	.LVL7:
 201 0042 2B4A     		ldr	r2, .L29+12
 202 0044 0621     		movs	r1, #6
 203 0046 2346     		mov	r3, r4
 204 0048 FFF7FEFF 		bl	dmaStreamAllocate
 205              	.LVL8:
 206              		.loc 1 235 0
 207 004c 0028     		cmp	r0, #0
 208 004e 3DD1     		bne	.L26
 209              	.LVL9:
 210              	.L7:
 211              		.loc 1 236 0
 212 0050 EB6A     		ldr	r3, [r5, #44]
 213 0052 42F24C02 		movw	r2, #8268
 214 0056 1968     		ldr	r1, [r3, #0]
 215              		.loc 1 237 0
 216 0058 4FF46053 		mov	r3, #14336
 217 005c C4F20203 		movt	r3, 16386
 218              		.loc 1 236 0
 219 0060 C4F20102 		movt	r2, 16385
 220 0064 8A60     		str	r2, [r1, #8]
 221              		.loc 1 237 0
 222 0066 5A6C     		ldr	r2, [r3, #68]
 223 0068 42F48072 		orr	r2, r2, #256
 224 006c 5A64     		str	r2, [r3, #68]
 225 006e D6E7     		b	.L8
 226              	.LVL10:
 227              	.L24:
ARM GAS  /tmp/cc6XCPyH.s 			page 5


 228              	.LBE2:
 229              	.LBB3:
 230              		.loc 1 244 0
 231 0070 C06A     		ldr	r0, [r0, #44]
 232              	.LVL11:
 233 0072 1F4A     		ldr	r2, .L29+12
 234 0074 0621     		movs	r1, #6
 235 0076 2346     		mov	r3, r4
 236 0078 FFF7FEFF 		bl	dmaStreamAllocate
 237              	.LVL12:
 238              		.loc 1 248 0
 239 007c 50BB     		cbnz	r0, .L27
 240              	.LVL13:
 241              	.L10:
 242              		.loc 1 249 0
 243 007e EB6A     		ldr	r3, [r5, #44]
 244 0080 42F24C12 		movw	r2, #8524
 245 0084 1968     		ldr	r1, [r3, #0]
 246              		.loc 1 250 0
 247 0086 4FF46053 		mov	r3, #14336
 248 008a C4F20203 		movt	r3, 16386
 249              		.loc 1 249 0
 250 008e C4F20102 		movt	r2, 16385
 251 0092 8A60     		str	r2, [r1, #8]
 252              		.loc 1 250 0
 253 0094 5A6C     		ldr	r2, [r3, #68]
 254 0096 42F40072 		orr	r2, r2, #512
 255 009a 5A64     		str	r2, [r3, #68]
 256 009c BFE7     		b	.L8
 257              	.LVL14:
 258              	.L25:
 259              	.LBE3:
 260              	.LBB4:
 261              		.loc 1 257 0
 262 009e C06A     		ldr	r0, [r0, #44]
 263              	.LVL15:
 264 00a0 134A     		ldr	r2, .L29+12
 265 00a2 0621     		movs	r1, #6
 266 00a4 2346     		mov	r3, r4
 267 00a6 FFF7FEFF 		bl	dmaStreamAllocate
 268              	.LVL16:
 269              		.loc 1 261 0
 270 00aa B8B9     		cbnz	r0, .L28
 271              	.LVL17:
 272              	.L11:
 273              		.loc 1 262 0
 274 00ac EB6A     		ldr	r3, [r5, #44]
 275 00ae 42F24C22 		movw	r2, #8780
 276 00b2 1968     		ldr	r1, [r3, #0]
 277              		.loc 1 263 0
 278 00b4 4FF46053 		mov	r3, #14336
 279 00b8 C4F20203 		movt	r3, 16386
 280              		.loc 1 262 0
 281 00bc C4F20102 		movt	r2, 16385
 282 00c0 8A60     		str	r2, [r1, #8]
 283              		.loc 1 263 0
 284 00c2 5A6C     		ldr	r2, [r3, #68]
ARM GAS  /tmp/cc6XCPyH.s 			page 6


 285 00c4 42F48062 		orr	r2, r2, #1024
 286 00c8 5A64     		str	r2, [r3, #68]
 287 00ca A8E7     		b	.L8
 288              	.LVL18:
 289              	.L26:
 290              	.LBE4:
 291              	.LBB5:
 292              		.loc 1 235 0 discriminator 1
 293 00cc 0948     		ldr	r0, .L29+16
 294              	.LVL19:
 295 00ce FFF7FEFF 		bl	chDbgPanic
 296              	.LVL20:
 297 00d2 BDE7     		b	.L7
 298              	.LVL21:
 299              	.L27:
 300              	.LBE5:
 301              	.LBB6:
 302              		.loc 1 248 0 discriminator 1
 303 00d4 0848     		ldr	r0, .L29+20
 304              	.LVL22:
 305 00d6 FFF7FEFF 		bl	chDbgPanic
 306              	.LVL23:
 307 00da D0E7     		b	.L10
 308              	.LVL24:
 309              	.L28:
 310              	.LBE6:
 311              	.LBB7:
 312              		.loc 1 261 0 discriminator 1
 313 00dc 0748     		ldr	r0, .L29+24
 314              	.LVL25:
 315 00de FFF7FEFF 		bl	chDbgPanic
 316              	.LVL26:
 317 00e2 E3E7     		b	.L11
 318              	.L30:
 319              		.align	2
 320              	.L29:
 321 00e4 00000000 		.word	.LANCHOR0
 322 00e8 00000000 		.word	.LANCHOR1
 323 00ec 00000000 		.word	.LANCHOR2
 324 00f0 00000000 		.word	adc_lld_serve_rx_interrupt
 325 00f4 00000000 		.word	.LC0
 326 00f8 14000000 		.word	.LC1
 327 00fc 28000000 		.word	.LC2
 328              	.LBE7:
 329              		.cfi_endproc
 330              	.LFE121:
 331              		.size	adc_lld_start, .-adc_lld_start
 332              		.section	.text.adc_lld_stop,"ax",%progbits
 333              		.align	2
 334              		.p2align 4,,15
 335              		.global	adc_lld_stop
 336              		.thumb
 337              		.thumb_func
 338              		.type	adc_lld_stop, %function
 339              	adc_lld_stop:
 340              	.LFB122:
 341              		.loc 1 287 0
ARM GAS  /tmp/cc6XCPyH.s 			page 7


 342              		.cfi_startproc
 343              		@ args = 0, pretend = 0, frame = 0
 344              		@ frame_needed = 0, uses_anonymous_args = 0
 345              	.LVL27:
 346              		.loc 1 290 0
 347 0000 0378     		ldrb	r3, [r0, #0]	@ zero_extendqisi2
 348 0002 022B     		cmp	r3, #2
 349              		.loc 1 287 0
 350 0004 10B5     		push	{r4, lr}
 351              	.LCFI2:
 352              		.cfi_def_cfa_offset 8
 353              		.cfi_offset 4, -8
 354              		.cfi_offset 14, -4
 355              		.loc 1 287 0
 356 0006 0446     		mov	r4, r0
 357              		.loc 1 290 0
 358 0008 00D0     		beq	.L37
 359 000a 10BD     		pop	{r4, pc}
 360              	.L37:
 361              		.loc 1 291 0
 362 000c C06A     		ldr	r0, [r0, #44]
 363              	.LVL28:
 364 000e FFF7FEFF 		bl	dmaStreamRelease
 365              	.LVL29:
 366              		.loc 1 292 0
 367 0012 A36A     		ldr	r3, [r4, #40]
 368 0014 0022     		movs	r2, #0
 369 0016 5A60     		str	r2, [r3, #4]
 370              		.loc 1 293 0
 371 0018 9A60     		str	r2, [r3, #8]
 372              		.loc 1 296 0
 373 001a 124B     		ldr	r3, .L40
 374 001c 9C42     		cmp	r4, r3
 375 001e 0FD0     		beq	.L38
 376              		.loc 1 301 0
 377 0020 114B     		ldr	r3, .L40+4
 378 0022 9C42     		cmp	r4, r3
 379 0024 15D0     		beq	.L39
 380              		.loc 1 306 0
 381 0026 114B     		ldr	r3, .L40+8
 382 0028 9C42     		cmp	r4, r3
 383              		.loc 1 307 0
 384 002a 01BF     		itttt	eq
 385 002c 4FF46053 		moveq	r3, #14336
 386 0030 C4F20203 		movteq	r3, 16386
 387 0034 5A6C     		ldreq	r2, [r3, #68]
 388 0036 22F48062 		biceq	r2, r2, #1024
 389 003a 08BF     		it	eq
 390 003c 5A64     		streq	r2, [r3, #68]
 391 003e 10BD     		pop	{r4, pc}
 392              	.L38:
 393              		.loc 1 297 0
 394 0040 4FF46053 		mov	r3, #14336
 395 0044 C4F20203 		movt	r3, 16386
 396 0048 5A6C     		ldr	r2, [r3, #68]
 397 004a 22F48072 		bic	r2, r2, #256
 398 004e 5A64     		str	r2, [r3, #68]
ARM GAS  /tmp/cc6XCPyH.s 			page 8


 399 0050 10BD     		pop	{r4, pc}
 400              	.L39:
 401              		.loc 1 302 0
 402 0052 4FF46053 		mov	r3, #14336
 403 0056 C4F20203 		movt	r3, 16386
 404 005a 5A6C     		ldr	r2, [r3, #68]
 405 005c 22F40072 		bic	r2, r2, #512
 406 0060 5A64     		str	r2, [r3, #68]
 407 0062 10BD     		pop	{r4, pc}
 408              	.L41:
 409              		.align	2
 410              	.L40:
 411 0064 00000000 		.word	.LANCHOR0
 412 0068 00000000 		.word	.LANCHOR1
 413 006c 00000000 		.word	.LANCHOR2
 414              		.cfi_endproc
 415              	.LFE122:
 416              		.size	adc_lld_stop, .-adc_lld_stop
 417              		.section	.text.adc_lld_start_conversion,"ax",%progbits
 418              		.align	2
 419              		.p2align 4,,15
 420              		.global	adc_lld_start_conversion
 421              		.thumb
 422              		.thumb_func
 423              		.type	adc_lld_start_conversion, %function
 424              	adc_lld_start_conversion:
 425              	.LFB123:
 426              		.loc 1 319 0
 427              		.cfi_startproc
 428              		@ args = 0, pretend = 0, frame = 0
 429              		@ frame_needed = 0, uses_anonymous_args = 0
 430              		@ link register save eliminated.
 431              	.LVL30:
 432              		.loc 1 321 0
 433 0000 0369     		ldr	r3, [r0, #16]
 434              	.LVL31:
 435              		.loc 1 324 0
 436 0002 026B     		ldr	r2, [r0, #48]
 437              	.LVL32:
 438              		.loc 1 325 0
 439 0004 1978     		ldrb	r1, [r3, #0]	@ zero_extendqisi2
 440              		.loc 1 319 0
 441 0006 2DE9F003 		push	{r4, r5, r6, r7, r8, r9}
 442              	.LCFI3:
 443              		.cfi_def_cfa_offset 24
 444              		.cfi_offset 4, -24
 445              		.cfi_offset 5, -20
 446              		.cfi_offset 6, -16
 447              		.cfi_offset 7, -12
 448              		.cfi_offset 8, -8
 449              		.cfi_offset 9, -4
 450              		.loc 1 325 0
 451 000a 09B1     		cbz	r1, .L43
 452              		.loc 1 326 0
 453 000c 42F48072 		orr	r2, r2, #256
 454              	.LVL33:
 455              	.L43:
ARM GAS  /tmp/cc6XCPyH.s 			page 9


 456              		.loc 1 328 0
 457 0010 C468     		ldr	r4, [r0, #12]
 458              		.loc 1 333 0
 459 0012 C16A     		ldr	r1, [r0, #44]
 460              		.loc 1 334 0
 461 0014 5E88     		ldrh	r6, [r3, #2]
 462              		.loc 1 333 0
 463 0016 0968     		ldr	r1, [r1, #0]
 464 0018 8568     		ldr	r5, [r0, #8]
 465              		.loc 1 349 0
 466 001a D3F80CC0 		ldr	ip, [r3, #12]
 467              		.loc 1 333 0
 468 001e CD60     		str	r5, [r1, #12]
 469              		.loc 1 328 0
 470 0020 012C     		cmp	r4, #1
 471              		.loc 1 331 0
 472 0022 88BF     		it	hi
 473 0024 42F00802 		orrhi	r2, r2, #8
 474              	.LVL34:
 475              		.loc 1 334 0
 476 0028 04FB06F4 		mul	r4, r4, r6
 477 002c 4C60     		str	r4, [r1, #4]
 478              		.loc 1 336 0
 479 002e 0A60     		str	r2, [r1, #0]
 480              		.loc 1 337 0
 481 0030 D1F80090 		ldr	r9, [r1, #0]
 482              		.loc 1 341 0
 483 0034 D3F81480 		ldr	r8, [r3, #20]
 484              		.loc 1 342 0
 485 0038 9F69     		ldr	r7, [r3, #24]
 486              		.loc 1 343 0
 487 003a DE69     		ldr	r6, [r3, #28]
 488              		.loc 1 344 0
 489 003c 1D6A     		ldr	r5, [r3, #32]
 490              		.loc 1 345 0
 491 003e 5C6A     		ldr	r4, [r3, #36]
 492              		.loc 1 350 0
 493 0040 1B69     		ldr	r3, [r3, #16]
 494              	.LVL35:
 495              		.loc 1 340 0
 496 0042 826A     		ldr	r2, [r0, #40]
 497              	.LVL36:
 498              		.loc 1 337 0
 499 0044 49F00109 		orr	r9, r9, #1
 500 0048 C1F80090 		str	r9, [r1, #0]
 501              		.loc 1 349 0
 502 004c 4CF08060 		orr	r0, ip, #67108864
 503              	.LVL37:
 504              		.loc 1 340 0
 505 0050 0021     		movs	r1, #0
 506              	.LVL38:
 507              		.loc 1 350 0
 508 0052 13F0804F 		tst	r3, #1073741824
 509              		.loc 1 352 0
 510 0056 43F44073 		orr	r3, r3, #768
 511              		.loc 1 349 0
 512 005a 40F48070 		orr	r0, r0, #256
ARM GAS  /tmp/cc6XCPyH.s 			page 10


 513              		.loc 1 352 0
 514 005e 14BF     		ite	ne
 515 0060 43F00303 		orrne	r3, r3, #3
 516              		.loc 1 355 0
 517 0064 43F00103 		orreq	r3, r3, #1
 518              		.loc 1 340 0
 519 0068 1160     		str	r1, [r2, #0]
 520              		.loc 1 341 0
 521 006a C2F80C80 		str	r8, [r2, #12]
 522              		.loc 1 342 0
 523 006e 1761     		str	r7, [r2, #16]
 524              		.loc 1 343 0
 525 0070 D662     		str	r6, [r2, #44]
 526              		.loc 1 344 0
 527 0072 1563     		str	r5, [r2, #48]
 528              		.loc 1 345 0
 529 0074 5463     		str	r4, [r2, #52]
 530              		.loc 1 349 0
 531 0076 5060     		str	r0, [r2, #4]
 532              		.loc 1 354 0
 533 0078 9360     		str	r3, [r2, #8]
 534              		.loc 1 356 0
 535 007a BDE8F003 		pop	{r4, r5, r6, r7, r8, r9}
 536 007e 7047     		bx	lr
 537              		.cfi_endproc
 538              	.LFE123:
 539              		.size	adc_lld_start_conversion, .-adc_lld_start_conversion
 540              		.section	.text.adc_lld_stop_conversion,"ax",%progbits
 541              		.align	2
 542              		.p2align 4,,15
 543              		.global	adc_lld_stop_conversion
 544              		.thumb
 545              		.thumb_func
 546              		.type	adc_lld_stop_conversion, %function
 547              	adc_lld_stop_conversion:
 548              	.LFB124:
 549              		.loc 1 365 0
 550              		.cfi_startproc
 551              		@ args = 0, pretend = 0, frame = 0
 552              		@ frame_needed = 0, uses_anonymous_args = 0
 553              		@ link register save eliminated.
 554              	.LVL39:
 555              		.loc 1 367 0
 556 0000 C16A     		ldr	r1, [r0, #44]
 557 0002 0A68     		ldr	r2, [r1, #0]
 558 0004 1368     		ldr	r3, [r2, #0]
 559 0006 23F01F03 		bic	r3, r3, #31
 560              		.loc 1 365 0
 561 000a 10B4     		push	{r4}
 562              	.LCFI4:
 563              		.cfi_def_cfa_offset 4
 564              		.cfi_offset 4, -4
 565              		.loc 1 367 0
 566 000c 1360     		str	r3, [r2, #0]
 567              	.L51:
 568              		.loc 1 367 0 is_stmt 0 discriminator 1
 569 000e 1368     		ldr	r3, [r2, #0]
ARM GAS  /tmp/cc6XCPyH.s 			page 11


 570 0010 13F00103 		ands	r3, r3, #1
 571 0014 FBD1     		bne	.L51
 572              		.loc 1 367 0 discriminator 2
 573 0016 0C7A     		ldrb	r4, [r1, #8]	@ zero_extendqisi2
 574              		.loc 1 368 0 is_stmt 1 discriminator 2
 575 0018 826A     		ldr	r2, [r0, #40]
 576              		.loc 1 367 0 discriminator 2
 577 001a 4968     		ldr	r1, [r1, #4]
 578 001c 3D20     		movs	r0, #61
 579              	.LVL40:
 580 001e 00FA04F0 		lsl	r0, r0, r4
 581 0022 0860     		str	r0, [r1, #0]
 582              		.loc 1 368 0 discriminator 2
 583 0024 5360     		str	r3, [r2, #4]
 584              		.loc 1 369 0 discriminator 2
 585 0026 9360     		str	r3, [r2, #8]
 586              		.loc 1 370 0 discriminator 2
 587 0028 0123     		movs	r3, #1
 588 002a 9360     		str	r3, [r2, #8]
 589              		.loc 1 371 0 discriminator 2
 590 002c 10BC     		pop	{r4}
 591 002e 7047     		bx	lr
 592              		.cfi_endproc
 593              	.LFE124:
 594              		.size	adc_lld_stop_conversion, .-adc_lld_stop_conversion
 595              		.section	.text.adc_lld_serve_rx_interrupt,"ax",%progbits
 596              		.align	2
 597              		.p2align 4,,15
 598              		.thumb
 599              		.thumb_func
 600              		.type	adc_lld_serve_rx_interrupt, %function
 601              	adc_lld_serve_rx_interrupt:
 602              	.LFB118:
 603              		.loc 1 76 0
 604              		.cfi_startproc
 605              		@ args = 0, pretend = 0, frame = 0
 606              		@ frame_needed = 0, uses_anonymous_args = 0
 607              	.LVL41:
 608              		.loc 1 79 0
 609 0000 11F00C0F 		tst	r1, #12
 610              		.loc 1 76 0
 611 0004 38B5     		push	{r3, r4, r5, lr}
 612              	.LCFI5:
 613              		.cfi_def_cfa_offset 16
 614              		.cfi_offset 3, -16
 615              		.cfi_offset 4, -12
 616              		.cfi_offset 5, -8
 617              		.cfi_offset 14, -4
 618              		.loc 1 76 0
 619 0006 0D46     		mov	r5, r1
 620 0008 0446     		mov	r4, r0
 621              		.loc 1 79 0
 622 000a 20D1     		bne	.L88
 623              		.loc 1 87 0
 624 000c 0369     		ldr	r3, [r0, #16]
 625 000e 002B     		cmp	r3, #0
 626 0010 41D0     		beq	.L53
ARM GAS  /tmp/cc6XCPyH.s 			page 12


 627              		.loc 1 88 0
 628 0012 CA06     		lsls	r2, r1, #27
 629 0014 05D5     		bpl	.L61
 630              		.loc 1 90 0
 631 0016 5B68     		ldr	r3, [r3, #4]
 632 0018 1BB1     		cbz	r3, .L61
 633              		.loc 1 90 0 is_stmt 0 discriminator 1
 634 001a C268     		ldr	r2, [r0, #12]
 635 001c 8168     		ldr	r1, [r0, #8]
 636              	.LVL42:
 637 001e 5208     		lsrs	r2, r2, #1
 638 0020 9847     		blx	r3
 639              	.LVL43:
 640              	.L61:
 641              		.loc 1 92 0 is_stmt 1
 642 0022 AB06     		lsls	r3, r5, #26
 643 0024 37D5     		bpl	.L53
 644              		.loc 1 94 0
 645 0026 2369     		ldr	r3, [r4, #16]
 646 0028 1A78     		ldrb	r2, [r3, #0]	@ zero_extendqisi2
 647 002a 002A     		cmp	r2, #0
 648 002c 38D0     		beq	.L63
 649              		.loc 1 94 0 is_stmt 0 discriminator 1
 650 002e 5D68     		ldr	r5, [r3, #4]
 651              	.LVL44:
 652 0030 002D     		cmp	r5, #0
 653 0032 30D0     		beq	.L53
 654              		.loc 1 94 0 discriminator 3
 655 0034 E268     		ldr	r2, [r4, #12]
 656 0036 012A     		cmp	r2, #1
 657 0038 2ED9     		bls	.L64
 658              	.LBB8:
 659              		.loc 1 94 0 discriminator 4
 660 003a 5988     		ldrh	r1, [r3, #2]
 661 003c A368     		ldr	r3, [r4, #8]
 662 003e 5208     		lsrs	r2, r2, #1
 663              	.LVL45:
 664 0040 01FB02F1 		mul	r1, r1, r2
 665 0044 2046     		mov	r0, r4
 666 0046 03EB4101 		add	r1, r3, r1, lsl #1
 667 004a A847     		blx	r5
 668              	.LVL46:
 669 004c 38BD     		pop	{r3, r4, r5, pc}
 670              	.LVL47:
 671              	.L88:
 672              	.LBE8:
 673              		.loc 1 82 0 is_stmt 1
 674 004e FFF7FEFF 		bl	adc_lld_stop_conversion
 675              	.LVL48:
 676 0052 2369     		ldr	r3, [r4, #16]
 677 0054 9B68     		ldr	r3, [r3, #8]
 678 0056 4BB1     		cbz	r3, .L56
 679              		.loc 1 82 0 is_stmt 0 discriminator 1
 680 0058 0522     		movs	r2, #5
 681 005a 0021     		movs	r1, #0
 682 005c 2270     		strb	r2, [r4, #0]
 683 005e 2046     		mov	r0, r4
ARM GAS  /tmp/cc6XCPyH.s 			page 13


 684 0060 9847     		blx	r3
 685              	.LVL49:
 686 0062 2378     		ldrb	r3, [r4, #0]	@ zero_extendqisi2
 687 0064 052B     		cmp	r3, #5
 688 0066 01D1     		bne	.L56
 689              		.loc 1 82 0 discriminator 3
 690 0068 0223     		movs	r3, #2
 691 006a 2370     		strb	r3, [r4, #0]
 692              	.L56:
 693              		.loc 1 82 0 discriminator 2
 694 006c 0025     		movs	r5, #0
 695              	.LVL50:
 696 006e 2561     		str	r5, [r4, #16]
 697              	.LBB9:
 698 0070 2023     		movs	r3, #32
 699              	.LVL51:
 700              	@ 82 "../../ChibiOS/os/hal/platforms/STM32F4xx/adc_lld.c" 1
 701 0072 83F31188 		msr     BASEPRI, r3
 702              	@ 0 "" 2
 703              	.LVL52:
 704              		.thumb
 705              	.LBE9:
 706 0076 FFF7FEFF 		bl	dbg_check_lock_from_isr
 707              	.LVL53:
 708 007a 6369     		ldr	r3, [r4, #20]
 709 007c 33B1     		cbz	r3, .L69
 710              	.LVL54:
 711              	.LBB10:
 712              		.loc 1 82 0 discriminator 4
 713 007e 4FF0FF32 		mov	r2, #-1
 714 0082 6561     		str	r5, [r4, #20]
 715 0084 1846     		mov	r0, r3
 716 0086 9A62     		str	r2, [r3, #40]
 717 0088 FFF7FEFF 		bl	chSchReadyI
 718              	.LVL55:
 719              	.L69:
 720              	.LBE10:
 721              		.loc 1 94 0 is_stmt 1 discriminator 14
 722 008c FFF7FEFF 		bl	dbg_check_unlock_from_isr
 723              	.LVL56:
 724              	.LBB11:
 725 0090 0023     		movs	r3, #0
 726              	.LVL57:
 727              	@ 94 "../../ChibiOS/os/hal/platforms/STM32F4xx/adc_lld.c" 1
 728 0092 83F31188 		msr     BASEPRI, r3
 729              	@ 0 "" 2
 730              	.LVL58:
 731              		.thumb
 732              	.L53:
 733 0096 38BD     		pop	{r3, r4, r5, pc}
 734              	.LVL59:
 735              	.L64:
 736              	.LBE11:
 737              		.loc 1 94 0 is_stmt 0 discriminator 5
 738 0098 2046     		mov	r0, r4
 739 009a A168     		ldr	r1, [r4, #8]
 740 009c A847     		blx	r5
ARM GAS  /tmp/cc6XCPyH.s 			page 14


 741              	.LVL60:
 742 009e 38BD     		pop	{r3, r4, r5, pc}
 743              	.LVL61:
 744              	.L63:
 745              		.loc 1 94 0 discriminator 2
 746 00a0 2046     		mov	r0, r4
 747 00a2 FFF7FEFF 		bl	adc_lld_stop_conversion
 748              	.LVL62:
 749 00a6 2169     		ldr	r1, [r4, #16]
 750 00a8 4B68     		ldr	r3, [r1, #4]
 751 00aa 43B3     		cbz	r3, .L65
 752              		.loc 1 94 0 discriminator 6
 753 00ac E268     		ldr	r2, [r4, #12]
 754 00ae 0420     		movs	r0, #4
 755 00b0 012A     		cmp	r2, #1
 756 00b2 2070     		strb	r0, [r4, #0]
 757 00b4 1FD9     		bls	.L66
 758              	.LBB12:
 759              		.loc 1 94 0 discriminator 8
 760 00b6 4D88     		ldrh	r5, [r1, #2]
 761              	.LVL63:
 762 00b8 A168     		ldr	r1, [r4, #8]
 763 00ba 5208     		lsrs	r2, r2, #1
 764              	.LVL64:
 765 00bc 05FB02F5 		mul	r5, r5, r2
 766 00c0 2046     		mov	r0, r4
 767 00c2 01EB4501 		add	r1, r1, r5, lsl #1
 768 00c6 9847     		blx	r3
 769              	.LVL65:
 770              	.L67:
 771              	.LBE12:
 772              		.loc 1 94 0 discriminator 10
 773 00c8 2378     		ldrb	r3, [r4, #0]	@ zero_extendqisi2
 774 00ca 042B     		cmp	r3, #4
 775 00cc 0ED0     		beq	.L89
 776              	.L68:
 777              	.LBB13:
 778              		.loc 1 94 0 discriminator 12
 779 00ce 2023     		movs	r3, #32
 780              	.LVL66:
 781              	@ 94 "../../ChibiOS/os/hal/platforms/STM32F4xx/adc_lld.c" 1
 782 00d0 83F31188 		msr     BASEPRI, r3
 783              	@ 0 "" 2
 784              	.LVL67:
 785              		.thumb
 786              	.LBE13:
 787 00d4 FFF7FEFF 		bl	dbg_check_lock_from_isr
 788              	.LVL68:
 789 00d8 6369     		ldr	r3, [r4, #20]
 790 00da 002B     		cmp	r3, #0
 791 00dc D6D0     		beq	.L69
 792              	.LVL69:
 793              	.LBB14:
 794              		.loc 1 94 0 discriminator 13
 795 00de 0022     		movs	r2, #0
 796 00e0 6261     		str	r2, [r4, #20]
 797 00e2 1846     		mov	r0, r3
ARM GAS  /tmp/cc6XCPyH.s 			page 15


 798 00e4 9A62     		str	r2, [r3, #40]
 799 00e6 FFF7FEFF 		bl	chSchReadyI
 800              	.LVL70:
 801 00ea CFE7     		b	.L69
 802              	.L89:
 803              	.LBE14:
 804              		.loc 1 94 0 discriminator 11
 805 00ec 0223     		movs	r3, #2
 806 00ee 2370     		strb	r3, [r4, #0]
 807 00f0 0023     		movs	r3, #0
 808 00f2 2361     		str	r3, [r4, #16]
 809 00f4 EBE7     		b	.L68
 810              	.LVL71:
 811              	.L66:
 812              		.loc 1 94 0 discriminator 9
 813 00f6 2046     		mov	r0, r4
 814 00f8 A168     		ldr	r1, [r4, #8]
 815 00fa 9847     		blx	r3
 816              	.LVL72:
 817 00fc E4E7     		b	.L67
 818              	.L65:
 819              		.loc 1 94 0 discriminator 7
 820 00fe 0222     		movs	r2, #2
 821 0100 2270     		strb	r2, [r4, #0]
 822 0102 2361     		str	r3, [r4, #16]
 823 0104 E3E7     		b	.L68
 824              		.cfi_endproc
 825              	.LFE118:
 826              		.size	adc_lld_serve_rx_interrupt, .-adc_lld_serve_rx_interrupt
 827 0106 00BFAFF3 		.section	.text.Vector88,"ax",%progbits
 827      0080AFF3 
 827      0080
 828              		.align	2
 829              		.p2align 4,,15
 830              		.global	Vector88
 831              		.thumb
 832              		.thumb_func
 833              		.type	Vector88, %function
 834              	Vector88:
 835              	.LFB119:
 836              		.loc 1 111 0 is_stmt 1
 837              		.cfi_startproc
 838              		@ args = 0, pretend = 0, frame = 0
 839              		@ frame_needed = 0, uses_anonymous_args = 0
 840 0000 38B5     		push	{r3, r4, r5, lr}
 841              	.LCFI6:
 842              		.cfi_def_cfa_offset 16
 843              		.cfi_offset 3, -16
 844              		.cfi_offset 4, -12
 845              		.cfi_offset 5, -8
 846              		.cfi_offset 14, -4
 847              		.loc 1 114 0
 848 0002 FFF7FEFF 		bl	dbg_check_enter_isr
 849              	.LVL73:
 850              		.loc 1 117 0
 851 0006 4FF40053 		mov	r3, #8192
 852 000a C4F20103 		movt	r3, 16385
ARM GAS  /tmp/cc6XCPyH.s 			page 16


 853              		.loc 1 118 0
 854 000e 0021     		movs	r1, #0
 855              		.loc 1 117 0
 856 0010 1A68     		ldr	r2, [r3, #0]
 857              	.LVL74:
 858              		.loc 1 118 0
 859 0012 1960     		str	r1, [r3, #0]
 860              		.loc 1 121 0
 861 0014 9306     		lsls	r3, r2, #26
 862 0016 05D5     		bpl	.L91
 863              		.loc 1 121 0 is_stmt 0 discriminator 1
 864 0018 524C     		ldr	r4, .L147
 865 001a E36A     		ldr	r3, [r4, #44]
 866 001c 1B68     		ldr	r3, [r3, #0]
 867 001e 5B68     		ldr	r3, [r3, #4]
 868 0020 002B     		cmp	r3, #0
 869 0022 6ED1     		bne	.L142
 870              	.LVL75:
 871              	.L91:
 872              		.loc 1 131 0 is_stmt 1
 873 0024 4FF40453 		mov	r3, #8448
 874              	.LVL76:
 875 0028 C4F20103 		movt	r3, 16385
 876              		.loc 1 132 0
 877 002c 0021     		movs	r1, #0
 878              		.loc 1 131 0
 879 002e 1A68     		ldr	r2, [r3, #0]
 880              	.LVL77:
 881              		.loc 1 132 0
 882 0030 1960     		str	r1, [r3, #0]
 883              		.loc 1 135 0
 884 0032 9006     		lsls	r0, r2, #26
 885 0034 05D5     		bpl	.L96
 886              		.loc 1 135 0 is_stmt 0 discriminator 1
 887 0036 4C4C     		ldr	r4, .L147+4
 888 0038 E36A     		ldr	r3, [r4, #44]
 889 003a 1B68     		ldr	r3, [r3, #0]
 890 003c 5B68     		ldr	r3, [r3, #4]
 891 003e 002B     		cmp	r3, #0
 892 0040 38D1     		bne	.L143
 893              	.LVL78:
 894              	.L96:
 895              		.loc 1 145 0 is_stmt 1
 896 0042 4FF40853 		mov	r3, #8704
 897              	.LVL79:
 898 0046 C4F20103 		movt	r3, 16385
 899              		.loc 1 146 0
 900 004a 0021     		movs	r1, #0
 901              		.loc 1 145 0
 902 004c 1A68     		ldr	r2, [r3, #0]
 903              	.LVL80:
 904              		.loc 1 146 0
 905 004e 1960     		str	r1, [r3, #0]
 906              		.loc 1 149 0
 907 0050 9106     		lsls	r1, r2, #26
 908 0052 29D5     		bpl	.L101
 909              		.loc 1 149 0 is_stmt 0 discriminator 1
ARM GAS  /tmp/cc6XCPyH.s 			page 17


 910 0054 454C     		ldr	r4, .L147+8
 911 0056 E36A     		ldr	r3, [r4, #44]
 912 0058 1B68     		ldr	r3, [r3, #0]
 913 005a 5B68     		ldr	r3, [r3, #4]
 914 005c 23B3     		cbz	r3, .L101
 915              		.loc 1 152 0 is_stmt 1
 916 005e 2369     		ldr	r3, [r4, #16]
 917 0060 13B3     		cbz	r3, .L101
 918              		.loc 1 153 0
 919 0062 2046     		mov	r0, r4
 920 0064 FFF7FEFF 		bl	adc_lld_stop_conversion
 921              	.LVL81:
 922 0068 2369     		ldr	r3, [r4, #16]
 923 006a 9B68     		ldr	r3, [r3, #8]
 924 006c 3BB1     		cbz	r3, .L103
 925              		.loc 1 153 0 is_stmt 0 discriminator 1
 926 006e 0522     		movs	r2, #5
 927 0070 0121     		movs	r1, #1
 928 0072 2270     		strb	r2, [r4, #0]
 929 0074 2046     		mov	r0, r4
 930 0076 9847     		blx	r3
 931              	.LVL82:
 932 0078 2378     		ldrb	r3, [r4, #0]	@ zero_extendqisi2
 933 007a 052B     		cmp	r3, #5
 934 007c 68D0     		beq	.L144
 935              	.L103:
 936              		.loc 1 153 0 discriminator 2
 937 007e 0025     		movs	r5, #0
 938 0080 2561     		str	r5, [r4, #16]
 939              	.LBB15:
 940 0082 2023     		movs	r3, #32
 941              	.LVL83:
 942              	@ 153 "../../ChibiOS/os/hal/platforms/STM32F4xx/adc_lld.c" 1
 943 0084 83F31188 		msr     BASEPRI, r3
 944              	@ 0 "" 2
 945              	.LVL84:
 946              		.thumb
 947              	.LBE15:
 948 0088 FFF7FEFF 		bl	dbg_check_lock_from_isr
 949              	.LVL85:
 950 008c 6069     		ldr	r0, [r4, #20]
 951 008e 30B1     		cbz	r0, .L105
 952              	.LVL86:
 953              	.LBB16:
 954              		.loc 1 153 0 discriminator 4
 955 0090 4FF0FF33 		mov	r3, #-1
 956 0094 8362     		str	r3, [r0, #40]
 957 0096 354B     		ldr	r3, .L147+8
 958 0098 5D61     		str	r5, [r3, #20]
 959 009a FFF7FEFF 		bl	chSchReadyI
 960              	.LVL87:
 961              	.L105:
 962              	.LBE16:
 963              		.loc 1 153 0 discriminator 5
 964 009e FFF7FEFF 		bl	dbg_check_unlock_from_isr
 965              	.LVL88:
 966              	.LBB17:
ARM GAS  /tmp/cc6XCPyH.s 			page 18


 967 00a2 0023     		movs	r3, #0
 968              	.LVL89:
 969              	@ 153 "../../ChibiOS/os/hal/platforms/STM32F4xx/adc_lld.c" 1
 970 00a4 83F31188 		msr     BASEPRI, r3
 971              	@ 0 "" 2
 972              	.LVL90:
 973              		.thumb
 974              	.L101:
 975              	.LBE17:
 976              		.loc 1 158 0 is_stmt 1
 977 00a8 FFF7FEFF 		bl	dbg_check_leave_isr
 978              	.LVL91:
 979              		.loc 1 159 0
 980 00ac BDE83840 		pop	{r3, r4, r5, lr}
 981              		.loc 1 158 0
 982 00b0 FFF7FEBF 		b	_port_irq_epilogue
 983              	.LVL92:
 984              	.L143:
 985              		.loc 1 138 0
 986 00b4 2369     		ldr	r3, [r4, #16]
 987 00b6 002B     		cmp	r3, #0
 988 00b8 C3D0     		beq	.L96
 989              		.loc 1 139 0
 990 00ba 2046     		mov	r0, r4
 991 00bc FFF7FEFF 		bl	adc_lld_stop_conversion
 992              	.LVL93:
 993 00c0 2369     		ldr	r3, [r4, #16]
 994 00c2 9B68     		ldr	r3, [r3, #8]
 995 00c4 3BB1     		cbz	r3, .L98
 996              		.loc 1 139 0 is_stmt 0 discriminator 1
 997 00c6 0522     		movs	r2, #5
 998 00c8 0121     		movs	r1, #1
 999 00ca 2270     		strb	r2, [r4, #0]
 1000 00cc 2046     		mov	r0, r4
 1001 00ce 9847     		blx	r3
 1002              	.LVL94:
 1003 00d0 2378     		ldrb	r3, [r4, #0]	@ zero_extendqisi2
 1004 00d2 052B     		cmp	r3, #5
 1005 00d4 42D0     		beq	.L145
 1006              	.L98:
 1007              		.loc 1 139 0 discriminator 2
 1008 00d6 0025     		movs	r5, #0
 1009 00d8 2561     		str	r5, [r4, #16]
 1010              	.LBB18:
 1011 00da 2023     		movs	r3, #32
 1012              	.LVL95:
 1013              	@ 139 "../../ChibiOS/os/hal/platforms/STM32F4xx/adc_lld.c" 1
 1014 00dc 83F31188 		msr     BASEPRI, r3
 1015              	@ 0 "" 2
 1016              	.LVL96:
 1017              		.thumb
 1018              	.LBE18:
 1019 00e0 FFF7FEFF 		bl	dbg_check_lock_from_isr
 1020              	.LVL97:
 1021 00e4 6069     		ldr	r0, [r4, #20]
 1022 00e6 30B1     		cbz	r0, .L100
 1023              	.LVL98:
ARM GAS  /tmp/cc6XCPyH.s 			page 19


 1024              	.LBB19:
 1025              		.loc 1 139 0 discriminator 4
 1026 00e8 4FF0FF33 		mov	r3, #-1
 1027 00ec 8362     		str	r3, [r0, #40]
 1028 00ee 1E4B     		ldr	r3, .L147+4
 1029 00f0 5D61     		str	r5, [r3, #20]
 1030 00f2 FFF7FEFF 		bl	chSchReadyI
 1031              	.LVL99:
 1032              	.L100:
 1033              	.LBE19:
 1034              		.loc 1 139 0 discriminator 5
 1035 00f6 FFF7FEFF 		bl	dbg_check_unlock_from_isr
 1036              	.LVL100:
 1037              	.LBB20:
 1038 00fa 0023     		movs	r3, #0
 1039              	@ 139 "../../ChibiOS/os/hal/platforms/STM32F4xx/adc_lld.c" 1
 1040 00fc 83F31188 		msr     BASEPRI, r3
 1041              	@ 0 "" 2
 1042              	.LVL101:
 1043              		.thumb
 1044 0100 9FE7     		b	.L96
 1045              	.LVL102:
 1046              	.L142:
 1047              	.LBE20:
 1048              		.loc 1 124 0 is_stmt 1
 1049 0102 2369     		ldr	r3, [r4, #16]
 1050 0104 002B     		cmp	r3, #0
 1051 0106 8DD0     		beq	.L91
 1052              		.loc 1 125 0
 1053 0108 2046     		mov	r0, r4
 1054 010a FFF7FEFF 		bl	adc_lld_stop_conversion
 1055              	.LVL103:
 1056 010e 2369     		ldr	r3, [r4, #16]
 1057 0110 9B68     		ldr	r3, [r3, #8]
 1058 0112 3BB1     		cbz	r3, .L93
 1059              		.loc 1 125 0 is_stmt 0 discriminator 1
 1060 0114 0522     		movs	r2, #5
 1061 0116 0121     		movs	r1, #1
 1062 0118 2270     		strb	r2, [r4, #0]
 1063 011a 2046     		mov	r0, r4
 1064 011c 9847     		blx	r3
 1065              	.LVL104:
 1066 011e 2378     		ldrb	r3, [r4, #0]	@ zero_extendqisi2
 1067 0120 052B     		cmp	r3, #5
 1068 0122 18D0     		beq	.L146
 1069              	.L93:
 1070              		.loc 1 125 0 discriminator 2
 1071 0124 0025     		movs	r5, #0
 1072 0126 2561     		str	r5, [r4, #16]
 1073              	.LBB21:
 1074 0128 2023     		movs	r3, #32
 1075              	.LVL105:
 1076              	@ 125 "../../ChibiOS/os/hal/platforms/STM32F4xx/adc_lld.c" 1
 1077 012a 83F31188 		msr     BASEPRI, r3
 1078              	@ 0 "" 2
 1079              	.LVL106:
 1080              		.thumb
ARM GAS  /tmp/cc6XCPyH.s 			page 20


 1081              	.LBE21:
 1082 012e FFF7FEFF 		bl	dbg_check_lock_from_isr
 1083              	.LVL107:
 1084 0132 6069     		ldr	r0, [r4, #20]
 1085 0134 30B1     		cbz	r0, .L95
 1086              	.LVL108:
 1087              	.LBB22:
 1088              		.loc 1 125 0 discriminator 4
 1089 0136 4FF0FF33 		mov	r3, #-1
 1090 013a 8362     		str	r3, [r0, #40]
 1091 013c 094B     		ldr	r3, .L147
 1092 013e 5D61     		str	r5, [r3, #20]
 1093 0140 FFF7FEFF 		bl	chSchReadyI
 1094              	.LVL109:
 1095              	.L95:
 1096              	.LBE22:
 1097              		.loc 1 125 0 discriminator 5
 1098 0144 FFF7FEFF 		bl	dbg_check_unlock_from_isr
 1099              	.LVL110:
 1100              	.LBB23:
 1101 0148 0023     		movs	r3, #0
 1102              	@ 125 "../../ChibiOS/os/hal/platforms/STM32F4xx/adc_lld.c" 1
 1103 014a 83F31188 		msr     BASEPRI, r3
 1104              	@ 0 "" 2
 1105              	.LVL111:
 1106              		.thumb
 1107 014e 69E7     		b	.L91
 1108              	.LVL112:
 1109              	.L144:
 1110              	.LBE23:
 1111              		.loc 1 153 0 is_stmt 1 discriminator 3
 1112 0150 0223     		movs	r3, #2
 1113 0152 2370     		strb	r3, [r4, #0]
 1114 0154 93E7     		b	.L103
 1115              	.L146:
 1116              		.loc 1 125 0 discriminator 3
 1117 0156 0223     		movs	r3, #2
 1118 0158 2370     		strb	r3, [r4, #0]
 1119 015a E3E7     		b	.L93
 1120              	.L145:
 1121              		.loc 1 139 0 discriminator 3
 1122 015c 0223     		movs	r3, #2
 1123 015e 2370     		strb	r3, [r4, #0]
 1124 0160 B9E7     		b	.L98
 1125              	.L148:
 1126 0162 00BF     		.align	2
 1127              	.L147:
 1128 0164 00000000 		.word	.LANCHOR0
 1129 0168 00000000 		.word	.LANCHOR1
 1130 016c 00000000 		.word	.LANCHOR2
 1131              		.cfi_endproc
 1132              	.LFE119:
 1133              		.size	Vector88, .-Vector88
 1134              		.section	.text.adcSTM32EnableTSVREFE,"ax",%progbits
 1135              		.align	2
 1136              		.p2align 4,,15
 1137              		.global	adcSTM32EnableTSVREFE
ARM GAS  /tmp/cc6XCPyH.s 			page 21


 1138              		.thumb
 1139              		.thumb_func
 1140              		.type	adcSTM32EnableTSVREFE, %function
 1141              	adcSTM32EnableTSVREFE:
 1142              	.LFB125:
 1143              		.loc 1 379 0
 1144              		.cfi_startproc
 1145              		@ args = 0, pretend = 0, frame = 0
 1146              		@ frame_needed = 0, uses_anonymous_args = 0
 1147              		@ link register save eliminated.
 1148              		.loc 1 381 0
 1149 0000 4FF40C53 		mov	r3, #8960
 1150 0004 C4F20103 		movt	r3, 16385
 1151 0008 5A68     		ldr	r2, [r3, #4]
 1152 000a 42F40002 		orr	r2, r2, #8388608
 1153 000e 5A60     		str	r2, [r3, #4]
 1154 0010 7047     		bx	lr
 1155              		.cfi_endproc
 1156              	.LFE125:
 1157              		.size	adcSTM32EnableTSVREFE, .-adcSTM32EnableTSVREFE
 1158 0012 00BFAFF3 		.section	.text.adcSTM32DisableTSVREFE,"ax",%progbits
 1158      0080AFF3 
 1158      0080AFF3 
 1158      0080
 1159              		.align	2
 1160              		.p2align 4,,15
 1161              		.global	adcSTM32DisableTSVREFE
 1162              		.thumb
 1163              		.thumb_func
 1164              		.type	adcSTM32DisableTSVREFE, %function
 1165              	adcSTM32DisableTSVREFE:
 1166              	.LFB126:
 1167              		.loc 1 390 0
 1168              		.cfi_startproc
 1169              		@ args = 0, pretend = 0, frame = 0
 1170              		@ frame_needed = 0, uses_anonymous_args = 0
 1171              		@ link register save eliminated.
 1172              		.loc 1 392 0
 1173 0000 4FF40C53 		mov	r3, #8960
 1174 0004 C4F20103 		movt	r3, 16385
 1175 0008 5A68     		ldr	r2, [r3, #4]
 1176 000a 22F40002 		bic	r2, r2, #8388608
 1177 000e 5A60     		str	r2, [r3, #4]
 1178 0010 7047     		bx	lr
 1179              		.cfi_endproc
 1180              	.LFE126:
 1181              		.size	adcSTM32DisableTSVREFE, .-adcSTM32DisableTSVREFE
 1182 0012 00BFAFF3 		.section	.text.adcSTM32EnableVBATE,"ax",%progbits
 1182      0080AFF3 
 1182      0080AFF3 
 1182      0080
 1183              		.align	2
 1184              		.p2align 4,,15
 1185              		.global	adcSTM32EnableVBATE
 1186              		.thumb
 1187              		.thumb_func
 1188              		.type	adcSTM32EnableVBATE, %function
ARM GAS  /tmp/cc6XCPyH.s 			page 22


 1189              	adcSTM32EnableVBATE:
 1190              	.LFB127:
 1191              		.loc 1 401 0
 1192              		.cfi_startproc
 1193              		@ args = 0, pretend = 0, frame = 0
 1194              		@ frame_needed = 0, uses_anonymous_args = 0
 1195              		@ link register save eliminated.
 1196              		.loc 1 403 0
 1197 0000 4FF40C53 		mov	r3, #8960
 1198 0004 C4F20103 		movt	r3, 16385
 1199 0008 5A68     		ldr	r2, [r3, #4]
 1200 000a 42F48002 		orr	r2, r2, #4194304
 1201 000e 5A60     		str	r2, [r3, #4]
 1202 0010 7047     		bx	lr
 1203              		.cfi_endproc
 1204              	.LFE127:
 1205              		.size	adcSTM32EnableVBATE, .-adcSTM32EnableVBATE
 1206 0012 00BFAFF3 		.section	.text.adcSTM32DisableVBATE,"ax",%progbits
 1206      0080AFF3 
 1206      0080AFF3 
 1206      0080
 1207              		.align	2
 1208              		.p2align 4,,15
 1209              		.global	adcSTM32DisableVBATE
 1210              		.thumb
 1211              		.thumb_func
 1212              		.type	adcSTM32DisableVBATE, %function
 1213              	adcSTM32DisableVBATE:
 1214              	.LFB128:
 1215              		.loc 1 412 0
 1216              		.cfi_startproc
 1217              		@ args = 0, pretend = 0, frame = 0
 1218              		@ frame_needed = 0, uses_anonymous_args = 0
 1219              		@ link register save eliminated.
 1220              		.loc 1 414 0
 1221 0000 4FF40C53 		mov	r3, #8960
 1222 0004 C4F20103 		movt	r3, 16385
 1223 0008 5A68     		ldr	r2, [r3, #4]
 1224 000a 22F48002 		bic	r2, r2, #4194304
 1225 000e 5A60     		str	r2, [r3, #4]
 1226 0010 7047     		bx	lr
 1227              		.cfi_endproc
 1228              	.LFE128:
 1229              		.size	adcSTM32DisableVBATE, .-adcSTM32DisableVBATE
 1230              		.global	ADCD3
 1231              		.global	ADCD2
 1232              		.global	ADCD1
 1233 0012 00BFAFF3 		.section	.bss.ADCD1,"aw",%nobits
 1233      0080AFF3 
 1233      0080AFF3 
 1233      0080
 1234              		.align	2
 1235              		.set	.LANCHOR0,. + 0
 1236              		.type	ADCD1, %object
 1237              		.size	ADCD1, 52
 1238              	ADCD1:
 1239 0000 00000000 		.space	52
ARM GAS  /tmp/cc6XCPyH.s 			page 23


 1239      00000000 
 1239      00000000 
 1239      00000000 
 1239      00000000 
 1240              		.section	.bss.ADCD2,"aw",%nobits
 1241              		.align	2
 1242              		.set	.LANCHOR1,. + 0
 1243              		.type	ADCD2, %object
 1244              		.size	ADCD2, 52
 1245              	ADCD2:
 1246 0000 00000000 		.space	52
 1246      00000000 
 1246      00000000 
 1246      00000000 
 1246      00000000 
 1247              		.section	.bss.ADCD3,"aw",%nobits
 1248              		.align	2
 1249              		.set	.LANCHOR2,. + 0
 1250              		.type	ADCD3, %object
 1251              		.size	ADCD3, 52
 1252              	ADCD3:
 1253 0000 00000000 		.space	52
 1253      00000000 
 1253      00000000 
 1253      00000000 
 1253      00000000 
 1254              		.section	.rodata.str1.4,"aMS",%progbits,1
 1255              		.align	2
 1256              	.LC0:
 1257 0000 6164635F 		.ascii	"adc_lld_start(), #1\000"
 1257      6C6C645F 
 1257      73746172 
 1257      7428292C 
 1257      20233100 
 1258              	.LC1:
 1259 0014 6164635F 		.ascii	"adc_lld_start(), #2\000"
 1259      6C6C645F 
 1259      73746172 
 1259      7428292C 
 1259      20233200 
 1260              	.LC2:
 1261 0028 6164635F 		.ascii	"adc_lld_start(), #3\000"
 1261      6C6C645F 
 1261      73746172 
 1261      7428292C 
 1261      20233300 
 1262              		.text
 1263              	.Letext0:
 1264              		.file 2 "/opt/psas/x-tools/stm32f407/arm-psas-eabi/bin/../lib/gcc/arm-psas-eabi/4.7.2/include/stdd
 1265              		.file 3 "/opt/psas/x-tools/stm32f407/arm-psas-eabi/bin/../lib/gcc/arm-psas-eabi/4.7.2/../../../../
 1266              		.file 4 "../../ChibiOS/os/ports/GCC/ARMCMx/chtypes.h"
 1267              		.file 5 "../../ChibiOS/os/kernel/include/chlists.h"
 1268              		.file 6 "../../ChibiOS/os/kernel/include/chthreads.h"
 1269              		.file 7 "../../ChibiOS/os/ports/GCC/ARMCMx/chcore_v7m.h"
 1270              		.file 8 "../../ChibiOS/os/kernel/include/chmtx.h"
 1271              		.file 9 "../../ChibiOS/os/hal/platforms/STM32F4xx/stm32f4xx.h"
 1272              		.file 10 "../../ChibiOS/os/hal/platforms/STM32F4xx/stm32_dma.h"
ARM GAS  /tmp/cc6XCPyH.s 			page 24


 1273              		.file 11 "../../ChibiOS/os/hal/include/adc.h"
 1274              		.file 12 "../../ChibiOS/os/hal/platforms/STM32F4xx/adc_lld.h"
 1275              		.file 13 "../../ChibiOS/os/ports/common/ARMCMx/CMSIS/include/core_cm4.h"
 1276              		.file 14 "../../ChibiOS/os/ports/common/ARMCMx/nvic.h"
 1277              		.file 15 "../../ChibiOS/os/kernel/include/chdebug.h"
 1278              		.file 16 "../../ChibiOS/os/kernel/include/chschd.h"