ARM GAS  /tmp/cc1wgTGm.s 			page 1


   1              		.syntax unified
   2              		.cpu cortex-m4
   3              		.eabi_attribute 27, 3
   4              		.eabi_attribute 28, 1
   5              		.fpu fpv4-sp-d16
   6              		.eabi_attribute 20, 1
   7              		.eabi_attribute 21, 1
   8              		.eabi_attribute 23, 3
   9              		.eabi_attribute 24, 1
  10              		.eabi_attribute 25, 1
  11              		.eabi_attribute 26, 1
  12              		.eabi_attribute 30, 2
  13              		.eabi_attribute 34, 1
  14              		.eabi_attribute 18, 4
  15              		.thumb
  16              		.file	"chdebug.c"
  17              		.text
  18              	.Ltext0:
  19              		.cfi_sections	.debug_frame
  20              		.section	.text.dbg_check_disable,"ax",%progbits
  21              		.align	2
  22              		.p2align 4,,15
  23              		.global	dbg_check_disable
  24              		.thumb
  25              		.thumb_func
  26              		.type	dbg_check_disable, %function
  27              	dbg_check_disable:
  28              	.LFB7:
  29              		.file 1 "../../ChibiOS/os/kernel/src/chdebug.c"
  30              		.loc 1 74 0
  31              		.cfi_startproc
  32              		@ args = 0, pretend = 0, frame = 0
  33              		@ frame_needed = 0, uses_anonymous_args = 0
  34              		@ link register save eliminated.
  35              		.loc 1 76 0
  36 0000 054B     		ldr	r3, .L5
  37 0002 1B68     		ldr	r3, [r3, #0]
  38 0004 13B9     		cbnz	r3, .L2
  39              		.loc 1 76 0 is_stmt 0 discriminator 1
  40 0006 054B     		ldr	r3, .L5+4
  41 0008 1B68     		ldr	r3, [r3, #0]
  42 000a 23B1     		cbz	r3, .L1
  43              	.L2:
  44              	.LVL0:
  45              	.LBB28:
  46              	.LBB29:
  47              		.loc 1 266 0 is_stmt 1
  48 000c 044A     		ldr	r2, .L5+8
  49 000e 054B     		ldr	r3, .L5+12
  50 0010 1A60     		str	r2, [r3, #0]
  51              	.LBE29:
  52              	.LBE28:
  53              		.loc 1 78 0
  54              	.LBB31:
  55              	.LBB30:
  56              		.loc 1 267 0
  57 0012 FFF7FEBF 		b	port_halt
ARM GAS  /tmp/cc1wgTGm.s 			page 2


  58              	.LVL1:
  59              	.L1:
  60 0016 7047     		bx	lr
  61              	.L6:
  62              		.align	2
  63              	.L5:
  64 0018 00000000 		.word	.LANCHOR0
  65 001c 00000000 		.word	.LANCHOR1
  66 0020 00000000 		.word	.LC0
  67 0024 00000000 		.word	.LANCHOR2
  68              	.LBE30:
  69              	.LBE31:
  70              		.cfi_endproc
  71              	.LFE7:
  72              		.size	dbg_check_disable, .-dbg_check_disable
  73 0028 AFF30080 		.section	.text.dbg_check_suspend,"ax",%progbits
  73      AFF30080 
  74              		.align	2
  75              		.p2align 4,,15
  76              		.global	dbg_check_suspend
  77              		.thumb
  78              		.thumb_func
  79              		.type	dbg_check_suspend, %function
  80              	dbg_check_suspend:
  81              	.LFB8:
  82              		.loc 1 85 0
  83              		.cfi_startproc
  84              		@ args = 0, pretend = 0, frame = 0
  85              		@ frame_needed = 0, uses_anonymous_args = 0
  86              		@ link register save eliminated.
  87              		.loc 1 87 0
  88 0000 054B     		ldr	r3, .L10
  89 0002 1B68     		ldr	r3, [r3, #0]
  90 0004 13B9     		cbnz	r3, .L8
  91              		.loc 1 87 0 is_stmt 0 discriminator 1
  92 0006 054B     		ldr	r3, .L10+4
  93 0008 1B68     		ldr	r3, [r3, #0]
  94 000a 23B1     		cbz	r3, .L7
  95              	.L8:
  96              	.LVL2:
  97              	.LBB32:
  98              	.LBB33:
  99              		.loc 1 266 0 is_stmt 1
 100 000c 044A     		ldr	r2, .L10+8
 101 000e 054B     		ldr	r3, .L10+12
 102 0010 1A60     		str	r2, [r3, #0]
 103              	.LBE33:
 104              	.LBE32:
 105              		.loc 1 89 0
 106              	.LBB35:
 107              	.LBB34:
 108              		.loc 1 267 0
 109 0012 FFF7FEBF 		b	port_halt
 110              	.LVL3:
 111              	.L7:
 112 0016 7047     		bx	lr
 113              	.L11:
ARM GAS  /tmp/cc1wgTGm.s 			page 3


 114              		.align	2
 115              	.L10:
 116 0018 00000000 		.word	.LANCHOR0
 117 001c 00000000 		.word	.LANCHOR1
 118 0020 08000000 		.word	.LC1
 119 0024 00000000 		.word	.LANCHOR2
 120              	.LBE34:
 121              	.LBE35:
 122              		.cfi_endproc
 123              	.LFE8:
 124              		.size	dbg_check_suspend, .-dbg_check_suspend
 125 0028 AFF30080 		.section	.text.dbg_check_enable,"ax",%progbits
 125      AFF30080 
 126              		.align	2
 127              		.p2align 4,,15
 128              		.global	dbg_check_enable
 129              		.thumb
 130              		.thumb_func
 131              		.type	dbg_check_enable, %function
 132              	dbg_check_enable:
 133              	.LFB9:
 134              		.loc 1 96 0
 135              		.cfi_startproc
 136              		@ args = 0, pretend = 0, frame = 0
 137              		@ frame_needed = 0, uses_anonymous_args = 0
 138              		@ link register save eliminated.
 139              		.loc 1 98 0
 140 0000 054B     		ldr	r3, .L15
 141 0002 1B68     		ldr	r3, [r3, #0]
 142 0004 13B9     		cbnz	r3, .L13
 143              		.loc 1 98 0 is_stmt 0 discriminator 1
 144 0006 054B     		ldr	r3, .L15+4
 145 0008 1B68     		ldr	r3, [r3, #0]
 146 000a 23B1     		cbz	r3, .L12
 147              	.L13:
 148              	.LVL4:
 149              	.LBB36:
 150              	.LBB37:
 151              		.loc 1 266 0 is_stmt 1
 152 000c 044A     		ldr	r2, .L15+8
 153 000e 054B     		ldr	r3, .L15+12
 154 0010 1A60     		str	r2, [r3, #0]
 155              	.LBE37:
 156              	.LBE36:
 157              		.loc 1 100 0
 158              	.LBB39:
 159              	.LBB38:
 160              		.loc 1 267 0
 161 0012 FFF7FEBF 		b	port_halt
 162              	.LVL5:
 163              	.L12:
 164 0016 7047     		bx	lr
 165              	.L16:
 166              		.align	2
 167              	.L15:
 168 0018 00000000 		.word	.LANCHOR0
 169 001c 00000000 		.word	.LANCHOR1
ARM GAS  /tmp/cc1wgTGm.s 			page 4


 170 0020 10000000 		.word	.LC2
 171 0024 00000000 		.word	.LANCHOR2
 172              	.LBE38:
 173              	.LBE39:
 174              		.cfi_endproc
 175              	.LFE9:
 176              		.size	dbg_check_enable, .-dbg_check_enable
 177 0028 AFF30080 		.section	.text.dbg_check_lock,"ax",%progbits
 177      AFF30080 
 178              		.align	2
 179              		.p2align 4,,15
 180              		.global	dbg_check_lock
 181              		.thumb
 182              		.thumb_func
 183              		.type	dbg_check_lock, %function
 184              	dbg_check_lock:
 185              	.LFB10:
 186              		.loc 1 107 0
 187              		.cfi_startproc
 188              		@ args = 0, pretend = 0, frame = 0
 189              		@ frame_needed = 0, uses_anonymous_args = 0
 190              		.loc 1 109 0
 191 0000 074B     		ldr	r3, .L25
 192 0002 1B68     		ldr	r3, [r3, #0]
 193              		.loc 1 107 0
 194 0004 10B5     		push	{r4, lr}
 195              	.LCFI0:
 196              		.cfi_def_cfa_offset 8
 197              		.cfi_offset 4, -8
 198              		.cfi_offset 14, -4
 199 0006 074C     		ldr	r4, .L25+4
 200              		.loc 1 109 0
 201 0008 0BB9     		cbnz	r3, .L18
 202              		.loc 1 109 0 is_stmt 0 discriminator 1
 203 000a 2368     		ldr	r3, [r4, #0]
 204 000c 23B1     		cbz	r3, .L19
 205              	.L18:
 206              	.LVL6:
 207              	.LBB40:
 208              	.LBB41:
 209              		.loc 1 266 0 is_stmt 1
 210 000e 064A     		ldr	r2, .L25+8
 211 0010 064B     		ldr	r3, .L25+12
 212 0012 1A60     		str	r2, [r3, #0]
 213              		.loc 1 267 0
 214 0014 FFF7FEFF 		bl	port_halt
 215              	.LVL7:
 216              	.L19:
 217              	.LBE41:
 218              	.LBE40:
 219              		.loc 1 111 0
 220 0018 0123     		movs	r3, #1
 221 001a 2360     		str	r3, [r4, #0]
 222 001c 10BD     		pop	{r4, pc}
 223              	.L26:
 224 001e 00BF     		.align	2
 225              	.L25:
ARM GAS  /tmp/cc1wgTGm.s 			page 5


 226 0020 00000000 		.word	.LANCHOR0
 227 0024 00000000 		.word	.LANCHOR1
 228 0028 18000000 		.word	.LC3
 229 002c 00000000 		.word	.LANCHOR2
 230              		.cfi_endproc
 231              	.LFE10:
 232              		.size	dbg_check_lock, .-dbg_check_lock
 233              		.section	.text.dbg_check_unlock,"ax",%progbits
 234              		.align	2
 235              		.p2align 4,,15
 236              		.global	dbg_check_unlock
 237              		.thumb
 238              		.thumb_func
 239              		.type	dbg_check_unlock, %function
 240              	dbg_check_unlock:
 241              	.LFB11:
 242              		.loc 1 119 0
 243              		.cfi_startproc
 244              		@ args = 0, pretend = 0, frame = 0
 245              		@ frame_needed = 0, uses_anonymous_args = 0
 246              		.loc 1 121 0
 247 0000 084B     		ldr	r3, .L32
 248 0002 1B68     		ldr	r3, [r3, #0]
 249              		.loc 1 119 0
 250 0004 10B5     		push	{r4, lr}
 251              	.LCFI1:
 252              		.cfi_def_cfa_offset 8
 253              		.cfi_offset 4, -8
 254              		.cfi_offset 14, -4
 255 0006 084C     		ldr	r4, .L32+4
 256              		.loc 1 121 0
 257 0008 2BB9     		cbnz	r3, .L28
 258              		.loc 1 121 0 is_stmt 0 discriminator 1
 259 000a 2368     		ldr	r3, [r4, #0]
 260 000c 002B     		cmp	r3, #0
 261 000e 02DD     		ble	.L28
 262              	.L29:
 263              		.loc 1 123 0 is_stmt 1
 264 0010 0023     		movs	r3, #0
 265 0012 2360     		str	r3, [r4, #0]
 266 0014 10BD     		pop	{r4, pc}
 267              	.L28:
 268              	.LVL8:
 269              	.LBB42:
 270              	.LBB43:
 271              		.loc 1 266 0
 272 0016 054A     		ldr	r2, .L32+8
 273 0018 054B     		ldr	r3, .L32+12
 274 001a 1A60     		str	r2, [r3, #0]
 275              		.loc 1 267 0
 276 001c FFF7FEFF 		bl	port_halt
 277              	.LVL9:
 278 0020 F6E7     		b	.L29
 279              	.L33:
 280 0022 00BF     		.align	2
 281              	.L32:
 282 0024 00000000 		.word	.LANCHOR0
ARM GAS  /tmp/cc1wgTGm.s 			page 6


 283 0028 00000000 		.word	.LANCHOR1
 284 002c 20000000 		.word	.LC4
 285 0030 00000000 		.word	.LANCHOR2
 286              	.LBE43:
 287              	.LBE42:
 288              		.cfi_endproc
 289              	.LFE11:
 290              		.size	dbg_check_unlock, .-dbg_check_unlock
 291 0034 AFF30080 		.section	.text.dbg_check_lock_from_isr,"ax",%progbits
 291      AFF30080 
 291      AFF30080 
 292              		.align	2
 293              		.p2align 4,,15
 294              		.global	dbg_check_lock_from_isr
 295              		.thumb
 296              		.thumb_func
 297              		.type	dbg_check_lock_from_isr, %function
 298              	dbg_check_lock_from_isr:
 299              	.LFB12:
 300              		.loc 1 131 0
 301              		.cfi_startproc
 302              		@ args = 0, pretend = 0, frame = 0
 303              		@ frame_needed = 0, uses_anonymous_args = 0
 304              		.loc 1 133 0
 305 0000 074B     		ldr	r3, .L42
 306 0002 1B68     		ldr	r3, [r3, #0]
 307 0004 002B     		cmp	r3, #0
 308              		.loc 1 131 0
 309 0006 10B5     		push	{r4, lr}
 310              	.LCFI2:
 311              		.cfi_def_cfa_offset 8
 312              		.cfi_offset 4, -8
 313              		.cfi_offset 14, -4
 314 0008 064C     		ldr	r4, .L42+4
 315              		.loc 1 133 0
 316 000a 01DD     		ble	.L35
 317              		.loc 1 133 0 is_stmt 0 discriminator 1
 318 000c 2368     		ldr	r3, [r4, #0]
 319 000e 23B1     		cbz	r3, .L36
 320              	.L35:
 321              	.LVL10:
 322              	.LBB44:
 323              	.LBB45:
 324              		.loc 1 266 0 is_stmt 1
 325 0010 054A     		ldr	r2, .L42+8
 326 0012 064B     		ldr	r3, .L42+12
 327 0014 1A60     		str	r2, [r3, #0]
 328              		.loc 1 267 0
 329 0016 FFF7FEFF 		bl	port_halt
 330              	.LVL11:
 331              	.L36:
 332              	.LBE45:
 333              	.LBE44:
 334              		.loc 1 135 0
 335 001a 0123     		movs	r3, #1
 336 001c 2360     		str	r3, [r4, #0]
 337 001e 10BD     		pop	{r4, pc}
ARM GAS  /tmp/cc1wgTGm.s 			page 7


 338              	.L43:
 339              		.align	2
 340              	.L42:
 341 0020 00000000 		.word	.LANCHOR0
 342 0024 00000000 		.word	.LANCHOR1
 343 0028 28000000 		.word	.LC5
 344 002c 00000000 		.word	.LANCHOR2
 345              		.cfi_endproc
 346              	.LFE12:
 347              		.size	dbg_check_lock_from_isr, .-dbg_check_lock_from_isr
 348              		.section	.text.dbg_check_unlock_from_isr,"ax",%progbits
 349              		.align	2
 350              		.p2align 4,,15
 351              		.global	dbg_check_unlock_from_isr
 352              		.thumb
 353              		.thumb_func
 354              		.type	dbg_check_unlock_from_isr, %function
 355              	dbg_check_unlock_from_isr:
 356              	.LFB13:
 357              		.loc 1 143 0
 358              		.cfi_startproc
 359              		@ args = 0, pretend = 0, frame = 0
 360              		@ frame_needed = 0, uses_anonymous_args = 0
 361              		.loc 1 145 0
 362 0000 084B     		ldr	r3, .L49
 363 0002 1B68     		ldr	r3, [r3, #0]
 364 0004 002B     		cmp	r3, #0
 365              		.loc 1 143 0
 366 0006 10B5     		push	{r4, lr}
 367              	.LCFI3:
 368              		.cfi_def_cfa_offset 8
 369              		.cfi_offset 4, -8
 370              		.cfi_offset 14, -4
 371 0008 074C     		ldr	r4, .L49+4
 372              		.loc 1 145 0
 373 000a 05DD     		ble	.L45
 374              		.loc 1 145 0 is_stmt 0 discriminator 1
 375 000c 2368     		ldr	r3, [r4, #0]
 376 000e 002B     		cmp	r3, #0
 377 0010 02DD     		ble	.L45
 378              	.L46:
 379              		.loc 1 147 0 is_stmt 1
 380 0012 0023     		movs	r3, #0
 381 0014 2360     		str	r3, [r4, #0]
 382 0016 10BD     		pop	{r4, pc}
 383              	.L45:
 384              	.LVL12:
 385              	.LBB46:
 386              	.LBB47:
 387              		.loc 1 266 0
 388 0018 044A     		ldr	r2, .L49+8
 389 001a 054B     		ldr	r3, .L49+12
 390 001c 1A60     		str	r2, [r3, #0]
 391              		.loc 1 267 0
 392 001e FFF7FEFF 		bl	port_halt
 393              	.LVL13:
 394 0022 F6E7     		b	.L46
ARM GAS  /tmp/cc1wgTGm.s 			page 8


 395              	.L50:
 396              		.align	2
 397              	.L49:
 398 0024 00000000 		.word	.LANCHOR0
 399 0028 00000000 		.word	.LANCHOR1
 400 002c 30000000 		.word	.LC6
 401 0030 00000000 		.word	.LANCHOR2
 402              	.LBE47:
 403              	.LBE46:
 404              		.cfi_endproc
 405              	.LFE13:
 406              		.size	dbg_check_unlock_from_isr, .-dbg_check_unlock_from_isr
 407 0034 AFF30080 		.section	.text.dbg_check_enter_isr,"ax",%progbits
 407      AFF30080 
 407      AFF30080 
 408              		.align	2
 409              		.p2align 4,,15
 410              		.global	dbg_check_enter_isr
 411              		.thumb
 412              		.thumb_func
 413              		.type	dbg_check_enter_isr, %function
 414              	dbg_check_enter_isr:
 415              	.LFB14:
 416              		.loc 1 155 0
 417              		.cfi_startproc
 418              		@ args = 0, pretend = 0, frame = 0
 419              		@ frame_needed = 0, uses_anonymous_args = 0
 420 0000 10B5     		push	{r4, lr}
 421              	.LCFI4:
 422              		.cfi_def_cfa_offset 8
 423              		.cfi_offset 4, -8
 424              		.cfi_offset 14, -4
 425              	.LBB48:
 426              		.loc 1 157 0
 427 0002 2023     		movs	r3, #32
 428              	.LVL14:
 429              	@ 157 "../../ChibiOS/os/kernel/src/chdebug.c" 1
 430 0004 83F31188 		msr     BASEPRI, r3
 431              	@ 0 "" 2
 432              	.LVL15:
 433              		.thumb
 434              	.LBE48:
 435              		.loc 1 158 0
 436 0008 094C     		ldr	r4, .L57
 437 000a 2368     		ldr	r3, [r4, #0]
 438              	.LVL16:
 439 000c 002B     		cmp	r3, #0
 440 000e 02DB     		blt	.L52
 441              		.loc 1 158 0 is_stmt 0 discriminator 1
 442 0010 084A     		ldr	r2, .L57+4
 443 0012 1268     		ldr	r2, [r2, #0]
 444 0014 2AB1     		cbz	r2, .L53
 445              	.L52:
 446              	.LVL17:
 447              	.LBB49:
 448              	.LBB50:
 449              		.loc 1 266 0 is_stmt 1
ARM GAS  /tmp/cc1wgTGm.s 			page 9


 450 0016 084B     		ldr	r3, .L57+8
 451 0018 084A     		ldr	r2, .L57+12
 452 001a 1A60     		str	r2, [r3, #0]
 453              		.loc 1 267 0
 454 001c FFF7FEFF 		bl	port_halt
 455              	.LVL18:
 456 0020 2368     		ldr	r3, [r4, #0]
 457              	.LVL19:
 458              	.L53:
 459              	.LBE50:
 460              	.LBE49:
 461              		.loc 1 160 0
 462 0022 0133     		adds	r3, r3, #1
 463 0024 2360     		str	r3, [r4, #0]
 464              	.LBB51:
 465              		.loc 1 161 0
 466 0026 0023     		movs	r3, #0
 467              	.LVL20:
 468              	@ 161 "../../ChibiOS/os/kernel/src/chdebug.c" 1
 469 0028 83F31188 		msr     BASEPRI, r3
 470              	@ 0 "" 2
 471              	.LVL21:
 472              		.thumb
 473 002c 10BD     		pop	{r4, pc}
 474              	.L58:
 475 002e 00BF     		.align	2
 476              	.L57:
 477 0030 00000000 		.word	.LANCHOR0
 478 0034 00000000 		.word	.LANCHOR1
 479 0038 00000000 		.word	.LANCHOR2
 480 003c 38000000 		.word	.LC7
 481              	.LBE51:
 482              		.cfi_endproc
 483              	.LFE14:
 484              		.size	dbg_check_enter_isr, .-dbg_check_enter_isr
 485              		.section	.text.dbg_check_leave_isr,"ax",%progbits
 486              		.align	2
 487              		.p2align 4,,15
 488              		.global	dbg_check_leave_isr
 489              		.thumb
 490              		.thumb_func
 491              		.type	dbg_check_leave_isr, %function
 492              	dbg_check_leave_isr:
 493              	.LFB15:
 494              		.loc 1 169 0
 495              		.cfi_startproc
 496              		@ args = 0, pretend = 0, frame = 0
 497              		@ frame_needed = 0, uses_anonymous_args = 0
 498 0000 10B5     		push	{r4, lr}
 499              	.LCFI5:
 500              		.cfi_def_cfa_offset 8
 501              		.cfi_offset 4, -8
 502              		.cfi_offset 14, -4
 503              	.LBB52:
 504              		.loc 1 171 0
 505 0002 2023     		movs	r3, #32
 506              	.LVL22:
ARM GAS  /tmp/cc1wgTGm.s 			page 10


 507              	@ 171 "../../ChibiOS/os/kernel/src/chdebug.c" 1
 508 0004 83F31188 		msr     BASEPRI, r3
 509              	@ 0 "" 2
 510              	.LVL23:
 511              		.thumb
 512              	.LBE52:
 513              		.loc 1 172 0
 514 0008 094C     		ldr	r4, .L65
 515 000a 2368     		ldr	r3, [r4, #0]
 516              	.LVL24:
 517 000c 002B     		cmp	r3, #0
 518 000e 02DD     		ble	.L60
 519              		.loc 1 172 0 is_stmt 0 discriminator 1
 520 0010 084A     		ldr	r2, .L65+4
 521 0012 1268     		ldr	r2, [r2, #0]
 522 0014 2AB1     		cbz	r2, .L61
 523              	.L60:
 524              	.LVL25:
 525              	.LBB53:
 526              	.LBB54:
 527              		.loc 1 266 0 is_stmt 1
 528 0016 084B     		ldr	r3, .L65+8
 529 0018 084A     		ldr	r2, .L65+12
 530 001a 1A60     		str	r2, [r3, #0]
 531              		.loc 1 267 0
 532 001c FFF7FEFF 		bl	port_halt
 533              	.LVL26:
 534 0020 2368     		ldr	r3, [r4, #0]
 535              	.LVL27:
 536              	.L61:
 537              	.LBE54:
 538              	.LBE53:
 539              		.loc 1 174 0
 540 0022 013B     		subs	r3, r3, #1
 541 0024 2360     		str	r3, [r4, #0]
 542              	.LBB55:
 543              		.loc 1 175 0
 544 0026 0023     		movs	r3, #0
 545              	.LVL28:
 546              	@ 175 "../../ChibiOS/os/kernel/src/chdebug.c" 1
 547 0028 83F31188 		msr     BASEPRI, r3
 548              	@ 0 "" 2
 549              	.LVL29:
 550              		.thumb
 551 002c 10BD     		pop	{r4, pc}
 552              	.L66:
 553 002e 00BF     		.align	2
 554              	.L65:
 555 0030 00000000 		.word	.LANCHOR0
 556 0034 00000000 		.word	.LANCHOR1
 557 0038 00000000 		.word	.LANCHOR2
 558 003c 40000000 		.word	.LC8
 559              	.LBE55:
 560              		.cfi_endproc
 561              	.LFE15:
 562              		.size	dbg_check_leave_isr, .-dbg_check_leave_isr
 563              		.section	.text.chDbgCheckClassI,"ax",%progbits
ARM GAS  /tmp/cc1wgTGm.s 			page 11


 564              		.align	2
 565              		.p2align 4,,15
 566              		.global	chDbgCheckClassI
 567              		.thumb
 568              		.thumb_func
 569              		.type	chDbgCheckClassI, %function
 570              	chDbgCheckClassI:
 571              	.LFB16:
 572              		.loc 1 186 0
 573              		.cfi_startproc
 574              		@ args = 0, pretend = 0, frame = 0
 575              		@ frame_needed = 0, uses_anonymous_args = 0
 576              		@ link register save eliminated.
 577              		.loc 1 188 0
 578 0000 064B     		ldr	r3, .L70
 579 0002 1B68     		ldr	r3, [r3, #0]
 580 0004 002B     		cmp	r3, #0
 581 0006 04DB     		blt	.L68
 582              		.loc 1 188 0 is_stmt 0 discriminator 1
 583 0008 054B     		ldr	r3, .L70+4
 584 000a 1B68     		ldr	r3, [r3, #0]
 585 000c 002B     		cmp	r3, #0
 586 000e 00DD     		ble	.L68
 587 0010 7047     		bx	lr
 588              	.L68:
 589              	.LVL30:
 590              	.LBB56:
 591              	.LBB57:
 592              		.loc 1 266 0 is_stmt 1
 593 0012 044A     		ldr	r2, .L70+8
 594 0014 044B     		ldr	r3, .L70+12
 595 0016 1A60     		str	r2, [r3, #0]
 596              	.LBE57:
 597              	.LBE56:
 598              		.loc 1 190 0
 599              	.LBB59:
 600              	.LBB58:
 601              		.loc 1 267 0
 602 0018 FFF7FEBF 		b	port_halt
 603              	.LVL31:
 604              	.L71:
 605              		.align	2
 606              	.L70:
 607 001c 00000000 		.word	.LANCHOR0
 608 0020 00000000 		.word	.LANCHOR1
 609 0024 48000000 		.word	.LC9
 610 0028 00000000 		.word	.LANCHOR2
 611              	.LBE58:
 612              	.LBE59:
 613              		.cfi_endproc
 614              	.LFE16:
 615              		.size	chDbgCheckClassI, .-chDbgCheckClassI
 616 002c AFF30080 		.section	.text.chDbgCheckClassS,"ax",%progbits
 617              		.align	2
 618              		.p2align 4,,15
 619              		.global	chDbgCheckClassS
 620              		.thumb
ARM GAS  /tmp/cc1wgTGm.s 			page 12


 621              		.thumb_func
 622              		.type	chDbgCheckClassS, %function
 623              	chDbgCheckClassS:
 624              	.LFB17:
 625              		.loc 1 200 0
 626              		.cfi_startproc
 627              		@ args = 0, pretend = 0, frame = 0
 628              		@ frame_needed = 0, uses_anonymous_args = 0
 629              		@ link register save eliminated.
 630              		.loc 1 202 0
 631 0000 064B     		ldr	r3, .L75
 632 0002 1B68     		ldr	r3, [r3, #0]
 633 0004 23B9     		cbnz	r3, .L73
 634              		.loc 1 202 0 is_stmt 0 discriminator 1
 635 0006 064B     		ldr	r3, .L75+4
 636 0008 1B68     		ldr	r3, [r3, #0]
 637 000a 002B     		cmp	r3, #0
 638 000c 00DD     		ble	.L73
 639 000e 7047     		bx	lr
 640              	.L73:
 641              	.LVL32:
 642              	.LBB60:
 643              	.LBB61:
 644              		.loc 1 266 0 is_stmt 1
 645 0010 044A     		ldr	r2, .L75+8
 646 0012 054B     		ldr	r3, .L75+12
 647 0014 1A60     		str	r2, [r3, #0]
 648              	.LBE61:
 649              	.LBE60:
 650              		.loc 1 204 0
 651              	.LBB63:
 652              	.LBB62:
 653              		.loc 1 267 0
 654 0016 FFF7FEBF 		b	port_halt
 655              	.LVL33:
 656              	.L76:
 657 001a 00BF     		.align	2
 658              	.L75:
 659 001c 00000000 		.word	.LANCHOR0
 660 0020 00000000 		.word	.LANCHOR1
 661 0024 50000000 		.word	.LC10
 662 0028 00000000 		.word	.LANCHOR2
 663              	.LBE62:
 664              	.LBE63:
 665              		.cfi_endproc
 666              	.LFE17:
 667              		.size	chDbgCheckClassS, .-chDbgCheckClassS
 668 002c AFF30080 		.section	.text._trace_init,"ax",%progbits
 669              		.align	2
 670              		.p2align 4,,15
 671              		.global	_trace_init
 672              		.thumb
 673              		.thumb_func
 674              		.type	_trace_init, %function
 675              	_trace_init:
 676              	.LFB18:
 677              		.loc 1 222 0
ARM GAS  /tmp/cc1wgTGm.s 			page 13


 678              		.cfi_startproc
 679              		@ args = 0, pretend = 0, frame = 0
 680              		@ frame_needed = 0, uses_anonymous_args = 0
 681              		@ link register save eliminated.
 682              		.loc 1 224 0
 683 0000 40F20003 		movw	r3, #:lower16:.LANCHOR3
 684 0004 C0F20003 		movt	r3, #:upper16:.LANCHOR3
 685 0008 1A46     		mov	r2, r3
 686 000a 4021     		movs	r1, #64
 687 000c 42F8081B 		str	r1, [r2], #8
 688              		.loc 1 225 0
 689 0010 5A60     		str	r2, [r3, #4]
 690 0012 7047     		bx	lr
 691              		.cfi_endproc
 692              	.LFE18:
 693              		.size	_trace_init, .-_trace_init
 694 0014 AFF30080 		.section	.text.dbg_trace,"ax",%progbits
 694      AFF30080 
 694      AFF30080 
 695              		.align	2
 696              		.p2align 4,,15
 697              		.global	dbg_trace
 698              		.thumb
 699              		.thumb_func
 700              		.type	dbg_trace, %function
 701              	dbg_trace:
 702              	.LFB19:
 703              		.loc 1 235 0
 704              		.cfi_startproc
 705              		@ args = 0, pretend = 0, frame = 0
 706              		@ frame_needed = 0, uses_anonymous_args = 0
 707              		@ link register save eliminated.
 708              	.LVL34:
 709              		.loc 1 237 0
 710 0000 0C49     		ldr	r1, .L81
 711 0002 0D4A     		ldr	r2, .L81+4
 712              		.loc 1 235 0
 713 0004 10B4     		push	{r4}
 714              	.LCFI6:
 715              		.cfi_def_cfa_offset 4
 716              		.cfi_offset 4, -4
 717              		.loc 1 237 0
 718 0006 CC68     		ldr	r4, [r1, #12]
 719              		.loc 1 238 0
 720 0008 0C49     		ldr	r1, .L81+8
 721              		.loc 1 237 0
 722 000a 5368     		ldr	r3, [r2, #4]
 723              		.loc 1 238 0
 724 000c 8969     		ldr	r1, [r1, #24]
 725              		.loc 1 237 0
 726 000e 1C60     		str	r4, [r3, #0]
 727              		.loc 1 238 0
 728 0010 5960     		str	r1, [r3, #4]
 729              		.loc 1 239 0
 730 0012 816A     		ldr	r1, [r0, #40]
 731 0014 9960     		str	r1, [r3, #8]
 732              		.loc 1 240 0
ARM GAS  /tmp/cc1wgTGm.s 			page 14


 733 0016 90F82040 		ldrb	r4, [r0, #32]	@ zero_extendqisi2
 734              		.loc 1 241 0
 735 001a 03F11001 		add	r1, r3, #16
 736              		.loc 1 242 0
 737 001e 02F58160 		add	r0, r2, #1032
 738              	.LVL35:
 739              		.loc 1 241 0
 740 0022 8142     		cmp	r1, r0
 741              		.loc 1 240 0
 742 0024 1C73     		strb	r4, [r3, #12]
 743              		.loc 1 243 0
 744 0026 2ABF     		itet	cs
 745 0028 02F10803 		addcs	r3, r2, #8
 746              		.loc 1 241 0
 747 002c 5160     		strcc	r1, [r2, #4]
 748              		.loc 1 243 0
 749 002e 5360     		strcs	r3, [r2, #4]
 750              		.loc 1 244 0
 751 0030 10BC     		pop	{r4}
 752 0032 7047     		bx	lr
 753              	.L82:
 754              		.align	2
 755              	.L81:
 756 0034 00000000 		.word	vtlist
 757 0038 00000000 		.word	.LANCHOR3
 758 003c 00000000 		.word	rlist
 759              		.cfi_endproc
 760              	.LFE19:
 761              		.size	dbg_trace, .-dbg_trace
 762              		.section	.text.chDbgPanic,"ax",%progbits
 763              		.align	2
 764              		.p2align 4,,15
 765              		.global	chDbgPanic
 766              		.thumb
 767              		.thumb_func
 768              		.type	chDbgPanic, %function
 769              	chDbgPanic:
 770              	.LFB20:
 771              		.loc 1 264 0
 772              		.cfi_startproc
 773              		@ args = 0, pretend = 0, frame = 0
 774              		@ frame_needed = 0, uses_anonymous_args = 0
 775              		@ link register save eliminated.
 776              	.LVL36:
 777              		.loc 1 266 0
 778 0000 40F20003 		movw	r3, #:lower16:.LANCHOR2
 779 0004 C0F20003 		movt	r3, #:upper16:.LANCHOR2
 780 0008 1860     		str	r0, [r3, #0]
 781              		.loc 1 268 0
 782              		.loc 1 267 0
 783 000a FFF7FEBF 		b	port_halt
 784              	.LVL37:
 785              		.cfi_endproc
 786              	.LFE20:
 787              		.size	chDbgPanic, .-chDbgPanic
 788              		.global	dbg_panic_msg
 789              		.global	dbg_trace_buffer
ARM GAS  /tmp/cc1wgTGm.s 			page 15


 790              		.global	dbg_lock_cnt
 791              		.global	dbg_isr_cnt
 792 000e 00BF     		.section	.bss.dbg_isr_cnt,"aw",%nobits
 793              		.align	2
 794              		.set	.LANCHOR0,. + 0
 795              		.type	dbg_isr_cnt, %object
 796              		.size	dbg_isr_cnt, 4
 797              	dbg_isr_cnt:
 798 0000 00000000 		.space	4
 799              		.section	.bss.dbg_trace_buffer,"aw",%nobits
 800              		.align	2
 801              		.set	.LANCHOR3,. + 0
 802              		.type	dbg_trace_buffer, %object
 803              		.size	dbg_trace_buffer, 1032
 804              	dbg_trace_buffer:
 805 0000 00000000 		.space	1032
 805      00000000 
 805      00000000 
 805      00000000 
 805      00000000 
 806              		.section	.rodata.str1.4,"aMS",%progbits,1
 807              		.align	2
 808              	.LC0:
 809 0000 53562331 		.ascii	"SV#1\000"
 809      00
 810 0005 000000   		.space	3
 811              	.LC1:
 812 0008 53562332 		.ascii	"SV#2\000"
 812      00
 813 000d 000000   		.space	3
 814              	.LC2:
 815 0010 53562333 		.ascii	"SV#3\000"
 815      00
 816 0015 000000   		.space	3
 817              	.LC3:
 818 0018 53562334 		.ascii	"SV#4\000"
 818      00
 819 001d 000000   		.space	3
 820              	.LC4:
 821 0020 53562335 		.ascii	"SV#5\000"
 821      00
 822 0025 000000   		.space	3
 823              	.LC5:
 824 0028 53562336 		.ascii	"SV#6\000"
 824      00
 825 002d 000000   		.space	3
 826              	.LC6:
 827 0030 53562337 		.ascii	"SV#7\000"
 827      00
 828 0035 000000   		.space	3
 829              	.LC7:
 830 0038 53562338 		.ascii	"SV#8\000"
 830      00
 831 003d 000000   		.space	3
 832              	.LC8:
 833 0040 53562339 		.ascii	"SV#9\000"
 833      00
ARM GAS  /tmp/cc1wgTGm.s 			page 16


 834 0045 000000   		.space	3
 835              	.LC9:
 836 0048 53562331 		.ascii	"SV#10\000"
 836      3000
 837 004e 0000     		.space	2
 838              	.LC10:
 839 0050 53562331 		.ascii	"SV#11\000"
 839      3100
 840 0056 0000     		.section	.bss.dbg_lock_cnt,"aw",%nobits
 841              		.align	2
 842              		.set	.LANCHOR1,. + 0
 843              		.type	dbg_lock_cnt, %object
 844              		.size	dbg_lock_cnt, 4
 845              	dbg_lock_cnt:
 846 0000 00000000 		.space	4
 847              		.section	.bss.dbg_panic_msg,"aw",%nobits
 848              		.align	2
 849              		.set	.LANCHOR2,. + 0
 850              		.type	dbg_panic_msg, %object
 851              		.size	dbg_panic_msg, 4
 852              	dbg_panic_msg:
 853 0000 00000000 		.space	4
 854              		.text
 855              	.Letext0:
 856              		.file 2 "/opt/psas/x-tools/stm32f407/arm-psas-eabi/bin/../lib/gcc/arm-psas-eabi/4.7.2/../../../../
 857              		.file 3 "../../ChibiOS/os/ports/GCC/ARMCMx/chtypes.h"
 858              		.file 4 "../../ChibiOS/os/kernel/include/chlists.h"
 859              		.file 5 "../../ChibiOS/os/kernel/include/chthreads.h"
 860              		.file 6 "../../ChibiOS/os/ports/GCC/ARMCMx/chcore_v7m.h"
 861              		.file 7 "../../ChibiOS/os/kernel/include/chvt.h"
 862              		.file 8 "../../ChibiOS/os/kernel/include/chschd.h"
 863              		.file 9 "../../ChibiOS/os/kernel/include/chmtx.h"
 864              		.file 10 "../../ChibiOS/os/kernel/include/chdebug.h"