ARM GAS  /tmp/cc1wgTGm.s 			page 1


   1              		.syntax unified
   2              		.cpu cortex-m4
   3              		.eabi_attribute 27, 3
   4              		.eabi_attribute 28, 1
   5              		.fpu fpv4-sp-d16
   6              		.eabi_attribute 20, 1
   7              		.eabi_attribute 21, 1
   8              		.eabi_attribute 23, 3
   9              		.eabi_attribute 24, 1
  10              		.eabi_attribute 25, 1
  11              		.eabi_attribute 26, 1
  12              		.eabi_attribute 30, 2
  13              		.eabi_attribute 34, 1
  14              		.eabi_attribute 18, 4
  15              		.thumb
  16              		.file	"chdebug.c"
  17              		.text
  18              	.Ltext0:
  19              		.cfi_sections	.debug_frame
  20              		.section	.text.dbg_check_disable,"ax",%progbits
  21              		.align	2
  22              		.p2align 4,,15
  23              		.global	dbg_check_disable
  24              		.thumb
  25              		.thumb_func
  26              		.type	dbg_check_disable, %function
  27              	dbg_check_disable:
  28              	.LFB7:
  29              		.file 1 "../../ChibiOS/os/kernel/src/chdebug.c"
  30              		.loc 1 74 0
  31              		.cfi_startproc
  32              		@ args = 0, pretend = 0, frame = 0
  33              		@ frame_needed = 0, uses_anonymous_args = 0
  34              		@ link register save eliminated.
  35              		.loc 1 76 0
  36 0000 054B     		ldr	r3, .L5
  37 0002 1B68     		ldr	r3, [r3, #0]
  38 0004 13B9     		cbnz	r3, .L2
  39              		.loc 1 76 0 is_stmt 0 discriminator 1
  40 0006 054B     		ldr	r3, .L5+4
  41 0008 1B68     		ldr	r3, [r3, #0]
  42 000a 23B1     		cbz	r3, .L1
  43              	.L2:
  44              	.LVL0:
  45              	.LBB28:
  46              	.LBB29:
  47              		.loc 1 266 0 is_stmt 1
  48 000c 044A     		ldr	r2, .L5+8
  49 000e 054B     		ldr	r3, .L5+12
  50 0010 1A60     		str	r2, [r3, #0]
  51              	.LBE29:
  52              	.LBE28:
  53              		.loc 1 78 0
  54              	.LBB31:
  55              	.LBB30:
  56              		.loc 1 267 0
  57 0012 FFF7FEBF 		b	port_halt
ARM GAS  /tmp/cc1wgTGm.s 			page 2


  58              	.LVL1:
  59              	.L1:
  60 0016 7047     		bx	lr
  61              	.L6:
  62              		.align	2
  63              	.L5:
  64 0018 00000000 		.word	.LANCHOR0
  65 001c 00000000 		.word	.LANCHOR1
  66 0020 00000000 		.word	.LC0
  67 0024 00000000 		.word	.LANCHOR2
  68              	.LBE30:
  69              	.LBE31:
  70              		.cfi_endproc
  71              	.LFE7:
  72              		.size	dbg_check_disable, .-dbg_check_disable
  73 0028 AFF30080 		.section	.text.dbg_check_suspend,"ax",%progbits
  73      AFF30080 
  74              		.align	2
  75              		.p2align 4,,15
  76              		.global	dbg_check_suspend
  77              		.thumb
  78              		.thumb_func
  79              		.type	dbg_check_suspend, %function
  80              	dbg_check_suspend:
  81              	.LFB8:
  82              		.loc 1 85 0
  83              		.cfi_startproc
  84              		@ args = 0, pretend = 0, frame = 0
  85              		@ frame_needed = 0, uses_anonymous_args = 0
  86              		@ link register save eliminated.
  87              		.loc 1 87 0
  88 0000 054B     		ldr	r3, .L10
  89 0002 1B68     		ldr	r3, [r3, #0]
  90 0004 13B9     		cbnz	r3, .L8
  91              		.loc 1 87 0 is_stmt 0 discriminator 1
  92 0006 054B     		ldr	r3, .L10+4
  93 0008 1B68     		ldr	r3, [r3, #0]
  94 000a 23B1     		cbz	r3, .L7
  95              	.L8:
  96              	.LVL2:
  97              	.LBB32:
  98              	.LBB33:
  99              		.loc 1 266 0 is_stmt 1
 100 000c 044A     		ldr	r2, .L10+8
 101 000e 054B     		ldr	r3, .L10+12
 102 0010 1A60     		str	r2, [r3, #0]
 103              	.LBE33:
 104              	.LBE32:
 105              		.loc 1 89 0
 106              	.LBB35:
 107              	.LBB34:
 108              		.loc 1 267 0
 109 0012 FFF7FEBF 		b	port_halt
 110              	.LVL3:
 111              	.L7:
 112 0016 7047     		bx	lr
 113              	.L11:
ARM GAS  /tmp/cc1wgTGm.s 			page 3


 114              		.align	2
 115              	.L10:
 116 0018 00000000 		.word	.LANCHOR0
 117 001c 00000000 		.word	.LANCHOR1
 118 0020 08000000 		.word	.LC1
 119 0024 00000000 		.word	.LANCHOR2
 120              	.LBE34:
 121              	.LBE35:
 122              		.cfi_endproc
 123              	.LFE8:
 124              		.size	dbg_check_suspend, .-dbg_check_suspend
 125 0028 AFF30080 		.section	.text.dbg_check_enable,"ax",%progbits
 125      AFF30080 
 126              		.align	2
 127              		.p2align 4,,15
 128              		.global	dbg_check_enable
 129              		.thumb
 130              		.thumb_func
 131              		.type	dbg_check_enable, %function
 132              	dbg_check_enable:
 133              	.LFB9:
 134              		.loc 1 96 0
 135              		.cfi_startproc
 136              		@ args = 0, pretend = 0, frame = 0
 137              		@ frame_needed = 0, uses_anonymous_args = 0
 138              		@ link register save eliminated.
 139              		.loc 1 98 0
 140 0000 054B     		ldr	r3, .L15
 141 0002 1B68     		ldr	r3, [r3, #0]
 142 0004 13B9     		cbnz	r3, .L13
 143              		.loc 1 98 0 is_stmt 0 discriminator 1
 144 0006 054B     		ldr	r3, .L15+4
 145 0008 1B68     		ldr	r3, [r3, #0]
 146 000a 23B1     		cbz	r3, .L12
 147              	.L13:
 148              	.LVL4:
 149              	.LBB36:
 150              	.LBB37:
 151              		.loc 1 266 0 is_stmt 1
 152 000c 044A     		ldr	r2, .L15+8
 153 000e 054B     		ldr	r3, .L15+12
 154 0010 1A60     		str	r2, [r3, #0]
 155              	.LBE37:
 156              	.LBE36:
 157              		.loc 1 100 0
 158              	.LBB39:
 159              	.LBB38:
 160              		.loc 1 267 0
 161 0012 FFF7FEBF 		b	port_halt
 162              	.LVL5:
 163              	.L12:
 164 0016 7047     		bx	lr
 165              	.L16:
 166              		.align	2
 167              	.L15:
 168 0018 00000000 		.word	.LANCHOR0
 169 001c 00000000 		.word	.LANCHOR1
ARM GAS  /tmp/cc1wgTGm.s 			page 4


 170 0020 10000000 		.word	.LC2
 171 0024 00000000 		.word	.LANCHOR2
 172              	.LBE38:
 173              	.LBE39:
 174              		.cfi_endproc
 175              	.LFE9:
 176              		.size	dbg_check_enable, .-dbg_check_enable
 177 0028 AFF30080 		.section	.text.dbg_check_lock,"ax",%progbits
 177      AFF30080 
 178              		.align	2
 179              		.p2align 4,,15
 180              		.global	dbg_check_lock
 181              		.thumb
 182              		.thumb_func
 183              		.type	dbg_check_lock, %function
 184              	dbg_check_lock:
 185              	.LFB10:
 186              		.loc 1 107 0
 187              		.cfi_startproc
 188              		@ args = 0, pretend = 0, frame = 0
 189              		@ frame_needed = 0, uses_anonymous_args = 0
 190              		.loc 1 109 0
 191 0000 074B     		ldr	r3, .L25
 192 0002 1B68     		ldr	r3, [r3, #0]
 193              		.loc 1 107 0
 194 0004 10B5     		push	{r4, lr}
 195              	.LCFI0:
 196              		.cfi_def_cfa_offset 8
 197              		.cfi_offset 4, -8
 198              		.cfi_offset 14, -4
 199 0006 074C     		ldr	r4, .L25+4
 200              		.loc 1 109 0
 201 0008 0BB9     		cbnz	r3, .L18
 202              		.loc 1 109 0 is_stmt 0 discriminator 1
 203 000a 2368     		ldr	r3, [r4, #0]
 204 000c 23B1     		cbz	r3, .L19
 205              	.L18:
 206              	.LVL6:
 207              	.LBB40:
 208              	.LBB41:
 209              		.loc 1 266 0 is_stmt 1
 210 000e 064A     		ldr	r2, .L25+8
 211 0010 064B     		ldr	r3, .L25+12
 212 0012 1A60     		str	r2, [r3, #0]
 213              		.loc 1 267 0
 214 0014 FFF7FEFF 		bl	port_halt
 215              	.LVL7:
 216              	.L19:
 217              	.LBE41:
 218              	.LBE40:
 219              		.loc 1 111 0
 220 0018 0123     		movs	r3, #1
 221 001a 2360     		str	r3, [r4, #0]
 222 001c 10BD     		pop	{r4, pc}
 223              	.L26:
 224 001e 00BF     		.align	2
 225              	.L25:
ARM GAS  /tmp/cc1wgTGm.s 			page 5


 226 0020 00000000 		.word	.LANCHOR0
 227 0024 00000000 		.word	.LANCHOR1
 228 0028 18000000 		.word	.LC3
 229 002c 00000000 		.word	.LANCHOR2
 230              		.cfi_endproc
 231              	.LFE10:
 232              		.size	dbg_check_lock, .-dbg_check_lock
 233              		.section	.text.dbg_check_unlock,"ax",%progbits
 234              		.align	2
 235              		.p2align 4,,15
 236              		.global	dbg_check_unlock
 237              		.thumb
 238              		.thumb_func
 239              		.type	dbg_check_unlock, %function
 240              	dbg_check_unlock:
 241              	.LFB11:
 242              		.loc 1 119 0
 243              		.cfi_startproc
 244              		@ args = 0, pretend = 0, frame = 0
 245              		@ frame_needed = 0, uses_anonymous_args = 0
 246              		.loc 1 121 0
 247 0000 084B     		ldr	r3, .L32
 248 0002 1B68     		ldr	r3, [r3, #0]
 249              		.loc 1 119 0
 250 0004 10B5     		push	{r4, lr}
 251              	.LCFI1:
 252              		.cfi_def_cfa_offset 8
 253              		.cfi_offset 4, -8
 254              		.cfi_offset 14, -4
 255 0006 084C     		ldr	r4, .L32+4
 256              		.loc 1 121 0
 257 0008 2BB9     		cbnz	r3, .L28
 258              		.loc 1 121 0 is_stmt 0 discriminator 1
 259 000a 2368     		ldr	r3, [r4, #0]
 260 000c 002B     		cmp	r3, #0
 261 000e 02DD     		ble	.L28
 262              	.L29:
 263              		.loc 1 123 0 is_stmt 1
 264 0010 0023     		movs	r3, #0
 265 0012 2360     		str	r3, [r4, #0]
 266 0014 10BD     		pop	{r4, pc}
 267              	.L28:
 268              	.LVL8:
 269              	.LBB42:
 270              	.LBB43:
 271              		.loc 1 266 0
 272 0016 054A     		ldr	r2, .L32+8
 273 0018 054B     		ldr	r3, .L32+12
 274 001a 1A60     		str	r2, [r3, #0]
 275              		.loc 1 267 0
 276 001c FFF7FEFF 		bl	port_halt
 277              	.LVL9:
 278 0020 F6E7     		b	.L29
 279              	.L33:
 280 0022 00BF     		.align	2
 281              	.L32:
 282 0024 00000000 		.word	.LANCHOR0
ARM GAS  /tmp/cc1wgTGm.s 			page 6


 283 0028 00000000 		.word	.LANCHOR1
 284 002c 20000000 		.word	.LC4
 285 0030 00000000 		.word	.LANCHOR2
 286              	.LBE43:
 287              	.LBE42:
 288              		.cfi_endproc
 289              	.LFE11:
 290              		.size	dbg_check_unlock, .-dbg_check_unlock
 291 0034 AFF30080 		.section	.text.dbg_check_lock_from_isr,"ax",%progbits
 291      AFF30080 
 291      AFF30080 
 292              		.align	2
 293              		.p2align 4,,15
 294              		.global	dbg_check_lock_from_isr
 295              		.thumb
 296              		.thumb_func
 297              		.type	dbg_check_lock_from_isr, %function
 298              	dbg_check_lock_from_isr:
 299              	.LFB12:
 300              		.loc 1 131 0
 301              		.cfi_startproc
 302              		@ args = 0, pretend = 0, frame = 0
 303              		@ frame_needed = 0, uses_anonymous_args = 0
 304              		.loc 1 133 0
 305 0000 074B     		ldr	r3, .L42
 306 0002 1B68     		ldr	r3, [r3, #0]
 307 0004 002B     		cmp	r3, #0
 308              		.loc 1 131 0
 309 0006 10B5     		push	{r4, lr}
 310              	.LCFI2:
 311              		.cfi_def_cfa_offset 8
 312              		.cfi_offset 4, -8
 313              		.cfi_offset 14, -4
 314 0008 064C     		ldr	r4, .L42+4
 315              		.loc 1 133 0
 316 000a 01DD     		ble	.L35
 317              		.loc 1 133 0 is_stmt 0 discriminator 1
 318 000c 2368     		ldr	r3, [r4, #0]
 319 000e 23B1     		cbz	r3, .L36
 320              	.L35:
 321              	.LVL10:
 322              	.LBB44:
 323              	.LBB45:
 324              		.loc 1 266 0 is_stmt 1
 325 0010 054A     		ldr	r2, .L42+8
 326 0012 064B     		ldr	r3, .L42+12
 327 0014 1A60     		str	r2, [r3, #0]
 328              		.loc 1 267 0
 329 0016 FFF7FEFF 		bl	port_halt
 330              	.LVL11:
 331              	.L36:
 332              	.LBE45:
 333              	.LBE44:
 334              		.loc 1 135 0
 335 001a 0123     		movs	r3, #1
 336 001c 2360     		str	r3, [r4, #0]
 337 001e 10BD     		pop	{r4, pc}
ARM GAS  /tmp/cc1wgTGm.s 			page 7


 338              	.L43:
 339              		.align	2
 340              	.L42:
 341 0020 00000000 		.word	.LANCHOR0
 342 0024 00000000 		.word	.LANCHOR1
 343 0028 28000000 		.word	.LC5
 344 002c 00000000 		.word	.LANCHOR2
 345              		.cfi_endproc
 346              	.LFE12:
 347              		.size	dbg_check_lock_from_isr, .-dbg_check_lock_from_isr
 348              		.section	.text.dbg_check_unlock_from_isr,"ax",%progbits
 349              		.align	2
 350              		.p2align 4,,15
 351              		.global	dbg_check_unlock_from_isr
 352              		.thumb
 353              		.thumb_func
 354              		.type	dbg_check_unlock_from_isr, %function
 355              	dbg_check_unlock_from_isr:
 356              	.LFB13:
 357              		.loc 1 143 0
 358              		.cfi_startproc
 359              		@ args = 0, pretend = 0, frame = 0
 360              		@ frame_needed = 0, uses_anonymous_args = 0
 361              		.loc 1 145 0
 362 0000 084B     		ldr	r3, .L49
 363 0002 1B68     		ldr	r3, [r3, #0]
 364 0004 002B     		cmp	r3, #0
 365              		.loc 1 143 0
 366 0006 10B5     		push	{r4, lr}
 367              	.LCFI3:
 368              		.cfi_def_cfa_offset 8
 369              		.cfi_offset 4, -8
 370              		.cfi_offset 14, -4
 371 0008 074C     		ldr	r4, .L49+4
 372              		.loc 1 145 0
 373 000a 05DD     		ble	.L45
 374              		.loc 1 145 0 is_stmt 0 discriminator 1
 375 000c 2368     		ldr	r3, [r4, #0]
 376 000e 002B     		cmp	r3, #0
 377 0010 02DD     		ble	.L45
 378              	.L46:
 379              		.loc 1 147 0 is_stmt 1
 380 0012 0023     		movs	r3, #0
 381 0014 2360     		str	r3, [r4, #0]
 382 0016 10BD     		pop	{r4, pc}
 383              	.L45:
 384              	.LVL12:
 385              	.LBB46:
 386              	.LBB47:
 387              		.loc 1 266 0
 388 0018 044A     		ldr	r2, .L49+8
 389 001a 054B     		ldr	r3, .L49+12
 390 001c 1A60     		str	r2, [r3, #0]
 391              		.loc 1 267 0
 392 001e FFF7FEFF 		bl	port_halt
 393              	.LVL13:
 394 0022 F6E7     		b	.L46
ARM GAS  /tmp/cc1wgTGm.s 			page 8


 395              	.L50:
 396              		.align	2
 397              	.L49:
 398 0024 00000000 		.word	.LANCHOR0
 399 0028 00000000 		.word	.LANCHOR1
 400 002c 30000000 		.word	.LC6
 401 0030 00000000 		.word	.LANCHOR2
 402              	.LBE47:
 403              	.LBE46:
 404              		.cfi_endproc
 405              	.LFE13:
 406              		.size	dbg_check_unlock_from_isr, .-dbg_check_unlock_from_isr
 407 0034 AFF30080 		.section	.text.dbg_check_enter_isr,"ax",%progbits
 407      AFF30080 
 407      AFF30080 
 408              		.align	2
 409              		.p2align 4,,15
 410              		.global	dbg_check_enter_isr
 411              		.thumb
 412              		.thumb_func
 413              		.type	dbg_check_enter_isr, %function
 414              	dbg_check_enter_isr:
 415              	.LFB14:
 416              		.loc 1 155 0
 417              		.cfi_startproc
 418              		@ args = 0, pretend = 0, frame = 0
 419              		@ frame_needed = 0, uses_anonymous_args = 0
 420 0000 10B5     		push	{r4, lr}
 421              	.LCFI4:
 422              		.cfi_def_cfa_offset 8
 423              		.cfi_offset 4, -8
 424              		.cfi_offset 14, -4
 425              	.LBB48:
 426              		.loc 1 157 0
 427 0002 2023     		movs	r3, #32
 428              	.LVL14:
 429              	@ 157 "../../ChibiOS/os/kernel/src/chdebug.c" 1
 430 0004 83F31188 		msr     BASEPRI, r3
 431              	@ 0 "" 2
 432              	.LVL15:
 433              		.thumb
 434              	.LBE48:
 435              		.loc 1 158 0
 436 0008 094C     		ldr	r4, .L57
 437 000a 2368     		ldr	r3, [r4, #0]
 438              	.LVL16:
 439 000c 002B     		cmp	r3, #0
 440 000e 02DB     		blt	.L52
 441              		.loc 1 158 0 is_stmt 0 discriminator 1
 442 0010 084A     		ldr	r2, .L57+4
 443 0012 1268     		ldr	r2, [r2, #0]
 444 0014 2AB1     		cbz	r2, .L53
 445              	.L52:
 446              	.LVL17:
 447              	.LBB49:
 448              	.LBB50:
 449              		.loc 1 266 0 is_stmt 1
ARM GAS  /tmp/cc1wgTGm.s 			page 9


 450 0016 084B     		ldr	r3, .L57+8
 451 0018 084A     		ldr	r2, .L57+12
 452 001a 1A60     		str	r2, [r3, #0]
 453              		.loc 1 267 0
 454 001c FFF7FEFF 		bl	port_halt
 455              	.LVL18:
 456 0020 2368     		ldr	r3, [r4, #0]
 457              	.LVL19:
 458              	.L53:
 459              	.LBE50:
 460              	.LBE49:
 461              		.loc 1 160 0
 462 0022 0133     		adds	r3, r3, #1
 463 0024 2360     		str	r3, [r4, #0]
 464              	.LBB51:
 465              		.loc 1 161 0
 466 0026 0023     		movs	r3, #0
 467              	.LVL20:
 468              	@ 161 "../../ChibiOS/os/kernel/src/chdebug.c" 1
 469 0028 83F31188 		msr     BASEPRI, r3
 470              	@ 0 "" 2
 471              	.LVL21:
 472              		.thumb
 473 002c 10BD     		pop	{r4, pc}
 474              	.L58:
 475 002e 00BF     		.align	2
 476              	.L57:
 477 0030 00000000 		.word	.LANCHOR0
 478 0034 00000000 		.word	.LANCHOR1
 479 0038 00000000 		.word	.LANCHOR2
 480 003c 38000000 		.word	.LC7
 481              	.LBE51:
 482              		.cfi_endproc
 483              	.LFE14:
 484              		.size	dbg_check_enter_isr, .-dbg_check_enter_isr
 485              		.section	.text.dbg_check_leave_isr,"ax",%progbits
 486              		.align	2
 487              		.p2align 4,,15
 488              		.global	dbg_check_leave_isr
 489              		.thumb
 490              		.thumb_func
 491              		.type	dbg_check_leave_isr, %function
 492              	dbg_check_leave_isr:
 493              	.LFB15:
 494              		.loc 1 169 0
 495              		.cfi_startproc
 496              		@ args = 0, pretend = 0, frame = 0
 497              		@ frame_needed = 0, uses_anonymous_args = 0
 498 0000 10B5     		push	{r4, lr}
 499              	.LCFI5:
 500              		.cfi_def_cfa_offset 8
 501              		.cfi_offset 4, -8
 502              		.cfi_offset 14, -4
 503              	.LBB52:
 504              		.loc 1 171 0
 505 0002 2023     		movs	r3, #32
 506              	.LVL22:
ARM GAS  /tmp/cc1wgTGm.s 			page 10


 507              	@ 171 "../../ChibiOS/os/kernel/src/chdebug.c" 1
 508 0004 83F31188 		msr     BASEPRI, r3
 509              	@ 0 "" 2
 510              	.LVL23:
 511              		.thumb
 512              	.LBE52:
 513              		.loc 1 172 0
 514 0008 094C     		ldr	r4, .L65
 515 000a 2368     		ldr	r3, [r4, #0]
 516              	.LVL24:
 517 000c 002B     		cmp	r3, #0
 518 000e 02DD     		ble	.L60
 519              		.loc 1 172 0 is_stmt 0 discriminator 1
 520 0010 084A     		ldr	r2, .L65+4
 521 0012 1268     		ldr	r2, [r2, #0]
 522 0014 2AB1     		cbz	r2, .L61
 523              	.L60:
 524              	.LVL25:
 525              	.LBB53:
 526              	.LBB54:
 527              		.loc 1 266 0 is_stmt 1
 528 0016 084B     		ldr	r3, .L65+8
 529 0018 084A     		ldr	r2, .L65+12
 530 001a 1A60     		str	r2, [r3, #0]
 531              		.loc 1 267 0
 532 001c FFF7FEFF 		bl	port_halt
 533              	.LVL26:
 534 0020 2368     		ldr	r3, [r4, #0]
 535              	.LVL27:
 536              	.L61:
 537              	.LBE54:
 538              	.LBE53:
 539              		.loc 1 174 0
 540 0022 013B     		subs	r3, r3, #1
 541 0024 2360     		str	r3, [r4, #0]
 542              	.LBB55:
 543              		.loc 1 175 0
 544 0026 0023     		movs	r3, #0
 545              	.LVL28:
 546              	@ 175 "../../ChibiOS/os/kernel/src/chdebug.c" 1
 547 0028 83F31188 		msr     BASEPRI, r3
 548              	@ 0 "" 2
 549              	.LVL29:
 550              		.thumb
 551 002c 10BD     		pop	{r4, pc}
 552              	.L66:
 553 002e 00BF     		.align	2
 554              	.L65:
 555 0030 00000000 		.word	.LANCHOR0
 556 0034 00000000 		.word	.LANCHOR1
 557 0038 00000000 		.word	.LANCHOR2
 558 003c 40000000 		.word	.LC8
 559              	.LBE55:
 560              		.cfi_endproc
 561              	.LFE15:
 562              		.size	dbg_check_leave_isr, .-dbg_check_leave_isr
 563              		.section	.text.chDbgCheckClassI,"ax",%progbits
ARM GAS  /tmp/cc1wgTGm.s 			page 11


 564              		.align	2
 565              		.p2align 4,,15
 566              		.global	chDbgCheckClassI
 567              		.thumb
 568              		.thumb_func
 569              		.type	chDbgCheckClassI, %function
 570              	chDbgCheckClassI:
 571              	.LFB16:
 572              		.loc 1 186 0
 573              		.cfi_startproc
 574              		@ args = 0, pretend = 0, frame = 0
 575              		@ frame_needed = 0, uses_anonymous_args = 0
 576              		@ link register save eliminated.
 577              		.loc 1 188 0
 578 0000 064B     		ldr	r3, .L70
 579 0002 1B68     		ldr	r3, [r3, #0]
 580 0004 002B     		cmp	r3, #0
 581 0006 04DB     		blt	.L68
 582              		.loc 1 188 0 is_stmt 0 discriminator 1
 583 0008 054B     		ldr	r3, .L70+4
 584 000a 1B68     		ldr	r3, [r3, #0]
 585 000c 002B     		cmp	r3, #0
 586 000e 00DD     		ble	.L68
 587 0010 7047     		bx	lr
 588              	.L68:
 589              	.LVL30:
 590              	.LBB56:
 591              	.LBB57:
 592              		.loc 1 266 0 is_stmt 1
 593 0012 044A     		ldr	r2, .L70+8
 594 0014 044B     		ldr	r3, .L70+12
 595 0016 1A60     		str	r2, [r3, #0]
 596              	.LBE57:
 597              	.LBE56:
 598              		.loc 1 190 0
 599              	.LBB59:
 600              	.LBB58:
 601              		.loc 1 267 0
 602 0018 FFF7FEBF 		b	port_halt
 603              	.LVL31:
 604              	.L71:
 605              		.align	2
 606              	.L70:
 607 001c 00000000 		.word	.LANCHOR0
 608 0020 00000000 		.word	.LANCHOR1
 609 0024 48000000 		.word	.LC9
 610 0028 00000000 		.word	.LANCHOR2
 611              	.LBE58:
 612              	.LBE59:
 613              		.cfi_endproc
 614              	.LFE16:
 615              		.size	chDbgCheckClassI, .-chDbgCheckClassI
 616 002c AFF30080 		.section	.text.chDbgCheckClassS,"ax",%progbits
 617              		.align	2
 618              		.p2align 4,,15
 619              		.global	chDbgCheckClassS
 620              		.thumb
ARM GAS  /tmp/cc1wgTGm.s 			page 12


 621              		.thumb_func
 622              		.type	chDbgCheckClassS, %function
 623              	chDbgCheckClassS:
 624              	.LFB17:
 625              		.loc 1 200 0
 626              		.cfi_startproc
 627              		@ args = 0, pretend = 0, frame = 0
 628              		@ frame_needed = 0, uses_anonymous_args = 0
 629              		@ link register save eliminated.
 630              		.loc 1 202 0
 631 0000 064B     		ldr	r3, .L75
 632 0002 1B68     		ldr	r3, [r3, #0]
 633 0004 23B9     		cbnz	r3, .L73
 634              		.loc 1 202 0 is_stmt 0 discriminator 1
 635 0006 064B     		ldr	r3, .L75+4
 636 0008 1B68     		ldr	r3, [r3, #0]
 637 000a 002B     		cmp	r3, #0
 638 000c 00DD     		ble	.L73
 639 000e 7047     		bx	lr
 640              	.L73:
 641              	.LVL32:
 642              	.LBB60:
 643              	.LBB61:
 644              		.loc 1 266 0 is_stmt 1
 645 0010 044A     		ldr	r2, .L75+8
 646 0012 054B     		ldr	r3, .L75+12
 647 0014 1A60     		str	r2, [r3, #0]
 648              	.LBE61:
 649              	.LBE60:
 650              		.loc 1 204 0
 651              	.LBB63:
 652              	.LBB62:
 653              		.loc 1 267 0
 654 0016 FFF7FEBF 		b	port_halt
 655              	.LVL33:
 656              	.L76:
 657 001a 00BF     		.align	2
 658              	.L75:
 659 001c 00000000 		.word	.LANCHOR0
 660 0020 00000000 		.word	.LANCHOR1
 661 0024 50000000 		.word	.LC10
 662 0028 00000000 		.word	.LANCHOR2
 663              	.LBE62:
 664              	.LBE63:
 665              		.cfi_endproc
 666              	.LFE17:
 667              		.size	chDbgCheckClassS, .-chDbgCheckClassS
 668 002c AFF30080 		.section	.text._trace_init,"ax",%progbits
 669              		.align	2
 670              		.p2align 4,,15
 671              		.global	_trace_init
 672              		.thumb
 673              		.thumb_func
 674              		.type	_trace_init, %function
 675              	_trace_init:
 676              	.LFB18:
 677              		.loc 1 222 0
ARM GAS  /tmp/cc1wgTGm.s 			page 13


 678              		.cfi_startproc
 679              		@ args = 0, pretend = 0, frame = 0
 680              		@ frame_needed = 0, uses_anonymous_args = 0
 681              		@ link register save eliminated.
 682              		.loc 1 224 0
 683 0000 40F20003 		movw	r3, #:lower16:.LANCHOR3
 684 0004 C0F20003 		movt	r3, #:upper16:.LANCHOR3
 685 0008 1A46     		mov	r2, r3
 686 000a 4021     		movs	r1, #64
 687 000c 42F8081B 		str	r1, [r2], #8
 688              		.loc 1 225 0
 689 0010 5A60     		str	r2, [r3, #4]
 690 0012 7047     		bx	lr
 691              		.cfi_endproc
 692              	.LFE18:
 693              		.size	_trace_init, .-_trace_init
 694 0014 AFF30080 		.section	.text.dbg_trace,"ax",%progbits
 694      AFF30080 
 694      AFF30080 
 695              		.align	2
 696              		.p2align 4,,15
 697              		.global	dbg_trace
 698              		.thumb
 699              		.thumb_func
 700              		.type	dbg_trace, %function
 701              	dbg_trace:
 702              	.LFB19:
 703              		.loc 1 235 0
 704              		.cfi_startproc
 705              		@ args = 0, pretend = 0, frame = 0
 706              		@ frame_needed = 0, uses_anonymous_args = 0
 707              		@ link register save eliminated.
 708              	.LVL34:
 709              		.loc 1 237 0
 710 0000 0C49     		ldr	r1, .L81
 711 0002 0D4A     		ldr	r2, .L81+4
 712              		.loc 1 235 0
 713 0004 10B4     		push	{r4}
 714              	.LCFI6:
 715              		.cfi_def_cfa_offset 4
 716              		.cfi_offset 4, -4
 717              		.loc 1 237 0
 718 0006 CC68     		ldr	r4, [r1, #12]
 719              		.loc 1 238 0
 720 0008 0C49     		ldr	r1, .L81+8
 721              		.loc 1 237 0
 722 000a 5368     		ldr	r3, [r2, #4]
 723              		.loc 1 238 0
 724 000c 8969     		ldr	r1, [r1, #24]
 725              		.loc 1 237 0
 726 000e 1C60     		str	r4, [r3, #0]
 727              		.loc 1 238 0
 728 0010 5960     		str	r1, [r3, #4]
 729              		.loc 1 239 0
 730 0012 816A     		ldr	r1, [r0, #40]
 731 0014 9960     		str	r1, [r3, #8]
 732              		.loc 1 240 0
ARM GAS  /tmp/cc1wgTGm.s 			page 14


 733 0016 90F82040 		ldrb	r4, [r0, #32]	@ zero_extendqisi2
 734              		.loc 1 241 0
 735 001a 03F11001 		add	r1, r3, #16
 736              		.loc 1 242 0
 737 001e 02F58160 		add	r0, r2, #1032
 738              	.LVL35:
 739              		.loc 1 241 0
 740 0022 8142     		cmp	r1, r0
 741              		.loc 1 240 0
 742 0024 1C73     		strb	r4, [r3, #12]
 743              		.loc 1 243 0
 744 0026 2ABF     		itet	cs
 745 0028 02F10803 		addcs	r3, r2, #8
 746              		.loc 1 241 0
 747 002c 5160     		strcc	r1, [r2, #4]
 748              		.loc 1 243 0
 749 002e 5360     		strcs	r3, [r2, #4]
 750              		.loc 1 244 0
 751 0030 10BC     		pop	{r4}
 752 0032 7047     		bx	lr
 753              	.L82:
 754              		.align	2
 755              	.L81:
 756 0034 00000000 		.word	vtlist
 757 0038 00000000 		.word	.LANCHOR3
 758 003c 00000000 		.word	rlist
 759              		.cfi_endproc
 760              	.LFE19:
 761              		.size	dbg_trace, .-dbg_trace
 762              		.section	.text.chDbgPanic,"ax",%progbits
 763              		.align	2
 764              		.p2align 4,,15
 765              		.global	chDbgPanic
 766              		.thumb
 767              		.thumb_func
 768              		.type	chDbgPanic, %function
 769              	chDbgPanic:
 770              	.LFB20:
 771              		.loc 1 264 0
 772              		.cfi_startproc
 773              		@ args = 0, pretend = 0, frame = 0
 774              		@ frame_needed = 0, uses_anonymous_args = 0
 775              		@ link register save eliminated.
 776              	.LVL36:
 777              		.loc 1 266 0
 778 0000 40F20003 		movw	r3, #:lower16:.LANCHOR2
 779 0004 C0F20003 		movt	r3, #:upper16:.LANCHOR2
 780 0008 1860     		str	r0, [r3, #0]
 781              		.loc 1 268 0
 782              		.loc 1 267 0
 783 000a FFF7FEBF 		b	port_halt
 784              	.LVL37:
 785              		.cfi_endproc
 786              	.LFE20:
 787              		.size	chDbgPanic, .-chDbgPanic
 788              		.global	dbg_panic_msg
 789              		.global	dbg_trace_buffer
ARM GAS  /tmp/cc1wgTGm.s 			page 15


 790              		.global	dbg_lock_cnt
 791              		.global	dbg_isr_cnt
 792 000e 00BF     		.section	.bss.dbg_isr_cnt,"aw",%nobits
 793              		.align	2
 794              		.set	.LANCHOR0,. + 0
 795              		.type	dbg_isr_cnt, %object
 796              		.size	dbg_isr_cnt, 4
 797              	dbg_isr_cnt:
 798 0000 00000000 		.space	4
 799              		.section	.bss.dbg_trace_buffer,"aw",%nobits
 800              		.align	2
 801              		.set	.LANCHOR3,. + 0
 802              		.type	dbg_trace_buffer, %object
 803              		.size	dbg_trace_buffer, 1032
 804              	dbg_trace_buffer:
 805 0000 00000000 		.space	1032
 805      00000000 
 805      00000000 
 805      00000000 
 805      00000000 
 806              		.section	.rodata.str1.4,"aMS",%progbits,1
 807              		.align	2
 808              	.LC0:
 809 0000 53562331 		.ascii	"SV#1\000"
 809      00
 810 0005 000000   		.space	3
 811              	.LC1:
 812 0008 53562332 		.ascii	"SV#2\000"
 812      00
 813 000d 000000   		.space	3
 814              	.LC2:
 815 0010 53562333 		.ascii	"SV#3\000"
 815      00
 816 0015 000000   		.space	3
 817              	.LC3:
 818 0018 53562334 		.ascii	"SV#4\000"
 818      00
 819 001d 000000   		.space	3
 820              	.LC4:
 821 0020 53562335 		.ascii	"SV#5\000"
 821      00
 822 0025 000000   		.space	3
 823              	.LC5:
 824 0028 53562336 		.ascii	"SV#6\000"
 824      00
 825 002d 000000   		.space	3
 826              	.LC6:
 827 0030 53562337 		.ascii	"SV#7\000"
 827      00
 828 0035 000000   		.space	3
 829              	.LC7:
 830 0038 53562338 		.ascii	"SV#8\000"
 830      00
 831 003d 000000   		.space	3
 832              	.LC8:
 833 0040 53562339 		.ascii	"SV#9\000"
 833      00
ARM GAS  /tmp/cc1wgTGm.s 			page 16


 834 0045 000000   		.space	3
 835              	.LC9:
 836 0048 53562331 		.ascii	"SV#10\000"
 836      3000
 837 004e 0000     		.space	2
 838              	.LC10:
 839 0050 53562331 		.ascii	"SV#11\000"
 839      3100
 840 0056 0000     		.section	.bss.dbg_lock_cnt,"aw",%nobits
 841              		.align	2
 842              		.set	.LANCHOR1,. + 0
 843              		.type	dbg_lock_cnt, %object
 844              		.size	dbg_lock_cnt, 4
 845              	dbg_lock_cnt:
 846 0000 00000000 		.space	4
 847              		.section	.bss.dbg_panic_msg,"aw",%nobits
 848              		.align	2
 849              		.set	.LANCHOR2,. + 0
 850              		.type	dbg_panic_msg, %object
 851              		.size	dbg_panic_msg, 4
 852              	dbg_panic_msg:
 853 0000 00000000 		.space	4
 854              		.text
 855              	.Letext0:
 856              		.file 2 "/opt/psas/x-tools/stm32f407/arm-psas-eabi/bin/../lib/gcc/arm-psas-eabi/4.7.2/../../../../
 857              		.file 3 "../../ChibiOS/os/ports/GCC/ARMCMx/chtypes.h"
 858              		.file 4 "../../ChibiOS/os/kernel/include/chlists.h"
 859              		.file 5 "../../ChibiOS/os/kernel/include/chthreads.h"
 860              		.file 6 "../../ChibiOS/os/ports/GCC/ARMCMx/chcore_v7m.h"
 861              		.file 7 "../../ChibiOS/os/kernel/include/chvt.h"
 862              		.file 8 "../../ChibiOS/os/kernel/include/chschd.h"
 863              		.file 9 "../../ChibiOS/os/kernel/include/chmtx.h"
 864              		.file 10 "../../ChibiOS/os/kernel/include/chdebug.h"
 865              		.section	.debug_info,"",%progbits
 866              	.Ldebug_info0:
 867 0000 EF090000 		.4byte	0x9ef
 868 0004 0200     		.2byte	0x2
 869 0006 00000000 		.4byte	.Ldebug_abbrev0
 870 000a 04       		.byte	0x4
 871 000b 01       		.uleb128 0x1
 872 000c 6F020000 		.4byte	.LASF103
 873 0010 01       		.byte	0x1
 874 0011 1C040000 		.4byte	.LASF104
 875 0015 00000000 		.4byte	.LASF105
 876 0019 78000000 		.4byte	.Ldebug_ranges0+0x78
 877 001d 00000000 		.4byte	0
 878 0021 00000000 		.4byte	0
 879 0025 00000000 		.4byte	.Ldebug_line0
 880 0029 02       		.uleb128 0x2
 881 002a 04       		.byte	0x4
 882 002b 05       		.byte	0x5
 883 002c 696E7400 		.ascii	"int\000"
 884 0030 03       		.uleb128 0x3
 885 0031 04       		.byte	0x4
 886 0032 07       		.byte	0x7
 887 0033 3D010000 		.4byte	.LASF0
 888 0037 03       		.uleb128 0x3
ARM GAS  /tmp/cc1wgTGm.s 			page 17


 889 0038 01       		.byte	0x1
 890 0039 06       		.byte	0x6
 891 003a A3000000 		.4byte	.LASF1
 892 003e 04       		.uleb128 0x4
 893 003f 14040000 		.4byte	.LASF5
 894 0043 02       		.byte	0x2
 895 0044 2A       		.byte	0x2a
 896 0045 49000000 		.4byte	0x49
 897 0049 03       		.uleb128 0x3
 898 004a 01       		.byte	0x1
 899 004b 08       		.byte	0x8
 900 004c DE020000 		.4byte	.LASF2
 901 0050 03       		.uleb128 0x3
 902 0051 02       		.byte	0x2
 903 0052 05       		.byte	0x5
 904 0053 04030000 		.4byte	.LASF3
 905 0057 03       		.uleb128 0x3
 906 0058 02       		.byte	0x2
 907 0059 07       		.byte	0x7
 908 005a 88010000 		.4byte	.LASF4
 909 005e 04       		.uleb128 0x4
 910 005f D6020000 		.4byte	.LASF6
 911 0063 02       		.byte	0x2
 912 0064 4F       		.byte	0x4f
 913 0065 69000000 		.4byte	0x69
 914 0069 03       		.uleb128 0x3
 915 006a 04       		.byte	0x4
 916 006b 05       		.byte	0x5
 917 006c E3000000 		.4byte	.LASF7
 918 0070 04       		.uleb128 0x4
 919 0071 4F030000 		.4byte	.LASF8
 920 0075 02       		.byte	0x2
 921 0076 50       		.byte	0x50
 922 0077 7B000000 		.4byte	0x7b
 923 007b 03       		.uleb128 0x3
 924 007c 04       		.byte	0x4
 925 007d 07       		.byte	0x7
 926 007e 5C010000 		.4byte	.LASF9
 927 0082 03       		.uleb128 0x3
 928 0083 08       		.byte	0x8
 929 0084 05       		.byte	0x5
 930 0085 95000000 		.4byte	.LASF10
 931 0089 04       		.uleb128 0x4
 932 008a 43000000 		.4byte	.LASF11
 933 008e 02       		.byte	0x2
 934 008f 78       		.byte	0x78
 935 0090 94000000 		.4byte	0x94
 936 0094 03       		.uleb128 0x3
 937 0095 08       		.byte	0x8
 938 0096 07       		.byte	0x7
 939 0097 53000000 		.4byte	.LASF12
 940 009b 03       		.uleb128 0x3
 941 009c 01       		.byte	0x1
 942 009d 02       		.byte	0x2
 943 009e D0020000 		.4byte	.LASF13
 944 00a2 04       		.uleb128 0x4
 945 00a3 BE010000 		.4byte	.LASF14
ARM GAS  /tmp/cc1wgTGm.s 			page 18


 946 00a7 03       		.byte	0x3
 947 00a8 25       		.byte	0x25
 948 00a9 3E000000 		.4byte	0x3e
 949 00ad 04       		.uleb128 0x4
 950 00ae EC000000 		.4byte	.LASF15
 951 00b2 03       		.byte	0x3
 952 00b3 26       		.byte	0x26
 953 00b4 3E000000 		.4byte	0x3e
 954 00b8 04       		.uleb128 0x4
 955 00b9 AF020000 		.4byte	.LASF16
 956 00bd 03       		.byte	0x3
 957 00be 27       		.byte	0x27
 958 00bf 3E000000 		.4byte	0x3e
 959 00c3 04       		.uleb128 0x4
 960 00c4 D9000000 		.4byte	.LASF17
 961 00c8 03       		.byte	0x3
 962 00c9 28       		.byte	0x28
 963 00ca 3E000000 		.4byte	0x3e
 964 00ce 04       		.uleb128 0x4
 965 00cf C8020000 		.4byte	.LASF18
 966 00d3 03       		.byte	0x3
 967 00d4 29       		.byte	0x29
 968 00d5 70000000 		.4byte	0x70
 969 00d9 04       		.uleb128 0x4
 970 00da A7010000 		.4byte	.LASF19
 971 00de 03       		.byte	0x3
 972 00df 2A       		.byte	0x2a
 973 00e0 5E000000 		.4byte	0x5e
 974 00e4 04       		.uleb128 0x4
 975 00e5 EF010000 		.4byte	.LASF20
 976 00e9 03       		.byte	0x3
 977 00ea 2C       		.byte	0x2c
 978 00eb 70000000 		.4byte	0x70
 979 00ef 04       		.uleb128 0x4
 980 00f0 79030000 		.4byte	.LASF21
 981 00f4 03       		.byte	0x3
 982 00f5 2E       		.byte	0x2e
 983 00f6 70000000 		.4byte	0x70
 984 00fa 04       		.uleb128 0x4
 985 00fb 2C010000 		.4byte	.LASF22
 986 00ff 03       		.byte	0x3
 987 0100 2F       		.byte	0x2f
 988 0101 5E000000 		.4byte	0x5e
 989 0105 04       		.uleb128 0x4
 990 0106 3D030000 		.4byte	.LASF23
 991 010a 04       		.byte	0x4
 992 010b 23       		.byte	0x23
 993 010c 10010000 		.4byte	0x110
 994 0110 05       		.uleb128 0x5
 995 0111 3D030000 		.4byte	.LASF23
 996 0115 4C       		.byte	0x4c
 997 0116 05       		.byte	0x5
 998 0117 57       		.byte	0x57
 999 0118 43020000 		.4byte	0x243
 1000 011c 06       		.uleb128 0x6
 1001 011d 2E030000 		.4byte	.LASF24
 1002 0121 05       		.byte	0x5
ARM GAS  /tmp/cc1wgTGm.s 			page 19


 1003 0122 58       		.byte	0x58
 1004 0123 68020000 		.4byte	0x268
 1005 0127 02       		.byte	0x2
 1006 0128 23       		.byte	0x23
 1007 0129 00       		.uleb128 0
 1008 012a 06       		.uleb128 0x6
 1009 012b C1020000 		.4byte	.LASF25
 1010 012f 05       		.byte	0x5
 1011 0130 5A       		.byte	0x5a
 1012 0131 68020000 		.4byte	0x268
 1013 0135 02       		.byte	0x2
 1014 0136 23       		.byte	0x23
 1015 0137 04       		.uleb128 0x4
 1016 0138 06       		.uleb128 0x6
 1017 0139 8E000000 		.4byte	.LASF26
 1018 013d 05       		.byte	0x5
 1019 013e 5C       		.byte	0x5c
 1020 013f CE000000 		.4byte	0xce
 1021 0143 02       		.byte	0x2
 1022 0144 23       		.byte	0x23
 1023 0145 08       		.uleb128 0x8
 1024 0146 06       		.uleb128 0x6
 1025 0147 9E040000 		.4byte	.LASF27
 1026 014b 05       		.byte	0x5
 1027 014c 5D       		.byte	0x5d
 1028 014d 41030000 		.4byte	0x341
 1029 0151 02       		.byte	0x2
 1030 0152 23       		.byte	0x23
 1031 0153 0C       		.uleb128 0xc
 1032 0154 06       		.uleb128 0x6
 1033 0155 FB000000 		.4byte	.LASF28
 1034 0159 05       		.byte	0x5
 1035 015a 5F       		.byte	0x5f
 1036 015b 68020000 		.4byte	0x268
 1037 015f 02       		.byte	0x2
 1038 0160 23       		.byte	0x23
 1039 0161 10       		.uleb128 0x10
 1040 0162 06       		.uleb128 0x6
 1041 0163 54020000 		.4byte	.LASF29
 1042 0167 05       		.byte	0x5
 1043 0168 60       		.byte	0x60
 1044 0169 68020000 		.4byte	0x268
 1045 016d 02       		.byte	0x2
 1046 016e 23       		.byte	0x23
 1047 016f 14       		.uleb128 0x14
 1048 0170 06       		.uleb128 0x6
 1049 0171 61040000 		.4byte	.LASF30
 1050 0175 05       		.byte	0x5
 1051 0176 67       		.byte	0x67
 1052 0177 22050000 		.4byte	0x522
 1053 017b 02       		.byte	0x2
 1054 017c 23       		.byte	0x23
 1055 017d 18       		.uleb128 0x18
 1056 017e 06       		.uleb128 0x6
 1057 017f 32010000 		.4byte	.LASF31
 1058 0183 05       		.byte	0x5
 1059 0184 6D       		.byte	0x6d
ARM GAS  /tmp/cc1wgTGm.s 			page 20


 1060 0185 34050000 		.4byte	0x534
 1061 0189 02       		.byte	0x2
 1062 018a 23       		.byte	0x23
 1063 018b 1C       		.uleb128 0x1c
 1064 018c 06       		.uleb128 0x6
 1065 018d 0E030000 		.4byte	.LASF32
 1066 0191 05       		.byte	0x5
 1067 0192 72       		.byte	0x72
 1068 0193 AD000000 		.4byte	0xad
 1069 0197 02       		.byte	0x2
 1070 0198 23       		.byte	0x23
 1071 0199 20       		.uleb128 0x20
 1072 019a 06       		.uleb128 0x6
 1073 019b 35030000 		.4byte	.LASF33
 1074 019f 05       		.byte	0x5
 1075 01a0 76       		.byte	0x76
 1076 01a1 A2000000 		.4byte	0xa2
 1077 01a5 02       		.byte	0x2
 1078 01a6 23       		.byte	0x23
 1079 01a7 21       		.uleb128 0x21
 1080 01a8 06       		.uleb128 0x6
 1081 01a9 E9030000 		.4byte	.LASF34
 1082 01ad 05       		.byte	0x5
 1083 01ae 7B       		.byte	0x7b
 1084 01af B8000000 		.4byte	0xb8
 1085 01b3 02       		.byte	0x2
 1086 01b4 23       		.byte	0x23
 1087 01b5 22       		.uleb128 0x22
 1088 01b6 06       		.uleb128 0x6
 1089 01b7 16030000 		.4byte	.LASF35
 1090 01bb 05       		.byte	0x5
 1091 01bc 81       		.byte	0x81
 1092 01bd C3000000 		.4byte	0xc3
 1093 01c1 02       		.byte	0x2
 1094 01c2 23       		.byte	0x23
 1095 01c3 23       		.uleb128 0x23
 1096 01c4 06       		.uleb128 0x6
 1097 01c5 A4030000 		.4byte	.LASF36
 1098 01c9 05       		.byte	0x5
 1099 01ca 88       		.byte	0x88
 1100 01cb 2D040000 		.4byte	0x42d
 1101 01cf 02       		.byte	0x2
 1102 01d0 23       		.byte	0x23
 1103 01d1 24       		.uleb128 0x24
 1104 01d2 07       		.uleb128 0x7
 1105 01d3 705F7500 		.ascii	"p_u\000"
 1106 01d7 05       		.byte	0x5
 1107 01d8 AD       		.byte	0xad
 1108 01d9 ED040000 		.4byte	0x4ed
 1109 01dd 02       		.byte	0x2
 1110 01de 23       		.byte	0x23
 1111 01df 28       		.uleb128 0x28
 1112 01e0 06       		.uleb128 0x6
 1113 01e1 A4040000 		.4byte	.LASF37
 1114 01e5 05       		.byte	0x5
 1115 01e6 B2       		.byte	0xb2
 1116 01e7 90020000 		.4byte	0x290
ARM GAS  /tmp/cc1wgTGm.s 			page 21


 1117 01eb 02       		.byte	0x2
 1118 01ec 23       		.byte	0x23
 1119 01ed 2C       		.uleb128 0x2c
 1120 01ee 06       		.uleb128 0x6
 1121 01ef C6030000 		.4byte	.LASF38
 1122 01f3 05       		.byte	0x5
 1123 01f4 B8       		.byte	0xb8
 1124 01f5 6E020000 		.4byte	0x26e
 1125 01f9 02       		.byte	0x2
 1126 01fa 23       		.byte	0x23
 1127 01fb 30       		.uleb128 0x30
 1128 01fc 06       		.uleb128 0x6
 1129 01fd 2B000000 		.4byte	.LASF39
 1130 0201 05       		.byte	0x5
 1131 0202 BC       		.byte	0xbc
 1132 0203 D9000000 		.4byte	0xd9
 1133 0207 02       		.byte	0x2
 1134 0208 23       		.byte	0x23
 1135 0209 38       		.uleb128 0x38
 1136 020a 06       		.uleb128 0x6
 1137 020b 44030000 		.4byte	.LASF40
 1138 020f 05       		.byte	0x5
 1139 0210 C2       		.byte	0xc2
 1140 0211 E4000000 		.4byte	0xe4
 1141 0215 02       		.byte	0x2
 1142 0216 23       		.byte	0x23
 1143 0217 3C       		.uleb128 0x3c
 1144 0218 06       		.uleb128 0x6
 1145 0219 FA020000 		.4byte	.LASF41
 1146 021d 05       		.byte	0x5
 1147 021e C9       		.byte	0xc9
 1148 021f 3A050000 		.4byte	0x53a
 1149 0223 02       		.byte	0x2
 1150 0224 23       		.byte	0x23
 1151 0225 40       		.uleb128 0x40
 1152 0226 06       		.uleb128 0x6
 1153 0227 83030000 		.4byte	.LASF42
 1154 022b 05       		.byte	0x5
 1155 022c CD       		.byte	0xcd
 1156 022d CE000000 		.4byte	0xce
 1157 0231 02       		.byte	0x2
 1158 0232 23       		.byte	0x23
 1159 0233 44       		.uleb128 0x44
 1160 0234 06       		.uleb128 0x6
 1161 0235 C9000000 		.4byte	.LASF43
 1162 0239 05       		.byte	0x5
 1163 023a D3       		.byte	0xd3
 1164 023b A6020000 		.4byte	0x2a6
 1165 023f 02       		.byte	0x2
 1166 0240 23       		.byte	0x23
 1167 0241 48       		.uleb128 0x48
 1168 0242 00       		.byte	0
 1169 0243 08       		.uleb128 0x8
 1170 0244 08       		.byte	0x8
 1171 0245 04       		.byte	0x4
 1172 0246 5A       		.byte	0x5a
 1173 0247 68020000 		.4byte	0x268
ARM GAS  /tmp/cc1wgTGm.s 			page 22


 1174 024b 06       		.uleb128 0x6
 1175 024c 2E030000 		.4byte	.LASF24
 1176 0250 04       		.byte	0x4
 1177 0251 5B       		.byte	0x5b
 1178 0252 68020000 		.4byte	0x268
 1179 0256 02       		.byte	0x2
 1180 0257 23       		.byte	0x23
 1181 0258 00       		.uleb128 0
 1182 0259 06       		.uleb128 0x6
 1183 025a C1020000 		.4byte	.LASF25
 1184 025e 04       		.byte	0x4
 1185 025f 5D       		.byte	0x5d
 1186 0260 68020000 		.4byte	0x268
 1187 0264 02       		.byte	0x2
 1188 0265 23       		.byte	0x23
 1189 0266 04       		.uleb128 0x4
 1190 0267 00       		.byte	0
 1191 0268 09       		.uleb128 0x9
 1192 0269 04       		.byte	0x4
 1193 026a 05010000 		.4byte	0x105
 1194 026e 04       		.uleb128 0x4
 1195 026f 62020000 		.4byte	.LASF44
 1196 0273 04       		.byte	0x4
 1197 0274 5F       		.byte	0x5f
 1198 0275 43020000 		.4byte	0x243
 1199 0279 08       		.uleb128 0x8
 1200 027a 04       		.byte	0x4
 1201 027b 04       		.byte	0x4
 1202 027c 64       		.byte	0x64
 1203 027d 90020000 		.4byte	0x290
 1204 0281 06       		.uleb128 0x6
 1205 0282 2E030000 		.4byte	.LASF24
 1206 0286 04       		.byte	0x4
 1207 0287 66       		.byte	0x66
 1208 0288 68020000 		.4byte	0x268
 1209 028c 02       		.byte	0x2
 1210 028d 23       		.byte	0x23
 1211 028e 00       		.uleb128 0
 1212 028f 00       		.byte	0
 1213 0290 04       		.uleb128 0x4
 1214 0291 E3010000 		.4byte	.LASF45
 1215 0295 04       		.byte	0x4
 1216 0296 69       		.byte	0x69
 1217 0297 79020000 		.4byte	0x279
 1218 029b 04       		.uleb128 0x4
 1219 029c 13010000 		.4byte	.LASF46
 1220 02a0 06       		.byte	0x6
 1221 02a1 DE       		.byte	0xde
 1222 02a2 A6020000 		.4byte	0x2a6
 1223 02a6 0A       		.uleb128 0xa
 1224 02a7 04       		.byte	0x4
 1225 02a8 04       		.uleb128 0x4
 1226 02a9 01020000 		.4byte	.LASF47
 1227 02ad 06       		.byte	0x6
 1228 02ae E4       		.byte	0xe4
 1229 02af 89000000 		.4byte	0x89
 1230 02b3 0B       		.uleb128 0xb
ARM GAS  /tmp/cc1wgTGm.s 			page 23


 1231 02b4 BF030000 		.4byte	.LASF48
 1232 02b8 24       		.byte	0x24
 1233 02b9 06       		.byte	0x6
 1234 02ba 0501     		.2byte	0x105
 1235 02bc 41030000 		.4byte	0x341
 1236 02c0 0C       		.uleb128 0xc
 1237 02c1 723400   		.ascii	"r4\000"
 1238 02c4 06       		.byte	0x6
 1239 02c5 1801     		.2byte	0x118
 1240 02c7 9B020000 		.4byte	0x29b
 1241 02cb 02       		.byte	0x2
 1242 02cc 23       		.byte	0x23
 1243 02cd 00       		.uleb128 0
 1244 02ce 0C       		.uleb128 0xc
 1245 02cf 723500   		.ascii	"r5\000"
 1246 02d2 06       		.byte	0x6
 1247 02d3 1901     		.2byte	0x119
 1248 02d5 9B020000 		.4byte	0x29b
 1249 02d9 02       		.byte	0x2
 1250 02da 23       		.byte	0x23
 1251 02db 04       		.uleb128 0x4
 1252 02dc 0C       		.uleb128 0xc
 1253 02dd 723600   		.ascii	"r6\000"
 1254 02e0 06       		.byte	0x6
 1255 02e1 1A01     		.2byte	0x11a
 1256 02e3 9B020000 		.4byte	0x29b
 1257 02e7 02       		.byte	0x2
 1258 02e8 23       		.byte	0x23
 1259 02e9 08       		.uleb128 0x8
 1260 02ea 0C       		.uleb128 0xc
 1261 02eb 723700   		.ascii	"r7\000"
 1262 02ee 06       		.byte	0x6
 1263 02ef 1B01     		.2byte	0x11b
 1264 02f1 9B020000 		.4byte	0x29b
 1265 02f5 02       		.byte	0x2
 1266 02f6 23       		.byte	0x23
 1267 02f7 0C       		.uleb128 0xc
 1268 02f8 0C       		.uleb128 0xc
 1269 02f9 723800   		.ascii	"r8\000"
 1270 02fc 06       		.byte	0x6
 1271 02fd 1C01     		.2byte	0x11c
 1272 02ff 9B020000 		.4byte	0x29b
 1273 0303 02       		.byte	0x2
 1274 0304 23       		.byte	0x23
 1275 0305 10       		.uleb128 0x10
 1276 0306 0C       		.uleb128 0xc
 1277 0307 723900   		.ascii	"r9\000"
 1278 030a 06       		.byte	0x6
 1279 030b 1D01     		.2byte	0x11d
 1280 030d 9B020000 		.4byte	0x29b
 1281 0311 02       		.byte	0x2
 1282 0312 23       		.byte	0x23
 1283 0313 14       		.uleb128 0x14
 1284 0314 0C       		.uleb128 0xc
 1285 0315 72313000 		.ascii	"r10\000"
 1286 0319 06       		.byte	0x6
 1287 031a 1E01     		.2byte	0x11e
ARM GAS  /tmp/cc1wgTGm.s 			page 24


 1288 031c 9B020000 		.4byte	0x29b
 1289 0320 02       		.byte	0x2
 1290 0321 23       		.byte	0x23
 1291 0322 18       		.uleb128 0x18
 1292 0323 0C       		.uleb128 0xc
 1293 0324 72313100 		.ascii	"r11\000"
 1294 0328 06       		.byte	0x6
 1295 0329 1F01     		.2byte	0x11f
 1296 032b 9B020000 		.4byte	0x29b
 1297 032f 02       		.byte	0x2
 1298 0330 23       		.byte	0x23
 1299 0331 1C       		.uleb128 0x1c
 1300 0332 0C       		.uleb128 0xc
 1301 0333 6C7200   		.ascii	"lr\000"
 1302 0336 06       		.byte	0x6
 1303 0337 2001     		.2byte	0x120
 1304 0339 9B020000 		.4byte	0x29b
 1305 033d 02       		.byte	0x2
 1306 033e 23       		.byte	0x23
 1307 033f 20       		.uleb128 0x20
 1308 0340 00       		.byte	0
 1309 0341 0B       		.uleb128 0xb
 1310 0342 80010000 		.4byte	.LASF49
 1311 0346 04       		.byte	0x4
 1312 0347 06       		.byte	0x6
 1313 0348 2A01     		.2byte	0x12a
 1314 034a 5E030000 		.4byte	0x35e
 1315 034e 0C       		.uleb128 0xc
 1316 034f 72313300 		.ascii	"r13\000"
 1317 0353 06       		.byte	0x6
 1318 0354 2B01     		.2byte	0x12b
 1319 0356 5E030000 		.4byte	0x35e
 1320 035a 02       		.byte	0x2
 1321 035b 23       		.byte	0x23
 1322 035c 00       		.uleb128 0
 1323 035d 00       		.byte	0
 1324 035e 09       		.uleb128 0x9
 1325 035f 04       		.byte	0x4
 1326 0360 B3020000 		.4byte	0x2b3
 1327 0364 03       		.uleb128 0x3
 1328 0365 04       		.byte	0x4
 1329 0366 07       		.byte	0x7
 1330 0367 1B020000 		.4byte	.LASF50
 1331 036b 04       		.uleb128 0x4
 1332 036c 8E030000 		.4byte	.LASF51
 1333 0370 07       		.byte	0x7
 1334 0371 4E       		.byte	0x4e
 1335 0372 76030000 		.4byte	0x376
 1336 0376 09       		.uleb128 0x9
 1337 0377 04       		.byte	0x4
 1338 0378 7C030000 		.4byte	0x37c
 1339 037c 0D       		.uleb128 0xd
 1340 037d 01       		.byte	0x1
 1341 037e 88030000 		.4byte	0x388
 1342 0382 0E       		.uleb128 0xe
 1343 0383 A6020000 		.4byte	0x2a6
 1344 0387 00       		.byte	0
ARM GAS  /tmp/cc1wgTGm.s 			page 25


 1345 0388 04       		.uleb128 0x4
 1346 0389 60030000 		.4byte	.LASF52
 1347 038d 07       		.byte	0x7
 1348 038e 53       		.byte	0x53
 1349 038f 93030000 		.4byte	0x393
 1350 0393 05       		.uleb128 0x5
 1351 0394 60030000 		.4byte	.LASF52
 1352 0398 14       		.byte	0x14
 1353 0399 07       		.byte	0x7
 1354 039a 5A       		.byte	0x5a
 1355 039b E6030000 		.4byte	0x3e6
 1356 039f 06       		.uleb128 0x6
 1357 03a0 4A010000 		.4byte	.LASF53
 1358 03a4 07       		.byte	0x7
 1359 03a5 5B       		.byte	0x5b
 1360 03a6 E6030000 		.4byte	0x3e6
 1361 03aa 02       		.byte	0x2
 1362 03ab 23       		.byte	0x23
 1363 03ac 00       		.uleb128 0
 1364 03ad 06       		.uleb128 0x6
 1365 03ae 1C010000 		.4byte	.LASF54
 1366 03b2 07       		.byte	0x7
 1367 03b3 5D       		.byte	0x5d
 1368 03b4 E6030000 		.4byte	0x3e6
 1369 03b8 02       		.byte	0x2
 1370 03b9 23       		.byte	0x23
 1371 03ba 04       		.uleb128 0x4
 1372 03bb 06       		.uleb128 0x6
 1373 03bc 0C020000 		.4byte	.LASF55
 1374 03c0 07       		.byte	0x7
 1375 03c1 5F       		.byte	0x5f
 1376 03c2 EF000000 		.4byte	0xef
 1377 03c6 02       		.byte	0x2
 1378 03c7 23       		.byte	0x23
 1379 03c8 08       		.uleb128 0x8
 1380 03c9 06       		.uleb128 0x6
 1381 03ca 2E020000 		.4byte	.LASF56
 1382 03ce 07       		.byte	0x7
 1383 03cf 60       		.byte	0x60
 1384 03d0 6B030000 		.4byte	0x36b
 1385 03d4 02       		.byte	0x2
 1386 03d5 23       		.byte	0x23
 1387 03d6 0C       		.uleb128 0xc
 1388 03d7 06       		.uleb128 0x6
 1389 03d8 E2030000 		.4byte	.LASF57
 1390 03dc 07       		.byte	0x7
 1391 03dd 62       		.byte	0x62
 1392 03de A6020000 		.4byte	0x2a6
 1393 03e2 02       		.byte	0x2
 1394 03e3 23       		.byte	0x23
 1395 03e4 10       		.uleb128 0x10
 1396 03e5 00       		.byte	0
 1397 03e6 09       		.uleb128 0x9
 1398 03e7 04       		.byte	0x4
 1399 03e8 88030000 		.4byte	0x388
 1400 03ec 08       		.uleb128 0x8
 1401 03ed 10       		.byte	0x10
ARM GAS  /tmp/cc1wgTGm.s 			page 26


 1402 03ee 07       		.byte	0x7
 1403 03ef 6C       		.byte	0x6c
 1404 03f0 2D040000 		.4byte	0x42d
 1405 03f4 06       		.uleb128 0x6
 1406 03f5 4A010000 		.4byte	.LASF53
 1407 03f9 07       		.byte	0x7
 1408 03fa 6D       		.byte	0x6d
 1409 03fb E6030000 		.4byte	0x3e6
 1410 03ff 02       		.byte	0x2
 1411 0400 23       		.byte	0x23
 1412 0401 00       		.uleb128 0
 1413 0402 06       		.uleb128 0x6
 1414 0403 1C010000 		.4byte	.LASF54
 1415 0407 07       		.byte	0x7
 1416 0408 6F       		.byte	0x6f
 1417 0409 E6030000 		.4byte	0x3e6
 1418 040d 02       		.byte	0x2
 1419 040e 23       		.byte	0x23
 1420 040f 04       		.uleb128 0x4
 1421 0410 06       		.uleb128 0x6
 1422 0411 0C020000 		.4byte	.LASF55
 1423 0415 07       		.byte	0x7
 1424 0416 71       		.byte	0x71
 1425 0417 EF000000 		.4byte	0xef
 1426 041b 02       		.byte	0x2
 1427 041c 23       		.byte	0x23
 1428 041d 08       		.uleb128 0x8
 1429 041e 06       		.uleb128 0x6
 1430 041f 68040000 		.4byte	.LASF58
 1431 0423 07       		.byte	0x7
 1432 0424 72       		.byte	0x72
 1433 0425 2D040000 		.4byte	0x42d
 1434 0429 02       		.byte	0x2
 1435 042a 23       		.byte	0x23
 1436 042b 0C       		.uleb128 0xc
 1437 042c 00       		.byte	0
 1438 042d 0F       		.uleb128 0xf
 1439 042e EF000000 		.4byte	0xef
 1440 0432 04       		.uleb128 0x4
 1441 0433 73040000 		.4byte	.LASF59
 1442 0437 07       		.byte	0x7
 1443 0438 73       		.byte	0x73
 1444 0439 EC030000 		.4byte	0x3ec
 1445 043d 08       		.uleb128 0x8
 1446 043e 1C       		.byte	0x1c
 1447 043f 08       		.byte	0x8
 1448 0440 57       		.byte	0x57
 1449 0441 9A040000 		.4byte	0x49a
 1450 0445 06       		.uleb128 0x6
 1451 0446 58030000 		.4byte	.LASF60
 1452 044a 08       		.byte	0x8
 1453 044b 58       		.byte	0x58
 1454 044c 6E020000 		.4byte	0x26e
 1455 0450 02       		.byte	0x2
 1456 0451 23       		.byte	0x23
 1457 0452 00       		.uleb128 0
 1458 0453 06       		.uleb128 0x6
ARM GAS  /tmp/cc1wgTGm.s 			page 27


 1459 0454 20030000 		.4byte	.LASF61
 1460 0458 08       		.byte	0x8
 1461 0459 59       		.byte	0x59
 1462 045a CE000000 		.4byte	0xce
 1463 045e 02       		.byte	0x2
 1464 045f 23       		.byte	0x23
 1465 0460 08       		.uleb128 0x8
 1466 0461 06       		.uleb128 0x6
 1467 0462 5C020000 		.4byte	.LASF62
 1468 0466 08       		.byte	0x8
 1469 0467 5B       		.byte	0x5b
 1470 0468 41030000 		.4byte	0x341
 1471 046c 02       		.byte	0x2
 1472 046d 23       		.byte	0x23
 1473 046e 0C       		.uleb128 0xc
 1474 046f 06       		.uleb128 0x6
 1475 0470 0B010000 		.4byte	.LASF63
 1476 0474 08       		.byte	0x8
 1477 0475 5E       		.byte	0x5e
 1478 0476 68020000 		.4byte	0x268
 1479 047a 02       		.byte	0x2
 1480 047b 23       		.byte	0x23
 1481 047c 10       		.uleb128 0x10
 1482 047d 06       		.uleb128 0x6
 1483 047e 85020000 		.4byte	.LASF64
 1484 0482 08       		.byte	0x8
 1485 0483 5F       		.byte	0x5f
 1486 0484 68020000 		.4byte	0x268
 1487 0488 02       		.byte	0x2
 1488 0489 23       		.byte	0x23
 1489 048a 14       		.uleb128 0x14
 1490 048b 06       		.uleb128 0x6
 1491 048c 7B020000 		.4byte	.LASF65
 1492 0490 08       		.byte	0x8
 1493 0491 62       		.byte	0x62
 1494 0492 68020000 		.4byte	0x268
 1495 0496 02       		.byte	0x2
 1496 0497 23       		.byte	0x23
 1497 0498 18       		.uleb128 0x18
 1498 0499 00       		.byte	0
 1499 049a 04       		.uleb128 0x4
 1500 049b F0030000 		.4byte	.LASF66
 1501 049f 08       		.byte	0x8
 1502 04a0 64       		.byte	0x64
 1503 04a1 3D040000 		.4byte	0x43d
 1504 04a5 05       		.uleb128 0x5
 1505 04a6 FB010000 		.4byte	.LASF67
 1506 04aa 10       		.byte	0x10
 1507 04ab 09       		.byte	0x9
 1508 04ac 25       		.byte	0x25
 1509 04ad DC040000 		.4byte	0x4dc
 1510 04b1 06       		.uleb128 0x6
 1511 04b2 D1000000 		.4byte	.LASF68
 1512 04b6 09       		.byte	0x9
 1513 04b7 26       		.byte	0x26
 1514 04b8 6E020000 		.4byte	0x26e
 1515 04bc 02       		.byte	0x2
ARM GAS  /tmp/cc1wgTGm.s 			page 28


 1516 04bd 23       		.byte	0x23
 1517 04be 00       		.uleb128 0
 1518 04bf 06       		.uleb128 0x6
 1519 04c0 8C040000 		.4byte	.LASF69
 1520 04c4 09       		.byte	0x9
 1521 04c5 28       		.byte	0x28
 1522 04c6 68020000 		.4byte	0x268
 1523 04ca 02       		.byte	0x2
 1524 04cb 23       		.byte	0x23
 1525 04cc 08       		.uleb128 0x8
 1526 04cd 06       		.uleb128 0x6
 1527 04ce 72030000 		.4byte	.LASF70
 1528 04d2 09       		.byte	0x9
 1529 04d3 2A       		.byte	0x2a
 1530 04d4 DC040000 		.4byte	0x4dc
 1531 04d8 02       		.byte	0x2
 1532 04d9 23       		.byte	0x23
 1533 04da 0C       		.uleb128 0xc
 1534 04db 00       		.byte	0
 1535 04dc 09       		.uleb128 0x9
 1536 04dd 04       		.byte	0x4
 1537 04de A5040000 		.4byte	0x4a5
 1538 04e2 04       		.uleb128 0x4
 1539 04e3 FB010000 		.4byte	.LASF67
 1540 04e7 09       		.byte	0x9
 1541 04e8 2C       		.byte	0x2c
 1542 04e9 A5040000 		.4byte	0x4a5
 1543 04ed 10       		.uleb128 0x10
 1544 04ee 04       		.byte	0x4
 1545 04ef 05       		.byte	0x5
 1546 04f0 8F       		.byte	0x8f
 1547 04f1 22050000 		.4byte	0x522
 1548 04f5 11       		.uleb128 0x11
 1549 04f6 3C000000 		.4byte	.LASF71
 1550 04fa 05       		.byte	0x5
 1551 04fb 96       		.byte	0x96
 1552 04fc D9000000 		.4byte	0xd9
 1553 0500 11       		.uleb128 0x11
 1554 0501 85000000 		.4byte	.LASF72
 1555 0505 05       		.byte	0x5
 1556 0506 9D       		.byte	0x9d
 1557 0507 D9000000 		.4byte	0xd9
 1558 050b 11       		.uleb128 0x11
 1559 050c 5A040000 		.4byte	.LASF73
 1560 0510 05       		.byte	0x5
 1561 0511 A4       		.byte	0xa4
 1562 0512 A6020000 		.4byte	0x2a6
 1563 0516 11       		.uleb128 0x11
 1564 0517 27030000 		.4byte	.LASF74
 1565 051b 05       		.byte	0x5
 1566 051c AB       		.byte	0xab
 1567 051d E4000000 		.4byte	0xe4
 1568 0521 00       		.byte	0
 1569 0522 09       		.uleb128 0x9
 1570 0523 04       		.byte	0x4
 1571 0524 28050000 		.4byte	0x528
 1572 0528 12       		.uleb128 0x12
ARM GAS  /tmp/cc1wgTGm.s 			page 29


 1573 0529 2D050000 		.4byte	0x52d
 1574 052d 03       		.uleb128 0x3
 1575 052e 01       		.byte	0x1
 1576 052f 08       		.byte	0x8
 1577 0530 6D030000 		.4byte	.LASF75
 1578 0534 09       		.uleb128 0x9
 1579 0535 04       		.byte	0x4
 1580 0536 A8020000 		.4byte	0x2a8
 1581 053a 09       		.uleb128 0x9
 1582 053b 04       		.byte	0x4
 1583 053c E2040000 		.4byte	0x4e2
 1584 0540 08       		.uleb128 0x8
 1585 0541 10       		.byte	0x10
 1586 0542 0A       		.byte	0xa
 1587 0543 6A       		.byte	0x6a
 1588 0544 81050000 		.4byte	0x581
 1589 0548 06       		.uleb128 0x6
 1590 0549 24010000 		.4byte	.LASF76
 1591 054d 0A       		.byte	0xa
 1592 054e 6B       		.byte	0x6b
 1593 054f EF000000 		.4byte	0xef
 1594 0553 02       		.byte	0x2
 1595 0554 23       		.byte	0x23
 1596 0555 00       		.uleb128 0
 1597 0556 06       		.uleb128 0x6
 1598 0557 F5000000 		.4byte	.LASF77
 1599 055b 0A       		.byte	0xa
 1600 055c 6C       		.byte	0x6c
 1601 055d 68020000 		.4byte	0x268
 1602 0561 02       		.byte	0x2
 1603 0562 23       		.byte	0x23
 1604 0563 04       		.uleb128 0x4
 1605 0564 06       		.uleb128 0x6
 1606 0565 94040000 		.4byte	.LASF78
 1607 0569 0A       		.byte	0xa
 1608 056a 6D       		.byte	0x6d
 1609 056b A6020000 		.4byte	0x2a6
 1610 056f 02       		.byte	0x2
 1611 0570 23       		.byte	0x23
 1612 0571 08       		.uleb128 0x8
 1613 0572 06       		.uleb128 0x6
 1614 0573 7C000000 		.4byte	.LASF79
 1615 0577 0A       		.byte	0xa
 1616 0578 6E       		.byte	0x6e
 1617 0579 3E000000 		.4byte	0x3e
 1618 057d 02       		.byte	0x2
 1619 057e 23       		.byte	0x23
 1620 057f 0C       		.uleb128 0xc
 1621 0580 00       		.byte	0
 1622 0581 04       		.uleb128 0x4
 1623 0582 45020000 		.4byte	.LASF80
 1624 0586 0A       		.byte	0xa
 1625 0587 6F       		.byte	0x6f
 1626 0588 40050000 		.4byte	0x540
 1627 058c 13       		.uleb128 0x13
 1628 058d 0804     		.2byte	0x408
 1629 058f 0A       		.byte	0xa
ARM GAS  /tmp/cc1wgTGm.s 			page 30


 1630 0590 74       		.byte	0x74
 1631 0591 C0050000 		.4byte	0x5c0
 1632 0595 06       		.uleb128 0x6
 1633 0596 03010000 		.4byte	.LASF81
 1634 059a 0A       		.byte	0xa
 1635 059b 75       		.byte	0x75
 1636 059c 30000000 		.4byte	0x30
 1637 05a0 02       		.byte	0x2
 1638 05a1 23       		.byte	0x23
 1639 05a2 00       		.uleb128 0
 1640 05a3 06       		.uleb128 0x6
 1641 05a4 14020000 		.4byte	.LASF82
 1642 05a8 0A       		.byte	0xa
 1643 05a9 76       		.byte	0x76
 1644 05aa C0050000 		.4byte	0x5c0
 1645 05ae 02       		.byte	0x2
 1646 05af 23       		.byte	0x23
 1647 05b0 04       		.uleb128 0x4
 1648 05b1 06       		.uleb128 0x6
 1649 05b2 B7020000 		.4byte	.LASF83
 1650 05b6 0A       		.byte	0xa
 1651 05b7 78       		.byte	0x78
 1652 05b8 C6050000 		.4byte	0x5c6
 1653 05bc 02       		.byte	0x2
 1654 05bd 23       		.byte	0x23
 1655 05be 08       		.uleb128 0x8
 1656 05bf 00       		.byte	0
 1657 05c0 09       		.uleb128 0x9
 1658 05c1 04       		.byte	0x4
 1659 05c2 81050000 		.4byte	0x581
 1660 05c6 14       		.uleb128 0x14
 1661 05c7 81050000 		.4byte	0x581
 1662 05cb D6050000 		.4byte	0x5d6
 1663 05cf 15       		.uleb128 0x15
 1664 05d0 64030000 		.4byte	0x364
 1665 05d4 3F       		.byte	0x3f
 1666 05d5 00       		.byte	0
 1667 05d6 04       		.uleb128 0x4
 1668 05d7 6A000000 		.4byte	.LASF84
 1669 05db 0A       		.byte	0xa
 1670 05dc 79       		.byte	0x79
 1671 05dd 8C050000 		.4byte	0x58c
 1672 05e1 16       		.uleb128 0x16
 1673 05e2 01       		.byte	0x1
 1674 05e3 31000000 		.4byte	.LASF106
 1675 05e7 01       		.byte	0x1
 1676 05e8 0801     		.2byte	0x108
 1677 05ea 01       		.byte	0x1
 1678 05eb 01       		.byte	0x1
 1679 05ec FD050000 		.4byte	0x5fd
 1680 05f0 17       		.uleb128 0x17
 1681 05f1 6D736700 		.ascii	"msg\000"
 1682 05f5 01       		.byte	0x1
 1683 05f6 0801     		.2byte	0x108
 1684 05f8 22050000 		.4byte	0x522
 1685 05fc 00       		.byte	0
 1686 05fd 18       		.uleb128 0x18
ARM GAS  /tmp/cc1wgTGm.s 			page 31


 1687 05fe 01       		.byte	0x1
 1688 05ff 7A040000 		.4byte	.LASF85
 1689 0603 01       		.byte	0x1
 1690 0604 4A       		.byte	0x4a
 1691 0605 01       		.byte	0x1
 1692 0606 00000000 		.4byte	.LFB7
 1693 060a 28000000 		.4byte	.LFE7
 1694 060e 02       		.byte	0x2
 1695 060f 7D       		.byte	0x7d
 1696 0610 00       		.sleb128 0
 1697 0611 01       		.byte	0x1
 1698 0612 3A060000 		.4byte	0x63a
 1699 0616 19       		.uleb128 0x19
 1700 0617 E1050000 		.4byte	0x5e1
 1701 061b 0C000000 		.4byte	.LBB28
 1702 061f 00000000 		.4byte	.Ldebug_ranges0+0
 1703 0623 01       		.byte	0x1
 1704 0624 4D       		.byte	0x4d
 1705 0625 1A       		.uleb128 0x1a
 1706 0626 F0050000 		.4byte	0x5f0
 1707 062a 00000000 		.4byte	.LLST0
 1708 062e 1B       		.uleb128 0x1b
 1709 062f 16000000 		.4byte	.LVL1
 1710 0633 01       		.byte	0x1
 1711 0634 E7090000 		.4byte	0x9e7
 1712 0638 00       		.byte	0
 1713 0639 00       		.byte	0
 1714 063a 18       		.uleb128 0x18
 1715 063b 01       		.byte	0x1
 1716 063c 6E010000 		.4byte	.LASF86
 1717 0640 01       		.byte	0x1
 1718 0641 55       		.byte	0x55
 1719 0642 01       		.byte	0x1
 1720 0643 00000000 		.4byte	.LFB8
 1721 0647 28000000 		.4byte	.LFE8
 1722 064b 02       		.byte	0x2
 1723 064c 7D       		.byte	0x7d
 1724 064d 00       		.sleb128 0
 1725 064e 01       		.byte	0x1
 1726 064f 77060000 		.4byte	0x677
 1727 0653 19       		.uleb128 0x19
 1728 0654 E1050000 		.4byte	0x5e1
 1729 0658 0C000000 		.4byte	.LBB32
 1730 065c 18000000 		.4byte	.Ldebug_ranges0+0x18
 1731 0660 01       		.byte	0x1
 1732 0661 58       		.byte	0x58
 1733 0662 1A       		.uleb128 0x1a
 1734 0663 F0050000 		.4byte	0x5f0
 1735 0667 18000000 		.4byte	.LLST1
 1736 066b 1B       		.uleb128 0x1b
 1737 066c 16000000 		.4byte	.LVL3
 1738 0670 01       		.byte	0x1
 1739 0671 E7090000 		.4byte	0x9e7
 1740 0675 00       		.byte	0
 1741 0676 00       		.byte	0
 1742 0677 18       		.uleb128 0x18
 1743 0678 01       		.byte	0x1
ARM GAS  /tmp/cc1wgTGm.s 			page 32


 1744 0679 D1030000 		.4byte	.LASF87
 1745 067d 01       		.byte	0x1
 1746 067e 60       		.byte	0x60
 1747 067f 01       		.byte	0x1
 1748 0680 00000000 		.4byte	.LFB9
 1749 0684 28000000 		.4byte	.LFE9
 1750 0688 02       		.byte	0x2
 1751 0689 7D       		.byte	0x7d
 1752 068a 00       		.sleb128 0
 1753 068b 01       		.byte	0x1
 1754 068c B4060000 		.4byte	0x6b4
 1755 0690 19       		.uleb128 0x19
 1756 0691 E1050000 		.4byte	0x5e1
 1757 0695 0C000000 		.4byte	.LBB36
 1758 0699 30000000 		.4byte	.Ldebug_ranges0+0x30
 1759 069d 01       		.byte	0x1
 1760 069e 63       		.byte	0x63
 1761 069f 1A       		.uleb128 0x1a
 1762 06a0 F0050000 		.4byte	0x5f0
 1763 06a4 30000000 		.4byte	.LLST2
 1764 06a8 1B       		.uleb128 0x1b
 1765 06a9 16000000 		.4byte	.LVL5
 1766 06ad 01       		.byte	0x1
 1767 06ae E7090000 		.4byte	0x9e7
 1768 06b2 00       		.byte	0
 1769 06b3 00       		.byte	0
 1770 06b4 1C       		.uleb128 0x1c
 1771 06b5 01       		.byte	0x1
 1772 06b6 36020000 		.4byte	.LASF88
 1773 06ba 01       		.byte	0x1
 1774 06bb 6B       		.byte	0x6b
 1775 06bc 01       		.byte	0x1
 1776 06bd 00000000 		.4byte	.LFB10
 1777 06c1 30000000 		.4byte	.LFE10
 1778 06c5 48000000 		.4byte	.LLST3
 1779 06c9 01       		.byte	0x1
 1780 06ca F1060000 		.4byte	0x6f1
 1781 06ce 1D       		.uleb128 0x1d
 1782 06cf E1050000 		.4byte	0x5e1
 1783 06d3 0E000000 		.4byte	.LBB40
 1784 06d7 18000000 		.4byte	.LBE40
 1785 06db 01       		.byte	0x1
 1786 06dc 6E       		.byte	0x6e
 1787 06dd 1A       		.uleb128 0x1a
 1788 06de F0050000 		.4byte	0x5f0
 1789 06e2 68000000 		.4byte	.LLST4
 1790 06e6 1E       		.uleb128 0x1e
 1791 06e7 18000000 		.4byte	.LVL7
 1792 06eb E7090000 		.4byte	0x9e7
 1793 06ef 00       		.byte	0
 1794 06f0 00       		.byte	0
 1795 06f1 1C       		.uleb128 0x1c
 1796 06f2 01       		.byte	0x1
 1797 06f3 8D020000 		.4byte	.LASF89
 1798 06f7 01       		.byte	0x1
 1799 06f8 77       		.byte	0x77
 1800 06f9 01       		.byte	0x1
ARM GAS  /tmp/cc1wgTGm.s 			page 33


 1801 06fa 00000000 		.4byte	.LFB11
 1802 06fe 34000000 		.4byte	.LFE11
 1803 0702 80000000 		.4byte	.LLST5
 1804 0706 01       		.byte	0x1
 1805 0707 31070000 		.4byte	0x731
 1806 070b 1D       		.uleb128 0x1d
 1807 070c E1050000 		.4byte	0x5e1
 1808 0710 16000000 		.4byte	.LBB42
 1809 0714 34000000 		.4byte	.LBE42
 1810 0718 01       		.byte	0x1
 1811 0719 7A       		.byte	0x7a
 1812 071a 1F       		.uleb128 0x1f
 1813 071b F0050000 		.4byte	0x5f0
 1814 071f 06       		.byte	0x6
 1815 0720 03       		.byte	0x3
 1816 0721 20000000 		.4byte	.LC4
 1817 0725 9F       		.byte	0x9f
 1818 0726 1E       		.uleb128 0x1e
 1819 0727 20000000 		.4byte	.LVL9
 1820 072b E7090000 		.4byte	0x9e7
 1821 072f 00       		.byte	0
 1822 0730 00       		.byte	0
 1823 0731 1C       		.uleb128 0x1c
 1824 0732 01       		.byte	0x1
 1825 0733 42040000 		.4byte	.LASF90
 1826 0737 01       		.byte	0x1
 1827 0738 83       		.byte	0x83
 1828 0739 01       		.byte	0x1
 1829 073a 00000000 		.4byte	.LFB12
 1830 073e 30000000 		.4byte	.LFE12
 1831 0742 A0000000 		.4byte	.LLST6
 1832 0746 01       		.byte	0x1
 1833 0747 6E070000 		.4byte	0x76e
 1834 074b 1D       		.uleb128 0x1d
 1835 074c E1050000 		.4byte	0x5e1
 1836 0750 10000000 		.4byte	.LBB44
 1837 0754 1A000000 		.4byte	.LBE44
 1838 0758 01       		.byte	0x1
 1839 0759 86       		.byte	0x86
 1840 075a 1A       		.uleb128 0x1a
 1841 075b F0050000 		.4byte	0x5f0
 1842 075f C0000000 		.4byte	.LLST7
 1843 0763 1E       		.uleb128 0x1e
 1844 0764 1A000000 		.4byte	.LVL11
 1845 0768 E7090000 		.4byte	0x9e7
 1846 076c 00       		.byte	0
 1847 076d 00       		.byte	0
 1848 076e 1C       		.uleb128 0x1c
 1849 076f 01       		.byte	0x1
 1850 0770 AF000000 		.4byte	.LASF91
 1851 0774 01       		.byte	0x1
 1852 0775 8F       		.byte	0x8f
 1853 0776 01       		.byte	0x1
 1854 0777 00000000 		.4byte	.LFB13
 1855 077b 34000000 		.4byte	.LFE13
 1856 077f D8000000 		.4byte	.LLST8
 1857 0783 01       		.byte	0x1
ARM GAS  /tmp/cc1wgTGm.s 			page 34


 1858 0784 AE070000 		.4byte	0x7ae
 1859 0788 1D       		.uleb128 0x1d
 1860 0789 E1050000 		.4byte	0x5e1
 1861 078d 18000000 		.4byte	.LBB46
 1862 0791 34000000 		.4byte	.LBE46
 1863 0795 01       		.byte	0x1
 1864 0796 92       		.byte	0x92
 1865 0797 1F       		.uleb128 0x1f
 1866 0798 F0050000 		.4byte	0x5f0
 1867 079c 06       		.byte	0x6
 1868 079d 03       		.byte	0x3
 1869 079e 30000000 		.4byte	.LC6
 1870 07a2 9F       		.byte	0x9f
 1871 07a3 1E       		.uleb128 0x1e
 1872 07a4 22000000 		.4byte	.LVL13
 1873 07a8 E7090000 		.4byte	0x9e7
 1874 07ac 00       		.byte	0
 1875 07ad 00       		.byte	0
 1876 07ae 1C       		.uleb128 0x1c
 1877 07af 01       		.byte	0x1
 1878 07b0 FA030000 		.4byte	.LASF92
 1879 07b4 01       		.byte	0x1
 1880 07b5 9B       		.byte	0x9b
 1881 07b6 01       		.byte	0x1
 1882 07b7 00000000 		.4byte	.LFB14
 1883 07bb 40000000 		.4byte	.LFE14
 1884 07bf F8000000 		.4byte	.LLST9
 1885 07c3 01       		.byte	0x1
 1886 07c4 25080000 		.4byte	0x825
 1887 07c8 20       		.uleb128 0x20
 1888 07c9 02000000 		.4byte	.LBB48
 1889 07cd 08000000 		.4byte	.LBE48
 1890 07d1 E5070000 		.4byte	0x7e5
 1891 07d5 21       		.uleb128 0x21
 1892 07d6 746D7000 		.ascii	"tmp\000"
 1893 07da 01       		.byte	0x1
 1894 07db 9D       		.byte	0x9d
 1895 07dc 70000000 		.4byte	0x70
 1896 07e0 18010000 		.4byte	.LLST10
 1897 07e4 00       		.byte	0
 1898 07e5 22       		.uleb128 0x22
 1899 07e6 E1050000 		.4byte	0x5e1
 1900 07ea 16000000 		.4byte	.LBB49
 1901 07ee 22000000 		.4byte	.LBE49
 1902 07f2 01       		.byte	0x1
 1903 07f3 9F       		.byte	0x9f
 1904 07f4 0B080000 		.4byte	0x80b
 1905 07f8 1A       		.uleb128 0x1a
 1906 07f9 F0050000 		.4byte	0x5f0
 1907 07fd 2B010000 		.4byte	.LLST11
 1908 0801 1E       		.uleb128 0x1e
 1909 0802 20000000 		.4byte	.LVL18
 1910 0806 E7090000 		.4byte	0x9e7
 1911 080a 00       		.byte	0
 1912 080b 23       		.uleb128 0x23
 1913 080c 26000000 		.4byte	.LBB51
 1914 0810 40000000 		.4byte	.LBE51
ARM GAS  /tmp/cc1wgTGm.s 			page 35


 1915 0814 21       		.uleb128 0x21
 1916 0815 746D7000 		.ascii	"tmp\000"
 1917 0819 01       		.byte	0x1
 1918 081a A1       		.byte	0xa1
 1919 081b 70000000 		.4byte	0x70
 1920 081f 43010000 		.4byte	.LLST12
 1921 0823 00       		.byte	0
 1922 0824 00       		.byte	0
 1923 0825 1C       		.uleb128 0x1c
 1924 0826 01       		.byte	0x1
 1925 0827 AB030000 		.4byte	.LASF93
 1926 082b 01       		.byte	0x1
 1927 082c A9       		.byte	0xa9
 1928 082d 01       		.byte	0x1
 1929 082e 00000000 		.4byte	.LFB15
 1930 0832 40000000 		.4byte	.LFE15
 1931 0836 56010000 		.4byte	.LLST13
 1932 083a 01       		.byte	0x1
 1933 083b 9C080000 		.4byte	0x89c
 1934 083f 20       		.uleb128 0x20
 1935 0840 02000000 		.4byte	.LBB52
 1936 0844 08000000 		.4byte	.LBE52
 1937 0848 5C080000 		.4byte	0x85c
 1938 084c 21       		.uleb128 0x21
 1939 084d 746D7000 		.ascii	"tmp\000"
 1940 0851 01       		.byte	0x1
 1941 0852 AB       		.byte	0xab
 1942 0853 70000000 		.4byte	0x70
 1943 0857 76010000 		.4byte	.LLST14
 1944 085b 00       		.byte	0
 1945 085c 22       		.uleb128 0x22
 1946 085d E1050000 		.4byte	0x5e1
 1947 0861 16000000 		.4byte	.LBB53
 1948 0865 22000000 		.4byte	.LBE53
 1949 0869 01       		.byte	0x1
 1950 086a AD       		.byte	0xad
 1951 086b 82080000 		.4byte	0x882
 1952 086f 1A       		.uleb128 0x1a
 1953 0870 F0050000 		.4byte	0x5f0
 1954 0874 89010000 		.4byte	.LLST15
 1955 0878 1E       		.uleb128 0x1e
 1956 0879 20000000 		.4byte	.LVL26
 1957 087d E7090000 		.4byte	0x9e7
 1958 0881 00       		.byte	0
 1959 0882 23       		.uleb128 0x23
 1960 0883 26000000 		.4byte	.LBB55
 1961 0887 40000000 		.4byte	.LBE55
 1962 088b 21       		.uleb128 0x21
 1963 088c 746D7000 		.ascii	"tmp\000"
 1964 0890 01       		.byte	0x1
 1965 0891 AF       		.byte	0xaf
 1966 0892 70000000 		.4byte	0x70
 1967 0896 A1010000 		.4byte	.LLST16
 1968 089a 00       		.byte	0
 1969 089b 00       		.byte	0
 1970 089c 18       		.uleb128 0x18
 1971 089d 01       		.byte	0x1
ARM GAS  /tmp/cc1wgTGm.s 			page 36


 1972 089e AD010000 		.4byte	.LASF94
 1973 08a2 01       		.byte	0x1
 1974 08a3 BA       		.byte	0xba
 1975 08a4 01       		.byte	0x1
 1976 08a5 00000000 		.4byte	.LFB16
 1977 08a9 2C000000 		.4byte	.LFE16
 1978 08ad 02       		.byte	0x2
 1979 08ae 7D       		.byte	0x7d
 1980 08af 00       		.sleb128 0
 1981 08b0 01       		.byte	0x1
 1982 08b1 DC080000 		.4byte	0x8dc
 1983 08b5 19       		.uleb128 0x19
 1984 08b6 E1050000 		.4byte	0x5e1
 1985 08ba 12000000 		.4byte	.LBB56
 1986 08be 48000000 		.4byte	.Ldebug_ranges0+0x48
 1987 08c2 01       		.byte	0x1
 1988 08c3 BD       		.byte	0xbd
 1989 08c4 1F       		.uleb128 0x1f
 1990 08c5 F0050000 		.4byte	0x5f0
 1991 08c9 06       		.byte	0x6
 1992 08ca 03       		.byte	0x3
 1993 08cb 48000000 		.4byte	.LC9
 1994 08cf 9F       		.byte	0x9f
 1995 08d0 1B       		.uleb128 0x1b
 1996 08d1 1C000000 		.4byte	.LVL31
 1997 08d5 01       		.byte	0x1
 1998 08d6 E7090000 		.4byte	0x9e7
 1999 08da 00       		.byte	0
 2000 08db 00       		.byte	0
 2001 08dc 18       		.uleb128 0x18
 2002 08dd 01       		.byte	0x1
 2003 08de D2010000 		.4byte	.LASF95
 2004 08e2 01       		.byte	0x1
 2005 08e3 C8       		.byte	0xc8
 2006 08e4 01       		.byte	0x1
 2007 08e5 00000000 		.4byte	.LFB17
 2008 08e9 2C000000 		.4byte	.LFE17
 2009 08ed 02       		.byte	0x2
 2010 08ee 7D       		.byte	0x7d
 2011 08ef 00       		.sleb128 0
 2012 08f0 01       		.byte	0x1
 2013 08f1 1C090000 		.4byte	0x91c
 2014 08f5 19       		.uleb128 0x19
 2015 08f6 E1050000 		.4byte	0x5e1
 2016 08fa 10000000 		.4byte	.LBB60
 2017 08fe 60000000 		.4byte	.Ldebug_ranges0+0x60
 2018 0902 01       		.byte	0x1
 2019 0903 CB       		.byte	0xcb
 2020 0904 1F       		.uleb128 0x1f
 2021 0905 F0050000 		.4byte	0x5f0
 2022 0909 06       		.byte	0x6
 2023 090a 03       		.byte	0x3
 2024 090b 50000000 		.4byte	.LC10
 2025 090f 9F       		.byte	0x9f
 2026 0910 1B       		.uleb128 0x1b
 2027 0911 1A000000 		.4byte	.LVL33
 2028 0915 01       		.byte	0x1
ARM GAS  /tmp/cc1wgTGm.s 			page 37


 2029 0916 E7090000 		.4byte	0x9e7
 2030 091a 00       		.byte	0
 2031 091b 00       		.byte	0
 2032 091c 24       		.uleb128 0x24
 2033 091d 01       		.byte	0x1
 2034 091e 9B010000 		.4byte	.LASF107
 2035 0922 01       		.byte	0x1
 2036 0923 DE       		.byte	0xde
 2037 0924 01       		.byte	0x1
 2038 0925 00000000 		.4byte	.LFB18
 2039 0929 14000000 		.4byte	.LFE18
 2040 092d 02       		.byte	0x2
 2041 092e 7D       		.byte	0x7d
 2042 092f 00       		.sleb128 0
 2043 0930 01       		.byte	0x1
 2044 0931 1C       		.uleb128 0x1c
 2045 0932 01       		.byte	0x1
 2046 0933 52010000 		.4byte	.LASF96
 2047 0937 01       		.byte	0x1
 2048 0938 EB       		.byte	0xeb
 2049 0939 01       		.byte	0x1
 2050 093a 00000000 		.4byte	.LFB19
 2051 093e 40000000 		.4byte	.LFE19
 2052 0942 B4010000 		.4byte	.LLST17
 2053 0946 01       		.byte	0x1
 2054 0947 5B090000 		.4byte	0x95b
 2055 094b 25       		.uleb128 0x25
 2056 094c 6F747000 		.ascii	"otp\000"
 2057 0950 01       		.byte	0x1
 2058 0951 EB       		.byte	0xeb
 2059 0952 68020000 		.4byte	0x268
 2060 0956 D4010000 		.4byte	.LLST18
 2061 095a 00       		.byte	0
 2062 095b 26       		.uleb128 0x26
 2063 095c E1050000 		.4byte	0x5e1
 2064 0960 00000000 		.4byte	.LFB20
 2065 0964 0E000000 		.4byte	.LFE20
 2066 0968 02       		.byte	0x2
 2067 0969 7D       		.byte	0x7d
 2068 096a 00       		.sleb128 0
 2069 096b 01       		.byte	0x1
 2070 096c 84090000 		.4byte	0x984
 2071 0970 1A       		.uleb128 0x1a
 2072 0971 F0050000 		.4byte	0x5f0
 2073 0975 F5010000 		.4byte	.LLST19
 2074 0979 1B       		.uleb128 0x1b
 2075 097a 0E000000 		.4byte	.LVL37
 2076 097e 01       		.byte	0x1
 2077 097f E7090000 		.4byte	0x9e7
 2078 0983 00       		.byte	0
 2079 0984 27       		.uleb128 0x27
 2080 0985 4C000000 		.4byte	.LASF97
 2081 0989 07       		.byte	0x7
 2082 098a D1       		.byte	0xd1
 2083 098b 32040000 		.4byte	0x432
 2084 098f 01       		.byte	0x1
 2085 0990 01       		.byte	0x1
ARM GAS  /tmp/cc1wgTGm.s 			page 38


 2086 0991 27       		.uleb128 0x27
 2087 0992 0E040000 		.4byte	.LASF98
 2088 0996 08       		.byte	0x8
 2089 0997 68       		.byte	0x68
 2090 0998 9A040000 		.4byte	0x49a
 2091 099c 01       		.byte	0x1
 2092 099d 01       		.byte	0x1
 2093 099e 28       		.uleb128 0x28
 2094 099f 9E020000 		.4byte	.LASF99
 2095 09a3 01       		.byte	0x1
 2096 09a4 D8       		.byte	0xd8
 2097 09a5 D6050000 		.4byte	0x5d6
 2098 09a9 01       		.byte	0x1
 2099 09aa 05       		.byte	0x5
 2100 09ab 03       		.byte	0x3
 2101 09ac 00000000 		.4byte	dbg_trace_buffer
 2102 09b0 28       		.uleb128 0x28
 2103 09b1 C6010000 		.4byte	.LASF100
 2104 09b5 01       		.byte	0x1
 2105 09b6 3E       		.byte	0x3e
 2106 09b7 FA000000 		.4byte	0xfa
 2107 09bb 01       		.byte	0x1
 2108 09bc 05       		.byte	0x5
 2109 09bd 03       		.byte	0x3
 2110 09be 00000000 		.4byte	dbg_isr_cnt
 2111 09c2 28       		.uleb128 0x28
 2112 09c3 97030000 		.4byte	.LASF101
 2113 09c7 01       		.byte	0x1
 2114 09c8 43       		.byte	0x43
 2115 09c9 FA000000 		.4byte	0xfa
 2116 09cd 01       		.byte	0x1
 2117 09ce 05       		.byte	0x5
 2118 09cf 03       		.byte	0x3
 2119 09d0 00000000 		.4byte	dbg_lock_cnt
 2120 09d4 29       		.uleb128 0x29
 2121 09d5 EC020000 		.4byte	.LASF102
 2122 09d9 01       		.byte	0x1
 2123 09da 0101     		.2byte	0x101
 2124 09dc 22050000 		.4byte	0x522
 2125 09e0 01       		.byte	0x1
 2126 09e1 05       		.byte	0x5
 2127 09e2 03       		.byte	0x3
 2128 09e3 00000000 		.4byte	dbg_panic_msg
 2129 09e7 2A       		.uleb128 0x2a
 2130 09e8 01       		.byte	0x1
 2131 09e9 24020000 		.4byte	.LASF108
 2132 09ed 06       		.byte	0x6
 2133 09ee FA01     		.2byte	0x1fa
 2134 09f0 01       		.byte	0x1
 2135 09f1 01       		.byte	0x1
 2136 09f2 00       		.byte	0
 2137              		.section	.debug_abbrev,"",%progbits
 2138              	.Ldebug_abbrev0:
 2139 0000 01       		.uleb128 0x1
 2140 0001 11       		.uleb128 0x11
 2141 0002 01       		.byte	0x1
 2142 0003 25       		.uleb128 0x25
ARM GAS  /tmp/cc1wgTGm.s 			page 39


 2143 0004 0E       		.uleb128 0xe
 2144 0005 13       		.uleb128 0x13
 2145 0006 0B       		.uleb128 0xb
 2146 0007 03       		.uleb128 0x3
 2147 0008 0E       		.uleb128 0xe
 2148 0009 1B       		.uleb128 0x1b
 2149 000a 0E       		.uleb128 0xe
 2150 000b 55       		.uleb128 0x55
 2151 000c 06       		.uleb128 0x6
 2152 000d 11       		.uleb128 0x11
 2153 000e 01       		.uleb128 0x1
 2154 000f 52       		.uleb128 0x52
 2155 0010 01       		.uleb128 0x1
 2156 0011 10       		.uleb128 0x10
 2157 0012 06       		.uleb128 0x6
 2158 0013 00       		.byte	0
 2159 0014 00       		.byte	0
 2160 0015 02       		.uleb128 0x2
 2161 0016 24       		.uleb128 0x24
 2162 0017 00       		.byte	0
 2163 0018 0B       		.uleb128 0xb
 2164 0019 0B       		.uleb128 0xb
 2165 001a 3E       		.uleb128 0x3e
 2166 001b 0B       		.uleb128 0xb
 2167 001c 03       		.uleb128 0x3
 2168 001d 08       		.uleb128 0x8
 2169 001e 00       		.byte	0
 2170 001f 00       		.byte	0
 2171 0020 03       		.uleb128 0x3
 2172 0021 24       		.uleb128 0x24
 2173 0022 00       		.byte	0
 2174 0023 0B       		.uleb128 0xb
 2175 0024 0B       		.uleb128 0xb
 2176 0025 3E       		.uleb128 0x3e
 2177 0026 0B       		.uleb128 0xb
 2178 0027 03       		.uleb128 0x3
 2179 0028 0E       		.uleb128 0xe
 2180 0029 00       		.byte	0
 2181 002a 00       		.byte	0
 2182 002b 04       		.uleb128 0x4
 2183 002c 16       		.uleb128 0x16
 2184 002d 00       		.byte	0
 2185 002e 03       		.uleb128 0x3
 2186 002f 0E       		.uleb128 0xe
 2187 0030 3A       		.uleb128 0x3a
 2188 0031 0B       		.uleb128 0xb
 2189 0032 3B       		.uleb128 0x3b
 2190 0033 0B       		.uleb128 0xb
 2191 0034 49       		.uleb128 0x49
 2192 0035 13       		.uleb128 0x13
 2193 0036 00       		.byte	0
 2194 0037 00       		.byte	0
 2195 0038 05       		.uleb128 0x5
 2196 0039 13       		.uleb128 0x13
 2197 003a 01       		.byte	0x1
 2198 003b 03       		.uleb128 0x3
 2199 003c 0E       		.uleb128 0xe
ARM GAS  /tmp/cc1wgTGm.s 			page 40


 2200 003d 0B       		.uleb128 0xb
 2201 003e 0B       		.uleb128 0xb
 2202 003f 3A       		.uleb128 0x3a
 2203 0040 0B       		.uleb128 0xb
 2204 0041 3B       		.uleb128 0x3b
 2205 0042 0B       		.uleb128 0xb
 2206 0043 01       		.uleb128 0x1
 2207 0044 13       		.uleb128 0x13
 2208 0045 00       		.byte	0
 2209 0046 00       		.byte	0
 2210 0047 06       		.uleb128 0x6
 2211 0048 0D       		.uleb128 0xd
 2212 0049 00       		.byte	0
 2213 004a 03       		.uleb128 0x3
 2214 004b 0E       		.uleb128 0xe
 2215 004c 3A       		.uleb128 0x3a
 2216 004d 0B       		.uleb128 0xb
 2217 004e 3B       		.uleb128 0x3b
 2218 004f 0B       		.uleb128 0xb
 2219 0050 49       		.uleb128 0x49
 2220 0051 13       		.uleb128 0x13
 2221 0052 38       		.uleb128 0x38
 2222 0053 0A       		.uleb128 0xa
 2223 0054 00       		.byte	0
 2224 0055 00       		.byte	0
 2225 0056 07       		.uleb128 0x7
 2226 0057 0D       		.uleb128 0xd
 2227 0058 00       		.byte	0
 2228 0059 03       		.uleb128 0x3
 2229 005a 08       		.uleb128 0x8
 2230 005b 3A       		.uleb128 0x3a
 2231 005c 0B       		.uleb128 0xb
 2232 005d 3B       		.uleb128 0x3b
 2233 005e 0B       		.uleb128 0xb
 2234 005f 49       		.uleb128 0x49
 2235 0060 13       		.uleb128 0x13
 2236 0061 38       		.uleb128 0x38
 2237 0062 0A       		.uleb128 0xa
 2238 0063 00       		.byte	0
 2239 0064 00       		.byte	0
 2240 0065 08       		.uleb128 0x8
 2241 0066 13       		.uleb128 0x13
 2242 0067 01       		.byte	0x1
 2243 0068 0B       		.uleb128 0xb
 2244 0069 0B       		.uleb128 0xb
 2245 006a 3A       		.uleb128 0x3a
 2246 006b 0B       		.uleb128 0xb
 2247 006c 3B       		.uleb128 0x3b
 2248 006d 0B       		.uleb128 0xb
 2249 006e 01       		.uleb128 0x1
 2250 006f 13       		.uleb128 0x13
 2251 0070 00       		.byte	0
 2252 0071 00       		.byte	0
 2253 0072 09       		.uleb128 0x9
 2254 0073 0F       		.uleb128 0xf
 2255 0074 00       		.byte	0
 2256 0075 0B       		.uleb128 0xb
ARM GAS  /tmp/cc1wgTGm.s 			page 41


 2257 0076 0B       		.uleb128 0xb
 2258 0077 49       		.uleb128 0x49
 2259 0078 13       		.uleb128 0x13
 2260 0079 00       		.byte	0
 2261 007a 00       		.byte	0
 2262 007b 0A       		.uleb128 0xa
 2263 007c 0F       		.uleb128 0xf
 2264 007d 00       		.byte	0
 2265 007e 0B       		.uleb128 0xb
 2266 007f 0B       		.uleb128 0xb
 2267 0080 00       		.byte	0
 2268 0081 00       		.byte	0
 2269 0082 0B       		.uleb128 0xb
 2270 0083 13       		.uleb128 0x13
 2271 0084 01       		.byte	0x1
 2272 0085 03       		.uleb128 0x3
 2273 0086 0E       		.uleb128 0xe
 2274 0087 0B       		.uleb128 0xb
 2275 0088 0B       		.uleb128 0xb
 2276 0089 3A       		.uleb128 0x3a
 2277 008a 0B       		.uleb128 0xb
 2278 008b 3B       		.uleb128 0x3b
 2279 008c 05       		.uleb128 0x5
 2280 008d 01       		.uleb128 0x1
 2281 008e 13       		.uleb128 0x13
 2282 008f 00       		.byte	0
 2283 0090 00       		.byte	0
 2284 0091 0C       		.uleb128 0xc
 2285 0092 0D       		.uleb128 0xd
 2286 0093 00       		.byte	0
 2287 0094 03       		.uleb128 0x3
 2288 0095 08       		.uleb128 0x8
 2289 0096 3A       		.uleb128 0x3a
 2290 0097 0B       		.uleb128 0xb
 2291 0098 3B       		.uleb128 0x3b
 2292 0099 05       		.uleb128 0x5
 2293 009a 49       		.uleb128 0x49
 2294 009b 13       		.uleb128 0x13
 2295 009c 38       		.uleb128 0x38
 2296 009d 0A       		.uleb128 0xa
 2297 009e 00       		.byte	0
 2298 009f 00       		.byte	0
 2299 00a0 0D       		.uleb128 0xd
 2300 00a1 15       		.uleb128 0x15
 2301 00a2 01       		.byte	0x1
 2302 00a3 27       		.uleb128 0x27
 2303 00a4 0C       		.uleb128 0xc
 2304 00a5 01       		.uleb128 0x1
 2305 00a6 13       		.uleb128 0x13
 2306 00a7 00       		.byte	0
 2307 00a8 00       		.byte	0
 2308 00a9 0E       		.uleb128 0xe
 2309 00aa 05       		.uleb128 0x5
 2310 00ab 00       		.byte	0
 2311 00ac 49       		.uleb128 0x49
 2312 00ad 13       		.uleb128 0x13
 2313 00ae 00       		.byte	0
ARM GAS  /tmp/cc1wgTGm.s 			page 42


 2314 00af 00       		.byte	0
 2315 00b0 0F       		.uleb128 0xf
 2316 00b1 35       		.uleb128 0x35
 2317 00b2 00       		.byte	0
 2318 00b3 49       		.uleb128 0x49
 2319 00b4 13       		.uleb128 0x13
 2320 00b5 00       		.byte	0
 2321 00b6 00       		.byte	0
 2322 00b7 10       		.uleb128 0x10
 2323 00b8 17       		.uleb128 0x17
 2324 00b9 01       		.byte	0x1
 2325 00ba 0B       		.uleb128 0xb
 2326 00bb 0B       		.uleb128 0xb
 2327 00bc 3A       		.uleb128 0x3a
 2328 00bd 0B       		.uleb128 0xb
 2329 00be 3B       		.uleb128 0x3b
 2330 00bf 0B       		.uleb128 0xb
 2331 00c0 01       		.uleb128 0x1
 2332 00c1 13       		.uleb128 0x13
 2333 00c2 00       		.byte	0
 2334 00c3 00       		.byte	0
 2335 00c4 11       		.uleb128 0x11
 2336 00c5 0D       		.uleb128 0xd
 2337 00c6 00       		.byte	0
 2338 00c7 03       		.uleb128 0x3
 2339 00c8 0E       		.uleb128 0xe
 2340 00c9 3A       		.uleb128 0x3a
 2341 00ca 0B       		.uleb128 0xb
 2342 00cb 3B       		.uleb128 0x3b
 2343 00cc 0B       		.uleb128 0xb
 2344 00cd 49       		.uleb128 0x49
 2345 00ce 13       		.uleb128 0x13
 2346 00cf 00       		.byte	0
 2347 00d0 00       		.byte	0
 2348 00d1 12       		.uleb128 0x12
 2349 00d2 26       		.uleb128 0x26
 2350 00d3 00       		.byte	0
 2351 00d4 49       		.uleb128 0x49
 2352 00d5 13       		.uleb128 0x13
 2353 00d6 00       		.byte	0
 2354 00d7 00       		.byte	0
 2355 00d8 13       		.uleb128 0x13
 2356 00d9 13       		.uleb128 0x13
 2357 00da 01       		.byte	0x1
 2358 00db 0B       		.uleb128 0xb
 2359 00dc 05       		.uleb128 0x5
 2360 00dd 3A       		.uleb128 0x3a
 2361 00de 0B       		.uleb128 0xb
 2362 00df 3B       		.uleb128 0x3b
 2363 00e0 0B       		.uleb128 0xb
 2364 00e1 01       		.uleb128 0x1
 2365 00e2 13       		.uleb128 0x13
 2366 00e3 00       		.byte	0
 2367 00e4 00       		.byte	0
 2368 00e5 14       		.uleb128 0x14
 2369 00e6 01       		.uleb128 0x1
 2370 00e7 01       		.byte	0x1
ARM GAS  /tmp/cc1wgTGm.s 			page 43


 2371 00e8 49       		.uleb128 0x49
 2372 00e9 13       		.uleb128 0x13
 2373 00ea 01       		.uleb128 0x1
 2374 00eb 13       		.uleb128 0x13
 2375 00ec 00       		.byte	0
 2376 00ed 00       		.byte	0
 2377 00ee 15       		.uleb128 0x15
 2378 00ef 21       		.uleb128 0x21
 2379 00f0 00       		.byte	0
 2380 00f1 49       		.uleb128 0x49
 2381 00f2 13       		.uleb128 0x13
 2382 00f3 2F       		.uleb128 0x2f
 2383 00f4 0B       		.uleb128 0xb
 2384 00f5 00       		.byte	0
 2385 00f6 00       		.byte	0
 2386 00f7 16       		.uleb128 0x16
 2387 00f8 2E       		.uleb128 0x2e
 2388 00f9 01       		.byte	0x1
 2389 00fa 3F       		.uleb128 0x3f
 2390 00fb 0C       		.uleb128 0xc
 2391 00fc 03       		.uleb128 0x3
 2392 00fd 0E       		.uleb128 0xe
 2393 00fe 3A       		.uleb128 0x3a
 2394 00ff 0B       		.uleb128 0xb
 2395 0100 3B       		.uleb128 0x3b
 2396 0101 05       		.uleb128 0x5
 2397 0102 27       		.uleb128 0x27
 2398 0103 0C       		.uleb128 0xc
 2399 0104 20       		.uleb128 0x20
 2400 0105 0B       		.uleb128 0xb
 2401 0106 01       		.uleb128 0x1
 2402 0107 13       		.uleb128 0x13
 2403 0108 00       		.byte	0
 2404 0109 00       		.byte	0
 2405 010a 17       		.uleb128 0x17
 2406 010b 05       		.uleb128 0x5
 2407 010c 00       		.byte	0
 2408 010d 03       		.uleb128 0x3
 2409 010e 08       		.uleb128 0x8
 2410 010f 3A       		.uleb128 0x3a
 2411 0110 0B       		.uleb128 0xb
 2412 0111 3B       		.uleb128 0x3b
 2413 0112 05       		.uleb128 0x5
 2414 0113 49       		.uleb128 0x49
 2415 0114 13       		.uleb128 0x13
 2416 0115 00       		.byte	0
 2417 0116 00       		.byte	0
 2418 0117 18       		.uleb128 0x18
 2419 0118 2E       		.uleb128 0x2e
 2420 0119 01       		.byte	0x1
 2421 011a 3F       		.uleb128 0x3f
 2422 011b 0C       		.uleb128 0xc
 2423 011c 03       		.uleb128 0x3
 2424 011d 0E       		.uleb128 0xe
 2425 011e 3A       		.uleb128 0x3a
 2426 011f 0B       		.uleb128 0xb
 2427 0120 3B       		.uleb128 0x3b
ARM GAS  /tmp/cc1wgTGm.s 			page 44


 2428 0121 0B       		.uleb128 0xb
 2429 0122 27       		.uleb128 0x27
 2430 0123 0C       		.uleb128 0xc
 2431 0124 11       		.uleb128 0x11
 2432 0125 01       		.uleb128 0x1
 2433 0126 12       		.uleb128 0x12
 2434 0127 01       		.uleb128 0x1
 2435 0128 40       		.uleb128 0x40
 2436 0129 0A       		.uleb128 0xa
 2437 012a 9742     		.uleb128 0x2117
 2438 012c 0C       		.uleb128 0xc
 2439 012d 01       		.uleb128 0x1
 2440 012e 13       		.uleb128 0x13
 2441 012f 00       		.byte	0
 2442 0130 00       		.byte	0
 2443 0131 19       		.uleb128 0x19
 2444 0132 1D       		.uleb128 0x1d
 2445 0133 01       		.byte	0x1
 2446 0134 31       		.uleb128 0x31
 2447 0135 13       		.uleb128 0x13
 2448 0136 52       		.uleb128 0x52
 2449 0137 01       		.uleb128 0x1
 2450 0138 55       		.uleb128 0x55
 2451 0139 06       		.uleb128 0x6
 2452 013a 58       		.uleb128 0x58
 2453 013b 0B       		.uleb128 0xb
 2454 013c 59       		.uleb128 0x59
 2455 013d 0B       		.uleb128 0xb
 2456 013e 00       		.byte	0
 2457 013f 00       		.byte	0
 2458 0140 1A       		.uleb128 0x1a
 2459 0141 05       		.uleb128 0x5
 2460 0142 00       		.byte	0
 2461 0143 31       		.uleb128 0x31
 2462 0144 13       		.uleb128 0x13
 2463 0145 02       		.uleb128 0x2
 2464 0146 06       		.uleb128 0x6
 2465 0147 00       		.byte	0
 2466 0148 00       		.byte	0
 2467 0149 1B       		.uleb128 0x1b
 2468 014a 898201   		.uleb128 0x4109
 2469 014d 00       		.byte	0
 2470 014e 11       		.uleb128 0x11
 2471 014f 01       		.uleb128 0x1
 2472 0150 9542     		.uleb128 0x2115
 2473 0152 0C       		.uleb128 0xc
 2474 0153 31       		.uleb128 0x31
 2475 0154 13       		.uleb128 0x13
 2476 0155 00       		.byte	0
 2477 0156 00       		.byte	0
 2478 0157 1C       		.uleb128 0x1c
 2479 0158 2E       		.uleb128 0x2e
 2480 0159 01       		.byte	0x1
 2481 015a 3F       		.uleb128 0x3f
 2482 015b 0C       		.uleb128 0xc
 2483 015c 03       		.uleb128 0x3
 2484 015d 0E       		.uleb128 0xe
ARM GAS  /tmp/cc1wgTGm.s 			page 45


 2485 015e 3A       		.uleb128 0x3a
 2486 015f 0B       		.uleb128 0xb
 2487 0160 3B       		.uleb128 0x3b
 2488 0161 0B       		.uleb128 0xb
 2489 0162 27       		.uleb128 0x27
 2490 0163 0C       		.uleb128 0xc
 2491 0164 11       		.uleb128 0x11
 2492 0165 01       		.uleb128 0x1
 2493 0166 12       		.uleb128 0x12
 2494 0167 01       		.uleb128 0x1
 2495 0168 40       		.uleb128 0x40
 2496 0169 06       		.uleb128 0x6
 2497 016a 9742     		.uleb128 0x2117
 2498 016c 0C       		.uleb128 0xc
 2499 016d 01       		.uleb128 0x1
 2500 016e 13       		.uleb128 0x13
 2501 016f 00       		.byte	0
 2502 0170 00       		.byte	0
 2503 0171 1D       		.uleb128 0x1d
 2504 0172 1D       		.uleb128 0x1d
 2505 0173 01       		.byte	0x1
 2506 0174 31       		.uleb128 0x31
 2507 0175 13       		.uleb128 0x13
 2508 0176 11       		.uleb128 0x11
 2509 0177 01       		.uleb128 0x1
 2510 0178 12       		.uleb128 0x12
 2511 0179 01       		.uleb128 0x1
 2512 017a 58       		.uleb128 0x58
 2513 017b 0B       		.uleb128 0xb
 2514 017c 59       		.uleb128 0x59
 2515 017d 0B       		.uleb128 0xb
 2516 017e 00       		.byte	0
 2517 017f 00       		.byte	0
 2518 0180 1E       		.uleb128 0x1e
 2519 0181 898201   		.uleb128 0x4109
 2520 0184 00       		.byte	0
 2521 0185 11       		.uleb128 0x11
 2522 0186 01       		.uleb128 0x1
 2523 0187 31       		.uleb128 0x31
 2524 0188 13       		.uleb128 0x13
 2525 0189 00       		.byte	0
 2526 018a 00       		.byte	0
 2527 018b 1F       		.uleb128 0x1f
 2528 018c 05       		.uleb128 0x5
 2529 018d 00       		.byte	0
 2530 018e 31       		.uleb128 0x31
 2531 018f 13       		.uleb128 0x13
 2532 0190 02       		.uleb128 0x2
 2533 0191 0A       		.uleb128 0xa
 2534 0192 00       		.byte	0
 2535 0193 00       		.byte	0
 2536 0194 20       		.uleb128 0x20
 2537 0195 0B       		.uleb128 0xb
 2538 0196 01       		.byte	0x1
 2539 0197 11       		.uleb128 0x11
 2540 0198 01       		.uleb128 0x1
 2541 0199 12       		.uleb128 0x12
ARM GAS  /tmp/cc1wgTGm.s 			page 46


 2542 019a 01       		.uleb128 0x1
 2543 019b 01       		.uleb128 0x1
 2544 019c 13       		.uleb128 0x13
 2545 019d 00       		.byte	0
 2546 019e 00       		.byte	0
 2547 019f 21       		.uleb128 0x21
 2548 01a0 34       		.uleb128 0x34
 2549 01a1 00       		.byte	0
 2550 01a2 03       		.uleb128 0x3
 2551 01a3 08       		.uleb128 0x8
 2552 01a4 3A       		.uleb128 0x3a
 2553 01a5 0B       		.uleb128 0xb
 2554 01a6 3B       		.uleb128 0x3b
 2555 01a7 0B       		.uleb128 0xb
 2556 01a8 49       		.uleb128 0x49
 2557 01a9 13       		.uleb128 0x13
 2558 01aa 02       		.uleb128 0x2
 2559 01ab 06       		.uleb128 0x6
 2560 01ac 00       		.byte	0
 2561 01ad 00       		.byte	0
 2562 01ae 22       		.uleb128 0x22
 2563 01af 1D       		.uleb128 0x1d
 2564 01b0 01       		.byte	0x1
 2565 01b1 31       		.uleb128 0x31
 2566 01b2 13       		.uleb128 0x13
 2567 01b3 11       		.uleb128 0x11
 2568 01b4 01       		.uleb128 0x1
 2569 01b5 12       		.uleb128 0x12
 2570 01b6 01       		.uleb128 0x1
 2571 01b7 58       		.uleb128 0x58
 2572 01b8 0B       		.uleb128 0xb
 2573 01b9 59       		.uleb128 0x59
 2574 01ba 0B       		.uleb128 0xb
 2575 01bb 01       		.uleb128 0x1
 2576 01bc 13       		.uleb128 0x13
 2577 01bd 00       		.byte	0
 2578 01be 00       		.byte	0
 2579 01bf 23       		.uleb128 0x23
 2580 01c0 0B       		.uleb128 0xb
 2581 01c1 01       		.byte	0x1
 2582 01c2 11       		.uleb128 0x11
 2583 01c3 01       		.uleb128 0x1
 2584 01c4 12       		.uleb128 0x12
 2585 01c5 01       		.uleb128 0x1
 2586 01c6 00       		.byte	0
 2587 01c7 00       		.byte	0
 2588 01c8 24       		.uleb128 0x24
 2589 01c9 2E       		.uleb128 0x2e
 2590 01ca 00       		.byte	0
 2591 01cb 3F       		.uleb128 0x3f
 2592 01cc 0C       		.uleb128 0xc
 2593 01cd 03       		.uleb128 0x3
 2594 01ce 0E       		.uleb128 0xe
 2595 01cf 3A       		.uleb128 0x3a
 2596 01d0 0B       		.uleb128 0xb
 2597 01d1 3B       		.uleb128 0x3b
 2598 01d2 0B       		.uleb128 0xb
ARM GAS  /tmp/cc1wgTGm.s 			page 47


 2599 01d3 27       		.uleb128 0x27
 2600 01d4 0C       		.uleb128 0xc
 2601 01d5 11       		.uleb128 0x11
 2602 01d6 01       		.uleb128 0x1
 2603 01d7 12       		.uleb128 0x12
 2604 01d8 01       		.uleb128 0x1
 2605 01d9 40       		.uleb128 0x40
 2606 01da 0A       		.uleb128 0xa
 2607 01db 9742     		.uleb128 0x2117
 2608 01dd 0C       		.uleb128 0xc
 2609 01de 00       		.byte	0
 2610 01df 00       		.byte	0
 2611 01e0 25       		.uleb128 0x25
 2612 01e1 05       		.uleb128 0x5
 2613 01e2 00       		.byte	0
 2614 01e3 03       		.uleb128 0x3
 2615 01e4 08       		.uleb128 0x8
 2616 01e5 3A       		.uleb128 0x3a
 2617 01e6 0B       		.uleb128 0xb
 2618 01e7 3B       		.uleb128 0x3b
 2619 01e8 0B       		.uleb128 0xb
 2620 01e9 49       		.uleb128 0x49
 2621 01ea 13       		.uleb128 0x13
 2622 01eb 02       		.uleb128 0x2
 2623 01ec 06       		.uleb128 0x6
 2624 01ed 00       		.byte	0
 2625 01ee 00       		.byte	0
 2626 01ef 26       		.uleb128 0x26
 2627 01f0 2E       		.uleb128 0x2e
 2628 01f1 01       		.byte	0x1
 2629 01f2 31       		.uleb128 0x31
 2630 01f3 13       		.uleb128 0x13
 2631 01f4 11       		.uleb128 0x11
 2632 01f5 01       		.uleb128 0x1
 2633 01f6 12       		.uleb128 0x12
 2634 01f7 01       		.uleb128 0x1
 2635 01f8 40       		.uleb128 0x40
 2636 01f9 0A       		.uleb128 0xa
 2637 01fa 9742     		.uleb128 0x2117
 2638 01fc 0C       		.uleb128 0xc
 2639 01fd 01       		.uleb128 0x1
 2640 01fe 13       		.uleb128 0x13
 2641 01ff 00       		.byte	0
 2642 0200 00       		.byte	0
 2643 0201 27       		.uleb128 0x27
 2644 0202 34       		.uleb128 0x34
 2645 0203 00       		.byte	0
 2646 0204 03       		.uleb128 0x3
 2647 0205 0E       		.uleb128 0xe
 2648 0206 3A       		.uleb128 0x3a
 2649 0207 0B       		.uleb128 0xb
 2650 0208 3B       		.uleb128 0x3b
 2651 0209 0B       		.uleb128 0xb
 2652 020a 49       		.uleb128 0x49
 2653 020b 13       		.uleb128 0x13
 2654 020c 3F       		.uleb128 0x3f
 2655 020d 0C       		.uleb128 0xc
ARM GAS  /tmp/cc1wgTGm.s 			page 48


 2656 020e 3C       		.uleb128 0x3c
 2657 020f 0C       		.uleb128 0xc
 2658 0210 00       		.byte	0
 2659 0211 00       		.byte	0
 2660 0212 28       		.uleb128 0x28
 2661 0213 34       		.uleb128 0x34
 2662 0214 00       		.byte	0
 2663 0215 03       		.uleb128 0x3
 2664 0216 0E       		.uleb128 0xe
 2665 0217 3A       		.uleb128 0x3a
 2666 0218 0B       		.uleb128 0xb
 2667 0219 3B       		.uleb128 0x3b
 2668 021a 0B       		.uleb128 0xb
 2669 021b 49       		.uleb128 0x49
 2670 021c 13       		.uleb128 0x13
 2671 021d 3F       		.uleb128 0x3f
 2672 021e 0C       		.uleb128 0xc
 2673 021f 02       		.uleb128 0x2
 2674 0220 0A       		.uleb128 0xa
 2675 0221 00       		.byte	0
 2676 0222 00       		.byte	0
 2677 0223 29       		.uleb128 0x29
 2678 0224 34       		.uleb128 0x34
 2679 0225 00       		.byte	0
 2680 0226 03       		.uleb128 0x3
 2681 0227 0E       		.uleb128 0xe
 2682 0228 3A       		.uleb128 0x3a
 2683 0229 0B       		.uleb128 0xb
 2684 022a 3B       		.uleb128 0x3b
 2685 022b 05       		.uleb128 0x5
 2686 022c 49       		.uleb128 0x49
 2687 022d 13       		.uleb128 0x13
 2688 022e 3F       		.uleb128 0x3f
 2689 022f 0C       		.uleb128 0xc
 2690 0230 02       		.uleb128 0x2
 2691 0231 0A       		.uleb128 0xa
 2692 0232 00       		.byte	0
 2693 0233 00       		.byte	0
 2694 0234 2A       		.uleb128 0x2a
 2695 0235 2E       		.uleb128 0x2e
 2696 0236 00       		.byte	0
 2697 0237 3F       		.uleb128 0x3f
 2698 0238 0C       		.uleb128 0xc
 2699 0239 03       		.uleb128 0x3
 2700 023a 0E       		.uleb128 0xe
 2701 023b 3A       		.uleb128 0x3a
 2702 023c 0B       		.uleb128 0xb
 2703 023d 3B       		.uleb128 0x3b
 2704 023e 05       		.uleb128 0x5
 2705 023f 27       		.uleb128 0x27
 2706 0240 0C       		.uleb128 0xc
 2707 0241 3C       		.uleb128 0x3c
 2708 0242 0C       		.uleb128 0xc
 2709 0243 00       		.byte	0
 2710 0244 00       		.byte	0
 2711 0245 00       		.byte	0
 2712              		.section	.debug_loc,"",%progbits
ARM GAS  /tmp/cc1wgTGm.s 			page 49


 2713              	.Ldebug_loc0:
 2714              	.LLST0:
 2715 0000 0C000000 		.4byte	.LVL0
 2716 0004 16000000 		.4byte	.LVL1
 2717 0008 0600     		.2byte	0x6
 2718 000a 03       		.byte	0x3
 2719 000b 00000000 		.4byte	.LC0
 2720 000f 9F       		.byte	0x9f
 2721 0010 00000000 		.4byte	0
 2722 0014 00000000 		.4byte	0
 2723              	.LLST1:
 2724 0018 0C000000 		.4byte	.LVL2
 2725 001c 16000000 		.4byte	.LVL3
 2726 0020 0600     		.2byte	0x6
 2727 0022 03       		.byte	0x3
 2728 0023 08000000 		.4byte	.LC1
 2729 0027 9F       		.byte	0x9f
 2730 0028 00000000 		.4byte	0
 2731 002c 00000000 		.4byte	0
 2732              	.LLST2:
 2733 0030 0C000000 		.4byte	.LVL4
 2734 0034 16000000 		.4byte	.LVL5
 2735 0038 0600     		.2byte	0x6
 2736 003a 03       		.byte	0x3
 2737 003b 10000000 		.4byte	.LC2
 2738 003f 9F       		.byte	0x9f
 2739 0040 00000000 		.4byte	0
 2740 0044 00000000 		.4byte	0
 2741              	.LLST3:
 2742 0048 00000000 		.4byte	.LFB10
 2743 004c 06000000 		.4byte	.LCFI0
 2744 0050 0200     		.2byte	0x2
 2745 0052 7D       		.byte	0x7d
 2746 0053 00       		.sleb128 0
 2747 0054 06000000 		.4byte	.LCFI0
 2748 0058 30000000 		.4byte	.LFE10
 2749 005c 0200     		.2byte	0x2
 2750 005e 7D       		.byte	0x7d
 2751 005f 08       		.sleb128 8
 2752 0060 00000000 		.4byte	0
 2753 0064 00000000 		.4byte	0
 2754              	.LLST4:
 2755 0068 0E000000 		.4byte	.LVL6
 2756 006c 18000000 		.4byte	.LVL7
 2757 0070 0600     		.2byte	0x6
 2758 0072 03       		.byte	0x3
 2759 0073 18000000 		.4byte	.LC3
 2760 0077 9F       		.byte	0x9f
 2761 0078 00000000 		.4byte	0
 2762 007c 00000000 		.4byte	0
 2763              	.LLST5:
 2764 0080 00000000 		.4byte	.LFB11
 2765 0084 06000000 		.4byte	.LCFI1
 2766 0088 0200     		.2byte	0x2
 2767 008a 7D       		.byte	0x7d
 2768 008b 00       		.sleb128 0
 2769 008c 06000000 		.4byte	.LCFI1
ARM GAS  /tmp/cc1wgTGm.s 			page 50


 2770 0090 34000000 		.4byte	.LFE11
 2771 0094 0200     		.2byte	0x2
 2772 0096 7D       		.byte	0x7d
 2773 0097 08       		.sleb128 8
 2774 0098 00000000 		.4byte	0
 2775 009c 00000000 		.4byte	0
 2776              	.LLST6:
 2777 00a0 00000000 		.4byte	.LFB12
 2778 00a4 08000000 		.4byte	.LCFI2
 2779 00a8 0200     		.2byte	0x2
 2780 00aa 7D       		.byte	0x7d
 2781 00ab 00       		.sleb128 0
 2782 00ac 08000000 		.4byte	.LCFI2
 2783 00b0 30000000 		.4byte	.LFE12
 2784 00b4 0200     		.2byte	0x2
 2785 00b6 7D       		.byte	0x7d
 2786 00b7 08       		.sleb128 8
 2787 00b8 00000000 		.4byte	0
 2788 00bc 00000000 		.4byte	0
 2789              	.LLST7:
 2790 00c0 10000000 		.4byte	.LVL10
 2791 00c4 1A000000 		.4byte	.LVL11
 2792 00c8 0600     		.2byte	0x6
 2793 00ca 03       		.byte	0x3
 2794 00cb 28000000 		.4byte	.LC5
 2795 00cf 9F       		.byte	0x9f
 2796 00d0 00000000 		.4byte	0
 2797 00d4 00000000 		.4byte	0
 2798              	.LLST8:
 2799 00d8 00000000 		.4byte	.LFB13
 2800 00dc 08000000 		.4byte	.LCFI3
 2801 00e0 0200     		.2byte	0x2
 2802 00e2 7D       		.byte	0x7d
 2803 00e3 00       		.sleb128 0
 2804 00e4 08000000 		.4byte	.LCFI3
 2805 00e8 34000000 		.4byte	.LFE13
 2806 00ec 0200     		.2byte	0x2
 2807 00ee 7D       		.byte	0x7d
 2808 00ef 08       		.sleb128 8
 2809 00f0 00000000 		.4byte	0
 2810 00f4 00000000 		.4byte	0
 2811              	.LLST9:
 2812 00f8 00000000 		.4byte	.LFB14
 2813 00fc 02000000 		.4byte	.LCFI4
 2814 0100 0200     		.2byte	0x2
 2815 0102 7D       		.byte	0x7d
 2816 0103 00       		.sleb128 0
 2817 0104 02000000 		.4byte	.LCFI4
 2818 0108 40000000 		.4byte	.LFE14
 2819 010c 0200     		.2byte	0x2
 2820 010e 7D       		.byte	0x7d
 2821 010f 08       		.sleb128 8
 2822 0110 00000000 		.4byte	0
 2823 0114 00000000 		.4byte	0
 2824              	.LLST10:
 2825 0118 08000000 		.4byte	.LVL15
 2826 011c 0C000000 		.4byte	.LVL16
ARM GAS  /tmp/cc1wgTGm.s 			page 51


 2827 0120 0100     		.2byte	0x1
 2828 0122 53       		.byte	0x53
 2829 0123 00000000 		.4byte	0
 2830 0127 00000000 		.4byte	0
 2831              	.LLST11:
 2832 012b 16000000 		.4byte	.LVL17
 2833 012f 22000000 		.4byte	.LVL19
 2834 0133 0600     		.2byte	0x6
 2835 0135 03       		.byte	0x3
 2836 0136 38000000 		.4byte	.LC7
 2837 013a 9F       		.byte	0x9f
 2838 013b 00000000 		.4byte	0
 2839 013f 00000000 		.4byte	0
 2840              	.LLST12:
 2841 0143 2C000000 		.4byte	.LVL21
 2842 0147 40000000 		.4byte	.LFE14
 2843 014b 0100     		.2byte	0x1
 2844 014d 53       		.byte	0x53
 2845 014e 00000000 		.4byte	0
 2846 0152 00000000 		.4byte	0
 2847              	.LLST13:
 2848 0156 00000000 		.4byte	.LFB15
 2849 015a 02000000 		.4byte	.LCFI5
 2850 015e 0200     		.2byte	0x2
 2851 0160 7D       		.byte	0x7d
 2852 0161 00       		.sleb128 0
 2853 0162 02000000 		.4byte	.LCFI5
 2854 0166 40000000 		.4byte	.LFE15
 2855 016a 0200     		.2byte	0x2
 2856 016c 7D       		.byte	0x7d
 2857 016d 08       		.sleb128 8
 2858 016e 00000000 		.4byte	0
 2859 0172 00000000 		.4byte	0
 2860              	.LLST14:
 2861 0176 08000000 		.4byte	.LVL23
 2862 017a 0C000000 		.4byte	.LVL24
 2863 017e 0100     		.2byte	0x1
 2864 0180 53       		.byte	0x53
 2865 0181 00000000 		.4byte	0
 2866 0185 00000000 		.4byte	0
 2867              	.LLST15:
 2868 0189 16000000 		.4byte	.LVL25
 2869 018d 22000000 		.4byte	.LVL27
 2870 0191 0600     		.2byte	0x6
 2871 0193 03       		.byte	0x3
 2872 0194 40000000 		.4byte	.LC8
 2873 0198 9F       		.byte	0x9f
 2874 0199 00000000 		.4byte	0
 2875 019d 00000000 		.4byte	0
 2876              	.LLST16:
 2877 01a1 2C000000 		.4byte	.LVL29
 2878 01a5 40000000 		.4byte	.LFE15
 2879 01a9 0100     		.2byte	0x1
 2880 01ab 53       		.byte	0x53
 2881 01ac 00000000 		.4byte	0
 2882 01b0 00000000 		.4byte	0
 2883              	.LLST17:
ARM GAS  /tmp/cc1wgTGm.s 			page 52


 2884 01b4 00000000 		.4byte	.LFB19
 2885 01b8 06000000 		.4byte	.LCFI6
 2886 01bc 0200     		.2byte	0x2
 2887 01be 7D       		.byte	0x7d
 2888 01bf 00       		.sleb128 0
 2889 01c0 06000000 		.4byte	.LCFI6
 2890 01c4 40000000 		.4byte	.LFE19
 2891 01c8 0200     		.2byte	0x2
 2892 01ca 7D       		.byte	0x7d
 2893 01cb 04       		.sleb128 4
 2894 01cc 00000000 		.4byte	0
 2895 01d0 00000000 		.4byte	0
 2896              	.LLST18:
 2897 01d4 00000000 		.4byte	.LVL34
 2898 01d8 22000000 		.4byte	.LVL35
 2899 01dc 0100     		.2byte	0x1
 2900 01de 50       		.byte	0x50
 2901 01df 22000000 		.4byte	.LVL35
 2902 01e3 40000000 		.4byte	.LFE19
 2903 01e7 0400     		.2byte	0x4
 2904 01e9 F3       		.byte	0xf3
 2905 01ea 01       		.uleb128 0x1
 2906 01eb 50       		.byte	0x50
 2907 01ec 9F       		.byte	0x9f
 2908 01ed 00000000 		.4byte	0
 2909 01f1 00000000 		.4byte	0
 2910              	.LLST19:
 2911 01f5 00000000 		.4byte	.LVL36
 2912 01f9 0D000000 		.4byte	.LVL37-1
 2913 01fd 0100     		.2byte	0x1
 2914 01ff 50       		.byte	0x50
 2915 0200 0D000000 		.4byte	.LVL37-1
 2916 0204 0E000000 		.4byte	.LFE20
 2917 0208 0400     		.2byte	0x4
 2918 020a F3       		.byte	0xf3
 2919 020b 01       		.uleb128 0x1
 2920 020c 50       		.byte	0x50
 2921 020d 9F       		.byte	0x9f
 2922 020e 00000000 		.4byte	0
 2923 0212 00000000 		.4byte	0
 2924              		.section	.debug_aranges,"",%progbits
 2925 0000 84000000 		.4byte	0x84
 2926 0004 0200     		.2byte	0x2
 2927 0006 00000000 		.4byte	.Ldebug_info0
 2928 000a 04       		.byte	0x4
 2929 000b 00       		.byte	0
 2930 000c 0000     		.2byte	0
 2931 000e 0000     		.2byte	0
 2932 0010 00000000 		.4byte	.LFB7
 2933 0014 28000000 		.4byte	.LFE7-.LFB7
 2934 0018 00000000 		.4byte	.LFB8
 2935 001c 28000000 		.4byte	.LFE8-.LFB8
 2936 0020 00000000 		.4byte	.LFB9
 2937 0024 28000000 		.4byte	.LFE9-.LFB9
 2938 0028 00000000 		.4byte	.LFB10
 2939 002c 30000000 		.4byte	.LFE10-.LFB10
 2940 0030 00000000 		.4byte	.LFB11
ARM GAS  /tmp/cc1wgTGm.s 			page 53


 2941 0034 34000000 		.4byte	.LFE11-.LFB11
 2942 0038 00000000 		.4byte	.LFB12
 2943 003c 30000000 		.4byte	.LFE12-.LFB12
 2944 0040 00000000 		.4byte	.LFB13
 2945 0044 34000000 		.4byte	.LFE13-.LFB13
 2946 0048 00000000 		.4byte	.LFB14
 2947 004c 40000000 		.4byte	.LFE14-.LFB14
 2948 0050 00000000 		.4byte	.LFB15
 2949 0054 40000000 		.4byte	.LFE15-.LFB15
 2950 0058 00000000 		.4byte	.LFB16
 2951 005c 2C000000 		.4byte	.LFE16-.LFB16
 2952 0060 00000000 		.4byte	.LFB17
 2953 0064 2C000000 		.4byte	.LFE17-.LFB17
 2954 0068 00000000 		.4byte	.LFB18
 2955 006c 14000000 		.4byte	.LFE18-.LFB18
 2956 0070 00000000 		.4byte	.LFB19
 2957 0074 40000000 		.4byte	.LFE19-.LFB19
 2958 0078 00000000 		.4byte	.LFB20
 2959 007c 0E000000 		.4byte	.LFE20-.LFB20
 2960 0080 00000000 		.4byte	0
 2961 0084 00000000 		.4byte	0
 2962              		.section	.debug_ranges,"",%progbits
 2963              	.Ldebug_ranges0:
 2964 0000 0C000000 		.4byte	.LBB28
 2965 0004 12000000 		.4byte	.LBE28
 2966 0008 12000000 		.4byte	.LBB31
 2967 000c 28000000 		.4byte	.LBE31
 2968 0010 00000000 		.4byte	0
 2969 0014 00000000 		.4byte	0
 2970 0018 0C000000 		.4byte	.LBB32
 2971 001c 12000000 		.4byte	.LBE32
 2972 0020 12000000 		.4byte	.LBB35
 2973 0024 28000000 		.4byte	.LBE35
 2974 0028 00000000 		.4byte	0
 2975 002c 00000000 		.4byte	0
 2976 0030 0C000000 		.4byte	.LBB36
 2977 0034 12000000 		.4byte	.LBE36
 2978 0038 12000000 		.4byte	.LBB39
 2979 003c 28000000 		.4byte	.LBE39
 2980 0040 00000000 		.4byte	0
 2981 0044 00000000 		.4byte	0
 2982 0048 12000000 		.4byte	.LBB56
 2983 004c 18000000 		.4byte	.LBE56
 2984 0050 18000000 		.4byte	.LBB59
 2985 0054 2C000000 		.4byte	.LBE59
 2986 0058 00000000 		.4byte	0
 2987 005c 00000000 		.4byte	0
 2988 0060 10000000 		.4byte	.LBB60
 2989 0064 16000000 		.4byte	.LBE60
 2990 0068 16000000 		.4byte	.LBB63
 2991 006c 2C000000 		.4byte	.LBE63
 2992 0070 00000000 		.4byte	0
 2993 0074 00000000 		.4byte	0
 2994 0078 00000000 		.4byte	.LFB7
 2995 007c 28000000 		.4byte	.LFE7
 2996 0080 00000000 		.4byte	.LFB8
 2997 0084 28000000 		.4byte	.LFE8
ARM GAS  /tmp/cc1wgTGm.s 			page 54


 2998 0088 00000000 		.4byte	.LFB9
 2999 008c 28000000 		.4byte	.LFE9
 3000 0090 00000000 		.4byte	.LFB10
 3001 0094 30000000 		.4byte	.LFE10
 3002 0098 00000000 		.4byte	.LFB11
 3003 009c 34000000 		.4byte	.LFE11
 3004 00a0 00000000 		.4byte	.LFB12
 3005 00a4 30000000 		.4byte	.LFE12
 3006 00a8 00000000 		.4byte	.LFB13
 3007 00ac 34000000 		.4byte	.LFE13
 3008 00b0 00000000 		.4byte	.LFB14
 3009 00b4 40000000 		.4byte	.LFE14
 3010 00b8 00000000 		.4byte	.LFB15
 3011 00bc 40000000 		.4byte	.LFE15
 3012 00c0 00000000 		.4byte	.LFB16
 3013 00c4 2C000000 		.4byte	.LFE16
 3014 00c8 00000000 		.4byte	.LFB17
 3015 00cc 2C000000 		.4byte	.LFE17
 3016 00d0 00000000 		.4byte	.LFB18
 3017 00d4 14000000 		.4byte	.LFE18
 3018 00d8 00000000 		.4byte	.LFB19
 3019 00dc 40000000 		.4byte	.LFE19
 3020 00e0 00000000 		.4byte	.LFB20
 3021 00e4 0E000000 		.4byte	.LFE20
 3022 00e8 00000000 		.4byte	0
 3023 00ec 00000000 		.4byte	0
 3024              		.section	.debug_line,"",%progbits
 3025              	.Ldebug_line0:
 3026 0000 2B030000 		.section	.debug_str,"MS",%progbits,1
 3026      02006001 
 3026      00000201 
 3026      FB0E0D00 
 3026      01010101 
 3027              	.LASF105:
 3028 0000 2F686F6D 		.ascii	"/home/rob/Projects/stm32/src/rocket_tracks\000"
 3028      652F726F 
 3028      622F5072 
 3028      6F6A6563 
 3028      74732F73 
 3029              	.LASF39:
 3030 002b 705F6D73 		.ascii	"p_msg\000"
 3030      6700
 3031              	.LASF106:
 3032 0031 63684462 		.ascii	"chDbgPanic\000"
 3032      6750616E 
 3032      696300
 3033              	.LASF71:
 3034 003c 7264796D 		.ascii	"rdymsg\000"
 3034      736700
 3035              	.LASF11:
 3036 0043 75696E74 		.ascii	"uint64_t\000"
 3036      36345F74 
 3036      00
 3037              	.LASF97:
 3038 004c 76746C69 		.ascii	"vtlist\000"
 3038      737400
 3039              	.LASF12:
ARM GAS  /tmp/cc1wgTGm.s 			page 55


 3040 0053 6C6F6E67 		.ascii	"long long unsigned int\000"
 3040      206C6F6E 
 3040      6720756E 
 3040      7369676E 
 3040      65642069 
 3041              	.LASF84:
 3042 006a 63685F74 		.ascii	"ch_trace_buffer_t\000"
 3042      72616365 
 3042      5F627566 
 3042      6665725F 
 3042      7400
 3043              	.LASF79:
 3044 007c 73655F73 		.ascii	"se_state\000"
 3044      74617465 
 3044      00
 3045              	.LASF72:
 3046 0085 65786974 		.ascii	"exitcode\000"
 3046      636F6465 
 3046      00
 3047              	.LASF26:
 3048 008e 705F7072 		.ascii	"p_prio\000"
 3048      696F00
 3049              	.LASF10:
 3050 0095 6C6F6E67 		.ascii	"long long int\000"
 3050      206C6F6E 
 3050      6720696E 
 3050      7400
 3051              	.LASF1:
 3052 00a3 7369676E 		.ascii	"signed char\000"
 3052      65642063 
 3052      68617200 
 3053              	.LASF91:
 3054 00af 6462675F 		.ascii	"dbg_check_unlock_from_isr\000"
 3054      63686563 
 3054      6B5F756E 
 3054      6C6F636B 
 3054      5F66726F 
 3055              	.LASF43:
 3056 00c9 705F6D70 		.ascii	"p_mpool\000"
 3056      6F6F6C00 
 3057              	.LASF68:
 3058 00d1 6D5F7175 		.ascii	"m_queue\000"
 3058      65756500 
 3059              	.LASF17:
 3060 00d9 74736C69 		.ascii	"tslices_t\000"
 3060      6365735F 
 3060      7400
 3061              	.LASF7:
 3062 00e3 6C6F6E67 		.ascii	"long int\000"
 3062      20696E74 
 3062      00
 3063              	.LASF15:
 3064 00ec 74737461 		.ascii	"tstate_t\000"
 3064      74655F74 
 3064      00
 3065              	.LASF77:
 3066 00f5 73655F74 		.ascii	"se_tp\000"
ARM GAS  /tmp/cc1wgTGm.s 			page 56


 3066      7000
 3067              	.LASF28:
 3068 00fb 705F6E65 		.ascii	"p_newer\000"
 3068      77657200 
 3069              	.LASF81:
 3070 0103 74625F73 		.ascii	"tb_size\000"
 3070      697A6500 
 3071              	.LASF63:
 3072 010b 725F6E65 		.ascii	"r_newer\000"
 3072      77657200 
 3073              	.LASF46:
 3074 0113 72656761 		.ascii	"regarm_t\000"
 3074      726D5F74 
 3074      00
 3075              	.LASF54:
 3076 011c 76745F70 		.ascii	"vt_prev\000"
 3076      72657600 
 3077              	.LASF76:
 3078 0124 73655F74 		.ascii	"se_time\000"
 3078      696D6500 
 3079              	.LASF22:
 3080 012c 636E745F 		.ascii	"cnt_t\000"
 3080      7400
 3081              	.LASF31:
 3082 0132 705F7374 		.ascii	"p_stklimit\000"
 3082      6B6C696D 
 3082      697400
 3083              	.LASF0:
 3084 013d 756E7369 		.ascii	"unsigned int\000"
 3084      676E6564 
 3084      20696E74 
 3084      00
 3085              	.LASF53:
 3086 014a 76745F6E 		.ascii	"vt_next\000"
 3086      65787400 
 3087              	.LASF96:
 3088 0152 6462675F 		.ascii	"dbg_trace\000"
 3088      74726163 
 3088      6500
 3089              	.LASF9:
 3090 015c 6C6F6E67 		.ascii	"long unsigned int\000"
 3090      20756E73 
 3090      69676E65 
 3090      6420696E 
 3090      7400
 3091              	.LASF86:
 3092 016e 6462675F 		.ascii	"dbg_check_suspend\000"
 3092      63686563 
 3092      6B5F7375 
 3092      7370656E 
 3092      6400
 3093              	.LASF49:
 3094 0180 636F6E74 		.ascii	"context\000"
 3094      65787400 
 3095              	.LASF4:
 3096 0188 73686F72 		.ascii	"short unsigned int\000"
 3096      7420756E 
ARM GAS  /tmp/cc1wgTGm.s 			page 57


 3096      7369676E 
 3096      65642069 
 3096      6E7400
 3097              	.LASF107:
 3098 019b 5F747261 		.ascii	"_trace_init\000"
 3098      63655F69 
 3098      6E697400 
 3099              	.LASF19:
 3100 01a7 6D73675F 		.ascii	"msg_t\000"
 3100      7400
 3101              	.LASF94:
 3102 01ad 63684462 		.ascii	"chDbgCheckClassI\000"
 3102      67436865 
 3102      636B436C 
 3102      61737349 
 3102      00
 3103              	.LASF14:
 3104 01be 746D6F64 		.ascii	"tmode_t\000"
 3104      655F7400 
 3105              	.LASF100:
 3106 01c6 6462675F 		.ascii	"dbg_isr_cnt\000"
 3106      6973725F 
 3106      636E7400 
 3107              	.LASF95:
 3108 01d2 63684462 		.ascii	"chDbgCheckClassS\000"
 3108      67436865 
 3108      636B436C 
 3108      61737353 
 3108      00
 3109              	.LASF45:
 3110 01e3 54687265 		.ascii	"ThreadsList\000"
 3110      6164734C 
 3110      69737400 
 3111              	.LASF20:
 3112 01ef 6576656E 		.ascii	"eventmask_t\000"
 3112      746D6173 
 3112      6B5F7400 
 3113              	.LASF67:
 3114 01fb 4D757465 		.ascii	"Mutex\000"
 3114      7800
 3115              	.LASF47:
 3116 0201 73746B61 		.ascii	"stkalign_t\000"
 3116      6C69676E 
 3116      5F7400
 3117              	.LASF55:
 3118 020c 76745F74 		.ascii	"vt_time\000"
 3118      696D6500 
 3119              	.LASF82:
 3120 0214 74625F70 		.ascii	"tb_ptr\000"
 3120      747200
 3121              	.LASF50:
 3122 021b 73697A65 		.ascii	"sizetype\000"
 3122      74797065 
 3122      00
 3123              	.LASF108:
 3124 0224 706F7274 		.ascii	"port_halt\000"
 3124      5F68616C 
ARM GAS  /tmp/cc1wgTGm.s 			page 58


 3124      7400
 3125              	.LASF56:
 3126 022e 76745F66 		.ascii	"vt_func\000"
 3126      756E6300 
 3127              	.LASF88:
 3128 0236 6462675F 		.ascii	"dbg_check_lock\000"
 3128      63686563 
 3128      6B5F6C6F 
 3128      636B00
 3129              	.LASF80:
 3130 0245 63685F73 		.ascii	"ch_swc_event_t\000"
 3130      77635F65 
 3130      76656E74 
 3130      5F7400
 3131              	.LASF29:
 3132 0254 705F6F6C 		.ascii	"p_older\000"
 3132      64657200 
 3133              	.LASF62:
 3134 025c 725F6374 		.ascii	"r_ctx\000"
 3134      7800
 3135              	.LASF44:
 3136 0262 54687265 		.ascii	"ThreadsQueue\000"
 3136      61647351 
 3136      75657565 
 3136      00
 3137              	.LASF103:
 3138 026f 474E5520 		.ascii	"GNU C 4.7.2\000"
 3138      4320342E 
 3138      372E3200 
 3139              	.LASF65:
 3140 027b 725F6375 		.ascii	"r_current\000"
 3140      7272656E 
 3140      7400
 3141              	.LASF64:
 3142 0285 725F6F6C 		.ascii	"r_older\000"
 3142      64657200 
 3143              	.LASF89:
 3144 028d 6462675F 		.ascii	"dbg_check_unlock\000"
 3144      63686563 
 3144      6B5F756E 
 3144      6C6F636B 
 3144      00
 3145              	.LASF99:
 3146 029e 6462675F 		.ascii	"dbg_trace_buffer\000"
 3146      74726163 
 3146      655F6275 
 3146      66666572 
 3146      00
 3147              	.LASF16:
 3148 02af 74726566 		.ascii	"trefs_t\000"
 3148      735F7400 
 3149              	.LASF83:
 3150 02b7 74625F62 		.ascii	"tb_buffer\000"
 3150      75666665 
 3150      7200
 3151              	.LASF25:
 3152 02c1 705F7072 		.ascii	"p_prev\000"
ARM GAS  /tmp/cc1wgTGm.s 			page 59


 3152      657600
 3153              	.LASF18:
 3154 02c8 74707269 		.ascii	"tprio_t\000"
 3154      6F5F7400 
 3155              	.LASF13:
 3156 02d0 5F426F6F 		.ascii	"_Bool\000"
 3156      6C00
 3157              	.LASF6:
 3158 02d6 696E7433 		.ascii	"int32_t\000"
 3158      325F7400 
 3159              	.LASF2:
 3160 02de 756E7369 		.ascii	"unsigned char\000"
 3160      676E6564 
 3160      20636861 
 3160      7200
 3161              	.LASF102:
 3162 02ec 6462675F 		.ascii	"dbg_panic_msg\000"
 3162      70616E69 
 3162      635F6D73 
 3162      6700
 3163              	.LASF41:
 3164 02fa 705F6D74 		.ascii	"p_mtxlist\000"
 3164      786C6973 
 3164      7400
 3165              	.LASF3:
 3166 0304 73686F72 		.ascii	"short int\000"
 3166      7420696E 
 3166      7400
 3167              	.LASF32:
 3168 030e 705F7374 		.ascii	"p_state\000"
 3168      61746500 
 3169              	.LASF35:
 3170 0316 705F7072 		.ascii	"p_preempt\000"
 3170      65656D70 
 3170      7400
 3171              	.LASF61:
 3172 0320 725F7072 		.ascii	"r_prio\000"
 3172      696F00
 3173              	.LASF74:
 3174 0327 65776D61 		.ascii	"ewmask\000"
 3174      736B00
 3175              	.LASF24:
 3176 032e 705F6E65 		.ascii	"p_next\000"
 3176      787400
 3177              	.LASF33:
 3178 0335 705F666C 		.ascii	"p_flags\000"
 3178      61677300 
 3179              	.LASF23:
 3180 033d 54687265 		.ascii	"Thread\000"
 3180      616400
 3181              	.LASF40:
 3182 0344 705F6570 		.ascii	"p_epending\000"
 3182      656E6469 
 3182      6E6700
 3183              	.LASF8:
 3184 034f 75696E74 		.ascii	"uint32_t\000"
 3184      33325F74 
ARM GAS  /tmp/cc1wgTGm.s 			page 60


 3184      00
 3185              	.LASF60:
 3186 0358 725F7175 		.ascii	"r_queue\000"
 3186      65756500 
 3187              	.LASF52:
 3188 0360 56697274 		.ascii	"VirtualTimer\000"
 3188      75616C54 
 3188      696D6572 
 3188      00
 3189              	.LASF75:
 3190 036d 63686172 		.ascii	"char\000"
 3190      00
 3191              	.LASF70:
 3192 0372 6D5F6E65 		.ascii	"m_next\000"
 3192      787400
 3193              	.LASF21:
 3194 0379 73797374 		.ascii	"systime_t\000"
 3194      696D655F 
 3194      7400
 3195              	.LASF42:
 3196 0383 705F7265 		.ascii	"p_realprio\000"
 3196      616C7072 
 3196      696F00
 3197              	.LASF51:
 3198 038e 76746675 		.ascii	"vtfunc_t\000"
 3198      6E635F74 
 3198      00
 3199              	.LASF101:
 3200 0397 6462675F 		.ascii	"dbg_lock_cnt\000"
 3200      6C6F636B 
 3200      5F636E74 
 3200      00
 3201              	.LASF36:
 3202 03a4 705F7469 		.ascii	"p_time\000"
 3202      6D6500
 3203              	.LASF93:
 3204 03ab 6462675F 		.ascii	"dbg_check_leave_isr\000"
 3204      63686563 
 3204      6B5F6C65 
 3204      6176655F 
 3204      69737200 
 3205              	.LASF48:
 3206 03bf 696E7463 		.ascii	"intctx\000"
 3206      747800
 3207              	.LASF38:
 3208 03c6 705F6D73 		.ascii	"p_msgqueue\000"
 3208      67717565 
 3208      756500
 3209              	.LASF87:
 3210 03d1 6462675F 		.ascii	"dbg_check_enable\000"
 3210      63686563 
 3210      6B5F656E 
 3210      61626C65 
 3210      00
 3211              	.LASF57:
 3212 03e2 76745F70 		.ascii	"vt_par\000"
 3212      617200
ARM GAS  /tmp/cc1wgTGm.s 			page 61


 3213              	.LASF34:
 3214 03e9 705F7265 		.ascii	"p_refs\000"
 3214      667300
 3215              	.LASF66:
 3216 03f0 52656164 		.ascii	"ReadyList\000"
 3216      794C6973 
 3216      7400
 3217              	.LASF92:
 3218 03fa 6462675F 		.ascii	"dbg_check_enter_isr\000"
 3218      63686563 
 3218      6B5F656E 
 3218      7465725F 
 3218      69737200 
 3219              	.LASF98:
 3220 040e 726C6973 		.ascii	"rlist\000"
 3220      7400
 3221              	.LASF5:
 3222 0414 75696E74 		.ascii	"uint8_t\000"
 3222      385F7400 
 3223              	.LASF104:
 3224 041c 2E2E2F2E 		.ascii	"../../ChibiOS/os/kernel/src/chdebug.c\000"
 3224      2E2F4368 
 3224      6962694F 
 3224      532F6F73 
 3224      2F6B6572 
 3225              	.LASF90:
 3226 0442 6462675F 		.ascii	"dbg_check_lock_from_isr\000"
 3226      63686563 
 3226      6B5F6C6F 
 3226      636B5F66 
 3226      726F6D5F 
 3227              	.LASF73:
 3228 045a 77746F62 		.ascii	"wtobjp\000"
 3228      6A7000
 3229              	.LASF30:
 3230 0461 705F6E61 		.ascii	"p_name\000"
 3230      6D6500
 3231              	.LASF58:
 3232 0468 76745F73 		.ascii	"vt_systime\000"
 3232      79737469 
 3232      6D6500
 3233              	.LASF59:
 3234 0473 56544C69 		.ascii	"VTList\000"
 3234      737400
 3235              	.LASF85:
 3236 047a 6462675F 		.ascii	"dbg_check_disable\000"
 3236      63686563 
 3236      6B5F6469 
 3236      7361626C 
 3236      6500
 3237              	.LASF69:
 3238 048c 6D5F6F77 		.ascii	"m_owner\000"
 3238      6E657200 
 3239              	.LASF78:
 3240 0494 73655F77 		.ascii	"se_wtobjp\000"
 3240      746F626A 
 3240      7000
ARM GAS  /tmp/cc1wgTGm.s 			page 62


 3241              	.LASF27:
 3242 049e 705F6374 		.ascii	"p_ctx\000"
 3242      7800
 3243              	.LASF37:
 3244 04a4 705F7761 		.ascii	"p_waiting\000"
 3244      6974696E 
 3244      6700
 3245              		.ident	"GCC: (crosstool-NG 1.17.0 - PSAS ST32F4 GFE) 4.7.2"
ARM GAS  /tmp/cc1wgTGm.s 			page 63


DEFINED SYMBOLS
                            *ABS*:0000000000000000 chdebug.c
     /tmp/cc1wgTGm.s:21     .text.dbg_check_disable:0000000000000000 $t
     /tmp/cc1wgTGm.s:27     .text.dbg_check_disable:0000000000000000 dbg_check_disable
     /tmp/cc1wgTGm.s:64     .text.dbg_check_disable:0000000000000018 $d
     /tmp/cc1wgTGm.s:74     .text.dbg_check_suspend:0000000000000000 $t
     /tmp/cc1wgTGm.s:80     .text.dbg_check_suspend:0000000000000000 dbg_check_suspend
     /tmp/cc1wgTGm.s:116    .text.dbg_check_suspend:0000000000000018 $d
     /tmp/cc1wgTGm.s:126    .text.dbg_check_enable:0000000000000000 $t
     /tmp/cc1wgTGm.s:132    .text.dbg_check_enable:0000000000000000 dbg_check_enable
     /tmp/cc1wgTGm.s:168    .text.dbg_check_enable:0000000000000018 $d
     /tmp/cc1wgTGm.s:178    .text.dbg_check_lock:0000000000000000 $t
     /tmp/cc1wgTGm.s:184    .text.dbg_check_lock:0000000000000000 dbg_check_lock
     /tmp/cc1wgTGm.s:226    .text.dbg_check_lock:0000000000000020 $d
     /tmp/cc1wgTGm.s:234    .text.dbg_check_unlock:0000000000000000 $t
     /tmp/cc1wgTGm.s:240    .text.dbg_check_unlock:0000000000000000 dbg_check_unlock
     /tmp/cc1wgTGm.s:282    .text.dbg_check_unlock:0000000000000024 $d
     /tmp/cc1wgTGm.s:292    .text.dbg_check_lock_from_isr:0000000000000000 $t
     /tmp/cc1wgTGm.s:298    .text.dbg_check_lock_from_isr:0000000000000000 dbg_check_lock_from_isr
     /tmp/cc1wgTGm.s:341    .text.dbg_check_lock_from_isr:0000000000000020 $d
     /tmp/cc1wgTGm.s:349    .text.dbg_check_unlock_from_isr:0000000000000000 $t
     /tmp/cc1wgTGm.s:355    .text.dbg_check_unlock_from_isr:0000000000000000 dbg_check_unlock_from_isr
     /tmp/cc1wgTGm.s:398    .text.dbg_check_unlock_from_isr:0000000000000024 $d
     /tmp/cc1wgTGm.s:408    .text.dbg_check_enter_isr:0000000000000000 $t
     /tmp/cc1wgTGm.s:414    .text.dbg_check_enter_isr:0000000000000000 dbg_check_enter_isr
     /tmp/cc1wgTGm.s:477    .text.dbg_check_enter_isr:0000000000000030 $d
     /tmp/cc1wgTGm.s:486    .text.dbg_check_leave_isr:0000000000000000 $t
     /tmp/cc1wgTGm.s:492    .text.dbg_check_leave_isr:0000000000000000 dbg_check_leave_isr
     /tmp/cc1wgTGm.s:555    .text.dbg_check_leave_isr:0000000000000030 $d
     /tmp/cc1wgTGm.s:564    .text.chDbgCheckClassI:0000000000000000 $t
     /tmp/cc1wgTGm.s:570    .text.chDbgCheckClassI:0000000000000000 chDbgCheckClassI
     /tmp/cc1wgTGm.s:607    .text.chDbgCheckClassI:000000000000001c $d
     /tmp/cc1wgTGm.s:617    .text.chDbgCheckClassS:0000000000000000 $t
     /tmp/cc1wgTGm.s:623    .text.chDbgCheckClassS:0000000000000000 chDbgCheckClassS
     /tmp/cc1wgTGm.s:659    .text.chDbgCheckClassS:000000000000001c $d
     /tmp/cc1wgTGm.s:669    .text._trace_init:0000000000000000 $t
     /tmp/cc1wgTGm.s:675    .text._trace_init:0000000000000000 _trace_init
     /tmp/cc1wgTGm.s:801    .bss.dbg_trace_buffer:0000000000000000 .LANCHOR3
     /tmp/cc1wgTGm.s:695    .text.dbg_trace:0000000000000000 $t
     /tmp/cc1wgTGm.s:701    .text.dbg_trace:0000000000000000 dbg_trace
     /tmp/cc1wgTGm.s:756    .text.dbg_trace:0000000000000034 $d
     /tmp/cc1wgTGm.s:763    .text.chDbgPanic:0000000000000000 $t
     /tmp/cc1wgTGm.s:769    .text.chDbgPanic:0000000000000000 chDbgPanic
     /tmp/cc1wgTGm.s:849    .bss.dbg_panic_msg:0000000000000000 .LANCHOR2
     /tmp/cc1wgTGm.s:852    .bss.dbg_panic_msg:0000000000000000 dbg_panic_msg
     /tmp/cc1wgTGm.s:804    .bss.dbg_trace_buffer:0000000000000000 dbg_trace_buffer
     /tmp/cc1wgTGm.s:845    .bss.dbg_lock_cnt:0000000000000000 dbg_lock_cnt
     /tmp/cc1wgTGm.s:797    .bss.dbg_isr_cnt:0000000000000000 dbg_isr_cnt
     /tmp/cc1wgTGm.s:793    .bss.dbg_isr_cnt:0000000000000000 $d
     /tmp/cc1wgTGm.s:800    .bss.dbg_trace_buffer:0000000000000000 $d
     /tmp/cc1wgTGm.s:807    .rodata.str1.4:0000000000000000 $d
     /tmp/cc1wgTGm.s:841    .bss.dbg_lock_cnt:0000000000000000 $d
     /tmp/cc1wgTGm.s:848    .bss.dbg_panic_msg:0000000000000000 $d
                     .debug_frame:0000000000000010 $d
     /tmp/cc1wgTGm.s:73     .text.dbg_check_disable:0000000000000028 $t
     /tmp/cc1wgTGm.s:125    .text.dbg_check_suspend:0000000000000028 $t
     /tmp/cc1wgTGm.s:177    .text.dbg_check_enable:0000000000000028 $t
ARM GAS  /tmp/cc1wgTGm.s 			page 64


     /tmp/cc1wgTGm.s:291    .text.dbg_check_unlock:0000000000000034 $t
     /tmp/cc1wgTGm.s:407    .text.dbg_check_unlock_from_isr:0000000000000034 $t
     /tmp/cc1wgTGm.s:616    .text.chDbgCheckClassI:000000000000002c $t
     /tmp/cc1wgTGm.s:668    .text.chDbgCheckClassS:000000000000002c $t

UNDEFINED SYMBOLS
port_halt
vtlist
rlist
