ARM GAS  /tmp/ccvvLvGL.s 			page 1


   1              		.syntax unified
   2              		.cpu cortex-m4
   3              		.eabi_attribute 27, 3
   4              		.eabi_attribute 28, 1
   5              		.fpu fpv4-sp-d16
   6              		.eabi_attribute 20, 1
   7              		.eabi_attribute 21, 1
   8              		.eabi_attribute 23, 3
   9              		.eabi_attribute 24, 1
  10              		.eabi_attribute 25, 1
  11              		.eabi_attribute 26, 1
  12              		.eabi_attribute 30, 2
  13              		.eabi_attribute 34, 1
  14              		.eabi_attribute 18, 4
  15              		.thumb
  16              		.file	"chheap.c"
  17              		.text
  18              	.Ltext0:
  19              		.cfi_sections	.debug_frame
  20              		.section	.text._heap_init,"ax",%progbits
  21              		.align	2
  22              		.p2align 4,,15
  23              		.global	_heap_init
  24              		.thumb
  25              		.thumb_func
  26              		.type	_heap_init, %function
  27              	_heap_init:
  28              	.LFB7:
  29              		.file 1 "../../ChibiOS/os/kernel/src/chheap.c"
  30              		.loc 1 68 0
  31              		.cfi_startproc
  32              		@ args = 0, pretend = 0, frame = 0
  33              		@ frame_needed = 0, uses_anonymous_args = 0
  34              		@ link register save eliminated.
  35              		.loc 1 69 0
  36 0000 40F20003 		movw	r3, #:lower16:.LANCHOR0
  37 0004 C0F20003 		movt	r3, #:upper16:.LANCHOR0
  38 0008 40F20001 		movw	r1, #:lower16:chCoreAlloc
  39              		.loc 1 70 0
  40 000c 0022     		movs	r2, #0
  41              		.loc 1 69 0
  42 000e C0F20001 		movt	r1, #:upper16:chCoreAlloc
  43              		.loc 1 73 0
  44 0012 03F11000 		add	r0, r3, #16
  45              		.loc 1 69 0
  46 0016 1960     		str	r1, [r3, #0]
  47              		.loc 1 70 0
  48 0018 9A60     		str	r2, [r3, #8]
  49              		.loc 1 71 0
  50 001a DA60     		str	r2, [r3, #12]
  51              		.loc 1 77 0
  52              		.loc 1 73 0
  53 001c FFF7FEBF 		b	chMtxInit
  54              	.LVL0:
  55              		.cfi_endproc
  56              	.LFE7:
  57              		.size	_heap_init, .-_heap_init
ARM GAS  /tmp/ccvvLvGL.s 			page 2


  58              		.section	.text.chHeapInit,"ax",%progbits
  59              		.align	2
  60              		.p2align 4,,15
  61              		.global	chHeapInit
  62              		.thumb
  63              		.thumb_func
  64              		.type	chHeapInit, %function
  65              	chHeapInit:
  66              	.LFB8:
  67              		.loc 1 92 0
  68              		.cfi_startproc
  69              		@ args = 0, pretend = 0, frame = 0
  70              		@ frame_needed = 0, uses_anonymous_args = 0
  71              	.LVL1:
  72 0000 70B5     		push	{r4, r5, r6, lr}
  73              	.LCFI0:
  74              		.cfi_def_cfa_offset 16
  75              		.cfi_offset 4, -16
  76              		.cfi_offset 5, -12
  77              		.cfi_offset 6, -8
  78              		.cfi_offset 14, -4
  79              		.loc 1 92 0
  80 0002 1646     		mov	r6, r2
  81              		.loc 1 95 0
  82 0004 4A07     		lsls	r2, r1, #29
  83              	.LVL2:
  84              		.loc 1 92 0
  85 0006 0D46     		mov	r5, r1
  86 0008 0446     		mov	r4, r0
  87              		.loc 1 95 0
  88 000a 01D1     		bne	.L3
  89              		.loc 1 95 0 is_stmt 0 discriminator 2
  90 000c 7307     		lsls	r3, r6, #29
  91 000e 02D0     		beq	.L4
  92              	.L3:
  93              		.loc 1 95 0 discriminator 1
  94 0010 0748     		ldr	r0, .L9
  95              	.LVL3:
  96 0012 FFF7FEFF 		bl	chDbgPanic
  97              	.LVL4:
  98              	.L4:
  99              		.loc 1 97 0 is_stmt 1
 100 0016 0023     		movs	r3, #0
 101              		.loc 1 101 0
 102 0018 083E     		subs	r6, r6, #8
 103              	.LVL5:
 104              		.loc 1 103 0
 105 001a 04F11000 		add	r0, r4, #16
 106              		.loc 1 97 0
 107 001e 2360     		str	r3, [r4, #0]
 108              	.LVL6:
 109              		.loc 1 98 0
 110 0020 A560     		str	r5, [r4, #8]
 111              		.loc 1 99 0
 112 0022 E360     		str	r3, [r4, #12]
 113              		.loc 1 101 0
 114 0024 85E84800 		stmia	r5, {r3, r6}
ARM GAS  /tmp/ccvvLvGL.s 			page 3


 115              		.loc 1 107 0
 116 0028 BDE87040 		pop	{r4, r5, r6, lr}
 117              		.loc 1 103 0
 118 002c FFF7FEBF 		b	chMtxInit
 119              	.LVL7:
 120              	.L10:
 121              		.align	2
 122              	.L9:
 123 0030 00000000 		.word	.LC0
 124              		.cfi_endproc
 125              	.LFE8:
 126              		.size	chHeapInit, .-chHeapInit
 127 0034 AFF30080 		.section	.text.chHeapAlloc,"ax",%progbits
 127      AFF30080 
 127      AFF30080 
 128              		.align	2
 129              		.p2align 4,,15
 130              		.global	chHeapAlloc
 131              		.thumb
 132              		.thumb_func
 133              		.type	chHeapAlloc, %function
 134              	chHeapAlloc:
 135              	.LFB9:
 136              		.loc 1 125 0
 137              		.cfi_startproc
 138              		@ args = 0, pretend = 0, frame = 0
 139              		@ frame_needed = 0, uses_anonymous_args = 0
 140              	.LVL8:
 141 0000 F8B5     		push	{r3, r4, r5, r6, r7, lr}
 142              	.LCFI1:
 143              		.cfi_def_cfa_offset 24
 144              		.cfi_offset 3, -24
 145              		.cfi_offset 4, -20
 146              		.cfi_offset 5, -16
 147              		.cfi_offset 6, -12
 148              		.cfi_offset 7, -8
 149              		.cfi_offset 14, -4
 150              		.loc 1 129 0
 151 0002 204E     		ldr	r6, .L27
 152 0004 0028     		cmp	r0, #0
 153 0006 18BF     		it	ne
 154 0008 0646     		movne	r6, r0
 155              	.LVL9:
 156              		.loc 1 131 0
 157 000a 0731     		adds	r1, r1, #7
 158              	.LVL10:
 159              		.loc 1 133 0
 160 000c 06F11000 		add	r0, r6, #16
 161              		.loc 1 131 0
 162 0010 21F00705 		bic	r5, r1, #7
 163              	.LVL11:
 164              		.loc 1 132 0
 165 0014 06F10804 		add	r4, r6, #8
 166              	.LVL12:
 167              		.loc 1 133 0
 168 0018 FFF7FEFF 		bl	chMtxLock
 169              	.LVL13:
ARM GAS  /tmp/ccvvLvGL.s 			page 4


 170              		.loc 1 135 0
 171 001c 00E0     		b	.L13
 172              	.LVL14:
 173              	.L21:
 174              		.loc 1 137 0
 175 001e 1C46     		mov	r4, r3
 176              	.LVL15:
 177              	.L13:
 178              		.loc 1 135 0 discriminator 1
 179 0020 2368     		ldr	r3, [r4, #0]
 180              	.LVL16:
 181 0022 FBB1     		cbz	r3, .L25
 182              		.loc 1 137 0
 183 0024 5A68     		ldr	r2, [r3, #4]
 184 0026 9542     		cmp	r5, r2
 185 0028 F9D8     		bhi	.L21
 186              		.loc 1 138 0
 187 002a 05F10801 		add	r1, r5, #8
 188 002e 9142     		cmp	r1, r2
 189 0030 15D8     		bhi	.L26
 190              		.loc 1 148 0
 191 0032 4FF6F870 		movw	r0, #65528
 192 0036 CFF6FF70 		movt	r0, 65535
 193 003a 401B     		subs	r0, r0, r5
 194              		.loc 1 146 0
 195 003c 03EB010E 		add	lr, r3, r1
 196              	.LVL17:
 197              		.loc 1 148 0
 198 0040 8218     		adds	r2, r0, r2
 199              		.loc 1 147 0
 200 0042 1868     		ldr	r0, [r3, #0]
 201              		.loc 1 148 0
 202 0044 CEF80420 		str	r2, [lr, #4]
 203              		.loc 1 147 0
 204 0048 5850     		str	r0, [r3, r1]
 205              		.loc 1 150 0
 206 004a 5D60     		str	r5, [r3, #4]
 207              		.loc 1 149 0
 208 004c C4F800E0 		str	lr, [r4, #0]
 209              	.LVL18:
 210              	.L15:
 211              		.loc 1 152 0
 212 0050 1C46     		mov	r4, r3
 213              	.LVL19:
 214 0052 44F8086B 		str	r6, [r4], #8
 215              		.loc 1 154 0
 216 0056 FFF7FEFF 		bl	chMtxUnlock
 217              	.LVL20:
 218              	.L16:
 219              		.loc 1 174 0
 220 005a 2046     		mov	r0, r4
 221 005c F8BD     		pop	{r3, r4, r5, r6, r7, pc}
 222              	.LVL21:
 223              	.L26:
 224              		.loc 1 142 0
 225 005e 1A68     		ldr	r2, [r3, #0]
 226 0060 2260     		str	r2, [r4, #0]
ARM GAS  /tmp/ccvvLvGL.s 			page 5


 227 0062 F5E7     		b	.L15
 228              	.L25:
 229              		.loc 1 160 0
 230 0064 FFF7FEFF 		bl	chMtxUnlock
 231              	.LVL22:
 232              		.loc 1 164 0
 233 0068 3368     		ldr	r3, [r6, #0]
 234 006a 4BB1     		cbz	r3, .L19
 235              		.loc 1 165 0
 236 006c 05F10800 		add	r0, r5, #8
 237 0070 9847     		blx	r3
 238              	.LVL23:
 239              		.loc 1 166 0
 240 0072 28B1     		cbz	r0, .L19
 241              		.loc 1 170 0
 242 0074 00F10804 		add	r4, r0, #8
 243              	.LVL24:
 244              		.loc 1 167 0
 245 0078 0660     		str	r6, [r0, #0]
 246              		.loc 1 168 0
 247 007a 4560     		str	r5, [r0, #4]
 248              	.LVL25:
 249              		.loc 1 174 0
 250 007c 2046     		mov	r0, r4
 251 007e F8BD     		pop	{r3, r4, r5, r6, r7, pc}
 252              	.LVL26:
 253              	.L19:
 254              		.loc 1 173 0
 255 0080 0024     		movs	r4, #0
 256              	.LVL27:
 257 0082 EAE7     		b	.L16
 258              	.L28:
 259              		.align	2
 260              	.L27:
 261 0084 00000000 		.word	.LANCHOR0
 262              		.cfi_endproc
 263              	.LFE9:
 264              		.size	chHeapAlloc, .-chHeapAlloc
 265 0088 AFF30080 		.section	.text.chHeapFree,"ax",%progbits
 265      AFF30080 
 266              		.align	2
 267              		.p2align 4,,15
 268              		.global	chHeapFree
 269              		.thumb
 270              		.thumb_func
 271              		.type	chHeapFree, %function
 272              	chHeapFree:
 273              	.LFB10:
 274              		.loc 1 187 0
 275              		.cfi_startproc
 276              		@ args = 0, pretend = 0, frame = 0
 277              		@ frame_needed = 0, uses_anonymous_args = 0
 278              	.LVL28:
 279 0000 F8B5     		push	{r3, r4, r5, r6, r7, lr}
 280              	.LCFI2:
 281              		.cfi_def_cfa_offset 24
 282              		.cfi_offset 3, -24
ARM GAS  /tmp/ccvvLvGL.s 			page 6


 283              		.cfi_offset 4, -20
 284              		.cfi_offset 5, -16
 285              		.cfi_offset 6, -12
 286              		.cfi_offset 7, -8
 287              		.cfi_offset 14, -4
 288              		.loc 1 191 0
 289 0002 0746     		mov	r7, r0
 290 0004 0028     		cmp	r0, #0
 291 0006 4BD0     		beq	.L42
 292              	.LVL29:
 293              	.L30:
 294              		.loc 1 194 0
 295 0008 57F8086C 		ldr	r6, [r7, #-8]
 296              		.loc 1 196 0
 297 000c 06F11000 		add	r0, r6, #16
 298 0010 FFF7FEFF 		bl	chMtxLock
 299              	.LVL30:
 300              		.loc 1 195 0
 301 0014 0836     		adds	r6, r6, #8
 302              		.loc 1 193 0
 303 0016 A7F10805 		sub	r5, r7, #8
 304              	.LVL31:
 305              		.loc 1 195 0
 306 001a 3446     		mov	r4, r6
 307              	.LVL32:
 308              	.L38:
 309              		.loc 1 199 0
 310 001c AC42     		cmp	r4, r5
 311 001e 04D8     		bhi	.L31
 312              		.loc 1 199 0 is_stmt 0 discriminator 1
 313 0020 6368     		ldr	r3, [r4, #4]
 314 0022 0833     		adds	r3, r3, #8
 315 0024 E318     		adds	r3, r4, r3
 316 0026 9D42     		cmp	r5, r3
 317 0028 1FD3     		bcc	.L43
 318              	.L31:
 319              		.loc 1 203 0 is_stmt 1
 320 002a B442     		cmp	r4, r6
 321              		.loc 1 204 0
 322 002c 2368     		ldr	r3, [r4, #0]
 323              		.loc 1 203 0
 324 002e 01D0     		beq	.L32
 325              		.loc 1 203 0 is_stmt 0 discriminator 2
 326 0030 AC42     		cmp	r4, r5
 327 0032 02D2     		bcs	.L35
 328              	.L32:
 329              		.loc 1 203 0 discriminator 1
 330 0034 1BB1     		cbz	r3, .L34
 331              		.loc 1 204 0 is_stmt 1
 332 0036 9D42     		cmp	r5, r3
 333 0038 01D3     		bcc	.L34
 334              	.L35:
 335              	.LVL33:
 336              		.loc 1 221 0
 337 003a 1C46     		mov	r4, r3
 338              		.loc 1 222 0
 339 003c EEE7     		b	.L38
ARM GAS  /tmp/ccvvLvGL.s 			page 7


 340              	.LVL34:
 341              	.L34:
 342              		.loc 1 209 0
 343 003e 57F8042C 		ldr	r2, [r7, #-4]
 344              		.loc 1 206 0
 345 0042 47F8083C 		str	r3, [r7, #-8]
 346              		.loc 1 207 0
 347 0046 2560     		str	r5, [r4, #0]
 348              		.loc 1 209 0
 349 0048 02F10803 		add	r3, r2, #8
 350 004c 57F8080C 		ldr	r0, [r7, #-8]
 351 0050 E918     		adds	r1, r5, r3
 352 0052 8142     		cmp	r1, r0
 353 0054 0DD0     		beq	.L44
 354              		.loc 1 214 0
 355 0056 6368     		ldr	r3, [r4, #4]
 356 0058 03F10802 		add	r2, r3, #8
 357 005c A218     		adds	r2, r4, r2
 358 005e 9542     		cmp	r5, r2
 359 0060 15D0     		beq	.L45
 360              	.L37:
 361              		.loc 1 226 0
 362 0062 BDE8F840 		pop	{r3, r4, r5, r6, r7, lr}
 363              		.loc 1 224 0
 364 0066 FFF7FEBF 		b	chMtxUnlock
 365              	.LVL35:
 366              	.L43:
 367              		.loc 1 199 0 discriminator 2
 368 006a 0F48     		ldr	r0, .L46
 369 006c FFF7FEFF 		bl	chDbgPanic
 370              	.LVL36:
 371 0070 DBE7     		b	.L31
 372              	.L44:
 373              		.loc 1 211 0
 374 0072 4968     		ldr	r1, [r1, #4]
 375              		.loc 1 212 0
 376 0074 EB58     		ldr	r3, [r5, r3]
 377              		.loc 1 211 0
 378 0076 5218     		adds	r2, r2, r1
 379 0078 0832     		adds	r2, r2, #8
 380 007a 47F8042C 		str	r2, [r7, #-4]
 381              		.loc 1 212 0
 382 007e 47F8083C 		str	r3, [r7, #-8]
 383              		.loc 1 214 0
 384 0082 6368     		ldr	r3, [r4, #4]
 385 0084 03F10802 		add	r2, r3, #8
 386 0088 A218     		adds	r2, r4, r2
 387 008a 9542     		cmp	r5, r2
 388 008c E9D1     		bne	.L37
 389              	.L45:
 390              		.loc 1 216 0
 391 008e 57F8041C 		ldr	r1, [r7, #-4]
 392              		.loc 1 217 0
 393 0092 57F8082C 		ldr	r2, [r7, #-8]
 394              		.loc 1 216 0
 395 0096 5B18     		adds	r3, r3, r1
 396 0098 0833     		adds	r3, r3, #8
ARM GAS  /tmp/ccvvLvGL.s 			page 8


 397              		.loc 1 217 0
 398 009a 84E80C00 		stmia	r4, {r2, r3}
 399 009e E0E7     		b	.L37
 400              	.LVL37:
 401              	.L42:
 402              		.loc 1 191 0 discriminator 1
 403 00a0 0248     		ldr	r0, .L46+4
 404              	.LVL38:
 405 00a2 FFF7FEFF 		bl	chDbgPanic
 406              	.LVL39:
 407 00a6 AFE7     		b	.L30
 408              	.L47:
 409              		.align	2
 410              	.L46:
 411 00a8 20000000 		.word	.LC2
 412 00ac 10000000 		.word	.LC1
 413              		.cfi_endproc
 414              	.LFE10:
 415              		.size	chHeapFree, .-chHeapFree
 416              		.section	.text.chHeapStatus,"ax",%progbits
 417              		.align	2
 418              		.p2align 4,,15
 419              		.global	chHeapStatus
 420              		.thumb
 421              		.thumb_func
 422              		.type	chHeapStatus, %function
 423              	chHeapStatus:
 424              	.LFB11:
 425              		.loc 1 243 0
 426              		.cfi_startproc
 427              		@ args = 0, pretend = 0, frame = 0
 428              		@ frame_needed = 0, uses_anonymous_args = 0
 429              	.LVL40:
 430 0000 38B5     		push	{r3, r4, r5, lr}
 431              	.LCFI3:
 432              		.cfi_def_cfa_offset 16
 433              		.cfi_offset 3, -16
 434              		.cfi_offset 4, -12
 435              		.cfi_offset 5, -8
 436              		.cfi_offset 14, -4
 437              		.loc 1 248 0
 438 0002 0E4C     		ldr	r4, .L59
 439 0004 0028     		cmp	r0, #0
 440 0006 18BF     		it	ne
 441 0008 0446     		movne	r4, r0
 442              	.LVL41:
 443              		.loc 1 250 0
 444 000a 04F11000 		add	r0, r4, #16
 445              		.loc 1 243 0
 446 000e 0D46     		mov	r5, r1
 447              		.loc 1 250 0
 448 0010 FFF7FEFF 		bl	chMtxLock
 449              	.LVL42:
 450              		.loc 1 253 0
 451 0014 A368     		ldr	r3, [r4, #8]
 452 0016 6BB1     		cbz	r3, .L54
 453 0018 0022     		movs	r2, #0
ARM GAS  /tmp/ccvvLvGL.s 			page 9


 454 001a 1446     		mov	r4, r2
 455              	.LVL43:
 456              	.L51:
 457              		.loc 1 254 0 discriminator 2
 458 001c 5868     		ldr	r0, [r3, #4]
 459              		.loc 1 253 0 discriminator 2
 460 001e 1B68     		ldr	r3, [r3, #0]
 461              		.loc 1 254 0 discriminator 2
 462 0020 1218     		adds	r2, r2, r0
 463              	.LVL44:
 464              		.loc 1 253 0 discriminator 2
 465 0022 0134     		adds	r4, r4, #1
 466              	.LVL45:
 467 0024 002B     		cmp	r3, #0
 468 0026 F9D1     		bne	.L51
 469              	.LVL46:
 470              	.L50:
 471              		.loc 1 255 0
 472 0028 05B1     		cbz	r5, .L52
 473              		.loc 1 256 0
 474 002a 2A60     		str	r2, [r5, #0]
 475              	.L52:
 476              		.loc 1 258 0
 477 002c FFF7FEFF 		bl	chMtxUnlock
 478              	.LVL47:
 479              		.loc 1 260 0
 480 0030 2046     		mov	r0, r4
 481 0032 38BD     		pop	{r3, r4, r5, pc}
 482              	.LVL48:
 483              	.L54:
 484              		.loc 1 252 0
 485 0034 1A46     		mov	r2, r3
 486              		.loc 1 253 0
 487 0036 1C46     		mov	r4, r3
 488              	.LVL49:
 489 0038 F6E7     		b	.L50
 490              	.L60:
 491 003a 00BF     		.align	2
 492              	.L59:
 493 003c 00000000 		.word	.LANCHOR0
 494              		.cfi_endproc
 495              	.LFE11:
 496              		.size	chHeapStatus, .-chHeapStatus
 497              		.section	.rodata.str1.4,"aMS",%progbits,1
 498              		.align	2
 499              	.LC0:
 500 0000 22636848 		.ascii	"\"chHeapInit\"()\000"
 500      65617049 
 500      6E697422 
 500      282900
 501 000f 00       		.space	1
 502              	.LC1:
 503 0010 22636848 		.ascii	"\"chHeapFree\"()\000"
 503      65617046 
 503      72656522 
 503      282900
 504 001f 00       		.space	1
ARM GAS  /tmp/ccvvLvGL.s 			page 10


 505              	.LC2:
 506 0020 63684865 		.ascii	"chHeapFree(), #1\000"
 506      61704672 
 506      65652829 
 506      2C202331 
 506      00
 507 0031 000000   		.section	.bss.default_heap,"aw",%nobits
 508              		.align	3
 509              		.set	.LANCHOR0,. + 0
 510              		.type	default_heap, %object
 511              		.size	default_heap, 32
 512              	default_heap:
 513 0000 00000000 		.space	32
 513      00000000 
 513      00000000 
 513      00000000 
 513      00000000 
 514              		.text
 515              	.Letext0:
 516              		.file 2 "/opt/psas/x-tools/stm32f407/arm-psas-eabi/bin/../lib/gcc/arm-psas-eabi/4.7.2/include/stdd
 517              		.file 3 "/opt/psas/x-tools/stm32f407/arm-psas-eabi/bin/../lib/gcc/arm-psas-eabi/4.7.2/../../../../
 518              		.file 4 "../../ChibiOS/os/ports/GCC/ARMCMx/chtypes.h"
 519              		.file 5 "../../ChibiOS/os/kernel/include/chlists.h"
 520              		.file 6 "../../ChibiOS/os/kernel/include/chthreads.h"
 521              		.file 7 "../../ChibiOS/os/ports/GCC/ARMCMx/chcore_v7m.h"
 522              		.file 8 "../../ChibiOS/os/kernel/include/chmtx.h"
 523              		.file 9 "../../ChibiOS/os/kernel/include/chmemcore.h"
 524              		.file 10 "../../ChibiOS/os/kernel/include/chheap.h"
 525              		.file 11 "../../ChibiOS/os/kernel/include/chdebug.h"
 526              		.section	.debug_info,"",%progbits
 527              	.Ldebug_info0:
 528 0000 9C070000 		.4byte	0x79c
 529 0004 0200     		.2byte	0x2
 530 0006 00000000 		.4byte	.Ldebug_abbrev0
 531 000a 04       		.byte	0x4
 532 000b 01       		.uleb128 0x1
 533 000c EC010000 		.4byte	.LASF81
 534 0010 01       		.byte	0x1
 535 0011 07010000 		.4byte	.LASF82
 536 0015 00000000 		.4byte	.LASF83
 537 0019 00000000 		.4byte	.Ldebug_ranges0+0
 538 001d 00000000 		.4byte	0
 539 0021 00000000 		.4byte	0
 540 0025 00000000 		.4byte	.Ldebug_line0
 541 0029 02       		.uleb128 0x2
 542 002a 04       		.byte	0x4
 543 002b 05       		.byte	0x5
 544 002c 696E7400 		.ascii	"int\000"
 545 0030 03       		.uleb128 0x3
 546 0031 31000000 		.4byte	.LASF2
 547 0035 02       		.byte	0x2
 548 0036 D5       		.byte	0xd5
 549 0037 3B000000 		.4byte	0x3b
 550 003b 04       		.uleb128 0x4
 551 003c 04       		.byte	0x4
 552 003d 07       		.byte	0x7
 553 003e 4E010000 		.4byte	.LASF0
ARM GAS  /tmp/ccvvLvGL.s 			page 11


 554 0042 04       		.uleb128 0x4
 555 0043 01       		.byte	0x1
 556 0044 06       		.byte	0x6
 557 0045 BE000000 		.4byte	.LASF1
 558 0049 03       		.uleb128 0x3
 559 004a 1A030000 		.4byte	.LASF3
 560 004e 03       		.byte	0x3
 561 004f 2A       		.byte	0x2a
 562 0050 54000000 		.4byte	0x54
 563 0054 04       		.uleb128 0x4
 564 0055 01       		.byte	0x1
 565 0056 08       		.byte	0x8
 566 0057 28020000 		.4byte	.LASF4
 567 005b 04       		.uleb128 0x4
 568 005c 02       		.byte	0x2
 569 005d 05       		.byte	0x5
 570 005e 4B020000 		.4byte	.LASF5
 571 0062 04       		.uleb128 0x4
 572 0063 02       		.byte	0x2
 573 0064 07       		.byte	0x7
 574 0065 7A010000 		.4byte	.LASF6
 575 0069 03       		.uleb128 0x3
 576 006a 20020000 		.4byte	.LASF7
 577 006e 03       		.byte	0x3
 578 006f 4F       		.byte	0x4f
 579 0070 74000000 		.4byte	0x74
 580 0074 04       		.uleb128 0x4
 581 0075 04       		.byte	0x4
 582 0076 05       		.byte	0x5
 583 0077 F5000000 		.4byte	.LASF8
 584 007b 03       		.uleb128 0x3
 585 007c A7020000 		.4byte	.LASF9
 586 0080 03       		.byte	0x3
 587 0081 50       		.byte	0x50
 588 0082 86000000 		.4byte	0x86
 589 0086 04       		.uleb128 0x4
 590 0087 04       		.byte	0x4
 591 0088 07       		.byte	0x7
 592 0089 5B010000 		.4byte	.LASF10
 593 008d 04       		.uleb128 0x4
 594 008e 08       		.byte	0x8
 595 008f 05       		.byte	0x5
 596 0090 B0000000 		.4byte	.LASF11
 597 0094 03       		.uleb128 0x3
 598 0095 3F000000 		.4byte	.LASF12
 599 0099 03       		.byte	0x3
 600 009a 78       		.byte	0x78
 601 009b 9F000000 		.4byte	0x9f
 602 009f 04       		.uleb128 0x4
 603 00a0 08       		.byte	0x8
 604 00a1 07       		.byte	0x7
 605 00a2 55000000 		.4byte	.LASF13
 606 00a6 04       		.uleb128 0x4
 607 00a7 01       		.byte	0x1
 608 00a8 02       		.byte	0x2
 609 00a9 1A020000 		.4byte	.LASF14
 610 00ad 03       		.uleb128 0x3
ARM GAS  /tmp/ccvvLvGL.s 			page 12


 611 00ae 93010000 		.4byte	.LASF15
 612 00b2 04       		.byte	0x4
 613 00b3 25       		.byte	0x25
 614 00b4 49000000 		.4byte	0x49
 615 00b8 03       		.uleb128 0x3
 616 00b9 FE000000 		.4byte	.LASF16
 617 00bd 04       		.byte	0x4
 618 00be 26       		.byte	0x26
 619 00bf 49000000 		.4byte	0x49
 620 00c3 03       		.uleb128 0x3
 621 00c4 03020000 		.4byte	.LASF17
 622 00c8 04       		.byte	0x4
 623 00c9 27       		.byte	0x27
 624 00ca 49000000 		.4byte	0x49
 625 00ce 03       		.uleb128 0x3
 626 00cf EB000000 		.4byte	.LASF18
 627 00d3 04       		.byte	0x4
 628 00d4 28       		.byte	0x28
 629 00d5 49000000 		.4byte	0x49
 630 00d9 03       		.uleb128 0x3
 631 00da 12020000 		.4byte	.LASF19
 632 00de 04       		.byte	0x4
 633 00df 29       		.byte	0x29
 634 00e0 7B000000 		.4byte	0x7b
 635 00e4 03       		.uleb128 0x3
 636 00e5 8D010000 		.4byte	.LASF20
 637 00e9 04       		.byte	0x4
 638 00ea 2A       		.byte	0x2a
 639 00eb 69000000 		.4byte	0x69
 640 00ef 03       		.uleb128 0x3
 641 00f0 A7010000 		.4byte	.LASF21
 642 00f4 04       		.byte	0x4
 643 00f5 2C       		.byte	0x2c
 644 00f6 7B000000 		.4byte	0x7b
 645 00fa 03       		.uleb128 0x3
 646 00fb DB020000 		.4byte	.LASF22
 647 00ff 04       		.byte	0x4
 648 0100 2E       		.byte	0x2e
 649 0101 7B000000 		.4byte	0x7b
 650 0105 03       		.uleb128 0x3
 651 0106 89020000 		.4byte	.LASF23
 652 010a 05       		.byte	0x5
 653 010b 23       		.byte	0x23
 654 010c 10010000 		.4byte	0x110
 655 0110 05       		.uleb128 0x5
 656 0111 89020000 		.4byte	.LASF23
 657 0115 4C       		.byte	0x4c
 658 0116 06       		.byte	0x6
 659 0117 57       		.byte	0x57
 660 0118 43020000 		.4byte	0x243
 661 011c 06       		.uleb128 0x6
 662 011d 7A020000 		.4byte	.LASF24
 663 0121 06       		.byte	0x6
 664 0122 58       		.byte	0x58
 665 0123 68020000 		.4byte	0x268
 666 0127 02       		.byte	0x2
 667 0128 23       		.byte	0x23
ARM GAS  /tmp/ccvvLvGL.s 			page 13


 668 0129 00       		.uleb128 0
 669 012a 06       		.uleb128 0x6
 670 012b 0B020000 		.4byte	.LASF25
 671 012f 06       		.byte	0x6
 672 0130 5A       		.byte	0x5a
 673 0131 68020000 		.4byte	0x268
 674 0135 02       		.byte	0x2
 675 0136 23       		.byte	0x23
 676 0137 04       		.uleb128 0x4
 677 0138 06       		.uleb128 0x6
 678 0139 A9000000 		.4byte	.LASF26
 679 013d 06       		.byte	0x6
 680 013e 5C       		.byte	0x5c
 681 013f D9000000 		.4byte	0xd9
 682 0143 02       		.byte	0x2
 683 0144 23       		.byte	0x23
 684 0145 08       		.uleb128 0x8
 685 0146 06       		.uleb128 0x6
 686 0147 49030000 		.4byte	.LASF27
 687 014b 06       		.byte	0x6
 688 014c 5D       		.byte	0x5d
 689 014d 41030000 		.4byte	0x341
 690 0151 02       		.byte	0x2
 691 0152 23       		.byte	0x23
 692 0153 0C       		.uleb128 0xc
 693 0154 06       		.uleb128 0x6
 694 0155 2C010000 		.4byte	.LASF28
 695 0159 06       		.byte	0x6
 696 015a 5F       		.byte	0x5f
 697 015b 68020000 		.4byte	0x268
 698 015f 02       		.byte	0x2
 699 0160 23       		.byte	0x23
 700 0161 10       		.uleb128 0x10
 701 0162 06       		.uleb128 0x6
 702 0163 D7010000 		.4byte	.LASF29
 703 0167 06       		.byte	0x6
 704 0168 60       		.byte	0x60
 705 0169 68020000 		.4byte	0x268
 706 016d 02       		.byte	0x2
 707 016e 23       		.byte	0x23
 708 016f 14       		.uleb128 0x14
 709 0170 06       		.uleb128 0x6
 710 0171 2F030000 		.4byte	.LASF30
 711 0175 06       		.byte	0x6
 712 0176 67       		.byte	0x67
 713 0177 BF040000 		.4byte	0x4bf
 714 017b 02       		.byte	0x2
 715 017c 23       		.byte	0x23
 716 017d 18       		.uleb128 0x18
 717 017e 06       		.uleb128 0x6
 718 017f 43010000 		.4byte	.LASF31
 719 0183 06       		.byte	0x6
 720 0184 6D       		.byte	0x6d
 721 0185 D1040000 		.4byte	0x4d1
 722 0189 02       		.byte	0x2
 723 018a 23       		.byte	0x23
 724 018b 1C       		.uleb128 0x1c
ARM GAS  /tmp/ccvvLvGL.s 			page 14


 725 018c 06       		.uleb128 0x6
 726 018d 55020000 		.4byte	.LASF32
 727 0191 06       		.byte	0x6
 728 0192 72       		.byte	0x72
 729 0193 B8000000 		.4byte	0xb8
 730 0197 02       		.byte	0x2
 731 0198 23       		.byte	0x23
 732 0199 20       		.uleb128 0x20
 733 019a 06       		.uleb128 0x6
 734 019b 81020000 		.4byte	.LASF33
 735 019f 06       		.byte	0x6
 736 01a0 76       		.byte	0x76
 737 01a1 AD000000 		.4byte	0xad
 738 01a5 02       		.byte	0x2
 739 01a6 23       		.byte	0x23
 740 01a7 21       		.uleb128 0x21
 741 01a8 06       		.uleb128 0x6
 742 01a9 13030000 		.4byte	.LASF34
 743 01ad 06       		.byte	0x6
 744 01ae 7B       		.byte	0x7b
 745 01af C3000000 		.4byte	0xc3
 746 01b3 02       		.byte	0x2
 747 01b4 23       		.byte	0x23
 748 01b5 22       		.uleb128 0x22
 749 01b6 06       		.uleb128 0x6
 750 01b7 5D020000 		.4byte	.LASF35
 751 01bb 06       		.byte	0x6
 752 01bc 81       		.byte	0x81
 753 01bd CE000000 		.4byte	0xce
 754 01c1 02       		.byte	0x2
 755 01c2 23       		.byte	0x23
 756 01c3 23       		.uleb128 0x23
 757 01c4 06       		.uleb128 0x6
 758 01c5 F0020000 		.4byte	.LASF36
 759 01c9 06       		.byte	0x6
 760 01ca 88       		.byte	0x88
 761 01cb 6B030000 		.4byte	0x36b
 762 01cf 02       		.byte	0x2
 763 01d0 23       		.byte	0x23
 764 01d1 24       		.uleb128 0x24
 765 01d2 07       		.uleb128 0x7
 766 01d3 705F7500 		.ascii	"p_u\000"
 767 01d7 06       		.byte	0x6
 768 01d8 AD       		.byte	0xad
 769 01d9 8A040000 		.4byte	0x48a
 770 01dd 02       		.byte	0x2
 771 01de 23       		.byte	0x23
 772 01df 28       		.uleb128 0x28
 773 01e0 06       		.uleb128 0x6
 774 01e1 4F030000 		.4byte	.LASF37
 775 01e5 06       		.byte	0x6
 776 01e6 B2       		.byte	0xb2
 777 01e7 90020000 		.4byte	0x290
 778 01eb 02       		.byte	0x2
 779 01ec 23       		.byte	0x23
 780 01ed 2C       		.uleb128 0x2c
 781 01ee 06       		.uleb128 0x6
ARM GAS  /tmp/ccvvLvGL.s 			page 15


 782 01ef FE020000 		.4byte	.LASF38
 783 01f3 06       		.byte	0x6
 784 01f4 B8       		.byte	0xb8
 785 01f5 6E020000 		.4byte	0x26e
 786 01f9 02       		.byte	0x2
 787 01fa 23       		.byte	0x23
 788 01fb 30       		.uleb128 0x30
 789 01fc 06       		.uleb128 0x6
 790 01fd 2B000000 		.4byte	.LASF39
 791 0201 06       		.byte	0x6
 792 0202 BC       		.byte	0xbc
 793 0203 E4000000 		.4byte	0xe4
 794 0207 02       		.byte	0x2
 795 0208 23       		.byte	0x23
 796 0209 38       		.uleb128 0x38
 797 020a 06       		.uleb128 0x6
 798 020b 9C020000 		.4byte	.LASF40
 799 020f 06       		.byte	0x6
 800 0210 C2       		.byte	0xc2
 801 0211 EF000000 		.4byte	0xef
 802 0215 02       		.byte	0x2
 803 0216 23       		.byte	0x23
 804 0217 3C       		.uleb128 0x3c
 805 0218 06       		.uleb128 0x6
 806 0219 41020000 		.4byte	.LASF41
 807 021d 06       		.byte	0x6
 808 021e C9       		.byte	0xc9
 809 021f D7040000 		.4byte	0x4d7
 810 0223 02       		.byte	0x2
 811 0224 23       		.byte	0x23
 812 0225 40       		.uleb128 0x40
 813 0226 06       		.uleb128 0x6
 814 0227 E5020000 		.4byte	.LASF42
 815 022b 06       		.byte	0x6
 816 022c CD       		.byte	0xcd
 817 022d D9000000 		.4byte	0xd9
 818 0231 02       		.byte	0x2
 819 0232 23       		.byte	0x23
 820 0233 44       		.uleb128 0x44
 821 0234 06       		.uleb128 0x6
 822 0235 D0000000 		.4byte	.LASF43
 823 0239 06       		.byte	0x6
 824 023a D3       		.byte	0xd3
 825 023b A6020000 		.4byte	0x2a6
 826 023f 02       		.byte	0x2
 827 0240 23       		.byte	0x23
 828 0241 48       		.uleb128 0x48
 829 0242 00       		.byte	0
 830 0243 08       		.uleb128 0x8
 831 0244 08       		.byte	0x8
 832 0245 05       		.byte	0x5
 833 0246 5A       		.byte	0x5a
 834 0247 68020000 		.4byte	0x268
 835 024b 06       		.uleb128 0x6
 836 024c 7A020000 		.4byte	.LASF24
 837 0250 05       		.byte	0x5
 838 0251 5B       		.byte	0x5b
ARM GAS  /tmp/ccvvLvGL.s 			page 16


 839 0252 68020000 		.4byte	0x268
 840 0256 02       		.byte	0x2
 841 0257 23       		.byte	0x23
 842 0258 00       		.uleb128 0
 843 0259 06       		.uleb128 0x6
 844 025a 0B020000 		.4byte	.LASF25
 845 025e 05       		.byte	0x5
 846 025f 5D       		.byte	0x5d
 847 0260 68020000 		.4byte	0x268
 848 0264 02       		.byte	0x2
 849 0265 23       		.byte	0x23
 850 0266 04       		.uleb128 0x4
 851 0267 00       		.byte	0
 852 0268 09       		.uleb128 0x9
 853 0269 04       		.byte	0x4
 854 026a 05010000 		.4byte	0x105
 855 026e 03       		.uleb128 0x3
 856 026f DF010000 		.4byte	.LASF44
 857 0273 05       		.byte	0x5
 858 0274 5F       		.byte	0x5f
 859 0275 43020000 		.4byte	0x243
 860 0279 08       		.uleb128 0x8
 861 027a 04       		.byte	0x4
 862 027b 05       		.byte	0x5
 863 027c 64       		.byte	0x64
 864 027d 90020000 		.4byte	0x290
 865 0281 06       		.uleb128 0x6
 866 0282 7A020000 		.4byte	.LASF24
 867 0286 05       		.byte	0x5
 868 0287 66       		.byte	0x66
 869 0288 68020000 		.4byte	0x268
 870 028c 02       		.byte	0x2
 871 028d 23       		.byte	0x23
 872 028e 00       		.uleb128 0
 873 028f 00       		.byte	0
 874 0290 03       		.uleb128 0x3
 875 0291 9B010000 		.4byte	.LASF45
 876 0295 05       		.byte	0x5
 877 0296 69       		.byte	0x69
 878 0297 79020000 		.4byte	0x279
 879 029b 03       		.uleb128 0x3
 880 029c 34010000 		.4byte	.LASF46
 881 02a0 07       		.byte	0x7
 882 02a1 DE       		.byte	0xde
 883 02a2 A6020000 		.4byte	0x2a6
 884 02a6 0A       		.uleb128 0xa
 885 02a7 04       		.byte	0x4
 886 02a8 03       		.uleb128 0x3
 887 02a9 B9010000 		.4byte	.LASF47
 888 02ad 07       		.byte	0x7
 889 02ae E4       		.byte	0xe4
 890 02af 94000000 		.4byte	0x94
 891 02b3 0B       		.uleb128 0xb
 892 02b4 F7020000 		.4byte	.LASF48
 893 02b8 24       		.byte	0x24
 894 02b9 07       		.byte	0x7
 895 02ba 0501     		.2byte	0x105
ARM GAS  /tmp/ccvvLvGL.s 			page 17


 896 02bc 41030000 		.4byte	0x341
 897 02c0 0C       		.uleb128 0xc
 898 02c1 723400   		.ascii	"r4\000"
 899 02c4 07       		.byte	0x7
 900 02c5 1801     		.2byte	0x118
 901 02c7 9B020000 		.4byte	0x29b
 902 02cb 02       		.byte	0x2
 903 02cc 23       		.byte	0x23
 904 02cd 00       		.uleb128 0
 905 02ce 0C       		.uleb128 0xc
 906 02cf 723500   		.ascii	"r5\000"
 907 02d2 07       		.byte	0x7
 908 02d3 1901     		.2byte	0x119
 909 02d5 9B020000 		.4byte	0x29b
 910 02d9 02       		.byte	0x2
 911 02da 23       		.byte	0x23
 912 02db 04       		.uleb128 0x4
 913 02dc 0C       		.uleb128 0xc
 914 02dd 723600   		.ascii	"r6\000"
 915 02e0 07       		.byte	0x7
 916 02e1 1A01     		.2byte	0x11a
 917 02e3 9B020000 		.4byte	0x29b
 918 02e7 02       		.byte	0x2
 919 02e8 23       		.byte	0x23
 920 02e9 08       		.uleb128 0x8
 921 02ea 0C       		.uleb128 0xc
 922 02eb 723700   		.ascii	"r7\000"
 923 02ee 07       		.byte	0x7
 924 02ef 1B01     		.2byte	0x11b
 925 02f1 9B020000 		.4byte	0x29b
 926 02f5 02       		.byte	0x2
 927 02f6 23       		.byte	0x23
 928 02f7 0C       		.uleb128 0xc
 929 02f8 0C       		.uleb128 0xc
 930 02f9 723800   		.ascii	"r8\000"
 931 02fc 07       		.byte	0x7
 932 02fd 1C01     		.2byte	0x11c
 933 02ff 9B020000 		.4byte	0x29b
 934 0303 02       		.byte	0x2
 935 0304 23       		.byte	0x23
 936 0305 10       		.uleb128 0x10
 937 0306 0C       		.uleb128 0xc
 938 0307 723900   		.ascii	"r9\000"
 939 030a 07       		.byte	0x7
 940 030b 1D01     		.2byte	0x11d
 941 030d 9B020000 		.4byte	0x29b
 942 0311 02       		.byte	0x2
 943 0312 23       		.byte	0x23
 944 0313 14       		.uleb128 0x14
 945 0314 0C       		.uleb128 0xc
 946 0315 72313000 		.ascii	"r10\000"
 947 0319 07       		.byte	0x7
 948 031a 1E01     		.2byte	0x11e
 949 031c 9B020000 		.4byte	0x29b
 950 0320 02       		.byte	0x2
 951 0321 23       		.byte	0x23
 952 0322 18       		.uleb128 0x18
ARM GAS  /tmp/ccvvLvGL.s 			page 18


 953 0323 0C       		.uleb128 0xc
 954 0324 72313100 		.ascii	"r11\000"
 955 0328 07       		.byte	0x7
 956 0329 1F01     		.2byte	0x11f
 957 032b 9B020000 		.4byte	0x29b
 958 032f 02       		.byte	0x2
 959 0330 23       		.byte	0x23
 960 0331 1C       		.uleb128 0x1c
 961 0332 0C       		.uleb128 0xc
 962 0333 6C7200   		.ascii	"lr\000"
 963 0336 07       		.byte	0x7
 964 0337 2001     		.2byte	0x120
 965 0339 9B020000 		.4byte	0x29b
 966 033d 02       		.byte	0x2
 967 033e 23       		.byte	0x23
 968 033f 20       		.uleb128 0x20
 969 0340 00       		.byte	0
 970 0341 0B       		.uleb128 0xb
 971 0342 6D010000 		.4byte	.LASF49
 972 0346 04       		.byte	0x4
 973 0347 07       		.byte	0x7
 974 0348 2A01     		.2byte	0x12a
 975 034a 5E030000 		.4byte	0x35e
 976 034e 0C       		.uleb128 0xc
 977 034f 72313300 		.ascii	"r13\000"
 978 0353 07       		.byte	0x7
 979 0354 2B01     		.2byte	0x12b
 980 0356 5E030000 		.4byte	0x35e
 981 035a 02       		.byte	0x2
 982 035b 23       		.byte	0x23
 983 035c 00       		.uleb128 0
 984 035d 00       		.byte	0
 985 035e 09       		.uleb128 0x9
 986 035f 04       		.byte	0x4
 987 0360 B3020000 		.4byte	0x2b3
 988 0364 04       		.uleb128 0x4
 989 0365 04       		.byte	0x4
 990 0366 07       		.byte	0x7
 991 0367 C4010000 		.4byte	.LASF50
 992 036b 0D       		.uleb128 0xd
 993 036c FA000000 		.4byte	0xfa
 994 0370 05       		.uleb128 0x5
 995 0371 B3010000 		.4byte	.LASF51
 996 0375 10       		.byte	0x10
 997 0376 08       		.byte	0x8
 998 0377 25       		.byte	0x25
 999 0378 A7030000 		.4byte	0x3a7
 1000 037c 06       		.uleb128 0x6
 1001 037d D8000000 		.4byte	.LASF52
 1002 0381 08       		.byte	0x8
 1003 0382 26       		.byte	0x26
 1004 0383 6E020000 		.4byte	0x26e
 1005 0387 02       		.byte	0x2
 1006 0388 23       		.byte	0x23
 1007 0389 00       		.uleb128 0
 1008 038a 06       		.uleb128 0x6
 1009 038b 41030000 		.4byte	.LASF53
ARM GAS  /tmp/ccvvLvGL.s 			page 19


 1010 038f 08       		.byte	0x8
 1011 0390 28       		.byte	0x28
 1012 0391 68020000 		.4byte	0x268
 1013 0395 02       		.byte	0x2
 1014 0396 23       		.byte	0x23
 1015 0397 08       		.uleb128 0x8
 1016 0398 06       		.uleb128 0x6
 1017 0399 D4020000 		.4byte	.LASF54
 1018 039d 08       		.byte	0x8
 1019 039e 2A       		.byte	0x2a
 1020 039f A7030000 		.4byte	0x3a7
 1021 03a3 02       		.byte	0x2
 1022 03a4 23       		.byte	0x23
 1023 03a5 0C       		.uleb128 0xc
 1024 03a6 00       		.byte	0
 1025 03a7 09       		.uleb128 0x9
 1026 03a8 04       		.byte	0x4
 1027 03a9 70030000 		.4byte	0x370
 1028 03ad 03       		.uleb128 0x3
 1029 03ae B3010000 		.4byte	.LASF51
 1030 03b2 08       		.byte	0x8
 1031 03b3 2C       		.byte	0x2c
 1032 03b4 70030000 		.4byte	0x370
 1033 03b8 03       		.uleb128 0x3
 1034 03b9 48000000 		.4byte	.LASF55
 1035 03bd 09       		.byte	0x9
 1036 03be 25       		.byte	0x25
 1037 03bf C3030000 		.4byte	0x3c3
 1038 03c3 09       		.uleb128 0x9
 1039 03c4 04       		.byte	0x4
 1040 03c5 C9030000 		.4byte	0x3c9
 1041 03c9 0E       		.uleb128 0xe
 1042 03ca 01       		.byte	0x1
 1043 03cb A6020000 		.4byte	0x2a6
 1044 03cf D9030000 		.4byte	0x3d9
 1045 03d3 0F       		.uleb128 0xf
 1046 03d4 30000000 		.4byte	0x30
 1047 03d8 00       		.byte	0
 1048 03d9 03       		.uleb128 0x3
 1049 03da F8010000 		.4byte	.LASF56
 1050 03de 0A       		.byte	0xa
 1051 03df 2D       		.byte	0x2d
 1052 03e0 E4030000 		.4byte	0x3e4
 1053 03e4 05       		.uleb128 0x5
 1054 03e5 59030000 		.4byte	.LASF57
 1055 03e9 20       		.byte	0x20
 1056 03ea 0A       		.byte	0xa
 1057 03eb 40       		.byte	0x40
 1058 03ec 1B040000 		.4byte	0x41b
 1059 03f0 06       		.uleb128 0x6
 1060 03f1 36020000 		.4byte	.LASF58
 1061 03f5 0A       		.byte	0xa
 1062 03f6 41       		.byte	0x41
 1063 03f7 B8030000 		.4byte	0x3b8
 1064 03fb 02       		.byte	0x2
 1065 03fc 23       		.byte	0x23
 1066 03fd 00       		.uleb128 0
ARM GAS  /tmp/ccvvLvGL.s 			page 20


 1067 03fe 06       		.uleb128 0x6
 1068 03ff 75000000 		.4byte	.LASF59
 1069 0403 0A       		.byte	0xa
 1070 0404 43       		.byte	0x43
 1071 0405 3A040000 		.4byte	0x43a
 1072 0409 02       		.byte	0x2
 1073 040a 23       		.byte	0x23
 1074 040b 08       		.uleb128 0x8
 1075 040c 06       		.uleb128 0x6
 1076 040d CA000000 		.4byte	.LASF60
 1077 0411 0A       		.byte	0xa
 1078 0412 45       		.byte	0x45
 1079 0413 AD030000 		.4byte	0x3ad
 1080 0417 02       		.byte	0x2
 1081 0418 23       		.byte	0x23
 1082 0419 10       		.uleb128 0x10
 1083 041a 00       		.byte	0
 1084 041b 10       		.uleb128 0x10
 1085 041c 04       		.byte	0x4
 1086 041d 0A       		.byte	0xa
 1087 041e 35       		.byte	0x35
 1088 041f 3A040000 		.4byte	0x43a
 1089 0423 11       		.uleb128 0x11
 1090 0424 A4000000 		.4byte	.LASF61
 1091 0428 0A       		.byte	0xa
 1092 0429 36       		.byte	0x36
 1093 042a 5B040000 		.4byte	0x45b
 1094 042e 11       		.uleb128 0x11
 1095 042f B0020000 		.4byte	.LASF62
 1096 0433 0A       		.byte	0xa
 1097 0434 37       		.byte	0x37
 1098 0435 61040000 		.4byte	0x461
 1099 0439 00       		.byte	0
 1100 043a 12       		.uleb128 0x12
 1101 043b 67020000 		.4byte	.LASF84
 1102 043f 08       		.byte	0x8
 1103 0440 0A       		.byte	0xa
 1104 0441 32       		.byte	0x32
 1105 0442 5B040000 		.4byte	0x45b
 1106 0446 11       		.uleb128 0x11
 1107 0447 3D010000 		.4byte	.LASF63
 1108 044b 0A       		.byte	0xa
 1109 044c 33       		.byte	0x33
 1110 044d A8020000 		.4byte	0x2a8
 1111 0451 13       		.uleb128 0x13
 1112 0452 6800     		.ascii	"h\000"
 1113 0454 0A       		.byte	0xa
 1114 0455 3A       		.byte	0x3a
 1115 0456 67040000 		.4byte	0x467
 1116 045a 00       		.byte	0
 1117 045b 09       		.uleb128 0x9
 1118 045c 04       		.byte	0x4
 1119 045d 3A040000 		.4byte	0x43a
 1120 0461 09       		.uleb128 0x9
 1121 0462 04       		.byte	0x4
 1122 0463 D9030000 		.4byte	0x3d9
 1123 0467 08       		.uleb128 0x8
ARM GAS  /tmp/ccvvLvGL.s 			page 21


 1124 0468 08       		.byte	0x8
 1125 0469 0A       		.byte	0xa
 1126 046a 34       		.byte	0x34
 1127 046b 8A040000 		.4byte	0x48a
 1128 046f 07       		.uleb128 0x7
 1129 0470 7500     		.ascii	"u\000"
 1130 0472 0A       		.byte	0xa
 1131 0473 38       		.byte	0x38
 1132 0474 1B040000 		.4byte	0x41b
 1133 0478 02       		.byte	0x2
 1134 0479 23       		.byte	0x23
 1135 047a 00       		.uleb128 0
 1136 047b 06       		.uleb128 0x6
 1137 047c 75010000 		.4byte	.LASF64
 1138 0480 0A       		.byte	0xa
 1139 0481 39       		.byte	0x39
 1140 0482 30000000 		.4byte	0x30
 1141 0486 02       		.byte	0x2
 1142 0487 23       		.byte	0x23
 1143 0488 04       		.uleb128 0x4
 1144 0489 00       		.byte	0
 1145 048a 10       		.uleb128 0x10
 1146 048b 04       		.byte	0x4
 1147 048c 06       		.byte	0x6
 1148 048d 8F       		.byte	0x8f
 1149 048e BF040000 		.4byte	0x4bf
 1150 0492 11       		.uleb128 0x11
 1151 0493 38000000 		.4byte	.LASF65
 1152 0497 06       		.byte	0x6
 1153 0498 96       		.byte	0x96
 1154 0499 E4000000 		.4byte	0xe4
 1155 049d 11       		.uleb128 0x11
 1156 049e 6C000000 		.4byte	.LASF66
 1157 04a2 06       		.byte	0x6
 1158 04a3 9D       		.byte	0x9d
 1159 04a4 E4000000 		.4byte	0xe4
 1160 04a8 11       		.uleb128 0x11
 1161 04a9 22030000 		.4byte	.LASF67
 1162 04ad 06       		.byte	0x6
 1163 04ae A4       		.byte	0xa4
 1164 04af A6020000 		.4byte	0x2a6
 1165 04b3 11       		.uleb128 0x11
 1166 04b4 73020000 		.4byte	.LASF68
 1167 04b8 06       		.byte	0x6
 1168 04b9 AB       		.byte	0xab
 1169 04ba EF000000 		.4byte	0xef
 1170 04be 00       		.byte	0
 1171 04bf 09       		.uleb128 0x9
 1172 04c0 04       		.byte	0x4
 1173 04c1 C5040000 		.4byte	0x4c5
 1174 04c5 14       		.uleb128 0x14
 1175 04c6 CA040000 		.4byte	0x4ca
 1176 04ca 04       		.uleb128 0x4
 1177 04cb 01       		.byte	0x1
 1178 04cc 08       		.byte	0x8
 1179 04cd C2020000 		.4byte	.LASF69
 1180 04d1 09       		.uleb128 0x9
ARM GAS  /tmp/ccvvLvGL.s 			page 22


 1181 04d2 04       		.byte	0x4
 1182 04d3 A8020000 		.4byte	0x2a8
 1183 04d7 09       		.uleb128 0x9
 1184 04d8 04       		.byte	0x4
 1185 04d9 AD030000 		.4byte	0x3ad
 1186 04dd 15       		.uleb128 0x15
 1187 04de 01       		.byte	0x1
 1188 04df 36030000 		.4byte	.LASF70
 1189 04e3 01       		.byte	0x1
 1190 04e4 44       		.byte	0x44
 1191 04e5 01       		.byte	0x1
 1192 04e6 00000000 		.4byte	.LFB7
 1193 04ea 20000000 		.4byte	.LFE7
 1194 04ee 02       		.byte	0x2
 1195 04ef 7D       		.byte	0x7d
 1196 04f0 00       		.sleb128 0
 1197 04f1 01       		.byte	0x1
 1198 04f2 0B050000 		.4byte	0x50b
 1199 04f6 16       		.uleb128 0x16
 1200 04f7 20000000 		.4byte	.LVL0
 1201 04fb 01       		.byte	0x1
 1202 04fc 55070000 		.4byte	0x755
 1203 0500 17       		.uleb128 0x17
 1204 0501 01       		.byte	0x1
 1205 0502 50       		.byte	0x50
 1206 0503 05       		.byte	0x5
 1207 0504 03       		.byte	0x3
 1208 0505 10000000 		.4byte	.LANCHOR0+16
 1209 0509 00       		.byte	0
 1210 050a 00       		.byte	0
 1211 050b 18       		.uleb128 0x18
 1212 050c 01       		.byte	0x1
 1213 050d 99000000 		.4byte	.LASF71
 1214 0511 01       		.byte	0x1
 1215 0512 5C       		.byte	0x5c
 1216 0513 01       		.byte	0x1
 1217 0514 00000000 		.4byte	.LFB8
 1218 0518 34000000 		.4byte	.LFE8
 1219 051c 00000000 		.4byte	.LLST0
 1220 0520 01       		.byte	0x1
 1221 0521 87050000 		.4byte	0x587
 1222 0525 19       		.uleb128 0x19
 1223 0526 87000000 		.4byte	.LASF72
 1224 052a 01       		.byte	0x1
 1225 052b 5C       		.byte	0x5c
 1226 052c 61040000 		.4byte	0x461
 1227 0530 20000000 		.4byte	.LLST1
 1228 0534 1A       		.uleb128 0x1a
 1229 0535 62756600 		.ascii	"buf\000"
 1230 0539 01       		.byte	0x1
 1231 053a 5C       		.byte	0x5c
 1232 053b A6020000 		.4byte	0x2a6
 1233 053f 3E000000 		.4byte	.LLST2
 1234 0543 19       		.uleb128 0x19
 1235 0544 75010000 		.4byte	.LASF64
 1236 0548 01       		.byte	0x1
 1237 0549 5C       		.byte	0x5c
ARM GAS  /tmp/ccvvLvGL.s 			page 23


 1238 054a 30000000 		.4byte	0x30
 1239 054e 5C000000 		.4byte	.LLST3
 1240 0552 1B       		.uleb128 0x1b
 1241 0553 687000   		.ascii	"hp\000"
 1242 0556 01       		.byte	0x1
 1243 0557 5D       		.byte	0x5d
 1244 0558 5B040000 		.4byte	0x45b
 1245 055c 01       		.byte	0x1
 1246 055d 55       		.byte	0x55
 1247 055e 1C       		.uleb128 0x1c
 1248 055f 16000000 		.4byte	.LVL4
 1249 0563 69070000 		.4byte	0x769
 1250 0567 75050000 		.4byte	0x575
 1251 056b 17       		.uleb128 0x17
 1252 056c 01       		.byte	0x1
 1253 056d 50       		.byte	0x50
 1254 056e 05       		.byte	0x5
 1255 056f 03       		.byte	0x3
 1256 0570 00000000 		.4byte	.LC0
 1257 0574 00       		.byte	0
 1258 0575 16       		.uleb128 0x16
 1259 0576 30000000 		.4byte	.LVL7
 1260 057a 01       		.byte	0x1
 1261 057b 55070000 		.4byte	0x755
 1262 057f 17       		.uleb128 0x17
 1263 0580 01       		.byte	0x1
 1264 0581 50       		.byte	0x50
 1265 0582 02       		.byte	0x2
 1266 0583 74       		.byte	0x74
 1267 0584 10       		.sleb128 16
 1268 0585 00       		.byte	0
 1269 0586 00       		.byte	0
 1270 0587 1D       		.uleb128 0x1d
 1271 0588 01       		.byte	0x1
 1272 0589 90020000 		.4byte	.LASF74
 1273 058d 01       		.byte	0x1
 1274 058e 7D       		.byte	0x7d
 1275 058f 01       		.byte	0x1
 1276 0590 A6020000 		.4byte	0x2a6
 1277 0594 00000000 		.4byte	.LFB9
 1278 0598 88000000 		.4byte	.LFE9
 1279 059c 87000000 		.4byte	.LLST4
 1280 05a0 01       		.byte	0x1
 1281 05a1 20060000 		.4byte	0x620
 1282 05a5 19       		.uleb128 0x19
 1283 05a6 87000000 		.4byte	.LASF72
 1284 05aa 01       		.byte	0x1
 1285 05ab 7D       		.byte	0x7d
 1286 05ac 61040000 		.4byte	0x461
 1287 05b0 A7000000 		.4byte	.LLST5
 1288 05b4 19       		.uleb128 0x19
 1289 05b5 75010000 		.4byte	.LASF64
 1290 05b9 01       		.byte	0x1
 1291 05ba 7D       		.byte	0x7d
 1292 05bb 30000000 		.4byte	0x30
 1293 05bf C5000000 		.4byte	.LLST6
 1294 05c3 1E       		.uleb128 0x1e
ARM GAS  /tmp/ccvvLvGL.s 			page 24


 1295 05c4 717000   		.ascii	"qp\000"
 1296 05c7 01       		.byte	0x1
 1297 05c8 7E       		.byte	0x7e
 1298 05c9 5B040000 		.4byte	0x45b
 1299 05cd F0000000 		.4byte	.LLST7
 1300 05d1 1E       		.uleb128 0x1e
 1301 05d2 687000   		.ascii	"hp\000"
 1302 05d5 01       		.byte	0x1
 1303 05d6 7E       		.byte	0x7e
 1304 05d7 5B040000 		.4byte	0x45b
 1305 05db 19010000 		.4byte	.LLST8
 1306 05df 1E       		.uleb128 0x1e
 1307 05e0 667000   		.ascii	"fp\000"
 1308 05e3 01       		.byte	0x1
 1309 05e4 7E       		.byte	0x7e
 1310 05e5 5B040000 		.4byte	0x45b
 1311 05e9 65010000 		.4byte	.LLST9
 1312 05ed 1C       		.uleb128 0x1c
 1313 05ee 1C000000 		.4byte	.LVL13
 1314 05f2 7D070000 		.4byte	0x77d
 1315 05f6 01060000 		.4byte	0x601
 1316 05fa 17       		.uleb128 0x17
 1317 05fb 01       		.byte	0x1
 1318 05fc 50       		.byte	0x50
 1319 05fd 02       		.byte	0x2
 1320 05fe 76       		.byte	0x76
 1321 05ff 10       		.sleb128 16
 1322 0600 00       		.byte	0
 1323 0601 1F       		.uleb128 0x1f
 1324 0602 5A000000 		.4byte	.LVL20
 1325 0606 91070000 		.4byte	0x791
 1326 060a 1F       		.uleb128 0x1f
 1327 060b 68000000 		.4byte	.LVL22
 1328 060f 91070000 		.4byte	0x791
 1329 0613 20       		.uleb128 0x20
 1330 0614 72000000 		.4byte	.LVL23
 1331 0618 17       		.uleb128 0x17
 1332 0619 01       		.byte	0x1
 1333 061a 50       		.byte	0x50
 1334 061b 02       		.byte	0x2
 1335 061c 75       		.byte	0x75
 1336 061d 08       		.sleb128 8
 1337 061e 00       		.byte	0
 1338 061f 00       		.byte	0
 1339 0620 18       		.uleb128 0x18
 1340 0621 01       		.byte	0x1
 1341 0622 E0000000 		.4byte	.LASF73
 1342 0626 01       		.byte	0x1
 1343 0627 BB       		.byte	0xbb
 1344 0628 01       		.byte	0x1
 1345 0629 00000000 		.4byte	.LFB10
 1346 062d B0000000 		.4byte	.LFE10
 1347 0631 78010000 		.4byte	.LLST10
 1348 0635 01       		.byte	0x1
 1349 0636 BB060000 		.4byte	0x6bb
 1350 063a 1A       		.uleb128 0x1a
 1351 063b 7000     		.ascii	"p\000"
ARM GAS  /tmp/ccvvLvGL.s 			page 25


 1352 063d 01       		.byte	0x1
 1353 063e BB       		.byte	0xbb
 1354 063f A6020000 		.4byte	0x2a6
 1355 0643 98010000 		.4byte	.LLST11
 1356 0647 1E       		.uleb128 0x1e
 1357 0648 717000   		.ascii	"qp\000"
 1358 064b 01       		.byte	0x1
 1359 064c BC       		.byte	0xbc
 1360 064d 5B040000 		.4byte	0x45b
 1361 0651 CC010000 		.4byte	.LLST12
 1362 0655 1E       		.uleb128 0x1e
 1363 0656 687000   		.ascii	"hp\000"
 1364 0659 01       		.byte	0x1
 1365 065a BC       		.byte	0xbc
 1366 065b 5B040000 		.4byte	0x45b
 1367 065f 00020000 		.4byte	.LLST13
 1368 0663 21       		.uleb128 0x21
 1369 0664 87000000 		.4byte	.LASF72
 1370 0668 01       		.byte	0x1
 1371 0669 BD       		.byte	0xbd
 1372 066a 61040000 		.4byte	0x461
 1373 066e 13020000 		.4byte	.LLST14
 1374 0672 1C       		.uleb128 0x1c
 1375 0673 14000000 		.4byte	.LVL30
 1376 0677 7D070000 		.4byte	0x77d
 1377 067b 86060000 		.4byte	0x686
 1378 067f 17       		.uleb128 0x17
 1379 0680 01       		.byte	0x1
 1380 0681 50       		.byte	0x50
 1381 0682 02       		.byte	0x2
 1382 0683 76       		.byte	0x76
 1383 0684 10       		.sleb128 16
 1384 0685 00       		.byte	0
 1385 0686 22       		.uleb128 0x22
 1386 0687 6A000000 		.4byte	.LVL35
 1387 068b 01       		.byte	0x1
 1388 068c 91070000 		.4byte	0x791
 1389 0690 1C       		.uleb128 0x1c
 1390 0691 70000000 		.4byte	.LVL36
 1391 0695 69070000 		.4byte	0x769
 1392 0699 A7060000 		.4byte	0x6a7
 1393 069d 17       		.uleb128 0x17
 1394 069e 01       		.byte	0x1
 1395 069f 50       		.byte	0x50
 1396 06a0 05       		.byte	0x5
 1397 06a1 03       		.byte	0x3
 1398 06a2 20000000 		.4byte	.LC2
 1399 06a6 00       		.byte	0
 1400 06a7 23       		.uleb128 0x23
 1401 06a8 A6000000 		.4byte	.LVL39
 1402 06ac 69070000 		.4byte	0x769
 1403 06b0 17       		.uleb128 0x17
 1404 06b1 01       		.byte	0x1
 1405 06b2 50       		.byte	0x50
 1406 06b3 05       		.byte	0x5
 1407 06b4 03       		.byte	0x3
 1408 06b5 10000000 		.4byte	.LC1
ARM GAS  /tmp/ccvvLvGL.s 			page 26


 1409 06b9 00       		.byte	0
 1410 06ba 00       		.byte	0
 1411 06bb 1D       		.uleb128 0x1d
 1412 06bc 01       		.byte	0x1
 1413 06bd C7020000 		.4byte	.LASF75
 1414 06c1 01       		.byte	0x1
 1415 06c2 F3       		.byte	0xf3
 1416 06c3 01       		.byte	0x1
 1417 06c4 30000000 		.4byte	0x30
 1418 06c8 00000000 		.4byte	.LFB11
 1419 06cc 40000000 		.4byte	.LFE11
 1420 06d0 28020000 		.4byte	.LLST15
 1421 06d4 01       		.byte	0x1
 1422 06d5 3E070000 		.4byte	0x73e
 1423 06d9 19       		.uleb128 0x19
 1424 06da 87000000 		.4byte	.LASF72
 1425 06de 01       		.byte	0x1
 1426 06df F3       		.byte	0xf3
 1427 06e0 61040000 		.4byte	0x461
 1428 06e4 48020000 		.4byte	.LLST16
 1429 06e8 19       		.uleb128 0x19
 1430 06e9 29030000 		.4byte	.LASF76
 1431 06ed 01       		.byte	0x1
 1432 06ee F3       		.byte	0xf3
 1433 06ef 3E070000 		.4byte	0x73e
 1434 06f3 AB020000 		.4byte	.LLST17
 1435 06f7 1E       		.uleb128 0x1e
 1436 06f8 717000   		.ascii	"qp\000"
 1437 06fb 01       		.byte	0x1
 1438 06fc F4       		.byte	0xf4
 1439 06fd 5B040000 		.4byte	0x45b
 1440 0701 C9020000 		.4byte	.LLST18
 1441 0705 1E       		.uleb128 0x1e
 1442 0706 6E00     		.ascii	"n\000"
 1443 0708 01       		.byte	0x1
 1444 0709 F5       		.byte	0xf5
 1445 070a 30000000 		.4byte	0x30
 1446 070e 0A030000 		.4byte	.LLST19
 1447 0712 1E       		.uleb128 0x1e
 1448 0713 737A00   		.ascii	"sz\000"
 1449 0716 01       		.byte	0x1
 1450 0717 F5       		.byte	0xf5
 1451 0718 30000000 		.4byte	0x30
 1452 071c 35030000 		.4byte	.LLST20
 1453 0720 1C       		.uleb128 0x1c
 1454 0721 14000000 		.4byte	.LVL42
 1455 0725 7D070000 		.4byte	0x77d
 1456 0729 34070000 		.4byte	0x734
 1457 072d 17       		.uleb128 0x17
 1458 072e 01       		.byte	0x1
 1459 072f 50       		.byte	0x50
 1460 0730 02       		.byte	0x2
 1461 0731 74       		.byte	0x74
 1462 0732 10       		.sleb128 16
 1463 0733 00       		.byte	0
 1464 0734 1F       		.uleb128 0x1f
 1465 0735 30000000 		.4byte	.LVL47
ARM GAS  /tmp/ccvvLvGL.s 			page 27


 1466 0739 91070000 		.4byte	0x791
 1467 073d 00       		.byte	0
 1468 073e 09       		.uleb128 0x9
 1469 073f 04       		.byte	0x4
 1470 0740 30000000 		.4byte	0x30
 1471 0744 24       		.uleb128 0x24
 1472 0745 B5020000 		.4byte	.LASF77
 1473 0749 01       		.byte	0x1
 1474 074a 3D       		.byte	0x3d
 1475 074b D9030000 		.4byte	0x3d9
 1476 074f 05       		.byte	0x5
 1477 0750 03       		.byte	0x3
 1478 0751 00000000 		.4byte	default_heap
 1479 0755 25       		.uleb128 0x25
 1480 0756 01       		.byte	0x1
 1481 0757 09030000 		.4byte	.LASF78
 1482 075b 08       		.byte	0x8
 1483 075c 31       		.byte	0x31
 1484 075d 01       		.byte	0x1
 1485 075e 01       		.byte	0x1
 1486 075f 69070000 		.4byte	0x769
 1487 0763 0F       		.uleb128 0xf
 1488 0764 D7040000 		.4byte	0x4d7
 1489 0768 00       		.byte	0
 1490 0769 25       		.uleb128 0x25
 1491 076a 01       		.byte	0x1
 1492 076b 7C000000 		.4byte	.LASF79
 1493 076f 0B       		.byte	0xb
 1494 0770 EF       		.byte	0xef
 1495 0771 01       		.byte	0x1
 1496 0772 01       		.byte	0x1
 1497 0773 7D070000 		.4byte	0x77d
 1498 0777 0F       		.uleb128 0xf
 1499 0778 BF040000 		.4byte	0x4bf
 1500 077c 00       		.byte	0
 1501 077d 25       		.uleb128 0x25
 1502 077e 01       		.byte	0x1
 1503 077f CD010000 		.4byte	.LASF80
 1504 0783 08       		.byte	0x8
 1505 0784 32       		.byte	0x32
 1506 0785 01       		.byte	0x1
 1507 0786 01       		.byte	0x1
 1508 0787 91070000 		.4byte	0x791
 1509 078b 0F       		.uleb128 0xf
 1510 078c D7040000 		.4byte	0x4d7
 1511 0790 00       		.byte	0
 1512 0791 26       		.uleb128 0x26
 1513 0792 01       		.byte	0x1
 1514 0793 8D000000 		.4byte	.LASF85
 1515 0797 08       		.byte	0x8
 1516 0798 36       		.byte	0x36
 1517 0799 01       		.byte	0x1
 1518 079a D7040000 		.4byte	0x4d7
 1519 079e 01       		.byte	0x1
 1520 079f 00       		.byte	0
 1521              		.section	.debug_abbrev,"",%progbits
 1522              	.Ldebug_abbrev0:
ARM GAS  /tmp/ccvvLvGL.s 			page 28


 1523 0000 01       		.uleb128 0x1
 1524 0001 11       		.uleb128 0x11
 1525 0002 01       		.byte	0x1
 1526 0003 25       		.uleb128 0x25
 1527 0004 0E       		.uleb128 0xe
 1528 0005 13       		.uleb128 0x13
 1529 0006 0B       		.uleb128 0xb
 1530 0007 03       		.uleb128 0x3
 1531 0008 0E       		.uleb128 0xe
 1532 0009 1B       		.uleb128 0x1b
 1533 000a 0E       		.uleb128 0xe
 1534 000b 55       		.uleb128 0x55
 1535 000c 06       		.uleb128 0x6
 1536 000d 11       		.uleb128 0x11
 1537 000e 01       		.uleb128 0x1
 1538 000f 52       		.uleb128 0x52
 1539 0010 01       		.uleb128 0x1
 1540 0011 10       		.uleb128 0x10
 1541 0012 06       		.uleb128 0x6
 1542 0013 00       		.byte	0
 1543 0014 00       		.byte	0
 1544 0015 02       		.uleb128 0x2
 1545 0016 24       		.uleb128 0x24
 1546 0017 00       		.byte	0
 1547 0018 0B       		.uleb128 0xb
 1548 0019 0B       		.uleb128 0xb
 1549 001a 3E       		.uleb128 0x3e
 1550 001b 0B       		.uleb128 0xb
 1551 001c 03       		.uleb128 0x3
 1552 001d 08       		.uleb128 0x8
 1553 001e 00       		.byte	0
 1554 001f 00       		.byte	0
 1555 0020 03       		.uleb128 0x3
 1556 0021 16       		.uleb128 0x16
 1557 0022 00       		.byte	0
 1558 0023 03       		.uleb128 0x3
 1559 0024 0E       		.uleb128 0xe
 1560 0025 3A       		.uleb128 0x3a
 1561 0026 0B       		.uleb128 0xb
 1562 0027 3B       		.uleb128 0x3b
 1563 0028 0B       		.uleb128 0xb
 1564 0029 49       		.uleb128 0x49
 1565 002a 13       		.uleb128 0x13
 1566 002b 00       		.byte	0
 1567 002c 00       		.byte	0
 1568 002d 04       		.uleb128 0x4
 1569 002e 24       		.uleb128 0x24
 1570 002f 00       		.byte	0
 1571 0030 0B       		.uleb128 0xb
 1572 0031 0B       		.uleb128 0xb
 1573 0032 3E       		.uleb128 0x3e
 1574 0033 0B       		.uleb128 0xb
 1575 0034 03       		.uleb128 0x3
 1576 0035 0E       		.uleb128 0xe
 1577 0036 00       		.byte	0
 1578 0037 00       		.byte	0
 1579 0038 05       		.uleb128 0x5
ARM GAS  /tmp/ccvvLvGL.s 			page 29


 1580 0039 13       		.uleb128 0x13
 1581 003a 01       		.byte	0x1
 1582 003b 03       		.uleb128 0x3
 1583 003c 0E       		.uleb128 0xe
 1584 003d 0B       		.uleb128 0xb
 1585 003e 0B       		.uleb128 0xb
 1586 003f 3A       		.uleb128 0x3a
 1587 0040 0B       		.uleb128 0xb
 1588 0041 3B       		.uleb128 0x3b
 1589 0042 0B       		.uleb128 0xb
 1590 0043 01       		.uleb128 0x1
 1591 0044 13       		.uleb128 0x13
 1592 0045 00       		.byte	0
 1593 0046 00       		.byte	0
 1594 0047 06       		.uleb128 0x6
 1595 0048 0D       		.uleb128 0xd
 1596 0049 00       		.byte	0
 1597 004a 03       		.uleb128 0x3
 1598 004b 0E       		.uleb128 0xe
 1599 004c 3A       		.uleb128 0x3a
 1600 004d 0B       		.uleb128 0xb
 1601 004e 3B       		.uleb128 0x3b
 1602 004f 0B       		.uleb128 0xb
 1603 0050 49       		.uleb128 0x49
 1604 0051 13       		.uleb128 0x13
 1605 0052 38       		.uleb128 0x38
 1606 0053 0A       		.uleb128 0xa
 1607 0054 00       		.byte	0
 1608 0055 00       		.byte	0
 1609 0056 07       		.uleb128 0x7
 1610 0057 0D       		.uleb128 0xd
 1611 0058 00       		.byte	0
 1612 0059 03       		.uleb128 0x3
 1613 005a 08       		.uleb128 0x8
 1614 005b 3A       		.uleb128 0x3a
 1615 005c 0B       		.uleb128 0xb
 1616 005d 3B       		.uleb128 0x3b
 1617 005e 0B       		.uleb128 0xb
 1618 005f 49       		.uleb128 0x49
 1619 0060 13       		.uleb128 0x13
 1620 0061 38       		.uleb128 0x38
 1621 0062 0A       		.uleb128 0xa
 1622 0063 00       		.byte	0
 1623 0064 00       		.byte	0
 1624 0065 08       		.uleb128 0x8
 1625 0066 13       		.uleb128 0x13
 1626 0067 01       		.byte	0x1
 1627 0068 0B       		.uleb128 0xb
 1628 0069 0B       		.uleb128 0xb
 1629 006a 3A       		.uleb128 0x3a
 1630 006b 0B       		.uleb128 0xb
 1631 006c 3B       		.uleb128 0x3b
 1632 006d 0B       		.uleb128 0xb
 1633 006e 01       		.uleb128 0x1
 1634 006f 13       		.uleb128 0x13
 1635 0070 00       		.byte	0
 1636 0071 00       		.byte	0
ARM GAS  /tmp/ccvvLvGL.s 			page 30


 1637 0072 09       		.uleb128 0x9
 1638 0073 0F       		.uleb128 0xf
 1639 0074 00       		.byte	0
 1640 0075 0B       		.uleb128 0xb
 1641 0076 0B       		.uleb128 0xb
 1642 0077 49       		.uleb128 0x49
 1643 0078 13       		.uleb128 0x13
 1644 0079 00       		.byte	0
 1645 007a 00       		.byte	0
 1646 007b 0A       		.uleb128 0xa
 1647 007c 0F       		.uleb128 0xf
 1648 007d 00       		.byte	0
 1649 007e 0B       		.uleb128 0xb
 1650 007f 0B       		.uleb128 0xb
 1651 0080 00       		.byte	0
 1652 0081 00       		.byte	0
 1653 0082 0B       		.uleb128 0xb
 1654 0083 13       		.uleb128 0x13
 1655 0084 01       		.byte	0x1
 1656 0085 03       		.uleb128 0x3
 1657 0086 0E       		.uleb128 0xe
 1658 0087 0B       		.uleb128 0xb
 1659 0088 0B       		.uleb128 0xb
 1660 0089 3A       		.uleb128 0x3a
 1661 008a 0B       		.uleb128 0xb
 1662 008b 3B       		.uleb128 0x3b
 1663 008c 05       		.uleb128 0x5
 1664 008d 01       		.uleb128 0x1
 1665 008e 13       		.uleb128 0x13
 1666 008f 00       		.byte	0
 1667 0090 00       		.byte	0
 1668 0091 0C       		.uleb128 0xc
 1669 0092 0D       		.uleb128 0xd
 1670 0093 00       		.byte	0
 1671 0094 03       		.uleb128 0x3
 1672 0095 08       		.uleb128 0x8
 1673 0096 3A       		.uleb128 0x3a
 1674 0097 0B       		.uleb128 0xb
 1675 0098 3B       		.uleb128 0x3b
 1676 0099 05       		.uleb128 0x5
 1677 009a 49       		.uleb128 0x49
 1678 009b 13       		.uleb128 0x13
 1679 009c 38       		.uleb128 0x38
 1680 009d 0A       		.uleb128 0xa
 1681 009e 00       		.byte	0
 1682 009f 00       		.byte	0
 1683 00a0 0D       		.uleb128 0xd
 1684 00a1 35       		.uleb128 0x35
 1685 00a2 00       		.byte	0
 1686 00a3 49       		.uleb128 0x49
 1687 00a4 13       		.uleb128 0x13
 1688 00a5 00       		.byte	0
 1689 00a6 00       		.byte	0
 1690 00a7 0E       		.uleb128 0xe
 1691 00a8 15       		.uleb128 0x15
 1692 00a9 01       		.byte	0x1
 1693 00aa 27       		.uleb128 0x27
ARM GAS  /tmp/ccvvLvGL.s 			page 31


 1694 00ab 0C       		.uleb128 0xc
 1695 00ac 49       		.uleb128 0x49
 1696 00ad 13       		.uleb128 0x13
 1697 00ae 01       		.uleb128 0x1
 1698 00af 13       		.uleb128 0x13
 1699 00b0 00       		.byte	0
 1700 00b1 00       		.byte	0
 1701 00b2 0F       		.uleb128 0xf
 1702 00b3 05       		.uleb128 0x5
 1703 00b4 00       		.byte	0
 1704 00b5 49       		.uleb128 0x49
 1705 00b6 13       		.uleb128 0x13
 1706 00b7 00       		.byte	0
 1707 00b8 00       		.byte	0
 1708 00b9 10       		.uleb128 0x10
 1709 00ba 17       		.uleb128 0x17
 1710 00bb 01       		.byte	0x1
 1711 00bc 0B       		.uleb128 0xb
 1712 00bd 0B       		.uleb128 0xb
 1713 00be 3A       		.uleb128 0x3a
 1714 00bf 0B       		.uleb128 0xb
 1715 00c0 3B       		.uleb128 0x3b
 1716 00c1 0B       		.uleb128 0xb
 1717 00c2 01       		.uleb128 0x1
 1718 00c3 13       		.uleb128 0x13
 1719 00c4 00       		.byte	0
 1720 00c5 00       		.byte	0
 1721 00c6 11       		.uleb128 0x11
 1722 00c7 0D       		.uleb128 0xd
 1723 00c8 00       		.byte	0
 1724 00c9 03       		.uleb128 0x3
 1725 00ca 0E       		.uleb128 0xe
 1726 00cb 3A       		.uleb128 0x3a
 1727 00cc 0B       		.uleb128 0xb
 1728 00cd 3B       		.uleb128 0x3b
 1729 00ce 0B       		.uleb128 0xb
 1730 00cf 49       		.uleb128 0x49
 1731 00d0 13       		.uleb128 0x13
 1732 00d1 00       		.byte	0
 1733 00d2 00       		.byte	0
 1734 00d3 12       		.uleb128 0x12
 1735 00d4 17       		.uleb128 0x17
 1736 00d5 01       		.byte	0x1
 1737 00d6 03       		.uleb128 0x3
 1738 00d7 0E       		.uleb128 0xe
 1739 00d8 0B       		.uleb128 0xb
 1740 00d9 0B       		.uleb128 0xb
 1741 00da 3A       		.uleb128 0x3a
 1742 00db 0B       		.uleb128 0xb
 1743 00dc 3B       		.uleb128 0x3b
 1744 00dd 0B       		.uleb128 0xb
 1745 00de 01       		.uleb128 0x1
 1746 00df 13       		.uleb128 0x13
 1747 00e0 00       		.byte	0
 1748 00e1 00       		.byte	0
 1749 00e2 13       		.uleb128 0x13
 1750 00e3 0D       		.uleb128 0xd
ARM GAS  /tmp/ccvvLvGL.s 			page 32


 1751 00e4 00       		.byte	0
 1752 00e5 03       		.uleb128 0x3
 1753 00e6 08       		.uleb128 0x8
 1754 00e7 3A       		.uleb128 0x3a
 1755 00e8 0B       		.uleb128 0xb
 1756 00e9 3B       		.uleb128 0x3b
 1757 00ea 0B       		.uleb128 0xb
 1758 00eb 49       		.uleb128 0x49
 1759 00ec 13       		.uleb128 0x13
 1760 00ed 00       		.byte	0
 1761 00ee 00       		.byte	0
 1762 00ef 14       		.uleb128 0x14
 1763 00f0 26       		.uleb128 0x26
 1764 00f1 00       		.byte	0
 1765 00f2 49       		.uleb128 0x49
 1766 00f3 13       		.uleb128 0x13
 1767 00f4 00       		.byte	0
 1768 00f5 00       		.byte	0
 1769 00f6 15       		.uleb128 0x15
 1770 00f7 2E       		.uleb128 0x2e
 1771 00f8 01       		.byte	0x1
 1772 00f9 3F       		.uleb128 0x3f
 1773 00fa 0C       		.uleb128 0xc
 1774 00fb 03       		.uleb128 0x3
 1775 00fc 0E       		.uleb128 0xe
 1776 00fd 3A       		.uleb128 0x3a
 1777 00fe 0B       		.uleb128 0xb
 1778 00ff 3B       		.uleb128 0x3b
 1779 0100 0B       		.uleb128 0xb
 1780 0101 27       		.uleb128 0x27
 1781 0102 0C       		.uleb128 0xc
 1782 0103 11       		.uleb128 0x11
 1783 0104 01       		.uleb128 0x1
 1784 0105 12       		.uleb128 0x12
 1785 0106 01       		.uleb128 0x1
 1786 0107 40       		.uleb128 0x40
 1787 0108 0A       		.uleb128 0xa
 1788 0109 9742     		.uleb128 0x2117
 1789 010b 0C       		.uleb128 0xc
 1790 010c 01       		.uleb128 0x1
 1791 010d 13       		.uleb128 0x13
 1792 010e 00       		.byte	0
 1793 010f 00       		.byte	0
 1794 0110 16       		.uleb128 0x16
 1795 0111 898201   		.uleb128 0x4109
 1796 0114 01       		.byte	0x1
 1797 0115 11       		.uleb128 0x11
 1798 0116 01       		.uleb128 0x1
 1799 0117 9542     		.uleb128 0x2115
 1800 0119 0C       		.uleb128 0xc
 1801 011a 31       		.uleb128 0x31
 1802 011b 13       		.uleb128 0x13
 1803 011c 00       		.byte	0
 1804 011d 00       		.byte	0
 1805 011e 17       		.uleb128 0x17
 1806 011f 8A8201   		.uleb128 0x410a
 1807 0122 00       		.byte	0
ARM GAS  /tmp/ccvvLvGL.s 			page 33


 1808 0123 02       		.uleb128 0x2
 1809 0124 0A       		.uleb128 0xa
 1810 0125 9142     		.uleb128 0x2111
 1811 0127 0A       		.uleb128 0xa
 1812 0128 00       		.byte	0
 1813 0129 00       		.byte	0
 1814 012a 18       		.uleb128 0x18
 1815 012b 2E       		.uleb128 0x2e
 1816 012c 01       		.byte	0x1
 1817 012d 3F       		.uleb128 0x3f
 1818 012e 0C       		.uleb128 0xc
 1819 012f 03       		.uleb128 0x3
 1820 0130 0E       		.uleb128 0xe
 1821 0131 3A       		.uleb128 0x3a
 1822 0132 0B       		.uleb128 0xb
 1823 0133 3B       		.uleb128 0x3b
 1824 0134 0B       		.uleb128 0xb
 1825 0135 27       		.uleb128 0x27
 1826 0136 0C       		.uleb128 0xc
 1827 0137 11       		.uleb128 0x11
 1828 0138 01       		.uleb128 0x1
 1829 0139 12       		.uleb128 0x12
 1830 013a 01       		.uleb128 0x1
 1831 013b 40       		.uleb128 0x40
 1832 013c 06       		.uleb128 0x6
 1833 013d 9742     		.uleb128 0x2117
 1834 013f 0C       		.uleb128 0xc
 1835 0140 01       		.uleb128 0x1
 1836 0141 13       		.uleb128 0x13
 1837 0142 00       		.byte	0
 1838 0143 00       		.byte	0
 1839 0144 19       		.uleb128 0x19
 1840 0145 05       		.uleb128 0x5
 1841 0146 00       		.byte	0
 1842 0147 03       		.uleb128 0x3
 1843 0148 0E       		.uleb128 0xe
 1844 0149 3A       		.uleb128 0x3a
 1845 014a 0B       		.uleb128 0xb
 1846 014b 3B       		.uleb128 0x3b
 1847 014c 0B       		.uleb128 0xb
 1848 014d 49       		.uleb128 0x49
 1849 014e 13       		.uleb128 0x13
 1850 014f 02       		.uleb128 0x2
 1851 0150 06       		.uleb128 0x6
 1852 0151 00       		.byte	0
 1853 0152 00       		.byte	0
 1854 0153 1A       		.uleb128 0x1a
 1855 0154 05       		.uleb128 0x5
 1856 0155 00       		.byte	0
 1857 0156 03       		.uleb128 0x3
 1858 0157 08       		.uleb128 0x8
 1859 0158 3A       		.uleb128 0x3a
 1860 0159 0B       		.uleb128 0xb
 1861 015a 3B       		.uleb128 0x3b
 1862 015b 0B       		.uleb128 0xb
 1863 015c 49       		.uleb128 0x49
 1864 015d 13       		.uleb128 0x13
ARM GAS  /tmp/ccvvLvGL.s 			page 34


 1865 015e 02       		.uleb128 0x2
 1866 015f 06       		.uleb128 0x6
 1867 0160 00       		.byte	0
 1868 0161 00       		.byte	0
 1869 0162 1B       		.uleb128 0x1b
 1870 0163 34       		.uleb128 0x34
 1871 0164 00       		.byte	0
 1872 0165 03       		.uleb128 0x3
 1873 0166 08       		.uleb128 0x8
 1874 0167 3A       		.uleb128 0x3a
 1875 0168 0B       		.uleb128 0xb
 1876 0169 3B       		.uleb128 0x3b
 1877 016a 0B       		.uleb128 0xb
 1878 016b 49       		.uleb128 0x49
 1879 016c 13       		.uleb128 0x13
 1880 016d 02       		.uleb128 0x2
 1881 016e 0A       		.uleb128 0xa
 1882 016f 00       		.byte	0
 1883 0170 00       		.byte	0
 1884 0171 1C       		.uleb128 0x1c
 1885 0172 898201   		.uleb128 0x4109
 1886 0175 01       		.byte	0x1
 1887 0176 11       		.uleb128 0x11
 1888 0177 01       		.uleb128 0x1
 1889 0178 31       		.uleb128 0x31
 1890 0179 13       		.uleb128 0x13
 1891 017a 01       		.uleb128 0x1
 1892 017b 13       		.uleb128 0x13
 1893 017c 00       		.byte	0
 1894 017d 00       		.byte	0
 1895 017e 1D       		.uleb128 0x1d
 1896 017f 2E       		.uleb128 0x2e
 1897 0180 01       		.byte	0x1
 1898 0181 3F       		.uleb128 0x3f
 1899 0182 0C       		.uleb128 0xc
 1900 0183 03       		.uleb128 0x3
 1901 0184 0E       		.uleb128 0xe
 1902 0185 3A       		.uleb128 0x3a
 1903 0186 0B       		.uleb128 0xb
 1904 0187 3B       		.uleb128 0x3b
 1905 0188 0B       		.uleb128 0xb
 1906 0189 27       		.uleb128 0x27
 1907 018a 0C       		.uleb128 0xc
 1908 018b 49       		.uleb128 0x49
 1909 018c 13       		.uleb128 0x13
 1910 018d 11       		.uleb128 0x11
 1911 018e 01       		.uleb128 0x1
 1912 018f 12       		.uleb128 0x12
 1913 0190 01       		.uleb128 0x1
 1914 0191 40       		.uleb128 0x40
 1915 0192 06       		.uleb128 0x6
 1916 0193 9742     		.uleb128 0x2117
 1917 0195 0C       		.uleb128 0xc
 1918 0196 01       		.uleb128 0x1
 1919 0197 13       		.uleb128 0x13
 1920 0198 00       		.byte	0
 1921 0199 00       		.byte	0
ARM GAS  /tmp/ccvvLvGL.s 			page 35


 1922 019a 1E       		.uleb128 0x1e
 1923 019b 34       		.uleb128 0x34
 1924 019c 00       		.byte	0
 1925 019d 03       		.uleb128 0x3
 1926 019e 08       		.uleb128 0x8
 1927 019f 3A       		.uleb128 0x3a
 1928 01a0 0B       		.uleb128 0xb
 1929 01a1 3B       		.uleb128 0x3b
 1930 01a2 0B       		.uleb128 0xb
 1931 01a3 49       		.uleb128 0x49
 1932 01a4 13       		.uleb128 0x13
 1933 01a5 02       		.uleb128 0x2
 1934 01a6 06       		.uleb128 0x6
 1935 01a7 00       		.byte	0
 1936 01a8 00       		.byte	0
 1937 01a9 1F       		.uleb128 0x1f
 1938 01aa 898201   		.uleb128 0x4109
 1939 01ad 00       		.byte	0
 1940 01ae 11       		.uleb128 0x11
 1941 01af 01       		.uleb128 0x1
 1942 01b0 31       		.uleb128 0x31
 1943 01b1 13       		.uleb128 0x13
 1944 01b2 00       		.byte	0
 1945 01b3 00       		.byte	0
 1946 01b4 20       		.uleb128 0x20
 1947 01b5 898201   		.uleb128 0x4109
 1948 01b8 01       		.byte	0x1
 1949 01b9 11       		.uleb128 0x11
 1950 01ba 01       		.uleb128 0x1
 1951 01bb 00       		.byte	0
 1952 01bc 00       		.byte	0
 1953 01bd 21       		.uleb128 0x21
 1954 01be 34       		.uleb128 0x34
 1955 01bf 00       		.byte	0
 1956 01c0 03       		.uleb128 0x3
 1957 01c1 0E       		.uleb128 0xe
 1958 01c2 3A       		.uleb128 0x3a
 1959 01c3 0B       		.uleb128 0xb
 1960 01c4 3B       		.uleb128 0x3b
 1961 01c5 0B       		.uleb128 0xb
 1962 01c6 49       		.uleb128 0x49
 1963 01c7 13       		.uleb128 0x13
 1964 01c8 02       		.uleb128 0x2
 1965 01c9 06       		.uleb128 0x6
 1966 01ca 00       		.byte	0
 1967 01cb 00       		.byte	0
 1968 01cc 22       		.uleb128 0x22
 1969 01cd 898201   		.uleb128 0x4109
 1970 01d0 00       		.byte	0
 1971 01d1 11       		.uleb128 0x11
 1972 01d2 01       		.uleb128 0x1
 1973 01d3 9542     		.uleb128 0x2115
 1974 01d5 0C       		.uleb128 0xc
 1975 01d6 31       		.uleb128 0x31
 1976 01d7 13       		.uleb128 0x13
 1977 01d8 00       		.byte	0
 1978 01d9 00       		.byte	0
ARM GAS  /tmp/ccvvLvGL.s 			page 36


 1979 01da 23       		.uleb128 0x23
 1980 01db 898201   		.uleb128 0x4109
 1981 01de 01       		.byte	0x1
 1982 01df 11       		.uleb128 0x11
 1983 01e0 01       		.uleb128 0x1
 1984 01e1 31       		.uleb128 0x31
 1985 01e2 13       		.uleb128 0x13
 1986 01e3 00       		.byte	0
 1987 01e4 00       		.byte	0
 1988 01e5 24       		.uleb128 0x24
 1989 01e6 34       		.uleb128 0x34
 1990 01e7 00       		.byte	0
 1991 01e8 03       		.uleb128 0x3
 1992 01e9 0E       		.uleb128 0xe
 1993 01ea 3A       		.uleb128 0x3a
 1994 01eb 0B       		.uleb128 0xb
 1995 01ec 3B       		.uleb128 0x3b
 1996 01ed 0B       		.uleb128 0xb
 1997 01ee 49       		.uleb128 0x49
 1998 01ef 13       		.uleb128 0x13
 1999 01f0 02       		.uleb128 0x2
 2000 01f1 0A       		.uleb128 0xa
 2001 01f2 00       		.byte	0
 2002 01f3 00       		.byte	0
 2003 01f4 25       		.uleb128 0x25
 2004 01f5 2E       		.uleb128 0x2e
 2005 01f6 01       		.byte	0x1
 2006 01f7 3F       		.uleb128 0x3f
 2007 01f8 0C       		.uleb128 0xc
 2008 01f9 03       		.uleb128 0x3
 2009 01fa 0E       		.uleb128 0xe
 2010 01fb 3A       		.uleb128 0x3a
 2011 01fc 0B       		.uleb128 0xb
 2012 01fd 3B       		.uleb128 0x3b
 2013 01fe 0B       		.uleb128 0xb
 2014 01ff 27       		.uleb128 0x27
 2015 0200 0C       		.uleb128 0xc
 2016 0201 3C       		.uleb128 0x3c
 2017 0202 0C       		.uleb128 0xc
 2018 0203 01       		.uleb128 0x1
 2019 0204 13       		.uleb128 0x13
 2020 0205 00       		.byte	0
 2021 0206 00       		.byte	0
 2022 0207 26       		.uleb128 0x26
 2023 0208 2E       		.uleb128 0x2e
 2024 0209 00       		.byte	0
 2025 020a 3F       		.uleb128 0x3f
 2026 020b 0C       		.uleb128 0xc
 2027 020c 03       		.uleb128 0x3
 2028 020d 0E       		.uleb128 0xe
 2029 020e 3A       		.uleb128 0x3a
 2030 020f 0B       		.uleb128 0xb
 2031 0210 3B       		.uleb128 0x3b
 2032 0211 0B       		.uleb128 0xb
 2033 0212 27       		.uleb128 0x27
 2034 0213 0C       		.uleb128 0xc
 2035 0214 49       		.uleb128 0x49
ARM GAS  /tmp/ccvvLvGL.s 			page 37


 2036 0215 13       		.uleb128 0x13
 2037 0216 3C       		.uleb128 0x3c
 2038 0217 0C       		.uleb128 0xc
 2039 0218 00       		.byte	0
 2040 0219 00       		.byte	0
 2041 021a 00       		.byte	0
 2042              		.section	.debug_loc,"",%progbits
 2043              	.Ldebug_loc0:
 2044              	.LLST0:
 2045 0000 00000000 		.4byte	.LFB8
 2046 0004 02000000 		.4byte	.LCFI0
 2047 0008 0200     		.2byte	0x2
 2048 000a 7D       		.byte	0x7d
 2049 000b 00       		.sleb128 0
 2050 000c 02000000 		.4byte	.LCFI0
 2051 0010 34000000 		.4byte	.LFE8
 2052 0014 0200     		.2byte	0x2
 2053 0016 7D       		.byte	0x7d
 2054 0017 10       		.sleb128 16
 2055 0018 00000000 		.4byte	0
 2056 001c 00000000 		.4byte	0
 2057              	.LLST1:
 2058 0020 00000000 		.4byte	.LVL1
 2059 0024 12000000 		.4byte	.LVL3
 2060 0028 0100     		.2byte	0x1
 2061 002a 50       		.byte	0x50
 2062 002b 12000000 		.4byte	.LVL3
 2063 002f 34000000 		.4byte	.LFE8
 2064 0033 0100     		.2byte	0x1
 2065 0035 54       		.byte	0x54
 2066 0036 00000000 		.4byte	0
 2067 003a 00000000 		.4byte	0
 2068              	.LLST2:
 2069 003e 00000000 		.4byte	.LVL1
 2070 0042 15000000 		.4byte	.LVL4-1
 2071 0046 0100     		.2byte	0x1
 2072 0048 51       		.byte	0x51
 2073 0049 15000000 		.4byte	.LVL4-1
 2074 004d 34000000 		.4byte	.LFE8
 2075 0051 0100     		.2byte	0x1
 2076 0053 55       		.byte	0x55
 2077 0054 00000000 		.4byte	0
 2078 0058 00000000 		.4byte	0
 2079              	.LLST3:
 2080 005c 00000000 		.4byte	.LVL1
 2081 0060 06000000 		.4byte	.LVL2
 2082 0064 0100     		.2byte	0x1
 2083 0066 52       		.byte	0x52
 2084 0067 06000000 		.4byte	.LVL2
 2085 006b 1A000000 		.4byte	.LVL5
 2086 006f 0100     		.2byte	0x1
 2087 0071 56       		.byte	0x56
 2088 0072 1A000000 		.4byte	.LVL5
 2089 0076 34000000 		.4byte	.LFE8
 2090 007a 0300     		.2byte	0x3
 2091 007c 76       		.byte	0x76
 2092 007d 08       		.sleb128 8
ARM GAS  /tmp/ccvvLvGL.s 			page 38


 2093 007e 9F       		.byte	0x9f
 2094 007f 00000000 		.4byte	0
 2095 0083 00000000 		.4byte	0
 2096              	.LLST4:
 2097 0087 00000000 		.4byte	.LFB9
 2098 008b 02000000 		.4byte	.LCFI1
 2099 008f 0200     		.2byte	0x2
 2100 0091 7D       		.byte	0x7d
 2101 0092 00       		.sleb128 0
 2102 0093 02000000 		.4byte	.LCFI1
 2103 0097 88000000 		.4byte	.LFE9
 2104 009b 0200     		.2byte	0x2
 2105 009d 7D       		.byte	0x7d
 2106 009e 18       		.sleb128 24
 2107 009f 00000000 		.4byte	0
 2108 00a3 00000000 		.4byte	0
 2109              	.LLST5:
 2110 00a7 00000000 		.4byte	.LVL8
 2111 00ab 0A000000 		.4byte	.LVL9
 2112 00af 0100     		.2byte	0x1
 2113 00b1 50       		.byte	0x50
 2114 00b2 0A000000 		.4byte	.LVL9
 2115 00b6 88000000 		.4byte	.LFE9
 2116 00ba 0100     		.2byte	0x1
 2117 00bc 56       		.byte	0x56
 2118 00bd 00000000 		.4byte	0
 2119 00c1 00000000 		.4byte	0
 2120              	.LLST6:
 2121 00c5 00000000 		.4byte	.LVL8
 2122 00c9 0C000000 		.4byte	.LVL10
 2123 00cd 0100     		.2byte	0x1
 2124 00cf 51       		.byte	0x51
 2125 00d0 0C000000 		.4byte	.LVL10
 2126 00d4 14000000 		.4byte	.LVL11
 2127 00d8 0300     		.2byte	0x3
 2128 00da 71       		.byte	0x71
 2129 00db 79       		.sleb128 -7
 2130 00dc 9F       		.byte	0x9f
 2131 00dd 14000000 		.4byte	.LVL11
 2132 00e1 88000000 		.4byte	.LFE9
 2133 00e5 0100     		.2byte	0x1
 2134 00e7 55       		.byte	0x55
 2135 00e8 00000000 		.4byte	0
 2136 00ec 00000000 		.4byte	0
 2137              	.LLST7:
 2138 00f0 18000000 		.4byte	.LVL12
 2139 00f4 52000000 		.4byte	.LVL19
 2140 00f8 0100     		.2byte	0x1
 2141 00fa 54       		.byte	0x54
 2142 00fb 5E000000 		.4byte	.LVL21
 2143 00ff 78000000 		.4byte	.LVL24
 2144 0103 0100     		.2byte	0x1
 2145 0105 54       		.byte	0x54
 2146 0106 80000000 		.4byte	.LVL26
 2147 010a 82000000 		.4byte	.LVL27
 2148 010e 0100     		.2byte	0x1
 2149 0110 54       		.byte	0x54
ARM GAS  /tmp/ccvvLvGL.s 			page 39


 2150 0111 00000000 		.4byte	0
 2151 0115 00000000 		.4byte	0
 2152              	.LLST8:
 2153 0119 1E000000 		.4byte	.LVL14
 2154 011d 20000000 		.4byte	.LVL15
 2155 0121 0100     		.2byte	0x1
 2156 0123 53       		.byte	0x53
 2157 0124 22000000 		.4byte	.LVL16
 2158 0128 59000000 		.4byte	.LVL20-1
 2159 012c 0100     		.2byte	0x1
 2160 012e 53       		.byte	0x53
 2161 012f 59000000 		.4byte	.LVL20-1
 2162 0133 5A000000 		.4byte	.LVL20
 2163 0137 0300     		.2byte	0x3
 2164 0139 74       		.byte	0x74
 2165 013a 78       		.sleb128 -8
 2166 013b 9F       		.byte	0x9f
 2167 013c 5E000000 		.4byte	.LVL21
 2168 0140 67000000 		.4byte	.LVL22-1
 2169 0144 0100     		.2byte	0x1
 2170 0146 53       		.byte	0x53
 2171 0147 72000000 		.4byte	.LVL23
 2172 014b 7C000000 		.4byte	.LVL25
 2173 014f 0100     		.2byte	0x1
 2174 0151 50       		.byte	0x50
 2175 0152 7C000000 		.4byte	.LVL25
 2176 0156 80000000 		.4byte	.LVL26
 2177 015a 0100     		.2byte	0x1
 2178 015c 54       		.byte	0x54
 2179 015d 00000000 		.4byte	0
 2180 0161 00000000 		.4byte	0
 2181              	.LLST9:
 2182 0165 40000000 		.4byte	.LVL17
 2183 0169 50000000 		.4byte	.LVL18
 2184 016d 0100     		.2byte	0x1
 2185 016f 5E       		.byte	0x5e
 2186 0170 00000000 		.4byte	0
 2187 0174 00000000 		.4byte	0
 2188              	.LLST10:
 2189 0178 00000000 		.4byte	.LFB10
 2190 017c 02000000 		.4byte	.LCFI2
 2191 0180 0200     		.2byte	0x2
 2192 0182 7D       		.byte	0x7d
 2193 0183 00       		.sleb128 0
 2194 0184 02000000 		.4byte	.LCFI2
 2195 0188 B0000000 		.4byte	.LFE10
 2196 018c 0200     		.2byte	0x2
 2197 018e 7D       		.byte	0x7d
 2198 018f 18       		.sleb128 24
 2199 0190 00000000 		.4byte	0
 2200 0194 00000000 		.4byte	0
 2201              	.LLST11:
 2202 0198 00000000 		.4byte	.LVL28
 2203 019c 08000000 		.4byte	.LVL29
 2204 01a0 0100     		.2byte	0x1
 2205 01a2 50       		.byte	0x50
 2206 01a3 08000000 		.4byte	.LVL29
ARM GAS  /tmp/ccvvLvGL.s 			page 40


 2207 01a7 A0000000 		.4byte	.LVL37
 2208 01ab 0100     		.2byte	0x1
 2209 01ad 57       		.byte	0x57
 2210 01ae A0000000 		.4byte	.LVL37
 2211 01b2 A2000000 		.4byte	.LVL38
 2212 01b6 0100     		.2byte	0x1
 2213 01b8 50       		.byte	0x50
 2214 01b9 A2000000 		.4byte	.LVL38
 2215 01bd B0000000 		.4byte	.LFE10
 2216 01c1 0100     		.2byte	0x1
 2217 01c3 57       		.byte	0x57
 2218 01c4 00000000 		.4byte	0
 2219 01c8 00000000 		.4byte	0
 2220              	.LLST12:
 2221 01cc 1A000000 		.4byte	.LVL31
 2222 01d0 1C000000 		.4byte	.LVL32
 2223 01d4 0100     		.2byte	0x1
 2224 01d6 56       		.byte	0x56
 2225 01d7 1C000000 		.4byte	.LVL32
 2226 01db 3A000000 		.4byte	.LVL33
 2227 01df 0100     		.2byte	0x1
 2228 01e1 54       		.byte	0x54
 2229 01e2 3A000000 		.4byte	.LVL33
 2230 01e6 3E000000 		.4byte	.LVL34
 2231 01ea 0100     		.2byte	0x1
 2232 01ec 53       		.byte	0x53
 2233 01ed 3E000000 		.4byte	.LVL34
 2234 01f1 A0000000 		.4byte	.LVL37
 2235 01f5 0100     		.2byte	0x1
 2236 01f7 54       		.byte	0x54
 2237 01f8 00000000 		.4byte	0
 2238 01fc 00000000 		.4byte	0
 2239              	.LLST13:
 2240 0200 1A000000 		.4byte	.LVL31
 2241 0204 A0000000 		.4byte	.LVL37
 2242 0208 0100     		.2byte	0x1
 2243 020a 55       		.byte	0x55
 2244 020b 00000000 		.4byte	0
 2245 020f 00000000 		.4byte	0
 2246              	.LLST14:
 2247 0213 1A000000 		.4byte	.LVL31
 2248 0217 A0000000 		.4byte	.LVL37
 2249 021b 0300     		.2byte	0x3
 2250 021d 76       		.byte	0x76
 2251 021e 78       		.sleb128 -8
 2252 021f 9F       		.byte	0x9f
 2253 0220 00000000 		.4byte	0
 2254 0224 00000000 		.4byte	0
 2255              	.LLST15:
 2256 0228 00000000 		.4byte	.LFB11
 2257 022c 02000000 		.4byte	.LCFI3
 2258 0230 0200     		.2byte	0x2
 2259 0232 7D       		.byte	0x7d
 2260 0233 00       		.sleb128 0
 2261 0234 02000000 		.4byte	.LCFI3
 2262 0238 40000000 		.4byte	.LFE11
 2263 023c 0200     		.2byte	0x2
ARM GAS  /tmp/ccvvLvGL.s 			page 41


 2264 023e 7D       		.byte	0x7d
 2265 023f 10       		.sleb128 16
 2266 0240 00000000 		.4byte	0
 2267 0244 00000000 		.4byte	0
 2268              	.LLST16:
 2269 0248 00000000 		.4byte	.LVL40
 2270 024c 0A000000 		.4byte	.LVL41
 2271 0250 0100     		.2byte	0x1
 2272 0252 50       		.byte	0x50
 2273 0253 0A000000 		.4byte	.LVL41
 2274 0257 1C000000 		.4byte	.LVL43
 2275 025b 0100     		.2byte	0x1
 2276 025d 54       		.byte	0x54
 2277 025e 1C000000 		.4byte	.LVL43
 2278 0262 34000000 		.4byte	.LVL48
 2279 0266 1300     		.2byte	0x13
 2280 0268 F3       		.byte	0xf3
 2281 0269 01       		.uleb128 0x1
 2282 026a 50       		.byte	0x50
 2283 026b 03       		.byte	0x3
 2284 026c 00000000 		.4byte	.LANCHOR0
 2285 0270 F3       		.byte	0xf3
 2286 0271 01       		.uleb128 0x1
 2287 0272 50       		.byte	0x50
 2288 0273 30       		.byte	0x30
 2289 0274 2E       		.byte	0x2e
 2290 0275 28       		.byte	0x28
 2291 0276 0100     		.2byte	0x1
 2292 0278 16       		.byte	0x16
 2293 0279 13       		.byte	0x13
 2294 027a 9F       		.byte	0x9f
 2295 027b 34000000 		.4byte	.LVL48
 2296 027f 38000000 		.4byte	.LVL49
 2297 0283 0100     		.2byte	0x1
 2298 0285 54       		.byte	0x54
 2299 0286 38000000 		.4byte	.LVL49
 2300 028a 40000000 		.4byte	.LFE11
 2301 028e 1300     		.2byte	0x13
 2302 0290 F3       		.byte	0xf3
 2303 0291 01       		.uleb128 0x1
 2304 0292 50       		.byte	0x50
 2305 0293 03       		.byte	0x3
 2306 0294 00000000 		.4byte	.LANCHOR0
 2307 0298 F3       		.byte	0xf3
 2308 0299 01       		.uleb128 0x1
 2309 029a 50       		.byte	0x50
 2310 029b 30       		.byte	0x30
 2311 029c 2E       		.byte	0x2e
 2312 029d 28       		.byte	0x28
 2313 029e 0100     		.2byte	0x1
 2314 02a0 16       		.byte	0x16
 2315 02a1 13       		.byte	0x13
 2316 02a2 9F       		.byte	0x9f
 2317 02a3 00000000 		.4byte	0
 2318 02a7 00000000 		.4byte	0
 2319              	.LLST17:
 2320 02ab 00000000 		.4byte	.LVL40
ARM GAS  /tmp/ccvvLvGL.s 			page 42


 2321 02af 13000000 		.4byte	.LVL42-1
 2322 02b3 0100     		.2byte	0x1
 2323 02b5 51       		.byte	0x51
 2324 02b6 13000000 		.4byte	.LVL42-1
 2325 02ba 40000000 		.4byte	.LFE11
 2326 02be 0100     		.2byte	0x1
 2327 02c0 55       		.byte	0x55
 2328 02c1 00000000 		.4byte	0
 2329 02c5 00000000 		.4byte	0
 2330              	.LLST18:
 2331 02c9 14000000 		.4byte	.LVL42
 2332 02cd 1C000000 		.4byte	.LVL43
 2333 02d1 0300     		.2byte	0x3
 2334 02d3 74       		.byte	0x74
 2335 02d4 08       		.sleb128 8
 2336 02d5 9F       		.byte	0x9f
 2337 02d6 34000000 		.4byte	.LVL48
 2338 02da 38000000 		.4byte	.LVL49
 2339 02de 0300     		.2byte	0x3
 2340 02e0 74       		.byte	0x74
 2341 02e1 08       		.sleb128 8
 2342 02e2 9F       		.byte	0x9f
 2343 02e3 38000000 		.4byte	.LVL49
 2344 02e7 40000000 		.4byte	.LFE11
 2345 02eb 1500     		.2byte	0x15
 2346 02ed F3       		.byte	0xf3
 2347 02ee 01       		.uleb128 0x1
 2348 02ef 50       		.byte	0x50
 2349 02f0 03       		.byte	0x3
 2350 02f1 00000000 		.4byte	.LANCHOR0
 2351 02f5 F3       		.byte	0xf3
 2352 02f6 01       		.uleb128 0x1
 2353 02f7 50       		.byte	0x50
 2354 02f8 30       		.byte	0x30
 2355 02f9 2E       		.byte	0x2e
 2356 02fa 28       		.byte	0x28
 2357 02fb 0100     		.2byte	0x1
 2358 02fd 16       		.byte	0x16
 2359 02fe 13       		.byte	0x13
 2360 02ff 23       		.byte	0x23
 2361 0300 08       		.uleb128 0x8
 2362 0301 9F       		.byte	0x9f
 2363 0302 00000000 		.4byte	0
 2364 0306 00000000 		.4byte	0
 2365              	.LLST19:
 2366 030a 14000000 		.4byte	.LVL42
 2367 030e 1C000000 		.4byte	.LVL43
 2368 0312 0200     		.2byte	0x2
 2369 0314 30       		.byte	0x30
 2370 0315 9F       		.byte	0x9f
 2371 0316 24000000 		.4byte	.LVL45
 2372 031a 28000000 		.4byte	.LVL46
 2373 031e 0100     		.2byte	0x1
 2374 0320 54       		.byte	0x54
 2375 0321 34000000 		.4byte	.LVL48
 2376 0325 40000000 		.4byte	.LFE11
 2377 0329 0200     		.2byte	0x2
ARM GAS  /tmp/ccvvLvGL.s 			page 43


 2378 032b 30       		.byte	0x30
 2379 032c 9F       		.byte	0x9f
 2380 032d 00000000 		.4byte	0
 2381 0331 00000000 		.4byte	0
 2382              	.LLST20:
 2383 0335 14000000 		.4byte	.LVL42
 2384 0339 1C000000 		.4byte	.LVL43
 2385 033d 0200     		.2byte	0x2
 2386 033f 30       		.byte	0x30
 2387 0340 9F       		.byte	0x9f
 2388 0341 22000000 		.4byte	.LVL44
 2389 0345 28000000 		.4byte	.LVL46
 2390 0349 0100     		.2byte	0x1
 2391 034b 52       		.byte	0x52
 2392 034c 34000000 		.4byte	.LVL48
 2393 0350 40000000 		.4byte	.LFE11
 2394 0354 0200     		.2byte	0x2
 2395 0356 30       		.byte	0x30
 2396 0357 9F       		.byte	0x9f
 2397 0358 00000000 		.4byte	0
 2398 035c 00000000 		.4byte	0
 2399              		.section	.debug_aranges,"",%progbits
 2400 0000 3C000000 		.4byte	0x3c
 2401 0004 0200     		.2byte	0x2
 2402 0006 00000000 		.4byte	.Ldebug_info0
 2403 000a 04       		.byte	0x4
 2404 000b 00       		.byte	0
 2405 000c 0000     		.2byte	0
 2406 000e 0000     		.2byte	0
 2407 0010 00000000 		.4byte	.LFB7
 2408 0014 20000000 		.4byte	.LFE7-.LFB7
 2409 0018 00000000 		.4byte	.LFB8
 2410 001c 34000000 		.4byte	.LFE8-.LFB8
 2411 0020 00000000 		.4byte	.LFB9
 2412 0024 88000000 		.4byte	.LFE9-.LFB9
 2413 0028 00000000 		.4byte	.LFB10
 2414 002c B0000000 		.4byte	.LFE10-.LFB10
 2415 0030 00000000 		.4byte	.LFB11
 2416 0034 40000000 		.4byte	.LFE11-.LFB11
 2417 0038 00000000 		.4byte	0
 2418 003c 00000000 		.4byte	0
 2419              		.section	.debug_ranges,"",%progbits
 2420              	.Ldebug_ranges0:
 2421 0000 00000000 		.4byte	.LFB7
 2422 0004 20000000 		.4byte	.LFE7
 2423 0008 00000000 		.4byte	.LFB8
 2424 000c 34000000 		.4byte	.LFE8
 2425 0010 00000000 		.4byte	.LFB9
 2426 0014 88000000 		.4byte	.LFE9
 2427 0018 00000000 		.4byte	.LFB10
 2428 001c B0000000 		.4byte	.LFE10
 2429 0020 00000000 		.4byte	.LFB11
 2430 0024 40000000 		.4byte	.LFE11
 2431 0028 00000000 		.4byte	0
 2432 002c 00000000 		.4byte	0
 2433              		.section	.debug_line,"",%progbits
 2434              	.Ldebug_line0:
ARM GAS  /tmp/ccvvLvGL.s 			page 44


 2435 0000 D4020000 		.section	.debug_str,"MS",%progbits,1
 2435      0200C501 
 2435      00000201 
 2435      FB0E0D00 
 2435      01010101 
 2436              	.LASF83:
 2437 0000 2F686F6D 		.ascii	"/home/rob/Projects/stm32/src/rocket_tracks\000"
 2437      652F726F 
 2437      622F5072 
 2437      6F6A6563 
 2437      74732F73 
 2438              	.LASF39:
 2439 002b 705F6D73 		.ascii	"p_msg\000"
 2439      6700
 2440              	.LASF2:
 2441 0031 73697A65 		.ascii	"size_t\000"
 2441      5F7400
 2442              	.LASF65:
 2443 0038 7264796D 		.ascii	"rdymsg\000"
 2443      736700
 2444              	.LASF12:
 2445 003f 75696E74 		.ascii	"uint64_t\000"
 2445      36345F74 
 2445      00
 2446              	.LASF55:
 2447 0048 6D656D67 		.ascii	"memgetfunc_t\000"
 2447      65746675 
 2447      6E635F74 
 2447      00
 2448              	.LASF13:
 2449 0055 6C6F6E67 		.ascii	"long long unsigned int\000"
 2449      206C6F6E 
 2449      6720756E 
 2449      7369676E 
 2449      65642069 
 2450              	.LASF66:
 2451 006c 65786974 		.ascii	"exitcode\000"
 2451      636F6465 
 2451      00
 2452              	.LASF59:
 2453 0075 685F6672 		.ascii	"h_free\000"
 2453      656500
 2454              	.LASF79:
 2455 007c 63684462 		.ascii	"chDbgPanic\000"
 2455      6750616E 
 2455      696300
 2456              	.LASF72:
 2457 0087 68656170 		.ascii	"heapp\000"
 2457      7000
 2458              	.LASF85:
 2459 008d 63684D74 		.ascii	"chMtxUnlock\000"
 2459      78556E6C 
 2459      6F636B00 
 2460              	.LASF71:
 2461 0099 63684865 		.ascii	"chHeapInit\000"
 2461      6170496E 
 2461      697400
ARM GAS  /tmp/ccvvLvGL.s 			page 45


 2462              	.LASF61:
 2463 00a4 6E657874 		.ascii	"next\000"
 2463      00
 2464              	.LASF26:
 2465 00a9 705F7072 		.ascii	"p_prio\000"
 2465      696F00
 2466              	.LASF11:
 2467 00b0 6C6F6E67 		.ascii	"long long int\000"
 2467      206C6F6E 
 2467      6720696E 
 2467      7400
 2468              	.LASF1:
 2469 00be 7369676E 		.ascii	"signed char\000"
 2469      65642063 
 2469      68617200 
 2470              	.LASF60:
 2471 00ca 685F6D74 		.ascii	"h_mtx\000"
 2471      7800
 2472              	.LASF43:
 2473 00d0 705F6D70 		.ascii	"p_mpool\000"
 2473      6F6F6C00 
 2474              	.LASF52:
 2475 00d8 6D5F7175 		.ascii	"m_queue\000"
 2475      65756500 
 2476              	.LASF73:
 2477 00e0 63684865 		.ascii	"chHeapFree\000"
 2477      61704672 
 2477      656500
 2478              	.LASF18:
 2479 00eb 74736C69 		.ascii	"tslices_t\000"
 2479      6365735F 
 2479      7400
 2480              	.LASF8:
 2481 00f5 6C6F6E67 		.ascii	"long int\000"
 2481      20696E74 
 2481      00
 2482              	.LASF16:
 2483 00fe 74737461 		.ascii	"tstate_t\000"
 2483      74655F74 
 2483      00
 2484              	.LASF82:
 2485 0107 2E2E2F2E 		.ascii	"../../ChibiOS/os/kernel/src/chheap.c\000"
 2485      2E2F4368 
 2485      6962694F 
 2485      532F6F73 
 2485      2F6B6572 
 2486              	.LASF28:
 2487 012c 705F6E65 		.ascii	"p_newer\000"
 2487      77657200 
 2488              	.LASF46:
 2489 0134 72656761 		.ascii	"regarm_t\000"
 2489      726D5F74 
 2489      00
 2490              	.LASF63:
 2491 013d 616C6967 		.ascii	"align\000"
 2491      6E00
 2492              	.LASF31:
ARM GAS  /tmp/ccvvLvGL.s 			page 46


 2493 0143 705F7374 		.ascii	"p_stklimit\000"
 2493      6B6C696D 
 2493      697400
 2494              	.LASF0:
 2495 014e 756E7369 		.ascii	"unsigned int\000"
 2495      676E6564 
 2495      20696E74 
 2495      00
 2496              	.LASF10:
 2497 015b 6C6F6E67 		.ascii	"long unsigned int\000"
 2497      20756E73 
 2497      69676E65 
 2497      6420696E 
 2497      7400
 2498              	.LASF49:
 2499 016d 636F6E74 		.ascii	"context\000"
 2499      65787400 
 2500              	.LASF64:
 2501 0175 73697A65 		.ascii	"size\000"
 2501      00
 2502              	.LASF6:
 2503 017a 73686F72 		.ascii	"short unsigned int\000"
 2503      7420756E 
 2503      7369676E 
 2503      65642069 
 2503      6E7400
 2504              	.LASF20:
 2505 018d 6D73675F 		.ascii	"msg_t\000"
 2505      7400
 2506              	.LASF15:
 2507 0193 746D6F64 		.ascii	"tmode_t\000"
 2507      655F7400 
 2508              	.LASF45:
 2509 019b 54687265 		.ascii	"ThreadsList\000"
 2509      6164734C 
 2509      69737400 
 2510              	.LASF21:
 2511 01a7 6576656E 		.ascii	"eventmask_t\000"
 2511      746D6173 
 2511      6B5F7400 
 2512              	.LASF51:
 2513 01b3 4D757465 		.ascii	"Mutex\000"
 2513      7800
 2514              	.LASF47:
 2515 01b9 73746B61 		.ascii	"stkalign_t\000"
 2515      6C69676E 
 2515      5F7400
 2516              	.LASF50:
 2517 01c4 73697A65 		.ascii	"sizetype\000"
 2517      74797065 
 2517      00
 2518              	.LASF80:
 2519 01cd 63684D74 		.ascii	"chMtxLock\000"
 2519      784C6F63 
 2519      6B00
 2520              	.LASF29:
 2521 01d7 705F6F6C 		.ascii	"p_older\000"
ARM GAS  /tmp/ccvvLvGL.s 			page 47


 2521      64657200 
 2522              	.LASF44:
 2523 01df 54687265 		.ascii	"ThreadsQueue\000"
 2523      61647351 
 2523      75657565 
 2523      00
 2524              	.LASF81:
 2525 01ec 474E5520 		.ascii	"GNU C 4.7.2\000"
 2525      4320342E 
 2525      372E3200 
 2526              	.LASF56:
 2527 01f8 4D656D6F 		.ascii	"MemoryHeap\000"
 2527      72794865 
 2527      617000
 2528              	.LASF17:
 2529 0203 74726566 		.ascii	"trefs_t\000"
 2529      735F7400 
 2530              	.LASF25:
 2531 020b 705F7072 		.ascii	"p_prev\000"
 2531      657600
 2532              	.LASF19:
 2533 0212 74707269 		.ascii	"tprio_t\000"
 2533      6F5F7400 
 2534              	.LASF14:
 2535 021a 5F426F6F 		.ascii	"_Bool\000"
 2535      6C00
 2536              	.LASF7:
 2537 0220 696E7433 		.ascii	"int32_t\000"
 2537      325F7400 
 2538              	.LASF4:
 2539 0228 756E7369 		.ascii	"unsigned char\000"
 2539      676E6564 
 2539      20636861 
 2539      7200
 2540              	.LASF58:
 2541 0236 685F7072 		.ascii	"h_provider\000"
 2541      6F766964 
 2541      657200
 2542              	.LASF41:
 2543 0241 705F6D74 		.ascii	"p_mtxlist\000"
 2543      786C6973 
 2543      7400
 2544              	.LASF5:
 2545 024b 73686F72 		.ascii	"short int\000"
 2545      7420696E 
 2545      7400
 2546              	.LASF32:
 2547 0255 705F7374 		.ascii	"p_state\000"
 2547      61746500 
 2548              	.LASF35:
 2549 025d 705F7072 		.ascii	"p_preempt\000"
 2549      65656D70 
 2549      7400
 2550              	.LASF84:
 2551 0267 68656170 		.ascii	"heap_header\000"
 2551      5F686561 
 2551      64657200 
ARM GAS  /tmp/ccvvLvGL.s 			page 48


 2552              	.LASF68:
 2553 0273 65776D61 		.ascii	"ewmask\000"
 2553      736B00
 2554              	.LASF24:
 2555 027a 705F6E65 		.ascii	"p_next\000"
 2555      787400
 2556              	.LASF33:
 2557 0281 705F666C 		.ascii	"p_flags\000"
 2557      61677300 
 2558              	.LASF23:
 2559 0289 54687265 		.ascii	"Thread\000"
 2559      616400
 2560              	.LASF74:
 2561 0290 63684865 		.ascii	"chHeapAlloc\000"
 2561      6170416C 
 2561      6C6F6300 
 2562              	.LASF40:
 2563 029c 705F6570 		.ascii	"p_epending\000"
 2563      656E6469 
 2563      6E6700
 2564              	.LASF9:
 2565 02a7 75696E74 		.ascii	"uint32_t\000"
 2565      33325F74 
 2565      00
 2566              	.LASF62:
 2567 02b0 68656170 		.ascii	"heap\000"
 2567      00
 2568              	.LASF77:
 2569 02b5 64656661 		.ascii	"default_heap\000"
 2569      756C745F 
 2569      68656170 
 2569      00
 2570              	.LASF69:
 2571 02c2 63686172 		.ascii	"char\000"
 2571      00
 2572              	.LASF75:
 2573 02c7 63684865 		.ascii	"chHeapStatus\000"
 2573      61705374 
 2573      61747573 
 2573      00
 2574              	.LASF54:
 2575 02d4 6D5F6E65 		.ascii	"m_next\000"
 2575      787400
 2576              	.LASF22:
 2577 02db 73797374 		.ascii	"systime_t\000"
 2577      696D655F 
 2577      7400
 2578              	.LASF42:
 2579 02e5 705F7265 		.ascii	"p_realprio\000"
 2579      616C7072 
 2579      696F00
 2580              	.LASF36:
 2581 02f0 705F7469 		.ascii	"p_time\000"
 2581      6D6500
 2582              	.LASF48:
 2583 02f7 696E7463 		.ascii	"intctx\000"
 2583      747800
ARM GAS  /tmp/ccvvLvGL.s 			page 49


 2584              	.LASF38:
 2585 02fe 705F6D73 		.ascii	"p_msgqueue\000"
 2585      67717565 
 2585      756500
 2586              	.LASF78:
 2587 0309 63684D74 		.ascii	"chMtxInit\000"
 2587      78496E69 
 2587      7400
 2588              	.LASF34:
 2589 0313 705F7265 		.ascii	"p_refs\000"
 2589      667300
 2590              	.LASF3:
 2591 031a 75696E74 		.ascii	"uint8_t\000"
 2591      385F7400 
 2592              	.LASF67:
 2593 0322 77746F62 		.ascii	"wtobjp\000"
 2593      6A7000
 2594              	.LASF76:
 2595 0329 73697A65 		.ascii	"sizep\000"
 2595      7000
 2596              	.LASF30:
 2597 032f 705F6E61 		.ascii	"p_name\000"
 2597      6D6500
 2598              	.LASF70:
 2599 0336 5F686561 		.ascii	"_heap_init\000"
 2599      705F696E 
 2599      697400
 2600              	.LASF53:
 2601 0341 6D5F6F77 		.ascii	"m_owner\000"
 2601      6E657200 
 2602              	.LASF27:
 2603 0349 705F6374 		.ascii	"p_ctx\000"
 2603      7800
 2604              	.LASF37:
 2605 034f 705F7761 		.ascii	"p_waiting\000"
 2605      6974696E 
 2605      6700
 2606              	.LASF57:
 2607 0359 6D656D6F 		.ascii	"memory_heap\000"
 2607      72795F68 
 2607      65617000 
 2608              		.ident	"GCC: (crosstool-NG 1.17.0 - PSAS ST32F4 GFE) 4.7.2"
ARM GAS  /tmp/ccvvLvGL.s 			page 50


DEFINED SYMBOLS
                            *ABS*:0000000000000000 chheap.c
     /tmp/ccvvLvGL.s:21     .text._heap_init:0000000000000000 $t
     /tmp/ccvvLvGL.s:27     .text._heap_init:0000000000000000 _heap_init
     /tmp/ccvvLvGL.s:509    .bss.default_heap:0000000000000000 .LANCHOR0
     /tmp/ccvvLvGL.s:59     .text.chHeapInit:0000000000000000 $t
     /tmp/ccvvLvGL.s:65     .text.chHeapInit:0000000000000000 chHeapInit
     /tmp/ccvvLvGL.s:123    .text.chHeapInit:0000000000000030 $d
     /tmp/ccvvLvGL.s:128    .text.chHeapAlloc:0000000000000000 $t
     /tmp/ccvvLvGL.s:134    .text.chHeapAlloc:0000000000000000 chHeapAlloc
     /tmp/ccvvLvGL.s:261    .text.chHeapAlloc:0000000000000084 $d
     /tmp/ccvvLvGL.s:266    .text.chHeapFree:0000000000000000 $t
     /tmp/ccvvLvGL.s:272    .text.chHeapFree:0000000000000000 chHeapFree
     /tmp/ccvvLvGL.s:411    .text.chHeapFree:00000000000000a8 $d
     /tmp/ccvvLvGL.s:417    .text.chHeapStatus:0000000000000000 $t
     /tmp/ccvvLvGL.s:423    .text.chHeapStatus:0000000000000000 chHeapStatus
     /tmp/ccvvLvGL.s:493    .text.chHeapStatus:000000000000003c $d
     /tmp/ccvvLvGL.s:498    .rodata.str1.4:0000000000000000 $d
     /tmp/ccvvLvGL.s:508    .bss.default_heap:0000000000000000 $d
     /tmp/ccvvLvGL.s:512    .bss.default_heap:0000000000000000 default_heap
                     .debug_frame:0000000000000010 $d
     /tmp/ccvvLvGL.s:127    .text.chHeapInit:0000000000000034 $t
     /tmp/ccvvLvGL.s:265    .text.chHeapAlloc:0000000000000088 $t

UNDEFINED SYMBOLS
chCoreAlloc
chMtxInit
chDbgPanic
chMtxLock
chMtxUnlock
