ARM GAS  /tmp/ccvvLvGL.s 			page 1


   1              		.syntax unified
   2              		.cpu cortex-m4
   3              		.eabi_attribute 27, 3
   4              		.eabi_attribute 28, 1
   5              		.fpu fpv4-sp-d16
   6              		.eabi_attribute 20, 1
   7              		.eabi_attribute 21, 1
   8              		.eabi_attribute 23, 3
   9              		.eabi_attribute 24, 1
  10              		.eabi_attribute 25, 1
  11              		.eabi_attribute 26, 1
  12              		.eabi_attribute 30, 2
  13              		.eabi_attribute 34, 1
  14              		.eabi_attribute 18, 4
  15              		.thumb
  16              		.file	"chheap.c"
  17              		.text
  18              	.Ltext0:
  19              		.cfi_sections	.debug_frame
  20              		.section	.text._heap_init,"ax",%progbits
  21              		.align	2
  22              		.p2align 4,,15
  23              		.global	_heap_init
  24              		.thumb
  25              		.thumb_func
  26              		.type	_heap_init, %function
  27              	_heap_init:
  28              	.LFB7:
  29              		.file 1 "../../ChibiOS/os/kernel/src/chheap.c"
  30              		.loc 1 68 0
  31              		.cfi_startproc
  32              		@ args = 0, pretend = 0, frame = 0
  33              		@ frame_needed = 0, uses_anonymous_args = 0
  34              		@ link register save eliminated.
  35              		.loc 1 69 0
  36 0000 40F20003 		movw	r3, #:lower16:.LANCHOR0
  37 0004 C0F20003 		movt	r3, #:upper16:.LANCHOR0
  38 0008 40F20001 		movw	r1, #:lower16:chCoreAlloc
  39              		.loc 1 70 0
  40 000c 0022     		movs	r2, #0
  41              		.loc 1 69 0
  42 000e C0F20001 		movt	r1, #:upper16:chCoreAlloc
  43              		.loc 1 73 0
  44 0012 03F11000 		add	r0, r3, #16
  45              		.loc 1 69 0
  46 0016 1960     		str	r1, [r3, #0]
  47              		.loc 1 70 0
  48 0018 9A60     		str	r2, [r3, #8]
  49              		.loc 1 71 0
  50 001a DA60     		str	r2, [r3, #12]
  51              		.loc 1 77 0
  52              		.loc 1 73 0
  53 001c FFF7FEBF 		b	chMtxInit
  54              	.LVL0:
  55              		.cfi_endproc
  56              	.LFE7:
  57              		.size	_heap_init, .-_heap_init
ARM GAS  /tmp/ccvvLvGL.s 			page 2


  58              		.section	.text.chHeapInit,"ax",%progbits
  59              		.align	2
  60              		.p2align 4,,15
  61              		.global	chHeapInit
  62              		.thumb
  63              		.thumb_func
  64              		.type	chHeapInit, %function
  65              	chHeapInit:
  66              	.LFB8:
  67              		.loc 1 92 0
  68              		.cfi_startproc
  69              		@ args = 0, pretend = 0, frame = 0
  70              		@ frame_needed = 0, uses_anonymous_args = 0
  71              	.LVL1:
  72 0000 70B5     		push	{r4, r5, r6, lr}
  73              	.LCFI0:
  74              		.cfi_def_cfa_offset 16
  75              		.cfi_offset 4, -16
  76              		.cfi_offset 5, -12
  77              		.cfi_offset 6, -8
  78              		.cfi_offset 14, -4
  79              		.loc 1 92 0
  80 0002 1646     		mov	r6, r2
  81              		.loc 1 95 0
  82 0004 4A07     		lsls	r2, r1, #29
  83              	.LVL2:
  84              		.loc 1 92 0
  85 0006 0D46     		mov	r5, r1
  86 0008 0446     		mov	r4, r0
  87              		.loc 1 95 0
  88 000a 01D1     		bne	.L3
  89              		.loc 1 95 0 is_stmt 0 discriminator 2
  90 000c 7307     		lsls	r3, r6, #29
  91 000e 02D0     		beq	.L4
  92              	.L3:
  93              		.loc 1 95 0 discriminator 1
  94 0010 0748     		ldr	r0, .L9
  95              	.LVL3:
  96 0012 FFF7FEFF 		bl	chDbgPanic
  97              	.LVL4:
  98              	.L4:
  99              		.loc 1 97 0 is_stmt 1
 100 0016 0023     		movs	r3, #0
 101              		.loc 1 101 0
 102 0018 083E     		subs	r6, r6, #8
 103              	.LVL5:
 104              		.loc 1 103 0
 105 001a 04F11000 		add	r0, r4, #16
 106              		.loc 1 97 0
 107 001e 2360     		str	r3, [r4, #0]
 108              	.LVL6:
 109              		.loc 1 98 0
 110 0020 A560     		str	r5, [r4, #8]
 111              		.loc 1 99 0
 112 0022 E360     		str	r3, [r4, #12]
 113              		.loc 1 101 0
 114 0024 85E84800 		stmia	r5, {r3, r6}
ARM GAS  /tmp/ccvvLvGL.s 			page 3


 115              		.loc 1 107 0
 116 0028 BDE87040 		pop	{r4, r5, r6, lr}
 117              		.loc 1 103 0
 118 002c FFF7FEBF 		b	chMtxInit
 119              	.LVL7:
 120              	.L10:
 121              		.align	2
 122              	.L9:
 123 0030 00000000 		.word	.LC0
 124              		.cfi_endproc
 125              	.LFE8:
 126              		.size	chHeapInit, .-chHeapInit
 127 0034 AFF30080 		.section	.text.chHeapAlloc,"ax",%progbits
 127      AFF30080 
 127      AFF30080 
 128              		.align	2
 129              		.p2align 4,,15
 130              		.global	chHeapAlloc
 131              		.thumb
 132              		.thumb_func
 133              		.type	chHeapAlloc, %function
 134              	chHeapAlloc:
 135              	.LFB9:
 136              		.loc 1 125 0
 137              		.cfi_startproc
 138              		@ args = 0, pretend = 0, frame = 0
 139              		@ frame_needed = 0, uses_anonymous_args = 0
 140              	.LVL8:
 141 0000 F8B5     		push	{r3, r4, r5, r6, r7, lr}
 142              	.LCFI1:
 143              		.cfi_def_cfa_offset 24
 144              		.cfi_offset 3, -24
 145              		.cfi_offset 4, -20
 146              		.cfi_offset 5, -16
 147              		.cfi_offset 6, -12
 148              		.cfi_offset 7, -8
 149              		.cfi_offset 14, -4
 150              		.loc 1 129 0
 151 0002 204E     		ldr	r6, .L27
 152 0004 0028     		cmp	r0, #0
 153 0006 18BF     		it	ne
 154 0008 0646     		movne	r6, r0
 155              	.LVL9:
 156              		.loc 1 131 0
 157 000a 0731     		adds	r1, r1, #7
 158              	.LVL10:
 159              		.loc 1 133 0
 160 000c 06F11000 		add	r0, r6, #16
 161              		.loc 1 131 0
 162 0010 21F00705 		bic	r5, r1, #7
 163              	.LVL11:
 164              		.loc 1 132 0
 165 0014 06F10804 		add	r4, r6, #8
 166              	.LVL12:
 167              		.loc 1 133 0
 168 0018 FFF7FEFF 		bl	chMtxLock
 169              	.LVL13:
ARM GAS  /tmp/ccvvLvGL.s 			page 4


 170              		.loc 1 135 0
 171 001c 00E0     		b	.L13
 172              	.LVL14:
 173              	.L21:
 174              		.loc 1 137 0
 175 001e 1C46     		mov	r4, r3
 176              	.LVL15:
 177              	.L13:
 178              		.loc 1 135 0 discriminator 1
 179 0020 2368     		ldr	r3, [r4, #0]
 180              	.LVL16:
 181 0022 FBB1     		cbz	r3, .L25
 182              		.loc 1 137 0
 183 0024 5A68     		ldr	r2, [r3, #4]
 184 0026 9542     		cmp	r5, r2
 185 0028 F9D8     		bhi	.L21
 186              		.loc 1 138 0
 187 002a 05F10801 		add	r1, r5, #8
 188 002e 9142     		cmp	r1, r2
 189 0030 15D8     		bhi	.L26
 190              		.loc 1 148 0
 191 0032 4FF6F870 		movw	r0, #65528
 192 0036 CFF6FF70 		movt	r0, 65535
 193 003a 401B     		subs	r0, r0, r5
 194              		.loc 1 146 0
 195 003c 03EB010E 		add	lr, r3, r1
 196              	.LVL17:
 197              		.loc 1 148 0
 198 0040 8218     		adds	r2, r0, r2
 199              		.loc 1 147 0
 200 0042 1868     		ldr	r0, [r3, #0]
 201              		.loc 1 148 0
 202 0044 CEF80420 		str	r2, [lr, #4]
 203              		.loc 1 147 0
 204 0048 5850     		str	r0, [r3, r1]
 205              		.loc 1 150 0
 206 004a 5D60     		str	r5, [r3, #4]
 207              		.loc 1 149 0
 208 004c C4F800E0 		str	lr, [r4, #0]
 209              	.LVL18:
 210              	.L15:
 211              		.loc 1 152 0
 212 0050 1C46     		mov	r4, r3
 213              	.LVL19:
 214 0052 44F8086B 		str	r6, [r4], #8
 215              		.loc 1 154 0
 216 0056 FFF7FEFF 		bl	chMtxUnlock
 217              	.LVL20:
 218              	.L16:
 219              		.loc 1 174 0
 220 005a 2046     		mov	r0, r4
 221 005c F8BD     		pop	{r3, r4, r5, r6, r7, pc}
 222              	.LVL21:
 223              	.L26:
 224              		.loc 1 142 0
 225 005e 1A68     		ldr	r2, [r3, #0]
 226 0060 2260     		str	r2, [r4, #0]
ARM GAS  /tmp/ccvvLvGL.s 			page 5


 227 0062 F5E7     		b	.L15
 228              	.L25:
 229              		.loc 1 160 0
 230 0064 FFF7FEFF 		bl	chMtxUnlock
 231              	.LVL22:
 232              		.loc 1 164 0
 233 0068 3368     		ldr	r3, [r6, #0]
 234 006a 4BB1     		cbz	r3, .L19
 235              		.loc 1 165 0
 236 006c 05F10800 		add	r0, r5, #8
 237 0070 9847     		blx	r3
 238              	.LVL23:
 239              		.loc 1 166 0
 240 0072 28B1     		cbz	r0, .L19
 241              		.loc 1 170 0
 242 0074 00F10804 		add	r4, r0, #8
 243              	.LVL24:
 244              		.loc 1 167 0
 245 0078 0660     		str	r6, [r0, #0]
 246              		.loc 1 168 0
 247 007a 4560     		str	r5, [r0, #4]
 248              	.LVL25:
 249              		.loc 1 174 0
 250 007c 2046     		mov	r0, r4
 251 007e F8BD     		pop	{r3, r4, r5, r6, r7, pc}
 252              	.LVL26:
 253              	.L19:
 254              		.loc 1 173 0
 255 0080 0024     		movs	r4, #0
 256              	.LVL27:
 257 0082 EAE7     		b	.L16
 258              	.L28:
 259              		.align	2
 260              	.L27:
 261 0084 00000000 		.word	.LANCHOR0
 262              		.cfi_endproc
 263              	.LFE9:
 264              		.size	chHeapAlloc, .-chHeapAlloc
 265 0088 AFF30080 		.section	.text.chHeapFree,"ax",%progbits
 265      AFF30080 
 266              		.align	2
 267              		.p2align 4,,15
 268              		.global	chHeapFree
 269              		.thumb
 270              		.thumb_func
 271              		.type	chHeapFree, %function
 272              	chHeapFree:
 273              	.LFB10:
 274              		.loc 1 187 0
 275              		.cfi_startproc
 276              		@ args = 0, pretend = 0, frame = 0
 277              		@ frame_needed = 0, uses_anonymous_args = 0
 278              	.LVL28:
 279 0000 F8B5     		push	{r3, r4, r5, r6, r7, lr}
 280              	.LCFI2:
 281              		.cfi_def_cfa_offset 24
 282              		.cfi_offset 3, -24
ARM GAS  /tmp/ccvvLvGL.s 			page 6


 283              		.cfi_offset 4, -20
 284              		.cfi_offset 5, -16
 285              		.cfi_offset 6, -12
 286              		.cfi_offset 7, -8
 287              		.cfi_offset 14, -4
 288              		.loc 1 191 0
 289 0002 0746     		mov	r7, r0
 290 0004 0028     		cmp	r0, #0
 291 0006 4BD0     		beq	.L42
 292              	.LVL29:
 293              	.L30:
 294              		.loc 1 194 0
 295 0008 57F8086C 		ldr	r6, [r7, #-8]
 296              		.loc 1 196 0
 297 000c 06F11000 		add	r0, r6, #16
 298 0010 FFF7FEFF 		bl	chMtxLock
 299              	.LVL30:
 300              		.loc 1 195 0
 301 0014 0836     		adds	r6, r6, #8
 302              		.loc 1 193 0
 303 0016 A7F10805 		sub	r5, r7, #8
 304              	.LVL31:
 305              		.loc 1 195 0
 306 001a 3446     		mov	r4, r6
 307              	.LVL32:
 308              	.L38:
 309              		.loc 1 199 0
 310 001c AC42     		cmp	r4, r5
 311 001e 04D8     		bhi	.L31
 312              		.loc 1 199 0 is_stmt 0 discriminator 1
 313 0020 6368     		ldr	r3, [r4, #4]
 314 0022 0833     		adds	r3, r3, #8
 315 0024 E318     		adds	r3, r4, r3
 316 0026 9D42     		cmp	r5, r3
 317 0028 1FD3     		bcc	.L43
 318              	.L31:
 319              		.loc 1 203 0 is_stmt 1
 320 002a B442     		cmp	r4, r6
 321              		.loc 1 204 0
 322 002c 2368     		ldr	r3, [r4, #0]
 323              		.loc 1 203 0
 324 002e 01D0     		beq	.L32
 325              		.loc 1 203 0 is_stmt 0 discriminator 2
 326 0030 AC42     		cmp	r4, r5
 327 0032 02D2     		bcs	.L35
 328              	.L32:
 329              		.loc 1 203 0 discriminator 1
 330 0034 1BB1     		cbz	r3, .L34
 331              		.loc 1 204 0 is_stmt 1
 332 0036 9D42     		cmp	r5, r3
 333 0038 01D3     		bcc	.L34
 334              	.L35:
 335              	.LVL33:
 336              		.loc 1 221 0
 337 003a 1C46     		mov	r4, r3
 338              		.loc 1 222 0
 339 003c EEE7     		b	.L38
ARM GAS  /tmp/ccvvLvGL.s 			page 7


 340              	.LVL34:
 341              	.L34:
 342              		.loc 1 209 0
 343 003e 57F8042C 		ldr	r2, [r7, #-4]
 344              		.loc 1 206 0
 345 0042 47F8083C 		str	r3, [r7, #-8]
 346              		.loc 1 207 0
 347 0046 2560     		str	r5, [r4, #0]
 348              		.loc 1 209 0
 349 0048 02F10803 		add	r3, r2, #8
 350 004c 57F8080C 		ldr	r0, [r7, #-8]
 351 0050 E918     		adds	r1, r5, r3
 352 0052 8142     		cmp	r1, r0
 353 0054 0DD0     		beq	.L44
 354              		.loc 1 214 0
 355 0056 6368     		ldr	r3, [r4, #4]
 356 0058 03F10802 		add	r2, r3, #8
 357 005c A218     		adds	r2, r4, r2
 358 005e 9542     		cmp	r5, r2
 359 0060 15D0     		beq	.L45
 360              	.L37:
 361              		.loc 1 226 0
 362 0062 BDE8F840 		pop	{r3, r4, r5, r6, r7, lr}
 363              		.loc 1 224 0
 364 0066 FFF7FEBF 		b	chMtxUnlock
 365              	.LVL35:
 366              	.L43:
 367              		.loc 1 199 0 discriminator 2
 368 006a 0F48     		ldr	r0, .L46
 369 006c FFF7FEFF 		bl	chDbgPanic
 370              	.LVL36:
 371 0070 DBE7     		b	.L31
 372              	.L44:
 373              		.loc 1 211 0
 374 0072 4968     		ldr	r1, [r1, #4]
 375              		.loc 1 212 0
 376 0074 EB58     		ldr	r3, [r5, r3]
 377              		.loc 1 211 0
 378 0076 5218     		adds	r2, r2, r1
 379 0078 0832     		adds	r2, r2, #8
 380 007a 47F8042C 		str	r2, [r7, #-4]
 381              		.loc 1 212 0
 382 007e 47F8083C 		str	r3, [r7, #-8]
 383              		.loc 1 214 0
 384 0082 6368     		ldr	r3, [r4, #4]
 385 0084 03F10802 		add	r2, r3, #8
 386 0088 A218     		adds	r2, r4, r2
 387 008a 9542     		cmp	r5, r2
 388 008c E9D1     		bne	.L37
 389              	.L45:
 390              		.loc 1 216 0
 391 008e 57F8041C 		ldr	r1, [r7, #-4]
 392              		.loc 1 217 0
 393 0092 57F8082C 		ldr	r2, [r7, #-8]
 394              		.loc 1 216 0
 395 0096 5B18     		adds	r3, r3, r1
 396 0098 0833     		adds	r3, r3, #8
ARM GAS  /tmp/ccvvLvGL.s 			page 8


 397              		.loc 1 217 0
 398 009a 84E80C00 		stmia	r4, {r2, r3}
 399 009e E0E7     		b	.L37
 400              	.LVL37:
 401              	.L42:
 402              		.loc 1 191 0 discriminator 1
 403 00a0 0248     		ldr	r0, .L46+4
 404              	.LVL38:
 405 00a2 FFF7FEFF 		bl	chDbgPanic
 406              	.LVL39:
 407 00a6 AFE7     		b	.L30
 408              	.L47:
 409              		.align	2
 410              	.L46:
 411 00a8 20000000 		.word	.LC2
 412 00ac 10000000 		.word	.LC1
 413              		.cfi_endproc
 414              	.LFE10:
 415              		.size	chHeapFree, .-chHeapFree
 416              		.section	.text.chHeapStatus,"ax",%progbits
 417              		.align	2
 418              		.p2align 4,,15
 419              		.global	chHeapStatus
 420              		.thumb
 421              		.thumb_func
 422              		.type	chHeapStatus, %function
 423              	chHeapStatus:
 424              	.LFB11:
 425              		.loc 1 243 0
 426              		.cfi_startproc
 427              		@ args = 0, pretend = 0, frame = 0
 428              		@ frame_needed = 0, uses_anonymous_args = 0
 429              	.LVL40:
 430 0000 38B5     		push	{r3, r4, r5, lr}
 431              	.LCFI3:
 432              		.cfi_def_cfa_offset 16
 433              		.cfi_offset 3, -16
 434              		.cfi_offset 4, -12
 435              		.cfi_offset 5, -8
 436              		.cfi_offset 14, -4
 437              		.loc 1 248 0
 438 0002 0E4C     		ldr	r4, .L59
 439 0004 0028     		cmp	r0, #0
 440 0006 18BF     		it	ne
 441 0008 0446     		movne	r4, r0
 442              	.LVL41:
 443              		.loc 1 250 0
 444 000a 04F11000 		add	r0, r4, #16
 445              		.loc 1 243 0
 446 000e 0D46     		mov	r5, r1
 447              		.loc 1 250 0
 448 0010 FFF7FEFF 		bl	chMtxLock
 449              	.LVL42:
 450              		.loc 1 253 0
 451 0014 A368     		ldr	r3, [r4, #8]
 452 0016 6BB1     		cbz	r3, .L54
 453 0018 0022     		movs	r2, #0
ARM GAS  /tmp/ccvvLvGL.s 			page 9


 454 001a 1446     		mov	r4, r2
 455              	.LVL43:
 456              	.L51:
 457              		.loc 1 254 0 discriminator 2
 458 001c 5868     		ldr	r0, [r3, #4]
 459              		.loc 1 253 0 discriminator 2
 460 001e 1B68     		ldr	r3, [r3, #0]
 461              		.loc 1 254 0 discriminator 2
 462 0020 1218     		adds	r2, r2, r0
 463              	.LVL44:
 464              		.loc 1 253 0 discriminator 2
 465 0022 0134     		adds	r4, r4, #1
 466              	.LVL45:
 467 0024 002B     		cmp	r3, #0
 468 0026 F9D1     		bne	.L51
 469              	.LVL46:
 470              	.L50:
 471              		.loc 1 255 0
 472 0028 05B1     		cbz	r5, .L52
 473              		.loc 1 256 0
 474 002a 2A60     		str	r2, [r5, #0]
 475              	.L52:
 476              		.loc 1 258 0
 477 002c FFF7FEFF 		bl	chMtxUnlock
 478              	.LVL47:
 479              		.loc 1 260 0
 480 0030 2046     		mov	r0, r4
 481 0032 38BD     		pop	{r3, r4, r5, pc}
 482              	.LVL48:
 483              	.L54:
 484              		.loc 1 252 0
 485 0034 1A46     		mov	r2, r3
 486              		.loc 1 253 0
 487 0036 1C46     		mov	r4, r3
 488              	.LVL49:
 489 0038 F6E7     		b	.L50
 490              	.L60:
 491 003a 00BF     		.align	2
 492              	.L59:
 493 003c 00000000 		.word	.LANCHOR0
 494              		.cfi_endproc
 495              	.LFE11:
 496              		.size	chHeapStatus, .-chHeapStatus
 497              		.section	.rodata.str1.4,"aMS",%progbits,1
 498              		.align	2
 499              	.LC0:
 500 0000 22636848 		.ascii	"\"chHeapInit\"()\000"
 500      65617049 
 500      6E697422 
 500      282900
 501 000f 00       		.space	1
 502              	.LC1:
 503 0010 22636848 		.ascii	"\"chHeapFree\"()\000"
 503      65617046 
 503      72656522 
 503      282900
 504 001f 00       		.space	1
ARM GAS  /tmp/ccvvLvGL.s 			page 10


 505              	.LC2:
 506 0020 63684865 		.ascii	"chHeapFree(), #1\000"
 506      61704672 
 506      65652829 
 506      2C202331 
 506      00
 507 0031 000000   		.section	.bss.default_heap,"aw",%nobits
 508              		.align	3
 509              		.set	.LANCHOR0,. + 0
 510              		.type	default_heap, %object
 511              		.size	default_heap, 32
 512              	default_heap:
 513 0000 00000000 		.space	32
 513      00000000 
 513      00000000 
 513      00000000 
 513      00000000 
 514              		.text
 515              	.Letext0:
 516              		.file 2 "/opt/psas/x-tools/stm32f407/arm-psas-eabi/bin/../lib/gcc/arm-psas-eabi/4.7.2/include/stdd
 517              		.file 3 "/opt/psas/x-tools/stm32f407/arm-psas-eabi/bin/../lib/gcc/arm-psas-eabi/4.7.2/../../../../
 518              		.file 4 "../../ChibiOS/os/ports/GCC/ARMCMx/chtypes.h"
 519              		.file 5 "../../ChibiOS/os/kernel/include/chlists.h"
 520              		.file 6 "../../ChibiOS/os/kernel/include/chthreads.h"
 521              		.file 7 "../../ChibiOS/os/ports/GCC/ARMCMx/chcore_v7m.h"
 522              		.file 8 "../../ChibiOS/os/kernel/include/chmtx.h"
 523              		.file 9 "../../ChibiOS/os/kernel/include/chmemcore.h"
 524              		.file 10 "../../ChibiOS/os/kernel/include/chheap.h"
 525              		.file 11 "../../ChibiOS/os/kernel/include/chdebug.h"