ARM GAS  /tmp/ccY0tucO.s 			page 1


   1              		.syntax unified
   2              		.cpu cortex-m4
   3              		.eabi_attribute 27, 3
   4              		.eabi_attribute 28, 1
   5              		.fpu fpv4-sp-d16
   6              		.eabi_attribute 20, 1
   7              		.eabi_attribute 21, 1
   8              		.eabi_attribute 23, 3
   9              		.eabi_attribute 24, 1
  10              		.eabi_attribute 25, 1
  11              		.eabi_attribute 26, 1
  12              		.eabi_attribute 30, 2
  13              		.eabi_attribute 34, 1
  14              		.eabi_attribute 18, 4
  15              		.thumb
  16              		.file	"chmempools.c"
  17              		.text
  18              	.Ltext0:
  19              		.cfi_sections	.debug_frame
  20              		.section	.text.chPoolInit,"ax",%progbits
  21              		.align	2
  22              		.p2align 4,,15
  23              		.global	chPoolInit
  24              		.thumb
  25              		.thumb_func
  26              		.type	chPoolInit, %function
  27              	chPoolInit:
  28              	.LFB7:
  29              		.file 1 "../../ChibiOS/os/kernel/src/chmempools.c"
  30              		.loc 1 55 0
  31              		.cfi_startproc
  32              		@ args = 0, pretend = 0, frame = 0
  33              		@ frame_needed = 0, uses_anonymous_args = 0
  34              	.LVL0:
  35              		.loc 1 57 0
  36 0000 0028     		cmp	r0, #0
  37 0002 18BF     		it	ne
  38 0004 0329     		cmpne	r1, #3
  39              		.loc 1 55 0
  40 0006 70B5     		push	{r4, r5, r6, lr}
  41              	.LCFI0:
  42              		.cfi_def_cfa_offset 16
  43              		.cfi_offset 4, -16
  44              		.cfi_offset 5, -12
  45              		.cfi_offset 6, -8
  46              		.cfi_offset 14, -4
  47              		.loc 1 55 0
  48 0008 0D46     		mov	r5, r1
  49              		.loc 1 57 0
  50 000a 0446     		mov	r4, r0
  51              		.loc 1 55 0
  52 000c 1646     		mov	r6, r2
  53              		.loc 1 57 0
  54 000e 02D8     		bhi	.L2
  55              		.loc 1 57 0 is_stmt 0 discriminator 1
  56 0010 0348     		ldr	r0, .L7
  57              	.LVL1:
ARM GAS  /tmp/ccY0tucO.s 			page 2


  58 0012 FFF7FEFF 		bl	chDbgPanic
  59              	.LVL2:
  60              	.L2:
  61              		.loc 1 59 0 is_stmt 1
  62 0016 0023     		movs	r3, #0
  63              		.loc 1 61 0
  64 0018 84E86800 		stmia	r4, {r3, r5, r6}
  65 001c 70BD     		pop	{r4, r5, r6, pc}
  66              	.L8:
  67 001e 00BF     		.align	2
  68              	.L7:
  69 0020 00000000 		.word	.LC0
  70              		.cfi_endproc
  71              	.LFE7:
  72              		.size	chPoolInit, .-chPoolInit
  73 0024 AFF30080 		.section	.text.chPoolAllocI,"ax",%progbits
  73      AFF30080 
  73      AFF30080 
  74              		.align	2
  75              		.p2align 4,,15
  76              		.global	chPoolAllocI
  77              		.thumb
  78              		.thumb_func
  79              		.type	chPoolAllocI, %function
  80              	chPoolAllocI:
  81              	.LFB9:
  82              		.loc 1 98 0
  83              		.cfi_startproc
  84              		@ args = 0, pretend = 0, frame = 0
  85              		@ frame_needed = 0, uses_anonymous_args = 0
  86              	.LVL3:
  87 0000 10B5     		push	{r4, lr}
  88              	.LCFI1:
  89              		.cfi_def_cfa_offset 8
  90              		.cfi_offset 4, -8
  91              		.cfi_offset 14, -4
  92              		.loc 1 98 0
  93 0002 0446     		mov	r4, r0
  94              		.loc 1 101 0
  95 0004 FFF7FEFF 		bl	chDbgCheckClassI
  96              	.LVL4:
  97              		.loc 1 102 0
  98 0008 4CB1     		cbz	r4, .L16
  99              	.L10:
 100              		.loc 1 104 0
 101 000a 2068     		ldr	r0, [r4, #0]
 102              	.LVL5:
 103 000c 10B1     		cbz	r0, .L11
 104              		.loc 1 105 0
 105 000e 0368     		ldr	r3, [r0, #0]
 106 0010 2360     		str	r3, [r4, #0]
 107 0012 10BD     		pop	{r4, pc}
 108              	.L11:
 109              		.loc 1 106 0
 110 0014 A368     		ldr	r3, [r4, #8]
 111 0016 0BB1     		cbz	r3, .L12
 112              		.loc 1 107 0
ARM GAS  /tmp/ccY0tucO.s 			page 3


 113 0018 6068     		ldr	r0, [r4, #4]
 114              	.LVL6:
 115 001a 9847     		blx	r3
 116              	.LVL7:
 117              	.L12:
 118              		.loc 1 109 0
 119 001c 10BD     		pop	{r4, pc}
 120              	.LVL8:
 121              	.L16:
 122              		.loc 1 102 0 discriminator 1
 123 001e 0248     		ldr	r0, .L17
 124 0020 FFF7FEFF 		bl	chDbgPanic
 125              	.LVL9:
 126 0024 F1E7     		b	.L10
 127              	.L18:
 128 0026 00BF     		.align	2
 129              	.L17:
 130 0028 10000000 		.word	.LC1
 131              		.cfi_endproc
 132              	.LFE9:
 133              		.size	chPoolAllocI, .-chPoolAllocI
 134 002c AFF30080 		.section	.text.chPoolAlloc,"ax",%progbits
 135              		.align	2
 136              		.p2align 4,,15
 137              		.global	chPoolAlloc
 138              		.thumb
 139              		.thumb_func
 140              		.type	chPoolAlloc, %function
 141              	chPoolAlloc:
 142              	.LFB10:
 143              		.loc 1 121 0
 144              		.cfi_startproc
 145              		@ args = 0, pretend = 0, frame = 0
 146              		@ frame_needed = 0, uses_anonymous_args = 0
 147              	.LVL10:
 148 0000 10B5     		push	{r4, lr}
 149              	.LCFI2:
 150              		.cfi_def_cfa_offset 8
 151              		.cfi_offset 4, -8
 152              		.cfi_offset 14, -4
 153              	.LBB2:
 154              		.loc 1 124 0
 155 0002 2023     		movs	r3, #32
 156              	.LVL11:
 157              	.LBE2:
 158              		.loc 1 121 0
 159 0004 0446     		mov	r4, r0
 160              	.LBB3:
 161              		.loc 1 124 0
 162              	@ 124 "../../ChibiOS/os/kernel/src/chmempools.c" 1
 163 0006 83F31188 		msr     BASEPRI, r3
 164              	@ 0 "" 2
 165              	.LVL12:
 166              		.thumb
 167              	.LBE3:
 168 000a FFF7FEFF 		bl	dbg_check_lock
 169              	.LVL13:
ARM GAS  /tmp/ccY0tucO.s 			page 4


 170              		.loc 1 125 0
 171 000e 2046     		mov	r0, r4
 172 0010 FFF7FEFF 		bl	chPoolAllocI
 173              	.LVL14:
 174 0014 0446     		mov	r4, r0
 175              	.LVL15:
 176              		.loc 1 126 0
 177 0016 FFF7FEFF 		bl	dbg_check_unlock
 178              	.LVL16:
 179              	.LBB4:
 180 001a 0023     		movs	r3, #0
 181              	.LVL17:
 182              	@ 126 "../../ChibiOS/os/kernel/src/chmempools.c" 1
 183 001c 83F31188 		msr     BASEPRI, r3
 184              	@ 0 "" 2
 185              	.LVL18:
 186              		.thumb
 187              	.LBE4:
 188              		.loc 1 128 0
 189 0020 2046     		mov	r0, r4
 190 0022 10BD     		pop	{r4, pc}
 191              		.cfi_endproc
 192              	.LFE10:
 193              		.size	chPoolAlloc, .-chPoolAlloc
 194 0024 AFF30080 		.section	.text.chPoolFreeI,"ax",%progbits
 194      AFF30080 
 194      AFF30080 
 195              		.align	2
 196              		.p2align 4,,15
 197              		.global	chPoolFreeI
 198              		.thumb
 199              		.thumb_func
 200              		.type	chPoolFreeI, %function
 201              	chPoolFreeI:
 202              	.LFB11:
 203              		.loc 1 142 0
 204              		.cfi_startproc
 205              		@ args = 0, pretend = 0, frame = 0
 206              		@ frame_needed = 0, uses_anonymous_args = 0
 207              	.LVL19:
 208 0000 38B5     		push	{r3, r4, r5, lr}
 209              	.LCFI3:
 210              		.cfi_def_cfa_offset 16
 211              		.cfi_offset 3, -16
 212              		.cfi_offset 4, -12
 213              		.cfi_offset 5, -8
 214              		.cfi_offset 14, -4
 215              		.loc 1 142 0
 216 0002 0446     		mov	r4, r0
 217 0004 0D46     		mov	r5, r1
 218              	.LVL20:
 219              		.loc 1 145 0
 220 0006 FFF7FEFF 		bl	chDbgCheckClassI
 221              	.LVL21:
 222              		.loc 1 146 0
 223 000a 002C     		cmp	r4, #0
 224 000c 18BF     		it	ne
ARM GAS  /tmp/ccY0tucO.s 			page 5


 225 000e 002D     		cmpne	r5, #0
 226 0010 02D1     		bne	.L21
 227              		.loc 1 146 0 is_stmt 0 discriminator 1
 228 0012 0348     		ldr	r0, .L25
 229 0014 FFF7FEFF 		bl	chDbgPanic
 230              	.LVL22:
 231              	.L21:
 232              		.loc 1 148 0 is_stmt 1
 233 0018 2368     		ldr	r3, [r4, #0]
 234 001a 2B60     		str	r3, [r5, #0]
 235              		.loc 1 149 0
 236 001c 2560     		str	r5, [r4, #0]
 237 001e 38BD     		pop	{r3, r4, r5, pc}
 238              	.L26:
 239              		.align	2
 240              	.L25:
 241 0020 24000000 		.word	.LC2
 242              		.cfi_endproc
 243              	.LFE11:
 244              		.size	chPoolFreeI, .-chPoolFreeI
 245 0024 AFF30080 		.section	.text.chPoolFree,"ax",%progbits
 245      AFF30080 
 245      AFF30080 
 246              		.align	2
 247              		.p2align 4,,15
 248              		.global	chPoolFree
 249              		.thumb
 250              		.thumb_func
 251              		.type	chPoolFree, %function
 252              	chPoolFree:
 253              	.LFB12:
 254              		.loc 1 164 0
 255              		.cfi_startproc
 256              		@ args = 0, pretend = 0, frame = 0
 257              		@ frame_needed = 0, uses_anonymous_args = 0
 258              	.LVL23:
 259 0000 38B5     		push	{r3, r4, r5, lr}
 260              	.LCFI4:
 261              		.cfi_def_cfa_offset 16
 262              		.cfi_offset 3, -16
 263              		.cfi_offset 4, -12
 264              		.cfi_offset 5, -8
 265              		.cfi_offset 14, -4
 266              		.loc 1 164 0
 267 0002 0546     		mov	r5, r0
 268 0004 0C46     		mov	r4, r1
 269              	.LBB5:
 270              		.loc 1 166 0
 271 0006 2023     		movs	r3, #32
 272              	.LVL24:
 273              	@ 166 "../../ChibiOS/os/kernel/src/chmempools.c" 1
 274 0008 83F31188 		msr     BASEPRI, r3
 275              	@ 0 "" 2
 276              	.LVL25:
 277              		.thumb
 278              	.LBE5:
 279 000c FFF7FEFF 		bl	dbg_check_lock
ARM GAS  /tmp/ccY0tucO.s 			page 6


 280              	.LVL26:
 281              		.loc 1 167 0
 282 0010 2846     		mov	r0, r5
 283 0012 2146     		mov	r1, r4
 284 0014 FFF7FEFF 		bl	chPoolFreeI
 285              	.LVL27:
 286              		.loc 1 168 0
 287 0018 FFF7FEFF 		bl	dbg_check_unlock
 288              	.LVL28:
 289              	.LBB6:
 290 001c 0023     		movs	r3, #0
 291              	.LVL29:
 292              	@ 168 "../../ChibiOS/os/kernel/src/chmempools.c" 1
 293 001e 83F31188 		msr     BASEPRI, r3
 294              	@ 0 "" 2
 295              	.LVL30:
 296              		.thumb
 297 0022 38BD     		pop	{r3, r4, r5, pc}
 298              	.LBE6:
 299              		.cfi_endproc
 300              	.LFE12:
 301              		.size	chPoolFree, .-chPoolFree
 302 0024 AFF30080 		.section	.text.chPoolLoadArray,"ax",%progbits
 302      AFF30080 
 302      AFF30080 
 303              		.align	2
 304              		.p2align 4,,15
 305              		.global	chPoolLoadArray
 306              		.thumb
 307              		.thumb_func
 308              		.type	chPoolLoadArray, %function
 309              	chPoolLoadArray:
 310              	.LFB8:
 311              		.loc 1 77 0
 312              		.cfi_startproc
 313              		@ args = 0, pretend = 0, frame = 0
 314              		@ frame_needed = 0, uses_anonymous_args = 0
 315              	.LVL31:
 316              		.loc 1 79 0
 317 0000 0028     		cmp	r0, #0
 318 0002 18BF     		it	ne
 319 0004 002A     		cmpne	r2, #0
 320              		.loc 1 77 0
 321 0006 70B5     		push	{r4, r5, r6, lr}
 322              	.LCFI5:
 323              		.cfi_def_cfa_offset 16
 324              		.cfi_offset 4, -16
 325              		.cfi_offset 5, -12
 326              		.cfi_offset 6, -8
 327              		.cfi_offset 14, -4
 328              		.loc 1 79 0
 329 0008 1446     		mov	r4, r2
 330 000a 0646     		mov	r6, r0
 331              		.loc 1 77 0
 332 000c 0D46     		mov	r5, r1
 333              		.loc 1 79 0
 334 000e 08D0     		beq	.L37
ARM GAS  /tmp/ccY0tucO.s 			page 7


 335              	.LVL32:
 336              	.L34:
 337              		.loc 1 82 0
 338 0010 2946     		mov	r1, r5
 339 0012 3046     		mov	r0, r6
 340 0014 FFF7FEFF 		bl	chPoolFree
 341              	.LVL33:
 342              		.loc 1 83 0
 343 0018 7368     		ldr	r3, [r6, #4]
 344              		.loc 1 81 0
 345 001a 013C     		subs	r4, r4, #1
 346              		.loc 1 83 0
 347 001c 1D44     		add	r5, r5, r3
 348              	.LVL34:
 349              		.loc 1 81 0
 350 001e F7D1     		bne	.L34
 351              	.L28:
 352 0020 70BD     		pop	{r4, r5, r6, pc}
 353              	.LVL35:
 354              	.L37:
 355              		.loc 1 79 0 discriminator 1
 356 0022 0348     		ldr	r0, .L38
 357              	.LVL36:
 358 0024 FFF7FEFF 		bl	chDbgPanic
 359              	.LVL37:
 360              		.loc 1 81 0 discriminator 1
 361 0028 002C     		cmp	r4, #0
 362 002a F1D1     		bne	.L34
 363 002c F8E7     		b	.L28
 364              	.L39:
 365 002e 00BF     		.align	2
 366              	.L38:
 367 0030 34000000 		.word	.LC3
 368              		.cfi_endproc
 369              	.LFE8:
 370              		.size	chPoolLoadArray, .-chPoolLoadArray
 371 0034 AFF30080 		.section	.rodata.str1.4,"aMS",%progbits,1
 371      AFF30080 
 371      AFF30080 
 372              		.align	2
 373              	.LC0:
 374 0000 22636850 		.ascii	"\"chPoolInit\"()\000"
 374      6F6F6C49 
 374      6E697422 
 374      282900
 375 000f 00       		.space	1
 376              	.LC1:
 377 0010 22636850 		.ascii	"\"chPoolAllocI\"()\000"
 377      6F6F6C41 
 377      6C6C6F63 
 377      49222829 
 377      00
 378 0021 000000   		.space	3
 379              	.LC2:
 380 0024 22636850 		.ascii	"\"chPoolFreeI\"()\000"
 380      6F6F6C46 
 380      72656549 
ARM GAS  /tmp/ccY0tucO.s 			page 8


 380      22282900 
 381              	.LC3:
 382 0034 22636850 		.ascii	"\"chPoolLoadArray\"()\000"
 382      6F6F6C4C 
 382      6F616441 
 382      72726179 
 382      22282900 
 383              		.text
 384              	.Letext0:
 385              		.file 2 "/opt/psas/x-tools/stm32f407/arm-psas-eabi/bin/../lib/gcc/arm-psas-eabi/4.7.2/include/stdd
 386              		.file 3 "/opt/psas/x-tools/stm32f407/arm-psas-eabi/bin/../lib/gcc/arm-psas-eabi/4.7.2/../../../../
 387              		.file 4 "../../ChibiOS/os/kernel/include/chmemcore.h"
 388              		.file 5 "../../ChibiOS/os/kernel/include/chmempools.h"
 389              		.file 6 "../../ChibiOS/os/kernel/include/chdebug.h"