ARM GAS  /tmp/ccM7Evo3.s 			page 1


   1              		.syntax unified
   2              		.cpu cortex-m4
   3              		.eabi_attribute 27, 3
   4              		.eabi_attribute 28, 1
   5              		.fpu fpv4-sp-d16
   6              		.eabi_attribute 20, 1
   7              		.eabi_attribute 21, 1
   8              		.eabi_attribute 23, 3
   9              		.eabi_attribute 24, 1
  10              		.eabi_attribute 25, 1
  11              		.eabi_attribute 26, 1
  12              		.eabi_attribute 30, 2
  13              		.eabi_attribute 34, 1
  14              		.eabi_attribute 18, 4
  15              		.thumb
  16              		.file	"chmsg.c"
  17              		.text
  18              	.Ltext0:
  19              		.cfi_sections	.debug_frame
  20              		.section	.text.chMsgSend,"ax",%progbits
  21              		.align	2
  22              		.p2align 4,,15
  23              		.global	chMsgSend
  24              		.thumb
  25              		.thumb_func
  26              		.type	chMsgSend, %function
  27              	chMsgSend:
  28              	.LFB7:
  29              		.file 1 "../../ChibiOS/os/kernel/src/chmsg.c"
  30              		.loc 1 68 0
  31              		.cfi_startproc
  32              		@ args = 0, pretend = 0, frame = 0
  33              		@ frame_needed = 0, uses_anonymous_args = 0
  34              	.LVL0:
  35              		.loc 1 69 0
  36 0000 154B     		ldr	r3, .L7
  37              		.loc 1 68 0
  38 0002 70B5     		push	{r4, r5, r6, lr}
  39              	.LCFI0:
  40              		.cfi_def_cfa_offset 16
  41              		.cfi_offset 4, -16
  42              		.cfi_offset 5, -12
  43              		.cfi_offset 6, -8
  44              		.cfi_offset 14, -4
  45              		.loc 1 71 0
  46 0004 0546     		mov	r5, r0
  47              		.loc 1 68 0
  48 0006 0E46     		mov	r6, r1
  49              		.loc 1 69 0
  50 0008 9C69     		ldr	r4, [r3, #24]
  51              	.LVL1:
  52              		.loc 1 71 0
  53 000a 00B3     		cbz	r0, .L5
  54              	.LVL2:
  55              	.L2:
  56              	.LBB10:
  57              		.loc 1 73 0
ARM GAS  /tmp/ccM7Evo3.s 			page 2


  58 000c 2023     		movs	r3, #32
  59              	.LVL3:
  60              	@ 73 "../../ChibiOS/os/kernel/src/chmsg.c" 1
  61 000e 83F31188 		msr     BASEPRI, r3
  62              	@ 0 "" 2
  63              	.LVL4:
  64              		.thumb
  65              	.LBE10:
  66 0012 FFF7FEFF 		bl	dbg_check_lock
  67              	.LVL5:
  68              		.loc 1 75 0
  69 0016 05F13002 		add	r2, r5, #48
  70 001a A262     		str	r2, [r4, #40]
  71              	.LVL6:
  72              		.loc 1 77 0
  73 001c 95F82010 		ldrb	r1, [r5, #32]	@ zero_extendqisi2
  74              	.LBB11:
  75              	.LBB12:
  76              		.file 2 "../../ChibiOS/os/kernel/include/chinline.h"
  77              		.loc 2 48 0
  78 0020 6B6B     		ldr	r3, [r5, #52]
  79              		.loc 2 47 0
  80 0022 2260     		str	r2, [r4, #0]
  81              	.LBE12:
  82              	.LBE11:
  83              		.loc 1 77 0
  84 0024 0C29     		cmp	r1, #12
  85              		.loc 1 74 0
  86 0026 A663     		str	r6, [r4, #56]
  87              	.LBB14:
  88              	.LBB13:
  89              		.loc 2 48 0
  90 0028 6360     		str	r3, [r4, #4]
  91              		.loc 2 49 0
  92 002a 6C63     		str	r4, [r5, #52]
  93 002c 1C60     		str	r4, [r3, #0]
  94              	.LBE13:
  95              	.LBE14:
  96              		.loc 1 77 0
  97 002e 0AD0     		beq	.L6
  98              	.LVL7:
  99              	.L3:
 100              		.loc 1 79 0
 101 0030 0A20     		movs	r0, #10
 102 0032 FFF7FEFF 		bl	chSchGoSleepS
 103              	.LVL8:
 104              		.loc 1 80 0
 105 0036 A46A     		ldr	r4, [r4, #40]
 106              	.LVL9:
 107              		.loc 1 81 0
 108 0038 FFF7FEFF 		bl	dbg_check_unlock
 109              	.LVL10:
 110              	.LBB15:
 111 003c 0023     		movs	r3, #0
 112              	.LVL11:
 113              	@ 81 "../../ChibiOS/os/kernel/src/chmsg.c" 1
 114 003e 83F31188 		msr     BASEPRI, r3
ARM GAS  /tmp/ccM7Evo3.s 			page 3


 115              	@ 0 "" 2
 116              	.LVL12:
 117              		.thumb
 118              	.LBE15:
 119              		.loc 1 83 0
 120 0042 2046     		mov	r0, r4
 121 0044 70BD     		pop	{r4, r5, r6, pc}
 122              	.LVL13:
 123              	.L6:
 124              		.loc 1 78 0
 125 0046 2846     		mov	r0, r5
 126 0048 FFF7FEFF 		bl	chSchReadyI
 127              	.LVL14:
 128 004c F0E7     		b	.L3
 129              	.LVL15:
 130              	.L5:
 131              		.loc 1 71 0 discriminator 1
 132 004e 0348     		ldr	r0, .L7+4
 133              	.LVL16:
 134 0050 FFF7FEFF 		bl	chDbgPanic
 135              	.LVL17:
 136 0054 DAE7     		b	.L2
 137              	.L8:
 138 0056 00BF     		.align	2
 139              	.L7:
 140 0058 00000000 		.word	rlist
 141 005c 00000000 		.word	.LC0
 142              		.cfi_endproc
 143              	.LFE7:
 144              		.size	chMsgSend, .-chMsgSend
 145              		.section	.text.chMsgWait,"ax",%progbits
 146              		.align	2
 147              		.p2align 4,,15
 148              		.global	chMsgWait
 149              		.thumb
 150              		.thumb_func
 151              		.type	chMsgWait, %function
 152              	chMsgWait:
 153              	.LFB8:
 154              		.loc 1 99 0
 155              		.cfi_startproc
 156              		@ args = 0, pretend = 0, frame = 0
 157              		@ frame_needed = 0, uses_anonymous_args = 0
 158 0000 38B5     		push	{r3, r4, r5, lr}
 159              	.LCFI1:
 160              		.cfi_def_cfa_offset 16
 161              		.cfi_offset 3, -16
 162              		.cfi_offset 4, -12
 163              		.cfi_offset 5, -8
 164              		.cfi_offset 14, -4
 165              	.LBB16:
 166              		.loc 1 102 0
 167 0002 2023     		movs	r3, #32
 168              	.LVL18:
 169              	@ 102 "../../ChibiOS/os/kernel/src/chmsg.c" 1
 170 0004 83F31188 		msr     BASEPRI, r3
 171              	@ 0 "" 2
ARM GAS  /tmp/ccM7Evo3.s 			page 4


 172              	.LVL19:
 173              		.thumb
 174              	.LBE16:
 175              		.loc 1 103 0
 176 0008 0E4D     		ldr	r5, .L12
 177              		.loc 1 102 0
 178 000a FFF7FEFF 		bl	dbg_check_lock
 179              	.LVL20:
 180              		.loc 1 103 0
 181 000e AA69     		ldr	r2, [r5, #24]
 182 0010 1346     		mov	r3, r2
 183 0012 53F8304F 		ldr	r4, [r3, #48]!
 184 0016 9C42     		cmp	r4, r3
 185 0018 0CD0     		beq	.L11
 186              	.L10:
 187              	.LVL21:
 188              	.LBB17:
 189              	.LBB18:
 190              		.loc 2 55 0
 191 001a 2168     		ldr	r1, [r4, #0]
 192 001c 1163     		str	r1, [r2, #48]
 193 001e 4B60     		str	r3, [r1, #4]
 194              	.LBE18:
 195              	.LBE17:
 196              		.loc 1 106 0
 197 0020 0B23     		movs	r3, #11
 198 0022 84F82030 		strb	r3, [r4, #32]
 199              		.loc 1 107 0
 200 0026 FFF7FEFF 		bl	dbg_check_unlock
 201              	.LVL22:
 202              	.LBB19:
 203 002a 0023     		movs	r3, #0
 204              	.LVL23:
 205              	@ 107 "../../ChibiOS/os/kernel/src/chmsg.c" 1
 206 002c 83F31188 		msr     BASEPRI, r3
 207              	@ 0 "" 2
 208              	.LVL24:
 209              		.thumb
 210              	.LBE19:
 211              		.loc 1 109 0
 212 0030 2046     		mov	r0, r4
 213 0032 38BD     		pop	{r3, r4, r5, pc}
 214              	.LVL25:
 215              	.L11:
 216              		.loc 1 104 0
 217 0034 0C20     		movs	r0, #12
 218 0036 FFF7FEFF 		bl	chSchGoSleepS
 219              	.LVL26:
 220 003a AA69     		ldr	r2, [r5, #24]
 221 003c 1346     		mov	r3, r2
 222 003e 53F8304F 		ldr	r4, [r3, #48]!
 223 0042 EAE7     		b	.L10
 224              	.L13:
 225              		.align	2
 226              	.L12:
 227 0044 00000000 		.word	rlist
 228              		.cfi_endproc
ARM GAS  /tmp/ccM7Evo3.s 			page 5


 229              	.LFE8:
 230              		.size	chMsgWait, .-chMsgWait
 231 0048 AFF30080 		.section	.text.chMsgRelease,"ax",%progbits
 231      AFF30080 
 232              		.align	2
 233              		.p2align 4,,15
 234              		.global	chMsgRelease
 235              		.thumb
 236              		.thumb_func
 237              		.type	chMsgRelease, %function
 238              	chMsgRelease:
 239              	.LFB9:
 240              		.loc 1 121 0
 241              		.cfi_startproc
 242              		@ args = 0, pretend = 0, frame = 0
 243              		@ frame_needed = 0, uses_anonymous_args = 0
 244              	.LVL27:
 245 0000 38B5     		push	{r3, r4, r5, lr}
 246              	.LCFI2:
 247              		.cfi_def_cfa_offset 16
 248              		.cfi_offset 3, -16
 249              		.cfi_offset 4, -12
 250              		.cfi_offset 5, -8
 251              		.cfi_offset 14, -4
 252              		.loc 1 121 0
 253 0002 0446     		mov	r4, r0
 254 0004 0D46     		mov	r5, r1
 255              	.LBB20:
 256              		.loc 1 123 0
 257 0006 2023     		movs	r3, #32
 258              	.LVL28:
 259              	@ 123 "../../ChibiOS/os/kernel/src/chmsg.c" 1
 260 0008 83F31188 		msr     BASEPRI, r3
 261              	@ 0 "" 2
 262              	.LVL29:
 263              		.thumb
 264              	.LBE20:
 265 000c FFF7FEFF 		bl	dbg_check_lock
 266              	.LVL30:
 267              		.loc 1 124 0
 268 0010 94F82030 		ldrb	r3, [r4, #32]	@ zero_extendqisi2
 269 0014 0B2B     		cmp	r3, #11
 270 0016 02D0     		beq	.L15
 271              		.loc 1 124 0 is_stmt 0 discriminator 1
 272 0018 0648     		ldr	r0, .L19
 273 001a FFF7FEFF 		bl	chDbgPanic
 274              	.LVL31:
 275              	.L15:
 276              		.loc 1 126 0 is_stmt 1
 277 001e 2046     		mov	r0, r4
 278 0020 2946     		mov	r1, r5
 279 0022 FFF7FEFF 		bl	chSchWakeupS
 280              	.LVL32:
 281              		.loc 1 127 0
 282 0026 FFF7FEFF 		bl	dbg_check_unlock
 283              	.LVL33:
 284              	.LBB21:
ARM GAS  /tmp/ccM7Evo3.s 			page 6


 285 002a 0023     		movs	r3, #0
 286              	.LVL34:
 287              	@ 127 "../../ChibiOS/os/kernel/src/chmsg.c" 1
 288 002c 83F31188 		msr     BASEPRI, r3
 289              	@ 0 "" 2
 290              	.LVL35:
 291              		.thumb
 292 0030 38BD     		pop	{r3, r4, r5, pc}
 293              	.L20:
 294 0032 00BF     		.align	2
 295              	.L19:
 296 0034 10000000 		.word	.LC1
 297              	.LBE21:
 298              		.cfi_endproc
 299              	.LFE9:
 300              		.size	chMsgRelease, .-chMsgRelease
 301 0038 AFF30080 		.section	.rodata.str1.4,"aMS",%progbits,1
 301      AFF30080 
 302              		.align	2
 303              	.LC0:
 304 0000 2263684D 		.ascii	"\"chMsgSend\"()\000"
 304      73675365 
 304      6E642228 
 304      2900
 305 000e 0000     		.space	2
 306              	.LC1:
 307 0010 63684D73 		.ascii	"chMsgRelease(), #1\000"
 307      6752656C 
 307      65617365 
 307      28292C20 
 307      233100
 308 0023 00       		.text
 309              	.Letext0:
 310              		.file 3 "/opt/psas/x-tools/stm32f407/arm-psas-eabi/bin/../lib/gcc/arm-psas-eabi/4.7.2/../../../../
 311              		.file 4 "../../ChibiOS/os/ports/GCC/ARMCMx/chtypes.h"
 312              		.file 5 "../../ChibiOS/os/kernel/include/chlists.h"
 313              		.file 6 "../../ChibiOS/os/kernel/include/chthreads.h"
 314              		.file 7 "../../ChibiOS/os/ports/GCC/ARMCMx/chcore_v7m.h"
 315              		.file 8 "../../ChibiOS/os/kernel/include/chschd.h"
 316              		.file 9 "../../ChibiOS/os/kernel/include/chmtx.h"
 317              		.file 10 "../../ChibiOS/os/kernel/include/chdebug.h"