ARM GAS  /tmp/ccbIZSC9.s 			page 1


   1              		.syntax unified
   2              		.cpu cortex-m4
   3              		.eabi_attribute 27, 3
   4              		.eabi_attribute 28, 1
   5              		.fpu fpv4-sp-d16
   6              		.eabi_attribute 20, 1
   7              		.eabi_attribute 21, 1
   8              		.eabi_attribute 23, 3
   9              		.eabi_attribute 24, 1
  10              		.eabi_attribute 25, 1
  11              		.eabi_attribute 26, 1
  12              		.eabi_attribute 30, 2
  13              		.eabi_attribute 34, 1
  14              		.eabi_attribute 18, 4
  15              		.thumb
  16              		.file	"chregistry.c"
  17              		.text
  18              	.Ltext0:
  19              		.cfi_sections	.debug_frame
  20              		.section	.text.chRegFirstThread,"ax",%progbits
  21              		.align	2
  22              		.p2align 4,,15
  23              		.global	chRegFirstThread
  24              		.thumb
  25              		.thumb_func
  26              		.type	chRegFirstThread, %function
  27              	chRegFirstThread:
  28              	.LFB7:
  29              		.file 1 "../../ChibiOS/os/kernel/src/chregistry.c"
  30              		.loc 1 110 0
  31              		.cfi_startproc
  32              		@ args = 0, pretend = 0, frame = 0
  33              		@ frame_needed = 0, uses_anonymous_args = 0
  34 0000 10B5     		push	{r4, lr}
  35              	.LCFI0:
  36              		.cfi_def_cfa_offset 8
  37              		.cfi_offset 4, -8
  38              		.cfi_offset 14, -4
  39              	.LBB2:
  40              		.loc 1 113 0
  41 0002 2023     		movs	r3, #32
  42              	.LVL0:
  43              	@ 113 "../../ChibiOS/os/kernel/src/chregistry.c" 1
  44 0004 83F31188 		msr     BASEPRI, r3
  45              	@ 0 "" 2
  46              	.LVL1:
  47              		.thumb
  48              	.LBE2:
  49 0008 FFF7FEFF 		bl	dbg_check_lock
  50              	.LVL2:
  51              		.loc 1 114 0
  52 000c 40F20003 		movw	r3, #:lower16:rlist
  53 0010 C0F20003 		movt	r3, #:upper16:rlist
  54 0014 1C69     		ldr	r4, [r3, #16]
  55              	.LVL3:
  56              		.loc 1 116 0
  57 0016 94F82230 		ldrb	r3, [r4, #34]	@ zero_extendqisi2
ARM GAS  /tmp/ccbIZSC9.s 			page 2


  58 001a 0133     		adds	r3, r3, #1
  59 001c 84F82230 		strb	r3, [r4, #34]
  60              		.loc 1 118 0
  61 0020 FFF7FEFF 		bl	dbg_check_unlock
  62              	.LVL4:
  63              	.LBB3:
  64 0024 0023     		movs	r3, #0
  65              	.LVL5:
  66              	@ 118 "../../ChibiOS/os/kernel/src/chregistry.c" 1
  67 0026 83F31188 		msr     BASEPRI, r3
  68              	@ 0 "" 2
  69              	.LVL6:
  70              		.thumb
  71              	.LBE3:
  72              		.loc 1 120 0
  73 002a 2046     		mov	r0, r4
  74 002c 10BD     		pop	{r4, pc}
  75              		.cfi_endproc
  76              	.LFE7:
  77              		.size	chRegFirstThread, .-chRegFirstThread
  78 002e 00BF     		.section	.text.chRegNextThread,"ax",%progbits
  79              		.align	2
  80              		.p2align 4,,15
  81              		.global	chRegNextThread
  82              		.thumb
  83              		.thumb_func
  84              		.type	chRegNextThread, %function
  85              	chRegNextThread:
  86              	.LFB8:
  87              		.loc 1 133 0
  88              		.cfi_startproc
  89              		@ args = 0, pretend = 0, frame = 0
  90              		@ frame_needed = 0, uses_anonymous_args = 0
  91              	.LVL7:
  92 0000 38B5     		push	{r3, r4, r5, lr}
  93              	.LCFI1:
  94              		.cfi_def_cfa_offset 16
  95              		.cfi_offset 3, -16
  96              		.cfi_offset 4, -12
  97              		.cfi_offset 5, -8
  98              		.cfi_offset 14, -4
  99              		.loc 1 133 0
 100 0002 0546     		mov	r5, r0
 101              	.LBB4:
 102              		.loc 1 136 0
 103 0004 2023     		movs	r3, #32
 104              	.LVL8:
 105              	@ 136 "../../ChibiOS/os/kernel/src/chregistry.c" 1
 106 0006 83F31188 		msr     BASEPRI, r3
 107              	@ 0 "" 2
 108              	.LVL9:
 109              		.thumb
 110              	.LBE4:
 111 000a FFF7FEFF 		bl	dbg_check_lock
 112              	.LVL10:
 113              		.loc 1 137 0
 114 000e 2C69     		ldr	r4, [r5, #16]
ARM GAS  /tmp/ccbIZSC9.s 			page 3


 115              	.LVL11:
 116              		.loc 1 138 0
 117 0010 0D4B     		ldr	r3, .L8
 118 0012 9C42     		cmp	r4, r3
 119 0014 16D0     		beq	.L5
 120              		.loc 1 142 0
 121 0016 94F82230 		ldrb	r3, [r4, #34]	@ zero_extendqisi2
 122 001a FF2B     		cmp	r3, #255
 123 001c 0CD0     		beq	.L7
 124              	.L4:
 125              		.loc 1 144 0
 126 001e 0133     		adds	r3, r3, #1
 127 0020 84F82230 		strb	r3, [r4, #34]
 128              	.LVL12:
 129              	.L3:
 130              		.loc 1 147 0
 131 0024 FFF7FEFF 		bl	dbg_check_unlock
 132              	.LVL13:
 133              	.LBB5:
 134 0028 0023     		movs	r3, #0
 135              	.LVL14:
 136              	@ 147 "../../ChibiOS/os/kernel/src/chregistry.c" 1
 137 002a 83F31188 		msr     BASEPRI, r3
 138              	@ 0 "" 2
 139              	.LVL15:
 140              		.thumb
 141              	.LBE5:
 142              		.loc 1 149 0
 143 002e 2846     		mov	r0, r5
 144 0030 FFF7FEFF 		bl	chThdRelease
 145              	.LVL16:
 146              		.loc 1 152 0
 147 0034 2046     		mov	r0, r4
 148 0036 38BD     		pop	{r3, r4, r5, pc}
 149              	.L7:
 150              		.loc 1 142 0 discriminator 1
 151 0038 0448     		ldr	r0, .L8+4
 152 003a FFF7FEFF 		bl	chDbgPanic
 153              	.LVL17:
 154 003e 94F82230 		ldrb	r3, [r4, #34]	@ zero_extendqisi2
 155 0042 ECE7     		b	.L4
 156              	.L5:
 157              		.loc 1 139 0
 158 0044 0024     		movs	r4, #0
 159              	.LVL18:
 160 0046 EDE7     		b	.L3
 161              	.L9:
 162              		.align	2
 163              	.L8:
 164 0048 00000000 		.word	rlist
 165 004c 00000000 		.word	.LC0
 166              		.cfi_endproc
 167              	.LFE8:
 168              		.size	chRegNextThread, .-chRegNextThread
 169              		.global	ch_debug
 170              		.section	.rodata.ch_debug,"a",%progbits
 171              		.align	2
ARM GAS  /tmp/ccbIZSC9.s 			page 4


 172              		.type	ch_debug, %object
 173              		.size	ch_debug, 22
 174              	ch_debug:
 175 0000 6D61696E 		.ascii	"main"
 176 0004 00       		.byte	0
 177 0005 16       		.byte	22
 178 0006 4211     		.short	4418
 179 0008 04       		.byte	4
 180 0009 04       		.byte	4
 181 000a 4C       		.byte	76
 182 000b 08       		.byte	8
 183 000c 0C       		.byte	12
 184 000d 10       		.byte	16
 185 000e 14       		.byte	20
 186 000f 18       		.byte	24
 187 0010 1C       		.byte	28
 188 0011 20       		.byte	32
 189 0012 21       		.byte	33
 190 0013 22       		.byte	34
 191 0014 23       		.byte	35
 192 0015 24       		.byte	36
 193 0016 0000     		.section	.rodata.str1.4,"aMS",%progbits,1
 194              		.align	2
 195              	.LC0:
 196 0000 63685265 		.ascii	"chRegNextThread(), #1\000"
 196      674E6578 
 196      74546872 
 196      65616428 
 196      292C2023 
 197 0016 0000     		.text
 198              	.Letext0:
 199              		.file 2 "/opt/psas/x-tools/stm32f407/arm-psas-eabi/bin/../lib/gcc/arm-psas-eabi/4.7.2/include/stdd
 200              		.file 3 "/opt/psas/x-tools/stm32f407/arm-psas-eabi/bin/../lib/gcc/arm-psas-eabi/4.7.2/../../../../
 201              		.file 4 "../../ChibiOS/os/ports/GCC/ARMCMx/chtypes.h"
 202              		.file 5 "../../ChibiOS/os/kernel/include/chlists.h"
 203              		.file 6 "../../ChibiOS/os/kernel/include/chthreads.h"
 204              		.file 7 "../../ChibiOS/os/ports/GCC/ARMCMx/chcore_v7m.h"
 205              		.file 8 "../../ChibiOS/os/kernel/include/chschd.h"
 206              		.file 9 "../../ChibiOS/os/kernel/include/chmtx.h"
 207              		.file 10 "../../ChibiOS/os/kernel/include/chregistry.h"
 208              		.file 11 "../../ChibiOS/os/kernel/include/chdebug.h"
 209              		.file 12 "../../ChibiOS/os/kernel/include/chdynamic.h"