ARM GAS  /tmp/ccvRjxqL.s 			page 1


   1              		.syntax unified
   2              		.cpu cortex-m4
   3              		.eabi_attribute 27, 3
   4              		.eabi_attribute 28, 1
   5              		.fpu fpv4-sp-d16
   6              		.eabi_attribute 20, 1
   7              		.eabi_attribute 21, 1
   8              		.eabi_attribute 23, 3
   9              		.eabi_attribute 24, 1
  10              		.eabi_attribute 25, 1
  11              		.eabi_attribute 26, 1
  12              		.eabi_attribute 30, 2
  13              		.eabi_attribute 34, 1
  14              		.eabi_attribute 18, 4
  15              		.thumb
  16              		.file	"chthreads.c"
  17              		.text
  18              	.Ltext0:
  19              		.cfi_sections	.debug_frame
  20              		.section	.text._thread_init,"ax",%progbits
  21              		.align	2
  22              		.p2align 4,,15
  23              		.global	_thread_init
  24              		.thumb
  25              		.thumb_func
  26              		.type	_thread_init, %function
  27              	_thread_init:
  28              	.LFB7:
  29              		.file 1 "../../ChibiOS/os/kernel/src/chthreads.c"
  30              		.loc 1 69 0
  31              		.cfi_startproc
  32              		@ args = 0, pretend = 0, frame = 0
  33              		@ frame_needed = 0, uses_anonymous_args = 0
  34              		@ link register save eliminated.
  35              	.LVL0:
  36 0000 2DE9F001 		push	{r4, r5, r6, r7, r8}
  37              	.LCFI0:
  38              		.cfi_def_cfa_offset 20
  39              		.cfi_offset 4, -20
  40              		.cfi_offset 5, -16
  41              		.cfi_offset 6, -12
  42              		.cfi_offset 7, -8
  43              		.cfi_offset 8, -4
  44              		.loc 1 92 0
  45 0004 40F20004 		movw	r4, #:lower16:rlist
  46 0008 C0F20004 		movt	r4, #:upper16:rlist
  47              		.loc 1 73 0
  48 000c 0022     		movs	r2, #0
  49              		.loc 1 92 0
  50 000e 6569     		ldr	r5, [r4, #20]
  51              		.loc 1 78 0
  52 0010 4164     		str	r1, [r0, #68]
  53              		.loc 1 92 0
  54 0012 0461     		str	r4, [r0, #16]
  55              		.loc 1 98 0
  56 0014 00F13006 		add	r6, r0, #48
  57              		.loc 1 71 0
ARM GAS  /tmp/ccvRjxqL.s 			page 2


  58 0018 8160     		str	r1, [r0, #8]
  59              		.loc 1 95 0
  60 001a 00F12C0C 		add	ip, r0, #44
  61              		.loc 1 101 0
  62 001e 00F14C07 		add	r7, r0, #76
  63              		.loc 1 92 0
  64 0022 4561     		str	r5, [r0, #20]
  65              		.loc 1 72 0
  66 0024 4FF00208 		mov	r8, #2
  67              		.loc 1 92 0
  68 0028 6061     		str	r0, [r4, #20]
  69              		.loc 1 88 0
  70 002a 0121     		movs	r1, #1
  71              	.LVL1:
  72              		.loc 1 75 0
  73 002c 1424     		movs	r4, #20
  74              		.loc 1 72 0
  75 002e 80F82080 		strb	r8, [r0, #32]
  76              		.loc 1 73 0
  77 0032 80F82120 		strb	r2, [r0, #33]
  78              		.loc 1 75 0
  79 0036 80F82340 		strb	r4, [r0, #35]
  80              		.loc 1 79 0
  81 003a 0264     		str	r2, [r0, #64]
  82              		.loc 1 82 0
  83 003c C263     		str	r2, [r0, #60]
  84              		.loc 1 85 0
  85 003e 4262     		str	r2, [r0, #36]
  86              		.loc 1 88 0
  87 0040 80F82210 		strb	r1, [r0, #34]
  88              		.loc 1 91 0
  89 0044 8261     		str	r2, [r0, #24]
  90              		.loc 1 92 0
  91 0046 2861     		str	r0, [r5, #16]
  92              		.loc 1 95 0
  93 0048 C0F82CC0 		str	ip, [r0, #44]
  94              		.loc 1 98 0
  95 004c 4663     		str	r6, [r0, #52]
  96 004e 0663     		str	r6, [r0, #48]
  97              		.loc 1 101 0
  98 0050 C761     		str	r7, [r0, #28]
  99              		.loc 1 107 0
 100 0052 BDE8F001 		pop	{r4, r5, r6, r7, r8}
 101 0056 7047     		bx	lr
 102              		.cfi_endproc
 103              	.LFE7:
 104              		.size	_thread_init, .-_thread_init
 105 0058 AFF30080 		.section	.text._thread_memfill,"ax",%progbits
 105      AFF30080 
 106              		.align	2
 107              		.p2align 4,,15
 108              		.global	_thread_memfill
 109              		.thumb
 110              		.thumb_func
 111              		.type	_thread_memfill, %function
 112              	_thread_memfill:
 113              	.LFB8:
ARM GAS  /tmp/ccvRjxqL.s 			page 3


 114              		.loc 1 119 0
 115              		.cfi_startproc
 116              		@ args = 0, pretend = 0, frame = 0
 117              		@ frame_needed = 0, uses_anonymous_args = 0
 118              		@ link register save eliminated.
 119              	.LVL2:
 120              		.loc 1 121 0
 121 0000 8842     		cmp	r0, r1
 122 0002 03D2     		bcs	.L2
 123              	.L6:
 124              		.loc 1 122 0
 125 0004 00F8012B 		strb	r2, [r0], #1
 126              	.LVL3:
 127              		.loc 1 121 0
 128 0008 8842     		cmp	r0, r1
 129 000a FBD1     		bne	.L6
 130              	.L2:
 131 000c 7047     		bx	lr
 132              		.cfi_endproc
 133              	.LFE8:
 134              		.size	_thread_memfill, .-_thread_memfill
 135 000e 00BF     		.section	.text.chThdCreateI,"ax",%progbits
 136              		.align	2
 137              		.p2align 4,,15
 138              		.global	chThdCreateI
 139              		.thumb
 140              		.thumb_func
 141              		.type	chThdCreateI, %function
 142              	chThdCreateI:
 143              	.LFB9:
 144              		.loc 1 151 0
 145              		.cfi_startproc
 146              		@ args = 4, pretend = 0, frame = 0
 147              		@ frame_needed = 0, uses_anonymous_args = 0
 148              	.LVL4:
 149 0000 2DE9F047 		push	{r4, r5, r6, r7, r8, r9, sl, lr}
 150              	.LCFI1:
 151              		.cfi_def_cfa_offset 32
 152              		.cfi_offset 4, -32
 153              		.cfi_offset 5, -28
 154              		.cfi_offset 6, -24
 155              		.cfi_offset 7, -20
 156              		.cfi_offset 8, -16
 157              		.cfi_offset 9, -12
 158              		.cfi_offset 10, -8
 159              		.cfi_offset 14, -4
 160              		.loc 1 151 0
 161 0004 0446     		mov	r4, r0
 162              	.LVL5:
 163 0006 0D46     		mov	r5, r1
 164 0008 9046     		mov	r8, r2
 165 000a 9946     		mov	r9, r3
 166              		.loc 1 155 0
 167 000c FFF7FEFF 		bl	chDbgCheckClassI
 168              	.LVL6:
 169              		.loc 1 157 0
 170 0010 002C     		cmp	r4, #0
ARM GAS  /tmp/ccvRjxqL.s 			page 4


 171 0012 18BF     		it	ne
 172 0014 AF2D     		cmpne	r5, #175
 173 0016 0AD9     		bls	.L10
 174              		.loc 1 157 0 is_stmt 0 discriminator 2
 175 0018 B8F17F0F 		cmp	r8, #127
 176 001c 94BF     		ite	ls
 177 001e 0023     		movls	r3, #0
 178 0020 0123     		movhi	r3, #1
 179 0022 B9F1000F 		cmp	r9, #0
 180 0026 08BF     		it	eq
 181 0028 43F00103 		orreq	r3, r3, #1
 182 002c 13B1     		cbz	r3, .L11
 183              	.L10:
 184              		.loc 1 157 0 discriminator 1
 185 002e 1B48     		ldr	r0, .L15
 186 0030 FFF7FEFF 		bl	chDbgPanic
 187              	.LVL7:
 188              	.L11:
 189              	.LBB16:
 190              	.LBB17:
 191              		.loc 1 92 0 is_stmt 1
 192 0034 1A4E     		ldr	r6, .L15+4
 193              	.LBE17:
 194              	.LBE16:
 195              		.loc 1 160 0
 196 0036 A5F12403 		sub	r3, r5, #36
 197 003a E718     		adds	r7, r4, r3
 198              	.LBB21:
 199              	.LBB18:
 200              		.loc 1 92 0
 201 003c 7169     		ldr	r1, [r6, #20]
 202              	.LBE18:
 203              	.LBE21:
 204              		.loc 1 160 0
 205 003e E760     		str	r7, [r4, #12]
 206 0040 44F80390 		str	r9, [r4, r3]
 207 0044 089B     		ldr	r3, [sp, #32]
 208 0046 7B60     		str	r3, [r7, #4]
 209 0048 164B     		ldr	r3, .L15+8
 210 004a 3B62     		str	r3, [r7, #32]
 211              	.LVL8:
 212              	.LBB22:
 213              	.LBB19:
 214              		.loc 1 72 0
 215 004c 0223     		movs	r3, #2
 216 004e 84F82030 		strb	r3, [r4, #32]
 217              		.loc 1 75 0
 218 0052 1423     		movs	r3, #20
 219              		.loc 1 73 0
 220 0054 0025     		movs	r5, #0
 221              	.LVL9:
 222              		.loc 1 98 0
 223 0056 04F13002 		add	r2, r4, #48
 224              		.loc 1 95 0
 225 005a 04F12C0A 		add	sl, r4, #44
 226              		.loc 1 101 0
 227 005e 04F14C0C 		add	ip, r4, #76
ARM GAS  /tmp/ccvRjxqL.s 			page 5


 228              		.loc 1 75 0
 229 0062 84F82330 		strb	r3, [r4, #35]
 230              		.loc 1 88 0
 231 0066 0123     		movs	r3, #1
 232              		.loc 1 92 0
 233 0068 2661     		str	r6, [r4, #16]
 234              		.loc 1 71 0
 235 006a C4F80880 		str	r8, [r4, #8]
 236              		.loc 1 92 0
 237 006e 6161     		str	r1, [r4, #20]
 238              	.LBE19:
 239              	.LBE22:
 240              		.loc 1 162 0
 241 0070 2046     		mov	r0, r4
 242              	.LBB23:
 243              	.LBB20:
 244              		.loc 1 92 0
 245 0072 7461     		str	r4, [r6, #20]
 246              		.loc 1 73 0
 247 0074 84F82150 		strb	r5, [r4, #33]
 248              		.loc 1 78 0
 249 0078 C4F84480 		str	r8, [r4, #68]
 250              		.loc 1 79 0
 251 007c 2564     		str	r5, [r4, #64]
 252              		.loc 1 82 0
 253 007e E563     		str	r5, [r4, #60]
 254              		.loc 1 85 0
 255 0080 6562     		str	r5, [r4, #36]
 256              		.loc 1 88 0
 257 0082 84F82230 		strb	r3, [r4, #34]
 258              		.loc 1 91 0
 259 0086 A561     		str	r5, [r4, #24]
 260              		.loc 1 92 0
 261 0088 0C61     		str	r4, [r1, #16]
 262              		.loc 1 95 0
 263 008a C4F82CA0 		str	sl, [r4, #44]
 264              		.loc 1 98 0
 265 008e 6263     		str	r2, [r4, #52]
 266 0090 2263     		str	r2, [r4, #48]
 267              		.loc 1 101 0
 268 0092 C4F81CC0 		str	ip, [r4, #28]
 269              	.LBE20:
 270              	.LBE23:
 271              		.loc 1 162 0
 272 0096 BDE8F087 		pop	{r4, r5, r6, r7, r8, r9, sl, pc}
 273              	.L16:
 274 009a 00BF     		.align	2
 275              	.L15:
 276 009c 00000000 		.word	.LC0
 277 00a0 00000000 		.word	rlist
 278 00a4 00000000 		.word	_port_thread_start
 279              		.cfi_endproc
 280              	.LFE9:
 281              		.size	chThdCreateI, .-chThdCreateI
 282 00a8 AFF30080 		.section	.text.chThdCreateStatic,"ax",%progbits
 282      AFF30080 
 283              		.align	2
ARM GAS  /tmp/ccvRjxqL.s 			page 6


 284              		.p2align 4,,15
 285              		.global	chThdCreateStatic
 286              		.thumb
 287              		.thumb_func
 288              		.type	chThdCreateStatic, %function
 289              	chThdCreateStatic:
 290              	.LFB10:
 291              		.loc 1 181 0
 292              		.cfi_startproc
 293              		@ args = 4, pretend = 0, frame = 0
 294              		@ frame_needed = 0, uses_anonymous_args = 0
 295              	.LVL10:
 296 0000 2DE9F04F 		push	{r4, r5, r6, r7, r8, r9, sl, fp, lr}
 297              	.LCFI2:
 298              		.cfi_def_cfa_offset 36
 299              		.cfi_offset 4, -36
 300              		.cfi_offset 5, -32
 301              		.cfi_offset 6, -28
 302              		.cfi_offset 7, -24
 303              		.cfi_offset 8, -20
 304              		.cfi_offset 9, -16
 305              		.cfi_offset 10, -12
 306              		.cfi_offset 11, -8
 307              		.cfi_offset 14, -4
 308 0004 8046     		mov	r8, r0
 309 0006 83B0     		sub	sp, sp, #12
 310              	.LCFI3:
 311              		.cfi_def_cfa_offset 48
 312              		.loc 1 181 0
 313 0008 8946     		mov	r9, r1
 314 000a 9246     		mov	sl, r2
 315 000c 9B46     		mov	fp, r3
 316              		.loc 1 185 0
 317 000e 00F14C07 		add	r7, r0, #76
 318              	.LVL11:
 319              		.loc 1 180 0
 320 0012 00F10104 		add	r4, r0, #1
 321 0016 00F14D06 		add	r6, r0, #77
 322              	.LBB24:
 323              	.LBB25:
 324              		.loc 1 122 0
 325 001a FF25     		movs	r5, #255
 326              	.LVL12:
 327              	.L18:
 328 001c 04F8015C 		strb	r5, [r4, #-1]
 329 0020 0134     		adds	r4, r4, #1
 330              		.loc 1 121 0
 331 0022 B442     		cmp	r4, r6
 332 0024 FAD1     		bne	.L18
 333              	.LBE25:
 334              	.LBE24:
 335              		.loc 1 188 0
 336 0026 08EB0904 		add	r4, r8, r9
 337              	.LVL13:
 338              	.LBB26:
 339              	.LBB27:
 340              		.loc 1 121 0
ARM GAS  /tmp/ccvRjxqL.s 			page 7


 341 002a A742     		cmp	r7, r4
 342 002c 04D2     		bcs	.L21
 343              		.loc 1 122 0
 344 002e 5525     		movs	r5, #85
 345              	.LVL14:
 346              	.L22:
 347 0030 07F8015B 		strb	r5, [r7], #1
 348              	.LVL15:
 349              		.loc 1 121 0
 350 0034 A742     		cmp	r7, r4
 351 0036 FBD1     		bne	.L22
 352              	.L21:
 353              	.LBE27:
 354              	.LBE26:
 355              	.LBB28:
 356              		.loc 1 192 0
 357 0038 2023     		movs	r3, #32
 358              	.LVL16:
 359              	@ 192 "../../ChibiOS/os/kernel/src/chthreads.c" 1
 360 003a 83F31188 		msr     BASEPRI, r3
 361              	@ 0 "" 2
 362              	.LVL17:
 363              		.thumb
 364              	.LBE28:
 365 003e FFF7FEFF 		bl	dbg_check_lock
 366              	.LVL18:
 367              		.loc 1 193 0
 368 0042 0C98     		ldr	r0, [sp, #48]
 369 0044 5B46     		mov	r3, fp
 370 0046 5246     		mov	r2, sl
 371 0048 4946     		mov	r1, r9
 372 004a 0090     		str	r0, [sp, #0]
 373 004c 4046     		mov	r0, r8
 374 004e FFF7FEFF 		bl	chThdCreateI
 375              	.LVL19:
 376 0052 0021     		movs	r1, #0
 377 0054 0446     		mov	r4, r0
 378              	.LVL20:
 379 0056 FFF7FEFF 		bl	chSchWakeupS
 380              	.LVL21:
 381              		.loc 1 194 0
 382 005a FFF7FEFF 		bl	dbg_check_unlock
 383              	.LVL22:
 384              	.LBB29:
 385 005e 0023     		movs	r3, #0
 386              	.LVL23:
 387              	@ 194 "../../ChibiOS/os/kernel/src/chthreads.c" 1
 388 0060 83F31188 		msr     BASEPRI, r3
 389              	@ 0 "" 2
 390              	.LVL24:
 391              		.thumb
 392              	.LBE29:
 393              		.loc 1 196 0
 394 0064 2046     		mov	r0, r4
 395 0066 03B0     		add	sp, sp, #12
 396 0068 BDE8F08F 		pop	{r4, r5, r6, r7, r8, r9, sl, fp, pc}
 397              		.cfi_endproc
ARM GAS  /tmp/ccvRjxqL.s 			page 8


 398              	.LFE10:
 399              		.size	chThdCreateStatic, .-chThdCreateStatic
 400 006c AFF30080 		.section	.text.chThdSetPriority,"ax",%progbits
 401              		.align	2
 402              		.p2align 4,,15
 403              		.global	chThdSetPriority
 404              		.thumb
 405              		.thumb_func
 406              		.type	chThdSetPriority, %function
 407              	chThdSetPriority:
 408              	.LFB11:
 409              		.loc 1 210 0
 410              		.cfi_startproc
 411              		@ args = 0, pretend = 0, frame = 0
 412              		@ frame_needed = 0, uses_anonymous_args = 0
 413              	.LVL25:
 414              		.loc 1 213 0
 415 0000 7F28     		cmp	r0, #127
 416              		.loc 1 210 0
 417 0002 38B5     		push	{r3, r4, r5, lr}
 418              	.LCFI4:
 419              		.cfi_def_cfa_offset 16
 420              		.cfi_offset 3, -16
 421              		.cfi_offset 4, -12
 422              		.cfi_offset 5, -8
 423              		.cfi_offset 14, -4
 424              		.loc 1 210 0
 425 0004 0446     		mov	r4, r0
 426              		.loc 1 213 0
 427 0006 17D8     		bhi	.L30
 428              	.LVL26:
 429              	.L27:
 430              	.LBB30:
 431              		.loc 1 215 0
 432 0008 2023     		movs	r3, #32
 433              	.LVL27:
 434              	@ 215 "../../ChibiOS/os/kernel/src/chthreads.c" 1
 435 000a 83F31188 		msr     BASEPRI, r3
 436              	@ 0 "" 2
 437              	.LVL28:
 438              		.thumb
 439              	.LBE30:
 440 000e FFF7FEFF 		bl	dbg_check_lock
 441              	.LVL29:
 442              		.loc 1 217 0
 443 0012 0B4B     		ldr	r3, .L31
 444 0014 9B69     		ldr	r3, [r3, #24]
 445 0016 5D6C     		ldr	r5, [r3, #68]
 446              	.LVL30:
 447              		.loc 1 218 0
 448 0018 9A68     		ldr	r2, [r3, #8]
 449 001a 9542     		cmp	r5, r2
 450 001c 01D0     		beq	.L28
 451              		.loc 1 218 0 is_stmt 0 discriminator 1
 452 001e 9442     		cmp	r4, r2
 453 0020 00D9     		bls	.L29
 454              	.L28:
ARM GAS  /tmp/ccvRjxqL.s 			page 9


 455              		.loc 1 219 0 is_stmt 1
 456 0022 9C60     		str	r4, [r3, #8]
 457              	.L29:
 458              		.loc 1 220 0
 459 0024 5C64     		str	r4, [r3, #68]
 460              		.loc 1 225 0
 461 0026 FFF7FEFF 		bl	chSchRescheduleS
 462              	.LVL31:
 463              		.loc 1 226 0
 464 002a FFF7FEFF 		bl	dbg_check_unlock
 465              	.LVL32:
 466              	.LBB31:
 467 002e 0023     		movs	r3, #0
 468              	.LVL33:
 469              	@ 226 "../../ChibiOS/os/kernel/src/chthreads.c" 1
 470 0030 83F31188 		msr     BASEPRI, r3
 471              	@ 0 "" 2
 472              	.LVL34:
 473              		.thumb
 474              	.LBE31:
 475              		.loc 1 228 0
 476 0034 2846     		mov	r0, r5
 477 0036 38BD     		pop	{r3, r4, r5, pc}
 478              	.LVL35:
 479              	.L30:
 480              		.loc 1 213 0 discriminator 1
 481 0038 0248     		ldr	r0, .L31+4
 482              	.LVL36:
 483 003a FFF7FEFF 		bl	chDbgPanic
 484              	.LVL37:
 485 003e E3E7     		b	.L27
 486              	.L32:
 487              		.align	2
 488              	.L31:
 489 0040 00000000 		.word	rlist
 490 0044 14000000 		.word	.LC1
 491              		.cfi_endproc
 492              	.LFE11:
 493              		.size	chThdSetPriority, .-chThdSetPriority
 494 0048 AFF30080 		.section	.text.chThdResume,"ax",%progbits
 494      AFF30080 
 495              		.align	2
 496              		.p2align 4,,15
 497              		.global	chThdResume
 498              		.thumb
 499              		.thumb_func
 500              		.type	chThdResume, %function
 501              	chThdResume:
 502              	.LFB12:
 503              		.loc 1 243 0
 504              		.cfi_startproc
 505              		@ args = 0, pretend = 0, frame = 0
 506              		@ frame_needed = 0, uses_anonymous_args = 0
 507              	.LVL38:
 508 0000 10B5     		push	{r4, lr}
 509              	.LCFI5:
 510              		.cfi_def_cfa_offset 8
ARM GAS  /tmp/ccvRjxqL.s 			page 10


 511              		.cfi_offset 4, -8
 512              		.cfi_offset 14, -4
 513              	.LBB32:
 514              		.loc 1 245 0
 515 0002 2023     		movs	r3, #32
 516              	.LVL39:
 517              	.LBE32:
 518              		.loc 1 243 0
 519 0004 0446     		mov	r4, r0
 520              	.LBB33:
 521              		.loc 1 245 0
 522              	@ 245 "../../ChibiOS/os/kernel/src/chthreads.c" 1
 523 0006 83F31188 		msr     BASEPRI, r3
 524              	@ 0 "" 2
 525              	.LVL40:
 526              		.thumb
 527              	.LBE33:
 528 000a FFF7FEFF 		bl	dbg_check_lock
 529              	.LVL41:
 530              		.loc 1 246 0
 531 000e 94F82030 		ldrb	r3, [r4, #32]	@ zero_extendqisi2
 532 0012 022B     		cmp	r3, #2
 533 0014 02D0     		beq	.L34
 534              		.loc 1 246 0 is_stmt 0 discriminator 1
 535 0016 0748     		ldr	r0, .L38
 536 0018 FFF7FEFF 		bl	chDbgPanic
 537              	.LVL42:
 538              	.L34:
 539              		.loc 1 249 0 is_stmt 1
 540 001c 2046     		mov	r0, r4
 541 001e 0021     		movs	r1, #0
 542 0020 FFF7FEFF 		bl	chSchWakeupS
 543              	.LVL43:
 544              		.loc 1 250 0
 545 0024 FFF7FEFF 		bl	dbg_check_unlock
 546              	.LVL44:
 547              	.LBB34:
 548 0028 0023     		movs	r3, #0
 549              	.LVL45:
 550              	@ 250 "../../ChibiOS/os/kernel/src/chthreads.c" 1
 551 002a 83F31188 		msr     BASEPRI, r3
 552              	@ 0 "" 2
 553              	.LVL46:
 554              		.thumb
 555              	.LBE34:
 556              		.loc 1 252 0
 557 002e 2046     		mov	r0, r4
 558 0030 10BD     		pop	{r4, pc}
 559              	.L39:
 560 0032 00BF     		.align	2
 561              	.L38:
 562 0034 2C000000 		.word	.LC2
 563              		.cfi_endproc
 564              	.LFE12:
 565              		.size	chThdResume, .-chThdResume
 566 0038 AFF30080 		.section	.text.chThdTerminate,"ax",%progbits
 566      AFF30080 
ARM GAS  /tmp/ccvRjxqL.s 			page 11


 567              		.align	2
 568              		.p2align 4,,15
 569              		.global	chThdTerminate
 570              		.thumb
 571              		.thumb_func
 572              		.type	chThdTerminate, %function
 573              	chThdTerminate:
 574              	.LFB13:
 575              		.loc 1 266 0
 576              		.cfi_startproc
 577              		@ args = 0, pretend = 0, frame = 0
 578              		@ frame_needed = 0, uses_anonymous_args = 0
 579              	.LVL47:
 580 0000 10B5     		push	{r4, lr}
 581              	.LCFI6:
 582              		.cfi_def_cfa_offset 8
 583              		.cfi_offset 4, -8
 584              		.cfi_offset 14, -4
 585              	.LBB35:
 586              		.loc 1 268 0
 587 0002 2023     		movs	r3, #32
 588              	.LVL48:
 589              	.LBE35:
 590              		.loc 1 266 0
 591 0004 0446     		mov	r4, r0
 592              	.LBB36:
 593              		.loc 1 268 0
 594              	@ 268 "../../ChibiOS/os/kernel/src/chthreads.c" 1
 595 0006 83F31188 		msr     BASEPRI, r3
 596              	@ 0 "" 2
 597              	.LVL49:
 598              		.thumb
 599              	.LBE36:
 600 000a FFF7FEFF 		bl	dbg_check_lock
 601              	.LVL50:
 602              		.loc 1 269 0
 603 000e 94F82130 		ldrb	r3, [r4, #33]	@ zero_extendqisi2
 604 0012 43F00403 		orr	r3, r3, #4
 605 0016 84F82130 		strb	r3, [r4, #33]
 606              		.loc 1 270 0
 607 001a FFF7FEFF 		bl	dbg_check_unlock
 608              	.LVL51:
 609              	.LBB37:
 610 001e 0023     		movs	r3, #0
 611              	.LVL52:
 612              	@ 270 "../../ChibiOS/os/kernel/src/chthreads.c" 1
 613 0020 83F31188 		msr     BASEPRI, r3
 614              	@ 0 "" 2
 615              	.LVL53:
 616              		.thumb
 617 0024 10BD     		pop	{r4, pc}
 618              	.LBE37:
 619              		.cfi_endproc
 620              	.LFE13:
 621              		.size	chThdTerminate, .-chThdTerminate
 622 0026 00BFAFF3 		.section	.text.chThdSleep,"ax",%progbits
 622      0080AFF3 
ARM GAS  /tmp/ccvRjxqL.s 			page 12


 622      0080
 623              		.align	2
 624              		.p2align 4,,15
 625              		.global	chThdSleep
 626              		.thumb
 627              		.thumb_func
 628              		.type	chThdSleep, %function
 629              	chThdSleep:
 630              	.LFB14:
 631              		.loc 1 285 0
 632              		.cfi_startproc
 633              		@ args = 0, pretend = 0, frame = 0
 634              		@ frame_needed = 0, uses_anonymous_args = 0
 635              	.LVL54:
 636 0000 10B5     		push	{r4, lr}
 637              	.LCFI7:
 638              		.cfi_def_cfa_offset 8
 639              		.cfi_offset 4, -8
 640              		.cfi_offset 14, -4
 641              		.loc 1 287 0
 642 0002 0446     		mov	r4, r0
 643 0004 10B9     		cbnz	r0, .L42
 644              		.loc 1 287 0 is_stmt 0 discriminator 1
 645 0006 0948     		ldr	r0, .L43
 646              	.LVL55:
 647 0008 FFF7FEFF 		bl	chDbgPanic
 648              	.LVL56:
 649              	.L42:
 650              	.LBB38:
 651              		.loc 1 289 0 is_stmt 1
 652 000c 2023     		movs	r3, #32
 653              	.LVL57:
 654              	@ 289 "../../ChibiOS/os/kernel/src/chthreads.c" 1
 655 000e 83F31188 		msr     BASEPRI, r3
 656              	@ 0 "" 2
 657              	.LVL58:
 658              		.thumb
 659              	.LBE38:
 660 0012 FFF7FEFF 		bl	dbg_check_lock
 661              	.LVL59:
 662              		.loc 1 290 0
 663 0016 2146     		mov	r1, r4
 664 0018 0620     		movs	r0, #6
 665 001a FFF7FEFF 		bl	chSchGoSleepTimeoutS
 666              	.LVL60:
 667              		.loc 1 291 0
 668 001e FFF7FEFF 		bl	dbg_check_unlock
 669              	.LVL61:
 670              	.LBB39:
 671 0022 0023     		movs	r3, #0
 672              	.LVL62:
 673              	@ 291 "../../ChibiOS/os/kernel/src/chthreads.c" 1
 674 0024 83F31188 		msr     BASEPRI, r3
 675              	@ 0 "" 2
 676              	.LVL63:
 677              		.thumb
 678 0028 10BD     		pop	{r4, pc}
ARM GAS  /tmp/ccvRjxqL.s 			page 13


 679              	.L44:
 680 002a 00BF     		.align	2
 681              	.L43:
 682 002c 40000000 		.word	.LC3
 683              	.LBE39:
 684              		.cfi_endproc
 685              	.LFE14:
 686              		.size	chThdSleep, .-chThdSleep
 687              		.section	.text.chThdSleepUntil,"ax",%progbits
 688              		.align	2
 689              		.p2align 4,,15
 690              		.global	chThdSleepUntil
 691              		.thumb
 692              		.thumb_func
 693              		.type	chThdSleepUntil, %function
 694              	chThdSleepUntil:
 695              	.LFB15:
 696              		.loc 1 302 0
 697              		.cfi_startproc
 698              		@ args = 0, pretend = 0, frame = 0
 699              		@ frame_needed = 0, uses_anonymous_args = 0
 700              	.LVL64:
 701 0000 10B5     		push	{r4, lr}
 702              	.LCFI8:
 703              		.cfi_def_cfa_offset 8
 704              		.cfi_offset 4, -8
 705              		.cfi_offset 14, -4
 706              	.LBB40:
 707              		.loc 1 304 0
 708 0002 2023     		movs	r3, #32
 709              	.LVL65:
 710              	.LBE40:
 711              		.loc 1 302 0
 712 0004 0446     		mov	r4, r0
 713              	.LBB41:
 714              		.loc 1 304 0
 715              	@ 304 "../../ChibiOS/os/kernel/src/chthreads.c" 1
 716 0006 83F31188 		msr     BASEPRI, r3
 717              	@ 0 "" 2
 718              	.LVL66:
 719              		.thumb
 720              	.LBE41:
 721 000a FFF7FEFF 		bl	dbg_check_lock
 722              	.LVL67:
 723              		.loc 1 305 0
 724 000e 064B     		ldr	r3, .L50
 725 0010 D968     		ldr	r1, [r3, #12]
 726              	.LVL68:
 727 0012 611A     		subs	r1, r4, r1
 728              	.LVL69:
 729 0014 02D0     		beq	.L46
 730              		.loc 1 306 0
 731 0016 0620     		movs	r0, #6
 732 0018 FFF7FEFF 		bl	chSchGoSleepTimeoutS
 733              	.LVL70:
 734              	.L46:
 735              		.loc 1 307 0
ARM GAS  /tmp/ccvRjxqL.s 			page 14


 736 001c FFF7FEFF 		bl	dbg_check_unlock
 737              	.LVL71:
 738              	.LBB42:
 739 0020 0023     		movs	r3, #0
 740              	.LVL72:
 741              	@ 307 "../../ChibiOS/os/kernel/src/chthreads.c" 1
 742 0022 83F31188 		msr     BASEPRI, r3
 743              	@ 0 "" 2
 744              	.LVL73:
 745              		.thumb
 746 0026 10BD     		pop	{r4, pc}
 747              	.L51:
 748              		.align	2
 749              	.L50:
 750 0028 00000000 		.word	vtlist
 751              	.LBE42:
 752              		.cfi_endproc
 753              	.LFE15:
 754              		.size	chThdSleepUntil, .-chThdSleepUntil
 755 002c AFF30080 		.section	.text.chThdYield,"ax",%progbits
 756              		.align	2
 757              		.p2align 4,,15
 758              		.global	chThdYield
 759              		.thumb
 760              		.thumb_func
 761              		.type	chThdYield, %function
 762              	chThdYield:
 763              	.LFB16:
 764              		.loc 1 317 0
 765              		.cfi_startproc
 766              		@ args = 0, pretend = 0, frame = 0
 767              		@ frame_needed = 0, uses_anonymous_args = 0
 768 0000 08B5     		push	{r3, lr}
 769              	.LCFI9:
 770              		.cfi_def_cfa_offset 8
 771              		.cfi_offset 3, -8
 772              		.cfi_offset 14, -4
 773              	.LBB43:
 774              		.loc 1 319 0
 775 0002 2023     		movs	r3, #32
 776              	.LVL74:
 777              	@ 319 "../../ChibiOS/os/kernel/src/chthreads.c" 1
 778 0004 83F31188 		msr     BASEPRI, r3
 779              	@ 0 "" 2
 780              	.LVL75:
 781              		.thumb
 782              	.LBE43:
 783 0008 FFF7FEFF 		bl	dbg_check_lock
 784              	.LVL76:
 785              		.loc 1 320 0
 786 000c 074B     		ldr	r3, .L54
 787 000e 1A68     		ldr	r2, [r3, #0]
 788 0010 9B69     		ldr	r3, [r3, #24]
 789 0012 9268     		ldr	r2, [r2, #8]
 790 0014 9B68     		ldr	r3, [r3, #8]
 791 0016 9A42     		cmp	r2, r3
 792 0018 01D3     		bcc	.L53
ARM GAS  /tmp/ccvRjxqL.s 			page 15


 793              		.loc 1 320 0 is_stmt 0 discriminator 1
 794 001a FFF7FEFF 		bl	chSchDoRescheduleBehind
 795              	.LVL77:
 796              	.L53:
 797              		.loc 1 321 0 is_stmt 1
 798 001e FFF7FEFF 		bl	dbg_check_unlock
 799              	.LVL78:
 800              	.LBB44:
 801 0022 0023     		movs	r3, #0
 802              	.LVL79:
 803              	@ 321 "../../ChibiOS/os/kernel/src/chthreads.c" 1
 804 0024 83F31188 		msr     BASEPRI, r3
 805              	@ 0 "" 2
 806              	.LVL80:
 807              		.thumb
 808 0028 08BD     		pop	{r3, pc}
 809              	.L55:
 810 002a 00BF     		.align	2
 811              	.L54:
 812 002c 00000000 		.word	rlist
 813              	.LBE44:
 814              		.cfi_endproc
 815              	.LFE16:
 816              		.size	chThdYield, .-chThdYield
 817              		.section	.text.chThdExitS,"ax",%progbits
 818              		.align	2
 819              		.p2align 4,,15
 820              		.global	chThdExitS
 821              		.thumb
 822              		.thumb_func
 823              		.type	chThdExitS, %function
 824              	chThdExitS:
 825              	.LFB18:
 826              		.loc 1 359 0
 827              		.cfi_startproc
 828              		@ args = 0, pretend = 0, frame = 0
 829              		@ frame_needed = 0, uses_anonymous_args = 0
 830              	.LVL81:
 831 0000 38B5     		push	{r3, r4, r5, lr}
 832              	.LCFI10:
 833              		.cfi_def_cfa_offset 16
 834              		.cfi_offset 3, -16
 835              		.cfi_offset 4, -12
 836              		.cfi_offset 5, -8
 837              		.cfi_offset 14, -4
 838              		.loc 1 360 0
 839 0002 104B     		ldr	r3, .L64
 840 0004 9C69     		ldr	r4, [r3, #24]
 841              	.LVL82:
 842              		.loc 1 367 0
 843 0006 2546     		mov	r5, r4
 844              		.loc 1 362 0
 845 0008 A062     		str	r0, [r4, #40]
 846              		.loc 1 367 0
 847 000a 55F82C0F 		ldr	r0, [r5, #44]!
 848              	.LVL83:
 849 000e A842     		cmp	r0, r5
ARM GAS  /tmp/ccvRjxqL.s 			page 16


 850 0010 06D0     		beq	.L61
 851              	.LVL84:
 852              	.L62:
 853              	.LBB45:
 854              	.LBB46:
 855              		.file 2 "../../ChibiOS/os/kernel/include/chinline.h"
 856              		.loc 2 82 0
 857 0012 0368     		ldr	r3, [r0, #0]
 858 0014 E362     		str	r3, [r4, #44]
 859              	.LBE46:
 860              	.LBE45:
 861              		.loc 1 368 0
 862 0016 FFF7FEFF 		bl	chSchReadyI
 863              	.LVL85:
 864              		.loc 1 367 0
 865 001a E06A     		ldr	r0, [r4, #44]
 866 001c A842     		cmp	r0, r5
 867 001e F8D1     		bne	.L62
 868              	.LVL86:
 869              	.L61:
 870              		.loc 1 373 0
 871 0020 94F82130 		ldrb	r3, [r4, #33]	@ zero_extendqisi2
 872 0024 9B07     		lsls	r3, r3, #30
 873 0026 04D1     		bne	.L59
 874              		.loc 1 374 0
 875 0028 6369     		ldr	r3, [r4, #20]
 876 002a 2269     		ldr	r2, [r4, #16]
 877 002c 1A61     		str	r2, [r3, #16]
 878 002e 2269     		ldr	r2, [r4, #16]
 879 0030 5361     		str	r3, [r2, #20]
 880              	.L59:
 881              		.loc 1 376 0
 882 0032 0E20     		movs	r0, #14
 883 0034 FFF7FEFF 		bl	chSchGoSleepS
 884              	.LVL87:
 885              		.loc 1 378 0
 886 0038 0348     		ldr	r0, .L64+4
 887              		.loc 1 379 0
 888 003a BDE83840 		pop	{r3, r4, r5, lr}
 889              		.loc 1 378 0
 890 003e FFF7FEBF 		b	chDbgPanic
 891              	.LVL88:
 892              	.L65:
 893 0042 00BF     		.align	2
 894              	.L64:
 895 0044 00000000 		.word	rlist
 896 0048 50000000 		.word	.LC4
 897              		.cfi_endproc
 898              	.LFE18:
 899              		.size	chThdExitS, .-chThdExitS
 900 004c AFF30080 		.section	.text.chThdExit,"ax",%progbits
 901              		.align	2
 902              		.p2align 4,,15
 903              		.global	chThdExit
 904              		.thumb
 905              		.thumb_func
 906              		.type	chThdExit, %function
ARM GAS  /tmp/ccvRjxqL.s 			page 17


 907              	chThdExit:
 908              	.LFB17:
 909              		.loc 1 338 0
 910              		.cfi_startproc
 911              		@ args = 0, pretend = 0, frame = 0
 912              		@ frame_needed = 0, uses_anonymous_args = 0
 913              	.LVL89:
 914 0000 10B5     		push	{r4, lr}
 915              	.LCFI11:
 916              		.cfi_def_cfa_offset 8
 917              		.cfi_offset 4, -8
 918              		.cfi_offset 14, -4
 919              	.LBB47:
 920              		.loc 1 340 0
 921 0002 2023     		movs	r3, #32
 922              	.LVL90:
 923              	.LBE47:
 924              		.loc 1 338 0
 925 0004 0446     		mov	r4, r0
 926              	.LBB48:
 927              		.loc 1 340 0
 928              	@ 340 "../../ChibiOS/os/kernel/src/chthreads.c" 1
 929 0006 83F31188 		msr     BASEPRI, r3
 930              	@ 0 "" 2
 931              	.LVL91:
 932              		.thumb
 933              	.LBE48:
 934 000a FFF7FEFF 		bl	dbg_check_lock
 935              	.LVL92:
 936              		.loc 1 341 0
 937 000e 2046     		mov	r0, r4
 938              		.loc 1 343 0
 939 0010 BDE81040 		pop	{r4, lr}
 940              		.loc 1 341 0
 941 0014 FFF7FEBF 		b	chThdExitS
 942              	.LVL93:
 943              		.cfi_endproc
 944              	.LFE17:
 945              		.size	chThdExit, .-chThdExit
 946 0018 AFF30080 		.section	.text.chThdWait,"ax",%progbits
 946      AFF30080 
 947              		.align	2
 948              		.p2align 4,,15
 949              		.global	chThdWait
 950              		.thumb
 951              		.thumb_func
 952              		.type	chThdWait, %function
 953              	chThdWait:
 954              	.LFB19:
 955              		.loc 1 413 0
 956              		.cfi_startproc
 957              		@ args = 0, pretend = 0, frame = 0
 958              		@ frame_needed = 0, uses_anonymous_args = 0
 959              	.LVL94:
 960 0000 38B5     		push	{r3, r4, r5, lr}
 961              	.LCFI12:
 962              		.cfi_def_cfa_offset 16
ARM GAS  /tmp/ccvRjxqL.s 			page 18


 963              		.cfi_offset 3, -16
 964              		.cfi_offset 4, -12
 965              		.cfi_offset 5, -8
 966              		.cfi_offset 14, -4
 967              		.loc 1 416 0
 968 0002 0446     		mov	r4, r0
 969 0004 48B3     		cbz	r0, .L75
 970              	.LVL95:
 971              	.L68:
 972              	.LBB49:
 973              		.loc 1 418 0
 974 0006 2023     		movs	r3, #32
 975              	.LVL96:
 976              	@ 418 "../../ChibiOS/os/kernel/src/chthreads.c" 1
 977 0008 83F31188 		msr     BASEPRI, r3
 978              	@ 0 "" 2
 979              	.LVL97:
 980              		.thumb
 981              	.LBE49:
 982              		.loc 1 419 0
 983 000c 154D     		ldr	r5, .L78
 984              		.loc 1 418 0
 985 000e FFF7FEFF 		bl	dbg_check_lock
 986              	.LVL98:
 987              		.loc 1 419 0
 988 0012 AB69     		ldr	r3, [r5, #24]
 989 0014 A342     		cmp	r3, r4
 990 0016 1CD0     		beq	.L76
 991              	.L69:
 992              		.loc 1 421 0
 993 0018 94F82230 		ldrb	r3, [r4, #34]	@ zero_extendqisi2
 994 001c ABB1     		cbz	r3, .L77
 995              	.L70:
 996              		.loc 1 423 0
 997 001e 94F82030 		ldrb	r3, [r4, #32]	@ zero_extendqisi2
 998 0022 0E2B     		cmp	r3, #14
 999 0024 06D0     		beq	.L71
 1000              		.loc 1 424 0
 1001 0026 AB69     		ldr	r3, [r5, #24]
 1002              	.LVL99:
 1003              	.LBB50:
 1004              	.LBB51:
 1005              		.loc 2 75 0
 1006 0028 E26A     		ldr	r2, [r4, #44]
 1007              	.LBE51:
 1008              	.LBE50:
 1009              		.loc 1 425 0
 1010 002a 0720     		movs	r0, #7
 1011              	.LBB53:
 1012              	.LBB52:
 1013              		.loc 2 75 0
 1014 002c 1A60     		str	r2, [r3, #0]
 1015              		.loc 2 76 0
 1016 002e E362     		str	r3, [r4, #44]
 1017              	.LBE52:
 1018              	.LBE53:
 1019              		.loc 1 425 0
ARM GAS  /tmp/ccvRjxqL.s 			page 19


 1020 0030 FFF7FEFF 		bl	chSchGoSleepS
 1021              	.LVL100:
 1022              	.L71:
 1023              		.loc 1 427 0
 1024 0034 A56A     		ldr	r5, [r4, #40]
 1025              	.LVL101:
 1026              		.loc 1 428 0
 1027 0036 FFF7FEFF 		bl	dbg_check_unlock
 1028              	.LVL102:
 1029              	.LBB54:
 1030 003a 0023     		movs	r3, #0
 1031              	.LVL103:
 1032              	@ 428 "../../ChibiOS/os/kernel/src/chthreads.c" 1
 1033 003c 83F31188 		msr     BASEPRI, r3
 1034              	@ 0 "" 2
 1035              	.LVL104:
 1036              		.thumb
 1037              	.LBE54:
 1038              		.loc 1 430 0
 1039 0040 2046     		mov	r0, r4
 1040 0042 FFF7FEFF 		bl	chThdRelease
 1041              	.LVL105:
 1042              		.loc 1 433 0
 1043 0046 2846     		mov	r0, r5
 1044 0048 38BD     		pop	{r3, r4, r5, pc}
 1045              	.LVL106:
 1046              	.L77:
 1047              		.loc 1 421 0 discriminator 1
 1048 004a 0748     		ldr	r0, .L78+4
 1049 004c FFF7FEFF 		bl	chDbgPanic
 1050              	.LVL107:
 1051 0050 E5E7     		b	.L70
 1052              	.L76:
 1053              		.loc 1 419 0 discriminator 1
 1054 0052 0648     		ldr	r0, .L78+8
 1055 0054 FFF7FEFF 		bl	chDbgPanic
 1056              	.LVL108:
 1057 0058 DEE7     		b	.L69
 1058              	.LVL109:
 1059              	.L75:
 1060              		.loc 1 416 0 discriminator 1
 1061 005a 0548     		ldr	r0, .L78+12
 1062              	.LVL110:
 1063 005c FFF7FEFF 		bl	chDbgPanic
 1064              	.LVL111:
 1065 0060 D1E7     		b	.L68
 1066              	.L79:
 1067 0062 00BF     		.align	2
 1068              	.L78:
 1069 0064 00000000 		.word	rlist
 1070 0068 84000000 		.word	.LC7
 1071 006c 74000000 		.word	.LC6
 1072 0070 64000000 		.word	.LC5
 1073              		.cfi_endproc
 1074              	.LFE19:
 1075              		.size	chThdWait, .-chThdWait
 1076 0074 AFF30080 		.section	.rodata.str1.4,"aMS",%progbits,1
ARM GAS  /tmp/ccvRjxqL.s 			page 20


 1076      AFF30080 
 1076      AFF30080 
 1077              		.align	2
 1078              	.LC0:
 1079 0000 22636854 		.ascii	"\"chThdCreateI\"()\000"
 1079      68644372 
 1079      65617465 
 1079      49222829 
 1079      00
 1080 0011 000000   		.space	3
 1081              	.LC1:
 1082 0014 22636854 		.ascii	"\"chThdSetPriority\"()\000"
 1082      68645365 
 1082      74507269 
 1082      6F726974 
 1082      79222829 
 1083 0029 000000   		.space	3
 1084              	.LC2:
 1085 002c 63685468 		.ascii	"chThdResume(), #1\000"
 1085      64526573 
 1085      756D6528 
 1085      292C2023 
 1085      3100
 1086 003e 0000     		.space	2
 1087              	.LC3:
 1088 0040 22636854 		.ascii	"\"chThdSleep\"()\000"
 1088      6864536C 
 1088      65657022 
 1088      282900
 1089 004f 00       		.space	1
 1090              	.LC4:
 1091 0050 63685468 		.ascii	"chThdExitS(), #1\000"
 1091      64457869 
 1091      74532829 
 1091      2C202331 
 1091      00
 1092 0061 000000   		.space	3
 1093              	.LC5:
 1094 0064 22636854 		.ascii	"\"chThdWait\"()\000"
 1094      68645761 
 1094      69742228 
 1094      2900
 1095 0072 0000     		.space	2
 1096              	.LC6:
 1097 0074 63685468 		.ascii	"chThdWait(), #1\000"
 1097      64576169 
 1097      7428292C 
 1097      20233100 
 1098              	.LC7:
 1099 0084 63685468 		.ascii	"chThdWait(), #2\000"
 1099      64576169 
 1099      7428292C 
 1099      20233200 
 1100              		.text
 1101              	.Letext0:
 1102              		.file 3 "/opt/psas/x-tools/stm32f407/arm-psas-eabi/bin/../lib/gcc/arm-psas-eabi/4.7.2/include/stdd
 1103              		.file 4 "/opt/psas/x-tools/stm32f407/arm-psas-eabi/bin/../lib/gcc/arm-psas-eabi/4.7.2/../../../../
ARM GAS  /tmp/ccvRjxqL.s 			page 21


 1104              		.file 5 "../../ChibiOS/os/ports/GCC/ARMCMx/chtypes.h"
 1105              		.file 6 "../../ChibiOS/os/kernel/include/chlists.h"
 1106              		.file 7 "../../ChibiOS/os/kernel/include/chthreads.h"
 1107              		.file 8 "../../ChibiOS/os/ports/GCC/ARMCMx/chcore_v7m.h"
 1108              		.file 9 "../../ChibiOS/os/kernel/include/chvt.h"
 1109              		.file 10 "../../ChibiOS/os/kernel/include/chschd.h"
 1110              		.file 11 "../../ChibiOS/os/kernel/include/chmtx.h"
 1111              		.file 12 "../../ChibiOS/os/kernel/include/chdebug.h"
 1112              		.file 13 "../../ChibiOS/os/kernel/include/chdynamic.h"