ARM GAS  /tmp/ccwlB1oz.s 			page 1


   1              		.syntax unified
   2              		.cpu cortex-m4
   3              		.eabi_attribute 27, 3
   4              		.eabi_attribute 28, 1
   5              		.fpu fpv4-sp-d16
   6              		.eabi_attribute 20, 1
   7              		.eabi_attribute 21, 1
   8              		.eabi_attribute 23, 3
   9              		.eabi_attribute 24, 1
  10              		.eabi_attribute 25, 1
  11              		.eabi_attribute 26, 1
  12              		.eabi_attribute 30, 2
  13              		.eabi_attribute 34, 1
  14              		.eabi_attribute 18, 4
  15              		.thumb
  16              		.file	"chvt.c"
  17              		.text
  18              	.Ltext0:
  19              		.cfi_sections	.debug_frame
  20              		.section	.text._vt_init,"ax",%progbits
  21              		.align	2
  22              		.p2align 4,,15
  23              		.global	_vt_init
  24              		.thumb
  25              		.thumb_func
  26              		.type	_vt_init, %function
  27              	_vt_init:
  28              	.LFB7:
  29              		.file 1 "../../ChibiOS/os/kernel/src/chvt.c"
  30              		.loc 1 43 0
  31              		.cfi_startproc
  32              		@ args = 0, pretend = 0, frame = 0
  33              		@ frame_needed = 0, uses_anonymous_args = 0
  34              		@ link register save eliminated.
  35              		.loc 1 45 0
  36 0000 40F20003 		movw	r3, #:lower16:.LANCHOR0
  37 0004 C0F20003 		movt	r3, #:upper16:.LANCHOR0
  38              		.loc 1 46 0
  39 0008 4FF0FF32 		mov	r2, #-1
  40 000c 9A60     		str	r2, [r3, #8]
  41              		.loc 1 47 0
  42 000e 0022     		movs	r2, #0
  43              		.loc 1 45 0
  44 0010 5B60     		str	r3, [r3, #4]
  45 0012 1B60     		str	r3, [r3, #0]
  46              		.loc 1 47 0
  47 0014 DA60     		str	r2, [r3, #12]
  48 0016 7047     		bx	lr
  49              		.cfi_endproc
  50              	.LFE7:
  51              		.size	_vt_init, .-_vt_init
  52 0018 AFF30080 		.section	.text.chVTSetI,"ax",%progbits
  52      AFF30080 
  53              		.align	2
  54              		.p2align 4,,15
  55              		.global	chVTSetI
  56              		.thumb
ARM GAS  /tmp/ccwlB1oz.s 			page 2


  57              		.thumb_func
  58              		.type	chVTSetI, %function
  59              	chVTSetI:
  60              	.LFB8:
  61              		.loc 1 69 0
  62              		.cfi_startproc
  63              		@ args = 0, pretend = 0, frame = 0
  64              		@ frame_needed = 0, uses_anonymous_args = 0
  65              	.LVL0:
  66 0000 F8B5     		push	{r3, r4, r5, r6, r7, lr}
  67              	.LCFI0:
  68              		.cfi_def_cfa_offset 24
  69              		.cfi_offset 3, -24
  70              		.cfi_offset 4, -20
  71              		.cfi_offset 5, -16
  72              		.cfi_offset 6, -12
  73              		.cfi_offset 7, -8
  74              		.cfi_offset 14, -4
  75              		.loc 1 69 0
  76 0002 0546     		mov	r5, r0
  77 0004 1646     		mov	r6, r2
  78 0006 0C46     		mov	r4, r1
  79 0008 1F46     		mov	r7, r3
  80              		.loc 1 72 0
  81 000a FFF7FEFF 		bl	chDbgCheckClassI
  82              	.LVL1:
  83              		.loc 1 73 0
  84 000e 002D     		cmp	r5, #0
  85 0010 18BF     		it	ne
  86 0012 002E     		cmpne	r6, #0
  87 0014 1AD0     		beq	.L3
  88              		.loc 1 73 0 is_stmt 0 discriminator 2
  89 0016 CCB1     		cbz	r4, .L3
  90              	.L4:
  91              		.loc 1 78 0 is_stmt 1
  92 0018 0E49     		ldr	r1, .L11
  93              		.loc 1 76 0
  94 001a 2F61     		str	r7, [r5, #16]
  95              		.loc 1 78 0
  96 001c 0B68     		ldr	r3, [r1, #0]
  97              	.LVL2:
  98              		.loc 1 77 0
  99 001e EE60     		str	r6, [r5, #12]
 100              		.loc 1 79 0
 101 0020 9A68     		ldr	r2, [r3, #8]
 102 0022 9442     		cmp	r4, r2
 103 0024 04D9     		bls	.L5
 104              	.L8:
 105              		.loc 1 81 0
 106 0026 1B68     		ldr	r3, [r3, #0]
 107              	.LVL3:
 108              		.loc 1 80 0
 109 0028 A41A     		subs	r4, r4, r2
 110              	.LVL4:
 111              		.loc 1 79 0
 112 002a 9A68     		ldr	r2, [r3, #8]
 113 002c A242     		cmp	r2, r4
ARM GAS  /tmp/ccwlB1oz.s 			page 3


 114 002e FAD3     		bcc	.L8
 115              	.L5:
 116              		.loc 1 84 0
 117 0030 5A68     		ldr	r2, [r3, #4]
 118              		.loc 1 86 0
 119 0032 AC60     		str	r4, [r5, #8]
 120              		.loc 1 87 0
 121 0034 8B42     		cmp	r3, r1
 122              		.loc 1 84 0
 123 0036 6A60     		str	r2, [r5, #4]
 124 0038 2B60     		str	r3, [r5, #0]
 125              		.loc 1 85 0
 126 003a 1560     		str	r5, [r2, #0]
 127              		.loc 1 88 0
 128 003c 18BF     		it	ne
 129 003e 9A68     		ldrne	r2, [r3, #8]
 130              		.loc 1 85 0
 131 0040 5D60     		str	r5, [r3, #4]
 132              		.loc 1 88 0
 133 0042 1CBF     		itt	ne
 134 0044 C4EB0204 		rsbne	r4, r4, r2
 135              	.LVL5:
 136 0048 9C60     		strne	r4, [r3, #8]
 137 004a F8BD     		pop	{r3, r4, r5, r6, r7, pc}
 138              	.LVL6:
 139              	.L3:
 140              		.loc 1 73 0 discriminator 1
 141 004c 0248     		ldr	r0, .L11+4
 142 004e FFF7FEFF 		bl	chDbgPanic
 143              	.LVL7:
 144 0052 E1E7     		b	.L4
 145              	.L12:
 146              		.align	2
 147              	.L11:
 148 0054 00000000 		.word	.LANCHOR0
 149 0058 00000000 		.word	.LC0
 150              		.cfi_endproc
 151              	.LFE8:
 152              		.size	chVTSetI, .-chVTSetI
 153 005c AFF30080 		.section	.text.chVTResetI,"ax",%progbits
 154              		.align	2
 155              		.p2align 4,,15
 156              		.global	chVTResetI
 157              		.thumb
 158              		.thumb_func
 159              		.type	chVTResetI, %function
 160              	chVTResetI:
 161              	.LFB9:
 162              		.loc 1 99 0
 163              		.cfi_startproc
 164              		@ args = 0, pretend = 0, frame = 0
 165              		@ frame_needed = 0, uses_anonymous_args = 0
 166              	.LVL8:
 167 0000 10B5     		push	{r4, lr}
 168              	.LCFI1:
 169              		.cfi_def_cfa_offset 8
 170              		.cfi_offset 4, -8
ARM GAS  /tmp/ccwlB1oz.s 			page 4


 171              		.cfi_offset 14, -4
 172              		.loc 1 99 0
 173 0002 0446     		mov	r4, r0
 174              		.loc 1 101 0
 175 0004 FFF7FEFF 		bl	chDbgCheckClassI
 176              	.LVL9:
 177              		.loc 1 102 0
 178 0008 84B1     		cbz	r4, .L17
 179              	.L14:
 180              		.loc 1 103 0
 181 000a E368     		ldr	r3, [r4, #12]
 182 000c 93B1     		cbz	r3, .L18
 183              	.L15:
 184              		.loc 1 107 0
 185 000e 2368     		ldr	r3, [r4, #0]
 186 0010 0A4A     		ldr	r2, .L19
 187 0012 9342     		cmp	r3, r2
 188              		.loc 1 108 0
 189 0014 1FBF     		itttt	ne
 190 0016 9968     		ldrne	r1, [r3, #8]
 191 0018 A268     		ldrne	r2, [r4, #8]
 192 001a 8A18     		addne	r2, r1, r2
 193 001c 9A60     		strne	r2, [r3, #8]
 194              		.loc 1 109 0
 195 001e 6268     		ldr	r2, [r4, #4]
 196 0020 1360     		str	r3, [r2, #0]
 197              		.loc 1 110 0
 198 0022 2368     		ldr	r3, [r4, #0]
 199 0024 5A60     		str	r2, [r3, #4]
 200              		.loc 1 111 0
 201 0026 0023     		movs	r3, #0
 202 0028 E360     		str	r3, [r4, #12]
 203 002a 10BD     		pop	{r4, pc}
 204              	.L17:
 205              		.loc 1 102 0 discriminator 1
 206 002c 0448     		ldr	r0, .L19+4
 207 002e FFF7FEFF 		bl	chDbgPanic
 208              	.LVL10:
 209 0032 EAE7     		b	.L14
 210              	.L18:
 211              		.loc 1 103 0 discriminator 1
 212 0034 0348     		ldr	r0, .L19+8
 213 0036 FFF7FEFF 		bl	chDbgPanic
 214              	.LVL11:
 215 003a E8E7     		b	.L15
 216              	.L20:
 217              		.align	2
 218              	.L19:
 219 003c 00000000 		.word	.LANCHOR0
 220 0040 10000000 		.word	.LC1
 221 0044 20000000 		.word	.LC2
 222              		.cfi_endproc
 223              	.LFE9:
 224              		.size	chVTResetI, .-chVTResetI
 225 0048 AFF30080 		.section	.text.chTimeIsWithin,"ax",%progbits
 225      AFF30080 
 226              		.align	2
ARM GAS  /tmp/ccwlB1oz.s 			page 5


 227              		.p2align 4,,15
 228              		.global	chTimeIsWithin
 229              		.thumb
 230              		.thumb_func
 231              		.type	chTimeIsWithin, %function
 232              	chTimeIsWithin:
 233              	.LFB10:
 234              		.loc 1 127 0
 235              		.cfi_startproc
 236              		@ args = 0, pretend = 0, frame = 0
 237              		@ frame_needed = 0, uses_anonymous_args = 0
 238              		@ link register save eliminated.
 239              	.LVL12:
 240              		.loc 1 129 0
 241 0000 0B4A     		ldr	r2, .L25
 242              		.loc 1 130 0
 243 0002 8142     		cmp	r1, r0
 244              		.loc 1 127 0
 245 0004 0346     		mov	r3, r0
 246              		.loc 1 129 0
 247 0006 D268     		ldr	r2, [r2, #12]
 248              	.LVL13:
 249              		.loc 1 130 0
 250 0008 09D8     		bhi	.L24
 251              		.loc 1 131 0 discriminator 2
 252 000a 8242     		cmp	r2, r0
 253 000c 34BF     		ite	cc
 254 000e 0023     		movcc	r3, #0
 255 0010 0123     		movcs	r3, #1
 256 0012 8A42     		cmp	r2, r1
 257 0014 2CBF     		ite	cs
 258 0016 1846     		movcs	r0, r3
 259 0018 43F00100 		orrcc	r0, r3, #1
 260              	.LVL14:
 261              		.loc 1 132 0 discriminator 2
 262 001c 7047     		bx	lr
 263              	.LVL15:
 264              	.L24:
 265              		.loc 1 130 0 discriminator 1
 266 001e 8A42     		cmp	r2, r1
 267 0020 2CBF     		ite	cs
 268 0022 0020     		movcs	r0, #0
 269              	.LVL16:
 270 0024 0120     		movcc	r0, #1
 271 0026 9A42     		cmp	r2, r3
 272 0028 38BF     		it	cc
 273 002a 0020     		movcc	r0, #0
 274 002c 7047     		bx	lr
 275              	.L26:
 276 002e 00BF     		.align	2
 277              	.L25:
 278 0030 00000000 		.word	.LANCHOR0
 279              		.cfi_endproc
 280              	.LFE10:
 281              		.size	chTimeIsWithin, .-chTimeIsWithin
 282              		.global	vtlist
 283 0034 AFF30080 		.section	.bss.vtlist,"aw",%nobits
ARM GAS  /tmp/ccwlB1oz.s 			page 6


 283      AFF30080 
 283      AFF30080 
 284              		.align	2
 285              		.set	.LANCHOR0,. + 0
 286              		.type	vtlist, %object
 287              		.size	vtlist, 16
 288              	vtlist:
 289 0000 00000000 		.space	16
 289      00000000 
 289      00000000 
 289      00000000 
 290              		.section	.rodata.str1.4,"aMS",%progbits,1
 291              		.align	2
 292              	.LC0:
 293 0000 22636856 		.ascii	"\"chVTSetI\"()\000"
 293      54536574 
 293      49222829 
 293      00
 294 000d 000000   		.space	3
 295              	.LC1:
 296 0010 22636856 		.ascii	"\"chVTResetI\"()\000"
 296      54526573 
 296      65744922 
 296      282900
 297 001f 00       		.space	1
 298              	.LC2:
 299 0020 63685654 		.ascii	"chVTResetI(), #1\000"
 299      52657365 
 299      74492829 
 299      2C202331 
 299      00
 300 0031 000000   		.text
 301              	.Letext0:
 302              		.file 2 "/opt/psas/x-tools/stm32f407/arm-psas-eabi/bin/../lib/gcc/arm-psas-eabi/4.7.2/../../../../
 303              		.file 3 "../../ChibiOS/os/ports/GCC/ARMCMx/chtypes.h"
 304              		.file 4 "../../ChibiOS/os/kernel/include/chvt.h"
 305              		.file 5 "../../ChibiOS/os/kernel/include/chdebug.h"
 306              		.section	.debug_info,"",%progbits
 307              	.Ldebug_info0:
 308 0000 E6020000 		.4byte	0x2e6
 309 0004 0200     		.2byte	0x2
 310 0006 00000000 		.4byte	.Ldebug_abbrev0
 311 000a 04       		.byte	0x4
 312 000b 01       		.uleb128 0x1
 313 000c 00000000 		.4byte	.LASF29
 314 0010 01       		.byte	0x1
 315 0011 79010000 		.4byte	.LASF30
 316 0015 15000000 		.4byte	.LASF31
 317 0019 00000000 		.4byte	.Ldebug_ranges0+0
 318 001d 00000000 		.4byte	0
 319 0021 00000000 		.4byte	0
 320 0025 00000000 		.4byte	.Ldebug_line0
 321 0029 02       		.uleb128 0x2
 322 002a 04       		.byte	0x4
 323 002b 05       		.byte	0x5
 324 002c 696E7400 		.ascii	"int\000"
 325 0030 03       		.uleb128 0x3
ARM GAS  /tmp/ccwlB1oz.s 			page 7


 326 0031 04       		.byte	0x4
 327 0032 07       		.byte	0x7
 328 0033 BA000000 		.4byte	.LASF0
 329 0037 03       		.uleb128 0x3
 330 0038 01       		.byte	0x1
 331 0039 06       		.byte	0x6
 332 003a 6D010000 		.4byte	.LASF1
 333 003e 03       		.uleb128 0x3
 334 003f 01       		.byte	0x1
 335 0040 08       		.byte	0x8
 336 0041 A3000000 		.4byte	.LASF2
 337 0045 03       		.uleb128 0x3
 338 0046 02       		.byte	0x2
 339 0047 05       		.byte	0x5
 340 0048 3A010000 		.4byte	.LASF3
 341 004c 03       		.uleb128 0x3
 342 004d 02       		.byte	0x2
 343 004e 07       		.byte	0x7
 344 004f 83000000 		.4byte	.LASF4
 345 0053 03       		.uleb128 0x3
 346 0054 04       		.byte	0x4
 347 0055 05       		.byte	0x5
 348 0056 64010000 		.4byte	.LASF5
 349 005a 04       		.uleb128 0x4
 350 005b 5B010000 		.4byte	.LASF9
 351 005f 02       		.byte	0x2
 352 0060 50       		.byte	0x50
 353 0061 65000000 		.4byte	0x65
 354 0065 03       		.uleb128 0x3
 355 0066 04       		.byte	0x4
 356 0067 07       		.byte	0x7
 357 0068 71000000 		.4byte	.LASF6
 358 006c 03       		.uleb128 0x3
 359 006d 08       		.byte	0x8
 360 006e 05       		.byte	0x5
 361 006f 06010000 		.4byte	.LASF7
 362 0073 03       		.uleb128 0x3
 363 0074 08       		.byte	0x8
 364 0075 07       		.byte	0x7
 365 0076 C7000000 		.4byte	.LASF8
 366 007a 04       		.uleb128 0x4
 367 007b 61000000 		.4byte	.LASF10
 368 007f 03       		.byte	0x3
 369 0080 24       		.byte	0x24
 370 0081 85000000 		.4byte	0x85
 371 0085 03       		.uleb128 0x3
 372 0086 01       		.byte	0x1
 373 0087 02       		.byte	0x2
 374 0088 B6010000 		.4byte	.LASF11
 375 008c 04       		.uleb128 0x4
 376 008d 40000000 		.4byte	.LASF12
 377 0091 03       		.byte	0x3
 378 0092 2E       		.byte	0x2e
 379 0093 5A000000 		.4byte	0x5a
 380 0097 05       		.uleb128 0x5
 381 0098 04       		.byte	0x4
 382 0099 03       		.uleb128 0x3
ARM GAS  /tmp/ccwlB1oz.s 			page 8


 383 009a 04       		.byte	0x4
 384 009b 07       		.byte	0x7
 385 009c F2000000 		.4byte	.LASF13
 386 00a0 04       		.uleb128 0x4
 387 00a1 68000000 		.4byte	.LASF14
 388 00a5 04       		.byte	0x4
 389 00a6 4E       		.byte	0x4e
 390 00a7 AB000000 		.4byte	0xab
 391 00ab 06       		.uleb128 0x6
 392 00ac 04       		.byte	0x4
 393 00ad B1000000 		.4byte	0xb1
 394 00b1 07       		.uleb128 0x7
 395 00b2 01       		.byte	0x1
 396 00b3 BD000000 		.4byte	0xbd
 397 00b7 08       		.uleb128 0x8
 398 00b8 97000000 		.4byte	0x97
 399 00bc 00       		.byte	0
 400 00bd 04       		.uleb128 0x4
 401 00be 96000000 		.4byte	.LASF15
 402 00c2 04       		.byte	0x4
 403 00c3 53       		.byte	0x53
 404 00c4 C8000000 		.4byte	0xc8
 405 00c8 09       		.uleb128 0x9
 406 00c9 96000000 		.4byte	.LASF15
 407 00cd 14       		.byte	0x14
 408 00ce 04       		.byte	0x4
 409 00cf 5A       		.byte	0x5a
 410 00d0 1B010000 		.4byte	0x11b
 411 00d4 0A       		.uleb128 0xa
 412 00d5 A3010000 		.4byte	.LASF16
 413 00d9 04       		.byte	0x4
 414 00da 5B       		.byte	0x5b
 415 00db 1B010000 		.4byte	0x11b
 416 00df 02       		.byte	0x2
 417 00e0 23       		.byte	0x23
 418 00e1 00       		.uleb128 0
 419 00e2 0A       		.uleb128 0xa
 420 00e3 53010000 		.4byte	.LASF17
 421 00e7 04       		.byte	0x4
 422 00e8 5D       		.byte	0x5d
 423 00e9 1B010000 		.4byte	0x11b
 424 00ed 02       		.byte	0x2
 425 00ee 23       		.byte	0x23
 426 00ef 04       		.uleb128 0x4
 427 00f0 0A       		.uleb128 0xa
 428 00f1 EA000000 		.4byte	.LASF18
 429 00f5 04       		.byte	0x4
 430 00f6 5F       		.byte	0x5f
 431 00f7 8C000000 		.4byte	0x8c
 432 00fb 02       		.byte	0x2
 433 00fc 23       		.byte	0x23
 434 00fd 08       		.uleb128 0x8
 435 00fe 0A       		.uleb128 0xa
 436 00ff 14010000 		.4byte	.LASF19
 437 0103 04       		.byte	0x4
 438 0104 60       		.byte	0x60
 439 0105 A0000000 		.4byte	0xa0
ARM GAS  /tmp/ccwlB1oz.s 			page 9


 440 0109 02       		.byte	0x2
 441 010a 23       		.byte	0x23
 442 010b 0C       		.uleb128 0xc
 443 010c 0A       		.uleb128 0xa
 444 010d 33010000 		.4byte	.LASF20
 445 0111 04       		.byte	0x4
 446 0112 62       		.byte	0x62
 447 0113 97000000 		.4byte	0x97
 448 0117 02       		.byte	0x2
 449 0118 23       		.byte	0x23
 450 0119 10       		.uleb128 0x10
 451 011a 00       		.byte	0
 452 011b 06       		.uleb128 0x6
 453 011c 04       		.byte	0x4
 454 011d BD000000 		.4byte	0xbd
 455 0121 0B       		.uleb128 0xb
 456 0122 10       		.byte	0x10
 457 0123 04       		.byte	0x4
 458 0124 6C       		.byte	0x6c
 459 0125 62010000 		.4byte	0x162
 460 0129 0A       		.uleb128 0xa
 461 012a A3010000 		.4byte	.LASF16
 462 012e 04       		.byte	0x4
 463 012f 6D       		.byte	0x6d
 464 0130 1B010000 		.4byte	0x11b
 465 0134 02       		.byte	0x2
 466 0135 23       		.byte	0x23
 467 0136 00       		.uleb128 0
 468 0137 0A       		.uleb128 0xa
 469 0138 53010000 		.4byte	.LASF17
 470 013c 04       		.byte	0x4
 471 013d 6F       		.byte	0x6f
 472 013e 1B010000 		.4byte	0x11b
 473 0142 02       		.byte	0x2
 474 0143 23       		.byte	0x23
 475 0144 04       		.uleb128 0x4
 476 0145 0A       		.uleb128 0xa
 477 0146 EA000000 		.4byte	.LASF18
 478 014a 04       		.byte	0x4
 479 014b 71       		.byte	0x71
 480 014c 8C000000 		.4byte	0x8c
 481 0150 02       		.byte	0x2
 482 0151 23       		.byte	0x23
 483 0152 08       		.uleb128 0x8
 484 0153 0A       		.uleb128 0xa
 485 0154 FB000000 		.4byte	.LASF21
 486 0158 04       		.byte	0x4
 487 0159 72       		.byte	0x72
 488 015a 62010000 		.4byte	0x162
 489 015e 02       		.byte	0x2
 490 015f 23       		.byte	0x23
 491 0160 0C       		.uleb128 0xc
 492 0161 00       		.byte	0
 493 0162 0C       		.uleb128 0xc
 494 0163 8C000000 		.4byte	0x8c
 495 0167 04       		.uleb128 0x4
 496 0168 9C010000 		.4byte	.LASF22
ARM GAS  /tmp/ccwlB1oz.s 			page 10


 497 016c 04       		.byte	0x4
 498 016d 73       		.byte	0x73
 499 016e 21010000 		.4byte	0x121
 500 0172 06       		.uleb128 0x6
 501 0173 04       		.byte	0x4
 502 0174 78010000 		.4byte	0x178
 503 0178 0D       		.uleb128 0xd
 504 0179 7D010000 		.4byte	0x17d
 505 017d 03       		.uleb128 0x3
 506 017e 01       		.byte	0x1
 507 017f 08       		.byte	0x8
 508 0180 23010000 		.4byte	.LASF23
 509 0184 0E       		.uleb128 0xe
 510 0185 01       		.byte	0x1
 511 0186 B1000000 		.4byte	.LASF32
 512 018a 01       		.byte	0x1
 513 018b 2B       		.byte	0x2b
 514 018c 01       		.byte	0x1
 515 018d 00000000 		.4byte	.LFB7
 516 0191 18000000 		.4byte	.LFE7
 517 0195 02       		.byte	0x2
 518 0196 7D       		.byte	0x7d
 519 0197 00       		.sleb128 0
 520 0198 01       		.byte	0x1
 521 0199 0F       		.uleb128 0xf
 522 019a 01       		.byte	0x1
 523 019b 0C000000 		.4byte	.LASF26
 524 019f 01       		.byte	0x1
 525 01a0 45       		.byte	0x45
 526 01a1 01       		.byte	0x1
 527 01a2 00000000 		.4byte	.LFB8
 528 01a6 5C000000 		.4byte	.LFE8
 529 01aa 00000000 		.4byte	.LLST0
 530 01ae 01       		.byte	0x1
 531 01af 19020000 		.4byte	0x219
 532 01b3 10       		.uleb128 0x10
 533 01b4 76747000 		.ascii	"vtp\000"
 534 01b8 01       		.byte	0x1
 535 01b9 45       		.byte	0x45
 536 01ba 1B010000 		.4byte	0x11b
 537 01be 20000000 		.4byte	.LLST1
 538 01c2 11       		.uleb128 0x11
 539 01c3 E5000000 		.4byte	.LASF24
 540 01c7 01       		.byte	0x1
 541 01c8 45       		.byte	0x45
 542 01c9 8C000000 		.4byte	0x8c
 543 01cd 3E000000 		.4byte	.LLST2
 544 01d1 11       		.uleb128 0x11
 545 01d2 1C010000 		.4byte	.LASF25
 546 01d6 01       		.byte	0x1
 547 01d7 45       		.byte	0x45
 548 01d8 A0000000 		.4byte	0xa0
 549 01dc 76000000 		.4byte	.LLST3
 550 01e0 10       		.uleb128 0x10
 551 01e1 70617200 		.ascii	"par\000"
 552 01e5 01       		.byte	0x1
 553 01e6 45       		.byte	0x45
ARM GAS  /tmp/ccwlB1oz.s 			page 11


 554 01e7 97000000 		.4byte	0x97
 555 01eb 94000000 		.4byte	.LLST4
 556 01ef 12       		.uleb128 0x12
 557 01f0 7000     		.ascii	"p\000"
 558 01f2 01       		.byte	0x1
 559 01f3 46       		.byte	0x46
 560 01f4 1B010000 		.4byte	0x11b
 561 01f8 B2000000 		.4byte	.LLST5
 562 01fc 13       		.uleb128 0x13
 563 01fd 0E000000 		.4byte	.LVL1
 564 0201 CF020000 		.4byte	0x2cf
 565 0205 14       		.uleb128 0x14
 566 0206 52000000 		.4byte	.LVL7
 567 020a D9020000 		.4byte	0x2d9
 568 020e 15       		.uleb128 0x15
 569 020f 01       		.byte	0x1
 570 0210 50       		.byte	0x50
 571 0211 05       		.byte	0x5
 572 0212 03       		.byte	0x3
 573 0213 00000000 		.4byte	.LC0
 574 0217 00       		.byte	0
 575 0218 00       		.byte	0
 576 0219 0F       		.uleb128 0xf
 577 021a 01       		.byte	0x1
 578 021b AB010000 		.4byte	.LASF27
 579 021f 01       		.byte	0x1
 580 0220 63       		.byte	0x63
 581 0221 01       		.byte	0x1
 582 0222 00000000 		.4byte	.LFB9
 583 0226 48000000 		.4byte	.LFE9
 584 022a D0000000 		.4byte	.LLST6
 585 022e 01       		.byte	0x1
 586 022f 76020000 		.4byte	0x276
 587 0233 10       		.uleb128 0x10
 588 0234 76747000 		.ascii	"vtp\000"
 589 0238 01       		.byte	0x1
 590 0239 63       		.byte	0x63
 591 023a 1B010000 		.4byte	0x11b
 592 023e F0000000 		.4byte	.LLST7
 593 0242 13       		.uleb128 0x13
 594 0243 08000000 		.4byte	.LVL9
 595 0247 CF020000 		.4byte	0x2cf
 596 024b 16       		.uleb128 0x16
 597 024c 32000000 		.4byte	.LVL10
 598 0250 D9020000 		.4byte	0x2d9
 599 0254 62020000 		.4byte	0x262
 600 0258 15       		.uleb128 0x15
 601 0259 01       		.byte	0x1
 602 025a 50       		.byte	0x50
 603 025b 05       		.byte	0x5
 604 025c 03       		.byte	0x3
 605 025d 10000000 		.4byte	.LC1
 606 0261 00       		.byte	0
 607 0262 14       		.uleb128 0x14
 608 0263 3A000000 		.4byte	.LVL11
 609 0267 D9020000 		.4byte	0x2d9
 610 026b 15       		.uleb128 0x15
ARM GAS  /tmp/ccwlB1oz.s 			page 12


 611 026c 01       		.byte	0x1
 612 026d 50       		.byte	0x50
 613 026e 05       		.byte	0x5
 614 026f 03       		.byte	0x3
 615 0270 20000000 		.4byte	.LC2
 616 0274 00       		.byte	0
 617 0275 00       		.byte	0
 618 0276 17       		.uleb128 0x17
 619 0277 01       		.byte	0x1
 620 0278 44010000 		.4byte	.LASF33
 621 027c 01       		.byte	0x1
 622 027d 7F       		.byte	0x7f
 623 027e 01       		.byte	0x1
 624 027f 7A000000 		.4byte	0x7a
 625 0283 00000000 		.4byte	.LFB10
 626 0287 34000000 		.4byte	.LFE10
 627 028b 02       		.byte	0x2
 628 028c 7D       		.byte	0x7d
 629 028d 00       		.sleb128 0
 630 028e 01       		.byte	0x1
 631 028f BD020000 		.4byte	0x2bd
 632 0293 11       		.uleb128 0x11
 633 0294 4A000000 		.4byte	.LASF28
 634 0298 01       		.byte	0x1
 635 0299 7F       		.byte	0x7f
 636 029a 8C000000 		.4byte	0x8c
 637 029e 0E010000 		.4byte	.LLST8
 638 02a2 18       		.uleb128 0x18
 639 02a3 656E6400 		.ascii	"end\000"
 640 02a7 01       		.byte	0x1
 641 02a8 7F       		.byte	0x7f
 642 02a9 8C000000 		.4byte	0x8c
 643 02ad 01       		.byte	0x1
 644 02ae 51       		.byte	0x51
 645 02af 19       		.uleb128 0x19
 646 02b0 E5000000 		.4byte	.LASF24
 647 02b4 01       		.byte	0x1
 648 02b5 81       		.byte	0x81
 649 02b6 8C000000 		.4byte	0x8c
 650 02ba 01       		.byte	0x1
 651 02bb 52       		.byte	0x52
 652 02bc 00       		.byte	0
 653 02bd 1A       		.uleb128 0x1a
 654 02be DE000000 		.4byte	.LASF34
 655 02c2 01       		.byte	0x1
 656 02c3 23       		.byte	0x23
 657 02c4 67010000 		.4byte	0x167
 658 02c8 01       		.byte	0x1
 659 02c9 05       		.byte	0x5
 660 02ca 03       		.byte	0x3
 661 02cb 00000000 		.4byte	vtlist
 662 02cf 1B       		.uleb128 0x1b
 663 02d0 01       		.byte	0x1
 664 02d1 50000000 		.4byte	.LASF35
 665 02d5 05       		.byte	0x5
 666 02d6 E6       		.byte	0xe6
 667 02d7 01       		.byte	0x1
ARM GAS  /tmp/ccwlB1oz.s 			page 13


 668 02d8 01       		.byte	0x1
 669 02d9 1C       		.uleb128 0x1c
 670 02da 01       		.byte	0x1
 671 02db 28010000 		.4byte	.LASF36
 672 02df 05       		.byte	0x5
 673 02e0 EF       		.byte	0xef
 674 02e1 01       		.byte	0x1
 675 02e2 01       		.byte	0x1
 676 02e3 08       		.uleb128 0x8
 677 02e4 72010000 		.4byte	0x172
 678 02e8 00       		.byte	0
 679 02e9 00       		.byte	0
 680              		.section	.debug_abbrev,"",%progbits
 681              	.Ldebug_abbrev0:
 682 0000 01       		.uleb128 0x1
 683 0001 11       		.uleb128 0x11
 684 0002 01       		.byte	0x1
 685 0003 25       		.uleb128 0x25
 686 0004 0E       		.uleb128 0xe
 687 0005 13       		.uleb128 0x13
 688 0006 0B       		.uleb128 0xb
 689 0007 03       		.uleb128 0x3
 690 0008 0E       		.uleb128 0xe
 691 0009 1B       		.uleb128 0x1b
 692 000a 0E       		.uleb128 0xe
 693 000b 55       		.uleb128 0x55
 694 000c 06       		.uleb128 0x6
 695 000d 11       		.uleb128 0x11
 696 000e 01       		.uleb128 0x1
 697 000f 52       		.uleb128 0x52
 698 0010 01       		.uleb128 0x1
 699 0011 10       		.uleb128 0x10
 700 0012 06       		.uleb128 0x6
 701 0013 00       		.byte	0
 702 0014 00       		.byte	0
 703 0015 02       		.uleb128 0x2
 704 0016 24       		.uleb128 0x24
 705 0017 00       		.byte	0
 706 0018 0B       		.uleb128 0xb
 707 0019 0B       		.uleb128 0xb
 708 001a 3E       		.uleb128 0x3e
 709 001b 0B       		.uleb128 0xb
 710 001c 03       		.uleb128 0x3
 711 001d 08       		.uleb128 0x8
 712 001e 00       		.byte	0
 713 001f 00       		.byte	0
 714 0020 03       		.uleb128 0x3
 715 0021 24       		.uleb128 0x24
 716 0022 00       		.byte	0
 717 0023 0B       		.uleb128 0xb
 718 0024 0B       		.uleb128 0xb
 719 0025 3E       		.uleb128 0x3e
 720 0026 0B       		.uleb128 0xb
 721 0027 03       		.uleb128 0x3
 722 0028 0E       		.uleb128 0xe
 723 0029 00       		.byte	0
 724 002a 00       		.byte	0
ARM GAS  /tmp/ccwlB1oz.s 			page 14


 725 002b 04       		.uleb128 0x4
 726 002c 16       		.uleb128 0x16
 727 002d 00       		.byte	0
 728 002e 03       		.uleb128 0x3
 729 002f 0E       		.uleb128 0xe
 730 0030 3A       		.uleb128 0x3a
 731 0031 0B       		.uleb128 0xb
 732 0032 3B       		.uleb128 0x3b
 733 0033 0B       		.uleb128 0xb
 734 0034 49       		.uleb128 0x49
 735 0035 13       		.uleb128 0x13
 736 0036 00       		.byte	0
 737 0037 00       		.byte	0
 738 0038 05       		.uleb128 0x5
 739 0039 0F       		.uleb128 0xf
 740 003a 00       		.byte	0
 741 003b 0B       		.uleb128 0xb
 742 003c 0B       		.uleb128 0xb
 743 003d 00       		.byte	0
 744 003e 00       		.byte	0
 745 003f 06       		.uleb128 0x6
 746 0040 0F       		.uleb128 0xf
 747 0041 00       		.byte	0
 748 0042 0B       		.uleb128 0xb
 749 0043 0B       		.uleb128 0xb
 750 0044 49       		.uleb128 0x49
 751 0045 13       		.uleb128 0x13
 752 0046 00       		.byte	0
 753 0047 00       		.byte	0
 754 0048 07       		.uleb128 0x7
 755 0049 15       		.uleb128 0x15
 756 004a 01       		.byte	0x1
 757 004b 27       		.uleb128 0x27
 758 004c 0C       		.uleb128 0xc
 759 004d 01       		.uleb128 0x1
 760 004e 13       		.uleb128 0x13
 761 004f 00       		.byte	0
 762 0050 00       		.byte	0
 763 0051 08       		.uleb128 0x8
 764 0052 05       		.uleb128 0x5
 765 0053 00       		.byte	0
 766 0054 49       		.uleb128 0x49
 767 0055 13       		.uleb128 0x13
 768 0056 00       		.byte	0
 769 0057 00       		.byte	0
 770 0058 09       		.uleb128 0x9
 771 0059 13       		.uleb128 0x13
 772 005a 01       		.byte	0x1
 773 005b 03       		.uleb128 0x3
 774 005c 0E       		.uleb128 0xe
 775 005d 0B       		.uleb128 0xb
 776 005e 0B       		.uleb128 0xb
 777 005f 3A       		.uleb128 0x3a
 778 0060 0B       		.uleb128 0xb
 779 0061 3B       		.uleb128 0x3b
 780 0062 0B       		.uleb128 0xb
 781 0063 01       		.uleb128 0x1
ARM GAS  /tmp/ccwlB1oz.s 			page 15


 782 0064 13       		.uleb128 0x13
 783 0065 00       		.byte	0
 784 0066 00       		.byte	0
 785 0067 0A       		.uleb128 0xa
 786 0068 0D       		.uleb128 0xd
 787 0069 00       		.byte	0
 788 006a 03       		.uleb128 0x3
 789 006b 0E       		.uleb128 0xe
 790 006c 3A       		.uleb128 0x3a
 791 006d 0B       		.uleb128 0xb
 792 006e 3B       		.uleb128 0x3b
 793 006f 0B       		.uleb128 0xb
 794 0070 49       		.uleb128 0x49
 795 0071 13       		.uleb128 0x13
 796 0072 38       		.uleb128 0x38
 797 0073 0A       		.uleb128 0xa
 798 0074 00       		.byte	0
 799 0075 00       		.byte	0
 800 0076 0B       		.uleb128 0xb
 801 0077 13       		.uleb128 0x13
 802 0078 01       		.byte	0x1
 803 0079 0B       		.uleb128 0xb
 804 007a 0B       		.uleb128 0xb
 805 007b 3A       		.uleb128 0x3a
 806 007c 0B       		.uleb128 0xb
 807 007d 3B       		.uleb128 0x3b
 808 007e 0B       		.uleb128 0xb
 809 007f 01       		.uleb128 0x1
 810 0080 13       		.uleb128 0x13
 811 0081 00       		.byte	0
 812 0082 00       		.byte	0
 813 0083 0C       		.uleb128 0xc
 814 0084 35       		.uleb128 0x35
 815 0085 00       		.byte	0
 816 0086 49       		.uleb128 0x49
 817 0087 13       		.uleb128 0x13
 818 0088 00       		.byte	0
 819 0089 00       		.byte	0
 820 008a 0D       		.uleb128 0xd
 821 008b 26       		.uleb128 0x26
 822 008c 00       		.byte	0
 823 008d 49       		.uleb128 0x49
 824 008e 13       		.uleb128 0x13
 825 008f 00       		.byte	0
 826 0090 00       		.byte	0
 827 0091 0E       		.uleb128 0xe
 828 0092 2E       		.uleb128 0x2e
 829 0093 00       		.byte	0
 830 0094 3F       		.uleb128 0x3f
 831 0095 0C       		.uleb128 0xc
 832 0096 03       		.uleb128 0x3
 833 0097 0E       		.uleb128 0xe
 834 0098 3A       		.uleb128 0x3a
 835 0099 0B       		.uleb128 0xb
 836 009a 3B       		.uleb128 0x3b
 837 009b 0B       		.uleb128 0xb
 838 009c 27       		.uleb128 0x27
ARM GAS  /tmp/ccwlB1oz.s 			page 16


 839 009d 0C       		.uleb128 0xc
 840 009e 11       		.uleb128 0x11
 841 009f 01       		.uleb128 0x1
 842 00a0 12       		.uleb128 0x12
 843 00a1 01       		.uleb128 0x1
 844 00a2 40       		.uleb128 0x40
 845 00a3 0A       		.uleb128 0xa
 846 00a4 9742     		.uleb128 0x2117
 847 00a6 0C       		.uleb128 0xc
 848 00a7 00       		.byte	0
 849 00a8 00       		.byte	0
 850 00a9 0F       		.uleb128 0xf
 851 00aa 2E       		.uleb128 0x2e
 852 00ab 01       		.byte	0x1
 853 00ac 3F       		.uleb128 0x3f
 854 00ad 0C       		.uleb128 0xc
 855 00ae 03       		.uleb128 0x3
 856 00af 0E       		.uleb128 0xe
 857 00b0 3A       		.uleb128 0x3a
 858 00b1 0B       		.uleb128 0xb
 859 00b2 3B       		.uleb128 0x3b
 860 00b3 0B       		.uleb128 0xb
 861 00b4 27       		.uleb128 0x27
 862 00b5 0C       		.uleb128 0xc
 863 00b6 11       		.uleb128 0x11
 864 00b7 01       		.uleb128 0x1
 865 00b8 12       		.uleb128 0x12
 866 00b9 01       		.uleb128 0x1
 867 00ba 40       		.uleb128 0x40
 868 00bb 06       		.uleb128 0x6
 869 00bc 9742     		.uleb128 0x2117
 870 00be 0C       		.uleb128 0xc
 871 00bf 01       		.uleb128 0x1
 872 00c0 13       		.uleb128 0x13
 873 00c1 00       		.byte	0
 874 00c2 00       		.byte	0
 875 00c3 10       		.uleb128 0x10
 876 00c4 05       		.uleb128 0x5
 877 00c5 00       		.byte	0
 878 00c6 03       		.uleb128 0x3
 879 00c7 08       		.uleb128 0x8
 880 00c8 3A       		.uleb128 0x3a
 881 00c9 0B       		.uleb128 0xb
 882 00ca 3B       		.uleb128 0x3b
 883 00cb 0B       		.uleb128 0xb
 884 00cc 49       		.uleb128 0x49
 885 00cd 13       		.uleb128 0x13
 886 00ce 02       		.uleb128 0x2
 887 00cf 06       		.uleb128 0x6
 888 00d0 00       		.byte	0
 889 00d1 00       		.byte	0
 890 00d2 11       		.uleb128 0x11
 891 00d3 05       		.uleb128 0x5
 892 00d4 00       		.byte	0
 893 00d5 03       		.uleb128 0x3
 894 00d6 0E       		.uleb128 0xe
 895 00d7 3A       		.uleb128 0x3a
ARM GAS  /tmp/ccwlB1oz.s 			page 17


 896 00d8 0B       		.uleb128 0xb
 897 00d9 3B       		.uleb128 0x3b
 898 00da 0B       		.uleb128 0xb
 899 00db 49       		.uleb128 0x49
 900 00dc 13       		.uleb128 0x13
 901 00dd 02       		.uleb128 0x2
 902 00de 06       		.uleb128 0x6
 903 00df 00       		.byte	0
 904 00e0 00       		.byte	0
 905 00e1 12       		.uleb128 0x12
 906 00e2 34       		.uleb128 0x34
 907 00e3 00       		.byte	0
 908 00e4 03       		.uleb128 0x3
 909 00e5 08       		.uleb128 0x8
 910 00e6 3A       		.uleb128 0x3a
 911 00e7 0B       		.uleb128 0xb
 912 00e8 3B       		.uleb128 0x3b
 913 00e9 0B       		.uleb128 0xb
 914 00ea 49       		.uleb128 0x49
 915 00eb 13       		.uleb128 0x13
 916 00ec 02       		.uleb128 0x2
 917 00ed 06       		.uleb128 0x6
 918 00ee 00       		.byte	0
 919 00ef 00       		.byte	0
 920 00f0 13       		.uleb128 0x13
 921 00f1 898201   		.uleb128 0x4109
 922 00f4 00       		.byte	0
 923 00f5 11       		.uleb128 0x11
 924 00f6 01       		.uleb128 0x1
 925 00f7 31       		.uleb128 0x31
 926 00f8 13       		.uleb128 0x13
 927 00f9 00       		.byte	0
 928 00fa 00       		.byte	0
 929 00fb 14       		.uleb128 0x14
 930 00fc 898201   		.uleb128 0x4109
 931 00ff 01       		.byte	0x1
 932 0100 11       		.uleb128 0x11
 933 0101 01       		.uleb128 0x1
 934 0102 31       		.uleb128 0x31
 935 0103 13       		.uleb128 0x13
 936 0104 00       		.byte	0
 937 0105 00       		.byte	0
 938 0106 15       		.uleb128 0x15
 939 0107 8A8201   		.uleb128 0x410a
 940 010a 00       		.byte	0
 941 010b 02       		.uleb128 0x2
 942 010c 0A       		.uleb128 0xa
 943 010d 9142     		.uleb128 0x2111
 944 010f 0A       		.uleb128 0xa
 945 0110 00       		.byte	0
 946 0111 00       		.byte	0
 947 0112 16       		.uleb128 0x16
 948 0113 898201   		.uleb128 0x4109
 949 0116 01       		.byte	0x1
 950 0117 11       		.uleb128 0x11
 951 0118 01       		.uleb128 0x1
 952 0119 31       		.uleb128 0x31
ARM GAS  /tmp/ccwlB1oz.s 			page 18


 953 011a 13       		.uleb128 0x13
 954 011b 01       		.uleb128 0x1
 955 011c 13       		.uleb128 0x13
 956 011d 00       		.byte	0
 957 011e 00       		.byte	0
 958 011f 17       		.uleb128 0x17
 959 0120 2E       		.uleb128 0x2e
 960 0121 01       		.byte	0x1
 961 0122 3F       		.uleb128 0x3f
 962 0123 0C       		.uleb128 0xc
 963 0124 03       		.uleb128 0x3
 964 0125 0E       		.uleb128 0xe
 965 0126 3A       		.uleb128 0x3a
 966 0127 0B       		.uleb128 0xb
 967 0128 3B       		.uleb128 0x3b
 968 0129 0B       		.uleb128 0xb
 969 012a 27       		.uleb128 0x27
 970 012b 0C       		.uleb128 0xc
 971 012c 49       		.uleb128 0x49
 972 012d 13       		.uleb128 0x13
 973 012e 11       		.uleb128 0x11
 974 012f 01       		.uleb128 0x1
 975 0130 12       		.uleb128 0x12
 976 0131 01       		.uleb128 0x1
 977 0132 40       		.uleb128 0x40
 978 0133 0A       		.uleb128 0xa
 979 0134 9742     		.uleb128 0x2117
 980 0136 0C       		.uleb128 0xc
 981 0137 01       		.uleb128 0x1
 982 0138 13       		.uleb128 0x13
 983 0139 00       		.byte	0
 984 013a 00       		.byte	0
 985 013b 18       		.uleb128 0x18
 986 013c 05       		.uleb128 0x5
 987 013d 00       		.byte	0
 988 013e 03       		.uleb128 0x3
 989 013f 08       		.uleb128 0x8
 990 0140 3A       		.uleb128 0x3a
 991 0141 0B       		.uleb128 0xb
 992 0142 3B       		.uleb128 0x3b
 993 0143 0B       		.uleb128 0xb
 994 0144 49       		.uleb128 0x49
 995 0145 13       		.uleb128 0x13
 996 0146 02       		.uleb128 0x2
 997 0147 0A       		.uleb128 0xa
 998 0148 00       		.byte	0
 999 0149 00       		.byte	0
 1000 014a 19       		.uleb128 0x19
 1001 014b 34       		.uleb128 0x34
 1002 014c 00       		.byte	0
 1003 014d 03       		.uleb128 0x3
 1004 014e 0E       		.uleb128 0xe
 1005 014f 3A       		.uleb128 0x3a
 1006 0150 0B       		.uleb128 0xb
 1007 0151 3B       		.uleb128 0x3b
 1008 0152 0B       		.uleb128 0xb
 1009 0153 49       		.uleb128 0x49
ARM GAS  /tmp/ccwlB1oz.s 			page 19


 1010 0154 13       		.uleb128 0x13
 1011 0155 02       		.uleb128 0x2
 1012 0156 0A       		.uleb128 0xa
 1013 0157 00       		.byte	0
 1014 0158 00       		.byte	0
 1015 0159 1A       		.uleb128 0x1a
 1016 015a 34       		.uleb128 0x34
 1017 015b 00       		.byte	0
 1018 015c 03       		.uleb128 0x3
 1019 015d 0E       		.uleb128 0xe
 1020 015e 3A       		.uleb128 0x3a
 1021 015f 0B       		.uleb128 0xb
 1022 0160 3B       		.uleb128 0x3b
 1023 0161 0B       		.uleb128 0xb
 1024 0162 49       		.uleb128 0x49
 1025 0163 13       		.uleb128 0x13
 1026 0164 3F       		.uleb128 0x3f
 1027 0165 0C       		.uleb128 0xc
 1028 0166 02       		.uleb128 0x2
 1029 0167 0A       		.uleb128 0xa
 1030 0168 00       		.byte	0
 1031 0169 00       		.byte	0
 1032 016a 1B       		.uleb128 0x1b
 1033 016b 2E       		.uleb128 0x2e
 1034 016c 00       		.byte	0
 1035 016d 3F       		.uleb128 0x3f
 1036 016e 0C       		.uleb128 0xc
 1037 016f 03       		.uleb128 0x3
 1038 0170 0E       		.uleb128 0xe
 1039 0171 3A       		.uleb128 0x3a
 1040 0172 0B       		.uleb128 0xb
 1041 0173 3B       		.uleb128 0x3b
 1042 0174 0B       		.uleb128 0xb
 1043 0175 27       		.uleb128 0x27
 1044 0176 0C       		.uleb128 0xc
 1045 0177 3C       		.uleb128 0x3c
 1046 0178 0C       		.uleb128 0xc
 1047 0179 00       		.byte	0
 1048 017a 00       		.byte	0
 1049 017b 1C       		.uleb128 0x1c
 1050 017c 2E       		.uleb128 0x2e
 1051 017d 01       		.byte	0x1
 1052 017e 3F       		.uleb128 0x3f
 1053 017f 0C       		.uleb128 0xc
 1054 0180 03       		.uleb128 0x3
 1055 0181 0E       		.uleb128 0xe
 1056 0182 3A       		.uleb128 0x3a
 1057 0183 0B       		.uleb128 0xb
 1058 0184 3B       		.uleb128 0x3b
 1059 0185 0B       		.uleb128 0xb
 1060 0186 27       		.uleb128 0x27
 1061 0187 0C       		.uleb128 0xc
 1062 0188 3C       		.uleb128 0x3c
 1063 0189 0C       		.uleb128 0xc
 1064 018a 00       		.byte	0
 1065 018b 00       		.byte	0
 1066 018c 00       		.byte	0
ARM GAS  /tmp/ccwlB1oz.s 			page 20


 1067              		.section	.debug_loc,"",%progbits
 1068              	.Ldebug_loc0:
 1069              	.LLST0:
 1070 0000 00000000 		.4byte	.LFB8
 1071 0004 02000000 		.4byte	.LCFI0
 1072 0008 0200     		.2byte	0x2
 1073 000a 7D       		.byte	0x7d
 1074 000b 00       		.sleb128 0
 1075 000c 02000000 		.4byte	.LCFI0
 1076 0010 5C000000 		.4byte	.LFE8
 1077 0014 0200     		.2byte	0x2
 1078 0016 7D       		.byte	0x7d
 1079 0017 18       		.sleb128 24
 1080 0018 00000000 		.4byte	0
 1081 001c 00000000 		.4byte	0
 1082              	.LLST1:
 1083 0020 00000000 		.4byte	.LVL0
 1084 0024 0D000000 		.4byte	.LVL1-1
 1085 0028 0100     		.2byte	0x1
 1086 002a 50       		.byte	0x50
 1087 002b 0D000000 		.4byte	.LVL1-1
 1088 002f 5C000000 		.4byte	.LFE8
 1089 0033 0100     		.2byte	0x1
 1090 0035 55       		.byte	0x55
 1091 0036 00000000 		.4byte	0
 1092 003a 00000000 		.4byte	0
 1093              	.LLST2:
 1094 003e 00000000 		.4byte	.LVL0
 1095 0042 0D000000 		.4byte	.LVL1-1
 1096 0046 0100     		.2byte	0x1
 1097 0048 51       		.byte	0x51
 1098 0049 0D000000 		.4byte	.LVL1-1
 1099 004d 48000000 		.4byte	.LVL5
 1100 0051 0100     		.2byte	0x1
 1101 0053 54       		.byte	0x54
 1102 0054 48000000 		.4byte	.LVL5
 1103 0058 4C000000 		.4byte	.LVL6
 1104 005c 0500     		.2byte	0x5
 1105 005e 73       		.byte	0x73
 1106 005f 04       		.sleb128 4
 1107 0060 06       		.byte	0x6
 1108 0061 23       		.byte	0x23
 1109 0062 08       		.uleb128 0x8
 1110 0063 4C000000 		.4byte	.LVL6
 1111 0067 5C000000 		.4byte	.LFE8
 1112 006b 0100     		.2byte	0x1
 1113 006d 54       		.byte	0x54
 1114 006e 00000000 		.4byte	0
 1115 0072 00000000 		.4byte	0
 1116              	.LLST3:
 1117 0076 00000000 		.4byte	.LVL0
 1118 007a 0D000000 		.4byte	.LVL1-1
 1119 007e 0100     		.2byte	0x1
 1120 0080 52       		.byte	0x52
 1121 0081 0D000000 		.4byte	.LVL1-1
 1122 0085 5C000000 		.4byte	.LFE8
 1123 0089 0100     		.2byte	0x1
ARM GAS  /tmp/ccwlB1oz.s 			page 21


 1124 008b 56       		.byte	0x56
 1125 008c 00000000 		.4byte	0
 1126 0090 00000000 		.4byte	0
 1127              	.LLST4:
 1128 0094 00000000 		.4byte	.LVL0
 1129 0098 0D000000 		.4byte	.LVL1-1
 1130 009c 0100     		.2byte	0x1
 1131 009e 53       		.byte	0x53
 1132 009f 0D000000 		.4byte	.LVL1-1
 1133 00a3 5C000000 		.4byte	.LFE8
 1134 00a7 0100     		.2byte	0x1
 1135 00a9 57       		.byte	0x57
 1136 00aa 00000000 		.4byte	0
 1137 00ae 00000000 		.4byte	0
 1138              	.LLST5:
 1139 00b2 1E000000 		.4byte	.LVL2
 1140 00b6 28000000 		.4byte	.LVL3
 1141 00ba 0100     		.2byte	0x1
 1142 00bc 53       		.byte	0x53
 1143 00bd 2A000000 		.4byte	.LVL4
 1144 00c1 4C000000 		.4byte	.LVL6
 1145 00c5 0100     		.2byte	0x1
 1146 00c7 53       		.byte	0x53
 1147 00c8 00000000 		.4byte	0
 1148 00cc 00000000 		.4byte	0
 1149              	.LLST6:
 1150 00d0 00000000 		.4byte	.LFB9
 1151 00d4 02000000 		.4byte	.LCFI1
 1152 00d8 0200     		.2byte	0x2
 1153 00da 7D       		.byte	0x7d
 1154 00db 00       		.sleb128 0
 1155 00dc 02000000 		.4byte	.LCFI1
 1156 00e0 48000000 		.4byte	.LFE9
 1157 00e4 0200     		.2byte	0x2
 1158 00e6 7D       		.byte	0x7d
 1159 00e7 08       		.sleb128 8
 1160 00e8 00000000 		.4byte	0
 1161 00ec 00000000 		.4byte	0
 1162              	.LLST7:
 1163 00f0 00000000 		.4byte	.LVL8
 1164 00f4 07000000 		.4byte	.LVL9-1
 1165 00f8 0100     		.2byte	0x1
 1166 00fa 50       		.byte	0x50
 1167 00fb 07000000 		.4byte	.LVL9-1
 1168 00ff 48000000 		.4byte	.LFE9
 1169 0103 0100     		.2byte	0x1
 1170 0105 54       		.byte	0x54
 1171 0106 00000000 		.4byte	0
 1172 010a 00000000 		.4byte	0
 1173              	.LLST8:
 1174 010e 00000000 		.4byte	.LVL12
 1175 0112 1C000000 		.4byte	.LVL14
 1176 0116 0100     		.2byte	0x1
 1177 0118 50       		.byte	0x50
 1178 0119 1C000000 		.4byte	.LVL14
 1179 011d 1E000000 		.4byte	.LVL15
 1180 0121 0400     		.2byte	0x4
ARM GAS  /tmp/ccwlB1oz.s 			page 22


 1181 0123 F3       		.byte	0xf3
 1182 0124 01       		.uleb128 0x1
 1183 0125 50       		.byte	0x50
 1184 0126 9F       		.byte	0x9f
 1185 0127 1E000000 		.4byte	.LVL15
 1186 012b 24000000 		.4byte	.LVL16
 1187 012f 0100     		.2byte	0x1
 1188 0131 50       		.byte	0x50
 1189 0132 24000000 		.4byte	.LVL16
 1190 0136 34000000 		.4byte	.LFE10
 1191 013a 0100     		.2byte	0x1
 1192 013c 53       		.byte	0x53
 1193 013d 00000000 		.4byte	0
 1194 0141 00000000 		.4byte	0
 1195              		.section	.debug_aranges,"",%progbits
 1196 0000 34000000 		.4byte	0x34
 1197 0004 0200     		.2byte	0x2
 1198 0006 00000000 		.4byte	.Ldebug_info0
 1199 000a 04       		.byte	0x4
 1200 000b 00       		.byte	0
 1201 000c 0000     		.2byte	0
 1202 000e 0000     		.2byte	0
 1203 0010 00000000 		.4byte	.LFB7
 1204 0014 18000000 		.4byte	.LFE7-.LFB7
 1205 0018 00000000 		.4byte	.LFB8
 1206 001c 5C000000 		.4byte	.LFE8-.LFB8
 1207 0020 00000000 		.4byte	.LFB9
 1208 0024 48000000 		.4byte	.LFE9-.LFB9
 1209 0028 00000000 		.4byte	.LFB10
 1210 002c 34000000 		.4byte	.LFE10-.LFB10
 1211 0030 00000000 		.4byte	0
 1212 0034 00000000 		.4byte	0
 1213              		.section	.debug_ranges,"",%progbits
 1214              	.Ldebug_ranges0:
 1215 0000 00000000 		.4byte	.LFB7
 1216 0004 18000000 		.4byte	.LFE7
 1217 0008 00000000 		.4byte	.LFB8
 1218 000c 5C000000 		.4byte	.LFE8
 1219 0010 00000000 		.4byte	.LFB9
 1220 0014 48000000 		.4byte	.LFE9
 1221 0018 00000000 		.4byte	.LFB10
 1222 001c 34000000 		.4byte	.LFE10
 1223 0020 00000000 		.4byte	0
 1224 0024 00000000 		.4byte	0
 1225              		.section	.debug_line,"",%progbits
 1226              	.Ldebug_line0:
 1227 0000 AE010000 		.section	.debug_str,"MS",%progbits,1
 1227      02001A01 
 1227      00000201 
 1227      FB0E0D00 
 1227      01010101 
 1228              	.LASF29:
 1229 0000 474E5520 		.ascii	"GNU C 4.7.2\000"
 1229      4320342E 
 1229      372E3200 
 1230              	.LASF26:
 1231 000c 63685654 		.ascii	"chVTSetI\000"
ARM GAS  /tmp/ccwlB1oz.s 			page 23


 1231      53657449 
 1231      00
 1232              	.LASF31:
 1233 0015 2F686F6D 		.ascii	"/home/rob/Projects/stm32/src/rocket_tracks\000"
 1233      652F726F 
 1233      622F5072 
 1233      6F6A6563 
 1233      74732F73 
 1234              	.LASF12:
 1235 0040 73797374 		.ascii	"systime_t\000"
 1235      696D655F 
 1235      7400
 1236              	.LASF28:
 1237 004a 73746172 		.ascii	"start\000"
 1237      7400
 1238              	.LASF35:
 1239 0050 63684462 		.ascii	"chDbgCheckClassI\000"
 1239      67436865 
 1239      636B436C 
 1239      61737349 
 1239      00
 1240              	.LASF10:
 1241 0061 626F6F6C 		.ascii	"bool_t\000"
 1241      5F7400
 1242              	.LASF14:
 1243 0068 76746675 		.ascii	"vtfunc_t\000"
 1243      6E635F74 
 1243      00
 1244              	.LASF6:
 1245 0071 6C6F6E67 		.ascii	"long unsigned int\000"
 1245      20756E73 
 1245      69676E65 
 1245      6420696E 
 1245      7400
 1246              	.LASF4:
 1247 0083 73686F72 		.ascii	"short unsigned int\000"
 1247      7420756E 
 1247      7369676E 
 1247      65642069 
 1247      6E7400
 1248              	.LASF15:
 1249 0096 56697274 		.ascii	"VirtualTimer\000"
 1249      75616C54 
 1249      696D6572 
 1249      00
 1250              	.LASF2:
 1251 00a3 756E7369 		.ascii	"unsigned char\000"
 1251      676E6564 
 1251      20636861 
 1251      7200
 1252              	.LASF32:
 1253 00b1 5F76745F 		.ascii	"_vt_init\000"
 1253      696E6974 
 1253      00
 1254              	.LASF0:
 1255 00ba 756E7369 		.ascii	"unsigned int\000"
 1255      676E6564 
ARM GAS  /tmp/ccwlB1oz.s 			page 24


 1255      20696E74 
 1255      00
 1256              	.LASF8:
 1257 00c7 6C6F6E67 		.ascii	"long long unsigned int\000"
 1257      206C6F6E 
 1257      6720756E 
 1257      7369676E 
 1257      65642069 
 1258              	.LASF34:
 1259 00de 76746C69 		.ascii	"vtlist\000"
 1259      737400
 1260              	.LASF24:
 1261 00e5 74696D65 		.ascii	"time\000"
 1261      00
 1262              	.LASF18:
 1263 00ea 76745F74 		.ascii	"vt_time\000"
 1263      696D6500 
 1264              	.LASF13:
 1265 00f2 73697A65 		.ascii	"sizetype\000"
 1265      74797065 
 1265      00
 1266              	.LASF21:
 1267 00fb 76745F73 		.ascii	"vt_systime\000"
 1267      79737469 
 1267      6D6500
 1268              	.LASF7:
 1269 0106 6C6F6E67 		.ascii	"long long int\000"
 1269      206C6F6E 
 1269      6720696E 
 1269      7400
 1270              	.LASF19:
 1271 0114 76745F66 		.ascii	"vt_func\000"
 1271      756E6300 
 1272              	.LASF25:
 1273 011c 76746675 		.ascii	"vtfunc\000"
 1273      6E6300
 1274              	.LASF23:
 1275 0123 63686172 		.ascii	"char\000"
 1275      00
 1276              	.LASF36:
 1277 0128 63684462 		.ascii	"chDbgPanic\000"
 1277      6750616E 
 1277      696300
 1278              	.LASF20:
 1279 0133 76745F70 		.ascii	"vt_par\000"
 1279      617200
 1280              	.LASF3:
 1281 013a 73686F72 		.ascii	"short int\000"
 1281      7420696E 
 1281      7400
 1282              	.LASF33:
 1283 0144 63685469 		.ascii	"chTimeIsWithin\000"
 1283      6D654973 
 1283      57697468 
 1283      696E00
 1284              	.LASF17:
 1285 0153 76745F70 		.ascii	"vt_prev\000"
ARM GAS  /tmp/ccwlB1oz.s 			page 25


 1285      72657600 
 1286              	.LASF9:
 1287 015b 75696E74 		.ascii	"uint32_t\000"
 1287      33325F74 
 1287      00
 1288              	.LASF5:
 1289 0164 6C6F6E67 		.ascii	"long int\000"
 1289      20696E74 
 1289      00
 1290              	.LASF1:
 1291 016d 7369676E 		.ascii	"signed char\000"
 1291      65642063 
 1291      68617200 
 1292              	.LASF30:
 1293 0179 2E2E2F2E 		.ascii	"../../ChibiOS/os/kernel/src/chvt.c\000"
 1293      2E2F4368 
 1293      6962694F 
 1293      532F6F73 
 1293      2F6B6572 
 1294              	.LASF22:
 1295 019c 56544C69 		.ascii	"VTList\000"
 1295      737400
 1296              	.LASF16:
 1297 01a3 76745F6E 		.ascii	"vt_next\000"
 1297      65787400 
 1298              	.LASF27:
 1299 01ab 63685654 		.ascii	"chVTResetI\000"
 1299      52657365 
 1299      744900
 1300              	.LASF11:
 1301 01b6 5F426F6F 		.ascii	"_Bool\000"
 1301      6C00
 1302              		.ident	"GCC: (crosstool-NG 1.17.0 - PSAS ST32F4 GFE) 4.7.2"
ARM GAS  /tmp/ccwlB1oz.s 			page 26


DEFINED SYMBOLS
                            *ABS*:0000000000000000 chvt.c
     /tmp/ccwlB1oz.s:21     .text._vt_init:0000000000000000 $t
     /tmp/ccwlB1oz.s:27     .text._vt_init:0000000000000000 _vt_init
     /tmp/ccwlB1oz.s:285    .bss.vtlist:0000000000000000 .LANCHOR0
     /tmp/ccwlB1oz.s:53     .text.chVTSetI:0000000000000000 $t
     /tmp/ccwlB1oz.s:59     .text.chVTSetI:0000000000000000 chVTSetI
     /tmp/ccwlB1oz.s:148    .text.chVTSetI:0000000000000054 $d
     /tmp/ccwlB1oz.s:154    .text.chVTResetI:0000000000000000 $t
     /tmp/ccwlB1oz.s:160    .text.chVTResetI:0000000000000000 chVTResetI
     /tmp/ccwlB1oz.s:219    .text.chVTResetI:000000000000003c $d
     /tmp/ccwlB1oz.s:226    .text.chTimeIsWithin:0000000000000000 $t
     /tmp/ccwlB1oz.s:232    .text.chTimeIsWithin:0000000000000000 chTimeIsWithin
     /tmp/ccwlB1oz.s:278    .text.chTimeIsWithin:0000000000000030 $d
     /tmp/ccwlB1oz.s:288    .bss.vtlist:0000000000000000 vtlist
     /tmp/ccwlB1oz.s:284    .bss.vtlist:0000000000000000 $d
     /tmp/ccwlB1oz.s:291    .rodata.str1.4:0000000000000000 $d
                     .debug_frame:0000000000000010 $d
     /tmp/ccwlB1oz.s:153    .text.chVTSetI:000000000000005c $t
     /tmp/ccwlB1oz.s:225    .text.chVTResetI:0000000000000048 $t
     /tmp/ccwlB1oz.s:283    .text.chTimeIsWithin:0000000000000034 $t

UNDEFINED SYMBOLS
chDbgCheckClassI
chDbgPanic
