ARM GAS  /tmp/ccycdF2L.s 			page 1


   1              		.syntax unified
   2              		.cpu cortex-m4
   3              		.eabi_attribute 27, 3
   4              		.eabi_attribute 28, 1
   5              		.fpu fpv4-sp-d16
   6              		.eabi_attribute 20, 1
   7              		.eabi_attribute 21, 1
   8              		.eabi_attribute 23, 3
   9              		.eabi_attribute 24, 1
  10              		.eabi_attribute 25, 1
  11              		.eabi_attribute 26, 1
  12              		.eabi_attribute 30, 2
  13              		.eabi_attribute 34, 1
  14              		.eabi_attribute 18, 4
  15              		.thumb
  16              		.file	"control.c"
  17              		.text
  18              	.Ltext0:
  19              		.cfi_sections	.debug_frame
  20              		.section	.text.controlLoop,"ax",%progbits
  21              		.align	2
  22              		.p2align 4,,15
  23              		.global	controlLoop
  24              		.thumb
  25              		.thumb_func
  26              		.type	controlLoop, %function
  27              	controlLoop:
  28              	.LFB118:
  29              		.file 1 "control.c"
  30              		.loc 1 18 0
  31              		.cfi_startproc
  32              		@ args = 0, pretend = 0, frame = 0
  33              		@ frame_needed = 0, uses_anonymous_args = 0
  34              		@ link register save eliminated.
  35              	.LVL0:
  36 0000 2DE9F007 		push	{r4, r5, r6, r7, r8, r9, sl}
  37              	.LCFI0:
  38              		.cfi_def_cfa_offset 28
  39              		.cfi_offset 4, -28
  40              		.cfi_offset 5, -24
  41              		.cfi_offset 6, -20
  42              		.cfi_offset 7, -16
  43              		.cfi_offset 8, -12
  44              		.cfi_offset 9, -8
  45              		.cfi_offset 10, -4
  46              		.loc 1 30 0
  47 0004 0689     		ldrh	r6, [r0, #8]
  48              		.loc 1 33 0
  49 0006 90F801C0 		ldrb	ip, [r0, #1]	@ zero_extendqisi2
  50              		.loc 1 30 0
  51 000a 06F50061 		add	r1, r6, #2048
  52 000e 89B2     		uxth	r1, r1
  53 0010 0182     		strh	r1, [r0, #16]	@ movhi
  54              		.loc 1 33 0
  55 0012 BCF1000F 		cmp	ip, #0
  56 0016 00F08C80 		beq	.L2
  57              		.loc 1 36 0
ARM GAS  /tmp/ccycdF2L.s 			page 2


  58 001a 0378     		ldrb	r3, [r0, #0]	@ zero_extendqisi2
  59 001c 002B     		cmp	r3, #0
  60 001e 00F0C380 		beq	.L3
  61 0022 C789     		ldrh	r7, [r0, #14]
  62              	.L4:
  63              		.loc 1 40 0
  64 0024 0BB2     		sxth	r3, r1
  65 0026 DB02     		lsls	r3, r3, #11
  66 0028 4363     		str	r3, [r0, #52]
  67              	.L5:
  68              		.loc 1 88 0
  69 002a CF1B     		subs	r7, r1, r7
  70 002c BFB2     		uxth	r7, r7
  71              		.loc 1 94 0
  72 002e 446A     		ldr	r4, [r0, #36]
  73              		.loc 1 95 0
  74 0030 428D     		ldrh	r2, [r0, #42]
  75              		.loc 1 96 0
  76 0032 438E     		ldrh	r3, [r0, #50]
  77              		.loc 1 91 0
  78 0034 B0F82880 		ldrh	r8, [r0, #40]
  79              		.loc 1 88 0
  80 0038 BDB2     		uxth	r5, r7
  81 003a 4582     		strh	r5, [r0, #18]	@ movhi
  82              		.loc 1 91 0
  83 003c 2DB2     		sxth	r5, r5
  84              		.loc 1 94 0
  85 003e 02FB0542 		mla	r2, r2, r5, r4
  86              		.loc 1 96 0
  87 0042 9C02     		lsls	r4, r3, #10
  88              		.loc 1 91 0
  89 0044 08FB05F8 		mul	r8, r8, r5
  90              		.loc 1 96 0
  91 0048 A242     		cmp	r2, r4
  92              		.loc 1 91 0
  93 004a C0F81880 		str	r8, [r0, #24]
  94              		.loc 1 94 0
  95 004e 4262     		str	r2, [r0, #36]
  96              		.loc 1 96 0
  97 0050 04DC     		bgt	.L35
  98              		.loc 1 99 0
  99 0052 C3EB8354 		rsb	r4, r3, r3, lsl #22
 100 0056 A402     		lsls	r4, r4, #10
 101 0058 A242     		cmp	r2, r4
 102 005a 01DA     		bge	.L15
 103              	.L35:
 104              		.loc 1 100 0
 105 005c 4462     		str	r4, [r0, #36]
 106 005e 2246     		mov	r2, r4
 107              	.L15:
 108              		.loc 1 105 0
 109 0060 B0F81490 		ldrh	r9, [r0, #20]
 110 0064 B0F82CA0 		ldrh	sl, [r0, #44]
 111 0068 C9EB0509 		rsb	r9, r9, r5
 112              		.loc 1 106 0
 113 006c 46F26764 		movw	r4, #26215
 114              		.loc 1 105 0
ARM GAS  /tmp/ccycdF2L.s 			page 3


 115 0070 0AFB09F9 		mul	r9, sl, r9
 116              		.loc 1 106 0
 117 0074 C6F26664 		movt	r4, 26214
 118              		.loc 1 102 0
 119 0078 02F2FF3A 		addw	sl, r2, #1023
 120 007c 32EA2202 		bics	r2, r2, r2, asr #32
 121 0080 28BF     		it	cs
 122 0082 5246     		movcs	r2, sl
 123              		.loc 1 106 0
 124 0084 84FB09A4 		smull	sl, r4, r4, r9
 125 0088 4FEAE979 		asr	r9, r9, #31
 126 008c C9EB2414 		rsb	r4, r9, r4, asr #4
 127              		.loc 1 102 0
 128 0090 9212     		asrs	r2, r2, #10
 129              		.loc 1 107 0
 130 0092 A342     		cmp	r3, r4
 131              		.loc 1 102 0
 132 0094 C261     		str	r2, [r0, #28]
 133              		.loc 1 108 0
 134 0096 BCBF     		itt	lt
 135 0098 0362     		strlt	r3, [r0, #32]
 136 009a 1C46     		movlt	r4, r3
 137              		.loc 1 107 0
 138 009c 07DB     		blt	.L17
 139              		.loc 1 110 0
 140 009e C3F10009 		rsb	r9, r3, #0
 141 00a2 4C45     		cmp	r4, r9
 142              		.loc 1 105 0
 143 00a4 AEBF     		itee	ge
 144 00a6 0462     		strge	r4, [r0, #32]
 145              		.loc 1 111 0
 146 00a8 C0F82090 		strlt	r9, [r0, #32]
 147 00ac 4C46     		movlt	r4, r9
 148              	.L17:
 149              		.loc 1 119 0
 150 00ae 4244     		add	r2, r2, r8
 151              		.loc 1 120 0
 152 00b0 1419     		adds	r4, r2, r4
 153 00b2 A4B2     		uxth	r4, r4
 154              		.loc 1 124 0
 155 00b4 0FFA84F9 		sxth	r9, r4
 156 00b8 4B45     		cmp	r3, r9
 157              		.loc 1 113 0
 158 00ba 8782     		strh	r7, [r0, #20]	@ movhi
 159              		.loc 1 124 0
 160 00bc 04DB     		blt	.L21
 161              		.loc 1 126 0
 162 00be 5B42     		negs	r3, r3
 163 00c0 9945     		cmp	r9, r3
 164              		.loc 1 120 0
 165 00c2 A8BF     		it	ge
 166 00c4 8481     		strhge	r4, [r0, #12]	@ movhi
 167              		.loc 1 126 0
 168 00c6 00DA     		bge	.L20
 169              	.L21:
 170              		.loc 1 127 0
 171 00c8 8381     		strh	r3, [r0, #12]	@ movhi
ARM GAS  /tmp/ccycdF2L.s 			page 4


 172              	.L20:
 173              		.loc 1 132 0
 174 00ca 042E     		cmp	r6, #4
 175 00cc 11D9     		bls	.L36
 176              		.loc 1 135 0
 177 00ce 038E     		ldrh	r3, [r0, #48]
 178 00d0 A3F2FF73 		subw	r3, r3, #2047
 179 00d4 B342     		cmp	r3, r6
 180 00d6 03DC     		bgt	.L24
 181              		.loc 1 135 0 is_stmt 0 discriminator 1
 182 00d8 B0F90C30 		ldrsh	r3, [r0, #12]
 183 00dc 002B     		cmp	r3, #0
 184 00de 08DB     		blt	.L36
 185              	.L24:
 186              		.loc 1 139 0 is_stmt 1
 187 00e0 C38D     		ldrh	r3, [r0, #46]
 188 00e2 A3F50063 		sub	r3, r3, #2048
 189 00e6 9E42     		cmp	r6, r3
 190 00e8 05DA     		bge	.L23
 191              		.loc 1 139 0 is_stmt 0 discriminator 1
 192 00ea B0F90C30 		ldrsh	r3, [r0, #12]
 193 00ee 002B     		cmp	r3, #0
 194 00f0 01DD     		ble	.L23
 195              	.L36:
 196              		.loc 1 141 0 is_stmt 1
 197 00f2 0023     		movs	r3, #0
 198 00f4 8381     		strh	r3, [r0, #12]	@ movhi
 199              	.L23:
 200              		.loc 1 146 0
 201 00f6 0023     		movs	r3, #0
 202 00f8 C370     		strb	r3, [r0, #3]
 203              		.loc 1 147 0
 204 00fa 0371     		strb	r3, [r0, #4]
 205              		.loc 1 150 0
 206 00fc BCF1000F 		cmp	ip, #0
 207 0100 58D0     		beq	.L25
 208              		.loc 1 152 0
 209 0102 2737     		adds	r7, r7, #39
 210 0104 BFB2     		uxth	r7, r7
 211 0106 4E2F     		cmp	r7, #78
 212 0108 01D8     		bhi	.L26
 213              		.loc 1 154 0
 214 010a 0123     		movs	r3, #1
 215 010c C370     		strb	r3, [r0, #3]
 216              	.L26:
 217              		.loc 1 166 0
 218 010e 8378     		ldrb	r3, [r0, #2]	@ zero_extendqisi2
 219 0110 63B1     		cbz	r3, .L1
 220              		.loc 1 177 0
 221 0112 0479     		ldrb	r4, [r0, #4]	@ zero_extendqisi2
 222 0114 C278     		ldrb	r2, [r0, #3]	@ zero_extendqisi2
 223              		.loc 1 171 0
 224 0116 09B2     		sxth	r1, r1
 225              		.loc 1 168 0
 226 0118 0023     		movs	r3, #0
 227              		.loc 1 171 0
 228 011a C902     		lsls	r1, r1, #11
ARM GAS  /tmp/ccycdF2L.s 			page 5


 229              		.loc 1 177 0
 230 011c 002A     		cmp	r2, #0
 231 011e 08BF     		it	eq
 232 0120 002C     		cmpeq	r4, #0
 233              		.loc 1 168 0
 234 0122 8381     		strh	r3, [r0, #12]	@ movhi
 235              		.loc 1 171 0
 236 0124 4163     		str	r1, [r0, #52]
 237              		.loc 1 174 0
 238 0126 4362     		str	r3, [r0, #36]
 239              		.loc 1 180 0
 240 0128 18BF     		it	ne
 241 012a 8370     		strbne	r3, [r0, #2]
 242              	.L1:
 243              		.loc 1 184 0
 244 012c BDE8F007 		pop	{r4, r5, r6, r7, r8, r9, sl}
 245 0130 7047     		bx	lr
 246              	.L2:
 247              		.loc 1 45 0
 248 0132 C288     		ldrh	r2, [r0, #6]
 249 0134 A2F50063 		sub	r3, r2, #2048
 250 0138 9BB2     		uxth	r3, r3
 251              		.loc 1 46 0
 252 013a 19B2     		sxth	r1, r3
 253 013c 5029     		cmp	r1, #80
 254              		.loc 1 45 0
 255 013e 0387     		strh	r3, [r0, #56]	@ movhi
 256              		.loc 1 46 0
 257 0140 29DD     		ble	.L6
 258              		.loc 1 47 0
 259 0142 A2F50562 		sub	r2, r2, #2128
 260 0146 92B2     		uxth	r2, r2
 261 0148 0287     		strh	r2, [r0, #56]	@ movhi
 262              	.L7:
 263              		.loc 1 57 0
 264 014a 11B2     		sxth	r1, r2
 265              		.loc 1 60 0
 266 014c 12FB02F2 		smulbb	r2, r2, r2
 267              		.loc 1 57 0
 268 0150 446B     		ldr	r4, [r0, #52]
 269              		.loc 1 60 0
 270 0152 02F2FF33 		addw	r3, r2, #1023
 271 0156 32EA2202 		bics	r2, r2, r2, asr #32
 272 015a 28BF     		it	cs
 273 015c 1A46     		movcs	r2, r3
 274              		.loc 1 58 0
 275 015e 0029     		cmp	r1, #0
 276              		.loc 1 57 0
 277 0160 0C44     		add	r4, r1, r4
 278              		.loc 1 58 0
 279 0162 38DD     		ble	.L10
 280              		.loc 1 59 0
 281 0164 04EBA223 		add	r3, r4, r2, asr #10
 282 0168 4363     		str	r3, [r0, #52]
 283              	.L11:
 284              		.loc 1 67 0
 285 016a 078E     		ldrh	r7, [r0, #48]
ARM GAS  /tmp/ccycdF2L.s 			page 6


 286              		.loc 1 68 0
 287 016c FF02     		lsls	r7, r7, #11
 288              		.loc 1 67 0
 289 016e 9F42     		cmp	r7, r3
 290 0170 05DB     		blt	.L34
 291              		.loc 1 75 0
 292 0172 C78D     		ldrh	r7, [r0, #46]
 293              		.loc 1 76 0
 294 0174 FF02     		lsls	r7, r7, #11
 295              		.loc 1 75 0
 296 0176 9F42     		cmp	r7, r3
 297 0178 D8BF     		it	le
 298 017a 1F46     		movle	r7, r3
 299 017c 00DD     		ble	.L13
 300              	.L34:
 301              		.loc 1 79 0
 302 017e 4763     		str	r7, [r0, #52]
 303              	.L13:
 304              		.loc 1 84 0
 305 0180 07F2FF73 		addw	r3, r7, #2047
 306 0184 37EA2707 		bics	r7, r7, r7, asr #32
 307 0188 28BF     		it	cs
 308 018a 1F46     		movcs	r7, r3
 309 018c C7F3CF27 		ubfx	r7, r7, #11, #16
 310 0190 018A     		ldrh	r1, [r0, #16]
 311 0192 C781     		strh	r7, [r0, #14]	@ movhi
 312 0194 49E7     		b	.L5
 313              	.L6:
 314              		.loc 1 49 0
 315 0196 5031     		adds	r1, r1, #80
 316 0198 18DB     		blt	.L38
 317              		.loc 1 57 0
 318 019a 446B     		ldr	r4, [r0, #52]
 319              		.loc 1 53 0
 320 019c A0F838C0 		strh	ip, [r0, #56]	@ movhi
 321              		.loc 1 57 0
 322 01a0 6346     		mov	r3, ip
 323              	.L9:
 324              		.loc 1 63 0
 325 01a2 E318     		adds	r3, r4, r3
 326 01a4 4363     		str	r3, [r0, #52]
 327 01a6 E0E7     		b	.L11
 328              	.L3:
 329              		.loc 1 37 0
 330 01a8 C788     		ldrh	r7, [r0, #6]
 331 01aa 07F50067 		add	r7, r7, #2048
 332 01ae BFB2     		uxth	r7, r7
 333 01b0 C781     		strh	r7, [r0, #14]	@ movhi
 334 01b2 37E7     		b	.L4
 335              	.L25:
 336              		.loc 1 157 0
 337 01b4 B0F93830 		ldrsh	r3, [r0, #56]
 338 01b8 002B     		cmp	r3, #0
 339 01ba A8D1     		bne	.L26
 340              		.loc 1 157 0 is_stmt 0 discriminator 1
 341 01bc 272D     		cmp	r5, #39
 342 01be A6DC     		bgt	.L26
ARM GAS  /tmp/ccycdF2L.s 			page 7


 343 01c0 15F1270F 		cmn	r5, #39
 344 01c4 A3DB     		blt	.L26
 345              		.loc 1 160 0 is_stmt 1
 346 01c6 0123     		movs	r3, #1
 347 01c8 0371     		strb	r3, [r0, #4]
 348 01ca A0E7     		b	.L26
 349              	.L38:
 350              		.loc 1 50 0
 351 01cc A2F5F662 		sub	r2, r2, #1968
 352 01d0 92B2     		uxth	r2, r2
 353 01d2 0287     		strh	r2, [r0, #56]	@ movhi
 354 01d4 B9E7     		b	.L7
 355              	.L10:
 356 01d6 9312     		asrs	r3, r2, #10
 357 01d8 5B42     		negs	r3, r3
 358 01da E2E7     		b	.L9
 359              		.cfi_endproc
 360              	.LFE118:
 361              		.size	controlLoop, .-controlLoop
 362 01dc AFF30080 		.text
 363              	.Letext0:
 364              		.file 2 "/opt/psas/x-tools/stm32f407/arm-psas-eabi/bin/../lib/gcc/arm-psas-eabi/4.7.2/../../../../
 365              		.file 3 "../../ChibiOS/os/hal/platforms/STM32F4xx/adc_lld.h"
 366              		.file 4 "control.h"
 367              		.file 5 "../../ChibiOS/os/ports/common/ARMCMx/CMSIS/include/core_cm4.h"