ARM GAS  /tmp/ccf6R4Ls.s 			page 1


   1              		.syntax unified
   2              		.cpu cortex-m4
   3              		.eabi_attribute 27, 3
   4              		.eabi_attribute 28, 1
   5              		.fpu fpv4-sp-d16
   6              		.eabi_attribute 20, 1
   7              		.eabi_attribute 21, 1
   8              		.eabi_attribute 23, 3
   9              		.eabi_attribute 24, 1
  10              		.eabi_attribute 25, 1
  11              		.eabi_attribute 26, 1
  12              		.eabi_attribute 30, 2
  13              		.eabi_attribute 34, 1
  14              		.eabi_attribute 18, 4
  15              		.thumb
  16              		.file	"ext.c"
  17              		.text
  18              	.Ltext0:
  19              		.cfi_sections	.debug_frame
  20              		.section	.text.extInit,"ax",%progbits
  21              		.align	2
  22              		.p2align 4,,15
  23              		.global	extInit
  24              		.thumb
  25              		.thumb_func
  26              		.type	extInit, %function
  27              	extInit:
  28              	.LFB118:
  29              		.file 1 "../../ChibiOS/os/hal/src/ext.c"
  30              		.loc 1 61 0
  31              		.cfi_startproc
  32              		@ args = 0, pretend = 0, frame = 0
  33              		@ frame_needed = 0, uses_anonymous_args = 0
  34              		@ link register save eliminated.
  35              		.loc 1 64 0
  36              		.loc 1 63 0
  37 0000 FFF7FEBF 		b	ext_lld_init
  38              	.LVL0:
  39              		.cfi_endproc
  40              	.LFE118:
  41              		.size	extInit, .-extInit
  42 0004 AFF30080 		.section	.text.extObjectInit,"ax",%progbits
  42      AFF30080 
  42      AFF30080 
  43              		.align	2
  44              		.p2align 4,,15
  45              		.global	extObjectInit
  46              		.thumb
  47              		.thumb_func
  48              		.type	extObjectInit, %function
  49              	extObjectInit:
  50              	.LFB119:
  51              		.loc 1 73 0
  52              		.cfi_startproc
  53              		@ args = 0, pretend = 0, frame = 0
  54              		@ frame_needed = 0, uses_anonymous_args = 0
  55              		@ link register save eliminated.
ARM GAS  /tmp/ccf6R4Ls.s 			page 2


  56              	.LVL1:
  57              		.loc 1 75 0
  58 0000 0123     		movs	r3, #1
  59 0002 0370     		strb	r3, [r0, #0]
  60              		.loc 1 76 0
  61 0004 0023     		movs	r3, #0
  62 0006 4360     		str	r3, [r0, #4]
  63 0008 7047     		bx	lr
  64              		.cfi_endproc
  65              	.LFE119:
  66              		.size	extObjectInit, .-extObjectInit
  67 000a 00BFAFF3 		.section	.text.extStart,"ax",%progbits
  67      0080
  68              		.align	2
  69              		.p2align 4,,15
  70              		.global	extStart
  71              		.thumb
  72              		.thumb_func
  73              		.type	extStart, %function
  74              	extStart:
  75              	.LFB120:
  76              		.loc 1 89 0
  77              		.cfi_startproc
  78              		@ args = 0, pretend = 0, frame = 0
  79              		@ frame_needed = 0, uses_anonymous_args = 0
  80              	.LVL2:
  81              		.loc 1 91 0
  82 0000 0028     		cmp	r0, #0
  83 0002 18BF     		it	ne
  84 0004 0029     		cmpne	r1, #0
  85              		.loc 1 89 0
  86 0006 38B5     		push	{r3, r4, r5, lr}
  87              	.LCFI0:
  88              		.cfi_def_cfa_offset 16
  89              		.cfi_offset 3, -16
  90              		.cfi_offset 4, -12
  91              		.cfi_offset 5, -8
  92              		.cfi_offset 14, -4
  93              		.loc 1 91 0
  94 0008 0D46     		mov	r5, r1
  95 000a 0446     		mov	r4, r0
  96 000c 17D0     		beq	.L10
  97              	.LVL3:
  98              	.L4:
  99              	.LBB2:
 100              		.loc 1 93 0
 101 000e 2023     		movs	r3, #32
 102              	.LVL4:
 103              	@ 93 "../../ChibiOS/os/hal/src/ext.c" 1
 104 0010 83F31188 		msr     BASEPRI, r3
 105              	@ 0 "" 2
 106              	.LVL5:
 107              		.thumb
 108              	.LBE2:
 109 0014 FFF7FEFF 		bl	dbg_check_lock
 110              	.LVL6:
 111              		.loc 1 94 0
ARM GAS  /tmp/ccf6R4Ls.s 			page 3


 112 0018 2378     		ldrb	r3, [r4, #0]	@ zero_extendqisi2
 113 001a 013B     		subs	r3, r3, #1
 114 001c 012B     		cmp	r3, #1
 115 001e 02D9     		bls	.L5
 116              		.loc 1 94 0 is_stmt 0 discriminator 1
 117 0020 0948     		ldr	r0, .L11
 118 0022 FFF7FEFF 		bl	chDbgPanic
 119              	.LVL7:
 120              	.L5:
 121              		.loc 1 97 0 is_stmt 1
 122 0026 2046     		mov	r0, r4
 123              		.loc 1 96 0
 124 0028 6560     		str	r5, [r4, #4]
 125              		.loc 1 97 0
 126 002a FFF7FEFF 		bl	ext_lld_start
 127              	.LVL8:
 128              		.loc 1 98 0
 129 002e 0223     		movs	r3, #2
 130 0030 2370     		strb	r3, [r4, #0]
 131              		.loc 1 99 0
 132 0032 FFF7FEFF 		bl	dbg_check_unlock
 133              	.LVL9:
 134              	.LBB3:
 135 0036 0023     		movs	r3, #0
 136              	.LVL10:
 137              	@ 99 "../../ChibiOS/os/hal/src/ext.c" 1
 138 0038 83F31188 		msr     BASEPRI, r3
 139              	@ 0 "" 2
 140              	.LVL11:
 141              		.thumb
 142 003c 38BD     		pop	{r3, r4, r5, pc}
 143              	.LVL12:
 144              	.L10:
 145              	.LBE3:
 146              		.loc 1 91 0 discriminator 1
 147 003e 0348     		ldr	r0, .L11+4
 148              	.LVL13:
 149 0040 FFF7FEFF 		bl	chDbgPanic
 150              	.LVL14:
 151 0044 E3E7     		b	.L4
 152              	.L12:
 153 0046 00BF     		.align	2
 154              	.L11:
 155 0048 10000000 		.word	.LC1
 156 004c 00000000 		.word	.LC0
 157              		.cfi_endproc
 158              	.LFE120:
 159              		.size	extStart, .-extStart
 160              		.section	.text.extStop,"ax",%progbits
 161              		.align	2
 162              		.p2align 4,,15
 163              		.global	extStop
 164              		.thumb
 165              		.thumb_func
 166              		.type	extStop, %function
 167              	extStop:
 168              	.LFB121:
ARM GAS  /tmp/ccf6R4Ls.s 			page 4


 169              		.loc 1 109 0
 170              		.cfi_startproc
 171              		@ args = 0, pretend = 0, frame = 0
 172              		@ frame_needed = 0, uses_anonymous_args = 0
 173              	.LVL15:
 174 0000 10B5     		push	{r4, lr}
 175              	.LCFI1:
 176              		.cfi_def_cfa_offset 8
 177              		.cfi_offset 4, -8
 178              		.cfi_offset 14, -4
 179              		.loc 1 111 0
 180 0002 0446     		mov	r4, r0
 181 0004 B0B1     		cbz	r0, .L16
 182              	.LVL16:
 183              	.L14:
 184              	.LBB4:
 185              		.loc 1 113 0
 186 0006 2023     		movs	r3, #32
 187              	.LVL17:
 188              	@ 113 "../../ChibiOS/os/hal/src/ext.c" 1
 189 0008 83F31188 		msr     BASEPRI, r3
 190              	@ 0 "" 2
 191              	.LVL18:
 192              		.thumb
 193              	.LBE4:
 194 000c FFF7FEFF 		bl	dbg_check_lock
 195              	.LVL19:
 196              		.loc 1 114 0
 197 0010 2378     		ldrb	r3, [r4, #0]	@ zero_extendqisi2
 198 0012 013B     		subs	r3, r3, #1
 199 0014 012B     		cmp	r3, #1
 200 0016 02D9     		bls	.L15
 201              		.loc 1 114 0 is_stmt 0 discriminator 1
 202 0018 0848     		ldr	r0, .L17
 203 001a FFF7FEFF 		bl	chDbgPanic
 204              	.LVL20:
 205              	.L15:
 206              		.loc 1 116 0 is_stmt 1
 207 001e 2046     		mov	r0, r4
 208 0020 FFF7FEFF 		bl	ext_lld_stop
 209              	.LVL21:
 210              		.loc 1 117 0
 211 0024 0123     		movs	r3, #1
 212 0026 2370     		strb	r3, [r4, #0]
 213              		.loc 1 118 0
 214 0028 FFF7FEFF 		bl	dbg_check_unlock
 215              	.LVL22:
 216              	.LBB5:
 217 002c 0023     		movs	r3, #0
 218              	.LVL23:
 219              	@ 118 "../../ChibiOS/os/hal/src/ext.c" 1
 220 002e 83F31188 		msr     BASEPRI, r3
 221              	@ 0 "" 2
 222              	.LVL24:
 223              		.thumb
 224 0032 10BD     		pop	{r4, pc}
 225              	.LVL25:
ARM GAS  /tmp/ccf6R4Ls.s 			page 5


 226              	.L16:
 227              	.LBE5:
 228              		.loc 1 111 0 discriminator 1
 229 0034 0248     		ldr	r0, .L17+4
 230              	.LVL26:
 231 0036 FFF7FEFF 		bl	chDbgPanic
 232              	.LVL27:
 233 003a E4E7     		b	.L14
 234              	.L18:
 235              		.align	2
 236              	.L17:
 237 003c 2C000000 		.word	.LC3
 238 0040 20000000 		.word	.LC2
 239              		.cfi_endproc
 240              	.LFE121:
 241              		.size	extStop, .-extStop
 242 0044 AFF30080 		.section	.text.extChannelEnable,"ax",%progbits
 242      AFF30080 
 242      AFF30080 
 243              		.align	2
 244              		.p2align 4,,15
 245              		.global	extChannelEnable
 246              		.thumb
 247              		.thumb_func
 248              		.type	extChannelEnable, %function
 249              	extChannelEnable:
 250              	.LFB122:
 251              		.loc 1 130 0
 252              		.cfi_startproc
 253              		@ args = 0, pretend = 0, frame = 0
 254              		@ frame_needed = 0, uses_anonymous_args = 0
 255              	.LVL28:
 256 0000 38B5     		push	{r3, r4, r5, lr}
 257              	.LCFI2:
 258              		.cfi_def_cfa_offset 16
 259              		.cfi_offset 3, -16
 260              		.cfi_offset 4, -12
 261              		.cfi_offset 5, -8
 262              		.cfi_offset 14, -4
 263              		.loc 1 132 0
 264 0002 D0F10103 		rsbs	r3, r0, #1
 265 0006 38BF     		it	cc
 266 0008 0023     		movcc	r3, #0
 267 000a 1629     		cmp	r1, #22
 268 000c 88BF     		it	hi
 269 000e 43F00103 		orrhi	r3, r3, #1
 270 0012 0446     		mov	r4, r0
 271              		.loc 1 130 0
 272 0014 0D46     		mov	r5, r1
 273              		.loc 1 132 0
 274 0016 D3B9     		cbnz	r3, .L26
 275              	.LVL29:
 276              	.L20:
 277              	.LBB6:
 278              		.loc 1 135 0
 279 0018 2023     		movs	r3, #32
 280              	.LVL30:
ARM GAS  /tmp/ccf6R4Ls.s 			page 6


 281              	@ 135 "../../ChibiOS/os/hal/src/ext.c" 1
 282 001a 83F31188 		msr     BASEPRI, r3
 283              	@ 0 "" 2
 284              	.LVL31:
 285              		.thumb
 286              	.LBE6:
 287 001e FFF7FEFF 		bl	dbg_check_lock
 288              	.LVL32:
 289              		.loc 1 136 0
 290 0022 2378     		ldrb	r3, [r4, #0]	@ zero_extendqisi2
 291 0024 022B     		cmp	r3, #2
 292 0026 0CD0     		beq	.L27
 293              	.L21:
 294              		.loc 1 136 0 is_stmt 0 discriminator 1
 295 0028 0B48     		ldr	r0, .L28
 296 002a FFF7FEFF 		bl	chDbgPanic
 297              	.LVL33:
 298              	.L22:
 299              		.loc 1 140 0 is_stmt 1
 300 002e 2046     		mov	r0, r4
 301 0030 2946     		mov	r1, r5
 302 0032 FFF7FEFF 		bl	ext_lld_channel_enable
 303              	.LVL34:
 304              		.loc 1 141 0
 305 0036 FFF7FEFF 		bl	dbg_check_unlock
 306              	.LVL35:
 307              	.LBB7:
 308 003a 0023     		movs	r3, #0
 309              	.LVL36:
 310              	@ 141 "../../ChibiOS/os/hal/src/ext.c" 1
 311 003c 83F31188 		msr     BASEPRI, r3
 312              	@ 0 "" 2
 313              	.LVL37:
 314              		.thumb
 315 0040 38BD     		pop	{r3, r4, r5, pc}
 316              	.LVL38:
 317              	.L27:
 318              	.LBE7:
 319              		.loc 1 136 0 discriminator 2
 320 0042 6368     		ldr	r3, [r4, #4]
 321 0044 53F83530 		ldr	r3, [r3, r5, lsl #3]
 322 0048 9B07     		lsls	r3, r3, #30
 323 004a F0D1     		bne	.L22
 324 004c ECE7     		b	.L21
 325              	.LVL39:
 326              	.L26:
 327              		.loc 1 132 0 discriminator 1
 328 004e 0348     		ldr	r0, .L28+4
 329              	.LVL40:
 330 0050 FFF7FEFF 		bl	chDbgPanic
 331              	.LVL41:
 332 0054 E0E7     		b	.L20
 333              	.L29:
 334 0056 00BF     		.align	2
 335              	.L28:
 336 0058 54000000 		.word	.LC5
 337 005c 3C000000 		.word	.LC4
ARM GAS  /tmp/ccf6R4Ls.s 			page 7


 338              		.cfi_endproc
 339              	.LFE122:
 340              		.size	extChannelEnable, .-extChannelEnable
 341              		.section	.text.extChannelDisable,"ax",%progbits
 342              		.align	2
 343              		.p2align 4,,15
 344              		.global	extChannelDisable
 345              		.thumb
 346              		.thumb_func
 347              		.type	extChannelDisable, %function
 348              	extChannelDisable:
 349              	.LFB123:
 350              		.loc 1 153 0
 351              		.cfi_startproc
 352              		@ args = 0, pretend = 0, frame = 0
 353              		@ frame_needed = 0, uses_anonymous_args = 0
 354              	.LVL42:
 355 0000 38B5     		push	{r3, r4, r5, lr}
 356              	.LCFI3:
 357              		.cfi_def_cfa_offset 16
 358              		.cfi_offset 3, -16
 359              		.cfi_offset 4, -12
 360              		.cfi_offset 5, -8
 361              		.cfi_offset 14, -4
 362              		.loc 1 155 0
 363 0002 D0F10103 		rsbs	r3, r0, #1
 364 0006 38BF     		it	cc
 365 0008 0023     		movcc	r3, #0
 366 000a 1629     		cmp	r1, #22
 367 000c 88BF     		it	hi
 368 000e 43F00103 		orrhi	r3, r3, #1
 369 0012 0446     		mov	r4, r0
 370              		.loc 1 153 0
 371 0014 0D46     		mov	r5, r1
 372              		.loc 1 155 0
 373 0016 D3B9     		cbnz	r3, .L37
 374              	.LVL43:
 375              	.L31:
 376              	.LBB8:
 377              		.loc 1 158 0
 378 0018 2023     		movs	r3, #32
 379              	.LVL44:
 380              	@ 158 "../../ChibiOS/os/hal/src/ext.c" 1
 381 001a 83F31188 		msr     BASEPRI, r3
 382              	@ 0 "" 2
 383              	.LVL45:
 384              		.thumb
 385              	.LBE8:
 386 001e FFF7FEFF 		bl	dbg_check_lock
 387              	.LVL46:
 388              		.loc 1 159 0
 389 0022 2378     		ldrb	r3, [r4, #0]	@ zero_extendqisi2
 390 0024 022B     		cmp	r3, #2
 391 0026 0CD0     		beq	.L38
 392              	.L32:
 393              		.loc 1 159 0 is_stmt 0 discriminator 1
 394 0028 0B48     		ldr	r0, .L39
ARM GAS  /tmp/ccf6R4Ls.s 			page 8


 395 002a FFF7FEFF 		bl	chDbgPanic
 396              	.LVL47:
 397              	.L33:
 398              		.loc 1 163 0 is_stmt 1
 399 002e 2046     		mov	r0, r4
 400 0030 2946     		mov	r1, r5
 401 0032 FFF7FEFF 		bl	ext_lld_channel_disable
 402              	.LVL48:
 403              		.loc 1 164 0
 404 0036 FFF7FEFF 		bl	dbg_check_unlock
 405              	.LVL49:
 406              	.LBB9:
 407 003a 0023     		movs	r3, #0
 408              	.LVL50:
 409              	@ 164 "../../ChibiOS/os/hal/src/ext.c" 1
 410 003c 83F31188 		msr     BASEPRI, r3
 411              	@ 0 "" 2
 412              	.LVL51:
 413              		.thumb
 414 0040 38BD     		pop	{r3, r4, r5, pc}
 415              	.LVL52:
 416              	.L38:
 417              	.LBE9:
 418              		.loc 1 159 0 discriminator 2
 419 0042 6368     		ldr	r3, [r4, #4]
 420 0044 53F83530 		ldr	r3, [r3, r5, lsl #3]
 421 0048 9A07     		lsls	r2, r3, #30
 422 004a F0D1     		bne	.L33
 423 004c ECE7     		b	.L32
 424              	.LVL53:
 425              	.L37:
 426              		.loc 1 155 0 discriminator 1
 427 004e 0348     		ldr	r0, .L39+4
 428              	.LVL54:
 429 0050 FFF7FEFF 		bl	chDbgPanic
 430              	.LVL55:
 431 0054 E0E7     		b	.L31
 432              	.L40:
 433 0056 00BF     		.align	2
 434              	.L39:
 435 0058 84000000 		.word	.LC7
 436 005c 6C000000 		.word	.LC6
 437              		.cfi_endproc
 438              	.LFE123:
 439              		.size	extChannelDisable, .-extChannelDisable
 440              		.section	.text.extSetChannelModeI,"ax",%progbits
 441              		.align	2
 442              		.p2align 4,,15
 443              		.global	extSetChannelModeI
 444              		.thumb
 445              		.thumb_func
 446              		.type	extSetChannelModeI, %function
 447              	extSetChannelModeI:
 448              	.LFB124:
 449              		.loc 1 186 0
 450              		.cfi_startproc
 451              		@ args = 0, pretend = 0, frame = 0
ARM GAS  /tmp/ccf6R4Ls.s 			page 9


 452              		@ frame_needed = 0, uses_anonymous_args = 0
 453              	.LVL56:
 454              		.loc 1 189 0
 455 0000 D0F10103 		rsbs	r3, r0, #1
 456 0004 38BF     		it	cc
 457 0006 0023     		movcc	r3, #0
 458 0008 1629     		cmp	r1, #22
 459 000a 88BF     		it	hi
 460 000c 43F00103 		orrhi	r3, r3, #1
 461              		.loc 1 186 0
 462 0010 70B5     		push	{r4, r5, r6, lr}
 463              	.LCFI4:
 464              		.cfi_def_cfa_offset 16
 465              		.cfi_offset 4, -16
 466              		.cfi_offset 5, -12
 467              		.cfi_offset 6, -8
 468              		.cfi_offset 14, -4
 469              		.loc 1 189 0
 470 0012 0446     		mov	r4, r0
 471              		.loc 1 186 0
 472 0014 0D46     		mov	r5, r1
 473 0016 1646     		mov	r6, r2
 474              		.loc 1 189 0
 475 0018 9BB9     		cbnz	r3, .L42
 476              		.loc 1 189 0 is_stmt 0 discriminator 2
 477 001a 92B1     		cbz	r2, .L42
 478              	.LVL57:
 479              	.L43:
 480              		.loc 1 192 0 is_stmt 1
 481 001c 2378     		ldrb	r3, [r4, #0]	@ zero_extendqisi2
 482 001e 022B     		cmp	r3, #2
 483 0020 02D0     		beq	.L44
 484              		.loc 1 192 0 is_stmt 0 discriminator 1
 485 0022 0A48     		ldr	r0, .L48
 486 0024 FFF7FEFF 		bl	chDbgPanic
 487              	.LVL58:
 488              	.L44:
 489              		.loc 1 201 0 is_stmt 1
 490 0028 96E80300 		ldmia	r6, {r0, r1}
 491 002c 6368     		ldr	r3, [r4, #4]
 492 002e 03EBC503 		add	r3, r3, r5, lsl #3
 493 0032 83E80300 		stmia	r3, {r0, r1}
 494              		.loc 1 202 0
 495 0036 2046     		mov	r0, r4
 496 0038 2946     		mov	r1, r5
 497              		.loc 1 203 0
 498 003a BDE87040 		pop	{r4, r5, r6, lr}
 499              		.loc 1 202 0
 500 003e FFF7FEBF 		b	ext_lld_channel_enable
 501              	.LVL59:
 502              	.L42:
 503              		.loc 1 189 0 discriminator 1
 504 0042 0348     		ldr	r0, .L48+4
 505              	.LVL60:
 506 0044 FFF7FEFF 		bl	chDbgPanic
 507              	.LVL61:
 508 0048 E8E7     		b	.L43
ARM GAS  /tmp/ccf6R4Ls.s 			page 10


 509              	.L49:
 510 004a 00BF     		.align	2
 511              	.L48:
 512 004c B4000000 		.word	.LC9
 513 0050 9C000000 		.word	.LC8
 514              		.cfi_endproc
 515              	.LFE124:
 516              		.size	extSetChannelModeI, .-extSetChannelModeI
 517 0054 AFF30080 		.section	.rodata.str1.4,"aMS",%progbits,1
 517      AFF30080 
 517      AFF30080 
 518              		.align	2
 519              	.LC0:
 520 0000 22657874 		.ascii	"\"extStart\"()\000"
 520      53746172 
 520      74222829 
 520      00
 521 000d 000000   		.space	3
 522              	.LC1:
 523 0010 65787453 		.ascii	"extStart(), #1\000"
 523      74617274 
 523      28292C20 
 523      233100
 524 001f 00       		.space	1
 525              	.LC2:
 526 0020 22657874 		.ascii	"\"extStop\"()\000"
 526      53746F70 
 526      22282900 
 527              	.LC3:
 528 002c 65787453 		.ascii	"extStop(), #1\000"
 528      746F7028 
 528      292C2023 
 528      3100
 529 003a 0000     		.space	2
 530              	.LC4:
 531 003c 22657874 		.ascii	"\"extChannelEnable\"()\000"
 531      4368616E 
 531      6E656C45 
 531      6E61626C 
 531      65222829 
 532 0051 000000   		.space	3
 533              	.LC5:
 534 0054 65787443 		.ascii	"extChannelEnable(), #1\000"
 534      68616E6E 
 534      656C456E 
 534      61626C65 
 534      28292C20 
 535 006b 00       		.space	1
 536              	.LC6:
 537 006c 22657874 		.ascii	"\"extChannelDisable\"()\000"
 537      4368616E 
 537      6E656C44 
 537      69736162 
 537      6C652228 
 538 0082 0000     		.space	2
 539              	.LC7:
 540 0084 65787443 		.ascii	"extChannelDisable(), #1\000"
ARM GAS  /tmp/ccf6R4Ls.s 			page 11


 540      68616E6E 
 540      656C4469 
 540      7361626C 
 540      6528292C 
 541              	.LC8:
 542 009c 22657874 		.ascii	"\"extSetChannelModeI\"()\000"
 542      53657443 
 542      68616E6E 
 542      656C4D6F 
 542      64654922 
 543 00b3 00       		.space	1
 544              	.LC9:
 545 00b4 65787453 		.ascii	"extSetChannelModeI(), #1\000"
 545      65744368 
 545      616E6E65 
 545      6C4D6F64 
 545      65492829 
 546 00cd 000000   		.text
 547              	.Letext0:
 548              		.file 2 "/opt/psas/x-tools/stm32f407/arm-psas-eabi/bin/../lib/gcc/arm-psas-eabi/4.7.2/../../../../
 549              		.file 3 "../../ChibiOS/os/hal/include/ext.h"
 550              		.file 4 "../../ChibiOS/os/hal/platforms/STM32/ext_lld.h"
 551              		.file 5 "../../ChibiOS/os/kernel/include/chdebug.h"
 552              		.file 6 "../../ChibiOS/os/ports/common/ARMCMx/CMSIS/include/core_cm4.h"