ARM GAS  /tmp/ccBuPKgD.s 			page 1


   1              		.syntax unified
   2              		.cpu cortex-m4
   3              		.eabi_attribute 27, 3
   4              		.eabi_attribute 28, 1
   5              		.fpu fpv4-sp-d16
   6              		.eabi_attribute 20, 1
   7              		.eabi_attribute 21, 1
   8              		.eabi_attribute 23, 3
   9              		.eabi_attribute 24, 1
  10              		.eabi_attribute 25, 1
  11              		.eabi_attribute 26, 1
  12              		.eabi_attribute 30, 2
  13              		.eabi_attribute 34, 1
  14              		.eabi_attribute 18, 4
  15              		.thumb
  16              		.file	"gpt.c"
  17              		.text
  18              	.Ltext0:
  19              		.cfi_sections	.debug_frame
  20              		.section	.text.gptInit,"ax",%progbits
  21              		.align	2
  22              		.p2align 4,,15
  23              		.global	gptInit
  24              		.thumb
  25              		.thumb_func
  26              		.type	gptInit, %function
  27              	gptInit:
  28              	.LFB118:
  29              		.file 1 "../../ChibiOS/os/hal/src/gpt.c"
  30              		.loc 1 61 0
  31              		.cfi_startproc
  32              		@ args = 0, pretend = 0, frame = 0
  33              		@ frame_needed = 0, uses_anonymous_args = 0
  34              		@ link register save eliminated.
  35              		.loc 1 64 0
  36              		.loc 1 63 0
  37 0000 FFF7FEBF 		b	gpt_lld_init
  38              	.LVL0:
  39              		.cfi_endproc
  40              	.LFE118:
  41              		.size	gptInit, .-gptInit
  42 0004 AFF30080 		.section	.text.gptObjectInit,"ax",%progbits
  42      AFF30080 
  42      AFF30080 
  43              		.align	2
  44              		.p2align 4,,15
  45              		.global	gptObjectInit
  46              		.thumb
  47              		.thumb_func
  48              		.type	gptObjectInit, %function
  49              	gptObjectInit:
  50              	.LFB119:
  51              		.loc 1 73 0
  52              		.cfi_startproc
  53              		@ args = 0, pretend = 0, frame = 0
  54              		@ frame_needed = 0, uses_anonymous_args = 0
  55              		@ link register save eliminated.
ARM GAS  /tmp/ccBuPKgD.s 			page 2


  56              	.LVL1:
  57              		.loc 1 75 0
  58 0000 0123     		movs	r3, #1
  59 0002 0370     		strb	r3, [r0, #0]
  60              		.loc 1 76 0
  61 0004 0023     		movs	r3, #0
  62 0006 4360     		str	r3, [r0, #4]
  63 0008 7047     		bx	lr
  64              		.cfi_endproc
  65              	.LFE119:
  66              		.size	gptObjectInit, .-gptObjectInit
  67 000a 00BFAFF3 		.section	.text.gptStart,"ax",%progbits
  67      0080
  68              		.align	2
  69              		.p2align 4,,15
  70              		.global	gptStart
  71              		.thumb
  72              		.thumb_func
  73              		.type	gptStart, %function
  74              	gptStart:
  75              	.LFB120:
  76              		.loc 1 87 0
  77              		.cfi_startproc
  78              		@ args = 0, pretend = 0, frame = 0
  79              		@ frame_needed = 0, uses_anonymous_args = 0
  80              	.LVL2:
  81              		.loc 1 89 0
  82 0000 0028     		cmp	r0, #0
  83 0002 18BF     		it	ne
  84 0004 0029     		cmpne	r1, #0
  85              		.loc 1 87 0
  86 0006 38B5     		push	{r3, r4, r5, lr}
  87              	.LCFI0:
  88              		.cfi_def_cfa_offset 16
  89              		.cfi_offset 3, -16
  90              		.cfi_offset 4, -12
  91              		.cfi_offset 5, -8
  92              		.cfi_offset 14, -4
  93              		.loc 1 89 0
  94 0008 0D46     		mov	r5, r1
  95 000a 0446     		mov	r4, r0
  96 000c 17D0     		beq	.L10
  97              	.LVL3:
  98              	.L4:
  99              	.LBB2:
 100              		.loc 1 91 0
 101 000e 2023     		movs	r3, #32
 102              	.LVL4:
 103              	@ 91 "../../ChibiOS/os/hal/src/gpt.c" 1
 104 0010 83F31188 		msr     BASEPRI, r3
 105              	@ 0 "" 2
 106              	.LVL5:
 107              		.thumb
 108              	.LBE2:
 109 0014 FFF7FEFF 		bl	dbg_check_lock
 110              	.LVL6:
 111              		.loc 1 92 0
ARM GAS  /tmp/ccBuPKgD.s 			page 3


 112 0018 2378     		ldrb	r3, [r4, #0]	@ zero_extendqisi2
 113 001a 013B     		subs	r3, r3, #1
 114 001c 012B     		cmp	r3, #1
 115 001e 02D9     		bls	.L5
 116              		.loc 1 92 0 is_stmt 0 discriminator 1
 117 0020 0948     		ldr	r0, .L11
 118 0022 FFF7FEFF 		bl	chDbgPanic
 119              	.LVL7:
 120              	.L5:
 121              		.loc 1 95 0 is_stmt 1
 122 0026 2046     		mov	r0, r4
 123              		.loc 1 94 0
 124 0028 6560     		str	r5, [r4, #4]
 125              		.loc 1 95 0
 126 002a FFF7FEFF 		bl	gpt_lld_start
 127              	.LVL8:
 128              		.loc 1 96 0
 129 002e 0223     		movs	r3, #2
 130 0030 2370     		strb	r3, [r4, #0]
 131              		.loc 1 97 0
 132 0032 FFF7FEFF 		bl	dbg_check_unlock
 133              	.LVL9:
 134              	.LBB3:
 135 0036 0023     		movs	r3, #0
 136              	.LVL10:
 137              	@ 97 "../../ChibiOS/os/hal/src/gpt.c" 1
 138 0038 83F31188 		msr     BASEPRI, r3
 139              	@ 0 "" 2
 140              	.LVL11:
 141              		.thumb
 142 003c 38BD     		pop	{r3, r4, r5, pc}
 143              	.LVL12:
 144              	.L10:
 145              	.LBE3:
 146              		.loc 1 89 0 discriminator 1
 147 003e 0348     		ldr	r0, .L11+4
 148              	.LVL13:
 149 0040 FFF7FEFF 		bl	chDbgPanic
 150              	.LVL14:
 151 0044 E3E7     		b	.L4
 152              	.L12:
 153 0046 00BF     		.align	2
 154              	.L11:
 155 0048 0C000000 		.word	.LC1
 156 004c 00000000 		.word	.LC0
 157              		.cfi_endproc
 158              	.LFE120:
 159              		.size	gptStart, .-gptStart
 160              		.section	.text.gptStop,"ax",%progbits
 161              		.align	2
 162              		.p2align 4,,15
 163              		.global	gptStop
 164              		.thumb
 165              		.thumb_func
 166              		.type	gptStop, %function
 167              	gptStop:
 168              	.LFB121:
ARM GAS  /tmp/ccBuPKgD.s 			page 4


 169              		.loc 1 107 0
 170              		.cfi_startproc
 171              		@ args = 0, pretend = 0, frame = 0
 172              		@ frame_needed = 0, uses_anonymous_args = 0
 173              	.LVL15:
 174 0000 10B5     		push	{r4, lr}
 175              	.LCFI1:
 176              		.cfi_def_cfa_offset 8
 177              		.cfi_offset 4, -8
 178              		.cfi_offset 14, -4
 179              		.loc 1 109 0
 180 0002 0446     		mov	r4, r0
 181 0004 B0B1     		cbz	r0, .L16
 182              	.LVL16:
 183              	.L14:
 184              	.LBB4:
 185              		.loc 1 111 0
 186 0006 2023     		movs	r3, #32
 187              	.LVL17:
 188              	@ 111 "../../ChibiOS/os/hal/src/gpt.c" 1
 189 0008 83F31188 		msr     BASEPRI, r3
 190              	@ 0 "" 2
 191              	.LVL18:
 192              		.thumb
 193              	.LBE4:
 194 000c FFF7FEFF 		bl	dbg_check_lock
 195              	.LVL19:
 196              		.loc 1 112 0
 197 0010 2378     		ldrb	r3, [r4, #0]	@ zero_extendqisi2
 198 0012 013B     		subs	r3, r3, #1
 199 0014 012B     		cmp	r3, #1
 200 0016 02D9     		bls	.L15
 201              		.loc 1 112 0 is_stmt 0 discriminator 1
 202 0018 0848     		ldr	r0, .L17
 203 001a FFF7FEFF 		bl	chDbgPanic
 204              	.LVL20:
 205              	.L15:
 206              		.loc 1 114 0 is_stmt 1
 207 001e 2046     		mov	r0, r4
 208 0020 FFF7FEFF 		bl	gpt_lld_stop
 209              	.LVL21:
 210              		.loc 1 115 0
 211 0024 0123     		movs	r3, #1
 212 0026 2370     		strb	r3, [r4, #0]
 213              		.loc 1 116 0
 214 0028 FFF7FEFF 		bl	dbg_check_unlock
 215              	.LVL22:
 216              	.LBB5:
 217 002c 0023     		movs	r3, #0
 218              	.LVL23:
 219              	@ 116 "../../ChibiOS/os/hal/src/gpt.c" 1
 220 002e 83F31188 		msr     BASEPRI, r3
 221              	@ 0 "" 2
 222              	.LVL24:
 223              		.thumb
 224 0032 10BD     		pop	{r4, pc}
 225              	.LVL25:
ARM GAS  /tmp/ccBuPKgD.s 			page 5


 226              	.L16:
 227              	.LBE5:
 228              		.loc 1 109 0 discriminator 1
 229 0034 0248     		ldr	r0, .L17+4
 230              	.LVL26:
 231 0036 FFF7FEFF 		bl	chDbgPanic
 232              	.LVL27:
 233 003a E4E7     		b	.L14
 234              	.L18:
 235              		.align	2
 236              	.L17:
 237 003c 28000000 		.word	.LC3
 238 0040 1C000000 		.word	.LC2
 239              		.cfi_endproc
 240              	.LFE121:
 241              		.size	gptStop, .-gptStop
 242 0044 AFF30080 		.section	.text.gptChangeInterval,"ax",%progbits
 242      AFF30080 
 242      AFF30080 
 243              		.align	2
 244              		.p2align 4,,15
 245              		.global	gptChangeInterval
 246              		.thumb
 247              		.thumb_func
 248              		.type	gptChangeInterval, %function
 249              	gptChangeInterval:
 250              	.LFB122:
 251              		.loc 1 132 0
 252              		.cfi_startproc
 253              		@ args = 0, pretend = 0, frame = 0
 254              		@ frame_needed = 0, uses_anonymous_args = 0
 255              	.LVL28:
 256 0000 38B5     		push	{r3, r4, r5, lr}
 257              	.LCFI2:
 258              		.cfi_def_cfa_offset 16
 259              		.cfi_offset 3, -16
 260              		.cfi_offset 4, -12
 261              		.cfi_offset 5, -8
 262              		.cfi_offset 14, -4
 263              		.loc 1 134 0
 264 0002 0446     		mov	r4, r0
 265              		.loc 1 132 0
 266 0004 0D46     		mov	r5, r1
 267              		.loc 1 134 0
 268 0006 A0B1     		cbz	r0, .L25
 269              	.LVL29:
 270              	.L20:
 271              	.LBB6:
 272              		.loc 1 136 0
 273 0008 2023     		movs	r3, #32
 274              	.LVL30:
 275              	@ 136 "../../ChibiOS/os/hal/src/gpt.c" 1
 276 000a 83F31188 		msr     BASEPRI, r3
 277              	@ 0 "" 2
 278              	.LVL31:
 279              		.thumb
 280              	.LBE6:
ARM GAS  /tmp/ccBuPKgD.s 			page 6


 281 000e FFF7FEFF 		bl	dbg_check_lock
 282              	.LVL32:
 283              		.loc 1 137 0
 284 0012 2378     		ldrb	r3, [r4, #0]	@ zero_extendqisi2
 285 0014 032B     		cmp	r3, #3
 286 0016 02D0     		beq	.L21
 287              		.loc 1 137 0 is_stmt 0 discriminator 1
 288 0018 0848     		ldr	r0, .L26
 289 001a FFF7FEFF 		bl	chDbgPanic
 290              	.LVL33:
 291              	.L21:
 292              		.loc 1 139 0 is_stmt 1
 293 001e E368     		ldr	r3, [r4, #12]
 294 0020 013D     		subs	r5, r5, #1
 295 0022 ADB2     		uxth	r5, r5
 296 0024 DD62     		str	r5, [r3, #44]
 297              		.loc 1 140 0
 298 0026 FFF7FEFF 		bl	dbg_check_unlock
 299              	.LVL34:
 300              	.LBB7:
 301 002a 0023     		movs	r3, #0
 302              	.LVL35:
 303              	@ 140 "../../ChibiOS/os/hal/src/gpt.c" 1
 304 002c 83F31188 		msr     BASEPRI, r3
 305              	@ 0 "" 2
 306              	.LVL36:
 307              		.thumb
 308 0030 38BD     		pop	{r3, r4, r5, pc}
 309              	.LVL37:
 310              	.L25:
 311              	.LBE7:
 312              		.loc 1 134 0 discriminator 1
 313 0032 0348     		ldr	r0, .L26+4
 314              	.LVL38:
 315 0034 FFF7FEFF 		bl	chDbgPanic
 316              	.LVL39:
 317 0038 E6E7     		b	.L20
 318              	.L27:
 319 003a 00BF     		.align	2
 320              	.L26:
 321 003c 50000000 		.word	.LC5
 322 0040 38000000 		.word	.LC4
 323              		.cfi_endproc
 324              	.LFE122:
 325              		.size	gptChangeInterval, .-gptChangeInterval
 326 0044 AFF30080 		.section	.text.gptStartContinuousI,"ax",%progbits
 326      AFF30080 
 326      AFF30080 
 327              		.align	2
 328              		.p2align 4,,15
 329              		.global	gptStartContinuousI
 330              		.thumb
 331              		.thumb_func
 332              		.type	gptStartContinuousI, %function
 333              	gptStartContinuousI:
 334              	.LFB124:
 335              		.loc 1 166 0
ARM GAS  /tmp/ccBuPKgD.s 			page 7


 336              		.cfi_startproc
 337              		@ args = 0, pretend = 0, frame = 0
 338              		@ frame_needed = 0, uses_anonymous_args = 0
 339              	.LVL40:
 340 0000 38B5     		push	{r3, r4, r5, lr}
 341              	.LCFI3:
 342              		.cfi_def_cfa_offset 16
 343              		.cfi_offset 3, -16
 344              		.cfi_offset 4, -12
 345              		.cfi_offset 5, -8
 346              		.cfi_offset 14, -4
 347              		.loc 1 166 0
 348 0002 0446     		mov	r4, r0
 349 0004 0D46     		mov	r5, r1
 350              		.loc 1 168 0
 351 0006 FFF7FEFF 		bl	chDbgCheckClassI
 352              	.LVL41:
 353              		.loc 1 169 0
 354 000a 6CB1     		cbz	r4, .L34
 355              	.L29:
 356              		.loc 1 170 0
 357 000c 2378     		ldrb	r3, [r4, #0]	@ zero_extendqisi2
 358 000e 022B     		cmp	r3, #2
 359 0010 02D0     		beq	.L30
 360              		.loc 1 170 0 is_stmt 0 discriminator 1
 361 0012 0748     		ldr	r0, .L35
 362 0014 FFF7FEFF 		bl	chDbgPanic
 363              	.LVL42:
 364              	.L30:
 365              		.loc 1 173 0 is_stmt 1
 366 0018 0323     		movs	r3, #3
 367              		.loc 1 174 0
 368 001a 2046     		mov	r0, r4
 369 001c 2946     		mov	r1, r5
 370              		.loc 1 173 0
 371 001e 2370     		strb	r3, [r4, #0]
 372              		.loc 1 175 0
 373 0020 BDE83840 		pop	{r3, r4, r5, lr}
 374              		.loc 1 174 0
 375 0024 FFF7FEBF 		b	gpt_lld_start_timer
 376              	.LVL43:
 377              	.L34:
 378              		.loc 1 169 0 discriminator 1
 379 0028 0248     		ldr	r0, .L35+4
 380 002a FFF7FEFF 		bl	chDbgPanic
 381              	.LVL44:
 382 002e EDE7     		b	.L29
 383              	.L36:
 384              		.align	2
 385              	.L35:
 386 0030 80000000 		.word	.LC7
 387 0034 68000000 		.word	.LC6
 388              		.cfi_endproc
 389              	.LFE124:
 390              		.size	gptStartContinuousI, .-gptStartContinuousI
 391 0038 AFF30080 		.section	.text.gptStartContinuous,"ax",%progbits
 391      AFF30080 
ARM GAS  /tmp/ccBuPKgD.s 			page 8


 392              		.align	2
 393              		.p2align 4,,15
 394              		.global	gptStartContinuous
 395              		.thumb
 396              		.thumb_func
 397              		.type	gptStartContinuous, %function
 398              	gptStartContinuous:
 399              	.LFB123:
 400              		.loc 1 151 0
 401              		.cfi_startproc
 402              		@ args = 0, pretend = 0, frame = 0
 403              		@ frame_needed = 0, uses_anonymous_args = 0
 404              	.LVL45:
 405 0000 38B5     		push	{r3, r4, r5, lr}
 406              	.LCFI4:
 407              		.cfi_def_cfa_offset 16
 408              		.cfi_offset 3, -16
 409              		.cfi_offset 4, -12
 410              		.cfi_offset 5, -8
 411              		.cfi_offset 14, -4
 412              		.loc 1 151 0
 413 0002 0546     		mov	r5, r0
 414 0004 0C46     		mov	r4, r1
 415              	.LBB8:
 416              		.loc 1 153 0
 417 0006 2023     		movs	r3, #32
 418              	.LVL46:
 419              	@ 153 "../../ChibiOS/os/hal/src/gpt.c" 1
 420 0008 83F31188 		msr     BASEPRI, r3
 421              	@ 0 "" 2
 422              	.LVL47:
 423              		.thumb
 424              	.LBE8:
 425 000c FFF7FEFF 		bl	dbg_check_lock
 426              	.LVL48:
 427              		.loc 1 154 0
 428 0010 2846     		mov	r0, r5
 429 0012 2146     		mov	r1, r4
 430 0014 FFF7FEFF 		bl	gptStartContinuousI
 431              	.LVL49:
 432              		.loc 1 155 0
 433 0018 FFF7FEFF 		bl	dbg_check_unlock
 434              	.LVL50:
 435              	.LBB9:
 436 001c 0023     		movs	r3, #0
 437              	.LVL51:
 438              	@ 155 "../../ChibiOS/os/hal/src/gpt.c" 1
 439 001e 83F31188 		msr     BASEPRI, r3
 440              	@ 0 "" 2
 441              	.LVL52:
 442              		.thumb
 443 0022 38BD     		pop	{r3, r4, r5, pc}
 444              	.LBE9:
 445              		.cfi_endproc
 446              	.LFE123:
 447              		.size	gptStartContinuous, .-gptStartContinuous
 448 0024 AFF30080 		.section	.text.gptStartOneShotI,"ax",%progbits
ARM GAS  /tmp/ccBuPKgD.s 			page 9


 448      AFF30080 
 448      AFF30080 
 449              		.align	2
 450              		.p2align 4,,15
 451              		.global	gptStartOneShotI
 452              		.thumb
 453              		.thumb_func
 454              		.type	gptStartOneShotI, %function
 455              	gptStartOneShotI:
 456              	.LFB126:
 457              		.loc 1 200 0
 458              		.cfi_startproc
 459              		@ args = 0, pretend = 0, frame = 0
 460              		@ frame_needed = 0, uses_anonymous_args = 0
 461              	.LVL53:
 462 0000 38B5     		push	{r3, r4, r5, lr}
 463              	.LCFI5:
 464              		.cfi_def_cfa_offset 16
 465              		.cfi_offset 3, -16
 466              		.cfi_offset 4, -12
 467              		.cfi_offset 5, -8
 468              		.cfi_offset 14, -4
 469              		.loc 1 200 0
 470 0002 0446     		mov	r4, r0
 471 0004 0D46     		mov	r5, r1
 472              		.loc 1 202 0
 473 0006 FFF7FEFF 		bl	chDbgCheckClassI
 474              	.LVL54:
 475              		.loc 1 203 0
 476 000a 6CB1     		cbz	r4, .L44
 477              	.L39:
 478              		.loc 1 204 0
 479 000c 2378     		ldrb	r3, [r4, #0]	@ zero_extendqisi2
 480 000e 022B     		cmp	r3, #2
 481 0010 02D0     		beq	.L40
 482              		.loc 1 204 0 is_stmt 0 discriminator 1
 483 0012 0748     		ldr	r0, .L45
 484 0014 FFF7FEFF 		bl	chDbgPanic
 485              	.LVL55:
 486              	.L40:
 487              		.loc 1 207 0 is_stmt 1
 488 0018 0423     		movs	r3, #4
 489              		.loc 1 208 0
 490 001a 2046     		mov	r0, r4
 491 001c 2946     		mov	r1, r5
 492              		.loc 1 207 0
 493 001e 2370     		strb	r3, [r4, #0]
 494              		.loc 1 209 0
 495 0020 BDE83840 		pop	{r3, r4, r5, lr}
 496              		.loc 1 208 0
 497 0024 FFF7FEBF 		b	gpt_lld_start_timer
 498              	.LVL56:
 499              	.L44:
 500              		.loc 1 203 0 discriminator 1
 501 0028 0248     		ldr	r0, .L45+4
 502 002a FFF7FEFF 		bl	chDbgPanic
 503              	.LVL57:
ARM GAS  /tmp/ccBuPKgD.s 			page 10


 504 002e EDE7     		b	.L39
 505              	.L46:
 506              		.align	2
 507              	.L45:
 508 0030 B4000000 		.word	.LC9
 509 0034 9C000000 		.word	.LC8
 510              		.cfi_endproc
 511              	.LFE126:
 512              		.size	gptStartOneShotI, .-gptStartOneShotI
 513 0038 AFF30080 		.section	.text.gptStartOneShot,"ax",%progbits
 513      AFF30080 
 514              		.align	2
 515              		.p2align 4,,15
 516              		.global	gptStartOneShot
 517              		.thumb
 518              		.thumb_func
 519              		.type	gptStartOneShot, %function
 520              	gptStartOneShot:
 521              	.LFB125:
 522              		.loc 1 185 0
 523              		.cfi_startproc
 524              		@ args = 0, pretend = 0, frame = 0
 525              		@ frame_needed = 0, uses_anonymous_args = 0
 526              	.LVL58:
 527 0000 38B5     		push	{r3, r4, r5, lr}
 528              	.LCFI6:
 529              		.cfi_def_cfa_offset 16
 530              		.cfi_offset 3, -16
 531              		.cfi_offset 4, -12
 532              		.cfi_offset 5, -8
 533              		.cfi_offset 14, -4
 534              		.loc 1 185 0
 535 0002 0546     		mov	r5, r0
 536 0004 0C46     		mov	r4, r1
 537              	.LBB10:
 538              		.loc 1 187 0
 539 0006 2023     		movs	r3, #32
 540              	.LVL59:
 541              	@ 187 "../../ChibiOS/os/hal/src/gpt.c" 1
 542 0008 83F31188 		msr     BASEPRI, r3
 543              	@ 0 "" 2
 544              	.LVL60:
 545              		.thumb
 546              	.LBE10:
 547 000c FFF7FEFF 		bl	dbg_check_lock
 548              	.LVL61:
 549              		.loc 1 188 0
 550 0010 2846     		mov	r0, r5
 551 0012 2146     		mov	r1, r4
 552 0014 FFF7FEFF 		bl	gptStartOneShotI
 553              	.LVL62:
 554              		.loc 1 189 0
 555 0018 FFF7FEFF 		bl	dbg_check_unlock
 556              	.LVL63:
 557              	.LBB11:
 558 001c 0023     		movs	r3, #0
 559              	.LVL64:
ARM GAS  /tmp/ccBuPKgD.s 			page 11


 560              	@ 189 "../../ChibiOS/os/hal/src/gpt.c" 1
 561 001e 83F31188 		msr     BASEPRI, r3
 562              	@ 0 "" 2
 563              	.LVL65:
 564              		.thumb
 565 0022 38BD     		pop	{r3, r4, r5, pc}
 566              	.LBE11:
 567              		.cfi_endproc
 568              	.LFE125:
 569              		.size	gptStartOneShot, .-gptStartOneShot
 570 0024 AFF30080 		.section	.text.gptStopTimerI,"ax",%progbits
 570      AFF30080 
 570      AFF30080 
 571              		.align	2
 572              		.p2align 4,,15
 573              		.global	gptStopTimerI
 574              		.thumb
 575              		.thumb_func
 576              		.type	gptStopTimerI, %function
 577              	gptStopTimerI:
 578              	.LFB128:
 579              		.loc 1 232 0
 580              		.cfi_startproc
 581              		@ args = 0, pretend = 0, frame = 0
 582              		@ frame_needed = 0, uses_anonymous_args = 0
 583              	.LVL66:
 584 0000 10B5     		push	{r4, lr}
 585              	.LCFI7:
 586              		.cfi_def_cfa_offset 8
 587              		.cfi_offset 4, -8
 588              		.cfi_offset 14, -4
 589              		.loc 1 232 0
 590 0002 0446     		mov	r4, r0
 591              		.loc 1 234 0
 592 0004 FFF7FEFF 		bl	chDbgCheckClassI
 593              	.LVL67:
 594              		.loc 1 235 0
 595 0008 6CB1     		cbz	r4, .L51
 596              	.L49:
 597              		.loc 1 236 0
 598 000a 2378     		ldrb	r3, [r4, #0]	@ zero_extendqisi2
 599 000c 023B     		subs	r3, r3, #2
 600 000e 022B     		cmp	r3, #2
 601 0010 02D9     		bls	.L50
 602              		.loc 1 236 0 is_stmt 0 discriminator 1
 603 0012 0748     		ldr	r0, .L52
 604 0014 FFF7FEFF 		bl	chDbgPanic
 605              	.LVL68:
 606              	.L50:
 607              		.loc 1 240 0 is_stmt 1
 608 0018 0223     		movs	r3, #2
 609              		.loc 1 241 0
 610 001a 2046     		mov	r0, r4
 611              		.loc 1 240 0
 612 001c 2370     		strb	r3, [r4, #0]
 613              		.loc 1 242 0
 614 001e BDE81040 		pop	{r4, lr}
ARM GAS  /tmp/ccBuPKgD.s 			page 12


 615              		.loc 1 241 0
 616 0022 FFF7FEBF 		b	gpt_lld_stop_timer
 617              	.LVL69:
 618              	.L51:
 619              		.loc 1 235 0 discriminator 1
 620 0026 0348     		ldr	r0, .L52+4
 621 0028 FFF7FEFF 		bl	chDbgPanic
 622              	.LVL70:
 623 002c EDE7     		b	.L49
 624              	.L53:
 625 002e 00BF     		.align	2
 626              	.L52:
 627 0030 E0000000 		.word	.LC11
 628 0034 CC000000 		.word	.LC10
 629              		.cfi_endproc
 630              	.LFE128:
 631              		.size	gptStopTimerI, .-gptStopTimerI
 632 0038 AFF30080 		.section	.text.gptStopTimer,"ax",%progbits
 632      AFF30080 
 633              		.align	2
 634              		.p2align 4,,15
 635              		.global	gptStopTimer
 636              		.thumb
 637              		.thumb_func
 638              		.type	gptStopTimer, %function
 639              	gptStopTimer:
 640              	.LFB127:
 641              		.loc 1 218 0
 642              		.cfi_startproc
 643              		@ args = 0, pretend = 0, frame = 0
 644              		@ frame_needed = 0, uses_anonymous_args = 0
 645              	.LVL71:
 646 0000 10B5     		push	{r4, lr}
 647              	.LCFI8:
 648              		.cfi_def_cfa_offset 8
 649              		.cfi_offset 4, -8
 650              		.cfi_offset 14, -4
 651              	.LBB12:
 652              		.loc 1 220 0
 653 0002 2023     		movs	r3, #32
 654              	.LVL72:
 655              	.LBE12:
 656              		.loc 1 218 0
 657 0004 0446     		mov	r4, r0
 658              	.LBB13:
 659              		.loc 1 220 0
 660              	@ 220 "../../ChibiOS/os/hal/src/gpt.c" 1
 661 0006 83F31188 		msr     BASEPRI, r3
 662              	@ 0 "" 2
 663              	.LVL73:
 664              		.thumb
 665              	.LBE13:
 666 000a FFF7FEFF 		bl	dbg_check_lock
 667              	.LVL74:
 668              		.loc 1 221 0
 669 000e 2046     		mov	r0, r4
 670 0010 FFF7FEFF 		bl	gptStopTimerI
ARM GAS  /tmp/ccBuPKgD.s 			page 13


 671              	.LVL75:
 672              		.loc 1 222 0
 673 0014 FFF7FEFF 		bl	dbg_check_unlock
 674              	.LVL76:
 675              	.LBB14:
 676 0018 0023     		movs	r3, #0
 677              	.LVL77:
 678              	@ 222 "../../ChibiOS/os/hal/src/gpt.c" 1
 679 001a 83F31188 		msr     BASEPRI, r3
 680              	@ 0 "" 2
 681              	.LVL78:
 682              		.thumb
 683 001e 10BD     		pop	{r4, pc}
 684              	.LBE14:
 685              		.cfi_endproc
 686              	.LFE127:
 687              		.size	gptStopTimer, .-gptStopTimer
 688              		.section	.text.gptPolledDelay,"ax",%progbits
 689              		.align	2
 690              		.p2align 4,,15
 691              		.global	gptPolledDelay
 692              		.thumb
 693              		.thumb_func
 694              		.type	gptPolledDelay, %function
 695              	gptPolledDelay:
 696              	.LFB129:
 697              		.loc 1 256 0
 698              		.cfi_startproc
 699              		@ args = 0, pretend = 0, frame = 0
 700              		@ frame_needed = 0, uses_anonymous_args = 0
 701              	.LVL79:
 702 0000 38B5     		push	{r3, r4, r5, lr}
 703              	.LCFI9:
 704              		.cfi_def_cfa_offset 16
 705              		.cfi_offset 3, -16
 706              		.cfi_offset 4, -12
 707              		.cfi_offset 5, -8
 708              		.cfi_offset 14, -4
 709              		.loc 1 258 0
 710 0002 0378     		ldrb	r3, [r0, #0]	@ zero_extendqisi2
 711 0004 022B     		cmp	r3, #2
 712              		.loc 1 256 0
 713 0006 0446     		mov	r4, r0
 714 0008 0D46     		mov	r5, r1
 715              		.loc 1 258 0
 716 000a 02D0     		beq	.L56
 717              		.loc 1 258 0 is_stmt 0 discriminator 1
 718 000c 0548     		ldr	r0, .L60
 719              	.LVL80:
 720 000e FFF7FEFF 		bl	chDbgPanic
 721              	.LVL81:
 722              	.L56:
 723              		.loc 1 261 0 is_stmt 1
 724 0012 0423     		movs	r3, #4
 725 0014 2370     		strb	r3, [r4, #0]
 726              		.loc 1 262 0
 727 0016 2046     		mov	r0, r4
ARM GAS  /tmp/ccBuPKgD.s 			page 14


 728 0018 2946     		mov	r1, r5
 729 001a FFF7FEFF 		bl	gpt_lld_polled_delay
 730              	.LVL82:
 731              		.loc 1 263 0
 732 001e 0223     		movs	r3, #2
 733 0020 2370     		strb	r3, [r4, #0]
 734 0022 38BD     		pop	{r3, r4, r5, pc}
 735              	.L61:
 736              		.align	2
 737              	.L60:
 738 0024 F4000000 		.word	.LC12
 739              		.cfi_endproc
 740              	.LFE129:
 741              		.size	gptPolledDelay, .-gptPolledDelay
 742 0028 AFF30080 		.section	.rodata.str1.4,"aMS",%progbits,1
 742      AFF30080 
 743              		.align	2
 744              	.LC0:
 745 0000 22707453 		.ascii	"\"ptStart\"()\000"
 745      74617274 
 745      22282900 
 746              	.LC1:
 747 000c 67707453 		.ascii	"gptStart(), #1\000"
 747      74617274 
 747      28292C20 
 747      233100
 748 001b 00       		.space	1
 749              	.LC2:
 750 001c 22677074 		.ascii	"\"gptStop\"()\000"
 750      53746F70 
 750      22282900 
 751              	.LC3:
 752 0028 67707453 		.ascii	"gptStop(), #1\000"
 752      746F7028 
 752      292C2023 
 752      3100
 753 0036 0000     		.space	2
 754              	.LC4:
 755 0038 22677074 		.ascii	"\"gptChangeInterval\"()\000"
 755      4368616E 
 755      6765496E 
 755      74657276 
 755      616C2228 
 756 004e 0000     		.space	2
 757              	.LC5:
 758 0050 67707443 		.ascii	"gptChangeInterval(), #1\000"
 758      68616E67 
 758      65496E74 
 758      65727661 
 758      6C28292C 
 759              	.LC6:
 760 0068 22677074 		.ascii	"\"gptStartContinuousI\"()\000"
 760      53746172 
 760      74436F6E 
 760      74696E75 
 760      6F757349 
 761              	.LC7:
ARM GAS  /tmp/ccBuPKgD.s 			page 15


 762 0080 67707453 		.ascii	"gptStartContinuousI(), #1\000"
 762      74617274 
 762      436F6E74 
 762      696E756F 
 762      75734928 
 763 009a 0000     		.space	2
 764              	.LC8:
 765 009c 22677074 		.ascii	"\"gptStartOneShotI\"()\000"
 765      53746172 
 765      744F6E65 
 765      53686F74 
 765      49222829 
 766 00b1 000000   		.space	3
 767              	.LC9:
 768 00b4 67707453 		.ascii	"gptStartOneShotI(), #1\000"
 768      74617274 
 768      4F6E6553 
 768      686F7449 
 768      28292C20 
 769 00cb 00       		.space	1
 770              	.LC10:
 771 00cc 22677074 		.ascii	"\"gptStopTimerI\"()\000"
 771      53746F70 
 771      54696D65 
 771      72492228 
 771      2900
 772 00de 0000     		.space	2
 773              	.LC11:
 774 00e0 67707453 		.ascii	"gptStopTimerI(), #1\000"
 774      746F7054 
 774      696D6572 
 774      4928292C 
 774      20233100 
 775              	.LC12:
 776 00f4 67707450 		.ascii	"gptPolledDelay(), #1\000"
 776      6F6C6C65 
 776      6444656C 
 776      61792829 
 776      2C202331 
 777 0109 000000   		.text
 778              	.Letext0:
 779              		.file 2 "/opt/psas/x-tools/stm32f407/arm-psas-eabi/bin/../lib/gcc/arm-psas-eabi/4.7.2/../../../../
 780              		.file 3 "../../ChibiOS/os/hal/platforms/STM32/stm32.h"
 781              		.file 4 "../../ChibiOS/os/hal/include/gpt.h"
 782              		.file 5 "../../ChibiOS/os/hal/platforms/STM32/gpt_lld.h"
 783              		.file 6 "../../ChibiOS/os/kernel/include/chdebug.h"
 784              		.file 7 "../../ChibiOS/os/ports/common/ARMCMx/CMSIS/include/core_cm4.h"