ARM GAS  /tmp/ccGLwFpz.s 			page 1


   1              		.syntax unified
   2              		.cpu cortex-m4
   3              		.eabi_attribute 27, 3
   4              		.eabi_attribute 28, 1
   5              		.fpu fpv4-sp-d16
   6              		.eabi_attribute 20, 1
   7              		.eabi_attribute 21, 1
   8              		.eabi_attribute 23, 3
   9              		.eabi_attribute 24, 1
  10              		.eabi_attribute 25, 1
  11              		.eabi_attribute 26, 1
  12              		.eabi_attribute 30, 2
  13              		.eabi_attribute 34, 1
  14              		.eabi_attribute 18, 4
  15              		.thumb
  16              		.file	"gpt_lld.c"
  17              		.text
  18              	.Ltext0:
  19              		.cfi_sections	.debug_frame
  20              		.section	.text.VectorA4,"ax",%progbits
  21              		.align	2
  22              		.p2align 4,,15
  23              		.global	VectorA4
  24              		.thumb
  25              		.thumb_func
  26              		.type	VectorA4, %function
  27              	VectorA4:
  28              	.LFB119:
  29              		.file 1 "../../ChibiOS/os/hal/platforms/STM32/gpt_lld.c"
  30              		.loc 1 170 0
  31              		.cfi_startproc
  32              		@ args = 0, pretend = 0, frame = 0
  33              		@ frame_needed = 0, uses_anonymous_args = 0
  34 0000 08B5     		push	{r3, lr}
  35              	.LCFI0:
  36              		.cfi_def_cfa_offset 8
  37              		.cfi_offset 3, -8
  38              		.cfi_offset 14, -4
  39              		.loc 1 172 0
  40 0002 FFF7FEFF 		bl	dbg_check_enter_isr
  41              	.LVL0:
  42              	.LBB8:
  43              	.LBB9:
  44              		.loc 1 149 0
  45 0006 0B4B     		ldr	r3, .L4
  46              		.loc 1 150 0
  47 0008 1878     		ldrb	r0, [r3, #0]	@ zero_extendqisi2
  48              		.loc 1 149 0
  49 000a DA68     		ldr	r2, [r3, #12]
  50 000c 0021     		movs	r1, #0
  51              		.loc 1 150 0
  52 000e 0428     		cmp	r0, #4
  53              		.loc 1 149 0
  54 0010 1182     		strh	r1, [r2, #16]	@ movhi
  55              		.loc 1 150 0
  56 0012 04D1     		bne	.L2
  57              		.loc 1 151 0
ARM GAS  /tmp/ccGLwFpz.s 			page 2


  58 0014 0220     		movs	r0, #2
  59 0016 1870     		strb	r0, [r3, #0]
  60              	.LVL1:
  61              	.LBB10:
  62              	.LBB11:
  63              		.loc 1 734 0
  64 0018 1180     		strh	r1, [r2, #0]	@ movhi
  65              		.loc 1 735 0
  66 001a 1182     		strh	r1, [r2, #16]	@ movhi
  67              		.loc 1 736 0
  68 001c 9181     		strh	r1, [r2, #12]	@ movhi
  69              	.LVL2:
  70              	.L2:
  71              	.LBE11:
  72              	.LBE10:
  73              		.loc 1 154 0
  74 001e 5B68     		ldr	r3, [r3, #4]
  75 0020 0448     		ldr	r0, .L4
  76 0022 5B68     		ldr	r3, [r3, #4]
  77 0024 9847     		blx	r3
  78              	.LVL3:
  79              	.LBE9:
  80              	.LBE8:
  81              		.loc 1 176 0
  82 0026 FFF7FEFF 		bl	dbg_check_leave_isr
  83              	.LVL4:
  84              		.loc 1 177 0
  85 002a BDE80840 		pop	{r3, lr}
  86              		.loc 1 176 0
  87 002e FFF7FEBF 		b	_port_irq_epilogue
  88              	.LVL5:
  89              	.L5:
  90 0032 00BF     		.align	2
  91              	.L4:
  92 0034 00000000 		.word	.LANCHOR0
  93              		.cfi_endproc
  94              	.LFE119:
  95              		.size	VectorA4, .-VectorA4
  96 0038 AFF30080 		.section	.text.gpt_lld_init,"ax",%progbits
  96      AFF30080 
  97              		.align	2
  98              		.p2align 4,,15
  99              		.global	gpt_lld_init
 100              		.thumb
 101              		.thumb_func
 102              		.type	gpt_lld_init, %function
 103              	gpt_lld_init:
 104              	.LFB120:
 105              		.loc 1 398 0
 106              		.cfi_startproc
 107              		@ args = 0, pretend = 0, frame = 0
 108              		@ frame_needed = 0, uses_anonymous_args = 0
 109              		@ link register save eliminated.
 110              		.loc 1 402 0
 111 0000 40F20003 		movw	r3, #:lower16:.LANCHOR0
 112 0004 C0F20003 		movt	r3, #:upper16:.LANCHOR0
 113 0008 0022     		movs	r2, #0
ARM GAS  /tmp/ccGLwFpz.s 			page 3


 114 000a C4F20102 		movt	r2, 16385
 115              		.loc 1 403 0
 116 000e 1846     		mov	r0, r3
 117              		.loc 1 402 0
 118 0010 DA60     		str	r2, [r3, #12]
 119              		.loc 1 471 0
 120              		.loc 1 403 0
 121 0012 FFF7FEBF 		b	gptObjectInit
 122              	.LVL6:
 123              		.cfi_endproc
 124              	.LFE120:
 125              		.size	gpt_lld_init, .-gpt_lld_init
 126 0016 00BFAFF3 		.section	.text.gpt_lld_start,"ax",%progbits
 126      0080AFF3 
 126      0080
 127              		.align	2
 128              		.p2align 4,,15
 129              		.global	gpt_lld_start
 130              		.thumb
 131              		.thumb_func
 132              		.type	gpt_lld_start, %function
 133              	gpt_lld_start:
 134              	.LFB121:
 135              		.loc 1 480 0
 136              		.cfi_startproc
 137              		@ args = 0, pretend = 0, frame = 0
 138              		@ frame_needed = 0, uses_anonymous_args = 0
 139              	.LVL7:
 140 0000 38B5     		push	{r3, r4, r5, lr}
 141              	.LCFI1:
 142              		.cfi_def_cfa_offset 16
 143              		.cfi_offset 3, -16
 144              		.cfi_offset 4, -12
 145              		.cfi_offset 5, -8
 146              		.cfi_offset 14, -4
 147              		.loc 1 483 0
 148 0002 0378     		ldrb	r3, [r0, #0]	@ zero_extendqisi2
 149 0004 012B     		cmp	r3, #1
 150              		.loc 1 480 0
 151 0006 0446     		mov	r4, r0
 152              		.loc 1 483 0
 153 0008 15D0     		beq	.L10
 154              	.LVL8:
 155              	.L8:
 156              		.loc 1 604 0
 157 000a 6368     		ldr	r3, [r4, #4]
 158 000c A268     		ldr	r2, [r4, #8]
 159 000e 1B68     		ldr	r3, [r3, #0]
 160 0010 B2FBF3F5 		udiv	r5, r2, r3
 161 0014 013D     		subs	r5, r5, #1
 162 0016 ADB2     		uxth	r5, r5
 163              	.LVL9:
 164              		.loc 1 605 0
 165 0018 05FB0333 		mla	r3, r5, r3, r3
 166 001c 9A42     		cmp	r2, r3
 167 001e 02D0     		beq	.L9
 168              		.loc 1 605 0 is_stmt 0 discriminator 1
ARM GAS  /tmp/ccGLwFpz.s 			page 4


 169 0020 1248     		ldr	r0, .L11
 170 0022 FFF7FEFF 		bl	chDbgPanic
 171              	.LVL10:
 172              	.L9:
 173              		.loc 1 609 0 is_stmt 1
 174 0026 E368     		ldr	r3, [r4, #12]
 175 0028 0022     		movs	r2, #0
 176              		.loc 1 610 0
 177 002a 0821     		movs	r1, #8
 178              		.loc 1 609 0
 179 002c 1A80     		strh	r2, [r3, #0]	@ movhi
 180              		.loc 1 610 0
 181 002e 9980     		strh	r1, [r3, #4]	@ movhi
 182              		.loc 1 611 0
 183 0030 1D85     		strh	r5, [r3, #40]	@ movhi
 184              		.loc 1 612 0
 185 0032 9A81     		strh	r2, [r3, #12]	@ movhi
 186 0034 38BD     		pop	{r3, r4, r5, pc}
 187              	.LVL11:
 188              	.L10:
 189              		.loc 1 486 0
 190 0036 0E4B     		ldr	r3, .L11+4
 191 0038 9842     		cmp	r0, r3
 192 003a E6D1     		bne	.L8
 193              		.loc 1 487 0
 194 003c 4FF46053 		mov	r3, #14336
 195 0040 C4F20203 		movt	r3, 16386
 196              		.loc 1 489 0
 197 0044 1920     		movs	r0, #25
 198              	.LVL12:
 199              		.loc 1 487 0
 200 0046 5A6C     		ldr	r2, [r3, #68]
 201 0048 42F00102 		orr	r2, r2, #1
 202 004c 5A64     		str	r2, [r3, #68]
 203              		.loc 1 488 0
 204 004e 5A6A     		ldr	r2, [r3, #36]
 205 0050 42F00102 		orr	r2, r2, #1
 206 0054 5A62     		str	r2, [r3, #36]
 207 0056 0022     		movs	r2, #0
 208 0058 5A62     		str	r2, [r3, #36]
 209              		.loc 1 489 0
 210 005a 7021     		movs	r1, #112
 211 005c FFF7FEFF 		bl	nvicEnableVector
 212              	.LVL13:
 213              		.loc 1 491 0
 214 0060 4FF4F443 		mov	r3, #31232
 215 0064 C0F60323 		movt	r3, 2563
 216 0068 A360     		str	r3, [r4, #8]
 217 006a CEE7     		b	.L8
 218              	.L12:
 219              		.align	2
 220              	.L11:
 221 006c 00000000 		.word	.LC0
 222 0070 00000000 		.word	.LANCHOR0
 223              		.cfi_endproc
 224              	.LFE121:
 225              		.size	gpt_lld_start, .-gpt_lld_start
ARM GAS  /tmp/ccGLwFpz.s 			page 5


 226 0074 AFF30080 		.section	.text.gpt_lld_stop,"ax",%progbits
 226      AFF30080 
 226      AFF30080 
 227              		.align	2
 228              		.p2align 4,,15
 229              		.global	gpt_lld_stop
 230              		.thumb
 231              		.thumb_func
 232              		.type	gpt_lld_stop, %function
 233              	gpt_lld_stop:
 234              	.LFB122:
 235              		.loc 1 622 0
 236              		.cfi_startproc
 237              		@ args = 0, pretend = 0, frame = 0
 238              		@ frame_needed = 0, uses_anonymous_args = 0
 239              	.LVL14:
 240 0000 08B5     		push	{r3, lr}
 241              	.LCFI2:
 242              		.cfi_def_cfa_offset 8
 243              		.cfi_offset 3, -8
 244              		.cfi_offset 14, -4
 245              		.loc 1 624 0
 246 0002 0378     		ldrb	r3, [r0, #0]	@ zero_extendqisi2
 247 0004 022B     		cmp	r3, #2
 248 0006 00D0     		beq	.L17
 249              	.LVL15:
 250              	.L13:
 251 0008 08BD     		pop	{r3, pc}
 252              	.LVL16:
 253              	.L17:
 254              		.loc 1 625 0
 255 000a C368     		ldr	r3, [r0, #12]
 256 000c 0022     		movs	r2, #0
 257 000e 1A80     		strh	r2, [r3, #0]	@ movhi
 258              		.loc 1 626 0
 259 0010 9A81     		strh	r2, [r3, #12]	@ movhi
 260              		.loc 1 627 0
 261 0012 1A82     		strh	r2, [r3, #16]	@ movhi
 262              		.loc 1 630 0
 263 0014 074B     		ldr	r3, .L18
 264 0016 9842     		cmp	r0, r3
 265 0018 F6D1     		bne	.L13
 266              		.loc 1 631 0
 267 001a 1920     		movs	r0, #25
 268              	.LVL17:
 269 001c FFF7FEFF 		bl	nvicDisableVector
 270              	.LVL18:
 271              		.loc 1 632 0
 272 0020 4FF46053 		mov	r3, #14336
 273 0024 C4F20203 		movt	r3, 16386
 274 0028 5A6C     		ldr	r2, [r3, #68]
 275 002a 22F00102 		bic	r2, r2, #1
 276 002e 5A64     		str	r2, [r3, #68]
 277 0030 EAE7     		b	.L13
 278              	.L19:
 279 0032 00BF     		.align	2
 280              	.L18:
ARM GAS  /tmp/ccGLwFpz.s 			page 6


 281 0034 00000000 		.word	.LANCHOR0
 282              		.cfi_endproc
 283              	.LFE122:
 284              		.size	gpt_lld_stop, .-gpt_lld_stop
 285 0038 AFF30080 		.section	.text.gpt_lld_start_timer,"ax",%progbits
 285      AFF30080 
 286              		.align	2
 287              		.p2align 4,,15
 288              		.global	gpt_lld_start_timer
 289              		.thumb
 290              		.thumb_func
 291              		.type	gpt_lld_start_timer, %function
 292              	gpt_lld_start_timer:
 293              	.LFB123:
 294              		.loc 1 712 0
 295              		.cfi_startproc
 296              		@ args = 0, pretend = 0, frame = 0
 297              		@ frame_needed = 0, uses_anonymous_args = 0
 298              		@ link register save eliminated.
 299              	.LVL19:
 300              		.loc 1 714 0
 301 0000 C368     		ldr	r3, [r0, #12]
 302              		.loc 1 715 0
 303 0002 0122     		movs	r2, #1
 304              		.loc 1 716 0
 305 0004 0020     		movs	r0, #0
 306              	.LVL20:
 307              		.loc 1 714 0
 308 0006 0139     		subs	r1, r1, #1
 309              	.LVL21:
 310 0008 D962     		str	r1, [r3, #44]
 311              		.loc 1 715 0
 312 000a 9A82     		strh	r2, [r3, #20]	@ movhi
 313              		.loc 1 716 0
 314 000c 5862     		str	r0, [r3, #36]
 315              		.loc 1 720 0
 316 000e 1882     		strh	r0, [r3, #16]	@ movhi
 317              		.loc 1 721 0
 318 0010 9A81     		strh	r2, [r3, #12]	@ movhi
 319              		.loc 1 722 0
 320 0012 0522     		movs	r2, #5
 321 0014 1A80     		strh	r2, [r3, #0]	@ movhi
 322 0016 7047     		bx	lr
 323              		.cfi_endproc
 324              	.LFE123:
 325              		.size	gpt_lld_start_timer, .-gpt_lld_start_timer
 326 0018 AFF30080 		.section	.text.gpt_lld_stop_timer,"ax",%progbits
 326      AFF30080 
 327              		.align	2
 328              		.p2align 4,,15
 329              		.global	gpt_lld_stop_timer
 330              		.thumb
 331              		.thumb_func
 332              		.type	gpt_lld_stop_timer, %function
 333              	gpt_lld_stop_timer:
 334              	.LFB124:
 335              		.loc 1 732 0
ARM GAS  /tmp/ccGLwFpz.s 			page 7


 336              		.cfi_startproc
 337              		@ args = 0, pretend = 0, frame = 0
 338              		@ frame_needed = 0, uses_anonymous_args = 0
 339              		@ link register save eliminated.
 340              	.LVL22:
 341              		.loc 1 734 0
 342 0000 C368     		ldr	r3, [r0, #12]
 343 0002 0022     		movs	r2, #0
 344 0004 1A80     		strh	r2, [r3, #0]	@ movhi
 345              		.loc 1 735 0
 346 0006 1A82     		strh	r2, [r3, #16]	@ movhi
 347              		.loc 1 736 0
 348 0008 9A81     		strh	r2, [r3, #12]	@ movhi
 349 000a 7047     		bx	lr
 350              		.cfi_endproc
 351              	.LFE124:
 352              		.size	gpt_lld_stop_timer, .-gpt_lld_stop_timer
 353 000c AFF30080 		.section	.text.gpt_lld_polled_delay,"ax",%progbits
 354              		.align	2
 355              		.p2align 4,,15
 356              		.global	gpt_lld_polled_delay
 357              		.thumb
 358              		.thumb_func
 359              		.type	gpt_lld_polled_delay, %function
 360              	gpt_lld_polled_delay:
 361              	.LFB125:
 362              		.loc 1 750 0
 363              		.cfi_startproc
 364              		@ args = 0, pretend = 0, frame = 0
 365              		@ frame_needed = 0, uses_anonymous_args = 0
 366              		@ link register save eliminated.
 367              	.LVL23:
 368              		.loc 1 752 0
 369 0000 C268     		ldr	r2, [r0, #12]
 370              		.loc 1 753 0
 371 0002 0123     		movs	r3, #1
 372              		.loc 1 752 0
 373 0004 0139     		subs	r1, r1, #1
 374              	.LVL24:
 375 0006 D162     		str	r1, [r2, #44]
 376              		.loc 1 753 0
 377 0008 9382     		strh	r3, [r2, #20]	@ movhi
 378              		.loc 1 754 0
 379 000a 0023     		movs	r3, #0
 380 000c 1382     		strh	r3, [r2, #16]	@ movhi
 381              		.loc 1 755 0
 382 000e 0D23     		movs	r3, #13
 383 0010 1380     		strh	r3, [r2, #0]	@ movhi
 384              	.L23:
 385              		.loc 1 756 0 discriminator 1
 386 0012 138A     		ldrh	r3, [r2, #16]
 387 0014 DB07     		lsls	r3, r3, #31
 388 0016 FCD5     		bpl	.L23
 389              		.loc 1 758 0
 390 0018 7047     		bx	lr
 391              		.cfi_endproc
 392              	.LFE125:
ARM GAS  /tmp/ccGLwFpz.s 			page 8


 393              		.size	gpt_lld_polled_delay, .-gpt_lld_polled_delay
 394              		.global	GPTD1
 395 001a 00BFAFF3 		.section	.bss.GPTD1,"aw",%nobits
 395      0080
 396              		.align	2
 397              		.set	.LANCHOR0,. + 0
 398              		.type	GPTD1, %object
 399              		.size	GPTD1, 16
 400              	GPTD1:
 401 0000 00000000 		.space	16
 401      00000000 
 401      00000000 
 401      00000000 
 402              		.section	.rodata.str1.4,"aMS",%progbits,1
 403              		.align	2
 404              	.LC0:
 405 0000 6770745F 		.ascii	"gpt_lld_start(), #1\000"
 405      6C6C645F 
 405      73746172 
 405      7428292C 
 405      20233100 
 406              		.text
 407              	.Letext0:
 408              		.file 2 "/opt/psas/x-tools/stm32f407/arm-psas-eabi/bin/../lib/gcc/arm-psas-eabi/4.7.2/../../../../
 409              		.file 3 "../../ChibiOS/os/hal/platforms/STM32F4xx/stm32f4xx.h"
 410              		.file 4 "../../ChibiOS/os/hal/platforms/STM32/stm32.h"
 411              		.file 5 "../../ChibiOS/os/hal/include/gpt.h"
 412              		.file 6 "../../ChibiOS/os/hal/platforms/STM32/gpt_lld.h"
 413              		.file 7 "../../ChibiOS/os/ports/common/ARMCMx/CMSIS/include/core_cm4.h"
 414              		.file 8 "../../ChibiOS/os/kernel/include/chdebug.h"
 415              		.file 9 "../../ChibiOS/os/ports/GCC/ARMCMx/chcore_v7m.h"
 416              		.file 10 "../../ChibiOS/os/ports/common/ARMCMx/nvic.h"
 417              		.section	.debug_info,"",%progbits
 418              	.Ldebug_info0:
 419 0000 940A0000 		.4byte	0xa94
 420 0004 0200     		.2byte	0x2
 421 0006 00000000 		.4byte	.Ldebug_abbrev0
 422 000a 04       		.byte	0x4
 423 000b 01       		.uleb128 0x1
 424 000c 8C050000 		.4byte	.LASF190
 425 0010 01       		.byte	0x1
 426 0011 D2010000 		.4byte	.LASF191
 427 0015 00000000 		.4byte	.LASF192
 428 0019 00000000 		.4byte	.Ldebug_ranges0+0
 429 001d 00000000 		.4byte	0
 430 0021 00000000 		.4byte	0
 431 0025 00000000 		.4byte	.Ldebug_line0
 432 0029 02       		.uleb128 0x2
 433 002a 04       		.byte	0x4
 434 002b 05       		.byte	0x5
 435 002c 696E7400 		.ascii	"int\000"
 436 0030 03       		.uleb128 0x3
 437 0031 04       		.byte	0x4
 438 0032 07       		.byte	0x7
 439 0033 3F030000 		.4byte	.LASF0
 440 0037 03       		.uleb128 0x3
 441 0038 01       		.byte	0x1
ARM GAS  /tmp/ccGLwFpz.s 			page 9


 442 0039 06       		.byte	0x6
 443 003a A0010000 		.4byte	.LASF1
 444 003e 04       		.uleb128 0x4
 445 003f B1080000 		.4byte	.LASF4
 446 0043 02       		.byte	0x2
 447 0044 2A       		.byte	0x2a
 448 0045 49000000 		.4byte	0x49
 449 0049 03       		.uleb128 0x3
 450 004a 01       		.byte	0x1
 451 004b 08       		.byte	0x8
 452 004c 4A060000 		.4byte	.LASF2
 453 0050 03       		.uleb128 0x3
 454 0051 02       		.byte	0x2
 455 0052 05       		.byte	0x5
 456 0053 91060000 		.4byte	.LASF3
 457 0057 04       		.uleb128 0x4
 458 0058 66020000 		.4byte	.LASF5
 459 005c 02       		.byte	0x2
 460 005d 36       		.byte	0x36
 461 005e 62000000 		.4byte	0x62
 462 0062 03       		.uleb128 0x3
 463 0063 02       		.byte	0x2
 464 0064 07       		.byte	0x7
 465 0065 C8060000 		.4byte	.LASF6
 466 0069 04       		.uleb128 0x4
 467 006a 42060000 		.4byte	.LASF7
 468 006e 02       		.byte	0x2
 469 006f 4F       		.byte	0x4f
 470 0070 74000000 		.4byte	0x74
 471 0074 03       		.uleb128 0x3
 472 0075 04       		.byte	0x4
 473 0076 05       		.byte	0x5
 474 0077 19020000 		.4byte	.LASF8
 475 007b 04       		.uleb128 0x4
 476 007c 19070000 		.4byte	.LASF9
 477 0080 02       		.byte	0x2
 478 0081 50       		.byte	0x50
 479 0082 86000000 		.4byte	0x86
 480 0086 03       		.uleb128 0x3
 481 0087 04       		.byte	0x4
 482 0088 07       		.byte	0x7
 483 0089 A9030000 		.4byte	.LASF10
 484 008d 03       		.uleb128 0x3
 485 008e 08       		.byte	0x8
 486 008f 05       		.byte	0x5
 487 0090 92010000 		.4byte	.LASF11
 488 0094 03       		.uleb128 0x3
 489 0095 08       		.byte	0x8
 490 0096 07       		.byte	0x7
 491 0097 03010000 		.4byte	.LASF12
 492 009b 03       		.uleb128 0x3
 493 009c 01       		.byte	0x1
 494 009d 02       		.byte	0x2
 495 009e 3C060000 		.4byte	.LASF13
 496 00a2 05       		.uleb128 0x5
 497 00a3 7B000000 		.4byte	0x7b
 498 00a7 03       		.uleb128 0x3
ARM GAS  /tmp/ccGLwFpz.s 			page 10


 499 00a8 04       		.byte	0x4
 500 00a9 07       		.byte	0x7
 501 00aa DC040000 		.4byte	.LASF14
 502 00ae 06       		.uleb128 0x6
 503 00af 04       		.byte	0x4
 504 00b0 B4000000 		.4byte	0xb4
 505 00b4 07       		.uleb128 0x7
 506 00b5 B9000000 		.4byte	0xb9
 507 00b9 03       		.uleb128 0x3
 508 00ba 01       		.byte	0x1
 509 00bb 08       		.byte	0x8
 510 00bc 6A070000 		.4byte	.LASF15
 511 00c0 08       		.uleb128 0x8
 512 00c1 D7040000 		.4byte	.LASF193
 513 00c5 01       		.byte	0x1
 514 00c6 03       		.byte	0x3
 515 00c7 8C       		.byte	0x8c
 516 00c8 FB020000 		.4byte	0x2fb
 517 00cc 09       		.uleb128 0x9
 518 00cd BE070000 		.4byte	.LASF16
 519 00d1 72       		.sleb128 -14
 520 00d2 09       		.uleb128 0x9
 521 00d3 7E030000 		.4byte	.LASF17
 522 00d7 74       		.sleb128 -12
 523 00d8 09       		.uleb128 0x9
 524 00d9 E8020000 		.4byte	.LASF18
 525 00dd 75       		.sleb128 -11
 526 00de 09       		.uleb128 0x9
 527 00df 2E070000 		.4byte	.LASF19
 528 00e3 76       		.sleb128 -10
 529 00e4 09       		.uleb128 0x9
 530 00e5 08040000 		.4byte	.LASF20
 531 00e9 7B       		.sleb128 -5
 532 00ea 09       		.uleb128 0x9
 533 00eb 10080000 		.4byte	.LASF21
 534 00ef 7C       		.sleb128 -4
 535 00f0 09       		.uleb128 0x9
 536 00f1 03030000 		.4byte	.LASF22
 537 00f5 7E       		.sleb128 -2
 538 00f6 09       		.uleb128 0x9
 539 00f7 A5040000 		.4byte	.LASF23
 540 00fb 7F       		.sleb128 -1
 541 00fc 09       		.uleb128 0x9
 542 00fd 57010000 		.4byte	.LASF24
 543 0101 00       		.sleb128 0
 544 0102 09       		.uleb128 0x9
 545 0103 4D000000 		.4byte	.LASF25
 546 0107 01       		.sleb128 1
 547 0108 09       		.uleb128 0x9
 548 0109 EC070000 		.4byte	.LASF26
 549 010d 02       		.sleb128 2
 550 010e 09       		.uleb128 0x9
 551 010f 49010000 		.4byte	.LASF27
 552 0113 03       		.sleb128 3
 553 0114 09       		.uleb128 0x9
 554 0115 F6060000 		.4byte	.LASF28
 555 0119 04       		.sleb128 4
ARM GAS  /tmp/ccGLwFpz.s 			page 11


 556 011a 09       		.uleb128 0x9
 557 011b 47090000 		.4byte	.LASF29
 558 011f 05       		.sleb128 5
 559 0120 09       		.uleb128 0x9
 560 0121 74080000 		.4byte	.LASF30
 561 0125 06       		.sleb128 6
 562 0126 09       		.uleb128 0x9
 563 0127 6B090000 		.4byte	.LASF31
 564 012b 07       		.sleb128 7
 565 012c 09       		.uleb128 0x9
 566 012d DB060000 		.4byte	.LASF32
 567 0131 08       		.sleb128 8
 568 0132 09       		.uleb128 0x9
 569 0133 4E050000 		.4byte	.LASF33
 570 0137 09       		.sleb128 9
 571 0138 09       		.uleb128 0x9
 572 0139 78060000 		.4byte	.LASF34
 573 013d 0A       		.sleb128 10
 574 013e 09       		.uleb128 0x9
 575 013f 76090000 		.4byte	.LASF35
 576 0143 0B       		.sleb128 11
 577 0144 09       		.uleb128 0x9
 578 0145 99070000 		.4byte	.LASF36
 579 0149 0C       		.sleb128 12
 580 014a 09       		.uleb128 0x9
 581 014b 63050000 		.4byte	.LASF37
 582 014f 0D       		.sleb128 13
 583 0150 09       		.uleb128 0x9
 584 0151 4C030000 		.4byte	.LASF38
 585 0155 0E       		.sleb128 14
 586 0156 09       		.uleb128 0x9
 587 0157 13050000 		.4byte	.LASF39
 588 015b 0F       		.sleb128 15
 589 015c 09       		.uleb128 0x9
 590 015d 34020000 		.4byte	.LASF40
 591 0161 10       		.sleb128 16
 592 0162 09       		.uleb128 0x9
 593 0163 6C030000 		.4byte	.LASF41
 594 0167 11       		.sleb128 17
 595 0168 09       		.uleb128 0x9
 596 0169 03090000 		.4byte	.LASF42
 597 016d 12       		.sleb128 18
 598 016e 09       		.uleb128 0x9
 599 016f 36040000 		.4byte	.LASF43
 600 0173 13       		.sleb128 19
 601 0174 09       		.uleb128 0x9
 602 0175 3F000000 		.4byte	.LASF44
 603 0179 14       		.sleb128 20
 604 017a 09       		.uleb128 0x9
 605 017b EC000000 		.4byte	.LASF45
 606 017f 15       		.sleb128 21
 607 0180 09       		.uleb128 0x9
 608 0181 2B090000 		.4byte	.LASF46
 609 0185 16       		.sleb128 22
 610 0186 09       		.uleb128 0x9
 611 0187 46020000 		.4byte	.LASF47
 612 018b 17       		.sleb128 23
ARM GAS  /tmp/ccGLwFpz.s 			page 12


 613 018c 09       		.uleb128 0x9
 614 018d 58060000 		.4byte	.LASF48
 615 0191 18       		.sleb128 24
 616 0192 09       		.uleb128 0x9
 617 0193 EE040000 		.4byte	.LASF49
 618 0197 19       		.sleb128 25
 619 0198 09       		.uleb128 0x9
 620 0199 B0060000 		.4byte	.LASF50
 621 019d 1A       		.sleb128 26
 622 019e 09       		.uleb128 0x9
 623 019f B2040000 		.4byte	.LASF51
 624 01a3 1B       		.sleb128 27
 625 01a4 09       		.uleb128 0x9
 626 01a5 61080000 		.4byte	.LASF52
 627 01a9 1C       		.sleb128 28
 628 01aa 09       		.uleb128 0x9
 629 01ab 61090000 		.4byte	.LASF53
 630 01af 1D       		.sleb128 29
 631 01b0 09       		.uleb128 0x9
 632 01b1 3F010000 		.4byte	.LASF54
 633 01b5 1E       		.sleb128 30
 634 01b6 09       		.uleb128 0x9
 635 01b7 9E000000 		.4byte	.LASF55
 636 01bb 1F       		.sleb128 31
 637 01bc 09       		.uleb128 0x9
 638 01bd F6080000 		.4byte	.LASF56
 639 01c1 20       		.sleb128 32
 640 01c2 09       		.uleb128 0x9
 641 01c3 42080000 		.4byte	.LASF57
 642 01c7 21       		.sleb128 33
 643 01c8 09       		.uleb128 0x9
 644 01c9 32010000 		.4byte	.LASF58
 645 01cd 22       		.sleb128 34
 646 01ce 09       		.uleb128 0x9
 647 01cf 5B040000 		.4byte	.LASF59
 648 01d3 23       		.sleb128 35
 649 01d4 09       		.uleb128 0x9
 650 01d5 59050000 		.4byte	.LASF60
 651 01d9 24       		.sleb128 36
 652 01da 09       		.uleb128 0x9
 653 01db 7F080000 		.4byte	.LASF61
 654 01df 25       		.sleb128 37
 655 01e0 09       		.uleb128 0x9
 656 01e1 22070000 		.4byte	.LASF62
 657 01e5 26       		.sleb128 38
 658 01e6 09       		.uleb128 0x9
 659 01e7 4F080000 		.4byte	.LASF63
 660 01eb 27       		.sleb128 39
 661 01ec 09       		.uleb128 0x9
 662 01ed 4C040000 		.4byte	.LASF64
 663 01f1 28       		.sleb128 40
 664 01f2 09       		.uleb128 0x9
 665 01f3 23010000 		.4byte	.LASF65
 666 01f7 29       		.sleb128 41
 667 01f8 09       		.uleb128 0x9
 668 01f9 96020000 		.4byte	.LASF66
 669 01fd 2A       		.sleb128 42
ARM GAS  /tmp/ccGLwFpz.s 			page 13


 670 01fe 09       		.uleb128 0x9
 671 01ff 91040000 		.4byte	.LASF67
 672 0203 2B       		.sleb128 43
 673 0204 09       		.uleb128 0x9
 674 0205 B9020000 		.4byte	.LASF68
 675 0209 2C       		.sleb128 44
 676 020a 09       		.uleb128 0x9
 677 020b BF040000 		.4byte	.LASF69
 678 020f 2D       		.sleb128 45
 679 0210 09       		.uleb128 0x9
 680 0211 F6020000 		.4byte	.LASF70
 681 0215 2E       		.sleb128 46
 682 0216 09       		.uleb128 0x9
 683 0217 58070000 		.4byte	.LASF71
 684 021b 2F       		.sleb128 47
 685 021c 09       		.uleb128 0x9
 686 021d 32060000 		.4byte	.LASF72
 687 0221 30       		.sleb128 48
 688 0222 09       		.uleb128 0x9
 689 0223 F3030000 		.4byte	.LASF73
 690 0227 31       		.sleb128 49
 691 0228 09       		.uleb128 0x9
 692 0229 44050000 		.4byte	.LASF74
 693 022d 32       		.sleb128 50
 694 022e 09       		.uleb128 0x9
 695 022f 16060000 		.4byte	.LASF75
 696 0233 33       		.sleb128 51
 697 0234 09       		.uleb128 0x9
 698 0235 8B020000 		.4byte	.LASF76
 699 0239 34       		.sleb128 52
 700 023a 09       		.uleb128 0x9
 701 023b A5060000 		.4byte	.LASF77
 702 023f 35       		.sleb128 53
 703 0240 09       		.uleb128 0x9
 704 0241 75020000 		.4byte	.LASF78
 705 0245 36       		.sleb128 54
 706 0246 09       		.uleb128 0x9
 707 0247 8F070000 		.4byte	.LASF79
 708 024b 37       		.sleb128 55
 709 024c 09       		.uleb128 0x9
 710 024d 22080000 		.4byte	.LASF80
 711 0251 38       		.sleb128 56
 712 0252 09       		.uleb128 0x9
 713 0253 0C090000 		.4byte	.LASF81
 714 0257 39       		.sleb128 57
 715 0258 09       		.uleb128 0x9
 716 0259 19040000 		.4byte	.LASF82
 717 025d 3A       		.sleb128 58
 718 025e 09       		.uleb128 0x9
 719 025f 01050000 		.4byte	.LASF83
 720 0263 3B       		.sleb128 59
 721 0264 09       		.uleb128 0x9
 722 0265 20060000 		.4byte	.LASF84
 723 0269 3C       		.sleb128 60
 724 026a 09       		.uleb128 0x9
 725 026b E5040000 		.4byte	.LASF85
 726 026f 3D       		.sleb128 61
ARM GAS  /tmp/ccGLwFpz.s 			page 14


 727 0270 09       		.uleb128 0x9
 728 0271 58020000 		.4byte	.LASF86
 729 0275 3E       		.sleb128 62
 730 0276 09       		.uleb128 0x9
 731 0277 75050000 		.4byte	.LASF87
 732 027b 3F       		.sleb128 63
 733 027c 09       		.uleb128 0x9
 734 027d 56000000 		.4byte	.LASF88
 735 0281 C000     		.sleb128 64
 736 0283 09       		.uleb128 0x9
 737 0284 AC010000 		.4byte	.LASF89
 738 0288 C100     		.sleb128 65
 739 028a 09       		.uleb128 0x9
 740 028b 39090000 		.4byte	.LASF90
 741 028f C200     		.sleb128 66
 742 0291 09       		.uleb128 0x9
 743 0292 0D070000 		.4byte	.LASF91
 744 0296 C300     		.sleb128 67
 745 0298 09       		.uleb128 0x9
 746 0299 A7020000 		.4byte	.LASF92
 747 029d C400     		.sleb128 68
 748 029f 09       		.uleb128 0x9
 749 02a0 6F000000 		.4byte	.LASF93
 750 02a4 C500     		.sleb128 69
 751 02a6 09       		.uleb128 0x9
 752 02a7 0F030000 		.4byte	.LASF94
 753 02ab C600     		.sleb128 70
 754 02ad 09       		.uleb128 0x9
 755 02ae 25050000 		.4byte	.LASF95
 756 02b2 C700     		.sleb128 71
 757 02b4 09       		.uleb128 0x9
 758 02b5 1E090000 		.4byte	.LASF96
 759 02b9 C800     		.sleb128 72
 760 02bb 09       		.uleb128 0x9
 761 02bc 81000000 		.4byte	.LASF97
 762 02c0 C900     		.sleb128 73
 763 02c2 09       		.uleb128 0x9
 764 02c3 DF030000 		.4byte	.LASF98
 765 02c7 CA00     		.sleb128 74
 766 02c9 09       		.uleb128 0x9
 767 02ca AB070000 		.4byte	.LASF99
 768 02ce CB00     		.sleb128 75
 769 02d0 09       		.uleb128 0x9
 770 02d1 50090000 		.4byte	.LASF100
 771 02d5 CC00     		.sleb128 76
 772 02d7 09       		.uleb128 0x9
 773 02d8 AC050000 		.4byte	.LASF101
 774 02dc CD00     		.sleb128 77
 775 02de 09       		.uleb128 0x9
 776 02df B9080000 		.4byte	.LASF102
 777 02e3 CE00     		.sleb128 78
 778 02e5 09       		.uleb128 0x9
 779 02e6 6F070000 		.4byte	.LASF103
 780 02ea CF00     		.sleb128 79
 781 02ec 09       		.uleb128 0x9
 782 02ed 83060000 		.4byte	.LASF104
 783 02f1 D000     		.sleb128 80
ARM GAS  /tmp/ccGLwFpz.s 			page 15


 784 02f3 09       		.uleb128 0x9
 785 02f4 E2080000 		.4byte	.LASF105
 786 02f8 D100     		.sleb128 81
 787 02fa 00       		.byte	0
 788 02fb 0A       		.uleb128 0xa
 789 02fc 7B000000 		.4byte	0x7b
 790 0300 0B030000 		.4byte	0x30b
 791 0304 0B       		.uleb128 0xb
 792 0305 A7000000 		.4byte	0xa7
 793 0309 01       		.byte	0x1
 794 030a 00       		.byte	0
 795 030b 0A       		.uleb128 0xa
 796 030c 7B000000 		.4byte	0x7b
 797 0310 1B030000 		.4byte	0x31b
 798 0314 0B       		.uleb128 0xb
 799 0315 A7000000 		.4byte	0xa7
 800 0319 03       		.byte	0x3
 801 031a 00       		.byte	0
 802 031b 05       		.uleb128 0x5
 803 031c 57000000 		.4byte	0x57
 804 0320 05       		.uleb128 0x5
 805 0321 69000000 		.4byte	0x69
 806 0325 0C       		.uleb128 0xc
 807 0326 88       		.byte	0x88
 808 0327 03       		.byte	0x3
 809 0328 DB02     		.2byte	0x2db
 810 032a F2040000 		.4byte	0x4f2
 811 032e 0D       		.uleb128 0xd
 812 032f 435200   		.ascii	"CR\000"
 813 0332 03       		.byte	0x3
 814 0333 DD02     		.2byte	0x2dd
 815 0335 A2000000 		.4byte	0xa2
 816 0339 02       		.byte	0x2
 817 033a 23       		.byte	0x23
 818 033b 00       		.uleb128 0
 819 033c 0E       		.uleb128 0xe
 820 033d 83020000 		.4byte	.LASF106
 821 0341 03       		.byte	0x3
 822 0342 DE02     		.2byte	0x2de
 823 0344 A2000000 		.4byte	0xa2
 824 0348 02       		.byte	0x2
 825 0349 23       		.byte	0x23
 826 034a 04       		.uleb128 0x4
 827 034b 0E       		.uleb128 0xe
 828 034c EB080000 		.4byte	.LASF107
 829 0350 03       		.byte	0x3
 830 0351 DF02     		.2byte	0x2df
 831 0353 A2000000 		.4byte	0xa2
 832 0357 02       		.byte	0x2
 833 0358 23       		.byte	0x23
 834 0359 08       		.uleb128 0x8
 835 035a 0D       		.uleb128 0xd
 836 035b 43495200 		.ascii	"CIR\000"
 837 035f 03       		.byte	0x3
 838 0360 E002     		.2byte	0x2e0
 839 0362 A2000000 		.4byte	0xa2
 840 0366 02       		.byte	0x2
ARM GAS  /tmp/ccGLwFpz.s 			page 16


 841 0367 23       		.byte	0x23
 842 0368 0C       		.uleb128 0xc
 843 0369 0E       		.uleb128 0xe
 844 036a BA010000 		.4byte	.LASF108
 845 036e 03       		.byte	0x3
 846 036f E102     		.2byte	0x2e1
 847 0371 A2000000 		.4byte	0xa2
 848 0375 02       		.byte	0x2
 849 0376 23       		.byte	0x23
 850 0377 10       		.uleb128 0x10
 851 0378 0E       		.uleb128 0xe
 852 0379 D5020000 		.4byte	.LASF109
 853 037d 03       		.byte	0x3
 854 037e E202     		.2byte	0x2e2
 855 0380 A2000000 		.4byte	0xa2
 856 0384 02       		.byte	0x2
 857 0385 23       		.byte	0x23
 858 0386 14       		.uleb128 0x14
 859 0387 0E       		.uleb128 0xe
 860 0388 43040000 		.4byte	.LASF110
 861 038c 03       		.byte	0x3
 862 038d E302     		.2byte	0x2e3
 863 038f A2000000 		.4byte	0xa2
 864 0393 02       		.byte	0x2
 865 0394 23       		.byte	0x23
 866 0395 18       		.uleb128 0x18
 867 0396 0E       		.uleb128 0xe
 868 0397 D0050000 		.4byte	.LASF111
 869 039b 03       		.byte	0x3
 870 039c E402     		.2byte	0x2e4
 871 039e 7B000000 		.4byte	0x7b
 872 03a2 02       		.byte	0x2
 873 03a3 23       		.byte	0x23
 874 03a4 1C       		.uleb128 0x1c
 875 03a5 0E       		.uleb128 0xe
 876 03a6 6B080000 		.4byte	.LASF112
 877 03aa 03       		.byte	0x3
 878 03ab E502     		.2byte	0x2e5
 879 03ad A2000000 		.4byte	0xa2
 880 03b1 02       		.byte	0x2
 881 03b2 23       		.byte	0x23
 882 03b3 20       		.uleb128 0x20
 883 03b4 0E       		.uleb128 0xe
 884 03b5 2B020000 		.4byte	.LASF113
 885 03b9 03       		.byte	0x3
 886 03ba E602     		.2byte	0x2e6
 887 03bc A2000000 		.4byte	0xa2
 888 03c0 02       		.byte	0x2
 889 03c1 23       		.byte	0x23
 890 03c2 24       		.uleb128 0x24
 891 03c3 0E       		.uleb128 0xe
 892 03c4 DA050000 		.4byte	.LASF114
 893 03c8 03       		.byte	0x3
 894 03c9 E702     		.2byte	0x2e7
 895 03cb FB020000 		.4byte	0x2fb
 896 03cf 02       		.byte	0x2
 897 03d0 23       		.byte	0x23
ARM GAS  /tmp/ccGLwFpz.s 			page 17


 898 03d1 28       		.uleb128 0x28
 899 03d2 0E       		.uleb128 0xe
 900 03d3 CC080000 		.4byte	.LASF115
 901 03d7 03       		.byte	0x3
 902 03d8 E802     		.2byte	0x2e8
 903 03da A2000000 		.4byte	0xa2
 904 03de 02       		.byte	0x2
 905 03df 23       		.byte	0x23
 906 03e0 30       		.uleb128 0x30
 907 03e1 0E       		.uleb128 0xe
 908 03e2 E4070000 		.4byte	.LASF116
 909 03e6 03       		.byte	0x3
 910 03e7 E902     		.2byte	0x2e9
 911 03e9 A2000000 		.4byte	0xa2
 912 03ed 02       		.byte	0x2
 913 03ee 23       		.byte	0x23
 914 03ef 34       		.uleb128 0x34
 915 03f0 0E       		.uleb128 0xe
 916 03f1 EE060000 		.4byte	.LASF117
 917 03f5 03       		.byte	0x3
 918 03f6 EA02     		.2byte	0x2ea
 919 03f8 A2000000 		.4byte	0xa2
 920 03fc 02       		.byte	0x2
 921 03fd 23       		.byte	0x23
 922 03fe 38       		.uleb128 0x38
 923 03ff 0E       		.uleb128 0xe
 924 0400 E4050000 		.4byte	.LASF118
 925 0404 03       		.byte	0x3
 926 0405 EB02     		.2byte	0x2eb
 927 0407 7B000000 		.4byte	0x7b
 928 040b 02       		.byte	0x2
 929 040c 23       		.byte	0x23
 930 040d 3C       		.uleb128 0x3c
 931 040e 0E       		.uleb128 0xe
 932 040f D2070000 		.4byte	.LASF119
 933 0413 03       		.byte	0x3
 934 0414 EC02     		.2byte	0x2ec
 935 0416 A2000000 		.4byte	0xa2
 936 041a 02       		.byte	0x2
 937 041b 23       		.byte	0x23
 938 041c 40       		.uleb128 0x40
 939 041d 0E       		.uleb128 0xe
 940 041e E6060000 		.4byte	.LASF120
 941 0422 03       		.byte	0x3
 942 0423 ED02     		.2byte	0x2ed
 943 0425 A2000000 		.4byte	0xa2
 944 0429 02       		.byte	0x2
 945 042a 23       		.byte	0x23
 946 042b 44       		.uleb128 0x44
 947 042c 0E       		.uleb128 0xe
 948 042d EE050000 		.4byte	.LASF121
 949 0431 03       		.byte	0x3
 950 0432 EE02     		.2byte	0x2ee
 951 0434 FB020000 		.4byte	0x2fb
 952 0438 02       		.byte	0x2
 953 0439 23       		.byte	0x23
 954 043a 48       		.uleb128 0x48
ARM GAS  /tmp/ccGLwFpz.s 			page 18


 955 043b 0E       		.uleb128 0xe
 956 043c 6B010000 		.4byte	.LASF122
 957 0440 03       		.byte	0x3
 958 0441 EF02     		.2byte	0x2ef
 959 0443 A2000000 		.4byte	0xa2
 960 0447 02       		.byte	0x2
 961 0448 23       		.byte	0x23
 962 0449 50       		.uleb128 0x50
 963 044a 0E       		.uleb128 0xe
 964 044b 82050000 		.4byte	.LASF123
 965 044f 03       		.byte	0x3
 966 0450 F002     		.2byte	0x2f0
 967 0452 A2000000 		.4byte	0xa2
 968 0456 02       		.byte	0x2
 969 0457 23       		.byte	0x23
 970 0458 54       		.uleb128 0x54
 971 0459 0E       		.uleb128 0xe
 972 045a 9B060000 		.4byte	.LASF124
 973 045e 03       		.byte	0x3
 974 045f F102     		.2byte	0x2f1
 975 0461 A2000000 		.4byte	0xa2
 976 0465 02       		.byte	0x2
 977 0466 23       		.byte	0x23
 978 0467 58       		.uleb128 0x58
 979 0468 0E       		.uleb128 0xe
 980 0469 F8050000 		.4byte	.LASF125
 981 046d 03       		.byte	0x3
 982 046e F202     		.2byte	0x2f2
 983 0470 7B000000 		.4byte	0x7b
 984 0474 02       		.byte	0x2
 985 0475 23       		.byte	0x23
 986 0476 5C       		.uleb128 0x5c
 987 0477 0E       		.uleb128 0xe
 988 0478 2B000000 		.4byte	.LASF126
 989 047c 03       		.byte	0x3
 990 047d F302     		.2byte	0x2f3
 991 047f A2000000 		.4byte	0xa2
 992 0483 02       		.byte	0x2
 993 0484 23       		.byte	0x23
 994 0485 60       		.uleb128 0x60
 995 0486 0E       		.uleb128 0xe
 996 0487 87040000 		.4byte	.LASF127
 997 048b 03       		.byte	0x3
 998 048c F402     		.2byte	0x2f4
 999 048e A2000000 		.4byte	0xa2
 1000 0492 02       		.byte	0x2
 1001 0493 23       		.byte	0x23
 1002 0494 64       		.uleb128 0x64
 1003 0495 0E       		.uleb128 0xe
 1004 0496 02060000 		.4byte	.LASF128
 1005 049a 03       		.byte	0x3
 1006 049b F502     		.2byte	0x2f5
 1007 049d FB020000 		.4byte	0x2fb
 1008 04a1 02       		.byte	0x2
 1009 04a2 23       		.byte	0x23
 1010 04a3 68       		.uleb128 0x68
 1011 04a4 0E       		.uleb128 0xe
ARM GAS  /tmp/ccGLwFpz.s 			page 19


 1012 04a5 98080000 		.4byte	.LASF129
 1013 04a9 03       		.byte	0x3
 1014 04aa F602     		.2byte	0x2f6
 1015 04ac A2000000 		.4byte	0xa2
 1016 04b0 02       		.byte	0x2
 1017 04b1 23       		.byte	0x23
 1018 04b2 70       		.uleb128 0x70
 1019 04b3 0D       		.uleb128 0xd
 1020 04b4 43535200 		.ascii	"CSR\000"
 1021 04b8 03       		.byte	0x3
 1022 04b9 F702     		.2byte	0x2f7
 1023 04bb A2000000 		.4byte	0xa2
 1024 04bf 02       		.byte	0x2
 1025 04c0 23       		.byte	0x23
 1026 04c1 74       		.uleb128 0x74
 1027 04c2 0E       		.uleb128 0xe
 1028 04c3 0C060000 		.4byte	.LASF130
 1029 04c7 03       		.byte	0x3
 1030 04c8 F802     		.2byte	0x2f8
 1031 04ca FB020000 		.4byte	0x2fb
 1032 04ce 02       		.byte	0x2
 1033 04cf 23       		.byte	0x23
 1034 04d0 78       		.uleb128 0x78
 1035 04d1 0E       		.uleb128 0xe
 1036 04d2 5B080000 		.4byte	.LASF131
 1037 04d6 03       		.byte	0x3
 1038 04d7 F902     		.2byte	0x2f9
 1039 04d9 A2000000 		.4byte	0xa2
 1040 04dd 03       		.byte	0x3
 1041 04de 23       		.byte	0x23
 1042 04df 8001     		.uleb128 0x80
 1043 04e1 0E       		.uleb128 0xe
 1044 04e2 2B040000 		.4byte	.LASF132
 1045 04e6 03       		.byte	0x3
 1046 04e7 FA02     		.2byte	0x2fa
 1047 04e9 A2000000 		.4byte	0xa2
 1048 04ed 03       		.byte	0x3
 1049 04ee 23       		.byte	0x23
 1050 04ef 8401     		.uleb128 0x84
 1051 04f1 00       		.byte	0
 1052 04f2 0F       		.uleb128 0xf
 1053 04f3 BB030000 		.4byte	.LASF133
 1054 04f7 03       		.byte	0x3
 1055 04f8 FB02     		.2byte	0x2fb
 1056 04fa 25030000 		.4byte	0x325
 1057 04fe 10       		.uleb128 0x10
 1058 04ff 54       		.byte	0x54
 1059 0500 04       		.byte	0x4
 1060 0501 60       		.byte	0x60
 1061 0502 D3060000 		.4byte	0x6d3
 1062 0506 11       		.uleb128 0x11
 1063 0507 43523100 		.ascii	"CR1\000"
 1064 050b 04       		.byte	0x4
 1065 050c 61       		.byte	0x61
 1066 050d 1B030000 		.4byte	0x31b
 1067 0511 02       		.byte	0x2
 1068 0512 23       		.byte	0x23
ARM GAS  /tmp/ccGLwFpz.s 			page 20


 1069 0513 00       		.uleb128 0
 1070 0514 12       		.uleb128 0x12
 1071 0515 8E000000 		.4byte	.LASF134
 1072 0519 04       		.byte	0x4
 1073 051a 62       		.byte	0x62
 1074 051b 57000000 		.4byte	0x57
 1075 051f 02       		.byte	0x2
 1076 0520 23       		.byte	0x23
 1077 0521 02       		.uleb128 0x2
 1078 0522 11       		.uleb128 0x11
 1079 0523 43523200 		.ascii	"CR2\000"
 1080 0527 04       		.byte	0x4
 1081 0528 63       		.byte	0x63
 1082 0529 1B030000 		.4byte	0x31b
 1083 052d 02       		.byte	0x2
 1084 052e 23       		.byte	0x23
 1085 052f 04       		.uleb128 0x4
 1086 0530 12       		.uleb128 0x12
 1087 0531 96000000 		.4byte	.LASF135
 1088 0535 04       		.byte	0x4
 1089 0536 64       		.byte	0x64
 1090 0537 57000000 		.4byte	0x57
 1091 053b 02       		.byte	0x2
 1092 053c 23       		.byte	0x23
 1093 053d 06       		.uleb128 0x6
 1094 053e 12       		.uleb128 0x12
 1095 053f 14040000 		.4byte	.LASF136
 1096 0543 04       		.byte	0x4
 1097 0544 65       		.byte	0x65
 1098 0545 1B030000 		.4byte	0x31b
 1099 0549 02       		.byte	0x2
 1100 054a 23       		.byte	0x23
 1101 054b 08       		.uleb128 0x8
 1102 054c 12       		.uleb128 0x12
 1103 054d 50070000 		.4byte	.LASF137
 1104 0551 04       		.byte	0x4
 1105 0552 66       		.byte	0x66
 1106 0553 57000000 		.4byte	0x57
 1107 0557 02       		.byte	0x2
 1108 0558 23       		.byte	0x23
 1109 0559 0A       		.uleb128 0xa
 1110 055a 12       		.uleb128 0x12
 1111 055b D4080000 		.4byte	.LASF138
 1112 055f 04       		.byte	0x4
 1113 0560 67       		.byte	0x67
 1114 0561 1B030000 		.4byte	0x31b
 1115 0565 02       		.byte	0x2
 1116 0566 23       		.byte	0x23
 1117 0567 0C       		.uleb128 0xc
 1118 0568 12       		.uleb128 0x12
 1119 0569 AB000000 		.4byte	.LASF139
 1120 056d 04       		.byte	0x4
 1121 056e 68       		.byte	0x68
 1122 056f 57000000 		.4byte	0x57
 1123 0573 02       		.byte	0x2
 1124 0574 23       		.byte	0x23
 1125 0575 0E       		.uleb128 0xe
ARM GAS  /tmp/ccGLwFpz.s 			page 21


 1126 0576 11       		.uleb128 0x11
 1127 0577 535200   		.ascii	"SR\000"
 1128 057a 04       		.byte	0x4
 1129 057b 69       		.byte	0x69
 1130 057c 1B030000 		.4byte	0x31b
 1131 0580 02       		.byte	0x2
 1132 0581 23       		.byte	0x23
 1133 0582 10       		.uleb128 0x10
 1134 0583 12       		.uleb128 0x12
 1135 0584 B3000000 		.4byte	.LASF140
 1136 0588 04       		.byte	0x4
 1137 0589 6A       		.byte	0x6a
 1138 058a 57000000 		.4byte	0x57
 1139 058e 02       		.byte	0x2
 1140 058f 23       		.byte	0x23
 1141 0590 12       		.uleb128 0x12
 1142 0591 11       		.uleb128 0x11
 1143 0592 45475200 		.ascii	"EGR\000"
 1144 0596 04       		.byte	0x4
 1145 0597 6B       		.byte	0x6b
 1146 0598 1B030000 		.4byte	0x31b
 1147 059c 02       		.byte	0x2
 1148 059d 23       		.byte	0x23
 1149 059e 14       		.uleb128 0x14
 1150 059f 12       		.uleb128 0x12
 1151 05a0 BB000000 		.4byte	.LASF141
 1152 05a4 04       		.byte	0x4
 1153 05a5 6C       		.byte	0x6c
 1154 05a6 57000000 		.4byte	0x57
 1155 05aa 02       		.byte	0x2
 1156 05ab 23       		.byte	0x23
 1157 05ac 16       		.uleb128 0x16
 1158 05ad 12       		.uleb128 0x12
 1159 05ae 86010000 		.4byte	.LASF142
 1160 05b2 04       		.byte	0x4
 1161 05b3 6D       		.byte	0x6d
 1162 05b4 1B030000 		.4byte	0x31b
 1163 05b8 02       		.byte	0x2
 1164 05b9 23       		.byte	0x23
 1165 05ba 18       		.uleb128 0x18
 1166 05bb 12       		.uleb128 0x12
 1167 05bc C3000000 		.4byte	.LASF143
 1168 05c0 04       		.byte	0x4
 1169 05c1 6E       		.byte	0x6e
 1170 05c2 57000000 		.4byte	0x57
 1171 05c6 02       		.byte	0x2
 1172 05c7 23       		.byte	0x23
 1173 05c8 1A       		.uleb128 0x1a
 1174 05c9 12       		.uleb128 0x12
 1175 05ca 8C010000 		.4byte	.LASF144
 1176 05ce 04       		.byte	0x4
 1177 05cf 6F       		.byte	0x6f
 1178 05d0 1B030000 		.4byte	0x31b
 1179 05d4 02       		.byte	0x2
 1180 05d5 23       		.byte	0x23
 1181 05d6 1C       		.uleb128 0x1c
 1182 05d7 12       		.uleb128 0x12
ARM GAS  /tmp/ccGLwFpz.s 			page 22


 1183 05d8 CB000000 		.4byte	.LASF145
 1184 05dc 04       		.byte	0x4
 1185 05dd 70       		.byte	0x70
 1186 05de 57000000 		.4byte	0x57
 1187 05e2 02       		.byte	0x2
 1188 05e3 23       		.byte	0x23
 1189 05e4 1E       		.uleb128 0x1e
 1190 05e5 12       		.uleb128 0x12
 1191 05e6 53020000 		.4byte	.LASF146
 1192 05ea 04       		.byte	0x4
 1193 05eb 71       		.byte	0x71
 1194 05ec 1B030000 		.4byte	0x31b
 1195 05f0 02       		.byte	0x2
 1196 05f1 23       		.byte	0x23
 1197 05f2 20       		.uleb128 0x20
 1198 05f3 12       		.uleb128 0x12
 1199 05f4 D3000000 		.4byte	.LASF147
 1200 05f8 04       		.byte	0x4
 1201 05f9 72       		.byte	0x72
 1202 05fa 57000000 		.4byte	0x57
 1203 05fe 02       		.byte	0x2
 1204 05ff 23       		.byte	0x23
 1205 0600 22       		.uleb128 0x22
 1206 0601 11       		.uleb128 0x11
 1207 0602 434E5400 		.ascii	"CNT\000"
 1208 0606 04       		.byte	0x4
 1209 0607 73       		.byte	0x73
 1210 0608 A2000000 		.4byte	0xa2
 1211 060c 02       		.byte	0x2
 1212 060d 23       		.byte	0x23
 1213 060e 24       		.uleb128 0x24
 1214 060f 11       		.uleb128 0x11
 1215 0610 50534300 		.ascii	"PSC\000"
 1216 0614 04       		.byte	0x4
 1217 0615 74       		.byte	0x74
 1218 0616 1B030000 		.4byte	0x31b
 1219 061a 02       		.byte	0x2
 1220 061b 23       		.byte	0x23
 1221 061c 28       		.uleb128 0x28
 1222 061d 12       		.uleb128 0x12
 1223 061e DB000000 		.4byte	.LASF148
 1224 0622 04       		.byte	0x4
 1225 0623 75       		.byte	0x75
 1226 0624 57000000 		.4byte	0x57
 1227 0628 02       		.byte	0x2
 1228 0629 23       		.byte	0x23
 1229 062a 2A       		.uleb128 0x2a
 1230 062b 11       		.uleb128 0x11
 1231 062c 41525200 		.ascii	"ARR\000"
 1232 0630 04       		.byte	0x4
 1233 0631 76       		.byte	0x76
 1234 0632 A2000000 		.4byte	0xa2
 1235 0636 02       		.byte	0x2
 1236 0637 23       		.byte	0x23
 1237 0638 2C       		.uleb128 0x2c
 1238 0639 11       		.uleb128 0x11
 1239 063a 52435200 		.ascii	"RCR\000"
ARM GAS  /tmp/ccGLwFpz.s 			page 23


 1240 063e 04       		.byte	0x4
 1241 063f 77       		.byte	0x77
 1242 0640 1B030000 		.4byte	0x31b
 1243 0644 02       		.byte	0x2
 1244 0645 23       		.byte	0x23
 1245 0646 30       		.uleb128 0x30
 1246 0647 12       		.uleb128 0x12
 1247 0648 01020000 		.4byte	.LASF149
 1248 064c 04       		.byte	0x4
 1249 064d 78       		.byte	0x78
 1250 064e 57000000 		.4byte	0x57
 1251 0652 02       		.byte	0x2
 1252 0653 23       		.byte	0x23
 1253 0654 32       		.uleb128 0x32
 1254 0655 11       		.uleb128 0x11
 1255 0656 43435200 		.ascii	"CCR\000"
 1256 065a 04       		.byte	0x4
 1257 065b 79       		.byte	0x79
 1258 065c D3060000 		.4byte	0x6d3
 1259 0660 02       		.byte	0x2
 1260 0661 23       		.byte	0x23
 1261 0662 34       		.uleb128 0x34
 1262 0663 12       		.uleb128 0x12
 1263 0664 21030000 		.4byte	.LASF150
 1264 0668 04       		.byte	0x4
 1265 0669 7A       		.byte	0x7a
 1266 066a 1B030000 		.4byte	0x31b
 1267 066e 02       		.byte	0x2
 1268 066f 23       		.byte	0x23
 1269 0670 44       		.uleb128 0x44
 1270 0671 12       		.uleb128 0x12
 1271 0672 E3000000 		.4byte	.LASF151
 1272 0676 04       		.byte	0x4
 1273 0677 7B       		.byte	0x7b
 1274 0678 57000000 		.4byte	0x57
 1275 067c 02       		.byte	0x2
 1276 067d 23       		.byte	0x23
 1277 067e 46       		.uleb128 0x46
 1278 067f 11       		.uleb128 0x11
 1279 0680 44435200 		.ascii	"DCR\000"
 1280 0684 04       		.byte	0x4
 1281 0685 7C       		.byte	0x7c
 1282 0686 1B030000 		.4byte	0x31b
 1283 068a 02       		.byte	0x2
 1284 068b 23       		.byte	0x23
 1285 068c 48       		.uleb128 0x48
 1286 068d 12       		.uleb128 0x12
 1287 068e 10020000 		.4byte	.LASF152
 1288 0692 04       		.byte	0x4
 1289 0693 7D       		.byte	0x7d
 1290 0694 57000000 		.4byte	0x57
 1291 0698 02       		.byte	0x2
 1292 0699 23       		.byte	0x23
 1293 069a 4A       		.uleb128 0x4a
 1294 069b 12       		.uleb128 0x12
 1295 069c 80070000 		.4byte	.LASF153
 1296 06a0 04       		.byte	0x4
ARM GAS  /tmp/ccGLwFpz.s 			page 24


 1297 06a1 7E       		.byte	0x7e
 1298 06a2 1B030000 		.4byte	0x31b
 1299 06a6 02       		.byte	0x2
 1300 06a7 23       		.byte	0x23
 1301 06a8 4C       		.uleb128 0x4c
 1302 06a9 12       		.uleb128 0x12
 1303 06aa FA000000 		.4byte	.LASF154
 1304 06ae 04       		.byte	0x4
 1305 06af 7F       		.byte	0x7f
 1306 06b0 57000000 		.4byte	0x57
 1307 06b4 02       		.byte	0x2
 1308 06b5 23       		.byte	0x23
 1309 06b6 4E       		.uleb128 0x4e
 1310 06b7 11       		.uleb128 0x11
 1311 06b8 4F5200   		.ascii	"OR\000"
 1312 06bb 04       		.byte	0x4
 1313 06bc 80       		.byte	0x80
 1314 06bd 1B030000 		.4byte	0x31b
 1315 06c1 02       		.byte	0x2
 1316 06c2 23       		.byte	0x23
 1317 06c3 50       		.uleb128 0x50
 1318 06c4 12       		.uleb128 0x12
 1319 06c5 1A010000 		.4byte	.LASF155
 1320 06c9 04       		.byte	0x4
 1321 06ca 81       		.byte	0x81
 1322 06cb 57000000 		.4byte	0x57
 1323 06cf 02       		.byte	0x2
 1324 06d0 23       		.byte	0x23
 1325 06d1 52       		.uleb128 0x52
 1326 06d2 00       		.byte	0
 1327 06d3 05       		.uleb128 0x5
 1328 06d4 0B030000 		.4byte	0x30b
 1329 06d8 04       		.uleb128 0x4
 1330 06d9 7B040000 		.4byte	.LASF156
 1331 06dd 04       		.byte	0x4
 1332 06de 82       		.byte	0x82
 1333 06df FE040000 		.4byte	0x4fe
 1334 06e3 13       		.uleb128 0x13
 1335 06e4 01       		.byte	0x1
 1336 06e5 05       		.byte	0x5
 1337 06e6 35       		.byte	0x35
 1338 06e7 0A070000 		.4byte	0x70a
 1339 06eb 09       		.uleb128 0x9
 1340 06ec FD030000 		.4byte	.LASF157
 1341 06f0 00       		.sleb128 0
 1342 06f1 09       		.uleb128 0x9
 1343 06f2 C3080000 		.4byte	.LASF158
 1344 06f6 01       		.sleb128 1
 1345 06f7 09       		.uleb128 0x9
 1346 06f8 35000000 		.4byte	.LASF159
 1347 06fc 02       		.sleb128 2
 1348 06fd 09       		.uleb128 0x9
 1349 06fe C3010000 		.4byte	.LASF160
 1350 0702 03       		.sleb128 3
 1351 0703 09       		.uleb128 0x9
 1352 0704 01070000 		.4byte	.LASF161
 1353 0708 04       		.sleb128 4
ARM GAS  /tmp/ccGLwFpz.s 			page 25


 1354 0709 00       		.byte	0
 1355 070a 04       		.uleb128 0x4
 1356 070b 34030000 		.4byte	.LASF162
 1357 070f 05       		.byte	0x5
 1358 0710 3B       		.byte	0x3b
 1359 0711 E3060000 		.4byte	0x6e3
 1360 0715 04       		.uleb128 0x4
 1361 0716 DE020000 		.4byte	.LASF163
 1362 071a 05       		.byte	0x5
 1363 071b 40       		.byte	0x40
 1364 071c 20070000 		.4byte	0x720
 1365 0720 14       		.uleb128 0x14
 1366 0721 DE020000 		.4byte	.LASF163
 1367 0725 10       		.byte	0x10
 1368 0726 06       		.byte	0x6
 1369 0727 8801     		.2byte	0x188
 1370 0729 6A070000 		.4byte	0x76a
 1371 072d 0E       		.uleb128 0xe
 1372 072e 0A020000 		.4byte	.LASF164
 1373 0732 06       		.byte	0x6
 1374 0733 8C01     		.2byte	0x18c
 1375 0735 0A070000 		.4byte	0x70a
 1376 0739 02       		.byte	0x2
 1377 073a 23       		.byte	0x23
 1378 073b 00       		.uleb128 0
 1379 073c 0E       		.uleb128 0xe
 1380 073d 79070000 		.4byte	.LASF165
 1381 0741 06       		.byte	0x6
 1382 0742 9001     		.2byte	0x190
 1383 0744 D9070000 		.4byte	0x7d9
 1384 0748 02       		.byte	0x2
 1385 0749 23       		.byte	0x23
 1386 074a 04       		.uleb128 0x4
 1387 074b 0E       		.uleb128 0xe
 1388 074c F0080000 		.4byte	.LASF166
 1389 0750 06       		.byte	0x6
 1390 0751 9801     		.2byte	0x198
 1391 0753 7B000000 		.4byte	0x7b
 1392 0757 02       		.byte	0x2
 1393 0758 23       		.byte	0x23
 1394 0759 08       		.uleb128 0x8
 1395 075a 0D       		.uleb128 0xd
 1396 075b 74696D00 		.ascii	"tim\000"
 1397 075f 06       		.byte	0x6
 1398 0760 9C01     		.2byte	0x19c
 1399 0762 E4070000 		.4byte	0x7e4
 1400 0766 02       		.byte	0x2
 1401 0767 23       		.byte	0x23
 1402 0768 0C       		.uleb128 0xc
 1403 0769 00       		.byte	0
 1404 076a 04       		.uleb128 0x4
 1405 076b 26030000 		.4byte	.LASF167
 1406 076f 05       		.byte	0x5
 1407 0770 47       		.byte	0x47
 1408 0771 75070000 		.4byte	0x775
 1409 0775 06       		.uleb128 0x6
 1410 0776 04       		.byte	0x4
ARM GAS  /tmp/ccGLwFpz.s 			page 26


 1411 0777 7B070000 		.4byte	0x77b
 1412 077b 15       		.uleb128 0x15
 1413 077c 01       		.byte	0x1
 1414 077d 87070000 		.4byte	0x787
 1415 0781 16       		.uleb128 0x16
 1416 0782 87070000 		.4byte	0x787
 1417 0786 00       		.byte	0
 1418 0787 06       		.uleb128 0x6
 1419 0788 04       		.byte	0x4
 1420 0789 15070000 		.4byte	0x715
 1421 078d 0F       		.uleb128 0xf
 1422 078e 85070000 		.4byte	.LASF168
 1423 0792 06       		.byte	0x6
 1424 0793 6B01     		.2byte	0x16b
 1425 0795 7B000000 		.4byte	0x7b
 1426 0799 0F       		.uleb128 0xf
 1427 079a 22020000 		.4byte	.LASF169
 1428 079e 06       		.byte	0x6
 1429 079f 7001     		.2byte	0x170
 1430 07a1 57000000 		.4byte	0x57
 1431 07a5 0C       		.uleb128 0xc
 1432 07a6 08       		.byte	0x8
 1433 07a7 06       		.byte	0x6
 1434 07a8 7601     		.2byte	0x176
 1435 07aa CD070000 		.4byte	0x7cd
 1436 07ae 0E       		.uleb128 0xe
 1437 07af 61010000 		.4byte	.LASF170
 1438 07b3 06       		.byte	0x6
 1439 07b4 7C01     		.2byte	0x17c
 1440 07b6 8D070000 		.4byte	0x78d
 1441 07ba 02       		.byte	0x2
 1442 07bb 23       		.byte	0x23
 1443 07bc 00       		.uleb128 0
 1444 07bd 0E       		.uleb128 0xe
 1445 07be 65040000 		.4byte	.LASF171
 1446 07c2 06       		.byte	0x6
 1447 07c3 8101     		.2byte	0x181
 1448 07c5 6A070000 		.4byte	0x76a
 1449 07c9 02       		.byte	0x2
 1450 07ca 23       		.byte	0x23
 1451 07cb 04       		.uleb128 0x4
 1452 07cc 00       		.byte	0
 1453 07cd 0F       		.uleb128 0xf
 1454 07ce DA070000 		.4byte	.LASF172
 1455 07d2 06       		.byte	0x6
 1456 07d3 8301     		.2byte	0x183
 1457 07d5 A5070000 		.4byte	0x7a5
 1458 07d9 06       		.uleb128 0x6
 1459 07da 04       		.byte	0x4
 1460 07db DF070000 		.4byte	0x7df
 1461 07df 07       		.uleb128 0x7
 1462 07e0 CD070000 		.4byte	0x7cd
 1463 07e4 06       		.uleb128 0x6
 1464 07e5 04       		.byte	0x4
 1465 07e6 D8060000 		.4byte	0x6d8
 1466 07ea 17       		.uleb128 0x17
 1467 07eb 01       		.byte	0x1
ARM GAS  /tmp/ccGLwFpz.s 			page 27


 1468 07ec 31050000 		.4byte	.LASF186
 1469 07f0 01       		.byte	0x1
 1470 07f1 DC02     		.2byte	0x2dc
 1471 07f3 01       		.byte	0x1
 1472 07f4 01       		.byte	0x1
 1473 07f5 06080000 		.4byte	0x806
 1474 07f9 18       		.uleb128 0x18
 1475 07fa DA030000 		.4byte	.LASF173
 1476 07fe 01       		.byte	0x1
 1477 07ff DC02     		.2byte	0x2dc
 1478 0801 87070000 		.4byte	0x787
 1479 0805 00       		.byte	0
 1480 0806 19       		.uleb128 0x19
 1481 0807 B8050000 		.4byte	.LASF194
 1482 080b 01       		.byte	0x1
 1483 080c 93       		.byte	0x93
 1484 080d 01       		.byte	0x1
 1485 080e 01       		.byte	0x1
 1486 080f 1F080000 		.4byte	0x81f
 1487 0813 1A       		.uleb128 0x1a
 1488 0814 DA030000 		.4byte	.LASF173
 1489 0818 01       		.byte	0x1
 1490 0819 93       		.byte	0x93
 1491 081a 87070000 		.4byte	0x787
 1492 081e 00       		.byte	0
 1493 081f 1B       		.uleb128 0x1b
 1494 0820 01       		.byte	0x1
 1495 0821 D9080000 		.4byte	.LASF174
 1496 0825 01       		.byte	0x1
 1497 0826 AA       		.byte	0xaa
 1498 0827 01       		.byte	0x1
 1499 0828 00000000 		.4byte	.LFB119
 1500 082c 38000000 		.4byte	.LFE119
 1501 0830 00000000 		.4byte	.LLST0
 1502 0834 01       		.byte	0x1
 1503 0835 A2080000 		.4byte	0x8a2
 1504 0839 1C       		.uleb128 0x1c
 1505 083a 06080000 		.4byte	0x806
 1506 083e 06000000 		.4byte	.LBB8
 1507 0842 26000000 		.4byte	.LBE8
 1508 0846 01       		.byte	0x1
 1509 0847 AE       		.byte	0xae
 1510 0848 85080000 		.4byte	0x885
 1511 084c 1D       		.uleb128 0x1d
 1512 084d 13080000 		.4byte	0x813
 1513 0851 06       		.byte	0x6
 1514 0852 03       		.byte	0x3
 1515 0853 00000000 		.4byte	GPTD1
 1516 0857 9F       		.byte	0x9f
 1517 0858 1C       		.uleb128 0x1c
 1518 0859 EA070000 		.4byte	0x7ea
 1519 085d 18000000 		.4byte	.LBB10
 1520 0861 1E000000 		.4byte	.LBE10
 1521 0865 01       		.byte	0x1
 1522 0866 98       		.byte	0x98
 1523 0867 75080000 		.4byte	0x875
 1524 086b 1E       		.uleb128 0x1e
ARM GAS  /tmp/ccGLwFpz.s 			page 28


 1525 086c F9070000 		.4byte	0x7f9
 1526 0870 20000000 		.4byte	.LLST1
 1527 0874 00       		.byte	0
 1528 0875 1F       		.uleb128 0x1f
 1529 0876 26000000 		.4byte	.LVL3
 1530 087a 20       		.uleb128 0x20
 1531 087b 01       		.byte	0x1
 1532 087c 50       		.byte	0x50
 1533 087d 05       		.byte	0x5
 1534 087e 03       		.byte	0x3
 1535 087f 00000000 		.4byte	.LANCHOR0
 1536 0883 00       		.byte	0
 1537 0884 00       		.byte	0
 1538 0885 21       		.uleb128 0x21
 1539 0886 06000000 		.4byte	.LVL0
 1540 088a 250A0000 		.4byte	0xa25
 1541 088e 21       		.uleb128 0x21
 1542 088f 2A000000 		.4byte	.LVL4
 1543 0893 2F0A0000 		.4byte	0xa2f
 1544 0897 22       		.uleb128 0x22
 1545 0898 32000000 		.4byte	.LVL5
 1546 089c 01       		.byte	0x1
 1547 089d 390A0000 		.4byte	0xa39
 1548 08a1 00       		.byte	0
 1549 08a2 23       		.uleb128 0x23
 1550 08a3 01       		.byte	0x1
 1551 08a4 6E040000 		.4byte	.LASF175
 1552 08a8 01       		.byte	0x1
 1553 08a9 8E01     		.2byte	0x18e
 1554 08ab 01       		.byte	0x1
 1555 08ac 00000000 		.4byte	.LFB120
 1556 08b0 16000000 		.4byte	.LFE120
 1557 08b4 02       		.byte	0x2
 1558 08b5 7D       		.byte	0x7d
 1559 08b6 00       		.sleb128 0
 1560 08b7 01       		.byte	0x1
 1561 08b8 D1080000 		.4byte	0x8d1
 1562 08bc 24       		.uleb128 0x24
 1563 08bd 16000000 		.4byte	.LVL6
 1564 08c1 01       		.byte	0x1
 1565 08c2 440A0000 		.4byte	0xa44
 1566 08c6 20       		.uleb128 0x20
 1567 08c7 01       		.byte	0x1
 1568 08c8 50       		.byte	0x50
 1569 08c9 05       		.byte	0x5
 1570 08ca 03       		.byte	0x3
 1571 08cb 00000000 		.4byte	.LANCHOR0
 1572 08cf 00       		.byte	0
 1573 08d0 00       		.byte	0
 1574 08d1 25       		.uleb128 0x25
 1575 08d2 01       		.byte	0x1
 1576 08d3 34080000 		.4byte	.LASF176
 1577 08d7 01       		.byte	0x1
 1578 08d8 E001     		.2byte	0x1e0
 1579 08da 01       		.byte	0x1
 1580 08db 00000000 		.4byte	.LFB121
 1581 08df 74000000 		.4byte	.LFE121
ARM GAS  /tmp/ccGLwFpz.s 			page 29


 1582 08e3 38000000 		.4byte	.LLST2
 1583 08e7 01       		.byte	0x1
 1584 08e8 39090000 		.4byte	0x939
 1585 08ec 26       		.uleb128 0x26
 1586 08ed DA030000 		.4byte	.LASF173
 1587 08f1 01       		.byte	0x1
 1588 08f2 E001     		.2byte	0x1e0
 1589 08f4 87070000 		.4byte	0x787
 1590 08f8 58000000 		.4byte	.LLST3
 1591 08fc 27       		.uleb128 0x27
 1592 08fd 70736300 		.ascii	"psc\000"
 1593 0901 01       		.byte	0x1
 1594 0902 E101     		.2byte	0x1e1
 1595 0904 57000000 		.4byte	0x57
 1596 0908 8C000000 		.4byte	.LLST4
 1597 090c 28       		.uleb128 0x28
 1598 090d 26000000 		.4byte	.LVL10
 1599 0911 580A0000 		.4byte	0xa58
 1600 0915 23090000 		.4byte	0x923
 1601 0919 20       		.uleb128 0x20
 1602 091a 01       		.byte	0x1
 1603 091b 50       		.byte	0x50
 1604 091c 05       		.byte	0x5
 1605 091d 03       		.byte	0x3
 1606 091e 00000000 		.4byte	.LC0
 1607 0922 00       		.byte	0
 1608 0923 29       		.uleb128 0x29
 1609 0924 60000000 		.4byte	.LVL13
 1610 0928 6C0A0000 		.4byte	0xa6c
 1611 092c 20       		.uleb128 0x20
 1612 092d 01       		.byte	0x1
 1613 092e 51       		.byte	0x51
 1614 092f 02       		.byte	0x2
 1615 0930 08       		.byte	0x8
 1616 0931 70       		.byte	0x70
 1617 0932 20       		.uleb128 0x20
 1618 0933 01       		.byte	0x1
 1619 0934 50       		.byte	0x50
 1620 0935 01       		.byte	0x1
 1621 0936 49       		.byte	0x49
 1622 0937 00       		.byte	0
 1623 0938 00       		.byte	0
 1624 0939 25       		.uleb128 0x25
 1625 093a 01       		.byte	0x1
 1626 093b 8B080000 		.4byte	.LASF177
 1627 093f 01       		.byte	0x1
 1628 0940 6E02     		.2byte	0x26e
 1629 0942 01       		.byte	0x1
 1630 0943 00000000 		.4byte	.LFB122
 1631 0947 38000000 		.4byte	.LFE122
 1632 094b 9F000000 		.4byte	.LLST5
 1633 094f 01       		.byte	0x1
 1634 0950 74090000 		.4byte	0x974
 1635 0954 26       		.uleb128 0x26
 1636 0955 DA030000 		.4byte	.LASF173
 1637 0959 01       		.byte	0x1
 1638 095a 6E02     		.2byte	0x26e
ARM GAS  /tmp/ccGLwFpz.s 			page 30


 1639 095c 87070000 		.4byte	0x787
 1640 0960 BF000000 		.4byte	.LLST6
 1641 0964 29       		.uleb128 0x29
 1642 0965 20000000 		.4byte	.LVL18
 1643 0969 860A0000 		.4byte	0xa86
 1644 096d 20       		.uleb128 0x20
 1645 096e 01       		.byte	0x1
 1646 096f 50       		.byte	0x50
 1647 0970 01       		.byte	0x1
 1648 0971 49       		.byte	0x49
 1649 0972 00       		.byte	0
 1650 0973 00       		.byte	0
 1651 0974 23       		.uleb128 0x23
 1652 0975 01       		.byte	0x1
 1653 0976 98050000 		.4byte	.LASF178
 1654 097a 01       		.byte	0x1
 1655 097b C802     		.2byte	0x2c8
 1656 097d 01       		.byte	0x1
 1657 097e 00000000 		.4byte	.LFB123
 1658 0982 18000000 		.4byte	.LFE123
 1659 0986 02       		.byte	0x2
 1660 0987 7D       		.byte	0x7d
 1661 0988 00       		.sleb128 0
 1662 0989 01       		.byte	0x1
 1663 098a AF090000 		.4byte	0x9af
 1664 098e 26       		.uleb128 0x26
 1665 098f DA030000 		.4byte	.LASF173
 1666 0993 01       		.byte	0x1
 1667 0994 C802     		.2byte	0x2c8
 1668 0996 87070000 		.4byte	0x787
 1669 099a F9000000 		.4byte	.LLST7
 1670 099e 26       		.uleb128 0x26
 1671 099f CC020000 		.4byte	.LASF179
 1672 09a3 01       		.byte	0x1
 1673 09a4 C802     		.2byte	0x2c8
 1674 09a6 99070000 		.4byte	0x799
 1675 09aa 1A010000 		.4byte	.LLST8
 1676 09ae 00       		.byte	0
 1677 09af 2A       		.uleb128 0x2a
 1678 09b0 EA070000 		.4byte	0x7ea
 1679 09b4 00000000 		.4byte	.LFB124
 1680 09b8 0C000000 		.4byte	.LFE124
 1681 09bc 02       		.byte	0x2
 1682 09bd 7D       		.byte	0x7d
 1683 09be 00       		.sleb128 0
 1684 09bf 01       		.byte	0x1
 1685 09c0 CC090000 		.4byte	0x9cc
 1686 09c4 1D       		.uleb128 0x1d
 1687 09c5 F9070000 		.4byte	0x7f9
 1688 09c9 01       		.byte	0x1
 1689 09ca 50       		.byte	0x50
 1690 09cb 00       		.byte	0
 1691 09cc 23       		.uleb128 0x23
 1692 09cd 01       		.byte	0x1
 1693 09ce 94030000 		.4byte	.LASF180
 1694 09d2 01       		.byte	0x1
 1695 09d3 EE02     		.2byte	0x2ee
ARM GAS  /tmp/ccGLwFpz.s 			page 31


 1696 09d5 01       		.byte	0x1
 1697 09d6 00000000 		.4byte	.LFB125
 1698 09da 1A000000 		.4byte	.LFE125
 1699 09de 02       		.byte	0x2
 1700 09df 7D       		.byte	0x7d
 1701 09e0 00       		.sleb128 0
 1702 09e1 01       		.byte	0x1
 1703 09e2 050A0000 		.4byte	0xa05
 1704 09e6 2B       		.uleb128 0x2b
 1705 09e7 DA030000 		.4byte	.LASF173
 1706 09eb 01       		.byte	0x1
 1707 09ec EE02     		.2byte	0x2ee
 1708 09ee 87070000 		.4byte	0x787
 1709 09f2 01       		.byte	0x1
 1710 09f3 50       		.byte	0x50
 1711 09f4 26       		.uleb128 0x26
 1712 09f5 CC020000 		.4byte	.LASF179
 1713 09f9 01       		.byte	0x1
 1714 09fa EE02     		.2byte	0x2ee
 1715 09fc 99070000 		.4byte	0x799
 1716 0a00 3B010000 		.4byte	.LLST9
 1717 0a04 00       		.byte	0
 1718 0a05 2C       		.uleb128 0x2c
 1719 0a06 6B060000 		.4byte	.LASF181
 1720 0a0a 07       		.byte	0x7
 1721 0a0b 9806     		.2byte	0x698
 1722 0a0d 20030000 		.4byte	0x320
 1723 0a11 01       		.byte	0x1
 1724 0a12 01       		.byte	0x1
 1725 0a13 2D       		.uleb128 0x2d
 1726 0a14 6F020000 		.4byte	.LASF182
 1727 0a18 01       		.byte	0x1
 1728 0a19 2B       		.byte	0x2b
 1729 0a1a 15070000 		.4byte	0x715
 1730 0a1e 01       		.byte	0x1
 1731 0a1f 05       		.byte	0x5
 1732 0a20 03       		.byte	0x3
 1733 0a21 00000000 		.4byte	GPTD1
 1734 0a25 2E       		.uleb128 0x2e
 1735 0a26 01       		.byte	0x1
 1736 0a27 9D080000 		.4byte	.LASF183
 1737 0a2b 08       		.byte	0x8
 1738 0a2c E4       		.byte	0xe4
 1739 0a2d 01       		.byte	0x1
 1740 0a2e 01       		.byte	0x1
 1741 0a2f 2E       		.uleb128 0x2e
 1742 0a30 01       		.byte	0x1
 1743 0a31 FC070000 		.4byte	.LASF184
 1744 0a35 08       		.byte	0x8
 1745 0a36 E5       		.byte	0xe5
 1746 0a37 01       		.byte	0x1
 1747 0a38 01       		.byte	0x1
 1748 0a39 2F       		.uleb128 0x2f
 1749 0a3a 01       		.byte	0x1
 1750 0a3b C7030000 		.4byte	.LASF185
 1751 0a3f 09       		.byte	0x9
 1752 0a40 FC01     		.2byte	0x1fc
ARM GAS  /tmp/ccGLwFpz.s 			page 32


 1753 0a42 01       		.byte	0x1
 1754 0a43 01       		.byte	0x1
 1755 0a44 30       		.uleb128 0x30
 1756 0a45 01       		.byte	0x1
 1757 0a46 5E030000 		.4byte	.LASF187
 1758 0a4a 05       		.byte	0x5
 1759 0a4b 68       		.byte	0x68
 1760 0a4c 01       		.byte	0x1
 1761 0a4d 01       		.byte	0x1
 1762 0a4e 580A0000 		.4byte	0xa58
 1763 0a52 16       		.uleb128 0x16
 1764 0a53 87070000 		.4byte	0x787
 1765 0a57 00       		.byte	0
 1766 0a58 30       		.uleb128 0x30
 1767 0a59 01       		.byte	0x1
 1768 0a5a 64000000 		.4byte	.LASF188
 1769 0a5e 08       		.byte	0x8
 1770 0a5f EF       		.byte	0xef
 1771 0a60 01       		.byte	0x1
 1772 0a61 01       		.byte	0x1
 1773 0a62 6C0A0000 		.4byte	0xa6c
 1774 0a66 16       		.uleb128 0x16
 1775 0a67 AE000000 		.4byte	0xae
 1776 0a6b 00       		.byte	0
 1777 0a6c 31       		.uleb128 0x31
 1778 0a6d 01       		.byte	0x1
 1779 0a6e 75010000 		.4byte	.LASF189
 1780 0a72 0A       		.byte	0xa
 1781 0a73 1C01     		.2byte	0x11c
 1782 0a75 01       		.byte	0x1
 1783 0a76 01       		.byte	0x1
 1784 0a77 860A0000 		.4byte	0xa86
 1785 0a7b 16       		.uleb128 0x16
 1786 0a7c 7B000000 		.4byte	0x7b
 1787 0a80 16       		.uleb128 0x16
 1788 0a81 7B000000 		.4byte	0x7b
 1789 0a85 00       		.byte	0
 1790 0a86 32       		.uleb128 0x32
 1791 0a87 01       		.byte	0x1
 1792 0a88 3E070000 		.4byte	.LASF195
 1793 0a8c 0A       		.byte	0xa
 1794 0a8d 1D01     		.2byte	0x11d
 1795 0a8f 01       		.byte	0x1
 1796 0a90 01       		.byte	0x1
 1797 0a91 16       		.uleb128 0x16
 1798 0a92 7B000000 		.4byte	0x7b
 1799 0a96 00       		.byte	0
 1800 0a97 00       		.byte	0
 1801              		.section	.debug_abbrev,"",%progbits
 1802              	.Ldebug_abbrev0:
 1803 0000 01       		.uleb128 0x1
 1804 0001 11       		.uleb128 0x11
 1805 0002 01       		.byte	0x1
 1806 0003 25       		.uleb128 0x25
 1807 0004 0E       		.uleb128 0xe
 1808 0005 13       		.uleb128 0x13
 1809 0006 0B       		.uleb128 0xb
ARM GAS  /tmp/ccGLwFpz.s 			page 33


 1810 0007 03       		.uleb128 0x3
 1811 0008 0E       		.uleb128 0xe
 1812 0009 1B       		.uleb128 0x1b
 1813 000a 0E       		.uleb128 0xe
 1814 000b 55       		.uleb128 0x55
 1815 000c 06       		.uleb128 0x6
 1816 000d 11       		.uleb128 0x11
 1817 000e 01       		.uleb128 0x1
 1818 000f 52       		.uleb128 0x52
 1819 0010 01       		.uleb128 0x1
 1820 0011 10       		.uleb128 0x10
 1821 0012 06       		.uleb128 0x6
 1822 0013 00       		.byte	0
 1823 0014 00       		.byte	0
 1824 0015 02       		.uleb128 0x2
 1825 0016 24       		.uleb128 0x24
 1826 0017 00       		.byte	0
 1827 0018 0B       		.uleb128 0xb
 1828 0019 0B       		.uleb128 0xb
 1829 001a 3E       		.uleb128 0x3e
 1830 001b 0B       		.uleb128 0xb
 1831 001c 03       		.uleb128 0x3
 1832 001d 08       		.uleb128 0x8
 1833 001e 00       		.byte	0
 1834 001f 00       		.byte	0
 1835 0020 03       		.uleb128 0x3
 1836 0021 24       		.uleb128 0x24
 1837 0022 00       		.byte	0
 1838 0023 0B       		.uleb128 0xb
 1839 0024 0B       		.uleb128 0xb
 1840 0025 3E       		.uleb128 0x3e
 1841 0026 0B       		.uleb128 0xb
 1842 0027 03       		.uleb128 0x3
 1843 0028 0E       		.uleb128 0xe
 1844 0029 00       		.byte	0
 1845 002a 00       		.byte	0
 1846 002b 04       		.uleb128 0x4
 1847 002c 16       		.uleb128 0x16
 1848 002d 00       		.byte	0
 1849 002e 03       		.uleb128 0x3
 1850 002f 0E       		.uleb128 0xe
 1851 0030 3A       		.uleb128 0x3a
 1852 0031 0B       		.uleb128 0xb
 1853 0032 3B       		.uleb128 0x3b
 1854 0033 0B       		.uleb128 0xb
 1855 0034 49       		.uleb128 0x49
 1856 0035 13       		.uleb128 0x13
 1857 0036 00       		.byte	0
 1858 0037 00       		.byte	0
 1859 0038 05       		.uleb128 0x5
 1860 0039 35       		.uleb128 0x35
 1861 003a 00       		.byte	0
 1862 003b 49       		.uleb128 0x49
 1863 003c 13       		.uleb128 0x13
 1864 003d 00       		.byte	0
 1865 003e 00       		.byte	0
 1866 003f 06       		.uleb128 0x6
ARM GAS  /tmp/ccGLwFpz.s 			page 34


 1867 0040 0F       		.uleb128 0xf
 1868 0041 00       		.byte	0
 1869 0042 0B       		.uleb128 0xb
 1870 0043 0B       		.uleb128 0xb
 1871 0044 49       		.uleb128 0x49
 1872 0045 13       		.uleb128 0x13
 1873 0046 00       		.byte	0
 1874 0047 00       		.byte	0
 1875 0048 07       		.uleb128 0x7
 1876 0049 26       		.uleb128 0x26
 1877 004a 00       		.byte	0
 1878 004b 49       		.uleb128 0x49
 1879 004c 13       		.uleb128 0x13
 1880 004d 00       		.byte	0
 1881 004e 00       		.byte	0
 1882 004f 08       		.uleb128 0x8
 1883 0050 04       		.uleb128 0x4
 1884 0051 01       		.byte	0x1
 1885 0052 03       		.uleb128 0x3
 1886 0053 0E       		.uleb128 0xe
 1887 0054 0B       		.uleb128 0xb
 1888 0055 0B       		.uleb128 0xb
 1889 0056 3A       		.uleb128 0x3a
 1890 0057 0B       		.uleb128 0xb
 1891 0058 3B       		.uleb128 0x3b
 1892 0059 0B       		.uleb128 0xb
 1893 005a 01       		.uleb128 0x1
 1894 005b 13       		.uleb128 0x13
 1895 005c 00       		.byte	0
 1896 005d 00       		.byte	0
 1897 005e 09       		.uleb128 0x9
 1898 005f 28       		.uleb128 0x28
 1899 0060 00       		.byte	0
 1900 0061 03       		.uleb128 0x3
 1901 0062 0E       		.uleb128 0xe
 1902 0063 1C       		.uleb128 0x1c
 1903 0064 0D       		.uleb128 0xd
 1904 0065 00       		.byte	0
 1905 0066 00       		.byte	0
 1906 0067 0A       		.uleb128 0xa
 1907 0068 01       		.uleb128 0x1
 1908 0069 01       		.byte	0x1
 1909 006a 49       		.uleb128 0x49
 1910 006b 13       		.uleb128 0x13
 1911 006c 01       		.uleb128 0x1
 1912 006d 13       		.uleb128 0x13
 1913 006e 00       		.byte	0
 1914 006f 00       		.byte	0
 1915 0070 0B       		.uleb128 0xb
 1916 0071 21       		.uleb128 0x21
 1917 0072 00       		.byte	0
 1918 0073 49       		.uleb128 0x49
 1919 0074 13       		.uleb128 0x13
 1920 0075 2F       		.uleb128 0x2f
 1921 0076 0B       		.uleb128 0xb
 1922 0077 00       		.byte	0
 1923 0078 00       		.byte	0
ARM GAS  /tmp/ccGLwFpz.s 			page 35


 1924 0079 0C       		.uleb128 0xc
 1925 007a 13       		.uleb128 0x13
 1926 007b 01       		.byte	0x1
 1927 007c 0B       		.uleb128 0xb
 1928 007d 0B       		.uleb128 0xb
 1929 007e 3A       		.uleb128 0x3a
 1930 007f 0B       		.uleb128 0xb
 1931 0080 3B       		.uleb128 0x3b
 1932 0081 05       		.uleb128 0x5
 1933 0082 01       		.uleb128 0x1
 1934 0083 13       		.uleb128 0x13
 1935 0084 00       		.byte	0
 1936 0085 00       		.byte	0
 1937 0086 0D       		.uleb128 0xd
 1938 0087 0D       		.uleb128 0xd
 1939 0088 00       		.byte	0
 1940 0089 03       		.uleb128 0x3
 1941 008a 08       		.uleb128 0x8
 1942 008b 3A       		.uleb128 0x3a
 1943 008c 0B       		.uleb128 0xb
 1944 008d 3B       		.uleb128 0x3b
 1945 008e 05       		.uleb128 0x5
 1946 008f 49       		.uleb128 0x49
 1947 0090 13       		.uleb128 0x13
 1948 0091 38       		.uleb128 0x38
 1949 0092 0A       		.uleb128 0xa
 1950 0093 00       		.byte	0
 1951 0094 00       		.byte	0
 1952 0095 0E       		.uleb128 0xe
 1953 0096 0D       		.uleb128 0xd
 1954 0097 00       		.byte	0
 1955 0098 03       		.uleb128 0x3
 1956 0099 0E       		.uleb128 0xe
 1957 009a 3A       		.uleb128 0x3a
 1958 009b 0B       		.uleb128 0xb
 1959 009c 3B       		.uleb128 0x3b
 1960 009d 05       		.uleb128 0x5
 1961 009e 49       		.uleb128 0x49
 1962 009f 13       		.uleb128 0x13
 1963 00a0 38       		.uleb128 0x38
 1964 00a1 0A       		.uleb128 0xa
 1965 00a2 00       		.byte	0
 1966 00a3 00       		.byte	0
 1967 00a4 0F       		.uleb128 0xf
 1968 00a5 16       		.uleb128 0x16
 1969 00a6 00       		.byte	0
 1970 00a7 03       		.uleb128 0x3
 1971 00a8 0E       		.uleb128 0xe
 1972 00a9 3A       		.uleb128 0x3a
 1973 00aa 0B       		.uleb128 0xb
 1974 00ab 3B       		.uleb128 0x3b
 1975 00ac 05       		.uleb128 0x5
 1976 00ad 49       		.uleb128 0x49
 1977 00ae 13       		.uleb128 0x13
 1978 00af 00       		.byte	0
 1979 00b0 00       		.byte	0
 1980 00b1 10       		.uleb128 0x10
ARM GAS  /tmp/ccGLwFpz.s 			page 36


 1981 00b2 13       		.uleb128 0x13
 1982 00b3 01       		.byte	0x1
 1983 00b4 0B       		.uleb128 0xb
 1984 00b5 0B       		.uleb128 0xb
 1985 00b6 3A       		.uleb128 0x3a
 1986 00b7 0B       		.uleb128 0xb
 1987 00b8 3B       		.uleb128 0x3b
 1988 00b9 0B       		.uleb128 0xb
 1989 00ba 01       		.uleb128 0x1
 1990 00bb 13       		.uleb128 0x13
 1991 00bc 00       		.byte	0
 1992 00bd 00       		.byte	0
 1993 00be 11       		.uleb128 0x11
 1994 00bf 0D       		.uleb128 0xd
 1995 00c0 00       		.byte	0
 1996 00c1 03       		.uleb128 0x3
 1997 00c2 08       		.uleb128 0x8
 1998 00c3 3A       		.uleb128 0x3a
 1999 00c4 0B       		.uleb128 0xb
 2000 00c5 3B       		.uleb128 0x3b
 2001 00c6 0B       		.uleb128 0xb
 2002 00c7 49       		.uleb128 0x49
 2003 00c8 13       		.uleb128 0x13
 2004 00c9 38       		.uleb128 0x38
 2005 00ca 0A       		.uleb128 0xa
 2006 00cb 00       		.byte	0
 2007 00cc 00       		.byte	0
 2008 00cd 12       		.uleb128 0x12
 2009 00ce 0D       		.uleb128 0xd
 2010 00cf 00       		.byte	0
 2011 00d0 03       		.uleb128 0x3
 2012 00d1 0E       		.uleb128 0xe
 2013 00d2 3A       		.uleb128 0x3a
 2014 00d3 0B       		.uleb128 0xb
 2015 00d4 3B       		.uleb128 0x3b
 2016 00d5 0B       		.uleb128 0xb
 2017 00d6 49       		.uleb128 0x49
 2018 00d7 13       		.uleb128 0x13
 2019 00d8 38       		.uleb128 0x38
 2020 00d9 0A       		.uleb128 0xa
 2021 00da 00       		.byte	0
 2022 00db 00       		.byte	0
 2023 00dc 13       		.uleb128 0x13
 2024 00dd 04       		.uleb128 0x4
 2025 00de 01       		.byte	0x1
 2026 00df 0B       		.uleb128 0xb
 2027 00e0 0B       		.uleb128 0xb
 2028 00e1 3A       		.uleb128 0x3a
 2029 00e2 0B       		.uleb128 0xb
 2030 00e3 3B       		.uleb128 0x3b
 2031 00e4 0B       		.uleb128 0xb
 2032 00e5 01       		.uleb128 0x1
 2033 00e6 13       		.uleb128 0x13
 2034 00e7 00       		.byte	0
 2035 00e8 00       		.byte	0
 2036 00e9 14       		.uleb128 0x14
 2037 00ea 13       		.uleb128 0x13
ARM GAS  /tmp/ccGLwFpz.s 			page 37


 2038 00eb 01       		.byte	0x1
 2039 00ec 03       		.uleb128 0x3
 2040 00ed 0E       		.uleb128 0xe
 2041 00ee 0B       		.uleb128 0xb
 2042 00ef 0B       		.uleb128 0xb
 2043 00f0 3A       		.uleb128 0x3a
 2044 00f1 0B       		.uleb128 0xb
 2045 00f2 3B       		.uleb128 0x3b
 2046 00f3 05       		.uleb128 0x5
 2047 00f4 01       		.uleb128 0x1
 2048 00f5 13       		.uleb128 0x13
 2049 00f6 00       		.byte	0
 2050 00f7 00       		.byte	0
 2051 00f8 15       		.uleb128 0x15
 2052 00f9 15       		.uleb128 0x15
 2053 00fa 01       		.byte	0x1
 2054 00fb 27       		.uleb128 0x27
 2055 00fc 0C       		.uleb128 0xc
 2056 00fd 01       		.uleb128 0x1
 2057 00fe 13       		.uleb128 0x13
 2058 00ff 00       		.byte	0
 2059 0100 00       		.byte	0
 2060 0101 16       		.uleb128 0x16
 2061 0102 05       		.uleb128 0x5
 2062 0103 00       		.byte	0
 2063 0104 49       		.uleb128 0x49
 2064 0105 13       		.uleb128 0x13
 2065 0106 00       		.byte	0
 2066 0107 00       		.byte	0
 2067 0108 17       		.uleb128 0x17
 2068 0109 2E       		.uleb128 0x2e
 2069 010a 01       		.byte	0x1
 2070 010b 3F       		.uleb128 0x3f
 2071 010c 0C       		.uleb128 0xc
 2072 010d 03       		.uleb128 0x3
 2073 010e 0E       		.uleb128 0xe
 2074 010f 3A       		.uleb128 0x3a
 2075 0110 0B       		.uleb128 0xb
 2076 0111 3B       		.uleb128 0x3b
 2077 0112 05       		.uleb128 0x5
 2078 0113 27       		.uleb128 0x27
 2079 0114 0C       		.uleb128 0xc
 2080 0115 20       		.uleb128 0x20
 2081 0116 0B       		.uleb128 0xb
 2082 0117 01       		.uleb128 0x1
 2083 0118 13       		.uleb128 0x13
 2084 0119 00       		.byte	0
 2085 011a 00       		.byte	0
 2086 011b 18       		.uleb128 0x18
 2087 011c 05       		.uleb128 0x5
 2088 011d 00       		.byte	0
 2089 011e 03       		.uleb128 0x3
 2090 011f 0E       		.uleb128 0xe
 2091 0120 3A       		.uleb128 0x3a
 2092 0121 0B       		.uleb128 0xb
 2093 0122 3B       		.uleb128 0x3b
 2094 0123 05       		.uleb128 0x5
ARM GAS  /tmp/ccGLwFpz.s 			page 38


 2095 0124 49       		.uleb128 0x49
 2096 0125 13       		.uleb128 0x13
 2097 0126 00       		.byte	0
 2098 0127 00       		.byte	0
 2099 0128 19       		.uleb128 0x19
 2100 0129 2E       		.uleb128 0x2e
 2101 012a 01       		.byte	0x1
 2102 012b 03       		.uleb128 0x3
 2103 012c 0E       		.uleb128 0xe
 2104 012d 3A       		.uleb128 0x3a
 2105 012e 0B       		.uleb128 0xb
 2106 012f 3B       		.uleb128 0x3b
 2107 0130 0B       		.uleb128 0xb
 2108 0131 27       		.uleb128 0x27
 2109 0132 0C       		.uleb128 0xc
 2110 0133 20       		.uleb128 0x20
 2111 0134 0B       		.uleb128 0xb
 2112 0135 01       		.uleb128 0x1
 2113 0136 13       		.uleb128 0x13
 2114 0137 00       		.byte	0
 2115 0138 00       		.byte	0
 2116 0139 1A       		.uleb128 0x1a
 2117 013a 05       		.uleb128 0x5
 2118 013b 00       		.byte	0
 2119 013c 03       		.uleb128 0x3
 2120 013d 0E       		.uleb128 0xe
 2121 013e 3A       		.uleb128 0x3a
 2122 013f 0B       		.uleb128 0xb
 2123 0140 3B       		.uleb128 0x3b
 2124 0141 0B       		.uleb128 0xb
 2125 0142 49       		.uleb128 0x49
 2126 0143 13       		.uleb128 0x13
 2127 0144 00       		.byte	0
 2128 0145 00       		.byte	0
 2129 0146 1B       		.uleb128 0x1b
 2130 0147 2E       		.uleb128 0x2e
 2131 0148 01       		.byte	0x1
 2132 0149 3F       		.uleb128 0x3f
 2133 014a 0C       		.uleb128 0xc
 2134 014b 03       		.uleb128 0x3
 2135 014c 0E       		.uleb128 0xe
 2136 014d 3A       		.uleb128 0x3a
 2137 014e 0B       		.uleb128 0xb
 2138 014f 3B       		.uleb128 0x3b
 2139 0150 0B       		.uleb128 0xb
 2140 0151 27       		.uleb128 0x27
 2141 0152 0C       		.uleb128 0xc
 2142 0153 11       		.uleb128 0x11
 2143 0154 01       		.uleb128 0x1
 2144 0155 12       		.uleb128 0x12
 2145 0156 01       		.uleb128 0x1
 2146 0157 40       		.uleb128 0x40
 2147 0158 06       		.uleb128 0x6
 2148 0159 9742     		.uleb128 0x2117
 2149 015b 0C       		.uleb128 0xc
 2150 015c 01       		.uleb128 0x1
 2151 015d 13       		.uleb128 0x13
ARM GAS  /tmp/ccGLwFpz.s 			page 39


 2152 015e 00       		.byte	0
 2153 015f 00       		.byte	0
 2154 0160 1C       		.uleb128 0x1c
 2155 0161 1D       		.uleb128 0x1d
 2156 0162 01       		.byte	0x1
 2157 0163 31       		.uleb128 0x31
 2158 0164 13       		.uleb128 0x13
 2159 0165 11       		.uleb128 0x11
 2160 0166 01       		.uleb128 0x1
 2161 0167 12       		.uleb128 0x12
 2162 0168 01       		.uleb128 0x1
 2163 0169 58       		.uleb128 0x58
 2164 016a 0B       		.uleb128 0xb
 2165 016b 59       		.uleb128 0x59
 2166 016c 0B       		.uleb128 0xb
 2167 016d 01       		.uleb128 0x1
 2168 016e 13       		.uleb128 0x13
 2169 016f 00       		.byte	0
 2170 0170 00       		.byte	0
 2171 0171 1D       		.uleb128 0x1d
 2172 0172 05       		.uleb128 0x5
 2173 0173 00       		.byte	0
 2174 0174 31       		.uleb128 0x31
 2175 0175 13       		.uleb128 0x13
 2176 0176 02       		.uleb128 0x2
 2177 0177 0A       		.uleb128 0xa
 2178 0178 00       		.byte	0
 2179 0179 00       		.byte	0
 2180 017a 1E       		.uleb128 0x1e
 2181 017b 05       		.uleb128 0x5
 2182 017c 00       		.byte	0
 2183 017d 31       		.uleb128 0x31
 2184 017e 13       		.uleb128 0x13
 2185 017f 02       		.uleb128 0x2
 2186 0180 06       		.uleb128 0x6
 2187 0181 00       		.byte	0
 2188 0182 00       		.byte	0
 2189 0183 1F       		.uleb128 0x1f
 2190 0184 898201   		.uleb128 0x4109
 2191 0187 01       		.byte	0x1
 2192 0188 11       		.uleb128 0x11
 2193 0189 01       		.uleb128 0x1
 2194 018a 00       		.byte	0
 2195 018b 00       		.byte	0
 2196 018c 20       		.uleb128 0x20
 2197 018d 8A8201   		.uleb128 0x410a
 2198 0190 00       		.byte	0
 2199 0191 02       		.uleb128 0x2
 2200 0192 0A       		.uleb128 0xa
 2201 0193 9142     		.uleb128 0x2111
 2202 0195 0A       		.uleb128 0xa
 2203 0196 00       		.byte	0
 2204 0197 00       		.byte	0
 2205 0198 21       		.uleb128 0x21
 2206 0199 898201   		.uleb128 0x4109
 2207 019c 00       		.byte	0
 2208 019d 11       		.uleb128 0x11
ARM GAS  /tmp/ccGLwFpz.s 			page 40


 2209 019e 01       		.uleb128 0x1
 2210 019f 31       		.uleb128 0x31
 2211 01a0 13       		.uleb128 0x13
 2212 01a1 00       		.byte	0
 2213 01a2 00       		.byte	0
 2214 01a3 22       		.uleb128 0x22
 2215 01a4 898201   		.uleb128 0x4109
 2216 01a7 00       		.byte	0
 2217 01a8 11       		.uleb128 0x11
 2218 01a9 01       		.uleb128 0x1
 2219 01aa 9542     		.uleb128 0x2115
 2220 01ac 0C       		.uleb128 0xc
 2221 01ad 31       		.uleb128 0x31
 2222 01ae 13       		.uleb128 0x13
 2223 01af 00       		.byte	0
 2224 01b0 00       		.byte	0
 2225 01b1 23       		.uleb128 0x23
 2226 01b2 2E       		.uleb128 0x2e
 2227 01b3 01       		.byte	0x1
 2228 01b4 3F       		.uleb128 0x3f
 2229 01b5 0C       		.uleb128 0xc
 2230 01b6 03       		.uleb128 0x3
 2231 01b7 0E       		.uleb128 0xe
 2232 01b8 3A       		.uleb128 0x3a
 2233 01b9 0B       		.uleb128 0xb
 2234 01ba 3B       		.uleb128 0x3b
 2235 01bb 05       		.uleb128 0x5
 2236 01bc 27       		.uleb128 0x27
 2237 01bd 0C       		.uleb128 0xc
 2238 01be 11       		.uleb128 0x11
 2239 01bf 01       		.uleb128 0x1
 2240 01c0 12       		.uleb128 0x12
 2241 01c1 01       		.uleb128 0x1
 2242 01c2 40       		.uleb128 0x40
 2243 01c3 0A       		.uleb128 0xa
 2244 01c4 9742     		.uleb128 0x2117
 2245 01c6 0C       		.uleb128 0xc
 2246 01c7 01       		.uleb128 0x1
 2247 01c8 13       		.uleb128 0x13
 2248 01c9 00       		.byte	0
 2249 01ca 00       		.byte	0
 2250 01cb 24       		.uleb128 0x24
 2251 01cc 898201   		.uleb128 0x4109
 2252 01cf 01       		.byte	0x1
 2253 01d0 11       		.uleb128 0x11
 2254 01d1 01       		.uleb128 0x1
 2255 01d2 9542     		.uleb128 0x2115
 2256 01d4 0C       		.uleb128 0xc
 2257 01d5 31       		.uleb128 0x31
 2258 01d6 13       		.uleb128 0x13
 2259 01d7 00       		.byte	0
 2260 01d8 00       		.byte	0
 2261 01d9 25       		.uleb128 0x25
 2262 01da 2E       		.uleb128 0x2e
 2263 01db 01       		.byte	0x1
 2264 01dc 3F       		.uleb128 0x3f
 2265 01dd 0C       		.uleb128 0xc
ARM GAS  /tmp/ccGLwFpz.s 			page 41


 2266 01de 03       		.uleb128 0x3
 2267 01df 0E       		.uleb128 0xe
 2268 01e0 3A       		.uleb128 0x3a
 2269 01e1 0B       		.uleb128 0xb
 2270 01e2 3B       		.uleb128 0x3b
 2271 01e3 05       		.uleb128 0x5
 2272 01e4 27       		.uleb128 0x27
 2273 01e5 0C       		.uleb128 0xc
 2274 01e6 11       		.uleb128 0x11
 2275 01e7 01       		.uleb128 0x1
 2276 01e8 12       		.uleb128 0x12
 2277 01e9 01       		.uleb128 0x1
 2278 01ea 40       		.uleb128 0x40
 2279 01eb 06       		.uleb128 0x6
 2280 01ec 9742     		.uleb128 0x2117
 2281 01ee 0C       		.uleb128 0xc
 2282 01ef 01       		.uleb128 0x1
 2283 01f0 13       		.uleb128 0x13
 2284 01f1 00       		.byte	0
 2285 01f2 00       		.byte	0
 2286 01f3 26       		.uleb128 0x26
 2287 01f4 05       		.uleb128 0x5
 2288 01f5 00       		.byte	0
 2289 01f6 03       		.uleb128 0x3
 2290 01f7 0E       		.uleb128 0xe
 2291 01f8 3A       		.uleb128 0x3a
 2292 01f9 0B       		.uleb128 0xb
 2293 01fa 3B       		.uleb128 0x3b
 2294 01fb 05       		.uleb128 0x5
 2295 01fc 49       		.uleb128 0x49
 2296 01fd 13       		.uleb128 0x13
 2297 01fe 02       		.uleb128 0x2
 2298 01ff 06       		.uleb128 0x6
 2299 0200 00       		.byte	0
 2300 0201 00       		.byte	0
 2301 0202 27       		.uleb128 0x27
 2302 0203 34       		.uleb128 0x34
 2303 0204 00       		.byte	0
 2304 0205 03       		.uleb128 0x3
 2305 0206 08       		.uleb128 0x8
 2306 0207 3A       		.uleb128 0x3a
 2307 0208 0B       		.uleb128 0xb
 2308 0209 3B       		.uleb128 0x3b
 2309 020a 05       		.uleb128 0x5
 2310 020b 49       		.uleb128 0x49
 2311 020c 13       		.uleb128 0x13
 2312 020d 02       		.uleb128 0x2
 2313 020e 06       		.uleb128 0x6
 2314 020f 00       		.byte	0
 2315 0210 00       		.byte	0
 2316 0211 28       		.uleb128 0x28
 2317 0212 898201   		.uleb128 0x4109
 2318 0215 01       		.byte	0x1
 2319 0216 11       		.uleb128 0x11
 2320 0217 01       		.uleb128 0x1
 2321 0218 31       		.uleb128 0x31
 2322 0219 13       		.uleb128 0x13
ARM GAS  /tmp/ccGLwFpz.s 			page 42


 2323 021a 01       		.uleb128 0x1
 2324 021b 13       		.uleb128 0x13
 2325 021c 00       		.byte	0
 2326 021d 00       		.byte	0
 2327 021e 29       		.uleb128 0x29
 2328 021f 898201   		.uleb128 0x4109
 2329 0222 01       		.byte	0x1
 2330 0223 11       		.uleb128 0x11
 2331 0224 01       		.uleb128 0x1
 2332 0225 31       		.uleb128 0x31
 2333 0226 13       		.uleb128 0x13
 2334 0227 00       		.byte	0
 2335 0228 00       		.byte	0
 2336 0229 2A       		.uleb128 0x2a
 2337 022a 2E       		.uleb128 0x2e
 2338 022b 01       		.byte	0x1
 2339 022c 31       		.uleb128 0x31
 2340 022d 13       		.uleb128 0x13
 2341 022e 11       		.uleb128 0x11
 2342 022f 01       		.uleb128 0x1
 2343 0230 12       		.uleb128 0x12
 2344 0231 01       		.uleb128 0x1
 2345 0232 40       		.uleb128 0x40
 2346 0233 0A       		.uleb128 0xa
 2347 0234 9742     		.uleb128 0x2117
 2348 0236 0C       		.uleb128 0xc
 2349 0237 01       		.uleb128 0x1
 2350 0238 13       		.uleb128 0x13
 2351 0239 00       		.byte	0
 2352 023a 00       		.byte	0
 2353 023b 2B       		.uleb128 0x2b
 2354 023c 05       		.uleb128 0x5
 2355 023d 00       		.byte	0
 2356 023e 03       		.uleb128 0x3
 2357 023f 0E       		.uleb128 0xe
 2358 0240 3A       		.uleb128 0x3a
 2359 0241 0B       		.uleb128 0xb
 2360 0242 3B       		.uleb128 0x3b
 2361 0243 05       		.uleb128 0x5
 2362 0244 49       		.uleb128 0x49
 2363 0245 13       		.uleb128 0x13
 2364 0246 02       		.uleb128 0x2
 2365 0247 0A       		.uleb128 0xa
 2366 0248 00       		.byte	0
 2367 0249 00       		.byte	0
 2368 024a 2C       		.uleb128 0x2c
 2369 024b 34       		.uleb128 0x34
 2370 024c 00       		.byte	0
 2371 024d 03       		.uleb128 0x3
 2372 024e 0E       		.uleb128 0xe
 2373 024f 3A       		.uleb128 0x3a
 2374 0250 0B       		.uleb128 0xb
 2375 0251 3B       		.uleb128 0x3b
 2376 0252 05       		.uleb128 0x5
 2377 0253 49       		.uleb128 0x49
 2378 0254 13       		.uleb128 0x13
 2379 0255 3F       		.uleb128 0x3f
ARM GAS  /tmp/ccGLwFpz.s 			page 43


 2380 0256 0C       		.uleb128 0xc
 2381 0257 3C       		.uleb128 0x3c
 2382 0258 0C       		.uleb128 0xc
 2383 0259 00       		.byte	0
 2384 025a 00       		.byte	0
 2385 025b 2D       		.uleb128 0x2d
 2386 025c 34       		.uleb128 0x34
 2387 025d 00       		.byte	0
 2388 025e 03       		.uleb128 0x3
 2389 025f 0E       		.uleb128 0xe
 2390 0260 3A       		.uleb128 0x3a
 2391 0261 0B       		.uleb128 0xb
 2392 0262 3B       		.uleb128 0x3b
 2393 0263 0B       		.uleb128 0xb
 2394 0264 49       		.uleb128 0x49
 2395 0265 13       		.uleb128 0x13
 2396 0266 3F       		.uleb128 0x3f
 2397 0267 0C       		.uleb128 0xc
 2398 0268 02       		.uleb128 0x2
 2399 0269 0A       		.uleb128 0xa
 2400 026a 00       		.byte	0
 2401 026b 00       		.byte	0
 2402 026c 2E       		.uleb128 0x2e
 2403 026d 2E       		.uleb128 0x2e
 2404 026e 00       		.byte	0
 2405 026f 3F       		.uleb128 0x3f
 2406 0270 0C       		.uleb128 0xc
 2407 0271 03       		.uleb128 0x3
 2408 0272 0E       		.uleb128 0xe
 2409 0273 3A       		.uleb128 0x3a
 2410 0274 0B       		.uleb128 0xb
 2411 0275 3B       		.uleb128 0x3b
 2412 0276 0B       		.uleb128 0xb
 2413 0277 27       		.uleb128 0x27
 2414 0278 0C       		.uleb128 0xc
 2415 0279 3C       		.uleb128 0x3c
 2416 027a 0C       		.uleb128 0xc
 2417 027b 00       		.byte	0
 2418 027c 00       		.byte	0
 2419 027d 2F       		.uleb128 0x2f
 2420 027e 2E       		.uleb128 0x2e
 2421 027f 00       		.byte	0
 2422 0280 3F       		.uleb128 0x3f
 2423 0281 0C       		.uleb128 0xc
 2424 0282 03       		.uleb128 0x3
 2425 0283 0E       		.uleb128 0xe
 2426 0284 3A       		.uleb128 0x3a
 2427 0285 0B       		.uleb128 0xb
 2428 0286 3B       		.uleb128 0x3b
 2429 0287 05       		.uleb128 0x5
 2430 0288 27       		.uleb128 0x27
 2431 0289 0C       		.uleb128 0xc
 2432 028a 3C       		.uleb128 0x3c
 2433 028b 0C       		.uleb128 0xc
 2434 028c 00       		.byte	0
 2435 028d 00       		.byte	0
 2436 028e 30       		.uleb128 0x30
ARM GAS  /tmp/ccGLwFpz.s 			page 44


 2437 028f 2E       		.uleb128 0x2e
 2438 0290 01       		.byte	0x1
 2439 0291 3F       		.uleb128 0x3f
 2440 0292 0C       		.uleb128 0xc
 2441 0293 03       		.uleb128 0x3
 2442 0294 0E       		.uleb128 0xe
 2443 0295 3A       		.uleb128 0x3a
 2444 0296 0B       		.uleb128 0xb
 2445 0297 3B       		.uleb128 0x3b
 2446 0298 0B       		.uleb128 0xb
 2447 0299 27       		.uleb128 0x27
 2448 029a 0C       		.uleb128 0xc
 2449 029b 3C       		.uleb128 0x3c
 2450 029c 0C       		.uleb128 0xc
 2451 029d 01       		.uleb128 0x1
 2452 029e 13       		.uleb128 0x13
 2453 029f 00       		.byte	0
 2454 02a0 00       		.byte	0
 2455 02a1 31       		.uleb128 0x31
 2456 02a2 2E       		.uleb128 0x2e
 2457 02a3 01       		.byte	0x1
 2458 02a4 3F       		.uleb128 0x3f
 2459 02a5 0C       		.uleb128 0xc
 2460 02a6 03       		.uleb128 0x3
 2461 02a7 0E       		.uleb128 0xe
 2462 02a8 3A       		.uleb128 0x3a
 2463 02a9 0B       		.uleb128 0xb
 2464 02aa 3B       		.uleb128 0x3b
 2465 02ab 05       		.uleb128 0x5
 2466 02ac 27       		.uleb128 0x27
 2467 02ad 0C       		.uleb128 0xc
 2468 02ae 3C       		.uleb128 0x3c
 2469 02af 0C       		.uleb128 0xc
 2470 02b0 01       		.uleb128 0x1
 2471 02b1 13       		.uleb128 0x13
 2472 02b2 00       		.byte	0
 2473 02b3 00       		.byte	0
 2474 02b4 32       		.uleb128 0x32
 2475 02b5 2E       		.uleb128 0x2e
 2476 02b6 01       		.byte	0x1
 2477 02b7 3F       		.uleb128 0x3f
 2478 02b8 0C       		.uleb128 0xc
 2479 02b9 03       		.uleb128 0x3
 2480 02ba 0E       		.uleb128 0xe
 2481 02bb 3A       		.uleb128 0x3a
 2482 02bc 0B       		.uleb128 0xb
 2483 02bd 3B       		.uleb128 0x3b
 2484 02be 05       		.uleb128 0x5
 2485 02bf 27       		.uleb128 0x27
 2486 02c0 0C       		.uleb128 0xc
 2487 02c1 3C       		.uleb128 0x3c
 2488 02c2 0C       		.uleb128 0xc
 2489 02c3 00       		.byte	0
 2490 02c4 00       		.byte	0
 2491 02c5 00       		.byte	0
 2492              		.section	.debug_loc,"",%progbits
 2493              	.Ldebug_loc0:
ARM GAS  /tmp/ccGLwFpz.s 			page 45


 2494              	.LLST0:
 2495 0000 00000000 		.4byte	.LFB119
 2496 0004 02000000 		.4byte	.LCFI0
 2497 0008 0200     		.2byte	0x2
 2498 000a 7D       		.byte	0x7d
 2499 000b 00       		.sleb128 0
 2500 000c 02000000 		.4byte	.LCFI0
 2501 0010 38000000 		.4byte	.LFE119
 2502 0014 0200     		.2byte	0x2
 2503 0016 7D       		.byte	0x7d
 2504 0017 08       		.sleb128 8
 2505 0018 00000000 		.4byte	0
 2506 001c 00000000 		.4byte	0
 2507              	.LLST1:
 2508 0020 18000000 		.4byte	.LVL1
 2509 0024 1E000000 		.4byte	.LVL2
 2510 0028 0600     		.2byte	0x6
 2511 002a 03       		.byte	0x3
 2512 002b 00000000 		.4byte	GPTD1
 2513 002f 9F       		.byte	0x9f
 2514 0030 00000000 		.4byte	0
 2515 0034 00000000 		.4byte	0
 2516              	.LLST2:
 2517 0038 00000000 		.4byte	.LFB121
 2518 003c 02000000 		.4byte	.LCFI1
 2519 0040 0200     		.2byte	0x2
 2520 0042 7D       		.byte	0x7d
 2521 0043 00       		.sleb128 0
 2522 0044 02000000 		.4byte	.LCFI1
 2523 0048 74000000 		.4byte	.LFE121
 2524 004c 0200     		.2byte	0x2
 2525 004e 7D       		.byte	0x7d
 2526 004f 10       		.sleb128 16
 2527 0050 00000000 		.4byte	0
 2528 0054 00000000 		.4byte	0
 2529              	.LLST3:
 2530 0058 00000000 		.4byte	.LVL7
 2531 005c 0A000000 		.4byte	.LVL8
 2532 0060 0100     		.2byte	0x1
 2533 0062 50       		.byte	0x50
 2534 0063 0A000000 		.4byte	.LVL8
 2535 0067 36000000 		.4byte	.LVL11
 2536 006b 0100     		.2byte	0x1
 2537 006d 54       		.byte	0x54
 2538 006e 36000000 		.4byte	.LVL11
 2539 0072 46000000 		.4byte	.LVL12
 2540 0076 0100     		.2byte	0x1
 2541 0078 50       		.byte	0x50
 2542 0079 46000000 		.4byte	.LVL12
 2543 007d 74000000 		.4byte	.LFE121
 2544 0081 0100     		.2byte	0x1
 2545 0083 54       		.byte	0x54
 2546 0084 00000000 		.4byte	0
 2547 0088 00000000 		.4byte	0
 2548              	.LLST4:
 2549 008c 18000000 		.4byte	.LVL9
 2550 0090 36000000 		.4byte	.LVL11
ARM GAS  /tmp/ccGLwFpz.s 			page 46


 2551 0094 0100     		.2byte	0x1
 2552 0096 55       		.byte	0x55
 2553 0097 00000000 		.4byte	0
 2554 009b 00000000 		.4byte	0
 2555              	.LLST5:
 2556 009f 00000000 		.4byte	.LFB122
 2557 00a3 02000000 		.4byte	.LCFI2
 2558 00a7 0200     		.2byte	0x2
 2559 00a9 7D       		.byte	0x7d
 2560 00aa 00       		.sleb128 0
 2561 00ab 02000000 		.4byte	.LCFI2
 2562 00af 38000000 		.4byte	.LFE122
 2563 00b3 0200     		.2byte	0x2
 2564 00b5 7D       		.byte	0x7d
 2565 00b6 08       		.sleb128 8
 2566 00b7 00000000 		.4byte	0
 2567 00bb 00000000 		.4byte	0
 2568              	.LLST6:
 2569 00bf 00000000 		.4byte	.LVL14
 2570 00c3 08000000 		.4byte	.LVL15
 2571 00c7 0100     		.2byte	0x1
 2572 00c9 50       		.byte	0x50
 2573 00ca 08000000 		.4byte	.LVL15
 2574 00ce 0A000000 		.4byte	.LVL16
 2575 00d2 0400     		.2byte	0x4
 2576 00d4 F3       		.byte	0xf3
 2577 00d5 01       		.uleb128 0x1
 2578 00d6 50       		.byte	0x50
 2579 00d7 9F       		.byte	0x9f
 2580 00d8 0A000000 		.4byte	.LVL16
 2581 00dc 1C000000 		.4byte	.LVL17
 2582 00e0 0100     		.2byte	0x1
 2583 00e2 50       		.byte	0x50
 2584 00e3 1C000000 		.4byte	.LVL17
 2585 00e7 38000000 		.4byte	.LFE122
 2586 00eb 0400     		.2byte	0x4
 2587 00ed F3       		.byte	0xf3
 2588 00ee 01       		.uleb128 0x1
 2589 00ef 50       		.byte	0x50
 2590 00f0 9F       		.byte	0x9f
 2591 00f1 00000000 		.4byte	0
 2592 00f5 00000000 		.4byte	0
 2593              	.LLST7:
 2594 00f9 00000000 		.4byte	.LVL19
 2595 00fd 06000000 		.4byte	.LVL20
 2596 0101 0100     		.2byte	0x1
 2597 0103 50       		.byte	0x50
 2598 0104 06000000 		.4byte	.LVL20
 2599 0108 18000000 		.4byte	.LFE123
 2600 010c 0400     		.2byte	0x4
 2601 010e F3       		.byte	0xf3
 2602 010f 01       		.uleb128 0x1
 2603 0110 50       		.byte	0x50
 2604 0111 9F       		.byte	0x9f
 2605 0112 00000000 		.4byte	0
 2606 0116 00000000 		.4byte	0
 2607              	.LLST8:
ARM GAS  /tmp/ccGLwFpz.s 			page 47


 2608 011a 00000000 		.4byte	.LVL19
 2609 011e 08000000 		.4byte	.LVL21
 2610 0122 0100     		.2byte	0x1
 2611 0124 51       		.byte	0x51
 2612 0125 08000000 		.4byte	.LVL21
 2613 0129 18000000 		.4byte	.LFE123
 2614 012d 0400     		.2byte	0x4
 2615 012f F3       		.byte	0xf3
 2616 0130 01       		.uleb128 0x1
 2617 0131 51       		.byte	0x51
 2618 0132 9F       		.byte	0x9f
 2619 0133 00000000 		.4byte	0
 2620 0137 00000000 		.4byte	0
 2621              	.LLST9:
 2622 013b 00000000 		.4byte	.LVL23
 2623 013f 06000000 		.4byte	.LVL24
 2624 0143 0100     		.2byte	0x1
 2625 0145 51       		.byte	0x51
 2626 0146 06000000 		.4byte	.LVL24
 2627 014a 1A000000 		.4byte	.LFE125
 2628 014e 0400     		.2byte	0x4
 2629 0150 F3       		.byte	0xf3
 2630 0151 01       		.uleb128 0x1
 2631 0152 51       		.byte	0x51
 2632 0153 9F       		.byte	0x9f
 2633 0154 00000000 		.4byte	0
 2634 0158 00000000 		.4byte	0
 2635              		.section	.debug_aranges,"",%progbits
 2636 0000 4C000000 		.4byte	0x4c
 2637 0004 0200     		.2byte	0x2
 2638 0006 00000000 		.4byte	.Ldebug_info0
 2639 000a 04       		.byte	0x4
 2640 000b 00       		.byte	0
 2641 000c 0000     		.2byte	0
 2642 000e 0000     		.2byte	0
 2643 0010 00000000 		.4byte	.LFB119
 2644 0014 38000000 		.4byte	.LFE119-.LFB119
 2645 0018 00000000 		.4byte	.LFB120
 2646 001c 16000000 		.4byte	.LFE120-.LFB120
 2647 0020 00000000 		.4byte	.LFB121
 2648 0024 74000000 		.4byte	.LFE121-.LFB121
 2649 0028 00000000 		.4byte	.LFB122
 2650 002c 38000000 		.4byte	.LFE122-.LFB122
 2651 0030 00000000 		.4byte	.LFB123
 2652 0034 18000000 		.4byte	.LFE123-.LFB123
 2653 0038 00000000 		.4byte	.LFB124
 2654 003c 0C000000 		.4byte	.LFE124-.LFB124
 2655 0040 00000000 		.4byte	.LFB125
 2656 0044 1A000000 		.4byte	.LFE125-.LFB125
 2657 0048 00000000 		.4byte	0
 2658 004c 00000000 		.4byte	0
 2659              		.section	.debug_ranges,"",%progbits
 2660              	.Ldebug_ranges0:
 2661 0000 00000000 		.4byte	.LFB119
 2662 0004 38000000 		.4byte	.LFE119
 2663 0008 00000000 		.4byte	.LFB120
 2664 000c 16000000 		.4byte	.LFE120
ARM GAS  /tmp/ccGLwFpz.s 			page 48


 2665 0010 00000000 		.4byte	.LFB121
 2666 0014 74000000 		.4byte	.LFE121
 2667 0018 00000000 		.4byte	.LFB122
 2668 001c 38000000 		.4byte	.LFE122
 2669 0020 00000000 		.4byte	.LFB123
 2670 0024 18000000 		.4byte	.LFE123
 2671 0028 00000000 		.4byte	.LFB124
 2672 002c 0C000000 		.4byte	.LFE124
 2673 0030 00000000 		.4byte	.LFB125
 2674 0034 1A000000 		.4byte	.LFE125
 2675 0038 00000000 		.4byte	0
 2676 003c 00000000 		.4byte	0
 2677              		.section	.debug_line,"",%progbits
 2678              	.Ldebug_line0:
 2679 0000 DD020000 		.section	.debug_str,"MS",%progbits,1
 2679      02000502 
 2679      00000201 
 2679      FB0E0D00 
 2679      01010101 
 2680              	.LASF192:
 2681 0000 2F686F6D 		.ascii	"/home/rob/Projects/stm32/src/rocket_tracks\000"
 2681      652F726F 
 2681      622F5072 
 2681      6F6A6563 
 2681      74732F73 
 2682              	.LASF126:
 2683 002b 41504231 		.ascii	"APB1LPENR\000"
 2683      4C50454E 
 2683      5200
 2684              	.LASF159:
 2685 0035 4750545F 		.ascii	"GPT_READY\000"
 2685      52454144 
 2685      5900
 2686              	.LASF44:
 2687 003f 43414E31 		.ascii	"CAN1_RX0_IRQn\000"
 2687      5F525830 
 2687      5F495251 
 2687      6E00
 2688              	.LASF25:
 2689 004d 5056445F 		.ascii	"PVD_IRQn\000"
 2689      4952516E 
 2689      00
 2690              	.LASF88:
 2691 0056 43414E32 		.ascii	"CAN2_RX0_IRQn\000"
 2691      5F525830 
 2691      5F495251 
 2691      6E00
 2692              	.LASF188:
 2693 0064 63684462 		.ascii	"chDbgPanic\000"
 2693      6750616E 
 2693      696300
 2694              	.LASF93:
 2695 006f 444D4132 		.ascii	"DMA2_Stream6_IRQn\000"
 2695      5F537472 
 2695      65616D36 
 2695      5F495251 
 2695      6E00
ARM GAS  /tmp/ccGLwFpz.s 			page 49


 2696              	.LASF97:
 2697 0081 49324333 		.ascii	"I2C3_ER_IRQn\000"
 2697      5F45525F 
 2697      4952516E 
 2697      00
 2698              	.LASF134:
 2699 008e 5F726573 		.ascii	"_resvd0\000"
 2699      76643000 
 2700              	.LASF135:
 2701 0096 5F726573 		.ascii	"_resvd1\000"
 2701      76643100 
 2702              	.LASF55:
 2703 009e 49324331 		.ascii	"I2C1_EV_IRQn\000"
 2703      5F45565F 
 2703      4952516E 
 2703      00
 2704              	.LASF139:
 2705 00ab 5F726573 		.ascii	"_resvd3\000"
 2705      76643300 
 2706              	.LASF140:
 2707 00b3 5F726573 		.ascii	"_resvd4\000"
 2707      76643400 
 2708              	.LASF141:
 2709 00bb 5F726573 		.ascii	"_resvd5\000"
 2709      76643500 
 2710              	.LASF143:
 2711 00c3 5F726573 		.ascii	"_resvd6\000"
 2711      76643600 
 2712              	.LASF145:
 2713 00cb 5F726573 		.ascii	"_resvd7\000"
 2713      76643700 
 2714              	.LASF147:
 2715 00d3 5F726573 		.ascii	"_resvd8\000"
 2715      76643800 
 2716              	.LASF148:
 2717 00db 5F726573 		.ascii	"_resvd9\000"
 2717      76643900 
 2718              	.LASF151:
 2719 00e3 5F726573 		.ascii	"_resvd11\000"
 2719      76643131 
 2719      00
 2720              	.LASF45:
 2721 00ec 43414E31 		.ascii	"CAN1_RX1_IRQn\000"
 2721      5F525831 
 2721      5F495251 
 2721      6E00
 2722              	.LASF154:
 2723 00fa 5F726573 		.ascii	"_resvd13\000"
 2723      76643133 
 2723      00
 2724              	.LASF12:
 2725 0103 6C6F6E67 		.ascii	"long long unsigned int\000"
 2725      206C6F6E 
 2725      6720756E 
 2725      7369676E 
 2725      65642069 
 2726              	.LASF155:
ARM GAS  /tmp/ccGLwFpz.s 			page 50


 2727 011a 5F726573 		.ascii	"_resvd14\000"
 2727      76643134 
 2727      00
 2728              	.LASF65:
 2729 0123 5254435F 		.ascii	"RTC_Alarm_IRQn\000"
 2729      416C6172 
 2729      6D5F4952 
 2729      516E00
 2730              	.LASF58:
 2731 0132 49324332 		.ascii	"I2C2_ER_IRQn\000"
 2731      5F45525F 
 2731      4952516E 
 2731      00
 2732              	.LASF54:
 2733 013f 54494D34 		.ascii	"TIM4_IRQn\000"
 2733      5F495251 
 2733      6E00
 2734              	.LASF27:
 2735 0149 5254435F 		.ascii	"RTC_WKUP_IRQn\000"
 2735      574B5550 
 2735      5F495251 
 2735      6E00
 2736              	.LASF24:
 2737 0157 57574447 		.ascii	"WWDG_IRQn\000"
 2737      5F495251 
 2737      6E00
 2738              	.LASF170:
 2739 0161 66726571 		.ascii	"frequency\000"
 2739      75656E63 
 2739      7900
 2740              	.LASF122:
 2741 016b 41484231 		.ascii	"AHB1LPENR\000"
 2741      4C50454E 
 2741      5200
 2742              	.LASF189:
 2743 0175 6E766963 		.ascii	"nvicEnableVector\000"
 2743      456E6162 
 2743      6C655665 
 2743      63746F72 
 2743      00
 2744              	.LASF142:
 2745 0186 43434D52 		.ascii	"CCMR1\000"
 2745      3100
 2746              	.LASF144:
 2747 018c 43434D52 		.ascii	"CCMR2\000"
 2747      3200
 2748              	.LASF11:
 2749 0192 6C6F6E67 		.ascii	"long long int\000"
 2749      206C6F6E 
 2749      6720696E 
 2749      7400
 2750              	.LASF1:
 2751 01a0 7369676E 		.ascii	"signed char\000"
 2751      65642063 
 2751      68617200 
 2752              	.LASF89:
 2753 01ac 43414E32 		.ascii	"CAN2_RX1_IRQn\000"
ARM GAS  /tmp/ccGLwFpz.s 			page 51


 2753      5F525831 
 2753      5F495251 
 2753      6E00
 2754              	.LASF108:
 2755 01ba 41484231 		.ascii	"AHB1RSTR\000"
 2755      52535452 
 2755      00
 2756              	.LASF160:
 2757 01c3 4750545F 		.ascii	"GPT_CONTINUOUS\000"
 2757      434F4E54 
 2757      494E554F 
 2757      555300
 2758              	.LASF191:
 2759 01d2 2E2E2F2E 		.ascii	"../../ChibiOS/os/hal/platforms/STM32/gpt_lld.c\000"
 2759      2E2F4368 
 2759      6962694F 
 2759      532F6F73 
 2759      2F68616C 
 2760              	.LASF149:
 2761 0201 5F726573 		.ascii	"_resvd10\000"
 2761      76643130 
 2761      00
 2762              	.LASF164:
 2763 020a 73746174 		.ascii	"state\000"
 2763      6500
 2764              	.LASF152:
 2765 0210 5F726573 		.ascii	"_resvd12\000"
 2765      76643132 
 2765      00
 2766              	.LASF8:
 2767 0219 6C6F6E67 		.ascii	"long int\000"
 2767      20696E74 
 2767      00
 2768              	.LASF169:
 2769 0222 67707463 		.ascii	"gptcnt_t\000"
 2769      6E745F74 
 2769      00
 2770              	.LASF113:
 2771 022b 41504232 		.ascii	"APB2RSTR\000"
 2771      52535452 
 2771      00
 2772              	.LASF40:
 2773 0234 444D4131 		.ascii	"DMA1_Stream5_IRQn\000"
 2773      5F537472 
 2773      65616D35 
 2773      5F495251 
 2773      6E00
 2774              	.LASF47:
 2775 0246 45585449 		.ascii	"EXTI9_5_IRQn\000"
 2775      395F355F 
 2775      4952516E 
 2775      00
 2776              	.LASF146:
 2777 0253 43434552 		.ascii	"CCER\000"
 2777      00
 2778              	.LASF86:
 2779 0258 4554485F 		.ascii	"ETH_WKUP_IRQn\000"
ARM GAS  /tmp/ccGLwFpz.s 			page 52


 2779      574B5550 
 2779      5F495251 
 2779      6E00
 2780              	.LASF5:
 2781 0266 75696E74 		.ascii	"uint16_t\000"
 2781      31365F74 
 2781      00
 2782              	.LASF182:
 2783 026f 47505444 		.ascii	"GPTD1\000"
 2783      3100
 2784              	.LASF78:
 2785 0275 54494D36 		.ascii	"TIM6_DAC_IRQn\000"
 2785      5F444143 
 2785      5F495251 
 2785      6E00
 2786              	.LASF106:
 2787 0283 504C4C43 		.ascii	"PLLCFGR\000"
 2787      46475200 
 2788              	.LASF76:
 2789 028b 55415254 		.ascii	"UART4_IRQn\000"
 2789      345F4952 
 2789      516E00
 2790              	.LASF66:
 2791 0296 4F54475F 		.ascii	"OTG_FS_WKUP_IRQn\000"
 2791      46535F57 
 2791      4B55505F 
 2791      4952516E 
 2791      00
 2792              	.LASF92:
 2793 02a7 444D4132 		.ascii	"DMA2_Stream5_IRQn\000"
 2793      5F537472 
 2793      65616D35 
 2793      5F495251 
 2793      6E00
 2794              	.LASF68:
 2795 02b9 54494D38 		.ascii	"TIM8_UP_TIM13_IRQn\000"
 2795      5F55505F 
 2795      54494D31 
 2795      335F4952 
 2795      516E00
 2796              	.LASF179:
 2797 02cc 696E7465 		.ascii	"interval\000"
 2797      7276616C 
 2797      00
 2798              	.LASF109:
 2799 02d5 41484232 		.ascii	"AHB2RSTR\000"
 2799      52535452 
 2799      00
 2800              	.LASF163:
 2801 02de 47505444 		.ascii	"GPTDriver\000"
 2801      72697665 
 2801      7200
 2802              	.LASF18:
 2803 02e8 42757346 		.ascii	"BusFault_IRQn\000"
 2803      61756C74 
 2803      5F495251 
 2803      6E00
ARM GAS  /tmp/ccGLwFpz.s 			page 53


 2804              	.LASF70:
 2805 02f6 54494D38 		.ascii	"TIM8_CC_IRQn\000"
 2805      5F43435F 
 2805      4952516E 
 2805      00
 2806              	.LASF22:
 2807 0303 50656E64 		.ascii	"PendSV_IRQn\000"
 2807      53565F49 
 2807      52516E00 
 2808              	.LASF94:
 2809 030f 444D4132 		.ascii	"DMA2_Stream7_IRQn\000"
 2809      5F537472 
 2809      65616D37 
 2809      5F495251 
 2809      6E00
 2810              	.LASF150:
 2811 0321 42445452 		.ascii	"BDTR\000"
 2811      00
 2812              	.LASF167:
 2813 0326 67707463 		.ascii	"gptcallback_t\000"
 2813      616C6C62 
 2813      61636B5F 
 2813      7400
 2814              	.LASF162:
 2815 0334 67707473 		.ascii	"gptstate_t\000"
 2815      74617465 
 2815      5F7400
 2816              	.LASF0:
 2817 033f 756E7369 		.ascii	"unsigned int\000"
 2817      676E6564 
 2817      20696E74 
 2817      00
 2818              	.LASF38:
 2819 034c 444D4131 		.ascii	"DMA1_Stream3_IRQn\000"
 2819      5F537472 
 2819      65616D33 
 2819      5F495251 
 2819      6E00
 2820              	.LASF187:
 2821 035e 6770744F 		.ascii	"gptObjectInit\000"
 2821      626A6563 
 2821      74496E69 
 2821      7400
 2822              	.LASF41:
 2823 036c 444D4131 		.ascii	"DMA1_Stream6_IRQn\000"
 2823      5F537472 
 2823      65616D36 
 2823      5F495251 
 2823      6E00
 2824              	.LASF17:
 2825 037e 4D656D6F 		.ascii	"MemoryManagement_IRQn\000"
 2825      72794D61 
 2825      6E616765 
 2825      6D656E74 
 2825      5F495251 
 2826              	.LASF180:
 2827 0394 6770745F 		.ascii	"gpt_lld_polled_delay\000"
ARM GAS  /tmp/ccGLwFpz.s 			page 54


 2827      6C6C645F 
 2827      706F6C6C 
 2827      65645F64 
 2827      656C6179 
 2828              	.LASF10:
 2829 03a9 6C6F6E67 		.ascii	"long unsigned int\000"
 2829      20756E73 
 2829      69676E65 
 2829      6420696E 
 2829      7400
 2830              	.LASF133:
 2831 03bb 5243435F 		.ascii	"RCC_TypeDef\000"
 2831      54797065 
 2831      44656600 
 2832              	.LASF185:
 2833 03c7 5F706F72 		.ascii	"_port_irq_epilogue\000"
 2833      745F6972 
 2833      715F6570 
 2833      696C6F67 
 2833      756500
 2834              	.LASF173:
 2835 03da 67707470 		.ascii	"gptp\000"
 2835      00
 2836              	.LASF98:
 2837 03df 4F54475F 		.ascii	"OTG_HS_EP1_OUT_IRQn\000"
 2837      48535F45 
 2837      50315F4F 
 2837      55545F49 
 2837      52516E00 
 2838              	.LASF73:
 2839 03f3 5344494F 		.ascii	"SDIO_IRQn\000"
 2839      5F495251 
 2839      6E00
 2840              	.LASF157:
 2841 03fd 4750545F 		.ascii	"GPT_UNINIT\000"
 2841      554E494E 
 2841      495400
 2842              	.LASF20:
 2843 0408 53564361 		.ascii	"SVCall_IRQn\000"
 2843      6C6C5F49 
 2843      52516E00 
 2844              	.LASF136:
 2845 0414 534D4352 		.ascii	"SMCR\000"
 2845      00
 2846              	.LASF82:
 2847 0419 444D4132 		.ascii	"DMA2_Stream2_IRQn\000"
 2847      5F537472 
 2847      65616D32 
 2847      5F495251 
 2847      6E00
 2848              	.LASF132:
 2849 042b 504C4C49 		.ascii	"PLLI2SCFGR\000"
 2849      32534346 
 2849      475200
 2850              	.LASF43:
 2851 0436 43414E31 		.ascii	"CAN1_TX_IRQn\000"
 2851      5F54585F 
ARM GAS  /tmp/ccGLwFpz.s 			page 55


 2851      4952516E 
 2851      00
 2852              	.LASF110:
 2853 0443 41484233 		.ascii	"AHB3RSTR\000"
 2853      52535452 
 2853      00
 2854              	.LASF64:
 2855 044c 45585449 		.ascii	"EXTI15_10_IRQn\000"
 2855      31355F31 
 2855      305F4952 
 2855      516E00
 2856              	.LASF59:
 2857 045b 53504931 		.ascii	"SPI1_IRQn\000"
 2857      5F495251 
 2857      6E00
 2858              	.LASF171:
 2859 0465 63616C6C 		.ascii	"callback\000"
 2859      6261636B 
 2859      00
 2860              	.LASF175:
 2861 046e 6770745F 		.ascii	"gpt_lld_init\000"
 2861      6C6C645F 
 2861      696E6974 
 2861      00
 2862              	.LASF156:
 2863 047b 73746D33 		.ascii	"stm32_tim_t\000"
 2863      325F7469 
 2863      6D5F7400 
 2864              	.LASF127:
 2865 0487 41504232 		.ascii	"APB2LPENR\000"
 2865      4C50454E 
 2865      5200
 2866              	.LASF67:
 2867 0491 54494D38 		.ascii	"TIM8_BRK_TIM12_IRQn\000"
 2867      5F42524B 
 2867      5F54494D 
 2867      31325F49 
 2867      52516E00 
 2868              	.LASF23:
 2869 04a5 53797354 		.ascii	"SysTick_IRQn\000"
 2869      69636B5F 
 2869      4952516E 
 2869      00
 2870              	.LASF51:
 2871 04b2 54494D31 		.ascii	"TIM1_CC_IRQn\000"
 2871      5F43435F 
 2871      4952516E 
 2871      00
 2872              	.LASF69:
 2873 04bf 54494D38 		.ascii	"TIM8_TRG_COM_TIM14_IRQn\000"
 2873      5F545247 
 2873      5F434F4D 
 2873      5F54494D 
 2873      31345F49 
 2874              	.LASF193:
 2875 04d7 4952516E 		.ascii	"IRQn\000"
 2875      00
ARM GAS  /tmp/ccGLwFpz.s 			page 56


 2876              	.LASF14:
 2877 04dc 73697A65 		.ascii	"sizetype\000"
 2877      74797065 
 2877      00
 2878              	.LASF85:
 2879 04e5 4554485F 		.ascii	"ETH_IRQn\000"
 2879      4952516E 
 2879      00
 2880              	.LASF49:
 2881 04ee 54494D31 		.ascii	"TIM1_UP_TIM10_IRQn\000"
 2881      5F55505F 
 2881      54494D31 
 2881      305F4952 
 2881      516E00
 2882              	.LASF83:
 2883 0501 444D4132 		.ascii	"DMA2_Stream3_IRQn\000"
 2883      5F537472 
 2883      65616D33 
 2883      5F495251 
 2883      6E00
 2884              	.LASF39:
 2885 0513 444D4131 		.ascii	"DMA1_Stream4_IRQn\000"
 2885      5F537472 
 2885      65616D34 
 2885      5F495251 
 2885      6E00
 2886              	.LASF95:
 2887 0525 55534152 		.ascii	"USART6_IRQn\000"
 2887      54365F49 
 2887      52516E00 
 2888              	.LASF186:
 2889 0531 6770745F 		.ascii	"gpt_lld_stop_timer\000"
 2889      6C6C645F 
 2889      73746F70 
 2889      5F74696D 
 2889      657200
 2890              	.LASF74:
 2891 0544 54494D35 		.ascii	"TIM5_IRQn\000"
 2891      5F495251 
 2891      6E00
 2892              	.LASF33:
 2893 054e 45585449 		.ascii	"EXTI3_IRQn\000"
 2893      335F4952 
 2893      516E00
 2894              	.LASF60:
 2895 0559 53504932 		.ascii	"SPI2_IRQn\000"
 2895      5F495251 
 2895      6E00
 2896              	.LASF37:
 2897 0563 444D4131 		.ascii	"DMA1_Stream2_IRQn\000"
 2897      5F537472 
 2897      65616D32 
 2897      5F495251 
 2897      6E00
 2898              	.LASF87:
 2899 0575 43414E32 		.ascii	"CAN2_TX_IRQn\000"
 2899      5F54585F 
ARM GAS  /tmp/ccGLwFpz.s 			page 57


 2899      4952516E 
 2899      00
 2900              	.LASF123:
 2901 0582 41484232 		.ascii	"AHB2LPENR\000"
 2901      4C50454E 
 2901      5200
 2902              	.LASF190:
 2903 058c 474E5520 		.ascii	"GNU C 4.7.2\000"
 2903      4320342E 
 2903      372E3200 
 2904              	.LASF178:
 2905 0598 6770745F 		.ascii	"gpt_lld_start_timer\000"
 2905      6C6C645F 
 2905      73746172 
 2905      745F7469 
 2905      6D657200 
 2906              	.LASF101:
 2907 05ac 4F54475F 		.ascii	"OTG_HS_IRQn\000"
 2907      48535F49 
 2907      52516E00 
 2908              	.LASF194:
 2909 05b8 6770745F 		.ascii	"gpt_lld_serve_interrupt\000"
 2909      6C6C645F 
 2909      73657276 
 2909      655F696E 
 2909      74657272 
 2910              	.LASF111:
 2911 05d0 52455345 		.ascii	"RESERVED0\000"
 2911      52564544 
 2911      3000
 2912              	.LASF114:
 2913 05da 52455345 		.ascii	"RESERVED1\000"
 2913      52564544 
 2913      3100
 2914              	.LASF118:
 2915 05e4 52455345 		.ascii	"RESERVED2\000"
 2915      52564544 
 2915      3200
 2916              	.LASF121:
 2917 05ee 52455345 		.ascii	"RESERVED3\000"
 2917      52564544 
 2917      3300
 2918              	.LASF125:
 2919 05f8 52455345 		.ascii	"RESERVED4\000"
 2919      52564544 
 2919      3400
 2920              	.LASF128:
 2921 0602 52455345 		.ascii	"RESERVED5\000"
 2921      52564544 
 2921      3500
 2922              	.LASF130:
 2923 060c 52455345 		.ascii	"RESERVED6\000"
 2923      52564544 
 2923      3600
 2924              	.LASF75:
 2925 0616 53504933 		.ascii	"SPI3_IRQn\000"
 2925      5F495251 
ARM GAS  /tmp/ccGLwFpz.s 			page 58


 2925      6E00
 2926              	.LASF84:
 2927 0620 444D4132 		.ascii	"DMA2_Stream4_IRQn\000"
 2927      5F537472 
 2927      65616D34 
 2927      5F495251 
 2927      6E00
 2928              	.LASF72:
 2929 0632 46534D43 		.ascii	"FSMC_IRQn\000"
 2929      5F495251 
 2929      6E00
 2930              	.LASF13:
 2931 063c 5F426F6F 		.ascii	"_Bool\000"
 2931      6C00
 2932              	.LASF7:
 2933 0642 696E7433 		.ascii	"int32_t\000"
 2933      325F7400 
 2934              	.LASF2:
 2935 064a 756E7369 		.ascii	"unsigned char\000"
 2935      676E6564 
 2935      20636861 
 2935      7200
 2936              	.LASF48:
 2937 0658 54494D31 		.ascii	"TIM1_BRK_TIM9_IRQn\000"
 2937      5F42524B 
 2937      5F54494D 
 2937      395F4952 
 2937      516E00
 2938              	.LASF181:
 2939 066b 49544D5F 		.ascii	"ITM_RxBuffer\000"
 2939      52784275 
 2939      66666572 
 2939      00
 2940              	.LASF34:
 2941 0678 45585449 		.ascii	"EXTI4_IRQn\000"
 2941      345F4952 
 2941      516E00
 2942              	.LASF104:
 2943 0683 48415348 		.ascii	"HASH_RNG_IRQn\000"
 2943      5F524E47 
 2943      5F495251 
 2943      6E00
 2944              	.LASF3:
 2945 0691 73686F72 		.ascii	"short int\000"
 2945      7420696E 
 2945      7400
 2946              	.LASF124:
 2947 069b 41484233 		.ascii	"AHB3LPENR\000"
 2947      4C50454E 
 2947      5200
 2948              	.LASF77:
 2949 06a5 55415254 		.ascii	"UART5_IRQn\000"
 2949      355F4952 
 2949      516E00
 2950              	.LASF50:
 2951 06b0 54494D31 		.ascii	"TIM1_TRG_COM_TIM11_IRQn\000"
 2951      5F545247 
ARM GAS  /tmp/ccGLwFpz.s 			page 59


 2951      5F434F4D 
 2951      5F54494D 
 2951      31315F49 
 2952              	.LASF6:
 2953 06c8 73686F72 		.ascii	"short unsigned int\000"
 2953      7420756E 
 2953      7369676E 
 2953      65642069 
 2953      6E7400
 2954              	.LASF32:
 2955 06db 45585449 		.ascii	"EXTI2_IRQn\000"
 2955      325F4952 
 2955      516E00
 2956              	.LASF120:
 2957 06e6 41504232 		.ascii	"APB2ENR\000"
 2957      454E5200 
 2958              	.LASF117:
 2959 06ee 41484233 		.ascii	"AHB3ENR\000"
 2959      454E5200 
 2960              	.LASF28:
 2961 06f6 464C4153 		.ascii	"FLASH_IRQn\000"
 2961      485F4952 
 2961      516E00
 2962              	.LASF161:
 2963 0701 4750545F 		.ascii	"GPT_ONESHOT\000"
 2963      4F4E4553 
 2963      484F5400 
 2964              	.LASF91:
 2965 070d 4F54475F 		.ascii	"OTG_FS_IRQn\000"
 2965      46535F49 
 2965      52516E00 
 2966              	.LASF9:
 2967 0719 75696E74 		.ascii	"uint32_t\000"
 2967      33325F74 
 2967      00
 2968              	.LASF62:
 2969 0722 55534152 		.ascii	"USART2_IRQn\000"
 2969      54325F49 
 2969      52516E00 
 2970              	.LASF19:
 2971 072e 55736167 		.ascii	"UsageFault_IRQn\000"
 2971      65466175 
 2971      6C745F49 
 2971      52516E00 
 2972              	.LASF195:
 2973 073e 6E766963 		.ascii	"nvicDisableVector\000"
 2973      44697361 
 2973      626C6556 
 2973      6563746F 
 2973      7200
 2974              	.LASF137:
 2975 0750 5F726573 		.ascii	"_resvd2\000"
 2975      76643200 
 2976              	.LASF71:
 2977 0758 444D4131 		.ascii	"DMA1_Stream7_IRQn\000"
 2977      5F537472 
 2977      65616D37 
ARM GAS  /tmp/ccGLwFpz.s 			page 60


 2977      5F495251 
 2977      6E00
 2978              	.LASF15:
 2979 076a 63686172 		.ascii	"char\000"
 2979      00
 2980              	.LASF103:
 2981 076f 43525950 		.ascii	"CRYP_IRQn\000"
 2981      5F495251 
 2981      6E00
 2982              	.LASF165:
 2983 0779 636F6E66 		.ascii	"config\000"
 2983      696700
 2984              	.LASF153:
 2985 0780 444D4152 		.ascii	"DMAR\000"
 2985      00
 2986              	.LASF168:
 2987 0785 67707466 		.ascii	"gptfreq_t\000"
 2987      7265715F 
 2987      7400
 2988              	.LASF79:
 2989 078f 54494D37 		.ascii	"TIM7_IRQn\000"
 2989      5F495251 
 2989      6E00
 2990              	.LASF36:
 2991 0799 444D4131 		.ascii	"DMA1_Stream1_IRQn\000"
 2991      5F537472 
 2991      65616D31 
 2991      5F495251 
 2991      6E00
 2992              	.LASF99:
 2993 07ab 4F54475F 		.ascii	"OTG_HS_EP1_IN_IRQn\000"
 2993      48535F45 
 2993      50315F49 
 2993      4E5F4952 
 2993      516E00
 2994              	.LASF16:
 2995 07be 4E6F6E4D 		.ascii	"NonMaskableInt_IRQn\000"
 2995      61736B61 
 2995      626C6549 
 2995      6E745F49 
 2995      52516E00 
 2996              	.LASF119:
 2997 07d2 41504231 		.ascii	"APB1ENR\000"
 2997      454E5200 
 2998              	.LASF172:
 2999 07da 47505443 		.ascii	"GPTConfig\000"
 2999      6F6E6669 
 2999      6700
 3000              	.LASF116:
 3001 07e4 41484232 		.ascii	"AHB2ENR\000"
 3001      454E5200 
 3002              	.LASF26:
 3003 07ec 54414D50 		.ascii	"TAMP_STAMP_IRQn\000"
 3003      5F535441 
 3003      4D505F49 
 3003      52516E00 
 3004              	.LASF184:
ARM GAS  /tmp/ccGLwFpz.s 			page 61


 3005 07fc 6462675F 		.ascii	"dbg_check_leave_isr\000"
 3005      63686563 
 3005      6B5F6C65 
 3005      6176655F 
 3005      69737200 
 3006              	.LASF21:
 3007 0810 44656275 		.ascii	"DebugMonitor_IRQn\000"
 3007      674D6F6E 
 3007      69746F72 
 3007      5F495251 
 3007      6E00
 3008              	.LASF80:
 3009 0822 444D4132 		.ascii	"DMA2_Stream0_IRQn\000"
 3009      5F537472 
 3009      65616D30 
 3009      5F495251 
 3009      6E00
 3010              	.LASF176:
 3011 0834 6770745F 		.ascii	"gpt_lld_start\000"
 3011      6C6C645F 
 3011      73746172 
 3011      7400
 3012              	.LASF57:
 3013 0842 49324332 		.ascii	"I2C2_EV_IRQn\000"
 3013      5F45565F 
 3013      4952516E 
 3013      00
 3014              	.LASF63:
 3015 084f 55534152 		.ascii	"USART3_IRQn\000"
 3015      54335F49 
 3015      52516E00 
 3016              	.LASF131:
 3017 085b 53534347 		.ascii	"SSCGR\000"
 3017      5200
 3018              	.LASF52:
 3019 0861 54494D32 		.ascii	"TIM2_IRQn\000"
 3019      5F495251 
 3019      6E00
 3020              	.LASF112:
 3021 086b 41504231 		.ascii	"APB1RSTR\000"
 3021      52535452 
 3021      00
 3022              	.LASF30:
 3023 0874 45585449 		.ascii	"EXTI0_IRQn\000"
 3023      305F4952 
 3023      516E00
 3024              	.LASF61:
 3025 087f 55534152 		.ascii	"USART1_IRQn\000"
 3025      54315F49 
 3025      52516E00 
 3026              	.LASF177:
 3027 088b 6770745F 		.ascii	"gpt_lld_stop\000"
 3027      6C6C645F 
 3027      73746F70 
 3027      00
 3028              	.LASF129:
 3029 0898 42444352 		.ascii	"BDCR\000"
ARM GAS  /tmp/ccGLwFpz.s 			page 62


 3029      00
 3030              	.LASF183:
 3031 089d 6462675F 		.ascii	"dbg_check_enter_isr\000"
 3031      63686563 
 3031      6B5F656E 
 3031      7465725F 
 3031      69737200 
 3032              	.LASF4:
 3033 08b1 75696E74 		.ascii	"uint8_t\000"
 3033      385F7400 
 3034              	.LASF102:
 3035 08b9 44434D49 		.ascii	"DCMI_IRQn\000"
 3035      5F495251 
 3035      6E00
 3036              	.LASF158:
 3037 08c3 4750545F 		.ascii	"GPT_STOP\000"
 3037      53544F50 
 3037      00
 3038              	.LASF115:
 3039 08cc 41484231 		.ascii	"AHB1ENR\000"
 3039      454E5200 
 3040              	.LASF138:
 3041 08d4 44494552 		.ascii	"DIER\000"
 3041      00
 3042              	.LASF174:
 3043 08d9 56656374 		.ascii	"VectorA4\000"
 3043      6F724134 
 3043      00
 3044              	.LASF105:
 3045 08e2 4650555F 		.ascii	"FPU_IRQn\000"
 3045      4952516E 
 3045      00
 3046              	.LASF107:
 3047 08eb 43464752 		.ascii	"CFGR\000"
 3047      00
 3048              	.LASF166:
 3049 08f0 636C6F63 		.ascii	"clock\000"
 3049      6B00
 3050              	.LASF56:
 3051 08f6 49324331 		.ascii	"I2C1_ER_IRQn\000"
 3051      5F45525F 
 3051      4952516E 
 3051      00
 3052              	.LASF42:
 3053 0903 4144435F 		.ascii	"ADC_IRQn\000"
 3053      4952516E 
 3053      00
 3054              	.LASF81:
 3055 090c 444D4132 		.ascii	"DMA2_Stream1_IRQn\000"
 3055      5F537472 
 3055      65616D31 
 3055      5F495251 
 3055      6E00
 3056              	.LASF96:
 3057 091e 49324333 		.ascii	"I2C3_EV_IRQn\000"
 3057      5F45565F 
 3057      4952516E 
ARM GAS  /tmp/ccGLwFpz.s 			page 63


 3057      00
 3058              	.LASF46:
 3059 092b 43414E31 		.ascii	"CAN1_SCE_IRQn\000"
 3059      5F534345 
 3059      5F495251 
 3059      6E00
 3060              	.LASF90:
 3061 0939 43414E32 		.ascii	"CAN2_SCE_IRQn\000"
 3061      5F534345 
 3061      5F495251 
 3061      6E00
 3062              	.LASF29:
 3063 0947 5243435F 		.ascii	"RCC_IRQn\000"
 3063      4952516E 
 3063      00
 3064              	.LASF100:
 3065 0950 4F54475F 		.ascii	"OTG_HS_WKUP_IRQn\000"
 3065      48535F57 
 3065      4B55505F 
 3065      4952516E 
 3065      00
 3066              	.LASF53:
 3067 0961 54494D33 		.ascii	"TIM3_IRQn\000"
 3067      5F495251 
 3067      6E00
 3068              	.LASF31:
 3069 096b 45585449 		.ascii	"EXTI1_IRQn\000"
 3069      315F4952 
 3069      516E00
 3070              	.LASF35:
 3071 0976 444D4131 		.ascii	"DMA1_Stream0_IRQn\000"
 3071      5F537472 
 3071      65616D30 
 3071      5F495251 
 3071      6E00
 3072              		.ident	"GCC: (crosstool-NG 1.17.0 - PSAS ST32F4 GFE) 4.7.2"
ARM GAS  /tmp/ccGLwFpz.s 			page 64


DEFINED SYMBOLS
                            *ABS*:0000000000000000 gpt_lld.c
     /tmp/ccGLwFpz.s:21     .text.VectorA4:0000000000000000 $t
     /tmp/ccGLwFpz.s:27     .text.VectorA4:0000000000000000 VectorA4
     /tmp/ccGLwFpz.s:92     .text.VectorA4:0000000000000034 $d
     /tmp/ccGLwFpz.s:97     .text.gpt_lld_init:0000000000000000 $t
     /tmp/ccGLwFpz.s:103    .text.gpt_lld_init:0000000000000000 gpt_lld_init
     /tmp/ccGLwFpz.s:397    .bss.GPTD1:0000000000000000 .LANCHOR0
     /tmp/ccGLwFpz.s:127    .text.gpt_lld_start:0000000000000000 $t
     /tmp/ccGLwFpz.s:133    .text.gpt_lld_start:0000000000000000 gpt_lld_start
     /tmp/ccGLwFpz.s:221    .text.gpt_lld_start:000000000000006c $d
     /tmp/ccGLwFpz.s:227    .text.gpt_lld_stop:0000000000000000 $t
     /tmp/ccGLwFpz.s:233    .text.gpt_lld_stop:0000000000000000 gpt_lld_stop
     /tmp/ccGLwFpz.s:281    .text.gpt_lld_stop:0000000000000034 $d
     /tmp/ccGLwFpz.s:286    .text.gpt_lld_start_timer:0000000000000000 $t
     /tmp/ccGLwFpz.s:292    .text.gpt_lld_start_timer:0000000000000000 gpt_lld_start_timer
     /tmp/ccGLwFpz.s:327    .text.gpt_lld_stop_timer:0000000000000000 $t
     /tmp/ccGLwFpz.s:333    .text.gpt_lld_stop_timer:0000000000000000 gpt_lld_stop_timer
     /tmp/ccGLwFpz.s:354    .text.gpt_lld_polled_delay:0000000000000000 $t
     /tmp/ccGLwFpz.s:360    .text.gpt_lld_polled_delay:0000000000000000 gpt_lld_polled_delay
     /tmp/ccGLwFpz.s:400    .bss.GPTD1:0000000000000000 GPTD1
     /tmp/ccGLwFpz.s:396    .bss.GPTD1:0000000000000000 $d
     /tmp/ccGLwFpz.s:403    .rodata.str1.4:0000000000000000 $d
                     .debug_frame:0000000000000010 $d
     /tmp/ccGLwFpz.s:96     .text.VectorA4:0000000000000038 $t
     /tmp/ccGLwFpz.s:226    .text.gpt_lld_start:0000000000000074 $t
     /tmp/ccGLwFpz.s:285    .text.gpt_lld_stop:0000000000000038 $t

UNDEFINED SYMBOLS
dbg_check_enter_isr
dbg_check_leave_isr
_port_irq_epilogue
gptObjectInit
chDbgPanic
nvicEnableVector
nvicDisableVector
