ARM GAS  /tmp/ccGLwFpz.s 			page 1


   1              		.syntax unified
   2              		.cpu cortex-m4
   3              		.eabi_attribute 27, 3
   4              		.eabi_attribute 28, 1
   5              		.fpu fpv4-sp-d16
   6              		.eabi_attribute 20, 1
   7              		.eabi_attribute 21, 1
   8              		.eabi_attribute 23, 3
   9              		.eabi_attribute 24, 1
  10              		.eabi_attribute 25, 1
  11              		.eabi_attribute 26, 1
  12              		.eabi_attribute 30, 2
  13              		.eabi_attribute 34, 1
  14              		.eabi_attribute 18, 4
  15              		.thumb
  16              		.file	"gpt_lld.c"
  17              		.text
  18              	.Ltext0:
  19              		.cfi_sections	.debug_frame
  20              		.section	.text.VectorA4,"ax",%progbits
  21              		.align	2
  22              		.p2align 4,,15
  23              		.global	VectorA4
  24              		.thumb
  25              		.thumb_func
  26              		.type	VectorA4, %function
  27              	VectorA4:
  28              	.LFB119:
  29              		.file 1 "../../ChibiOS/os/hal/platforms/STM32/gpt_lld.c"
  30              		.loc 1 170 0
  31              		.cfi_startproc
  32              		@ args = 0, pretend = 0, frame = 0
  33              		@ frame_needed = 0, uses_anonymous_args = 0
  34 0000 08B5     		push	{r3, lr}
  35              	.LCFI0:
  36              		.cfi_def_cfa_offset 8
  37              		.cfi_offset 3, -8
  38              		.cfi_offset 14, -4
  39              		.loc 1 172 0
  40 0002 FFF7FEFF 		bl	dbg_check_enter_isr
  41              	.LVL0:
  42              	.LBB8:
  43              	.LBB9:
  44              		.loc 1 149 0
  45 0006 0B4B     		ldr	r3, .L4
  46              		.loc 1 150 0
  47 0008 1878     		ldrb	r0, [r3, #0]	@ zero_extendqisi2
  48              		.loc 1 149 0
  49 000a DA68     		ldr	r2, [r3, #12]
  50 000c 0021     		movs	r1, #0
  51              		.loc 1 150 0
  52 000e 0428     		cmp	r0, #4
  53              		.loc 1 149 0
  54 0010 1182     		strh	r1, [r2, #16]	@ movhi
  55              		.loc 1 150 0
  56 0012 04D1     		bne	.L2
  57              		.loc 1 151 0
ARM GAS  /tmp/ccGLwFpz.s 			page 2


  58 0014 0220     		movs	r0, #2
  59 0016 1870     		strb	r0, [r3, #0]
  60              	.LVL1:
  61              	.LBB10:
  62              	.LBB11:
  63              		.loc 1 734 0
  64 0018 1180     		strh	r1, [r2, #0]	@ movhi
  65              		.loc 1 735 0
  66 001a 1182     		strh	r1, [r2, #16]	@ movhi
  67              		.loc 1 736 0
  68 001c 9181     		strh	r1, [r2, #12]	@ movhi
  69              	.LVL2:
  70              	.L2:
  71              	.LBE11:
  72              	.LBE10:
  73              		.loc 1 154 0
  74 001e 5B68     		ldr	r3, [r3, #4]
  75 0020 0448     		ldr	r0, .L4
  76 0022 5B68     		ldr	r3, [r3, #4]
  77 0024 9847     		blx	r3
  78              	.LVL3:
  79              	.LBE9:
  80              	.LBE8:
  81              		.loc 1 176 0
  82 0026 FFF7FEFF 		bl	dbg_check_leave_isr
  83              	.LVL4:
  84              		.loc 1 177 0
  85 002a BDE80840 		pop	{r3, lr}
  86              		.loc 1 176 0
  87 002e FFF7FEBF 		b	_port_irq_epilogue
  88              	.LVL5:
  89              	.L5:
  90 0032 00BF     		.align	2
  91              	.L4:
  92 0034 00000000 		.word	.LANCHOR0
  93              		.cfi_endproc
  94              	.LFE119:
  95              		.size	VectorA4, .-VectorA4
  96 0038 AFF30080 		.section	.text.gpt_lld_init,"ax",%progbits
  96      AFF30080 
  97              		.align	2
  98              		.p2align 4,,15
  99              		.global	gpt_lld_init
 100              		.thumb
 101              		.thumb_func
 102              		.type	gpt_lld_init, %function
 103              	gpt_lld_init:
 104              	.LFB120:
 105              		.loc 1 398 0
 106              		.cfi_startproc
 107              		@ args = 0, pretend = 0, frame = 0
 108              		@ frame_needed = 0, uses_anonymous_args = 0
 109              		@ link register save eliminated.
 110              		.loc 1 402 0
 111 0000 40F20003 		movw	r3, #:lower16:.LANCHOR0
 112 0004 C0F20003 		movt	r3, #:upper16:.LANCHOR0
 113 0008 0022     		movs	r2, #0
ARM GAS  /tmp/ccGLwFpz.s 			page 3


 114 000a C4F20102 		movt	r2, 16385
 115              		.loc 1 403 0
 116 000e 1846     		mov	r0, r3
 117              		.loc 1 402 0
 118 0010 DA60     		str	r2, [r3, #12]
 119              		.loc 1 471 0
 120              		.loc 1 403 0
 121 0012 FFF7FEBF 		b	gptObjectInit
 122              	.LVL6:
 123              		.cfi_endproc
 124              	.LFE120:
 125              		.size	gpt_lld_init, .-gpt_lld_init
 126 0016 00BFAFF3 		.section	.text.gpt_lld_start,"ax",%progbits
 126      0080AFF3 
 126      0080
 127              		.align	2
 128              		.p2align 4,,15
 129              		.global	gpt_lld_start
 130              		.thumb
 131              		.thumb_func
 132              		.type	gpt_lld_start, %function
 133              	gpt_lld_start:
 134              	.LFB121:
 135              		.loc 1 480 0
 136              		.cfi_startproc
 137              		@ args = 0, pretend = 0, frame = 0
 138              		@ frame_needed = 0, uses_anonymous_args = 0
 139              	.LVL7:
 140 0000 38B5     		push	{r3, r4, r5, lr}
 141              	.LCFI1:
 142              		.cfi_def_cfa_offset 16
 143              		.cfi_offset 3, -16
 144              		.cfi_offset 4, -12
 145              		.cfi_offset 5, -8
 146              		.cfi_offset 14, -4
 147              		.loc 1 483 0
 148 0002 0378     		ldrb	r3, [r0, #0]	@ zero_extendqisi2
 149 0004 012B     		cmp	r3, #1
 150              		.loc 1 480 0
 151 0006 0446     		mov	r4, r0
 152              		.loc 1 483 0
 153 0008 15D0     		beq	.L10
 154              	.LVL8:
 155              	.L8:
 156              		.loc 1 604 0
 157 000a 6368     		ldr	r3, [r4, #4]
 158 000c A268     		ldr	r2, [r4, #8]
 159 000e 1B68     		ldr	r3, [r3, #0]
 160 0010 B2FBF3F5 		udiv	r5, r2, r3
 161 0014 013D     		subs	r5, r5, #1
 162 0016 ADB2     		uxth	r5, r5
 163              	.LVL9:
 164              		.loc 1 605 0
 165 0018 05FB0333 		mla	r3, r5, r3, r3
 166 001c 9A42     		cmp	r2, r3
 167 001e 02D0     		beq	.L9
 168              		.loc 1 605 0 is_stmt 0 discriminator 1
ARM GAS  /tmp/ccGLwFpz.s 			page 4


 169 0020 1248     		ldr	r0, .L11
 170 0022 FFF7FEFF 		bl	chDbgPanic
 171              	.LVL10:
 172              	.L9:
 173              		.loc 1 609 0 is_stmt 1
 174 0026 E368     		ldr	r3, [r4, #12]
 175 0028 0022     		movs	r2, #0
 176              		.loc 1 610 0
 177 002a 0821     		movs	r1, #8
 178              		.loc 1 609 0
 179 002c 1A80     		strh	r2, [r3, #0]	@ movhi
 180              		.loc 1 610 0
 181 002e 9980     		strh	r1, [r3, #4]	@ movhi
 182              		.loc 1 611 0
 183 0030 1D85     		strh	r5, [r3, #40]	@ movhi
 184              		.loc 1 612 0
 185 0032 9A81     		strh	r2, [r3, #12]	@ movhi
 186 0034 38BD     		pop	{r3, r4, r5, pc}
 187              	.LVL11:
 188              	.L10:
 189              		.loc 1 486 0
 190 0036 0E4B     		ldr	r3, .L11+4
 191 0038 9842     		cmp	r0, r3
 192 003a E6D1     		bne	.L8
 193              		.loc 1 487 0
 194 003c 4FF46053 		mov	r3, #14336
 195 0040 C4F20203 		movt	r3, 16386
 196              		.loc 1 489 0
 197 0044 1920     		movs	r0, #25
 198              	.LVL12:
 199              		.loc 1 487 0
 200 0046 5A6C     		ldr	r2, [r3, #68]
 201 0048 42F00102 		orr	r2, r2, #1
 202 004c 5A64     		str	r2, [r3, #68]
 203              		.loc 1 488 0
 204 004e 5A6A     		ldr	r2, [r3, #36]
 205 0050 42F00102 		orr	r2, r2, #1
 206 0054 5A62     		str	r2, [r3, #36]
 207 0056 0022     		movs	r2, #0
 208 0058 5A62     		str	r2, [r3, #36]
 209              		.loc 1 489 0
 210 005a 7021     		movs	r1, #112
 211 005c FFF7FEFF 		bl	nvicEnableVector
 212              	.LVL13:
 213              		.loc 1 491 0
 214 0060 4FF4F443 		mov	r3, #31232
 215 0064 C0F60323 		movt	r3, 2563
 216 0068 A360     		str	r3, [r4, #8]
 217 006a CEE7     		b	.L8
 218              	.L12:
 219              		.align	2
 220              	.L11:
 221 006c 00000000 		.word	.LC0
 222 0070 00000000 		.word	.LANCHOR0
 223              		.cfi_endproc
 224              	.LFE121:
 225              		.size	gpt_lld_start, .-gpt_lld_start
ARM GAS  /tmp/ccGLwFpz.s 			page 5


 226 0074 AFF30080 		.section	.text.gpt_lld_stop,"ax",%progbits
 226      AFF30080 
 226      AFF30080 
 227              		.align	2
 228              		.p2align 4,,15
 229              		.global	gpt_lld_stop
 230              		.thumb
 231              		.thumb_func
 232              		.type	gpt_lld_stop, %function
 233              	gpt_lld_stop:
 234              	.LFB122:
 235              		.loc 1 622 0
 236              		.cfi_startproc
 237              		@ args = 0, pretend = 0, frame = 0
 238              		@ frame_needed = 0, uses_anonymous_args = 0
 239              	.LVL14:
 240 0000 08B5     		push	{r3, lr}
 241              	.LCFI2:
 242              		.cfi_def_cfa_offset 8
 243              		.cfi_offset 3, -8
 244              		.cfi_offset 14, -4
 245              		.loc 1 624 0
 246 0002 0378     		ldrb	r3, [r0, #0]	@ zero_extendqisi2
 247 0004 022B     		cmp	r3, #2
 248 0006 00D0     		beq	.L17
 249              	.LVL15:
 250              	.L13:
 251 0008 08BD     		pop	{r3, pc}
 252              	.LVL16:
 253              	.L17:
 254              		.loc 1 625 0
 255 000a C368     		ldr	r3, [r0, #12]
 256 000c 0022     		movs	r2, #0
 257 000e 1A80     		strh	r2, [r3, #0]	@ movhi
 258              		.loc 1 626 0
 259 0010 9A81     		strh	r2, [r3, #12]	@ movhi
 260              		.loc 1 627 0
 261 0012 1A82     		strh	r2, [r3, #16]	@ movhi
 262              		.loc 1 630 0
 263 0014 074B     		ldr	r3, .L18
 264 0016 9842     		cmp	r0, r3
 265 0018 F6D1     		bne	.L13
 266              		.loc 1 631 0
 267 001a 1920     		movs	r0, #25
 268              	.LVL17:
 269 001c FFF7FEFF 		bl	nvicDisableVector
 270              	.LVL18:
 271              		.loc 1 632 0
 272 0020 4FF46053 		mov	r3, #14336
 273 0024 C4F20203 		movt	r3, 16386
 274 0028 5A6C     		ldr	r2, [r3, #68]
 275 002a 22F00102 		bic	r2, r2, #1
 276 002e 5A64     		str	r2, [r3, #68]
 277 0030 EAE7     		b	.L13
 278              	.L19:
 279 0032 00BF     		.align	2
 280              	.L18:
ARM GAS  /tmp/ccGLwFpz.s 			page 6


 281 0034 00000000 		.word	.LANCHOR0
 282              		.cfi_endproc
 283              	.LFE122:
 284              		.size	gpt_lld_stop, .-gpt_lld_stop
 285 0038 AFF30080 		.section	.text.gpt_lld_start_timer,"ax",%progbits
 285      AFF30080 
 286              		.align	2
 287              		.p2align 4,,15
 288              		.global	gpt_lld_start_timer
 289              		.thumb
 290              		.thumb_func
 291              		.type	gpt_lld_start_timer, %function
 292              	gpt_lld_start_timer:
 293              	.LFB123:
 294              		.loc 1 712 0
 295              		.cfi_startproc
 296              		@ args = 0, pretend = 0, frame = 0
 297              		@ frame_needed = 0, uses_anonymous_args = 0
 298              		@ link register save eliminated.
 299              	.LVL19:
 300              		.loc 1 714 0
 301 0000 C368     		ldr	r3, [r0, #12]
 302              		.loc 1 715 0
 303 0002 0122     		movs	r2, #1
 304              		.loc 1 716 0
 305 0004 0020     		movs	r0, #0
 306              	.LVL20:
 307              		.loc 1 714 0
 308 0006 0139     		subs	r1, r1, #1
 309              	.LVL21:
 310 0008 D962     		str	r1, [r3, #44]
 311              		.loc 1 715 0
 312 000a 9A82     		strh	r2, [r3, #20]	@ movhi
 313              		.loc 1 716 0
 314 000c 5862     		str	r0, [r3, #36]
 315              		.loc 1 720 0
 316 000e 1882     		strh	r0, [r3, #16]	@ movhi
 317              		.loc 1 721 0
 318 0010 9A81     		strh	r2, [r3, #12]	@ movhi
 319              		.loc 1 722 0
 320 0012 0522     		movs	r2, #5
 321 0014 1A80     		strh	r2, [r3, #0]	@ movhi
 322 0016 7047     		bx	lr
 323              		.cfi_endproc
 324              	.LFE123:
 325              		.size	gpt_lld_start_timer, .-gpt_lld_start_timer
 326 0018 AFF30080 		.section	.text.gpt_lld_stop_timer,"ax",%progbits
 326      AFF30080 
 327              		.align	2
 328              		.p2align 4,,15
 329              		.global	gpt_lld_stop_timer
 330              		.thumb
 331              		.thumb_func
 332              		.type	gpt_lld_stop_timer, %function
 333              	gpt_lld_stop_timer:
 334              	.LFB124:
 335              		.loc 1 732 0
ARM GAS  /tmp/ccGLwFpz.s 			page 7


 336              		.cfi_startproc
 337              		@ args = 0, pretend = 0, frame = 0
 338              		@ frame_needed = 0, uses_anonymous_args = 0
 339              		@ link register save eliminated.
 340              	.LVL22:
 341              		.loc 1 734 0
 342 0000 C368     		ldr	r3, [r0, #12]
 343 0002 0022     		movs	r2, #0
 344 0004 1A80     		strh	r2, [r3, #0]	@ movhi
 345              		.loc 1 735 0
 346 0006 1A82     		strh	r2, [r3, #16]	@ movhi
 347              		.loc 1 736 0
 348 0008 9A81     		strh	r2, [r3, #12]	@ movhi
 349 000a 7047     		bx	lr
 350              		.cfi_endproc
 351              	.LFE124:
 352              		.size	gpt_lld_stop_timer, .-gpt_lld_stop_timer
 353 000c AFF30080 		.section	.text.gpt_lld_polled_delay,"ax",%progbits
 354              		.align	2
 355              		.p2align 4,,15
 356              		.global	gpt_lld_polled_delay
 357              		.thumb
 358              		.thumb_func
 359              		.type	gpt_lld_polled_delay, %function
 360              	gpt_lld_polled_delay:
 361              	.LFB125:
 362              		.loc 1 750 0
 363              		.cfi_startproc
 364              		@ args = 0, pretend = 0, frame = 0
 365              		@ frame_needed = 0, uses_anonymous_args = 0
 366              		@ link register save eliminated.
 367              	.LVL23:
 368              		.loc 1 752 0
 369 0000 C268     		ldr	r2, [r0, #12]
 370              		.loc 1 753 0
 371 0002 0123     		movs	r3, #1
 372              		.loc 1 752 0
 373 0004 0139     		subs	r1, r1, #1
 374              	.LVL24:
 375 0006 D162     		str	r1, [r2, #44]
 376              		.loc 1 753 0
 377 0008 9382     		strh	r3, [r2, #20]	@ movhi
 378              		.loc 1 754 0
 379 000a 0023     		movs	r3, #0
 380 000c 1382     		strh	r3, [r2, #16]	@ movhi
 381              		.loc 1 755 0
 382 000e 0D23     		movs	r3, #13
 383 0010 1380     		strh	r3, [r2, #0]	@ movhi
 384              	.L23:
 385              		.loc 1 756 0 discriminator 1
 386 0012 138A     		ldrh	r3, [r2, #16]
 387 0014 DB07     		lsls	r3, r3, #31
 388 0016 FCD5     		bpl	.L23
 389              		.loc 1 758 0
 390 0018 7047     		bx	lr
 391              		.cfi_endproc
 392              	.LFE125:
ARM GAS  /tmp/ccGLwFpz.s 			page 8


 393              		.size	gpt_lld_polled_delay, .-gpt_lld_polled_delay
 394              		.global	GPTD1
 395 001a 00BFAFF3 		.section	.bss.GPTD1,"aw",%nobits
 395      0080
 396              		.align	2
 397              		.set	.LANCHOR0,. + 0
 398              		.type	GPTD1, %object
 399              		.size	GPTD1, 16
 400              	GPTD1:
 401 0000 00000000 		.space	16
 401      00000000 
 401      00000000 
 401      00000000 
 402              		.section	.rodata.str1.4,"aMS",%progbits,1
 403              		.align	2
 404              	.LC0:
 405 0000 6770745F 		.ascii	"gpt_lld_start(), #1\000"
 405      6C6C645F 
 405      73746172 
 405      7428292C 
 405      20233100 
 406              		.text
 407              	.Letext0:
 408              		.file 2 "/opt/psas/x-tools/stm32f407/arm-psas-eabi/bin/../lib/gcc/arm-psas-eabi/4.7.2/../../../../
 409              		.file 3 "../../ChibiOS/os/hal/platforms/STM32F4xx/stm32f4xx.h"
 410              		.file 4 "../../ChibiOS/os/hal/platforms/STM32/stm32.h"
 411              		.file 5 "../../ChibiOS/os/hal/include/gpt.h"
 412              		.file 6 "../../ChibiOS/os/hal/platforms/STM32/gpt_lld.h"
 413              		.file 7 "../../ChibiOS/os/ports/common/ARMCMx/CMSIS/include/core_cm4.h"
 414              		.file 8 "../../ChibiOS/os/kernel/include/chdebug.h"
 415              		.file 9 "../../ChibiOS/os/ports/GCC/ARMCMx/chcore_v7m.h"
 416              		.file 10 "../../ChibiOS/os/ports/common/ARMCMx/nvic.h"