ARM GAS  /tmp/ccSnq9pT.s 			page 1


   1              		.syntax unified
   2              		.cpu cortex-m4
   3              		.eabi_attribute 27, 3
   4              		.eabi_attribute 28, 1
   5              		.fpu fpv4-sp-d16
   6              		.eabi_attribute 20, 1
   7              		.eabi_attribute 21, 1
   8              		.eabi_attribute 23, 3
   9              		.eabi_attribute 24, 1
  10              		.eabi_attribute 25, 1
  11              		.eabi_attribute 26, 1
  12              		.eabi_attribute 30, 2
  13              		.eabi_attribute 34, 1
  14              		.eabi_attribute 18, 4
  15              		.thumb
  16              		.file	"hal.c"
  17              		.text
  18              	.Ltext0:
  19              		.cfi_sections	.debug_frame
  20              		.section	.text.halInit,"ax",%progbits
  21              		.align	2
  22              		.p2align 4,,15
  23              		.global	halInit
  24              		.thumb
  25              		.thumb_func
  26              		.type	halInit, %function
  27              	halInit:
  28              	.LFB118:
  29              		.file 1 "../../ChibiOS/os/hal/src/hal.c"
  30              		.loc 1 61 0
  31              		.cfi_startproc
  32              		@ args = 0, pretend = 0, frame = 0
  33              		@ frame_needed = 0, uses_anonymous_args = 0
  34 0000 08B5     		push	{r3, lr}
  35              	.LCFI0:
  36              		.cfi_def_cfa_offset 8
  37              		.cfi_offset 3, -8
  38              		.cfi_offset 14, -4
  39              		.loc 1 63 0
  40 0002 FFF7FEFF 		bl	hal_lld_init
  41              	.LVL0:
  42              		.loc 1 66 0
  43 0006 FFF7FEFF 		bl	tmInit
  44              	.LVL1:
  45              		.loc 1 69 0
  46 000a 40F20000 		movw	r0, #:lower16:pal_default_config
  47 000e C0F20000 		movt	r0, #:upper16:pal_default_config
  48 0012 FFF7FEFF 		bl	_pal_lld_init
  49              	.LVL2:
  50              		.loc 1 72 0
  51 0016 FFF7FEFF 		bl	adcInit
  52              	.LVL3:
  53              		.loc 1 78 0
  54 001a FFF7FEFF 		bl	extInit
  55              	.LVL4:
  56              		.loc 1 81 0
  57 001e FFF7FEFF 		bl	gptInit
ARM GAS  /tmp/ccSnq9pT.s 			page 2


  58              	.LVL5:
  59              		.loc 1 93 0
  60 0022 FFF7FEFF 		bl	pwmInit
  61              	.LVL6:
  62              		.loc 1 96 0
  63 0026 FFF7FEFF 		bl	sdInit
  64              	.LVL7:
  65              		.loc 1 108 0
  66 002a FFF7FEFF 		bl	usbInit
  67              	.LVL8:
  68              		.loc 1 114 0
  69 002e FFF7FEFF 		bl	sduInit
  70              	.LVL9:
  71              		.loc 1 121 0
  72 0032 BDE80840 		pop	{r3, lr}
  73              		.loc 1 120 0
  74 0036 FFF7FEBF 		b	boardInit
  75              	.LVL10:
  76              		.cfi_endproc
  77              	.LFE118:
  78              		.size	halInit, .-halInit
  79 003a 00BFAFF3 		.section	.text.halIsCounterWithin,"ax",%progbits
  79      0080
  80              		.align	2
  81              		.p2align 4,,15
  82              		.global	halIsCounterWithin
  83              		.thumb
  84              		.thumb_func
  85              		.type	halIsCounterWithin, %function
  86              	halIsCounterWithin:
  87              	.LFB119:
  88              		.loc 1 167 0
  89              		.cfi_startproc
  90              		@ args = 0, pretend = 0, frame = 0
  91              		@ frame_needed = 0, uses_anonymous_args = 0
  92              		@ link register save eliminated.
  93              	.LVL11:
  94              		.loc 1 168 0
  95 0000 4FF48053 		mov	r3, #4096
  96 0004 CEF20003 		movt	r3, 57344
  97              		.loc 1 170 0
  98 0008 8142     		cmp	r1, r0
  99              		.loc 1 167 0
 100 000a 0246     		mov	r2, r0
 101              		.loc 1 168 0
 102 000c 5B68     		ldr	r3, [r3, #4]
 103              	.LVL12:
 104              		.loc 1 170 0
 105 000e 09D8     		bhi	.L6
 106              		.loc 1 171 0 discriminator 2
 107 0010 8342     		cmp	r3, r0
 108 0012 34BF     		ite	cc
 109 0014 0022     		movcc	r2, #0
 110 0016 0122     		movcs	r2, #1
 111 0018 8B42     		cmp	r3, r1
 112 001a 2CBF     		ite	cs
 113 001c 1046     		movcs	r0, r2
ARM GAS  /tmp/ccSnq9pT.s 			page 3


 114 001e 42F00100 		orrcc	r0, r2, #1
 115              	.LVL13:
 116              		.loc 1 172 0 discriminator 2
 117 0022 7047     		bx	lr
 118              	.LVL14:
 119              	.L6:
 120              		.loc 1 170 0 discriminator 1
 121 0024 8B42     		cmp	r3, r1
 122 0026 2CBF     		ite	cs
 123 0028 0020     		movcs	r0, #0
 124              	.LVL15:
 125 002a 0120     		movcc	r0, #1
 126 002c 9342     		cmp	r3, r2
 127 002e 38BF     		it	cc
 128 0030 0020     		movcc	r0, #0
 129 0032 7047     		bx	lr
 130              		.cfi_endproc
 131              	.LFE119:
 132              		.size	halIsCounterWithin, .-halIsCounterWithin
 133 0034 AFF30080 		.section	.text.halPolledDelay,"ax",%progbits
 133      AFF30080 
 133      AFF30080 
 134              		.align	2
 135              		.p2align 4,,15
 136              		.global	halPolledDelay
 137              		.thumb
 138              		.thumb_func
 139              		.type	halPolledDelay, %function
 140              	halPolledDelay:
 141              	.LFB120:
 142              		.loc 1 186 0
 143              		.cfi_startproc
 144              		@ args = 0, pretend = 0, frame = 0
 145              		@ frame_needed = 0, uses_anonymous_args = 0
 146              		@ link register save eliminated.
 147              	.LVL16:
 148              		.loc 1 187 0
 149 0000 4FF48053 		mov	r3, #4096
 150 0004 CEF20003 		movt	r3, 57344
 151              		.loc 1 186 0
 152 0008 10B4     		push	{r4}
 153              	.LCFI1:
 154              		.cfi_def_cfa_offset 4
 155              		.cfi_offset 4, -4
 156              		.loc 1 187 0
 157 000a 5A68     		ldr	r2, [r3, #4]
 158              	.LVL17:
 159              	.LBB4:
 160              	.LBB5:
 161              		.loc 1 168 0
 162 000c 1C46     		mov	r4, r3
 163              	.LBE5:
 164              	.LBE4:
 165              		.loc 1 188 0
 166 000e 8018     		adds	r0, r0, r2
 167              	.LVL18:
 168              	.L10:
ARM GAS  /tmp/ccSnq9pT.s 			page 4


 169              	.LBB8:
 170              	.LBB6:
 171              		.loc 1 170 0 discriminator 1
 172 0010 8242     		cmp	r2, r0
 173              		.loc 1 168 0 discriminator 1
 174 0012 6368     		ldr	r3, [r4, #4]
 175              	.LVL19:
 176              		.loc 1 170 0 discriminator 1
 177 0014 0AD2     		bcs	.L8
 178              		.loc 1 170 0 is_stmt 0
 179 0016 9842     		cmp	r0, r3
 180 0018 94BF     		ite	ls
 181 001a 0021     		movls	r1, #0
 182 001c 0121     		movhi	r1, #1
 183 001e 9A42     		cmp	r2, r3
 184 0020 88BF     		it	hi
 185 0022 0021     		movhi	r1, #0
 186              	.LBE6:
 187              	.LBE8:
 188              		.loc 1 189 0 is_stmt 1
 189 0024 0029     		cmp	r1, #0
 190 0026 F3D1     		bne	.L10
 191              	.L12:
 192              		.loc 1 191 0
 193 0028 10BC     		pop	{r4}
 194 002a 7047     		bx	lr
 195              	.L8:
 196              	.LBB9:
 197              	.LBB7:
 198              		.loc 1 171 0
 199 002c 9A42     		cmp	r2, r3
 200 002e 8CBF     		ite	hi
 201 0030 0021     		movhi	r1, #0
 202 0032 0121     		movls	r1, #1
 203 0034 9842     		cmp	r0, r3
 204 0036 88BF     		it	hi
 205 0038 41F00101 		orrhi	r1, r1, #1
 206              	.LBE7:
 207              	.LBE9:
 208              		.loc 1 189 0
 209 003c 0029     		cmp	r1, #0
 210 003e E7D1     		bne	.L10
 211 0040 F2E7     		b	.L12
 212              		.cfi_endproc
 213              	.LFE120:
 214              		.size	halPolledDelay, .-halPolledDelay
 215 0042 00BFAFF3 		.text
 215      0080AFF3 
 215      0080AFF3 
 215      0080
 216              	.Letext0:
 217              		.file 2 "/opt/psas/x-tools/stm32f407/arm-psas-eabi/bin/../lib/gcc/arm-psas-eabi/4.7.2/../../../../
 218              		.file 3 "../../ChibiOS/os/ports/GCC/ARMCMx/chtypes.h"
 219              		.file 4 "../../ChibiOS/os/ports/common/ARMCMx/nvic.h"
 220              		.file 5 "../../ChibiOS/os/hal/platforms/STM32F4xx/hal_lld.h"
 221              		.file 6 "../../ChibiOS/os/hal/platforms/STM32/GPIOv2/pal_lld.h"
 222              		.file 7 "../../ChibiOS/os/ports/common/ARMCMx/CMSIS/include/core_cm4.h"
ARM GAS  /tmp/ccSnq9pT.s 			page 5


 223              		.file 8 "../../ChibiOS/os/hal/include/tm.h"
 224              		.file 9 "../../ChibiOS/os/hal/include/adc.h"
 225              		.file 10 "../../ChibiOS/os/hal/include/ext.h"
 226              		.file 11 "../../ChibiOS/os/hal/include/gpt.h"
 227              		.file 12 "../../ChibiOS/os/hal/include/pwm.h"
 228              		.file 13 "../../ChibiOS/os/hal/include/serial.h"
 229              		.file 14 "../../ChibiOS/os/hal/include/usb.h"
 230              		.file 15 "../../ChibiOS/os/hal/include/serial_usb.h"
 231              		.file 16 "../../ChibiOS/boards/OLIMEX_STM32_E407/board.h"