ARM GAS  /tmp/ccl85KI2.s 			page 1


   1              		.syntax unified
   2              		.cpu cortex-m4
   3              		.eabi_attribute 27, 3
   4              		.eabi_attribute 28, 1
   5              		.fpu fpv4-sp-d16
   6              		.eabi_attribute 20, 1
   7              		.eabi_attribute 21, 1
   8              		.eabi_attribute 23, 3
   9              		.eabi_attribute 24, 1
  10              		.eabi_attribute 25, 1
  11              		.eabi_attribute 26, 1
  12              		.eabi_attribute 30, 2
  13              		.eabi_attribute 34, 1
  14              		.eabi_attribute 18, 4
  15              		.thumb
  16              		.file	"main.c"
  17              		.text
  18              	.Ltext0:
  19              		.cfi_sections	.debug_frame
  20              		.section	.text.green_led_off,"ax",%progbits
  21              		.align	2
  22              		.p2align 4,,15
  23              		.thumb
  24              		.thumb_func
  25              		.type	green_led_off, %function
  26              	green_led_off:
  27              	.LFB118:
  28              		.file 1 "main.c"
  29              		.loc 1 151 0
  30              		.cfi_startproc
  31              		@ args = 0, pretend = 0, frame = 0
  32              		@ frame_needed = 0, uses_anonymous_args = 0
  33              		@ link register save eliminated.
  34              	.LVL0:
  35              		.loc 1 154 0
  36 0000 4FF40063 		mov	r3, #2048
  37 0004 C4F20203 		movt	r3, 16386
  38 0008 4FF40052 		mov	r2, #8192
  39 000c 1A83     		strh	r2, [r3, #24]	@ movhi
  40 000e 7047     		bx	lr
  41              		.cfi_endproc
  42              	.LFE118:
  43              		.size	green_led_off, .-green_led_off
  44              		.section	.text.cmd_stop,"ax",%progbits
  45              		.align	2
  46              		.p2align 4,,15
  47              		.thumb
  48              		.thumb_func
  49              		.type	cmd_stop, %function
  50              	cmd_stop:
  51              	.LFB123:
  52              		.loc 1 298 0
  53              		.cfi_startproc
  54              		@ args = 0, pretend = 0, frame = 0
  55              		@ frame_needed = 0, uses_anonymous_args = 0
  56              	.LVL1:
  57              		.loc 1 301 0
ARM GAS  /tmp/ccl85KI2.s 			page 2


  58 0000 0029     		cmp	r1, #0
  59              		.loc 1 298 0
  60 0002 10B5     		push	{r4, lr}
  61              	.LCFI0:
  62              		.cfi_def_cfa_offset 8
  63              		.cfi_offset 4, -8
  64              		.cfi_offset 14, -4
  65              		.loc 1 298 0
  66 0004 0446     		mov	r4, r0
  67              		.loc 1 301 0
  68 0006 02DD     		ble	.L3
  69              		.loc 1 302 0
  70 0008 0549     		ldr	r1, .L5
  71              	.LVL2:
  72 000a FFF7FEFF 		bl	chprintf
  73              	.LVL3:
  74              	.L3:
  75              		.loc 1 304 0
  76 000e 054B     		ldr	r3, .L5+4
  77              		.loc 1 305 0
  78 0010 0549     		ldr	r1, .L5+8
  79              		.loc 1 304 0
  80 0012 0022     		movs	r2, #0
  81              		.loc 1 305 0
  82 0014 2046     		mov	r0, r4
  83              		.loc 1 304 0
  84 0016 1A70     		strb	r2, [r3, #0]
  85              		.loc 1 306 0
  86 0018 BDE81040 		pop	{r4, lr}
  87              		.loc 1 305 0
  88 001c FFF7FEBF 		b	chprintf
  89              	.LVL4:
  90              	.L6:
  91              		.align	2
  92              	.L5:
  93 0020 00000000 		.word	.LC0
  94 0024 00000000 		.word	.LANCHOR0
  95 0028 10000000 		.word	.LC1
  96              		.cfi_endproc
  97              	.LFE123:
  98              		.size	cmd_stop, .-cmd_stop
  99 002c AFF30080 		.section	.text.WKUP_button_handler,"ax",%progbits
 100              		.align	2
 101              		.p2align 4,,15
 102              		.thumb
 103              		.thumb_func
 104              		.type	WKUP_button_handler, %function
 105              	WKUP_button_handler:
 106              	.LFB133:
 107              		.loc 1 694 0
 108              		.cfi_startproc
 109              		@ args = 0, pretend = 0, frame = 0
 110              		@ frame_needed = 0, uses_anonymous_args = 0
 111              	.LVL5:
 112 0000 10B5     		push	{r4, lr}
 113              	.LCFI1:
 114              		.cfi_def_cfa_offset 8
ARM GAS  /tmp/ccl85KI2.s 			page 3


 115              		.cfi_offset 4, -8
 116              		.cfi_offset 14, -4
 117              		.loc 1 697 0
 118 0002 40F20004 		movw	r4, #:lower16:SDU_PSAS
 119 0006 C0F20004 		movt	r4, #:upper16:SDU_PSAS
 120 000a 40F20001 		movw	r1, #:lower16:.LC2
 121              		.loc 1 694 0
 122 000e 0246     		mov	r2, r0
 123              		.loc 1 697 0
 124 0010 C0F20001 		movt	r1, #:upper16:.LC2
 125 0014 2046     		mov	r0, r4
 126              	.LVL6:
 127 0016 FFF7FEFF 		bl	chprintf
 128              	.LVL7:
 129              		.loc 1 698 0
 130 001a 4FF43D42 		mov	r2, #48384
 131 001e 40F20001 		movw	r1, #:lower16:.LC3
 132 0022 2046     		mov	r0, r4
 133 0024 C0F20001 		movt	r1, #:upper16:.LC3
 134 0028 C0F20152 		movt	r2, 1281
 135              		.loc 1 699 0
 136 002c BDE81040 		pop	{r4, lr}
 137              		.loc 1 698 0
 138 0030 FFF7FEBF 		b	chprintf
 139              	.LVL8:
 140              		.cfi_endproc
 141              	.LFE133:
 142              		.size	WKUP_button_handler, .-WKUP_button_handler
 143 0034 AFF30080 		.section	.text.extcb1,"ax",%progbits
 143      AFF30080 
 143      AFF30080 
 144              		.align	2
 145              		.p2align 4,,15
 146              		.thumb
 147              		.thumb_func
 148              		.type	extcb1, %function
 149              	extcb1:
 150              	.LFB119:
 151              		.loc 1 160 0
 152              		.cfi_startproc
 153              		@ args = 0, pretend = 0, frame = 0
 154              		@ frame_needed = 0, uses_anonymous_args = 0
 155              	.LVL9:
 156 0000 08B5     		push	{r3, lr}
 157              	.LCFI2:
 158              		.cfi_def_cfa_offset 8
 159              		.cfi_offset 3, -8
 160              		.cfi_offset 14, -4
 161              		.loc 1 166 0
 162 0002 4FF40063 		mov	r3, #2048
 163 0006 C4F20203 		movt	r3, 16386
 164 000a 4FF40052 		mov	r2, #8192
 165 000e 5A83     		strh	r2, [r3, #26]	@ movhi
 166              	.LBB26:
 167              		.loc 1 167 0
 168 0010 2023     		movs	r3, #32
 169              	.LVL10:
ARM GAS  /tmp/ccl85KI2.s 			page 4


 170              	@ 167 "main.c" 1
 171 0012 83F31188 		msr     BASEPRI, r3
 172              	@ 0 "" 2
 173              	.LVL11:
 174              		.thumb
 175              	.LBE26:
 176 0016 FFF7FEFF 		bl	dbg_check_lock_from_isr
 177              	.LVL12:
 178              		.loc 1 168 0
 179 001a 0B48     		ldr	r0, .L13
 180 001c 0021     		movs	r1, #0
 181 001e FFF7FEFF 		bl	chEvtBroadcastFlagsI
 182              	.LVL13:
 183              		.loc 1 170 0
 184 0022 0A48     		ldr	r0, .L13+4
 185 0024 C368     		ldr	r3, [r0, #12]
 186 0026 0BB1     		cbz	r3, .L9
 187              		.loc 1 171 0
 188 0028 FFF7FEFF 		bl	chVTResetI
 189              	.LVL14:
 190              	.L9:
 191              		.loc 1 174 0
 192 002c 0023     		movs	r3, #0
 193 002e 0748     		ldr	r0, .L13+4
 194 0030 074A     		ldr	r2, .L13+8
 195 0032 41F27F31 		movw	r1, #4991
 196 0036 FFF7FEFF 		bl	chVTSetI
 197              	.LVL15:
 198              		.loc 1 175 0
 199 003a FFF7FEFF 		bl	dbg_check_unlock_from_isr
 200              	.LVL16:
 201              	.LBB27:
 202 003e 0023     		movs	r3, #0
 203              	.LVL17:
 204              	@ 175 "main.c" 1
 205 0040 83F31188 		msr     BASEPRI, r3
 206              	@ 0 "" 2
 207              	.LVL18:
 208              		.thumb
 209 0044 08BD     		pop	{r3, pc}
 210              	.L14:
 211 0046 00BF     		.align	2
 212              	.L13:
 213 0048 00000000 		.word	.LANCHOR1
 214 004c 00000000 		.word	.LANCHOR2
 215 0050 00000000 		.word	green_led_off
 216              	.LBE27:
 217              		.cfi_endproc
 218              	.LFE119:
 219              		.size	extcb1, .-extcb1
 220 0054 AFF30080 		.section	.text.ControlAxis,"ax",%progbits
 220      AFF30080 
 220      AFF30080 
 221              		.align	2
 222              		.p2align 4,,15
 223              		.thumb
 224              		.thumb_func
ARM GAS  /tmp/ccl85KI2.s 			page 5


 225              		.type	ControlAxis, %function
 226              	ControlAxis:
 227              	.LFB135:
 228              		.loc 1 869 0
 229              		.cfi_startproc
 230              		@ args = 0, pretend = 0, frame = 0
 231              		@ frame_needed = 0, uses_anonymous_args = 0
 232              	.LVL19:
 233 0000 F8B5     		push	{r3, r4, r5, r6, r7, lr}
 234              	.LCFI3:
 235              		.cfi_def_cfa_offset 24
 236              		.cfi_offset 3, -24
 237              		.cfi_offset 4, -20
 238              		.cfi_offset 5, -16
 239              		.cfi_offset 6, -12
 240              		.cfi_offset 7, -8
 241              		.cfi_offset 14, -4
 242              		.loc 1 869 0
 243 0002 0446     		mov	r4, r0
 244              		.loc 1 880 0
 245 0004 3448     		ldr	r0, .L20
 246              	.LVL20:
 247              		.loc 1 873 0
 248 0006 2181     		strh	r1, [r4, #8]	@ movhi
 249              		.loc 1 880 0
 250 0008 0078     		ldrb	r0, [r0, #0]	@ zero_extendqisi2
 251 000a 0228     		cmp	r0, #2
 252              		.loc 1 869 0
 253 000c 1D46     		mov	r5, r3
 254              		.loc 1 881 0
 255 000e 0ABF     		itet	eq
 256 0010 324B     		ldreq	r3, .L20+4
 257              	.LVL21:
 258              		.loc 1 883 0
 259 0012 6070     		strbne	r0, [r4, #1]
 260              		.loc 1 881 0
 261 0014 1B78     		ldrbeq	r3, [r3, #0]	@ zero_extendqisi2
 262              		.loc 1 886 0
 263 0016 2046     		mov	r0, r4
 264              		.loc 1 881 0
 265 0018 08BF     		it	eq
 266 001a 6370     		strbeq	r3, [r4, #1]
 267              		.loc 1 869 0
 268 001c 1646     		mov	r6, r2
 269              		.loc 1 886 0
 270 001e FFF7FEFF 		bl	controlLoop
 271              	.LVL22:
 272              	.LBB28:
 273              		.loc 1 889 0
 274 0022 2023     		movs	r3, #32
 275              	.LVL23:
 276              	@ 889 "main.c" 1
 277 0024 83F31188 		msr     BASEPRI, r3
 278              	@ 0 "" 2
 279              	.LVL24:
 280              		.thumb
 281              	.LBE28:
ARM GAS  /tmp/ccl85KI2.s 			page 6


 282 0028 FFF7FEFF 		bl	dbg_check_lock_from_isr
 283              	.LVL25:
 284              		.loc 1 891 0
 285 002c A089     		ldrh	r0, [r4, #12]
 286 002e 04B2     		sxth	r4, r0
 287              	.LVL26:
 288 0030 002C     		cmp	r4, #0
 289 0032 2ADD     		ble	.L18
 290              	.LBB29:
 291              	.LBB30:
 292              	.LBB31:
 293              	.LBB32:
 294              		.loc 1 1008 0
 295 0034 2A4B     		ldr	r3, .L20+8
 296              	.LBE32:
 297              	.LBE31:
 298              	.LBE30:
 299              	.LBE29:
 300              		.loc 1 895 0
 301 0036 2B48     		ldr	r0, .L20+12
 302              	.LBB38:
 303              	.LBB33:
 304              		.loc 1 985 0
 305 0038 1968     		ldr	r1, [r3, #0]
 306              	.LBE33:
 307              	.LBE38:
 308              		.loc 1 894 0
 309 003a C4EB0412 		rsb	r2, r4, r4, lsl #4
 310 003e C4EB4214 		rsb	r4, r4, r2, lsl #5
 311              	.LBB39:
 312              	.LBB34:
 313              		.loc 1 985 0
 314 0042 4DF68363 		movw	r3, #56963
 315              	.LBE34:
 316              	.LBE39:
 317              		.loc 1 894 0
 318 0046 44F6D352 		movw	r2, #19923
 319 004a C1F26202 		movt	r2, 4194
 320 004e A400     		lsls	r4, r4, #2
 321              	.LBB40:
 322              	.LBB35:
 323              		.loc 1 985 0
 324 0050 C4F21B33 		movt	r3, 17179
 325              	.LBE35:
 326              	.LBE40:
 327              		.loc 1 894 0
 328 0054 A2FB0474 		umull	r7, r4, r2, r4
 329              	.LBB41:
 330              	.LBB36:
 331              		.loc 1 985 0
 332 0058 A3FB0123 		umull	r2, r3, r3, r1
 333              	.LBE36:
 334              	.LBE41:
 335              		.loc 1 894 0
 336 005c A409     		lsrs	r4, r4, #6
 337              	.LBB42:
 338              	.LBB37:
ARM GAS  /tmp/ccl85KI2.s 			page 7


 339              		.loc 1 985 0
 340 005e 9A0C     		lsrs	r2, r3, #18
 341 0060 02FB04F2 		mul	r2, r2, r4
 342              	.LBE37:
 343              	.LBE42:
 344              		.loc 1 894 0
 345 0064 204B     		ldr	r3, .L20+16
 346              		.loc 1 895 0
 347 0066 711E     		subs	r1, r6, #1
 348 0068 C9B2     		uxtb	r1, r1
 349 006a 92B2     		uxth	r2, r2
 350              		.loc 1 894 0
 351 006c 1C60     		str	r4, [r3, #0]
 352              	.LVL27:
 353              		.loc 1 895 0
 354 006e FFF7FEFF 		bl	pwm_lld_enable_channel
 355              	.LVL28:
 356              		.loc 1 896 0
 357 0072 691E     		subs	r1, r5, #1
 358 0074 1B48     		ldr	r0, .L20+12
 359 0076 C9B2     		uxtb	r1, r1
 360 0078 0022     		movs	r2, #0
 361 007a FFF7FEFF 		bl	pwm_lld_enable_channel
 362              	.LVL29:
 363              	.L19:
 364              		.loc 1 904 0
 365 007e FFF7FEFF 		bl	dbg_check_unlock_from_isr
 366              	.LVL30:
 367              	.LBB43:
 368 0082 0023     		movs	r3, #0
 369              	.LVL31:
 370              	@ 904 "main.c" 1
 371 0084 83F31188 		msr     BASEPRI, r3
 372              	@ 0 "" 2
 373              	.LVL32:
 374              		.thumb
 375 0088 F8BD     		pop	{r3, r4, r5, r6, r7, pc}
 376              	.LVL33:
 377              	.L18:
 378              	.LBE43:
 379              		.loc 1 900 0
 380 008a 44F6D353 		movw	r3, #19923
 381 008e 4FF68402 		movw	r2, 63620	@ movhi
 382 0092 10FB02F2 		smulbb	r2, r0, r2
 383 0096 C1F26203 		movt	r3, 4194
 384 009a 134C     		ldr	r4, .L20+16
 385              		.loc 1 901 0
 386 009c 1148     		ldr	r0, .L20+12
 387              		.loc 1 900 0
 388 009e A3FB0273 		umull	r7, r3, r3, r2
 389              		.loc 1 901 0
 390 00a2 711E     		subs	r1, r6, #1
 391              		.loc 1 900 0
 392 00a4 9B09     		lsrs	r3, r3, #6
 393              		.loc 1 901 0
 394 00a6 0022     		movs	r2, #0
 395 00a8 C9B2     		uxtb	r1, r1
ARM GAS  /tmp/ccl85KI2.s 			page 8


 396              		.loc 1 900 0
 397 00aa 2360     		str	r3, [r4, #0]
 398              	.LVL34:
 399              		.loc 1 901 0
 400 00ac FFF7FEFF 		bl	pwm_lld_enable_channel
 401              	.LVL35:
 402              	.LBB44:
 403              	.LBB45:
 404              		.loc 1 985 0
 405 00b0 0B4B     		ldr	r3, .L20+8
 406              	.LVL36:
 407 00b2 2268     		ldr	r2, [r4, #0]
 408 00b4 1968     		ldr	r1, [r3, #0]
 409              	.LBE45:
 410              	.LBE44:
 411              		.loc 1 902 0
 412 00b6 0B48     		ldr	r0, .L20+12
 413              	.LBB48:
 414              	.LBB46:
 415              		.loc 1 985 0
 416 00b8 4DF68363 		movw	r3, #56963
 417              	.LVL37:
 418 00bc C4F21B33 		movt	r3, 17179
 419 00c0 A3FB0143 		umull	r4, r3, r3, r1
 420 00c4 9B0C     		lsrs	r3, r3, #18
 421              	.LBE46:
 422              	.LBE48:
 423              		.loc 1 902 0
 424 00c6 691E     		subs	r1, r5, #1
 425              	.LVL38:
 426              	.LBB49:
 427              	.LBB47:
 428              		.loc 1 985 0
 429 00c8 02FB03F2 		mul	r2, r2, r3
 430              	.LBE47:
 431              	.LBE49:
 432              		.loc 1 902 0
 433 00cc C9B2     		uxtb	r1, r1
 434 00ce 92B2     		uxth	r2, r2
 435 00d0 FFF7FEFF 		bl	pwm_lld_enable_channel
 436              	.LVL39:
 437 00d4 D3E7     		b	.L19
 438              	.L21:
 439 00d6 00BF     		.align	2
 440              	.L20:
 441 00d8 00000000 		.word	.LANCHOR3
 442 00dc 00000000 		.word	.LANCHOR4
 443 00e0 00000000 		.word	pwmcfg
 444 00e4 00000000 		.word	PWMD4
 445 00e8 00000000 		.word	.LANCHOR5
 446              		.cfi_endproc
 447              	.LFE135:
 448              		.size	ControlAxis, .-ControlAxis
 449 00ec AFF30080 		.section	.text.adccb3,"ax",%progbits
 450              		.align	2
 451              		.p2align 4,,15
 452              		.thumb
ARM GAS  /tmp/ccl85KI2.s 			page 9


 453              		.thumb_func
 454              		.type	adccb3, %function
 455              	adccb3:
 456              	.LFB131:
 457              		.loc 1 592 0
 458              		.cfi_startproc
 459              		@ args = 0, pretend = 0, frame = 0
 460              		@ frame_needed = 0, uses_anonymous_args = 0
 461              		@ link register save eliminated.
 462              	.LVL40:
 463              		.loc 1 597 0
 464 0000 0378     		ldrb	r3, [r0, #0]	@ zero_extendqisi2
 465 0002 042B     		cmp	r3, #4
 466 0004 06D1     		bne	.L22
 467              	.LBB52:
 468              	.LBB53:
 469              		.loc 1 598 0
 470 0006 044B     		ldr	r3, .L24
 471 0008 1988     		ldrh	r1, [r3, #0]
 472              	.LVL41:
 473              		.loc 1 599 0
 474 000a 5A88     		ldrh	r2, [r3, #2]
 475              	.LVL42:
 476              		.loc 1 598 0
 477 000c 034B     		ldr	r3, .L24+4
 478 000e D980     		strh	r1, [r3, #6]	@ movhi
 479              		.loc 1 599 0
 480 0010 034B     		ldr	r3, .L24+8
 481 0012 DA80     		strh	r2, [r3, #6]	@ movhi
 482              	.L22:
 483 0014 7047     		bx	lr
 484              	.L25:
 485 0016 00BF     		.align	2
 486              	.L24:
 487 0018 00000000 		.word	.LANCHOR7
 488 001c 00000000 		.word	.LANCHOR6
 489 0020 00000000 		.word	.LANCHOR8
 490              	.LBE53:
 491              	.LBE52:
 492              		.cfi_endproc
 493              	.LFE131:
 494              		.size	adccb3, .-adccb3
 495 0024 AFF30080 		.section	.text.cmd_unfreeze,"ax",%progbits
 495      AFF30080 
 495      AFF30080 
 496              		.align	2
 497              		.p2align 4,,15
 498              		.thumb
 499              		.thumb_func
 500              		.type	cmd_unfreeze, %function
 501              	cmd_unfreeze:
 502              	.LFB126:
 503              		.loc 1 377 0
 504              		.cfi_startproc
 505              		@ args = 0, pretend = 0, frame = 0
 506              		@ frame_needed = 0, uses_anonymous_args = 0
 507              	.LVL43:
ARM GAS  /tmp/ccl85KI2.s 			page 10


 508              		.loc 1 382 0
 509 0000 0129     		cmp	r1, #1
 510              		.loc 1 377 0
 511 0002 38B5     		push	{r3, r4, r5, lr}
 512              	.LCFI4:
 513              		.cfi_def_cfa_offset 16
 514              		.cfi_offset 3, -16
 515              		.cfi_offset 4, -12
 516              		.cfi_offset 5, -8
 517              		.cfi_offset 14, -4
 518              		.loc 1 377 0
 519 0004 0446     		mov	r4, r0
 520              		.loc 1 382 0
 521 0006 1DDC     		bgt	.L32
 522              	.LVL44:
 523              	.LBB56:
 524              	.LBB57:
 525              		.loc 1 386 0
 526 0008 1368     		ldr	r3, [r2, #0]
 527              	.LBE57:
 528              	.LBE56:
 529 000a 1B78     		ldrb	r3, [r3, #0]	@ zero_extendqisi2
 530 000c 03F0DF03 		and	r3, r3, #223
 531              	.LBB62:
 532              	.LBB58:
 533 0010 562B     		cmp	r3, #86
 534 0012 2DD0     		beq	.L33
 535              		.loc 1 391 0
 536 0014 4C2B     		cmp	r3, #76
 537 0016 1FD1     		bne	.L30
 538              		.loc 1 392 0
 539 0018 1A4B     		ldr	r3, .L35
 540              		.loc 1 394 0
 541 001a 1B49     		ldr	r1, .L35+4
 542              	.LVL45:
 543              		.loc 1 392 0
 544 001c 0222     		movs	r2, #2
 545              	.LVL46:
 546 001e 1A70     		strb	r2, [r3, #0]
 547              		.loc 1 393 0
 548 0020 1A4B     		ldr	r3, .L35+8
 549 0022 0022     		movs	r2, #0
 550 0024 1A70     		strb	r2, [r3, #0]
 551              		.loc 1 394 0
 552 0026 FFF7FEFF 		bl	chprintf
 553              	.LVL47:
 554              	.L29:
 555              		.loc 1 402 0
 556 002a 2046     		mov	r0, r4
 557 002c 1849     		ldr	r1, .L35+12
 558 002e FFF7FEFF 		bl	chprintf
 559              	.LVL48:
 560              		.loc 1 404 0
 561 0032 184B     		ldr	r3, .L35+16
 562 0034 1B78     		ldrb	r3, [r3, #0]	@ zero_extendqisi2
 563              		.loc 1 405 0
 564 0036 2046     		mov	r0, r4
ARM GAS  /tmp/ccl85KI2.s 			page 11


 565              		.loc 1 404 0
 566 0038 4BB9     		cbnz	r3, .L34
 567              	.LVL49:
 568              		.loc 1 408 0
 569 003a 1749     		ldr	r1, .L35+20
 570              	.LBE58:
 571              	.LBE62:
 572              		.loc 1 410 0
 573 003c BDE83840 		pop	{r3, r4, r5, lr}
 574              	.LBB63:
 575              	.LBB59:
 576              		.loc 1 408 0
 577 0040 FFF7FEBF 		b	chprintf
 578              	.LVL50:
 579              	.L32:
 580              	.LBE59:
 581              	.LBE63:
 582              		.loc 1 383 0
 583 0044 1549     		ldr	r1, .L35+24
 584              	.LVL51:
 585              		.loc 1 410 0
 586 0046 BDE83840 		pop	{r3, r4, r5, lr}
 587              		.loc 1 383 0
 588 004a FFF7FEBF 		b	chprintf
 589              	.LVL52:
 590              	.L34:
 591              	.LBB64:
 592              	.LBB60:
 593              		.loc 1 405 0
 594 004e 1449     		ldr	r1, .L35+28
 595              	.LBE60:
 596              	.LBE64:
 597              		.loc 1 410 0
 598 0050 BDE83840 		pop	{r3, r4, r5, lr}
 599              	.LBB65:
 600              	.LBB61:
 601              		.loc 1 405 0
 602 0054 FFF7FEBF 		b	chprintf
 603              	.LVL53:
 604              	.L30:
 605              		.loc 1 397 0
 606 0058 0A4A     		ldr	r2, .L35
 607              	.LVL54:
 608              		.loc 1 400 0
 609 005a 1249     		ldr	r1, .L35+32
 610              	.LVL55:
 611              		.loc 1 397 0
 612 005c 0225     		movs	r5, #2
 613 005e 1570     		strb	r5, [r2, #0]
 614              		.loc 1 398 0
 615 0060 0A4A     		ldr	r2, .L35+8
 616 0062 0023     		movs	r3, #0
 617 0064 1370     		strb	r3, [r2, #0]
 618              		.loc 1 399 0
 619 0066 104A     		ldr	r2, .L35+36
 620 0068 1370     		strb	r3, [r2, #0]
 621              		.loc 1 400 0
ARM GAS  /tmp/ccl85KI2.s 			page 12


 622 006a FFF7FEFF 		bl	chprintf
 623              	.LVL56:
 624 006e DCE7     		b	.L29
 625              	.LVL57:
 626              	.L33:
 627              		.loc 1 387 0
 628 0070 044B     		ldr	r3, .L35
 629              		.loc 1 389 0
 630 0072 0E49     		ldr	r1, .L35+40
 631              	.LVL58:
 632              		.loc 1 387 0
 633 0074 0122     		movs	r2, #1
 634              	.LVL59:
 635 0076 1A70     		strb	r2, [r3, #0]
 636              		.loc 1 388 0
 637 0078 0B4B     		ldr	r3, .L35+36
 638 007a 0022     		movs	r2, #0
 639 007c 1A70     		strb	r2, [r3, #0]
 640              		.loc 1 389 0
 641 007e FFF7FEFF 		bl	chprintf
 642              	.LVL60:
 643 0082 D2E7     		b	.L29
 644              	.L36:
 645              		.align	2
 646              	.L35:
 647 0084 00000000 		.word	.LANCHOR3
 648 0088 94000000 		.word	.LC6
 649 008c 00000000 		.word	.LANCHOR6
 650 0090 B0000000 		.word	.LC8
 651 0094 00000000 		.word	.LANCHOR4
 652 0098 D0000000 		.word	.LC10
 653 009c 70000000 		.word	.LC4
 654 00a0 BC000000 		.word	.LC9
 655 00a4 A4000000 		.word	.LC7
 656 00a8 00000000 		.word	.LANCHOR8
 657 00ac 84000000 		.word	.LC5
 658              	.LBE61:
 659              	.LBE65:
 660              		.cfi_endproc
 661              	.LFE126:
 662              		.size	cmd_unfreeze, .-cmd_unfreeze
 663              		.section	.text.cmd_freeze,"ax",%progbits
 664              		.align	2
 665              		.p2align 4,,15
 666              		.thumb
 667              		.thumb_func
 668              		.type	cmd_freeze, %function
 669              	cmd_freeze:
 670              	.LFB125:
 671              		.loc 1 338 0
 672              		.cfi_startproc
 673              		@ args = 0, pretend = 0, frame = 0
 674              		@ frame_needed = 0, uses_anonymous_args = 0
 675              	.LVL61:
 676              		.loc 1 343 0
 677 0000 0129     		cmp	r1, #1
 678              		.loc 1 338 0
ARM GAS  /tmp/ccl85KI2.s 			page 13


 679 0002 38B5     		push	{r3, r4, r5, lr}
 680              	.LCFI5:
 681              		.cfi_def_cfa_offset 16
 682              		.cfi_offset 3, -16
 683              		.cfi_offset 4, -12
 684              		.cfi_offset 5, -8
 685              		.cfi_offset 14, -4
 686              		.loc 1 338 0
 687 0004 0446     		mov	r4, r0
 688              		.loc 1 343 0
 689 0006 16DC     		bgt	.L42
 690              	.LVL62:
 691              	.LBB68:
 692              	.LBB69:
 693              		.loc 1 347 0
 694 0008 1368     		ldr	r3, [r2, #0]
 695              	.LBE69:
 696              	.LBE68:
 697 000a 1B78     		ldrb	r3, [r3, #0]	@ zero_extendqisi2
 698 000c 03F0DF03 		and	r3, r3, #223
 699              	.LBB73:
 700              	.LBB70:
 701 0010 562B     		cmp	r3, #86
 702 0012 21D0     		beq	.L43
 703              		.loc 1 352 0
 704 0014 4C2B     		cmp	r3, #76
 705 0016 13D1     		bne	.L41
 706              		.loc 1 353 0
 707 0018 144B     		ldr	r3, .L44
 708              		.loc 1 355 0
 709 001a 1549     		ldr	r1, .L44+4
 710              	.LVL63:
 711              		.loc 1 353 0
 712 001c 0322     		movs	r2, #3
 713              	.LVL64:
 714 001e 1A70     		strb	r2, [r3, #0]
 715              		.loc 1 354 0
 716 0020 144B     		ldr	r3, .L44+8
 717 0022 0122     		movs	r2, #1
 718 0024 1A70     		strb	r2, [r3, #0]
 719              		.loc 1 355 0
 720 0026 FFF7FEFF 		bl	chprintf
 721              	.LVL65:
 722              	.L40:
 723              		.loc 1 363 0
 724 002a 1349     		ldr	r1, .L44+12
 725 002c 2046     		mov	r0, r4
 726              	.LBE70:
 727              	.LBE73:
 728              		.loc 1 364 0
 729 002e BDE83840 		pop	{r3, r4, r5, lr}
 730              	.LBB74:
 731              	.LBB71:
 732              		.loc 1 363 0
 733 0032 FFF7FEBF 		b	chprintf
 734              	.LVL66:
 735              	.L42:
ARM GAS  /tmp/ccl85KI2.s 			page 14


 736              	.LBE71:
 737              	.LBE74:
 738              		.loc 1 344 0
 739 0036 1149     		ldr	r1, .L44+16
 740              	.LVL67:
 741              		.loc 1 364 0
 742 0038 BDE83840 		pop	{r3, r4, r5, lr}
 743              		.loc 1 344 0
 744 003c FFF7FEBF 		b	chprintf
 745              	.LVL68:
 746              	.L41:
 747              	.LBB75:
 748              	.LBB72:
 749              		.loc 1 358 0
 750 0040 0A4A     		ldr	r2, .L44
 751              	.LVL69:
 752              		.loc 1 361 0
 753 0042 0F49     		ldr	r1, .L44+20
 754              	.LVL70:
 755              		.loc 1 358 0
 756 0044 0325     		movs	r5, #3
 757 0046 1570     		strb	r5, [r2, #0]
 758              		.loc 1 359 0
 759 0048 0A4A     		ldr	r2, .L44+8
 760 004a 0123     		movs	r3, #1
 761 004c 1370     		strb	r3, [r2, #0]
 762              		.loc 1 360 0
 763 004e 0D4A     		ldr	r2, .L44+24
 764 0050 1370     		strb	r3, [r2, #0]
 765              		.loc 1 361 0
 766 0052 FFF7FEFF 		bl	chprintf
 767              	.LVL71:
 768 0056 E8E7     		b	.L40
 769              	.LVL72:
 770              	.L43:
 771              		.loc 1 348 0
 772 0058 044B     		ldr	r3, .L44
 773              		.loc 1 350 0
 774 005a 0B49     		ldr	r1, .L44+28
 775              	.LVL73:
 776              		.loc 1 348 0
 777 005c 0322     		movs	r2, #3
 778              	.LVL74:
 779 005e 1A70     		strb	r2, [r3, #0]
 780              		.loc 1 349 0
 781 0060 084B     		ldr	r3, .L44+24
 782 0062 0122     		movs	r2, #1
 783 0064 1A70     		strb	r2, [r3, #0]
 784              		.loc 1 350 0
 785 0066 FFF7FEFF 		bl	chprintf
 786              	.LVL75:
 787 006a DEE7     		b	.L40
 788              	.L45:
 789              		.align	2
 790              	.L44:
 791 006c 00000000 		.word	.LANCHOR3
 792 0070 94000000 		.word	.LC6
ARM GAS  /tmp/ccl85KI2.s 			page 15


 793 0074 00000000 		.word	.LANCHOR6
 794 0078 F4000000 		.word	.LC12
 795 007c E4000000 		.word	.LC11
 796 0080 A4000000 		.word	.LC7
 797 0084 00000000 		.word	.LANCHOR8
 798 0088 84000000 		.word	.LC5
 799              	.LBE72:
 800              	.LBE75:
 801              		.cfi_endproc
 802              	.LFE125:
 803              		.size	cmd_freeze, .-cmd_freeze
 804 008c AFF30080 		.section	.text.cmd_mode,"ax",%progbits
 805              		.align	2
 806              		.p2align 4,,15
 807              		.thumb
 808              		.thumb_func
 809              		.type	cmd_mode, %function
 810              	cmd_mode:
 811              	.LFB127:
 812              		.loc 1 423 0
 813              		.cfi_startproc
 814              		@ args = 0, pretend = 0, frame = 0
 815              		@ frame_needed = 0, uses_anonymous_args = 0
 816              	.LVL76:
 817              		.loc 1 426 0
 818 0000 0029     		cmp	r1, #0
 819              		.loc 1 423 0
 820 0002 38B5     		push	{r3, r4, r5, lr}
 821              	.LCFI6:
 822              		.cfi_def_cfa_offset 16
 823              		.cfi_offset 3, -16
 824              		.cfi_offset 4, -12
 825              		.cfi_offset 5, -8
 826              		.cfi_offset 14, -4
 827              		.loc 1 423 0
 828 0004 0446     		mov	r4, r0
 829              		.loc 1 426 0
 830 0006 07DD     		ble	.L47
 831              		.loc 1 427 0
 832 0008 1368     		ldr	r3, [r2, #0]
 833 000a 1B78     		ldrb	r3, [r3, #0]	@ zero_extendqisi2
 834 000c 302B     		cmp	r3, #48
 835 000e 10D0     		beq	.L61
 836              		.loc 1 429 0
 837 0010 312B     		cmp	r3, #49
 838 0012 1ED0     		beq	.L62
 839              		.loc 1 431 0
 840 0014 322B     		cmp	r3, #50
 841 0016 20D0     		beq	.L63
 842              	.L47:
 843              		.loc 1 434 0
 844 0018 144D     		ldr	r5, .L64
 845 001a 2B78     		ldrb	r3, [r5, #0]	@ zero_extendqisi2
 846 001c 022B     		cmp	r3, #2
 847 001e 0BD1     		bne	.L54
 848              	.LVL77:
 849              	.LBB78:
ARM GAS  /tmp/ccl85KI2.s 			page 16


 850              	.LBB79:
 851              		.loc 1 444 0
 852 0020 134B     		ldr	r3, .L64+4
 853 0022 1B78     		ldrb	r3, [r3, #0]	@ zero_extendqisi2
 854 0024 7BB9     		cbnz	r3, .L53
 855              	.LVL78:
 856              	.L52:
 857              	.LBE79:
 858              	.LBE78:
 859              		.loc 1 440 0
 860 0026 1349     		ldr	r1, .L64+8
 861 0028 2046     		mov	r0, r4
 862              		.loc 1 451 0
 863 002a BDE83840 		pop	{r3, r4, r5, lr}
 864              		.loc 1 440 0
 865 002e FFF7FEBF 		b	chprintf
 866              	.LVL79:
 867              	.L61:
 868              		.loc 1 428 0
 869 0032 0E4D     		ldr	r5, .L64
 870 0034 0023     		movs	r3, #0
 871 0036 2B70     		strb	r3, [r5, #0]
 872              	.L54:
 873              		.loc 1 435 0
 874 0038 2046     		mov	r0, r4
 875              	.LVL80:
 876 003a 0F49     		ldr	r1, .L64+12
 877              	.LVL81:
 878 003c FFF7FEFF 		bl	chprintf
 879              	.LVL82:
 880              		.loc 1 436 0
 881 0040 2B78     		ldrb	r3, [r5, #0]	@ zero_extendqisi2
 882 0042 002B     		cmp	r3, #0
 883 0044 EFD0     		beq	.L52
 884              	.L53:
 885              		.loc 1 437 0
 886 0046 0D49     		ldr	r1, .L64+16
 887 0048 2046     		mov	r0, r4
 888              		.loc 1 451 0
 889 004a BDE83840 		pop	{r3, r4, r5, lr}
 890              		.loc 1 437 0
 891 004e FFF7FEBF 		b	chprintf
 892              	.LVL83:
 893              	.L62:
 894              		.loc 1 430 0
 895 0052 064D     		ldr	r5, .L64
 896 0054 0123     		movs	r3, #1
 897 0056 2B70     		strb	r3, [r5, #0]
 898 0058 EEE7     		b	.L54
 899              	.L63:
 900              		.loc 1 432 0
 901 005a 044B     		ldr	r3, .L64
 902 005c 0222     		movs	r2, #2
 903              	.LVL84:
 904 005e 1A70     		strb	r2, [r3, #0]
 905              	.LVL85:
 906              	.LBB81:
ARM GAS  /tmp/ccl85KI2.s 			page 17


 907              	.LBB80:
 908              		.loc 1 444 0
 909 0060 034B     		ldr	r3, .L64+4
 910 0062 1B78     		ldrb	r3, [r3, #0]	@ zero_extendqisi2
 911 0064 002B     		cmp	r3, #0
 912 0066 DED0     		beq	.L52
 913 0068 EDE7     		b	.L53
 914              	.L65:
 915 006a 00BF     		.align	2
 916              	.L64:
 917 006c 00000000 		.word	.LANCHOR3
 918 0070 00000000 		.word	.LANCHOR4
 919 0074 D0000000 		.word	.LC10
 920 0078 00010000 		.word	.LC13
 921 007c BC000000 		.word	.LC9
 922              	.LBE80:
 923              	.LBE81:
 924              		.cfi_endproc
 925              	.LFE127:
 926              		.size	cmd_mode, .-cmd_mode
 927              		.section	.text.cmd_enable,"ax",%progbits
 928              		.align	2
 929              		.p2align 4,,15
 930              		.thumb
 931              		.thumb_func
 932              		.type	cmd_enable, %function
 933              	cmd_enable:
 934              	.LFB124:
 935              		.loc 1 316 0
 936              		.cfi_startproc
 937              		@ args = 0, pretend = 0, frame = 0
 938              		@ frame_needed = 0, uses_anonymous_args = 0
 939              		@ link register save eliminated.
 940              	.LVL86:
 941              		.loc 1 319 0
 942 0000 0029     		cmp	r1, #0
 943 0002 02DD     		ble	.L67
 944              		.loc 1 320 0
 945 0004 0449     		ldr	r1, .L68
 946              	.LVL87:
 947              		.loc 1 325 0
 948              		.loc 1 320 0
 949 0006 FFF7FEBF 		b	chprintf
 950              	.LVL88:
 951              	.L67:
 952              	.LBB84:
 953              	.LBB85:
 954              		.loc 1 323 0
 955 000a 044B     		ldr	r3, .L68+4
 956              		.loc 1 324 0
 957 000c 0449     		ldr	r1, .L68+8
 958              	.LVL89:
 959              		.loc 1 323 0
 960 000e 0122     		movs	r2, #1
 961              	.LVL90:
 962 0010 1A70     		strb	r2, [r3, #0]
 963              	.LBE85:
ARM GAS  /tmp/ccl85KI2.s 			page 18


 964              	.LBE84:
 965              		.loc 1 325 0
 966              	.LBB87:
 967              	.LBB86:
 968              		.loc 1 324 0
 969 0012 FFF7FEBF 		b	chprintf
 970              	.LVL91:
 971              	.L69:
 972 0016 00BF     		.align	2
 973              	.L68:
 974 0018 14010000 		.word	.LC14
 975 001c 00000000 		.word	.LANCHOR0
 976 0020 24010000 		.word	.LC15
 977              	.LBE86:
 978              	.LBE87:
 979              		.cfi_endproc
 980              	.LFE124:
 981              		.size	cmd_enable, .-cmd_enable
 982 0024 AFF30080 		.section	.text.cmd_gain,"ax",%progbits
 982      AFF30080 
 982      AFF30080 
 983              		.align	2
 984              		.p2align 4,,15
 985              		.thumb
 986              		.thumb_func
 987              		.type	cmd_gain, %function
 988              	cmd_gain:
 989              	.LFB128:
 990              		.loc 1 475 0
 991              		.cfi_startproc
 992              		@ args = 0, pretend = 0, frame = 0
 993              		@ frame_needed = 0, uses_anonymous_args = 0
 994              	.LVL92:
 995              		.loc 1 480 0
 996 0000 0029     		cmp	r1, #0
 997              		.loc 1 475 0
 998 0002 70B5     		push	{r4, r5, r6, lr}
 999              	.LCFI7:
 1000              		.cfi_def_cfa_offset 16
 1001              		.cfi_offset 4, -16
 1002              		.cfi_offset 5, -12
 1003              		.cfi_offset 6, -8
 1004              		.cfi_offset 14, -4
 1005              		.loc 1 475 0
 1006 0004 0546     		mov	r5, r0
 1007 0006 1446     		mov	r4, r2
 1008              		.loc 1 480 0
 1009 0008 20DD     		ble	.L70
 1010              	.LVL93:
 1011              	.LBB90:
 1012              	.LBB91:
 1013              		.loc 1 482 0
 1014 000a 314B     		ldr	r3, .L90
 1015              		.loc 1 483 0
 1016 000c 3149     		ldr	r1, .L90+4
 1017              	.LVL94:
 1018              		.loc 1 482 0
ARM GAS  /tmp/ccl85KI2.s 			page 19


 1019 000e 0026     		movs	r6, #0
 1020 0010 1E70     		strb	r6, [r3, #0]
 1021              		.loc 1 483 0
 1022 0012 FFF7FEFF 		bl	chprintf
 1023              	.LVL95:
 1024              		.loc 1 485 0
 1025 0016 2368     		ldr	r3, [r4, #0]
 1026 0018 1B78     		ldrb	r3, [r3, #0]	@ zero_extendqisi2
 1027 001a 03F0DF03 		and	r3, r3, #223
 1028 001e 562B     		cmp	r3, #86
 1029 0020 26D0     		beq	.L84
 1030              		.loc 1 489 0
 1031 0022 4C2B     		cmp	r3, #76
 1032 0024 37D0     		beq	.L85
 1033              	.L73:
 1034              	.LVL96:
 1035              		.loc 1 494 0
 1036 0026 6368     		ldr	r3, [r4, #4]
 1037 0028 1B78     		ldrb	r3, [r3, #0]	@ zero_extendqisi2
 1038 002a 03F0DF03 		and	r3, r3, #223
 1039 002e 502B     		cmp	r3, #80
 1040 0030 0DD1     		bne	.L74
 1041              		.loc 1 495 0
 1042 0032 A068     		ldr	r0, [r4, #8]
 1043 0034 0028     		cmp	r0, #0
 1044 0036 34D0     		beq	.L86
 1045              		.loc 1 496 0
 1046 0038 FFF7FEFF 		bl	atoi
 1047              	.LVL97:
 1048 003c 82B2     		uxth	r2, r0
 1049 003e 3285     		strh	r2, [r6, #40]	@ movhi
 1050              	.L76:
 1051              		.loc 1 497 0
 1052 0040 2549     		ldr	r1, .L90+8
 1053 0042 2846     		mov	r0, r5
 1054              	.LBE91:
 1055              	.LBE90:
 1056              		.loc 1 515 0
 1057 0044 BDE87040 		pop	{r4, r5, r6, lr}
 1058              	.LBB96:
 1059              	.LBB92:
 1060              		.loc 1 497 0
 1061 0048 FFF7FEBF 		b	chprintf
 1062              	.LVL98:
 1063              	.L70:
 1064 004c 70BD     		pop	{r4, r5, r6, pc}
 1065              	.LVL99:
 1066              	.L74:
 1067              		.loc 1 499 0
 1068 004e 492B     		cmp	r3, #73
 1069 0050 14D0     		beq	.L87
 1070              		.loc 1 504 0
 1071 0052 442B     		cmp	r3, #68
 1072 0054 27D1     		bne	.L80
 1073              		.loc 1 505 0
 1074 0056 A068     		ldr	r0, [r4, #8]
 1075 0058 0028     		cmp	r0, #0
ARM GAS  /tmp/ccl85KI2.s 			page 20


 1076 005a 37D0     		beq	.L88
 1077              		.loc 1 506 0
 1078 005c FFF7FEFF 		bl	atoi
 1079              	.LVL100:
 1080 0060 82B2     		uxth	r2, r0
 1081 0062 B285     		strh	r2, [r6, #44]	@ movhi
 1082              	.L82:
 1083              		.loc 1 507 0
 1084 0064 1D49     		ldr	r1, .L90+12
 1085 0066 2846     		mov	r0, r5
 1086              	.LBE92:
 1087              	.LBE96:
 1088              		.loc 1 515 0
 1089 0068 BDE87040 		pop	{r4, r5, r6, lr}
 1090              	.LBB97:
 1091              	.LBB93:
 1092              		.loc 1 507 0
 1093 006c FFF7FEBF 		b	chprintf
 1094              	.LVL101:
 1095              	.L84:
 1096              		.loc 1 487 0
 1097 0070 2846     		mov	r0, r5
 1098 0072 1B49     		ldr	r1, .L90+16
 1099              		.loc 1 486 0
 1100 0074 1B4E     		ldr	r6, .L90+20
 1101              		.loc 1 487 0
 1102 0076 FFF7FEFF 		bl	chprintf
 1103              	.LVL102:
 1104 007a D4E7     		b	.L73
 1105              	.LVL103:
 1106              	.L87:
 1107              		.loc 1 500 0
 1108 007c A068     		ldr	r0, [r4, #8]
 1109 007e 0028     		cmp	r0, #0
 1110 0080 22D0     		beq	.L89
 1111              		.loc 1 501 0
 1112 0082 FFF7FEFF 		bl	atoi
 1113              	.LVL104:
 1114 0086 82B2     		uxth	r2, r0
 1115 0088 7285     		strh	r2, [r6, #42]	@ movhi
 1116              	.L79:
 1117              		.loc 1 502 0
 1118 008a 1749     		ldr	r1, .L90+24
 1119 008c 2846     		mov	r0, r5
 1120              	.LBE93:
 1121              	.LBE97:
 1122              		.loc 1 515 0
 1123 008e BDE87040 		pop	{r4, r5, r6, lr}
 1124              	.LBB98:
 1125              	.LBB94:
 1126              		.loc 1 502 0
 1127 0092 FFF7FEBF 		b	chprintf
 1128              	.LVL105:
 1129              	.L85:
 1130              		.loc 1 491 0
 1131 0096 2846     		mov	r0, r5
 1132 0098 1449     		ldr	r1, .L90+28
ARM GAS  /tmp/ccl85KI2.s 			page 21


 1133              		.loc 1 490 0
 1134 009a 154E     		ldr	r6, .L90+32
 1135              		.loc 1 491 0
 1136 009c FFF7FEFF 		bl	chprintf
 1137              	.LVL106:
 1138 00a0 C1E7     		b	.L73
 1139              	.LVL107:
 1140              	.L86:
 1141 00a2 328D     		ldrh	r2, [r6, #40]
 1142 00a4 CCE7     		b	.L76
 1143              	.L80:
 1144              		.loc 1 510 0
 1145 00a6 328D     		ldrh	r2, [r6, #40]
 1146 00a8 1249     		ldr	r1, .L90+36
 1147 00aa 2846     		mov	r0, r5
 1148 00ac FFF7FEFF 		bl	chprintf
 1149              	.LVL108:
 1150              		.loc 1 511 0
 1151 00b0 2846     		mov	r0, r5
 1152 00b2 728D     		ldrh	r2, [r6, #42]
 1153 00b4 1049     		ldr	r1, .L90+40
 1154 00b6 FFF7FEFF 		bl	chprintf
 1155              	.LVL109:
 1156              		.loc 1 512 0
 1157 00ba 1049     		ldr	r1, .L90+44
 1158 00bc B28D     		ldrh	r2, [r6, #44]
 1159 00be 2846     		mov	r0, r5
 1160              	.LBE94:
 1161              	.LBE98:
 1162              		.loc 1 515 0
 1163 00c0 BDE87040 		pop	{r4, r5, r6, lr}
 1164              	.LBB99:
 1165              	.LBB95:
 1166              		.loc 1 512 0
 1167 00c4 FFF7FEBF 		b	chprintf
 1168              	.LVL110:
 1169              	.L89:
 1170 00c8 728D     		ldrh	r2, [r6, #42]
 1171 00ca DEE7     		b	.L79
 1172              	.L88:
 1173 00cc B28D     		ldrh	r2, [r6, #44]
 1174 00ce C9E7     		b	.L82
 1175              	.L91:
 1176              		.align	2
 1177              	.L90:
 1178 00d0 00000000 		.word	.LANCHOR0
 1179 00d4 10000000 		.word	.LC1
 1180 00d8 38010000 		.word	.LC16
 1181 00dc 58010000 		.word	.LC18
 1182 00e0 84000000 		.word	.LC5
 1183 00e4 00000000 		.word	.LANCHOR8
 1184 00e8 48010000 		.word	.LC17
 1185 00ec 94000000 		.word	.LC6
 1186 00f0 00000000 		.word	.LANCHOR6
 1187 00f4 68010000 		.word	.LC19
 1188 00f8 7C010000 		.word	.LC20
 1189 00fc 8C010000 		.word	.LC21
ARM GAS  /tmp/ccl85KI2.s 			page 22


 1190              	.LBE95:
 1191              	.LBE99:
 1192              		.cfi_endproc
 1193              	.LFE128:
 1194              		.size	cmd_gain, .-cmd_gain
 1195              		.section	.text.cmd_mem,"ax",%progbits
 1196              		.align	2
 1197              		.p2align 4,,15
 1198              		.thumb
 1199              		.thumb_func
 1200              		.type	cmd_mem, %function
 1201              	cmd_mem:
 1202              	.LFB120:
 1203              		.loc 1 214 0
 1204              		.cfi_startproc
 1205              		@ args = 0, pretend = 0, frame = 8
 1206              		@ frame_needed = 0, uses_anonymous_args = 0
 1207              	.LVL111:
 1208 0000 30B5     		push	{r4, r5, lr}
 1209              	.LCFI8:
 1210              		.cfi_def_cfa_offset 12
 1211              		.cfi_offset 4, -12
 1212              		.cfi_offset 5, -8
 1213              		.cfi_offset 14, -4
 1214              		.loc 1 218 0
 1215 0002 0029     		cmp	r1, #0
 1216              		.loc 1 214 0
 1217 0004 83B0     		sub	sp, sp, #12
 1218              	.LCFI9:
 1219              		.cfi_def_cfa_offset 24
 1220              		.loc 1 214 0
 1221 0006 0446     		mov	r4, r0
 1222              		.loc 1 218 0
 1223 0008 04DD     		ble	.L93
 1224              		.loc 1 219 0
 1225 000a 0E49     		ldr	r1, .L95
 1226              	.LVL112:
 1227 000c FFF7FEFF 		bl	chprintf
 1228              	.LVL113:
 1229              	.L92:
 1230              		.loc 1 226 0
 1231 0010 03B0     		add	sp, sp, #12
 1232 0012 30BD     		pop	{r4, r5, pc}
 1233              	.LVL114:
 1234              	.L93:
 1235              	.LBB102:
 1236              	.LBB103:
 1237              		.loc 1 222 0
 1238 0014 01A9     		add	r1, sp, #4
 1239              	.LVL115:
 1240 0016 0020     		movs	r0, #0
 1241              	.LVL116:
 1242 0018 FFF7FEFF 		bl	chHeapStatus
 1243              	.LVL117:
 1244 001c 0546     		mov	r5, r0
 1245              	.LVL118:
 1246              		.loc 1 223 0
ARM GAS  /tmp/ccl85KI2.s 			page 23


 1247 001e FFF7FEFF 		bl	chCoreStatus
 1248              	.LVL119:
 1249 0022 0949     		ldr	r1, .L95+4
 1250 0024 0246     		mov	r2, r0
 1251 0026 2046     		mov	r0, r4
 1252 0028 FFF7FEFF 		bl	chprintf
 1253              	.LVL120:
 1254              		.loc 1 224 0
 1255 002c 2046     		mov	r0, r4
 1256 002e 2A46     		mov	r2, r5
 1257 0030 0649     		ldr	r1, .L95+8
 1258 0032 FFF7FEFF 		bl	chprintf
 1259              	.LVL121:
 1260              		.loc 1 225 0
 1261 0036 2046     		mov	r0, r4
 1262 0038 0549     		ldr	r1, .L95+12
 1263              	.LVL122:
 1264 003a 019A     		ldr	r2, [sp, #4]
 1265 003c FFF7FEFF 		bl	chprintf
 1266              	.LVL123:
 1267 0040 E6E7     		b	.L92
 1268              	.L96:
 1269 0042 00BF     		.align	2
 1270              	.L95:
 1271 0044 9C010000 		.word	.LC22
 1272 0048 AC010000 		.word	.LC23
 1273 004c CC010000 		.word	.LC24
 1274 0050 E4010000 		.word	.LC25
 1275              	.LBE103:
 1276              	.LBE102:
 1277              		.cfi_endproc
 1278              	.LFE120:
 1279              		.size	cmd_mem, .-cmd_mem
 1280 0054 AFF30080 		.section	.text.adccb2,"ax",%progbits
 1280      AFF30080 
 1280      AFF30080 
 1281              		.align	2
 1282              		.p2align 4,,15
 1283              		.thumb
 1284              		.thumb_func
 1285              		.type	adccb2, %function
 1286              	adccb2:
 1287              	.LFB130:
 1288              		.loc 1 578 0
 1289              		.cfi_startproc
 1290              		@ args = 0, pretend = 0, frame = 0
 1291              		@ frame_needed = 0, uses_anonymous_args = 0
 1292              		@ link register save eliminated.
 1293              	.LVL124:
 1294              		.loc 1 583 0
 1295 0000 0378     		ldrb	r3, [r0, #0]	@ zero_extendqisi2
 1296 0002 042B     		cmp	r3, #4
 1297 0004 00D0     		beq	.L99
 1298 0006 7047     		bx	lr
 1299              	.L99:
 1300              	.LBB106:
 1301              	.LBB107:
ARM GAS  /tmp/ccl85KI2.s 			page 24


 1302              		.loc 1 584 0
 1303 0008 024A     		ldr	r2, .L100
 1304              	.LVL125:
 1305 000a 0348     		ldr	r0, .L100+4
 1306              	.LVL126:
 1307 000c 1188     		ldrh	r1, [r2, #0]
 1308              	.LVL127:
 1309 000e 0322     		movs	r2, #3
 1310              	.LBE107:
 1311              	.LBE106:
 1312              		.loc 1 586 0
 1313              	.LBB109:
 1314              	.LBB108:
 1315              		.loc 1 584 0
 1316 0010 FFF7FEBF 		b	ControlAxis
 1317              	.LVL128:
 1318              	.L101:
 1319              		.align	2
 1320              	.L100:
 1321 0014 00000000 		.word	.LANCHOR9
 1322 0018 00000000 		.word	.LANCHOR6
 1323              	.LBE108:
 1324              	.LBE109:
 1325              		.cfi_endproc
 1326              	.LFE130:
 1327              		.size	adccb2, .-adccb2
 1328 001c AFF30080 		.section	.text.adccb1,"ax",%progbits
 1329              		.align	2
 1330              		.p2align 4,,15
 1331              		.thumb
 1332              		.thumb_func
 1333              		.type	adccb1, %function
 1334              	adccb1:
 1335              	.LFB129:
 1336              		.loc 1 564 0
 1337              		.cfi_startproc
 1338              		@ args = 0, pretend = 0, frame = 0
 1339              		@ frame_needed = 0, uses_anonymous_args = 0
 1340              		@ link register save eliminated.
 1341              	.LVL129:
 1342              		.loc 1 569 0
 1343 0000 0378     		ldrb	r3, [r0, #0]	@ zero_extendqisi2
 1344 0002 042B     		cmp	r3, #4
 1345 0004 00D0     		beq	.L104
 1346 0006 7047     		bx	lr
 1347              	.L104:
 1348              	.LBB112:
 1349              	.LBB113:
 1350              		.loc 1 570 0
 1351 0008 034B     		ldr	r3, .L105
 1352 000a 0448     		ldr	r0, .L105+4
 1353              	.LVL130:
 1354 000c 1988     		ldrh	r1, [r3, #0]
 1355              	.LVL131:
 1356 000e 0122     		movs	r2, #1
 1357              	.LVL132:
 1358 0010 0223     		movs	r3, #2
ARM GAS  /tmp/ccl85KI2.s 			page 25


 1359              	.LBE113:
 1360              	.LBE112:
 1361              		.loc 1 572 0
 1362              	.LBB115:
 1363              	.LBB114:
 1364              		.loc 1 570 0
 1365 0012 FFF7FEBF 		b	ControlAxis
 1366              	.LVL133:
 1367              	.L106:
 1368 0016 00BF     		.align	2
 1369              	.L105:
 1370 0018 00000000 		.word	.LANCHOR10
 1371 001c 00000000 		.word	.LANCHOR8
 1372              	.LBE114:
 1373              	.LBE115:
 1374              		.cfi_endproc
 1375              	.LFE129:
 1376              		.size	adccb1, .-adccb1
 1377              		.section	.text.DisplayData,"ax",%progbits
 1378              		.align	2
 1379              		.p2align 4,,15
 1380              		.global	DisplayData
 1381              		.thumb
 1382              		.thumb_func
 1383              		.type	DisplayData, %function
 1384              	DisplayData:
 1385              	.LFB122:
 1386              		.loc 1 277 0
 1387              		.cfi_startproc
 1388              		@ args = 0, pretend = 0, frame = 0
 1389              		@ frame_needed = 0, uses_anonymous_args = 0
 1390              	.LVL134:
 1391 0000 38B5     		push	{r3, r4, r5, lr}
 1392              	.LCFI10:
 1393              		.cfi_def_cfa_offset 16
 1394              		.cfi_offset 3, -16
 1395              		.cfi_offset 4, -12
 1396              		.cfi_offset 5, -8
 1397              		.cfi_offset 14, -4
 1398              		.loc 1 277 0
 1399 0002 0C46     		mov	r4, r1
 1400              		.loc 1 279 0
 1401 0004 40F20001 		movw	r1, #:lower16:.LC26
 1402              	.LVL135:
 1403 0008 B4F91020 		ldrsh	r2, [r4, #16]
 1404 000c C0F20001 		movt	r1, #:upper16:.LC26
 1405              		.loc 1 277 0
 1406 0010 0546     		mov	r5, r0
 1407              		.loc 1 279 0
 1408 0012 FFF7FEFF 		bl	chprintf
 1409              	.LVL136:
 1410              		.loc 1 280 0
 1411 0016 40F20001 		movw	r1, #:lower16:.LC27
 1412 001a 2846     		mov	r0, r5
 1413 001c B4F90E20 		ldrsh	r2, [r4, #14]
 1414 0020 C0F20001 		movt	r1, #:upper16:.LC27
 1415 0024 FFF7FEFF 		bl	chprintf
ARM GAS  /tmp/ccl85KI2.s 			page 26


 1416              	.LVL137:
 1417              		.loc 1 282 0
 1418 0028 40F20001 		movw	r1, #:lower16:.LC28
 1419 002c 2846     		mov	r0, r5
 1420 002e B4F93820 		ldrsh	r2, [r4, #56]
 1421 0032 C0F20001 		movt	r1, #:upper16:.LC28
 1422 0036 FFF7FEFF 		bl	chprintf
 1423              	.LVL138:
 1424              		.loc 1 284 0
 1425 003a 40F20001 		movw	r1, #:lower16:.LC29
 1426 003e 2846     		mov	r0, r5
 1427 0040 B4F91220 		ldrsh	r2, [r4, #18]
 1428 0044 C0F20001 		movt	r1, #:upper16:.LC29
 1429 0048 FFF7FEFF 		bl	chprintf
 1430              	.LVL139:
 1431              		.loc 1 285 0
 1432 004c 40F20001 		movw	r1, #:lower16:.LC30
 1433 0050 2846     		mov	r0, r5
 1434 0052 A278     		ldrb	r2, [r4, #2]	@ zero_extendqisi2
 1435 0054 C0F20001 		movt	r1, #:upper16:.LC30
 1436 0058 FFF7FEFF 		bl	chprintf
 1437              	.LVL140:
 1438              		.loc 1 286 0
 1439 005c 40F20001 		movw	r1, #:lower16:.LC31
 1440 0060 2846     		mov	r0, r5
 1441 0062 E278     		ldrb	r2, [r4, #3]	@ zero_extendqisi2
 1442 0064 C0F20001 		movt	r1, #:upper16:.LC31
 1443 0068 FFF7FEFF 		bl	chprintf
 1444              	.LVL141:
 1445              		.loc 1 287 0
 1446 006c 40F20001 		movw	r1, #:lower16:.LC32
 1447 0070 2279     		ldrb	r2, [r4, #4]	@ zero_extendqisi2
 1448 0072 2846     		mov	r0, r5
 1449 0074 C0F20001 		movt	r1, #:upper16:.LC32
 1450              		.loc 1 288 0
 1451 0078 BDE83840 		pop	{r3, r4, r5, lr}
 1452              		.loc 1 287 0
 1453 007c FFF7FEBF 		b	chprintf
 1454              	.LVL142:
 1455              		.cfi_endproc
 1456              	.LFE122:
 1457              		.size	DisplayData, .-DisplayData
 1458              		.section	.text.cmd_data,"ax",%progbits
 1459              		.align	2
 1460              		.p2align 4,,15
 1461              		.thumb
 1462              		.thumb_func
 1463              		.type	cmd_data, %function
 1464              	cmd_data:
 1465              	.LFB121:
 1466              		.loc 1 238 0
 1467              		.cfi_startproc
 1468              		@ args = 0, pretend = 0, frame = 0
 1469              		@ frame_needed = 0, uses_anonymous_args = 0
 1470              	.LVL143:
 1471 0000 F8B5     		push	{r3, r4, r5, r6, r7, lr}
 1472              	.LCFI11:
ARM GAS  /tmp/ccl85KI2.s 			page 27


 1473              		.cfi_def_cfa_offset 24
 1474              		.cfi_offset 3, -24
 1475              		.cfi_offset 4, -20
 1476              		.cfi_offset 5, -16
 1477              		.cfi_offset 6, -12
 1478              		.cfi_offset 7, -8
 1479              		.cfi_offset 14, -4
 1480              		.loc 1 242 0
 1481 0002 204D     		ldr	r5, .L124
 1482 0004 2B78     		ldrb	r3, [r5, #0]	@ zero_extendqisi2
 1483 0006 022B     		cmp	r3, #2
 1484              		.loc 1 238 0
 1485 0008 0446     		mov	r4, r0
 1486 000a 0F46     		mov	r7, r1
 1487 000c 1646     		mov	r6, r2
 1488              		.loc 1 242 0
 1489 000e 25D0     		beq	.L109
 1490              		.loc 1 243 0
 1491 0010 1D49     		ldr	r1, .L124+4
 1492              	.LVL144:
 1493 0012 FFF7FEFF 		bl	chprintf
 1494              	.LVL145:
 1495              		.loc 1 244 0
 1496 0016 2B78     		ldrb	r3, [r5, #0]	@ zero_extendqisi2
 1497 0018 012B     		cmp	r3, #1
 1498 001a 23D0     		beq	.L112
 1499              	.L110:
 1500              		.loc 1 248 0
 1501 001c 2046     		mov	r0, r4
 1502 001e 1B49     		ldr	r1, .L124+8
 1503 0020 FFF7FEFF 		bl	chprintf
 1504              	.LVL146:
 1505              		.loc 1 260 0
 1506 0024 002F     		cmp	r7, #0
 1507 0026 23D0     		beq	.L113
 1508              	.L123:
 1509              		.loc 1 260 0 is_stmt 0 discriminator 1
 1510 0028 3368     		ldr	r3, [r6, #0]
 1511 002a 1B78     		ldrb	r3, [r3, #0]	@ zero_extendqisi2
 1512 002c 762B     		cmp	r3, #118
 1513 002e 0BD0     		beq	.L117
 1514              		.loc 1 261 0 is_stmt 1
 1515 0030 1749     		ldr	r1, .L124+12
 1516 0032 2046     		mov	r0, r4
 1517 0034 FFF7FEFF 		bl	chprintf
 1518              	.LVL147:
 1519              		.loc 1 262 0
 1520 0038 2046     		mov	r0, r4
 1521 003a 1649     		ldr	r1, .L124+16
 1522 003c FFF7FEFF 		bl	DisplayData
 1523              	.LVL148:
 1524              		.loc 1 265 0
 1525 0040 3368     		ldr	r3, [r6, #0]
 1526 0042 1B78     		ldrb	r3, [r3, #0]	@ zero_extendqisi2
 1527 0044 6C2B     		cmp	r3, #108
 1528 0046 1CD0     		beq	.L122
 1529              	.L117:
ARM GAS  /tmp/ccl85KI2.s 			page 28


 1530              		.loc 1 266 0
 1531 0048 2046     		mov	r0, r4
 1532 004a 1349     		ldr	r1, .L124+20
 1533 004c FFF7FEFF 		bl	chprintf
 1534              	.LVL149:
 1535              		.loc 1 267 0
 1536 0050 1249     		ldr	r1, .L124+24
 1537 0052 2046     		mov	r0, r4
 1538              		.loc 1 269 0
 1539 0054 BDE8F840 		pop	{r3, r4, r5, r6, r7, lr}
 1540              		.loc 1 267 0
 1541 0058 FFF7FEBF 		b	DisplayData
 1542              	.LVL150:
 1543              	.L109:
 1544              		.loc 1 252 0
 1545 005c 104B     		ldr	r3, .L124+28
 1546 005e 1B78     		ldrb	r3, [r3, #0]	@ zero_extendqisi2
 1547 0060 012B     		cmp	r3, #1
 1548 0062 DBD1     		bne	.L110
 1549              	.LVL151:
 1550              	.L112:
 1551              		.loc 1 245 0
 1552 0064 2046     		mov	r0, r4
 1553 0066 0F49     		ldr	r1, .L124+32
 1554 0068 FFF7FEFF 		bl	chprintf
 1555              	.LVL152:
 1556              		.loc 1 260 0
 1557 006c 002F     		cmp	r7, #0
 1558 006e DBD1     		bne	.L123
 1559              	.L113:
 1560              		.loc 1 261 0
 1561 0070 2046     		mov	r0, r4
 1562 0072 0749     		ldr	r1, .L124+12
 1563 0074 FFF7FEFF 		bl	chprintf
 1564              	.LVL153:
 1565              		.loc 1 262 0
 1566 0078 2046     		mov	r0, r4
 1567 007a 0649     		ldr	r1, .L124+16
 1568 007c FFF7FEFF 		bl	DisplayData
 1569              	.LVL154:
 1570 0080 E2E7     		b	.L117
 1571              	.L122:
 1572 0082 F8BD     		pop	{r3, r4, r5, r6, r7, pc}
 1573              	.L125:
 1574              		.align	2
 1575              	.L124:
 1576 0084 00000000 		.word	.LANCHOR3
 1577 0088 00010000 		.word	.LC13
 1578 008c D0000000 		.word	.LC10
 1579 0090 D8020000 		.word	.LC34
 1580 0094 00000000 		.word	.LANCHOR6
 1581 0098 C4020000 		.word	.LC33
 1582 009c 00000000 		.word	.LANCHOR8
 1583 00a0 00000000 		.word	.LANCHOR4
 1584 00a4 BC000000 		.word	.LC9
 1585              		.cfi_endproc
 1586              	.LFE121:
ARM GAS  /tmp/ccl85KI2.s 			page 29


 1587              		.size	cmd_data, .-cmd_data
 1588 00a8 AFF30080 		.section	.text.startup.main,"ax",%progbits
 1588      AFF30080 
 1589              		.align	2
 1590              		.p2align 4,,15
 1591              		.global	main
 1592              		.thumb
 1593              		.thumb_func
 1594              		.type	main, %function
 1595              	main:
 1596              	.LFB134:
 1597              		.loc 1 704 0
 1598              		.cfi_startproc
 1599              		@ args = 0, pretend = 0, frame = 24
 1600              		@ frame_needed = 0, uses_anonymous_args = 0
 1601 0000 2DE9F04F 		push	{r4, r5, r6, r7, r8, r9, sl, fp, lr}
 1602              	.LCFI12:
 1603              		.cfi_def_cfa_offset 36
 1604              		.cfi_offset 4, -36
 1605              		.cfi_offset 5, -32
 1606              		.cfi_offset 6, -28
 1607              		.cfi_offset 7, -24
 1608              		.cfi_offset 8, -20
 1609              		.cfi_offset 9, -16
 1610              		.cfi_offset 10, -12
 1611              		.cfi_offset 11, -8
 1612              		.cfi_offset 14, -4
 1613              		.loc 1 724 0
 1614 0004 8D4B     		ldr	r3, .L179
 1615              		.loc 1 730 0
 1616 0006 8E4E     		ldr	r6, .L179+4
 1617              		.loc 1 806 0
 1618 0008 DFF87482 		ldr	r8, .L179+68
 1619              		.loc 1 814 0
 1620 000c 8D4F     		ldr	r7, .L179+8
 1621 000e 8E4D     		ldr	r5, .L179+12
 1622 0010 DFF870A2 		ldr	sl, .L179+72
 1623 0014 DFF87092 		ldr	r9, .L179+76
 1624 0018 8C4C     		ldr	r4, .L179+16
 1625              		.loc 1 704 0
 1626 001a 87B0     		sub	sp, sp, #28
 1627              	.LCFI13:
 1628              		.cfi_def_cfa_offset 64
 1629              		.loc 1 718 0
 1630 001c 0093     		str	r3, [sp, #0]
 1631 001e FFF7FEFF 		bl	halInit
 1632              	.LVL155:
 1633              		.loc 1 719 0
 1634 0022 FFF7FEFF 		bl	chSysInit
 1635              	.LVL156:
 1636              		.loc 1 724 0
 1637 0026 009B     		ldr	r3, [sp, #0]
 1638              		.loc 1 729 0
 1639 0028 8948     		ldr	r0, .L179+20
 1640              		.loc 1 724 0
 1641 002a 1B60     		str	r3, [r3, #0]
 1642              		.loc 1 729 0
ARM GAS  /tmp/ccl85KI2.s 			page 30


 1643 002c FFF7FEFF 		bl	sduObjectInit
 1644              	.LVL157:
 1645              		.loc 1 730 0
 1646 0030 3146     		mov	r1, r6
 1647 0032 8748     		ldr	r0, .L179+20
 1648 0034 FFF7FEFF 		bl	sduStart
 1649              	.LVL158:
 1650              		.loc 1 737 0
 1651 0038 3668     		ldr	r6, [r6, #0]
 1652 003a 326D     		ldr	r2, [r6, #80]
 1653 003c 916B     		ldr	r1, [r2, #56]
 1654 003e 21F40021 		bic	r1, r1, #524288
 1655 0042 9163     		str	r1, [r2, #56]
 1656              		.loc 1 738 0
 1657 0044 42F20770 		movw	r0, #9991
 1658 0048 FFF7FEFF 		bl	chThdSleep
 1659              	.LVL159:
 1660              		.loc 1 739 0
 1661 004c 3046     		mov	r0, r6
 1662 004e 8149     		ldr	r1, .L179+24
 1663 0050 FFF7FEFF 		bl	usbStart
 1664              	.LVL160:
 1665              		.loc 1 740 0
 1666 0054 326D     		ldr	r2, [r6, #80]
 1667              		.loc 1 743 0
 1668 0056 8048     		ldr	r0, .L179+28
 1669              		.loc 1 740 0
 1670 0058 966B     		ldr	r6, [r2, #56]
 1671              		.loc 1 743 0
 1672 005a 8049     		ldr	r1, .L179+32
 1673              		.loc 1 740 0
 1674 005c 46F40026 		orr	r6, r6, #524288
 1675 0060 9663     		str	r6, [r2, #56]
 1676              		.loc 1 743 0
 1677 0062 FFF7FEFF 		bl	gptStart
 1678              	.LVL161:
 1679              		.loc 1 744 0
 1680 0066 7C48     		ldr	r0, .L179+28
 1681 0068 42F21071 		movw	r1, #10000
 1682 006c FFF7FEFF 		bl	gptStartContinuous
 1683              	.LVL162:
 1684              		.loc 1 749 0
 1685 0070 FFF7FEFF 		bl	shellInit
 1686              	.LVL163:
 1687              		.loc 1 752 0
 1688 0074 0020     		movs	r0, #0
 1689 0076 1021     		movs	r1, #16
 1690 0078 0322     		movs	r2, #3
 1691 007a C4F20200 		movt	r0, 16386
 1692 007e FFF7FEFF 		bl	_pal_lld_setgroupmode
 1693              	.LVL164:
 1694              		.loc 1 753 0
 1695 0082 0020     		movs	r0, #0
 1696 0084 2021     		movs	r1, #32
 1697 0086 0322     		movs	r2, #3
 1698 0088 C4F20200 		movt	r0, 16386
 1699 008c FFF7FEFF 		bl	_pal_lld_setgroupmode
ARM GAS  /tmp/ccl85KI2.s 			page 31


 1700              	.LVL165:
 1701              		.loc 1 755 0
 1702 0090 4FF4A050 		mov	r0, #5120
 1703 0094 4021     		movs	r1, #64
 1704 0096 0322     		movs	r2, #3
 1705 0098 C4F20200 		movt	r0, 16386
 1706 009c FFF7FEFF 		bl	_pal_lld_setgroupmode
 1707              	.LVL166:
 1708              		.loc 1 756 0
 1709 00a0 4FF4A050 		mov	r0, #5120
 1710 00a4 8021     		movs	r1, #128
 1711 00a6 0322     		movs	r2, #3
 1712 00a8 C4F20200 		movt	r0, 16386
 1713 00ac FFF7FEFF 		bl	_pal_lld_setgroupmode
 1714              	.LVL167:
 1715              		.loc 1 760 0
 1716 00b0 4FF44060 		mov	r0, #3072
 1717 00b4 0821     		movs	r1, #8
 1718 00b6 0122     		movs	r2, #1
 1719 00b8 C4F20200 		movt	r0, 16386
 1720 00bc FFF7FEFF 		bl	_pal_lld_setgroupmode
 1721              	.LVL168:
 1722              		.loc 1 762 0
 1723 00c0 4FF44060 		mov	r0, #3072
 1724 00c4 1021     		movs	r1, #16
 1725 00c6 0122     		movs	r2, #1
 1726 00c8 C4F20200 		movt	r0, 16386
 1727 00cc FFF7FEFF 		bl	_pal_lld_setgroupmode
 1728              	.LVL169:
 1729              		.loc 1 766 0
 1730 00d0 4FF44060 		mov	r0, #3072
 1731 00d4 0022     		movs	r2, #0
 1732 00d6 C4F20200 		movt	r0, 16386
 1733 00da 4FF48071 		mov	r1, #256
 1734 00de FFF7FEFF 		bl	_pal_lld_setgroupmode
 1735              	.LVL170:
 1736              		.loc 1 768 0
 1737 00e2 4FF44060 		mov	r0, #3072
 1738 00e6 0022     		movs	r2, #0
 1739 00e8 C4F20200 		movt	r0, 16386
 1740 00ec 4FF40071 		mov	r1, #512
 1741 00f0 FFF7FEFF 		bl	_pal_lld_setgroupmode
 1742              	.LVL171:
 1743              		.loc 1 772 0
 1744 00f4 4FF44060 		mov	r0, #3072
 1745 00f8 2021     		movs	r1, #32
 1746 00fa C4F20200 		movt	r0, 16386
 1747 00fe 0122     		movs	r2, #1
 1748 0100 FFF7FEFF 		bl	_pal_lld_setgroupmode
 1749              	.LVL172:
 1750              		.loc 1 774 0
 1751 0104 4FF44060 		mov	r0, #3072
 1752 0108 4021     		movs	r1, #64
 1753 010a 0122     		movs	r2, #1
 1754 010c C4F20200 		movt	r0, 16386
 1755 0110 FFF7FEFF 		bl	_pal_lld_setgroupmode
 1756              	.LVL173:
ARM GAS  /tmp/ccl85KI2.s 			page 32


 1757              		.loc 1 778 0
 1758 0114 4FF44060 		mov	r0, #3072
 1759 0118 0122     		movs	r2, #1
 1760 011a C4F20200 		movt	r0, 16386
 1761 011e 4FF48061 		mov	r1, #1024
 1762 0122 FFF7FEFF 		bl	_pal_lld_setgroupmode
 1763              	.LVL174:
 1764              		.loc 1 780 0
 1765 0126 4FF44060 		mov	r0, #3072
 1766 012a 0122     		movs	r2, #1
 1767 012c C4F20200 		movt	r0, 16386
 1768 0130 4FF40061 		mov	r1, #2048
 1769 0134 FFF7FEFF 		bl	_pal_lld_setgroupmode
 1770              	.LVL175:
 1771              		.loc 1 783 0
 1772 0138 4FF44060 		mov	r0, #3072
 1773 013c C4F20200 		movt	r0, 16386
 1774 0140 4FF48051 		mov	r1, #4096
 1775 0144 4FF48172 		mov	r2, #258
 1776 0148 FFF7FEFF 		bl	_pal_lld_setgroupmode
 1777              	.LVL176:
 1778              		.loc 1 784 0
 1779 014c 4FF44060 		mov	r0, #3072
 1780 0150 C4F20200 		movt	r0, 16386
 1781 0154 4FF40051 		mov	r1, #8192
 1782 0158 4FF48172 		mov	r2, #258
 1783 015c FFF7FEFF 		bl	_pal_lld_setgroupmode
 1784              	.LVL177:
 1785              		.loc 1 785 0
 1786 0160 4FF44060 		mov	r0, #3072
 1787 0164 C4F20200 		movt	r0, 16386
 1788 0168 4FF48041 		mov	r1, #16384
 1789 016c 4FF48172 		mov	r2, #258
 1790 0170 FFF7FEFF 		bl	_pal_lld_setgroupmode
 1791              	.LVL178:
 1792              		.loc 1 786 0
 1793 0174 4FF44060 		mov	r0, #3072
 1794 0178 4FF48172 		mov	r2, #258
 1795 017c C4F20200 		movt	r0, 16386
 1796 0180 4FF40041 		mov	r1, #32768
 1797 0184 FFF7FEFF 		bl	_pal_lld_setgroupmode
 1798              	.LVL179:
 1799              		.loc 1 788 0
 1800 0188 0021     		movs	r1, #0
 1801 018a 3548     		ldr	r0, .L179+36
 1802 018c FFF7FEFF 		bl	adcStart
 1803              	.LVL180:
 1804              		.loc 1 789 0
 1805 0190 0021     		movs	r1, #0
 1806 0192 3448     		ldr	r0, .L179+40
 1807 0194 FFF7FEFF 		bl	adcStart
 1808              	.LVL181:
 1809              		.loc 1 790 0
 1810 0198 0021     		movs	r1, #0
 1811 019a 3348     		ldr	r0, .L179+44
 1812 019c FFF7FEFF 		bl	adcStart
 1813              	.LVL182:
ARM GAS  /tmp/ccl85KI2.s 			page 33


 1814              		.loc 1 792 0
 1815 01a0 3248     		ldr	r0, .L179+48
 1816 01a2 3349     		ldr	r1, .L179+52
 1817 01a4 FFF7FEFF 		bl	pwmStart
 1818              	.LVL183:
 1819              		.loc 1 799 0
 1820 01a8 0021     		movs	r1, #0
 1821 01aa 0A46     		mov	r2, r1
 1822 01ac 2F48     		ldr	r0, .L179+48
 1823 01ae FFF7FEFF 		bl	pwmEnableChannel
 1824              	.LVL184:
 1825              		.loc 1 800 0
 1826 01b2 0121     		movs	r1, #1
 1827 01b4 0022     		movs	r2, #0
 1828 01b6 2D48     		ldr	r0, .L179+48
 1829 01b8 FFF7FEFF 		bl	pwmEnableChannel
 1830              	.LVL185:
 1831              		.loc 1 801 0
 1832 01bc 0221     		movs	r1, #2
 1833 01be 0022     		movs	r2, #0
 1834 01c0 2A48     		ldr	r0, .L179+48
 1835 01c2 FFF7FEFF 		bl	pwmEnableChannel
 1836              	.LVL186:
 1837              		.loc 1 802 0
 1838 01c6 0321     		movs	r1, #3
 1839 01c8 0022     		movs	r2, #0
 1840 01ca 2848     		ldr	r0, .L179+48
 1841 01cc FFF7FEFF 		bl	pwmEnableChannel
 1842              	.LVL187:
 1843              		.loc 1 806 0
 1844 01d0 4FF0040E 		mov	lr, #4
 1845              		.loc 1 808 0
 1846 01d4 0026     		movs	r6, #0
 1847              		.loc 1 806 0
 1848 01d6 A8F828E0 		strh	lr, [r8, #40]	@ movhi
 1849              		.loc 1 810 0
 1850 01da 4FF4967E 		mov	lr, #300
 1851              		.loc 1 807 0
 1852 01de 0122     		movs	r2, #1
 1853              		.loc 1 826 0
 1854 01e0 3146     		mov	r1, r6
 1855              		.loc 1 815 0
 1856 01e2 7E85     		strh	r6, [r7, #42]	@ movhi
 1857              		.loc 1 816 0
 1858 01e4 BE85     		strh	r6, [r7, #44]	@ movhi
 1859              		.loc 1 808 0
 1860 01e6 A8F82C60 		strh	r6, [r8, #44]	@ movhi
 1861              		.loc 1 810 0
 1862 01ea A8F832E0 		strh	lr, [r8, #50]	@ movhi
 1863              		.loc 1 818 0
 1864 01ee FA26     		movs	r6, #250
 1865              		.loc 1 811 0
 1866 01f0 0EF5965E 		add	lr, lr, #4800
 1867              		.loc 1 818 0
 1868 01f4 7E86     		strh	r6, [r7, #50]	@ movhi
 1869              		.loc 1 811 0
 1870 01f6 A8F830E0 		strh	lr, [r8, #48]	@ movhi
ARM GAS  /tmp/ccl85KI2.s 			page 34


 1871              		.loc 1 819 0
 1872 01fa 41F2B446 		movw	r6, #5300
 1873              		.loc 1 812 0
 1874 01fe 4FF41B6E 		mov	lr, #2480
 1875              		.loc 1 819 0
 1876 0202 3E86     		strh	r6, [r7, #48]	@ movhi
 1877              		.loc 1 826 0
 1878 0204 1B48     		ldr	r0, .L179+56
 1879              		.loc 1 812 0
 1880 0206 A8F82EE0 		strh	lr, [r8, #46]	@ movhi
 1881              		.loc 1 820 0
 1882 020a 40F61C46 		movw	r6, #3100
 1883              		.loc 1 814 0
 1884 020e 4FF0020E 		mov	lr, #2
 1885 0212 A7F828E0 		strh	lr, [r7, #40]	@ movhi
 1886              		.loc 1 807 0
 1887 0216 A8F82A20 		strh	r2, [r8, #42]	@ movhi
 1888              		.loc 1 820 0
 1889 021a FE85     		strh	r6, [r7, #46]	@ movhi
 1890              		.loc 1 826 0
 1891 021c 0192     		str	r2, [sp, #4]
 1892 021e FFF7FEFF 		bl	sdStart
 1893              	.LVL188:
 1894              		.loc 1 832 0
 1895 0222 1549     		ldr	r1, .L179+60
 1896 0224 1548     		ldr	r0, .L179+64
 1897 0226 FFF7FEFF 		bl	extStart
 1898              	.LVL189:
 1899              		.loc 1 838 0
 1900 022a 009B     		ldr	r3, [sp, #0]
 1901 022c 019A     		ldr	r2, [sp, #4]
 1902 022e 1846     		mov	r0, r3
 1903 0230 02A9     		add	r1, sp, #8
 1904 0232 FFF7FEFF 		bl	chEvtRegisterMask
 1905              	.LVL190:
 1906              		.loc 1 841 0
 1907 0236 2E46     		mov	r6, r5
 1908 0238 3DE0     		b	.L158
 1909              	.L180:
 1910 023a 00BF     		.align	2
 1911              	.L179:
 1912 023c 00000000 		.word	.LANCHOR1
 1913 0240 00000000 		.word	serusbcfg
 1914 0244 00000000 		.word	.LANCHOR6
 1915 0248 00000000 		.word	.LANCHOR13
 1916 024c 00000000 		.word	.LANCHOR24
 1917 0250 00000000 		.word	SDU_PSAS
 1918 0254 00000000 		.word	usbcfg
 1919 0258 00000000 		.word	GPTD1
 1920 025c 00000000 		.word	.LANCHOR11
 1921 0260 00000000 		.word	ADCD1
 1922 0264 00000000 		.word	ADCD2
 1923 0268 00000000 		.word	ADCD3
 1924 026c 00000000 		.word	PWMD4
 1925 0270 00000000 		.word	pwmcfg
 1926 0274 00000000 		.word	SD6
 1927 0278 00000000 		.word	.LANCHOR12
ARM GAS  /tmp/ccl85KI2.s 			page 35


 1928 027c 00000000 		.word	EXTD1
 1929 0280 00000000 		.word	.LANCHOR8
 1930 0284 00000000 		.word	.LANCHOR19
 1931 0288 00000000 		.word	.LANCHOR20
 1932              	.L170:
 1933 028c 0133     		adds	r3, r3, #1
 1934 028e 3360     		str	r3, [r6, #0]
 1935              	.L128:
 1936              		.loc 1 844 0
 1937 0290 2068     		ldr	r0, [r4, #0]
 1938 0292 0028     		cmp	r0, #0
 1939 0294 00F0C980 		beq	.L168
 1940              	.L156:
 1941              		.loc 1 846 0
 1942 0298 90F82030 		ldrb	r3, [r0, #32]	@ zero_extendqisi2
 1943 029c 0E2B     		cmp	r3, #14
 1944 029e 00F03481 		beq	.L169
 1945              	.L157:
 1946              		.loc 1 850 0
 1947 02a2 41F27F31 		movw	r1, #4991
 1948 02a6 4FF0FF30 		mov	r0, #-1
 1949 02aa FFF7FEFF 		bl	chEvtWaitOneTimeout
 1950              	.LVL191:
 1951 02ae 0146     		mov	r1, r0
 1952 02b0 B948     		ldr	r0, .L181
 1953 02b2 FFF7FEFF 		bl	chEvtDispatch
 1954              	.LVL192:
 1955              	.L158:
 1956              		.loc 1 841 0
 1957 02b6 2B68     		ldr	r3, [r5, #0]
 1958 02b8 40F6C412 		movw	r2, #2500
 1959 02bc 9342     		cmp	r3, r2
 1960 02be E5D9     		bls	.L170
 1961              	.LBB122:
 1962              	.LBB123:
 1963              		.loc 1 610 0
 1964 02c0 4FF0000B 		mov	fp, #0
 1965 02c4 C6F800B0 		str	fp, [r6, #0]
 1966              	.LBB124:
 1967              		.loc 1 612 0
 1968 02c8 2023     		movs	r3, #32
 1969              	.LVL193:
 1970              	@ 612 "main.c" 1
 1971 02ca 83F31188 		msr     BASEPRI, r3
 1972              	@ 0 "" 2
 1973              	.LVL194:
 1974              		.thumb
 1975              	.LBE124:
 1976 02ce FFF7FEFF 		bl	dbg_check_lock_from_isr
 1977              	.LVL195:
 1978              		.loc 1 615 0
 1979 02d2 0123     		movs	r3, #1
 1980 02d4 B148     		ldr	r0, .L181+4
 1981 02d6 B249     		ldr	r1, .L181+8
 1982 02d8 B24A     		ldr	r2, .L181+12
 1983 02da FFF7FEFF 		bl	adcStartConversionI
 1984              	.LVL196:
ARM GAS  /tmp/ccl85KI2.s 			page 36


 1985              		.loc 1 617 0
 1986 02de 0123     		movs	r3, #1
 1987 02e0 B148     		ldr	r0, .L181+16
 1988 02e2 B249     		ldr	r1, .L181+20
 1989 02e4 B24A     		ldr	r2, .L181+24
 1990 02e6 FFF7FEFF 		bl	adcStartConversionI
 1991              	.LVL197:
 1992              		.loc 1 618 0
 1993 02ea 0123     		movs	r3, #1
 1994 02ec B148     		ldr	r0, .L181+28
 1995 02ee B249     		ldr	r1, .L181+32
 1996 02f0 B24A     		ldr	r2, .L181+36
 1997 02f2 FFF7FEFF 		bl	adcStartConversionI
 1998              	.LVL198:
 1999              		.loc 1 620 0
 2000 02f6 FFF7FEFF 		bl	dbg_check_unlock_from_isr
 2001              	.LVL199:
 2002              	.LBB125:
 2003 02fa 5B46     		mov	r3, fp
 2004              	.LVL200:
 2005              	@ 620 "main.c" 1
 2006 02fc 83F31188 		msr     BASEPRI, r3
 2007              	@ 0 "" 2
 2008              	.LVL201:
 2009              		.thumb
 2010              	.LBE125:
 2011              		.loc 1 625 0
 2012 0300 4FF44063 		mov	r3, #3072
 2013              	.LVL202:
 2014 0304 C4F20203 		movt	r3, 16386
 2015 0308 40F20000 		movw	r0, #:lower16:.LANCHOR17
 2016 030c 1A69     		ldr	r2, [r3, #16]
 2017 030e C0F20000 		movt	r0, #:upper16:.LANCHOR17
 2018 0312 C2F30022 		ubfx	r2, r2, #8, #1
 2019 0316 0270     		strb	r2, [r0, #0]
 2020              		.loc 1 627 0
 2021 0318 1969     		ldr	r1, [r3, #16]
 2022 031a 40F20000 		movw	r0, #:lower16:.LANCHOR4
 2023 031e C0F20000 		movt	r0, #:upper16:.LANCHOR4
 2024 0322 C1F34021 		ubfx	r1, r1, #9, #1
 2025 0326 0170     		strb	r1, [r0, #0]
 2026              		.loc 1 630 0
 2027 0328 002A     		cmp	r2, #0
 2028 032a 00F09280 		beq	.L129
 2029 032e 40F20000 		movw	r0, #:lower16:.LANCHOR0
 2030 0332 C0F20000 		movt	r0, #:upper16:.LANCHOR0
 2031 0336 0278     		ldrb	r2, [r0, #0]	@ zero_extendqisi2
 2032 0338 002A     		cmp	r2, #0
 2033 033a 00F08A80 		beq	.L129
 2034              		.loc 1 632 0
 2035 033e 4FF48062 		mov	r2, #1024
 2036 0342 1A83     		strh	r2, [r3, #24]	@ movhi
 2037              		.loc 1 633 0
 2038 0344 4022     		movs	r2, #64
 2039 0346 1A83     		strh	r2, [r3, #24]	@ movhi
 2040              		.loc 1 639 0
 2041 0348 40F20002 		movw	r2, #:lower16:.LANCHOR3
ARM GAS  /tmp/ccl85KI2.s 			page 37


 2042 034c C0F20002 		movt	r2, #:upper16:.LANCHOR3
 2043 0350 1378     		ldrb	r3, [r2, #0]	@ zero_extendqisi2
 2044 0352 022B     		cmp	r3, #2
 2045 0354 00F01381 		beq	.L171
 2046              		.loc 1 646 0
 2047 0358 40F20001 		movw	r1, #:lower16:.LANCHOR18
 2048 035c C0F20001 		movt	r1, #:upper16:.LANCHOR18
 2049 0360 0A78     		ldrb	r2, [r1, #0]	@ zero_extendqisi2
 2050 0362 9A42     		cmp	r2, r3
 2051 0364 03D0     		beq	.L134
 2052              		.loc 1 647 0
 2053 0366 0122     		movs	r2, #1
 2054 0368 88F80220 		strb	r2, [r8, #2]
 2055              		.loc 1 648 0
 2056 036c BA70     		strb	r2, [r7, #2]
 2057              	.L134:
 2058              		.loc 1 670 0
 2059 036e 40F20001 		movw	r1, #:lower16:.LANCHOR18
 2060 0372 C0F20001 		movt	r1, #:upper16:.LANCHOR18
 2061              	.LBB126:
 2062              	.LBB127:
 2063              		.loc 1 916 0
 2064 0376 98F80320 		ldrb	r2, [r8, #3]	@ zero_extendqisi2
 2065              	.LBE127:
 2066              	.LBE126:
 2067              		.loc 1 670 0
 2068 037a 0B70     		strb	r3, [r1, #0]
 2069              	.LBB133:
 2070              	.LBB128:
 2071              		.loc 1 916 0
 2072 037c 98F80430 		ldrb	r3, [r8, #4]	@ zero_extendqisi2
 2073 0380 002B     		cmp	r3, #0
 2074 0382 08BF     		it	eq
 2075 0384 002A     		cmpeq	r2, #0
 2076 0386 00F08C80 		beq	.L136
 2077              	.L175:
 2078              		.loc 1 917 0
 2079 038a 0123     		movs	r3, #1
 2080 038c 8AF80030 		strb	r3, [sl, #0]
 2081              		.loc 1 921 0
 2082 0390 FA78     		ldrb	r2, [r7, #3]	@ zero_extendqisi2
 2083 0392 3B79     		ldrb	r3, [r7, #4]	@ zero_extendqisi2
 2084 0394 002B     		cmp	r3, #0
 2085 0396 08BF     		it	eq
 2086 0398 002A     		cmpeq	r2, #0
 2087 039a 00F08C80 		beq	.L138
 2088              	.L176:
 2089              		.loc 1 922 0
 2090 039e 0123     		movs	r3, #1
 2091 03a0 89F80030 		strb	r3, [r9, #0]
 2092              	.L139:
 2093              		.loc 1 928 0
 2094 03a4 40F20002 		movw	r2, #:lower16:.LANCHOR21
 2095 03a8 C0F20002 		movt	r2, #:upper16:.LANCHOR21
 2096 03ac 1368     		ldr	r3, [r2, #0]
 2097 03ae 844A     		ldr	r2, .L181+40
 2098 03b0 322B     		cmp	r3, #50
ARM GAS  /tmp/ccl85KI2.s 			page 38


 2099 03b2 40F28480 		bls	.L140
 2100              		.loc 1 930 0
 2101 03b6 40F20000 		movw	r0, #:lower16:.LANCHOR22
 2102 03ba C0F20000 		movt	r0, #:upper16:.LANCHOR22
 2103              		.loc 1 929 0
 2104 03be 0021     		movs	r1, #0
 2105              		.loc 1 930 0
 2106 03c0 0378     		ldrb	r3, [r0, #0]	@ zero_extendqisi2
 2107              		.loc 1 929 0
 2108 03c2 1160     		str	r1, [r2, #0]
 2109              		.loc 1 936 0
 2110 03c4 9AF80020 		ldrb	r2, [sl, #0]	@ zero_extendqisi2
 2111              		.loc 1 930 0
 2112 03c8 DB43     		mvns	r3, r3
 2113 03ca DBB2     		uxtb	r3, r3
 2114              		.loc 1 936 0
 2115 03cc 012A     		cmp	r2, #1
 2116              		.loc 1 930 0
 2117 03ce 0370     		strb	r3, [r0, #0]
 2118              		.loc 1 936 0
 2119 03d0 00F08180 		beq	.L144
 2120              	.L177:
 2121 03d4 80F0AD80 		bcs	.L172
 2122              		.loc 1 938 0
 2123 03d8 4FF44062 		mov	r2, #3072
 2124 03dc C4F20202 		movt	r2, 16386
 2125 03e0 0821     		movs	r1, #8
 2126 03e2 5183     		strh	r1, [r2, #26]	@ movhi
 2127              	.L142:
 2128              		.loc 1 950 0
 2129 03e4 99F80020 		ldrb	r2, [r9, #0]	@ zero_extendqisi2
 2130 03e8 012A     		cmp	r2, #1
 2131 03ea 7ED0     		beq	.L149
 2132              	.L178:
 2133 03ec 80F0AC80 		bcs	.L173
 2134              		.loc 1 952 0
 2135 03f0 4FF44062 		mov	r2, #3072
 2136 03f4 C4F20202 		movt	r2, 16386
 2137 03f8 1021     		movs	r1, #16
 2138 03fa 5183     		strh	r1, [r2, #26]	@ movhi
 2139              	.L147:
 2140              		.loc 1 972 0
 2141 03fc 002B     		cmp	r3, #0
 2142 03fe 7CD1     		bne	.L152
 2143              	.L153:
 2144              		.loc 1 973 0
 2145 0400 4FF40063 		mov	r3, #2048
 2146 0404 C4F20203 		movt	r3, 16386
 2147 0408 4FF40052 		mov	r2, #8192
 2148 040c 5A83     		strh	r2, [r3, #26]	@ movhi
 2149              	.L154:
 2150              	.LBE128:
 2151              	.LBE133:
 2152              		.loc 1 678 0
 2153 040e 40F20001 		movw	r1, #:lower16:.LANCHOR23
 2154 0412 C0F20001 		movt	r1, #:upper16:.LANCHOR23
 2155 0416 6B4A     		ldr	r2, .L181+44
ARM GAS  /tmp/ccl85KI2.s 			page 39


 2156 0418 0B78     		ldrb	r3, [r1, #0]	@ zero_extendqisi2
 2157 041a 072B     		cmp	r3, #7
 2158 041c 7AD8     		bhi	.L174
 2159              	.LBE123:
 2160              	.LBE122:
 2161              		.loc 1 844 0
 2162 041e 2068     		ldr	r0, [r4, #0]
 2163              	.LBB141:
 2164              	.LBB138:
 2165              		.loc 1 684 0
 2166 0420 0133     		adds	r3, r3, #1
 2167 0422 1370     		strb	r3, [r2, #0]
 2168              	.LBE138:
 2169              	.LBE141:
 2170              		.loc 1 844 0
 2171 0424 0028     		cmp	r0, #0
 2172 0426 7FF437AF 		bne	.L156
 2173              	.L168:
 2174              		.loc 1 844 0 is_stmt 0 discriminator 1
 2175 042a 40F20002 		movw	r2, #:lower16:SDU_PSAS
 2176 042e C0F20002 		movt	r2, #:upper16:SDU_PSAS
 2177 0432 D2F85432 		ldr	r3, [r2, #596]
 2178 0436 1B68     		ldr	r3, [r3, #0]
 2179 0438 1B78     		ldrb	r3, [r3, #0]	@ zero_extendqisi2
 2180 043a 042B     		cmp	r3, #4
 2181 043c 7FF42CAF 		bne	.L156
 2182              		.loc 1 845 0 is_stmt 1
 2183 0440 6148     		ldr	r0, .L181+48
 2184 0442 4FF40B61 		mov	r1, #2224
 2185 0446 4022     		movs	r2, #64
 2186 0448 FFF7FEFF 		bl	shellCreate
 2187              	.LVL203:
 2188 044c 5F4B     		ldr	r3, .L181+52
 2189 044e 1860     		str	r0, [r3, #0]
 2190 0450 27E7     		b	.L157
 2191              	.L129:
 2192              	.LBB142:
 2193              	.LBB139:
 2194              		.loc 1 654 0
 2195 0452 4FF44063 		mov	r3, #3072
 2196 0456 C4F20203 		movt	r3, 16386
 2197 045a 4FF48062 		mov	r2, #1024
 2198 045e 5A83     		strh	r2, [r3, #26]	@ movhi
 2199              		.loc 1 655 0
 2200 0460 4022     		movs	r2, #64
 2201 0462 5A83     		strh	r2, [r3, #26]	@ movhi
 2202 0464 40F20002 		movw	r2, #:lower16:.LANCHOR3
 2203 0468 C0F20002 		movt	r2, #:upper16:.LANCHOR3
 2204 046c 1378     		ldrb	r3, [r2, #0]	@ zero_extendqisi2
 2205              		.loc 1 661 0
 2206 046e 0122     		movs	r2, #1
 2207              		.loc 1 666 0
 2208 0470 022B     		cmp	r3, #2
 2209              		.loc 1 661 0
 2210 0472 88F80220 		strb	r2, [r8, #2]
 2211              		.loc 1 662 0
 2212 0476 BA70     		strb	r2, [r7, #2]
ARM GAS  /tmp/ccl85KI2.s 			page 40


 2213              		.loc 1 666 0
 2214 0478 7FF479AF 		bne	.L134
 2215              	.L132:
 2216 047c 40F20003 		movw	r3, #:lower16:.LANCHOR4
 2217 0480 C0F20003 		movt	r3, #:upper16:.LANCHOR4
 2218 0484 1978     		ldrb	r1, [r3, #0]	@ zero_extendqisi2
 2219              	.L131:
 2220              		.loc 1 667 0
 2221 0486 40F20000 		movw	r0, #:lower16:.LANCHOR18
 2222              	.LBB134:
 2223              	.LBB129:
 2224              		.loc 1 916 0
 2225 048a 98F80320 		ldrb	r2, [r8, #3]	@ zero_extendqisi2
 2226 048e 98F80430 		ldrb	r3, [r8, #4]	@ zero_extendqisi2
 2227              	.LBE129:
 2228              	.LBE134:
 2229              		.loc 1 667 0
 2230 0492 C0F20000 		movt	r0, #:upper16:.LANCHOR18
 2231              	.LBB135:
 2232              	.LBB130:
 2233              		.loc 1 916 0
 2234 0496 002B     		cmp	r3, #0
 2235 0498 08BF     		it	eq
 2236 049a 002A     		cmpeq	r2, #0
 2237              	.LBE130:
 2238              	.LBE135:
 2239              		.loc 1 667 0
 2240 049c 0170     		strb	r1, [r0, #0]
 2241              	.LBB136:
 2242              	.LBB131:
 2243              		.loc 1 916 0
 2244 049e 7FF474AF 		bne	.L175
 2245              	.L136:
 2246              		.loc 1 919 0
 2247 04a2 0223     		movs	r3, #2
 2248 04a4 8AF80030 		strb	r3, [sl, #0]
 2249              		.loc 1 921 0
 2250 04a8 FA78     		ldrb	r2, [r7, #3]	@ zero_extendqisi2
 2251 04aa 3B79     		ldrb	r3, [r7, #4]	@ zero_extendqisi2
 2252 04ac 002B     		cmp	r3, #0
 2253 04ae 08BF     		it	eq
 2254 04b0 002A     		cmpeq	r2, #0
 2255 04b2 7FF474AF 		bne	.L176
 2256              	.L138:
 2257              		.loc 1 924 0
 2258 04b6 0223     		movs	r3, #2
 2259 04b8 89F80030 		strb	r3, [r9, #0]
 2260 04bc 72E7     		b	.L139
 2261              	.L140:
 2262              		.loc 1 932 0
 2263 04be 591C     		adds	r1, r3, #1
 2264 04c0 40F20000 		movw	r0, #:lower16:.LANCHOR22
 2265 04c4 1160     		str	r1, [r2, #0]
 2266              		.loc 1 936 0
 2267 04c6 9AF80020 		ldrb	r2, [sl, #0]	@ zero_extendqisi2
 2268 04ca C0F20000 		movt	r0, #:upper16:.LANCHOR22
 2269 04ce 012A     		cmp	r2, #1
ARM GAS  /tmp/ccl85KI2.s 			page 41


 2270 04d0 0378     		ldrb	r3, [r0, #0]	@ zero_extendqisi2
 2271 04d2 7FF47FAF 		bne	.L177
 2272              	.L144:
 2273              		.loc 1 941 0
 2274 04d6 4FF44062 		mov	r2, #3072
 2275 04da C4F20202 		movt	r2, 16386
 2276 04de 0821     		movs	r1, #8
 2277 04e0 1183     		strh	r1, [r2, #24]	@ movhi
 2278              		.loc 1 950 0
 2279 04e2 99F80020 		ldrb	r2, [r9, #0]	@ zero_extendqisi2
 2280 04e6 012A     		cmp	r2, #1
 2281 04e8 80D1     		bne	.L178
 2282              	.L149:
 2283              		.loc 1 955 0
 2284 04ea 4FF44062 		mov	r2, #3072
 2285 04ee C4F20202 		movt	r2, 16386
 2286 04f2 1021     		movs	r1, #16
 2287 04f4 1183     		strh	r1, [r2, #24]	@ movhi
 2288              		.loc 1 972 0
 2289 04f6 002B     		cmp	r3, #0
 2290 04f8 82D0     		beq	.L153
 2291              	.L152:
 2292 04fa 4FF40063 		mov	r3, #2048
 2293 04fe C4F20203 		movt	r3, 16386
 2294 0502 4FF40052 		mov	r2, #8192
 2295 0506 1A83     		strh	r2, [r3, #24]	@ movhi
 2296 0508 81E7     		b	.L154
 2297              	.L169:
 2298              	.LBE131:
 2299              	.LBE136:
 2300              	.LBE139:
 2301              	.LBE142:
 2302              		.loc 1 847 0
 2303 050a FFF7FEFF 		bl	chThdRelease
 2304              	.LVL204:
 2305              		.loc 1 848 0
 2306 050e 0023     		movs	r3, #0
 2307 0510 2360     		str	r3, [r4, #0]
 2308 0512 C6E6     		b	.L157
 2309              	.L174:
 2310              	.LBB143:
 2311              	.LBB140:
 2312              		.loc 1 680 0
 2313 0514 4FF44063 		mov	r3, #3072
 2314 0518 C4F20203 		movt	r3, 16386
 2315              		.loc 1 679 0
 2316 051c 0021     		movs	r1, #0
 2317 051e 1170     		strb	r1, [r2, #0]
 2318              		.loc 1 680 0
 2319 0520 5A69     		ldr	r2, [r3, #20]
 2320 0522 82F40062 		eor	r2, r2, #2048
 2321 0526 5A61     		str	r2, [r3, #20]
 2322              		.loc 1 681 0
 2323 0528 5A69     		ldr	r2, [r3, #20]
 2324 052a 82F02002 		eor	r2, r2, #32
 2325 052e 5A61     		str	r2, [r3, #20]
 2326 0530 AEE6     		b	.L128
ARM GAS  /tmp/ccl85KI2.s 			page 42


 2327              	.L172:
 2328              	.LBB137:
 2329              	.LBB132:
 2330              		.loc 1 936 0
 2331 0532 022A     		cmp	r2, #2
 2332 0534 7FF456AF 		bne	.L142
 2333              		.loc 1 944 0
 2334 0538 4FF44062 		mov	r2, #3072
 2335 053c C4F20202 		movt	r2, 16386
 2336 0540 0821     		movs	r1, #8
 2337 0542 D3B1     		cbz	r3, .L146
 2338 0544 1183     		strh	r1, [r2, #24]	@ movhi
 2339 0546 4DE7     		b	.L142
 2340              	.L173:
 2341              		.loc 1 950 0
 2342 0548 022A     		cmp	r2, #2
 2343 054a 7FF457AF 		bne	.L147
 2344              		.loc 1 958 0
 2345 054e 6BB1     		cbz	r3, .L151
 2346 0550 4FF44063 		mov	r3, #3072
 2347 0554 C4F20203 		movt	r3, 16386
 2348 0558 1022     		movs	r2, #16
 2349 055a 1A83     		strh	r2, [r3, #24]	@ movhi
 2350              		.loc 1 972 0
 2351 055c 4FF40063 		mov	r3, #2048
 2352 0560 C4F20203 		movt	r3, 16386
 2353 0564 4FF40052 		mov	r2, #8192
 2354 0568 1A83     		strh	r2, [r3, #24]	@ movhi
 2355 056a 50E7     		b	.L154
 2356              	.L151:
 2357              		.loc 1 959 0
 2358 056c 4FF44063 		mov	r3, #3072
 2359 0570 C4F20203 		movt	r3, 16386
 2360 0574 1022     		movs	r2, #16
 2361 0576 5A83     		strh	r2, [r3, #26]	@ movhi
 2362 0578 42E7     		b	.L153
 2363              	.L146:
 2364              		.loc 1 945 0
 2365 057a 5183     		strh	r1, [r2, #26]	@ movhi
 2366 057c 32E7     		b	.L142
 2367              	.L171:
 2368              	.LBE132:
 2369              	.LBE137:
 2370              		.loc 1 640 0
 2371 057e 40F20000 		movw	r0, #:lower16:.LANCHOR18
 2372 0582 C0F20000 		movt	r0, #:upper16:.LANCHOR18
 2373 0586 0378     		ldrb	r3, [r0, #0]	@ zero_extendqisi2
 2374 0588 8B42     		cmp	r3, r1
 2375 058a 3FF47CAF 		beq	.L131
 2376              		.loc 1 641 0
 2377 058e 0123     		movs	r3, #1
 2378 0590 88F80230 		strb	r3, [r8, #2]
 2379              		.loc 1 642 0
 2380 0594 BB70     		strb	r3, [r7, #2]
 2381 0596 71E7     		b	.L132
 2382              	.L182:
 2383              		.align	2
ARM GAS  /tmp/ccl85KI2.s 			page 43


 2384              	.L181:
 2385 0598 00000000 		.word	.LANCHOR26
 2386 059c 00000000 		.word	ADCD3
 2387 05a0 00000000 		.word	.LANCHOR14
 2388 05a4 00000000 		.word	.LANCHOR7
 2389 05a8 00000000 		.word	ADCD1
 2390 05ac 00000000 		.word	.LANCHOR15
 2391 05b0 00000000 		.word	.LANCHOR10
 2392 05b4 00000000 		.word	ADCD2
 2393 05b8 00000000 		.word	.LANCHOR16
 2394 05bc 00000000 		.word	.LANCHOR9
 2395 05c0 00000000 		.word	.LANCHOR21
 2396 05c4 00000000 		.word	.LANCHOR23
 2397 05c8 00000000 		.word	.LANCHOR25
 2398 05cc 00000000 		.word	.LANCHOR24
 2399              	.LBE140:
 2400              	.LBE143:
 2401              		.cfi_endproc
 2402              	.LFE134:
 2403              		.size	main, .-main
 2404              		.section	.text.microsecondsToPWMTicks,"ax",%progbits
 2405              		.align	2
 2406              		.p2align 4,,15
 2407              		.global	microsecondsToPWMTicks
 2408              		.thumb
 2409              		.thumb_func
 2410              		.type	microsecondsToPWMTicks, %function
 2411              	microsecondsToPWMTicks:
 2412              	.LFB137:
 2413              		.loc 1 984 0
 2414              		.cfi_startproc
 2415              		@ args = 0, pretend = 0, frame = 0
 2416              		@ frame_needed = 0, uses_anonymous_args = 0
 2417              		@ link register save eliminated.
 2418              	.LVL205:
 2419              	.LBB144:
 2420              	.LBB145:
 2421              		.loc 1 1008 0
 2422 0000 40F20003 		movw	r3, #:lower16:pwmcfg
 2423 0004 C0F20003 		movt	r3, #:upper16:pwmcfg
 2424              	.LBE145:
 2425              	.LBE144:
 2426              		.loc 1 985 0
 2427 0008 4DF68362 		movw	r2, #56963
 2428 000c 1B68     		ldr	r3, [r3, #0]
 2429 000e C4F21B32 		movt	r2, 17179
 2430 0012 A2FB0312 		umull	r1, r2, r2, r3
 2431 0016 920C     		lsrs	r2, r2, #18
 2432              		.loc 1 987 0
 2433 0018 02FB00F0 		mul	r0, r2, r0
 2434              	.LVL206:
 2435 001c 7047     		bx	lr
 2436              		.cfi_endproc
 2437              	.LFE137:
 2438              		.size	microsecondsToPWMTicks, .-microsecondsToPWMTicks
 2439 001e 00BF     		.section	.text.nanosecondsToPWMTicks,"ax",%progbits
 2440              		.align	2
ARM GAS  /tmp/ccl85KI2.s 			page 44


 2441              		.p2align 4,,15
 2442              		.global	nanosecondsToPWMTicks
 2443              		.thumb
 2444              		.thumb_func
 2445              		.type	nanosecondsToPWMTicks, %function
 2446              	nanosecondsToPWMTicks:
 2447              	.LFB138:
 2448              		.loc 1 995 0
 2449              		.cfi_startproc
 2450              		@ args = 0, pretend = 0, frame = 0
 2451              		@ frame_needed = 0, uses_anonymous_args = 0
 2452              		@ link register save eliminated.
 2453              	.LVL207:
 2454              	.LBB146:
 2455              	.LBB147:
 2456              		.loc 1 1008 0
 2457 0000 40F20003 		movw	r3, #:lower16:pwmcfg
 2458 0004 C0F20003 		movt	r3, #:upper16:pwmcfg
 2459              	.LBE147:
 2460              	.LBE146:
 2461              		.loc 1 997 0
 2462 0008 44F68332 		movw	r2, #19331
 2463 000c 1B68     		ldr	r3, [r3, #0]
 2464 000e 03FB00F0 		mul	r0, r3, r0
 2465              	.LVL208:
 2466 0012 430A     		lsrs	r3, r0, #9
 2467 0014 C0F20402 		movt	r2, 4
 2468 0018 A2FB0310 		umull	r1, r0, r2, r3
 2469              		.loc 1 999 0
 2470 001c C009     		lsrs	r0, r0, #7
 2471 001e 7047     		bx	lr
 2472              		.cfi_endproc
 2473              	.LFE138:
 2474              		.size	nanosecondsToPWMTicks, .-nanosecondsToPWMTicks
 2475              		.section	.text.pwmGetPclk,"ax",%progbits
 2476              		.align	2
 2477              		.p2align 4,,15
 2478              		.global	pwmGetPclk
 2479              		.thumb
 2480              		.thumb_func
 2481              		.type	pwmGetPclk, %function
 2482              	pwmGetPclk:
 2483              	.LFB139:
 2484              		.loc 1 1006 0
 2485              		.cfi_startproc
 2486              		@ args = 0, pretend = 0, frame = 0
 2487              		@ frame_needed = 0, uses_anonymous_args = 0
 2488              		@ link register save eliminated.
 2489              		.loc 1 1008 0
 2490 0000 40F20003 		movw	r3, #:lower16:pwmcfg
 2491 0004 C0F20003 		movt	r3, #:upper16:pwmcfg
 2492              		.loc 1 1009 0
 2493 0008 1868     		ldr	r0, [r3, #0]
 2494 000a 7047     		bx	lr
 2495              		.cfi_endproc
 2496              	.LFE139:
 2497              		.size	pwmGetPclk, .-pwmGetPclk
ARM GAS  /tmp/ccl85KI2.s 			page 45


 2498              		.global	latAxisStruct
 2499              		.global	vertAxisStruct
 2500              		.global	u32Temp
 2501              		.global	U8ShellMode
 2502              		.global	U8ShellEnable
 2503              		.global	U8PrevPosnVelModeSwitchState
 2504              		.global	U8EnableDriveSwitch
 2505 000c AFF30080 		.section	.rodata.gpt1cfg,"a",%progbits
 2506              		.align	2
 2507              		.set	.LANCHOR11,. + 0
 2508              		.type	gpt1cfg, %object
 2509              		.size	gpt1cfg, 8
 2510              	gpt1cfg:
 2511 0000 40420F00 		.word	1000000
 2512 0004 00000000 		.word	0
 2513              		.section	.bss.shelltp.8822,"aw",%nobits
 2514              		.align	2
 2515              		.set	.LANCHOR24,. + 0
 2516              		.type	shelltp.8822, %object
 2517              		.size	shelltp.8822, 4
 2518              	shelltp.8822:
 2519 0000 00000000 		.space	4
 2520              		.section	.rodata.adcgrp1cfg4,"a",%progbits
 2521              		.align	2
 2522              		.set	.LANCHOR16,. + 0
 2523              		.type	adcgrp1cfg4, %object
 2524              		.size	adcgrp1cfg4, 40
 2525              	adcgrp1cfg4:
 2526 0000 00       		.byte	0
 2527 0001 00       		.space	1
 2528 0002 0100     		.short	1
 2529 0004 00000000 		.word	adccb2
 2530 0008 00000000 		.word	0
 2531 000c 00000000 		.word	0
 2532 0010 00000040 		.word	1073741824
 2533 0014 00000000 		.word	0
 2534 0018 00300000 		.word	12288
 2535 001c 00000000 		.word	0
 2536 0020 00000000 		.word	0
 2537 0024 04000000 		.word	4
 2538              		.section	.rodata.adcgrp1cfg5,"a",%progbits
 2539              		.align	2
 2540              		.set	.LANCHOR15,. + 0
 2541              		.type	adcgrp1cfg5, %object
 2542              		.size	adcgrp1cfg5, 40
 2543              	adcgrp1cfg5:
 2544 0000 00       		.byte	0
 2545 0001 00       		.space	1
 2546 0002 0100     		.short	1
 2547 0004 00000000 		.word	adccb1
 2548 0008 00000000 		.word	0
 2549 000c 00000000 		.word	0
 2550 0010 00000040 		.word	1073741824
 2551 0014 00000000 		.word	0
 2552 0018 00800100 		.word	98304
 2553 001c 00000000 		.word	0
 2554 0020 00000000 		.word	0
ARM GAS  /tmp/ccl85KI2.s 			page 46


 2555 0024 05000000 		.word	5
 2556              		.section	.bss.u8WatchDogCycleCount,"aw",%nobits
 2557              		.set	.LANCHOR23,. + 0
 2558              		.type	u8WatchDogCycleCount, %object
 2559              		.size	u8WatchDogCycleCount, 1
 2560              	u8WatchDogCycleCount:
 2561 0000 00       		.space	1
 2562              		.section	.bss.vertFeedbackSample,"aw",%nobits
 2563              		.align	2
 2564              		.set	.LANCHOR10,. + 0
 2565              		.type	vertFeedbackSample, %object
 2566              		.size	vertFeedbackSample, 2
 2567              	vertFeedbackSample:
 2568 0000 0000     		.space	2
 2569 0002 0000     		.section	.bss.wkup_event,"aw",%nobits
 2570              		.align	2
 2571              		.set	.LANCHOR1,. + 0
 2572              		.type	wkup_event, %object
 2573              		.size	wkup_event, 4
 2574              	wkup_event:
 2575 0000 00000000 		.space	4
 2576              		.section	.bss.InputSamples,"aw",%nobits
 2577              		.align	2
 2578              		.set	.LANCHOR7,. + 0
 2579              		.type	InputSamples, %object
 2580              		.size	InputSamples, 4
 2581              	InputSamples:
 2582 0000 00000000 		.space	4
 2583              		.section	.bss.U32DelayCount,"aw",%nobits
 2584              		.align	2
 2585              		.set	.LANCHOR13,. + 0
 2586              		.type	U32DelayCount, %object
 2587              		.size	U32DelayCount, 4
 2588              	U32DelayCount:
 2589 0000 00000000 		.space	4
 2590              		.section	.bss.u32Temp,"aw",%nobits
 2591              		.align	2
 2592              		.set	.LANCHOR5,. + 0
 2593              		.type	u32Temp, %object
 2594              		.size	u32Temp, 4
 2595              	u32Temp:
 2596 0000 00000000 		.space	4
 2597              		.section	.bss.U8PrevPosnVelModeSwitchState,"aw",%nobits
 2598              		.set	.LANCHOR18,. + 0
 2599              		.type	U8PrevPosnVelModeSwitchState, %object
 2600              		.size	U8PrevPosnVelModeSwitchState, 1
 2601              	U8PrevPosnVelModeSwitchState:
 2602 0000 00       		.space	1
 2603              		.section	.bss.U8ShellEnable,"aw",%nobits
 2604              		.set	.LANCHOR0,. + 0
 2605              		.type	U8ShellEnable, %object
 2606              		.size	U8ShellEnable, 1
 2607              	U8ShellEnable:
 2608 0000 00       		.space	1
 2609              		.section	.rodata.extcfg,"a",%progbits
 2610              		.align	2
 2611              		.set	.LANCHOR12,. + 0
ARM GAS  /tmp/ccl85KI2.s 			page 47


 2612              		.type	extcfg, %object
 2613              		.size	extcfg, 184
 2614              	extcfg:
 2615 0000 05000000 		.word	5
 2616 0004 00000000 		.word	extcb1
 2617 0008 00000000 		.word	0
 2618 000c 00000000 		.word	0
 2619 0010 00000000 		.word	0
 2620 0014 00000000 		.word	0
 2621 0018 00000000 		.word	0
 2622 001c 00000000 		.word	0
 2623 0020 00000000 		.word	0
 2624 0024 00000000 		.word	0
 2625 0028 00000000 		.word	0
 2626 002c 00000000 		.word	0
 2627 0030 00000000 		.word	0
 2628 0034 00000000 		.word	0
 2629 0038 00000000 		.word	0
 2630 003c 00000000 		.word	0
 2631 0040 00000000 		.word	0
 2632 0044 00000000 		.word	0
 2633 0048 00000000 		.word	0
 2634 004c 00000000 		.word	0
 2635 0050 00000000 		.word	0
 2636 0054 00000000 		.word	0
 2637 0058 00000000 		.word	0
 2638 005c 00000000 		.word	0
 2639 0060 00000000 		.word	0
 2640 0064 00000000 		.word	0
 2641 0068 00000000 		.word	0
 2642 006c 00000000 		.word	0
 2643 0070 00000000 		.word	0
 2644 0074 00000000 		.word	0
 2645 0078 00000000 		.word	0
 2646 007c 00000000 		.word	0
 2647 0080 00000000 		.word	0
 2648 0084 00000000 		.word	0
 2649 0088 00000000 		.word	0
 2650 008c 00000000 		.word	0
 2651 0090 00000000 		.word	0
 2652 0094 00000000 		.word	0
 2653 0098 00000000 		.word	0
 2654 009c 00000000 		.word	0
 2655 00a0 00000000 		.word	0
 2656 00a4 00000000 		.word	0
 2657 00a8 00000000 		.word	0
 2658 00ac 00000000 		.word	0
 2659 00b0 00000000 		.word	0
 2660 00b4 00000000 		.word	0
 2661              		.section	.data.U8ShellMode,"aw",%progbits
 2662              		.set	.LANCHOR3,. + 0
 2663              		.type	U8ShellMode, %object
 2664              		.size	U8ShellMode, 1
 2665              	U8ShellMode:
 2666 0000 02       		.byte	2
 2667              		.section	.bss.U8PosnVelModeSwitch,"aw",%nobits
 2668              		.set	.LANCHOR4,. + 0
ARM GAS  /tmp/ccl85KI2.s 			page 48


 2669              		.type	U8PosnVelModeSwitch, %object
 2670              		.size	U8PosnVelModeSwitch, 1
 2671              	U8PosnVelModeSwitch:
 2672 0000 00       		.space	1
 2673              		.section	.rodata.str1.4,"aMS",%progbits,1
 2674              		.align	2
 2675              	.LC0:
 2676 0000 55736167 		.ascii	"Usage: stop\015\012\000"
 2676      653A2073 
 2676      746F700D 
 2676      0A00
 2677 000e 0000     		.space	2
 2678              	.LC1:
 2679 0010 53797374 		.ascii	"System Disabled. Type 'enable' to resume. \015\012\000"
 2679      656D2044 
 2679      69736162 
 2679      6C65642E 
 2679      20547970 
 2680 003d 000000   		.space	3
 2681              	.LC2:
 2682 0040 574B5550 		.ascii	"WKUP btn. eventid: %d\015\012\000"
 2682      2062746E 
 2682      2E206576 
 2682      656E7469 
 2682      643A2025 
 2683              	.LC3:
 2684 0058 53544D33 		.ascii	"STM32_TIMCLK1 is: %d\015\012\000"
 2684      325F5449 
 2684      4D434C4B 
 2684      31206973 
 2684      3A202564 
 2685 006f 00       		.space	1
 2686              	.LC4:
 2687 0070 55736167 		.ascii	"Usage: Unfreeze\015\012\000"
 2687      653A2055 
 2687      6E667265 
 2687      657A650D 
 2687      0A00
 2688 0082 0000     		.space	2
 2689              	.LC5:
 2690 0084 56657274 		.ascii	"Vertical Axis \000"
 2690      6963616C 
 2690      20417869 
 2690      732000
 2691 0093 00       		.space	1
 2692              	.LC6:
 2693 0094 4C617465 		.ascii	"Lateral Axis \000"
 2693      72616C20 
 2693      41786973 
 2693      2000
 2694 00a2 0000     		.space	2
 2695              	.LC7:
 2696 00a4 426F7468 		.ascii	"Both Axes \000"
 2696      20417865 
 2696      732000
 2697 00af 00       		.space	1
 2698              	.LC8:
ARM GAS  /tmp/ccl85KI2.s 			page 49


 2699 00b0 556E6672 		.ascii	"Unfrozen.\015\012\000"
 2699      6F7A656E 
 2699      2E0D0A00 
 2700              	.LC9:
 2701 00bc 4D6F6465 		.ascii	"Mode : Position\015\012\000"
 2701      203A2050 
 2701      6F736974 
 2701      696F6E0D 
 2701      0A00
 2702 00ce 0000     		.space	2
 2703              	.LC10:
 2704 00d0 4D6F6465 		.ascii	"Mode : Velocity\015\012\000"
 2704      203A2056 
 2704      656C6F63 
 2704      6974790D 
 2704      0A00
 2705 00e2 0000     		.space	2
 2706              	.LC11:
 2707 00e4 55736167 		.ascii	"Usage: Freeze\015\012\000"
 2707      653A2046 
 2707      7265657A 
 2707      650D0A00 
 2708              	.LC12:
 2709 00f4 46726F7A 		.ascii	"Frozen.\015\012\000"
 2709      656E2E0D 
 2709      0A00
 2710 00fe 0000     		.space	2
 2711              	.LC13:
 2712 0100 09536865 		.ascii	"\011Shell Override \000"
 2712      6C6C204F 
 2712      76657272 
 2712      69646520 
 2712      00
 2713 0111 000000   		.space	3
 2714              	.LC14:
 2715 0114 55736167 		.ascii	"Usage: Enable\015\012\000"
 2715      653A2045 
 2715      6E61626C 
 2715      650D0A00 
 2716              	.LC15:
 2717 0124 53797374 		.ascii	"System Enabled.\015\012\000"
 2717      656D2045 
 2717      6E61626C 
 2717      65642E0D 
 2717      0A00
 2718 0136 0000     		.space	2
 2719              	.LC16:
 2720 0138 50204761 		.ascii	"P Gain : %d \015\012\000"
 2720      696E203A 
 2720      20256420 
 2720      0D0A00
 2721 0147 00       		.space	1
 2722              	.LC17:
 2723 0148 49204761 		.ascii	"I Gain : %d \015\012\000"
 2723      696E203A 
 2723      20256420 
 2723      0D0A00
ARM GAS  /tmp/ccl85KI2.s 			page 50


 2724 0157 00       		.space	1
 2725              	.LC18:
 2726 0158 44204761 		.ascii	"D Gain : %d \015\012\000"
 2726      696E203A 
 2726      20256420 
 2726      0D0A00
 2727 0167 00       		.space	1
 2728              	.LC19:
 2729 0168 0A095020 		.ascii	"\012\011P Gain : %d \015\012\000"
 2729      4761696E 
 2729      203A2025 
 2729      64200D0A 
 2729      00
 2730 0179 000000   		.space	3
 2731              	.LC20:
 2732 017c 09492047 		.ascii	"\011I Gain : %d \015\012\000"
 2732      61696E20 
 2732      3A202564 
 2732      200D0A00 
 2733              	.LC21:
 2734 018c 09442047 		.ascii	"\011D Gain : %d \015\012\000"
 2734      61696E20 
 2734      3A202564 
 2734      200D0A00 
 2735              	.LC22:
 2736 019c 55736167 		.ascii	"Usage: mem\015\012\000"
 2736      653A206D 
 2736      656D0D0A 
 2736      00
 2737 01a9 000000   		.space	3
 2738              	.LC23:
 2739 01ac 636F7265 		.ascii	"core free memory : %u bytes\015\012\000"
 2739      20667265 
 2739      65206D65 
 2739      6D6F7279 
 2739      203A2025 
 2740 01ca 0000     		.space	2
 2741              	.LC24:
 2742 01cc 68656170 		.ascii	"heap fragments   : %u\015\012\000"
 2742      20667261 
 2742      676D656E 
 2742      74732020 
 2742      203A2025 
 2743              	.LC25:
 2744 01e4 68656170 		.ascii	"heap free total  : %u bytes\015\012\000"
 2744      20667265 
 2744      6520746F 
 2744      74616C20 
 2744      203A2025 
 2745 0202 0000     		.space	2
 2746              	.LC26:
 2747 0204 20506F73 		.ascii	" PositionActual : %d counts \000"
 2747      6974696F 
 2747      6E416374 
 2747      75616C20 
 2747      3A202564 
 2748 0221 000000   		.space	3
ARM GAS  /tmp/ccl85KI2.s 			page 51


 2749              	.LC27:
 2750 0224 44657369 		.ascii	"Desired : %d counts\015\012\000"
 2750      72656420 
 2750      3A202564 
 2750      20636F75 
 2750      6E74730D 
 2751 023a 0000     		.space	2
 2752              	.LC28:
 2753 023c 56656C6F 		.ascii	"VelocityDesired : %d counts\015\012\000"
 2753      63697479 
 2753      44657369 
 2753      72656420 
 2753      3A202564 
 2754 025a 0000     		.space	2
 2755              	.LC29:
 2756 025c 2020506F 		.ascii	"  PositionError : %d counts\015\012\000"
 2756      73697469 
 2756      6F6E4572 
 2756      726F7220 
 2756      3A202564 
 2757 027a 0000     		.space	2
 2758              	.LC30:
 2759 027c 20202020 		.ascii	"    Interlocked : %d\015\012\000"
 2759      496E7465 
 2759      726C6F63 
 2759      6B656420 
 2759      3A202564 
 2760 0293 00       		.space	1
 2761              	.LC31:
 2762 0294 20202020 		.ascii	"    Pos Neutral : %d\015\012\000"
 2762      506F7320 
 2762      4E657574 
 2762      72616C20 
 2762      3A202564 
 2763 02ab 00       		.space	1
 2764              	.LC32:
 2765 02ac 20202020 		.ascii	"    Vel Neutral : %d\015\012\012\000"
 2765      56656C20 
 2765      4E657574 
 2765      72616C20 
 2765      3A202564 
 2766              	.LC33:
 2767 02c4 56657274 		.ascii	"Vertical Axis : \015\012\000"
 2767      6963616C 
 2767      20417869 
 2767      73203A20 
 2767      0D0A00
 2768 02d7 00       		.space	1
 2769              	.LC34:
 2770 02d8 4C617465 		.ascii	"Lateral Axis : \015\012\000"
 2770      72616C20 
 2770      41786973 
 2770      203A200D 
 2770      0A00
 2771 02ea 0000     		.space	2
 2772              	.LC35:
 2773 02ec 6D656D00 		.ascii	"mem\000"
ARM GAS  /tmp/ccl85KI2.s 			page 52


 2774              	.LC36:
 2775 02f0 64617461 		.ascii	"data\000"
 2775      00
 2776 02f5 000000   		.space	3
 2777              	.LC37:
 2778 02f8 73746F70 		.ascii	"stop\000"
 2778      00
 2779 02fd 000000   		.space	3
 2780              	.LC38:
 2781 0300 64697361 		.ascii	"disable\000"
 2781      626C6500 
 2782              	.LC39:
 2783 0308 656E6162 		.ascii	"enable\000"
 2783      6C6500
 2784 030f 00       		.space	1
 2785              	.LC40:
 2786 0310 6D6F6465 		.ascii	"mode\000"
 2786      00
 2787 0315 000000   		.space	3
 2788              	.LC41:
 2789 0318 6761696E 		.ascii	"gain\000"
 2789      00
 2790 031d 000000   		.space	3
 2791              	.LC42:
 2792 0320 66726565 		.ascii	"freeze\000"
 2792      7A6500
 2793 0327 00       		.space	1
 2794              	.LC43:
 2795 0328 756E6672 		.ascii	"unfreeze\000"
 2795      65657A65 
 2795      00
 2796 0331 000000   		.section	.bss.U8LedState,"aw",%nobits
 2797              		.set	.LANCHOR22,. + 0
 2798              		.type	U8LedState, %object
 2799              		.size	U8LedState, 1
 2800              	U8LedState:
 2801 0000 00       		.space	1
 2802              		.section	.rodata.commands,"a",%progbits
 2803              		.align	2
 2804              		.type	commands, %object
 2805              		.size	commands, 80
 2806              	commands:
 2807 0000 EC020000 		.word	.LC35
 2808 0004 00000000 		.word	cmd_mem
 2809 0008 F0020000 		.word	.LC36
 2810 000c 00000000 		.word	cmd_data
 2811 0010 F8020000 		.word	.LC37
 2812 0014 00000000 		.word	cmd_stop
 2813 0018 00030000 		.word	.LC38
 2814 001c 00000000 		.word	cmd_stop
 2815 0020 08030000 		.word	.LC39
 2816 0024 00000000 		.word	cmd_enable
 2817 0028 10030000 		.word	.LC40
 2818 002c 00000000 		.word	cmd_mode
 2819 0030 18030000 		.word	.LC41
 2820 0034 00000000 		.word	cmd_gain
 2821 0038 20030000 		.word	.LC42
ARM GAS  /tmp/ccl85KI2.s 			page 53


 2822 003c 00000000 		.word	cmd_freeze
 2823 0040 28030000 		.word	.LC43
 2824 0044 00000000 		.word	cmd_unfreeze
 2825 0048 00000000 		.word	0
 2826 004c 00000000 		.word	cmd_stop
 2827              		.section	.bss.latAxisStruct,"aw",%nobits
 2828              		.align	2
 2829              		.set	.LANCHOR6,. + 0
 2830              		.type	latAxisStruct, %object
 2831              		.size	latAxisStruct, 84
 2832              	latAxisStruct:
 2833 0000 00000000 		.space	84
 2833      00000000 
 2833      00000000 
 2833      00000000 
 2833      00000000 
 2834              		.section	.data.U8LatLedState,"aw",%progbits
 2835              		.set	.LANCHOR20,. + 0
 2836              		.type	U8LatLedState, %object
 2837              		.size	U8LatLedState, 1
 2838              	U8LatLedState:
 2839 0000 02       		.byte	2
 2840              		.section	.rodata.shell_cfg1,"a",%progbits
 2841              		.align	2
 2842              		.set	.LANCHOR25,. + 0
 2843              		.type	shell_cfg1, %object
 2844              		.size	shell_cfg1, 8
 2845              	shell_cfg1:
 2846 0000 00000000 		.word	SDU_PSAS
 2847 0004 00000000 		.word	commands
 2848              		.section	.bss.vertAxisStruct,"aw",%nobits
 2849              		.align	2
 2850              		.set	.LANCHOR8,. + 0
 2851              		.type	vertAxisStruct, %object
 2852              		.size	vertAxisStruct, 84
 2853              	vertAxisStruct:
 2854 0000 00000000 		.space	84
 2854      00000000 
 2854      00000000 
 2854      00000000 
 2854      00000000 
 2855              		.section	.rodata.adcgrp2cfg,"a",%progbits
 2856              		.align	2
 2857              		.set	.LANCHOR14,. + 0
 2858              		.type	adcgrp2cfg, %object
 2859              		.size	adcgrp2cfg, 40
 2860              	adcgrp2cfg:
 2861 0000 00       		.byte	0
 2862 0001 00       		.space	1
 2863 0002 0200     		.short	2
 2864 0004 00000000 		.word	adccb3
 2865 0008 00000000 		.word	0
 2866 000c 00000000 		.word	0
 2867 0010 00000040 		.word	1073741824
 2868 0014 00000000 		.word	0
 2869 0018 00D00200 		.word	184320
 2870 001c 00001000 		.word	1048576
ARM GAS  /tmp/ccl85KI2.s 			page 54


 2871 0020 00000000 		.word	0
 2872 0024 85000000 		.word	133
 2873              		.section	.bss.vt4.8742,"aw",%nobits
 2874              		.align	2
 2875              		.set	.LANCHOR2,. + 0
 2876              		.type	vt4.8742, %object
 2877              		.size	vt4.8742, 20
 2878              	vt4.8742:
 2879 0000 00000000 		.space	20
 2879      00000000 
 2879      00000000 
 2879      00000000 
 2879      00000000 
 2880              		.section	.data.U8VertLedState,"aw",%progbits
 2881              		.set	.LANCHOR19,. + 0
 2882              		.type	U8VertLedState, %object
 2883              		.size	U8VertLedState, 1
 2884              	U8VertLedState:
 2885 0000 02       		.byte	2
 2886              		.section	.bss.U8EnableDriveSwitch,"aw",%nobits
 2887              		.set	.LANCHOR17,. + 0
 2888              		.type	U8EnableDriveSwitch, %object
 2889              		.size	U8EnableDriveSwitch, 1
 2890              	U8EnableDriveSwitch:
 2891 0000 00       		.space	1
 2892              		.section	.bss.u32LedCount,"aw",%nobits
 2893              		.align	2
 2894              		.set	.LANCHOR21,. + 0
 2895              		.type	u32LedCount, %object
 2896              		.size	u32LedCount, 4
 2897              	u32LedCount:
 2898 0000 00000000 		.space	4
 2899              		.section	.bss.latFeedbackSample,"aw",%nobits
 2900              		.align	2
 2901              		.set	.LANCHOR9,. + 0
 2902              		.type	latFeedbackSample, %object
 2903              		.size	latFeedbackSample, 2
 2904              	latFeedbackSample:
 2905 0000 0000     		.space	2
 2906 0002 0000     		.section	.rodata.evhndl.8823,"a",%progbits
 2907              		.align	2
 2908              		.set	.LANCHOR26,. + 0
 2909              		.type	evhndl.8823, %object
 2910              		.size	evhndl.8823, 4
 2911              	evhndl.8823:
 2912 0000 00000000 		.word	WKUP_button_handler
 2913              		.text
 2914              	.Letext0:
 2915              		.file 2 "/opt/psas/x-tools/stm32f407/arm-psas-eabi/bin/../lib/gcc/arm-psas-eabi/4.7.2/include/stdd
 2916              		.file 3 "/opt/psas/x-tools/stm32f407/arm-psas-eabi/bin/../lib/gcc/arm-psas-eabi/4.7.2/../../../../
 2917              		.file 4 "../../ChibiOS/os/ports/GCC/ARMCMx/chtypes.h"
 2918              		.file 5 "../../ChibiOS/os/kernel/include/chlists.h"
 2919              		.file 6 "../../ChibiOS/os/kernel/include/chthreads.h"
 2920              		.file 7 "../../ChibiOS/os/ports/GCC/ARMCMx/chcore_v7m.h"
 2921              		.file 8 "../../ChibiOS/os/kernel/include/chvt.h"
 2922              		.file 9 "../../ChibiOS/os/kernel/include/chmtx.h"
 2923              		.file 10 "../../ChibiOS/os/kernel/include/chevents.h"
ARM GAS  /tmp/ccl85KI2.s 			page 55


 2924              		.file 11 "../../ChibiOS/os/kernel/include/chmemcore.h"
 2925              		.file 12 "../../ChibiOS/os/kernel/include/chheap.h"
 2926              		.file 13 "../../ChibiOS/os/kernel/include/chqueues.h"
 2927              		.file 14 "../../ChibiOS/os/kernel/include/chstreams.h"
 2928              		.file 15 "../../ChibiOS/os/hal/platforms/STM32F4xx/stm32f4xx.h"
 2929              		.file 16 "../../ChibiOS/os/hal/platforms/STM32/stm32.h"
 2930              		.file 17 "../../ChibiOS/os/hal/platforms/STM32F4xx/stm32_dma.h"
 2931              		.file 18 "../../ChibiOS/os/hal/platforms/STM32/GPIOv2/pal_lld.h"
 2932              		.file 19 "../../ChibiOS/os/hal/include/adc.h"
 2933              		.file 20 "../../ChibiOS/os/hal/platforms/STM32F4xx/adc_lld.h"
 2934              		.file 21 "../../ChibiOS/os/hal/include/ext.h"
 2935              		.file 22 "../../ChibiOS/os/hal/platforms/STM32/ext_lld.h"
 2936              		.file 23 "../../ChibiOS/os/hal/include/gpt.h"
 2937              		.file 24 "../../ChibiOS/os/hal/platforms/STM32/gpt_lld.h"
 2938              		.file 25 "../../ChibiOS/os/hal/include/pwm.h"
 2939              		.file 26 "../../ChibiOS/os/hal/platforms/STM32/pwm_lld.h"
 2940              		.file 27 "../../ChibiOS/os/hal/include/serial.h"
 2941              		.file 28 "../../ChibiOS/os/hal/platforms/STM32/USARTv1/serial_lld.h"
 2942              		.file 29 "../../ChibiOS/os/hal/include/usb.h"
 2943              		.file 30 "../../ChibiOS/os/hal/platforms/STM32/OTGv1/usb_lld.h"
 2944              		.file 31 "../../ChibiOS/os/hal/platforms/STM32/OTGv1/stm32_otg.h"
 2945              		.file 32 "../../ChibiOS/os/hal/include/serial_usb.h"
 2946              		.file 33 "../../ChibiOS/os/various/shell.h"
 2947              		.file 34 "control.h"
 2948              		.file 35 "../../ChibiOS/os/ports/common/ARMCMx/CMSIS/include/core_cm4.h"
 2949              		.file 36 "../common/usbdetail.h"
 2950              		.file 37 "pwmdetail.h"
 2951              		.file 38 "../../ChibiOS/os/various/chprintf.h"
 2952              		.file 39 "../../ChibiOS/os/kernel/include/chdebug.h"
 2953              		.file 40 "/opt/psas/x-tools/stm32f407/arm-psas-eabi/bin/../lib/gcc/arm-psas-eabi/4.7.2/../../../..
 2954              		.file 41 "../../ChibiOS/os/hal/include/hal.h"
 2955              		.file 42 "../../ChibiOS/os/kernel/include/chsys.h"
 2956              		.file 43 "../../ChibiOS/os/kernel/include/chdynamic.h"