ARM GAS  /tmp/ccS5mI5w.s 			page 1


   1              		.syntax unified
   2              		.cpu cortex-m4
   3              		.eabi_attribute 27, 3
   4              		.eabi_attribute 28, 1
   5              		.fpu fpv4-sp-d16
   6              		.eabi_attribute 20, 1
   7              		.eabi_attribute 21, 1
   8              		.eabi_attribute 23, 3
   9              		.eabi_attribute 24, 1
  10              		.eabi_attribute 25, 1
  11              		.eabi_attribute 26, 1
  12              		.eabi_attribute 30, 2
  13              		.eabi_attribute 34, 1
  14              		.eabi_attribute 18, 4
  15              		.thumb
  16              		.file	"pwm.c"
  17              		.text
  18              	.Ltext0:
  19              		.cfi_sections	.debug_frame
  20              		.section	.text.pwmInit,"ax",%progbits
  21              		.align	2
  22              		.p2align 4,,15
  23              		.global	pwmInit
  24              		.thumb
  25              		.thumb_func
  26              		.type	pwmInit, %function
  27              	pwmInit:
  28              	.LFB118:
  29              		.file 1 "../../ChibiOS/os/hal/src/pwm.c"
  30              		.loc 1 61 0
  31              		.cfi_startproc
  32              		@ args = 0, pretend = 0, frame = 0
  33              		@ frame_needed = 0, uses_anonymous_args = 0
  34              		@ link register save eliminated.
  35              		.loc 1 64 0
  36              		.loc 1 63 0
  37 0000 FFF7FEBF 		b	pwm_lld_init
  38              	.LVL0:
  39              		.cfi_endproc
  40              	.LFE118:
  41              		.size	pwmInit, .-pwmInit
  42 0004 AFF30080 		.section	.text.pwmObjectInit,"ax",%progbits
  42      AFF30080 
  42      AFF30080 
  43              		.align	2
  44              		.p2align 4,,15
  45              		.global	pwmObjectInit
  46              		.thumb
  47              		.thumb_func
  48              		.type	pwmObjectInit, %function
  49              	pwmObjectInit:
  50              	.LFB119:
  51              		.loc 1 73 0
  52              		.cfi_startproc
  53              		@ args = 0, pretend = 0, frame = 0
  54              		@ frame_needed = 0, uses_anonymous_args = 0
  55              		@ link register save eliminated.
ARM GAS  /tmp/ccS5mI5w.s 			page 2


  56              	.LVL1:
  57              		.loc 1 75 0
  58 0000 0123     		movs	r3, #1
  59 0002 0370     		strb	r3, [r0, #0]
  60              		.loc 1 76 0
  61 0004 0023     		movs	r3, #0
  62 0006 4360     		str	r3, [r0, #4]
  63 0008 7047     		bx	lr
  64              		.cfi_endproc
  65              	.LFE119:
  66              		.size	pwmObjectInit, .-pwmObjectInit
  67 000a 00BFAFF3 		.section	.text.pwmStart,"ax",%progbits
  67      0080
  68              		.align	2
  69              		.p2align 4,,15
  70              		.global	pwmStart
  71              		.thumb
  72              		.thumb_func
  73              		.type	pwmStart, %function
  74              	pwmStart:
  75              	.LFB120:
  76              		.loc 1 92 0
  77              		.cfi_startproc
  78              		@ args = 0, pretend = 0, frame = 0
  79              		@ frame_needed = 0, uses_anonymous_args = 0
  80              	.LVL2:
  81              		.loc 1 94 0
  82 0000 0028     		cmp	r0, #0
  83 0002 18BF     		it	ne
  84 0004 0029     		cmpne	r1, #0
  85              		.loc 1 92 0
  86 0006 38B5     		push	{r3, r4, r5, lr}
  87              	.LCFI0:
  88              		.cfi_def_cfa_offset 16
  89              		.cfi_offset 3, -16
  90              		.cfi_offset 4, -12
  91              		.cfi_offset 5, -8
  92              		.cfi_offset 14, -4
  93              		.loc 1 94 0
  94 0008 0D46     		mov	r5, r1
  95 000a 0446     		mov	r4, r0
  96 000c 19D0     		beq	.L10
  97              	.LVL3:
  98              	.L4:
  99              	.LBB2:
 100              		.loc 1 96 0
 101 000e 2023     		movs	r3, #32
 102              	.LVL4:
 103              	@ 96 "../../ChibiOS/os/hal/src/pwm.c" 1
 104 0010 83F31188 		msr     BASEPRI, r3
 105              	@ 0 "" 2
 106              	.LVL5:
 107              		.thumb
 108              	.LBE2:
 109 0014 FFF7FEFF 		bl	dbg_check_lock
 110              	.LVL6:
 111              		.loc 1 97 0
ARM GAS  /tmp/ccS5mI5w.s 			page 3


 112 0018 2378     		ldrb	r3, [r4, #0]	@ zero_extendqisi2
 113 001a 013B     		subs	r3, r3, #1
 114 001c 012B     		cmp	r3, #1
 115 001e 02D9     		bls	.L5
 116              		.loc 1 97 0 is_stmt 0 discriminator 1
 117 0020 0A48     		ldr	r0, .L11
 118 0022 FFF7FEFF 		bl	chDbgPanic
 119              	.LVL7:
 120              	.L5:
 121              		.loc 1 100 0 is_stmt 1
 122 0026 AB88     		ldrh	r3, [r5, #4]
 123              		.loc 1 99 0
 124 0028 6560     		str	r5, [r4, #4]
 125              		.loc 1 101 0
 126 002a 2046     		mov	r0, r4
 127              		.loc 1 100 0
 128 002c 2381     		strh	r3, [r4, #8]	@ movhi
 129              		.loc 1 101 0
 130 002e FFF7FEFF 		bl	pwm_lld_start
 131              	.LVL8:
 132              		.loc 1 102 0
 133 0032 0223     		movs	r3, #2
 134 0034 2370     		strb	r3, [r4, #0]
 135              		.loc 1 103 0
 136 0036 FFF7FEFF 		bl	dbg_check_unlock
 137              	.LVL9:
 138              	.LBB3:
 139 003a 0023     		movs	r3, #0
 140              	.LVL10:
 141              	@ 103 "../../ChibiOS/os/hal/src/pwm.c" 1
 142 003c 83F31188 		msr     BASEPRI, r3
 143              	@ 0 "" 2
 144              	.LVL11:
 145              		.thumb
 146 0040 38BD     		pop	{r3, r4, r5, pc}
 147              	.LVL12:
 148              	.L10:
 149              	.LBE3:
 150              		.loc 1 94 0 discriminator 1
 151 0042 0348     		ldr	r0, .L11+4
 152              	.LVL13:
 153 0044 FFF7FEFF 		bl	chDbgPanic
 154              	.LVL14:
 155 0048 E1E7     		b	.L4
 156              	.L12:
 157 004a 00BF     		.align	2
 158              	.L11:
 159 004c 10000000 		.word	.LC1
 160 0050 00000000 		.word	.LC0
 161              		.cfi_endproc
 162              	.LFE120:
 163              		.size	pwmStart, .-pwmStart
 164 0054 AFF30080 		.section	.text.pwmStop,"ax",%progbits
 164      AFF30080 
 164      AFF30080 
 165              		.align	2
 166              		.p2align 4,,15
ARM GAS  /tmp/ccS5mI5w.s 			page 4


 167              		.global	pwmStop
 168              		.thumb
 169              		.thumb_func
 170              		.type	pwmStop, %function
 171              	pwmStop:
 172              	.LFB121:
 173              		.loc 1 113 0
 174              		.cfi_startproc
 175              		@ args = 0, pretend = 0, frame = 0
 176              		@ frame_needed = 0, uses_anonymous_args = 0
 177              	.LVL15:
 178 0000 10B5     		push	{r4, lr}
 179              	.LCFI1:
 180              		.cfi_def_cfa_offset 8
 181              		.cfi_offset 4, -8
 182              		.cfi_offset 14, -4
 183              		.loc 1 115 0
 184 0002 0446     		mov	r4, r0
 185 0004 B0B1     		cbz	r0, .L16
 186              	.LVL16:
 187              	.L14:
 188              	.LBB4:
 189              		.loc 1 117 0
 190 0006 2023     		movs	r3, #32
 191              	.LVL17:
 192              	@ 117 "../../ChibiOS/os/hal/src/pwm.c" 1
 193 0008 83F31188 		msr     BASEPRI, r3
 194              	@ 0 "" 2
 195              	.LVL18:
 196              		.thumb
 197              	.LBE4:
 198 000c FFF7FEFF 		bl	dbg_check_lock
 199              	.LVL19:
 200              		.loc 1 118 0
 201 0010 2378     		ldrb	r3, [r4, #0]	@ zero_extendqisi2
 202 0012 013B     		subs	r3, r3, #1
 203 0014 012B     		cmp	r3, #1
 204 0016 02D9     		bls	.L15
 205              		.loc 1 118 0 is_stmt 0 discriminator 1
 206 0018 0848     		ldr	r0, .L17
 207 001a FFF7FEFF 		bl	chDbgPanic
 208              	.LVL20:
 209              	.L15:
 210              		.loc 1 120 0 is_stmt 1
 211 001e 2046     		mov	r0, r4
 212 0020 FFF7FEFF 		bl	pwm_lld_stop
 213              	.LVL21:
 214              		.loc 1 121 0
 215 0024 0123     		movs	r3, #1
 216 0026 2370     		strb	r3, [r4, #0]
 217              		.loc 1 122 0
 218 0028 FFF7FEFF 		bl	dbg_check_unlock
 219              	.LVL22:
 220              	.LBB5:
 221 002c 0023     		movs	r3, #0
 222              	.LVL23:
 223              	@ 122 "../../ChibiOS/os/hal/src/pwm.c" 1
ARM GAS  /tmp/ccS5mI5w.s 			page 5


 224 002e 83F31188 		msr     BASEPRI, r3
 225              	@ 0 "" 2
 226              	.LVL24:
 227              		.thumb
 228 0032 10BD     		pop	{r4, pc}
 229              	.LVL25:
 230              	.L16:
 231              	.LBE5:
 232              		.loc 1 115 0 discriminator 1
 233 0034 0248     		ldr	r0, .L17+4
 234              	.LVL26:
 235 0036 FFF7FEFF 		bl	chDbgPanic
 236              	.LVL27:
 237 003a E4E7     		b	.L14
 238              	.L18:
 239              		.align	2
 240              	.L17:
 241 003c 2C000000 		.word	.LC3
 242 0040 20000000 		.word	.LC2
 243              		.cfi_endproc
 244              	.LFE121:
 245              		.size	pwmStop, .-pwmStop
 246 0044 AFF30080 		.section	.text.pwmChangePeriod,"ax",%progbits
 246      AFF30080 
 246      AFF30080 
 247              		.align	2
 248              		.p2align 4,,15
 249              		.global	pwmChangePeriod
 250              		.thumb
 251              		.thumb_func
 252              		.type	pwmChangePeriod, %function
 253              	pwmChangePeriod:
 254              	.LFB122:
 255              		.loc 1 140 0
 256              		.cfi_startproc
 257              		@ args = 0, pretend = 0, frame = 0
 258              		@ frame_needed = 0, uses_anonymous_args = 0
 259              	.LVL28:
 260 0000 38B5     		push	{r3, r4, r5, lr}
 261              	.LCFI2:
 262              		.cfi_def_cfa_offset 16
 263              		.cfi_offset 3, -16
 264              		.cfi_offset 4, -12
 265              		.cfi_offset 5, -8
 266              		.cfi_offset 14, -4
 267              		.loc 1 142 0
 268 0002 0446     		mov	r4, r0
 269              		.loc 1 140 0
 270 0004 0D46     		mov	r5, r1
 271              		.loc 1 142 0
 272 0006 A8B1     		cbz	r0, .L25
 273              	.LVL29:
 274              	.L20:
 275              	.LBB6:
 276              		.loc 1 144 0
 277 0008 2023     		movs	r3, #32
 278              	.LVL30:
ARM GAS  /tmp/ccS5mI5w.s 			page 6


 279              	@ 144 "../../ChibiOS/os/hal/src/pwm.c" 1
 280 000a 83F31188 		msr     BASEPRI, r3
 281              	@ 0 "" 2
 282              	.LVL31:
 283              		.thumb
 284              	.LBE6:
 285 000e FFF7FEFF 		bl	dbg_check_lock
 286              	.LVL32:
 287              		.loc 1 145 0
 288 0012 2378     		ldrb	r3, [r4, #0]	@ zero_extendqisi2
 289 0014 022B     		cmp	r3, #2
 290 0016 02D0     		beq	.L21
 291              		.loc 1 145 0 is_stmt 0 discriminator 1
 292 0018 0848     		ldr	r0, .L26
 293 001a FFF7FEFF 		bl	chDbgPanic
 294              	.LVL33:
 295              	.L21:
 296              		.loc 1 147 0 is_stmt 1
 297 001e 2369     		ldr	r3, [r4, #16]
 298 0020 2581     		strh	r5, [r4, #8]	@ movhi
 299 0022 013D     		subs	r5, r5, #1
 300 0024 ADB2     		uxth	r5, r5
 301 0026 DD62     		str	r5, [r3, #44]
 302              		.loc 1 148 0
 303 0028 FFF7FEFF 		bl	dbg_check_unlock
 304              	.LVL34:
 305              	.LBB7:
 306 002c 0023     		movs	r3, #0
 307              	.LVL35:
 308              	@ 148 "../../ChibiOS/os/hal/src/pwm.c" 1
 309 002e 83F31188 		msr     BASEPRI, r3
 310              	@ 0 "" 2
 311              	.LVL36:
 312              		.thumb
 313 0032 38BD     		pop	{r3, r4, r5, pc}
 314              	.LVL37:
 315              	.L25:
 316              	.LBE7:
 317              		.loc 1 142 0 discriminator 1
 318 0034 0248     		ldr	r0, .L26+4
 319              	.LVL38:
 320 0036 FFF7FEFF 		bl	chDbgPanic
 321              	.LVL39:
 322 003a E5E7     		b	.L20
 323              	.L27:
 324              		.align	2
 325              	.L26:
 326 003c 50000000 		.word	.LC5
 327 0040 3C000000 		.word	.LC4
 328              		.cfi_endproc
 329              	.LFE122:
 330              		.size	pwmChangePeriod, .-pwmChangePeriod
 331 0044 AFF30080 		.section	.text.pwmEnableChannel,"ax",%progbits
 331      AFF30080 
 331      AFF30080 
 332              		.align	2
 333              		.p2align 4,,15
ARM GAS  /tmp/ccS5mI5w.s 			page 7


 334              		.global	pwmEnableChannel
 335              		.thumb
 336              		.thumb_func
 337              		.type	pwmEnableChannel, %function
 338              	pwmEnableChannel:
 339              	.LFB123:
 340              		.loc 1 167 0
 341              		.cfi_startproc
 342              		@ args = 0, pretend = 0, frame = 0
 343              		@ frame_needed = 0, uses_anonymous_args = 0
 344              	.LVL40:
 345              		.loc 1 169 0
 346 0000 D0F10103 		rsbs	r3, r0, #1
 347 0004 38BF     		it	cc
 348 0006 0023     		movcc	r3, #0
 349 0008 0329     		cmp	r1, #3
 350 000a 88BF     		it	hi
 351 000c 43F00103 		orrhi	r3, r3, #1
 352              		.loc 1 167 0
 353 0010 70B5     		push	{r4, r5, r6, lr}
 354              	.LCFI3:
 355              		.cfi_def_cfa_offset 16
 356              		.cfi_offset 4, -16
 357              		.cfi_offset 5, -12
 358              		.cfi_offset 6, -8
 359              		.cfi_offset 14, -4
 360              		.loc 1 169 0
 361 0012 0446     		mov	r4, r0
 362              		.loc 1 167 0
 363 0014 0D46     		mov	r5, r1
 364 0016 1646     		mov	r6, r2
 365              		.loc 1 169 0
 366 0018 ABB9     		cbnz	r3, .L37
 367              	.LVL41:
 368              	.L29:
 369              	.LBB8:
 370              		.loc 1 172 0
 371 001a 2023     		movs	r3, #32
 372              	.LVL42:
 373              	@ 172 "../../ChibiOS/os/hal/src/pwm.c" 1
 374 001c 83F31188 		msr     BASEPRI, r3
 375              	@ 0 "" 2
 376              	.LVL43:
 377              		.thumb
 378              	.LBE8:
 379 0020 FFF7FEFF 		bl	dbg_check_lock
 380              	.LVL44:
 381              		.loc 1 173 0
 382 0024 2378     		ldrb	r3, [r4, #0]	@ zero_extendqisi2
 383 0026 022B     		cmp	r3, #2
 384 0028 02D0     		beq	.L30
 385              		.loc 1 173 0 is_stmt 0 discriminator 1
 386 002a 0948     		ldr	r0, .L38
 387 002c FFF7FEFF 		bl	chDbgPanic
 388              	.LVL45:
 389              	.L30:
 390              		.loc 1 175 0 is_stmt 1
ARM GAS  /tmp/ccS5mI5w.s 			page 8


 391 0030 2046     		mov	r0, r4
 392 0032 2946     		mov	r1, r5
 393 0034 3246     		mov	r2, r6
 394 0036 FFF7FEFF 		bl	pwm_lld_enable_channel
 395              	.LVL46:
 396              		.loc 1 176 0
 397 003a FFF7FEFF 		bl	dbg_check_unlock
 398              	.LVL47:
 399              	.LBB9:
 400 003e 0023     		movs	r3, #0
 401              	.LVL48:
 402              	@ 176 "../../ChibiOS/os/hal/src/pwm.c" 1
 403 0040 83F31188 		msr     BASEPRI, r3
 404              	@ 0 "" 2
 405              	.LVL49:
 406              		.thumb
 407 0044 70BD     		pop	{r4, r5, r6, pc}
 408              	.LVL50:
 409              	.L37:
 410              	.LBE9:
 411              		.loc 1 169 0 discriminator 1
 412 0046 0348     		ldr	r0, .L38+4
 413              	.LVL51:
 414 0048 FFF7FEFF 		bl	chDbgPanic
 415              	.LVL52:
 416 004c E5E7     		b	.L29
 417              	.L39:
 418 004e 00BF     		.align	2
 419              	.L38:
 420 0050 80000000 		.word	.LC7
 421 0054 68000000 		.word	.LC6
 422              		.cfi_endproc
 423              	.LFE123:
 424              		.size	pwmEnableChannel, .-pwmEnableChannel
 425 0058 AFF30080 		.section	.text.pwmDisableChannel,"ax",%progbits
 425      AFF30080 
 426              		.align	2
 427              		.p2align 4,,15
 428              		.global	pwmDisableChannel
 429              		.thumb
 430              		.thumb_func
 431              		.type	pwmDisableChannel, %function
 432              	pwmDisableChannel:
 433              	.LFB124:
 434              		.loc 1 193 0
 435              		.cfi_startproc
 436              		@ args = 0, pretend = 0, frame = 0
 437              		@ frame_needed = 0, uses_anonymous_args = 0
 438              	.LVL53:
 439 0000 38B5     		push	{r3, r4, r5, lr}
 440              	.LCFI4:
 441              		.cfi_def_cfa_offset 16
 442              		.cfi_offset 3, -16
 443              		.cfi_offset 4, -12
 444              		.cfi_offset 5, -8
 445              		.cfi_offset 14, -4
 446              		.loc 1 195 0
ARM GAS  /tmp/ccS5mI5w.s 			page 9


 447 0002 D0F10103 		rsbs	r3, r0, #1
 448 0006 38BF     		it	cc
 449 0008 0023     		movcc	r3, #0
 450 000a 0329     		cmp	r1, #3
 451 000c 88BF     		it	hi
 452 000e 43F00103 		orrhi	r3, r3, #1
 453 0012 0446     		mov	r4, r0
 454              		.loc 1 193 0
 455 0014 0D46     		mov	r5, r1
 456              		.loc 1 195 0
 457 0016 A3B9     		cbnz	r3, .L49
 458              	.LVL54:
 459              	.L41:
 460              	.LBB10:
 461              		.loc 1 198 0
 462 0018 2023     		movs	r3, #32
 463              	.LVL55:
 464              	@ 198 "../../ChibiOS/os/hal/src/pwm.c" 1
 465 001a 83F31188 		msr     BASEPRI, r3
 466              	@ 0 "" 2
 467              	.LVL56:
 468              		.thumb
 469              	.LBE10:
 470 001e FFF7FEFF 		bl	dbg_check_lock
 471              	.LVL57:
 472              		.loc 1 199 0
 473 0022 2378     		ldrb	r3, [r4, #0]	@ zero_extendqisi2
 474 0024 022B     		cmp	r3, #2
 475 0026 02D0     		beq	.L42
 476              		.loc 1 199 0 is_stmt 0 discriminator 1
 477 0028 0848     		ldr	r0, .L50
 478 002a FFF7FEFF 		bl	chDbgPanic
 479              	.LVL58:
 480              	.L42:
 481              		.loc 1 201 0 is_stmt 1
 482 002e 2046     		mov	r0, r4
 483 0030 2946     		mov	r1, r5
 484 0032 FFF7FEFF 		bl	pwm_lld_disable_channel
 485              	.LVL59:
 486              		.loc 1 202 0
 487 0036 FFF7FEFF 		bl	dbg_check_unlock
 488              	.LVL60:
 489              	.LBB11:
 490 003a 0023     		movs	r3, #0
 491              	.LVL61:
 492              	@ 202 "../../ChibiOS/os/hal/src/pwm.c" 1
 493 003c 83F31188 		msr     BASEPRI, r3
 494              	@ 0 "" 2
 495              	.LVL62:
 496              		.thumb
 497 0040 38BD     		pop	{r3, r4, r5, pc}
 498              	.LVL63:
 499              	.L49:
 500              	.LBE11:
 501              		.loc 1 195 0 discriminator 1
 502 0042 0348     		ldr	r0, .L50+4
 503              	.LVL64:
ARM GAS  /tmp/ccS5mI5w.s 			page 10


 504 0044 FFF7FEFF 		bl	chDbgPanic
 505              	.LVL65:
 506 0048 E6E7     		b	.L41
 507              	.L51:
 508 004a 00BF     		.align	2
 509              	.L50:
 510 004c 98000000 		.word	.LC8
 511 0050 68000000 		.word	.LC6
 512              		.cfi_endproc
 513              	.LFE124:
 514              		.size	pwmDisableChannel, .-pwmDisableChannel
 515 0054 AFF30080 		.section	.rodata.str1.4,"aMS",%progbits,1
 515      AFF30080 
 515      AFF30080 
 516              		.align	2
 517              	.LC0:
 518 0000 2270776D 		.ascii	"\"pwmStart\"()\000"
 518      53746172 
 518      74222829 
 518      00
 519 000d 000000   		.space	3
 520              	.LC1:
 521 0010 70776D53 		.ascii	"pwmStart(), #1\000"
 521      74617274 
 521      28292C20 
 521      233100
 522 001f 00       		.space	1
 523              	.LC2:
 524 0020 2270776D 		.ascii	"\"pwmStop\"()\000"
 524      53746F70 
 524      22282900 
 525              	.LC3:
 526 002c 70776D53 		.ascii	"pwmStop(), #1\000"
 526      746F7028 
 526      292C2023 
 526      3100
 527 003a 0000     		.space	2
 528              	.LC4:
 529 003c 2270776D 		.ascii	"\"pwmChangePeriod\"()\000"
 529      4368616E 
 529      67655065 
 529      72696F64 
 529      22282900 
 530              	.LC5:
 531 0050 70776D43 		.ascii	"pwmChangePeriod(), #1\000"
 531      68616E67 
 531      65506572 
 531      696F6428 
 531      292C2023 
 532 0066 0000     		.space	2
 533              	.LC6:
 534 0068 2270776D 		.ascii	"\"pwmEnableChannel\"()\000"
 534      456E6162 
 534      6C654368 
 534      616E6E65 
 534      6C222829 
 535 007d 000000   		.space	3
ARM GAS  /tmp/ccS5mI5w.s 			page 11


 536              	.LC7:
 537 0080 70776D45 		.ascii	"pwmEnableChannel(), #1\000"
 537      6E61626C 
 537      65436861 
 537      6E6E656C 
 537      28292C20 
 538 0097 00       		.space	1
 539              	.LC8:
 540 0098 70776D44 		.ascii	"pwmDisableChannel(), #1\000"
 540      69736162 
 540      6C654368 
 540      616E6E65 
 540      6C28292C 
 541              		.text
 542              	.Letext0:
 543              		.file 2 "/opt/psas/x-tools/stm32f407/arm-psas-eabi/bin/../lib/gcc/arm-psas-eabi/4.7.2/../../../../
 544              		.file 3 "../../ChibiOS/os/hal/platforms/STM32/stm32.h"
 545              		.file 4 "../../ChibiOS/os/hal/include/pwm.h"
 546              		.file 5 "../../ChibiOS/os/hal/platforms/STM32/pwm_lld.h"
 547              		.file 6 "../../ChibiOS/os/kernel/include/chdebug.h"
 548              		.file 7 "../../ChibiOS/os/ports/common/ARMCMx/CMSIS/include/core_cm4.h"