ARM GAS  /tmp/ccyQRAt1.s 			page 1


   1              		.syntax unified
   2              		.cpu cortex-m4
   3              		.eabi_attribute 27, 3
   4              		.eabi_attribute 28, 1
   5              		.fpu fpv4-sp-d16
   6              		.eabi_attribute 20, 1
   7              		.eabi_attribute 21, 1
   8              		.eabi_attribute 23, 3
   9              		.eabi_attribute 24, 1
  10              		.eabi_attribute 25, 1
  11              		.eabi_attribute 26, 1
  12              		.eabi_attribute 30, 2
  13              		.eabi_attribute 34, 1
  14              		.eabi_attribute 18, 4
  15              		.thumb
  16              		.file	"pwm_lld.c"
  17              		.text
  18              	.Ltext0:
  19              		.cfi_sections	.debug_frame
  20              		.section	.text.VectorB8,"ax",%progbits
  21              		.align	2
  22              		.p2align 4,,15
  23              		.global	VectorB8
  24              		.thumb
  25              		.thumb_func
  26              		.type	VectorB8, %function
  27              	VectorB8:
  28              	.LFB119:
  29              		.file 1 "../../ChibiOS/os/hal/platforms/STM32/pwm_lld.c"
  30              		.loc 1 237 0
  31              		.cfi_startproc
  32              		@ args = 0, pretend = 0, frame = 0
  33              		@ frame_needed = 0, uses_anonymous_args = 0
  34 0000 38B5     		push	{r3, r4, r5, lr}
  35              	.LCFI0:
  36              		.cfi_def_cfa_offset 16
  37              		.cfi_offset 3, -16
  38              		.cfi_offset 4, -12
  39              		.cfi_offset 5, -8
  40              		.cfi_offset 14, -4
  41              	.LBB4:
  42              	.LBB5:
  43              		.loc 1 116 0
  44 0002 1E4D     		ldr	r5, .L27
  45              	.LBE5:
  46              	.LBE4:
  47              		.loc 1 239 0
  48 0004 FFF7FEFF 		bl	dbg_check_enter_isr
  49              	.LVL0:
  50              	.LBB8:
  51              	.LBB6:
  52              		.loc 1 116 0
  53 0008 2B69     		ldr	r3, [r5, #16]
  54 000a 1A8A     		ldrh	r2, [r3, #16]
  55              	.LVL1:
  56              		.loc 1 117 0
  57 000c 9C89     		ldrh	r4, [r3, #12]
ARM GAS  /tmp/ccyQRAt1.s 			page 2


  58 000e A4B2     		uxth	r4, r4
  59 0010 1440     		ands	r4, r4, r2
  60              	.LVL2:
  61              		.loc 1 118 0
  62 0012 E143     		mvns	r1, r4
  63              		.loc 1 119 0
  64 0014 04F00202 		and	r2, r4, #2
  65              		.loc 1 118 0
  66 0018 89B2     		uxth	r1, r1
  67              		.loc 1 119 0
  68 001a 92B2     		uxth	r2, r2
  69              		.loc 1 118 0
  70 001c 1982     		strh	r1, [r3, #16]	@ movhi
  71              		.loc 1 119 0
  72 001e 002A     		cmp	r2, #0
  73 0020 27D1     		bne	.L23
  74              	.L2:
  75              		.loc 1 121 0
  76 0022 04F00403 		and	r3, r4, #4
  77 0026 9BB2     		uxth	r3, r3
  78 0028 002B     		cmp	r3, #0
  79 002a 1DD1     		bne	.L24
  80              	.L3:
  81              		.loc 1 123 0
  82 002c 04F00803 		and	r3, r4, #8
  83 0030 9BB2     		uxth	r3, r3
  84 0032 A3B9     		cbnz	r3, .L25
  85              	.L4:
  86              		.loc 1 125 0
  87 0034 04F01003 		and	r3, r4, #16
  88 0038 9BB2     		uxth	r3, r3
  89 003a 5BB9     		cbnz	r3, .L26
  90              	.L5:
  91              		.loc 1 127 0
  92 003c E307     		lsls	r3, r4, #31
  93 003e 03D5     		bpl	.L6
  94              		.loc 1 128 0
  95 0040 6B68     		ldr	r3, [r5, #4]
  96 0042 0E48     		ldr	r0, .L27
  97 0044 9B68     		ldr	r3, [r3, #8]
  98 0046 9847     		blx	r3
  99              	.LVL3:
 100              	.L6:
 101              	.LBE6:
 102              	.LBE8:
 103              		.loc 1 243 0
 104 0048 FFF7FEFF 		bl	dbg_check_leave_isr
 105              	.LVL4:
 106              		.loc 1 244 0
 107 004c BDE83840 		pop	{r3, r4, r5, lr}
 108              		.loc 1 243 0
 109 0050 FFF7FEBF 		b	_port_irq_epilogue
 110              	.LVL5:
 111              	.L26:
 112              	.LBB9:
 113              	.LBB7:
 114              		.loc 1 126 0
ARM GAS  /tmp/ccyQRAt1.s 			page 3


 115 0054 6B68     		ldr	r3, [r5, #4]
 116 0056 0948     		ldr	r0, .L27
 117 0058 9B6A     		ldr	r3, [r3, #40]
 118 005a 9847     		blx	r3
 119              	.LVL6:
 120 005c EEE7     		b	.L5
 121              	.L25:
 122              		.loc 1 124 0
 123 005e 6B68     		ldr	r3, [r5, #4]
 124 0060 0648     		ldr	r0, .L27
 125 0062 1B6A     		ldr	r3, [r3, #32]
 126 0064 9847     		blx	r3
 127              	.LVL7:
 128 0066 E5E7     		b	.L4
 129              	.L24:
 130              		.loc 1 122 0
 131 0068 6B68     		ldr	r3, [r5, #4]
 132 006a 0448     		ldr	r0, .L27
 133 006c 9B69     		ldr	r3, [r3, #24]
 134 006e 9847     		blx	r3
 135              	.LVL8:
 136 0070 DCE7     		b	.L3
 137              	.L23:
 138              		.loc 1 120 0
 139 0072 6B68     		ldr	r3, [r5, #4]
 140 0074 2846     		mov	r0, r5
 141 0076 1B69     		ldr	r3, [r3, #16]
 142 0078 9847     		blx	r3
 143              	.LVL9:
 144 007a D2E7     		b	.L2
 145              	.L28:
 146              		.align	2
 147              	.L27:
 148 007c 00000000 		.word	.LANCHOR0
 149              	.LBE7:
 150              	.LBE9:
 151              		.cfi_endproc
 152              	.LFE119:
 153              		.size	VectorB8, .-VectorB8
 154              		.section	.text.pwm_lld_init,"ax",%progbits
 155              		.align	2
 156              		.p2align 4,,15
 157              		.global	pwm_lld_init
 158              		.thumb
 159              		.thumb_func
 160              		.type	pwm_lld_init, %function
 161              	pwm_lld_init:
 162              	.LFB120:
 163              		.loc 1 348 0
 164              		.cfi_startproc
 165              		@ args = 0, pretend = 0, frame = 0
 166              		@ frame_needed = 0, uses_anonymous_args = 0
 167 0000 10B5     		push	{r4, lr}
 168              	.LCFI1:
 169              		.cfi_def_cfa_offset 8
 170              		.cfi_offset 4, -8
 171              		.cfi_offset 14, -4
ARM GAS  /tmp/ccyQRAt1.s 			page 4


 172              		.loc 1 370 0
 173 0002 40F20004 		movw	r4, #:lower16:.LANCHOR0
 174 0006 C0F20004 		movt	r4, #:upper16:.LANCHOR0
 175 000a 2046     		mov	r0, r4
 176 000c FFF7FEFF 		bl	pwmObjectInit
 177              	.LVL10:
 178              		.loc 1 371 0
 179 0010 4FF40063 		mov	r3, #2048
 180 0014 C4F20003 		movt	r3, 16384
 181 0018 2361     		str	r3, [r4, #16]
 182 001a 10BD     		pop	{r4, pc}
 183              		.cfi_endproc
 184              	.LFE120:
 185              		.size	pwm_lld_init, .-pwm_lld_init
 186 001c AFF30080 		.section	.text.pwm_lld_start,"ax",%progbits
 187              		.align	2
 188              		.p2align 4,,15
 189              		.global	pwm_lld_start
 190              		.thumb
 191              		.thumb_func
 192              		.type	pwm_lld_start, %function
 193              	pwm_lld_start:
 194              	.LFB121:
 195              		.loc 1 402 0
 196              		.cfi_startproc
 197              		@ args = 0, pretend = 0, frame = 0
 198              		@ frame_needed = 0, uses_anonymous_args = 0
 199              	.LVL11:
 200              		.loc 1 406 0
 201 0000 0378     		ldrb	r3, [r0, #0]	@ zero_extendqisi2
 202 0002 012B     		cmp	r3, #1
 203              		.loc 1 402 0
 204 0004 70B5     		push	{r4, r5, r6, lr}
 205              	.LCFI2:
 206              		.cfi_def_cfa_offset 16
 207              		.cfi_offset 4, -16
 208              		.cfi_offset 5, -12
 209              		.cfi_offset 6, -8
 210              		.cfi_offset 14, -4
 211              		.loc 1 402 0
 212 0006 0446     		mov	r4, r0
 213              		.loc 1 406 0
 214 0008 6BD0     		beq	.L59
 215              		.loc 1 490 0
 216 000a 0369     		ldr	r3, [r0, #16]
 217 000c 0022     		movs	r2, #0
 218 000e 1A80     		strh	r2, [r3, #0]	@ movhi
 219              		.loc 1 491 0
 220 0010 9A81     		strh	r2, [r3, #12]	@ movhi
 221              		.loc 1 492 0
 222 0012 1A82     		strh	r2, [r3, #16]	@ movhi
 223              		.loc 1 493 0
 224 0014 5A63     		str	r2, [r3, #52]
 225              		.loc 1 494 0
 226 0016 9A63     		str	r2, [r3, #56]
 227              		.loc 1 495 0
 228 0018 DA63     		str	r2, [r3, #60]
ARM GAS  /tmp/ccyQRAt1.s 			page 5


 229              		.loc 1 496 0
 230 001a 1A64     		str	r2, [r3, #64]
 231              		.loc 1 497 0
 232 001c 5A62     		str	r2, [r3, #36]
 233              	.LVL12:
 234              	.L33:
 235              		.loc 1 501 0
 236 001e 6268     		ldr	r2, [r4, #4]
 237 0020 E168     		ldr	r1, [r4, #12]
 238 0022 1668     		ldr	r6, [r2, #0]
 239 0024 B1FBF6F0 		udiv	r0, r1, r6
 240 0028 451E     		subs	r5, r0, #1
 241              	.LVL13:
 242              		.loc 1 502 0
 243 002a B5F5803F 		cmp	r5, #65536
 244 002e 03D2     		bcs	.L34
 245              		.loc 1 502 0 is_stmt 0 discriminator 2
 246 0030 06FB00F0 		mul	r0, r6, r0
 247 0034 8142     		cmp	r1, r0
 248 0036 04D0     		beq	.L35
 249              	.L34:
 250              		.loc 1 502 0 discriminator 1
 251 0038 3A48     		ldr	r0, .L67
 252 003a FFF7FEFF 		bl	chDbgPanic
 253              	.LVL14:
 254 003e 6268     		ldr	r2, [r4, #4]
 255 0040 2369     		ldr	r3, [r4, #16]
 256              	.L35:
 257              		.loc 1 506 0 is_stmt 1
 258 0042 2489     		ldrh	r4, [r4, #8]
 259              	.LVL15:
 260              		.loc 1 511 0
 261 0044 D168     		ldr	r1, [r2, #12]
 262              		.loc 1 507 0
 263 0046 908D     		ldrh	r0, [r2, #44]
 264              		.loc 1 506 0
 265 0048 013C     		subs	r4, r4, #1
 266              		.loc 1 511 0
 267 004a 01F00F01 		and	r1, r1, #15
 268              		.loc 1 505 0
 269 004e ADB2     		uxth	r5, r5
 270              	.LVL16:
 271              		.loc 1 506 0
 272 0050 A4B2     		uxth	r4, r4
 273              		.loc 1 511 0
 274 0052 0129     		cmp	r1, #1
 275              		.loc 1 505 0
 276 0054 1D85     		strh	r5, [r3, #40]	@ movhi
 277              		.loc 1 506 0
 278 0056 DC62     		str	r4, [r3, #44]
 279              		.loc 1 507 0
 280 0058 9880     		strh	r0, [r3, #4]	@ movhi
 281              	.LVL17:
 282              		.loc 1 511 0
 283 005a 03D0     		beq	.L36
 284              		.loc 1 510 0
 285 005c 0229     		cmp	r1, #2
ARM GAS  /tmp/ccyQRAt1.s 			page 6


 286 005e 0CBF     		ite	eq
 287 0060 0321     		moveq	r1, #3
 288 0062 0021     		movne	r1, #0
 289              	.L36:
 290              	.LVL18:
 291              		.loc 1 519 0
 292 0064 5069     		ldr	r0, [r2, #20]
 293 0066 00F00F00 		and	r0, r0, #15
 294 006a 0128     		cmp	r0, #1
 295 006c 1ED0     		beq	.L40
 296 006e 0228     		cmp	r0, #2
 297 0070 1AD0     		beq	.L60
 298              		.loc 1 527 0
 299 0072 D069     		ldr	r0, [r2, #28]
 300 0074 00F00F00 		and	r0, r0, #15
 301 0078 0128     		cmp	r0, #1
 302 007a 1ED0     		beq	.L43
 303              	.LVL19:
 304              	.L63:
 305 007c 0228     		cmp	r0, #2
 306 007e 2BD0     		beq	.L61
 307              	.LVL20:
 308              		.loc 1 535 0
 309 0080 506A     		ldr	r0, [r2, #36]
 310 0082 00F00F00 		and	r0, r0, #15
 311 0086 0128     		cmp	r0, #1
 312 0088 1ED0     		beq	.L46
 313              	.LVL21:
 314              	.L64:
 315 008a 0228     		cmp	r0, #2
 316 008c 1FD0     		beq	.L62
 317              	.L45:
 318              	.LVL22:
 319              		.loc 1 582 0
 320 008e 9268     		ldr	r2, [r2, #8]
 321              		.loc 1 580 0
 322 0090 1984     		strh	r1, [r3, #32]	@ movhi
 323              		.loc 1 582 0
 324 0092 0032     		adds	r2, r2, #0
 325 0094 18BF     		it	ne
 326 0096 0122     		movne	r2, #1
 327              		.loc 1 581 0
 328 0098 0121     		movs	r1, #1
 329              	.LVL23:
 330 009a 9982     		strh	r1, [r3, #20]	@ movhi
 331              		.loc 1 582 0
 332 009c 9A81     		strh	r2, [r3, #12]	@ movhi
 333              		.loc 1 583 0
 334 009e 0022     		movs	r2, #0
 335 00a0 1A82     		strh	r2, [r3, #16]	@ movhi
 336              		.loc 1 592 0
 337 00a2 8522     		movs	r2, #133
 338 00a4 1A80     		strh	r2, [r3, #0]	@ movhi
 339 00a6 70BD     		pop	{r4, r5, r6, pc}
 340              	.LVL24:
 341              	.L60:
 342              		.loc 1 521 0
ARM GAS  /tmp/ccyQRAt1.s 			page 7


 343 00a8 41F02001 		orr	r1, r1, #32
 344              	.LVL25:
 345              	.L40:
 346              		.loc 1 527 0
 347 00ac D069     		ldr	r0, [r2, #28]
 348 00ae 00F00F00 		and	r0, r0, #15
 349 00b2 0128     		cmp	r0, #1
 350              		.loc 1 523 0
 351 00b4 41F01001 		orr	r1, r1, #16
 352              	.LVL26:
 353              		.loc 1 527 0
 354 00b8 E0D1     		bne	.L63
 355              	.LVL27:
 356              	.L43:
 357              		.loc 1 531 0
 358 00ba 41F48071 		orr	r1, r1, #256
 359              	.LVL28:
 360              	.L65:
 361              		.loc 1 535 0
 362 00be 506A     		ldr	r0, [r2, #36]
 363 00c0 00F00F00 		and	r0, r0, #15
 364 00c4 0128     		cmp	r0, #1
 365 00c6 E0D1     		bne	.L64
 366              	.LVL29:
 367              	.L46:
 368              		.loc 1 539 0
 369 00c8 41F48051 		orr	r1, r1, #4096
 370              	.LVL30:
 371 00cc DFE7     		b	.L45
 372              	.LVL31:
 373              	.L62:
 374              		.loc 1 537 0
 375 00ce 41F40051 		orr	r1, r1, #8192
 376              	.LVL32:
 377              		.loc 1 539 0
 378 00d2 41F48051 		orr	r1, r1, #4096
 379              	.LVL33:
 380 00d6 DAE7     		b	.L45
 381              	.LVL34:
 382              	.L61:
 383              		.loc 1 529 0
 384 00d8 41F40071 		orr	r1, r1, #512
 385              	.LVL35:
 386              		.loc 1 531 0
 387 00dc 41F48071 		orr	r1, r1, #256
 388              	.LVL36:
 389 00e0 EDE7     		b	.L65
 390              	.LVL37:
 391              	.L59:
 392              		.loc 1 438 0
 393 00e2 114B     		ldr	r3, .L67+4
 394 00e4 9842     		cmp	r0, r3
 395 00e6 05D0     		beq	.L66
 396              	.LVL38:
 397              	.L32:
 398              		.loc 1 479 0
 399 00e8 2369     		ldr	r3, [r4, #16]
ARM GAS  /tmp/ccyQRAt1.s 			page 8


 400 00ea 46F66802 		movw	r2, #26728
 401 00ee 1A83     		strh	r2, [r3, #24]	@ movhi
 402              		.loc 1 483 0
 403 00f0 9A83     		strh	r2, [r3, #28]	@ movhi
 404 00f2 94E7     		b	.L33
 405              	.LVL39:
 406              	.L66:
 407              		.loc 1 439 0
 408 00f4 4FF46053 		mov	r3, #14336
 409 00f8 C4F20203 		movt	r3, 16386
 410              		.loc 1 441 0
 411 00fc 1E20     		movs	r0, #30
 412              	.LVL40:
 413              		.loc 1 439 0
 414 00fe 1A6C     		ldr	r2, [r3, #64]
 415 0100 42F00402 		orr	r2, r2, #4
 416 0104 1A64     		str	r2, [r3, #64]
 417              		.loc 1 440 0
 418 0106 1A6A     		ldr	r2, [r3, #32]
 419 0108 42F00402 		orr	r2, r2, #4
 420 010c 1A62     		str	r2, [r3, #32]
 421 010e 0022     		movs	r2, #0
 422 0110 1A62     		str	r2, [r3, #32]
 423              		.loc 1 441 0
 424 0112 7021     		movs	r1, #112
 425 0114 FFF7FEFF 		bl	nvicEnableVector
 426              	.LVL41:
 427              		.loc 1 443 0
 428 0118 4FF43D43 		mov	r3, #48384
 429 011c C0F20153 		movt	r3, 1281
 430 0120 E360     		str	r3, [r4, #12]
 431 0122 E1E7     		b	.L32
 432              	.L68:
 433              		.align	2
 434              	.L67:
 435 0124 00000000 		.word	.LC0
 436 0128 00000000 		.word	.LANCHOR0
 437              		.cfi_endproc
 438              	.LFE121:
 439              		.size	pwm_lld_start, .-pwm_lld_start
 440 012c AFF30080 		.section	.text.pwm_lld_stop,"ax",%progbits
 441              		.align	2
 442              		.p2align 4,,15
 443              		.global	pwm_lld_stop
 444              		.thumb
 445              		.thumb_func
 446              		.type	pwm_lld_stop, %function
 447              	pwm_lld_stop:
 448              	.LFB122:
 449              		.loc 1 602 0
 450              		.cfi_startproc
 451              		@ args = 0, pretend = 0, frame = 0
 452              		@ frame_needed = 0, uses_anonymous_args = 0
 453              	.LVL42:
 454 0000 08B5     		push	{r3, lr}
 455              	.LCFI3:
 456              		.cfi_def_cfa_offset 8
ARM GAS  /tmp/ccyQRAt1.s 			page 9


 457              		.cfi_offset 3, -8
 458              		.cfi_offset 14, -4
 459              		.loc 1 605 0
 460 0002 0378     		ldrb	r3, [r0, #0]	@ zero_extendqisi2
 461 0004 022B     		cmp	r3, #2
 462 0006 00D0     		beq	.L73
 463              	.LVL43:
 464              	.L69:
 465 0008 08BD     		pop	{r3, pc}
 466              	.LVL44:
 467              	.L73:
 468              		.loc 1 606 0
 469 000a 0369     		ldr	r3, [r0, #16]
 470 000c 0022     		movs	r2, #0
 471 000e 1A80     		strh	r2, [r3, #0]	@ movhi
 472              		.loc 1 607 0
 473 0010 9A81     		strh	r2, [r3, #12]	@ movhi
 474              		.loc 1 608 0
 475 0012 1A82     		strh	r2, [r3, #16]	@ movhi
 476              		.loc 1 633 0
 477 0014 074B     		ldr	r3, .L74
 478 0016 9842     		cmp	r0, r3
 479 0018 F6D1     		bne	.L69
 480              		.loc 1 634 0
 481 001a 1E20     		movs	r0, #30
 482              	.LVL45:
 483 001c FFF7FEFF 		bl	nvicDisableVector
 484              	.LVL46:
 485              		.loc 1 635 0
 486 0020 4FF46053 		mov	r3, #14336
 487 0024 C4F20203 		movt	r3, 16386
 488 0028 1A6C     		ldr	r2, [r3, #64]
 489 002a 22F00402 		bic	r2, r2, #4
 490 002e 1A64     		str	r2, [r3, #64]
 491 0030 EAE7     		b	.L69
 492              	.L75:
 493 0032 00BF     		.align	2
 494              	.L74:
 495 0034 00000000 		.word	.LANCHOR0
 496              		.cfi_endproc
 497              	.LFE122:
 498              		.size	pwm_lld_stop, .-pwm_lld_stop
 499 0038 AFF30080 		.section	.text.pwm_lld_enable_channel,"ax",%progbits
 499      AFF30080 
 500              		.align	2
 501              		.p2align 4,,15
 502              		.global	pwm_lld_enable_channel
 503              		.thumb
 504              		.thumb_func
 505              		.type	pwm_lld_enable_channel, %function
 506              	pwm_lld_enable_channel:
 507              	.LFB123:
 508              		.loc 1 674 0
 509              		.cfi_startproc
 510              		@ args = 0, pretend = 0, frame = 0
 511              		@ frame_needed = 0, uses_anonymous_args = 0
 512              		@ link register save eliminated.
ARM GAS  /tmp/ccyQRAt1.s 			page 10


 513              	.LVL47:
 514 0000 10B4     		push	{r4}
 515              	.LCFI4:
 516              		.cfi_def_cfa_offset 4
 517              		.cfi_offset 4, -4
 518              		.loc 1 679 0
 519 0002 4468     		ldr	r4, [r0, #4]
 520              		.loc 1 676 0
 521 0004 0369     		ldr	r3, [r0, #16]
 522              		.loc 1 679 0
 523 0006 04EBC100 		add	r0, r4, r1, lsl #3
 524              	.LVL48:
 525              		.loc 1 676 0
 526 000a 01F10C04 		add	r4, r1, #12
 527 000e 03EB8404 		add	r4, r3, r4, lsl #2
 528              		.loc 1 679 0
 529 0012 0069     		ldr	r0, [r0, #16]
 530              		.loc 1 676 0
 531 0014 6260     		str	r2, [r4, #4]
 532              		.loc 1 679 0
 533 0016 60B1     		cbz	r0, .L76
 534              	.LBB10:
 535              		.loc 1 680 0
 536 0018 9A89     		ldrh	r2, [r3, #12]
 537              	.LVL49:
 538              		.loc 1 683 0
 539 001a 0220     		movs	r0, #2
 540              		.loc 1 680 0
 541 001c 92B2     		uxth	r2, r2
 542              	.LVL50:
 543              		.loc 1 683 0
 544 001e 00FA01F1 		lsl	r1, r0, r1
 545              	.LVL51:
 546 0022 1142     		tst	r1, r2
 547 0024 05D1     		bne	.L76
 548              		.loc 1 684 0
 549 0026 89B2     		uxth	r1, r1
 550              		.loc 1 685 0
 551 0028 C843     		mvns	r0, r1
 552 002a 80B2     		uxth	r0, r0
 553              		.loc 1 684 0
 554 002c 1143     		orrs	r1, r1, r2
 555 002e 9981     		strh	r1, [r3, #12]	@ movhi
 556              		.loc 1 685 0
 557 0030 1882     		strh	r0, [r3, #16]	@ movhi
 558              	.LVL52:
 559              	.L76:
 560              	.LBE10:
 561              		.loc 1 688 0
 562 0032 10BC     		pop	{r4}
 563 0034 7047     		bx	lr
 564              		.cfi_endproc
 565              	.LFE123:
 566              		.size	pwm_lld_enable_channel, .-pwm_lld_enable_channel
 567 0036 00BFAFF3 		.section	.text.pwm_lld_disable_channel,"ax",%progbits
 567      0080AFF3 
 567      0080
ARM GAS  /tmp/ccyQRAt1.s 			page 11


 568              		.align	2
 569              		.p2align 4,,15
 570              		.global	pwm_lld_disable_channel
 571              		.thumb
 572              		.thumb_func
 573              		.type	pwm_lld_disable_channel, %function
 574              	pwm_lld_disable_channel:
 575              	.LFB124:
 576              		.loc 1 702 0
 577              		.cfi_startproc
 578              		@ args = 0, pretend = 0, frame = 0
 579              		@ frame_needed = 0, uses_anonymous_args = 0
 580              		@ link register save eliminated.
 581              	.LVL53:
 582              		.loc 1 704 0
 583 0000 0369     		ldr	r3, [r0, #16]
 584 0002 01F10C02 		add	r2, r1, #12
 585 0006 03EB8202 		add	r2, r3, r2, lsl #2
 586 000a 0020     		movs	r0, #0
 587              	.LVL54:
 588 000c 5060     		str	r0, [r2, #4]
 589              		.loc 1 705 0
 590 000e 9A89     		ldrh	r2, [r3, #12]
 591 0010 0220     		movs	r0, #2
 592 0012 92B2     		uxth	r2, r2
 593 0014 00FA01F1 		lsl	r1, r0, r1
 594              	.LVL55:
 595 0018 22EA0101 		bic	r1, r2, r1
 596 001c 9981     		strh	r1, [r3, #12]	@ movhi
 597 001e 7047     		bx	lr
 598              		.cfi_endproc
 599              	.LFE124:
 600              		.size	pwm_lld_disable_channel, .-pwm_lld_disable_channel
 601              		.global	PWMD4
 602              		.section	.bss.PWMD4,"aw",%nobits
 603              		.align	2
 604              		.set	.LANCHOR0,. + 0
 605              		.type	PWMD4, %object
 606              		.size	PWMD4, 20
 607              	PWMD4:
 608 0000 00000000 		.space	20
 608      00000000 
 608      00000000 
 608      00000000 
 608      00000000 
 609              		.section	.rodata.str1.4,"aMS",%progbits,1
 610              		.align	2
 611              	.LC0:
 612 0000 70776D5F 		.ascii	"pwm_lld_start(), #1\000"
 612      6C6C645F 
 612      73746172 
 612      7428292C 
 612      20233100 
 613              		.text
 614              	.Letext0:
 615              		.file 2 "/opt/psas/x-tools/stm32f407/arm-psas-eabi/bin/../lib/gcc/arm-psas-eabi/4.7.2/../../../../
 616              		.file 3 "../../ChibiOS/os/hal/platforms/STM32F4xx/stm32f4xx.h"
ARM GAS  /tmp/ccyQRAt1.s 			page 12


 617              		.file 4 "../../ChibiOS/os/hal/platforms/STM32/stm32.h"
 618              		.file 5 "../../ChibiOS/os/hal/include/pwm.h"
 619              		.file 6 "../../ChibiOS/os/hal/platforms/STM32/pwm_lld.h"
 620              		.file 7 "../../ChibiOS/os/ports/common/ARMCMx/CMSIS/include/core_cm4.h"
 621              		.file 8 "../../ChibiOS/os/kernel/include/chdebug.h"
 622              		.file 9 "../../ChibiOS/os/ports/GCC/ARMCMx/chcore_v7m.h"
 623              		.file 10 "../../ChibiOS/os/ports/common/ARMCMx/nvic.h"