ARM GAS  /tmp/ccosgPvt.s 			page 1


   1              		.syntax unified
   2              		.cpu cortex-m4
   3              		.eabi_attribute 27, 3
   4              		.eabi_attribute 28, 1
   5              		.fpu fpv4-sp-d16
   6              		.eabi_attribute 20, 1
   7              		.eabi_attribute 21, 1
   8              		.eabi_attribute 23, 3
   9              		.eabi_attribute 24, 1
  10              		.eabi_attribute 25, 1
  11              		.eabi_attribute 26, 1
  12              		.eabi_attribute 30, 2
  13              		.eabi_attribute 34, 1
  14              		.eabi_attribute 18, 4
  15              		.thumb
  16              		.file	"serial_lld.c"
  17              		.text
  18              	.Ltext0:
  19              		.cfi_sections	.debug_frame
  20              		.section	.text.notify6,"ax",%progbits
  21              		.align	2
  22              		.p2align 4,,15
  23              		.thumb
  24              		.thumb_func
  25              		.type	notify6, %function
  26              	notify6:
  27              	.LFB122:
  28              		.file 1 "../../ChibiOS/os/hal/platforms/STM32/USARTv1/serial_lld.c"
  29              		.loc 1 242 0
  30              		.cfi_startproc
  31              		@ args = 0, pretend = 0, frame = 0
  32              		@ frame_needed = 0, uses_anonymous_args = 0
  33              		@ link register save eliminated.
  34              	.LVL0:
  35              		.loc 1 245 0
  36 0000 4FF4A053 		mov	r3, #5120
  37 0004 C4F20103 		movt	r3, 16385
  38 0008 9A89     		ldrh	r2, [r3, #12]
  39 000a 92B2     		uxth	r2, r2
  40 000c 42F08002 		orr	r2, r2, #128
  41 0010 9A81     		strh	r2, [r3, #12]	@ movhi
  42 0012 7047     		bx	lr
  43              		.cfi_endproc
  44              	.LFE122:
  45              		.size	notify6, .-notify6
  46              		.section	.text.Vector15C,"ax",%progbits
  47              		.align	2
  48              		.p2align 4,,15
  49              		.global	Vector15C
  50              		.thumb
  51              		.thumb_func
  52              		.type	Vector15C, %function
  53              	Vector15C:
  54              	.LFB123:
  55              		.loc 1 357 0
  56              		.cfi_startproc
  57              		@ args = 0, pretend = 0, frame = 0
ARM GAS  /tmp/ccosgPvt.s 			page 2


  58              		@ frame_needed = 0, uses_anonymous_args = 0
  59 0000 2DE9F041 		push	{r4, r5, r6, r7, r8, lr}
  60              	.LCFI0:
  61              		.cfi_def_cfa_offset 24
  62              		.cfi_offset 4, -24
  63              		.cfi_offset 5, -20
  64              		.cfi_offset 6, -16
  65              		.cfi_offset 7, -12
  66              		.cfi_offset 8, -8
  67              		.cfi_offset 14, -4
  68              		.loc 1 359 0
  69 0004 FFF7FEFF 		bl	dbg_check_enter_isr
  70              	.LVL1:
  71              	.LBB30:
  72              	.LBB31:
  73              		.loc 1 157 0
  74 0008 554B     		ldr	r3, .L48
  75 000a 5D6F     		ldr	r5, [r3, #116]
  76              	.LVL2:
  77              		.loc 1 158 0
  78 000c AE89     		ldrh	r6, [r5, #12]
  79              		.loc 1 159 0
  80 000e 2C88     		ldrh	r4, [r5, #0]
  81              		.loc 1 160 0
  82 0010 A988     		ldrh	r1, [r5, #4]
  83              		.loc 1 159 0
  84 0012 A4B2     		uxth	r4, r4
  85              		.loc 1 163 0
  86 0014 2207     		lsls	r2, r4, #28
  87              		.loc 1 158 0
  88 0016 B6B2     		uxth	r6, r6
  89              	.LVL3:
  90              		.loc 1 160 0
  91 0018 8FB2     		uxth	r7, r1
  92              	.LVL4:
  93              		.loc 1 163 0
  94 001a 59D1     		bne	.L43
  95              	.LVL5:
  96              	.L3:
  97              		.loc 1 166 0
  98 001c 04F48073 		and	r3, r4, #256
  99              	.LVL6:
 100 0020 9BB2     		uxth	r3, r3
 101 0022 002B     		cmp	r3, #0
 102 0024 3ED1     		bne	.L44
 103              	.L8:
 104              		.loc 1 173 0
 105 0026 04F02003 		and	r3, r4, #32
 106 002a 9BB2     		uxth	r3, r3
 107 002c 002B     		cmp	r3, #0
 108 002e 2AD1     		bne	.L45
 109              	.LVL7:
 110              	.L9:
 111              		.loc 1 179 0
 112 0030 06F08003 		and	r3, r6, #128
 113              	.LVL8:
 114 0034 9BB2     		uxth	r3, r3
ARM GAS  /tmp/ccosgPvt.s 			page 3


 115 0036 23B1     		cbz	r3, .L10
 116 0038 04F08003 		and	r3, r4, #128
 117 003c 9BB2     		uxth	r3, r3
 118 003e 002B     		cmp	r3, #0
 119 0040 70D1     		bne	.L46
 120              	.LVL9:
 121              	.L10:
 122              		.loc 1 192 0
 123 0042 04F04004 		and	r4, r4, #64
 124              	.LVL10:
 125 0046 A4B2     		uxth	r4, r4
 126 0048 BCB1     		cbz	r4, .L13
 127              	.LBB32:
 128              		.loc 1 193 0
 129 004a 2023     		movs	r3, #32
 130              	.LVL11:
 131              	@ 193 "../../ChibiOS/os/hal/platforms/STM32/USARTv1/serial_lld.c" 1
 132 004c 83F31188 		msr     BASEPRI, r3
 133              	@ 0 "" 2
 134              	.LVL12:
 135              		.thumb
 136              	.LBE32:
 137 0050 FFF7FEFF 		bl	dbg_check_lock_from_isr
 138              	.LVL13:
 139              		.loc 1 194 0
 140 0054 4348     		ldr	r0, .L48+4
 141 0056 1021     		movs	r1, #16
 142 0058 FFF7FEFF 		bl	chEvtBroadcastFlagsI
 143              	.LVL14:
 144              		.loc 1 195 0
 145 005c FFF7FEFF 		bl	dbg_check_unlock_from_isr
 146              	.LVL15:
 147              	.LBB33:
 148 0060 0023     		movs	r3, #0
 149              	.LVL16:
 150              	@ 195 "../../ChibiOS/os/hal/platforms/STM32/USARTv1/serial_lld.c" 1
 151 0062 83F31188 		msr     BASEPRI, r3
 152              	@ 0 "" 2
 153              	.LVL17:
 154              		.thumb
 155              	.LBE33:
 156              		.loc 1 196 0
 157 0066 4FF6BF73 		movw	r3, #65471
 158              	.LVL18:
 159 006a 3340     		ands	r3, r3, r6
 160 006c AB81     		strh	r3, [r5, #12]	@ movhi
 161              		.loc 1 197 0
 162 006e 2B88     		ldrh	r3, [r5, #0]
 163 0070 23F04003 		bic	r3, r3, #64
 164 0074 1B04     		lsls	r3, r3, #16
 165 0076 1B0C     		lsrs	r3, r3, #16
 166 0078 2B80     		strh	r3, [r5, #0]	@ movhi
 167              	.LVL19:
 168              	.L13:
 169              	.LBE31:
 170              	.LBE30:
 171              		.loc 1 363 0
ARM GAS  /tmp/ccosgPvt.s 			page 4


 172 007a FFF7FEFF 		bl	dbg_check_leave_isr
 173              	.LVL20:
 174              		.loc 1 364 0
 175 007e BDE8F041 		pop	{r4, r5, r6, r7, r8, lr}
 176              		.loc 1 363 0
 177 0082 FFF7FEBF 		b	_port_irq_epilogue
 178              	.LVL21:
 179              	.L45:
 180              	.LBB46:
 181              	.LBB45:
 182              	.LBB34:
 183              		.loc 1 174 0
 184 0086 2023     		movs	r3, #32
 185              	.LVL22:
 186              	@ 174 "../../ChibiOS/os/hal/platforms/STM32/USARTv1/serial_lld.c" 1
 187 0088 83F31188 		msr     BASEPRI, r3
 188              	@ 0 "" 2
 189              	.LVL23:
 190              		.thumb
 191              	.LBE34:
 192 008c FFF7FEFF 		bl	dbg_check_lock_from_isr
 193              	.LVL24:
 194              		.loc 1 175 0
 195 0090 3348     		ldr	r0, .L48
 196 0092 F9B2     		uxtb	r1, r7
 197 0094 FFF7FEFF 		bl	sdIncomingDataI
 198              	.LVL25:
 199              		.loc 1 176 0
 200 0098 FFF7FEFF 		bl	dbg_check_unlock_from_isr
 201              	.LVL26:
 202              	.LBB35:
 203 009c 0023     		movs	r3, #0
 204              	@ 176 "../../ChibiOS/os/hal/platforms/STM32/USARTv1/serial_lld.c" 1
 205 009e 83F31188 		msr     BASEPRI, r3
 206              	@ 0 "" 2
 207              	.LVL27:
 208              		.thumb
 209 00a2 C5E7     		b	.L9
 210              	.LVL28:
 211              	.L44:
 212              	.LBE35:
 213              	.LBB36:
 214              		.loc 1 167 0
 215 00a4 2023     		movs	r3, #32
 216              	.LVL29:
 217              	@ 167 "../../ChibiOS/os/hal/platforms/STM32/USARTv1/serial_lld.c" 1
 218 00a6 83F31188 		msr     BASEPRI, r3
 219              	@ 0 "" 2
 220              	.LVL30:
 221              		.thumb
 222              	.LBE36:
 223 00aa FFF7FEFF 		bl	dbg_check_lock_from_isr
 224              	.LVL31:
 225              		.loc 1 168 0
 226 00ae 2D48     		ldr	r0, .L48+4
 227 00b0 4FF40071 		mov	r1, #512
 228 00b4 FFF7FEFF 		bl	chEvtBroadcastFlagsI
ARM GAS  /tmp/ccosgPvt.s 			page 5


 229              	.LVL32:
 230              		.loc 1 169 0
 231 00b8 FFF7FEFF 		bl	dbg_check_unlock_from_isr
 232              	.LVL33:
 233              	.LBB37:
 234 00bc 0023     		movs	r3, #0
 235              	.LVL34:
 236              	@ 169 "../../ChibiOS/os/hal/platforms/STM32/USARTv1/serial_lld.c" 1
 237 00be 83F31188 		msr     BASEPRI, r3
 238              	@ 0 "" 2
 239              	.LVL35:
 240              		.thumb
 241              	.LBE37:
 242              		.loc 1 170 0
 243 00c2 2B88     		ldrh	r3, [r5, #0]
 244              	.LVL36:
 245 00c4 23F48073 		bic	r3, r3, #256
 246 00c8 1B04     		lsls	r3, r3, #16
 247 00ca 1B0C     		lsrs	r3, r3, #16
 248 00cc 2B80     		strh	r3, [r5, #0]	@ movhi
 249 00ce AAE7     		b	.L8
 250              	.LVL37:
 251              	.L43:
 252              	.LBB38:
 253              	.LBB39:
 254              		.loc 1 138 0
 255 00d0 04F00808 		and	r8, r4, #8
 256 00d4 1FFA88F8 		uxth	r8, r8
 257              		.loc 1 139 0
 258 00d8 B8F1000F 		cmp	r8, #0
 259 00dc 14BF     		ite	ne
 260 00de 4FF08008 		movne	r8, #128
 261 00e2 4FF00008 		moveq	r8, #0
 262              	.LVL38:
 263              		.loc 1 140 0
 264 00e6 E307     		lsls	r3, r4, #31
 265              		.loc 1 142 0
 266 00e8 04F00203 		and	r3, r4, #2
 267 00ec 9BB2     		uxth	r3, r3
 268              		.loc 1 141 0
 269 00ee 48BF     		it	mi
 270 00f0 48F02008 		orrmi	r8, r8, #32
 271              	.LVL39:
 272              		.loc 1 142 0
 273 00f4 0BB1     		cbz	r3, .L6
 274              		.loc 1 143 0
 275 00f6 48F04008 		orr	r8, r8, #64
 276              	.LVL40:
 277              	.L6:
 278              		.loc 1 144 0
 279 00fa 04F00403 		and	r3, r4, #4
 280 00fe 9BB2     		uxth	r3, r3
 281 0100 0BB1     		cbz	r3, .L7
 282              		.loc 1 145 0
 283 0102 48F48078 		orr	r8, r8, #256
 284              	.LVL41:
 285              	.L7:
ARM GAS  /tmp/ccosgPvt.s 			page 6


 286              	.LBB40:
 287              		.loc 1 146 0
 288 0106 2023     		movs	r3, #32
 289              	.LVL42:
 290              	@ 146 "../../ChibiOS/os/hal/platforms/STM32/USARTv1/serial_lld.c" 1
 291 0108 83F31188 		msr     BASEPRI, r3
 292              	@ 0 "" 2
 293              	.LVL43:
 294              		.thumb
 295              	.LBE40:
 296 010c FFF7FEFF 		bl	dbg_check_lock_from_isr
 297              	.LVL44:
 298              		.loc 1 147 0
 299 0110 1448     		ldr	r0, .L48+4
 300 0112 4146     		mov	r1, r8
 301 0114 FFF7FEFF 		bl	chEvtBroadcastFlagsI
 302              	.LVL45:
 303              		.loc 1 148 0
 304 0118 FFF7FEFF 		bl	dbg_check_unlock_from_isr
 305              	.LVL46:
 306              	.LBB41:
 307 011c 0023     		movs	r3, #0
 308              	@ 148 "../../ChibiOS/os/hal/platforms/STM32/USARTv1/serial_lld.c" 1
 309 011e 83F31188 		msr     BASEPRI, r3
 310              	@ 0 "" 2
 311              	.LVL47:
 312              		.thumb
 313 0122 7BE7     		b	.L3
 314              	.LVL48:
 315              	.L46:
 316              	.LBE41:
 317              	.LBE39:
 318              	.LBE38:
 319              	.LBB42:
 320              	.LBB43:
 321              		.loc 1 181 0
 322 0124 2023     		movs	r3, #32
 323              	.LVL49:
 324              	@ 181 "../../ChibiOS/os/hal/platforms/STM32/USARTv1/serial_lld.c" 1
 325 0126 83F31188 		msr     BASEPRI, r3
 326              	@ 0 "" 2
 327              	.LVL50:
 328              		.thumb
 329              	.LBE43:
 330 012a FFF7FEFF 		bl	dbg_check_lock_from_isr
 331              	.LVL51:
 332              		.loc 1 182 0
 333 012e 0E48     		ldr	r0, .L48+8
 334 0130 FFF7FEFF 		bl	chOQGetI
 335              	.LVL52:
 336              		.loc 1 183 0
 337 0134 0028     		cmp	r0, #0
 338              		.loc 1 188 0
 339 0136 A4BF     		itt	ge
 340 0138 80B2     		uxthge	r0, r0
 341              	.LVL53:
 342 013a A880     		strhge	r0, [r5, #4]	@ movhi
ARM GAS  /tmp/ccosgPvt.s 			page 7


 343              		.loc 1 183 0
 344 013c 05DB     		blt	.L47
 345              	.L12:
 346              		.loc 1 189 0
 347 013e FFF7FEFF 		bl	dbg_check_unlock_from_isr
 348              	.LVL54:
 349              	.LBB44:
 350 0142 0023     		movs	r3, #0
 351              	@ 189 "../../ChibiOS/os/hal/platforms/STM32/USARTv1/serial_lld.c" 1
 352 0144 83F31188 		msr     BASEPRI, r3
 353              	@ 0 "" 2
 354              	.LVL55:
 355              		.thumb
 356 0148 7BE7     		b	.L10
 357              	.LVL56:
 358              	.L47:
 359              	.LBE44:
 360              		.loc 1 184 0
 361 014a 0648     		ldr	r0, .L48+4
 362 014c 0821     		movs	r1, #8
 363 014e FFF7FEFF 		bl	chEvtBroadcastFlagsI
 364              	.LVL57:
 365              		.loc 1 185 0
 366 0152 26F0C003 		bic	r3, r6, #192
 367 0156 43F04003 		orr	r3, r3, #64
 368 015a AB81     		strh	r3, [r5, #12]	@ movhi
 369 015c EFE7     		b	.L12
 370              	.L49:
 371 015e 00BF     		.align	2
 372              	.L48:
 373 0160 00000000 		.word	.LANCHOR0
 374 0164 04000000 		.word	.LANCHOR0+4
 375 0168 30000000 		.word	.LANCHOR0+48
 376              	.LBE42:
 377              	.LBE45:
 378              	.LBE46:
 379              		.cfi_endproc
 380              	.LFE123:
 381              		.size	Vector15C, .-Vector15C
 382 016c AFF30080 		.section	.text.sd_lld_init,"ax",%progbits
 383              		.align	2
 384              		.p2align 4,,15
 385              		.global	sd_lld_init
 386              		.thumb
 387              		.thumb_func
 388              		.type	sd_lld_init, %function
 389              	sd_lld_init:
 390              	.LFB124:
 391              		.loc 1 376 0
 392              		.cfi_startproc
 393              		@ args = 0, pretend = 0, frame = 0
 394              		@ frame_needed = 0, uses_anonymous_args = 0
 395 0000 10B5     		push	{r4, lr}
 396              	.LCFI1:
 397              		.cfi_def_cfa_offset 8
 398              		.cfi_offset 4, -8
 399              		.cfi_offset 14, -4
ARM GAS  /tmp/ccosgPvt.s 			page 8


 400              		.loc 1 404 0
 401 0002 40F20004 		movw	r4, #:lower16:.LANCHOR0
 402 0006 C0F20004 		movt	r4, #:upper16:.LANCHOR0
 403 000a 40F20002 		movw	r2, #:lower16:notify6
 404 000e 2046     		mov	r0, r4
 405 0010 0021     		movs	r1, #0
 406 0012 C0F20002 		movt	r2, #:upper16:notify6
 407 0016 FFF7FEFF 		bl	sdObjectInit
 408              	.LVL58:
 409              		.loc 1 405 0
 410 001a 4FF4A053 		mov	r3, #5120
 411 001e C4F20103 		movt	r3, 16385
 412 0022 6367     		str	r3, [r4, #116]
 413 0024 10BD     		pop	{r4, pc}
 414              		.cfi_endproc
 415              	.LFE124:
 416              		.size	sd_lld_init, .-sd_lld_init
 417 0026 00BFAFF3 		.section	.text.sd_lld_start,"ax",%progbits
 417      0080AFF3 
 417      0080
 418              		.align	2
 419              		.p2align 4,,15
 420              		.global	sd_lld_start
 421              		.thumb
 422              		.thumb_func
 423              		.type	sd_lld_start, %function
 424              	sd_lld_start:
 425              	.LFB125:
 426              		.loc 1 419 0
 427              		.cfi_startproc
 428              		@ args = 0, pretend = 0, frame = 0
 429              		@ frame_needed = 0, uses_anonymous_args = 0
 430              	.LVL59:
 431 0000 38B5     		push	{r3, r4, r5, lr}
 432              	.LCFI2:
 433              		.cfi_def_cfa_offset 16
 434              		.cfi_offset 3, -16
 435              		.cfi_offset 4, -12
 436              		.cfi_offset 5, -8
 437              		.cfi_offset 14, -4
 438              		.loc 1 424 0
 439 0002 037A     		ldrb	r3, [r0, #8]	@ zero_extendqisi2
 440              		.loc 1 422 0
 441 0004 234C     		ldr	r4, .L58
 442 0006 0029     		cmp	r1, #0
 443 0008 18BF     		it	ne
 444 000a 0C46     		movne	r4, r1
 445              	.LVL60:
 446              		.loc 1 424 0
 447 000c 012B     		cmp	r3, #1
 448              		.loc 1 419 0
 449 000e 0546     		mov	r5, r0
 450              		.loc 1 424 0
 451 0010 30D0     		beq	.L57
 452              	.LVL61:
 453              	.L53:
 454              	.LBB49:
ARM GAS  /tmp/ccosgPvt.s 			page 9


 455              	.LBB50:
 456              		.loc 1 93 0
 457 0012 6B6F     		ldr	r3, [r5, #116]
 458              	.LVL62:
 459              		.loc 1 97 0
 460 0014 4FF4A051 		mov	r1, #5120
 461 0018 4FF48052 		mov	r2, #4096
 462 001c C4F20102 		movt	r2, 16385
 463 0020 C4F20101 		movt	r1, 16385
 464 0024 9342     		cmp	r3, r2
 465 0026 18BF     		it	ne
 466 0028 8B42     		cmpne	r3, r1
 467              		.loc 1 101 0
 468 002a 08BF     		it	eq
 469 002c 4FF43D42 		moveq	r2, #48384
 470 0030 2168     		ldr	r1, [r4, #0]
 471              		.loc 1 103 0
 472 0032 16BF     		itet	ne
 473 0034 4DF68062 		movwne	r2, #56960
 474              		.loc 1 101 0
 475 0038 C0F20152 		movteq	r2, 1281
 476              		.loc 1 103 0
 477 003c C0F28022 		movtne	r2, 640
 478 0040 B2FBF1F2 		udiv	r2, r2, r1
 479 0044 92B2     		uxth	r2, r2
 480 0046 1A81     		strh	r2, [r3, #8]	@ movhi
 481              		.loc 1 108 0
 482 0048 A288     		ldrh	r2, [r4, #4]
 483              		.loc 1 106 0
 484 004a E088     		ldrh	r0, [r4, #6]
 485              		.loc 1 107 0
 486 004c 2189     		ldrh	r1, [r4, #8]
 487              		.loc 1 108 0
 488 004e 42F40452 		orr	r2, r2, #8448
 489              		.loc 1 106 0
 490 0052 40F04000 		orr	r0, r0, #64
 491              		.loc 1 107 0
 492 0056 41F00101 		orr	r1, r1, #1
 493              		.loc 1 108 0
 494 005a 42F02C02 		orr	r2, r2, #44
 495 005e 92B2     		uxth	r2, r2
 496              		.loc 1 106 0
 497 0060 80B2     		uxth	r0, r0
 498              		.loc 1 107 0
 499 0062 89B2     		uxth	r1, r1
 500              		.loc 1 106 0
 501 0064 1882     		strh	r0, [r3, #16]	@ movhi
 502              		.loc 1 107 0
 503 0066 9982     		strh	r1, [r3, #20]	@ movhi
 504              		.loc 1 108 0
 505 0068 9A81     		strh	r2, [r3, #12]	@ movhi
 506              		.loc 1 111 0
 507 006a 0022     		movs	r2, #0
 508 006c 1A80     		strh	r2, [r3, #0]	@ movhi
 509              		.loc 1 112 0
 510 006e 1A88     		ldrh	r2, [r3, #0]
 511              		.loc 1 113 0
ARM GAS  /tmp/ccosgPvt.s 			page 10


 512 0070 9B88     		ldrh	r3, [r3, #4]
 513              	.LVL63:
 514 0072 38BD     		pop	{r3, r4, r5, pc}
 515              	.LVL64:
 516              	.L57:
 517              	.LBE50:
 518              	.LBE49:
 519              		.loc 1 461 0
 520 0074 084B     		ldr	r3, .L58+4
 521 0076 9842     		cmp	r0, r3
 522 0078 CBD1     		bne	.L53
 523              		.loc 1 462 0
 524 007a 4FF46053 		mov	r3, #14336
 525 007e C4F20203 		movt	r3, 16386
 526              		.loc 1 463 0
 527 0082 4720     		movs	r0, #71
 528              	.LVL65:
 529              		.loc 1 462 0
 530 0084 5A6C     		ldr	r2, [r3, #68]
 531 0086 42F02002 		orr	r2, r2, #32
 532 008a 5A64     		str	r2, [r3, #68]
 533              		.loc 1 463 0
 534 008c C021     		movs	r1, #192
 535 008e FFF7FEFF 		bl	nvicEnableVector
 536              	.LVL66:
 537 0092 BEE7     		b	.L53
 538              	.L59:
 539              		.align	2
 540              	.L58:
 541 0094 00000000 		.word	.LANCHOR1
 542 0098 00000000 		.word	.LANCHOR0
 543              		.cfi_endproc
 544              	.LFE125:
 545              		.size	sd_lld_start, .-sd_lld_start
 546 009c AFF30080 		.section	.text.sd_lld_stop,"ax",%progbits
 547              		.align	2
 548              		.p2align 4,,15
 549              		.global	sd_lld_stop
 550              		.thumb
 551              		.thumb_func
 552              		.type	sd_lld_stop, %function
 553              	sd_lld_stop:
 554              	.LFB126:
 555              		.loc 1 480 0
 556              		.cfi_startproc
 557              		@ args = 0, pretend = 0, frame = 0
 558              		@ frame_needed = 0, uses_anonymous_args = 0
 559              		@ link register save eliminated.
 560              	.LVL67:
 561              		.loc 1 482 0
 562 0000 037A     		ldrb	r3, [r0, #8]	@ zero_extendqisi2
 563 0002 022B     		cmp	r3, #2
 564 0004 00D0     		beq	.L64
 565              	.L60:
 566 0006 7047     		bx	lr
 567              	.L64:
 568              		.loc 1 483 0
ARM GAS  /tmp/ccosgPvt.s 			page 11


 569 0008 436F     		ldr	r3, [r0, #116]
 570              	.LVL68:
 571              	.LBB51:
 572              	.LBB52:
 573              		.loc 1 124 0
 574 000a 0022     		movs	r2, #0
 575 000c 9A81     		strh	r2, [r3, #12]	@ movhi
 576              		.loc 1 125 0
 577 000e 1A82     		strh	r2, [r3, #16]	@ movhi
 578              		.loc 1 126 0
 579 0010 9A82     		strh	r2, [r3, #20]	@ movhi
 580              	.LBE52:
 581              	.LBE51:
 582              		.loc 1 520 0
 583 0012 074B     		ldr	r3, .L65
 584              	.LVL69:
 585 0014 9842     		cmp	r0, r3
 586 0016 F6D1     		bne	.L60
 587              		.loc 1 521 0
 588 0018 4FF46053 		mov	r3, #14336
 589 001c C4F20203 		movt	r3, 16386
 590              		.loc 1 522 0
 591 0020 4720     		movs	r0, #71
 592              	.LVL70:
 593              		.loc 1 521 0
 594 0022 5A6C     		ldr	r2, [r3, #68]
 595 0024 22F02002 		bic	r2, r2, #32
 596 0028 5A64     		str	r2, [r3, #68]
 597              		.loc 1 527 0
 598              		.loc 1 522 0
 599 002a FFF7FEBF 		b	nvicDisableVector
 600              	.LVL71:
 601              	.L66:
 602 002e 00BF     		.align	2
 603              	.L65:
 604 0030 00000000 		.word	.LANCHOR0
 605              		.cfi_endproc
 606              	.LFE126:
 607              		.size	sd_lld_stop, .-sd_lld_stop
 608              		.global	SD6
 609 0034 AFF30080 		.section	.rodata.default_config,"a",%progbits
 609      AFF30080 
 609      AFF30080 
 610              		.align	2
 611              		.set	.LANCHOR1,. + 0
 612              		.type	default_config, %object
 613              		.size	default_config, 12
 614              	default_config:
 615 0000 00960000 		.word	38400
 616 0004 0000     		.short	0
 617 0006 0040     		.short	16384
 618 0008 0000     		.short	0
 619 000a 0000     		.space	2
 620              		.section	.bss.SD6,"aw",%nobits
 621              		.align	2
 622              		.set	.LANCHOR0,. + 0
 623              		.type	SD6, %object
ARM GAS  /tmp/ccosgPvt.s 			page 12


 624              		.size	SD6, 120
 625              	SD6:
 626 0000 00000000 		.space	120
 626      00000000 
 626      00000000 
 626      00000000 
 626      00000000 
 627              		.text
 628              	.Letext0:
 629              		.file 2 "/opt/psas/x-tools/stm32f407/arm-psas-eabi/bin/../lib/gcc/arm-psas-eabi/4.7.2/include/stdd
 630              		.file 3 "/opt/psas/x-tools/stm32f407/arm-psas-eabi/bin/../lib/gcc/arm-psas-eabi/4.7.2/../../../../
 631              		.file 4 "../../ChibiOS/os/ports/GCC/ARMCMx/chtypes.h"
 632              		.file 5 "../../ChibiOS/os/kernel/include/chlists.h"
 633              		.file 6 "../../ChibiOS/os/kernel/include/chthreads.h"
 634              		.file 7 "../../ChibiOS/os/ports/GCC/ARMCMx/chcore_v7m.h"
 635              		.file 8 "../../ChibiOS/os/kernel/include/chmtx.h"
 636              		.file 9 "../../ChibiOS/os/kernel/include/chevents.h"
 637              		.file 10 "../../ChibiOS/os/kernel/include/chqueues.h"
 638              		.file 11 "../../ChibiOS/os/hal/platforms/STM32F4xx/stm32f4xx.h"
 639              		.file 12 "../../ChibiOS/os/hal/include/serial.h"
 640              		.file 13 "../../ChibiOS/os/hal/platforms/STM32/USARTv1/serial_lld.h"
 641              		.file 14 "../../ChibiOS/os/kernel/include/chdebug.h"
 642              		.file 15 "../../ChibiOS/os/ports/common/ARMCMx/nvic.h"
 643              		.file 16 "../../ChibiOS/os/ports/common/ARMCMx/CMSIS/include/core_cm4.h"
 644              		.section	.debug_info,"",%progbits
 645              	.Ldebug_info0:
 646 0000 7F130000 		.4byte	0x137f
 647 0004 0200     		.2byte	0x2
 648 0006 00000000 		.4byte	.Ldebug_abbrev0
 649 000a 04       		.byte	0x4
 650 000b 01       		.uleb128 0x1
 651 000c CE000000 		.4byte	.LASF242
 652 0010 01       		.byte	0x1
 653 0011 51010000 		.4byte	.LASF243
 654 0015 AB050000 		.4byte	.LASF244
 655 0019 30000000 		.4byte	.Ldebug_ranges0+0x30
 656 001d 00000000 		.4byte	0
 657 0021 00000000 		.4byte	0
 658 0025 00000000 		.4byte	.Ldebug_line0
 659 0029 02       		.uleb128 0x2
 660 002a 04       		.byte	0x4
 661 002b 05       		.byte	0x5
 662 002c 696E7400 		.ascii	"int\000"
 663 0030 03       		.uleb128 0x3
 664 0031 00000000 		.4byte	.LASF2
 665 0035 02       		.byte	0x2
 666 0036 D5       		.byte	0xd5
 667 0037 3B000000 		.4byte	0x3b
 668 003b 04       		.uleb128 0x4
 669 003c 04       		.byte	0x4
 670 003d 07       		.byte	0x7
 671 003e EC060000 		.4byte	.LASF0
 672 0042 04       		.uleb128 0x4
 673 0043 01       		.byte	0x1
 674 0044 06       		.byte	0x6
 675 0045 7B020000 		.4byte	.LASF1
 676 0049 03       		.uleb128 0x3
ARM GAS  /tmp/ccosgPvt.s 			page 13


 677 004a 91020000 		.4byte	.LASF3
 678 004e 03       		.byte	0x3
 679 004f 2A       		.byte	0x2a
 680 0050 54000000 		.4byte	0x54
 681 0054 04       		.uleb128 0x4
 682 0055 01       		.byte	0x1
 683 0056 08       		.byte	0x8
 684 0057 D3020000 		.4byte	.LASF4
 685 005b 04       		.uleb128 0x4
 686 005c 02       		.byte	0x2
 687 005d 05       		.byte	0x5
 688 005e B8090000 		.4byte	.LASF5
 689 0062 03       		.uleb128 0x3
 690 0063 9C080000 		.4byte	.LASF6
 691 0067 03       		.byte	0x3
 692 0068 36       		.byte	0x36
 693 0069 6D000000 		.4byte	0x6d
 694 006d 04       		.uleb128 0x4
 695 006e 02       		.byte	0x2
 696 006f 07       		.byte	0x7
 697 0070 A00A0000 		.4byte	.LASF7
 698 0074 03       		.uleb128 0x3
 699 0075 51000000 		.4byte	.LASF8
 700 0079 03       		.byte	0x3
 701 007a 4F       		.byte	0x4f
 702 007b 7F000000 		.4byte	0x7f
 703 007f 04       		.uleb128 0x4
 704 0080 04       		.byte	0x4
 705 0081 05       		.byte	0x5
 706 0082 CF010000 		.4byte	.LASF9
 707 0086 03       		.uleb128 0x3
 708 0087 5D0A0000 		.4byte	.LASF10
 709 008b 03       		.byte	0x3
 710 008c 50       		.byte	0x50
 711 008d 91000000 		.4byte	0x91
 712 0091 04       		.uleb128 0x4
 713 0092 04       		.byte	0x4
 714 0093 07       		.byte	0x7
 715 0094 EB040000 		.4byte	.LASF11
 716 0098 04       		.uleb128 0x4
 717 0099 08       		.byte	0x8
 718 009a 05       		.byte	0x5
 719 009b 0B060000 		.4byte	.LASF12
 720 009f 03       		.uleb128 0x3
 721 00a0 C2090000 		.4byte	.LASF13
 722 00a4 03       		.byte	0x3
 723 00a5 78       		.byte	0x78
 724 00a6 AA000000 		.4byte	0xaa
 725 00aa 04       		.uleb128 0x4
 726 00ab 08       		.byte	0x8
 727 00ac 07       		.byte	0x7
 728 00ad 7D080000 		.4byte	.LASF14
 729 00b1 04       		.uleb128 0x4
 730 00b2 01       		.byte	0x1
 731 00b3 02       		.byte	0x2
 732 00b4 33030000 		.4byte	.LASF15
 733 00b8 03       		.uleb128 0x3
ARM GAS  /tmp/ccosgPvt.s 			page 14


 734 00b9 22090000 		.4byte	.LASF16
 735 00bd 04       		.byte	0x4
 736 00be 25       		.byte	0x25
 737 00bf 49000000 		.4byte	0x49
 738 00c3 03       		.uleb128 0x3
 739 00c4 0F020000 		.4byte	.LASF17
 740 00c8 04       		.byte	0x4
 741 00c9 26       		.byte	0x26
 742 00ca 49000000 		.4byte	0x49
 743 00ce 03       		.uleb128 0x3
 744 00cf 140A0000 		.4byte	.LASF18
 745 00d3 04       		.byte	0x4
 746 00d4 27       		.byte	0x27
 747 00d5 49000000 		.4byte	0x49
 748 00d9 03       		.uleb128 0x3
 749 00da C1080000 		.4byte	.LASF19
 750 00de 04       		.byte	0x4
 751 00df 28       		.byte	0x28
 752 00e0 49000000 		.4byte	0x49
 753 00e4 03       		.uleb128 0x3
 754 00e5 3E000000 		.4byte	.LASF20
 755 00e9 04       		.byte	0x4
 756 00ea 29       		.byte	0x29
 757 00eb 86000000 		.4byte	0x86
 758 00ef 03       		.uleb128 0x3
 759 00f0 A5080000 		.4byte	.LASF21
 760 00f4 04       		.byte	0x4
 761 00f5 2A       		.byte	0x2a
 762 00f6 74000000 		.4byte	0x74
 763 00fa 03       		.uleb128 0x3
 764 00fb 99020000 		.4byte	.LASF22
 765 00ff 04       		.byte	0x4
 766 0100 2C       		.byte	0x2c
 767 0101 86000000 		.4byte	0x86
 768 0105 03       		.uleb128 0x3
 769 0106 70070000 		.4byte	.LASF23
 770 010a 04       		.byte	0x4
 771 010b 2D       		.byte	0x2d
 772 010c 86000000 		.4byte	0x86
 773 0110 03       		.uleb128 0x3
 774 0111 23000000 		.4byte	.LASF24
 775 0115 04       		.byte	0x4
 776 0116 2E       		.byte	0x2e
 777 0117 86000000 		.4byte	0x86
 778 011b 03       		.uleb128 0x3
 779 011c ED090000 		.4byte	.LASF25
 780 0120 05       		.byte	0x5
 781 0121 23       		.byte	0x23
 782 0122 26010000 		.4byte	0x126
 783 0126 05       		.uleb128 0x5
 784 0127 ED090000 		.4byte	.LASF25
 785 012b 4C       		.byte	0x4c
 786 012c 06       		.byte	0x6
 787 012d 57       		.byte	0x57
 788 012e 59020000 		.4byte	0x259
 789 0132 06       		.uleb128 0x6
 790 0133 D8010000 		.4byte	.LASF26
ARM GAS  /tmp/ccosgPvt.s 			page 15


 791 0137 06       		.byte	0x6
 792 0138 58       		.byte	0x58
 793 0139 7E020000 		.4byte	0x27e
 794 013d 02       		.byte	0x2
 795 013e 23       		.byte	0x23
 796 013f 00       		.uleb128 0
 797 0140 06       		.uleb128 0x6
 798 0141 E7010000 		.4byte	.LASF27
 799 0145 06       		.byte	0x6
 800 0146 5A       		.byte	0x5a
 801 0147 7E020000 		.4byte	0x27e
 802 014b 02       		.byte	0x2
 803 014c 23       		.byte	0x23
 804 014d 04       		.uleb128 0x4
 805 014e 06       		.uleb128 0x6
 806 014f 76030000 		.4byte	.LASF28
 807 0153 06       		.byte	0x6
 808 0154 5C       		.byte	0x5c
 809 0155 E4000000 		.4byte	0xe4
 810 0159 02       		.byte	0x2
 811 015a 23       		.byte	0x23
 812 015b 08       		.uleb128 0x8
 813 015c 06       		.uleb128 0x6
 814 015d 38000000 		.4byte	.LASF29
 815 0161 06       		.byte	0x6
 816 0162 5D       		.byte	0x5d
 817 0163 57030000 		.4byte	0x357
 818 0167 02       		.byte	0x2
 819 0168 23       		.byte	0x23
 820 0169 0C       		.uleb128 0xc
 821 016a 06       		.uleb128 0x6
 822 016b C7010000 		.4byte	.LASF30
 823 016f 06       		.byte	0x6
 824 0170 5F       		.byte	0x5f
 825 0171 7E020000 		.4byte	0x27e
 826 0175 02       		.byte	0x2
 827 0176 23       		.byte	0x23
 828 0177 10       		.uleb128 0x10
 829 0178 06       		.uleb128 0x6
 830 0179 94080000 		.4byte	.LASF31
 831 017d 06       		.byte	0x6
 832 017e 60       		.byte	0x60
 833 017f 7E020000 		.4byte	0x27e
 834 0183 02       		.byte	0x2
 835 0184 23       		.byte	0x23
 836 0185 14       		.uleb128 0x14
 837 0186 06       		.uleb128 0x6
 838 0187 410B0000 		.4byte	.LASF32
 839 018b 06       		.byte	0x6
 840 018c 67       		.byte	0x67
 841 018d 84040000 		.4byte	0x484
 842 0191 02       		.byte	0x2
 843 0192 23       		.byte	0x23
 844 0193 18       		.uleb128 0x18
 845 0194 06       		.uleb128 0x6
 846 0195 0B0B0000 		.4byte	.LASF33
 847 0199 06       		.byte	0x6
ARM GAS  /tmp/ccosgPvt.s 			page 16


 848 019a 6D       		.byte	0x6d
 849 019b 96040000 		.4byte	0x496
 850 019f 02       		.byte	0x2
 851 01a0 23       		.byte	0x23
 852 01a1 1C       		.uleb128 0x1c
 853 01a2 06       		.uleb128 0x6
 854 01a3 7B0B0000 		.4byte	.LASF34
 855 01a7 06       		.byte	0x6
 856 01a8 72       		.byte	0x72
 857 01a9 C3000000 		.4byte	0xc3
 858 01ad 02       		.byte	0x2
 859 01ae 23       		.byte	0x23
 860 01af 20       		.uleb128 0x20
 861 01b0 06       		.uleb128 0x6
 862 01b1 DF060000 		.4byte	.LASF35
 863 01b5 06       		.byte	0x6
 864 01b6 76       		.byte	0x76
 865 01b7 B8000000 		.4byte	0xb8
 866 01bb 02       		.byte	0x2
 867 01bc 23       		.byte	0x23
 868 01bd 21       		.uleb128 0x21
 869 01be 06       		.uleb128 0x6
 870 01bf 1C070000 		.4byte	.LASF36
 871 01c3 06       		.byte	0x6
 872 01c4 7B       		.byte	0x7b
 873 01c5 CE000000 		.4byte	0xce
 874 01c9 02       		.byte	0x2
 875 01ca 23       		.byte	0x23
 876 01cb 22       		.uleb128 0x22
 877 01cc 06       		.uleb128 0x6
 878 01cd 87020000 		.4byte	.LASF37
 879 01d1 06       		.byte	0x6
 880 01d2 81       		.byte	0x81
 881 01d3 D9000000 		.4byte	0xd9
 882 01d7 02       		.byte	0x2
 883 01d8 23       		.byte	0x23
 884 01d9 23       		.uleb128 0x23
 885 01da 06       		.uleb128 0x6
 886 01db 9B070000 		.4byte	.LASF38
 887 01df 06       		.byte	0x6
 888 01e0 88       		.byte	0x88
 889 01e1 86030000 		.4byte	0x386
 890 01e5 02       		.byte	0x2
 891 01e6 23       		.byte	0x23
 892 01e7 24       		.uleb128 0x24
 893 01e8 07       		.uleb128 0x7
 894 01e9 705F7500 		.ascii	"p_u\000"
 895 01ed 06       		.byte	0x6
 896 01ee AD       		.byte	0xad
 897 01ef 4F040000 		.4byte	0x44f
 898 01f3 02       		.byte	0x2
 899 01f4 23       		.byte	0x23
 900 01f5 28       		.uleb128 0x28
 901 01f6 06       		.uleb128 0x6
 902 01f7 AC060000 		.4byte	.LASF39
 903 01fb 06       		.byte	0x6
 904 01fc B2       		.byte	0xb2
ARM GAS  /tmp/ccosgPvt.s 			page 17


 905 01fd A6020000 		.4byte	0x2a6
 906 0201 02       		.byte	0x2
 907 0202 23       		.byte	0x23
 908 0203 2C       		.uleb128 0x2c
 909 0204 06       		.uleb128 0x6
 910 0205 46000000 		.4byte	.LASF40
 911 0209 06       		.byte	0x6
 912 020a B8       		.byte	0xb8
 913 020b 84020000 		.4byte	0x284
 914 020f 02       		.byte	0x2
 915 0210 23       		.byte	0x23
 916 0211 30       		.uleb128 0x30
 917 0212 06       		.uleb128 0x6
 918 0213 690B0000 		.4byte	.LASF41
 919 0217 06       		.byte	0x6
 920 0218 BC       		.byte	0xbc
 921 0219 EF000000 		.4byte	0xef
 922 021d 02       		.byte	0x2
 923 021e 23       		.byte	0x23
 924 021f 38       		.uleb128 0x38
 925 0220 06       		.uleb128 0x6
 926 0221 2C040000 		.4byte	.LASF42
 927 0225 06       		.byte	0x6
 928 0226 C2       		.byte	0xc2
 929 0227 FA000000 		.4byte	0xfa
 930 022b 02       		.byte	0x2
 931 022c 23       		.byte	0x23
 932 022d 3C       		.uleb128 0x3c
 933 022e 06       		.uleb128 0x6
 934 022f 18020000 		.4byte	.LASF43
 935 0233 06       		.byte	0x6
 936 0234 C9       		.byte	0xc9
 937 0235 9C040000 		.4byte	0x49c
 938 0239 02       		.byte	0x2
 939 023a 23       		.byte	0x23
 940 023b 40       		.uleb128 0x40
 941 023c 06       		.uleb128 0x6
 942 023d E9070000 		.4byte	.LASF44
 943 0241 06       		.byte	0x6
 944 0242 CD       		.byte	0xcd
 945 0243 E4000000 		.4byte	0xe4
 946 0247 02       		.byte	0x2
 947 0248 23       		.byte	0x23
 948 0249 44       		.uleb128 0x44
 949 024a 06       		.uleb128 0x6
 950 024b 07070000 		.4byte	.LASF45
 951 024f 06       		.byte	0x6
 952 0250 D3       		.byte	0xd3
 953 0251 BC020000 		.4byte	0x2bc
 954 0255 02       		.byte	0x2
 955 0256 23       		.byte	0x23
 956 0257 48       		.uleb128 0x48
 957 0258 00       		.byte	0
 958 0259 08       		.uleb128 0x8
 959 025a 08       		.byte	0x8
 960 025b 05       		.byte	0x5
 961 025c 5A       		.byte	0x5a
ARM GAS  /tmp/ccosgPvt.s 			page 18


 962 025d 7E020000 		.4byte	0x27e
 963 0261 06       		.uleb128 0x6
 964 0262 D8010000 		.4byte	.LASF26
 965 0266 05       		.byte	0x5
 966 0267 5B       		.byte	0x5b
 967 0268 7E020000 		.4byte	0x27e
 968 026c 02       		.byte	0x2
 969 026d 23       		.byte	0x23
 970 026e 00       		.uleb128 0
 971 026f 06       		.uleb128 0x6
 972 0270 E7010000 		.4byte	.LASF27
 973 0274 05       		.byte	0x5
 974 0275 5D       		.byte	0x5d
 975 0276 7E020000 		.4byte	0x27e
 976 027a 02       		.byte	0x2
 977 027b 23       		.byte	0x23
 978 027c 04       		.uleb128 0x4
 979 027d 00       		.byte	0
 980 027e 09       		.uleb128 0x9
 981 027f 04       		.byte	0x4
 982 0280 1B010000 		.4byte	0x11b
 983 0284 03       		.uleb128 0x3
 984 0285 740A0000 		.4byte	.LASF46
 985 0289 05       		.byte	0x5
 986 028a 5F       		.byte	0x5f
 987 028b 59020000 		.4byte	0x259
 988 028f 08       		.uleb128 0x8
 989 0290 04       		.byte	0x4
 990 0291 05       		.byte	0x5
 991 0292 64       		.byte	0x64
 992 0293 A6020000 		.4byte	0x2a6
 993 0297 06       		.uleb128 0x6
 994 0298 D8010000 		.4byte	.LASF26
 995 029c 05       		.byte	0x5
 996 029d 66       		.byte	0x66
 997 029e 7E020000 		.4byte	0x27e
 998 02a2 02       		.byte	0x2
 999 02a3 23       		.byte	0x23
 1000 02a4 00       		.uleb128 0
 1001 02a5 00       		.byte	0
 1002 02a6 03       		.uleb128 0x3
 1003 02a7 48070000 		.4byte	.LASF47
 1004 02ab 05       		.byte	0x5
 1005 02ac 69       		.byte	0x69
 1006 02ad 8F020000 		.4byte	0x28f
 1007 02b1 03       		.uleb128 0x3
 1008 02b2 41020000 		.4byte	.LASF48
 1009 02b6 07       		.byte	0x7
 1010 02b7 DE       		.byte	0xde
 1011 02b8 BC020000 		.4byte	0x2bc
 1012 02bc 0A       		.uleb128 0xa
 1013 02bd 04       		.byte	0x4
 1014 02be 03       		.uleb128 0x3
 1015 02bf AC030000 		.4byte	.LASF49
 1016 02c3 07       		.byte	0x7
 1017 02c4 E4       		.byte	0xe4
 1018 02c5 9F000000 		.4byte	0x9f
ARM GAS  /tmp/ccosgPvt.s 			page 19


 1019 02c9 0B       		.uleb128 0xb
 1020 02ca 25040000 		.4byte	.LASF50
 1021 02ce 24       		.byte	0x24
 1022 02cf 07       		.byte	0x7
 1023 02d0 0501     		.2byte	0x105
 1024 02d2 57030000 		.4byte	0x357
 1025 02d6 0C       		.uleb128 0xc
 1026 02d7 723400   		.ascii	"r4\000"
 1027 02da 07       		.byte	0x7
 1028 02db 1801     		.2byte	0x118
 1029 02dd B1020000 		.4byte	0x2b1
 1030 02e1 02       		.byte	0x2
 1031 02e2 23       		.byte	0x23
 1032 02e3 00       		.uleb128 0
 1033 02e4 0C       		.uleb128 0xc
 1034 02e5 723500   		.ascii	"r5\000"
 1035 02e8 07       		.byte	0x7
 1036 02e9 1901     		.2byte	0x119
 1037 02eb B1020000 		.4byte	0x2b1
 1038 02ef 02       		.byte	0x2
 1039 02f0 23       		.byte	0x23
 1040 02f1 04       		.uleb128 0x4
 1041 02f2 0C       		.uleb128 0xc
 1042 02f3 723600   		.ascii	"r6\000"
 1043 02f6 07       		.byte	0x7
 1044 02f7 1A01     		.2byte	0x11a
 1045 02f9 B1020000 		.4byte	0x2b1
 1046 02fd 02       		.byte	0x2
 1047 02fe 23       		.byte	0x23
 1048 02ff 08       		.uleb128 0x8
 1049 0300 0C       		.uleb128 0xc
 1050 0301 723700   		.ascii	"r7\000"
 1051 0304 07       		.byte	0x7
 1052 0305 1B01     		.2byte	0x11b
 1053 0307 B1020000 		.4byte	0x2b1
 1054 030b 02       		.byte	0x2
 1055 030c 23       		.byte	0x23
 1056 030d 0C       		.uleb128 0xc
 1057 030e 0C       		.uleb128 0xc
 1058 030f 723800   		.ascii	"r8\000"
 1059 0312 07       		.byte	0x7
 1060 0313 1C01     		.2byte	0x11c
 1061 0315 B1020000 		.4byte	0x2b1
 1062 0319 02       		.byte	0x2
 1063 031a 23       		.byte	0x23
 1064 031b 10       		.uleb128 0x10
 1065 031c 0C       		.uleb128 0xc
 1066 031d 723900   		.ascii	"r9\000"
 1067 0320 07       		.byte	0x7
 1068 0321 1D01     		.2byte	0x11d
 1069 0323 B1020000 		.4byte	0x2b1
 1070 0327 02       		.byte	0x2
 1071 0328 23       		.byte	0x23
 1072 0329 14       		.uleb128 0x14
 1073 032a 0C       		.uleb128 0xc
 1074 032b 72313000 		.ascii	"r10\000"
 1075 032f 07       		.byte	0x7
ARM GAS  /tmp/ccosgPvt.s 			page 20


 1076 0330 1E01     		.2byte	0x11e
 1077 0332 B1020000 		.4byte	0x2b1
 1078 0336 02       		.byte	0x2
 1079 0337 23       		.byte	0x23
 1080 0338 18       		.uleb128 0x18
 1081 0339 0C       		.uleb128 0xc
 1082 033a 72313100 		.ascii	"r11\000"
 1083 033e 07       		.byte	0x7
 1084 033f 1F01     		.2byte	0x11f
 1085 0341 B1020000 		.4byte	0x2b1
 1086 0345 02       		.byte	0x2
 1087 0346 23       		.byte	0x23
 1088 0347 1C       		.uleb128 0x1c
 1089 0348 0C       		.uleb128 0xc
 1090 0349 6C7200   		.ascii	"lr\000"
 1091 034c 07       		.byte	0x7
 1092 034d 2001     		.2byte	0x120
 1093 034f B1020000 		.4byte	0x2b1
 1094 0353 02       		.byte	0x2
 1095 0354 23       		.byte	0x23
 1096 0355 20       		.uleb128 0x20
 1097 0356 00       		.byte	0
 1098 0357 0B       		.uleb128 0xb
 1099 0358 A5020000 		.4byte	.LASF51
 1100 035c 04       		.byte	0x4
 1101 035d 07       		.byte	0x7
 1102 035e 2A01     		.2byte	0x12a
 1103 0360 74030000 		.4byte	0x374
 1104 0364 0C       		.uleb128 0xc
 1105 0365 72313300 		.ascii	"r13\000"
 1106 0369 07       		.byte	0x7
 1107 036a 2B01     		.2byte	0x12b
 1108 036c 74030000 		.4byte	0x374
 1109 0370 02       		.byte	0x2
 1110 0371 23       		.byte	0x23
 1111 0372 00       		.uleb128 0
 1112 0373 00       		.byte	0
 1113 0374 09       		.uleb128 0x9
 1114 0375 04       		.byte	0x4
 1115 0376 C9020000 		.4byte	0x2c9
 1116 037a 0D       		.uleb128 0xd
 1117 037b 86000000 		.4byte	0x86
 1118 037f 04       		.uleb128 0x4
 1119 0380 04       		.byte	0x4
 1120 0381 07       		.byte	0x7
 1121 0382 1A000000 		.4byte	.LASF52
 1122 0386 0D       		.uleb128 0xd
 1123 0387 10010000 		.4byte	0x110
 1124 038b 05       		.uleb128 0x5
 1125 038c EB050000 		.4byte	.LASF53
 1126 0390 10       		.byte	0x10
 1127 0391 08       		.byte	0x8
 1128 0392 25       		.byte	0x25
 1129 0393 C2030000 		.4byte	0x3c2
 1130 0397 06       		.uleb128 0x6
 1131 0398 3D060000 		.4byte	.LASF54
 1132 039c 08       		.byte	0x8
ARM GAS  /tmp/ccosgPvt.s 			page 21


 1133 039d 26       		.byte	0x26
 1134 039e 84020000 		.4byte	0x284
 1135 03a2 02       		.byte	0x2
 1136 03a3 23       		.byte	0x23
 1137 03a4 00       		.uleb128 0
 1138 03a5 06       		.uleb128 0x6
 1139 03a6 0E010000 		.4byte	.LASF55
 1140 03aa 08       		.byte	0x8
 1141 03ab 28       		.byte	0x28
 1142 03ac 7E020000 		.4byte	0x27e
 1143 03b0 02       		.byte	0x2
 1144 03b1 23       		.byte	0x23
 1145 03b2 08       		.uleb128 0x8
 1146 03b3 06       		.uleb128 0x6
 1147 03b4 480B0000 		.4byte	.LASF56
 1148 03b8 08       		.byte	0x8
 1149 03b9 2A       		.byte	0x2a
 1150 03ba C2030000 		.4byte	0x3c2
 1151 03be 02       		.byte	0x2
 1152 03bf 23       		.byte	0x23
 1153 03c0 0C       		.uleb128 0xc
 1154 03c1 00       		.byte	0
 1155 03c2 09       		.uleb128 0x9
 1156 03c3 04       		.byte	0x4
 1157 03c4 8B030000 		.4byte	0x38b
 1158 03c8 03       		.uleb128 0x3
 1159 03c9 EB050000 		.4byte	.LASF53
 1160 03cd 08       		.byte	0x8
 1161 03ce 2C       		.byte	0x2c
 1162 03cf 8B030000 		.4byte	0x38b
 1163 03d3 03       		.uleb128 0x3
 1164 03d4 3E0A0000 		.4byte	.LASF57
 1165 03d8 09       		.byte	0x9
 1166 03d9 25       		.byte	0x25
 1167 03da DE030000 		.4byte	0x3de
 1168 03de 05       		.uleb128 0x5
 1169 03df 3E0A0000 		.4byte	.LASF57
 1170 03e3 10       		.byte	0x10
 1171 03e4 09       		.byte	0x9
 1172 03e5 2A       		.byte	0x2a
 1173 03e6 23040000 		.4byte	0x423
 1174 03ea 06       		.uleb128 0x6
 1175 03eb 31050000 		.4byte	.LASF58
 1176 03ef 09       		.byte	0x9
 1177 03f0 2B       		.byte	0x2b
 1178 03f1 23040000 		.4byte	0x423
 1179 03f5 02       		.byte	0x2
 1180 03f6 23       		.byte	0x23
 1181 03f7 00       		.uleb128 0
 1182 03f8 06       		.uleb128 0x6
 1183 03f9 6F0B0000 		.4byte	.LASF59
 1184 03fd 09       		.byte	0x9
 1185 03fe 2E       		.byte	0x2e
 1186 03ff 7E020000 		.4byte	0x27e
 1187 0403 02       		.byte	0x2
 1188 0404 23       		.byte	0x23
 1189 0405 04       		.uleb128 0x4
ARM GAS  /tmp/ccosgPvt.s 			page 22


 1190 0406 06       		.uleb128 0x6
 1191 0407 390B0000 		.4byte	.LASF60
 1192 040b 09       		.byte	0x9
 1193 040c 30       		.byte	0x30
 1194 040d FA000000 		.4byte	0xfa
 1195 0411 02       		.byte	0x2
 1196 0412 23       		.byte	0x23
 1197 0413 08       		.uleb128 0x8
 1198 0414 06       		.uleb128 0x6
 1199 0415 A9000000 		.4byte	.LASF61
 1200 0419 09       		.byte	0x9
 1201 041a 33       		.byte	0x33
 1202 041b 05010000 		.4byte	0x105
 1203 041f 02       		.byte	0x2
 1204 0420 23       		.byte	0x23
 1205 0421 0C       		.uleb128 0xc
 1206 0422 00       		.byte	0
 1207 0423 09       		.uleb128 0x9
 1208 0424 04       		.byte	0x4
 1209 0425 D3030000 		.4byte	0x3d3
 1210 0429 05       		.uleb128 0x5
 1211 042a D5040000 		.4byte	.LASF62
 1212 042e 04       		.byte	0x4
 1213 042f 09       		.byte	0x9
 1214 0430 3A       		.byte	0x3a
 1215 0431 44040000 		.4byte	0x444
 1216 0435 06       		.uleb128 0x6
 1217 0436 99040000 		.4byte	.LASF63
 1218 043a 09       		.byte	0x9
 1219 043b 3B       		.byte	0x3b
 1220 043c 23040000 		.4byte	0x423
 1221 0440 02       		.byte	0x2
 1222 0441 23       		.byte	0x23
 1223 0442 00       		.uleb128 0
 1224 0443 00       		.byte	0
 1225 0444 03       		.uleb128 0x3
 1226 0445 D5040000 		.4byte	.LASF62
 1227 0449 09       		.byte	0x9
 1228 044a 3E       		.byte	0x3e
 1229 044b 29040000 		.4byte	0x429
 1230 044f 0E       		.uleb128 0xe
 1231 0450 04       		.byte	0x4
 1232 0451 06       		.byte	0x6
 1233 0452 8F       		.byte	0x8f
 1234 0453 84040000 		.4byte	0x484
 1235 0457 0F       		.uleb128 0xf
 1236 0458 8E0A0000 		.4byte	.LASF64
 1237 045c 06       		.byte	0x6
 1238 045d 96       		.byte	0x96
 1239 045e EF000000 		.4byte	0xef
 1240 0462 0F       		.uleb128 0xf
 1241 0463 16010000 		.4byte	.LASF65
 1242 0467 06       		.byte	0x6
 1243 0468 9D       		.byte	0x9d
 1244 0469 EF000000 		.4byte	0xef
 1245 046d 0F       		.uleb128 0xf
 1246 046e 92030000 		.4byte	.LASF66
ARM GAS  /tmp/ccosgPvt.s 			page 23


 1247 0472 06       		.byte	0x6
 1248 0473 A4       		.byte	0xa4
 1249 0474 BC020000 		.4byte	0x2bc
 1250 0478 0F       		.uleb128 0xf
 1251 0479 36010000 		.4byte	.LASF67
 1252 047d 06       		.byte	0x6
 1253 047e AB       		.byte	0xab
 1254 047f FA000000 		.4byte	0xfa
 1255 0483 00       		.byte	0
 1256 0484 09       		.uleb128 0x9
 1257 0485 04       		.byte	0x4
 1258 0486 8A040000 		.4byte	0x48a
 1259 048a 10       		.uleb128 0x10
 1260 048b 8F040000 		.4byte	0x48f
 1261 048f 04       		.uleb128 0x4
 1262 0490 01       		.byte	0x1
 1263 0491 08       		.byte	0x8
 1264 0492 71030000 		.4byte	.LASF68
 1265 0496 09       		.uleb128 0x9
 1266 0497 04       		.byte	0x4
 1267 0498 BE020000 		.4byte	0x2be
 1268 049c 09       		.uleb128 0x9
 1269 049d 04       		.byte	0x4
 1270 049e C8030000 		.4byte	0x3c8
 1271 04a2 09       		.uleb128 0x9
 1272 04a3 04       		.byte	0x4
 1273 04a4 A8040000 		.4byte	0x4a8
 1274 04a8 11       		.uleb128 0x11
 1275 04a9 01       		.byte	0x1
 1276 04aa EF000000 		.4byte	0xef
 1277 04ae B8040000 		.4byte	0x4b8
 1278 04b2 12       		.uleb128 0x12
 1279 04b3 BC020000 		.4byte	0x2bc
 1280 04b7 00       		.byte	0
 1281 04b8 03       		.uleb128 0x3
 1282 04b9 85030000 		.4byte	.LASF69
 1283 04bd 0A       		.byte	0xa
 1284 04be 30       		.byte	0x30
 1285 04bf C3040000 		.4byte	0x4c3
 1286 04c3 05       		.uleb128 0x5
 1287 04c4 85030000 		.4byte	.LASF69
 1288 04c8 24       		.byte	0x24
 1289 04c9 0A       		.byte	0xa
 1290 04ca 3E       		.byte	0x3e
 1291 04cb 40050000 		.4byte	0x540
 1292 04cf 06       		.uleb128 0x6
 1293 04d0 0D090000 		.4byte	.LASF70
 1294 04d4 0A       		.byte	0xa
 1295 04d5 3F       		.byte	0x3f
 1296 04d6 84020000 		.4byte	0x284
 1297 04da 02       		.byte	0x2
 1298 04db 23       		.byte	0x23
 1299 04dc 00       		.uleb128 0
 1300 04dd 06       		.uleb128 0x6
 1301 04de A1040000 		.4byte	.LASF71
 1302 04e2 0A       		.byte	0xa
 1303 04e3 40       		.byte	0x40
ARM GAS  /tmp/ccosgPvt.s 			page 24


 1304 04e4 30000000 		.4byte	0x30
 1305 04e8 02       		.byte	0x2
 1306 04e9 23       		.byte	0x23
 1307 04ea 08       		.uleb128 0x8
 1308 04eb 06       		.uleb128 0x6
 1309 04ec A8010000 		.4byte	.LASF72
 1310 04f0 0A       		.byte	0xa
 1311 04f1 41       		.byte	0x41
 1312 04f2 63050000 		.4byte	0x563
 1313 04f6 02       		.byte	0x2
 1314 04f7 23       		.byte	0x23
 1315 04f8 0C       		.uleb128 0xc
 1316 04f9 06       		.uleb128 0x6
 1317 04fa 30010000 		.4byte	.LASF73
 1318 04fe 0A       		.byte	0xa
 1319 04ff 42       		.byte	0x42
 1320 0500 63050000 		.4byte	0x563
 1321 0504 02       		.byte	0x2
 1322 0505 23       		.byte	0x23
 1323 0506 10       		.uleb128 0x10
 1324 0507 06       		.uleb128 0x6
 1325 0508 39050000 		.4byte	.LASF74
 1326 050c 0A       		.byte	0xa
 1327 050d 44       		.byte	0x44
 1328 050e 63050000 		.4byte	0x563
 1329 0512 02       		.byte	0x2
 1330 0513 23       		.byte	0x23
 1331 0514 14       		.uleb128 0x14
 1332 0515 06       		.uleb128 0x6
 1333 0516 DF010000 		.4byte	.LASF75
 1334 051a 0A       		.byte	0xa
 1335 051b 45       		.byte	0x45
 1336 051c 63050000 		.4byte	0x563
 1337 0520 02       		.byte	0x2
 1338 0521 23       		.byte	0x23
 1339 0522 18       		.uleb128 0x18
 1340 0523 06       		.uleb128 0x6
 1341 0524 B1010000 		.4byte	.LASF76
 1342 0528 0A       		.byte	0xa
 1343 0529 46       		.byte	0x46
 1344 052a 40050000 		.4byte	0x540
 1345 052e 02       		.byte	0x2
 1346 052f 23       		.byte	0x23
 1347 0530 1C       		.uleb128 0x1c
 1348 0531 06       		.uleb128 0x6
 1349 0532 FD020000 		.4byte	.LASF77
 1350 0536 0A       		.byte	0xa
 1351 0537 47       		.byte	0x47
 1352 0538 BC020000 		.4byte	0x2bc
 1353 053c 02       		.byte	0x2
 1354 053d 23       		.byte	0x23
 1355 053e 20       		.uleb128 0x20
 1356 053f 00       		.byte	0
 1357 0540 03       		.uleb128 0x3
 1358 0541 A2060000 		.4byte	.LASF78
 1359 0545 0A       		.byte	0xa
 1360 0546 33       		.byte	0x33
ARM GAS  /tmp/ccosgPvt.s 			page 25


 1361 0547 4B050000 		.4byte	0x54b
 1362 054b 09       		.uleb128 0x9
 1363 054c 04       		.byte	0x4
 1364 054d 51050000 		.4byte	0x551
 1365 0551 13       		.uleb128 0x13
 1366 0552 01       		.byte	0x1
 1367 0553 5D050000 		.4byte	0x55d
 1368 0557 12       		.uleb128 0x12
 1369 0558 5D050000 		.4byte	0x55d
 1370 055c 00       		.byte	0
 1371 055d 09       		.uleb128 0x9
 1372 055e 04       		.byte	0x4
 1373 055f B8040000 		.4byte	0x4b8
 1374 0563 09       		.uleb128 0x9
 1375 0564 04       		.byte	0x4
 1376 0565 49000000 		.4byte	0x49
 1377 0569 03       		.uleb128 0x3
 1378 056a D60A0000 		.4byte	.LASF79
 1379 056e 0A       		.byte	0xa
 1380 056f 7B       		.byte	0x7b
 1381 0570 B8040000 		.4byte	0x4b8
 1382 0574 03       		.uleb128 0x3
 1383 0575 C5030000 		.4byte	.LASF80
 1384 0579 0A       		.byte	0xa
 1385 057a EE       		.byte	0xee
 1386 057b B8040000 		.4byte	0x4b8
 1387 057f 11       		.uleb128 0x11
 1388 0580 01       		.byte	0x1
 1389 0581 30000000 		.4byte	0x30
 1390 0585 99050000 		.4byte	0x599
 1391 0589 12       		.uleb128 0x12
 1392 058a BC020000 		.4byte	0x2bc
 1393 058e 12       		.uleb128 0x12
 1394 058f 99050000 		.4byte	0x599
 1395 0593 12       		.uleb128 0x12
 1396 0594 30000000 		.4byte	0x30
 1397 0598 00       		.byte	0
 1398 0599 09       		.uleb128 0x9
 1399 059a 04       		.byte	0x4
 1400 059b 9F050000 		.4byte	0x59f
 1401 059f 10       		.uleb128 0x10
 1402 05a0 49000000 		.4byte	0x49
 1403 05a4 09       		.uleb128 0x9
 1404 05a5 04       		.byte	0x4
 1405 05a6 7F050000 		.4byte	0x57f
 1406 05aa 11       		.uleb128 0x11
 1407 05ab 01       		.byte	0x1
 1408 05ac 30000000 		.4byte	0x30
 1409 05b0 C4050000 		.4byte	0x5c4
 1410 05b4 12       		.uleb128 0x12
 1411 05b5 BC020000 		.4byte	0x2bc
 1412 05b9 12       		.uleb128 0x12
 1413 05ba 63050000 		.4byte	0x563
 1414 05be 12       		.uleb128 0x12
 1415 05bf 30000000 		.4byte	0x30
 1416 05c3 00       		.byte	0
 1417 05c4 09       		.uleb128 0x9
ARM GAS  /tmp/ccosgPvt.s 			page 26


 1418 05c5 04       		.byte	0x4
 1419 05c6 AA050000 		.4byte	0x5aa
 1420 05ca 11       		.uleb128 0x11
 1421 05cb 01       		.byte	0x1
 1422 05cc EF000000 		.4byte	0xef
 1423 05d0 DF050000 		.4byte	0x5df
 1424 05d4 12       		.uleb128 0x12
 1425 05d5 BC020000 		.4byte	0x2bc
 1426 05d9 12       		.uleb128 0x12
 1427 05da 49000000 		.4byte	0x49
 1428 05de 00       		.byte	0
 1429 05df 09       		.uleb128 0x9
 1430 05e0 04       		.byte	0x4
 1431 05e1 CA050000 		.4byte	0x5ca
 1432 05e5 14       		.uleb128 0x14
 1433 05e6 A2070000 		.4byte	.LASF245
 1434 05ea 01       		.byte	0x1
 1435 05eb 0B       		.byte	0xb
 1436 05ec 8C       		.byte	0x8c
 1437 05ed 20080000 		.4byte	0x820
 1438 05f1 15       		.uleb128 0x15
 1439 05f2 B7040000 		.4byte	.LASF81
 1440 05f6 72       		.sleb128 -14
 1441 05f7 15       		.uleb128 0x15
 1442 05f8 FD040000 		.4byte	.LASF82
 1443 05fc 74       		.sleb128 -12
 1444 05fd 15       		.uleb128 0x15
 1445 05fe 6B050000 		.4byte	.LASF83
 1446 0602 75       		.sleb128 -11
 1447 0603 15       		.uleb128 0x15
 1448 0604 61030000 		.4byte	.LASF84
 1449 0608 76       		.sleb128 -10
 1450 0609 15       		.uleb128 0x15
 1451 060a 55060000 		.4byte	.LASF85
 1452 060e 7B       		.sleb128 -5
 1453 060f 15       		.uleb128 0x15
 1454 0610 60090000 		.4byte	.LASF86
 1455 0614 7C       		.sleb128 -4
 1456 0615 15       		.uleb128 0x15
 1457 0616 EC0A0000 		.4byte	.LASF87
 1458 061a 7E       		.sleb128 -2
 1459 061b 15       		.uleb128 0x15
 1460 061c 5C020000 		.4byte	.LASF88
 1461 0620 7F       		.sleb128 -1
 1462 0621 15       		.uleb128 0x15
 1463 0622 E1040000 		.4byte	.LASF89
 1464 0626 00       		.sleb128 0
 1465 0627 15       		.uleb128 0x15
 1466 0628 F7080000 		.4byte	.LASF90
 1467 062c 01       		.sleb128 1
 1468 062d 15       		.uleb128 0x15
 1469 062e 13050000 		.4byte	.LASF91
 1470 0632 02       		.sleb128 2
 1471 0633 15       		.uleb128 0x15
 1472 0634 300A0000 		.4byte	.LASF92
 1473 0638 03       		.sleb128 3
 1474 0639 15       		.uleb128 0x15
ARM GAS  /tmp/ccosgPvt.s 			page 27


 1475 063a 94000000 		.4byte	.LASF93
 1476 063e 04       		.sleb128 4
 1477 063f 15       		.uleb128 0x15
 1478 0640 CB090000 		.4byte	.LASF94
 1479 0644 05       		.sleb128 5
 1480 0645 15       		.uleb128 0x15
 1481 0646 17090000 		.4byte	.LASF95
 1482 064a 06       		.sleb128 6
 1483 064b 15       		.uleb128 0x15
 1484 064c 57040000 		.4byte	.LASF96
 1485 0650 07       		.sleb128 7
 1486 0651 15       		.uleb128 0x15
 1487 0652 CB080000 		.4byte	.LASF97
 1488 0656 08       		.sleb128 8
 1489 0657 15       		.uleb128 0x15
 1490 0658 E10A0000 		.4byte	.LASF98
 1491 065c 09       		.sleb128 9
 1492 065d 15       		.uleb128 0x15
 1493 065e 950A0000 		.4byte	.LASF99
 1494 0662 0A       		.sleb128 10
 1495 0663 15       		.uleb128 0x15
 1496 0664 06080000 		.4byte	.LASF100
 1497 0668 0B       		.sleb128 11
 1498 0669 15       		.uleb128 0x15
 1499 066a 5E070000 		.4byte	.LASF101
 1500 066e 0C       		.sleb128 12
 1501 066f 15       		.uleb128 0x15
 1502 0670 AD020000 		.4byte	.LASF102
 1503 0674 0D       		.sleb128 13
 1504 0675 15       		.uleb128 0x15
 1505 0676 DB090000 		.4byte	.LASF103
 1506 067a 0E       		.sleb128 14
 1507 067b 15       		.uleb128 0x15
 1508 067c 2A090000 		.4byte	.LASF104
 1509 0680 0F       		.sleb128 15
 1510 0681 15       		.uleb128 0x15
 1511 0682 6F040000 		.4byte	.LASF105
 1512 0686 10       		.sleb128 16
 1513 0687 15       		.uleb128 0x15
 1514 0688 A7070000 		.4byte	.LASF106
 1515 068c 11       		.sleb128 17
 1516 068d 15       		.uleb128 0x15
 1517 068e E4080000 		.4byte	.LASF107
 1518 0692 12       		.sleb128 18
 1519 0693 15       		.uleb128 0x15
 1520 0694 62040000 		.4byte	.LASF108
 1521 0698 13       		.sleb128 19
 1522 0699 15       		.uleb128 0x15
 1523 069a 99030000 		.4byte	.LASF109
 1524 069e 14       		.sleb128 20
 1525 069f 15       		.uleb128 0x15
 1526 06a0 660A0000 		.4byte	.LASF110
 1527 06a4 15       		.sleb128 21
 1528 06a5 15       		.uleb128 0x15
 1529 06a6 23050000 		.4byte	.LASF111
 1530 06aa 16       		.sleb128 22
 1531 06ab 15       		.uleb128 0x15
ARM GAS  /tmp/ccosgPvt.s 			page 28


 1532 06ac 810A0000 		.4byte	.LASF112
 1533 06b0 17       		.sleb128 23
 1534 06b1 15       		.uleb128 0x15
 1535 06b2 98050000 		.4byte	.LASF113
 1536 06b6 18       		.sleb128 24
 1537 06b7 15       		.uleb128 0x15
 1538 06b8 F4090000 		.4byte	.LASF114
 1539 06bc 19       		.sleb128 25
 1540 06bd 15       		.uleb128 0x15
 1541 06be 22020000 		.4byte	.LASF115
 1542 06c2 1A       		.sleb128 26
 1543 06c3 15       		.uleb128 0x15
 1544 06c4 3C040000 		.4byte	.LASF116
 1545 06c8 1B       		.sleb128 27
 1546 06c9 15       		.uleb128 0x15
 1547 06ca C4000000 		.4byte	.LASF117
 1548 06ce 1C       		.sleb128 28
 1549 06cf 15       		.uleb128 0x15
 1550 06d0 AB080000 		.4byte	.LASF118
 1551 06d4 1D       		.sleb128 29
 1552 06d5 15       		.uleb128 0x15
 1553 06d6 D1030000 		.4byte	.LASF119
 1554 06da 1E       		.sleb128 30
 1555 06db 15       		.uleb128 0x15
 1556 06dc 04040000 		.4byte	.LASF120
 1557 06e0 1F       		.sleb128 31
 1558 06e1 15       		.uleb128 0x15
 1559 06e2 0E030000 		.4byte	.LASF121
 1560 06e6 20       		.sleb128 32
 1561 06e7 15       		.uleb128 0x15
 1562 06e8 0F070000 		.4byte	.LASF122
 1563 06ec 21       		.sleb128 33
 1564 06ed 15       		.uleb128 0x15
 1565 06ee 5E050000 		.4byte	.LASF123
 1566 06f2 22       		.sleb128 34
 1567 06f3 15       		.uleb128 0x15
 1568 06f4 4B060000 		.4byte	.LASF124
 1569 06f8 23       		.sleb128 35
 1570 06f9 15       		.uleb128 0x15
 1571 06fa 27060000 		.4byte	.LASF125
 1572 06fe 24       		.sleb128 36
 1573 06ff 15       		.uleb128 0x15
 1574 0700 B5080000 		.4byte	.LASF126
 1575 0704 25       		.sleb128 37
 1576 0705 15       		.uleb128 0x15
 1577 0706 DB030000 		.4byte	.LASF127
 1578 070a 26       		.sleb128 38
 1579 070b 15       		.uleb128 0x15
 1580 070c 69020000 		.4byte	.LASF128
 1581 0710 27       		.sleb128 39
 1582 0711 15       		.uleb128 0x15
 1583 0712 6E080000 		.4byte	.LASF129
 1584 0716 28       		.sleb128 40
 1585 0717 15       		.uleb128 0x15
 1586 0718 2C080000 		.4byte	.LASF130
 1587 071c 29       		.sleb128 41
 1588 071d 15       		.uleb128 0x15
ARM GAS  /tmp/ccosgPvt.s 			page 29


 1589 071e CE060000 		.4byte	.LASF131
 1590 0722 2A       		.sleb128 42
 1591 0723 15       		.uleb128 0x15
 1592 0724 3D010000 		.4byte	.LASF132
 1593 0728 2B       		.sleb128 43
 1594 0729 15       		.uleb128 0x15
 1595 072a 07000000 		.4byte	.LASF133
 1596 072e 2C       		.sleb128 44
 1597 072f 15       		.uleb128 0x15
 1598 0730 81040000 		.4byte	.LASF134
 1599 0734 2D       		.sleb128 45
 1600 0735 15       		.uleb128 0x15
 1601 0736 BF0A0000 		.4byte	.LASF135
 1602 073a 2E       		.sleb128 46
 1603 073b 15       		.uleb128 0x15
 1604 073c 160B0000 		.4byte	.LASF136
 1605 0740 2F       		.sleb128 47
 1606 0741 15       		.uleb128 0x15
 1607 0742 CB040000 		.4byte	.LASF137
 1608 0746 30       		.sleb128 48
 1609 0747 15       		.uleb128 0x15
 1610 0748 CC0A0000 		.4byte	.LASF138
 1611 074c 31       		.sleb128 49
 1612 074d 15       		.uleb128 0x15
 1613 074e 4D030000 		.4byte	.LASF139
 1614 0752 32       		.sleb128 50
 1615 0753 15       		.uleb128 0x15
 1616 0754 8A000000 		.4byte	.LASF140
 1617 0758 33       		.sleb128 51
 1618 0759 15       		.uleb128 0x15
 1619 075a 8D060000 		.4byte	.LASF141
 1620 075e 34       		.sleb128 52
 1621 075f 15       		.uleb128 0x15
 1622 0760 8D050000 		.4byte	.LASF142
 1623 0764 35       		.sleb128 53
 1624 0765 15       		.uleb128 0x15
 1625 0766 F9060000 		.4byte	.LASF143
 1626 076a 36       		.sleb128 54
 1627 076b 15       		.uleb128 0x15
 1628 076c 01060000 		.4byte	.LASF144
 1629 0770 37       		.sleb128 55
 1630 0771 15       		.uleb128 0x15
 1631 0772 B6060000 		.4byte	.LASF145
 1632 0776 38       		.sleb128 56
 1633 0777 15       		.uleb128 0x15
 1634 0778 78000000 		.4byte	.LASF146
 1635 077c 39       		.sleb128 57
 1636 077d 15       		.uleb128 0x15
 1637 077e 570B0000 		.4byte	.LASF147
 1638 0782 3A       		.sleb128 58
 1639 0783 15       		.uleb128 0x15
 1640 0784 7C070000 		.4byte	.LASF148
 1641 0788 3B       		.sleb128 59
 1642 0789 15       		.uleb128 0x15
 1643 078a E1020000 		.4byte	.LASF149
 1644 078e 3C       		.sleb128 60
 1645 078f 15       		.uleb128 0x15
ARM GAS  /tmp/ccosgPvt.s 			page 30


 1646 0790 91090000 		.4byte	.LASF150
 1647 0794 3D       		.sleb128 61
 1648 0795 15       		.uleb128 0x15
 1649 0796 19060000 		.4byte	.LASF151
 1650 079a 3E       		.sleb128 62
 1651 079b 15       		.uleb128 0x15
 1652 079c 8E070000 		.4byte	.LASF152
 1653 07a0 3F       		.sleb128 63
 1654 07a1 15       		.uleb128 0x15
 1655 07a2 F4000000 		.4byte	.LASF153
 1656 07a6 C000     		.sleb128 64
 1657 07a8 15       		.uleb128 0x15
 1658 07a9 D6080000 		.4byte	.LASF154
 1659 07ad C100     		.sleb128 65
 1660 07af 15       		.uleb128 0x15
 1661 07b0 1B030000 		.4byte	.LASF155
 1662 07b4 C200     		.sleb128 66
 1663 07b6 15       		.uleb128 0x15
 1664 07b7 AB040000 		.4byte	.LASF156
 1665 07bb C300     		.sleb128 67
 1666 07bd 15       		.uleb128 0x15
 1667 07be FD010000 		.4byte	.LASF157
 1668 07c2 C400     		.sleb128 68
 1669 07c4 15       		.uleb128 0x15
 1670 07c5 46090000 		.4byte	.LASF158
 1671 07c9 C500     		.sleb128 69
 1672 07cb 15       		.uleb128 0x15
 1673 07cc F4070000 		.4byte	.LASF159
 1674 07d0 C600     		.sleb128 70
 1675 07d2 15       		.uleb128 0x15
 1676 07d3 02010000 		.4byte	.LASF160
 1677 07d7 C700     		.sleb128 71
 1678 07d9 15       		.uleb128 0x15
 1679 07da 7B090000 		.4byte	.LASF161
 1680 07de C800     		.sleb128 72
 1681 07e0 15       		.uleb128 0x15
 1682 07e1 43080000 		.4byte	.LASF162
 1683 07e5 C900     		.sleb128 73
 1684 07e7 15       		.uleb128 0x15
 1685 07e8 1C0A0000 		.4byte	.LASF163
 1686 07ec CA00     		.sleb128 74
 1687 07ee 15       		.uleb128 0x15
 1688 07ef F80A0000 		.4byte	.LASF164
 1689 07f3 CB00     		.sleb128 75
 1690 07f5 15       		.uleb128 0x15
 1691 07f6 1F010000 		.4byte	.LASF165
 1692 07fa CC00     		.sleb128 76
 1693 07fc 15       		.uleb128 0x15
 1694 07fd 31060000 		.4byte	.LASF166
 1695 0801 CD00     		.sleb128 77
 1696 0803 15       		.uleb128 0x15
 1697 0804 9F000000 		.4byte	.LASF167
 1698 0808 CE00     		.sleb128 78
 1699 080a 15       		.uleb128 0x15
 1700 080b 64080000 		.4byte	.LASF168
 1701 080f CF00     		.sleb128 79
 1702 0811 15       		.uleb128 0x15
ARM GAS  /tmp/ccosgPvt.s 			page 31


 1703 0812 49040000 		.4byte	.LASF169
 1704 0816 D000     		.sleb128 80
 1705 0818 15       		.uleb128 0x15
 1706 0819 84060000 		.4byte	.LASF170
 1707 081d D100     		.sleb128 81
 1708 081f 00       		.byte	0
 1709 0820 16       		.uleb128 0x16
 1710 0821 86000000 		.4byte	0x86
 1711 0825 30080000 		.4byte	0x830
 1712 0829 17       		.uleb128 0x17
 1713 082a 7F030000 		.4byte	0x37f
 1714 082e 01       		.byte	0x1
 1715 082f 00       		.byte	0
 1716 0830 0D       		.uleb128 0xd
 1717 0831 62000000 		.4byte	0x62
 1718 0835 0D       		.uleb128 0xd
 1719 0836 74000000 		.4byte	0x74
 1720 083a 18       		.uleb128 0x18
 1721 083b 88       		.byte	0x88
 1722 083c 0B       		.byte	0xb
 1723 083d DB02     		.2byte	0x2db
 1724 083f 070A0000 		.4byte	0xa07
 1725 0843 0C       		.uleb128 0xc
 1726 0844 435200   		.ascii	"CR\000"
 1727 0847 0B       		.byte	0xb
 1728 0848 DD02     		.2byte	0x2dd
 1729 084a 7A030000 		.4byte	0x37a
 1730 084e 02       		.byte	0x2
 1731 084f 23       		.byte	0x23
 1732 0850 00       		.uleb128 0
 1733 0851 19       		.uleb128 0x19
 1734 0852 85050000 		.4byte	.LASF171
 1735 0856 0B       		.byte	0xb
 1736 0857 DE02     		.2byte	0x2de
 1737 0859 7A030000 		.4byte	0x37a
 1738 085d 02       		.byte	0x2
 1739 085e 23       		.byte	0x23
 1740 085f 04       		.uleb128 0x4
 1741 0860 19       		.uleb128 0x19
 1742 0861 37040000 		.4byte	.LASF172
 1743 0865 0B       		.byte	0xb
 1744 0866 DF02     		.2byte	0x2df
 1745 0868 7A030000 		.4byte	0x37a
 1746 086c 02       		.byte	0x2
 1747 086d 23       		.byte	0x23
 1748 086e 08       		.uleb128 0x8
 1749 086f 0C       		.uleb128 0xc
 1750 0870 43495200 		.ascii	"CIR\000"
 1751 0874 0B       		.byte	0xb
 1752 0875 E002     		.2byte	0x2e0
 1753 0877 7A030000 		.4byte	0x37a
 1754 087b 02       		.byte	0x2
 1755 087c 23       		.byte	0x23
 1756 087d 0C       		.uleb128 0xc
 1757 087e 19       		.uleb128 0x19
 1758 087f 280B0000 		.4byte	.LASF173
 1759 0883 0B       		.byte	0xb
ARM GAS  /tmp/ccosgPvt.s 			page 32


 1760 0884 E102     		.2byte	0x2e1
 1761 0886 7A030000 		.4byte	0x37a
 1762 088a 02       		.byte	0x2
 1763 088b 23       		.byte	0x23
 1764 088c 10       		.uleb128 0x10
 1765 088d 19       		.uleb128 0x19
 1766 088e 88090000 		.4byte	.LASF174
 1767 0892 0B       		.byte	0xb
 1768 0893 E202     		.2byte	0x2e2
 1769 0895 7A030000 		.4byte	0x37a
 1770 0899 02       		.byte	0x2
 1771 089a 23       		.byte	0x23
 1772 089b 14       		.uleb128 0x14
 1773 089c 19       		.uleb128 0x19
 1774 089d CE070000 		.4byte	.LASF175
 1775 08a1 0B       		.byte	0xb
 1776 08a2 E302     		.2byte	0x2e3
 1777 08a4 7A030000 		.4byte	0x37a
 1778 08a8 02       		.byte	0x2
 1779 08a9 23       		.byte	0x23
 1780 08aa 18       		.uleb128 0x18
 1781 08ab 19       		.uleb128 0x19
 1782 08ac BF020000 		.4byte	.LASF176
 1783 08b0 0B       		.byte	0xb
 1784 08b1 E402     		.2byte	0x2e4
 1785 08b3 86000000 		.4byte	0x86
 1786 08b7 02       		.byte	0x2
 1787 08b8 23       		.byte	0x23
 1788 08b9 1C       		.uleb128 0x1c
 1789 08ba 19       		.uleb128 0x19
 1790 08bb 18080000 		.4byte	.LASF177
 1791 08bf 0B       		.byte	0xb
 1792 08c0 E502     		.2byte	0x2e5
 1793 08c2 7A030000 		.4byte	0x37a
 1794 08c6 02       		.byte	0x2
 1795 08c7 23       		.byte	0x23
 1796 08c8 20       		.uleb128 0x20
 1797 08c9 19       		.uleb128 0x19
 1798 08ca 61060000 		.4byte	.LASF178
 1799 08ce 0B       		.byte	0xb
 1800 08cf E602     		.2byte	0x2e6
 1801 08d1 7A030000 		.4byte	0x37a
 1802 08d5 02       		.byte	0x2
 1803 08d6 23       		.byte	0x23
 1804 08d7 24       		.uleb128 0x24
 1805 08d8 19       		.uleb128 0x19
 1806 08d9 C9020000 		.4byte	.LASF179
 1807 08dd 0B       		.byte	0xb
 1808 08de E702     		.2byte	0x2e7
 1809 08e0 20080000 		.4byte	0x820
 1810 08e4 02       		.byte	0x2
 1811 08e5 23       		.byte	0x23
 1812 08e6 28       		.uleb128 0x28
 1813 08e7 19       		.uleb128 0x19
 1814 08e8 58090000 		.4byte	.LASF180
 1815 08ec 0B       		.byte	0xb
 1816 08ed E802     		.2byte	0x2e8
ARM GAS  /tmp/ccosgPvt.s 			page 33


 1817 08ef 7A030000 		.4byte	0x37a
 1818 08f3 02       		.byte	0x2
 1819 08f4 23       		.byte	0x23
 1820 08f5 30       		.uleb128 0x30
 1821 08f6 19       		.uleb128 0x19
 1822 08f7 7D030000 		.4byte	.LASF181
 1823 08fb 0B       		.byte	0xb
 1824 08fc E902     		.2byte	0x2e9
 1825 08fe 7A030000 		.4byte	0x37a
 1826 0902 02       		.byte	0x2
 1827 0903 23       		.byte	0x23
 1828 0904 34       		.uleb128 0x34
 1829 0905 19       		.uleb128 0x19
 1830 0906 4F0B0000 		.4byte	.LASF182
 1831 090a 0B       		.byte	0xb
 1832 090b EA02     		.2byte	0x2ea
 1833 090d 7A030000 		.4byte	0x37a
 1834 0911 02       		.byte	0x2
 1835 0912 23       		.byte	0x23
 1836 0913 38       		.uleb128 0x38
 1837 0914 19       		.uleb128 0x19
 1838 0915 39030000 		.4byte	.LASF183
 1839 0919 0B       		.byte	0xb
 1840 091a EB02     		.2byte	0x2eb
 1841 091c 86000000 		.4byte	0x86
 1842 0920 02       		.byte	0x2
 1843 0921 23       		.byte	0x23
 1844 0922 3C       		.uleb128 0x3c
 1845 0923 19       		.uleb128 0x19
 1846 0924 3B080000 		.4byte	.LASF184
 1847 0928 0B       		.byte	0xb
 1848 0929 EC02     		.2byte	0x2ec
 1849 092b 7A030000 		.4byte	0x37a
 1850 092f 02       		.byte	0x2
 1851 0930 23       		.byte	0x23
 1852 0931 40       		.uleb128 0x40
 1853 0932 19       		.uleb128 0x19
 1854 0933 4A020000 		.4byte	.LASF185
 1855 0937 0B       		.byte	0xb
 1856 0938 ED02     		.2byte	0x2ed
 1857 093a 7A030000 		.4byte	0x37a
 1858 093e 02       		.byte	0x2
 1859 093f 23       		.byte	0x23
 1860 0940 44       		.uleb128 0x44
 1861 0941 19       		.uleb128 0x19
 1862 0942 43030000 		.4byte	.LASF186
 1863 0946 0B       		.byte	0xb
 1864 0947 EE02     		.2byte	0x2ee
 1865 0949 20080000 		.4byte	0x820
 1866 094d 02       		.byte	0x2
 1867 094e 23       		.byte	0x23
 1868 094f 48       		.uleb128 0x48
 1869 0950 19       		.uleb128 0x19
 1870 0951 52020000 		.4byte	.LASF187
 1871 0955 0B       		.byte	0xb
 1872 0956 EF02     		.2byte	0x2ef
 1873 0958 7A030000 		.4byte	0x37a
ARM GAS  /tmp/ccosgPvt.s 			page 34


 1874 095c 02       		.byte	0x2
 1875 095d 23       		.byte	0x23
 1876 095e 50       		.uleb128 0x50
 1877 095f 19       		.uleb128 0x19
 1878 0960 8B010000 		.4byte	.LASF188
 1879 0964 0B       		.byte	0xb
 1880 0965 F002     		.2byte	0x2f0
 1881 0967 7A030000 		.4byte	0x37a
 1882 096b 02       		.byte	0x2
 1883 096c 23       		.byte	0x23
 1884 096d 54       		.uleb128 0x54
 1885 096e 19       		.uleb128 0x19
 1886 096f ED080000 		.4byte	.LASF189
 1887 0973 0B       		.byte	0xb
 1888 0974 F102     		.2byte	0x2f1
 1889 0976 7A030000 		.4byte	0x37a
 1890 097a 02       		.byte	0x2
 1891 097b 23       		.byte	0x23
 1892 097c 58       		.uleb128 0x58
 1893 097d 19       		.uleb128 0x19
 1894 097e F3020000 		.4byte	.LASF190
 1895 0982 0B       		.byte	0xb
 1896 0983 F202     		.2byte	0x2f2
 1897 0985 86000000 		.4byte	0x86
 1898 0989 02       		.byte	0x2
 1899 098a 23       		.byte	0x23
 1900 098b 5C       		.uleb128 0x5c
 1901 098c 19       		.uleb128 0x19
 1902 098d 54070000 		.4byte	.LASF191
 1903 0991 0B       		.byte	0xb
 1904 0992 F302     		.2byte	0x2f3
 1905 0994 7A030000 		.4byte	0x37a
 1906 0998 02       		.byte	0x2
 1907 0999 23       		.byte	0x23
 1908 099a 60       		.uleb128 0x60
 1909 099b 19       		.uleb128 0x19
 1910 099c 98060000 		.4byte	.LASF192
 1911 09a0 0B       		.byte	0xb
 1912 09a1 F402     		.2byte	0x2f4
 1913 09a3 7A030000 		.4byte	0x37a
 1914 09a7 02       		.byte	0x2
 1915 09a8 23       		.byte	0x23
 1916 09a9 64       		.uleb128 0x64
 1917 09aa 19       		.uleb128 0x19
 1918 09ab 57030000 		.4byte	.LASF193
 1919 09af 0B       		.byte	0xb
 1920 09b0 F502     		.2byte	0x2f5
 1921 09b2 20080000 		.4byte	0x820
 1922 09b6 02       		.byte	0x2
 1923 09b7 23       		.byte	0x23
 1924 09b8 68       		.uleb128 0x68
 1925 09b9 19       		.uleb128 0x19
 1926 09ba FF030000 		.4byte	.LASF194
 1927 09be 0B       		.byte	0xb
 1928 09bf F602     		.2byte	0x2f6
 1929 09c1 7A030000 		.4byte	0x37a
 1930 09c5 02       		.byte	0x2
ARM GAS  /tmp/ccosgPvt.s 			page 35


 1931 09c6 23       		.byte	0x23
 1932 09c7 70       		.uleb128 0x70
 1933 09c8 0C       		.uleb128 0xc
 1934 09c9 43535200 		.ascii	"CSR\000"
 1935 09cd 0B       		.byte	0xb
 1936 09ce F702     		.2byte	0x2f7
 1937 09d0 7A030000 		.4byte	0x37a
 1938 09d4 02       		.byte	0x2
 1939 09d5 23       		.byte	0x23
 1940 09d6 74       		.uleb128 0x74
 1941 09d7 19       		.uleb128 0x19
 1942 09d8 04030000 		.4byte	.LASF195
 1943 09dc 0B       		.byte	0xb
 1944 09dd F802     		.2byte	0x2f8
 1945 09df 20080000 		.4byte	0x820
 1946 09e3 02       		.byte	0x2
 1947 09e4 23       		.byte	0x23
 1948 09e5 78       		.uleb128 0x78
 1949 09e6 19       		.uleb128 0x19
 1950 09e7 45060000 		.4byte	.LASF196
 1951 09eb 0B       		.byte	0xb
 1952 09ec F902     		.2byte	0x2f9
 1953 09ee 7A030000 		.4byte	0x37a
 1954 09f2 03       		.byte	0x3
 1955 09f3 23       		.byte	0x23
 1956 09f4 8001     		.uleb128 0x80
 1957 09f6 19       		.uleb128 0x19
 1958 09f7 2D000000 		.4byte	.LASF197
 1959 09fb 0B       		.byte	0xb
 1960 09fc FA02     		.2byte	0x2fa
 1961 09fe 7A030000 		.4byte	0x37a
 1962 0a02 03       		.byte	0x3
 1963 0a03 23       		.byte	0x23
 1964 0a04 8401     		.uleb128 0x84
 1965 0a06 00       		.byte	0
 1966 0a07 1A       		.uleb128 0x1a
 1967 0a08 A2090000 		.4byte	.LASF198
 1968 0a0c 0B       		.byte	0xb
 1969 0a0d FB02     		.2byte	0x2fb
 1970 0a0f 3A080000 		.4byte	0x83a
 1971 0a13 18       		.uleb128 0x18
 1972 0a14 1C       		.byte	0x1c
 1973 0a15 0B       		.byte	0xb
 1974 0a16 9303     		.2byte	0x393
 1975 0a18 ED0A0000 		.4byte	0xaed
 1976 0a1c 0C       		.uleb128 0xc
 1977 0a1d 535200   		.ascii	"SR\000"
 1978 0a20 0B       		.byte	0xb
 1979 0a21 9503     		.2byte	0x395
 1980 0a23 30080000 		.4byte	0x830
 1981 0a27 02       		.byte	0x2
 1982 0a28 23       		.byte	0x23
 1983 0a29 00       		.uleb128 0
 1984 0a2a 19       		.uleb128 0x19
 1985 0a2b BF020000 		.4byte	.LASF176
 1986 0a2f 0B       		.byte	0xb
 1987 0a30 9603     		.2byte	0x396
ARM GAS  /tmp/ccosgPvt.s 			page 36


 1988 0a32 62000000 		.4byte	0x62
 1989 0a36 02       		.byte	0x2
 1990 0a37 23       		.byte	0x23
 1991 0a38 02       		.uleb128 0x2
 1992 0a39 0C       		.uleb128 0xc
 1993 0a3a 445200   		.ascii	"DR\000"
 1994 0a3d 0B       		.byte	0xb
 1995 0a3e 9703     		.2byte	0x397
 1996 0a40 30080000 		.4byte	0x830
 1997 0a44 02       		.byte	0x2
 1998 0a45 23       		.byte	0x23
 1999 0a46 04       		.uleb128 0x4
 2000 0a47 19       		.uleb128 0x19
 2001 0a48 C9020000 		.4byte	.LASF179
 2002 0a4c 0B       		.byte	0xb
 2003 0a4d 9803     		.2byte	0x398
 2004 0a4f 62000000 		.4byte	0x62
 2005 0a53 02       		.byte	0x2
 2006 0a54 23       		.byte	0x23
 2007 0a55 06       		.uleb128 0x6
 2008 0a56 0C       		.uleb128 0xc
 2009 0a57 42525200 		.ascii	"BRR\000"
 2010 0a5b 0B       		.byte	0xb
 2011 0a5c 9903     		.2byte	0x399
 2012 0a5e 30080000 		.4byte	0x830
 2013 0a62 02       		.byte	0x2
 2014 0a63 23       		.byte	0x23
 2015 0a64 08       		.uleb128 0x8
 2016 0a65 19       		.uleb128 0x19
 2017 0a66 39030000 		.4byte	.LASF183
 2018 0a6a 0B       		.byte	0xb
 2019 0a6b 9A03     		.2byte	0x39a
 2020 0a6d 62000000 		.4byte	0x62
 2021 0a71 02       		.byte	0x2
 2022 0a72 23       		.byte	0x23
 2023 0a73 0A       		.uleb128 0xa
 2024 0a74 0C       		.uleb128 0xc
 2025 0a75 43523100 		.ascii	"CR1\000"
 2026 0a79 0B       		.byte	0xb
 2027 0a7a 9B03     		.2byte	0x39b
 2028 0a7c 30080000 		.4byte	0x830
 2029 0a80 02       		.byte	0x2
 2030 0a81 23       		.byte	0x23
 2031 0a82 0C       		.uleb128 0xc
 2032 0a83 19       		.uleb128 0x19
 2033 0a84 43030000 		.4byte	.LASF186
 2034 0a88 0B       		.byte	0xb
 2035 0a89 9C03     		.2byte	0x39c
 2036 0a8b 62000000 		.4byte	0x62
 2037 0a8f 02       		.byte	0x2
 2038 0a90 23       		.byte	0x23
 2039 0a91 0E       		.uleb128 0xe
 2040 0a92 0C       		.uleb128 0xc
 2041 0a93 43523200 		.ascii	"CR2\000"
 2042 0a97 0B       		.byte	0xb
 2043 0a98 9D03     		.2byte	0x39d
 2044 0a9a 30080000 		.4byte	0x830
ARM GAS  /tmp/ccosgPvt.s 			page 37


 2045 0a9e 02       		.byte	0x2
 2046 0a9f 23       		.byte	0x23
 2047 0aa0 10       		.uleb128 0x10
 2048 0aa1 19       		.uleb128 0x19
 2049 0aa2 F3020000 		.4byte	.LASF190
 2050 0aa6 0B       		.byte	0xb
 2051 0aa7 9E03     		.2byte	0x39e
 2052 0aa9 62000000 		.4byte	0x62
 2053 0aad 02       		.byte	0x2
 2054 0aae 23       		.byte	0x23
 2055 0aaf 12       		.uleb128 0x12
 2056 0ab0 0C       		.uleb128 0xc
 2057 0ab1 43523300 		.ascii	"CR3\000"
 2058 0ab5 0B       		.byte	0xb
 2059 0ab6 9F03     		.2byte	0x39f
 2060 0ab8 30080000 		.4byte	0x830
 2061 0abc 02       		.byte	0x2
 2062 0abd 23       		.byte	0x23
 2063 0abe 14       		.uleb128 0x14
 2064 0abf 19       		.uleb128 0x19
 2065 0ac0 57030000 		.4byte	.LASF193
 2066 0ac4 0B       		.byte	0xb
 2067 0ac5 A003     		.2byte	0x3a0
 2068 0ac7 62000000 		.4byte	0x62
 2069 0acb 02       		.byte	0x2
 2070 0acc 23       		.byte	0x23
 2071 0acd 16       		.uleb128 0x16
 2072 0ace 19       		.uleb128 0x19
 2073 0acf 6D000000 		.4byte	.LASF199
 2074 0ad3 0B       		.byte	0xb
 2075 0ad4 A103     		.2byte	0x3a1
 2076 0ad6 30080000 		.4byte	0x830
 2077 0ada 02       		.byte	0x2
 2078 0adb 23       		.byte	0x23
 2079 0adc 18       		.uleb128 0x18
 2080 0add 19       		.uleb128 0x19
 2081 0ade 04030000 		.4byte	.LASF195
 2082 0ae2 0B       		.byte	0xb
 2083 0ae3 A203     		.2byte	0x3a2
 2084 0ae5 62000000 		.4byte	0x62
 2085 0ae9 02       		.byte	0x2
 2086 0aea 23       		.byte	0x23
 2087 0aeb 1A       		.uleb128 0x1a
 2088 0aec 00       		.byte	0
 2089 0aed 1A       		.uleb128 0x1a
 2090 0aee B7030000 		.4byte	.LASF200
 2091 0af2 0B       		.byte	0xb
 2092 0af3 A303     		.2byte	0x3a3
 2093 0af5 130A0000 		.4byte	0xa13
 2094 0af9 11       		.uleb128 0x11
 2095 0afa 01       		.byte	0x1
 2096 0afb EF000000 		.4byte	0xef
 2097 0aff 130B0000 		.4byte	0xb13
 2098 0b03 12       		.uleb128 0x12
 2099 0b04 BC020000 		.4byte	0x2bc
 2100 0b08 12       		.uleb128 0x12
 2101 0b09 49000000 		.4byte	0x49
ARM GAS  /tmp/ccosgPvt.s 			page 38


 2102 0b0d 12       		.uleb128 0x12
 2103 0b0e 10010000 		.4byte	0x110
 2104 0b12 00       		.byte	0
 2105 0b13 09       		.uleb128 0x9
 2106 0b14 04       		.byte	0x4
 2107 0b15 F90A0000 		.4byte	0xaf9
 2108 0b19 11       		.uleb128 0x11
 2109 0b1a 01       		.byte	0x1
 2110 0b1b EF000000 		.4byte	0xef
 2111 0b1f 2E0B0000 		.4byte	0xb2e
 2112 0b23 12       		.uleb128 0x12
 2113 0b24 BC020000 		.4byte	0x2bc
 2114 0b28 12       		.uleb128 0x12
 2115 0b29 10010000 		.4byte	0x110
 2116 0b2d 00       		.byte	0
 2117 0b2e 09       		.uleb128 0x9
 2118 0b2f 04       		.byte	0x4
 2119 0b30 190B0000 		.4byte	0xb19
 2120 0b34 11       		.uleb128 0x11
 2121 0b35 01       		.byte	0x1
 2122 0b36 30000000 		.4byte	0x30
 2123 0b3a 530B0000 		.4byte	0xb53
 2124 0b3e 12       		.uleb128 0x12
 2125 0b3f BC020000 		.4byte	0x2bc
 2126 0b43 12       		.uleb128 0x12
 2127 0b44 99050000 		.4byte	0x599
 2128 0b48 12       		.uleb128 0x12
 2129 0b49 30000000 		.4byte	0x30
 2130 0b4d 12       		.uleb128 0x12
 2131 0b4e 10010000 		.4byte	0x110
 2132 0b52 00       		.byte	0
 2133 0b53 09       		.uleb128 0x9
 2134 0b54 04       		.byte	0x4
 2135 0b55 340B0000 		.4byte	0xb34
 2136 0b59 11       		.uleb128 0x11
 2137 0b5a 01       		.byte	0x1
 2138 0b5b 30000000 		.4byte	0x30
 2139 0b5f 780B0000 		.4byte	0xb78
 2140 0b63 12       		.uleb128 0x12
 2141 0b64 BC020000 		.4byte	0x2bc
 2142 0b68 12       		.uleb128 0x12
 2143 0b69 63050000 		.4byte	0x563
 2144 0b6d 12       		.uleb128 0x12
 2145 0b6e 30000000 		.4byte	0x30
 2146 0b72 12       		.uleb128 0x12
 2147 0b73 10010000 		.4byte	0x110
 2148 0b77 00       		.byte	0
 2149 0b78 09       		.uleb128 0x9
 2150 0b79 04       		.byte	0x4
 2151 0b7a 590B0000 		.4byte	0xb59
 2152 0b7e 1B       		.uleb128 0x1b
 2153 0b7f 01       		.byte	0x1
 2154 0b80 0C       		.byte	0xc
 2155 0b81 5D       		.byte	0x5d
 2156 0b82 990B0000 		.4byte	0xb99
 2157 0b86 15       		.uleb128 0x15
 2158 0b87 29030000 		.4byte	.LASF201
ARM GAS  /tmp/ccosgPvt.s 			page 39


 2159 0b8b 00       		.sleb128 0
 2160 0b8c 15       		.uleb128 0x15
 2161 0b8d 310B0000 		.4byte	.LASF202
 2162 0b91 01       		.sleb128 1
 2163 0b92 15       		.uleb128 0x15
 2164 0b93 72090000 		.4byte	.LASF203
 2165 0b97 02       		.sleb128 2
 2166 0b98 00       		.byte	0
 2167 0b99 03       		.uleb128 0x3
 2168 0b9a 3C090000 		.4byte	.LASF204
 2169 0b9e 0C       		.byte	0xc
 2170 0b9f 61       		.byte	0x61
 2171 0ba0 7E0B0000 		.4byte	0xb7e
 2172 0ba4 03       		.uleb128 0x3
 2173 0ba5 00090000 		.4byte	.LASF205
 2174 0ba9 0C       		.byte	0xc
 2175 0baa 66       		.byte	0x66
 2176 0bab AF0B0000 		.4byte	0xbaf
 2177 0baf 05       		.uleb128 0x5
 2178 0bb0 00090000 		.4byte	.LASF205
 2179 0bb4 78       		.byte	0x78
 2180 0bb5 0C       		.byte	0xc
 2181 0bb6 80       		.byte	0x80
 2182 0bb7 2A0C0000 		.4byte	0xc2a
 2183 0bbb 07       		.uleb128 0x7
 2184 0bbc 766D7400 		.ascii	"vmt\000"
 2185 0bc0 0C       		.byte	0xc
 2186 0bc1 82       		.byte	0x82
 2187 0bc2 F30C0000 		.4byte	0xcf3
 2188 0bc6 02       		.byte	0x2
 2189 0bc7 23       		.byte	0x23
 2190 0bc8 00       		.uleb128 0
 2191 0bc9 06       		.uleb128 0x6
 2192 0bca C8060000 		.4byte	.LASF206
 2193 0bce 0C       		.byte	0xc
 2194 0bcf 83       		.byte	0x83
 2195 0bd0 44040000 		.4byte	0x444
 2196 0bd4 02       		.byte	0x2
 2197 0bd5 23       		.byte	0x23
 2198 0bd6 04       		.uleb128 0x4
 2199 0bd7 06       		.uleb128 0x6
 2200 0bd8 B9000000 		.4byte	.LASF207
 2201 0bdc 0C       		.byte	0xc
 2202 0bdd 83       		.byte	0x83
 2203 0bde 990B0000 		.4byte	0xb99
 2204 0be2 02       		.byte	0x2
 2205 0be3 23       		.byte	0x23
 2206 0be4 08       		.uleb128 0x8
 2207 0be5 06       		.uleb128 0x6
 2208 0be6 D4090000 		.4byte	.LASF208
 2209 0bea 0C       		.byte	0xc
 2210 0beb 83       		.byte	0x83
 2211 0bec 69050000 		.4byte	0x569
 2212 0bf0 02       		.byte	0x2
 2213 0bf1 23       		.byte	0x23
 2214 0bf2 0C       		.uleb128 0xc
 2215 0bf3 06       		.uleb128 0x6
ARM GAS  /tmp/ccosgPvt.s 			page 40


 2216 0bf4 3A020000 		.4byte	.LASF209
 2217 0bf8 0C       		.byte	0xc
 2218 0bf9 83       		.byte	0x83
 2219 0bfa 74050000 		.4byte	0x574
 2220 0bfe 02       		.byte	0x2
 2221 0bff 23       		.byte	0x23
 2222 0c00 30       		.uleb128 0x30
 2223 0c01 07       		.uleb128 0x7
 2224 0c02 696200   		.ascii	"ib\000"
 2225 0c05 0C       		.byte	0xc
 2226 0c06 83       		.byte	0x83
 2227 0c07 FE0C0000 		.4byte	0xcfe
 2228 0c0b 02       		.byte	0x2
 2229 0c0c 23       		.byte	0x23
 2230 0c0d 54       		.uleb128 0x54
 2231 0c0e 07       		.uleb128 0x7
 2232 0c0f 6F6200   		.ascii	"ob\000"
 2233 0c12 0C       		.byte	0xc
 2234 0c13 83       		.byte	0x83
 2235 0c14 FE0C0000 		.4byte	0xcfe
 2236 0c18 02       		.byte	0x2
 2237 0c19 23       		.byte	0x23
 2238 0c1a 64       		.uleb128 0x64
 2239 0c1b 06       		.uleb128 0x6
 2240 0c1c 75020000 		.4byte	.LASF210
 2241 0c20 0C       		.byte	0xc
 2242 0c21 83       		.byte	0x83
 2243 0c22 0E0D0000 		.4byte	0xd0e
 2244 0c26 02       		.byte	0x2
 2245 0c27 23       		.byte	0x23
 2246 0c28 74       		.uleb128 0x74
 2247 0c29 00       		.byte	0
 2248 0c2a 08       		.uleb128 0x8
 2249 0c2b 0C       		.byte	0xc
 2250 0c2c 0D       		.byte	0xd
 2251 0c2d D7       		.byte	0xd7
 2252 0c2e 6B0C0000 		.4byte	0xc6b
 2253 0c32 06       		.uleb128 0x6
 2254 0c33 2C070000 		.4byte	.LASF211
 2255 0c37 0D       		.byte	0xd
 2256 0c38 DB       		.byte	0xdb
 2257 0c39 86000000 		.4byte	0x86
 2258 0c3d 02       		.byte	0x2
 2259 0c3e 23       		.byte	0x23
 2260 0c3f 00       		.uleb128 0
 2261 0c40 06       		.uleb128 0x6
 2262 0c41 D6050000 		.4byte	.LASF212
 2263 0c45 0D       		.byte	0xd
 2264 0c46 E0       		.byte	0xe0
 2265 0c47 62000000 		.4byte	0x62
 2266 0c4b 02       		.byte	0x2
 2267 0c4c 23       		.byte	0x23
 2268 0c4d 04       		.uleb128 0x4
 2269 0c4e 06       		.uleb128 0x6
 2270 0c4f DD050000 		.4byte	.LASF213
 2271 0c53 0D       		.byte	0xd
 2272 0c54 E4       		.byte	0xe4
ARM GAS  /tmp/ccosgPvt.s 			page 41


 2273 0c55 62000000 		.4byte	0x62
 2274 0c59 02       		.byte	0x2
 2275 0c5a 23       		.byte	0x23
 2276 0c5b 06       		.uleb128 0x6
 2277 0c5c 06       		.uleb128 0x6
 2278 0c5d E4050000 		.4byte	.LASF214
 2279 0c61 0D       		.byte	0xd
 2280 0c62 E8       		.byte	0xe8
 2281 0c63 62000000 		.4byte	0x62
 2282 0c67 02       		.byte	0x2
 2283 0c68 23       		.byte	0x23
 2284 0c69 08       		.uleb128 0x8
 2285 0c6a 00       		.byte	0
 2286 0c6b 03       		.uleb128 0x3
 2287 0c6c 59000000 		.4byte	.LASF215
 2288 0c70 0D       		.byte	0xd
 2289 0c71 E9       		.byte	0xe9
 2290 0c72 2A0C0000 		.4byte	0xc2a
 2291 0c76 05       		.uleb128 0x5
 2292 0c77 41050000 		.4byte	.LASF216
 2293 0c7b 20       		.byte	0x20
 2294 0c7c 0C       		.byte	0xc
 2295 0c7d 75       		.byte	0x75
 2296 0c7e F30C0000 		.4byte	0xcf3
 2297 0c82 06       		.uleb128 0x6
 2298 0c83 72000000 		.4byte	.LASF217
 2299 0c87 0C       		.byte	0xc
 2300 0c88 76       		.byte	0x76
 2301 0c89 A4050000 		.4byte	0x5a4
 2302 0c8d 02       		.byte	0x2
 2303 0c8e 23       		.byte	0x23
 2304 0c8f 00       		.uleb128 0
 2305 0c90 06       		.uleb128 0x6
 2306 0c91 E7060000 		.4byte	.LASF218
 2307 0c95 0C       		.byte	0xc
 2308 0c96 76       		.byte	0x76
 2309 0c97 C4050000 		.4byte	0x5c4
 2310 0c9b 02       		.byte	0x2
 2311 0c9c 23       		.byte	0x23
 2312 0c9d 04       		.uleb128 0x4
 2313 0c9e 07       		.uleb128 0x7
 2314 0c9f 70757400 		.ascii	"put\000"
 2315 0ca3 0C       		.byte	0xc
 2316 0ca4 76       		.byte	0x76
 2317 0ca5 DF050000 		.4byte	0x5df
 2318 0ca9 02       		.byte	0x2
 2319 0caa 23       		.byte	0x23
 2320 0cab 08       		.uleb128 0x8
 2321 0cac 07       		.uleb128 0x7
 2322 0cad 67657400 		.ascii	"get\000"
 2323 0cb1 0C       		.byte	0xc
 2324 0cb2 76       		.byte	0x76
 2325 0cb3 A2040000 		.4byte	0x4a2
 2326 0cb7 02       		.byte	0x2
 2327 0cb8 23       		.byte	0x23
 2328 0cb9 0C       		.uleb128 0xc
 2329 0cba 06       		.uleb128 0x6
ARM GAS  /tmp/ccosgPvt.s 			page 42


 2330 0cbb BF000000 		.4byte	.LASF219
 2331 0cbf 0C       		.byte	0xc
 2332 0cc0 76       		.byte	0x76
 2333 0cc1 130B0000 		.4byte	0xb13
 2334 0cc5 02       		.byte	0x2
 2335 0cc6 23       		.byte	0x23
 2336 0cc7 10       		.uleb128 0x10
 2337 0cc8 06       		.uleb128 0x6
 2338 0cc9 A7030000 		.4byte	.LASF220
 2339 0ccd 0C       		.byte	0xc
 2340 0cce 76       		.byte	0x76
 2341 0ccf 2E0B0000 		.4byte	0xb2e
 2342 0cd3 02       		.byte	0x2
 2343 0cd4 23       		.byte	0x23
 2344 0cd5 14       		.uleb128 0x14
 2345 0cd6 06       		.uleb128 0x6
 2346 0cd7 66000000 		.4byte	.LASF221
 2347 0cdb 0C       		.byte	0xc
 2348 0cdc 76       		.byte	0x76
 2349 0cdd 530B0000 		.4byte	0xb53
 2350 0ce1 02       		.byte	0x2
 2351 0ce2 23       		.byte	0x23
 2352 0ce3 18       		.uleb128 0x18
 2353 0ce4 06       		.uleb128 0x6
 2354 0ce5 95010000 		.4byte	.LASF222
 2355 0ce9 0C       		.byte	0xc
 2356 0cea 76       		.byte	0x76
 2357 0ceb 780B0000 		.4byte	0xb78
 2358 0cef 02       		.byte	0x2
 2359 0cf0 23       		.byte	0x23
 2360 0cf1 1C       		.uleb128 0x1c
 2361 0cf2 00       		.byte	0
 2362 0cf3 09       		.uleb128 0x9
 2363 0cf4 04       		.byte	0x4
 2364 0cf5 F90C0000 		.4byte	0xcf9
 2365 0cf9 10       		.uleb128 0x10
 2366 0cfa 760C0000 		.4byte	0xc76
 2367 0cfe 16       		.uleb128 0x16
 2368 0cff 49000000 		.4byte	0x49
 2369 0d03 0E0D0000 		.4byte	0xd0e
 2370 0d07 17       		.uleb128 0x17
 2371 0d08 7F030000 		.4byte	0x37f
 2372 0d0c 0F       		.byte	0xf
 2373 0d0d 00       		.byte	0
 2374 0d0e 09       		.uleb128 0x9
 2375 0d0f 04       		.byte	0x4
 2376 0d10 ED0A0000 		.4byte	0xaed
 2377 0d14 09       		.uleb128 0x9
 2378 0d15 04       		.byte	0x4
 2379 0d16 74050000 		.4byte	0x574
 2380 0d1a 1C       		.uleb128 0x1c
 2381 0d1b 51050000 		.4byte	.LASF223
 2382 0d1f 01       		.byte	0x1
 2383 0d20 7A       		.byte	0x7a
 2384 0d21 01       		.byte	0x1
 2385 0d22 01       		.byte	0x1
 2386 0d23 310D0000 		.4byte	0xd31
ARM GAS  /tmp/ccosgPvt.s 			page 43


 2387 0d27 1D       		.uleb128 0x1d
 2388 0d28 7500     		.ascii	"u\000"
 2389 0d2a 01       		.byte	0x1
 2390 0d2b 7A       		.byte	0x7a
 2391 0d2c 0E0D0000 		.4byte	0xd0e
 2392 0d30 00       		.byte	0
 2393 0d31 1C       		.uleb128 0x1c
 2394 0d32 EA000000 		.4byte	.LASF224
 2395 0d36 01       		.byte	0x1
 2396 0d37 87       		.byte	0x87
 2397 0d38 01       		.byte	0x1
 2398 0d39 01       		.byte	0x1
 2399 0d3a 7D0D0000 		.4byte	0xd7d
 2400 0d3e 1D       		.uleb128 0x1d
 2401 0d3f 73647000 		.ascii	"sdp\000"
 2402 0d43 01       		.byte	0x1
 2403 0d44 87       		.byte	0x87
 2404 0d45 7D0D0000 		.4byte	0xd7d
 2405 0d49 1D       		.uleb128 0x1d
 2406 0d4a 737200   		.ascii	"sr\000"
 2407 0d4d 01       		.byte	0x1
 2408 0d4e 87       		.byte	0x87
 2409 0d4f 62000000 		.4byte	0x62
 2410 0d53 1E       		.uleb128 0x1e
 2411 0d54 73747300 		.ascii	"sts\000"
 2412 0d58 01       		.byte	0x1
 2413 0d59 88       		.byte	0x88
 2414 0d5a 05010000 		.4byte	0x105
 2415 0d5e 1F       		.uleb128 0x1f
 2416 0d5f 6F0D0000 		.4byte	0xd6f
 2417 0d63 1E       		.uleb128 0x1e
 2418 0d64 746D7000 		.ascii	"tmp\000"
 2419 0d68 01       		.byte	0x1
 2420 0d69 92       		.byte	0x92
 2421 0d6a 86000000 		.4byte	0x86
 2422 0d6e 00       		.byte	0
 2423 0d6f 20       		.uleb128 0x20
 2424 0d70 1E       		.uleb128 0x1e
 2425 0d71 746D7000 		.ascii	"tmp\000"
 2426 0d75 01       		.byte	0x1
 2427 0d76 94       		.byte	0x94
 2428 0d77 86000000 		.4byte	0x86
 2429 0d7b 00       		.byte	0
 2430 0d7c 00       		.byte	0
 2431 0d7d 09       		.uleb128 0x9
 2432 0d7e 04       		.byte	0x4
 2433 0d7f A40B0000 		.4byte	0xba4
 2434 0d83 1C       		.uleb128 0x1c
 2435 0d84 DA000000 		.4byte	.LASF225
 2436 0d88 01       		.byte	0x1
 2437 0d89 9C       		.byte	0x9c
 2438 0d8a 01       		.byte	0x1
 2439 0d8b 01       		.byte	0x1
 2440 0d8c 530E0000 		.4byte	0xe53
 2441 0d90 1D       		.uleb128 0x1d
 2442 0d91 73647000 		.ascii	"sdp\000"
 2443 0d95 01       		.byte	0x1
ARM GAS  /tmp/ccosgPvt.s 			page 44


 2444 0d96 9C       		.byte	0x9c
 2445 0d97 7D0D0000 		.4byte	0xd7d
 2446 0d9b 1E       		.uleb128 0x1e
 2447 0d9c 7500     		.ascii	"u\000"
 2448 0d9e 01       		.byte	0x1
 2449 0d9f 9D       		.byte	0x9d
 2450 0da0 0E0D0000 		.4byte	0xd0e
 2451 0da4 1E       		.uleb128 0x1e
 2452 0da5 63723100 		.ascii	"cr1\000"
 2453 0da9 01       		.byte	0x1
 2454 0daa 9E       		.byte	0x9e
 2455 0dab 62000000 		.4byte	0x62
 2456 0daf 1E       		.uleb128 0x1e
 2457 0db0 737200   		.ascii	"sr\000"
 2458 0db3 01       		.byte	0x1
 2459 0db4 9F       		.byte	0x9f
 2460 0db5 62000000 		.4byte	0x62
 2461 0db9 1E       		.uleb128 0x1e
 2462 0dba 647200   		.ascii	"dr\000"
 2463 0dbd 01       		.byte	0x1
 2464 0dbe A0       		.byte	0xa0
 2465 0dbf 62000000 		.4byte	0x62
 2466 0dc3 1F       		.uleb128 0x1f
 2467 0dc4 D40D0000 		.4byte	0xdd4
 2468 0dc8 1E       		.uleb128 0x1e
 2469 0dc9 746D7000 		.ascii	"tmp\000"
 2470 0dcd 01       		.byte	0x1
 2471 0dce A7       		.byte	0xa7
 2472 0dcf 86000000 		.4byte	0x86
 2473 0dd3 00       		.byte	0
 2474 0dd4 1F       		.uleb128 0x1f
 2475 0dd5 E50D0000 		.4byte	0xde5
 2476 0dd9 1E       		.uleb128 0x1e
 2477 0dda 746D7000 		.ascii	"tmp\000"
 2478 0dde 01       		.byte	0x1
 2479 0ddf A9       		.byte	0xa9
 2480 0de0 86000000 		.4byte	0x86
 2481 0de4 00       		.byte	0
 2482 0de5 1F       		.uleb128 0x1f
 2483 0de6 F60D0000 		.4byte	0xdf6
 2484 0dea 1E       		.uleb128 0x1e
 2485 0deb 746D7000 		.ascii	"tmp\000"
 2486 0def 01       		.byte	0x1
 2487 0df0 AE       		.byte	0xae
 2488 0df1 86000000 		.4byte	0x86
 2489 0df5 00       		.byte	0
 2490 0df6 1F       		.uleb128 0x1f
 2491 0df7 070E0000 		.4byte	0xe07
 2492 0dfb 1E       		.uleb128 0x1e
 2493 0dfc 746D7000 		.ascii	"tmp\000"
 2494 0e00 01       		.byte	0x1
 2495 0e01 B0       		.byte	0xb0
 2496 0e02 86000000 		.4byte	0x86
 2497 0e06 00       		.byte	0
 2498 0e07 1F       		.uleb128 0x1f
 2499 0e08 340E0000 		.4byte	0xe34
 2500 0e0c 1E       		.uleb128 0x1e
ARM GAS  /tmp/ccosgPvt.s 			page 45


 2501 0e0d 6200     		.ascii	"b\000"
 2502 0e0f 01       		.byte	0x1
 2503 0e10 B4       		.byte	0xb4
 2504 0e11 EF000000 		.4byte	0xef
 2505 0e15 1F       		.uleb128 0x1f
 2506 0e16 260E0000 		.4byte	0xe26
 2507 0e1a 1E       		.uleb128 0x1e
 2508 0e1b 746D7000 		.ascii	"tmp\000"
 2509 0e1f 01       		.byte	0x1
 2510 0e20 B5       		.byte	0xb5
 2511 0e21 86000000 		.4byte	0x86
 2512 0e25 00       		.byte	0
 2513 0e26 20       		.uleb128 0x20
 2514 0e27 1E       		.uleb128 0x1e
 2515 0e28 746D7000 		.ascii	"tmp\000"
 2516 0e2c 01       		.byte	0x1
 2517 0e2d BD       		.byte	0xbd
 2518 0e2e 86000000 		.4byte	0x86
 2519 0e32 00       		.byte	0
 2520 0e33 00       		.byte	0
 2521 0e34 1F       		.uleb128 0x1f
 2522 0e35 450E0000 		.4byte	0xe45
 2523 0e39 1E       		.uleb128 0x1e
 2524 0e3a 746D7000 		.ascii	"tmp\000"
 2525 0e3e 01       		.byte	0x1
 2526 0e3f C1       		.byte	0xc1
 2527 0e40 86000000 		.4byte	0x86
 2528 0e44 00       		.byte	0
 2529 0e45 20       		.uleb128 0x20
 2530 0e46 1E       		.uleb128 0x1e
 2531 0e47 746D7000 		.ascii	"tmp\000"
 2532 0e4b 01       		.byte	0x1
 2533 0e4c C3       		.byte	0xc3
 2534 0e4d 86000000 		.4byte	0x86
 2535 0e51 00       		.byte	0
 2536 0e52 00       		.byte	0
 2537 0e53 21       		.uleb128 0x21
 2538 0e54 9A090000 		.4byte	.LASF246
 2539 0e58 01       		.byte	0x1
 2540 0e59 F2       		.byte	0xf2
 2541 0e5a 01       		.byte	0x1
 2542 0e5b 00000000 		.4byte	.LFB122
 2543 0e5f 14000000 		.4byte	.LFE122
 2544 0e63 02       		.byte	0x2
 2545 0e64 7D       		.byte	0x7d
 2546 0e65 00       		.sleb128 0
 2547 0e66 01       		.byte	0x1
 2548 0e67 780E0000 		.4byte	0xe78
 2549 0e6b 22       		.uleb128 0x22
 2550 0e6c 717000   		.ascii	"qp\000"
 2551 0e6f 01       		.byte	0x1
 2552 0e70 F2       		.byte	0xf2
 2553 0e71 5D050000 		.4byte	0x55d
 2554 0e75 01       		.byte	0x1
 2555 0e76 50       		.byte	0x50
 2556 0e77 00       		.byte	0
 2557 0e78 23       		.uleb128 0x23
ARM GAS  /tmp/ccosgPvt.s 			page 46


 2558 0e79 01       		.byte	0x1
 2559 0e7a AE090000 		.4byte	.LASF226
 2560 0e7e 01       		.byte	0x1
 2561 0e7f 6501     		.2byte	0x165
 2562 0e81 01       		.byte	0x1
 2563 0e82 00000000 		.4byte	.LFB123
 2564 0e86 6C010000 		.4byte	.LFE123
 2565 0e8a 00000000 		.4byte	.LLST0
 2566 0e8e 01       		.byte	0x1
 2567 0e8f 2A110000 		.4byte	0x112a
 2568 0e93 24       		.uleb128 0x24
 2569 0e94 830D0000 		.4byte	0xd83
 2570 0e98 08000000 		.4byte	.LBB30
 2571 0e9c 00000000 		.4byte	.Ldebug_ranges0+0
 2572 0ea0 01       		.byte	0x1
 2573 0ea1 6901     		.2byte	0x169
 2574 0ea3 0D110000 		.4byte	0x110d
 2575 0ea7 25       		.uleb128 0x25
 2576 0ea8 18000000 		.4byte	.Ldebug_ranges0+0x18
 2577 0eac 26       		.uleb128 0x26
 2578 0ead 9B0D0000 		.4byte	0xd9b
 2579 0eb1 01       		.byte	0x1
 2580 0eb2 55       		.byte	0x55
 2581 0eb3 26       		.uleb128 0x26
 2582 0eb4 A40D0000 		.4byte	0xda4
 2583 0eb8 01       		.byte	0x1
 2584 0eb9 56       		.byte	0x56
 2585 0eba 27       		.uleb128 0x27
 2586 0ebb AF0D0000 		.4byte	0xdaf
 2587 0ebf 20000000 		.4byte	.LLST1
 2588 0ec3 27       		.uleb128 0x27
 2589 0ec4 B90D0000 		.4byte	0xdb9
 2590 0ec8 3E000000 		.4byte	.LLST2
 2591 0ecc 28       		.uleb128 0x28
 2592 0ecd 900D0000 		.4byte	0xd90
 2593 0ed1 06       		.byte	0x6
 2594 0ed2 03       		.byte	0x3
 2595 0ed3 00000000 		.4byte	SD6
 2596 0ed7 9F       		.byte	0x9f
 2597 0ed8 29       		.uleb128 0x29
 2598 0ed9 4A000000 		.4byte	.LBB32
 2599 0edd 50000000 		.4byte	.LBE32
 2600 0ee1 EF0E0000 		.4byte	0xeef
 2601 0ee5 27       		.uleb128 0x27
 2602 0ee6 390E0000 		.4byte	0xe39
 2603 0eea 72000000 		.4byte	.LLST3
 2604 0eee 00       		.byte	0
 2605 0eef 29       		.uleb128 0x29
 2606 0ef0 60000000 		.4byte	.LBB33
 2607 0ef4 66000000 		.4byte	.LBE33
 2608 0ef8 060F0000 		.4byte	0xf06
 2609 0efc 27       		.uleb128 0x27
 2610 0efd 460E0000 		.4byte	0xe46
 2611 0f01 85000000 		.4byte	.LLST4
 2612 0f05 00       		.byte	0
 2613 0f06 29       		.uleb128 0x29
 2614 0f07 86000000 		.4byte	.LBB34
ARM GAS  /tmp/ccosgPvt.s 			page 47


 2615 0f0b 8C000000 		.4byte	.LBE34
 2616 0f0f 1D0F0000 		.4byte	0xf1d
 2617 0f13 27       		.uleb128 0x27
 2618 0f14 EA0D0000 		.4byte	0xdea
 2619 0f18 98000000 		.4byte	.LLST5
 2620 0f1c 00       		.byte	0
 2621 0f1d 29       		.uleb128 0x29
 2622 0f1e 9C000000 		.4byte	.LBB35
 2623 0f22 A4000000 		.4byte	.LBE35
 2624 0f26 340F0000 		.4byte	0xf34
 2625 0f2a 27       		.uleb128 0x27
 2626 0f2b FB0D0000 		.4byte	0xdfb
 2627 0f2f AB000000 		.4byte	.LLST6
 2628 0f33 00       		.byte	0
 2629 0f34 29       		.uleb128 0x29
 2630 0f35 A4000000 		.4byte	.LBB36
 2631 0f39 AA000000 		.4byte	.LBE36
 2632 0f3d 4B0F0000 		.4byte	0xf4b
 2633 0f41 27       		.uleb128 0x27
 2634 0f42 C80D0000 		.4byte	0xdc8
 2635 0f46 C9000000 		.4byte	.LLST7
 2636 0f4a 00       		.byte	0
 2637 0f4b 29       		.uleb128 0x29
 2638 0f4c BC000000 		.4byte	.LBB37
 2639 0f50 C2000000 		.4byte	.LBE37
 2640 0f54 620F0000 		.4byte	0xf62
 2641 0f58 27       		.uleb128 0x27
 2642 0f59 D90D0000 		.4byte	0xdd9
 2643 0f5d DC000000 		.4byte	.LLST8
 2644 0f61 00       		.byte	0
 2645 0f62 2A       		.uleb128 0x2a
 2646 0f63 310D0000 		.4byte	0xd31
 2647 0f67 D0000000 		.4byte	.LBB38
 2648 0f6b 24010000 		.4byte	.LBE38
 2649 0f6f 01       		.byte	0x1
 2650 0f70 A4       		.byte	0xa4
 2651 0f71 F80F0000 		.4byte	0xff8
 2652 0f75 2B       		.uleb128 0x2b
 2653 0f76 490D0000 		.4byte	0xd49
 2654 0f7a EF000000 		.4byte	.LLST9
 2655 0f7e 2C       		.uleb128 0x2c
 2656 0f7f D0000000 		.4byte	.LBB39
 2657 0f83 24010000 		.4byte	.LBE39
 2658 0f87 27       		.uleb128 0x27
 2659 0f88 530D0000 		.4byte	0xd53
 2660 0f8c 02010000 		.4byte	.LLST10
 2661 0f90 2B       		.uleb128 0x2b
 2662 0f91 3E0D0000 		.4byte	0xd3e
 2663 0f95 21010000 		.4byte	.LLST11
 2664 0f99 29       		.uleb128 0x29
 2665 0f9a 06010000 		.4byte	.LBB40
 2666 0f9e 0C010000 		.4byte	.LBE40
 2667 0fa2 B00F0000 		.4byte	0xfb0
 2668 0fa6 27       		.uleb128 0x27
 2669 0fa7 630D0000 		.4byte	0xd63
 2670 0fab 39010000 		.4byte	.LLST12
 2671 0faf 00       		.byte	0
ARM GAS  /tmp/ccosgPvt.s 			page 48


 2672 0fb0 29       		.uleb128 0x29
 2673 0fb1 1C010000 		.4byte	.LBB41
 2674 0fb5 24010000 		.4byte	.LBE41
 2675 0fb9 C70F0000 		.4byte	0xfc7
 2676 0fbd 27       		.uleb128 0x27
 2677 0fbe 700D0000 		.4byte	0xd70
 2678 0fc2 4C010000 		.4byte	.LLST13
 2679 0fc6 00       		.byte	0
 2680 0fc7 2D       		.uleb128 0x2d
 2681 0fc8 10010000 		.4byte	.LVL44
 2682 0fcc B3120000 		.4byte	0x12b3
 2683 0fd0 2E       		.uleb128 0x2e
 2684 0fd1 18010000 		.4byte	.LVL45
 2685 0fd5 BD120000 		.4byte	0x12bd
 2686 0fd9 ED0F0000 		.4byte	0xfed
 2687 0fdd 2F       		.uleb128 0x2f
 2688 0fde 01       		.byte	0x1
 2689 0fdf 51       		.byte	0x51
 2690 0fe0 02       		.byte	0x2
 2691 0fe1 78       		.byte	0x78
 2692 0fe2 00       		.sleb128 0
 2693 0fe3 2F       		.uleb128 0x2f
 2694 0fe4 01       		.byte	0x1
 2695 0fe5 50       		.byte	0x50
 2696 0fe6 05       		.byte	0x5
 2697 0fe7 03       		.byte	0x3
 2698 0fe8 04000000 		.4byte	.LANCHOR0+4
 2699 0fec 00       		.byte	0
 2700 0fed 2D       		.uleb128 0x2d
 2701 0fee 1C010000 		.4byte	.LVL46
 2702 0ff2 DC120000 		.4byte	0x12dc
 2703 0ff6 00       		.byte	0
 2704 0ff7 00       		.byte	0
 2705 0ff8 29       		.uleb128 0x29
 2706 0ff9 24010000 		.4byte	.LBB42
 2707 0ffd 6C010000 		.4byte	.LBE42
 2708 1001 7E100000 		.4byte	0x107e
 2709 1005 27       		.uleb128 0x27
 2710 1006 0C0E0000 		.4byte	0xe0c
 2711 100a 6A010000 		.4byte	.LLST14
 2712 100e 29       		.uleb128 0x29
 2713 100f 24010000 		.4byte	.LBB43
 2714 1013 2A010000 		.4byte	.LBE43
 2715 1017 25100000 		.4byte	0x1025
 2716 101b 27       		.uleb128 0x27
 2717 101c 1A0E0000 		.4byte	0xe1a
 2718 1020 7D010000 		.4byte	.LLST15
 2719 1024 00       		.byte	0
 2720 1025 29       		.uleb128 0x29
 2721 1026 42010000 		.4byte	.LBB44
 2722 102a 4A010000 		.4byte	.LBE44
 2723 102e 3C100000 		.4byte	0x103c
 2724 1032 27       		.uleb128 0x27
 2725 1033 270E0000 		.4byte	0xe27
 2726 1037 90010000 		.4byte	.LLST16
 2727 103b 00       		.byte	0
 2728 103c 2D       		.uleb128 0x2d
ARM GAS  /tmp/ccosgPvt.s 			page 49


 2729 103d 2E010000 		.4byte	.LVL51
 2730 1041 B3120000 		.4byte	0x12b3
 2731 1045 2E       		.uleb128 0x2e
 2732 1046 34010000 		.4byte	.LVL52
 2733 104a E6120000 		.4byte	0x12e6
 2734 104e 5C100000 		.4byte	0x105c
 2735 1052 2F       		.uleb128 0x2f
 2736 1053 01       		.byte	0x1
 2737 1054 50       		.byte	0x50
 2738 1055 05       		.byte	0x5
 2739 1056 03       		.byte	0x3
 2740 1057 30000000 		.4byte	.LANCHOR0+48
 2741 105b 00       		.byte	0
 2742 105c 2D       		.uleb128 0x2d
 2743 105d 42010000 		.4byte	.LVL54
 2744 1061 DC120000 		.4byte	0x12dc
 2745 1065 30       		.uleb128 0x30
 2746 1066 52010000 		.4byte	.LVL57
 2747 106a BD120000 		.4byte	0x12bd
 2748 106e 2F       		.uleb128 0x2f
 2749 106f 01       		.byte	0x1
 2750 1070 51       		.byte	0x51
 2751 1071 01       		.byte	0x1
 2752 1072 38       		.byte	0x38
 2753 1073 2F       		.uleb128 0x2f
 2754 1074 01       		.byte	0x1
 2755 1075 50       		.byte	0x50
 2756 1076 05       		.byte	0x5
 2757 1077 03       		.byte	0x3
 2758 1078 04000000 		.4byte	.LANCHOR0+4
 2759 107c 00       		.byte	0
 2760 107d 00       		.byte	0
 2761 107e 2D       		.uleb128 0x2d
 2762 107f 54000000 		.4byte	.LVL13
 2763 1083 B3120000 		.4byte	0x12b3
 2764 1087 2E       		.uleb128 0x2e
 2765 1088 5C000000 		.4byte	.LVL14
 2766 108c BD120000 		.4byte	0x12bd
 2767 1090 A3100000 		.4byte	0x10a3
 2768 1094 2F       		.uleb128 0x2f
 2769 1095 01       		.byte	0x1
 2770 1096 51       		.byte	0x51
 2771 1097 01       		.byte	0x1
 2772 1098 40       		.byte	0x40
 2773 1099 2F       		.uleb128 0x2f
 2774 109a 01       		.byte	0x1
 2775 109b 50       		.byte	0x50
 2776 109c 05       		.byte	0x5
 2777 109d 03       		.byte	0x3
 2778 109e 04000000 		.4byte	.LANCHOR0+4
 2779 10a2 00       		.byte	0
 2780 10a3 2D       		.uleb128 0x2d
 2781 10a4 60000000 		.4byte	.LVL15
 2782 10a8 DC120000 		.4byte	0x12dc
 2783 10ac 2D       		.uleb128 0x2d
 2784 10ad 90000000 		.4byte	.LVL24
 2785 10b1 B3120000 		.4byte	0x12b3
ARM GAS  /tmp/ccosgPvt.s 			page 50


 2786 10b5 2E       		.uleb128 0x2e
 2787 10b6 98000000 		.4byte	.LVL25
 2788 10ba FF120000 		.4byte	0x12ff
 2789 10be D2100000 		.4byte	0x10d2
 2790 10c2 2F       		.uleb128 0x2f
 2791 10c3 01       		.byte	0x1
 2792 10c4 51       		.byte	0x51
 2793 10c5 02       		.byte	0x2
 2794 10c6 77       		.byte	0x77
 2795 10c7 00       		.sleb128 0
 2796 10c8 2F       		.uleb128 0x2f
 2797 10c9 01       		.byte	0x1
 2798 10ca 50       		.byte	0x50
 2799 10cb 05       		.byte	0x5
 2800 10cc 03       		.byte	0x3
 2801 10cd 00000000 		.4byte	.LANCHOR0
 2802 10d1 00       		.byte	0
 2803 10d2 2D       		.uleb128 0x2d
 2804 10d3 9C000000 		.4byte	.LVL26
 2805 10d7 DC120000 		.4byte	0x12dc
 2806 10db 2D       		.uleb128 0x2d
 2807 10dc AE000000 		.4byte	.LVL31
 2808 10e0 B3120000 		.4byte	0x12b3
 2809 10e4 2E       		.uleb128 0x2e
 2810 10e5 B8000000 		.4byte	.LVL32
 2811 10e9 BD120000 		.4byte	0x12bd
 2812 10ed 02110000 		.4byte	0x1102
 2813 10f1 2F       		.uleb128 0x2f
 2814 10f2 01       		.byte	0x1
 2815 10f3 51       		.byte	0x51
 2816 10f4 03       		.byte	0x3
 2817 10f5 0A       		.byte	0xa
 2818 10f6 0002     		.2byte	0x200
 2819 10f8 2F       		.uleb128 0x2f
 2820 10f9 01       		.byte	0x1
 2821 10fa 50       		.byte	0x50
 2822 10fb 05       		.byte	0x5
 2823 10fc 03       		.byte	0x3
 2824 10fd 04000000 		.4byte	.LANCHOR0+4
 2825 1101 00       		.byte	0
 2826 1102 2D       		.uleb128 0x2d
 2827 1103 BC000000 		.4byte	.LVL33
 2828 1107 DC120000 		.4byte	0x12dc
 2829 110b 00       		.byte	0
 2830 110c 00       		.byte	0
 2831 110d 2D       		.uleb128 0x2d
 2832 110e 08000000 		.4byte	.LVL1
 2833 1112 19130000 		.4byte	0x1319
 2834 1116 2D       		.uleb128 0x2d
 2835 1117 7E000000 		.4byte	.LVL20
 2836 111b 23130000 		.4byte	0x1323
 2837 111f 31       		.uleb128 0x31
 2838 1120 86000000 		.4byte	.LVL21
 2839 1124 01       		.byte	0x1
 2840 1125 2D130000 		.4byte	0x132d
 2841 1129 00       		.byte	0
 2842 112a 23       		.uleb128 0x23
ARM GAS  /tmp/ccosgPvt.s 			page 51


 2843 112b 01       		.byte	0x1
 2844 112c 79050000 		.4byte	.LASF227
 2845 1130 01       		.byte	0x1
 2846 1131 7801     		.2byte	0x178
 2847 1133 01       		.byte	0x1
 2848 1134 00000000 		.4byte	.LFB124
 2849 1138 26000000 		.4byte	.LFE124
 2850 113c B9010000 		.4byte	.LLST17
 2851 1140 01       		.byte	0x1
 2852 1141 64110000 		.4byte	0x1164
 2853 1145 30       		.uleb128 0x30
 2854 1146 1A000000 		.4byte	.LVL58
 2855 114a 38130000 		.4byte	0x1338
 2856 114e 2F       		.uleb128 0x2f
 2857 114f 01       		.byte	0x1
 2858 1150 52       		.byte	0x52
 2859 1151 05       		.byte	0x5
 2860 1152 03       		.byte	0x3
 2861 1153 00000000 		.4byte	notify6
 2862 1157 2F       		.uleb128 0x2f
 2863 1158 01       		.byte	0x1
 2864 1159 51       		.byte	0x51
 2865 115a 01       		.byte	0x1
 2866 115b 30       		.byte	0x30
 2867 115c 2F       		.uleb128 0x2f
 2868 115d 01       		.byte	0x1
 2869 115e 50       		.byte	0x50
 2870 115f 02       		.byte	0x2
 2871 1160 74       		.byte	0x74
 2872 1161 00       		.sleb128 0
 2873 1162 00       		.byte	0
 2874 1163 00       		.byte	0
 2875 1164 1C       		.uleb128 0x1c
 2876 1165 21080000 		.4byte	.LASF228
 2877 1169 01       		.byte	0x1
 2878 116a 5C       		.byte	0x5c
 2879 116b 01       		.byte	0x1
 2880 116c 01       		.byte	0x1
 2881 116d 91110000 		.4byte	0x1191
 2882 1171 1D       		.uleb128 0x1d
 2883 1172 73647000 		.ascii	"sdp\000"
 2884 1176 01       		.byte	0x1
 2885 1177 5C       		.byte	0x5c
 2886 1178 7D0D0000 		.4byte	0xd7d
 2887 117c 32       		.uleb128 0x32
 2888 117d B2000000 		.4byte	.LASF229
 2889 1181 01       		.byte	0x1
 2890 1182 5C       		.byte	0x5c
 2891 1183 91110000 		.4byte	0x1191
 2892 1187 1E       		.uleb128 0x1e
 2893 1188 7500     		.ascii	"u\000"
 2894 118a 01       		.byte	0x1
 2895 118b 5D       		.byte	0x5d
 2896 118c 0E0D0000 		.4byte	0xd0e
 2897 1190 00       		.byte	0
 2898 1191 09       		.uleb128 0x9
 2899 1192 04       		.byte	0x4
ARM GAS  /tmp/ccosgPvt.s 			page 52


 2900 1193 97110000 		.4byte	0x1197
 2901 1197 10       		.uleb128 0x10
 2902 1198 6B0C0000 		.4byte	0xc6b
 2903 119c 23       		.uleb128 0x23
 2904 119d 01       		.byte	0x1
 2905 119e 9B010000 		.4byte	.LASF230
 2906 11a2 01       		.byte	0x1
 2907 11a3 A301     		.2byte	0x1a3
 2908 11a5 01       		.byte	0x1
 2909 11a6 00000000 		.4byte	.LFB125
 2910 11aa 9C000000 		.4byte	.LFE125
 2911 11ae D9010000 		.4byte	.LLST18
 2912 11b2 01       		.byte	0x1
 2913 11b3 28120000 		.4byte	0x1228
 2914 11b7 33       		.uleb128 0x33
 2915 11b8 73647000 		.ascii	"sdp\000"
 2916 11bc 01       		.byte	0x1
 2917 11bd A301     		.2byte	0x1a3
 2918 11bf 7D0D0000 		.4byte	0xd7d
 2919 11c3 F9010000 		.4byte	.LLST19
 2920 11c7 34       		.uleb128 0x34
 2921 11c8 B2000000 		.4byte	.LASF229
 2922 11cc 01       		.byte	0x1
 2923 11cd A301     		.2byte	0x1a3
 2924 11cf 91110000 		.4byte	0x1191
 2925 11d3 2D020000 		.4byte	.LLST20
 2926 11d7 35       		.uleb128 0x35
 2927 11d8 64110000 		.4byte	0x1164
 2928 11dc 12000000 		.4byte	.LBB49
 2929 11e0 74000000 		.4byte	.LBE49
 2930 11e4 01       		.byte	0x1
 2931 11e5 D401     		.2byte	0x1d4
 2932 11e7 11120000 		.4byte	0x1211
 2933 11eb 2B       		.uleb128 0x2b
 2934 11ec 7C110000 		.4byte	0x117c
 2935 11f0 4B020000 		.4byte	.LLST21
 2936 11f4 2B       		.uleb128 0x2b
 2937 11f5 71110000 		.4byte	0x1171
 2938 11f9 5E020000 		.4byte	.LLST22
 2939 11fd 2C       		.uleb128 0x2c
 2940 11fe 12000000 		.4byte	.LBB50
 2941 1202 74000000 		.4byte	.LBE50
 2942 1206 27       		.uleb128 0x27
 2943 1207 87110000 		.4byte	0x1187
 2944 120b 71020000 		.4byte	.LLST23
 2945 120f 00       		.byte	0
 2946 1210 00       		.byte	0
 2947 1211 30       		.uleb128 0x30
 2948 1212 92000000 		.4byte	.LVL66
 2949 1216 57130000 		.4byte	0x1357
 2950 121a 2F       		.uleb128 0x2f
 2951 121b 01       		.byte	0x1
 2952 121c 51       		.byte	0x51
 2953 121d 02       		.byte	0x2
 2954 121e 08       		.byte	0x8
 2955 121f C0       		.byte	0xc0
 2956 1220 2F       		.uleb128 0x2f
ARM GAS  /tmp/ccosgPvt.s 			page 53


 2957 1221 01       		.byte	0x1
 2958 1222 50       		.byte	0x50
 2959 1223 02       		.byte	0x2
 2960 1224 08       		.byte	0x8
 2961 1225 47       		.byte	0x47
 2962 1226 00       		.byte	0
 2963 1227 00       		.byte	0
 2964 1228 36       		.uleb128 0x36
 2965 1229 01       		.byte	0x1
 2966 122a B30A0000 		.4byte	.LASF231
 2967 122e 01       		.byte	0x1
 2968 122f E001     		.2byte	0x1e0
 2969 1231 01       		.byte	0x1
 2970 1232 00000000 		.4byte	.LFB126
 2971 1236 34000000 		.4byte	.LFE126
 2972 123a 02       		.byte	0x2
 2973 123b 7D       		.byte	0x7d
 2974 123c 00       		.sleb128 0
 2975 123d 01       		.byte	0x1
 2976 123e 82120000 		.4byte	0x1282
 2977 1242 33       		.uleb128 0x33
 2978 1243 73647000 		.ascii	"sdp\000"
 2979 1247 01       		.byte	0x1
 2980 1248 E001     		.2byte	0x1e0
 2981 124a 7D0D0000 		.4byte	0xd7d
 2982 124e 91020000 		.4byte	.LLST24
 2983 1252 35       		.uleb128 0x35
 2984 1253 1A0D0000 		.4byte	0xd1a
 2985 1257 0A000000 		.4byte	.LBB51
 2986 125b 12000000 		.4byte	.LBE51
 2987 125f 01       		.byte	0x1
 2988 1260 E301     		.2byte	0x1e3
 2989 1262 70120000 		.4byte	0x1270
 2990 1266 2B       		.uleb128 0x2b
 2991 1267 270D0000 		.4byte	0xd27
 2992 126b B2020000 		.4byte	.LLST25
 2993 126f 00       		.byte	0
 2994 1270 37       		.uleb128 0x37
 2995 1271 2E000000 		.4byte	.LVL71
 2996 1275 01       		.byte	0x1
 2997 1276 71130000 		.4byte	0x1371
 2998 127a 2F       		.uleb128 0x2f
 2999 127b 01       		.byte	0x1
 3000 127c 50       		.byte	0x50
 3001 127d 02       		.byte	0x2
 3002 127e 08       		.byte	0x8
 3003 127f 47       		.byte	0x47
 3004 1280 00       		.byte	0
 3005 1281 00       		.byte	0
 3006 1282 38       		.uleb128 0x38
 3007 1283 EE010000 		.4byte	.LASF247
 3008 1287 01       		.byte	0x1
 3009 1288 49       		.byte	0x49
 3010 1289 97110000 		.4byte	0x1197
 3011 128d 05       		.byte	0x5
 3012 128e 03       		.byte	0x3
 3013 128f 00000000 		.4byte	default_config
ARM GAS  /tmp/ccosgPvt.s 			page 54


 3014 1293 39       		.uleb128 0x39
 3015 1294 070A0000 		.4byte	.LASF232
 3016 1298 10       		.byte	0x10
 3017 1299 9806     		.2byte	0x698
 3018 129b 35080000 		.4byte	0x835
 3019 129f 01       		.byte	0x1
 3020 12a0 01       		.byte	0x1
 3021 12a1 3A       		.uleb128 0x3a
 3022 12a2 53443600 		.ascii	"SD6\000"
 3023 12a6 01       		.byte	0x1
 3024 12a7 41       		.byte	0x41
 3025 12a8 A40B0000 		.4byte	0xba4
 3026 12ac 01       		.byte	0x1
 3027 12ad 05       		.byte	0x5
 3028 12ae 03       		.byte	0x3
 3029 12af 00000000 		.4byte	SD6
 3030 12b3 3B       		.uleb128 0x3b
 3031 12b4 01       		.byte	0x1
 3032 12b5 E7030000 		.4byte	.LASF233
 3033 12b9 0E       		.byte	0xe
 3034 12ba E2       		.byte	0xe2
 3035 12bb 01       		.byte	0x1
 3036 12bc 01       		.byte	0x1
 3037 12bd 3C       		.uleb128 0x3c
 3038 12be 01       		.byte	0x1
 3039 12bf B9070000 		.4byte	.LASF235
 3040 12c3 09       		.byte	0x9
 3041 12c4 B3       		.byte	0xb3
 3042 12c5 01       		.byte	0x1
 3043 12c6 01       		.byte	0x1
 3044 12c7 D6120000 		.4byte	0x12d6
 3045 12cb 12       		.uleb128 0x12
 3046 12cc D6120000 		.4byte	0x12d6
 3047 12d0 12       		.uleb128 0x12
 3048 12d1 05010000 		.4byte	0x105
 3049 12d5 00       		.byte	0
 3050 12d6 09       		.uleb128 0x9
 3051 12d7 04       		.byte	0x4
 3052 12d8 44040000 		.4byte	0x444
 3053 12dc 3B       		.uleb128 0x3b
 3054 12dd 01       		.byte	0x1
 3055 12de 6A060000 		.4byte	.LASF234
 3056 12e2 0E       		.byte	0xe
 3057 12e3 E3       		.byte	0xe3
 3058 12e4 01       		.byte	0x1
 3059 12e5 01       		.byte	0x1
 3060 12e6 3D       		.uleb128 0x3d
 3061 12e7 01       		.byte	0x1
 3062 12e8 23070000 		.4byte	.LASF248
 3063 12ec 0A       		.byte	0xa
 3064 12ed 6701     		.2byte	0x167
 3065 12ef 01       		.byte	0x1
 3066 12f0 EF000000 		.4byte	0xef
 3067 12f4 01       		.byte	0x1
 3068 12f5 FF120000 		.4byte	0x12ff
 3069 12f9 12       		.uleb128 0x12
 3070 12fa 140D0000 		.4byte	0xd14
ARM GAS  /tmp/ccosgPvt.s 			page 55


 3071 12fe 00       		.byte	0
 3072 12ff 3E       		.uleb128 0x3e
 3073 1300 01       		.byte	0x1
 3074 1301 F1050000 		.4byte	.LASF236
 3075 1305 0C       		.byte	0xc
 3076 1306 3401     		.2byte	0x134
 3077 1308 01       		.byte	0x1
 3078 1309 01       		.byte	0x1
 3079 130a 19130000 		.4byte	0x1319
 3080 130e 12       		.uleb128 0x12
 3081 130f 7D0D0000 		.4byte	0xd7d
 3082 1313 12       		.uleb128 0x12
 3083 1314 49000000 		.4byte	0x49
 3084 1318 00       		.byte	0
 3085 1319 3B       		.uleb128 0x3b
 3086 131a 01       		.byte	0x1
 3087 131b 11040000 		.4byte	.LASF237
 3088 131f 0E       		.byte	0xe
 3089 1320 E4       		.byte	0xe4
 3090 1321 01       		.byte	0x1
 3091 1322 01       		.byte	0x1
 3092 1323 3B       		.uleb128 0x3b
 3093 1324 01       		.byte	0x1
 3094 1325 50080000 		.4byte	.LASF238
 3095 1329 0E       		.byte	0xe
 3096 132a E5       		.byte	0xe5
 3097 132b 01       		.byte	0x1
 3098 132c 01       		.byte	0x1
 3099 132d 3F       		.uleb128 0x3f
 3100 132e 01       		.byte	0x1
 3101 132f 35070000 		.4byte	.LASF239
 3102 1333 07       		.byte	0x7
 3103 1334 FC01     		.2byte	0x1fc
 3104 1336 01       		.byte	0x1
 3105 1337 01       		.byte	0x1
 3106 1338 3E       		.uleb128 0x3e
 3107 1339 01       		.byte	0x1
 3108 133a BA010000 		.4byte	.LASF240
 3109 133e 0C       		.byte	0xc
 3110 133f 3101     		.2byte	0x131
 3111 1341 01       		.byte	0x1
 3112 1342 01       		.byte	0x1
 3113 1343 57130000 		.4byte	0x1357
 3114 1347 12       		.uleb128 0x12
 3115 1348 7D0D0000 		.4byte	0xd7d
 3116 134c 12       		.uleb128 0x12
 3117 134d 40050000 		.4byte	0x540
 3118 1351 12       		.uleb128 0x12
 3119 1352 40050000 		.4byte	0x540
 3120 1356 00       		.byte	0
 3121 1357 3E       		.uleb128 0x3e
 3122 1358 01       		.byte	0x1
 3123 1359 4C0A0000 		.4byte	.LASF241
 3124 135d 0F       		.byte	0xf
 3125 135e 1C01     		.2byte	0x11c
 3126 1360 01       		.byte	0x1
 3127 1361 01       		.byte	0x1
ARM GAS  /tmp/ccosgPvt.s 			page 56


 3128 1362 71130000 		.4byte	0x1371
 3129 1366 12       		.uleb128 0x12
 3130 1367 86000000 		.4byte	0x86
 3131 136b 12       		.uleb128 0x12
 3132 136c 86000000 		.4byte	0x86
 3133 1370 00       		.byte	0
 3134 1371 40       		.uleb128 0x40
 3135 1372 01       		.byte	0x1
 3136 1373 D7070000 		.4byte	.LASF249
 3137 1377 0F       		.byte	0xf
 3138 1378 1D01     		.2byte	0x11d
 3139 137a 01       		.byte	0x1
 3140 137b 01       		.byte	0x1
 3141 137c 12       		.uleb128 0x12
 3142 137d 86000000 		.4byte	0x86
 3143 1381 00       		.byte	0
 3144 1382 00       		.byte	0
 3145              		.section	.debug_abbrev,"",%progbits
 3146              	.Ldebug_abbrev0:
 3147 0000 01       		.uleb128 0x1
 3148 0001 11       		.uleb128 0x11
 3149 0002 01       		.byte	0x1
 3150 0003 25       		.uleb128 0x25
 3151 0004 0E       		.uleb128 0xe
 3152 0005 13       		.uleb128 0x13
 3153 0006 0B       		.uleb128 0xb
 3154 0007 03       		.uleb128 0x3
 3155 0008 0E       		.uleb128 0xe
 3156 0009 1B       		.uleb128 0x1b
 3157 000a 0E       		.uleb128 0xe
 3158 000b 55       		.uleb128 0x55
 3159 000c 06       		.uleb128 0x6
 3160 000d 11       		.uleb128 0x11
 3161 000e 01       		.uleb128 0x1
 3162 000f 52       		.uleb128 0x52
 3163 0010 01       		.uleb128 0x1
 3164 0011 10       		.uleb128 0x10
 3165 0012 06       		.uleb128 0x6
 3166 0013 00       		.byte	0
 3167 0014 00       		.byte	0
 3168 0015 02       		.uleb128 0x2
 3169 0016 24       		.uleb128 0x24
 3170 0017 00       		.byte	0
 3171 0018 0B       		.uleb128 0xb
 3172 0019 0B       		.uleb128 0xb
 3173 001a 3E       		.uleb128 0x3e
 3174 001b 0B       		.uleb128 0xb
 3175 001c 03       		.uleb128 0x3
 3176 001d 08       		.uleb128 0x8
 3177 001e 00       		.byte	0
 3178 001f 00       		.byte	0
 3179 0020 03       		.uleb128 0x3
 3180 0021 16       		.uleb128 0x16
 3181 0022 00       		.byte	0
 3182 0023 03       		.uleb128 0x3
 3183 0024 0E       		.uleb128 0xe
 3184 0025 3A       		.uleb128 0x3a
ARM GAS  /tmp/ccosgPvt.s 			page 57


 3185 0026 0B       		.uleb128 0xb
 3186 0027 3B       		.uleb128 0x3b
 3187 0028 0B       		.uleb128 0xb
 3188 0029 49       		.uleb128 0x49
 3189 002a 13       		.uleb128 0x13
 3190 002b 00       		.byte	0
 3191 002c 00       		.byte	0
 3192 002d 04       		.uleb128 0x4
 3193 002e 24       		.uleb128 0x24
 3194 002f 00       		.byte	0
 3195 0030 0B       		.uleb128 0xb
 3196 0031 0B       		.uleb128 0xb
 3197 0032 3E       		.uleb128 0x3e
 3198 0033 0B       		.uleb128 0xb
 3199 0034 03       		.uleb128 0x3
 3200 0035 0E       		.uleb128 0xe
 3201 0036 00       		.byte	0
 3202 0037 00       		.byte	0
 3203 0038 05       		.uleb128 0x5
 3204 0039 13       		.uleb128 0x13
 3205 003a 01       		.byte	0x1
 3206 003b 03       		.uleb128 0x3
 3207 003c 0E       		.uleb128 0xe
 3208 003d 0B       		.uleb128 0xb
 3209 003e 0B       		.uleb128 0xb
 3210 003f 3A       		.uleb128 0x3a
 3211 0040 0B       		.uleb128 0xb
 3212 0041 3B       		.uleb128 0x3b
 3213 0042 0B       		.uleb128 0xb
 3214 0043 01       		.uleb128 0x1
 3215 0044 13       		.uleb128 0x13
 3216 0045 00       		.byte	0
 3217 0046 00       		.byte	0
 3218 0047 06       		.uleb128 0x6
 3219 0048 0D       		.uleb128 0xd
 3220 0049 00       		.byte	0
 3221 004a 03       		.uleb128 0x3
 3222 004b 0E       		.uleb128 0xe
 3223 004c 3A       		.uleb128 0x3a
 3224 004d 0B       		.uleb128 0xb
 3225 004e 3B       		.uleb128 0x3b
 3226 004f 0B       		.uleb128 0xb
 3227 0050 49       		.uleb128 0x49
 3228 0051 13       		.uleb128 0x13
 3229 0052 38       		.uleb128 0x38
 3230 0053 0A       		.uleb128 0xa
 3231 0054 00       		.byte	0
 3232 0055 00       		.byte	0
 3233 0056 07       		.uleb128 0x7
 3234 0057 0D       		.uleb128 0xd
 3235 0058 00       		.byte	0
 3236 0059 03       		.uleb128 0x3
 3237 005a 08       		.uleb128 0x8
 3238 005b 3A       		.uleb128 0x3a
 3239 005c 0B       		.uleb128 0xb
 3240 005d 3B       		.uleb128 0x3b
 3241 005e 0B       		.uleb128 0xb
ARM GAS  /tmp/ccosgPvt.s 			page 58


 3242 005f 49       		.uleb128 0x49
 3243 0060 13       		.uleb128 0x13
 3244 0061 38       		.uleb128 0x38
 3245 0062 0A       		.uleb128 0xa
 3246 0063 00       		.byte	0
 3247 0064 00       		.byte	0
 3248 0065 08       		.uleb128 0x8
 3249 0066 13       		.uleb128 0x13
 3250 0067 01       		.byte	0x1
 3251 0068 0B       		.uleb128 0xb
 3252 0069 0B       		.uleb128 0xb
 3253 006a 3A       		.uleb128 0x3a
 3254 006b 0B       		.uleb128 0xb
 3255 006c 3B       		.uleb128 0x3b
 3256 006d 0B       		.uleb128 0xb
 3257 006e 01       		.uleb128 0x1
 3258 006f 13       		.uleb128 0x13
 3259 0070 00       		.byte	0
 3260 0071 00       		.byte	0
 3261 0072 09       		.uleb128 0x9
 3262 0073 0F       		.uleb128 0xf
 3263 0074 00       		.byte	0
 3264 0075 0B       		.uleb128 0xb
 3265 0076 0B       		.uleb128 0xb
 3266 0077 49       		.uleb128 0x49
 3267 0078 13       		.uleb128 0x13
 3268 0079 00       		.byte	0
 3269 007a 00       		.byte	0
 3270 007b 0A       		.uleb128 0xa
 3271 007c 0F       		.uleb128 0xf
 3272 007d 00       		.byte	0
 3273 007e 0B       		.uleb128 0xb
 3274 007f 0B       		.uleb128 0xb
 3275 0080 00       		.byte	0
 3276 0081 00       		.byte	0
 3277 0082 0B       		.uleb128 0xb
 3278 0083 13       		.uleb128 0x13
 3279 0084 01       		.byte	0x1
 3280 0085 03       		.uleb128 0x3
 3281 0086 0E       		.uleb128 0xe
 3282 0087 0B       		.uleb128 0xb
 3283 0088 0B       		.uleb128 0xb
 3284 0089 3A       		.uleb128 0x3a
 3285 008a 0B       		.uleb128 0xb
 3286 008b 3B       		.uleb128 0x3b
 3287 008c 05       		.uleb128 0x5
 3288 008d 01       		.uleb128 0x1
 3289 008e 13       		.uleb128 0x13
 3290 008f 00       		.byte	0
 3291 0090 00       		.byte	0
 3292 0091 0C       		.uleb128 0xc
 3293 0092 0D       		.uleb128 0xd
 3294 0093 00       		.byte	0
 3295 0094 03       		.uleb128 0x3
 3296 0095 08       		.uleb128 0x8
 3297 0096 3A       		.uleb128 0x3a
 3298 0097 0B       		.uleb128 0xb
ARM GAS  /tmp/ccosgPvt.s 			page 59


 3299 0098 3B       		.uleb128 0x3b
 3300 0099 05       		.uleb128 0x5
 3301 009a 49       		.uleb128 0x49
 3302 009b 13       		.uleb128 0x13
 3303 009c 38       		.uleb128 0x38
 3304 009d 0A       		.uleb128 0xa
 3305 009e 00       		.byte	0
 3306 009f 00       		.byte	0
 3307 00a0 0D       		.uleb128 0xd
 3308 00a1 35       		.uleb128 0x35
 3309 00a2 00       		.byte	0
 3310 00a3 49       		.uleb128 0x49
 3311 00a4 13       		.uleb128 0x13
 3312 00a5 00       		.byte	0
 3313 00a6 00       		.byte	0
 3314 00a7 0E       		.uleb128 0xe
 3315 00a8 17       		.uleb128 0x17
 3316 00a9 01       		.byte	0x1
 3317 00aa 0B       		.uleb128 0xb
 3318 00ab 0B       		.uleb128 0xb
 3319 00ac 3A       		.uleb128 0x3a
 3320 00ad 0B       		.uleb128 0xb
 3321 00ae 3B       		.uleb128 0x3b
 3322 00af 0B       		.uleb128 0xb
 3323 00b0 01       		.uleb128 0x1
 3324 00b1 13       		.uleb128 0x13
 3325 00b2 00       		.byte	0
 3326 00b3 00       		.byte	0
 3327 00b4 0F       		.uleb128 0xf
 3328 00b5 0D       		.uleb128 0xd
 3329 00b6 00       		.byte	0
 3330 00b7 03       		.uleb128 0x3
 3331 00b8 0E       		.uleb128 0xe
 3332 00b9 3A       		.uleb128 0x3a
 3333 00ba 0B       		.uleb128 0xb
 3334 00bb 3B       		.uleb128 0x3b
 3335 00bc 0B       		.uleb128 0xb
 3336 00bd 49       		.uleb128 0x49
 3337 00be 13       		.uleb128 0x13
 3338 00bf 00       		.byte	0
 3339 00c0 00       		.byte	0
 3340 00c1 10       		.uleb128 0x10
 3341 00c2 26       		.uleb128 0x26
 3342 00c3 00       		.byte	0
 3343 00c4 49       		.uleb128 0x49
 3344 00c5 13       		.uleb128 0x13
 3345 00c6 00       		.byte	0
 3346 00c7 00       		.byte	0
 3347 00c8 11       		.uleb128 0x11
 3348 00c9 15       		.uleb128 0x15
 3349 00ca 01       		.byte	0x1
 3350 00cb 27       		.uleb128 0x27
 3351 00cc 0C       		.uleb128 0xc
 3352 00cd 49       		.uleb128 0x49
 3353 00ce 13       		.uleb128 0x13
 3354 00cf 01       		.uleb128 0x1
 3355 00d0 13       		.uleb128 0x13
ARM GAS  /tmp/ccosgPvt.s 			page 60


 3356 00d1 00       		.byte	0
 3357 00d2 00       		.byte	0
 3358 00d3 12       		.uleb128 0x12
 3359 00d4 05       		.uleb128 0x5
 3360 00d5 00       		.byte	0
 3361 00d6 49       		.uleb128 0x49
 3362 00d7 13       		.uleb128 0x13
 3363 00d8 00       		.byte	0
 3364 00d9 00       		.byte	0
 3365 00da 13       		.uleb128 0x13
 3366 00db 15       		.uleb128 0x15
 3367 00dc 01       		.byte	0x1
 3368 00dd 27       		.uleb128 0x27
 3369 00de 0C       		.uleb128 0xc
 3370 00df 01       		.uleb128 0x1
 3371 00e0 13       		.uleb128 0x13
 3372 00e1 00       		.byte	0
 3373 00e2 00       		.byte	0
 3374 00e3 14       		.uleb128 0x14
 3375 00e4 04       		.uleb128 0x4
 3376 00e5 01       		.byte	0x1
 3377 00e6 03       		.uleb128 0x3
 3378 00e7 0E       		.uleb128 0xe
 3379 00e8 0B       		.uleb128 0xb
 3380 00e9 0B       		.uleb128 0xb
 3381 00ea 3A       		.uleb128 0x3a
 3382 00eb 0B       		.uleb128 0xb
 3383 00ec 3B       		.uleb128 0x3b
 3384 00ed 0B       		.uleb128 0xb
 3385 00ee 01       		.uleb128 0x1
 3386 00ef 13       		.uleb128 0x13
 3387 00f0 00       		.byte	0
 3388 00f1 00       		.byte	0
 3389 00f2 15       		.uleb128 0x15
 3390 00f3 28       		.uleb128 0x28
 3391 00f4 00       		.byte	0
 3392 00f5 03       		.uleb128 0x3
 3393 00f6 0E       		.uleb128 0xe
 3394 00f7 1C       		.uleb128 0x1c
 3395 00f8 0D       		.uleb128 0xd
 3396 00f9 00       		.byte	0
 3397 00fa 00       		.byte	0
 3398 00fb 16       		.uleb128 0x16
 3399 00fc 01       		.uleb128 0x1
 3400 00fd 01       		.byte	0x1
 3401 00fe 49       		.uleb128 0x49
 3402 00ff 13       		.uleb128 0x13
 3403 0100 01       		.uleb128 0x1
 3404 0101 13       		.uleb128 0x13
 3405 0102 00       		.byte	0
 3406 0103 00       		.byte	0
 3407 0104 17       		.uleb128 0x17
 3408 0105 21       		.uleb128 0x21
 3409 0106 00       		.byte	0
 3410 0107 49       		.uleb128 0x49
 3411 0108 13       		.uleb128 0x13
 3412 0109 2F       		.uleb128 0x2f
ARM GAS  /tmp/ccosgPvt.s 			page 61


 3413 010a 0B       		.uleb128 0xb
 3414 010b 00       		.byte	0
 3415 010c 00       		.byte	0
 3416 010d 18       		.uleb128 0x18
 3417 010e 13       		.uleb128 0x13
 3418 010f 01       		.byte	0x1
 3419 0110 0B       		.uleb128 0xb
 3420 0111 0B       		.uleb128 0xb
 3421 0112 3A       		.uleb128 0x3a
 3422 0113 0B       		.uleb128 0xb
 3423 0114 3B       		.uleb128 0x3b
 3424 0115 05       		.uleb128 0x5
 3425 0116 01       		.uleb128 0x1
 3426 0117 13       		.uleb128 0x13
 3427 0118 00       		.byte	0
 3428 0119 00       		.byte	0
 3429 011a 19       		.uleb128 0x19
 3430 011b 0D       		.uleb128 0xd
 3431 011c 00       		.byte	0
 3432 011d 03       		.uleb128 0x3
 3433 011e 0E       		.uleb128 0xe
 3434 011f 3A       		.uleb128 0x3a
 3435 0120 0B       		.uleb128 0xb
 3436 0121 3B       		.uleb128 0x3b
 3437 0122 05       		.uleb128 0x5
 3438 0123 49       		.uleb128 0x49
 3439 0124 13       		.uleb128 0x13
 3440 0125 38       		.uleb128 0x38
 3441 0126 0A       		.uleb128 0xa
 3442 0127 00       		.byte	0
 3443 0128 00       		.byte	0
 3444 0129 1A       		.uleb128 0x1a
 3445 012a 16       		.uleb128 0x16
 3446 012b 00       		.byte	0
 3447 012c 03       		.uleb128 0x3
 3448 012d 0E       		.uleb128 0xe
 3449 012e 3A       		.uleb128 0x3a
 3450 012f 0B       		.uleb128 0xb
 3451 0130 3B       		.uleb128 0x3b
 3452 0131 05       		.uleb128 0x5
 3453 0132 49       		.uleb128 0x49
 3454 0133 13       		.uleb128 0x13
 3455 0134 00       		.byte	0
 3456 0135 00       		.byte	0
 3457 0136 1B       		.uleb128 0x1b
 3458 0137 04       		.uleb128 0x4
 3459 0138 01       		.byte	0x1
 3460 0139 0B       		.uleb128 0xb
 3461 013a 0B       		.uleb128 0xb
 3462 013b 3A       		.uleb128 0x3a
 3463 013c 0B       		.uleb128 0xb
 3464 013d 3B       		.uleb128 0x3b
 3465 013e 0B       		.uleb128 0xb
 3466 013f 01       		.uleb128 0x1
 3467 0140 13       		.uleb128 0x13
 3468 0141 00       		.byte	0
 3469 0142 00       		.byte	0
ARM GAS  /tmp/ccosgPvt.s 			page 62


 3470 0143 1C       		.uleb128 0x1c
 3471 0144 2E       		.uleb128 0x2e
 3472 0145 01       		.byte	0x1
 3473 0146 03       		.uleb128 0x3
 3474 0147 0E       		.uleb128 0xe
 3475 0148 3A       		.uleb128 0x3a
 3476 0149 0B       		.uleb128 0xb
 3477 014a 3B       		.uleb128 0x3b
 3478 014b 0B       		.uleb128 0xb
 3479 014c 27       		.uleb128 0x27
 3480 014d 0C       		.uleb128 0xc
 3481 014e 20       		.uleb128 0x20
 3482 014f 0B       		.uleb128 0xb
 3483 0150 01       		.uleb128 0x1
 3484 0151 13       		.uleb128 0x13
 3485 0152 00       		.byte	0
 3486 0153 00       		.byte	0
 3487 0154 1D       		.uleb128 0x1d
 3488 0155 05       		.uleb128 0x5
 3489 0156 00       		.byte	0
 3490 0157 03       		.uleb128 0x3
 3491 0158 08       		.uleb128 0x8
 3492 0159 3A       		.uleb128 0x3a
 3493 015a 0B       		.uleb128 0xb
 3494 015b 3B       		.uleb128 0x3b
 3495 015c 0B       		.uleb128 0xb
 3496 015d 49       		.uleb128 0x49
 3497 015e 13       		.uleb128 0x13
 3498 015f 00       		.byte	0
 3499 0160 00       		.byte	0
 3500 0161 1E       		.uleb128 0x1e
 3501 0162 34       		.uleb128 0x34
 3502 0163 00       		.byte	0
 3503 0164 03       		.uleb128 0x3
 3504 0165 08       		.uleb128 0x8
 3505 0166 3A       		.uleb128 0x3a
 3506 0167 0B       		.uleb128 0xb
 3507 0168 3B       		.uleb128 0x3b
 3508 0169 0B       		.uleb128 0xb
 3509 016a 49       		.uleb128 0x49
 3510 016b 13       		.uleb128 0x13
 3511 016c 00       		.byte	0
 3512 016d 00       		.byte	0
 3513 016e 1F       		.uleb128 0x1f
 3514 016f 0B       		.uleb128 0xb
 3515 0170 01       		.byte	0x1
 3516 0171 01       		.uleb128 0x1
 3517 0172 13       		.uleb128 0x13
 3518 0173 00       		.byte	0
 3519 0174 00       		.byte	0
 3520 0175 20       		.uleb128 0x20
 3521 0176 0B       		.uleb128 0xb
 3522 0177 01       		.byte	0x1
 3523 0178 00       		.byte	0
 3524 0179 00       		.byte	0
 3525 017a 21       		.uleb128 0x21
 3526 017b 2E       		.uleb128 0x2e
ARM GAS  /tmp/ccosgPvt.s 			page 63


 3527 017c 01       		.byte	0x1
 3528 017d 03       		.uleb128 0x3
 3529 017e 0E       		.uleb128 0xe
 3530 017f 3A       		.uleb128 0x3a
 3531 0180 0B       		.uleb128 0xb
 3532 0181 3B       		.uleb128 0x3b
 3533 0182 0B       		.uleb128 0xb
 3534 0183 27       		.uleb128 0x27
 3535 0184 0C       		.uleb128 0xc
 3536 0185 11       		.uleb128 0x11
 3537 0186 01       		.uleb128 0x1
 3538 0187 12       		.uleb128 0x12
 3539 0188 01       		.uleb128 0x1
 3540 0189 40       		.uleb128 0x40
 3541 018a 0A       		.uleb128 0xa
 3542 018b 9742     		.uleb128 0x2117
 3543 018d 0C       		.uleb128 0xc
 3544 018e 01       		.uleb128 0x1
 3545 018f 13       		.uleb128 0x13
 3546 0190 00       		.byte	0
 3547 0191 00       		.byte	0
 3548 0192 22       		.uleb128 0x22
 3549 0193 05       		.uleb128 0x5
 3550 0194 00       		.byte	0
 3551 0195 03       		.uleb128 0x3
 3552 0196 08       		.uleb128 0x8
 3553 0197 3A       		.uleb128 0x3a
 3554 0198 0B       		.uleb128 0xb
 3555 0199 3B       		.uleb128 0x3b
 3556 019a 0B       		.uleb128 0xb
 3557 019b 49       		.uleb128 0x49
 3558 019c 13       		.uleb128 0x13
 3559 019d 02       		.uleb128 0x2
 3560 019e 0A       		.uleb128 0xa
 3561 019f 00       		.byte	0
 3562 01a0 00       		.byte	0
 3563 01a1 23       		.uleb128 0x23
 3564 01a2 2E       		.uleb128 0x2e
 3565 01a3 01       		.byte	0x1
 3566 01a4 3F       		.uleb128 0x3f
 3567 01a5 0C       		.uleb128 0xc
 3568 01a6 03       		.uleb128 0x3
 3569 01a7 0E       		.uleb128 0xe
 3570 01a8 3A       		.uleb128 0x3a
 3571 01a9 0B       		.uleb128 0xb
 3572 01aa 3B       		.uleb128 0x3b
 3573 01ab 05       		.uleb128 0x5
 3574 01ac 27       		.uleb128 0x27
 3575 01ad 0C       		.uleb128 0xc
 3576 01ae 11       		.uleb128 0x11
 3577 01af 01       		.uleb128 0x1
 3578 01b0 12       		.uleb128 0x12
 3579 01b1 01       		.uleb128 0x1
 3580 01b2 40       		.uleb128 0x40
 3581 01b3 06       		.uleb128 0x6
 3582 01b4 9742     		.uleb128 0x2117
 3583 01b6 0C       		.uleb128 0xc
ARM GAS  /tmp/ccosgPvt.s 			page 64


 3584 01b7 01       		.uleb128 0x1
 3585 01b8 13       		.uleb128 0x13
 3586 01b9 00       		.byte	0
 3587 01ba 00       		.byte	0
 3588 01bb 24       		.uleb128 0x24
 3589 01bc 1D       		.uleb128 0x1d
 3590 01bd 01       		.byte	0x1
 3591 01be 31       		.uleb128 0x31
 3592 01bf 13       		.uleb128 0x13
 3593 01c0 52       		.uleb128 0x52
 3594 01c1 01       		.uleb128 0x1
 3595 01c2 55       		.uleb128 0x55
 3596 01c3 06       		.uleb128 0x6
 3597 01c4 58       		.uleb128 0x58
 3598 01c5 0B       		.uleb128 0xb
 3599 01c6 59       		.uleb128 0x59
 3600 01c7 05       		.uleb128 0x5
 3601 01c8 01       		.uleb128 0x1
 3602 01c9 13       		.uleb128 0x13
 3603 01ca 00       		.byte	0
 3604 01cb 00       		.byte	0
 3605 01cc 25       		.uleb128 0x25
 3606 01cd 0B       		.uleb128 0xb
 3607 01ce 01       		.byte	0x1
 3608 01cf 55       		.uleb128 0x55
 3609 01d0 06       		.uleb128 0x6
 3610 01d1 00       		.byte	0
 3611 01d2 00       		.byte	0
 3612 01d3 26       		.uleb128 0x26
 3613 01d4 34       		.uleb128 0x34
 3614 01d5 00       		.byte	0
 3615 01d6 31       		.uleb128 0x31
 3616 01d7 13       		.uleb128 0x13
 3617 01d8 02       		.uleb128 0x2
 3618 01d9 0A       		.uleb128 0xa
 3619 01da 00       		.byte	0
 3620 01db 00       		.byte	0
 3621 01dc 27       		.uleb128 0x27
 3622 01dd 34       		.uleb128 0x34
 3623 01de 00       		.byte	0
 3624 01df 31       		.uleb128 0x31
 3625 01e0 13       		.uleb128 0x13
 3626 01e1 02       		.uleb128 0x2
 3627 01e2 06       		.uleb128 0x6
 3628 01e3 00       		.byte	0
 3629 01e4 00       		.byte	0
 3630 01e5 28       		.uleb128 0x28
 3631 01e6 05       		.uleb128 0x5
 3632 01e7 00       		.byte	0
 3633 01e8 31       		.uleb128 0x31
 3634 01e9 13       		.uleb128 0x13
 3635 01ea 02       		.uleb128 0x2
 3636 01eb 0A       		.uleb128 0xa
 3637 01ec 00       		.byte	0
 3638 01ed 00       		.byte	0
 3639 01ee 29       		.uleb128 0x29
 3640 01ef 0B       		.uleb128 0xb
ARM GAS  /tmp/ccosgPvt.s 			page 65


 3641 01f0 01       		.byte	0x1
 3642 01f1 11       		.uleb128 0x11
 3643 01f2 01       		.uleb128 0x1
 3644 01f3 12       		.uleb128 0x12
 3645 01f4 01       		.uleb128 0x1
 3646 01f5 01       		.uleb128 0x1
 3647 01f6 13       		.uleb128 0x13
 3648 01f7 00       		.byte	0
 3649 01f8 00       		.byte	0
 3650 01f9 2A       		.uleb128 0x2a
 3651 01fa 1D       		.uleb128 0x1d
 3652 01fb 01       		.byte	0x1
 3653 01fc 31       		.uleb128 0x31
 3654 01fd 13       		.uleb128 0x13
 3655 01fe 11       		.uleb128 0x11
 3656 01ff 01       		.uleb128 0x1
 3657 0200 12       		.uleb128 0x12
 3658 0201 01       		.uleb128 0x1
 3659 0202 58       		.uleb128 0x58
 3660 0203 0B       		.uleb128 0xb
 3661 0204 59       		.uleb128 0x59
 3662 0205 0B       		.uleb128 0xb
 3663 0206 01       		.uleb128 0x1
 3664 0207 13       		.uleb128 0x13
 3665 0208 00       		.byte	0
 3666 0209 00       		.byte	0
 3667 020a 2B       		.uleb128 0x2b
 3668 020b 05       		.uleb128 0x5
 3669 020c 00       		.byte	0
 3670 020d 31       		.uleb128 0x31
 3671 020e 13       		.uleb128 0x13
 3672 020f 02       		.uleb128 0x2
 3673 0210 06       		.uleb128 0x6
 3674 0211 00       		.byte	0
 3675 0212 00       		.byte	0
 3676 0213 2C       		.uleb128 0x2c
 3677 0214 0B       		.uleb128 0xb
 3678 0215 01       		.byte	0x1
 3679 0216 11       		.uleb128 0x11
 3680 0217 01       		.uleb128 0x1
 3681 0218 12       		.uleb128 0x12
 3682 0219 01       		.uleb128 0x1
 3683 021a 00       		.byte	0
 3684 021b 00       		.byte	0
 3685 021c 2D       		.uleb128 0x2d
 3686 021d 898201   		.uleb128 0x4109
 3687 0220 00       		.byte	0
 3688 0221 11       		.uleb128 0x11
 3689 0222 01       		.uleb128 0x1
 3690 0223 31       		.uleb128 0x31
 3691 0224 13       		.uleb128 0x13
 3692 0225 00       		.byte	0
 3693 0226 00       		.byte	0
 3694 0227 2E       		.uleb128 0x2e
 3695 0228 898201   		.uleb128 0x4109
 3696 022b 01       		.byte	0x1
 3697 022c 11       		.uleb128 0x11
ARM GAS  /tmp/ccosgPvt.s 			page 66


 3698 022d 01       		.uleb128 0x1
 3699 022e 31       		.uleb128 0x31
 3700 022f 13       		.uleb128 0x13
 3701 0230 01       		.uleb128 0x1
 3702 0231 13       		.uleb128 0x13
 3703 0232 00       		.byte	0
 3704 0233 00       		.byte	0
 3705 0234 2F       		.uleb128 0x2f
 3706 0235 8A8201   		.uleb128 0x410a
 3707 0238 00       		.byte	0
 3708 0239 02       		.uleb128 0x2
 3709 023a 0A       		.uleb128 0xa
 3710 023b 9142     		.uleb128 0x2111
 3711 023d 0A       		.uleb128 0xa
 3712 023e 00       		.byte	0
 3713 023f 00       		.byte	0
 3714 0240 30       		.uleb128 0x30
 3715 0241 898201   		.uleb128 0x4109
 3716 0244 01       		.byte	0x1
 3717 0245 11       		.uleb128 0x11
 3718 0246 01       		.uleb128 0x1
 3719 0247 31       		.uleb128 0x31
 3720 0248 13       		.uleb128 0x13
 3721 0249 00       		.byte	0
 3722 024a 00       		.byte	0
 3723 024b 31       		.uleb128 0x31
 3724 024c 898201   		.uleb128 0x4109
 3725 024f 00       		.byte	0
 3726 0250 11       		.uleb128 0x11
 3727 0251 01       		.uleb128 0x1
 3728 0252 9542     		.uleb128 0x2115
 3729 0254 0C       		.uleb128 0xc
 3730 0255 31       		.uleb128 0x31
 3731 0256 13       		.uleb128 0x13
 3732 0257 00       		.byte	0
 3733 0258 00       		.byte	0
 3734 0259 32       		.uleb128 0x32
 3735 025a 05       		.uleb128 0x5
 3736 025b 00       		.byte	0
 3737 025c 03       		.uleb128 0x3
 3738 025d 0E       		.uleb128 0xe
 3739 025e 3A       		.uleb128 0x3a
 3740 025f 0B       		.uleb128 0xb
 3741 0260 3B       		.uleb128 0x3b
 3742 0261 0B       		.uleb128 0xb
 3743 0262 49       		.uleb128 0x49
 3744 0263 13       		.uleb128 0x13
 3745 0264 00       		.byte	0
 3746 0265 00       		.byte	0
 3747 0266 33       		.uleb128 0x33
 3748 0267 05       		.uleb128 0x5
 3749 0268 00       		.byte	0
 3750 0269 03       		.uleb128 0x3
 3751 026a 08       		.uleb128 0x8
 3752 026b 3A       		.uleb128 0x3a
 3753 026c 0B       		.uleb128 0xb
 3754 026d 3B       		.uleb128 0x3b
ARM GAS  /tmp/ccosgPvt.s 			page 67


 3755 026e 05       		.uleb128 0x5
 3756 026f 49       		.uleb128 0x49
 3757 0270 13       		.uleb128 0x13
 3758 0271 02       		.uleb128 0x2
 3759 0272 06       		.uleb128 0x6
 3760 0273 00       		.byte	0
 3761 0274 00       		.byte	0
 3762 0275 34       		.uleb128 0x34
 3763 0276 05       		.uleb128 0x5
 3764 0277 00       		.byte	0
 3765 0278 03       		.uleb128 0x3
 3766 0279 0E       		.uleb128 0xe
 3767 027a 3A       		.uleb128 0x3a
 3768 027b 0B       		.uleb128 0xb
 3769 027c 3B       		.uleb128 0x3b
 3770 027d 05       		.uleb128 0x5
 3771 027e 49       		.uleb128 0x49
 3772 027f 13       		.uleb128 0x13
 3773 0280 02       		.uleb128 0x2
 3774 0281 06       		.uleb128 0x6
 3775 0282 00       		.byte	0
 3776 0283 00       		.byte	0
 3777 0284 35       		.uleb128 0x35
 3778 0285 1D       		.uleb128 0x1d
 3779 0286 01       		.byte	0x1
 3780 0287 31       		.uleb128 0x31
 3781 0288 13       		.uleb128 0x13
 3782 0289 11       		.uleb128 0x11
 3783 028a 01       		.uleb128 0x1
 3784 028b 12       		.uleb128 0x12
 3785 028c 01       		.uleb128 0x1
 3786 028d 58       		.uleb128 0x58
 3787 028e 0B       		.uleb128 0xb
 3788 028f 59       		.uleb128 0x59
 3789 0290 05       		.uleb128 0x5
 3790 0291 01       		.uleb128 0x1
 3791 0292 13       		.uleb128 0x13
 3792 0293 00       		.byte	0
 3793 0294 00       		.byte	0
 3794 0295 36       		.uleb128 0x36
 3795 0296 2E       		.uleb128 0x2e
 3796 0297 01       		.byte	0x1
 3797 0298 3F       		.uleb128 0x3f
 3798 0299 0C       		.uleb128 0xc
 3799 029a 03       		.uleb128 0x3
 3800 029b 0E       		.uleb128 0xe
 3801 029c 3A       		.uleb128 0x3a
 3802 029d 0B       		.uleb128 0xb
 3803 029e 3B       		.uleb128 0x3b
 3804 029f 05       		.uleb128 0x5
 3805 02a0 27       		.uleb128 0x27
 3806 02a1 0C       		.uleb128 0xc
 3807 02a2 11       		.uleb128 0x11
 3808 02a3 01       		.uleb128 0x1
 3809 02a4 12       		.uleb128 0x12
 3810 02a5 01       		.uleb128 0x1
 3811 02a6 40       		.uleb128 0x40
ARM GAS  /tmp/ccosgPvt.s 			page 68


 3812 02a7 0A       		.uleb128 0xa
 3813 02a8 9742     		.uleb128 0x2117
 3814 02aa 0C       		.uleb128 0xc
 3815 02ab 01       		.uleb128 0x1
 3816 02ac 13       		.uleb128 0x13
 3817 02ad 00       		.byte	0
 3818 02ae 00       		.byte	0
 3819 02af 37       		.uleb128 0x37
 3820 02b0 898201   		.uleb128 0x4109
 3821 02b3 01       		.byte	0x1
 3822 02b4 11       		.uleb128 0x11
 3823 02b5 01       		.uleb128 0x1
 3824 02b6 9542     		.uleb128 0x2115
 3825 02b8 0C       		.uleb128 0xc
 3826 02b9 31       		.uleb128 0x31
 3827 02ba 13       		.uleb128 0x13
 3828 02bb 00       		.byte	0
 3829 02bc 00       		.byte	0
 3830 02bd 38       		.uleb128 0x38
 3831 02be 34       		.uleb128 0x34
 3832 02bf 00       		.byte	0
 3833 02c0 03       		.uleb128 0x3
 3834 02c1 0E       		.uleb128 0xe
 3835 02c2 3A       		.uleb128 0x3a
 3836 02c3 0B       		.uleb128 0xb
 3837 02c4 3B       		.uleb128 0x3b
 3838 02c5 0B       		.uleb128 0xb
 3839 02c6 49       		.uleb128 0x49
 3840 02c7 13       		.uleb128 0x13
 3841 02c8 02       		.uleb128 0x2
 3842 02c9 0A       		.uleb128 0xa
 3843 02ca 00       		.byte	0
 3844 02cb 00       		.byte	0
 3845 02cc 39       		.uleb128 0x39
 3846 02cd 34       		.uleb128 0x34
 3847 02ce 00       		.byte	0
 3848 02cf 03       		.uleb128 0x3
 3849 02d0 0E       		.uleb128 0xe
 3850 02d1 3A       		.uleb128 0x3a
 3851 02d2 0B       		.uleb128 0xb
 3852 02d3 3B       		.uleb128 0x3b
 3853 02d4 05       		.uleb128 0x5
 3854 02d5 49       		.uleb128 0x49
 3855 02d6 13       		.uleb128 0x13
 3856 02d7 3F       		.uleb128 0x3f
 3857 02d8 0C       		.uleb128 0xc
 3858 02d9 3C       		.uleb128 0x3c
 3859 02da 0C       		.uleb128 0xc
 3860 02db 00       		.byte	0
 3861 02dc 00       		.byte	0
 3862 02dd 3A       		.uleb128 0x3a
 3863 02de 34       		.uleb128 0x34
 3864 02df 00       		.byte	0
 3865 02e0 03       		.uleb128 0x3
 3866 02e1 08       		.uleb128 0x8
 3867 02e2 3A       		.uleb128 0x3a
 3868 02e3 0B       		.uleb128 0xb
ARM GAS  /tmp/ccosgPvt.s 			page 69


 3869 02e4 3B       		.uleb128 0x3b
 3870 02e5 0B       		.uleb128 0xb
 3871 02e6 49       		.uleb128 0x49
 3872 02e7 13       		.uleb128 0x13
 3873 02e8 3F       		.uleb128 0x3f
 3874 02e9 0C       		.uleb128 0xc
 3875 02ea 02       		.uleb128 0x2
 3876 02eb 0A       		.uleb128 0xa
 3877 02ec 00       		.byte	0
 3878 02ed 00       		.byte	0
 3879 02ee 3B       		.uleb128 0x3b
 3880 02ef 2E       		.uleb128 0x2e
 3881 02f0 00       		.byte	0
 3882 02f1 3F       		.uleb128 0x3f
 3883 02f2 0C       		.uleb128 0xc
 3884 02f3 03       		.uleb128 0x3
 3885 02f4 0E       		.uleb128 0xe
 3886 02f5 3A       		.uleb128 0x3a
 3887 02f6 0B       		.uleb128 0xb
 3888 02f7 3B       		.uleb128 0x3b
 3889 02f8 0B       		.uleb128 0xb
 3890 02f9 27       		.uleb128 0x27
 3891 02fa 0C       		.uleb128 0xc
 3892 02fb 3C       		.uleb128 0x3c
 3893 02fc 0C       		.uleb128 0xc
 3894 02fd 00       		.byte	0
 3895 02fe 00       		.byte	0
 3896 02ff 3C       		.uleb128 0x3c
 3897 0300 2E       		.uleb128 0x2e
 3898 0301 01       		.byte	0x1
 3899 0302 3F       		.uleb128 0x3f
 3900 0303 0C       		.uleb128 0xc
 3901 0304 03       		.uleb128 0x3
 3902 0305 0E       		.uleb128 0xe
 3903 0306 3A       		.uleb128 0x3a
 3904 0307 0B       		.uleb128 0xb
 3905 0308 3B       		.uleb128 0x3b
 3906 0309 0B       		.uleb128 0xb
 3907 030a 27       		.uleb128 0x27
 3908 030b 0C       		.uleb128 0xc
 3909 030c 3C       		.uleb128 0x3c
 3910 030d 0C       		.uleb128 0xc
 3911 030e 01       		.uleb128 0x1
 3912 030f 13       		.uleb128 0x13
 3913 0310 00       		.byte	0
 3914 0311 00       		.byte	0
 3915 0312 3D       		.uleb128 0x3d
 3916 0313 2E       		.uleb128 0x2e
 3917 0314 01       		.byte	0x1
 3918 0315 3F       		.uleb128 0x3f
 3919 0316 0C       		.uleb128 0xc
 3920 0317 03       		.uleb128 0x3
 3921 0318 0E       		.uleb128 0xe
 3922 0319 3A       		.uleb128 0x3a
 3923 031a 0B       		.uleb128 0xb
 3924 031b 3B       		.uleb128 0x3b
 3925 031c 05       		.uleb128 0x5
ARM GAS  /tmp/ccosgPvt.s 			page 70


 3926 031d 27       		.uleb128 0x27
 3927 031e 0C       		.uleb128 0xc
 3928 031f 49       		.uleb128 0x49
 3929 0320 13       		.uleb128 0x13
 3930 0321 3C       		.uleb128 0x3c
 3931 0322 0C       		.uleb128 0xc
 3932 0323 01       		.uleb128 0x1
 3933 0324 13       		.uleb128 0x13
 3934 0325 00       		.byte	0
 3935 0326 00       		.byte	0
 3936 0327 3E       		.uleb128 0x3e
 3937 0328 2E       		.uleb128 0x2e
 3938 0329 01       		.byte	0x1
 3939 032a 3F       		.uleb128 0x3f
 3940 032b 0C       		.uleb128 0xc
 3941 032c 03       		.uleb128 0x3
 3942 032d 0E       		.uleb128 0xe
 3943 032e 3A       		.uleb128 0x3a
 3944 032f 0B       		.uleb128 0xb
 3945 0330 3B       		.uleb128 0x3b
 3946 0331 05       		.uleb128 0x5
 3947 0332 27       		.uleb128 0x27
 3948 0333 0C       		.uleb128 0xc
 3949 0334 3C       		.uleb128 0x3c
 3950 0335 0C       		.uleb128 0xc
 3951 0336 01       		.uleb128 0x1
 3952 0337 13       		.uleb128 0x13
 3953 0338 00       		.byte	0
 3954 0339 00       		.byte	0
 3955 033a 3F       		.uleb128 0x3f
 3956 033b 2E       		.uleb128 0x2e
 3957 033c 00       		.byte	0
 3958 033d 3F       		.uleb128 0x3f
 3959 033e 0C       		.uleb128 0xc
 3960 033f 03       		.uleb128 0x3
 3961 0340 0E       		.uleb128 0xe
 3962 0341 3A       		.uleb128 0x3a
 3963 0342 0B       		.uleb128 0xb
 3964 0343 3B       		.uleb128 0x3b
 3965 0344 05       		.uleb128 0x5
 3966 0345 27       		.uleb128 0x27
 3967 0346 0C       		.uleb128 0xc
 3968 0347 3C       		.uleb128 0x3c
 3969 0348 0C       		.uleb128 0xc
 3970 0349 00       		.byte	0
 3971 034a 00       		.byte	0
 3972 034b 40       		.uleb128 0x40
 3973 034c 2E       		.uleb128 0x2e
 3974 034d 01       		.byte	0x1
 3975 034e 3F       		.uleb128 0x3f
 3976 034f 0C       		.uleb128 0xc
 3977 0350 03       		.uleb128 0x3
 3978 0351 0E       		.uleb128 0xe
 3979 0352 3A       		.uleb128 0x3a
 3980 0353 0B       		.uleb128 0xb
 3981 0354 3B       		.uleb128 0x3b
 3982 0355 05       		.uleb128 0x5
ARM GAS  /tmp/ccosgPvt.s 			page 71


 3983 0356 27       		.uleb128 0x27
 3984 0357 0C       		.uleb128 0xc
 3985 0358 3C       		.uleb128 0x3c
 3986 0359 0C       		.uleb128 0xc
 3987 035a 00       		.byte	0
 3988 035b 00       		.byte	0
 3989 035c 00       		.byte	0
 3990              		.section	.debug_loc,"",%progbits
 3991              	.Ldebug_loc0:
 3992              	.LLST0:
 3993 0000 00000000 		.4byte	.LFB123
 3994 0004 04000000 		.4byte	.LCFI0
 3995 0008 0200     		.2byte	0x2
 3996 000a 7D       		.byte	0x7d
 3997 000b 00       		.sleb128 0
 3998 000c 04000000 		.4byte	.LCFI0
 3999 0010 6C010000 		.4byte	.LFE123
 4000 0014 0200     		.2byte	0x2
 4001 0016 7D       		.byte	0x7d
 4002 0017 18       		.sleb128 24
 4003 0018 00000000 		.4byte	0
 4004 001c 00000000 		.4byte	0
 4005              	.LLST1:
 4006 0020 18000000 		.4byte	.LVL3
 4007 0024 46000000 		.4byte	.LVL10
 4008 0028 0100     		.2byte	0x1
 4009 002a 54       		.byte	0x54
 4010 002b 86000000 		.4byte	.LVL21
 4011 002f 6C010000 		.4byte	.LFE123
 4012 0033 0100     		.2byte	0x1
 4013 0035 54       		.byte	0x54
 4014 0036 00000000 		.4byte	0
 4015 003a 00000000 		.4byte	0
 4016              	.LLST2:
 4017 003e 1A000000 		.4byte	.LVL4
 4018 0042 1C000000 		.4byte	.LVL5
 4019 0046 0100     		.2byte	0x1
 4020 0048 51       		.byte	0x51
 4021 0049 1C000000 		.4byte	.LVL5
 4022 004d D0000000 		.4byte	.LVL37
 4023 0051 0100     		.2byte	0x1
 4024 0053 57       		.byte	0x57
 4025 0054 D0000000 		.4byte	.LVL37
 4026 0058 0F010000 		.4byte	.LVL44-1
 4027 005c 0100     		.2byte	0x1
 4028 005e 51       		.byte	0x51
 4029 005f 0F010000 		.4byte	.LVL44-1
 4030 0063 6C010000 		.4byte	.LFE123
 4031 0067 0100     		.2byte	0x1
 4032 0069 57       		.byte	0x57
 4033 006a 00000000 		.4byte	0
 4034 006e 00000000 		.4byte	0
 4035              	.LLST3:
 4036 0072 50000000 		.4byte	.LVL12
 4037 0076 53000000 		.4byte	.LVL13-1
 4038 007a 0100     		.2byte	0x1
 4039 007c 53       		.byte	0x53
ARM GAS  /tmp/ccosgPvt.s 			page 72


 4040 007d 00000000 		.4byte	0
 4041 0081 00000000 		.4byte	0
 4042              	.LLST4:
 4043 0085 66000000 		.4byte	.LVL17
 4044 0089 6A000000 		.4byte	.LVL18
 4045 008d 0100     		.2byte	0x1
 4046 008f 53       		.byte	0x53
 4047 0090 00000000 		.4byte	0
 4048 0094 00000000 		.4byte	0
 4049              	.LLST5:
 4050 0098 8C000000 		.4byte	.LVL23
 4051 009c 8F000000 		.4byte	.LVL24-1
 4052 00a0 0100     		.2byte	0x1
 4053 00a2 53       		.byte	0x53
 4054 00a3 00000000 		.4byte	0
 4055 00a7 00000000 		.4byte	0
 4056              	.LLST6:
 4057 00ab 30000000 		.4byte	.LVL7
 4058 00af 34000000 		.4byte	.LVL8
 4059 00b3 0100     		.2byte	0x1
 4060 00b5 53       		.byte	0x53
 4061 00b6 A2000000 		.4byte	.LVL27
 4062 00ba A4000000 		.4byte	.LVL28
 4063 00be 0100     		.2byte	0x1
 4064 00c0 53       		.byte	0x53
 4065 00c1 00000000 		.4byte	0
 4066 00c5 00000000 		.4byte	0
 4067              	.LLST7:
 4068 00c9 AA000000 		.4byte	.LVL30
 4069 00cd AD000000 		.4byte	.LVL31-1
 4070 00d1 0100     		.2byte	0x1
 4071 00d3 53       		.byte	0x53
 4072 00d4 00000000 		.4byte	0
 4073 00d8 00000000 		.4byte	0
 4074              	.LLST8:
 4075 00dc C2000000 		.4byte	.LVL35
 4076 00e0 C4000000 		.4byte	.LVL36
 4077 00e4 0100     		.2byte	0x1
 4078 00e6 53       		.byte	0x53
 4079 00e7 00000000 		.4byte	0
 4080 00eb 00000000 		.4byte	0
 4081              	.LLST9:
 4082 00ef D0000000 		.4byte	.LVL37
 4083 00f3 24010000 		.4byte	.LVL48
 4084 00f7 0100     		.2byte	0x1
 4085 00f9 54       		.byte	0x54
 4086 00fa 00000000 		.4byte	0
 4087 00fe 00000000 		.4byte	0
 4088              	.LLST10:
 4089 0102 D0000000 		.4byte	.LVL37
 4090 0106 E6000000 		.4byte	.LVL38
 4091 010a 0200     		.2byte	0x2
 4092 010c 30       		.byte	0x30
 4093 010d 9F       		.byte	0x9f
 4094 010e E6000000 		.4byte	.LVL38
 4095 0112 24010000 		.4byte	.LVL48
 4096 0116 0100     		.2byte	0x1
ARM GAS  /tmp/ccosgPvt.s 			page 73


 4097 0118 58       		.byte	0x58
 4098 0119 00000000 		.4byte	0
 4099 011d 00000000 		.4byte	0
 4100              	.LLST11:
 4101 0121 D0000000 		.4byte	.LVL37
 4102 0125 24010000 		.4byte	.LVL48
 4103 0129 0600     		.2byte	0x6
 4104 012b 03       		.byte	0x3
 4105 012c 00000000 		.4byte	SD6
 4106 0130 9F       		.byte	0x9f
 4107 0131 00000000 		.4byte	0
 4108 0135 00000000 		.4byte	0
 4109              	.LLST12:
 4110 0139 0C010000 		.4byte	.LVL43
 4111 013d 0F010000 		.4byte	.LVL44-1
 4112 0141 0100     		.2byte	0x1
 4113 0143 53       		.byte	0x53
 4114 0144 00000000 		.4byte	0
 4115 0148 00000000 		.4byte	0
 4116              	.LLST13:
 4117 014c 1C000000 		.4byte	.LVL5
 4118 0150 20000000 		.4byte	.LVL6
 4119 0154 0100     		.2byte	0x1
 4120 0156 53       		.byte	0x53
 4121 0157 22010000 		.4byte	.LVL47
 4122 015b 24010000 		.4byte	.LVL48
 4123 015f 0100     		.2byte	0x1
 4124 0161 53       		.byte	0x53
 4125 0162 00000000 		.4byte	0
 4126 0166 00000000 		.4byte	0
 4127              	.LLST14:
 4128 016a 34010000 		.4byte	.LVL52
 4129 016e 3A010000 		.4byte	.LVL53
 4130 0172 0100     		.2byte	0x1
 4131 0174 50       		.byte	0x50
 4132 0175 00000000 		.4byte	0
 4133 0179 00000000 		.4byte	0
 4134              	.LLST15:
 4135 017d 2A010000 		.4byte	.LVL50
 4136 0181 2D010000 		.4byte	.LVL51-1
 4137 0185 0100     		.2byte	0x1
 4138 0187 53       		.byte	0x53
 4139 0188 00000000 		.4byte	0
 4140 018c 00000000 		.4byte	0
 4141              	.LLST16:
 4142 0190 42000000 		.4byte	.LVL9
 4143 0194 4C000000 		.4byte	.LVL11
 4144 0198 0100     		.2byte	0x1
 4145 019a 53       		.byte	0x53
 4146 019b 7A000000 		.4byte	.LVL19
 4147 019f 7D000000 		.4byte	.LVL20-1
 4148 01a3 0100     		.2byte	0x1
 4149 01a5 53       		.byte	0x53
 4150 01a6 48010000 		.4byte	.LVL55
 4151 01aa 4A010000 		.4byte	.LVL56
 4152 01ae 0100     		.2byte	0x1
 4153 01b0 53       		.byte	0x53
ARM GAS  /tmp/ccosgPvt.s 			page 74


 4154 01b1 00000000 		.4byte	0
 4155 01b5 00000000 		.4byte	0
 4156              	.LLST17:
 4157 01b9 00000000 		.4byte	.LFB124
 4158 01bd 02000000 		.4byte	.LCFI1
 4159 01c1 0200     		.2byte	0x2
 4160 01c3 7D       		.byte	0x7d
 4161 01c4 00       		.sleb128 0
 4162 01c5 02000000 		.4byte	.LCFI1
 4163 01c9 26000000 		.4byte	.LFE124
 4164 01cd 0200     		.2byte	0x2
 4165 01cf 7D       		.byte	0x7d
 4166 01d0 08       		.sleb128 8
 4167 01d1 00000000 		.4byte	0
 4168 01d5 00000000 		.4byte	0
 4169              	.LLST18:
 4170 01d9 00000000 		.4byte	.LFB125
 4171 01dd 02000000 		.4byte	.LCFI2
 4172 01e1 0200     		.2byte	0x2
 4173 01e3 7D       		.byte	0x7d
 4174 01e4 00       		.sleb128 0
 4175 01e5 02000000 		.4byte	.LCFI2
 4176 01e9 9C000000 		.4byte	.LFE125
 4177 01ed 0200     		.2byte	0x2
 4178 01ef 7D       		.byte	0x7d
 4179 01f0 10       		.sleb128 16
 4180 01f1 00000000 		.4byte	0
 4181 01f5 00000000 		.4byte	0
 4182              	.LLST19:
 4183 01f9 00000000 		.4byte	.LVL59
 4184 01fd 12000000 		.4byte	.LVL61
 4185 0201 0100     		.2byte	0x1
 4186 0203 50       		.byte	0x50
 4187 0204 12000000 		.4byte	.LVL61
 4188 0208 74000000 		.4byte	.LVL64
 4189 020c 0100     		.2byte	0x1
 4190 020e 55       		.byte	0x55
 4191 020f 74000000 		.4byte	.LVL64
 4192 0213 84000000 		.4byte	.LVL65
 4193 0217 0100     		.2byte	0x1
 4194 0219 50       		.byte	0x50
 4195 021a 84000000 		.4byte	.LVL65
 4196 021e 9C000000 		.4byte	.LFE125
 4197 0222 0100     		.2byte	0x1
 4198 0224 55       		.byte	0x55
 4199 0225 00000000 		.4byte	0
 4200 0229 00000000 		.4byte	0
 4201              	.LLST20:
 4202 022d 00000000 		.4byte	.LVL59
 4203 0231 0C000000 		.4byte	.LVL60
 4204 0235 0100     		.2byte	0x1
 4205 0237 51       		.byte	0x51
 4206 0238 0C000000 		.4byte	.LVL60
 4207 023c 9C000000 		.4byte	.LFE125
 4208 0240 0100     		.2byte	0x1
 4209 0242 54       		.byte	0x54
 4210 0243 00000000 		.4byte	0
ARM GAS  /tmp/ccosgPvt.s 			page 75


 4211 0247 00000000 		.4byte	0
 4212              	.LLST21:
 4213 024b 12000000 		.4byte	.LVL61
 4214 024f 74000000 		.4byte	.LVL64
 4215 0253 0100     		.2byte	0x1
 4216 0255 54       		.byte	0x54
 4217 0256 00000000 		.4byte	0
 4218 025a 00000000 		.4byte	0
 4219              	.LLST22:
 4220 025e 12000000 		.4byte	.LVL61
 4221 0262 74000000 		.4byte	.LVL64
 4222 0266 0100     		.2byte	0x1
 4223 0268 55       		.byte	0x55
 4224 0269 00000000 		.4byte	0
 4225 026d 00000000 		.4byte	0
 4226              	.LLST23:
 4227 0271 14000000 		.4byte	.LVL62
 4228 0275 72000000 		.4byte	.LVL63
 4229 0279 0100     		.2byte	0x1
 4230 027b 53       		.byte	0x53
 4231 027c 72000000 		.4byte	.LVL63
 4232 0280 74000000 		.4byte	.LVL64
 4233 0284 0300     		.2byte	0x3
 4234 0286 75       		.byte	0x75
 4235 0287 F400     		.sleb128 116
 4236 0289 00000000 		.4byte	0
 4237 028d 00000000 		.4byte	0
 4238              	.LLST24:
 4239 0291 00000000 		.4byte	.LVL67
 4240 0295 22000000 		.4byte	.LVL70
 4241 0299 0100     		.2byte	0x1
 4242 029b 50       		.byte	0x50
 4243 029c 22000000 		.4byte	.LVL70
 4244 02a0 34000000 		.4byte	.LFE126
 4245 02a4 0400     		.2byte	0x4
 4246 02a6 F3       		.byte	0xf3
 4247 02a7 01       		.uleb128 0x1
 4248 02a8 50       		.byte	0x50
 4249 02a9 9F       		.byte	0x9f
 4250 02aa 00000000 		.4byte	0
 4251 02ae 00000000 		.4byte	0
 4252              	.LLST25:
 4253 02b2 0A000000 		.4byte	.LVL68
 4254 02b6 14000000 		.4byte	.LVL69
 4255 02ba 0100     		.2byte	0x1
 4256 02bc 53       		.byte	0x53
 4257 02bd 14000000 		.4byte	.LVL69
 4258 02c1 22000000 		.4byte	.LVL70
 4259 02c5 0300     		.2byte	0x3
 4260 02c7 70       		.byte	0x70
 4261 02c8 F400     		.sleb128 116
 4262 02ca 22000000 		.4byte	.LVL70
 4263 02ce 2D000000 		.4byte	.LVL71-1
 4264 02d2 0500     		.2byte	0x5
 4265 02d4 F3       		.byte	0xf3
 4266 02d5 01       		.uleb128 0x1
 4267 02d6 50       		.byte	0x50
ARM GAS  /tmp/ccosgPvt.s 			page 76


 4268 02d7 23       		.byte	0x23
 4269 02d8 74       		.uleb128 0x74
 4270 02d9 00000000 		.4byte	0
 4271 02dd 00000000 		.4byte	0
 4272              		.section	.debug_aranges,"",%progbits
 4273 0000 3C000000 		.4byte	0x3c
 4274 0004 0200     		.2byte	0x2
 4275 0006 00000000 		.4byte	.Ldebug_info0
 4276 000a 04       		.byte	0x4
 4277 000b 00       		.byte	0
 4278 000c 0000     		.2byte	0
 4279 000e 0000     		.2byte	0
 4280 0010 00000000 		.4byte	.LFB122
 4281 0014 14000000 		.4byte	.LFE122-.LFB122
 4282 0018 00000000 		.4byte	.LFB123
 4283 001c 6C010000 		.4byte	.LFE123-.LFB123
 4284 0020 00000000 		.4byte	.LFB124
 4285 0024 26000000 		.4byte	.LFE124-.LFB124
 4286 0028 00000000 		.4byte	.LFB125
 4287 002c 9C000000 		.4byte	.LFE125-.LFB125
 4288 0030 00000000 		.4byte	.LFB126
 4289 0034 34000000 		.4byte	.LFE126-.LFB126
 4290 0038 00000000 		.4byte	0
 4291 003c 00000000 		.4byte	0
 4292              		.section	.debug_ranges,"",%progbits
 4293              	.Ldebug_ranges0:
 4294 0000 08000000 		.4byte	.LBB30
 4295 0004 7A000000 		.4byte	.LBE30
 4296 0008 86000000 		.4byte	.LBB46
 4297 000c 6C010000 		.4byte	.LBE46
 4298 0010 00000000 		.4byte	0
 4299 0014 00000000 		.4byte	0
 4300 0018 08000000 		.4byte	.LBB31
 4301 001c 7A000000 		.4byte	.LBE31
 4302 0020 86000000 		.4byte	.LBB45
 4303 0024 6C010000 		.4byte	.LBE45
 4304 0028 00000000 		.4byte	0
 4305 002c 00000000 		.4byte	0
 4306 0030 00000000 		.4byte	.LFB122
 4307 0034 14000000 		.4byte	.LFE122
 4308 0038 00000000 		.4byte	.LFB123
 4309 003c 6C010000 		.4byte	.LFE123
 4310 0040 00000000 		.4byte	.LFB124
 4311 0044 26000000 		.4byte	.LFE124
 4312 0048 00000000 		.4byte	.LFB125
 4313 004c 9C000000 		.4byte	.LFE125
 4314 0050 00000000 		.4byte	.LFB126
 4315 0054 34000000 		.4byte	.LFE126
 4316 0058 00000000 		.4byte	0
 4317 005c 00000000 		.4byte	0
 4318              		.section	.debug_line,"",%progbits
 4319              	.Ldebug_line0:
 4320 0000 8F030000 		.section	.debug_str,"MS",%progbits,1
 4320      0200BC02 
 4320      00000201 
 4320      FB0E0D00 
 4320      01010101 
ARM GAS  /tmp/ccosgPvt.s 			page 77


 4321              	.LASF2:
 4322 0000 73697A65 		.ascii	"size_t\000"
 4322      5F7400
 4323              	.LASF133:
 4324 0007 54494D38 		.ascii	"TIM8_UP_TIM13_IRQn\000"
 4324      5F55505F 
 4324      54494D31 
 4324      335F4952 
 4324      516E00
 4325              	.LASF52:
 4326 001a 73697A65 		.ascii	"sizetype\000"
 4326      74797065 
 4326      00
 4327              	.LASF24:
 4328 0023 73797374 		.ascii	"systime_t\000"
 4328      696D655F 
 4328      7400
 4329              	.LASF197:
 4330 002d 504C4C49 		.ascii	"PLLI2SCFGR\000"
 4330      32534346 
 4330      475200
 4331              	.LASF29:
 4332 0038 705F6374 		.ascii	"p_ctx\000"
 4332      7800
 4333              	.LASF20:
 4334 003e 74707269 		.ascii	"tprio_t\000"
 4334      6F5F7400 
 4335              	.LASF40:
 4336 0046 705F6D73 		.ascii	"p_msgqueue\000"
 4336      67717565 
 4336      756500
 4337              	.LASF8:
 4338 0051 696E7433 		.ascii	"int32_t\000"
 4338      325F7400 
 4339              	.LASF215:
 4340 0059 53657269 		.ascii	"SerialConfig\000"
 4340      616C436F 
 4340      6E666967 
 4340      00
 4341              	.LASF221:
 4342 0066 77726974 		.ascii	"writet\000"
 4342      657400
 4343              	.LASF199:
 4344 006d 47545052 		.ascii	"GTPR\000"
 4344      00
 4345              	.LASF217:
 4346 0072 77726974 		.ascii	"write\000"
 4346      6500
 4347              	.LASF146:
 4348 0078 444D4132 		.ascii	"DMA2_Stream1_IRQn\000"
 4348      5F537472 
 4348      65616D31 
 4348      5F495251 
 4348      6E00
 4349              	.LASF140:
 4350 008a 53504933 		.ascii	"SPI3_IRQn\000"
 4350      5F495251 
ARM GAS  /tmp/ccosgPvt.s 			page 78


 4350      6E00
 4351              	.LASF93:
 4352 0094 464C4153 		.ascii	"FLASH_IRQn\000"
 4352      485F4952 
 4352      516E00
 4353              	.LASF167:
 4354 009f 44434D49 		.ascii	"DCMI_IRQn\000"
 4354      5F495251 
 4354      6E00
 4355              	.LASF61:
 4356 00a9 656C5F66 		.ascii	"el_flags\000"
 4356      6C616773 
 4356      00
 4357              	.LASF229:
 4358 00b2 636F6E66 		.ascii	"config\000"
 4358      696700
 4359              	.LASF207:
 4360 00b9 73746174 		.ascii	"state\000"
 4360      6500
 4361              	.LASF219:
 4362 00bf 70757474 		.ascii	"putt\000"
 4362      00
 4363              	.LASF117:
 4364 00c4 54494D32 		.ascii	"TIM2_IRQn\000"
 4364      5F495251 
 4364      6E00
 4365              	.LASF242:
 4366 00ce 474E5520 		.ascii	"GNU C 4.7.2\000"
 4366      4320342E 
 4366      372E3200 
 4367              	.LASF225:
 4368 00da 73657276 		.ascii	"serve_interrupt\000"
 4368      655F696E 
 4368      74657272 
 4368      75707400 
 4369              	.LASF224:
 4370 00ea 7365745F 		.ascii	"set_error\000"
 4370      6572726F 
 4370      7200
 4371              	.LASF153:
 4372 00f4 43414E32 		.ascii	"CAN2_RX0_IRQn\000"
 4372      5F525830 
 4372      5F495251 
 4372      6E00
 4373              	.LASF160:
 4374 0102 55534152 		.ascii	"USART6_IRQn\000"
 4374      54365F49 
 4374      52516E00 
 4375              	.LASF55:
 4376 010e 6D5F6F77 		.ascii	"m_owner\000"
 4376      6E657200 
 4377              	.LASF65:
 4378 0116 65786974 		.ascii	"exitcode\000"
 4378      636F6465 
 4378      00
 4379              	.LASF165:
 4380 011f 4F54475F 		.ascii	"OTG_HS_WKUP_IRQn\000"
ARM GAS  /tmp/ccosgPvt.s 			page 79


 4380      48535F57 
 4380      4B55505F 
 4380      4952516E 
 4380      00
 4381              	.LASF73:
 4382 0130 715F746F 		.ascii	"q_top\000"
 4382      7000
 4383              	.LASF67:
 4384 0136 65776D61 		.ascii	"ewmask\000"
 4384      736B00
 4385              	.LASF132:
 4386 013d 54494D38 		.ascii	"TIM8_BRK_TIM12_IRQn\000"
 4386      5F42524B 
 4386      5F54494D 
 4386      31325F49 
 4386      52516E00 
 4387              	.LASF243:
 4388 0151 2E2E2F2E 		.ascii	"../../ChibiOS/os/hal/platforms/STM32/USARTv1/serial"
 4388      2E2F4368 
 4388      6962694F 
 4388      532F6F73 
 4388      2F68616C 
 4389 0184 5F6C6C64 		.ascii	"_lld.c\000"
 4389      2E6300
 4390              	.LASF188:
 4391 018b 41484232 		.ascii	"AHB2LPENR\000"
 4391      4C50454E 
 4391      5200
 4392              	.LASF222:
 4393 0195 72656164 		.ascii	"readt\000"
 4393      7400
 4394              	.LASF230:
 4395 019b 73645F6C 		.ascii	"sd_lld_start\000"
 4395      6C645F73 
 4395      74617274 
 4395      00
 4396              	.LASF72:
 4397 01a8 715F6275 		.ascii	"q_buffer\000"
 4397      66666572 
 4397      00
 4398              	.LASF76:
 4399 01b1 715F6E6F 		.ascii	"q_notify\000"
 4399      74696679 
 4399      00
 4400              	.LASF240:
 4401 01ba 73644F62 		.ascii	"sdObjectInit\000"
 4401      6A656374 
 4401      496E6974 
 4401      00
 4402              	.LASF30:
 4403 01c7 705F6E65 		.ascii	"p_newer\000"
 4403      77657200 
 4404              	.LASF9:
 4405 01cf 6C6F6E67 		.ascii	"long int\000"
 4405      20696E74 
 4405      00
 4406              	.LASF26:
ARM GAS  /tmp/ccosgPvt.s 			page 80


 4407 01d8 705F6E65 		.ascii	"p_next\000"
 4407      787400
 4408              	.LASF75:
 4409 01df 715F7264 		.ascii	"q_rdptr\000"
 4409      70747200 
 4410              	.LASF27:
 4411 01e7 705F7072 		.ascii	"p_prev\000"
 4411      657600
 4412              	.LASF247:
 4413 01ee 64656661 		.ascii	"default_config\000"
 4413      756C745F 
 4413      636F6E66 
 4413      696700
 4414              	.LASF157:
 4415 01fd 444D4132 		.ascii	"DMA2_Stream5_IRQn\000"
 4415      5F537472 
 4415      65616D35 
 4415      5F495251 
 4415      6E00
 4416              	.LASF17:
 4417 020f 74737461 		.ascii	"tstate_t\000"
 4417      74655F74 
 4417      00
 4418              	.LASF43:
 4419 0218 705F6D74 		.ascii	"p_mtxlist\000"
 4419      786C6973 
 4419      7400
 4420              	.LASF115:
 4421 0222 54494D31 		.ascii	"TIM1_TRG_COM_TIM11_IRQn\000"
 4421      5F545247 
 4421      5F434F4D 
 4421      5F54494D 
 4421      31315F49 
 4422              	.LASF209:
 4423 023a 6F717565 		.ascii	"oqueue\000"
 4423      756500
 4424              	.LASF48:
 4425 0241 72656761 		.ascii	"regarm_t\000"
 4425      726D5F74 
 4425      00
 4426              	.LASF185:
 4427 024a 41504232 		.ascii	"APB2ENR\000"
 4427      454E5200 
 4428              	.LASF187:
 4429 0252 41484231 		.ascii	"AHB1LPENR\000"
 4429      4C50454E 
 4429      5200
 4430              	.LASF88:
 4431 025c 53797354 		.ascii	"SysTick_IRQn\000"
 4431      69636B5F 
 4431      4952516E 
 4431      00
 4432              	.LASF128:
 4433 0269 55534152 		.ascii	"USART3_IRQn\000"
 4433      54335F49 
 4433      52516E00 
 4434              	.LASF210:
ARM GAS  /tmp/ccosgPvt.s 			page 81


 4435 0275 75736172 		.ascii	"usart\000"
 4435      7400
 4436              	.LASF1:
 4437 027b 7369676E 		.ascii	"signed char\000"
 4437      65642063 
 4437      68617200 
 4438              	.LASF37:
 4439 0287 705F7072 		.ascii	"p_preempt\000"
 4439      65656D70 
 4439      7400
 4440              	.LASF3:
 4441 0291 75696E74 		.ascii	"uint8_t\000"
 4441      385F7400 
 4442              	.LASF22:
 4443 0299 6576656E 		.ascii	"eventmask_t\000"
 4443      746D6173 
 4443      6B5F7400 
 4444              	.LASF51:
 4445 02a5 636F6E74 		.ascii	"context\000"
 4445      65787400 
 4446              	.LASF102:
 4447 02ad 444D4131 		.ascii	"DMA1_Stream2_IRQn\000"
 4447      5F537472 
 4447      65616D32 
 4447      5F495251 
 4447      6E00
 4448              	.LASF176:
 4449 02bf 52455345 		.ascii	"RESERVED0\000"
 4449      52564544 
 4449      3000
 4450              	.LASF179:
 4451 02c9 52455345 		.ascii	"RESERVED1\000"
 4451      52564544 
 4451      3100
 4452              	.LASF4:
 4453 02d3 756E7369 		.ascii	"unsigned char\000"
 4453      676E6564 
 4453      20636861 
 4453      7200
 4454              	.LASF149:
 4455 02e1 444D4132 		.ascii	"DMA2_Stream4_IRQn\000"
 4455      5F537472 
 4455      65616D34 
 4455      5F495251 
 4455      6E00
 4456              	.LASF190:
 4457 02f3 52455345 		.ascii	"RESERVED4\000"
 4457      52564544 
 4457      3400
 4458              	.LASF77:
 4459 02fd 715F6C69 		.ascii	"q_link\000"
 4459      6E6B00
 4460              	.LASF195:
 4461 0304 52455345 		.ascii	"RESERVED6\000"
 4461      52564544 
 4461      3600
 4462              	.LASF121:
ARM GAS  /tmp/ccosgPvt.s 			page 82


 4463 030e 49324331 		.ascii	"I2C1_ER_IRQn\000"
 4463      5F45525F 
 4463      4952516E 
 4463      00
 4464              	.LASF155:
 4465 031b 43414E32 		.ascii	"CAN2_SCE_IRQn\000"
 4465      5F534345 
 4465      5F495251 
 4465      6E00
 4466              	.LASF201:
 4467 0329 53445F55 		.ascii	"SD_UNINIT\000"
 4467      4E494E49 
 4467      5400
 4468              	.LASF15:
 4469 0333 5F426F6F 		.ascii	"_Bool\000"
 4469      6C00
 4470              	.LASF183:
 4471 0339 52455345 		.ascii	"RESERVED2\000"
 4471      52564544 
 4471      3200
 4472              	.LASF186:
 4473 0343 52455345 		.ascii	"RESERVED3\000"
 4473      52564544 
 4473      3300
 4474              	.LASF139:
 4475 034d 54494D35 		.ascii	"TIM5_IRQn\000"
 4475      5F495251 
 4475      6E00
 4476              	.LASF193:
 4477 0357 52455345 		.ascii	"RESERVED5\000"
 4477      52564544 
 4477      3500
 4478              	.LASF84:
 4479 0361 55736167 		.ascii	"UsageFault_IRQn\000"
 4479      65466175 
 4479      6C745F49 
 4479      52516E00 
 4480              	.LASF68:
 4481 0371 63686172 		.ascii	"char\000"
 4481      00
 4482              	.LASF28:
 4483 0376 705F7072 		.ascii	"p_prio\000"
 4483      696F00
 4484              	.LASF181:
 4485 037d 41484232 		.ascii	"AHB2ENR\000"
 4485      454E5200 
 4486              	.LASF69:
 4487 0385 47656E65 		.ascii	"GenericQueue\000"
 4487      72696351 
 4487      75657565 
 4487      00
 4488              	.LASF66:
 4489 0392 77746F62 		.ascii	"wtobjp\000"
 4489      6A7000
 4490              	.LASF109:
 4491 0399 43414E31 		.ascii	"CAN1_RX0_IRQn\000"
 4491      5F525830 
ARM GAS  /tmp/ccosgPvt.s 			page 83


 4491      5F495251 
 4491      6E00
 4492              	.LASF220:
 4493 03a7 67657474 		.ascii	"gett\000"
 4493      00
 4494              	.LASF49:
 4495 03ac 73746B61 		.ascii	"stkalign_t\000"
 4495      6C69676E 
 4495      5F7400
 4496              	.LASF200:
 4497 03b7 55534152 		.ascii	"USART_TypeDef\000"
 4497      545F5479 
 4497      70654465 
 4497      6600
 4498              	.LASF80:
 4499 03c5 4F757470 		.ascii	"OutputQueue\000"
 4499      75745175 
 4499      65756500 
 4500              	.LASF119:
 4501 03d1 54494D34 		.ascii	"TIM4_IRQn\000"
 4501      5F495251 
 4501      6E00
 4502              	.LASF127:
 4503 03db 55534152 		.ascii	"USART2_IRQn\000"
 4503      54325F49 
 4503      52516E00 
 4504              	.LASF233:
 4505 03e7 6462675F 		.ascii	"dbg_check_lock_from_isr\000"
 4505      63686563 
 4505      6B5F6C6F 
 4505      636B5F66 
 4505      726F6D5F 
 4506              	.LASF194:
 4507 03ff 42444352 		.ascii	"BDCR\000"
 4507      00
 4508              	.LASF120:
 4509 0404 49324331 		.ascii	"I2C1_EV_IRQn\000"
 4509      5F45565F 
 4509      4952516E 
 4509      00
 4510              	.LASF237:
 4511 0411 6462675F 		.ascii	"dbg_check_enter_isr\000"
 4511      63686563 
 4511      6B5F656E 
 4511      7465725F 
 4511      69737200 
 4512              	.LASF50:
 4513 0425 696E7463 		.ascii	"intctx\000"
 4513      747800
 4514              	.LASF42:
 4515 042c 705F6570 		.ascii	"p_epending\000"
 4515      656E6469 
 4515      6E6700
 4516              	.LASF172:
 4517 0437 43464752 		.ascii	"CFGR\000"
 4517      00
 4518              	.LASF116:
ARM GAS  /tmp/ccosgPvt.s 			page 84


 4519 043c 54494D31 		.ascii	"TIM1_CC_IRQn\000"
 4519      5F43435F 
 4519      4952516E 
 4519      00
 4520              	.LASF169:
 4521 0449 48415348 		.ascii	"HASH_RNG_IRQn\000"
 4521      5F524E47 
 4521      5F495251 
 4521      6E00
 4522              	.LASF96:
 4523 0457 45585449 		.ascii	"EXTI1_IRQn\000"
 4523      315F4952 
 4523      516E00
 4524              	.LASF108:
 4525 0462 43414E31 		.ascii	"CAN1_TX_IRQn\000"
 4525      5F54585F 
 4525      4952516E 
 4525      00
 4526              	.LASF105:
 4527 046f 444D4131 		.ascii	"DMA1_Stream5_IRQn\000"
 4527      5F537472 
 4527      65616D35 
 4527      5F495251 
 4527      6E00
 4528              	.LASF134:
 4529 0481 54494D38 		.ascii	"TIM8_TRG_COM_TIM14_IRQn\000"
 4529      5F545247 
 4529      5F434F4D 
 4529      5F54494D 
 4529      31345F49 
 4530              	.LASF63:
 4531 0499 65735F6E 		.ascii	"es_next\000"
 4531      65787400 
 4532              	.LASF71:
 4533 04a1 715F636F 		.ascii	"q_counter\000"
 4533      756E7465 
 4533      7200
 4534              	.LASF156:
 4535 04ab 4F54475F 		.ascii	"OTG_FS_IRQn\000"
 4535      46535F49 
 4535      52516E00 
 4536              	.LASF81:
 4537 04b7 4E6F6E4D 		.ascii	"NonMaskableInt_IRQn\000"
 4537      61736B61 
 4537      626C6549 
 4537      6E745F49 
 4537      52516E00 
 4538              	.LASF137:
 4539 04cb 46534D43 		.ascii	"FSMC_IRQn\000"
 4539      5F495251 
 4539      6E00
 4540              	.LASF62:
 4541 04d5 4576656E 		.ascii	"EventSource\000"
 4541      74536F75 
 4541      72636500 
 4542              	.LASF89:
 4543 04e1 57574447 		.ascii	"WWDG_IRQn\000"
ARM GAS  /tmp/ccosgPvt.s 			page 85


 4543      5F495251 
 4543      6E00
 4544              	.LASF11:
 4545 04eb 6C6F6E67 		.ascii	"long unsigned int\000"
 4545      20756E73 
 4545      69676E65 
 4545      6420696E 
 4545      7400
 4546              	.LASF82:
 4547 04fd 4D656D6F 		.ascii	"MemoryManagement_IRQn\000"
 4547      72794D61 
 4547      6E616765 
 4547      6D656E74 
 4547      5F495251 
 4548              	.LASF91:
 4549 0513 54414D50 		.ascii	"TAMP_STAMP_IRQn\000"
 4549      5F535441 
 4549      4D505F49 
 4549      52516E00 
 4550              	.LASF111:
 4551 0523 43414E31 		.ascii	"CAN1_SCE_IRQn\000"
 4551      5F534345 
 4551      5F495251 
 4551      6E00
 4552              	.LASF58:
 4553 0531 656C5F6E 		.ascii	"el_next\000"
 4553      65787400 
 4554              	.LASF74:
 4555 0539 715F7772 		.ascii	"q_wrptr\000"
 4555      70747200 
 4556              	.LASF216:
 4557 0541 53657269 		.ascii	"SerialDriverVMT\000"
 4557      616C4472 
 4557      69766572 
 4557      564D5400 
 4558              	.LASF223:
 4559 0551 75736172 		.ascii	"usart_deinit\000"
 4559      745F6465 
 4559      696E6974 
 4559      00
 4560              	.LASF123:
 4561 055e 49324332 		.ascii	"I2C2_ER_IRQn\000"
 4561      5F45525F 
 4561      4952516E 
 4561      00
 4562              	.LASF83:
 4563 056b 42757346 		.ascii	"BusFault_IRQn\000"
 4563      61756C74 
 4563      5F495251 
 4563      6E00
 4564              	.LASF227:
 4565 0579 73645F6C 		.ascii	"sd_lld_init\000"
 4565      6C645F69 
 4565      6E697400 
 4566              	.LASF171:
 4567 0585 504C4C43 		.ascii	"PLLCFGR\000"
 4567      46475200 
ARM GAS  /tmp/ccosgPvt.s 			page 86


 4568              	.LASF142:
 4569 058d 55415254 		.ascii	"UART5_IRQn\000"
 4569      355F4952 
 4569      516E00
 4570              	.LASF113:
 4571 0598 54494D31 		.ascii	"TIM1_BRK_TIM9_IRQn\000"
 4571      5F42524B 
 4571      5F54494D 
 4571      395F4952 
 4571      516E00
 4572              	.LASF244:
 4573 05ab 2F686F6D 		.ascii	"/home/rob/Projects/stm32/src/rocket_tracks\000"
 4573      652F726F 
 4573      622F5072 
 4573      6F6A6563 
 4573      74732F73 
 4574              	.LASF212:
 4575 05d6 73635F63 		.ascii	"sc_cr1\000"
 4575      723100
 4576              	.LASF213:
 4577 05dd 73635F63 		.ascii	"sc_cr2\000"
 4577      723200
 4578              	.LASF214:
 4579 05e4 73635F63 		.ascii	"sc_cr3\000"
 4579      723300
 4580              	.LASF53:
 4581 05eb 4D757465 		.ascii	"Mutex\000"
 4581      7800
 4582              	.LASF236:
 4583 05f1 7364496E 		.ascii	"sdIncomingDataI\000"
 4583      636F6D69 
 4583      6E674461 
 4583      74614900 
 4584              	.LASF144:
 4585 0601 54494D37 		.ascii	"TIM7_IRQn\000"
 4585      5F495251 
 4585      6E00
 4586              	.LASF12:
 4587 060b 6C6F6E67 		.ascii	"long long int\000"
 4587      206C6F6E 
 4587      6720696E 
 4587      7400
 4588              	.LASF151:
 4589 0619 4554485F 		.ascii	"ETH_WKUP_IRQn\000"
 4589      574B5550 
 4589      5F495251 
 4589      6E00
 4590              	.LASF125:
 4591 0627 53504932 		.ascii	"SPI2_IRQn\000"
 4591      5F495251 
 4591      6E00
 4592              	.LASF166:
 4593 0631 4F54475F 		.ascii	"OTG_HS_IRQn\000"
 4593      48535F49 
 4593      52516E00 
 4594              	.LASF54:
 4595 063d 6D5F7175 		.ascii	"m_queue\000"
ARM GAS  /tmp/ccosgPvt.s 			page 87


 4595      65756500 
 4596              	.LASF196:
 4597 0645 53534347 		.ascii	"SSCGR\000"
 4597      5200
 4598              	.LASF124:
 4599 064b 53504931 		.ascii	"SPI1_IRQn\000"
 4599      5F495251 
 4599      6E00
 4600              	.LASF85:
 4601 0655 53564361 		.ascii	"SVCall_IRQn\000"
 4601      6C6C5F49 
 4601      52516E00 
 4602              	.LASF178:
 4603 0661 41504232 		.ascii	"APB2RSTR\000"
 4603      52535452 
 4603      00
 4604              	.LASF234:
 4605 066a 6462675F 		.ascii	"dbg_check_unlock_from_isr\000"
 4605      63686563 
 4605      6B5F756E 
 4605      6C6F636B 
 4605      5F66726F 
 4606              	.LASF170:
 4607 0684 4650555F 		.ascii	"FPU_IRQn\000"
 4607      4952516E 
 4607      00
 4608              	.LASF141:
 4609 068d 55415254 		.ascii	"UART4_IRQn\000"
 4609      345F4952 
 4609      516E00
 4610              	.LASF192:
 4611 0698 41504232 		.ascii	"APB2LPENR\000"
 4611      4C50454E 
 4611      5200
 4612              	.LASF78:
 4613 06a2 716E6F74 		.ascii	"qnotify_t\000"
 4613      6966795F 
 4613      7400
 4614              	.LASF39:
 4615 06ac 705F7761 		.ascii	"p_waiting\000"
 4615      6974696E 
 4615      6700
 4616              	.LASF145:
 4617 06b6 444D4132 		.ascii	"DMA2_Stream0_IRQn\000"
 4617      5F537472 
 4617      65616D30 
 4617      5F495251 
 4617      6E00
 4618              	.LASF206:
 4619 06c8 6576656E 		.ascii	"event\000"
 4619      7400
 4620              	.LASF131:
 4621 06ce 4F54475F 		.ascii	"OTG_FS_WKUP_IRQn\000"
 4621      46535F57 
 4621      4B55505F 
 4621      4952516E 
 4621      00
ARM GAS  /tmp/ccosgPvt.s 			page 88


 4622              	.LASF35:
 4623 06df 705F666C 		.ascii	"p_flags\000"
 4623      61677300 
 4624              	.LASF218:
 4625 06e7 72656164 		.ascii	"read\000"
 4625      00
 4626              	.LASF0:
 4627 06ec 756E7369 		.ascii	"unsigned int\000"
 4627      676E6564 
 4627      20696E74 
 4627      00
 4628              	.LASF143:
 4629 06f9 54494D36 		.ascii	"TIM6_DAC_IRQn\000"
 4629      5F444143 
 4629      5F495251 
 4629      6E00
 4630              	.LASF45:
 4631 0707 705F6D70 		.ascii	"p_mpool\000"
 4631      6F6F6C00 
 4632              	.LASF122:
 4633 070f 49324332 		.ascii	"I2C2_EV_IRQn\000"
 4633      5F45565F 
 4633      4952516E 
 4633      00
 4634              	.LASF36:
 4635 071c 705F7265 		.ascii	"p_refs\000"
 4635      667300
 4636              	.LASF248:
 4637 0723 63684F51 		.ascii	"chOQGetI\000"
 4637      47657449 
 4637      00
 4638              	.LASF211:
 4639 072c 73635F73 		.ascii	"sc_speed\000"
 4639      70656564 
 4639      00
 4640              	.LASF239:
 4641 0735 5F706F72 		.ascii	"_port_irq_epilogue\000"
 4641      745F6972 
 4641      715F6570 
 4641      696C6F67 
 4641      756500
 4642              	.LASF47:
 4643 0748 54687265 		.ascii	"ThreadsList\000"
 4643      6164734C 
 4643      69737400 
 4644              	.LASF191:
 4645 0754 41504231 		.ascii	"APB1LPENR\000"
 4645      4C50454E 
 4645      5200
 4646              	.LASF101:
 4647 075e 444D4131 		.ascii	"DMA1_Stream1_IRQn\000"
 4647      5F537472 
 4647      65616D31 
 4647      5F495251 
 4647      6E00
 4648              	.LASF23:
 4649 0770 666C6167 		.ascii	"flagsmask_t\000"
ARM GAS  /tmp/ccosgPvt.s 			page 89


 4649      736D6173 
 4649      6B5F7400 
 4650              	.LASF148:
 4651 077c 444D4132 		.ascii	"DMA2_Stream3_IRQn\000"
 4651      5F537472 
 4651      65616D33 
 4651      5F495251 
 4651      6E00
 4652              	.LASF152:
 4653 078e 43414E32 		.ascii	"CAN2_TX_IRQn\000"
 4653      5F54585F 
 4653      4952516E 
 4653      00
 4654              	.LASF38:
 4655 079b 705F7469 		.ascii	"p_time\000"
 4655      6D6500
 4656              	.LASF245:
 4657 07a2 4952516E 		.ascii	"IRQn\000"
 4657      00
 4658              	.LASF106:
 4659 07a7 444D4131 		.ascii	"DMA1_Stream6_IRQn\000"
 4659      5F537472 
 4659      65616D36 
 4659      5F495251 
 4659      6E00
 4660              	.LASF235:
 4661 07b9 63684576 		.ascii	"chEvtBroadcastFlagsI\000"
 4661      7442726F 
 4661      61646361 
 4661      7374466C 
 4661      61677349 
 4662              	.LASF175:
 4663 07ce 41484233 		.ascii	"AHB3RSTR\000"
 4663      52535452 
 4663      00
 4664              	.LASF249:
 4665 07d7 6E766963 		.ascii	"nvicDisableVector\000"
 4665      44697361 
 4665      626C6556 
 4665      6563746F 
 4665      7200
 4666              	.LASF44:
 4667 07e9 705F7265 		.ascii	"p_realprio\000"
 4667      616C7072 
 4667      696F00
 4668              	.LASF159:
 4669 07f4 444D4132 		.ascii	"DMA2_Stream7_IRQn\000"
 4669      5F537472 
 4669      65616D37 
 4669      5F495251 
 4669      6E00
 4670              	.LASF100:
 4671 0806 444D4131 		.ascii	"DMA1_Stream0_IRQn\000"
 4671      5F537472 
 4671      65616D30 
 4671      5F495251 
 4671      6E00
ARM GAS  /tmp/ccosgPvt.s 			page 90


 4672              	.LASF177:
 4673 0818 41504231 		.ascii	"APB1RSTR\000"
 4673      52535452 
 4673      00
 4674              	.LASF228:
 4675 0821 75736172 		.ascii	"usart_init\000"
 4675      745F696E 
 4675      697400
 4676              	.LASF130:
 4677 082c 5254435F 		.ascii	"RTC_Alarm_IRQn\000"
 4677      416C6172 
 4677      6D5F4952 
 4677      516E00
 4678              	.LASF184:
 4679 083b 41504231 		.ascii	"APB1ENR\000"
 4679      454E5200 
 4680              	.LASF162:
 4681 0843 49324333 		.ascii	"I2C3_ER_IRQn\000"
 4681      5F45525F 
 4681      4952516E 
 4681      00
 4682              	.LASF238:
 4683 0850 6462675F 		.ascii	"dbg_check_leave_isr\000"
 4683      63686563 
 4683      6B5F6C65 
 4683      6176655F 
 4683      69737200 
 4684              	.LASF168:
 4685 0864 43525950 		.ascii	"CRYP_IRQn\000"
 4685      5F495251 
 4685      6E00
 4686              	.LASF129:
 4687 086e 45585449 		.ascii	"EXTI15_10_IRQn\000"
 4687      31355F31 
 4687      305F4952 
 4687      516E00
 4688              	.LASF14:
 4689 087d 6C6F6E67 		.ascii	"long long unsigned int\000"
 4689      206C6F6E 
 4689      6720756E 
 4689      7369676E 
 4689      65642069 
 4690              	.LASF31:
 4691 0894 705F6F6C 		.ascii	"p_older\000"
 4691      64657200 
 4692              	.LASF6:
 4693 089c 75696E74 		.ascii	"uint16_t\000"
 4693      31365F74 
 4693      00
 4694              	.LASF21:
 4695 08a5 6D73675F 		.ascii	"msg_t\000"
 4695      7400
 4696              	.LASF118:
 4697 08ab 54494D33 		.ascii	"TIM3_IRQn\000"
 4697      5F495251 
 4697      6E00
 4698              	.LASF126:
ARM GAS  /tmp/ccosgPvt.s 			page 91


 4699 08b5 55534152 		.ascii	"USART1_IRQn\000"
 4699      54315F49 
 4699      52516E00 
 4700              	.LASF19:
 4701 08c1 74736C69 		.ascii	"tslices_t\000"
 4701      6365735F 
 4701      7400
 4702              	.LASF97:
 4703 08cb 45585449 		.ascii	"EXTI2_IRQn\000"
 4703      325F4952 
 4703      516E00
 4704              	.LASF154:
 4705 08d6 43414E32 		.ascii	"CAN2_RX1_IRQn\000"
 4705      5F525831 
 4705      5F495251 
 4705      6E00
 4706              	.LASF107:
 4707 08e4 4144435F 		.ascii	"ADC_IRQn\000"
 4707      4952516E 
 4707      00
 4708              	.LASF189:
 4709 08ed 41484233 		.ascii	"AHB3LPENR\000"
 4709      4C50454E 
 4709      5200
 4710              	.LASF90:
 4711 08f7 5056445F 		.ascii	"PVD_IRQn\000"
 4711      4952516E 
 4711      00
 4712              	.LASF205:
 4713 0900 53657269 		.ascii	"SerialDriver\000"
 4713      616C4472 
 4713      69766572 
 4713      00
 4714              	.LASF70:
 4715 090d 715F7761 		.ascii	"q_waiting\000"
 4715      6974696E 
 4715      6700
 4716              	.LASF95:
 4717 0917 45585449 		.ascii	"EXTI0_IRQn\000"
 4717      305F4952 
 4717      516E00
 4718              	.LASF16:
 4719 0922 746D6F64 		.ascii	"tmode_t\000"
 4719      655F7400 
 4720              	.LASF104:
 4721 092a 444D4131 		.ascii	"DMA1_Stream4_IRQn\000"
 4721      5F537472 
 4721      65616D34 
 4721      5F495251 
 4721      6E00
 4722              	.LASF204:
 4723 093c 73647374 		.ascii	"sdstate_t\000"
 4723      6174655F 
 4723      7400
 4724              	.LASF158:
 4725 0946 444D4132 		.ascii	"DMA2_Stream6_IRQn\000"
 4725      5F537472 
ARM GAS  /tmp/ccosgPvt.s 			page 92


 4725      65616D36 
 4725      5F495251 
 4725      6E00
 4726              	.LASF180:
 4727 0958 41484231 		.ascii	"AHB1ENR\000"
 4727      454E5200 
 4728              	.LASF86:
 4729 0960 44656275 		.ascii	"DebugMonitor_IRQn\000"
 4729      674D6F6E 
 4729      69746F72 
 4729      5F495251 
 4729      6E00
 4730              	.LASF203:
 4731 0972 53445F52 		.ascii	"SD_READY\000"
 4731      45414459 
 4731      00
 4732              	.LASF161:
 4733 097b 49324333 		.ascii	"I2C3_EV_IRQn\000"
 4733      5F45565F 
 4733      4952516E 
 4733      00
 4734              	.LASF174:
 4735 0988 41484232 		.ascii	"AHB2RSTR\000"
 4735      52535452 
 4735      00
 4736              	.LASF150:
 4737 0991 4554485F 		.ascii	"ETH_IRQn\000"
 4737      4952516E 
 4737      00
 4738              	.LASF246:
 4739 099a 6E6F7469 		.ascii	"notify6\000"
 4739      66793600 
 4740              	.LASF198:
 4741 09a2 5243435F 		.ascii	"RCC_TypeDef\000"
 4741      54797065 
 4741      44656600 
 4742              	.LASF226:
 4743 09ae 56656374 		.ascii	"Vector15C\000"
 4743      6F723135 
 4743      4300
 4744              	.LASF5:
 4745 09b8 73686F72 		.ascii	"short int\000"
 4745      7420696E 
 4745      7400
 4746              	.LASF13:
 4747 09c2 75696E74 		.ascii	"uint64_t\000"
 4747      36345F74 
 4747      00
 4748              	.LASF94:
 4749 09cb 5243435F 		.ascii	"RCC_IRQn\000"
 4749      4952516E 
 4749      00
 4750              	.LASF208:
 4751 09d4 69717565 		.ascii	"iqueue\000"
 4751      756500
 4752              	.LASF103:
 4753 09db 444D4131 		.ascii	"DMA1_Stream3_IRQn\000"
ARM GAS  /tmp/ccosgPvt.s 			page 93


 4753      5F537472 
 4753      65616D33 
 4753      5F495251 
 4753      6E00
 4754              	.LASF25:
 4755 09ed 54687265 		.ascii	"Thread\000"
 4755      616400
 4756              	.LASF114:
 4757 09f4 54494D31 		.ascii	"TIM1_UP_TIM10_IRQn\000"
 4757      5F55505F 
 4757      54494D31 
 4757      305F4952 
 4757      516E00
 4758              	.LASF232:
 4759 0a07 49544D5F 		.ascii	"ITM_RxBuffer\000"
 4759      52784275 
 4759      66666572 
 4759      00
 4760              	.LASF18:
 4761 0a14 74726566 		.ascii	"trefs_t\000"
 4761      735F7400 
 4762              	.LASF163:
 4763 0a1c 4F54475F 		.ascii	"OTG_HS_EP1_OUT_IRQn\000"
 4763      48535F45 
 4763      50315F4F 
 4763      55545F49 
 4763      52516E00 
 4764              	.LASF92:
 4765 0a30 5254435F 		.ascii	"RTC_WKUP_IRQn\000"
 4765      574B5550 
 4765      5F495251 
 4765      6E00
 4766              	.LASF57:
 4767 0a3e 4576656E 		.ascii	"EventListener\000"
 4767      744C6973 
 4767      74656E65 
 4767      7200
 4768              	.LASF241:
 4769 0a4c 6E766963 		.ascii	"nvicEnableVector\000"
 4769      456E6162 
 4769      6C655665 
 4769      63746F72 
 4769      00
 4770              	.LASF10:
 4771 0a5d 75696E74 		.ascii	"uint32_t\000"
 4771      33325F74 
 4771      00
 4772              	.LASF110:
 4773 0a66 43414E31 		.ascii	"CAN1_RX1_IRQn\000"
 4773      5F525831 
 4773      5F495251 
 4773      6E00
 4774              	.LASF46:
 4775 0a74 54687265 		.ascii	"ThreadsQueue\000"
 4775      61647351 
 4775      75657565 
 4775      00
ARM GAS  /tmp/ccosgPvt.s 			page 94


 4776              	.LASF112:
 4777 0a81 45585449 		.ascii	"EXTI9_5_IRQn\000"
 4777      395F355F 
 4777      4952516E 
 4777      00
 4778              	.LASF64:
 4779 0a8e 7264796D 		.ascii	"rdymsg\000"
 4779      736700
 4780              	.LASF99:
 4781 0a95 45585449 		.ascii	"EXTI4_IRQn\000"
 4781      345F4952 
 4781      516E00
 4782              	.LASF7:
 4783 0aa0 73686F72 		.ascii	"short unsigned int\000"
 4783      7420756E 
 4783      7369676E 
 4783      65642069 
 4783      6E7400
 4784              	.LASF231:
 4785 0ab3 73645F6C 		.ascii	"sd_lld_stop\000"
 4785      6C645F73 
 4785      746F7000 
 4786              	.LASF135:
 4787 0abf 54494D38 		.ascii	"TIM8_CC_IRQn\000"
 4787      5F43435F 
 4787      4952516E 
 4787      00
 4788              	.LASF138:
 4789 0acc 5344494F 		.ascii	"SDIO_IRQn\000"
 4789      5F495251 
 4789      6E00
 4790              	.LASF79:
 4791 0ad6 496E7075 		.ascii	"InputQueue\000"
 4791      74517565 
 4791      756500
 4792              	.LASF98:
 4793 0ae1 45585449 		.ascii	"EXTI3_IRQn\000"
 4793      335F4952 
 4793      516E00
 4794              	.LASF87:
 4795 0aec 50656E64 		.ascii	"PendSV_IRQn\000"
 4795      53565F49 
 4795      52516E00 
 4796              	.LASF164:
 4797 0af8 4F54475F 		.ascii	"OTG_HS_EP1_IN_IRQn\000"
 4797      48535F45 
 4797      50315F49 
 4797      4E5F4952 
 4797      516E00
 4798              	.LASF33:
 4799 0b0b 705F7374 		.ascii	"p_stklimit\000"
 4799      6B6C696D 
 4799      697400
 4800              	.LASF136:
 4801 0b16 444D4131 		.ascii	"DMA1_Stream7_IRQn\000"
 4801      5F537472 
 4801      65616D37 
ARM GAS  /tmp/ccosgPvt.s 			page 95


 4801      5F495251 
 4801      6E00
 4802              	.LASF173:
 4803 0b28 41484231 		.ascii	"AHB1RSTR\000"
 4803      52535452 
 4803      00
 4804              	.LASF202:
 4805 0b31 53445F53 		.ascii	"SD_STOP\000"
 4805      544F5000 
 4806              	.LASF60:
 4807 0b39 656C5F6D 		.ascii	"el_mask\000"
 4807      61736B00 
 4808              	.LASF32:
 4809 0b41 705F6E61 		.ascii	"p_name\000"
 4809      6D6500
 4810              	.LASF56:
 4811 0b48 6D5F6E65 		.ascii	"m_next\000"
 4811      787400
 4812              	.LASF182:
 4813 0b4f 41484233 		.ascii	"AHB3ENR\000"
 4813      454E5200 
 4814              	.LASF147:
 4815 0b57 444D4132 		.ascii	"DMA2_Stream2_IRQn\000"
 4815      5F537472 
 4815      65616D32 
 4815      5F495251 
 4815      6E00
 4816              	.LASF41:
 4817 0b69 705F6D73 		.ascii	"p_msg\000"
 4817      6700
 4818              	.LASF59:
 4819 0b6f 656C5F6C 		.ascii	"el_listener\000"
 4819      69737465 
 4819      6E657200 
 4820              	.LASF34:
 4821 0b7b 705F7374 		.ascii	"p_state\000"
 4821      61746500 
 4822              		.ident	"GCC: (crosstool-NG 1.17.0 - PSAS ST32F4 GFE) 4.7.2"
ARM GAS  /tmp/ccosgPvt.s 			page 96


DEFINED SYMBOLS
                            *ABS*:0000000000000000 serial_lld.c
     /tmp/ccosgPvt.s:21     .text.notify6:0000000000000000 $t
     /tmp/ccosgPvt.s:26     .text.notify6:0000000000000000 notify6
     /tmp/ccosgPvt.s:47     .text.Vector15C:0000000000000000 $t
     /tmp/ccosgPvt.s:53     .text.Vector15C:0000000000000000 Vector15C
     /tmp/ccosgPvt.s:373    .text.Vector15C:0000000000000160 $d
     /tmp/ccosgPvt.s:383    .text.sd_lld_init:0000000000000000 $t
     /tmp/ccosgPvt.s:389    .text.sd_lld_init:0000000000000000 sd_lld_init
     /tmp/ccosgPvt.s:622    .bss.SD6:0000000000000000 .LANCHOR0
     /tmp/ccosgPvt.s:418    .text.sd_lld_start:0000000000000000 $t
     /tmp/ccosgPvt.s:424    .text.sd_lld_start:0000000000000000 sd_lld_start
     /tmp/ccosgPvt.s:541    .text.sd_lld_start:0000000000000094 $d
     /tmp/ccosgPvt.s:547    .text.sd_lld_stop:0000000000000000 $t
     /tmp/ccosgPvt.s:553    .text.sd_lld_stop:0000000000000000 sd_lld_stop
     /tmp/ccosgPvt.s:604    .text.sd_lld_stop:0000000000000030 $d
     /tmp/ccosgPvt.s:625    .bss.SD6:0000000000000000 SD6
     /tmp/ccosgPvt.s:610    .rodata.default_config:0000000000000000 $d
     /tmp/ccosgPvt.s:614    .rodata.default_config:0000000000000000 default_config
     /tmp/ccosgPvt.s:621    .bss.SD6:0000000000000000 $d
                     .debug_frame:0000000000000010 $d
     /tmp/ccosgPvt.s:382    .text.Vector15C:000000000000016c $t
     /tmp/ccosgPvt.s:546    .text.sd_lld_start:000000000000009c $t
     /tmp/ccosgPvt.s:609    .text.sd_lld_stop:0000000000000034 $t

UNDEFINED SYMBOLS
dbg_check_enter_isr
dbg_check_lock_from_isr
chEvtBroadcastFlagsI
dbg_check_unlock_from_isr
dbg_check_leave_isr
_port_irq_epilogue
sdIncomingDataI
chOQGetI
sdObjectInit
nvicEnableVector
nvicDisableVector
