ARM GAS  /tmp/ccngeE93.s 			page 1


   1              		.syntax unified
   2              		.cpu cortex-m4
   3              		.eabi_attribute 27, 3
   4              		.eabi_attribute 28, 1
   5              		.fpu fpv4-sp-d16
   6              		.eabi_attribute 20, 1
   7              		.eabi_attribute 21, 1
   8              		.eabi_attribute 23, 3
   9              		.eabi_attribute 24, 1
  10              		.eabi_attribute 25, 1
  11              		.eabi_attribute 26, 1
  12              		.eabi_attribute 30, 2
  13              		.eabi_attribute 34, 1
  14              		.eabi_attribute 18, 4
  15              		.thumb
  16              		.file	"serial_usb.c"
  17              		.text
  18              	.Ltext0:
  19              		.cfi_sections	.debug_frame
  20              		.section	.text.onotify,"ax",%progbits
  21              		.align	2
  22              		.p2align 4,,15
  23              		.thumb
  24              		.thumb_func
  25              		.type	onotify, %function
  26              	onotify:
  27              	.LFB127:
  28              		.file 1 "../../ChibiOS/os/hal/src/serial_usb.c"
  29              		.loc 1 143 0
  30              		.cfi_startproc
  31              		@ args = 0, pretend = 0, frame = 0
  32              		@ frame_needed = 0, uses_anonymous_args = 0
  33              	.LVL0:
  34 0000 70B5     		push	{r4, r5, r6, lr}
  35              	.LCFI0:
  36              		.cfi_def_cfa_offset 16
  37              		.cfi_offset 4, -16
  38              		.cfi_offset 5, -12
  39              		.cfi_offset 6, -8
  40              		.cfi_offset 14, -4
  41              		.loc 1 145 0
  42 0002 046A     		ldr	r4, [r0, #32]
  43              	.LVL1:
  44              		.loc 1 149 0
  45 0004 D4F85432 		ldr	r3, [r4, #596]
  46 0008 1A68     		ldr	r2, [r3, #0]
  47 000a 1178     		ldrb	r1, [r2, #0]	@ zero_extendqisi2
  48 000c 0429     		cmp	r1, #4
  49 000e 00D0     		beq	.L7
  50              	.L1:
  51 0010 70BD     		pop	{r4, r5, r6, pc}
  52              	.L7:
  53              		.loc 1 149 0 is_stmt 0 discriminator 1
  54 0012 217A     		ldrb	r1, [r4, #8]	@ zero_extendqisi2
  55 0014 0229     		cmp	r1, #2
  56 0016 FBD1     		bne	.L1
  57              		.loc 1 155 0 is_stmt 1
ARM GAS  /tmp/ccngeE93.s 			page 2


  58 0018 1289     		ldrh	r2, [r2, #8]
  59 001a 1B79     		ldrb	r3, [r3, #4]	@ zero_extendqisi2
  60 001c 42FA03F3 		asr	r3, r2, r3
  61 0020 13F00105 		ands	r5, r3, #1
  62 0024 F4D1     		bne	.L1
  63              		.loc 1 156 0 discriminator 1
  64 0026 216C     		ldr	r1, [r4, #64]
  65 0028 E36B     		ldr	r3, [r4, #60]
  66 002a A26B     		ldr	r2, [r4, #56]
  67 002c C91A     		subs	r1, r1, r3
  68              	.LVL2:
  69              		.loc 1 155 0 discriminator 1
  70 002e 8E1A     		subs	r6, r1, r2
  71              	.LVL3:
  72 0030 EED0     		beq	.L1
  73              		.loc 1 157 0
  74 0032 FFF7FEFF 		bl	dbg_check_unlock
  75              	.LVL4:
  76              	.LBB2:
  77 0036 2B46     		mov	r3, r5
  78              	.LVL5:
  79              	@ 157 "../../ChibiOS/os/hal/src/serial_usb.c" 1
  80 0038 83F31188 		msr     BASEPRI, r3
  81              	@ 0 "" 2
  82              	.LVL6:
  83              		.thumb
  84              	.LBE2:
  85              		.loc 1 159 0
  86 003c D4F85422 		ldr	r2, [r4, #596]
  87 0040 3346     		mov	r3, r6
  88              	.LVL7:
  89 0042 1068     		ldr	r0, [r2, #0]
  90 0044 1179     		ldrb	r1, [r2, #4]	@ zero_extendqisi2
  91 0046 04F13002 		add	r2, r4, #48
  92 004a FFF7FEFF 		bl	usbPrepareQueuedTransmit
  93              	.LVL8:
  94              	.LBB3:
  95              		.loc 1 163 0
  96 004e 2023     		movs	r3, #32
  97              	.LVL9:
  98              	@ 163 "../../ChibiOS/os/hal/src/serial_usb.c" 1
  99 0050 83F31188 		msr     BASEPRI, r3
 100              	@ 0 "" 2
 101              	.LVL10:
 102              		.thumb
 103              	.LBE3:
 104 0054 FFF7FEFF 		bl	dbg_check_lock
 105              	.LVL11:
 106              		.loc 1 164 0
 107 0058 D4F85432 		ldr	r3, [r4, #596]
 108 005c 1868     		ldr	r0, [r3, #0]
 109 005e 1979     		ldrb	r1, [r3, #4]	@ zero_extendqisi2
 110              		.loc 1 166 0
 111 0060 BDE87040 		pop	{r4, r5, r6, lr}
 112              		.loc 1 164 0
 113 0064 FFF7FEBF 		b	usbStartTransmitI
 114              	.LVL12:
ARM GAS  /tmp/ccngeE93.s 			page 3


 115              		.cfi_endproc
 116              	.LFE127:
 117              		.size	onotify, .-onotify
 118 0068 AFF30080 		.section	.text.inotify,"ax",%progbits
 118      AFF30080 
 119              		.align	2
 120              		.p2align 4,,15
 121              		.thumb
 122              		.thumb_func
 123              		.type	inotify, %function
 124              	inotify:
 125              	.LFB126:
 126              		.loc 1 112 0
 127              		.cfi_startproc
 128              		@ args = 0, pretend = 0, frame = 0
 129              		@ frame_needed = 0, uses_anonymous_args = 0
 130              	.LVL13:
 131 0000 F8B5     		push	{r3, r4, r5, r6, r7, lr}
 132              	.LCFI1:
 133              		.cfi_def_cfa_offset 24
 134              		.cfi_offset 3, -24
 135              		.cfi_offset 4, -20
 136              		.cfi_offset 5, -16
 137              		.cfi_offset 6, -12
 138              		.cfi_offset 7, -8
 139              		.cfi_offset 14, -4
 140              		.loc 1 114 0
 141 0002 046A     		ldr	r4, [r0, #32]
 142              	.LVL14:
 143              		.loc 1 118 0
 144 0004 D4F85422 		ldr	r2, [r4, #596]
 145 0008 1368     		ldr	r3, [r2, #0]
 146 000a 1978     		ldrb	r1, [r3, #0]	@ zero_extendqisi2
 147 000c 0429     		cmp	r1, #4
 148 000e 00D0     		beq	.L10
 149              	.L8:
 150 0010 F8BD     		pop	{r3, r4, r5, r6, r7, pc}
 151              	.L10:
 152              		.loc 1 118 0 is_stmt 0 discriminator 1
 153 0012 217A     		ldrb	r1, [r4, #8]	@ zero_extendqisi2
 154 0014 0229     		cmp	r1, #2
 155 0016 FBD1     		bne	.L8
 156              		.loc 1 125 0 is_stmt 1
 157 0018 5279     		ldrb	r2, [r2, #5]	@ zero_extendqisi2
 158              		.loc 1 126 0
 159 001a 5989     		ldrh	r1, [r3, #10]
 160              		.loc 1 125 0
 161 001c 03EB8203 		add	r3, r3, r2, lsl #2
 162              		.loc 1 126 0
 163 0020 41FA02F2 		asr	r2, r1, r2
 164              		.loc 1 125 0
 165 0024 DB68     		ldr	r3, [r3, #12]
 166              		.loc 1 126 0
 167 0026 12F00107 		ands	r7, r2, #1
 168              		.loc 1 125 0
 169 002a 5D8A     		ldrh	r5, [r3, #18]
 170              	.LVL15:
ARM GAS  /tmp/ccngeE93.s 			page 4


 171              		.loc 1 126 0
 172 002c F0D1     		bne	.L8
 173              		.loc 1 127 0 discriminator 1
 174 002e E669     		ldr	r6, [r4, #28]
 175 0030 A269     		ldr	r2, [r4, #24]
 176 0032 6369     		ldr	r3, [r4, #20]
 177 0034 B61A     		subs	r6, r6, r2
 178 0036 F61A     		subs	r6, r6, r3
 179              	.LVL16:
 180              		.loc 1 126 0 discriminator 1
 181 0038 B542     		cmp	r5, r6
 182 003a E9D8     		bhi	.L8
 183              		.loc 1 128 0
 184 003c FFF7FEFF 		bl	dbg_check_unlock
 185              	.LVL17:
 186              	.LBB4:
 187 0040 3B46     		mov	r3, r7
 188              	.LVL18:
 189              	@ 128 "../../ChibiOS/os/hal/src/serial_usb.c" 1
 190 0042 83F31188 		msr     BASEPRI, r3
 191              	@ 0 "" 2
 192              	.LVL19:
 193              		.thumb
 194              	.LBE4:
 195              		.loc 1 131 0
 196 0046 D4F85422 		ldr	r2, [r4, #596]
 197              		.loc 1 130 0
 198 004a B6FBF5F3 		udiv	r3, r6, r5
 199              	.LVL20:
 200              		.loc 1 131 0
 201 004e 05FB03F3 		mul	r3, r5, r3
 202              	.LVL21:
 203 0052 1068     		ldr	r0, [r2, #0]
 204 0054 5179     		ldrb	r1, [r2, #5]	@ zero_extendqisi2
 205 0056 04F10C02 		add	r2, r4, #12
 206 005a FFF7FEFF 		bl	usbPrepareQueuedReceive
 207              	.LVL22:
 208              	.LBB5:
 209              		.loc 1 135 0
 210 005e 2023     		movs	r3, #32
 211              	.LVL23:
 212              	@ 135 "../../ChibiOS/os/hal/src/serial_usb.c" 1
 213 0060 83F31188 		msr     BASEPRI, r3
 214              	@ 0 "" 2
 215              	.LVL24:
 216              		.thumb
 217              	.LBE5:
 218 0064 FFF7FEFF 		bl	dbg_check_lock
 219              	.LVL25:
 220              		.loc 1 136 0
 221 0068 D4F85432 		ldr	r3, [r4, #596]
 222 006c 1868     		ldr	r0, [r3, #0]
 223 006e 5979     		ldrb	r1, [r3, #5]	@ zero_extendqisi2
 224              		.loc 1 138 0
 225 0070 BDE8F840 		pop	{r3, r4, r5, r6, r7, lr}
 226              		.loc 1 136 0
 227 0074 FFF7FEBF 		b	usbStartReceiveI
ARM GAS  /tmp/ccngeE93.s 			page 5


 228              	.LVL26:
 229              		.cfi_endproc
 230              	.LFE126:
 231              		.size	inotify, .-inotify
 232 0078 AFF30080 		.section	.text.readt,"ax",%progbits
 232      AFF30080 
 233              		.align	2
 234              		.p2align 4,,15
 235              		.thumb
 236              		.thumb_func
 237              		.type	readt, %function
 238              	readt:
 239              	.LFB125:
 240              		.loc 1 99 0
 241              		.cfi_startproc
 242              		@ args = 0, pretend = 0, frame = 0
 243              		@ frame_needed = 0, uses_anonymous_args = 0
 244              		@ link register save eliminated.
 245              	.LVL27:
 246              		.loc 1 101 0
 247 0000 0C30     		adds	r0, r0, #12
 248              	.LVL28:
 249              		.loc 1 102 0
 250              		.loc 1 101 0
 251 0002 FFF7FEBF 		b	chIQReadTimeout
 252              	.LVL29:
 253              		.cfi_endproc
 254              	.LFE125:
 255              		.size	readt, .-readt
 256 0006 00BFAFF3 		.section	.text.read,"ax",%progbits
 256      0080AFF3 
 256      0080
 257              		.align	2
 258              		.p2align 4,,15
 259              		.thumb
 260              		.thumb_func
 261              		.type	read, %function
 262              	read:
 263              	.LFB119:
 264              		.loc 1 68 0
 265              		.cfi_startproc
 266              		@ args = 0, pretend = 0, frame = 0
 267              		@ frame_needed = 0, uses_anonymous_args = 0
 268              		@ link register save eliminated.
 269              	.LVL30:
 270              		.loc 1 70 0
 271 0000 0C30     		adds	r0, r0, #12
 272              	.LVL31:
 273 0002 4FF0FF33 		mov	r3, #-1
 274              		.loc 1 72 0
 275              		.loc 1 70 0
 276 0006 FFF7FEBF 		b	chIQReadTimeout
 277              	.LVL32:
 278              		.cfi_endproc
 279              	.LFE119:
 280              		.size	read, .-read
 281 000a 00BFAFF3 		.section	.text.writet,"ax",%progbits
ARM GAS  /tmp/ccngeE93.s 			page 6


 281      0080
 282              		.align	2
 283              		.p2align 4,,15
 284              		.thumb
 285              		.thumb_func
 286              		.type	writet, %function
 287              	writet:
 288              	.LFB124:
 289              		.loc 1 94 0
 290              		.cfi_startproc
 291              		@ args = 0, pretend = 0, frame = 0
 292              		@ frame_needed = 0, uses_anonymous_args = 0
 293              		@ link register save eliminated.
 294              	.LVL33:
 295              		.loc 1 96 0
 296 0000 3030     		adds	r0, r0, #48
 297              	.LVL34:
 298              		.loc 1 97 0
 299              		.loc 1 96 0
 300 0002 FFF7FEBF 		b	chOQWriteTimeout
 301              	.LVL35:
 302              		.cfi_endproc
 303              	.LFE124:
 304              		.size	writet, .-writet
 305 0006 00BFAFF3 		.section	.text.write,"ax",%progbits
 305      0080AFF3 
 305      0080
 306              		.align	2
 307              		.p2align 4,,15
 308              		.thumb
 309              		.thumb_func
 310              		.type	write, %function
 311              	write:
 312              	.LFB118:
 313              		.loc 1 62 0
 314              		.cfi_startproc
 315              		@ args = 0, pretend = 0, frame = 0
 316              		@ frame_needed = 0, uses_anonymous_args = 0
 317              		@ link register save eliminated.
 318              	.LVL36:
 319              		.loc 1 64 0
 320 0000 3030     		adds	r0, r0, #48
 321              	.LVL37:
 322 0002 4FF0FF33 		mov	r3, #-1
 323              		.loc 1 66 0
 324              		.loc 1 64 0
 325 0006 FFF7FEBF 		b	chOQWriteTimeout
 326              	.LVL38:
 327              		.cfi_endproc
 328              	.LFE118:
 329              		.size	write, .-write
 330 000a 00BFAFF3 		.section	.text.gett,"ax",%progbits
 330      0080
 331              		.align	2
 332              		.p2align 4,,15
 333              		.thumb
 334              		.thumb_func
ARM GAS  /tmp/ccngeE93.s 			page 7


 335              		.type	gett, %function
 336              	gett:
 337              	.LFB123:
 338              		.loc 1 89 0
 339              		.cfi_startproc
 340              		@ args = 0, pretend = 0, frame = 0
 341              		@ frame_needed = 0, uses_anonymous_args = 0
 342              		@ link register save eliminated.
 343              	.LVL39:
 344              		.loc 1 91 0
 345 0000 0C30     		adds	r0, r0, #12
 346              	.LVL40:
 347              		.loc 1 92 0
 348              		.loc 1 91 0
 349 0002 FFF7FEBF 		b	chIQGetTimeout
 350              	.LVL41:
 351              		.cfi_endproc
 352              	.LFE123:
 353              		.size	gett, .-gett
 354 0006 00BFAFF3 		.section	.text.get,"ax",%progbits
 354      0080AFF3 
 354      0080
 355              		.align	2
 356              		.p2align 4,,15
 357              		.thumb
 358              		.thumb_func
 359              		.type	get, %function
 360              	get:
 361              	.LFB121:
 362              		.loc 1 79 0
 363              		.cfi_startproc
 364              		@ args = 0, pretend = 0, frame = 0
 365              		@ frame_needed = 0, uses_anonymous_args = 0
 366              		@ link register save eliminated.
 367              	.LVL42:
 368              		.loc 1 81 0
 369 0000 0C30     		adds	r0, r0, #12
 370              	.LVL43:
 371 0002 4FF0FF31 		mov	r1, #-1
 372              		.loc 1 82 0
 373              		.loc 1 81 0
 374 0006 FFF7FEBF 		b	chIQGetTimeout
 375              	.LVL44:
 376              		.cfi_endproc
 377              	.LFE121:
 378              		.size	get, .-get
 379 000a 00BFAFF3 		.section	.text.putt,"ax",%progbits
 379      0080
 380              		.align	2
 381              		.p2align 4,,15
 382              		.thumb
 383              		.thumb_func
 384              		.type	putt, %function
 385              	putt:
 386              	.LFB122:
 387              		.loc 1 84 0
 388              		.cfi_startproc
ARM GAS  /tmp/ccngeE93.s 			page 8


 389              		@ args = 0, pretend = 0, frame = 0
 390              		@ frame_needed = 0, uses_anonymous_args = 0
 391              		@ link register save eliminated.
 392              	.LVL45:
 393              		.loc 1 86 0
 394 0000 3030     		adds	r0, r0, #48
 395              	.LVL46:
 396              		.loc 1 87 0
 397              		.loc 1 86 0
 398 0002 FFF7FEBF 		b	chOQPutTimeout
 399              	.LVL47:
 400              		.cfi_endproc
 401              	.LFE122:
 402              		.size	putt, .-putt
 403 0006 00BFAFF3 		.section	.text.put,"ax",%progbits
 403      0080AFF3 
 403      0080
 404              		.align	2
 405              		.p2align 4,,15
 406              		.thumb
 407              		.thumb_func
 408              		.type	put, %function
 409              	put:
 410              	.LFB120:
 411              		.loc 1 74 0
 412              		.cfi_startproc
 413              		@ args = 0, pretend = 0, frame = 0
 414              		@ frame_needed = 0, uses_anonymous_args = 0
 415              		@ link register save eliminated.
 416              	.LVL48:
 417              		.loc 1 76 0
 418 0000 3030     		adds	r0, r0, #48
 419              	.LVL49:
 420 0002 4FF0FF32 		mov	r2, #-1
 421              		.loc 1 77 0
 422              		.loc 1 76 0
 423 0006 FFF7FEBF 		b	chOQPutTimeout
 424              	.LVL50:
 425              		.cfi_endproc
 426              	.LFE120:
 427              		.size	put, .-put
 428 000a 00BFAFF3 		.section	.text.sduInit,"ax",%progbits
 428      0080
 429              		.align	2
 430              		.p2align 4,,15
 431              		.global	sduInit
 432              		.thumb
 433              		.thumb_func
 434              		.type	sduInit, %function
 435              	sduInit:
 436              	.LFB128:
 437              		.loc 1 179 0
 438              		.cfi_startproc
 439              		@ args = 0, pretend = 0, frame = 0
 440              		@ frame_needed = 0, uses_anonymous_args = 0
 441              		@ link register save eliminated.
 442 0000 7047     		bx	lr
ARM GAS  /tmp/ccngeE93.s 			page 9


 443              		.cfi_endproc
 444              	.LFE128:
 445              		.size	sduInit, .-sduInit
 446 0002 00BFAFF3 		.section	.text.sduObjectInit,"ax",%progbits
 446      0080AFF3 
 446      0080AFF3 
 446      0080
 447              		.align	2
 448              		.p2align 4,,15
 449              		.global	sduObjectInit
 450              		.thumb
 451              		.thumb_func
 452              		.type	sduObjectInit, %function
 453              	sduObjectInit:
 454              	.LFB129:
 455              		.loc 1 191 0
 456              		.cfi_startproc
 457              		@ args = 0, pretend = 0, frame = 0
 458              		@ frame_needed = 0, uses_anonymous_args = 0
 459              	.LVL51:
 460              		.loc 1 191 0
 461 0000 30B5     		push	{r4, r5, lr}
 462              	.LCFI2:
 463              		.cfi_def_cfa_offset 12
 464              		.cfi_offset 4, -12
 465              		.cfi_offset 5, -8
 466              		.cfi_offset 14, -4
 467              		.loc 1 193 0
 468 0002 40F20003 		movw	r3, #:lower16:.LANCHOR0
 469 0006 0546     		mov	r5, r0
 470 0008 C0F20003 		movt	r3, #:upper16:.LANCHOR0
 471              		.loc 1 191 0
 472 000c 0446     		mov	r4, r0
 473              		.loc 1 193 0
 474 000e 45F8043B 		str	r3, [r5], #4
 475              		.loc 1 191 0
 476 0012 83B0     		sub	sp, sp, #12
 477              	.LCFI3:
 478              		.cfi_def_cfa_offset 24
 479              		.loc 1 194 0
 480 0014 6560     		str	r5, [r4, #4]
 481              		.loc 1 196 0
 482 0016 40F20003 		movw	r3, #:lower16:inotify
 483              		.loc 1 195 0
 484 001a 0125     		movs	r5, #1
 485              		.loc 1 196 0
 486 001c 04F15401 		add	r1, r4, #84
 487              		.loc 1 195 0
 488 0020 2572     		strb	r5, [r4, #8]
 489              		.loc 1 196 0
 490 0022 00F10C00 		add	r0, r0, #12
 491              	.LVL52:
 492 0026 4FF48072 		mov	r2, #256
 493 002a C0F20003 		movt	r3, #:upper16:inotify
 494 002e 0094     		str	r4, [sp, #0]
 495 0030 FFF7FEFF 		bl	chIQInit
 496              	.LVL53:
ARM GAS  /tmp/ccngeE93.s 			page 10


 497              		.loc 1 197 0
 498 0034 40F20003 		movw	r3, #:lower16:onotify
 499 0038 0094     		str	r4, [sp, #0]
 500 003a 04F13000 		add	r0, r4, #48
 501 003e 04F5AA71 		add	r1, r4, #340
 502 0042 4FF48072 		mov	r2, #256
 503 0046 C0F20003 		movt	r3, #:upper16:onotify
 504 004a FFF7FEFF 		bl	chOQInit
 505              	.LVL54:
 506              		.loc 1 198 0
 507 004e 03B0     		add	sp, sp, #12
 508 0050 30BD     		pop	{r4, r5, pc}
 509              		.cfi_endproc
 510              	.LFE129:
 511              		.size	sduObjectInit, .-sduObjectInit
 512 0052 00BFAFF3 		.section	.text.sduStart,"ax",%progbits
 512      0080AFF3 
 512      0080AFF3 
 512      0080
 513              		.align	2
 514              		.p2align 4,,15
 515              		.global	sduStart
 516              		.thumb
 517              		.thumb_func
 518              		.type	sduStart, %function
 519              	sduStart:
 520              	.LFB130:
 521              		.loc 1 208 0
 522              		.cfi_startproc
 523              		@ args = 0, pretend = 0, frame = 0
 524              		@ frame_needed = 0, uses_anonymous_args = 0
 525              	.LVL55:
 526 0000 70B5     		push	{r4, r5, r6, lr}
 527              	.LCFI4:
 528              		.cfi_def_cfa_offset 16
 529              		.cfi_offset 4, -16
 530              		.cfi_offset 5, -12
 531              		.cfi_offset 6, -8
 532              		.cfi_offset 14, -4
 533              		.loc 1 208 0
 534 0002 0D46     		mov	r5, r1
 535              		.loc 1 211 0
 536 0004 0446     		mov	r4, r0
 537              		.loc 1 209 0
 538 0006 0E68     		ldr	r6, [r1, #0]
 539              	.LVL56:
 540              		.loc 1 211 0
 541 0008 08B3     		cbz	r0, .L24
 542              	.LVL57:
 543              	.L22:
 544              	.LBB6:
 545              		.loc 1 213 0
 546 000a 2023     		movs	r3, #32
 547              	.LVL58:
 548              	@ 213 "../../ChibiOS/os/hal/src/serial_usb.c" 1
 549 000c 83F31188 		msr     BASEPRI, r3
 550              	@ 0 "" 2
ARM GAS  /tmp/ccngeE93.s 			page 11


 551              	.LVL59:
 552              		.thumb
 553              	.LBE6:
 554 0010 FFF7FEFF 		bl	dbg_check_lock
 555              	.LVL60:
 556              		.loc 1 214 0
 557 0014 237A     		ldrb	r3, [r4, #8]	@ zero_extendqisi2
 558 0016 013B     		subs	r3, r3, #1
 559 0018 012B     		cmp	r3, #1
 560 001a 02D9     		bls	.L23
 561              		.loc 1 214 0 is_stmt 0 discriminator 1
 562 001c 0E48     		ldr	r0, .L25
 563 001e FFF7FEFF 		bl	chDbgPanic
 564              	.LVL61:
 565              	.L23:
 566              		.loc 1 217 0 is_stmt 1
 567 0022 2B79     		ldrb	r3, [r5, #4]	@ zero_extendqisi2
 568 0024 06EB8303 		add	r3, r6, r3, lsl #2
 569 0028 9C61     		str	r4, [r3, #24]
 570              		.loc 1 218 0
 571 002a 6B79     		ldrb	r3, [r5, #5]	@ zero_extendqisi2
 572 002c 0933     		adds	r3, r3, #9
 573 002e 46F82340 		str	r4, [r6, r3, lsl #2]
 574              		.loc 1 219 0
 575 0032 AB79     		ldrb	r3, [r5, #6]	@ zero_extendqisi2
 576 0034 06EB8306 		add	r6, r6, r3, lsl #2
 577              	.LVL62:
 578              		.loc 1 221 0
 579 0038 0223     		movs	r3, #2
 580              		.loc 1 219 0
 581 003a B461     		str	r4, [r6, #24]
 582              		.loc 1 221 0
 583 003c 2372     		strb	r3, [r4, #8]
 584              		.loc 1 220 0
 585 003e C4F85452 		str	r5, [r4, #596]
 586              		.loc 1 222 0
 587 0042 FFF7FEFF 		bl	dbg_check_unlock
 588              	.LVL63:
 589              	.LBB7:
 590 0046 0023     		movs	r3, #0
 591              	.LVL64:
 592              	@ 222 "../../ChibiOS/os/hal/src/serial_usb.c" 1
 593 0048 83F31188 		msr     BASEPRI, r3
 594              	@ 0 "" 2
 595              	.LVL65:
 596              		.thumb
 597 004c 70BD     		pop	{r4, r5, r6, pc}
 598              	.LVL66:
 599              	.L24:
 600              	.LBE7:
 601              		.loc 1 211 0 discriminator 1
 602 004e 0348     		ldr	r0, .L25+4
 603              	.LVL67:
 604 0050 FFF7FEFF 		bl	chDbgPanic
 605              	.LVL68:
 606 0054 D9E7     		b	.L22
 607              	.L26:
ARM GAS  /tmp/ccngeE93.s 			page 12


 608 0056 00BF     		.align	2
 609              	.L25:
 610 0058 10000000 		.word	.LC1
 611 005c 00000000 		.word	.LC0
 612              		.cfi_endproc
 613              	.LFE130:
 614              		.size	sduStart, .-sduStart
 615              		.section	.text.sduStop,"ax",%progbits
 616              		.align	2
 617              		.p2align 4,,15
 618              		.global	sduStop
 619              		.thumb
 620              		.thumb_func
 621              		.type	sduStop, %function
 622              	sduStop:
 623              	.LFB131:
 624              		.loc 1 234 0
 625              		.cfi_startproc
 626              		@ args = 0, pretend = 0, frame = 0
 627              		@ frame_needed = 0, uses_anonymous_args = 0
 628              	.LVL69:
 629              		.loc 1 235 0
 630 0000 D0F85422 		ldr	r2, [r0, #596]
 631              		.loc 1 234 0
 632 0004 70B5     		push	{r4, r5, r6, lr}
 633              	.LCFI5:
 634              		.cfi_def_cfa_offset 16
 635              		.cfi_offset 4, -16
 636              		.cfi_offset 5, -12
 637              		.cfi_offset 6, -8
 638              		.cfi_offset 14, -4
 639              	.LBB8:
 640              		.loc 1 239 0
 641 0006 2023     		movs	r3, #32
 642              	.LVL70:
 643              	.LBE8:
 644              		.loc 1 235 0
 645 0008 1668     		ldr	r6, [r2, #0]
 646              	.LVL71:
 647              		.loc 1 234 0
 648 000a 0446     		mov	r4, r0
 649              	.LBB9:
 650              		.loc 1 239 0
 651              	@ 239 "../../ChibiOS/os/hal/src/serial_usb.c" 1
 652 000c 83F31188 		msr     BASEPRI, r3
 653              	@ 0 "" 2
 654              	.LVL72:
 655              		.thumb
 656              	.LBE9:
 657 0010 FFF7FEFF 		bl	dbg_check_lock
 658              	.LVL73:
 659              		.loc 1 241 0
 660 0014 237A     		ldrb	r3, [r4, #8]	@ zero_extendqisi2
 661 0016 013B     		subs	r3, r3, #1
 662 0018 012B     		cmp	r3, #1
 663 001a 02D9     		bls	.L28
 664              		.loc 1 241 0 is_stmt 0 discriminator 1
ARM GAS  /tmp/ccngeE93.s 			page 13


 665 001c 1448     		ldr	r0, .L29
 666 001e FFF7FEFF 		bl	chDbgPanic
 667              	.LVL74:
 668              	.L28:
 669              		.loc 1 246 0 is_stmt 1
 670 0022 D4F85432 		ldr	r3, [r4, #596]
 671 0026 1A79     		ldrb	r2, [r3, #4]	@ zero_extendqisi2
 672 0028 0532     		adds	r2, r2, #5
 673 002a 06EB8202 		add	r2, r6, r2, lsl #2
 674 002e 0025     		movs	r5, #0
 675 0030 5560     		str	r5, [r2, #4]
 676              		.loc 1 247 0
 677 0032 5A79     		ldrb	r2, [r3, #5]	@ zero_extendqisi2
 678 0034 0932     		adds	r2, r2, #9
 679              		.loc 1 252 0
 680 0036 0221     		movs	r1, #2
 681              		.loc 1 247 0
 682 0038 46F82250 		str	r5, [r6, r2, lsl #2]
 683              		.loc 1 248 0
 684 003c 9B79     		ldrb	r3, [r3, #6]	@ zero_extendqisi2
 685 003e 0533     		adds	r3, r3, #5
 686 0040 06EB8306 		add	r6, r6, r3, lsl #2
 687              	.LVL75:
 688              		.loc 1 249 0
 689 0044 0123     		movs	r3, #1
 690              		.loc 1 248 0
 691 0046 7560     		str	r5, [r6, #4]
 692              		.loc 1 252 0
 693 0048 201D     		adds	r0, r4, #4
 694              		.loc 1 249 0
 695 004a 2372     		strb	r3, [r4, #8]
 696              		.loc 1 252 0
 697 004c FFF7FEFF 		bl	chEvtBroadcastFlagsI
 698              	.LVL76:
 699              		.loc 1 253 0
 700 0050 04F10C00 		add	r0, r4, #12
 701 0054 FFF7FEFF 		bl	chIQResetI
 702              	.LVL77:
 703              		.loc 1 254 0
 704 0058 04F13000 		add	r0, r4, #48
 705 005c FFF7FEFF 		bl	chOQResetI
 706              	.LVL78:
 707              		.loc 1 255 0
 708 0060 FFF7FEFF 		bl	chSchRescheduleS
 709              	.LVL79:
 710              		.loc 1 257 0
 711 0064 FFF7FEFF 		bl	dbg_check_unlock
 712              	.LVL80:
 713              	.LBB10:
 714 0068 2B46     		mov	r3, r5
 715              	.LVL81:
 716              	@ 257 "../../ChibiOS/os/hal/src/serial_usb.c" 1
 717 006a 83F31188 		msr     BASEPRI, r3
 718              	@ 0 "" 2
 719              	.LVL82:
 720              		.thumb
 721 006e 70BD     		pop	{r4, r5, r6, pc}
ARM GAS  /tmp/ccngeE93.s 			page 14


 722              	.L30:
 723              		.align	2
 724              	.L29:
 725 0070 20000000 		.word	.LC2
 726              	.LBE10:
 727              		.cfi_endproc
 728              	.LFE131:
 729              		.size	sduStop, .-sduStop
 730 0074 AFF30080 		.section	.text.sduConfigureHookI,"ax",%progbits
 730      AFF30080 
 730      AFF30080 
 731              		.align	2
 732              		.p2align 4,,15
 733              		.global	sduConfigureHookI
 734              		.thumb
 735              		.thumb_func
 736              		.type	sduConfigureHookI, %function
 737              	sduConfigureHookI:
 738              	.LFB132:
 739              		.loc 1 267 0
 740              		.cfi_startproc
 741              		@ args = 0, pretend = 0, frame = 0
 742              		@ frame_needed = 0, uses_anonymous_args = 0
 743              	.LVL83:
 744 0000 70B5     		push	{r4, r5, r6, lr}
 745              	.LCFI6:
 746              		.cfi_def_cfa_offset 16
 747              		.cfi_offset 4, -16
 748              		.cfi_offset 5, -12
 749              		.cfi_offset 6, -8
 750              		.cfi_offset 14, -4
 751              		.loc 1 268 0
 752 0002 D0F85432 		ldr	r3, [r0, #596]
 753              		.loc 1 270 0
 754 0006 00F10C06 		add	r6, r0, #12
 755              		.loc 1 267 0
 756 000a 0446     		mov	r4, r0
 757              		.loc 1 270 0
 758 000c 3046     		mov	r0, r6
 759              	.LVL84:
 760              		.loc 1 268 0
 761 000e 1D68     		ldr	r5, [r3, #0]
 762              	.LVL85:
 763              		.loc 1 270 0
 764 0010 FFF7FEFF 		bl	chIQResetI
 765              	.LVL86:
 766              		.loc 1 271 0
 767 0014 04F13000 		add	r0, r4, #48
 768 0018 FFF7FEFF 		bl	chOQResetI
 769              	.LVL87:
 770              		.loc 1 272 0
 771 001c 201D     		adds	r0, r4, #4
 772 001e 0121     		movs	r1, #1
 773 0020 FFF7FEFF 		bl	chEvtBroadcastFlagsI
 774              	.LVL88:
 775              		.loc 1 276 0
 776 0024 D4F85432 		ldr	r3, [r4, #596]
ARM GAS  /tmp/ccngeE93.s 			page 15


 777 0028 5979     		ldrb	r1, [r3, #5]	@ zero_extendqisi2
 778 002a 05EB8103 		add	r3, r5, r1, lsl #2
 779              		.loc 1 275 0
 780 002e 2846     		mov	r0, r5
 781              		.loc 1 276 0
 782 0030 DB68     		ldr	r3, [r3, #12]
 783              		.loc 1 275 0
 784 0032 3246     		mov	r2, r6
 785 0034 5B8A     		ldrh	r3, [r3, #18]
 786 0036 FFF7FEFF 		bl	usbPrepareQueuedReceive
 787              	.LVL89:
 788              		.loc 1 277 0
 789 003a D4F85432 		ldr	r3, [r4, #596]
 790 003e 5979     		ldrb	r1, [r3, #5]	@ zero_extendqisi2
 791 0040 2846     		mov	r0, r5
 792              		.loc 1 278 0
 793 0042 BDE87040 		pop	{r4, r5, r6, lr}
 794              		.loc 1 277 0
 795 0046 FFF7FEBF 		b	usbStartReceiveI
 796              	.LVL90:
 797              		.cfi_endproc
 798              	.LFE132:
 799              		.size	sduConfigureHookI, .-sduConfigureHookI
 800 004a 00BFAFF3 		.section	.text.sduRequestsHook,"ax",%progbits
 800      0080
 801              		.align	2
 802              		.p2align 4,,15
 803              		.global	sduRequestsHook
 804              		.thumb
 805              		.thumb_func
 806              		.type	sduRequestsHook, %function
 807              	sduRequestsHook:
 808              	.LFB133:
 809              		.loc 1 295 0
 810              		.cfi_startproc
 811              		@ args = 0, pretend = 0, frame = 0
 812              		@ frame_needed = 0, uses_anonymous_args = 0
 813              		@ link register save eliminated.
 814              	.LVL91:
 815              		.loc 1 297 0
 816 0000 90F84430 		ldrb	r3, [r0, #68]	@ zero_extendqisi2
 817 0004 03F06003 		and	r3, r3, #96
 818 0008 202B     		cmp	r3, #32
 819 000a 01D0     		beq	.L40
 820              	.L39:
 821              		.loc 1 310 0
 822 000c 0020     		movs	r0, #0
 823              	.LVL92:
 824              		.loc 1 314 0
 825 000e 7047     		bx	lr
 826              	.LVL93:
 827              	.L40:
 828              		.loc 1 298 0
 829 0010 90F84530 		ldrb	r3, [r0, #69]	@ zero_extendqisi2
 830 0014 212B     		cmp	r3, #33
 831 0016 03D0     		beq	.L34
 832 0018 222B     		cmp	r3, #34
ARM GAS  /tmp/ccngeE93.s 			page 16


 833 001a 09D0     		beq	.L36
 834 001c 202B     		cmp	r3, #32
 835 001e F5D1     		bne	.L39
 836              	.L34:
 837              		.loc 1 303 0
 838 0020 064B     		ldr	r3, .L41
 839 0022 8363     		str	r3, [r0, #56]
 840 0024 0723     		movs	r3, #7
 841 0026 C363     		str	r3, [r0, #60]
 842 0028 0023     		movs	r3, #0
 843 002a 0364     		str	r3, [r0, #64]
 844              		.loc 1 304 0
 845 002c 0120     		movs	r0, #1
 846              	.LVL94:
 847 002e 7047     		bx	lr
 848              	.LVL95:
 849              	.L36:
 850              		.loc 1 307 0
 851 0030 0023     		movs	r3, #0
 852 0032 8363     		str	r3, [r0, #56]
 853 0034 C363     		str	r3, [r0, #60]
 854 0036 0364     		str	r3, [r0, #64]
 855              		.loc 1 308 0
 856 0038 0120     		movs	r0, #1
 857              	.LVL96:
 858 003a 7047     		bx	lr
 859              	.L42:
 860              		.align	2
 861              	.L41:
 862 003c 00000000 		.word	.LANCHOR1
 863              		.cfi_endproc
 864              	.LFE133:
 865              		.size	sduRequestsHook, .-sduRequestsHook
 866              		.section	.text.sduDataTransmitted,"ax",%progbits
 867              		.align	2
 868              		.p2align 4,,15
 869              		.global	sduDataTransmitted
 870              		.thumb
 871              		.thumb_func
 872              		.type	sduDataTransmitted, %function
 873              	sduDataTransmitted:
 874              	.LFB134:
 875              		.loc 1 324 0
 876              		.cfi_startproc
 877              		@ args = 0, pretend = 0, frame = 0
 878              		@ frame_needed = 0, uses_anonymous_args = 0
 879              	.LVL97:
 880 0000 F8B5     		push	{r3, r4, r5, r6, r7, lr}
 881              	.LCFI7:
 882              		.cfi_def_cfa_offset 24
 883              		.cfi_offset 3, -24
 884              		.cfi_offset 4, -20
 885              		.cfi_offset 5, -16
 886              		.cfi_offset 6, -12
 887              		.cfi_offset 7, -8
 888              		.cfi_offset 14, -4
 889              		.loc 1 326 0
ARM GAS  /tmp/ccngeE93.s 			page 17


 890 0002 00EB8103 		add	r3, r0, r1, lsl #2
 891              		.loc 1 324 0
 892 0006 0646     		mov	r6, r0
 893              		.loc 1 326 0
 894 0008 9C69     		ldr	r4, [r3, #24]
 895              	.LVL98:
 896              		.loc 1 324 0
 897 000a 0D46     		mov	r5, r1
 898              		.loc 1 328 0
 899 000c CCB1     		cbz	r4, .L43
 900              	.LBB11:
 901              		.loc 1 331 0
 902 000e 2023     		movs	r3, #32
 903              	.LVL99:
 904              	@ 331 "../../ChibiOS/os/hal/src/serial_usb.c" 1
 905 0010 83F31188 		msr     BASEPRI, r3
 906              	@ 0 "" 2
 907              	.LVL100:
 908              		.thumb
 909              	.LBE11:
 910 0014 FFF7FEFF 		bl	dbg_check_lock_from_isr
 911              	.LVL101:
 912              		.loc 1 332 0
 913 0018 0821     		movs	r1, #8
 914 001a 201D     		adds	r0, r4, #4
 915 001c FFF7FEFF 		bl	chEvtBroadcastFlagsI
 916              	.LVL102:
 917              		.loc 1 334 0
 918 0020 216C     		ldr	r1, [r4, #64]
 919 0022 E26B     		ldr	r2, [r4, #60]
 920 0024 A36B     		ldr	r3, [r4, #56]
 921 0026 8A1A     		subs	r2, r1, r2
 922              	.LVL103:
 923 0028 D71A     		subs	r7, r2, r3
 924              	.LVL104:
 925 002a 16D1     		bne	.L54
 926              		.loc 1 344 0
 927 002c 06EB8503 		add	r3, r6, r5, lsl #2
 928 0030 DA68     		ldr	r2, [r3, #12]
 929 0032 5369     		ldr	r3, [r2, #20]
 930 0034 5B68     		ldr	r3, [r3, #4]
 931 0036 2BB9     		cbnz	r3, .L55
 932              	.LVL105:
 933              	.L46:
 934              		.loc 1 359 0
 935 0038 FFF7FEFF 		bl	dbg_check_unlock_from_isr
 936              	.LVL106:
 937              	.LBB12:
 938 003c 0023     		movs	r3, #0
 939              	.LVL107:
 940              	@ 359 "../../ChibiOS/os/hal/src/serial_usb.c" 1
 941 003e 83F31188 		msr     BASEPRI, r3
 942              	@ 0 "" 2
 943              	.LVL108:
 944              		.thumb
 945              	.L43:
 946 0042 F8BD     		pop	{r3, r4, r5, r6, r7, pc}
ARM GAS  /tmp/ccngeE93.s 			page 18


 947              	.LVL109:
 948              	.L55:
 949              	.LBE12:
 950              		.loc 1 346 0 discriminator 1
 951 0044 128A     		ldrh	r2, [r2, #16]
 952 0046 013A     		subs	r2, r2, #1
 953              		.loc 1 344 0 discriminator 1
 954 0048 12EA0307 		ands	r7, r2, r3
 955              	.LVL110:
 956 004c F4D1     		bne	.L46
 957              		.loc 1 351 0
 958 004e FFF7FEFF 		bl	dbg_check_unlock_from_isr
 959              	.LVL111:
 960              	.LBB13:
 961 0052 3B46     		mov	r3, r7
 962              	.LVL112:
 963              	@ 351 "../../ChibiOS/os/hal/src/serial_usb.c" 1
 964 0054 83F31188 		msr     BASEPRI, r3
 965              	@ 0 "" 2
 966              	.LVL113:
 967              		.thumb
 968 0058 05E0     		b	.L53
 969              	.LVL114:
 970              	.L54:
 971              	.LBE13:
 972              		.loc 1 337 0
 973 005a FFF7FEFF 		bl	dbg_check_unlock_from_isr
 974              	.LVL115:
 975              	.LBB14:
 976 005e 0023     		movs	r3, #0
 977              	.LVL116:
 978              	@ 337 "../../ChibiOS/os/hal/src/serial_usb.c" 1
 979 0060 83F31188 		msr     BASEPRI, r3
 980              	@ 0 "" 2
 981              	.LVL117:
 982              		.thumb
 983              	.LBE14:
 984              		.loc 1 339 0
 985 0064 3B46     		mov	r3, r7
 986              	.LVL118:
 987              	.L53:
 988              		.loc 1 353 0
 989 0066 3046     		mov	r0, r6
 990 0068 2946     		mov	r1, r5
 991 006a 04F13002 		add	r2, r4, #48
 992 006e FFF7FEFF 		bl	usbPrepareQueuedTransmit
 993              	.LVL119:
 994              	.LBB15:
 995              		.loc 1 355 0
 996 0072 2023     		movs	r3, #32
 997              	.LVL120:
 998              	@ 355 "../../ChibiOS/os/hal/src/serial_usb.c" 1
 999 0074 83F31188 		msr     BASEPRI, r3
 1000              	@ 0 "" 2
 1001              	.LVL121:
 1002              		.thumb
 1003              	.LBE15:
ARM GAS  /tmp/ccngeE93.s 			page 19


 1004 0078 FFF7FEFF 		bl	dbg_check_lock_from_isr
 1005              	.LVL122:
 1006              		.loc 1 356 0
 1007 007c 3046     		mov	r0, r6
 1008 007e 2946     		mov	r1, r5
 1009 0080 FFF7FEFF 		bl	usbStartTransmitI
 1010              	.LVL123:
 1011 0084 D8E7     		b	.L46
 1012              		.cfi_endproc
 1013              	.LFE134:
 1014              		.size	sduDataTransmitted, .-sduDataTransmitted
 1015 0086 00BFAFF3 		.section	.text.sduDataReceived,"ax",%progbits
 1015      0080AFF3 
 1015      0080
 1016              		.align	2
 1017              		.p2align 4,,15
 1018              		.global	sduDataReceived
 1019              		.thumb
 1020              		.thumb_func
 1021              		.type	sduDataReceived, %function
 1022              	sduDataReceived:
 1023              	.LFB135:
 1024              		.loc 1 370 0
 1025              		.cfi_startproc
 1026              		@ args = 0, pretend = 0, frame = 0
 1027              		@ frame_needed = 0, uses_anonymous_args = 0
 1028              	.LVL124:
 1029              		.loc 1 372 0
 1030 0000 01F10903 		add	r3, r1, #9
 1031              		.loc 1 370 0
 1032 0004 2DE9F041 		push	{r4, r5, r6, r7, r8, lr}
 1033              	.LCFI8:
 1034              		.cfi_def_cfa_offset 24
 1035              		.cfi_offset 4, -24
 1036              		.cfi_offset 5, -20
 1037              		.cfi_offset 6, -16
 1038              		.cfi_offset 7, -12
 1039              		.cfi_offset 8, -8
 1040              		.cfi_offset 14, -4
 1041              		.loc 1 372 0
 1042 0008 50F82340 		ldr	r4, [r0, r3, lsl #2]
 1043              	.LVL125:
 1044              		.loc 1 370 0
 1045 000c 0D46     		mov	r5, r1
 1046 000e 0646     		mov	r6, r0
 1047              		.loc 1 374 0
 1048 0010 CCB1     		cbz	r4, .L56
 1049              	.LBB16:
 1050              		.loc 1 377 0
 1051 0012 2023     		movs	r3, #32
 1052              	.LVL126:
 1053              	@ 377 "../../ChibiOS/os/hal/src/serial_usb.c" 1
 1054 0014 83F31188 		msr     BASEPRI, r3
 1055              	@ 0 "" 2
 1056              	.LVL127:
 1057              		.thumb
 1058              	.LBE16:
ARM GAS  /tmp/ccngeE93.s 			page 20


 1059 0018 FFF7FEFF 		bl	dbg_check_lock_from_isr
 1060              	.LVL128:
 1061              		.loc 1 378 0
 1062 001c 201D     		adds	r0, r4, #4
 1063 001e 0421     		movs	r1, #4
 1064 0020 FFF7FEFF 		bl	chEvtBroadcastFlagsI
 1065              	.LVL129:
 1066              		.loc 1 382 0
 1067 0024 06EB8503 		add	r3, r6, r5, lsl #2
 1068              		.loc 1 383 0
 1069 0028 E169     		ldr	r1, [r4, #28]
 1070              		.loc 1 382 0
 1071 002a D868     		ldr	r0, [r3, #12]
 1072              		.loc 1 383 0
 1073 002c A269     		ldr	r2, [r4, #24]
 1074 002e 6369     		ldr	r3, [r4, #20]
 1075              		.loc 1 382 0
 1076 0030 478A     		ldrh	r7, [r0, #18]
 1077              	.LVL130:
 1078              		.loc 1 383 0
 1079 0032 8A1A     		subs	r2, r1, r2
 1080 0034 C3EB0208 		rsb	r8, r3, r2
 1081              	.LVL131:
 1082 0038 4745     		cmp	r7, r8
 1083 003a 06D9     		bls	.L62
 1084              	.LVL132:
 1085              	.L58:
 1086              		.loc 1 395 0
 1087 003c FFF7FEFF 		bl	dbg_check_unlock_from_isr
 1088              	.LVL133:
 1089              	.LBB17:
 1090 0040 0023     		movs	r3, #0
 1091              	.LVL134:
 1092              	@ 395 "../../ChibiOS/os/hal/src/serial_usb.c" 1
 1093 0042 83F31188 		msr     BASEPRI, r3
 1094              	@ 0 "" 2
 1095              	.LVL135:
 1096              		.thumb
 1097              	.L56:
 1098 0046 BDE8F081 		pop	{r4, r5, r6, r7, r8, pc}
 1099              	.LVL136:
 1100              	.L62:
 1101              	.LBE17:
 1102              		.loc 1 386 0
 1103 004a FFF7FEFF 		bl	dbg_check_unlock_from_isr
 1104              	.LVL137:
 1105              	.LBB18:
 1106 004e 0023     		movs	r3, #0
 1107              	.LVL138:
 1108              	@ 386 "../../ChibiOS/os/hal/src/serial_usb.c" 1
 1109 0050 83F31188 		msr     BASEPRI, r3
 1110              	@ 0 "" 2
 1111              	.LVL139:
 1112              		.thumb
 1113              	.LBE18:
 1114              		.loc 1 388 0
 1115 0054 B8FBF7F3 		udiv	r3, r8, r7
ARM GAS  /tmp/ccngeE93.s 			page 21


 1116              	.LVL140:
 1117              		.loc 1 389 0
 1118 0058 07FB03F3 		mul	r3, r7, r3
 1119              	.LVL141:
 1120 005c 3046     		mov	r0, r6
 1121 005e 2946     		mov	r1, r5
 1122 0060 04F10C02 		add	r2, r4, #12
 1123 0064 FFF7FEFF 		bl	usbPrepareQueuedReceive
 1124              	.LVL142:
 1125              	.LBB19:
 1126              		.loc 1 391 0
 1127 0068 2023     		movs	r3, #32
 1128              	.LVL143:
 1129              	@ 391 "../../ChibiOS/os/hal/src/serial_usb.c" 1
 1130 006a 83F31188 		msr     BASEPRI, r3
 1131              	@ 0 "" 2
 1132              	.LVL144:
 1133              		.thumb
 1134              	.LBE19:
 1135 006e FFF7FEFF 		bl	dbg_check_lock_from_isr
 1136              	.LVL145:
 1137              		.loc 1 392 0
 1138 0072 3046     		mov	r0, r6
 1139 0074 2946     		mov	r1, r5
 1140 0076 FFF7FEFF 		bl	usbStartReceiveI
 1141              	.LVL146:
 1142 007a DFE7     		b	.L58
 1143              		.cfi_endproc
 1144              	.LFE135:
 1145              		.size	sduDataReceived, .-sduDataReceived
 1146 007c AFF30080 		.section	.text.sduInterruptTransmitted,"ax",%progbits
 1147              		.align	2
 1148              		.p2align 4,,15
 1149              		.global	sduInterruptTransmitted
 1150              		.thumb
 1151              		.thumb_func
 1152              		.type	sduInterruptTransmitted, %function
 1153              	sduInterruptTransmitted:
 1154              	.LFB136:
 1155              		.loc 1 406 0
 1156              		.cfi_startproc
 1157              		@ args = 0, pretend = 0, frame = 0
 1158              		@ frame_needed = 0, uses_anonymous_args = 0
 1159              		@ link register save eliminated.
 1160              	.LVL147:
 1161 0000 7047     		bx	lr
 1162              		.cfi_endproc
 1163              	.LFE136:
 1164              		.size	sduInterruptTransmitted, .-sduInterruptTransmitted
 1165 0002 00BFAFF3 		.section	.rodata.str1.4,"aMS",%progbits,1
 1165      0080AFF3 
 1165      0080AFF3 
 1165      0080
 1166              		.align	2
 1167              	.LC0:
 1168 0000 22736475 		.ascii	"\"sduStart\"()\000"
 1168      53746172 
ARM GAS  /tmp/ccngeE93.s 			page 22


 1168      74222829 
 1168      00
 1169 000d 000000   		.space	3
 1170              	.LC1:
 1171 0010 73647553 		.ascii	"sduStart(), #1\000"
 1171      74617274 
 1171      28292C20 
 1171      233100
 1172 001f 00       		.space	1
 1173              	.LC2:
 1174 0020 73647553 		.ascii	"sduStop(), #1\000"
 1174      746F7028 
 1174      292C2023 
 1174      3100
 1175 002e 0000     		.section	.rodata.vmt,"a",%progbits
 1176              		.align	2
 1177              		.set	.LANCHOR0,. + 0
 1178              		.type	vmt, %object
 1179              		.size	vmt, 32
 1180              	vmt:
 1181 0000 00000000 		.word	write
 1182 0004 00000000 		.word	read
 1183 0008 00000000 		.word	put
 1184 000c 00000000 		.word	get
 1185 0010 00000000 		.word	putt
 1186 0014 00000000 		.word	gett
 1187 0018 00000000 		.word	writet
 1188 001c 00000000 		.word	readt
 1189              		.section	.data.linecoding,"aw",%progbits
 1190              		.align	2
 1191              		.set	.LANCHOR1,. + 0
 1192              		.type	linecoding, %object
 1193              		.size	linecoding, 7
 1194              	linecoding:
 1195 0000 00       		.byte	0
 1196 0001 96       		.byte	-106
 1197 0002 00       		.byte	0
 1198 0003 00       		.byte	0
 1199 0004 00       		.byte	0
 1200 0005 00       		.byte	0
 1201 0006 08       		.byte	8
 1202 0007 00       		.text
 1203              	.Letext0:
 1204              		.file 2 "/opt/psas/x-tools/stm32f407/arm-psas-eabi/bin/../lib/gcc/arm-psas-eabi/4.7.2/include/stdd
 1205              		.file 3 "/opt/psas/x-tools/stm32f407/arm-psas-eabi/bin/../lib/gcc/arm-psas-eabi/4.7.2/../../../../
 1206              		.file 4 "../../ChibiOS/os/ports/GCC/ARMCMx/chtypes.h"
 1207              		.file 5 "../../ChibiOS/os/kernel/include/chlists.h"
 1208              		.file 6 "../../ChibiOS/os/kernel/include/chthreads.h"
 1209              		.file 7 "../../ChibiOS/os/ports/GCC/ARMCMx/chcore_v7m.h"
 1210              		.file 8 "../../ChibiOS/os/kernel/include/chmtx.h"
 1211              		.file 9 "../../ChibiOS/os/kernel/include/chevents.h"
 1212              		.file 10 "../../ChibiOS/os/kernel/include/chqueues.h"
 1213              		.file 11 "../../ChibiOS/os/hal/include/usb.h"
 1214              		.file 12 "../../ChibiOS/os/hal/platforms/STM32/OTGv1/usb_lld.h"
 1215              		.file 13 "../../ChibiOS/os/hal/platforms/STM32/OTGv1/stm32_otg.h"
 1216              		.file 14 "../../ChibiOS/os/hal/include/serial_usb.h"
 1217              		.file 15 "../../ChibiOS/os/kernel/include/chdebug.h"
ARM GAS  /tmp/ccngeE93.s 			page 23


 1218              		.file 16 "../../ChibiOS/os/kernel/include/chschd.h"
 1219              		.file 17 "../../ChibiOS/os/ports/common/ARMCMx/CMSIS/include/core_cm4.h"