ARM GAS  /tmp/ccxiuHA9.s 			page 1


   1              		.syntax unified
   2              		.cpu cortex-m4
   3              		.eabi_attribute 27, 3
   4              		.eabi_attribute 28, 1
   5              		.fpu fpv4-sp-d16
   6              		.eabi_attribute 20, 1
   7              		.eabi_attribute 21, 1
   8              		.eabi_attribute 23, 3
   9              		.eabi_attribute 24, 1
  10              		.eabi_attribute 25, 1
  11              		.eabi_attribute 26, 1
  12              		.eabi_attribute 30, 2
  13              		.eabi_attribute 34, 1
  14              		.eabi_attribute 18, 4
  15              		.thumb
  16              		.file	"shell.c"
  17              		.text
  18              	.Ltext0:
  19              		.cfi_sections	.debug_frame
  20              		.section	.text._strtok.constprop.2,"ax",%progbits
  21              		.align	2
  22              		.p2align 4,,15
  23              		.thumb
  24              		.thumb_func
  25              		.type	_strtok.constprop.2, %function
  26              	_strtok.constprop.2:
  27              	.LFB131:
  28              		.file 1 "../../ChibiOS/os/various/shell.c"
  29              		.loc 1 41 0
  30              		.cfi_startproc
  31              		@ args = 0, pretend = 0, frame = 0
  32              		@ frame_needed = 0, uses_anonymous_args = 0
  33              	.LVL0:
  34 0000 38B5     		push	{r3, r4, r5, lr}
  35              	.LCFI0:
  36              		.cfi_def_cfa_offset 16
  37              		.cfi_offset 3, -16
  38              		.cfi_offset 4, -12
  39              		.cfi_offset 5, -8
  40              		.cfi_offset 14, -4
  41              		.loc 1 43 0
  42 0002 0446     		mov	r4, r0
  43              		.loc 1 41 0
  44 0004 0D46     		mov	r5, r1
  45              		.loc 1 43 0
  46 0006 98B1     		cbz	r0, .L2
  47              		.loc 1 44 0
  48 0008 2860     		str	r0, [r5, #0]
  49              	.LVL1:
  50              	.L3:
  51              		.loc 1 50 0
  52 000a 0C49     		ldr	r1, .L14
  53              	.LVL2:
  54 000c 2046     		mov	r0, r4
  55              	.LVL3:
  56 000e FFF7FEFF 		bl	strspn
  57              	.LVL4:
ARM GAS  /tmp/ccxiuHA9.s 			page 2


  58 0012 2418     		adds	r4, r4, r0
  59              	.LVL5:
  60              		.loc 1 51 0
  61 0014 2046     		mov	r0, r4
  62 0016 0949     		ldr	r1, .L14
  63 0018 FFF7FEFF 		bl	strpbrk
  64              	.LVL6:
  65 001c 2860     		str	r0, [r5, #0]
  66              		.loc 1 52 0
  67 001e 18B1     		cbz	r0, .L5
  68              		.loc 1 53 0
  69 0020 0023     		movs	r3, #0
  70 0022 00F8013B 		strb	r3, [r0], #1
  71 0026 2860     		str	r0, [r5, #0]
  72              	.L5:
  73              		.loc 1 55 0
  74 0028 2378     		ldrb	r3, [r4, #0]	@ zero_extendqisi2
  75 002a 23B1     		cbz	r3, .L6
  76              		.loc 1 56 0
  77 002c 2046     		mov	r0, r4
  78 002e 38BD     		pop	{r3, r4, r5, pc}
  79              	.LVL7:
  80              	.L2:
  81              		.loc 1 45 0
  82 0030 0C68     		ldr	r4, [r1, #0]
  83              	.LVL8:
  84              		.loc 1 47 0
  85 0032 002C     		cmp	r4, #0
  86 0034 E9D1     		bne	.L3
  87              	.LVL9:
  88              	.L6:
  89              		.loc 1 48 0
  90 0036 0024     		movs	r4, #0
  91              	.LVL10:
  92              		.loc 1 56 0
  93 0038 2046     		mov	r0, r4
  94 003a 38BD     		pop	{r3, r4, r5, pc}
  95              	.L15:
  96              		.align	2
  97              	.L14:
  98 003c 00000000 		.word	.LC0
  99              		.cfi_endproc
 100              	.LFE131:
 101              		.size	_strtok.constprop.2, .-_strtok.constprop.2
 102              		.section	.text.cmd_systime,"ax",%progbits
 103              		.align	2
 104              		.p2align 4,,15
 105              		.thumb
 106              		.thumb_func
 107              		.type	cmd_systime, %function
 108              	cmd_systime:
 109              	.LFB122:
 110              		.loc 1 103 0
 111              		.cfi_startproc
 112              		@ args = 0, pretend = 0, frame = 0
 113              		@ frame_needed = 0, uses_anonymous_args = 0
 114              		@ link register save eliminated.
ARM GAS  /tmp/ccxiuHA9.s 			page 3


 115              	.LVL11:
 116              		.loc 1 106 0
 117 0000 0029     		cmp	r1, #0
 118 0002 03DD     		ble	.L17
 119              	.LVL12:
 120              	.LBB6:
 121              	.LBB7:
 122              		.loc 1 60 0
 123 0004 0449     		ldr	r1, .L18
 124              	.LVL13:
 125 0006 054A     		ldr	r2, .L18+4
 126              	.LVL14:
 127              	.LBE7:
 128              	.LBE6:
 129              		.loc 1 111 0
 130              	.LBB9:
 131              	.LBB8:
 132              		.loc 1 60 0
 133 0008 FFF7FEBF 		b	chprintf
 134              	.LVL15:
 135              	.L17:
 136              	.LBE8:
 137              	.LBE9:
 138              	.LBB10:
 139              	.LBB11:
 140              		.loc 1 110 0
 141 000c 044B     		ldr	r3, .L18+8
 142 000e 0549     		ldr	r1, .L18+12
 143              	.LVL16:
 144 0010 DA68     		ldr	r2, [r3, #12]
 145              	.LVL17:
 146              	.LBE11:
 147              	.LBE10:
 148              		.loc 1 111 0
 149              	.LBB13:
 150              	.LBB12:
 151              		.loc 1 110 0
 152 0012 FFF7FEBF 		b	chprintf
 153              	.LVL18:
 154              	.L19:
 155 0016 00BF     		.align	2
 156              	.L18:
 157 0018 04000000 		.word	.LC1
 158 001c 10000000 		.word	.LC2
 159 0020 00000000 		.word	vtlist
 160 0024 18000000 		.word	.LC3
 161              	.LBE12:
 162              	.LBE13:
 163              		.cfi_endproc
 164              	.LFE122:
 165              		.size	cmd_systime, .-cmd_systime
 166 0028 AFF30080 		.section	.text.cmd_info,"ax",%progbits
 166      AFF30080 
 167              		.align	2
 168              		.p2align 4,,15
 169              		.thumb
 170              		.thumb_func
ARM GAS  /tmp/ccxiuHA9.s 			page 4


 171              		.type	cmd_info, %function
 172              	cmd_info:
 173              	.LFB121:
 174              		.loc 1 71 0
 175              		.cfi_startproc
 176              		@ args = 0, pretend = 0, frame = 0
 177              		@ frame_needed = 0, uses_anonymous_args = 0
 178              	.LVL19:
 179 0000 10B5     		push	{r4, lr}
 180              	.LCFI1:
 181              		.cfi_def_cfa_offset 8
 182              		.cfi_offset 4, -8
 183              		.cfi_offset 14, -4
 184              		.loc 1 74 0
 185 0002 0029     		cmp	r1, #0
 186              		.loc 1 71 0
 187 0004 82B0     		sub	sp, sp, #8
 188              	.LCFI2:
 189              		.cfi_def_cfa_offset 16
 190              		.loc 1 71 0
 191 0006 0446     		mov	r4, r0
 192              		.loc 1 74 0
 193 0008 06DD     		ble	.L21
 194              	.LVL20:
 195              	.LBB18:
 196              	.LBB19:
 197              		.loc 1 60 0
 198 000a 1949     		ldr	r1, .L22
 199              	.LVL21:
 200 000c 194A     		ldr	r2, .L22+4
 201              	.LVL22:
 202              	.LBE19:
 203              	.LBE18:
 204              		.loc 1 101 0
 205 000e 02B0     		add	sp, sp, #8
 206 0010 BDE81040 		pop	{r4, lr}
 207              	.LBB21:
 208              	.LBB20:
 209              		.loc 1 60 0
 210 0014 FFF7FEBF 		b	chprintf
 211              	.LVL23:
 212              	.L21:
 213              	.LBE20:
 214              	.LBE21:
 215              	.LBB22:
 216              	.LBB23:
 217              		.loc 1 79 0
 218 0018 1749     		ldr	r1, .L22+8
 219              	.LVL24:
 220 001a 184A     		ldr	r2, .L22+12
 221              	.LVL25:
 222 001c FFF7FEFF 		bl	chprintf
 223              	.LVL26:
 224              		.loc 1 81 0
 225 0020 2046     		mov	r0, r4
 226 0022 1749     		ldr	r1, .L22+16
 227 0024 174A     		ldr	r2, .L22+20
ARM GAS  /tmp/ccxiuHA9.s 			page 5


 228 0026 FFF7FEFF 		bl	chprintf
 229              	.LVL27:
 230              		.loc 1 83 0
 231 002a 2046     		mov	r0, r4
 232 002c 1649     		ldr	r1, .L22+24
 233 002e 174A     		ldr	r2, .L22+28
 234 0030 FFF7FEFF 		bl	chprintf
 235              	.LVL28:
 236              		.loc 1 85 0
 237 0034 2046     		mov	r0, r4
 238 0036 1649     		ldr	r1, .L22+32
 239 0038 164A     		ldr	r2, .L22+36
 240 003a FFF7FEFF 		bl	chprintf
 241              	.LVL29:
 242              		.loc 1 88 0
 243 003e 2046     		mov	r0, r4
 244 0040 1549     		ldr	r1, .L22+40
 245 0042 164A     		ldr	r2, .L22+44
 246 0044 FFF7FEFF 		bl	chprintf
 247              	.LVL30:
 248              		.loc 1 91 0
 249 0048 2046     		mov	r0, r4
 250 004a 1549     		ldr	r1, .L22+48
 251 004c 154A     		ldr	r2, .L22+52
 252 004e FFF7FEFF 		bl	chprintf
 253              	.LVL31:
 254              		.loc 1 94 0
 255 0052 2046     		mov	r0, r4
 256 0054 1449     		ldr	r1, .L22+56
 257 0056 154A     		ldr	r2, .L22+60
 258 0058 FFF7FEFF 		bl	chprintf
 259              	.LVL32:
 260              		.loc 1 98 0
 261 005c 144B     		ldr	r3, .L22+64
 262 005e 1549     		ldr	r1, .L22+68
 263 0060 0093     		str	r3, [sp, #0]
 264 0062 2046     		mov	r0, r4
 265 0064 144A     		ldr	r2, .L22+72
 266 0066 154B     		ldr	r3, .L22+76
 267 0068 FFF7FEFF 		bl	chprintf
 268              	.LVL33:
 269              	.LBE23:
 270              	.LBE22:
 271              		.loc 1 101 0
 272 006c 02B0     		add	sp, sp, #8
 273 006e 10BD     		pop	{r4, pc}
 274              	.L23:
 275              		.align	2
 276              	.L22:
 277 0070 04000000 		.word	.LC1
 278 0074 20000000 		.word	.LC4
 279 0078 28000000 		.word	.LC5
 280 007c 3C000000 		.word	.LC6
 281 0080 4C000000 		.word	.LC7
 282 0084 60000000 		.word	.LC8
 283 0088 6C000000 		.word	.LC9
 284 008c 80000000 		.word	.LC10
ARM GAS  /tmp/ccxiuHA9.s 			page 6


 285 0090 8C000000 		.word	.LC11
 286 0094 A0000000 		.word	.LC12
 287 0098 AC000000 		.word	.LC13
 288 009c C0000000 		.word	.LC14
 289 00a0 D8000000 		.word	.LC15
 290 00a4 EC000000 		.word	.LC16
 291 00a8 08010000 		.word	.LC17
 292 00ac 1C010000 		.word	.LC18
 293 00b0 58010000 		.word	.LC22
 294 00b4 30010000 		.word	.LC19
 295 00b8 48010000 		.word	.LC20
 296 00bc 54010000 		.word	.LC21
 297              		.cfi_endproc
 298              	.LFE121:
 299              		.size	cmd_info, .-cmd_info
 300              		.section	.text.shellInit,"ax",%progbits
 301              		.align	2
 302              		.p2align 4,,15
 303              		.global	shellInit
 304              		.thumb
 305              		.thumb_func
 306              		.type	shellInit, %function
 307              	shellInit:
 308              	.LFB125:
 309              		.loc 1 208 0
 310              		.cfi_startproc
 311              		@ args = 0, pretend = 0, frame = 0
 312              		@ frame_needed = 0, uses_anonymous_args = 0
 313              		@ link register save eliminated.
 314              		.loc 1 210 0
 315 0000 40F20003 		movw	r3, #:lower16:.LANCHOR0
 316 0004 C0F20003 		movt	r3, #:upper16:.LANCHOR0
 317 0008 1B60     		str	r3, [r3, #0]
 318 000a 7047     		bx	lr
 319              		.cfi_endproc
 320              	.LFE125:
 321              		.size	shellInit, .-shellInit
 322 000c AFF30080 		.section	.text.shellCreate,"ax",%progbits
 323              		.align	2
 324              		.p2align 4,,15
 325              		.global	shellCreate
 326              		.thumb
 327              		.thumb_func
 328              		.type	shellCreate, %function
 329              	shellCreate:
 330              	.LFB126:
 331              		.loc 1 224 0
 332              		.cfi_startproc
 333              		@ args = 0, pretend = 0, frame = 0
 334              		@ frame_needed = 0, uses_anonymous_args = 0
 335              	.LVL34:
 336 0000 00B5     		push	{lr}
 337              	.LCFI3:
 338              		.cfi_def_cfa_offset 4
 339              		.cfi_offset 14, -4
 340 0002 83B0     		sub	sp, sp, #12
 341              	.LCFI4:
ARM GAS  /tmp/ccxiuHA9.s 			page 7


 342              		.cfi_def_cfa_offset 16
 343              		.loc 1 226 0
 344 0004 40F20003 		movw	r3, #:lower16:shell_thread
 345 0008 0090     		str	r0, [sp, #0]
 346 000a C0F20003 		movt	r3, #:upper16:shell_thread
 347 000e 0020     		movs	r0, #0
 348              	.LVL35:
 349 0010 FFF7FEFF 		bl	chThdCreateFromHeap
 350              	.LVL36:
 351              		.loc 1 227 0
 352 0014 03B0     		add	sp, sp, #12
 353 0016 00BD     		pop	{pc}
 354              		.cfi_endproc
 355              	.LFE126:
 356              		.size	shellCreate, .-shellCreate
 357 0018 AFF30080 		.section	.text.shellCreateStatic,"ax",%progbits
 357      AFF30080 
 358              		.align	2
 359              		.p2align 4,,15
 360              		.global	shellCreateStatic
 361              		.thumb
 362              		.thumb_func
 363              		.type	shellCreateStatic, %function
 364              	shellCreateStatic:
 365              	.LFB127:
 366              		.loc 1 240 0
 367              		.cfi_startproc
 368              		@ args = 0, pretend = 0, frame = 0
 369              		@ frame_needed = 0, uses_anonymous_args = 0
 370              	.LVL37:
 371 0000 00B5     		push	{lr}
 372              	.LCFI5:
 373              		.cfi_def_cfa_offset 4
 374              		.cfi_offset 14, -4
 375 0002 83B0     		sub	sp, sp, #12
 376              	.LCFI6:
 377              		.cfi_def_cfa_offset 16
 378              		.loc 1 242 0
 379 0004 0090     		str	r0, [sp, #0]
 380 0006 0846     		mov	r0, r1
 381              	.LVL38:
 382 0008 1146     		mov	r1, r2
 383              	.LVL39:
 384 000a 1A46     		mov	r2, r3
 385              	.LVL40:
 386 000c 40F20003 		movw	r3, #:lower16:shell_thread
 387              	.LVL41:
 388 0010 C0F20003 		movt	r3, #:upper16:shell_thread
 389 0014 FFF7FEFF 		bl	chThdCreateStatic
 390              	.LVL42:
 391              		.loc 1 243 0
 392 0018 03B0     		add	sp, sp, #12
 393 001a 00BD     		pop	{pc}
 394              		.cfi_endproc
 395              	.LFE127:
 396              		.size	shellCreateStatic, .-shellCreateStatic
 397              		.section	.text.shellGetLine,"ax",%progbits
ARM GAS  /tmp/ccxiuHA9.s 			page 8


 398              		.align	2
 399              		.p2align 4,,15
 400              		.global	shellGetLine
 401              		.thumb
 402              		.thumb_func
 403              		.type	shellGetLine, %function
 404              	shellGetLine:
 405              	.LFB128:
 406              		.loc 1 255 0
 407              		.cfi_startproc
 408              		@ args = 0, pretend = 0, frame = 8
 409              		@ frame_needed = 0, uses_anonymous_args = 0
 410              	.LVL43:
 411 0000 F0B5     		push	{r4, r5, r6, r7, lr}
 412              	.LCFI7:
 413              		.cfi_def_cfa_offset 20
 414              		.cfi_offset 4, -20
 415              		.cfi_offset 5, -16
 416              		.cfi_offset 6, -12
 417              		.cfi_offset 7, -8
 418              		.cfi_offset 14, -4
 419              	.LBB24:
 420              		.loc 1 283 0
 421 0002 013A     		subs	r2, r2, #1
 422              	.LVL44:
 423              	.LBE24:
 424              		.loc 1 255 0
 425 0004 83B0     		sub	sp, sp, #12
 426              	.LCFI8:
 427              		.cfi_def_cfa_offset 32
 428              		.loc 1 255 0
 429 0006 0E46     		mov	r6, r1
 430              	.LVL45:
 431 0008 0446     		mov	r4, r0
 432              		.loc 1 256 0
 433 000a 0D46     		mov	r5, r1
 434              	.LBB25:
 435              		.loc 1 283 0
 436 000c 8F18     		adds	r7, r1, r2
 437              	.LVL46:
 438              	.L39:
 439              		.loc 1 261 0
 440 000e 2368     		ldr	r3, [r4, #0]
 441 0010 0122     		movs	r2, #1
 442 0012 0DF10701 		add	r1, sp, #7
 443 0016 5B68     		ldr	r3, [r3, #4]
 444 0018 2046     		mov	r0, r4
 445 001a 9847     		blx	r3
 446              	.LVL47:
 447 001c 38B3     		cbz	r0, .L36
 448              		.loc 1 263 0
 449 001e 9DF80710 		ldrb	r1, [sp, #7]	@ zero_extendqisi2
 450 0022 0429     		cmp	r1, #4
 451 0024 26D0     		beq	.L40
 452              		.loc 1 267 0
 453 0026 0829     		cmp	r1, #8
 454 0028 0ED0     		beq	.L41
ARM GAS  /tmp/ccxiuHA9.s 			page 9


 455              		.loc 1 276 0
 456 002a 0D29     		cmp	r1, #13
 457 002c 28D0     		beq	.L42
 458              		.loc 1 281 0
 459 002e 1F29     		cmp	r1, #31
 460 0030 EDD9     		bls	.L39
 461              		.loc 1 283 0
 462 0032 BD42     		cmp	r5, r7
 463 0034 EBD2     		bcs	.L39
 464              		.loc 1 284 0
 465 0036 2368     		ldr	r3, [r4, #0]
 466 0038 2046     		mov	r0, r4
 467 003a 9B68     		ldr	r3, [r3, #8]
 468 003c 9847     		blx	r3
 469              	.LVL48:
 470              		.loc 1 285 0
 471 003e 9DF80730 		ldrb	r3, [sp, #7]	@ zero_extendqisi2
 472              	.LVL49:
 473 0042 05F8013B 		strb	r3, [r5], #1
 474              	.LVL50:
 475 0046 E2E7     		b	.L39
 476              	.LVL51:
 477              	.L41:
 478              		.loc 1 268 0
 479 0048 B542     		cmp	r5, r6
 480              		.loc 1 269 0
 481 004a 2046     		mov	r0, r4
 482              		.loc 1 268 0
 483 004c DFD0     		beq	.L39
 484              	.LVL52:
 485              		.loc 1 269 0
 486 004e 2368     		ldr	r3, [r4, #0]
 487 0050 9B68     		ldr	r3, [r3, #8]
 488 0052 9847     		blx	r3
 489              	.LVL53:
 490              		.loc 1 270 0
 491 0054 2368     		ldr	r3, [r4, #0]
 492 0056 2021     		movs	r1, #32
 493 0058 9B68     		ldr	r3, [r3, #8]
 494 005a 2046     		mov	r0, r4
 495 005c 9847     		blx	r3
 496              	.LVL54:
 497              		.loc 1 271 0
 498 005e 2368     		ldr	r3, [r4, #0]
 499 0060 9DF80710 		ldrb	r1, [sp, #7]	@ zero_extendqisi2
 500 0064 9B68     		ldr	r3, [r3, #8]
 501 0066 2046     		mov	r0, r4
 502 0068 9847     		blx	r3
 503              	.LVL55:
 504              		.loc 1 272 0
 505 006a 013D     		subs	r5, r5, #1
 506              	.LVL56:
 507 006c CFE7     		b	.L39
 508              	.L36:
 509              		.loc 1 262 0
 510 006e 0120     		movs	r0, #1
 511              	.L29:
ARM GAS  /tmp/ccxiuHA9.s 			page 10


 512              	.LBE25:
 513              		.loc 1 288 0
 514 0070 03B0     		add	sp, sp, #12
 515 0072 F0BD     		pop	{r4, r5, r6, r7, pc}
 516              	.L40:
 517              	.LBB26:
 518              		.loc 1 264 0
 519 0074 2046     		mov	r0, r4
 520 0076 0649     		ldr	r1, .L43
 521 0078 FFF7FEFF 		bl	chprintf
 522              	.LVL57:
 523              		.loc 1 265 0
 524 007c 0120     		movs	r0, #1
 525 007e F7E7     		b	.L29
 526              	.L42:
 527              		.loc 1 277 0
 528 0080 2046     		mov	r0, r4
 529 0082 0449     		ldr	r1, .L43+4
 530 0084 FFF7FEFF 		bl	chprintf
 531              	.LVL58:
 532              		.loc 1 278 0
 533 0088 0020     		movs	r0, #0
 534 008a 2870     		strb	r0, [r5, #0]
 535 008c F0E7     		b	.L29
 536              	.L44:
 537 008e 00BF     		.align	2
 538              	.L43:
 539 0090 64010000 		.word	.LC23
 540 0094 68010000 		.word	.LC24
 541              	.LBE26:
 542              		.cfi_endproc
 543              	.LFE128:
 544              		.size	shellGetLine, .-shellGetLine
 545 0098 AFF30080 		.section	.text.shell_thread,"ax",%progbits
 545      AFF30080 
 546              		.align	2
 547              		.p2align 4,,15
 548              		.thumb
 549              		.thumb_func
 550              		.type	shell_thread, %function
 551              	shell_thread:
 552              	.LFB124:
 553              		.loc 1 143 0
 554              		.cfi_startproc
 555              		@ args = 0, pretend = 0, frame = 88
 556              		@ frame_needed = 0, uses_anonymous_args = 0
 557              	.LVL59:
 558 0000 2DE9F043 		push	{r4, r5, r6, r7, r8, r9, lr}
 559              	.LCFI9:
 560              		.cfi_def_cfa_offset 28
 561              		.cfi_offset 4, -28
 562              		.cfi_offset 5, -24
 563              		.cfi_offset 6, -20
 564              		.cfi_offset 7, -16
 565              		.cfi_offset 8, -12
 566              		.cfi_offset 9, -8
 567              		.cfi_offset 14, -4
ARM GAS  /tmp/ccxiuHA9.s 			page 11


 568              		.loc 1 151 0
 569 0004 5E4B     		ldr	r3, .L98
 570              		.loc 1 146 0
 571 0006 0668     		ldr	r6, [r0, #0]
 572              	.LVL60:
 573              		.loc 1 151 0
 574 0008 9B69     		ldr	r3, [r3, #24]
 575 000a 5E4A     		ldr	r2, .L98+4
 576              		.loc 1 147 0
 577 000c D0F80480 		ldr	r8, [r0, #4]
 578              	.LVL61:
 579              		.loc 1 152 0
 580 0010 5D49     		ldr	r1, .L98+8
 581              		.loc 1 151 0
 582 0012 9A61     		str	r2, [r3, #24]
 583              		.loc 1 143 0
 584 0014 97B0     		sub	sp, sp, #92
 585              	.LCFI10:
 586              		.cfi_def_cfa_offset 120
 587              		.loc 1 152 0
 588 0016 3046     		mov	r0, r6
 589              	.LVL62:
 590 0018 FFF7FEFF 		bl	chprintf
 591              	.LVL63:
 592              	.LBB40:
 593              	.LBB41:
 594              		.loc 1 65 0
 595 001c DFF88891 		ldr	r9, .L98+40
 596              	.L91:
 597              	.LBE41:
 598              	.LBE40:
 599              		.loc 1 154 0
 600 0020 3046     		mov	r0, r6
 601 0022 5A49     		ldr	r1, .L98+12
 602 0024 FFF7FEFF 		bl	chprintf
 603              	.LVL64:
 604              		.loc 1 155 0
 605 0028 3046     		mov	r0, r6
 606 002a 06A9     		add	r1, sp, #24
 607 002c 4022     		movs	r2, #64
 608 002e FFF7FEFF 		bl	shellGetLine
 609              	.LVL65:
 610 0032 0446     		mov	r4, r0
 611 0034 0028     		cmp	r0, #0
 612 0036 2FD1     		bne	.L94
 613              		.loc 1 159 0
 614 0038 6946     		mov	r1, sp
 615 003a 06A8     		add	r0, sp, #24
 616 003c FFF7FEFF 		bl	_strtok.constprop.2
 617              	.LVL66:
 618              		.loc 1 162 0
 619 0040 6946     		mov	r1, sp
 620              		.loc 1 159 0
 621 0042 0746     		mov	r7, r0
 622              	.LVL67:
 623              		.loc 1 162 0
 624 0044 0020     		movs	r0, #0
ARM GAS  /tmp/ccxiuHA9.s 			page 12


 625              	.LVL68:
 626              		.loc 1 143 0
 627 0046 6D46     		mov	r5, sp
 628              		.loc 1 162 0
 629 0048 FFF7FEFF 		bl	_strtok.constprop.2
 630              	.LVL69:
 631 004c 50B1     		cbz	r0, .L95
 632              	.L52:
 633              		.loc 1 163 0
 634 004e 042C     		cmp	r4, #4
 635 0050 1BD0     		beq	.L96
 636              		.loc 1 168 0
 637 0052 45F8040F 		str	r0, [r5, #4]!
 638              		.loc 1 162 0
 639 0056 6946     		mov	r1, sp
 640 0058 0020     		movs	r0, #0
 641              	.LVL70:
 642              		.loc 1 168 0
 643 005a 0134     		adds	r4, r4, #1
 644              	.LVL71:
 645              		.loc 1 162 0
 646 005c FFF7FEFF 		bl	_strtok.constprop.2
 647              	.LVL72:
 648 0060 0028     		cmp	r0, #0
 649 0062 F4D1     		bne	.L52
 650              	.L95:
 651              		.loc 1 170 0
 652 0064 16AA     		add	r2, sp, #88
 653 0066 02EB8403 		add	r3, r2, r4, lsl #2
 654 006a 43F8540C 		str	r0, [r3, #-84]
 655              		.loc 1 171 0
 656 006e 002F     		cmp	r7, #0
 657 0070 D6D0     		beq	.L91
 658              		.loc 1 172 0
 659 0072 3846     		mov	r0, r7
 660              	.LVL73:
 661 0074 4649     		ldr	r1, .L98+16
 662 0076 FFF7FEFF 		bl	strcasecmp
 663              	.LVL74:
 664 007a 08BB     		cbnz	r0, .L53
 665              		.loc 1 173 0
 666 007c 84B1     		cbz	r4, .L48
 667              	.LVL75:
 668              	.LBB43:
 669              	.LBB44:
 670              		.loc 1 60 0
 671 007e 3046     		mov	r0, r6
 672 0080 4449     		ldr	r1, .L98+20
 673 0082 434A     		ldr	r2, .L98+16
 674 0084 FFF7FEFF 		bl	chprintf
 675              	.LVL76:
 676              	.LBE44:
 677              	.LBE43:
 678              		.loc 1 175 0
 679 0088 CAE7     		b	.L91
 680              	.LVL77:
 681              	.L96:
ARM GAS  /tmp/ccxiuHA9.s 			page 13


 682              		.loc 1 164 0
 683 008a 3046     		mov	r0, r6
 684              	.LVL78:
 685 008c 4249     		ldr	r1, .L98+24
 686 008e FFF7FEFF 		bl	chprintf
 687              	.LVL79:
 688              		.loc 1 170 0
 689 0092 0023     		movs	r3, #0
 690 0094 0593     		str	r3, [sp, #20]
 691 0096 C3E7     		b	.L91
 692              	.LVL80:
 693              	.L94:
 694              		.loc 1 156 0
 695 0098 3046     		mov	r0, r6
 696 009a 4049     		ldr	r1, .L98+28
 697 009c FFF7FEFF 		bl	chprintf
 698              	.LVL81:
 699              	.L48:
 700              	.LBB45:
 701              		.loc 1 199 0
 702 00a0 2023     		movs	r3, #32
 703              	.LVL82:
 704              	@ 199 "../../ChibiOS/os/various/shell.c" 1
 705 00a2 83F31188 		msr     BASEPRI, r3
 706              	@ 0 "" 2
 707              	.LVL83:
 708              		.thumb
 709              	.LBE45:
 710 00a6 FFF7FEFF 		bl	dbg_check_lock
 711              	.LVL84:
 712              		.loc 1 200 0
 713 00aa 0021     		movs	r1, #0
 714 00ac 3C48     		ldr	r0, .L98+32
 715 00ae FFF7FEFF 		bl	chEvtBroadcastFlagsI
 716              	.LVL85:
 717              		.loc 1 201 0
 718 00b2 0020     		movs	r0, #0
 719 00b4 FFF7FEFF 		bl	chThdExitS
 720              	.LVL86:
 721              		.loc 1 203 0
 722 00b8 0020     		movs	r0, #0
 723 00ba 17B0     		add	sp, sp, #92
 724 00bc BDE8F083 		pop	{r4, r5, r6, r7, r8, r9, pc}
 725              	.LVL87:
 726              	.L53:
 727              		.loc 1 179 0
 728 00c0 3846     		mov	r0, r7
 729 00c2 3849     		ldr	r1, .L98+36
 730 00c4 FFF7FEFF 		bl	strcasecmp
 731              	.LVL88:
 732 00c8 30B9     		cbnz	r0, .L97
 733              	.LBB46:
 734              	.LBB47:
 735              		.loc 1 60 0
 736 00ca 3046     		mov	r0, r6
 737              	.LBE47:
 738              	.LBE46:
ARM GAS  /tmp/ccxiuHA9.s 			page 14


 739              		.loc 1 180 0
 740 00cc CCB1     		cbz	r4, .L58
 741              	.LVL89:
 742              	.LBB49:
 743              	.LBB48:
 744              		.loc 1 60 0
 745 00ce 3149     		ldr	r1, .L98+20
 746 00d0 344A     		ldr	r2, .L98+36
 747 00d2 FFF7FEFF 		bl	chprintf
 748              	.LVL90:
 749              	.LBE48:
 750              	.LBE49:
 751              		.loc 1 182 0
 752 00d6 A3E7     		b	.L91
 753              	.LVL91:
 754              	.L97:
 755              	.LBB50:
 756              	.LBB51:
 757              		.loc 1 125 0
 758 00d8 D9F80000 		ldr	r0, [r9, #0]
 759 00dc 0028     		cmp	r0, #0
 760 00de 33D0     		beq	.L57
 761 00e0 314D     		ldr	r5, .L98+40
 762 00e2 03E0     		b	.L66
 763              	.LVL92:
 764              	.L65:
 765 00e4 55F8080F 		ldr	r0, [r5, #8]!
 766              	.LVL93:
 767 00e8 0028     		cmp	r0, #0
 768 00ea 2DD0     		beq	.L57
 769              	.LVL94:
 770              	.L66:
 771              		.loc 1 126 0
 772 00ec 3946     		mov	r1, r7
 773 00ee FFF7FEFF 		bl	strcasecmp
 774              	.LVL95:
 775 00f2 0028     		cmp	r0, #0
 776 00f4 F6D1     		bne	.L65
 777              	.LVL96:
 778              	.L93:
 779              	.LBE51:
 780              	.LBE50:
 781              	.LBB52:
 782              	.LBB53:
 783              		.loc 1 127 0
 784 00f6 6B68     		ldr	r3, [r5, #4]
 785 00f8 3046     		mov	r0, r6
 786 00fa 2146     		mov	r1, r4
 787 00fc 01AA     		add	r2, sp, #4
 788 00fe 9847     		blx	r3
 789              	.LVL97:
 790 0100 8EE7     		b	.L91
 791              	.LVL98:
 792              	.L58:
 793              	.LBE53:
 794              	.LBE52:
 795              		.loc 1 184 0
ARM GAS  /tmp/ccxiuHA9.s 			page 15


 796 0102 2A49     		ldr	r1, .L98+44
 797 0104 284C     		ldr	r4, .L98+40
 798              	.LVL99:
 799 0106 FFF7FEFF 		bl	chprintf
 800              	.LVL100:
 801              	.LBB55:
 802              	.LBB42:
 803              		.loc 1 65 0
 804 010a D9F80020 		ldr	r2, [r9, #0]
 805 010e 3AB1     		cbz	r2, .L63
 806              	.LVL101:
 807              	.L62:
 808              		.loc 1 66 0
 809 0110 3046     		mov	r0, r6
 810 0112 2749     		ldr	r1, .L98+48
 811 0114 FFF7FEFF 		bl	chprintf
 812              	.LVL102:
 813              		.loc 1 65 0
 814 0118 54F8082F 		ldr	r2, [r4, #8]!
 815 011c 002A     		cmp	r2, #0
 816 011e F7D1     		bne	.L62
 817              	.L63:
 818              	.LBE42:
 819              	.LBE55:
 820              		.loc 1 186 0
 821 0120 B8F1000F 		cmp	r8, #0
 822 0124 0BD0     		beq	.L61
 823              	.LVL103:
 824              	.LBB56:
 825              	.LBB57:
 826              		.loc 1 65 0
 827 0126 D8F80020 		ldr	r2, [r8, #0]
 828 012a 42B1     		cbz	r2, .L61
 829 012c 4446     		mov	r4, r8
 830              	.LVL104:
 831              	.L64:
 832              		.loc 1 66 0
 833 012e 3046     		mov	r0, r6
 834 0130 1F49     		ldr	r1, .L98+48
 835 0132 FFF7FEFF 		bl	chprintf
 836              	.LVL105:
 837              		.loc 1 65 0
 838 0136 54F8082F 		ldr	r2, [r4, #8]!
 839 013a 002A     		cmp	r2, #0
 840 013c F7D1     		bne	.L64
 841              	.L61:
 842              	.LBE57:
 843              	.LBE56:
 844              		.loc 1 188 0
 845 013e 3046     		mov	r0, r6
 846 0140 1C49     		ldr	r1, .L98+52
 847 0142 FFF7FEFF 		bl	chprintf
 848              	.LVL106:
 849 0146 6BE7     		b	.L91
 850              	.LVL107:
 851              	.L57:
 852              		.loc 1 190 0
ARM GAS  /tmp/ccxiuHA9.s 			page 16


 853 0148 B8F1000F 		cmp	r8, #0
 854 014c 0DD0     		beq	.L69
 855              	.LVL108:
 856              	.LBB58:
 857              	.LBB54:
 858              		.loc 1 125 0
 859 014e D8F80000 		ldr	r0, [r8, #0]
 860 0152 50B1     		cbz	r0, .L69
 861 0154 4546     		mov	r5, r8
 862 0156 02E0     		b	.L68
 863              	.LVL109:
 864              	.L67:
 865 0158 55F8080F 		ldr	r0, [r5, #8]!
 866              	.LVL110:
 867 015c 28B1     		cbz	r0, .L69
 868              	.LVL111:
 869              	.L68:
 870              		.loc 1 126 0
 871 015e 3946     		mov	r1, r7
 872 0160 FFF7FEFF 		bl	strcasecmp
 873              	.LVL112:
 874 0164 0028     		cmp	r0, #0
 875 0166 F7D1     		bne	.L67
 876 0168 C5E7     		b	.L93
 877              	.LVL113:
 878              	.L69:
 879              	.LBE54:
 880              	.LBE58:
 881              		.loc 1 192 0
 882 016a 3046     		mov	r0, r6
 883 016c 1249     		ldr	r1, .L98+56
 884 016e 3A46     		mov	r2, r7
 885 0170 FFF7FEFF 		bl	chprintf
 886              	.LVL114:
 887              		.loc 1 193 0
 888 0174 3046     		mov	r0, r6
 889 0176 1149     		ldr	r1, .L98+60
 890 0178 FFF7FEFF 		bl	chprintf
 891              	.LVL115:
 892 017c 50E7     		b	.L91
 893              	.L99:
 894 017e 00BF     		.align	2
 895              	.L98:
 896 0180 00000000 		.word	rlist
 897 0184 6C010000 		.word	.LC25
 898 0188 74010000 		.word	.LC26
 899 018c 8C010000 		.word	.LC27
 900 0190 B8010000 		.word	.LC30
 901 0194 04000000 		.word	.LC1
 902 0198 A0010000 		.word	.LC29
 903 019c 94010000 		.word	.LC28
 904 01a0 00000000 		.word	.LANCHOR0
 905 01a4 C0010000 		.word	.LC31
 906 01a8 00000000 		.word	.LANCHOR1
 907 01ac C8010000 		.word	.LC32
 908 01b0 E0010000 		.word	.LC33
 909 01b4 68010000 		.word	.LC24
ARM GAS  /tmp/ccxiuHA9.s 			page 17


 910 01b8 E4010000 		.word	.LC34
 911 01bc E8010000 		.word	.LC35
 912              		.cfi_endproc
 913              	.LFE124:
 914              		.size	shell_thread, .-shell_thread
 915              		.global	shell_terminated
 916              		.section	.data.local_commands,"aw",%progbits
 917              		.align	2
 918              		.set	.LANCHOR1,. + 0
 919              		.type	local_commands, %object
 920              		.size	local_commands, 24
 921              	local_commands:
 922 0000 20000000 		.word	.LC4
 923 0004 00000000 		.word	cmd_info
 924 0008 10000000 		.word	.LC2
 925 000c 00000000 		.word	cmd_systime
 926 0010 00000000 		.word	0
 927 0014 00000000 		.word	0
 928              		.section	.rodata.str1.4,"aMS",%progbits,1
 929              		.align	2
 930              	.LC0:
 931 0000 200900   		.ascii	" \011\000"
 932 0003 00       		.space	1
 933              	.LC1:
 934 0004 55736167 		.ascii	"Usage: %s\015\012\000"
 934      653A2025 
 934      730D0A00 
 935              	.LC2:
 936 0010 73797374 		.ascii	"systime\000"
 936      696D6500 
 937              	.LC3:
 938 0018 256C750D 		.ascii	"%lu\015\012\000"
 938      0A00
 939 001e 0000     		.space	2
 940              	.LC4:
 941 0020 696E666F 		.ascii	"info\000"
 941      00
 942 0025 000000   		.space	3
 943              	.LC5:
 944 0028 4B65726E 		.ascii	"Kernel:       %s\015\012\000"
 944      656C3A20 
 944      20202020 
 944      20202573 
 944      0D0A00
 945 003b 00       		.space	1
 946              	.LC6:
 947 003c 322E352E 		.ascii	"2.5.2unstable\000"
 947      32756E73 
 947      7461626C 
 947      6500
 948 004a 0000     		.space	2
 949              	.LC7:
 950 004c 436F6D70 		.ascii	"Compiler:     %s\015\012\000"
 950      696C6572 
 950      3A202020 
 950      20202573 
 950      0D0A00
ARM GAS  /tmp/ccxiuHA9.s 			page 18


 951 005f 00       		.space	1
 952              	.LC8:
 953 0060 47434320 		.ascii	"GCC 4.7.2\000"
 953      342E372E 
 953      3200
 954 006a 0000     		.space	2
 955              	.LC9:
 956 006c 41726368 		.ascii	"Architecture: %s\015\012\000"
 956      69746563 
 956      74757265 
 956      3A202573 
 956      0D0A00
 957 007f 00       		.space	1
 958              	.LC10:
 959 0080 41524D76 		.ascii	"ARMv7-ME\000"
 959      372D4D45 
 959      00
 960 0089 000000   		.space	3
 961              	.LC11:
 962 008c 436F7265 		.ascii	"Core Variant: %s\015\012\000"
 962      20566172 
 962      69616E74 
 962      3A202573 
 962      0D0A00
 963 009f 00       		.space	1
 964              	.LC12:
 965 00a0 436F7274 		.ascii	"Cortex-M4\000"
 965      65782D4D 
 965      3400
 966 00aa 0000     		.space	2
 967              	.LC13:
 968 00ac 506F7274 		.ascii	"Port Info:    %s\015\012\000"
 968      20496E66 
 968      6F3A2020 
 968      20202573 
 968      0D0A00
 969 00bf 00       		.space	1
 970              	.LC14:
 971 00c0 41647661 		.ascii	"Advanced kernel mode\000"
 971      6E636564 
 971      206B6572 
 971      6E656C20 
 971      6D6F6465 
 972 00d5 000000   		.space	3
 973              	.LC15:
 974 00d8 506C6174 		.ascii	"Platform:     %s\015\012\000"
 974      666F726D 
 974      3A202020 
 974      20202573 
 974      0D0A00
 975 00eb 00       		.space	1
 976              	.LC16:
 977 00ec 53544D33 		.ascii	"STM32F4xx High Performance\000"
 977      32463478 
 977      78204869 
 977      67682050 
 977      6572666F 
ARM GAS  /tmp/ccxiuHA9.s 			page 19


 978 0107 00       		.space	1
 979              	.LC17:
 980 0108 426F6172 		.ascii	"Board:        %s\015\012\000"
 980      643A2020 
 980      20202020 
 980      20202573 
 980      0D0A00
 981 011b 00       		.space	1
 982              	.LC18:
 983 011c 4F6C696D 		.ascii	"Olimex STM32-E407\000"
 983      65782053 
 983      544D3332 
 983      2D453430 
 983      3700
 984 012e 0000     		.space	2
 985              	.LC19:
 986 0130 4275696C 		.ascii	"Build time:   %s%s%s\015\012\000"
 986      64207469 
 986      6D653A20 
 986      20202573 
 986      25732573 
 987 0147 00       		.space	1
 988              	.LC20:
 989 0148 4A756E20 		.ascii	"Jun 27 2013\000"
 989      32372032 
 989      30313300 
 990              	.LC21:
 991 0154 202D2000 		.ascii	" - \000"
 992              	.LC22:
 993 0158 32323A30 		.ascii	"22:06:20\000"
 993      363A3230 
 993      00
 994 0161 000000   		.space	3
 995              	.LC23:
 996 0164 5E4400   		.ascii	"^D\000"
 997 0167 00       		.space	1
 998              	.LC24:
 999 0168 0D0A00   		.ascii	"\015\012\000"
 1000 016b 00       		.space	1
 1001              	.LC25:
 1002 016c 7368656C 		.ascii	"shell\000"
 1002      6C00
 1003 0172 0000     		.space	2
 1004              	.LC26:
 1005 0174 0D0A4368 		.ascii	"\015\012ChibiOS/RT Shell\015\012\000"
 1005      6962694F 
 1005      532F5254 
 1005      20536865 
 1005      6C6C0D0A 
 1006 0189 000000   		.space	3
 1007              	.LC27:
 1008 018c 63683E20 		.ascii	"ch> \000"
 1008      00
 1009 0191 000000   		.space	3
 1010              	.LC28:
 1011 0194 0D0A6C6F 		.ascii	"\015\012logout\000"
 1011      676F7574 
ARM GAS  /tmp/ccxiuHA9.s 			page 20


 1011      00
 1012 019d 000000   		.space	3
 1013              	.LC29:
 1014 01a0 746F6F20 		.ascii	"too many arguments\015\012\000"
 1014      6D616E79 
 1014      20617267 
 1014      756D656E 
 1014      74730D0A 
 1015 01b5 000000   		.space	3
 1016              	.LC30:
 1017 01b8 65786974 		.ascii	"exit\000"
 1017      00
 1018 01bd 000000   		.space	3
 1019              	.LC31:
 1020 01c0 68656C70 		.ascii	"help\000"
 1020      00
 1021 01c5 000000   		.space	3
 1022              	.LC32:
 1023 01c8 436F6D6D 		.ascii	"Commands: help exit \000"
 1023      616E6473 
 1023      3A206865 
 1023      6C702065 
 1023      78697420 
 1024 01dd 000000   		.space	3
 1025              	.LC33:
 1026 01e0 25732000 		.ascii	"%s \000"
 1027              	.LC34:
 1028 01e4 257300   		.ascii	"%s\000"
 1029 01e7 00       		.space	1
 1030              	.LC35:
 1031 01e8 203F0D0A 		.ascii	" ?\015\012\000"
 1031      00
 1032 01ed 000000   		.section	.bss.shell_terminated,"aw",%nobits
 1033              		.align	2
 1034              		.set	.LANCHOR0,. + 0
 1035              		.type	shell_terminated, %object
 1036              		.size	shell_terminated, 4
 1037              	shell_terminated:
 1038 0000 00000000 		.space	4
 1039              		.text
 1040              	.Letext0:
 1041              		.file 2 "/opt/psas/x-tools/stm32f407/arm-psas-eabi/bin/../lib/gcc/arm-psas-eabi/4.7.2/include/stdd
 1042              		.file 3 "/opt/psas/x-tools/stm32f407/arm-psas-eabi/bin/../lib/gcc/arm-psas-eabi/4.7.2/../../../../
 1043              		.file 4 "../../ChibiOS/os/ports/GCC/ARMCMx/chtypes.h"
 1044              		.file 5 "../../ChibiOS/os/kernel/include/chlists.h"
 1045              		.file 6 "../../ChibiOS/os/kernel/include/chthreads.h"
 1046              		.file 7 "../../ChibiOS/os/ports/GCC/ARMCMx/chcore_v7m.h"
 1047              		.file 8 "../../ChibiOS/os/kernel/include/chvt.h"
 1048              		.file 9 "../../ChibiOS/os/kernel/include/chschd.h"
 1049              		.file 10 "../../ChibiOS/os/kernel/include/chmtx.h"
 1050              		.file 11 "../../ChibiOS/os/kernel/include/chevents.h"
 1051              		.file 12 "../../ChibiOS/os/kernel/include/chmemcore.h"
 1052              		.file 13 "../../ChibiOS/os/kernel/include/chheap.h"
 1053              		.file 14 "../../ChibiOS/os/kernel/include/chstreams.h"
 1054              		.file 15 "../../ChibiOS/os/various/shell.h"
 1055              		.file 16 "../../ChibiOS/os/ports/common/ARMCMx/CMSIS/include/core_cm4.h"
 1056              		.file 17 "/opt/psas/x-tools/stm32f407/arm-psas-eabi/bin/../lib/gcc/arm-psas-eabi/4.7.2/../../../..
ARM GAS  /tmp/ccxiuHA9.s 			page 21


 1057              		.file 18 "../../ChibiOS/os/kernel/include/chdynamic.h"
 1058              		.file 19 "../../ChibiOS/os/various/chprintf.h"
 1059              		.file 20 "../../ChibiOS/os/kernel/include/chdebug.h"