ARM GAS  /tmp/ccmg30ax.s 			page 1


   1              		.syntax unified
   2              		.cpu cortex-m4
   3              		.eabi_attribute 27, 3
   4              		.eabi_attribute 28, 1
   5              		.fpu fpv4-sp-d16
   6              		.eabi_attribute 20, 1
   7              		.eabi_attribute 21, 1
   8              		.eabi_attribute 23, 3
   9              		.eabi_attribute 24, 1
  10              		.eabi_attribute 25, 1
  11              		.eabi_attribute 26, 1
  12              		.eabi_attribute 30, 2
  13              		.eabi_attribute 34, 1
  14              		.eabi_attribute 18, 4
  15              		.thumb
  16              		.file	"tm.c"
  17              		.text
  18              	.Ltext0:
  19              		.cfi_sections	.debug_frame
  20              		.section	.text.tm_start,"ax",%progbits
  21              		.align	2
  22              		.p2align 4,,15
  23              		.thumb
  24              		.thumb_func
  25              		.type	tm_start, %function
  26              	tm_start:
  27              	.LFB118:
  28              		.file 1 "../../ChibiOS/os/hal/src/tm.c"
  29              		.loc 1 62 0
  30              		.cfi_startproc
  31              		@ args = 0, pretend = 0, frame = 0
  32              		@ frame_needed = 0, uses_anonymous_args = 0
  33              		@ link register save eliminated.
  34              	.LVL0:
  35              		.loc 1 64 0
  36 0000 4FF48053 		mov	r3, #4096
  37 0004 CEF20003 		movt	r3, 57344
  38 0008 5B68     		ldr	r3, [r3, #4]
  39 000a 8360     		str	r3, [r0, #8]
  40 000c 7047     		bx	lr
  41              		.cfi_endproc
  42              	.LFE118:
  43              		.size	tm_start, .-tm_start
  44 000e 00BF     		.section	.text.tm_stop,"ax",%progbits
  45              		.align	2
  46              		.p2align 4,,15
  47              		.thumb
  48              		.thumb_func
  49              		.type	tm_stop, %function
  50              	tm_stop:
  51              	.LFB119:
  52              		.loc 1 74 0
  53              		.cfi_startproc
  54              		@ args = 0, pretend = 0, frame = 0
  55              		@ frame_needed = 0, uses_anonymous_args = 0
  56              		@ link register save eliminated.
  57              	.LVL1:
ARM GAS  /tmp/ccmg30ax.s 			page 2


  58              		.loc 1 76 0
  59 0000 4FF48053 		mov	r3, #4096
  60 0004 CEF20003 		movt	r3, 57344
  61              		.loc 1 77 0
  62 0008 094A     		ldr	r2, .L6
  63              		.loc 1 76 0
  64 000a 5B68     		ldr	r3, [r3, #4]
  65              	.LVL2:
  66              		.loc 1 77 0
  67 000c 8168     		ldr	r1, [r0, #8]
  68              		.loc 1 74 0
  69 000e 10B4     		push	{r4}
  70              	.LCFI0:
  71              		.cfi_def_cfa_offset 4
  72              		.cfi_offset 4, -4
  73              		.loc 1 77 0
  74 0010 1468     		ldr	r4, [r2, #0]
  75              		.loc 1 78 0
  76 0012 C268     		ldr	r2, [r0, #12]
  77              		.loc 1 77 0
  78 0014 5B1A     		subs	r3, r3, r1
  79              	.LVL3:
  80 0016 1B1B     		subs	r3, r3, r4
  81              		.loc 1 78 0
  82 0018 9342     		cmp	r3, r2
  83              		.loc 1 77 0
  84 001a 8360     		str	r3, [r0, #8]
  85              		.loc 1 79 0
  86 001c 88BF     		it	hi
  87 001e C360     		strhi	r3, [r0, #12]
  88              		.loc 1 78 0
  89 0020 03D8     		bhi	.L2
  90              		.loc 1 80 0
  91 0022 0269     		ldr	r2, [r0, #16]
  92 0024 9342     		cmp	r3, r2
  93              		.loc 1 81 0
  94 0026 38BF     		it	cc
  95 0028 0361     		strcc	r3, [r0, #16]
  96              	.L2:
  97              		.loc 1 82 0
  98 002a 10BC     		pop	{r4}
  99 002c 7047     		bx	lr
 100              	.L7:
 101 002e 00BF     		.align	2
 102              	.L6:
 103 0030 00000000 		.word	.LANCHOR0
 104              		.cfi_endproc
 105              	.LFE119:
 106              		.size	tm_stop, .-tm_stop
 107 0034 AFF30080 		.section	.text.tmInit,"ax",%progbits
 107      AFF30080 
 107      AFF30080 
 108              		.align	2
 109              		.p2align 4,,15
 110              		.global	tmInit
 111              		.thumb
 112              		.thumb_func
ARM GAS  /tmp/ccmg30ax.s 			page 3


 113              		.type	tmInit, %function
 114              	tmInit:
 115              	.LFB120:
 116              		.loc 1 97 0
 117              		.cfi_startproc
 118              		@ args = 0, pretend = 0, frame = 24
 119              		@ frame_needed = 0, uses_anonymous_args = 0
 120 0000 10B5     		push	{r4, lr}
 121              	.LCFI1:
 122              		.cfi_def_cfa_offset 8
 123              		.cfi_offset 4, -8
 124              		.cfi_offset 14, -4
 125              		.loc 1 103 0
 126 0002 40F20004 		movw	r4, #:lower16:.LANCHOR0
 127              		.loc 1 97 0
 128 0006 86B0     		sub	sp, sp, #24
 129              	.LCFI2:
 130              		.cfi_def_cfa_offset 32
 131              		.loc 1 103 0
 132 0008 C0F20004 		movt	r4, #:upper16:.LANCHOR0
 133 000c 0022     		movs	r2, #0
 134 000e 2260     		str	r2, [r4, #0]
 135              	.LVL4:
 136              	.LBB8:
 137              	.LBB9:
 138              		.loc 1 122 0
 139 0010 0492     		str	r2, [sp, #16]
 140              	.LBE9:
 141              	.LBE8:
 142              	.LBB14:
 143              	.LBB15:
 144              		.loc 1 64 0
 145 0012 4FF48053 		mov	r3, #4096
 146              	.LBE15:
 147              	.LBE14:
 148              	.LBB19:
 149              	.LBB10:
 150              		.loc 1 123 0
 151 0016 4FF0FF32 		mov	r2, #-1
 152 001a 0592     		str	r2, [sp, #20]
 153              	.LVL5:
 154              	.LBE10:
 155              	.LBE19:
 156              	.LBB20:
 157              	.LBB16:
 158              		.loc 1 64 0
 159 001c CEF20003 		movt	r3, 57344
 160              	.LBE16:
 161              	.LBE20:
 162              	.LBB21:
 163              	.LBB11:
 164              		.loc 1 119 0
 165 0020 40F20002 		movw	r2, #:lower16:tm_start
 166 0024 C0F20002 		movt	r2, #:upper16:tm_start
 167              	.LBE11:
 168              	.LBE21:
 169              	.LBB22:
ARM GAS  /tmp/ccmg30ax.s 			page 4


 170              	.LBB17:
 171              		.loc 1 64 0
 172 0028 5B68     		ldr	r3, [r3, #4]
 173              	.LBE17:
 174              	.LBE22:
 175              	.LBB23:
 176              	.LBB12:
 177              		.loc 1 119 0
 178 002a 0192     		str	r2, [sp, #4]
 179              		.loc 1 120 0
 180 002c 40F20002 		movw	r2, #:lower16:tm_stop
 181 0030 C0F20002 		movt	r2, #:upper16:tm_stop
 182              	.LBE12:
 183              	.LBE23:
 184              		.loc 1 106 0
 185 0034 01A8     		add	r0, sp, #4
 186              	.LVL6:
 187              	.LBB24:
 188              	.LBB18:
 189              		.loc 1 64 0
 190 0036 0393     		str	r3, [sp, #12]
 191              	.LBE18:
 192              	.LBE24:
 193              	.LBB25:
 194              	.LBB13:
 195              		.loc 1 120 0
 196 0038 0292     		str	r2, [sp, #8]
 197              	.LBE13:
 198              	.LBE25:
 199              		.loc 1 106 0
 200 003a FFF7FEFF 		bl	tm_stop
 201              	.LVL7:
 202              		.loc 1 107 0
 203 003e 039B     		ldr	r3, [sp, #12]
 204 0040 2360     		str	r3, [r4, #0]
 205              		.loc 1 108 0
 206 0042 06B0     		add	sp, sp, #24
 207 0044 10BD     		pop	{r4, pc}
 208              		.cfi_endproc
 209              	.LFE120:
 210              		.size	tmInit, .-tmInit
 211 0046 00BFAFF3 		.section	.text.tmObjectInit,"ax",%progbits
 211      0080AFF3 
 211      0080
 212              		.align	2
 213              		.p2align 4,,15
 214              		.global	tmObjectInit
 215              		.thumb
 216              		.thumb_func
 217              		.type	tmObjectInit, %function
 218              	tmObjectInit:
 219              	.LFB121:
 220              		.loc 1 117 0
 221              		.cfi_startproc
 222              		@ args = 0, pretend = 0, frame = 0
 223              		@ frame_needed = 0, uses_anonymous_args = 0
 224              		@ link register save eliminated.
ARM GAS  /tmp/ccmg30ax.s 			page 5


 225              	.LVL8:
 226              		.loc 1 119 0
 227 0000 40F20002 		movw	r2, #:lower16:tm_start
 228 0004 C0F20002 		movt	r2, #:upper16:tm_start
 229              		.loc 1 121 0
 230 0008 0023     		movs	r3, #0
 231              		.loc 1 119 0
 232 000a 0260     		str	r2, [r0, #0]
 233              		.loc 1 120 0
 234 000c 40F20002 		movw	r2, #:lower16:tm_stop
 235 0010 C0F20002 		movt	r2, #:upper16:tm_stop
 236              		.loc 1 121 0
 237 0014 8360     		str	r3, [r0, #8]
 238              		.loc 1 122 0
 239 0016 C360     		str	r3, [r0, #12]
 240              		.loc 1 123 0
 241 0018 4FF0FF33 		mov	r3, #-1
 242              		.loc 1 120 0
 243 001c 4260     		str	r2, [r0, #4]
 244              		.loc 1 123 0
 245 001e 0361     		str	r3, [r0, #16]
 246 0020 7047     		bx	lr
 247              		.cfi_endproc
 248              	.LFE121:
 249              		.size	tmObjectInit, .-tmObjectInit
 250 0022 00BFAFF3 		.section	.bss.measurement_offset,"aw",%nobits
 250      0080AFF3 
 250      0080AFF3 
 250      0080
 251              		.align	2
 252              		.set	.LANCHOR0,. + 0
 253              		.type	measurement_offset, %object
 254              		.size	measurement_offset, 4
 255              	measurement_offset:
 256 0000 00000000 		.space	4
 257              		.text
 258              	.Letext0:
 259              		.file 2 "/opt/psas/x-tools/stm32f407/arm-psas-eabi/bin/../lib/gcc/arm-psas-eabi/4.7.2/../../../../
 260              		.file 3 "../../ChibiOS/os/ports/common/ARMCMx/nvic.h"
 261              		.file 4 "../../ChibiOS/os/hal/platforms/STM32F4xx/hal_lld.h"
 262              		.file 5 "../../ChibiOS/os/hal/include/tm.h"
 263              		.file 6 "../../ChibiOS/os/ports/common/ARMCMx/CMSIS/include/core_cm4.h"
 264              		.section	.debug_info,"",%progbits
 265              	.Ldebug_info0:
 266 0000 EF020000 		.4byte	0x2ef
 267 0004 0200     		.2byte	0x2
 268 0006 00000000 		.4byte	.Ldebug_abbrev0
 269 000a 04       		.byte	0x4
 270 000b 01       		.uleb128 0x1
 271 000c 56010000 		.4byte	.LASF32
 272 0010 01       		.byte	0x1
 273 0011 30000000 		.4byte	.LASF33
 274 0015 05000000 		.4byte	.LASF34
 275 0019 58000000 		.4byte	.Ldebug_ranges0+0x58
 276 001d 00000000 		.4byte	0
 277 0021 00000000 		.4byte	0
 278 0025 00000000 		.4byte	.Ldebug_line0
ARM GAS  /tmp/ccmg30ax.s 			page 6


 279 0029 02       		.uleb128 0x2
 280 002a 04       		.byte	0x4
 281 002b 05       		.byte	0x5
 282 002c 696E7400 		.ascii	"int\000"
 283 0030 03       		.uleb128 0x3
 284 0031 04       		.byte	0x4
 285 0032 07       		.byte	0x7
 286 0033 FD000000 		.4byte	.LASF0
 287 0037 03       		.uleb128 0x3
 288 0038 01       		.byte	0x1
 289 0039 06       		.byte	0x6
 290 003a 9E010000 		.4byte	.LASF1
 291 003e 03       		.uleb128 0x3
 292 003f 01       		.byte	0x1
 293 0040 08       		.byte	0x8
 294 0041 86000000 		.4byte	.LASF2
 295 0045 03       		.uleb128 0x3
 296 0046 02       		.byte	0x2
 297 0047 05       		.byte	0x5
 298 0048 75010000 		.4byte	.LASF3
 299 004c 03       		.uleb128 0x3
 300 004d 02       		.byte	0x2
 301 004e 07       		.byte	0x7
 302 004f C1000000 		.4byte	.LASF4
 303 0053 04       		.uleb128 0x4
 304 0054 2F010000 		.4byte	.LASF6
 305 0058 02       		.byte	0x2
 306 0059 4F       		.byte	0x4f
 307 005a 5E000000 		.4byte	0x5e
 308 005e 03       		.uleb128 0x3
 309 005f 04       		.byte	0x4
 310 0060 05       		.byte	0x5
 311 0061 95010000 		.4byte	.LASF5
 312 0065 04       		.uleb128 0x4
 313 0066 8C010000 		.4byte	.LASF7
 314 006a 02       		.byte	0x2
 315 006b 50       		.byte	0x50
 316 006c 70000000 		.4byte	0x70
 317 0070 03       		.uleb128 0x3
 318 0071 04       		.byte	0x4
 319 0072 07       		.byte	0x7
 320 0073 A2000000 		.4byte	.LASF8
 321 0077 03       		.uleb128 0x3
 322 0078 08       		.byte	0x8
 323 0079 05       		.byte	0x5
 324 007a 40010000 		.4byte	.LASF9
 325 007e 03       		.uleb128 0x3
 326 007f 08       		.byte	0x8
 327 0080 07       		.byte	0x7
 328 0081 6F000000 		.4byte	.LASF10
 329 0085 03       		.uleb128 0x3
 330 0086 01       		.byte	0x1
 331 0087 02       		.byte	0x2
 332 0088 BA010000 		.4byte	.LASF11
 333 008c 04       		.uleb128 0x4
 334 008d 4E010000 		.4byte	.LASF12
 335 0091 03       		.byte	0x3
ARM GAS  /tmp/ccmg30ax.s 			page 7


 336 0092 33       		.byte	0x33
 337 0093 97000000 		.4byte	0x97
 338 0097 05       		.uleb128 0x5
 339 0098 65000000 		.4byte	0x65
 340 009c 03       		.uleb128 0x3
 341 009d 04       		.byte	0x4
 342 009e 07       		.byte	0x7
 343 009f 37010000 		.4byte	.LASF13
 344 00a3 06       		.uleb128 0x6
 345 00a4 20       		.byte	0x20
 346 00a5 03       		.byte	0x3
 347 00a6 FF       		.byte	0xff
 348 00a7 24010000 		.4byte	0x124
 349 00ab 07       		.uleb128 0x7
 350 00ac 23010000 		.4byte	.LASF14
 351 00b0 03       		.byte	0x3
 352 00b1 0001     		.2byte	0x100
 353 00b3 8C000000 		.4byte	0x8c
 354 00b7 02       		.byte	0x2
 355 00b8 23       		.byte	0x23
 356 00b9 00       		.uleb128 0
 357 00ba 07       		.uleb128 0x7
 358 00bb 94000000 		.4byte	.LASF15
 359 00bf 03       		.byte	0x3
 360 00c0 0101     		.2byte	0x101
 361 00c2 8C000000 		.4byte	0x8c
 362 00c6 02       		.byte	0x2
 363 00c7 23       		.byte	0x23
 364 00c8 04       		.uleb128 0x4
 365 00c9 07       		.uleb128 0x7
 366 00ca D4000000 		.4byte	.LASF16
 367 00ce 03       		.byte	0x3
 368 00cf 0201     		.2byte	0x102
 369 00d1 8C000000 		.4byte	0x8c
 370 00d5 02       		.byte	0x2
 371 00d6 23       		.byte	0x23
 372 00d7 08       		.uleb128 0x8
 373 00d8 07       		.uleb128 0x7
 374 00d9 28010000 		.4byte	.LASF17
 375 00dd 03       		.byte	0x3
 376 00de 0301     		.2byte	0x103
 377 00e0 8C000000 		.4byte	0x8c
 378 00e4 02       		.byte	0x2
 379 00e5 23       		.byte	0x23
 380 00e6 0C       		.uleb128 0xc
 381 00e7 07       		.uleb128 0x7
 382 00e8 61000000 		.4byte	.LASF18
 383 00ec 03       		.byte	0x3
 384 00ed 0401     		.2byte	0x104
 385 00ef 8C000000 		.4byte	0x8c
 386 00f3 02       		.byte	0x2
 387 00f4 23       		.byte	0x23
 388 00f5 10       		.uleb128 0x10
 389 00f6 07       		.uleb128 0x7
 390 00f7 F6000000 		.4byte	.LASF19
 391 00fb 03       		.byte	0x3
 392 00fc 0501     		.2byte	0x105
ARM GAS  /tmp/ccmg30ax.s 			page 8


 393 00fe 8C000000 		.4byte	0x8c
 394 0102 02       		.byte	0x2
 395 0103 23       		.byte	0x23
 396 0104 14       		.uleb128 0x14
 397 0105 07       		.uleb128 0x7
 398 0106 E8000000 		.4byte	.LASF20
 399 010a 03       		.byte	0x3
 400 010b 0601     		.2byte	0x106
 401 010d 8C000000 		.4byte	0x8c
 402 0111 02       		.byte	0x2
 403 0112 23       		.byte	0x23
 404 0113 18       		.uleb128 0x18
 405 0114 07       		.uleb128 0x7
 406 0115 4E000000 		.4byte	.LASF21
 407 0119 03       		.byte	0x3
 408 011a 0701     		.2byte	0x107
 409 011c 8C000000 		.4byte	0x8c
 410 0120 02       		.byte	0x2
 411 0121 23       		.byte	0x23
 412 0122 1C       		.uleb128 0x1c
 413 0123 00       		.byte	0
 414 0124 08       		.uleb128 0x8
 415 0125 7F010000 		.4byte	.LASF22
 416 0129 03       		.byte	0x3
 417 012a 0801     		.2byte	0x108
 418 012c A3000000 		.4byte	0xa3
 419 0130 03       		.uleb128 0x3
 420 0131 01       		.byte	0x1
 421 0132 08       		.byte	0x8
 422 0133 15010000 		.4byte	.LASF23
 423 0137 05       		.uleb128 0x5
 424 0138 53000000 		.4byte	0x53
 425 013c 08       		.uleb128 0x8
 426 013d 0A010000 		.4byte	.LASF24
 427 0141 04       		.byte	0x4
 428 0142 E305     		.2byte	0x5e3
 429 0144 65000000 		.4byte	0x65
 430 0148 04       		.uleb128 0x4
 431 0149 AA010000 		.4byte	.LASF25
 432 014d 05       		.byte	0x5
 433 014e 3E       		.byte	0x3e
 434 014f 53010000 		.4byte	0x153
 435 0153 09       		.uleb128 0x9
 436 0154 AA010000 		.4byte	.LASF25
 437 0158 14       		.byte	0x14
 438 0159 05       		.byte	0x5
 439 015a 43       		.byte	0x43
 440 015b A6010000 		.4byte	0x1a6
 441 015f 0A       		.uleb128 0xa
 442 0160 5B000000 		.4byte	.LASF26
 443 0164 05       		.byte	0x5
 444 0165 44       		.byte	0x44
 445 0166 B8010000 		.4byte	0x1b8
 446 016a 02       		.byte	0x2
 447 016b 23       		.byte	0x23
 448 016c 00       		.uleb128 0
 449 016d 0A       		.uleb128 0xa
ARM GAS  /tmp/ccmg30ax.s 			page 9


 450 016e 6A000000 		.4byte	.LASF27
 451 0172 05       		.byte	0x5
 452 0173 45       		.byte	0x45
 453 0174 B8010000 		.4byte	0x1b8
 454 0178 02       		.byte	0x2
 455 0179 23       		.byte	0x23
 456 017a 04       		.uleb128 0x4
 457 017b 0A       		.uleb128 0xa
 458 017c 00000000 		.4byte	.LASF28
 459 0180 05       		.byte	0x5
 460 0181 46       		.byte	0x46
 461 0182 3C010000 		.4byte	0x13c
 462 0186 02       		.byte	0x2
 463 0187 23       		.byte	0x23
 464 0188 08       		.uleb128 0x8
 465 0189 0A       		.uleb128 0xa
 466 018a F0000000 		.4byte	.LASF29
 467 018e 05       		.byte	0x5
 468 018f 47       		.byte	0x47
 469 0190 3C010000 		.4byte	0x13c
 470 0194 02       		.byte	0x2
 471 0195 23       		.byte	0x23
 472 0196 0C       		.uleb128 0xc
 473 0197 0A       		.uleb128 0xa
 474 0198 87010000 		.4byte	.LASF30
 475 019c 05       		.byte	0x5
 476 019d 48       		.byte	0x48
 477 019e 3C010000 		.4byte	0x13c
 478 01a2 02       		.byte	0x2
 479 01a3 23       		.byte	0x23
 480 01a4 10       		.uleb128 0x10
 481 01a5 00       		.byte	0
 482 01a6 0B       		.uleb128 0xb
 483 01a7 01       		.byte	0x1
 484 01a8 B2010000 		.4byte	0x1b2
 485 01ac 0C       		.uleb128 0xc
 486 01ad B2010000 		.4byte	0x1b2
 487 01b1 00       		.byte	0
 488 01b2 0D       		.uleb128 0xd
 489 01b3 04       		.byte	0x4
 490 01b4 48010000 		.4byte	0x148
 491 01b8 0D       		.uleb128 0xd
 492 01b9 04       		.byte	0x4
 493 01ba A6010000 		.4byte	0x1a6
 494 01be 0E       		.uleb128 0xe
 495 01bf 01       		.byte	0x1
 496 01c0 B4000000 		.4byte	.LASF35
 497 01c4 01       		.byte	0x1
 498 01c5 75       		.byte	0x75
 499 01c6 01       		.byte	0x1
 500 01c7 01       		.byte	0x1
 501 01c8 D8010000 		.4byte	0x1d8
 502 01cc 0F       		.uleb128 0xf
 503 01cd 746D7000 		.ascii	"tmp\000"
 504 01d1 01       		.byte	0x1
 505 01d2 75       		.byte	0x75
 506 01d3 B2010000 		.4byte	0x1b2
ARM GAS  /tmp/ccmg30ax.s 			page 10


 507 01d7 00       		.byte	0
 508 01d8 10       		.uleb128 0x10
 509 01d9 1A010000 		.4byte	.LASF36
 510 01dd 01       		.byte	0x1
 511 01de 3E       		.byte	0x3e
 512 01df 01       		.byte	0x1
 513 01e0 01       		.byte	0x1
 514 01e1 F1010000 		.4byte	0x1f1
 515 01e5 0F       		.uleb128 0xf
 516 01e6 746D7000 		.ascii	"tmp\000"
 517 01ea 01       		.byte	0x1
 518 01eb 3E       		.byte	0x3e
 519 01ec B2010000 		.4byte	0x1b2
 520 01f0 00       		.byte	0
 521 01f1 11       		.uleb128 0x11
 522 01f2 D8010000 		.4byte	0x1d8
 523 01f6 00000000 		.4byte	.LFB118
 524 01fa 0E000000 		.4byte	.LFE118
 525 01fe 02       		.byte	0x2
 526 01ff 7D       		.byte	0x7d
 527 0200 00       		.sleb128 0
 528 0201 01       		.byte	0x1
 529 0202 0E020000 		.4byte	0x20e
 530 0206 12       		.uleb128 0x12
 531 0207 E5010000 		.4byte	0x1e5
 532 020b 01       		.byte	0x1
 533 020c 50       		.byte	0x50
 534 020d 00       		.byte	0
 535 020e 13       		.uleb128 0x13
 536 020f 53000000 		.4byte	.LASF37
 537 0213 01       		.byte	0x1
 538 0214 4A       		.byte	0x4a
 539 0215 01       		.byte	0x1
 540 0216 00000000 		.4byte	.LFB119
 541 021a 34000000 		.4byte	.LFE119
 542 021e 00000000 		.4byte	.LLST0
 543 0222 01       		.byte	0x1
 544 0223 44020000 		.4byte	0x244
 545 0227 14       		.uleb128 0x14
 546 0228 746D7000 		.ascii	"tmp\000"
 547 022c 01       		.byte	0x1
 548 022d 4A       		.byte	0x4a
 549 022e B2010000 		.4byte	0x1b2
 550 0232 01       		.byte	0x1
 551 0233 50       		.byte	0x50
 552 0234 15       		.uleb128 0x15
 553 0235 6E6F7700 		.ascii	"now\000"
 554 0239 01       		.byte	0x1
 555 023a 4C       		.byte	0x4c
 556 023b 3C010000 		.4byte	0x13c
 557 023f 20000000 		.4byte	.LLST1
 558 0243 00       		.byte	0
 559 0244 16       		.uleb128 0x16
 560 0245 01       		.byte	0x1
 561 0246 9B000000 		.4byte	.LASF38
 562 024a 01       		.byte	0x1
 563 024b 61       		.byte	0x61
ARM GAS  /tmp/ccmg30ax.s 			page 11


 564 024c 01       		.byte	0x1
 565 024d 00000000 		.4byte	.LFB120
 566 0251 46000000 		.4byte	.LFE120
 567 0255 33000000 		.4byte	.LLST2
 568 0259 01       		.byte	0x1
 569 025a B6020000 		.4byte	0x2b6
 570 025e 17       		.uleb128 0x17
 571 025f 746D00   		.ascii	"tm\000"
 572 0262 01       		.byte	0x1
 573 0263 62       		.byte	0x62
 574 0264 48010000 		.4byte	0x148
 575 0268 02       		.byte	0x2
 576 0269 91       		.byte	0x91
 577 026a 64       		.sleb128 -28
 578 026b 18       		.uleb128 0x18
 579 026c BE010000 		.4byte	0x1be
 580 0270 10000000 		.4byte	.LBB8
 581 0274 00000000 		.4byte	.Ldebug_ranges0+0
 582 0278 01       		.byte	0x1
 583 0279 68       		.byte	0x68
 584 027a 88020000 		.4byte	0x288
 585 027e 19       		.uleb128 0x19
 586 027f CC010000 		.4byte	0x1cc
 587 0283 5F000000 		.4byte	.LLST3
 588 0287 00       		.byte	0
 589 0288 18       		.uleb128 0x18
 590 0289 D8010000 		.4byte	0x1d8
 591 028d 12000000 		.4byte	.LBB14
 592 0291 30000000 		.4byte	.Ldebug_ranges0+0x30
 593 0295 01       		.byte	0x1
 594 0296 69       		.byte	0x69
 595 0297 A5020000 		.4byte	0x2a5
 596 029b 19       		.uleb128 0x19
 597 029c E5010000 		.4byte	0x1e5
 598 02a0 8C000000 		.4byte	.LLST4
 599 02a4 00       		.byte	0
 600 02a5 1A       		.uleb128 0x1a
 601 02a6 3E000000 		.4byte	.LVL7
 602 02aa 0E020000 		.4byte	0x20e
 603 02ae 1B       		.uleb128 0x1b
 604 02af 01       		.byte	0x1
 605 02b0 50       		.byte	0x50
 606 02b1 02       		.byte	0x2
 607 02b2 91       		.byte	0x91
 608 02b3 64       		.sleb128 -28
 609 02b4 00       		.byte	0
 610 02b5 00       		.byte	0
 611 02b6 11       		.uleb128 0x11
 612 02b7 BE010000 		.4byte	0x1be
 613 02bb 00000000 		.4byte	.LFB121
 614 02bf 22000000 		.4byte	.LFE121
 615 02c3 02       		.byte	0x2
 616 02c4 7D       		.byte	0x7d
 617 02c5 00       		.sleb128 0
 618 02c6 01       		.byte	0x1
 619 02c7 D3020000 		.4byte	0x2d3
 620 02cb 12       		.uleb128 0x12
ARM GAS  /tmp/ccmg30ax.s 			page 12


 621 02cc CC010000 		.4byte	0x1cc
 622 02d0 01       		.byte	0x1
 623 02d1 50       		.byte	0x50
 624 02d2 00       		.byte	0
 625 02d3 1C       		.uleb128 0x1c
 626 02d4 62010000 		.4byte	.LASF31
 627 02d8 01       		.byte	0x1
 628 02d9 31       		.byte	0x31
 629 02da 3C010000 		.4byte	0x13c
 630 02de 05       		.byte	0x5
 631 02df 03       		.byte	0x3
 632 02e0 00000000 		.4byte	measurement_offset
 633 02e4 1D       		.uleb128 0x1d
 634 02e5 DB000000 		.4byte	.LASF39
 635 02e9 06       		.byte	0x6
 636 02ea 9806     		.2byte	0x698
 637 02ec 37010000 		.4byte	0x137
 638 02f0 01       		.byte	0x1
 639 02f1 01       		.byte	0x1
 640 02f2 00       		.byte	0
 641              		.section	.debug_abbrev,"",%progbits
 642              	.Ldebug_abbrev0:
 643 0000 01       		.uleb128 0x1
 644 0001 11       		.uleb128 0x11
 645 0002 01       		.byte	0x1
 646 0003 25       		.uleb128 0x25
 647 0004 0E       		.uleb128 0xe
 648 0005 13       		.uleb128 0x13
 649 0006 0B       		.uleb128 0xb
 650 0007 03       		.uleb128 0x3
 651 0008 0E       		.uleb128 0xe
 652 0009 1B       		.uleb128 0x1b
 653 000a 0E       		.uleb128 0xe
 654 000b 55       		.uleb128 0x55
 655 000c 06       		.uleb128 0x6
 656 000d 11       		.uleb128 0x11
 657 000e 01       		.uleb128 0x1
 658 000f 52       		.uleb128 0x52
 659 0010 01       		.uleb128 0x1
 660 0011 10       		.uleb128 0x10
 661 0012 06       		.uleb128 0x6
 662 0013 00       		.byte	0
 663 0014 00       		.byte	0
 664 0015 02       		.uleb128 0x2
 665 0016 24       		.uleb128 0x24
 666 0017 00       		.byte	0
 667 0018 0B       		.uleb128 0xb
 668 0019 0B       		.uleb128 0xb
 669 001a 3E       		.uleb128 0x3e
 670 001b 0B       		.uleb128 0xb
 671 001c 03       		.uleb128 0x3
 672 001d 08       		.uleb128 0x8
 673 001e 00       		.byte	0
 674 001f 00       		.byte	0
 675 0020 03       		.uleb128 0x3
 676 0021 24       		.uleb128 0x24
 677 0022 00       		.byte	0
ARM GAS  /tmp/ccmg30ax.s 			page 13


 678 0023 0B       		.uleb128 0xb
 679 0024 0B       		.uleb128 0xb
 680 0025 3E       		.uleb128 0x3e
 681 0026 0B       		.uleb128 0xb
 682 0027 03       		.uleb128 0x3
 683 0028 0E       		.uleb128 0xe
 684 0029 00       		.byte	0
 685 002a 00       		.byte	0
 686 002b 04       		.uleb128 0x4
 687 002c 16       		.uleb128 0x16
 688 002d 00       		.byte	0
 689 002e 03       		.uleb128 0x3
 690 002f 0E       		.uleb128 0xe
 691 0030 3A       		.uleb128 0x3a
 692 0031 0B       		.uleb128 0xb
 693 0032 3B       		.uleb128 0x3b
 694 0033 0B       		.uleb128 0xb
 695 0034 49       		.uleb128 0x49
 696 0035 13       		.uleb128 0x13
 697 0036 00       		.byte	0
 698 0037 00       		.byte	0
 699 0038 05       		.uleb128 0x5
 700 0039 35       		.uleb128 0x35
 701 003a 00       		.byte	0
 702 003b 49       		.uleb128 0x49
 703 003c 13       		.uleb128 0x13
 704 003d 00       		.byte	0
 705 003e 00       		.byte	0
 706 003f 06       		.uleb128 0x6
 707 0040 13       		.uleb128 0x13
 708 0041 01       		.byte	0x1
 709 0042 0B       		.uleb128 0xb
 710 0043 0B       		.uleb128 0xb
 711 0044 3A       		.uleb128 0x3a
 712 0045 0B       		.uleb128 0xb
 713 0046 3B       		.uleb128 0x3b
 714 0047 0B       		.uleb128 0xb
 715 0048 01       		.uleb128 0x1
 716 0049 13       		.uleb128 0x13
 717 004a 00       		.byte	0
 718 004b 00       		.byte	0
 719 004c 07       		.uleb128 0x7
 720 004d 0D       		.uleb128 0xd
 721 004e 00       		.byte	0
 722 004f 03       		.uleb128 0x3
 723 0050 0E       		.uleb128 0xe
 724 0051 3A       		.uleb128 0x3a
 725 0052 0B       		.uleb128 0xb
 726 0053 3B       		.uleb128 0x3b
 727 0054 05       		.uleb128 0x5
 728 0055 49       		.uleb128 0x49
 729 0056 13       		.uleb128 0x13
 730 0057 38       		.uleb128 0x38
 731 0058 0A       		.uleb128 0xa
 732 0059 00       		.byte	0
 733 005a 00       		.byte	0
 734 005b 08       		.uleb128 0x8
ARM GAS  /tmp/ccmg30ax.s 			page 14


 735 005c 16       		.uleb128 0x16
 736 005d 00       		.byte	0
 737 005e 03       		.uleb128 0x3
 738 005f 0E       		.uleb128 0xe
 739 0060 3A       		.uleb128 0x3a
 740 0061 0B       		.uleb128 0xb
 741 0062 3B       		.uleb128 0x3b
 742 0063 05       		.uleb128 0x5
 743 0064 49       		.uleb128 0x49
 744 0065 13       		.uleb128 0x13
 745 0066 00       		.byte	0
 746 0067 00       		.byte	0
 747 0068 09       		.uleb128 0x9
 748 0069 13       		.uleb128 0x13
 749 006a 01       		.byte	0x1
 750 006b 03       		.uleb128 0x3
 751 006c 0E       		.uleb128 0xe
 752 006d 0B       		.uleb128 0xb
 753 006e 0B       		.uleb128 0xb
 754 006f 3A       		.uleb128 0x3a
 755 0070 0B       		.uleb128 0xb
 756 0071 3B       		.uleb128 0x3b
 757 0072 0B       		.uleb128 0xb
 758 0073 01       		.uleb128 0x1
 759 0074 13       		.uleb128 0x13
 760 0075 00       		.byte	0
 761 0076 00       		.byte	0
 762 0077 0A       		.uleb128 0xa
 763 0078 0D       		.uleb128 0xd
 764 0079 00       		.byte	0
 765 007a 03       		.uleb128 0x3
 766 007b 0E       		.uleb128 0xe
 767 007c 3A       		.uleb128 0x3a
 768 007d 0B       		.uleb128 0xb
 769 007e 3B       		.uleb128 0x3b
 770 007f 0B       		.uleb128 0xb
 771 0080 49       		.uleb128 0x49
 772 0081 13       		.uleb128 0x13
 773 0082 38       		.uleb128 0x38
 774 0083 0A       		.uleb128 0xa
 775 0084 00       		.byte	0
 776 0085 00       		.byte	0
 777 0086 0B       		.uleb128 0xb
 778 0087 15       		.uleb128 0x15
 779 0088 01       		.byte	0x1
 780 0089 27       		.uleb128 0x27
 781 008a 0C       		.uleb128 0xc
 782 008b 01       		.uleb128 0x1
 783 008c 13       		.uleb128 0x13
 784 008d 00       		.byte	0
 785 008e 00       		.byte	0
 786 008f 0C       		.uleb128 0xc
 787 0090 05       		.uleb128 0x5
 788 0091 00       		.byte	0
 789 0092 49       		.uleb128 0x49
 790 0093 13       		.uleb128 0x13
 791 0094 00       		.byte	0
ARM GAS  /tmp/ccmg30ax.s 			page 15


 792 0095 00       		.byte	0
 793 0096 0D       		.uleb128 0xd
 794 0097 0F       		.uleb128 0xf
 795 0098 00       		.byte	0
 796 0099 0B       		.uleb128 0xb
 797 009a 0B       		.uleb128 0xb
 798 009b 49       		.uleb128 0x49
 799 009c 13       		.uleb128 0x13
 800 009d 00       		.byte	0
 801 009e 00       		.byte	0
 802 009f 0E       		.uleb128 0xe
 803 00a0 2E       		.uleb128 0x2e
 804 00a1 01       		.byte	0x1
 805 00a2 3F       		.uleb128 0x3f
 806 00a3 0C       		.uleb128 0xc
 807 00a4 03       		.uleb128 0x3
 808 00a5 0E       		.uleb128 0xe
 809 00a6 3A       		.uleb128 0x3a
 810 00a7 0B       		.uleb128 0xb
 811 00a8 3B       		.uleb128 0x3b
 812 00a9 0B       		.uleb128 0xb
 813 00aa 27       		.uleb128 0x27
 814 00ab 0C       		.uleb128 0xc
 815 00ac 20       		.uleb128 0x20
 816 00ad 0B       		.uleb128 0xb
 817 00ae 01       		.uleb128 0x1
 818 00af 13       		.uleb128 0x13
 819 00b0 00       		.byte	0
 820 00b1 00       		.byte	0
 821 00b2 0F       		.uleb128 0xf
 822 00b3 05       		.uleb128 0x5
 823 00b4 00       		.byte	0
 824 00b5 03       		.uleb128 0x3
 825 00b6 08       		.uleb128 0x8
 826 00b7 3A       		.uleb128 0x3a
 827 00b8 0B       		.uleb128 0xb
 828 00b9 3B       		.uleb128 0x3b
 829 00ba 0B       		.uleb128 0xb
 830 00bb 49       		.uleb128 0x49
 831 00bc 13       		.uleb128 0x13
 832 00bd 00       		.byte	0
 833 00be 00       		.byte	0
 834 00bf 10       		.uleb128 0x10
 835 00c0 2E       		.uleb128 0x2e
 836 00c1 01       		.byte	0x1
 837 00c2 03       		.uleb128 0x3
 838 00c3 0E       		.uleb128 0xe
 839 00c4 3A       		.uleb128 0x3a
 840 00c5 0B       		.uleb128 0xb
 841 00c6 3B       		.uleb128 0x3b
 842 00c7 0B       		.uleb128 0xb
 843 00c8 27       		.uleb128 0x27
 844 00c9 0C       		.uleb128 0xc
 845 00ca 20       		.uleb128 0x20
 846 00cb 0B       		.uleb128 0xb
 847 00cc 01       		.uleb128 0x1
 848 00cd 13       		.uleb128 0x13
ARM GAS  /tmp/ccmg30ax.s 			page 16


 849 00ce 00       		.byte	0
 850 00cf 00       		.byte	0
 851 00d0 11       		.uleb128 0x11
 852 00d1 2E       		.uleb128 0x2e
 853 00d2 01       		.byte	0x1
 854 00d3 31       		.uleb128 0x31
 855 00d4 13       		.uleb128 0x13
 856 00d5 11       		.uleb128 0x11
 857 00d6 01       		.uleb128 0x1
 858 00d7 12       		.uleb128 0x12
 859 00d8 01       		.uleb128 0x1
 860 00d9 40       		.uleb128 0x40
 861 00da 0A       		.uleb128 0xa
 862 00db 9742     		.uleb128 0x2117
 863 00dd 0C       		.uleb128 0xc
 864 00de 01       		.uleb128 0x1
 865 00df 13       		.uleb128 0x13
 866 00e0 00       		.byte	0
 867 00e1 00       		.byte	0
 868 00e2 12       		.uleb128 0x12
 869 00e3 05       		.uleb128 0x5
 870 00e4 00       		.byte	0
 871 00e5 31       		.uleb128 0x31
 872 00e6 13       		.uleb128 0x13
 873 00e7 02       		.uleb128 0x2
 874 00e8 0A       		.uleb128 0xa
 875 00e9 00       		.byte	0
 876 00ea 00       		.byte	0
 877 00eb 13       		.uleb128 0x13
 878 00ec 2E       		.uleb128 0x2e
 879 00ed 01       		.byte	0x1
 880 00ee 03       		.uleb128 0x3
 881 00ef 0E       		.uleb128 0xe
 882 00f0 3A       		.uleb128 0x3a
 883 00f1 0B       		.uleb128 0xb
 884 00f2 3B       		.uleb128 0x3b
 885 00f3 0B       		.uleb128 0xb
 886 00f4 27       		.uleb128 0x27
 887 00f5 0C       		.uleb128 0xc
 888 00f6 11       		.uleb128 0x11
 889 00f7 01       		.uleb128 0x1
 890 00f8 12       		.uleb128 0x12
 891 00f9 01       		.uleb128 0x1
 892 00fa 40       		.uleb128 0x40
 893 00fb 06       		.uleb128 0x6
 894 00fc 9742     		.uleb128 0x2117
 895 00fe 0C       		.uleb128 0xc
 896 00ff 01       		.uleb128 0x1
 897 0100 13       		.uleb128 0x13
 898 0101 00       		.byte	0
 899 0102 00       		.byte	0
 900 0103 14       		.uleb128 0x14
 901 0104 05       		.uleb128 0x5
 902 0105 00       		.byte	0
 903 0106 03       		.uleb128 0x3
 904 0107 08       		.uleb128 0x8
 905 0108 3A       		.uleb128 0x3a
ARM GAS  /tmp/ccmg30ax.s 			page 17


 906 0109 0B       		.uleb128 0xb
 907 010a 3B       		.uleb128 0x3b
 908 010b 0B       		.uleb128 0xb
 909 010c 49       		.uleb128 0x49
 910 010d 13       		.uleb128 0x13
 911 010e 02       		.uleb128 0x2
 912 010f 0A       		.uleb128 0xa
 913 0110 00       		.byte	0
 914 0111 00       		.byte	0
 915 0112 15       		.uleb128 0x15
 916 0113 34       		.uleb128 0x34
 917 0114 00       		.byte	0
 918 0115 03       		.uleb128 0x3
 919 0116 08       		.uleb128 0x8
 920 0117 3A       		.uleb128 0x3a
 921 0118 0B       		.uleb128 0xb
 922 0119 3B       		.uleb128 0x3b
 923 011a 0B       		.uleb128 0xb
 924 011b 49       		.uleb128 0x49
 925 011c 13       		.uleb128 0x13
 926 011d 02       		.uleb128 0x2
 927 011e 06       		.uleb128 0x6
 928 011f 00       		.byte	0
 929 0120 00       		.byte	0
 930 0121 16       		.uleb128 0x16
 931 0122 2E       		.uleb128 0x2e
 932 0123 01       		.byte	0x1
 933 0124 3F       		.uleb128 0x3f
 934 0125 0C       		.uleb128 0xc
 935 0126 03       		.uleb128 0x3
 936 0127 0E       		.uleb128 0xe
 937 0128 3A       		.uleb128 0x3a
 938 0129 0B       		.uleb128 0xb
 939 012a 3B       		.uleb128 0x3b
 940 012b 0B       		.uleb128 0xb
 941 012c 27       		.uleb128 0x27
 942 012d 0C       		.uleb128 0xc
 943 012e 11       		.uleb128 0x11
 944 012f 01       		.uleb128 0x1
 945 0130 12       		.uleb128 0x12
 946 0131 01       		.uleb128 0x1
 947 0132 40       		.uleb128 0x40
 948 0133 06       		.uleb128 0x6
 949 0134 9742     		.uleb128 0x2117
 950 0136 0C       		.uleb128 0xc
 951 0137 01       		.uleb128 0x1
 952 0138 13       		.uleb128 0x13
 953 0139 00       		.byte	0
 954 013a 00       		.byte	0
 955 013b 17       		.uleb128 0x17
 956 013c 34       		.uleb128 0x34
 957 013d 00       		.byte	0
 958 013e 03       		.uleb128 0x3
 959 013f 08       		.uleb128 0x8
 960 0140 3A       		.uleb128 0x3a
 961 0141 0B       		.uleb128 0xb
 962 0142 3B       		.uleb128 0x3b
ARM GAS  /tmp/ccmg30ax.s 			page 18


 963 0143 0B       		.uleb128 0xb
 964 0144 49       		.uleb128 0x49
 965 0145 13       		.uleb128 0x13
 966 0146 02       		.uleb128 0x2
 967 0147 0A       		.uleb128 0xa
 968 0148 00       		.byte	0
 969 0149 00       		.byte	0
 970 014a 18       		.uleb128 0x18
 971 014b 1D       		.uleb128 0x1d
 972 014c 01       		.byte	0x1
 973 014d 31       		.uleb128 0x31
 974 014e 13       		.uleb128 0x13
 975 014f 52       		.uleb128 0x52
 976 0150 01       		.uleb128 0x1
 977 0151 55       		.uleb128 0x55
 978 0152 06       		.uleb128 0x6
 979 0153 58       		.uleb128 0x58
 980 0154 0B       		.uleb128 0xb
 981 0155 59       		.uleb128 0x59
 982 0156 0B       		.uleb128 0xb
 983 0157 01       		.uleb128 0x1
 984 0158 13       		.uleb128 0x13
 985 0159 00       		.byte	0
 986 015a 00       		.byte	0
 987 015b 19       		.uleb128 0x19
 988 015c 05       		.uleb128 0x5
 989 015d 00       		.byte	0
 990 015e 31       		.uleb128 0x31
 991 015f 13       		.uleb128 0x13
 992 0160 02       		.uleb128 0x2
 993 0161 06       		.uleb128 0x6
 994 0162 00       		.byte	0
 995 0163 00       		.byte	0
 996 0164 1A       		.uleb128 0x1a
 997 0165 898201   		.uleb128 0x4109
 998 0168 01       		.byte	0x1
 999 0169 11       		.uleb128 0x11
 1000 016a 01       		.uleb128 0x1
 1001 016b 31       		.uleb128 0x31
 1002 016c 13       		.uleb128 0x13
 1003 016d 00       		.byte	0
 1004 016e 00       		.byte	0
 1005 016f 1B       		.uleb128 0x1b
 1006 0170 8A8201   		.uleb128 0x410a
 1007 0173 00       		.byte	0
 1008 0174 02       		.uleb128 0x2
 1009 0175 0A       		.uleb128 0xa
 1010 0176 9142     		.uleb128 0x2111
 1011 0178 0A       		.uleb128 0xa
 1012 0179 00       		.byte	0
 1013 017a 00       		.byte	0
 1014 017b 1C       		.uleb128 0x1c
 1015 017c 34       		.uleb128 0x34
 1016 017d 00       		.byte	0
 1017 017e 03       		.uleb128 0x3
 1018 017f 0E       		.uleb128 0xe
 1019 0180 3A       		.uleb128 0x3a
ARM GAS  /tmp/ccmg30ax.s 			page 19


 1020 0181 0B       		.uleb128 0xb
 1021 0182 3B       		.uleb128 0x3b
 1022 0183 0B       		.uleb128 0xb
 1023 0184 49       		.uleb128 0x49
 1024 0185 13       		.uleb128 0x13
 1025 0186 02       		.uleb128 0x2
 1026 0187 0A       		.uleb128 0xa
 1027 0188 00       		.byte	0
 1028 0189 00       		.byte	0
 1029 018a 1D       		.uleb128 0x1d
 1030 018b 34       		.uleb128 0x34
 1031 018c 00       		.byte	0
 1032 018d 03       		.uleb128 0x3
 1033 018e 0E       		.uleb128 0xe
 1034 018f 3A       		.uleb128 0x3a
 1035 0190 0B       		.uleb128 0xb
 1036 0191 3B       		.uleb128 0x3b
 1037 0192 05       		.uleb128 0x5
 1038 0193 49       		.uleb128 0x49
 1039 0194 13       		.uleb128 0x13
 1040 0195 3F       		.uleb128 0x3f
 1041 0196 0C       		.uleb128 0xc
 1042 0197 3C       		.uleb128 0x3c
 1043 0198 0C       		.uleb128 0xc
 1044 0199 00       		.byte	0
 1045 019a 00       		.byte	0
 1046 019b 00       		.byte	0
 1047              		.section	.debug_loc,"",%progbits
 1048              	.Ldebug_loc0:
 1049              	.LLST0:
 1050 0000 00000000 		.4byte	.LFB119
 1051 0004 10000000 		.4byte	.LCFI0
 1052 0008 0200     		.2byte	0x2
 1053 000a 7D       		.byte	0x7d
 1054 000b 00       		.sleb128 0
 1055 000c 10000000 		.4byte	.LCFI0
 1056 0010 34000000 		.4byte	.LFE119
 1057 0014 0200     		.2byte	0x2
 1058 0016 7D       		.byte	0x7d
 1059 0017 04       		.sleb128 4
 1060 0018 00000000 		.4byte	0
 1061 001c 00000000 		.4byte	0
 1062              	.LLST1:
 1063 0020 0C000000 		.4byte	.LVL2
 1064 0024 16000000 		.4byte	.LVL3
 1065 0028 0100     		.2byte	0x1
 1066 002a 53       		.byte	0x53
 1067 002b 00000000 		.4byte	0
 1068 002f 00000000 		.4byte	0
 1069              	.LLST2:
 1070 0033 00000000 		.4byte	.LFB120
 1071 0037 02000000 		.4byte	.LCFI1
 1072 003b 0200     		.2byte	0x2
 1073 003d 7D       		.byte	0x7d
 1074 003e 00       		.sleb128 0
 1075 003f 02000000 		.4byte	.LCFI1
 1076 0043 08000000 		.4byte	.LCFI2
ARM GAS  /tmp/ccmg30ax.s 			page 20


 1077 0047 0200     		.2byte	0x2
 1078 0049 7D       		.byte	0x7d
 1079 004a 08       		.sleb128 8
 1080 004b 08000000 		.4byte	.LCFI2
 1081 004f 46000000 		.4byte	.LFE120
 1082 0053 0200     		.2byte	0x2
 1083 0055 7D       		.byte	0x7d
 1084 0056 20       		.sleb128 32
 1085 0057 00000000 		.4byte	0
 1086 005b 00000000 		.4byte	0
 1087              	.LLST3:
 1088 005f 10000000 		.4byte	.LVL4
 1089 0063 36000000 		.4byte	.LVL6
 1090 0067 0300     		.2byte	0x3
 1091 0069 91       		.byte	0x91
 1092 006a 64       		.sleb128 -28
 1093 006b 9F       		.byte	0x9f
 1094 006c 36000000 		.4byte	.LVL6
 1095 0070 3D000000 		.4byte	.LVL7-1
 1096 0074 0100     		.2byte	0x1
 1097 0076 50       		.byte	0x50
 1098 0077 3D000000 		.4byte	.LVL7-1
 1099 007b 46000000 		.4byte	.LFE120
 1100 007f 0300     		.2byte	0x3
 1101 0081 91       		.byte	0x91
 1102 0082 64       		.sleb128 -28
 1103 0083 9F       		.byte	0x9f
 1104 0084 00000000 		.4byte	0
 1105 0088 00000000 		.4byte	0
 1106              	.LLST4:
 1107 008c 1C000000 		.4byte	.LVL5
 1108 0090 36000000 		.4byte	.LVL6
 1109 0094 0300     		.2byte	0x3
 1110 0096 91       		.byte	0x91
 1111 0097 64       		.sleb128 -28
 1112 0098 9F       		.byte	0x9f
 1113 0099 36000000 		.4byte	.LVL6
 1114 009d 3D000000 		.4byte	.LVL7-1
 1115 00a1 0100     		.2byte	0x1
 1116 00a3 50       		.byte	0x50
 1117 00a4 3D000000 		.4byte	.LVL7-1
 1118 00a8 46000000 		.4byte	.LFE120
 1119 00ac 0300     		.2byte	0x3
 1120 00ae 91       		.byte	0x91
 1121 00af 64       		.sleb128 -28
 1122 00b0 9F       		.byte	0x9f
 1123 00b1 00000000 		.4byte	0
 1124 00b5 00000000 		.4byte	0
 1125              		.section	.debug_aranges,"",%progbits
 1126 0000 34000000 		.4byte	0x34
 1127 0004 0200     		.2byte	0x2
 1128 0006 00000000 		.4byte	.Ldebug_info0
 1129 000a 04       		.byte	0x4
 1130 000b 00       		.byte	0
 1131 000c 0000     		.2byte	0
 1132 000e 0000     		.2byte	0
 1133 0010 00000000 		.4byte	.LFB118
ARM GAS  /tmp/ccmg30ax.s 			page 21


 1134 0014 0E000000 		.4byte	.LFE118-.LFB118
 1135 0018 00000000 		.4byte	.LFB119
 1136 001c 34000000 		.4byte	.LFE119-.LFB119
 1137 0020 00000000 		.4byte	.LFB120
 1138 0024 46000000 		.4byte	.LFE120-.LFB120
 1139 0028 00000000 		.4byte	.LFB121
 1140 002c 22000000 		.4byte	.LFE121-.LFB121
 1141 0030 00000000 		.4byte	0
 1142 0034 00000000 		.4byte	0
 1143              		.section	.debug_ranges,"",%progbits
 1144              	.Ldebug_ranges0:
 1145 0000 10000000 		.4byte	.LBB8
 1146 0004 12000000 		.4byte	.LBE8
 1147 0008 16000000 		.4byte	.LBB19
 1148 000c 1C000000 		.4byte	.LBE19
 1149 0010 20000000 		.4byte	.LBB21
 1150 0014 28000000 		.4byte	.LBE21
 1151 0018 2A000000 		.4byte	.LBB23
 1152 001c 34000000 		.4byte	.LBE23
 1153 0020 38000000 		.4byte	.LBB25
 1154 0024 3A000000 		.4byte	.LBE25
 1155 0028 00000000 		.4byte	0
 1156 002c 00000000 		.4byte	0
 1157 0030 12000000 		.4byte	.LBB14
 1158 0034 16000000 		.4byte	.LBE14
 1159 0038 1C000000 		.4byte	.LBB20
 1160 003c 20000000 		.4byte	.LBE20
 1161 0040 28000000 		.4byte	.LBB22
 1162 0044 2A000000 		.4byte	.LBE22
 1163 0048 36000000 		.4byte	.LBB24
 1164 004c 38000000 		.4byte	.LBE24
 1165 0050 00000000 		.4byte	0
 1166 0054 00000000 		.4byte	0
 1167 0058 00000000 		.4byte	.LFB118
 1168 005c 0E000000 		.4byte	.LFE118
 1169 0060 00000000 		.4byte	.LFB119
 1170 0064 34000000 		.4byte	.LFE119
 1171 0068 00000000 		.4byte	.LFB120
 1172 006c 46000000 		.4byte	.LFE120
 1173 0070 00000000 		.4byte	.LFB121
 1174 0074 22000000 		.4byte	.LFE121
 1175 0078 00000000 		.4byte	0
 1176 007c 00000000 		.4byte	0
 1177              		.section	.debug_line,"",%progbits
 1178              	.Ldebug_line0:
 1179 0000 01020000 		.section	.debug_str,"MS",%progbits,1
 1179      02007A01 
 1179      00000201 
 1179      FB0E0D00 
 1179      01010101 
 1180              	.LASF28:
 1181 0000 6C617374 		.ascii	"last\000"
 1181      00
 1182              	.LASF34:
 1183 0005 2F686F6D 		.ascii	"/home/rob/Projects/stm32/src/rocket_tracks\000"
 1183      652F726F 
 1183      622F5072 
ARM GAS  /tmp/ccmg30ax.s 			page 22


 1183      6F6A6563 
 1183      74732F73 
 1184              	.LASF33:
 1185 0030 2E2E2F2E 		.ascii	"../../ChibiOS/os/hal/src/tm.c\000"
 1185      2E2F4368 
 1185      6962694F 
 1185      532F6F73 
 1185      2F68616C 
 1186              	.LASF21:
 1187 004e 50435352 		.ascii	"PCSR\000"
 1187      00
 1188              	.LASF37:
 1189 0053 746D5F73 		.ascii	"tm_stop\000"
 1189      746F7000 
 1190              	.LASF26:
 1191 005b 73746172 		.ascii	"start\000"
 1191      7400
 1192              	.LASF18:
 1193 0061 534C4545 		.ascii	"SLEEPCNT\000"
 1193      50434E54 
 1193      00
 1194              	.LASF27:
 1195 006a 73746F70 		.ascii	"stop\000"
 1195      00
 1196              	.LASF10:
 1197 006f 6C6F6E67 		.ascii	"long long unsigned int\000"
 1197      206C6F6E 
 1197      6720756E 
 1197      7369676E 
 1197      65642069 
 1198              	.LASF2:
 1199 0086 756E7369 		.ascii	"unsigned char\000"
 1199      676E6564 
 1199      20636861 
 1199      7200
 1200              	.LASF15:
 1201 0094 43594343 		.ascii	"CYCCNT\000"
 1201      4E5400
 1202              	.LASF38:
 1203 009b 746D496E 		.ascii	"tmInit\000"
 1203      697400
 1204              	.LASF8:
 1205 00a2 6C6F6E67 		.ascii	"long unsigned int\000"
 1205      20756E73 
 1205      69676E65 
 1205      6420696E 
 1205      7400
 1206              	.LASF35:
 1207 00b4 746D4F62 		.ascii	"tmObjectInit\000"
 1207      6A656374 
 1207      496E6974 
 1207      00
 1208              	.LASF4:
 1209 00c1 73686F72 		.ascii	"short unsigned int\000"
 1209      7420756E 
 1209      7369676E 
 1209      65642069 
ARM GAS  /tmp/ccmg30ax.s 			page 23


 1209      6E7400
 1210              	.LASF16:
 1211 00d4 43504943 		.ascii	"CPICNT\000"
 1211      4E5400
 1212              	.LASF39:
 1213 00db 49544D5F 		.ascii	"ITM_RxBuffer\000"
 1213      52784275 
 1213      66666572 
 1213      00
 1214              	.LASF20:
 1215 00e8 464F4C44 		.ascii	"FOLDCNT\000"
 1215      434E5400 
 1216              	.LASF29:
 1217 00f0 776F7273 		.ascii	"worst\000"
 1217      7400
 1218              	.LASF19:
 1219 00f6 4C535543 		.ascii	"LSUCNT\000"
 1219      4E5400
 1220              	.LASF0:
 1221 00fd 756E7369 		.ascii	"unsigned int\000"
 1221      676E6564 
 1221      20696E74 
 1221      00
 1222              	.LASF24:
 1223 010a 68616C72 		.ascii	"halrtcnt_t\000"
 1223      74636E74 
 1223      5F7400
 1224              	.LASF23:
 1225 0115 63686172 		.ascii	"char\000"
 1225      00
 1226              	.LASF36:
 1227 011a 746D5F73 		.ascii	"tm_start\000"
 1227      74617274 
 1227      00
 1228              	.LASF14:
 1229 0123 4354524C 		.ascii	"CTRL\000"
 1229      00
 1230              	.LASF17:
 1231 0128 45584343 		.ascii	"EXCCNT\000"
 1231      4E5400
 1232              	.LASF6:
 1233 012f 696E7433 		.ascii	"int32_t\000"
 1233      325F7400 
 1234              	.LASF13:
 1235 0137 73697A65 		.ascii	"sizetype\000"
 1235      74797065 
 1235      00
 1236              	.LASF9:
 1237 0140 6C6F6E67 		.ascii	"long long int\000"
 1237      206C6F6E 
 1237      6720696E 
 1237      7400
 1238              	.LASF12:
 1239 014e 494F5245 		.ascii	"IOREG32\000"
 1239      47333200 
 1240              	.LASF32:
 1241 0156 474E5520 		.ascii	"GNU C 4.7.2\000"
ARM GAS  /tmp/ccmg30ax.s 			page 24


 1241      4320342E 
 1241      372E3200 
 1242              	.LASF31:
 1243 0162 6D656173 		.ascii	"measurement_offset\000"
 1243      7572656D 
 1243      656E745F 
 1243      6F666673 
 1243      657400
 1244              	.LASF3:
 1245 0175 73686F72 		.ascii	"short int\000"
 1245      7420696E 
 1245      7400
 1246              	.LASF22:
 1247 017f 434D785F 		.ascii	"CMx_DWT\000"
 1247      44575400 
 1248              	.LASF30:
 1249 0187 62657374 		.ascii	"best\000"
 1249      00
 1250              	.LASF7:
 1251 018c 75696E74 		.ascii	"uint32_t\000"
 1251      33325F74 
 1251      00
 1252              	.LASF5:
 1253 0195 6C6F6E67 		.ascii	"long int\000"
 1253      20696E74 
 1253      00
 1254              	.LASF1:
 1255 019e 7369676E 		.ascii	"signed char\000"
 1255      65642063 
 1255      68617200 
 1256              	.LASF25:
 1257 01aa 54696D65 		.ascii	"TimeMeasurement\000"
 1257      4D656173 
 1257      7572656D 
 1257      656E7400 
 1258              	.LASF11:
 1259 01ba 5F426F6F 		.ascii	"_Bool\000"
 1259      6C00
 1260              		.ident	"GCC: (crosstool-NG 1.17.0 - PSAS ST32F4 GFE) 4.7.2"
ARM GAS  /tmp/ccmg30ax.s 			page 25


DEFINED SYMBOLS
                            *ABS*:0000000000000000 tm.c
     /tmp/ccmg30ax.s:21     .text.tm_start:0000000000000000 $t
     /tmp/ccmg30ax.s:26     .text.tm_start:0000000000000000 tm_start
     /tmp/ccmg30ax.s:45     .text.tm_stop:0000000000000000 $t
     /tmp/ccmg30ax.s:50     .text.tm_stop:0000000000000000 tm_stop
     /tmp/ccmg30ax.s:103    .text.tm_stop:0000000000000030 $d
     /tmp/ccmg30ax.s:108    .text.tmInit:0000000000000000 $t
     /tmp/ccmg30ax.s:114    .text.tmInit:0000000000000000 tmInit
     /tmp/ccmg30ax.s:252    .bss.measurement_offset:0000000000000000 .LANCHOR0
     /tmp/ccmg30ax.s:212    .text.tmObjectInit:0000000000000000 $t
     /tmp/ccmg30ax.s:218    .text.tmObjectInit:0000000000000000 tmObjectInit
     /tmp/ccmg30ax.s:251    .bss.measurement_offset:0000000000000000 $d
     /tmp/ccmg30ax.s:255    .bss.measurement_offset:0000000000000000 measurement_offset
                     .debug_frame:0000000000000010 $d
     /tmp/ccmg30ax.s:107    .text.tm_stop:0000000000000034 $t

NO UNDEFINED SYMBOLS
