ARM GAS  /tmp/ccmg30ax.s 			page 1


   1              		.syntax unified
   2              		.cpu cortex-m4
   3              		.eabi_attribute 27, 3
   4              		.eabi_attribute 28, 1
   5              		.fpu fpv4-sp-d16
   6              		.eabi_attribute 20, 1
   7              		.eabi_attribute 21, 1
   8              		.eabi_attribute 23, 3
   9              		.eabi_attribute 24, 1
  10              		.eabi_attribute 25, 1
  11              		.eabi_attribute 26, 1
  12              		.eabi_attribute 30, 2
  13              		.eabi_attribute 34, 1
  14              		.eabi_attribute 18, 4
  15              		.thumb
  16              		.file	"tm.c"
  17              		.text
  18              	.Ltext0:
  19              		.cfi_sections	.debug_frame
  20              		.section	.text.tm_start,"ax",%progbits
  21              		.align	2
  22              		.p2align 4,,15
  23              		.thumb
  24              		.thumb_func
  25              		.type	tm_start, %function
  26              	tm_start:
  27              	.LFB118:
  28              		.file 1 "../../ChibiOS/os/hal/src/tm.c"
  29              		.loc 1 62 0
  30              		.cfi_startproc
  31              		@ args = 0, pretend = 0, frame = 0
  32              		@ frame_needed = 0, uses_anonymous_args = 0
  33              		@ link register save eliminated.
  34              	.LVL0:
  35              		.loc 1 64 0
  36 0000 4FF48053 		mov	r3, #4096
  37 0004 CEF20003 		movt	r3, 57344
  38 0008 5B68     		ldr	r3, [r3, #4]
  39 000a 8360     		str	r3, [r0, #8]
  40 000c 7047     		bx	lr
  41              		.cfi_endproc
  42              	.LFE118:
  43              		.size	tm_start, .-tm_start
  44 000e 00BF     		.section	.text.tm_stop,"ax",%progbits
  45              		.align	2
  46              		.p2align 4,,15
  47              		.thumb
  48              		.thumb_func
  49              		.type	tm_stop, %function
  50              	tm_stop:
  51              	.LFB119:
  52              		.loc 1 74 0
  53              		.cfi_startproc
  54              		@ args = 0, pretend = 0, frame = 0
  55              		@ frame_needed = 0, uses_anonymous_args = 0
  56              		@ link register save eliminated.
  57              	.LVL1:
ARM GAS  /tmp/ccmg30ax.s 			page 2


  58              		.loc 1 76 0
  59 0000 4FF48053 		mov	r3, #4096
  60 0004 CEF20003 		movt	r3, 57344
  61              		.loc 1 77 0
  62 0008 094A     		ldr	r2, .L6
  63              		.loc 1 76 0
  64 000a 5B68     		ldr	r3, [r3, #4]
  65              	.LVL2:
  66              		.loc 1 77 0
  67 000c 8168     		ldr	r1, [r0, #8]
  68              		.loc 1 74 0
  69 000e 10B4     		push	{r4}
  70              	.LCFI0:
  71              		.cfi_def_cfa_offset 4
  72              		.cfi_offset 4, -4
  73              		.loc 1 77 0
  74 0010 1468     		ldr	r4, [r2, #0]
  75              		.loc 1 78 0
  76 0012 C268     		ldr	r2, [r0, #12]
  77              		.loc 1 77 0
  78 0014 5B1A     		subs	r3, r3, r1
  79              	.LVL3:
  80 0016 1B1B     		subs	r3, r3, r4
  81              		.loc 1 78 0
  82 0018 9342     		cmp	r3, r2
  83              		.loc 1 77 0
  84 001a 8360     		str	r3, [r0, #8]
  85              		.loc 1 79 0
  86 001c 88BF     		it	hi
  87 001e C360     		strhi	r3, [r0, #12]
  88              		.loc 1 78 0
  89 0020 03D8     		bhi	.L2
  90              		.loc 1 80 0
  91 0022 0269     		ldr	r2, [r0, #16]
  92 0024 9342     		cmp	r3, r2
  93              		.loc 1 81 0
  94 0026 38BF     		it	cc
  95 0028 0361     		strcc	r3, [r0, #16]
  96              	.L2:
  97              		.loc 1 82 0
  98 002a 10BC     		pop	{r4}
  99 002c 7047     		bx	lr
 100              	.L7:
 101 002e 00BF     		.align	2
 102              	.L6:
 103 0030 00000000 		.word	.LANCHOR0
 104              		.cfi_endproc
 105              	.LFE119:
 106              		.size	tm_stop, .-tm_stop
 107 0034 AFF30080 		.section	.text.tmInit,"ax",%progbits
 107      AFF30080 
 107      AFF30080 
 108              		.align	2
 109              		.p2align 4,,15
 110              		.global	tmInit
 111              		.thumb
 112              		.thumb_func
ARM GAS  /tmp/ccmg30ax.s 			page 3


 113              		.type	tmInit, %function
 114              	tmInit:
 115              	.LFB120:
 116              		.loc 1 97 0
 117              		.cfi_startproc
 118              		@ args = 0, pretend = 0, frame = 24
 119              		@ frame_needed = 0, uses_anonymous_args = 0
 120 0000 10B5     		push	{r4, lr}
 121              	.LCFI1:
 122              		.cfi_def_cfa_offset 8
 123              		.cfi_offset 4, -8
 124              		.cfi_offset 14, -4
 125              		.loc 1 103 0
 126 0002 40F20004 		movw	r4, #:lower16:.LANCHOR0
 127              		.loc 1 97 0
 128 0006 86B0     		sub	sp, sp, #24
 129              	.LCFI2:
 130              		.cfi_def_cfa_offset 32
 131              		.loc 1 103 0
 132 0008 C0F20004 		movt	r4, #:upper16:.LANCHOR0
 133 000c 0022     		movs	r2, #0
 134 000e 2260     		str	r2, [r4, #0]
 135              	.LVL4:
 136              	.LBB8:
 137              	.LBB9:
 138              		.loc 1 122 0
 139 0010 0492     		str	r2, [sp, #16]
 140              	.LBE9:
 141              	.LBE8:
 142              	.LBB14:
 143              	.LBB15:
 144              		.loc 1 64 0
 145 0012 4FF48053 		mov	r3, #4096
 146              	.LBE15:
 147              	.LBE14:
 148              	.LBB19:
 149              	.LBB10:
 150              		.loc 1 123 0
 151 0016 4FF0FF32 		mov	r2, #-1
 152 001a 0592     		str	r2, [sp, #20]
 153              	.LVL5:
 154              	.LBE10:
 155              	.LBE19:
 156              	.LBB20:
 157              	.LBB16:
 158              		.loc 1 64 0
 159 001c CEF20003 		movt	r3, 57344
 160              	.LBE16:
 161              	.LBE20:
 162              	.LBB21:
 163              	.LBB11:
 164              		.loc 1 119 0
 165 0020 40F20002 		movw	r2, #:lower16:tm_start
 166 0024 C0F20002 		movt	r2, #:upper16:tm_start
 167              	.LBE11:
 168              	.LBE21:
 169              	.LBB22:
ARM GAS  /tmp/ccmg30ax.s 			page 4


 170              	.LBB17:
 171              		.loc 1 64 0
 172 0028 5B68     		ldr	r3, [r3, #4]
 173              	.LBE17:
 174              	.LBE22:
 175              	.LBB23:
 176              	.LBB12:
 177              		.loc 1 119 0
 178 002a 0192     		str	r2, [sp, #4]
 179              		.loc 1 120 0
 180 002c 40F20002 		movw	r2, #:lower16:tm_stop
 181 0030 C0F20002 		movt	r2, #:upper16:tm_stop
 182              	.LBE12:
 183              	.LBE23:
 184              		.loc 1 106 0
 185 0034 01A8     		add	r0, sp, #4
 186              	.LVL6:
 187              	.LBB24:
 188              	.LBB18:
 189              		.loc 1 64 0
 190 0036 0393     		str	r3, [sp, #12]
 191              	.LBE18:
 192              	.LBE24:
 193              	.LBB25:
 194              	.LBB13:
 195              		.loc 1 120 0
 196 0038 0292     		str	r2, [sp, #8]
 197              	.LBE13:
 198              	.LBE25:
 199              		.loc 1 106 0
 200 003a FFF7FEFF 		bl	tm_stop
 201              	.LVL7:
 202              		.loc 1 107 0
 203 003e 039B     		ldr	r3, [sp, #12]
 204 0040 2360     		str	r3, [r4, #0]
 205              		.loc 1 108 0
 206 0042 06B0     		add	sp, sp, #24
 207 0044 10BD     		pop	{r4, pc}
 208              		.cfi_endproc
 209              	.LFE120:
 210              		.size	tmInit, .-tmInit
 211 0046 00BFAFF3 		.section	.text.tmObjectInit,"ax",%progbits
 211      0080AFF3 
 211      0080
 212              		.align	2
 213              		.p2align 4,,15
 214              		.global	tmObjectInit
 215              		.thumb
 216              		.thumb_func
 217              		.type	tmObjectInit, %function
 218              	tmObjectInit:
 219              	.LFB121:
 220              		.loc 1 117 0
 221              		.cfi_startproc
 222              		@ args = 0, pretend = 0, frame = 0
 223              		@ frame_needed = 0, uses_anonymous_args = 0
 224              		@ link register save eliminated.
ARM GAS  /tmp/ccmg30ax.s 			page 5


 225              	.LVL8:
 226              		.loc 1 119 0
 227 0000 40F20002 		movw	r2, #:lower16:tm_start
 228 0004 C0F20002 		movt	r2, #:upper16:tm_start
 229              		.loc 1 121 0
 230 0008 0023     		movs	r3, #0
 231              		.loc 1 119 0
 232 000a 0260     		str	r2, [r0, #0]
 233              		.loc 1 120 0
 234 000c 40F20002 		movw	r2, #:lower16:tm_stop
 235 0010 C0F20002 		movt	r2, #:upper16:tm_stop
 236              		.loc 1 121 0
 237 0014 8360     		str	r3, [r0, #8]
 238              		.loc 1 122 0
 239 0016 C360     		str	r3, [r0, #12]
 240              		.loc 1 123 0
 241 0018 4FF0FF33 		mov	r3, #-1
 242              		.loc 1 120 0
 243 001c 4260     		str	r2, [r0, #4]
 244              		.loc 1 123 0
 245 001e 0361     		str	r3, [r0, #16]
 246 0020 7047     		bx	lr
 247              		.cfi_endproc
 248              	.LFE121:
 249              		.size	tmObjectInit, .-tmObjectInit
 250 0022 00BFAFF3 		.section	.bss.measurement_offset,"aw",%nobits
 250      0080AFF3 
 250      0080AFF3 
 250      0080
 251              		.align	2
 252              		.set	.LANCHOR0,. + 0
 253              		.type	measurement_offset, %object
 254              		.size	measurement_offset, 4
 255              	measurement_offset:
 256 0000 00000000 		.space	4
 257              		.text
 258              	.Letext0:
 259              		.file 2 "/opt/psas/x-tools/stm32f407/arm-psas-eabi/bin/../lib/gcc/arm-psas-eabi/4.7.2/../../../../
 260              		.file 3 "../../ChibiOS/os/ports/common/ARMCMx/nvic.h"
 261              		.file 4 "../../ChibiOS/os/hal/platforms/STM32F4xx/hal_lld.h"
 262              		.file 5 "../../ChibiOS/os/hal/include/tm.h"
 263              		.file 6 "../../ChibiOS/os/ports/common/ARMCMx/CMSIS/include/core_cm4.h"