ARM GAS  /tmp/cc7o1brM.s 			page 1


   1              		.syntax unified
   2              		.cpu cortex-m4
   3              		.eabi_attribute 27, 3
   4              		.eabi_attribute 28, 1
   5              		.fpu fpv4-sp-d16
   6              		.eabi_attribute 20, 1
   7              		.eabi_attribute 21, 1
   8              		.eabi_attribute 23, 3
   9              		.eabi_attribute 24, 1
  10              		.eabi_attribute 25, 1
  11              		.eabi_attribute 26, 1
  12              		.eabi_attribute 30, 2
  13              		.eabi_attribute 34, 1
  14              		.eabi_attribute 18, 4
  15              		.thumb
  16              		.file	"usb.c"
  17              		.text
  18              	.Ltext0:
  19              		.cfi_sections	.debug_frame
  20              		.section	.text.usbInit,"ax",%progbits
  21              		.align	2
  22              		.p2align 4,,15
  23              		.global	usbInit
  24              		.thumb
  25              		.thumb_func
  26              		.type	usbInit, %function
  27              	usbInit:
  28              	.LFB120:
  29              		.file 1 "../../ChibiOS/os/hal/src/usb.c"
  30              		.loc 1 228 0
  31              		.cfi_startproc
  32              		@ args = 0, pretend = 0, frame = 0
  33              		@ frame_needed = 0, uses_anonymous_args = 0
  34              		@ link register save eliminated.
  35              		.loc 1 231 0
  36              		.loc 1 230 0
  37 0000 FFF7FEBF 		b	usb_lld_init
  38              	.LVL0:
  39              		.cfi_endproc
  40              	.LFE120:
  41              		.size	usbInit, .-usbInit
  42 0004 AFF30080 		.section	.text.usbObjectInit,"ax",%progbits
  42      AFF30080 
  42      AFF30080 
  43              		.align	2
  44              		.p2align 4,,15
  45              		.global	usbObjectInit
  46              		.thumb
  47              		.thumb_func
  48              		.type	usbObjectInit, %function
  49              	usbObjectInit:
  50              	.LFB121:
  51              		.loc 1 240 0
  52              		.cfi_startproc
  53              		@ args = 0, pretend = 0, frame = 0
  54              		@ frame_needed = 0, uses_anonymous_args = 0
  55              		@ link register save eliminated.
ARM GAS  /tmp/cc7o1brM.s 			page 2


  56              	.LVL1:
  57              		.loc 1 244 0
  58 0000 0023     		movs	r3, #0
  59              		.loc 1 243 0
  60 0002 0122     		movs	r2, #1
  61 0004 0270     		strb	r2, [r0, #0]
  62              		.loc 1 244 0
  63 0006 4360     		str	r3, [r0, #4]
  64              	.LVL2:
  65              		.loc 1 246 0
  66 0008 C361     		str	r3, [r0, #28]
  67              		.loc 1 247 0
  68 000a 8362     		str	r3, [r0, #40]
  69              	.LVL3:
  70              		.loc 1 246 0
  71 000c 0362     		str	r3, [r0, #32]
  72              		.loc 1 247 0
  73 000e C362     		str	r3, [r0, #44]
  74              	.LVL4:
  75              		.loc 1 246 0
  76 0010 4362     		str	r3, [r0, #36]
  77              		.loc 1 247 0
  78 0012 0363     		str	r3, [r0, #48]
  79              	.LVL5:
  80              		.loc 1 249 0
  81 0014 0381     		strh	r3, [r0, #8]	@ movhi
  82              		.loc 1 250 0
  83 0016 4381     		strh	r3, [r0, #10]	@ movhi
  84 0018 7047     		bx	lr
  85              		.cfi_endproc
  86              	.LFE121:
  87              		.size	usbObjectInit, .-usbObjectInit
  88 001a 00BFAFF3 		.section	.text.usbStart,"ax",%progbits
  88      0080
  89              		.align	2
  90              		.p2align 4,,15
  91              		.global	usbStart
  92              		.thumb
  93              		.thumb_func
  94              		.type	usbStart, %function
  95              	usbStart:
  96              	.LFB122:
  97              		.loc 1 261 0
  98              		.cfi_startproc
  99              		@ args = 0, pretend = 0, frame = 0
 100              		@ frame_needed = 0, uses_anonymous_args = 0
 101              	.LVL6:
 102              		.loc 1 264 0
 103 0000 0028     		cmp	r0, #0
 104 0002 18BF     		it	ne
 105 0004 0029     		cmpne	r1, #0
 106              		.loc 1 261 0
 107 0006 70B5     		push	{r4, r5, r6, lr}
 108              	.LCFI0:
 109              		.cfi_def_cfa_offset 16
 110              		.cfi_offset 4, -16
 111              		.cfi_offset 5, -12
ARM GAS  /tmp/cc7o1brM.s 			page 3


 112              		.cfi_offset 6, -8
 113              		.cfi_offset 14, -4
 114              		.loc 1 264 0
 115 0008 0E46     		mov	r6, r1
 116 000a 0446     		mov	r4, r0
 117 000c 1CD0     		beq	.L10
 118              	.LVL7:
 119              	.L4:
 120              	.LBB2:
 121              		.loc 1 266 0
 122 000e 2023     		movs	r3, #32
 123              	.LVL8:
 124              	@ 266 "../../ChibiOS/os/hal/src/usb.c" 1
 125 0010 83F31188 		msr     BASEPRI, r3
 126              	@ 0 "" 2
 127              	.LVL9:
 128              		.thumb
 129              	.LBE2:
 130 0014 FFF7FEFF 		bl	dbg_check_lock
 131              	.LVL10:
 132              		.loc 1 267 0
 133 0018 2378     		ldrb	r3, [r4, #0]	@ zero_extendqisi2
 134 001a 013B     		subs	r3, r3, #1
 135 001c 012B     		cmp	r3, #1
 136 001e 02D9     		bls	.L5
 137              		.loc 1 267 0 is_stmt 0 discriminator 1
 138 0020 0B48     		ldr	r0, .L11
 139 0022 FFF7FEFF 		bl	chDbgPanic
 140              	.LVL11:
 141              	.L5:
 142              		.loc 1 271 0 is_stmt 1
 143 0026 0025     		movs	r5, #0
 144              		.loc 1 272 0
 145 0028 2046     		mov	r0, r4
 146              		.loc 1 269 0
 147 002a 6660     		str	r6, [r4, #4]
 148              	.LVL12:
 149              		.loc 1 271 0
 150 002c E560     		str	r5, [r4, #12]
 151              	.LVL13:
 152 002e 2561     		str	r5, [r4, #16]
 153              	.LVL14:
 154 0030 6561     		str	r5, [r4, #20]
 155              	.LVL15:
 156 0032 A561     		str	r5, [r4, #24]
 157              	.LVL16:
 158              		.loc 1 272 0
 159 0034 FFF7FEFF 		bl	usb_lld_start
 160              	.LVL17:
 161              		.loc 1 273 0
 162 0038 0223     		movs	r3, #2
 163 003a 2370     		strb	r3, [r4, #0]
 164              		.loc 1 274 0
 165 003c FFF7FEFF 		bl	dbg_check_unlock
 166              	.LVL18:
 167              	.LBB3:
 168 0040 2B46     		mov	r3, r5
ARM GAS  /tmp/cc7o1brM.s 			page 4


 169              	.LVL19:
 170              	@ 274 "../../ChibiOS/os/hal/src/usb.c" 1
 171 0042 83F31188 		msr     BASEPRI, r3
 172              	@ 0 "" 2
 173              	.LVL20:
 174              		.thumb
 175 0046 70BD     		pop	{r4, r5, r6, pc}
 176              	.LVL21:
 177              	.L10:
 178              	.LBE3:
 179              		.loc 1 264 0 discriminator 1
 180 0048 0248     		ldr	r0, .L11+4
 181              	.LVL22:
 182 004a FFF7FEFF 		bl	chDbgPanic
 183              	.LVL23:
 184 004e DEE7     		b	.L4
 185              	.L12:
 186              		.align	2
 187              	.L11:
 188 0050 10000000 		.word	.LC1
 189 0054 00000000 		.word	.LC0
 190              		.cfi_endproc
 191              	.LFE122:
 192              		.size	usbStart, .-usbStart
 193 0058 AFF30080 		.section	.text.usbStop,"ax",%progbits
 193      AFF30080 
 194              		.align	2
 195              		.p2align 4,,15
 196              		.global	usbStop
 197              		.thumb
 198              		.thumb_func
 199              		.type	usbStop, %function
 200              	usbStop:
 201              	.LFB123:
 202              		.loc 1 284 0
 203              		.cfi_startproc
 204              		@ args = 0, pretend = 0, frame = 0
 205              		@ frame_needed = 0, uses_anonymous_args = 0
 206              	.LVL24:
 207 0000 10B5     		push	{r4, lr}
 208              	.LCFI1:
 209              		.cfi_def_cfa_offset 8
 210              		.cfi_offset 4, -8
 211              		.cfi_offset 14, -4
 212              		.loc 1 286 0
 213 0002 0446     		mov	r4, r0
 214 0004 B0B1     		cbz	r0, .L16
 215              	.LVL25:
 216              	.L14:
 217              	.LBB4:
 218              		.loc 1 288 0
 219 0006 2023     		movs	r3, #32
 220              	.LVL26:
 221              	@ 288 "../../ChibiOS/os/hal/src/usb.c" 1
 222 0008 83F31188 		msr     BASEPRI, r3
 223              	@ 0 "" 2
 224              	.LVL27:
ARM GAS  /tmp/cc7o1brM.s 			page 5


 225              		.thumb
 226              	.LBE4:
 227 000c FFF7FEFF 		bl	dbg_check_lock
 228              	.LVL28:
 229              		.loc 1 289 0
 230 0010 2378     		ldrb	r3, [r4, #0]	@ zero_extendqisi2
 231 0012 013B     		subs	r3, r3, #1
 232 0014 032B     		cmp	r3, #3
 233 0016 02D9     		bls	.L15
 234              		.loc 1 289 0 is_stmt 0 discriminator 1
 235 0018 0848     		ldr	r0, .L17
 236 001a FFF7FEFF 		bl	chDbgPanic
 237              	.LVL29:
 238              	.L15:
 239              		.loc 1 292 0 is_stmt 1
 240 001e 2046     		mov	r0, r4
 241 0020 FFF7FEFF 		bl	usb_lld_stop
 242              	.LVL30:
 243              		.loc 1 293 0
 244 0024 0123     		movs	r3, #1
 245 0026 2370     		strb	r3, [r4, #0]
 246              		.loc 1 294 0
 247 0028 FFF7FEFF 		bl	dbg_check_unlock
 248              	.LVL31:
 249              	.LBB5:
 250 002c 0023     		movs	r3, #0
 251              	.LVL32:
 252              	@ 294 "../../ChibiOS/os/hal/src/usb.c" 1
 253 002e 83F31188 		msr     BASEPRI, r3
 254              	@ 0 "" 2
 255              	.LVL33:
 256              		.thumb
 257 0032 10BD     		pop	{r4, pc}
 258              	.LVL34:
 259              	.L16:
 260              	.LBE5:
 261              		.loc 1 286 0 discriminator 1
 262 0034 0248     		ldr	r0, .L17+4
 263              	.LVL35:
 264 0036 FFF7FEFF 		bl	chDbgPanic
 265              	.LVL36:
 266 003a E4E7     		b	.L14
 267              	.L18:
 268              		.align	2
 269              	.L17:
 270 003c 2C000000 		.word	.LC3
 271 0040 20000000 		.word	.LC2
 272              		.cfi_endproc
 273              	.LFE123:
 274              		.size	usbStop, .-usbStop
 275 0044 AFF30080 		.section	.text.usbInitEndpointI,"ax",%progbits
 275      AFF30080 
 275      AFF30080 
 276              		.align	2
 277              		.p2align 4,,15
 278              		.global	usbInitEndpointI
 279              		.thumb
ARM GAS  /tmp/cc7o1brM.s 			page 6


 280              		.thumb_func
 281              		.type	usbInitEndpointI, %function
 282              	usbInitEndpointI:
 283              	.LFB124:
 284              		.loc 1 311 0
 285              		.cfi_startproc
 286              		@ args = 0, pretend = 0, frame = 0
 287              		@ frame_needed = 0, uses_anonymous_args = 0
 288              	.LVL37:
 289 0000 F8B5     		push	{r3, r4, r5, r6, r7, lr}
 290              	.LCFI2:
 291              		.cfi_def_cfa_offset 24
 292              		.cfi_offset 3, -24
 293              		.cfi_offset 4, -20
 294              		.cfi_offset 5, -16
 295              		.cfi_offset 6, -12
 296              		.cfi_offset 7, -8
 297              		.cfi_offset 14, -4
 298              		.loc 1 311 0
 299 0002 0446     		mov	r4, r0
 300 0004 1546     		mov	r5, r2
 301 0006 0E46     		mov	r6, r1
 302              		.loc 1 313 0
 303 0008 FFF7FEFF 		bl	chDbgCheckClassI
 304              	.LVL38:
 305              		.loc 1 314 0
 306 000c 002C     		cmp	r4, #0
 307 000e 18BF     		it	ne
 308 0010 002D     		cmpne	r5, #0
 309 0012 22D0     		beq	.L40
 310              	.L20:
 311              		.loc 1 315 0
 312 0014 2378     		ldrb	r3, [r4, #0]	@ zero_extendqisi2
 313 0016 042B     		cmp	r3, #4
 314 0018 02D0     		beq	.L21
 315              		.loc 1 315 0 is_stmt 0 discriminator 1
 316 001a 1248     		ldr	r0, .L41
 317 001c FFF7FEFF 		bl	chDbgPanic
 318              	.LVL39:
 319              	.L21:
 320              		.loc 1 317 0 is_stmt 1
 321 0020 B71C     		adds	r7, r6, #2
 322 0022 04EB8703 		add	r3, r4, r7, lsl #2
 323 0026 5B68     		ldr	r3, [r3, #4]
 324 0028 13B1     		cbz	r3, .L22
 325              		.loc 1 317 0 is_stmt 0 discriminator 1
 326 002a 0F48     		ldr	r0, .L41+4
 327 002c FFF7FEFF 		bl	chDbgPanic
 328              	.LVL40:
 329              	.L22:
 330              		.loc 1 321 0 is_stmt 1
 331 0030 6869     		ldr	r0, [r5, #20]
 332 0032 18B1     		cbz	r0, .L23
 333              		.loc 1 322 0
 334 0034 0021     		movs	r1, #0
 335 0036 1022     		movs	r2, #16
 336 0038 FFF7FEFF 		bl	memset
ARM GAS  /tmp/cc7o1brM.s 			page 7


 337              	.LVL41:
 338              	.L23:
 339              		.loc 1 323 0
 340 003c A869     		ldr	r0, [r5, #24]
 341 003e 18B1     		cbz	r0, .L24
 342              		.loc 1 324 0
 343 0040 0021     		movs	r1, #0
 344 0042 1022     		movs	r2, #16
 345 0044 FFF7FEFF 		bl	memset
 346              	.LVL42:
 347              	.L24:
 348              		.loc 1 326 0
 349 0048 04EB8707 		add	r7, r4, r7, lsl #2
 350              		.loc 1 329 0
 351 004c 2046     		mov	r0, r4
 352 004e 3146     		mov	r1, r6
 353              		.loc 1 326 0
 354 0050 7D60     		str	r5, [r7, #4]
 355              		.loc 1 330 0
 356 0052 BDE8F840 		pop	{r3, r4, r5, r6, r7, lr}
 357              		.loc 1 329 0
 358 0056 FFF7FEBF 		b	usb_lld_init_endpoint
 359              	.LVL43:
 360              	.L40:
 361              		.loc 1 314 0 discriminator 1
 362 005a 0448     		ldr	r0, .L41+8
 363 005c FFF7FEFF 		bl	chDbgPanic
 364              	.LVL44:
 365 0060 D8E7     		b	.L20
 366              	.L42:
 367 0062 00BF     		.align	2
 368              	.L41:
 369 0064 54000000 		.word	.LC5
 370 0068 70000000 		.word	.LC6
 371 006c 3C000000 		.word	.LC4
 372              		.cfi_endproc
 373              	.LFE124:
 374              		.size	usbInitEndpointI, .-usbInitEndpointI
 375              		.section	.text.usbDisableEndpointsI,"ax",%progbits
 376              		.align	2
 377              		.p2align 4,,15
 378              		.global	usbDisableEndpointsI
 379              		.thumb
 380              		.thumb_func
 381              		.type	usbDisableEndpointsI, %function
 382              	usbDisableEndpointsI:
 383              	.LFB125:
 384              		.loc 1 343 0
 385              		.cfi_startproc
 386              		@ args = 0, pretend = 0, frame = 0
 387              		@ frame_needed = 0, uses_anonymous_args = 0
 388              	.LVL45:
 389 0000 10B5     		push	{r4, lr}
 390              	.LCFI3:
 391              		.cfi_def_cfa_offset 8
 392              		.cfi_offset 4, -8
 393              		.cfi_offset 14, -4
ARM GAS  /tmp/cc7o1brM.s 			page 8


 394              		.loc 1 343 0
 395 0002 0446     		mov	r4, r0
 396              		.loc 1 346 0
 397 0004 FFF7FEFF 		bl	chDbgCheckClassI
 398              	.LVL46:
 399              		.loc 1 347 0
 400 0008 B4B1     		cbz	r4, .L49
 401              	.L44:
 402              		.loc 1 348 0
 403 000a 2378     		ldrb	r3, [r4, #0]	@ zero_extendqisi2
 404 000c 032B     		cmp	r3, #3
 405 000e 02D0     		beq	.L45
 406              		.loc 1 348 0 is_stmt 0 discriminator 1
 407 0010 0B48     		ldr	r0, .L50
 408 0012 FFF7FEFF 		bl	chDbgPanic
 409              	.LVL47:
 410              	.L45:
 411              		.loc 1 351 0 is_stmt 1
 412 0016 2189     		ldrh	r1, [r4, #8]
 413              		.loc 1 352 0
 414 0018 6289     		ldrh	r2, [r4, #10]
 415              		.loc 1 354 0
 416 001a 0023     		movs	r3, #0
 417              		.loc 1 351 0
 418 001c 21F00101 		bic	r1, r1, #1
 419              		.loc 1 352 0
 420 0020 22F00102 		bic	r2, r2, #1
 421              		.loc 1 357 0
 422 0024 2046     		mov	r0, r4
 423              		.loc 1 351 0
 424 0026 2181     		strh	r1, [r4, #8]	@ movhi
 425              		.loc 1 352 0
 426 0028 6281     		strh	r2, [r4, #10]	@ movhi
 427              	.LVL48:
 428              		.loc 1 354 0
 429 002a 2361     		str	r3, [r4, #16]
 430              	.LVL49:
 431 002c 6361     		str	r3, [r4, #20]
 432              	.LVL50:
 433 002e A361     		str	r3, [r4, #24]
 434              	.LVL51:
 435              		.loc 1 358 0
 436 0030 BDE81040 		pop	{r4, lr}
 437              		.loc 1 357 0
 438 0034 FFF7FEBF 		b	usb_lld_disable_endpoints
 439              	.LVL52:
 440              	.L49:
 441              		.loc 1 347 0 discriminator 1
 442 0038 0248     		ldr	r0, .L50+4
 443 003a FFF7FEFF 		bl	chDbgPanic
 444              	.LVL53:
 445 003e E4E7     		b	.L44
 446              	.L51:
 447              		.align	2
 448              	.L50:
 449 0040 A8000000 		.word	.LC8
 450 0044 8C000000 		.word	.LC7
ARM GAS  /tmp/cc7o1brM.s 			page 9


 451              		.cfi_endproc
 452              	.LFE125:
 453              		.size	usbDisableEndpointsI, .-usbDisableEndpointsI
 454 0048 AFF30080 		.section	.text.usbPrepareReceive,"ax",%progbits
 454      AFF30080 
 455              		.align	2
 456              		.p2align 4,,15
 457              		.global	usbPrepareReceive
 458              		.thumb
 459              		.thumb_func
 460              		.type	usbPrepareReceive, %function
 461              	usbPrepareReceive:
 462              	.LFB126:
 463              		.loc 1 372 0
 464              		.cfi_startproc
 465              		@ args = 0, pretend = 0, frame = 0
 466              		@ frame_needed = 0, uses_anonymous_args = 0
 467              		@ link register save eliminated.
 468              	.LVL54:
 469 0000 30B4     		push	{r4, r5}
 470              	.LCFI4:
 471              		.cfi_def_cfa_offset 8
 472              		.cfi_offset 4, -8
 473              		.cfi_offset 5, -4
 474              		.loc 1 373 0
 475 0002 00EB8104 		add	r4, r0, r1, lsl #2
 476              		.loc 1 375 0
 477 0006 0025     		movs	r5, #0
 478              		.loc 1 373 0
 479 0008 E468     		ldr	r4, [r4, #12]
 480 000a A469     		ldr	r4, [r4, #24]
 481              	.LVL55:
 482              		.loc 1 375 0
 483 000c 2570     		strb	r5, [r4, #0]
 484              		.loc 1 376 0
 485 000e E260     		str	r2, [r4, #12]
 486              		.loc 1 377 0
 487 0010 6360     		str	r3, [r4, #4]
 488              		.loc 1 378 0
 489 0012 A560     		str	r5, [r4, #8]
 490              		.loc 1 381 0
 491 0014 30BC     		pop	{r4, r5}
 492              		.loc 1 380 0
 493 0016 FFF7FEBF 		b	usb_lld_prepare_receive
 494              	.LVL56:
 495              		.cfi_endproc
 496              	.LFE126:
 497              		.size	usbPrepareReceive, .-usbPrepareReceive
 498 001a 00BFAFF3 		.section	.text.usbPrepareTransmit,"ax",%progbits
 498      0080
 499              		.align	2
 500              		.p2align 4,,15
 501              		.global	usbPrepareTransmit
 502              		.thumb
 503              		.thumb_func
 504              		.type	usbPrepareTransmit, %function
 505              	usbPrepareTransmit:
ARM GAS  /tmp/cc7o1brM.s 			page 10


 506              	.LFB127:
 507              		.loc 1 398 0
 508              		.cfi_startproc
 509              		@ args = 0, pretend = 0, frame = 0
 510              		@ frame_needed = 0, uses_anonymous_args = 0
 511              		@ link register save eliminated.
 512              	.LVL57:
 513 0000 30B4     		push	{r4, r5}
 514              	.LCFI5:
 515              		.cfi_def_cfa_offset 8
 516              		.cfi_offset 4, -8
 517              		.cfi_offset 5, -4
 518              		.loc 1 399 0
 519 0002 00EB8104 		add	r4, r0, r1, lsl #2
 520              		.loc 1 401 0
 521 0006 0025     		movs	r5, #0
 522              		.loc 1 399 0
 523 0008 E468     		ldr	r4, [r4, #12]
 524 000a 6469     		ldr	r4, [r4, #20]
 525              	.LVL58:
 526              		.loc 1 401 0
 527 000c 2570     		strb	r5, [r4, #0]
 528              		.loc 1 402 0
 529 000e E260     		str	r2, [r4, #12]
 530              		.loc 1 403 0
 531 0010 6360     		str	r3, [r4, #4]
 532              		.loc 1 404 0
 533 0012 A560     		str	r5, [r4, #8]
 534              		.loc 1 407 0
 535 0014 30BC     		pop	{r4, r5}
 536              		.loc 1 406 0
 537 0016 FFF7FEBF 		b	usb_lld_prepare_transmit
 538              	.LVL59:
 539              		.cfi_endproc
 540              	.LFE127:
 541              		.size	usbPrepareTransmit, .-usbPrepareTransmit
 542 001a 00BFAFF3 		.section	.text.usbPrepareQueuedReceive,"ax",%progbits
 542      0080
 543              		.align	2
 544              		.p2align 4,,15
 545              		.global	usbPrepareQueuedReceive
 546              		.thumb
 547              		.thumb_func
 548              		.type	usbPrepareQueuedReceive, %function
 549              	usbPrepareQueuedReceive:
 550              	.LFB128:
 551              		.loc 1 427 0
 552              		.cfi_startproc
 553              		@ args = 0, pretend = 0, frame = 0
 554              		@ frame_needed = 0, uses_anonymous_args = 0
 555              		@ link register save eliminated.
 556              	.LVL60:
 557 0000 30B4     		push	{r4, r5}
 558              	.LCFI6:
 559              		.cfi_def_cfa_offset 8
 560              		.cfi_offset 4, -8
 561              		.cfi_offset 5, -4
ARM GAS  /tmp/cc7o1brM.s 			page 11


 562              		.loc 1 428 0
 563 0002 00EB8104 		add	r4, r0, r1, lsl #2
 564              		.loc 1 430 0
 565 0006 0125     		movs	r5, #1
 566              		.loc 1 428 0
 567 0008 E468     		ldr	r4, [r4, #12]
 568 000a A469     		ldr	r4, [r4, #24]
 569              	.LVL61:
 570              		.loc 1 432 0
 571 000c 6360     		str	r3, [r4, #4]
 572              		.loc 1 433 0
 573 000e 0023     		movs	r3, #0
 574              	.LVL62:
 575              		.loc 1 430 0
 576 0010 2570     		strb	r5, [r4, #0]
 577              		.loc 1 431 0
 578 0012 E260     		str	r2, [r4, #12]
 579              		.loc 1 433 0
 580 0014 A360     		str	r3, [r4, #8]
 581              		.loc 1 436 0
 582 0016 30BC     		pop	{r4, r5}
 583              		.loc 1 435 0
 584 0018 FFF7FEBF 		b	usb_lld_prepare_receive
 585              	.LVL63:
 586              		.cfi_endproc
 587              	.LFE128:
 588              		.size	usbPrepareQueuedReceive, .-usbPrepareQueuedReceive
 589 001c AFF30080 		.section	.text.usbPrepareQueuedTransmit,"ax",%progbits
 590              		.align	2
 591              		.p2align 4,,15
 592              		.global	usbPrepareQueuedTransmit
 593              		.thumb
 594              		.thumb_func
 595              		.type	usbPrepareQueuedTransmit, %function
 596              	usbPrepareQueuedTransmit:
 597              	.LFB129:
 598              		.loc 1 453 0
 599              		.cfi_startproc
 600              		@ args = 0, pretend = 0, frame = 0
 601              		@ frame_needed = 0, uses_anonymous_args = 0
 602              		@ link register save eliminated.
 603              	.LVL64:
 604 0000 30B4     		push	{r4, r5}
 605              	.LCFI7:
 606              		.cfi_def_cfa_offset 8
 607              		.cfi_offset 4, -8
 608              		.cfi_offset 5, -4
 609              		.loc 1 454 0
 610 0002 00EB8104 		add	r4, r0, r1, lsl #2
 611              		.loc 1 456 0
 612 0006 0125     		movs	r5, #1
 613              		.loc 1 454 0
 614 0008 E468     		ldr	r4, [r4, #12]
 615 000a 6469     		ldr	r4, [r4, #20]
 616              	.LVL65:
 617              		.loc 1 458 0
 618 000c 6360     		str	r3, [r4, #4]
ARM GAS  /tmp/cc7o1brM.s 			page 12


 619              		.loc 1 459 0
 620 000e 0023     		movs	r3, #0
 621              	.LVL66:
 622              		.loc 1 456 0
 623 0010 2570     		strb	r5, [r4, #0]
 624              		.loc 1 457 0
 625 0012 E260     		str	r2, [r4, #12]
 626              		.loc 1 459 0
 627 0014 A360     		str	r3, [r4, #8]
 628              		.loc 1 462 0
 629 0016 30BC     		pop	{r4, r5}
 630              		.loc 1 461 0
 631 0018 FFF7FEBF 		b	usb_lld_prepare_transmit
 632              	.LVL67:
 633              		.cfi_endproc
 634              	.LFE129:
 635              		.size	usbPrepareQueuedTransmit, .-usbPrepareQueuedTransmit
 636 001c AFF30080 		.section	.text.usbStartReceiveI,"ax",%progbits
 637              		.align	2
 638              		.p2align 4,,15
 639              		.global	usbStartReceiveI
 640              		.thumb
 641              		.thumb_func
 642              		.type	usbStartReceiveI, %function
 643              	usbStartReceiveI:
 644              	.LFB130:
 645              		.loc 1 478 0
 646              		.cfi_startproc
 647              		@ args = 0, pretend = 0, frame = 0
 648              		@ frame_needed = 0, uses_anonymous_args = 0
 649              	.LVL68:
 650 0000 70B5     		push	{r4, r5, r6, lr}
 651              	.LCFI8:
 652              		.cfi_def_cfa_offset 16
 653              		.cfi_offset 4, -16
 654              		.cfi_offset 5, -12
 655              		.cfi_offset 6, -8
 656              		.cfi_offset 14, -4
 657              		.loc 1 478 0
 658 0002 0446     		mov	r4, r0
 659 0004 0D46     		mov	r5, r1
 660              		.loc 1 480 0
 661 0006 FFF7FEFF 		bl	chDbgCheckClassI
 662              	.LVL69:
 663              		.loc 1 481 0
 664 000a 94B1     		cbz	r4, .L60
 665              	.L57:
 666              		.loc 1 483 0
 667 000c 6389     		ldrh	r3, [r4, #10]
 668 000e 43FA05F0 		asr	r0, r3, r5
 669 0012 10F00106 		ands	r6, r0, #1
 670 0016 01D0     		beq	.L61
 671              		.loc 1 484 0
 672 0018 0120     		movs	r0, #1
 673              		.loc 1 489 0
 674 001a 70BD     		pop	{r4, r5, r6, pc}
 675              	.L61:
ARM GAS  /tmp/cc7o1brM.s 			page 13


 676              		.loc 1 486 0
 677 001c 0122     		movs	r2, #1
 678 001e 02FA05F2 		lsl	r2, r2, r5
 679 0022 1343     		orrs	r3, r3, r2
 680              		.loc 1 487 0
 681 0024 2046     		mov	r0, r4
 682              		.loc 1 486 0
 683 0026 6381     		strh	r3, [r4, #10]	@ movhi
 684              		.loc 1 487 0
 685 0028 2946     		mov	r1, r5
 686 002a FFF7FEFF 		bl	usb_lld_start_out
 687              	.LVL70:
 688              		.loc 1 488 0
 689 002e 3046     		mov	r0, r6
 690 0030 70BD     		pop	{r4, r5, r6, pc}
 691              	.L60:
 692              		.loc 1 481 0 discriminator 1
 693 0032 0248     		ldr	r0, .L62
 694 0034 FFF7FEFF 		bl	chDbgPanic
 695              	.LVL71:
 696 0038 E8E7     		b	.L57
 697              	.L63:
 698 003a 00BF     		.align	2
 699              	.L62:
 700 003c C4000000 		.word	.LC9
 701              		.cfi_endproc
 702              	.LFE130:
 703              		.size	usbStartReceiveI, .-usbStartReceiveI
 704              		.section	.text.usbStartTransmitI,"ax",%progbits
 705              		.align	2
 706              		.p2align 4,,15
 707              		.global	usbStartTransmitI
 708              		.thumb
 709              		.thumb_func
 710              		.type	usbStartTransmitI, %function
 711              	usbStartTransmitI:
 712              	.LFB131:
 713              		.loc 1 505 0
 714              		.cfi_startproc
 715              		@ args = 0, pretend = 0, frame = 0
 716              		@ frame_needed = 0, uses_anonymous_args = 0
 717              	.LVL72:
 718 0000 70B5     		push	{r4, r5, r6, lr}
 719              	.LCFI9:
 720              		.cfi_def_cfa_offset 16
 721              		.cfi_offset 4, -16
 722              		.cfi_offset 5, -12
 723              		.cfi_offset 6, -8
 724              		.cfi_offset 14, -4
 725              		.loc 1 505 0
 726 0002 0446     		mov	r4, r0
 727 0004 0D46     		mov	r5, r1
 728              		.loc 1 507 0
 729 0006 FFF7FEFF 		bl	chDbgCheckClassI
 730              	.LVL73:
 731              		.loc 1 508 0
 732 000a 94B1     		cbz	r4, .L68
ARM GAS  /tmp/cc7o1brM.s 			page 14


 733              	.L65:
 734              		.loc 1 510 0
 735 000c 2389     		ldrh	r3, [r4, #8]
 736 000e 43FA05F0 		asr	r0, r3, r5
 737 0012 10F00106 		ands	r6, r0, #1
 738 0016 01D0     		beq	.L69
 739              		.loc 1 511 0
 740 0018 0120     		movs	r0, #1
 741              		.loc 1 516 0
 742 001a 70BD     		pop	{r4, r5, r6, pc}
 743              	.L69:
 744              		.loc 1 513 0
 745 001c 0122     		movs	r2, #1
 746 001e 02FA05F2 		lsl	r2, r2, r5
 747 0022 1343     		orrs	r3, r3, r2
 748              		.loc 1 514 0
 749 0024 2046     		mov	r0, r4
 750              		.loc 1 513 0
 751 0026 2381     		strh	r3, [r4, #8]	@ movhi
 752              		.loc 1 514 0
 753 0028 2946     		mov	r1, r5
 754 002a FFF7FEFF 		bl	usb_lld_start_in
 755              	.LVL74:
 756              		.loc 1 515 0
 757 002e 3046     		mov	r0, r6
 758 0030 70BD     		pop	{r4, r5, r6, pc}
 759              	.L68:
 760              		.loc 1 508 0 discriminator 1
 761 0032 0248     		ldr	r0, .L70
 762 0034 FFF7FEFF 		bl	chDbgPanic
 763              	.LVL75:
 764 0038 E8E7     		b	.L65
 765              	.L71:
 766 003a 00BF     		.align	2
 767              	.L70:
 768 003c DC000000 		.word	.LC10
 769              		.cfi_endproc
 770              	.LFE131:
 771              		.size	usbStartTransmitI, .-usbStartTransmitI
 772              		.section	.text.usbStallReceiveI,"ax",%progbits
 773              		.align	2
 774              		.p2align 4,,15
 775              		.global	usbStallReceiveI
 776              		.thumb
 777              		.thumb_func
 778              		.type	usbStallReceiveI, %function
 779              	usbStallReceiveI:
 780              	.LFB132:
 781              		.loc 1 530 0
 782              		.cfi_startproc
 783              		@ args = 0, pretend = 0, frame = 0
 784              		@ frame_needed = 0, uses_anonymous_args = 0
 785              	.LVL76:
 786 0000 70B5     		push	{r4, r5, r6, lr}
 787              	.LCFI10:
 788              		.cfi_def_cfa_offset 16
 789              		.cfi_offset 4, -16
ARM GAS  /tmp/cc7o1brM.s 			page 15


 790              		.cfi_offset 5, -12
 791              		.cfi_offset 6, -8
 792              		.cfi_offset 14, -4
 793              		.loc 1 530 0
 794 0002 0446     		mov	r4, r0
 795 0004 0D46     		mov	r5, r1
 796              		.loc 1 532 0
 797 0006 FFF7FEFF 		bl	chDbgCheckClassI
 798              	.LVL77:
 799              		.loc 1 533 0
 800 000a 6CB1     		cbz	r4, .L76
 801              	.L73:
 802              		.loc 1 535 0
 803 000c 6089     		ldrh	r0, [r4, #10]
 804 000e 40FA05F0 		asr	r0, r0, r5
 805 0012 10F00106 		ands	r6, r0, #1
 806 0016 01D0     		beq	.L77
 807              		.loc 1 536 0
 808 0018 0120     		movs	r0, #1
 809              		.loc 1 540 0
 810 001a 70BD     		pop	{r4, r5, r6, pc}
 811              	.L77:
 812              		.loc 1 538 0
 813 001c 2046     		mov	r0, r4
 814 001e 2946     		mov	r1, r5
 815 0020 FFF7FEFF 		bl	usb_lld_stall_out
 816              	.LVL78:
 817              		.loc 1 539 0
 818 0024 3046     		mov	r0, r6
 819 0026 70BD     		pop	{r4, r5, r6, pc}
 820              	.L76:
 821              		.loc 1 533 0 discriminator 1
 822 0028 0148     		ldr	r0, .L78
 823 002a FFF7FEFF 		bl	chDbgPanic
 824              	.LVL79:
 825 002e EDE7     		b	.L73
 826              	.L79:
 827              		.align	2
 828              	.L78:
 829 0030 F4000000 		.word	.LC11
 830              		.cfi_endproc
 831              	.LFE132:
 832              		.size	usbStallReceiveI, .-usbStallReceiveI
 833 0034 AFF30080 		.section	.text.usbStallTransmitI,"ax",%progbits
 833      AFF30080 
 833      AFF30080 
 834              		.align	2
 835              		.p2align 4,,15
 836              		.global	usbStallTransmitI
 837              		.thumb
 838              		.thumb_func
 839              		.type	usbStallTransmitI, %function
 840              	usbStallTransmitI:
 841              	.LFB133:
 842              		.loc 1 554 0
 843              		.cfi_startproc
 844              		@ args = 0, pretend = 0, frame = 0
ARM GAS  /tmp/cc7o1brM.s 			page 16


 845              		@ frame_needed = 0, uses_anonymous_args = 0
 846              	.LVL80:
 847 0000 70B5     		push	{r4, r5, r6, lr}
 848              	.LCFI11:
 849              		.cfi_def_cfa_offset 16
 850              		.cfi_offset 4, -16
 851              		.cfi_offset 5, -12
 852              		.cfi_offset 6, -8
 853              		.cfi_offset 14, -4
 854              		.loc 1 554 0
 855 0002 0446     		mov	r4, r0
 856 0004 0D46     		mov	r5, r1
 857              		.loc 1 556 0
 858 0006 FFF7FEFF 		bl	chDbgCheckClassI
 859              	.LVL81:
 860              		.loc 1 557 0
 861 000a 6CB1     		cbz	r4, .L84
 862              	.L81:
 863              		.loc 1 559 0
 864 000c 2089     		ldrh	r0, [r4, #8]
 865 000e 40FA05F0 		asr	r0, r0, r5
 866 0012 10F00106 		ands	r6, r0, #1
 867 0016 01D0     		beq	.L85
 868              		.loc 1 560 0
 869 0018 0120     		movs	r0, #1
 870              		.loc 1 564 0
 871 001a 70BD     		pop	{r4, r5, r6, pc}
 872              	.L85:
 873              		.loc 1 562 0
 874 001c 2046     		mov	r0, r4
 875 001e 2946     		mov	r1, r5
 876 0020 FFF7FEFF 		bl	usb_lld_stall_in
 877              	.LVL82:
 878              		.loc 1 563 0
 879 0024 3046     		mov	r0, r6
 880 0026 70BD     		pop	{r4, r5, r6, pc}
 881              	.L84:
 882              		.loc 1 557 0 discriminator 1
 883 0028 0148     		ldr	r0, .L86
 884 002a FFF7FEFF 		bl	chDbgPanic
 885              	.LVL83:
 886 002e EDE7     		b	.L81
 887              	.L87:
 888              		.align	2
 889              	.L86:
 890 0030 0C010000 		.word	.LC12
 891              		.cfi_endproc
 892              	.LFE133:
 893              		.size	usbStallTransmitI, .-usbStallTransmitI
 894 0034 AFF30080 		.section	.text._usb_reset,"ax",%progbits
 894      AFF30080 
 894      AFF30080 
 895              		.align	2
 896              		.p2align 4,,15
 897              		.global	_usb_reset
 898              		.thumb
 899              		.thumb_func
ARM GAS  /tmp/cc7o1brM.s 			page 17


 900              		.type	_usb_reset, %function
 901              	_usb_reset:
 902              	.LFB134:
 903              		.loc 1 575 0
 904              		.cfi_startproc
 905              		@ args = 0, pretend = 0, frame = 0
 906              		@ frame_needed = 0, uses_anonymous_args = 0
 907              		@ link register save eliminated.
 908              	.LVL84:
 909 0000 10B4     		push	{r4}
 910              	.LCFI12:
 911              		.cfi_def_cfa_offset 4
 912              		.cfi_offset 4, -4
 913              		.loc 1 575 0
 914 0002 0346     		mov	r3, r0
 915              		.loc 1 579 0
 916 0004 0022     		movs	r2, #0
 917              		.loc 1 578 0
 918 0006 0224     		movs	r4, #2
 919 0008 0470     		strb	r4, [r0, #0]
 920              		.loc 1 579 0
 921 000a A0F84C20 		strh	r2, [r0, #76]	@ movhi
 922              		.loc 1 580 0
 923 000e 83F84E20 		strb	r2, [r3, #78]
 924              		.loc 1 581 0
 925 0012 80F84F20 		strb	r2, [r0, #79]
 926              		.loc 1 582 0
 927 0016 0281     		strh	r2, [r0, #8]	@ movhi
 928              		.loc 1 583 0
 929 0018 4281     		strh	r2, [r0, #10]	@ movhi
 930              	.LVL85:
 931              		.loc 1 587 0
 932 001a C260     		str	r2, [r0, #12]
 933              	.LVL86:
 934 001c 0261     		str	r2, [r0, #16]
 935              	.LVL87:
 936 001e 4261     		str	r2, [r0, #20]
 937              	.LVL88:
 938 0020 8261     		str	r2, [r0, #24]
 939              	.LVL89:
 940              		.loc 1 590 0
 941 0022 83F83420 		strb	r2, [r3, #52]
 942              		.loc 1 594 0
 943 0026 10BC     		pop	{r4}
 944              		.loc 1 593 0
 945 0028 FFF7FEBF 		b	usb_lld_reset
 946              	.LVL90:
 947              		.cfi_endproc
 948              	.LFE134:
 949              		.size	_usb_reset, .-_usb_reset
 950 002c AFF30080 		.section	.text._usb_ep0setup,"ax",%progbits
 951              		.align	2
 952              		.p2align 4,,15
 953              		.global	_usb_ep0setup
 954              		.thumb
 955              		.thumb_func
 956              		.type	_usb_ep0setup, %function
ARM GAS  /tmp/cc7o1brM.s 			page 18


 957              	_usb_ep0setup:
 958              	.LFB135:
 959              		.loc 1 606 0
 960              		.cfi_startproc
 961              		@ args = 0, pretend = 0, frame = 0
 962              		@ frame_needed = 0, uses_anonymous_args = 0
 963              	.LVL91:
 964 0000 F8B5     		push	{r3, r4, r5, r6, r7, lr}
 965              	.LCFI13:
 966              		.cfi_def_cfa_offset 24
 967              		.cfi_offset 3, -24
 968              		.cfi_offset 4, -20
 969              		.cfi_offset 5, -16
 970              		.cfi_offset 6, -12
 971              		.cfi_offset 7, -8
 972              		.cfi_offset 14, -4
 973              		.loc 1 609 0
 974 0002 0023     		movs	r3, #0
 975              		.loc 1 606 0
 976 0004 0446     		mov	r4, r0
 977              		.loc 1 609 0
 978 0006 80F83430 		strb	r3, [r0, #52]
 979              		.loc 1 610 0
 980 000a 00F14402 		add	r2, r0, #68
 981 000e FFF7FEFF 		bl	usb_lld_read_setup
 982              	.LVL92:
 983              		.loc 1 614 0
 984 0012 6368     		ldr	r3, [r4, #4]
 985 0014 9B68     		ldr	r3, [r3, #8]
 986 0016 002B     		cmp	r3, #0
 987 0018 2DD0     		beq	.L94
 988              		.loc 1 615 0 discriminator 1
 989 001a 2046     		mov	r0, r4
 990 001c 9847     		blx	r3
 991              	.LVL93:
 992              		.loc 1 614 0 discriminator 1
 993 001e 50B3     		cbz	r0, .L94
 994 0020 E56B     		ldr	r5, [r4, #60]
 995 0022 94F84430 		ldrb	r3, [r4, #68]	@ zero_extendqisi2
 996              	.L133:
 997              		.loc 1 634 0
 998 0026 94F84B10 		ldrb	r1, [r4, #75]	@ zero_extendqisi2
 999 002a 94F84A20 		ldrb	r2, [r4, #74]	@ zero_extendqisi2
 1000 002e 42EA0122 		orr	r2, r2, r1, lsl #8
 1001              	.LVL94:
 1002              		.loc 1 636 0
 1003 0032 AA42     		cmp	r2, r5
 1004              		.loc 1 637 0
 1005 0034 3CBF     		itt	cc
 1006 0036 1546     		movcc	r5, r2
 1007 0038 E263     		strcc	r2, [r4, #60]
 1008              		.loc 1 638 0
 1009 003a 13F0800F 		tst	r3, #128
 1010              		.loc 1 643 0
 1011 003e 2B46     		mov	r3, r5
 1012              		.loc 1 638 0
 1013 0040 40F08780 		bne	.L158
ARM GAS  /tmp/cc7o1brM.s 			page 19


 1014              		.loc 1 660 0
 1015 0044 002D     		cmp	r5, #0
 1016 0046 6DD1     		bne	.L159
 1017              		.loc 1 671 0
 1018 0048 0522     		movs	r2, #5
 1019              	.LVL95:
 1020 004a 84F83420 		strb	r2, [r4, #52]
 1021              		.loc 1 672 0
 1022 004e 2046     		mov	r0, r4
 1023 0050 2946     		mov	r1, r5
 1024              	.LVL96:
 1025 0052 2A46     		mov	r2, r5
 1026 0054 FFF7FEFF 		bl	usbPrepareTransmit
 1027              	.LVL97:
 1028              	.LBB18:
 1029              		.loc 1 673 0
 1030 0058 2023     		movs	r3, #32
 1031              	.LVL98:
 1032              	@ 673 "../../ChibiOS/os/hal/src/usb.c" 1
 1033 005a 83F31188 		msr     BASEPRI, r3
 1034              	@ 0 "" 2
 1035              	.LVL99:
 1036              		.thumb
 1037              	.LBE18:
 1038 005e FFF7FEFF 		bl	dbg_check_lock_from_isr
 1039              	.LVL100:
 1040              		.loc 1 674 0
 1041 0062 2946     		mov	r1, r5
 1042 0064 2046     		mov	r0, r4
 1043 0066 FFF7FEFF 		bl	usbStartTransmitI
 1044              	.LVL101:
 1045              		.loc 1 675 0
 1046 006a FFF7FEFF 		bl	dbg_check_unlock_from_isr
 1047              	.LVL102:
 1048              	.LBB19:
 1049 006e 2B46     		mov	r3, r5
 1050              	.LVL103:
 1051              	@ 675 "../../ChibiOS/os/hal/src/usb.c" 1
 1052 0070 83F31188 		msr     BASEPRI, r3
 1053              	@ 0 "" 2
 1054              	.LVL104:
 1055              		.thumb
 1056 0074 F8BD     		pop	{r3, r4, r5, r6, r7, pc}
 1057              	.LVL105:
 1058              	.L94:
 1059              	.LBE19:
 1060              		.loc 1 618 0
 1061 0076 94F84430 		ldrb	r3, [r4, #68]	@ zero_extendqisi2
 1062 007a 13F06007 		ands	r7, r3, #96
 1063 007e 11D0     		beq	.L160
 1064              	.L91:
 1065              		.loc 1 623 0
 1066 0080 0021     		movs	r1, #0
 1067 0082 2046     		mov	r0, r4
 1068 0084 FFF7FEFF 		bl	usb_lld_stall_in
 1069              	.LVL106:
 1070              		.loc 1 624 0
ARM GAS  /tmp/cc7o1brM.s 			page 20


 1071 0088 2046     		mov	r0, r4
 1072 008a 0021     		movs	r1, #0
 1073 008c FFF7FEFF 		bl	usb_lld_stall_out
 1074              	.LVL107:
 1075              		.loc 1 625 0
 1076 0090 6368     		ldr	r3, [r4, #4]
 1077 0092 1B68     		ldr	r3, [r3, #0]
 1078 0094 13B1     		cbz	r3, .L127
 1079              		.loc 1 625 0 is_stmt 0 discriminator 1
 1080 0096 2046     		mov	r0, r4
 1081 0098 0521     		movs	r1, #5
 1082 009a 9847     		blx	r3
 1083              	.LVL108:
 1084              	.L127:
 1085              		.loc 1 626 0 is_stmt 1
 1086 009c 0623     		movs	r3, #6
 1087 009e 84F83430 		strb	r3, [r4, #52]
 1088              		.loc 1 627 0
 1089 00a2 F8BD     		pop	{r3, r4, r5, r6, r7, pc}
 1090              	.L160:
 1091              	.LVL109:
 1092              	.LBB20:
 1093              	.LBB21:
 1094              		.loc 1 88 0
 1095 00a4 94F84560 		ldrb	r6, [r4, #69]	@ zero_extendqisi2
 1096              		.loc 1 86 0
 1097 00a8 03F07F02 		and	r2, r3, #127
 1098              		.loc 1 87 0
 1099 00ac 42EA0626 		orr	r6, r2, r6, lsl #8
 1100              		.loc 1 86 0
 1101 00b0 B6F5407F 		cmp	r6, #768
 1102 00b4 00F00681 		beq	.L101
 1103 00b8 17DD     		ble	.L161
 1104 00ba B6F5C06F 		cmp	r6, #1536
 1105 00be 00F09680 		beq	.L104
 1106 00c2 75DD     		ble	.L162
 1107 00c4 B6F5106F 		cmp	r6, #2304
 1108 00c8 00F0C180 		beq	.L106
 1109 00cc 40F60242 		movw	r2, #3074
 1110 00d0 9642     		cmp	r6, r2
 1111 00d2 00F08580 		beq	.L97
 1112 00d6 B6F5006F 		cmp	r6, #2048
 1113 00da D1D1     		bne	.L91
 1114              		.loc 1 135 0
 1115 00dc 0125     		movs	r5, #1
 1116 00de 04F14F02 		add	r2, r4, #79
 1117 00e2 A263     		str	r2, [r4, #56]
 1118 00e4 E563     		str	r5, [r4, #60]
 1119 00e6 2764     		str	r7, [r4, #64]
 1120 00e8 9DE7     		b	.L133
 1121              	.L161:
 1122              		.loc 1 86 0
 1123 00ea 022E     		cmp	r6, #2
 1124 00ec 00F0C180 		beq	.L98
 1125 00f0 71DD     		ble	.L163
 1126 00f2 B6F5807F 		cmp	r6, #256
 1127 00f6 00F09380 		beq	.L99
ARM GAS  /tmp/cc7o1brM.s 			page 21


 1128 00fa B6F5817F 		cmp	r6, #258
 1129 00fe BFD1     		bne	.L91
 1130              		.loc 1 181 0
 1131 0100 94F84620 		ldrb	r2, [r4, #70]	@ zero_extendqisi2
 1132 0104 002A     		cmp	r2, #0
 1133 0106 BBD1     		bne	.L91
 1134              		.loc 1 184 0
 1135 0108 94F84820 		ldrb	r2, [r4, #72]	@ zero_extendqisi2
 1136 010c 12F00F01 		ands	r1, r2, #15
 1137 0110 5CD0     		beq	.L125
 1138              		.loc 1 185 0
 1139 0112 1206     		lsls	r2, r2, #24
 1140              		.loc 1 186 0
 1141 0114 2046     		mov	r0, r4
 1142              		.loc 1 185 0
 1143 0116 00F10681 		bmi	.L164
 1144              	.LVL110:
 1145              		.loc 1 188 0
 1146 011a FFF7FEFF 		bl	usb_lld_clear_out
 1147              	.LVL111:
 1148 011e 94F84430 		ldrb	r3, [r4, #68]	@ zero_extendqisi2
 1149 0122 53E0     		b	.L125
 1150              	.LVL112:
 1151              	.L159:
 1152              	.LBE21:
 1153              	.LBE20:
 1154              		.loc 1 662 0
 1155 0124 0422     		movs	r2, #4
 1156              	.LVL113:
 1157 0126 84F83420 		strb	r2, [r4, #52]
 1158              		.loc 1 663 0
 1159 012a 2046     		mov	r0, r4
 1160 012c 0021     		movs	r1, #0
 1161              	.LVL114:
 1162 012e A26B     		ldr	r2, [r4, #56]
 1163 0130 FFF7FEFF 		bl	usbPrepareReceive
 1164              	.LVL115:
 1165              	.LBB25:
 1166              		.loc 1 664 0
 1167 0134 2023     		movs	r3, #32
 1168              	.LVL116:
 1169              	@ 664 "../../ChibiOS/os/hal/src/usb.c" 1
 1170 0136 83F31188 		msr     BASEPRI, r3
 1171              	@ 0 "" 2
 1172              	.LVL117:
 1173              		.thumb
 1174              	.LBE25:
 1175 013a FFF7FEFF 		bl	dbg_check_lock_from_isr
 1176              	.LVL118:
 1177              		.loc 1 665 0
 1178 013e 0021     		movs	r1, #0
 1179 0140 2046     		mov	r0, r4
 1180 0142 FFF7FEFF 		bl	usbStartReceiveI
 1181              	.LVL119:
 1182              		.loc 1 666 0
 1183 0146 FFF7FEFF 		bl	dbg_check_unlock_from_isr
 1184              	.LVL120:
ARM GAS  /tmp/cc7o1brM.s 			page 22


 1185              	.LBB26:
 1186 014a 0023     		movs	r3, #0
 1187              	.LVL121:
 1188              	@ 666 "../../ChibiOS/os/hal/src/usb.c" 1
 1189 014c 83F31188 		msr     BASEPRI, r3
 1190              	@ 0 "" 2
 1191              	.LVL122:
 1192              		.thumb
 1193 0150 F8BD     		pop	{r3, r4, r5, r6, r7, pc}
 1194              	.LVL123:
 1195              	.L158:
 1196              	.LBE26:
 1197              		.loc 1 640 0
 1198 0152 B5B1     		cbz	r5, .L131
 1199              		.loc 1 642 0
 1200 0154 0122     		movs	r2, #1
 1201              	.LVL124:
 1202 0156 84F83420 		strb	r2, [r4, #52]
 1203              		.loc 1 643 0
 1204 015a 2046     		mov	r0, r4
 1205 015c 0021     		movs	r1, #0
 1206              	.LVL125:
 1207 015e A26B     		ldr	r2, [r4, #56]
 1208 0160 FFF7FEFF 		bl	usbPrepareTransmit
 1209              	.LVL126:
 1210              	.LBB27:
 1211              		.loc 1 644 0
 1212 0164 2023     		movs	r3, #32
 1213              	.LVL127:
 1214              	@ 644 "../../ChibiOS/os/hal/src/usb.c" 1
 1215 0166 83F31188 		msr     BASEPRI, r3
 1216              	@ 0 "" 2
 1217              	.LVL128:
 1218              		.thumb
 1219              	.LBE27:
 1220 016a FFF7FEFF 		bl	dbg_check_lock_from_isr
 1221              	.LVL129:
 1222              		.loc 1 645 0
 1223 016e 0021     		movs	r1, #0
 1224 0170 2046     		mov	r0, r4
 1225 0172 FFF7FEFF 		bl	usbStartTransmitI
 1226              	.LVL130:
 1227              		.loc 1 646 0
 1228 0176 FFF7FEFF 		bl	dbg_check_unlock_from_isr
 1229              	.LVL131:
 1230              	.LBB28:
 1231 017a 0023     		movs	r3, #0
 1232              	.LVL132:
 1233              	@ 646 "../../ChibiOS/os/hal/src/usb.c" 1
 1234 017c 83F31188 		msr     BASEPRI, r3
 1235              	@ 0 "" 2
 1236              	.LVL133:
 1237              		.thumb
 1238 0180 F8BD     		pop	{r3, r4, r5, r6, r7, pc}
 1239              	.LVL134:
 1240              	.L131:
 1241              	.LBE28:
ARM GAS  /tmp/cc7o1brM.s 			page 23


 1242              		.loc 1 651 0
 1243 0182 0322     		movs	r2, #3
 1244              	.LVL135:
 1245 0184 84F83420 		strb	r2, [r4, #52]
 1246              		.loc 1 652 0
 1247 0188 2046     		mov	r0, r4
 1248 018a 2946     		mov	r1, r5
 1249              	.LVL136:
 1250 018c 2A46     		mov	r2, r5
 1251 018e FFF7FEFF 		bl	usbPrepareReceive
 1252              	.LVL137:
 1253              	.LBB29:
 1254              		.loc 1 653 0
 1255 0192 2023     		movs	r3, #32
 1256              	.LVL138:
 1257              	@ 653 "../../ChibiOS/os/hal/src/usb.c" 1
 1258 0194 83F31188 		msr     BASEPRI, r3
 1259              	@ 0 "" 2
 1260              	.LVL139:
 1261              		.thumb
 1262              	.LBE29:
 1263 0198 FFF7FEFF 		bl	dbg_check_lock_from_isr
 1264              	.LVL140:
 1265              		.loc 1 654 0
 1266 019c 2946     		mov	r1, r5
 1267 019e 2046     		mov	r0, r4
 1268 01a0 FFF7FEFF 		bl	usbStartReceiveI
 1269              	.LVL141:
 1270              		.loc 1 655 0
 1271 01a4 FFF7FEFF 		bl	dbg_check_unlock_from_isr
 1272              	.LVL142:
 1273              	.LBB30:
 1274 01a8 2B46     		mov	r3, r5
 1275              	.LVL143:
 1276              	@ 655 "../../ChibiOS/os/hal/src/usb.c" 1
 1277 01aa 83F31188 		msr     BASEPRI, r3
 1278              	@ 0 "" 2
 1279              	.LVL144:
 1280              		.thumb
 1281 01ae F8BD     		pop	{r3, r4, r5, r6, r7, pc}
 1282              	.LVL145:
 1283              	.L162:
 1284              	.LBE30:
 1285              	.LBB31:
 1286              	.LBB24:
 1287              		.loc 1 86 0
 1288 01b0 40F20232 		movw	r2, #770
 1289 01b4 9642     		cmp	r6, r2
 1290 01b6 73D0     		beq	.L102
 1291 01b8 B6F5A06F 		cmp	r6, #1280
 1292 01bc 7FF460AF 		bne	.L91
 1293              		.loc 1 116 0
 1294 01c0 B4F84420 		ldrh	r2, [r4, #68]
 1295 01c4 B2F5A06F 		cmp	r2, #1280
 1296 01c8 00F09B80 		beq	.L165
 1297              	.L125:
 1298              		.loc 1 203 0
ARM GAS  /tmp/cc7o1brM.s 			page 24


 1299 01cc 0025     		movs	r5, #0
 1300 01ce A563     		str	r5, [r4, #56]
 1301 01d0 E563     		str	r5, [r4, #60]
 1302 01d2 2564     		str	r5, [r4, #64]
 1303 01d4 27E7     		b	.L133
 1304              	.L163:
 1305              		.loc 1 86 0
 1306 01d6 002E     		cmp	r6, #0
 1307 01d8 32D0     		beq	.L96
 1308 01da 012E     		cmp	r6, #1
 1309 01dc 7FF450AF 		bne	.L91
 1310              	.L97:
 1311              		.loc 1 151 0
 1312 01e0 564A     		ldr	r2, .L168
 1313 01e2 0225     		movs	r5, #2
 1314 01e4 A263     		str	r2, [r4, #56]
 1315 01e6 0022     		movs	r2, #0
 1316 01e8 E563     		str	r5, [r4, #60]
 1317 01ea 2264     		str	r2, [r4, #64]
 1318 01ec 1BE7     		b	.L133
 1319              	.L104:
 1320              		.loc 1 126 0
 1321 01ee 6268     		ldr	r2, [r4, #4]
 1322              		.loc 1 128 0
 1323 01f0 94F84960 		ldrb	r6, [r4, #73]	@ zero_extendqisi2
 1324              		.loc 1 126 0
 1325 01f4 94F84830 		ldrb	r3, [r4, #72]	@ zero_extendqisi2
 1326 01f8 5568     		ldr	r5, [r2, #4]
 1327 01fa 94F84710 		ldrb	r1, [r4, #71]	@ zero_extendqisi2
 1328 01fe 94F84620 		ldrb	r2, [r4, #70]	@ zero_extendqisi2
 1329 0202 2046     		mov	r0, r4
 1330 0204 43EA0623 		orr	r3, r3, r6, lsl #8
 1331 0208 A847     		blx	r5
 1332              	.LVL146:
 1333              		.loc 1 129 0
 1334 020a 0028     		cmp	r0, #0
 1335 020c 3FF438AF 		beq	.L91
 1336              		.loc 1 131 0
 1337 0210 4368     		ldr	r3, [r0, #4]
 1338 0212 0568     		ldr	r5, [r0, #0]
 1339 0214 A363     		str	r3, [r4, #56]
 1340 0216 E563     		str	r5, [r4, #60]
 1341 0218 2764     		str	r7, [r4, #64]
 1342 021a 94F84430 		ldrb	r3, [r4, #68]	@ zero_extendqisi2
 1343 021e 02E7     		b	.L133
 1344              	.LVL147:
 1345              	.L99:
 1346              		.loc 1 96 0
 1347 0220 94F84620 		ldrb	r2, [r4, #70]	@ zero_extendqisi2
 1348 0224 012A     		cmp	r2, #1
 1349 0226 7FF42BAF 		bne	.L91
 1350              		.loc 1 97 0
 1351 022a B4F84C20 		ldrh	r2, [r4, #76]
 1352              		.loc 1 98 0
 1353 022e A763     		str	r7, [r4, #56]
 1354              		.loc 1 97 0
 1355 0230 22F00202 		bic	r2, r2, #2
ARM GAS  /tmp/cc7o1brM.s 			page 25


 1356 0234 A4F84C20 		strh	r2, [r4, #76]	@ movhi
 1357              		.loc 1 98 0
 1358 0238 E763     		str	r7, [r4, #60]
 1359 023a 2764     		str	r7, [r4, #64]
 1360 023c 3D46     		mov	r5, r7
 1361 023e F2E6     		b	.L133
 1362              	.L96:
 1363              		.loc 1 91 0
 1364 0240 0225     		movs	r5, #2
 1365 0242 04F14C02 		add	r2, r4, #76
 1366 0246 A263     		str	r2, [r4, #56]
 1367 0248 E563     		str	r5, [r4, #60]
 1368 024a 2664     		str	r6, [r4, #64]
 1369 024c EBE6     		b	.L133
 1370              	.L106:
 1371              		.loc 1 139 0
 1372 024e 94F84620 		ldrb	r2, [r4, #70]	@ zero_extendqisi2
 1373 0252 84F84F20 		strb	r2, [r4, #79]
 1374              		.loc 1 140 0
 1375 0256 002A     		cmp	r2, #0
 1376 0258 44D1     		bne	.L115
 1377              		.loc 1 141 0
 1378 025a 0322     		movs	r2, #3
 1379 025c 2270     		strb	r2, [r4, #0]
 1380              	.L116:
 1381              		.loc 1 144 0
 1382 025e 6268     		ldr	r2, [r4, #4]
 1383 0260 1268     		ldr	r2, [r2, #0]
 1384 0262 002A     		cmp	r2, #0
 1385 0264 B2D0     		beq	.L125
 1386 0266 2046     		mov	r0, r4
 1387 0268 0221     		movs	r1, #2
 1388 026a 9047     		blx	r2
 1389              	.LVL148:
 1390 026c 94F84430 		ldrb	r3, [r4, #68]	@ zero_extendqisi2
 1391 0270 ACE7     		b	.L125
 1392              	.L98:
 1393              		.loc 1 155 0
 1394 0272 94F84810 		ldrb	r1, [r4, #72]	@ zero_extendqisi2
 1395 0276 11F0800F 		tst	r1, #128
 1396              		.loc 1 156 0
 1397 027a 2046     		mov	r0, r4
 1398 027c 01F00F01 		and	r1, r1, #15
 1399              		.loc 1 155 0
 1400 0280 33D1     		bne	.L166
 1401              	.LVL149:
 1402              		.loc 1 168 0
 1403 0282 FFF7FEFF 		bl	usb_lld_get_status_out
 1404              	.LVL150:
 1405 0286 0128     		cmp	r0, #1
 1406 0288 33D0     		beq	.L121
 1407              	.L157:
 1408 028a 0228     		cmp	r0, #2
 1409 028c 7FF4F8AE 		bne	.L91
 1410              		.loc 1 173 0
 1411 0290 2B4B     		ldr	r3, .L168+4
 1412 0292 E063     		str	r0, [r4, #60]
ARM GAS  /tmp/cc7o1brM.s 			page 26


 1413 0294 A363     		str	r3, [r4, #56]
 1414 0296 2764     		str	r7, [r4, #64]
 1415 0298 94F84430 		ldrb	r3, [r4, #68]	@ zero_extendqisi2
 1416 029c 0546     		mov	r5, r0
 1417 029e C2E6     		b	.L133
 1418              	.L102:
 1419              		.loc 1 194 0
 1420 02a0 94F84620 		ldrb	r2, [r4, #70]	@ zero_extendqisi2
 1421 02a4 002A     		cmp	r2, #0
 1422 02a6 7FF4EBAE 		bne	.L91
 1423              		.loc 1 197 0
 1424 02aa 94F84820 		ldrb	r2, [r4, #72]	@ zero_extendqisi2
 1425 02ae 12F00F01 		ands	r1, r2, #15
 1426 02b2 8BD0     		beq	.L125
 1427              		.loc 1 198 0
 1428 02b4 1306     		lsls	r3, r2, #24
 1429              		.loc 1 199 0
 1430 02b6 2046     		mov	r0, r4
 1431              		.loc 1 198 0
 1432 02b8 3AD4     		bmi	.L167
 1433              	.LVL151:
 1434              		.loc 1 201 0
 1435 02ba FFF7FEFF 		bl	usb_lld_stall_out
 1436              	.LVL152:
 1437 02be 94F84430 		ldrb	r3, [r4, #68]	@ zero_extendqisi2
 1438 02c2 83E7     		b	.L125
 1439              	.L101:
 1440              		.loc 1 105 0
 1441 02c4 94F84620 		ldrb	r2, [r4, #70]	@ zero_extendqisi2
 1442 02c8 012A     		cmp	r2, #1
 1443 02ca 7FF4D9AE 		bne	.L91
 1444              		.loc 1 106 0
 1445 02ce B4F84C20 		ldrh	r2, [r4, #76]
 1446              		.loc 1 107 0
 1447 02d2 A763     		str	r7, [r4, #56]
 1448              		.loc 1 106 0
 1449 02d4 42F00202 		orr	r2, r2, #2
 1450 02d8 A4F84C20 		strh	r2, [r4, #76]	@ movhi
 1451              		.loc 1 107 0
 1452 02dc E763     		str	r7, [r4, #60]
 1453 02de 2764     		str	r7, [r4, #64]
 1454 02e0 3D46     		mov	r5, r7
 1455 02e2 A0E6     		b	.L133
 1456              	.L115:
 1457              		.loc 1 143 0
 1458 02e4 0422     		movs	r2, #4
 1459 02e6 2270     		strb	r2, [r4, #0]
 1460 02e8 B9E7     		b	.L116
 1461              	.LVL153:
 1462              	.L166:
 1463              		.loc 1 156 0
 1464 02ea FFF7FEFF 		bl	usb_lld_get_status_in
 1465              	.LVL154:
 1466 02ee 0128     		cmp	r0, #1
 1467 02f0 CBD1     		bne	.L157
 1468              	.L121:
 1469              		.loc 1 170 0
ARM GAS  /tmp/cc7o1brM.s 			page 27


 1470 02f2 144B     		ldr	r3, .L168+8
 1471 02f4 E663     		str	r6, [r4, #60]
 1472 02f6 A363     		str	r3, [r4, #56]
 1473 02f8 2764     		str	r7, [r4, #64]
 1474 02fa 94F84430 		ldrb	r3, [r4, #68]	@ zero_extendqisi2
 1475 02fe 3546     		mov	r5, r6
 1476 0300 91E6     		b	.L133
 1477              	.L165:
 1478              	.LVL155:
 1479              	.LBB22:
 1480              	.LBB23:
 1481              		.loc 1 64 0
 1482 0302 94F84630 		ldrb	r3, [r4, #70]	@ zero_extendqisi2
 1483              		.loc 1 65 0
 1484 0306 2046     		mov	r0, r4
 1485              		.loc 1 64 0
 1486 0308 84F84E30 		strb	r3, [r4, #78]
 1487              		.loc 1 65 0
 1488 030c FFF7FEFF 		bl	usb_lld_set_address
 1489              	.LVL156:
 1490              		.loc 1 66 0
 1491 0310 6368     		ldr	r3, [r4, #4]
 1492 0312 1B68     		ldr	r3, [r3, #0]
 1493 0314 13B1     		cbz	r3, .L114
 1494 0316 2046     		mov	r0, r4
 1495 0318 0121     		movs	r1, #1
 1496 031a 9847     		blx	r3
 1497              	.LVL157:
 1498              	.L114:
 1499              		.loc 1 67 0
 1500 031c 0322     		movs	r2, #3
 1501 031e 94F84430 		ldrb	r3, [r4, #68]	@ zero_extendqisi2
 1502 0322 2270     		strb	r2, [r4, #0]
 1503 0324 52E7     		b	.L125
 1504              	.LVL158:
 1505              	.L164:
 1506              	.LBE23:
 1507              	.LBE22:
 1508              		.loc 1 186 0
 1509 0326 FFF7FEFF 		bl	usb_lld_clear_in
 1510              	.LVL159:
 1511 032a 94F84430 		ldrb	r3, [r4, #68]	@ zero_extendqisi2
 1512 032e 4DE7     		b	.L125
 1513              	.LVL160:
 1514              	.L167:
 1515              		.loc 1 199 0
 1516 0330 FFF7FEFF 		bl	usb_lld_stall_in
 1517              	.LVL161:
 1518 0334 94F84430 		ldrb	r3, [r4, #68]	@ zero_extendqisi2
 1519 0338 48E7     		b	.L125
 1520              	.L169:
 1521 033a 00BF     		.align	2
 1522              	.L168:
 1523 033c 00000000 		.word	.LANCHOR0
 1524 0340 00000000 		.word	.LANCHOR2
 1525 0344 00000000 		.word	.LANCHOR1
 1526              	.LBE24:
ARM GAS  /tmp/cc7o1brM.s 			page 28


 1527              	.LBE31:
 1528              		.cfi_endproc
 1529              	.LFE135:
 1530              		.size	_usb_ep0setup, .-_usb_ep0setup
 1531 0348 AFF30080 		.section	.text._usb_ep0in,"ax",%progbits
 1531      AFF30080 
 1532              		.align	2
 1533              		.p2align 4,,15
 1534              		.global	_usb_ep0in
 1535              		.thumb
 1536              		.thumb_func
 1537              		.type	_usb_ep0in, %function
 1538              	_usb_ep0in:
 1539              	.LFB136:
 1540              		.loc 1 690 0
 1541              		.cfi_startproc
 1542              		@ args = 0, pretend = 0, frame = 0
 1543              		@ frame_needed = 0, uses_anonymous_args = 0
 1544              	.LVL162:
 1545 0000 38B5     		push	{r3, r4, r5, lr}
 1546              	.LCFI14:
 1547              		.cfi_def_cfa_offset 16
 1548              		.cfi_offset 3, -16
 1549              		.cfi_offset 4, -12
 1550              		.cfi_offset 5, -8
 1551              		.cfi_offset 14, -4
 1552              		.loc 1 694 0
 1553 0002 90F83430 		ldrb	r3, [r0, #52]	@ zero_extendqisi2
 1554 0006 022B     		cmp	r3, #2
 1555              		.loc 1 690 0
 1556 0008 0446     		mov	r4, r0
 1557              		.loc 1 694 0
 1558 000a 24D0     		beq	.L173
 1559 000c 052B     		cmp	r3, #5
 1560 000e 3AD0     		beq	.L174
 1561 0010 012B     		cmp	r3, #1
 1562 0012 10D0     		beq	.L188
 1563              		.loc 1 729 0
 1564 0014 0021     		movs	r1, #0
 1565              	.LVL163:
 1566 0016 FFF7FEFF 		bl	usb_lld_stall_in
 1567              	.LVL164:
 1568              		.loc 1 730 0
 1569 001a 2046     		mov	r0, r4
 1570 001c 0021     		movs	r1, #0
 1571 001e FFF7FEFF 		bl	usb_lld_stall_out
 1572              	.LVL165:
 1573              		.loc 1 731 0
 1574 0022 6368     		ldr	r3, [r4, #4]
 1575 0024 1B68     		ldr	r3, [r3, #0]
 1576 0026 13B1     		cbz	r3, .L177
 1577              		.loc 1 731 0 is_stmt 0 discriminator 1
 1578 0028 2046     		mov	r0, r4
 1579 002a 0521     		movs	r1, #5
 1580 002c 9847     		blx	r3
 1581              	.LVL166:
 1582              	.L177:
ARM GAS  /tmp/cc7o1brM.s 			page 29


 1583              		.loc 1 732 0 is_stmt 1
 1584 002e 0623     		movs	r3, #6
 1585 0030 84F83430 		strb	r3, [r4, #52]
 1586 0034 38BD     		pop	{r3, r4, r5, pc}
 1587              	.LVL167:
 1588              	.L188:
 1589              		.loc 1 696 0
 1590 0036 90F84B10 		ldrb	r1, [r0, #75]	@ zero_extendqisi2
 1591              	.LVL168:
 1592 003a 90F84A30 		ldrb	r3, [r0, #74]	@ zero_extendqisi2
 1593              		.loc 1 700 0
 1594 003e C26B     		ldr	r2, [r0, #60]
 1595              		.loc 1 696 0
 1596 0040 43EA0123 		orr	r3, r3, r1, lsl #8
 1597              	.LVL169:
 1598              		.loc 1 700 0
 1599 0044 9342     		cmp	r3, r2
 1600 0046 06D9     		bls	.L173
 1601              		.loc 1 700 0 is_stmt 0 discriminator 1
 1602 0048 C368     		ldr	r3, [r0, #12]
 1603              	.LVL170:
 1604 004a 1B8A     		ldrh	r3, [r3, #16]
 1605 004c B2FBF3F5 		udiv	r5, r2, r3
 1606 0050 03FB1525 		mls	r5, r3, r5, r2
 1607 0054 F5B1     		cbz	r5, .L189
 1608              	.LVL171:
 1609              	.L173:
 1610              		.loc 1 712 0 is_stmt 1
 1611 0056 0021     		movs	r1, #0
 1612              		.loc 1 711 0
 1613 0058 0322     		movs	r2, #3
 1614              		.loc 1 712 0
 1615 005a 0B46     		mov	r3, r1
 1616              		.loc 1 711 0
 1617 005c 84F83420 		strb	r2, [r4, #52]
 1618              		.loc 1 712 0
 1619 0060 2046     		mov	r0, r4
 1620              	.LVL172:
 1621 0062 0A46     		mov	r2, r1
 1622 0064 FFF7FEFF 		bl	usbPrepareReceive
 1623              	.LVL173:
 1624              	.LBB32:
 1625              		.loc 1 713 0
 1626 0068 2023     		movs	r3, #32
 1627              	.LVL174:
 1628              	@ 713 "../../ChibiOS/os/hal/src/usb.c" 1
 1629 006a 83F31188 		msr     BASEPRI, r3
 1630              	@ 0 "" 2
 1631              	.LVL175:
 1632              		.thumb
 1633              	.LBE32:
 1634 006e FFF7FEFF 		bl	dbg_check_lock_from_isr
 1635              	.LVL176:
 1636              		.loc 1 714 0
 1637 0072 0021     		movs	r1, #0
 1638 0074 2046     		mov	r0, r4
 1639 0076 FFF7FEFF 		bl	usbStartReceiveI
ARM GAS  /tmp/cc7o1brM.s 			page 30


 1640              	.LVL177:
 1641              		.loc 1 715 0
 1642 007a FFF7FEFF 		bl	dbg_check_unlock_from_isr
 1643              	.LVL178:
 1644              	.LBB33:
 1645 007e 0023     		movs	r3, #0
 1646              	.LVL179:
 1647              	@ 715 "../../ChibiOS/os/hal/src/usb.c" 1
 1648 0080 83F31188 		msr     BASEPRI, r3
 1649              	@ 0 "" 2
 1650              	.LVL180:
 1651              		.thumb
 1652              	.LBE33:
 1653              		.loc 1 716 0
 1654 0084 38BD     		pop	{r3, r4, r5, pc}
 1655              	.LVL181:
 1656              	.L174:
 1657              		.loc 1 719 0
 1658 0086 036C     		ldr	r3, [r0, #64]
 1659 0088 03B1     		cbz	r3, .L176
 1660              		.loc 1 720 0
 1661 008a 9847     		blx	r3
 1662              	.LVL182:
 1663              	.L176:
 1664              		.loc 1 721 0
 1665 008c 0023     		movs	r3, #0
 1666 008e 84F83430 		strb	r3, [r4, #52]
 1667              		.loc 1 722 0
 1668 0092 38BD     		pop	{r3, r4, r5, pc}
 1669              	.LVL183:
 1670              	.L189:
 1671              		.loc 1 701 0
 1672 0094 2B46     		mov	r3, r5
 1673 0096 2946     		mov	r1, r5
 1674 0098 2A46     		mov	r2, r5
 1675 009a FFF7FEFF 		bl	usbPrepareTransmit
 1676              	.LVL184:
 1677              	.LBB34:
 1678              		.loc 1 702 0
 1679 009e 2023     		movs	r3, #32
 1680              	.LVL185:
 1681              	@ 702 "../../ChibiOS/os/hal/src/usb.c" 1
 1682 00a0 83F31188 		msr     BASEPRI, r3
 1683              	@ 0 "" 2
 1684              	.LVL186:
 1685              		.thumb
 1686              	.LBE34:
 1687 00a4 FFF7FEFF 		bl	dbg_check_lock_from_isr
 1688              	.LVL187:
 1689              		.loc 1 703 0
 1690 00a8 2946     		mov	r1, r5
 1691 00aa 2046     		mov	r0, r4
 1692 00ac FFF7FEFF 		bl	usbStartTransmitI
 1693              	.LVL188:
 1694              		.loc 1 704 0
 1695 00b0 FFF7FEFF 		bl	dbg_check_unlock_from_isr
 1696              	.LVL189:
ARM GAS  /tmp/cc7o1brM.s 			page 31


 1697              	.LBB35:
 1698 00b4 2B46     		mov	r3, r5
 1699              	.LVL190:
 1700              	@ 704 "../../ChibiOS/os/hal/src/usb.c" 1
 1701 00b6 83F31188 		msr     BASEPRI, r3
 1702              	@ 0 "" 2
 1703              	.LVL191:
 1704              		.thumb
 1705              	.LBE35:
 1706              		.loc 1 705 0
 1707 00ba 0223     		movs	r3, #2
 1708              	.LVL192:
 1709 00bc 84F83430 		strb	r3, [r4, #52]
 1710              		.loc 1 706 0
 1711 00c0 38BD     		pop	{r3, r4, r5, pc}
 1712              		.cfi_endproc
 1713              	.LFE136:
 1714              		.size	_usb_ep0in, .-_usb_ep0in
 1715 00c2 00BFAFF3 		.section	.text._usb_ep0out,"ax",%progbits
 1715      0080AFF3 
 1715      0080AFF3 
 1715      0080
 1716              		.align	2
 1717              		.p2align 4,,15
 1718              		.global	_usb_ep0out
 1719              		.thumb
 1720              		.thumb_func
 1721              		.type	_usb_ep0out, %function
 1722              	_usb_ep0out:
 1723              	.LFB137:
 1724              		.loc 1 745 0
 1725              		.cfi_startproc
 1726              		@ args = 0, pretend = 0, frame = 0
 1727              		@ frame_needed = 0, uses_anonymous_args = 0
 1728              	.LVL193:
 1729              		.loc 1 748 0
 1730 0000 90F83430 		ldrb	r3, [r0, #52]	@ zero_extendqisi2
 1731 0004 032B     		cmp	r3, #3
 1732              		.loc 1 745 0
 1733 0006 10B5     		push	{r4, lr}
 1734              	.LCFI15:
 1735              		.cfi_def_cfa_offset 8
 1736              		.cfi_offset 4, -8
 1737              		.cfi_offset 14, -4
 1738              		.loc 1 745 0
 1739 0008 0446     		mov	r4, r0
 1740              		.loc 1 748 0
 1741 000a 2AD0     		beq	.L192
 1742 000c 042B     		cmp	r3, #4
 1743 000e 11D0     		beq	.L203
 1744              	.L191:
 1745              		.loc 1 772 0
 1746 0010 0021     		movs	r1, #0
 1747              	.LVL194:
 1748 0012 2046     		mov	r0, r4
 1749              	.LVL195:
 1750 0014 FFF7FEFF 		bl	usb_lld_stall_in
ARM GAS  /tmp/cc7o1brM.s 			page 32


 1751              	.LVL196:
 1752              		.loc 1 773 0
 1753 0018 2046     		mov	r0, r4
 1754 001a 0021     		movs	r1, #0
 1755 001c FFF7FEFF 		bl	usb_lld_stall_out
 1756              	.LVL197:
 1757              		.loc 1 774 0
 1758 0020 6368     		ldr	r3, [r4, #4]
 1759 0022 1B68     		ldr	r3, [r3, #0]
 1760 0024 13B1     		cbz	r3, .L196
 1761              		.loc 1 774 0 is_stmt 0 discriminator 1
 1762 0026 2046     		mov	r0, r4
 1763 0028 0521     		movs	r1, #5
 1764 002a 9847     		blx	r3
 1765              	.LVL198:
 1766              	.L196:
 1767              		.loc 1 775 0 is_stmt 1
 1768 002c 0623     		movs	r3, #6
 1769 002e 84F83430 		strb	r3, [r4, #52]
 1770 0032 10BD     		pop	{r4, pc}
 1771              	.LVL199:
 1772              	.L203:
 1773              		.loc 1 752 0
 1774 0034 0021     		movs	r1, #0
 1775              	.LVL200:
 1776              		.loc 1 751 0
 1777 0036 0522     		movs	r2, #5
 1778              		.loc 1 752 0
 1779 0038 0B46     		mov	r3, r1
 1780              		.loc 1 751 0
 1781 003a 80F83420 		strb	r2, [r0, #52]
 1782              		.loc 1 752 0
 1783 003e 0A46     		mov	r2, r1
 1784 0040 FFF7FEFF 		bl	usbPrepareTransmit
 1785              	.LVL201:
 1786              	.LBB36:
 1787              		.loc 1 753 0
 1788 0044 2023     		movs	r3, #32
 1789              	.LVL202:
 1790              	@ 753 "../../ChibiOS/os/hal/src/usb.c" 1
 1791 0046 83F31188 		msr     BASEPRI, r3
 1792              	@ 0 "" 2
 1793              	.LVL203:
 1794              		.thumb
 1795              	.LBE36:
 1796 004a FFF7FEFF 		bl	dbg_check_lock_from_isr
 1797              	.LVL204:
 1798              		.loc 1 754 0
 1799 004e 0021     		movs	r1, #0
 1800 0050 2046     		mov	r0, r4
 1801 0052 FFF7FEFF 		bl	usbStartTransmitI
 1802              	.LVL205:
 1803              		.loc 1 755 0
 1804 0056 FFF7FEFF 		bl	dbg_check_unlock_from_isr
 1805              	.LVL206:
 1806              	.LBB37:
 1807 005a 0023     		movs	r3, #0
ARM GAS  /tmp/cc7o1brM.s 			page 33


 1808              	.LVL207:
 1809              	@ 755 "../../ChibiOS/os/hal/src/usb.c" 1
 1810 005c 83F31188 		msr     BASEPRI, r3
 1811              	@ 0 "" 2
 1812              	.LVL208:
 1813              		.thumb
 1814              	.LBE37:
 1815              		.loc 1 756 0
 1816 0060 10BD     		pop	{r4, pc}
 1817              	.LVL209:
 1818              	.L192:
 1819              		.loc 1 760 0
 1820 0062 C368     		ldr	r3, [r0, #12]
 1821 0064 9B69     		ldr	r3, [r3, #24]
 1822 0066 9B68     		ldr	r3, [r3, #8]
 1823 0068 002B     		cmp	r3, #0
 1824 006a D1D1     		bne	.L191
 1825              		.loc 1 762 0
 1826 006c 036C     		ldr	r3, [r0, #64]
 1827 006e 03B1     		cbz	r3, .L195
 1828              		.loc 1 763 0
 1829 0070 9847     		blx	r3
 1830              	.LVL210:
 1831              	.L195:
 1832              		.loc 1 764 0
 1833 0072 0023     		movs	r3, #0
 1834 0074 84F83430 		strb	r3, [r4, #52]
 1835              		.loc 1 765 0
 1836 0078 10BD     		pop	{r4, pc}
 1837              		.cfi_endproc
 1838              	.LFE137:
 1839              		.size	_usb_ep0out, .-_usb_ep0out
 1840 007a 00BFAFF3 		.section	.rodata.zero_status,"a",%progbits
 1840      0080
 1841              		.align	2
 1842              		.set	.LANCHOR0,. + 0
 1843              		.type	zero_status, %object
 1844              		.size	zero_status, 2
 1845              	zero_status:
 1846 0000 0000     		.space	2
 1847 0002 0000     		.section	.rodata.active_status,"a",%progbits
 1848              		.align	2
 1849              		.set	.LANCHOR2,. + 0
 1850              		.type	active_status, %object
 1851              		.size	active_status, 2
 1852              	active_status:
 1853 0000 0000     		.space	2
 1854 0002 0000     		.section	.rodata.str1.4,"aMS",%progbits,1
 1855              		.align	2
 1856              	.LC0:
 1857 0000 22757362 		.ascii	"\"usbStart\"()\000"
 1857      53746172 
 1857      74222829 
 1857      00
 1858 000d 000000   		.space	3
 1859              	.LC1:
 1860 0010 75736253 		.ascii	"usbStart(), #1\000"
ARM GAS  /tmp/cc7o1brM.s 			page 34


 1860      74617274 
 1860      28292C20 
 1860      233100
 1861 001f 00       		.space	1
 1862              	.LC2:
 1863 0020 22757362 		.ascii	"\"usbStop\"()\000"
 1863      53746F70 
 1863      22282900 
 1864              	.LC3:
 1865 002c 75736253 		.ascii	"usbStop(), #1\000"
 1865      746F7028 
 1865      292C2023 
 1865      3100
 1866 003a 0000     		.space	2
 1867              	.LC4:
 1868 003c 22757362 		.ascii	"\"usbInitEndpointI\"()\000"
 1868      496E6974 
 1868      456E6470 
 1868      6F696E74 
 1868      49222829 
 1869 0051 000000   		.space	3
 1870              	.LC5:
 1871 0054 75736245 		.ascii	"usbEnableEndpointI(), #1\000"
 1871      6E61626C 
 1871      65456E64 
 1871      706F696E 
 1871      74492829 
 1872 006d 000000   		.space	3
 1873              	.LC6:
 1874 0070 75736245 		.ascii	"usbEnableEndpointI(), #2\000"
 1874      6E61626C 
 1874      65456E64 
 1874      706F696E 
 1874      74492829 
 1875 0089 000000   		.space	3
 1876              	.LC7:
 1877 008c 22757362 		.ascii	"\"usbDisableEndpointsI\"()\000"
 1877      44697361 
 1877      626C6545 
 1877      6E64706F 
 1877      696E7473 
 1878 00a5 000000   		.space	3
 1879              	.LC8:
 1880 00a8 75736244 		.ascii	"usbDisableEndpointsI(), #1\000"
 1880      69736162 
 1880      6C65456E 
 1880      64706F69 
 1880      6E747349 
 1881 00c3 00       		.space	1
 1882              	.LC9:
 1883 00c4 22757362 		.ascii	"\"usbStartReceiveI\"()\000"
 1883      53746172 
 1883      74526563 
 1883      65697665 
 1883      49222829 
 1884 00d9 000000   		.space	3
 1885              	.LC10:
ARM GAS  /tmp/cc7o1brM.s 			page 35


 1886 00dc 22757362 		.ascii	"\"usbStartTransmitI\"()\000"
 1886      53746172 
 1886      74547261 
 1886      6E736D69 
 1886      74492228 
 1887 00f2 0000     		.space	2
 1888              	.LC11:
 1889 00f4 22757362 		.ascii	"\"usbStallReceiveI\"()\000"
 1889      5374616C 
 1889      6C526563 
 1889      65697665 
 1889      49222829 
 1890 0109 000000   		.space	3
 1891              	.LC12:
 1892 010c 22757362 		.ascii	"\"usbStallTransmitI\"()\000"
 1892      5374616C 
 1892      6C547261 
 1892      6E736D69 
 1892      74492228 
 1893 0122 0000     		.section	.rodata.halted_status,"a",%progbits
 1894              		.align	2
 1895              		.set	.LANCHOR1,. + 0
 1896              		.type	halted_status, %object
 1897              		.size	halted_status, 2
 1898              	halted_status:
 1899 0000 01       		.byte	1
 1900 0001 00       		.byte	0
 1901 0002 0000     		.text
 1902              	.Letext0:
 1903              		.file 2 "/opt/psas/x-tools/stm32f407/arm-psas-eabi/bin/../lib/gcc/arm-psas-eabi/4.7.2/include/stdd
 1904              		.file 3 "/opt/psas/x-tools/stm32f407/arm-psas-eabi/bin/../lib/gcc/arm-psas-eabi/4.7.2/../../../../
 1905              		.file 4 "../../ChibiOS/os/ports/GCC/ARMCMx/chtypes.h"
 1906              		.file 5 "../../ChibiOS/os/kernel/include/chlists.h"
 1907              		.file 6 "../../ChibiOS/os/kernel/include/chthreads.h"
 1908              		.file 7 "../../ChibiOS/os/ports/GCC/ARMCMx/chcore_v7m.h"
 1909              		.file 8 "../../ChibiOS/os/kernel/include/chmtx.h"
 1910              		.file 9 "../../ChibiOS/os/kernel/include/chqueues.h"
 1911              		.file 10 "../../ChibiOS/os/hal/include/usb.h"
 1912              		.file 11 "../../ChibiOS/os/hal/platforms/STM32/OTGv1/usb_lld.h"
 1913              		.file 12 "../../ChibiOS/os/hal/platforms/STM32/OTGv1/stm32_otg.h"
 1914              		.file 13 "../../ChibiOS/os/kernel/include/chdebug.h"
 1915              		.file 14 "../../ChibiOS/os/ports/common/ARMCMx/CMSIS/include/core_cm4.h"