ARM GAS  /tmp/ccszEVcB.s 			page 1


   1              		.syntax unified
   2              		.cpu cortex-m4
   3              		.eabi_attribute 27, 3
   4              		.eabi_attribute 28, 1
   5              		.fpu fpv4-sp-d16
   6              		.eabi_attribute 20, 1
   7              		.eabi_attribute 21, 1
   8              		.eabi_attribute 23, 3
   9              		.eabi_attribute 24, 1
  10              		.eabi_attribute 25, 1
  11              		.eabi_attribute 26, 1
  12              		.eabi_attribute 30, 2
  13              		.eabi_attribute 34, 1
  14              		.eabi_attribute 18, 4
  15              		.thumb
  16              		.file	"usb_lld.c"
  17              		.text
  18              	.Ltext0:
  19              		.cfi_sections	.debug_frame
  20              		.section	.text.otg_disable_ep,"ax",%progbits
  21              		.align	2
  22              		.p2align 4,,15
  23              		.thumb
  24              		.thumb_func
  25              		.type	otg_disable_ep, %function
  26              	otg_disable_ep:
  27              	.LFB120:
  28              		.file 1 "../../ChibiOS/os/hal/platforms/STM32/OTGv1/usb_lld.c"
  29              		.loc 1 141 0
  30              		.cfi_startproc
  31              		@ args = 0, pretend = 0, frame = 0
  32              		@ frame_needed = 0, uses_anonymous_args = 0
  33              		@ link register save eliminated.
  34              	.LVL0:
  35 0000 416D     		ldr	r1, [r0, #84]
  36              		.loc 1 142 0
  37 0002 036D     		ldr	r3, [r0, #80]
  38              	.LVL1:
  39              		.loc 1 145 0
  40 0004 0022     		movs	r2, #0
  41              		.loc 1 141 0
  42 0006 2DE9F001 		push	{r4, r5, r6, r7, r8}
  43              	.LCFI0:
  44              		.cfi_def_cfa_offset 20
  45              		.cfi_offset 4, -20
  46              		.cfi_offset 5, -16
  47              		.cfi_offset 6, -12
  48              		.cfi_offset 7, -8
  49              		.cfi_offset 8, -4
  50              		.loc 1 156 0
  51 000a 1046     		mov	r0, r2
  52              	.LVL2:
  53 000c 8F68     		ldr	r7, [r1, #8]
  54              		.loc 1 150 0
  55 000e 4FF0804C 		mov	ip, #1073741824
  56              		.loc 1 158 0
  57 0012 4FF0FF36 		mov	r6, #-1
ARM GAS  /tmp/ccszEVcB.s 			page 2


  58 0016 18E0     		b	.L8
  59              	.LVL3:
  60              	.L2:
  61              		.loc 1 156 0
  62 0018 5850     		str	r0, [r3, r1]
  63 001a 5501     		lsls	r5, r2, #5
  64              	.L4:
  65              		.loc 1 157 0
  66 001c 5C19     		adds	r4, r3, r5
  67              		.loc 1 164 0
  68 001e 02F15801 		add	r1, r2, #88
  69 0022 4901     		lsls	r1, r1, #5
  70              		.loc 1 157 0
  71 0024 C4F81009 		str	r0, [r4, #2320]
  72              		.loc 1 158 0
  73 0028 C4F80869 		str	r6, [r4, #2312]
  74              		.loc 1 164 0
  75 002c 53F80180 		ldr	r8, [r3, r1]
  76 0030 B8F1000F 		cmp	r8, #0
  77              		.loc 1 171 0
  78 0034 A8BF     		it	ge
  79 0036 5850     		strge	r0, [r3, r1]
  80              		.loc 1 164 0
  81 0038 16DB     		blt	.L19
  82              	.L7:
  83              		.loc 1 172 0
  84 003a 5D19     		adds	r5, r3, r5
  85              		.loc 1 145 0
  86 003c 0132     		adds	r2, r2, #1
  87              	.LVL4:
  88 003e BA42     		cmp	r2, r7
  89              		.loc 1 172 0
  90 0040 C5F8100B 		str	r0, [r5, #2832]
  91              		.loc 1 173 0
  92 0044 C5F8086B 		str	r6, [r5, #2824]
  93              		.loc 1 145 0
  94 0048 15D8     		bhi	.L20
  95              	.LVL5:
  96              	.L8:
  97              		.loc 1 149 0
  98 004a 02F14801 		add	r1, r2, #72
  99 004e 4901     		lsls	r1, r1, #5
 100 0050 5C58     		ldr	r4, [r3, r1]
 101 0052 002C     		cmp	r4, #0
 102 0054 E0DA     		bge	.L2
 103 0056 5501     		lsls	r5, r2, #5
 104              		.loc 1 150 0
 105 0058 43F801C0 		str	ip, [r3, r1]
 106              		.loc 1 152 0
 107 005c 5C19     		adds	r4, r3, r5
 108              	.L3:
 109              		.loc 1 152 0 is_stmt 0 discriminator 1
 110 005e D4F80819 		ldr	r1, [r4, #2312]
 111 0062 8907     		lsls	r1, r1, #30
 112 0064 FBD5     		bpl	.L3
 113 0066 D9E7     		b	.L4
 114              	.L19:
ARM GAS  /tmp/ccszEVcB.s 			page 3


 115              		.loc 1 165 0 is_stmt 1
 116 0068 43F801C0 		str	ip, [r3, r1]
 117              	.L6:
 118              		.loc 1 167 0 discriminator 1
 119 006c D4F8081B 		ldr	r1, [r4, #2824]
 120 0070 C906     		lsls	r1, r1, #27
 121 0072 FBD5     		bpl	.L6
 122 0074 E1E7     		b	.L7
 123              	.LVL6:
 124              	.L20:
 125              		.loc 1 175 0
 126 0076 4FF00112 		mov	r2, #65537
 127              	.LVL7:
 128 007a C3F81C28 		str	r2, [r3, #2076]
 129              		.loc 1 176 0
 130 007e BDE8F001 		pop	{r4, r5, r6, r7, r8}
 131 0082 7047     		bx	lr
 132              		.cfi_endproc
 133              	.LFE120:
 134              		.size	otg_disable_ep, .-otg_disable_ep
 135 0084 AFF30080 		.section	.text.otg_epout_handler,"ax",%progbits
 135      AFF30080 
 135      AFF30080 
 136              		.align	2
 137              		.p2align 4,,15
 138              		.thumb
 139              		.thumb_func
 140              		.type	otg_epout_handler, %function
 141              	otg_epout_handler:
 142              	.LFB134:
 143              		.loc 1 576 0
 144              		.cfi_startproc
 145              		@ args = 0, pretend = 0, frame = 0
 146              		@ frame_needed = 0, uses_anonymous_args = 0
 147              	.LVL8:
 148 0000 F8B5     		push	{r3, r4, r5, r6, r7, lr}
 149              	.LCFI1:
 150              		.cfi_def_cfa_offset 24
 151              		.cfi_offset 3, -24
 152              		.cfi_offset 4, -20
 153              		.cfi_offset 5, -16
 154              		.cfi_offset 6, -12
 155              		.cfi_offset 7, -8
 156              		.cfi_offset 14, -4
 157              		.loc 1 577 0
 158 0002 046D     		ldr	r4, [r0, #80]
 159              	.LVL9:
 160              		.loc 1 578 0
 161 0004 04EB4113 		add	r3, r4, r1, lsl #5
 162              		.loc 1 581 0
 163 0008 4FF0FF32 		mov	r2, #-1
 164              		.loc 1 578 0
 165 000c D3F8086B 		ldr	r6, [r3, #2824]
 166              	.LVL10:
 167              		.loc 1 581 0
 168 0010 C3F8082B 		str	r2, [r3, #2824]
 169              		.loc 1 583 0
ARM GAS  /tmp/ccszEVcB.s 			page 4


 170 0014 3307     		lsls	r3, r6, #28
 171              		.loc 1 576 0
 172 0016 0546     		mov	r5, r0
 173 0018 0F46     		mov	r7, r1
 174              		.loc 1 583 0
 175 001a 03D5     		bpl	.L22
 176              		.loc 1 583 0 is_stmt 0 discriminator 1
 177 001c D4F81438 		ldr	r3, [r4, #2068]
 178 0020 1A07     		lsls	r2, r3, #28
 179 0022 15D4     		bmi	.L36
 180              	.LVL11:
 181              	.L22:
 182              		.loc 1 589 0 is_stmt 1
 183 0024 F307     		lsls	r3, r6, #31
 184 0026 03D5     		bpl	.L21
 185              		.loc 1 589 0 is_stmt 0 discriminator 1
 186 0028 D4F81438 		ldr	r3, [r4, #2068]
 187 002c D807     		lsls	r0, r3, #31
 188 002e 00D4     		bmi	.L37
 189              	.L21:
 190 0030 F8BD     		pop	{r3, r4, r5, r6, r7, pc}
 191              	.L37:
 192              		.loc 1 591 0 is_stmt 1
 193 0032 05EB8703 		add	r3, r5, r7, lsl #2
 194 0036 6989     		ldrh	r1, [r5, #10]
 195 0038 DB68     		ldr	r3, [r3, #12]
 196 003a 0122     		movs	r2, #1
 197 003c 02FA07F2 		lsl	r2, r2, r7
 198 0040 21EA0202 		bic	r2, r1, r2
 199 0044 6A81     		strh	r2, [r5, #10]	@ movhi
 200 0046 DB68     		ldr	r3, [r3, #12]
 201 0048 2846     		mov	r0, r5
 202 004a 3946     		mov	r1, r7
 203 004c 9847     		blx	r3
 204              	.LVL12:
 205 004e F8BD     		pop	{r3, r4, r5, r6, r7, pc}
 206              	.LVL13:
 207              	.L36:
 208              		.loc 1 586 0
 209 0050 00EB8103 		add	r3, r0, r1, lsl #2
 210 0054 DB68     		ldr	r3, [r3, #12]
 211 0056 5B68     		ldr	r3, [r3, #4]
 212 0058 9847     		blx	r3
 213              	.LVL14:
 214 005a E3E7     		b	.L22
 215              		.cfi_endproc
 216              	.LFE134:
 217              		.size	otg_epout_handler, .-otg_epout_handler
 218 005c AFF30080 		.section	.text.otg_txfifo_flush,"ax",%progbits
 219              		.align	2
 220              		.p2align 4,,15
 221              		.thumb
 222              		.thumb_func
 223              		.type	otg_txfifo_flush, %function
 224              	otg_txfifo_flush:
 225              	.LFB122:
 226              		.loc 1 188 0
ARM GAS  /tmp/ccszEVcB.s 			page 5


 227              		.cfi_startproc
 228              		@ args = 0, pretend = 0, frame = 0
 229              		@ frame_needed = 0, uses_anonymous_args = 0
 230              		@ link register save eliminated.
 231              	.LVL15:
 232              		.loc 1 189 0
 233 0000 026D     		ldr	r2, [r0, #80]
 234              	.LVL16:
 235              		.loc 1 191 0
 236 0002 8901     		lsls	r1, r1, #6
 237              	.LVL17:
 238 0004 41F02003 		orr	r3, r1, #32
 239 0008 1361     		str	r3, [r2, #16]
 240              	.L39:
 241              		.loc 1 192 0 discriminator 1
 242 000a 1369     		ldr	r3, [r2, #16]
 243 000c 9906     		lsls	r1, r3, #26
 244 000e FCD4     		bmi	.L39
 245              		.loc 1 195 0
 246 0010 0C20     		movs	r0, #12
 247              	.LVL18:
 248              		.loc 1 196 0
 249              		.loc 1 195 0
 250 0012 FFF7FEBF 		b	halPolledDelay
 251              	.LVL19:
 252              		.cfi_endproc
 253              	.LFE122:
 254              		.size	otg_txfifo_flush, .-otg_txfifo_flush
 255 0016 00BFAFF3 		.section	.text.usb_lld_pump,"ax",%progbits
 255      0080AFF3 
 255      0080
 256              		.align	2
 257              		.p2align 4,,15
 258              		.thumb
 259              		.thumb_func
 260              		.type	usb_lld_pump, %function
 261              	usb_lld_pump:
 262              	.LFB136:
 263              		.loc 1 675 0
 264              		.cfi_startproc
 265              		@ args = 0, pretend = 0, frame = 24
 266              		@ frame_needed = 0, uses_anonymous_args = 0
 267              	.LVL20:
 268 0000 2DE9F04F 		push	{r4, r5, r6, r7, r8, r9, sl, fp, lr}
 269              	.LCFI2:
 270              		.cfi_def_cfa_offset 36
 271              		.cfi_offset 4, -36
 272              		.cfi_offset 5, -32
 273              		.cfi_offset 6, -28
 274              		.cfi_offset 7, -24
 275              		.cfi_offset 8, -20
 276              		.cfi_offset 9, -16
 277              		.cfi_offset 10, -12
 278              		.cfi_offset 11, -8
 279              		.cfi_offset 14, -4
 280              		.loc 1 679 0
 281 0004 40F20001 		movw	r1, #:lower16:rlist
ARM GAS  /tmp/ccszEVcB.s 			page 6


 282 0008 C0F20001 		movt	r1, #:upper16:rlist
 283              		.loc 1 675 0
 284 000c 87B0     		sub	sp, sp, #28
 285              	.LCFI3:
 286              		.cfi_def_cfa_offset 64
 287              		.loc 1 679 0
 288 000e 8A69     		ldr	r2, [r1, #24]
 289              		.loc 1 677 0
 290 0010 016D     		ldr	r1, [r0, #80]
 291 0012 0191     		str	r1, [sp, #4]
 292              		.loc 1 679 0
 293 0014 AF49     		ldr	r1, .L159
 294              		.loc 1 675 0
 295 0016 8046     		mov	r8, r0
 296              	.LVL21:
 297              		.loc 1 679 0
 298 0018 9161     		str	r1, [r2, #24]
 299              	.LBB81:
 300              		.loc 1 680 0
 301 001a 2023     		movs	r3, #32
 302              	.LVL22:
 303              	@ 680 "../../ChibiOS/os/hal/platforms/STM32/OTGv1/usb_lld.c" 1
 304 001c 83F31188 		msr     BASEPRI, r3
 305              	@ 0 "" 2
 306              	.LVL23:
 307              		.thumb
 308              	.LBE81:
 309 0020 FFF7FEFF 		bl	dbg_check_lock
 310              	.LVL24:
 311              	.LBB82:
 312              	.LBB83:
 313              		.loc 1 692 0
 314 0024 4FF00009 		mov	r9, #0
 315              	.LVL25:
 316              	.L100:
 317              	.LBE83:
 318              		.loc 1 686 0
 319 0028 98F80030 		ldrb	r3, [r8, #0]	@ zero_extendqisi2
 320 002c 012B     		cmp	r3, #1
 321 002e 06D0     		beq	.L42
 322              		.loc 1 686 0 is_stmt 0 discriminator 1
 323 0030 D8F85C30 		ldr	r3, [r8, #92]
 324 0034 9BB9     		cbnz	r3, .L43
 325              		.loc 1 687 0 is_stmt 1
 326 0036 019A     		ldr	r2, [sp, #4]
 327 0038 5369     		ldr	r3, [r2, #20]
 328 003a D806     		lsls	r0, r3, #27
 329 003c 0FD4     		bmi	.L43
 330              	.L42:
 331              		.loc 1 688 0
 332 003e 0199     		ldr	r1, [sp, #4]
 333 0040 8A69     		ldr	r2, [r1, #24]
 334              		.loc 1 689 0
 335 0042 40F20001 		movw	r1, #:lower16:rlist
 336 0046 C0F20001 		movt	r1, #:upper16:rlist
 337              		.loc 1 688 0
 338 004a 42F01002 		orr	r2, r2, #16
ARM GAS  /tmp/ccszEVcB.s 			page 7


 339              		.loc 1 689 0
 340 004e 8B69     		ldr	r3, [r1, #24]
 341              		.loc 1 688 0
 342 0050 0199     		ldr	r1, [sp, #4]
 343              		.loc 1 690 0
 344 0052 0220     		movs	r0, #2
 345              		.loc 1 688 0
 346 0054 8A61     		str	r2, [r1, #24]
 347              		.loc 1 689 0
 348 0056 C8F86430 		str	r3, [r8, #100]
 349              		.loc 1 690 0
 350 005a FFF7FEFF 		bl	chSchGoSleepS
 351              	.LVL26:
 352              	.L43:
 353              		.loc 1 692 0
 354 005e FFF7FEFF 		bl	dbg_check_unlock
 355              	.LVL27:
 356              	.LBB84:
 357 0062 0023     		movs	r3, #0
 358              	.LVL28:
 359              	@ 692 "../../ChibiOS/os/hal/platforms/STM32/OTGv1/usb_lld.c" 1
 360 0064 83F31188 		msr     BASEPRI, r3
 361              	@ 0 "" 2
 362              	.LVL29:
 363              		.loc 1 695 0
 364              		.thumb
 365 0068 1C46     		mov	r4, r3
 366              	.LVL30:
 367              	.L142:
 368              	.LBE84:
 369              		.loc 1 698 0 discriminator 1
 370 006a 019A     		ldr	r2, [sp, #4]
 371 006c 5369     		ldr	r3, [r2, #20]
 372 006e 13F01005 		ands	r5, r3, #16
 373 0072 25D0     		beq	.L153
 374              	.L68:
 375              	.LVL31:
 376              	.LBB85:
 377              	.LBB86:
 378              		.loc 1 448 0
 379 0074 D8F85010 		ldr	r1, [r8, #80]
 380 0078 0E6A     		ldr	r6, [r1, #32]
 381              	.LVL32:
 382              		.loc 1 449 0
 383 007a 06F4F013 		and	r3, r6, #1966080
 384 007e B3F5802F 		cmp	r3, #262144
 385 0082 34D0     		beq	.L46
 386 0084 B3F5402F 		cmp	r3, #786432
 387 0088 EFD1     		bne	.L142
 388              	.LVL33:
 389              		.loc 1 454 0
 390 008a 06F00F02 		and	r2, r6, #15
 391              	.LVL34:
 392              		.loc 1 455 0
 393 008e 08EB8202 		add	r2, r8, r2, lsl #2
 394              	.LVL35:
 395              		.loc 1 453 0
ARM GAS  /tmp/ccszEVcB.s 			page 8


 396 0092 C6F30A13 		ubfx	r3, r6, #4, #11
 397              		.loc 1 455 0
 398 0096 D268     		ldr	r2, [r2, #12]
 399              	.LBB87:
 400              	.LBB88:
 401              		.loc 1 366 0
 402 0098 0333     		adds	r3, r3, #3
 403              		.loc 1 368 0
 404 009a 9B08     		lsrs	r3, r3, #2
 405              	.LBE88:
 406              	.LBE87:
 407              		.loc 1 455 0
 408 009c 106A     		ldr	r0, [r2, #32]
 409              	.LVL36:
 410              	.LBB91:
 411              	.LBB90:
 412              		.loc 1 368 0
 413 009e E4D0     		beq	.L142
 414 00a0 0222     		movs	r2, #2
 415 00a2 01F5805E 		add	lr, r1, #4096
 416              	.LVL37:
 417              	.L48:
 418              	.LBB89:
 419              		.loc 1 369 0
 420 00a6 DEF80010 		ldr	r1, [lr, #0]
 421              	.LVL38:
 422              		.loc 1 370 0
 423 00aa 12B1     		cbz	r2, .L50
 424              		.loc 1 373 0
 425 00ac 40F8041B 		str	r1, [r0], #4
 426              	.LVL39:
 427              		.loc 1 375 0
 428 00b0 013A     		subs	r2, r2, #1
 429              	.LVL40:
 430              	.L50:
 431              	.LBE89:
 432              		.loc 1 368 0
 433 00b2 013B     		subs	r3, r3, #1
 434              	.LVL41:
 435 00b4 F7D1     		bne	.L48
 436              	.LBE90:
 437              	.LBE91:
 438              	.LBE86:
 439              	.LBE85:
 440              		.loc 1 698 0
 441 00b6 019A     		ldr	r2, [sp, #4]
 442              	.LVL42:
 443 00b8 5369     		ldr	r3, [r2, #20]
 444              	.LVL43:
 445 00ba 13F01005 		ands	r5, r3, #16
 446 00be D9D1     		bne	.L68
 447              	.LVL44:
 448              	.L153:
 449              		.loc 1 702 0
 450 00c0 0121     		movs	r1, #1
 451              		.loc 1 703 0
 452 00c2 D8F85C30 		ldr	r3, [r8, #92]
ARM GAS  /tmp/ccszEVcB.s 			page 9


 453              		.loc 1 702 0
 454 00c6 A140     		lsls	r1, r1, r4
 455              		.loc 1 703 0
 456 00c8 1942     		tst	r1, r3
 457              		.loc 1 702 0
 458 00ca 0391     		str	r1, [sp, #12]
 459              	.LVL45:
 460              		.loc 1 703 0
 461 00cc 40F08880 		bne	.L144
 462 00d0 0134     		adds	r4, r4, #1
 463 00d2 0494     		str	r4, [sp, #16]
 464              	.LVL46:
 465              	.L69:
 466              		.loc 1 695 0
 467 00d4 D8F85430 		ldr	r3, [r8, #84]
 468              	.LVL47:
 469 00d8 0499     		ldr	r1, [sp, #16]
 470 00da 9B68     		ldr	r3, [r3, #8]
 471 00dc CCB2     		uxtb	r4, r1
 472              	.LVL48:
 473 00de 9C42     		cmp	r4, r3
 474 00e0 C3D9     		bls	.L142
 475              	.LBB107:
 476              		.loc 1 727 0
 477 00e2 2023     		movs	r3, #32
 478              	.LVL49:
 479              	@ 727 "../../ChibiOS/os/hal/platforms/STM32/OTGv1/usb_lld.c" 1
 480 00e4 83F31188 		msr     BASEPRI, r3
 481              	@ 0 "" 2
 482              	.LVL50:
 483              		.thumb
 484              	.LBE107:
 485 00e8 FFF7FEFF 		bl	dbg_check_lock
 486              	.LVL51:
 487              	.LBE82:
 488              		.loc 1 728 0
 489 00ec 9CE7     		b	.L100
 490              	.LVL52:
 491              	.L46:
 492              	.LBB145:
 493              	.LBB108:
 494              	.LBB106:
 495              		.loc 1 460 0
 496 00ee 06F00F07 		and	r7, r6, #15
 497              		.loc 1 461 0
 498 00f2 0237     		adds	r7, r7, #2
 499 00f4 08EB8703 		add	r3, r8, r7, lsl #2
 500              		.loc 1 459 0
 501 00f8 C6F30A16 		ubfx	r6, r6, #4, #11
 502              	.LVL53:
 503              		.loc 1 461 0
 504 00fc 5B68     		ldr	r3, [r3, #4]
 505 00fe 9869     		ldr	r0, [r3, #24]
 506 0100 0378     		ldrb	r3, [r0, #0]	@ zero_extendqisi2
 507 0102 EBB9     		cbnz	r3, .L154
 508              		.loc 1 468 0
 509 0104 021D     		adds	r2, r0, #4
ARM GAS  /tmp/ccszEVcB.s 			page 10


 510 0106 2CCA     		ldmia	r2, {r2, r3, r5}
 511              	.LVL54:
 512 0108 0332     		adds	r2, r2, #3
 513              	.LVL55:
 514              	.LBB92:
 515              	.LBB93:
 516              		.loc 1 367 0
 517 010a D21A     		subs	r2, r2, r3
 518              		.loc 1 366 0
 519 010c F31C     		adds	r3, r6, #3
 520              	.LVL56:
 521              		.loc 1 367 0
 522 010e 9208     		lsrs	r2, r2, #2
 523              	.LVL57:
 524              		.loc 1 368 0
 525 0110 9B08     		lsrs	r3, r3, #2
 526              	.LVL58:
 527 0112 1CBF     		itt	ne
 528 0114 AC46     		movne	ip, r5
 529 0116 01F5805E 		addne	lr, r1, #4096
 530 011a 07D0     		beq	.L67
 531              	.LVL59:
 532              	.L66:
 533              	.LBB94:
 534              		.loc 1 369 0
 535 011c DEF80010 		ldr	r1, [lr, #0]
 536              	.LVL60:
 537              		.loc 1 370 0
 538 0120 12B1     		cbz	r2, .L65
 539              		.loc 1 373 0
 540 0122 4CF8041B 		str	r1, [ip], #4
 541              	.LVL61:
 542              		.loc 1 375 0
 543 0126 013A     		subs	r2, r2, #1
 544              	.LVL62:
 545              	.L65:
 546              	.LBE94:
 547              		.loc 1 368 0
 548 0128 013B     		subs	r3, r3, #1
 549              	.LVL63:
 550 012a F7D1     		bne	.L66
 551              	.LVL64:
 552              	.L67:
 553              	.LBE93:
 554              	.LBE92:
 555              		.loc 1 473 0
 556 012c AD19     		adds	r5, r5, r6
 557 012e C560     		str	r5, [r0, #12]
 558              	.LVL65:
 559              	.L62:
 560              		.loc 1 475 0
 561 0130 08EB8707 		add	r7, r8, r7, lsl #2
 562              	.LVL66:
 563 0134 7B68     		ldr	r3, [r7, #4]
 564              	.LVL67:
 565 0136 9B69     		ldr	r3, [r3, #24]
 566 0138 9A68     		ldr	r2, [r3, #8]
ARM GAS  /tmp/ccszEVcB.s 			page 11


 567 013a 9219     		adds	r2, r2, r6
 568 013c 9A60     		str	r2, [r3, #8]
 569 013e 94E7     		b	.L142
 570              	.LVL68:
 571              	.L154:
 572              		.loc 1 463 0
 573 0140 01F5805E 		add	lr, r1, #4096
 574 0144 C568     		ldr	r5, [r0, #12]
 575              	.LVL69:
 576              	.LBB95:
 577              	.LBB96:
 578              		.loc 1 396 0
 579 0146 5EB3     		cbz	r6, .L53
 580 0148 3046     		mov	r0, r6
 581              	.LVL70:
 582              	.L141:
 583              	.LBB97:
 584              		.loc 1 400 0
 585 014a 0328     		cmp	r0, #3
 586 014c 07D9     		bls	.L57
 587              	.LVL71:
 588              	.L155:
 589              	.LBB98:
 590              		.loc 1 406 0
 591 014e 6B69     		ldr	r3, [r5, #20]
 592 0150 2A69     		ldr	r2, [r5, #16]
 593 0152 9342     		cmp	r3, r2
 594 0154 41D3     		bcc	.L58
 595              		.loc 1 407 0
 596 0156 EB68     		ldr	r3, [r5, #12]
 597              	.LBE98:
 598              		.loc 1 400 0
 599 0158 0328     		cmp	r0, #3
 600              	.LBB99:
 601              		.loc 1 407 0
 602 015a 6B61     		str	r3, [r5, #20]
 603              	.LVL72:
 604              	.LBE99:
 605              		.loc 1 400 0
 606 015c F7D8     		bhi	.L155
 607              	.LVL73:
 608              	.L57:
 609              		.loc 1 418 0
 610 015e DEF800C0 		ldr	ip, [lr, #0]
 611              	.LVL74:
 612              		.loc 1 420 0
 613 0162 E8B1     		cbz	r0, .L53
 614 0164 6B69     		ldr	r3, [r5, #20]
 615              	.L101:
 616              	.LBE97:
 617              		.loc 1 396 0
 618 0166 0022     		movs	r2, #0
 619 0168 00E0     		b	.L61
 620              	.LVL75:
 621              	.L156:
 622 016a 6B69     		ldr	r3, [r5, #20]
 623              	.LVL76:
ARM GAS  /tmp/ccszEVcB.s 			page 12


 624              	.L61:
 625              	.LBB100:
 626              		.loc 1 675 0
 627 016c D100     		lsls	r1, r2, #3
 628              		.loc 1 421 0
 629 016e 2CFA01F1 		lsr	r1, ip, r1
 630 0172 03F8011B 		strb	r1, [r3], #1
 631              		.loc 1 422 0
 632 0176 2969     		ldr	r1, [r5, #16]
 633              		.loc 1 421 0
 634 0178 6B61     		str	r3, [r5, #20]
 635              		.loc 1 422 0
 636 017a 8B42     		cmp	r3, r1
 637              		.loc 1 423 0
 638 017c 24BF     		itt	cs
 639 017e EB68     		ldrcs	r3, [r5, #12]
 640 0180 6B61     		strcs	r3, [r5, #20]
 641              		.loc 1 420 0
 642 0182 0138     		subs	r0, r0, #1
 643              	.LVL77:
 644              		.loc 1 425 0
 645 0184 02F10102 		add	r2, r2, #1
 646              	.LVL78:
 647              		.loc 1 420 0
 648 0188 0CBF     		ite	eq
 649 018a 0023     		moveq	r3, #0
 650 018c 0123     		movne	r3, #1
 651 018e 032A     		cmp	r2, #3
 652 0190 8CBF     		ite	hi
 653 0192 0023     		movhi	r3, #0
 654 0194 03F00103 		andls	r3, r3, #1
 655 0198 002B     		cmp	r3, #0
 656 019a E6D1     		bne	.L156
 657              	.LVL79:
 658              	.LBE100:
 659              		.loc 1 396 0
 660 019c 0028     		cmp	r0, #0
 661 019e D4D1     		bne	.L141
 662              	.LVL80:
 663              	.L53:
 664              	.LBB101:
 665              		.loc 1 430 0
 666 01a0 2023     		movs	r3, #32
 667              	.LVL81:
 668              	@ 430 "../../ChibiOS/os/hal/platforms/STM32/OTGv1/usb_lld.c" 1
 669 01a2 83F31188 		msr     BASEPRI, r3
 670              	@ 0 "" 2
 671              	.LVL82:
 672              		.thumb
 673              	.LBE101:
 674 01a6 FFF7FEFF 		bl	dbg_check_lock
 675              	.LVL83:
 676              		.loc 1 431 0
 677 01aa AB68     		ldr	r3, [r5, #8]
 678              		.loc 1 432 0
 679 01ac 2868     		ldr	r0, [r5, #0]
 680              		.loc 1 431 0
ARM GAS  /tmp/ccszEVcB.s 			page 13


 681 01ae 9B19     		adds	r3, r3, r6
 682              		.loc 1 432 0
 683 01b0 A842     		cmp	r0, r5
 684              		.loc 1 431 0
 685 01b2 AB60     		str	r3, [r5, #8]
 686              		.loc 1 432 0
 687 01b4 09D0     		beq	.L56
 688              	.L123:
 689              	.LVL84:
 690              	.LBB102:
 691              	.LBB103:
 692              		.file 2 "../../ChibiOS/os/kernel/include/chinline.h"
 693              		.loc 2 55 0
 694 01b6 0368     		ldr	r3, [r0, #0]
 695 01b8 2B60     		str	r3, [r5, #0]
 696 01ba 5D60     		str	r5, [r3, #4]
 697              	.LBE103:
 698              	.LBE102:
 699              		.loc 1 433 0
 700 01bc FFF7FEFF 		bl	chSchReadyI
 701              	.LVL85:
 702 01c0 C0F82890 		str	r9, [r0, #40]
 703              		.loc 1 432 0
 704 01c4 2868     		ldr	r0, [r5, #0]
 705 01c6 A842     		cmp	r0, r5
 706 01c8 F5D1     		bne	.L123
 707              	.LVL86:
 708              	.L56:
 709              		.loc 1 434 0
 710 01ca FFF7FEFF 		bl	chSchRescheduleS
 711              	.LVL87:
 712              		.loc 1 435 0
 713 01ce FFF7FEFF 		bl	dbg_check_unlock
 714              	.LVL88:
 715              	.LBB104:
 716 01d2 0023     		movs	r3, #0
 717              	@ 435 "../../ChibiOS/os/hal/platforms/STM32/OTGv1/usb_lld.c" 1
 718 01d4 83F31188 		msr     BASEPRI, r3
 719              	@ 0 "" 2
 720              	.LVL89:
 721              		.thumb
 722 01d8 AAE7     		b	.L62
 723              	.LVL90:
 724              	.L58:
 725              	.LBE104:
 726              	.LBB105:
 727              		.loc 1 418 0
 728 01da DEF800C0 		ldr	ip, [lr, #0]
 729              	.LVL91:
 730 01de C2E7     		b	.L101
 731              	.LVL92:
 732              	.L144:
 733              	.LBE105:
 734              	.LBE96:
 735              	.LBE95:
 736              	.LBE106:
 737              	.LBE108:
ARM GAS  /tmp/ccszEVcB.s 			page 14


 738              	.LBB109:
 739              	.LBB110:
 740              		.loc 1 706 0
 741 01e0 2023     		movs	r3, #32
 742              	.LVL93:
 743              	@ 706 "../../ChibiOS/os/hal/platforms/STM32/OTGv1/usb_lld.c" 1
 744 01e2 83F31188 		msr     BASEPRI, r3
 745              	@ 0 "" 2
 746              	.LVL94:
 747              		.thumb
 748              	.LBE110:
 749 01e6 FFF7FEFF 		bl	dbg_check_lock
 750              	.LVL95:
 751              		.loc 1 714 0
 752 01ea 0199     		ldr	r1, [sp, #4]
 753              		.loc 1 715 0
 754 01ec D8F85C30 		ldr	r3, [r8, #92]
 755              		.loc 1 714 0
 756 01f0 8A68     		ldr	r2, [r1, #8]
 757              		.loc 1 715 0
 758 01f2 0399     		ldr	r1, [sp, #12]
 759 01f4 23EA0103 		bic	r3, r3, r1
 760              		.loc 1 714 0
 761 01f8 0199     		ldr	r1, [sp, #4]
 762 01fa 22F00102 		bic	r2, r2, #1
 763 01fe 8A60     		str	r2, [r1, #8]
 764              		.loc 1 715 0
 765 0200 C8F85C30 		str	r3, [r8, #92]
 766              		.loc 1 716 0
 767 0204 FFF7FEFF 		bl	dbg_check_unlock
 768              	.LVL96:
 769              	.LBB111:
 770 0208 2B46     		mov	r3, r5
 771              	.LVL97:
 772              	@ 716 "../../ChibiOS/os/hal/platforms/STM32/OTGv1/usb_lld.c" 1
 773 020a 83F31188 		msr     BASEPRI, r3
 774              	@ 0 "" 2
 775              	.LVL98:
 776              		.thumb
 777              	.LBE111:
 778              	.LBB112:
 779              	.LBB113:
 780              		.loc 1 499 0
 781 020e A31C     		adds	r3, r4, #2
 782              	.LVL99:
 783 0210 08EB8303 		add	r3, r8, r3, lsl #2
 784 0214 5D68     		ldr	r5, [r3, #4]
 785 0216 6869     		ldr	r0, [r5, #20]
 786 0218 8168     		ldr	r1, [r0, #8]
 787 021a 4668     		ldr	r6, [r0, #4]
 788 021c 8E42     		cmp	r6, r1
 789 021e 40F2CA80 		bls	.L157
 790              		.loc 1 509 0
 791 0222 D8F85020 		ldr	r2, [r8, #80]
 792              		.loc 1 504 0
 793 0226 2D8A     		ldrh	r5, [r5, #16]
 794              		.loc 1 509 0
ARM GAS  /tmp/ccszEVcB.s 			page 15


 795 0228 6701     		lsls	r7, r4, #5
 796 022a 02EB070E 		add	lr, r2, r7
 797              		.loc 1 503 0
 798 022e 761A     		subs	r6, r6, r1
 799              	.LVL100:
 800              		.loc 1 509 0
 801 0230 DEF81819 		ldr	r1, [lr, #2328]
 802 0234 AE42     		cmp	r6, r5
 803 0236 38BF     		it	cc
 804 0238 3546     		movcc	r5, r6
 805              	.LVL101:
 806 023a 89B2     		uxth	r1, r1
 807 023c 0134     		adds	r4, r4, #1
 808              	.LVL102:
 809 023e B5EB810F 		cmp	r5, r1, lsl #2
 810 0242 0494     		str	r4, [sp, #16]
 811 0244 2DD8     		bhi	.L73
 812              		.loc 1 524 0
 813 0246 2603     		lsls	r6, r4, #12
 814              		.loc 1 529 0
 815 0248 0293     		str	r3, [sp, #8]
 816              	.LVL103:
 817              	.L74:
 818              		.loc 1 516 0
 819 024a 0378     		ldrb	r3, [r0, #0]	@ zero_extendqisi2
 820 024c 002B     		cmp	r3, #0
 821 024e 43D1     		bne	.L158
 822              	.LBB114:
 823              	.LBB115:
 824              		.loc 1 265 0
 825 0250 EB1C     		adds	r3, r5, #3
 826              	.LBB116:
 827              	.LBB117:
 828              		.loc 1 242 0
 829 0252 9B08     		lsrs	r3, r3, #2
 830              	.LBE117:
 831              	.LBE116:
 832              	.LBE115:
 833              	.LBE114:
 834              		.loc 1 524 0
 835 0254 02EB060C 		add	ip, r2, r6
 836 0258 C468     		ldr	r4, [r0, #12]
 837              	.LVL104:
 838              	.LBB124:
 839              	.LBB122:
 840              	.LBB120:
 841              	.LBB118:
 842              		.loc 1 242 0
 843 025a 07D0     		beq	.L94
 844              	.LBE118:
 845              	.LBE120:
 846              	.LBE122:
 847              	.LBE124:
 848              		.loc 1 675 0
 849 025c 221D     		adds	r2, r4, #4
 850              	.LVL105:
 851              	.L93:
ARM GAS  /tmp/ccszEVcB.s 			page 16


 852              	.LBB125:
 853              	.LBB123:
 854              	.LBB121:
 855              	.LBB119:
 856              		.loc 1 245 0
 857 025e 52F8041C 		ldr	r1, [r2, #-4]
 858 0262 0432     		adds	r2, r2, #4
 859              		.loc 1 242 0
 860 0264 013B     		subs	r3, r3, #1
 861              		.loc 1 245 0
 862 0266 CCF80010 		str	r1, [ip, #0]
 863              		.loc 1 242 0
 864 026a F8D1     		bne	.L93
 865              	.L94:
 866              	.LBE119:
 867              	.LBE121:
 868              	.LBE123:
 869              	.LBE125:
 870              		.loc 1 527 0
 871 026c 6419     		adds	r4, r4, r5
 872              	.LVL106:
 873 026e C460     		str	r4, [r0, #12]
 874              	.LVL107:
 875              	.L90:
 876              		.loc 1 529 0
 877 0270 029A     		ldr	r2, [sp, #8]
 878 0272 5468     		ldr	r4, [r2, #4]
 879 0274 6069     		ldr	r0, [r4, #20]
 880 0276 8368     		ldr	r3, [r0, #8]
 881              	.LVL108:
 882              		.loc 1 499 0
 883 0278 4168     		ldr	r1, [r0, #4]
 884              		.loc 1 529 0
 885 027a EB18     		adds	r3, r5, r3
 886              		.loc 1 499 0
 887 027c 9942     		cmp	r1, r3
 888              		.loc 1 529 0
 889 027e 8360     		str	r3, [r0, #8]
 890              		.loc 1 499 0
 891 0280 40F29B80 		bls	.L95
 892              		.loc 1 509 0
 893 0284 D8F85020 		ldr	r2, [r8, #80]
 894              		.loc 1 504 0
 895 0288 248A     		ldrh	r4, [r4, #16]
 896              		.loc 1 509 0
 897 028a 02EB070E 		add	lr, r2, r7
 898              		.loc 1 503 0
 899 028e CD1A     		subs	r5, r1, r3
 900              	.LVL109:
 901              		.loc 1 509 0
 902 0290 DEF81839 		ldr	r3, [lr, #2328]
 903 0294 A542     		cmp	r5, r4
 904 0296 28BF     		it	cs
 905 0298 2546     		movcs	r5, r4
 906              	.LVL110:
 907 029a 9BB2     		uxth	r3, r3
 908 029c B5EB830F 		cmp	r5, r3, lsl #2
ARM GAS  /tmp/ccszEVcB.s 			page 17


 909 02a0 D3D9     		bls	.L74
 910              	.L73:
 911              	.LBB126:
 912              	.LBB127:
 913              	.LBB128:
 914              		.loc 1 510 0
 915 02a2 0024     		movs	r4, #0
 916              	.LVL111:
 917              	.L71:
 918              	.LBE128:
 919              	.LBE127:
 920              	.LBE126:
 921              	.LBE113:
 922              	.LBE112:
 923              	.LBB142:
 924              		.loc 1 720 0
 925 02a4 2023     		movs	r3, #32
 926              	.LVL112:
 927              	@ 720 "../../ChibiOS/os/hal/platforms/STM32/OTGv1/usb_lld.c" 1
 928 02a6 83F31188 		msr     BASEPRI, r3
 929              	@ 0 "" 2
 930              	.LVL113:
 931              		.thumb
 932              	.LBE142:
 933 02aa FFF7FEFF 		bl	dbg_check_lock
 934              	.LVL114:
 935              		.loc 1 721 0
 936 02ae 0199     		ldr	r1, [sp, #4]
 937 02b0 8B68     		ldr	r3, [r1, #8]
 938 02b2 43F00103 		orr	r3, r3, #1
 939 02b6 8B60     		str	r3, [r1, #8]
 940              		.loc 1 722 0
 941 02b8 2CB9     		cbnz	r4, .L97
 942              		.loc 1 723 0
 943 02ba D1F83438 		ldr	r3, [r1, #2100]
 944 02be 039A     		ldr	r2, [sp, #12]
 945 02c0 1343     		orrs	r3, r3, r2
 946 02c2 C1F83438 		str	r3, [r1, #2100]
 947              	.L97:
 948              		.loc 1 724 0
 949 02c6 FFF7FEFF 		bl	dbg_check_unlock
 950              	.LVL115:
 951              	.LBB143:
 952 02ca 0023     		movs	r3, #0
 953              	@ 724 "../../ChibiOS/os/hal/platforms/STM32/OTGv1/usb_lld.c" 1
 954 02cc 83F31188 		msr     BASEPRI, r3
 955              	@ 0 "" 2
 956              	.LVL116:
 957              		.thumb
 958 02d0 00E7     		b	.L69
 959              	.L160:
 960 02d2 00BF     		.align	2
 961              	.L159:
 962 02d4 00000000 		.word	.LC0
 963              	.LVL117:
 964              	.L158:
 965              	.LBE143:
ARM GAS  /tmp/ccszEVcB.s 			page 18


 966              	.LBB144:
 967              	.LBB141:
 968              		.loc 1 518 0
 969 02d8 02EB060C 		add	ip, r2, r6
 970 02dc C468     		ldr	r4, [r0, #12]
 971              	.LVL118:
 972              	.LBB140:
 973              	.LBB139:
 974              		.loc 1 283 0
 975 02de 3DB3     		cbz	r5, .L84
 976 02e0 2946     		mov	r1, r5
 977 02e2 AE46     		mov	lr, r5
 978 02e4 0596     		str	r6, [sp, #20]
 979              	.LVL119:
 980              	.L89:
 981              	.LBB132:
 982              		.loc 1 287 0
 983 02e6 8808     		lsrs	r0, r1, #2
 984              	.LVL120:
 985 02e8 3FD0     		beq	.L79
 986              	.LBB129:
 987              		.loc 1 289 0
 988 02ea 2569     		ldr	r5, [r4, #16]
 989 02ec A669     		ldr	r6, [r4, #24]
 990              	.LVL121:
 991 02ee AA1B     		subs	r2, r5, r6
 992 02f0 D31C     		adds	r3, r2, #3
 993 02f2 32EA2202 		bics	r2, r2, r2, asr #32
 994 02f6 28BF     		it	cs
 995 02f8 1A46     		movcs	r2, r3
 996 02fa 9310     		asrs	r3, r2, #2
 997              		.loc 1 291 0
 998 02fc 9842     		cmp	r0, r3
 999 02fe 38BF     		it	cc
 1000 0300 0346     		movcc	r3, r0
 1001              	.LVL122:
 1002 0302 4FEA830B 		lsl	fp, r3, #2
 1003 0306 CBEB0101 		rsb	r1, fp, r1
 1004              	.LVL123:
 1005              	.LBB130:
 1006              	.LBB131:
 1007              		.loc 1 242 0
 1008 030a 43B1     		cbz	r3, .L80
 1009              		.loc 1 675 0
 1010 030c 321D     		adds	r2, r6, #4
 1011              	.LVL124:
 1012              	.L81:
 1013              		.loc 1 245 0
 1014 030e 52F8040C 		ldr	r0, [r2, #-4]
 1015 0312 0432     		adds	r2, r2, #4
 1016              		.loc 1 242 0
 1017 0314 013B     		subs	r3, r3, #1
 1018              		.loc 1 245 0
 1019 0316 CCF80000 		str	r0, [ip, #0]
 1020              		.loc 1 242 0
 1021 031a F8D1     		bne	.L81
 1022 031c 5E44     		add	r6, r6, fp
ARM GAS  /tmp/ccszEVcB.s 			page 19


 1023              	.LVL125:
 1024              	.L80:
 1025              	.LBE131:
 1026              	.LBE130:
 1027              		.loc 1 293 0
 1028 031e B542     		cmp	r5, r6
 1029              		.loc 1 292 0
 1030 0320 A661     		str	r6, [r4, #24]
 1031              		.loc 1 293 0
 1032 0322 45D8     		bhi	.L82
 1033              		.loc 1 294 0
 1034 0324 E368     		ldr	r3, [r4, #12]
 1035 0326 A361     		str	r3, [r4, #24]
 1036              	.LBE129:
 1037              	.LBE132:
 1038              		.loc 1 283 0
 1039 0328 0029     		cmp	r1, #0
 1040 032a DCD1     		bne	.L89
 1041              	.LVL126:
 1042              	.L152:
 1043 032c 059E     		ldr	r6, [sp, #20]
 1044 032e 7546     		mov	r5, lr
 1045              	.LVL127:
 1046              	.L84:
 1047              	.LBB133:
 1048              		.loc 1 318 0
 1049 0330 2023     		movs	r3, #32
 1050              	.LVL128:
 1051              	@ 318 "../../ChibiOS/os/hal/platforms/STM32/OTGv1/usb_lld.c" 1
 1052 0332 83F31188 		msr     BASEPRI, r3
 1053              	@ 0 "" 2
 1054              	.LVL129:
 1055              		.thumb
 1056              	.LBE133:
 1057 0336 FFF7FEFF 		bl	dbg_check_lock
 1058              	.LVL130:
 1059              		.loc 1 319 0
 1060 033a A368     		ldr	r3, [r4, #8]
 1061              		.loc 1 320 0
 1062 033c 2068     		ldr	r0, [r4, #0]
 1063              		.loc 1 319 0
 1064 033e 5B19     		adds	r3, r3, r5
 1065              		.loc 1 320 0
 1066 0340 A042     		cmp	r0, r4
 1067              		.loc 1 319 0
 1068 0342 A360     		str	r3, [r4, #8]
 1069              		.loc 1 320 0
 1070 0344 09D0     		beq	.L78
 1071              	.L124:
 1072              	.LVL131:
 1073              	.LBB134:
 1074              	.LBB135:
 1075              		.loc 2 55 0
 1076 0346 0368     		ldr	r3, [r0, #0]
 1077 0348 2360     		str	r3, [r4, #0]
 1078 034a 5C60     		str	r4, [r3, #4]
 1079              	.LBE135:
ARM GAS  /tmp/ccszEVcB.s 			page 20


 1080              	.LBE134:
 1081              		.loc 1 321 0
 1082 034c FFF7FEFF 		bl	chSchReadyI
 1083              	.LVL132:
 1084 0350 C0F82890 		str	r9, [r0, #40]
 1085              		.loc 1 320 0
 1086 0354 2068     		ldr	r0, [r4, #0]
 1087 0356 A042     		cmp	r0, r4
 1088 0358 F5D1     		bne	.L124
 1089              	.LVL133:
 1090              	.L78:
 1091              		.loc 1 322 0
 1092 035a FFF7FEFF 		bl	chSchRescheduleS
 1093              	.LVL134:
 1094              		.loc 1 323 0
 1095 035e FFF7FEFF 		bl	dbg_check_unlock
 1096              	.LVL135:
 1097              	.LBB136:
 1098 0362 0023     		movs	r3, #0
 1099              	@ 323 "../../ChibiOS/os/hal/platforms/STM32/OTGv1/usb_lld.c" 1
 1100 0364 83F31188 		msr     BASEPRI, r3
 1101              	@ 0 "" 2
 1102              	.LVL136:
 1103              		.thumb
 1104 0368 82E7     		b	.L90
 1105              	.LVL137:
 1106              	.L79:
 1107              	.LBE136:
 1108              	.LBB137:
 1109              		.loc 1 307 0
 1110 036a 0846     		mov	r0, r1
 1111              	.LVL138:
 1112 036c D9B1     		cbz	r1, .L87
 1113              	.LVL139:
 1114 036e 2569     		ldr	r5, [r4, #16]
 1115              	.LVL140:
 1116              	.L86:
 1117              		.loc 1 309 0
 1118 0370 0020     		movs	r0, #0
 1119 0372 0246     		mov	r2, r0
 1120              	.LVL141:
 1121              	.L85:
 1122              		.loc 1 308 0
 1123 0374 A369     		ldr	r3, [r4, #24]
 1124 0376 13F801AB 		ldrb	sl, [r3], #1	@ zero_extendqisi2
 1125              		.loc 1 675 0
 1126 037a D600     		lsls	r6, r2, #3
 1127              		.loc 1 309 0
 1128 037c AB42     		cmp	r3, r5
 1129              		.loc 1 308 0
 1130 037e A361     		str	r3, [r4, #24]
 1131              		.loc 1 310 0
 1132 0380 24BF     		itt	cs
 1133 0382 E368     		ldrcs	r3, [r4, #12]
 1134 0384 A361     		strcs	r3, [r4, #24]
 1135              		.loc 1 307 0
 1136 0386 0139     		subs	r1, r1, #1
ARM GAS  /tmp/ccszEVcB.s 			page 21


 1137              	.LVL142:
 1138              		.loc 1 312 0
 1139 0388 02F10102 		add	r2, r2, #1
 1140              		.loc 1 307 0
 1141 038c 0CBF     		ite	eq
 1142 038e 0023     		moveq	r3, #0
 1143 0390 0123     		movne	r3, #1
 1144              		.loc 1 308 0
 1145 0392 0AFA06F6 		lsl	r6, sl, r6
 1146              		.loc 1 307 0
 1147 0396 032A     		cmp	r2, #3
 1148 0398 8CBF     		ite	hi
 1149 039a 0023     		movhi	r3, #0
 1150 039c 03F00103 		andls	r3, r3, #1
 1151              		.loc 1 308 0
 1152 03a0 3043     		orrs	r0, r0, r6
 1153              	.LVL143:
 1154              		.loc 1 307 0
 1155 03a2 002B     		cmp	r3, #0
 1156 03a4 E6D1     		bne	.L85
 1157              	.LVL144:
 1158              	.L87:
 1159              		.loc 1 314 0
 1160 03a6 CCF80000 		str	r0, [ip, #0]
 1161              	.LVL145:
 1162              	.LBE137:
 1163              		.loc 1 283 0
 1164 03aa 0029     		cmp	r1, #0
 1165 03ac 9BD1     		bne	.L89
 1166 03ae BDE7     		b	.L152
 1167              	.LVL146:
 1168              	.L82:
 1169              	.LBB138:
 1170              		.loc 1 301 0
 1171 03b0 0029     		cmp	r1, #0
 1172 03b2 DDD1     		bne	.L86
 1173 03b4 BAE7     		b	.L152
 1174              	.LVL147:
 1175              	.L157:
 1176 03b6 0134     		adds	r4, r4, #1
 1177              	.LVL148:
 1178 03b8 0494     		str	r4, [sp, #16]
 1179              	.LVL149:
 1180              	.L95:
 1181              		.loc 1 500 0
 1182 03ba 0124     		movs	r4, #1
 1183 03bc 72E7     		b	.L71
 1184              	.LBE138:
 1185              	.LBE139:
 1186              	.LBE140:
 1187              	.LBE141:
 1188              	.LBE144:
 1189              	.LBE109:
 1190              	.LBE145:
 1191              		.cfi_endproc
 1192              	.LFE136:
 1193              		.size	usb_lld_pump, .-usb_lld_pump
ARM GAS  /tmp/ccszEVcB.s 			page 22


 1194 03be 00BF     		.section	.text.otg_epin_handler,"ax",%progbits
 1195              		.align	2
 1196              		.p2align 4,,15
 1197              		.thumb
 1198              		.thumb_func
 1199              		.type	otg_epin_handler, %function
 1200              	otg_epin_handler:
 1201              	.LFB133:
 1202              		.loc 1 544 0
 1203              		.cfi_startproc
 1204              		@ args = 0, pretend = 0, frame = 0
 1205              		@ frame_needed = 0, uses_anonymous_args = 0
 1206              	.LVL150:
 1207 0000 F8B5     		push	{r3, r4, r5, r6, r7, lr}
 1208              	.LCFI4:
 1209              		.cfi_def_cfa_offset 24
 1210              		.cfi_offset 3, -24
 1211              		.cfi_offset 4, -20
 1212              		.cfi_offset 5, -16
 1213              		.cfi_offset 6, -12
 1214              		.cfi_offset 7, -8
 1215              		.cfi_offset 14, -4
 1216              		.loc 1 545 0
 1217 0002 046D     		ldr	r4, [r0, #80]
 1218              	.LVL151:
 1219              		.loc 1 546 0
 1220 0004 04EB4113 		add	r3, r4, r1, lsl #5
 1221              		.loc 1 548 0
 1222 0008 4FF0FF32 		mov	r2, #-1
 1223              		.loc 1 546 0
 1224 000c D3F80869 		ldr	r6, [r3, #2312]
 1225              	.LVL152:
 1226              		.loc 1 548 0
 1227 0010 C3F80829 		str	r2, [r3, #2312]
 1228              		.loc 1 553 0
 1229 0014 F307     		lsls	r3, r6, #31
 1230              		.loc 1 544 0
 1231 0016 0546     		mov	r5, r0
 1232 0018 0F46     		mov	r7, r1
 1233              		.loc 1 553 0
 1234 001a 03D5     		bpl	.L162
 1235              		.loc 1 553 0 is_stmt 0 discriminator 1
 1236 001c D4F81038 		ldr	r3, [r4, #2064]
 1237 0020 DA07     		lsls	r2, r3, #31
 1238 0022 23D4     		bmi	.L180
 1239              	.LVL153:
 1240              	.L162:
 1241              		.loc 1 557 0 is_stmt 1
 1242 0024 3306     		lsls	r3, r6, #24
 1243 0026 06D5     		bpl	.L161
 1244              		.loc 1 558 0 discriminator 1
 1245 0028 0122     		movs	r2, #1
 1246 002a D4F83438 		ldr	r3, [r4, #2100]
 1247 002e 02FA07F7 		lsl	r7, r2, r7
 1248              		.loc 1 557 0 discriminator 1
 1249 0032 1F42     		tst	r7, r3
 1250 0034 00D1     		bne	.L181
ARM GAS  /tmp/ccszEVcB.s 			page 23


 1251              	.L161:
 1252 0036 F8BD     		pop	{r3, r4, r5, r6, r7, pc}
 1253              	.L181:
 1254              	.LBB150:
 1255              		.loc 1 560 0
 1256 0038 2023     		movs	r3, #32
 1257              	.LVL154:
 1258              	@ 560 "../../ChibiOS/os/hal/platforms/STM32/OTGv1/usb_lld.c" 1
 1259 003a 83F31188 		msr     BASEPRI, r3
 1260              	@ 0 "" 2
 1261              	.LVL155:
 1262              		.thumb
 1263              	.LBE150:
 1264 003e FFF7FEFF 		bl	dbg_check_lock_from_isr
 1265              	.LVL156:
 1266              		.loc 1 561 0
 1267 0042 EB6D     		ldr	r3, [r5, #92]
 1268              		.loc 1 562 0
 1269 0044 D4F83428 		ldr	r2, [r4, #2100]
 1270              	.LBB151:
 1271              	.LBB152:
 1272              		.loc 1 122 0
 1273 0048 686E     		ldr	r0, [r5, #100]
 1274              	.LBE152:
 1275              	.LBE151:
 1276              		.loc 1 561 0
 1277 004a 3B43     		orrs	r3, r3, r7
 1278              		.loc 1 562 0
 1279 004c 22EA0707 		bic	r7, r2, r7
 1280              		.loc 1 561 0
 1281 0050 EB65     		str	r3, [r5, #92]
 1282              		.loc 1 562 0
 1283 0052 C4F83478 		str	r7, [r4, #2100]
 1284              	.LVL157:
 1285              	.LBB154:
 1286              	.LBB153:
 1287              		.loc 1 122 0
 1288 0056 18B1     		cbz	r0, .L164
 1289              		.loc 1 123 0
 1290 0058 FFF7FEFF 		bl	chSchReadyI
 1291              	.LVL158:
 1292              		.loc 1 124 0
 1293 005c 0023     		movs	r3, #0
 1294 005e 6B66     		str	r3, [r5, #100]
 1295              	.L164:
 1296              	.LBE153:
 1297              	.LBE154:
 1298              		.loc 1 564 0
 1299 0060 FFF7FEFF 		bl	dbg_check_unlock_from_isr
 1300              	.LVL159:
 1301              	.LBB155:
 1302 0064 0023     		movs	r3, #0
 1303              	.LVL160:
 1304              	@ 564 "../../ChibiOS/os/hal/platforms/STM32/OTGv1/usb_lld.c" 1
 1305 0066 83F31188 		msr     BASEPRI, r3
 1306              	@ 0 "" 2
 1307              	.LVL161:
ARM GAS  /tmp/ccszEVcB.s 			page 24


 1308              		.thumb
 1309 006a F8BD     		pop	{r3, r4, r5, r6, r7, pc}
 1310              	.LVL162:
 1311              	.L180:
 1312              	.LBE155:
 1313              		.loc 1 555 0
 1314 006c 00EB8103 		add	r3, r0, r1, lsl #2
 1315 0070 B0F808E0 		ldrh	lr, [r0, #8]
 1316 0074 DB68     		ldr	r3, [r3, #12]
 1317 0076 0122     		movs	r2, #1
 1318 0078 02FA01F2 		lsl	r2, r2, r1
 1319 007c 2EEA0202 		bic	r2, lr, r2
 1320 0080 0281     		strh	r2, [r0, #8]	@ movhi
 1321 0082 9B68     		ldr	r3, [r3, #8]
 1322 0084 9847     		blx	r3
 1323              	.LVL163:
 1324 0086 CDE7     		b	.L162
 1325              		.cfi_endproc
 1326              	.LFE133:
 1327              		.size	otg_epin_handler, .-otg_epin_handler
 1328 0088 AFF30080 		.section	.text.Vector14C,"ax",%progbits
 1328      AFF30080 
 1329              		.align	2
 1330              		.p2align 4,,15
 1331              		.global	Vector14C
 1332              		.thumb
 1333              		.thumb_func
 1334              		.type	Vector14C, %function
 1335              	Vector14C:
 1336              	.LFB137:
 1337              		.loc 1 742 0
 1338              		.cfi_startproc
 1339              		@ args = 0, pretend = 0, frame = 0
 1340              		@ frame_needed = 0, uses_anonymous_args = 0
 1341 0000 70B5     		push	{r4, r5, r6, lr}
 1342              	.LCFI5:
 1343              		.cfi_def_cfa_offset 16
 1344              		.cfi_offset 4, -16
 1345              		.cfi_offset 5, -12
 1346              		.cfi_offset 6, -8
 1347              		.cfi_offset 14, -4
 1348              	.LBB162:
 1349              	.LBB163:
 1350              		.loc 1 603 0
 1351 0002 424E     		ldr	r6, .L254
 1352              	.LBE163:
 1353              	.LBE162:
 1354              		.loc 1 744 0
 1355 0004 FFF7FEFF 		bl	dbg_check_enter_isr
 1356              	.LVL164:
 1357              	.LBB172:
 1358              	.LBB170:
 1359              		.loc 1 603 0
 1360 0008 356D     		ldr	r5, [r6, #80]
 1361              	.LVL165:
 1362              		.loc 1 606 0
 1363 000a 6B69     		ldr	r3, [r5, #20]
ARM GAS  /tmp/ccszEVcB.s 			page 25


 1364 000c AC69     		ldr	r4, [r5, #24]
 1365 000e 1C40     		ands	r4, r4, r3
 1366              	.LVL166:
 1367              		.loc 1 610 0
 1368 0010 E104     		lsls	r1, r4, #19
 1369              		.loc 1 607 0
 1370 0012 6C61     		str	r4, [r5, #20]
 1371              		.loc 1 610 0
 1372 0014 2DD4     		bmi	.L244
 1373              	.L184:
 1374              		.loc 1 616 0
 1375 0016 A204     		lsls	r2, r4, #18
 1376              		.loc 1 617 0
 1377 0018 48BF     		it	mi
 1378 001a D5F80838 		ldrmi	r3, [r5, #2056]
 1379              		.loc 1 621 0
 1380 001e 2307     		lsls	r3, r4, #28
 1381 0020 04D5     		bpl	.L187
 1382              		.loc 1 622 0
 1383 0022 7368     		ldr	r3, [r6, #4]
 1384 0024 DB68     		ldr	r3, [r3, #12]
 1385 0026 0BB1     		cbz	r3, .L187
 1386 0028 3848     		ldr	r0, .L254
 1387 002a 9847     		blx	r3
 1388              	.LVL167:
 1389              	.L187:
 1390              		.loc 1 626 0
 1391 002c E006     		lsls	r0, r4, #27
 1392 002e 2BD4     		bmi	.L245
 1393              	.LVL168:
 1394              	.L188:
 1395              		.loc 1 637 0
 1396 0030 6103     		lsls	r1, r4, #13
 1397              		.loc 1 636 0
 1398 0032 D5F81858 		ldr	r5, [r5, #2072]
 1399              	.LVL169:
 1400              		.loc 1 637 0
 1401 0036 07D5     		bpl	.L191
 1402              		.loc 1 638 0
 1403 0038 EA07     		lsls	r2, r5, #31
 1404 003a 4FD4     		bmi	.L246
 1405              		.loc 1 640 0
 1406 003c AB07     		lsls	r3, r5, #30
 1407              	.LVL170:
 1408 003e 53D4     		bmi	.L247
 1409              	.L193:
 1410              		.loc 1 642 0
 1411 0040 6807     		lsls	r0, r5, #29
 1412 0042 57D4     		bmi	.L248
 1413              	.L194:
 1414              		.loc 1 644 0
 1415 0044 2907     		lsls	r1, r5, #28
 1416 0046 5BD4     		bmi	.L249
 1417              	.LVL171:
 1418              	.L191:
 1419              		.loc 1 653 0
 1420 0048 2203     		lsls	r2, r4, #12
ARM GAS  /tmp/ccszEVcB.s 			page 26


 1421 004a 07D5     		bpl	.L197
 1422              		.loc 1 654 0
 1423 004c EB03     		lsls	r3, r5, #15
 1424              	.LVL172:
 1425 004e 38D4     		bmi	.L250
 1426              		.loc 1 656 0
 1427 0050 A803     		lsls	r0, r5, #14
 1428 0052 3CD4     		bmi	.L251
 1429              	.L199:
 1430              		.loc 1 658 0
 1431 0054 6903     		lsls	r1, r5, #13
 1432 0056 2DD4     		bmi	.L252
 1433              	.L200:
 1434              		.loc 1 660 0
 1435 0058 2A03     		lsls	r2, r5, #12
 1436 005a 05D4     		bmi	.L253
 1437              	.LVL173:
 1438              	.L197:
 1439              	.LBE170:
 1440              	.LBE172:
 1441              		.loc 1 748 0
 1442 005c FFF7FEFF 		bl	dbg_check_leave_isr
 1443              	.LVL174:
 1444              		.loc 1 749 0
 1445 0060 BDE87040 		pop	{r4, r5, r6, lr}
 1446              		.loc 1 748 0
 1447 0064 FFF7FEBF 		b	_port_irq_epilogue
 1448              	.LVL175:
 1449              	.L253:
 1450              	.LBB173:
 1451              	.LBB171:
 1452              		.loc 1 661 0
 1453 0068 2848     		ldr	r0, .L254
 1454 006a 0321     		movs	r1, #3
 1455 006c FFF7FEFF 		bl	otg_epout_handler
 1456              	.LVL176:
 1457 0070 F4E7     		b	.L197
 1458              	.LVL177:
 1459              	.L244:
 1460              		.loc 1 611 0
 1461 0072 3046     		mov	r0, r6
 1462 0074 FFF7FEFF 		bl	_usb_reset
 1463              	.LVL178:
 1464              		.loc 1 612 0
 1465 0078 7368     		ldr	r3, [r6, #4]
 1466 007a 1B68     		ldr	r3, [r3, #0]
 1467 007c 002B     		cmp	r3, #0
 1468 007e CAD0     		beq	.L184
 1469 0080 3046     		mov	r0, r6
 1470 0082 0021     		movs	r1, #0
 1471 0084 9847     		blx	r3
 1472              	.LVL179:
 1473 0086 C6E7     		b	.L184
 1474              	.L245:
 1475              	.LBB164:
 1476              		.loc 1 629 0
 1477 0088 2023     		movs	r3, #32
ARM GAS  /tmp/ccszEVcB.s 			page 27


 1478              	.LVL180:
 1479              	@ 629 "../../ChibiOS/os/hal/platforms/STM32/OTGv1/usb_lld.c" 1
 1480 008a 83F31188 		msr     BASEPRI, r3
 1481              	@ 0 "" 2
 1482              	.LVL181:
 1483              		.thumb
 1484              	.LBE164:
 1485 008e FFF7FEFF 		bl	dbg_check_lock_from_isr
 1486              	.LVL182:
 1487              		.loc 1 630 0
 1488 0092 AB69     		ldr	r3, [r5, #24]
 1489              	.LBB165:
 1490              	.LBB166:
 1491              		.loc 1 122 0
 1492 0094 706E     		ldr	r0, [r6, #100]
 1493              	.LBE166:
 1494              	.LBE165:
 1495              		.loc 1 630 0
 1496 0096 23F01003 		bic	r3, r3, #16
 1497 009a AB61     		str	r3, [r5, #24]
 1498              	.LVL183:
 1499              	.LBB168:
 1500              	.LBB167:
 1501              		.loc 1 122 0
 1502 009c 20B1     		cbz	r0, .L189
 1503              		.loc 1 123 0
 1504 009e FFF7FEFF 		bl	chSchReadyI
 1505              	.LVL184:
 1506              		.loc 1 124 0
 1507 00a2 1A4B     		ldr	r3, .L254
 1508 00a4 0022     		movs	r2, #0
 1509 00a6 5A66     		str	r2, [r3, #100]
 1510              	.L189:
 1511              	.LBE167:
 1512              	.LBE168:
 1513              		.loc 1 632 0
 1514 00a8 FFF7FEFF 		bl	dbg_check_unlock_from_isr
 1515              	.LVL185:
 1516              	.LBB169:
 1517 00ac 0023     		movs	r3, #0
 1518              	@ 632 "../../ChibiOS/os/hal/platforms/STM32/OTGv1/usb_lld.c" 1
 1519 00ae 83F31188 		msr     BASEPRI, r3
 1520              	@ 0 "" 2
 1521              	.LVL186:
 1522              		.thumb
 1523 00b2 BDE7     		b	.L188
 1524              	.LVL187:
 1525              	.L252:
 1526              	.LBE169:
 1527              		.loc 1 659 0
 1528 00b4 0221     		movs	r1, #2
 1529 00b6 1548     		ldr	r0, .L254
 1530 00b8 FFF7FEFF 		bl	otg_epout_handler
 1531              	.LVL188:
 1532              		.loc 1 660 0
 1533 00bc 2A03     		lsls	r2, r5, #12
 1534 00be CDD5     		bpl	.L197
ARM GAS  /tmp/ccszEVcB.s 			page 28


 1535 00c0 D2E7     		b	.L253
 1536              	.L250:
 1537              		.loc 1 655 0
 1538 00c2 1248     		ldr	r0, .L254
 1539 00c4 0021     		movs	r1, #0
 1540 00c6 FFF7FEFF 		bl	otg_epout_handler
 1541              	.LVL189:
 1542              		.loc 1 656 0
 1543 00ca A803     		lsls	r0, r5, #14
 1544 00cc C2D5     		bpl	.L199
 1545              	.L251:
 1546              		.loc 1 657 0
 1547 00ce 0121     		movs	r1, #1
 1548 00d0 0E48     		ldr	r0, .L254
 1549 00d2 FFF7FEFF 		bl	otg_epout_handler
 1550              	.LVL190:
 1551              		.loc 1 658 0
 1552 00d6 6903     		lsls	r1, r5, #13
 1553 00d8 BED5     		bpl	.L200
 1554 00da EBE7     		b	.L252
 1555              	.LVL191:
 1556              	.L246:
 1557              		.loc 1 639 0
 1558 00dc 0021     		movs	r1, #0
 1559 00de 0B48     		ldr	r0, .L254
 1560 00e0 FFF7FEFF 		bl	otg_epin_handler
 1561              	.LVL192:
 1562              		.loc 1 640 0
 1563 00e4 AB07     		lsls	r3, r5, #30
 1564 00e6 ABD5     		bpl	.L193
 1565              	.L247:
 1566              		.loc 1 641 0
 1567 00e8 0848     		ldr	r0, .L254
 1568 00ea 0121     		movs	r1, #1
 1569 00ec FFF7FEFF 		bl	otg_epin_handler
 1570              	.LVL193:
 1571              		.loc 1 642 0
 1572 00f0 6807     		lsls	r0, r5, #29
 1573 00f2 A7D5     		bpl	.L194
 1574              	.L248:
 1575              		.loc 1 643 0
 1576 00f4 0221     		movs	r1, #2
 1577 00f6 0548     		ldr	r0, .L254
 1578 00f8 FFF7FEFF 		bl	otg_epin_handler
 1579              	.LVL194:
 1580              		.loc 1 644 0
 1581 00fc 2907     		lsls	r1, r5, #28
 1582 00fe A3D5     		bpl	.L191
 1583              	.L249:
 1584              		.loc 1 645 0
 1585 0100 0248     		ldr	r0, .L254
 1586 0102 0321     		movs	r1, #3
 1587 0104 FFF7FEFF 		bl	otg_epin_handler
 1588              	.LVL195:
 1589 0108 9EE7     		b	.L191
 1590              	.L255:
 1591 010a 00BF     		.align	2
ARM GAS  /tmp/ccszEVcB.s 			page 29


 1592              	.L254:
 1593 010c 00000000 		.word	.LANCHOR0
 1594              	.LBE171:
 1595              	.LBE173:
 1596              		.cfi_endproc
 1597              	.LFE137:
 1598              		.size	Vector14C, .-Vector14C
 1599              		.section	.text.usb_lld_init,"ax",%progbits
 1600              		.align	2
 1601              		.p2align 4,,15
 1602              		.global	usb_lld_init
 1603              		.thumb
 1604              		.thumb_func
 1605              		.type	usb_lld_init, %function
 1606              	usb_lld_init:
 1607              	.LFB138:
 1608              		.loc 1 780 0
 1609              		.cfi_startproc
 1610              		@ args = 0, pretend = 0, frame = 0
 1611              		@ frame_needed = 0, uses_anonymous_args = 0
 1612 0000 38B5     		push	{r3, r4, r5, lr}
 1613              	.LCFI6:
 1614              		.cfi_def_cfa_offset 16
 1615              		.cfi_offset 3, -16
 1616              		.cfi_offset 4, -12
 1617              		.cfi_offset 5, -8
 1618              		.cfi_offset 14, -4
 1619              		.loc 1 784 0
 1620 0002 40F20004 		movw	r4, #:lower16:.LANCHOR0
 1621 0006 C0F20004 		movt	r4, #:upper16:.LANCHOR0
 1622 000a 2046     		mov	r0, r4
 1623 000c FFF7FEFF 		bl	usbObjectInit
 1624              	.LVL196:
 1625              		.loc 1 785 0
 1626 0010 0023     		movs	r3, #0
 1627 0012 2366     		str	r3, [r4, #96]
 1628              		.loc 1 786 0
 1629 0014 6366     		str	r3, [r4, #100]
 1630              		.loc 1 787 0
 1631 0016 4FF0A043 		mov	r3, #1342177280
 1632              	.LBB174:
 1633              		.loc 1 795 0
 1634 001a 04F1B405 		add	r5, r4, #180
 1635              	.LBE174:
 1636              		.loc 1 787 0
 1637 001e 2365     		str	r3, [r4, #80]
 1638              		.loc 1 788 0
 1639 0020 40F20003 		movw	r3, #:lower16:.LANCHOR1
 1640              	.LBB175:
 1641              		.loc 1 795 0
 1642 0024 2946     		mov	r1, r5
 1643 0026 FF22     		movs	r2, #255
 1644 0028 04F16800 		add	r0, r4, #104
 1645              	.LBE175:
 1646              		.loc 1 788 0
 1647 002c C0F20003 		movt	r3, #:upper16:.LANCHOR1
 1648 0030 6365     		str	r3, [r4, #84]
ARM GAS  /tmp/ccszEVcB.s 			page 30


 1649              	.LVL197:
 1650              	.LBB176:
 1651              		.loc 1 795 0
 1652 0032 FFF7FEFF 		bl	_thread_memfill
 1653              	.LVL198:
 1654              		.loc 1 798 0
 1655 0036 2846     		mov	r0, r5
 1656 0038 04F5A671 		add	r1, r4, #332
 1657 003c 5522     		movs	r2, #85
 1658              	.LBE176:
 1659              		.loc 1 826 0
 1660 003e BDE83840 		pop	{r3, r4, r5, lr}
 1661              	.LBB177:
 1662              		.loc 1 798 0
 1663 0042 FFF7FEBF 		b	_thread_memfill
 1664              	.LVL199:
 1665              	.LBE177:
 1666              		.cfi_endproc
 1667              	.LFE138:
 1668              		.size	usb_lld_init, .-usb_lld_init
 1669 0046 00BFAFF3 		.section	.text.usb_lld_start,"ax",%progbits
 1669      0080AFF3 
 1669      0080
 1670              		.align	2
 1671              		.p2align 4,,15
 1672              		.global	usb_lld_start
 1673              		.thumb
 1674              		.thumb_func
 1675              		.type	usb_lld_start, %function
 1676              	usb_lld_start:
 1677              	.LFB139:
 1678              		.loc 1 838 0
 1679              		.cfi_startproc
 1680              		@ args = 0, pretend = 0, frame = 0
 1681              		@ frame_needed = 0, uses_anonymous_args = 0
 1682              	.LVL200:
 1683 0000 70B5     		push	{r4, r5, r6, lr}
 1684              	.LCFI7:
 1685              		.cfi_def_cfa_offset 16
 1686              		.cfi_offset 4, -16
 1687              		.cfi_offset 5, -12
 1688              		.cfi_offset 6, -8
 1689              		.cfi_offset 14, -4
 1690              		.loc 1 841 0
 1691 0002 0378     		ldrb	r3, [r0, #0]	@ zero_extendqisi2
 1692              		.loc 1 839 0
 1693 0004 056D     		ldr	r5, [r0, #80]
 1694              	.LVL201:
 1695              		.loc 1 841 0
 1696 0006 012B     		cmp	r3, #1
 1697              		.loc 1 838 0
 1698 0008 82B0     		sub	sp, sp, #8
 1699              	.LCFI8:
 1700              		.cfi_def_cfa_offset 24
 1701              		.loc 1 838 0
 1702 000a 0646     		mov	r6, r0
 1703              		.loc 1 841 0
ARM GAS  /tmp/ccszEVcB.s 			page 31


 1704 000c 01D0     		beq	.L267
 1705              	.LVL202:
 1706              	.L257:
 1707              		.loc 1 915 0
 1708 000e 02B0     		add	sp, sp, #8
 1709 0010 70BD     		pop	{r4, r5, r6, pc}
 1710              	.LVL203:
 1711              	.L267:
 1712              		.loc 1 844 0
 1713 0012 304B     		ldr	r3, .L271
 1714 0014 9842     		cmp	r0, r3
 1715 0016 49D0     		beq	.L268
 1716              	.LVL204:
 1717              	.L259:
 1718              		.loc 1 869 0
 1719 0018 336E     		ldr	r3, [r6, #96]
 1720              		.loc 1 868 0
 1721 001a 0022     		movs	r2, #0
 1722 001c F265     		str	r2, [r6, #92]
 1723              		.loc 1 869 0
 1724 001e 002B     		cmp	r3, #0
 1725 0020 38D0     		beq	.L269
 1726              	.L260:
 1727              		.loc 1 879 0
 1728 0022 4FF4A252 		mov	r2, #5184
 1729              		.loc 1 882 0
 1730 0026 0323     		movs	r3, #3
 1731 0028 C0F22023 		movt	r3, 544
 1732              		.loc 1 879 0
 1733 002c C4F20002 		movt	r2, 16384
 1734              	.LBB180:
 1735              	.LBB181:
 1736              		.loc 1 129 0
 1737 0030 346D     		ldr	r4, [r6, #80]
 1738              	.LBE181:
 1739              	.LBE180:
 1740              		.loc 1 879 0
 1741 0032 EA60     		str	r2, [r5, #12]
 1742              		.loc 1 882 0
 1743 0034 C5F80038 		str	r3, [r5, #2048]
 1744              		.loc 1 885 0
 1745 0038 0023     		movs	r3, #0
 1746 003a C5F8003E 		str	r3, [r5, #3584]
 1747              		.loc 1 888 0
 1748 003e 4FF45023 		mov	r3, #851968
 1749 0042 AB63     		str	r3, [r5, #56]
 1750              	.LVL205:
 1751              	.LBB183:
 1752              	.LBB182:
 1753              		.loc 1 132 0
 1754 0044 0123     		movs	r3, #1
 1755 0046 2361     		str	r3, [r4, #16]
 1756              	.L261:
 1757              		.loc 1 133 0
 1758 0048 2369     		ldr	r3, [r4, #16]
 1759 004a D807     		lsls	r0, r3, #31
 1760 004c FCD4     		bmi	.L261
ARM GAS  /tmp/ccszEVcB.s 			page 32


 1761              		.loc 1 135 0
 1762 004e 0C20     		movs	r0, #12
 1763 0050 FFF7FEFF 		bl	halPolledDelay
 1764              	.LVL206:
 1765              	.L262:
 1766              		.loc 1 137 0
 1767 0054 2369     		ldr	r3, [r4, #16]
 1768 0056 002B     		cmp	r3, #0
 1769 0058 FCDA     		bge	.L262
 1770              	.LBE182:
 1771              	.LBE183:
 1772              		.loc 1 894 0
 1773 005a 0024     		movs	r4, #0
 1774              	.LVL207:
 1775 005c AC60     		str	r4, [r5, #8]
 1776              		.loc 1 897 0
 1777 005e 3046     		mov	r0, r6
 1778 0060 FFF7FEFF 		bl	otg_disable_ep
 1779              	.LVL208:
 1780              		.loc 1 904 0
 1781 0064 7368     		ldr	r3, [r6, #4]
 1782              		.loc 1 901 0
 1783 0066 C5F81048 		str	r4, [r5, #2064]
 1784              		.loc 1 904 0
 1785 006a DB68     		ldr	r3, [r3, #12]
 1786              		.loc 1 902 0
 1787 006c C5F81448 		str	r4, [r5, #2068]
 1788              		.loc 1 903 0
 1789 0070 C5F81C48 		str	r4, [r5, #2076]
 1790              		.loc 1 904 0
 1791 0074 53B1     		cbz	r3, .L270
 1792              		.loc 1 908 0
 1793 0076 43F20803 		movw	r3, #12296
 1794 007a AB61     		str	r3, [r5, #24]
 1795              	.L264:
 1796              		.loc 1 910 0
 1797 007c 4FF0FF33 		mov	r3, #-1
 1798 0080 6B61     		str	r3, [r5, #20]
 1799              		.loc 1 913 0
 1800 0082 AB68     		ldr	r3, [r5, #8]
 1801 0084 43F00103 		orr	r3, r3, #1
 1802 0088 AB60     		str	r3, [r5, #8]
 1803 008a C0E7     		b	.L257
 1804              	.L270:
 1805              		.loc 1 905 0
 1806 008c 4FF44053 		mov	r3, #12288
 1807 0090 AB61     		str	r3, [r5, #24]
 1808 0092 F3E7     		b	.L264
 1809              	.LVL209:
 1810              	.L269:
 1811              		.loc 1 870 0
 1812 0094 0096     		str	r6, [sp, #0]
 1813 0096 06F16800 		add	r0, r6, #104
 1814 009a 4FF49871 		mov	r1, #304
 1815 009e 0222     		movs	r2, #2
 1816 00a0 0D4B     		ldr	r3, .L271+4
 1817 00a2 FFF7FEFF 		bl	chThdCreateI
ARM GAS  /tmp/ccszEVcB.s 			page 33


 1818              	.LVL210:
 1819 00a6 7066     		str	r0, [r6, #100]
 1820 00a8 3066     		str	r0, [r6, #96]
 1821 00aa BAE7     		b	.L260
 1822              	.LVL211:
 1823              	.L268:
 1824              		.loc 1 846 0
 1825 00ac 4FF46053 		mov	r3, #14336
 1826 00b0 C4F20203 		movt	r3, 16386
 1827              		.loc 1 850 0
 1828 00b4 4320     		movs	r0, #67
 1829              	.LVL212:
 1830              		.loc 1 846 0
 1831 00b6 5A6B     		ldr	r2, [r3, #52]
 1832 00b8 42F08002 		orr	r2, r2, #128
 1833 00bc 5A63     		str	r2, [r3, #52]
 1834              		.loc 1 847 0
 1835 00be 5A69     		ldr	r2, [r3, #20]
 1836 00c0 42F08002 		orr	r2, r2, #128
 1837 00c4 5A61     		str	r2, [r3, #20]
 1838 00c6 0022     		movs	r2, #0
 1839 00c8 5A61     		str	r2, [r3, #20]
 1840              		.loc 1 850 0
 1841 00ca E021     		movs	r1, #224
 1842 00cc FFF7FEFF 		bl	nvicEnableVector
 1843              	.LVL213:
 1844 00d0 A2E7     		b	.L259
 1845              	.L272:
 1846 00d2 00BF     		.align	2
 1847              	.L271:
 1848 00d4 00000000 		.word	.LANCHOR0
 1849 00d8 00000000 		.word	usb_lld_pump
 1850              		.cfi_endproc
 1851              	.LFE139:
 1852              		.size	usb_lld_start, .-usb_lld_start
 1853 00dc AFF30080 		.section	.text.usb_lld_stop,"ax",%progbits
 1854              		.align	2
 1855              		.p2align 4,,15
 1856              		.global	usb_lld_stop
 1857              		.thumb
 1858              		.thumb_func
 1859              		.type	usb_lld_stop, %function
 1860              	usb_lld_stop:
 1861              	.LFB140:
 1862              		.loc 1 924 0
 1863              		.cfi_startproc
 1864              		@ args = 0, pretend = 0, frame = 0
 1865              		@ frame_needed = 0, uses_anonymous_args = 0
 1866              	.LVL214:
 1867 0000 38B5     		push	{r3, r4, r5, lr}
 1868              	.LCFI9:
 1869              		.cfi_def_cfa_offset 16
 1870              		.cfi_offset 3, -16
 1871              		.cfi_offset 4, -12
 1872              		.cfi_offset 5, -8
 1873              		.cfi_offset 14, -4
 1874              		.loc 1 928 0
ARM GAS  /tmp/ccszEVcB.s 			page 34


 1875 0002 0378     		ldrb	r3, [r0, #0]	@ zero_extendqisi2
 1876              		.loc 1 925 0
 1877 0004 056D     		ldr	r5, [r0, #80]
 1878              	.LVL215:
 1879              		.loc 1 928 0
 1880 0006 012B     		cmp	r3, #1
 1881              		.loc 1 924 0
 1882 0008 0446     		mov	r4, r0
 1883              		.loc 1 928 0
 1884 000a 07D0     		beq	.L273
 1885              		.loc 1 932 0
 1886 000c FFF7FEFF 		bl	otg_disable_ep
 1887              	.LVL216:
 1888              		.loc 1 934 0
 1889 0010 0023     		movs	r3, #0
 1890 0012 E365     		str	r3, [r4, #92]
 1891              		.loc 1 936 0
 1892 0014 C5F81C38 		str	r3, [r5, #2076]
 1893              		.loc 1 937 0
 1894 0018 AB60     		str	r3, [r5, #8]
 1895              		.loc 1 938 0
 1896 001a AB63     		str	r3, [r5, #56]
 1897              	.L273:
 1898 001c 38BD     		pop	{r3, r4, r5, pc}
 1899              		.cfi_endproc
 1900              	.LFE140:
 1901              		.size	usb_lld_stop, .-usb_lld_stop
 1902 001e 00BF     		.section	.text.usb_lld_reset,"ax",%progbits
 1903              		.align	2
 1904              		.p2align 4,,15
 1905              		.global	usb_lld_reset
 1906              		.thumb
 1907              		.thumb_func
 1908              		.type	usb_lld_reset, %function
 1909              	usb_lld_reset:
 1910              	.LFB141:
 1911              		.loc 1 963 0
 1912              		.cfi_startproc
 1913              		@ args = 0, pretend = 0, frame = 0
 1914              		@ frame_needed = 0, uses_anonymous_args = 0
 1915              	.LVL217:
 1916 0000 2DE9F041 		push	{r4, r5, r6, r7, r8, lr}
 1917              	.LCFI10:
 1918              		.cfi_def_cfa_offset 24
 1919              		.cfi_offset 4, -24
 1920              		.cfi_offset 5, -20
 1921              		.cfi_offset 6, -16
 1922              		.cfi_offset 7, -12
 1923              		.cfi_offset 8, -8
 1924              		.cfi_offset 14, -4
 1925              		.loc 1 963 0
 1926 0004 8046     		mov	r8, r0
 1927              		.loc 1 968 0
 1928 0006 0021     		movs	r1, #0
 1929              		.loc 1 965 0
 1930 0008 046D     		ldr	r4, [r0, #80]
 1931              	.LVL218:
ARM GAS  /tmp/ccszEVcB.s 			page 35


 1932              		.loc 1 968 0
 1933 000a FFF7FEFF 		bl	otg_txfifo_flush
 1934              	.LVL219:
 1935 000e D8F854E0 		ldr	lr, [r8, #84]
 1936 0012 DEF80800 		ldr	r0, [lr, #8]
 1937              		.loc 1 971 0
 1938 0016 0023     		movs	r3, #0
 1939              		.loc 1 972 0
 1940 0018 4FF00065 		mov	r5, #134217728
 1941              		.loc 1 974 0
 1942 001c FF21     		movs	r1, #255
 1943              	.LVL220:
 1944              	.L279:
 1945              		.loc 1 972 0 discriminator 2
 1946 001e 03F14807 		add	r7, r3, #72
 1947              		.loc 1 973 0 discriminator 2
 1948 0022 03F15806 		add	r6, r3, #88
 1949              		.loc 1 974 0 discriminator 2
 1950 0026 04EB4312 		add	r2, r4, r3, lsl #5
 1951              		.loc 1 972 0 discriminator 2
 1952 002a 7F01     		lsls	r7, r7, #5
 1953              		.loc 1 973 0 discriminator 2
 1954 002c 7601     		lsls	r6, r6, #5
 1955              		.loc 1 971 0 discriminator 2
 1956 002e 0133     		adds	r3, r3, #1
 1957              	.LVL221:
 1958 0030 8342     		cmp	r3, r0
 1959              		.loc 1 972 0 discriminator 2
 1960 0032 E551     		str	r5, [r4, r7]
 1961              		.loc 1 973 0 discriminator 2
 1962 0034 A551     		str	r5, [r4, r6]
 1963              		.loc 1 974 0 discriminator 2
 1964 0036 C2F80819 		str	r1, [r2, #2312]
 1965              		.loc 1 975 0 discriminator 2
 1966 003a C2F8081B 		str	r1, [r2, #2824]
 1967              		.loc 1 971 0 discriminator 2
 1968 003e EED9     		bls	.L279
 1969              	.LBB190:
 1970              	.LBB191:
 1971              		.loc 1 207 0
 1972 0040 DEF80030 		ldr	r3, [lr, #0]
 1973              	.LVL222:
 1974              	.LBE191:
 1975              	.LBE190:
 1976              	.LBB193:
 1977              	.LBB194:
 1978              		.loc 1 179 0
 1979 0044 D8F85020 		ldr	r2, [r8, #80]
 1980              	.LBE194:
 1981              	.LBE193:
 1982              		.loc 1 979 0
 1983 0048 4FF0FF31 		mov	r1, #-1
 1984 004c C4F81818 		str	r1, [r4, #2072]
 1985              		.loc 1 980 0
 1986 0050 4FF00111 		mov	r1, #65537
 1987 0054 C4F81C18 		str	r1, [r4, #2076]
 1988              	.LVL223:
ARM GAS  /tmp/ccszEVcB.s 			page 36


 1989              	.LBB196:
 1990              	.LBB192:
 1991              		.loc 1 207 0
 1992 0058 C8F85830 		str	r3, [r8, #88]
 1993              	.LBE192:
 1994              	.LBE196:
 1995              		.loc 1 986 0
 1996 005c 6362     		str	r3, [r4, #36]
 1997              	.LVL224:
 1998              	.LBB197:
 1999              	.LBB195:
 2000              		.loc 1 181 0
 2001 005e 1023     		movs	r3, #16
 2002 0060 1361     		str	r3, [r2, #16]
 2003              	.L280:
 2004              		.loc 1 182 0
 2005 0062 1369     		ldr	r3, [r2, #16]
 2006 0064 13F01005 		ands	r5, r3, #16
 2007 0068 FBD1     		bne	.L280
 2008              		.loc 1 185 0
 2009 006a 0C20     		movs	r0, #12
 2010 006c FFF7FEFF 		bl	halPolledDelay
 2011              	.LVL225:
 2012              	.LBE195:
 2013              	.LBE197:
 2014              		.loc 1 990 0
 2015 0070 D4F80028 		ldr	r2, [r4, #2048]
 2016              	.LBB198:
 2017              	.LBB199:
 2018              		.loc 1 223 0
 2019 0074 D8F85430 		ldr	r3, [r8, #84]
 2020              		.loc 1 221 0
 2021 0078 D8F85860 		ldr	r6, [r8, #88]
 2022              		.loc 1 223 0
 2023 007c 5868     		ldr	r0, [r3, #4]
 2024              	.LBE199:
 2025              	.LBE198:
 2026              		.loc 1 990 0
 2027 007e 22F4FE63 		bic	r3, r2, #2032
 2028 0082 C4F80038 		str	r3, [r4, #2048]
 2029              		.loc 1 993 0
 2030 0086 A769     		ldr	r7, [r4, #24]
 2031 0088 47F44027 		orr	r7, r7, #786432
 2032              		.loc 1 994 0
 2033 008c 0921     		movs	r1, #9
 2034              		.loc 1 993 0
 2035 008e 47F01007 		orr	r7, r7, #16
 2036 0092 A761     		str	r7, [r4, #24]
 2037              	.LBB203:
 2038              	.LBB200:
 2039              		.loc 1 222 0
 2040 0094 06F11002 		add	r2, r6, #16
 2041              	.LBE200:
 2042              	.LBE203:
 2043              		.loc 1 994 0
 2044 0098 C4F81018 		str	r1, [r4, #2064]
 2045              		.loc 1 1000 0
ARM GAS  /tmp/ccszEVcB.s 			page 37


 2046 009c 48F24003 		movw	r3, #32832
 2047              		.loc 1 995 0
 2048 00a0 C4F81418 		str	r1, [r4, #2068]
 2049              		.loc 1 998 0
 2050 00a4 0C49     		ldr	r1, .L284
 2051              		.loc 1 1000 0
 2052 00a6 C1F20003 		movt	r3, 4096
 2053              	.LBB204:
 2054              	.LBB201:
 2055              		.loc 1 223 0
 2056 00aa 8242     		cmp	r2, r0
 2057              	.LBE201:
 2058              	.LBE204:
 2059              		.loc 1 998 0
 2060 00ac C8F80C10 		str	r1, [r8, #12]
 2061              		.loc 1 999 0
 2062 00b0 C4F8105B 		str	r5, [r4, #2832]
 2063              		.loc 1 1000 0
 2064 00b4 C4F8003B 		str	r3, [r4, #2816]
 2065              		.loc 1 1002 0
 2066 00b8 C4F81059 		str	r5, [r4, #2320]
 2067              		.loc 1 1003 0
 2068 00bc C4F80039 		str	r3, [r4, #2304]
 2069              	.LVL226:
 2070              	.LBB205:
 2071              	.LBB202:
 2072              		.loc 1 222 0
 2073 00c0 C8F85820 		str	r2, [r8, #88]
 2074              		.loc 1 223 0
 2075 00c4 02D9     		bls	.L281
 2076 00c6 0548     		ldr	r0, .L284+4
 2077 00c8 FFF7FEFF 		bl	chDbgPanic
 2078              	.LVL227:
 2079              	.L281:
 2080              	.LBE202:
 2081              	.LBE205:
 2082              		.loc 1 1005 0
 2083 00cc 46F48016 		orr	r6, r6, #1048576
 2084              	.LVL228:
 2085 00d0 A662     		str	r6, [r4, #40]
 2086 00d2 BDE8F081 		pop	{r4, r5, r6, r7, r8, pc}
 2087              	.L285:
 2088 00d6 00BF     		.align	2
 2089              	.L284:
 2090 00d8 00000000 		.word	.LANCHOR2
 2091 00dc 10000000 		.word	.LC1
 2092              		.cfi_endproc
 2093              	.LFE141:
 2094              		.size	usb_lld_reset, .-usb_lld_reset
 2095              		.section	.text.usb_lld_set_address,"ax",%progbits
 2096              		.align	2
 2097              		.p2align 4,,15
 2098              		.global	usb_lld_set_address
 2099              		.thumb
 2100              		.thumb_func
 2101              		.type	usb_lld_set_address, %function
 2102              	usb_lld_set_address:
ARM GAS  /tmp/ccszEVcB.s 			page 38


 2103              	.LFB142:
 2104              		.loc 1 1017 0
 2105              		.cfi_startproc
 2106              		@ args = 0, pretend = 0, frame = 0
 2107              		@ frame_needed = 0, uses_anonymous_args = 0
 2108              		@ link register save eliminated.
 2109              	.LVL229:
 2110              		.loc 1 1018 0
 2111 0000 036D     		ldr	r3, [r0, #80]
 2112              	.LVL230:
 2113              		.loc 1 1020 0
 2114 0002 90F84E10 		ldrb	r1, [r0, #78]	@ zero_extendqisi2
 2115 0006 D3F80028 		ldr	r2, [r3, #2048]
 2116 000a 22F4FE62 		bic	r2, r2, #2032
 2117 000e 42EA0112 		orr	r2, r2, r1, lsl #4
 2118 0012 C3F80028 		str	r2, [r3, #2048]
 2119 0016 7047     		bx	lr
 2120              		.cfi_endproc
 2121              	.LFE142:
 2122              		.size	usb_lld_set_address, .-usb_lld_set_address
 2123 0018 AFF30080 		.section	.text.usb_lld_init_endpoint,"ax",%progbits
 2123      AFF30080 
 2124              		.align	2
 2125              		.p2align 4,,15
 2126              		.global	usb_lld_init_endpoint
 2127              		.thumb
 2128              		.thumb_func
 2129              		.type	usb_lld_init_endpoint, %function
 2130              	usb_lld_init_endpoint:
 2131              	.LFB143:
 2132              		.loc 1 1031 0
 2133              		.cfi_startproc
 2134              		@ args = 0, pretend = 0, frame = 0
 2135              		@ frame_needed = 0, uses_anonymous_args = 0
 2136              	.LVL231:
 2137 0000 2DE9F84F 		push	{r3, r4, r5, r6, r7, r8, r9, sl, fp, lr}
 2138              	.LCFI11:
 2139              		.cfi_def_cfa_offset 40
 2140              		.cfi_offset 3, -40
 2141              		.cfi_offset 4, -36
 2142              		.cfi_offset 5, -32
 2143              		.cfi_offset 6, -28
 2144              		.cfi_offset 7, -24
 2145              		.cfi_offset 8, -20
 2146              		.cfi_offset 9, -16
 2147              		.cfi_offset 10, -12
 2148              		.cfi_offset 11, -8
 2149              		.cfi_offset 14, -4
 2150              		.loc 1 1036 0
 2151 0004 8F1C     		adds	r7, r1, #2
 2152 0006 00EB8703 		add	r3, r0, r7, lsl #2
 2153              		.loc 1 1044 0
 2154 000a 4FF40048 		mov	r8, #32768
 2155              		.loc 1 1036 0
 2156 000e 5B68     		ldr	r3, [r3, #4]
 2157              		.loc 1 1033 0
 2158 0010 046D     		ldr	r4, [r0, #80]
ARM GAS  /tmp/ccszEVcB.s 			page 39


 2159              	.LVL232:
 2160              		.loc 1 1036 0
 2161 0012 1A68     		ldr	r2, [r3, #0]
 2162 0014 02F00302 		and	r2, r2, #3
 2163 0018 022A     		cmp	r2, #2
 2164              		.loc 1 1031 0
 2165 001a 0D46     		mov	r5, r1
 2166 001c 0646     		mov	r6, r0
 2167              		.loc 1 1044 0
 2168 001e 08BF     		it	eq
 2169 0020 C1F20808 		movteq	r8, 4104
 2170              		.loc 1 1036 0
 2171 0024 0CD0     		beq	.L289
 2172 0026 032A     		cmp	r2, #3
 2173              		.loc 1 1047 0
 2174 0028 08BF     		it	eq
 2175 002a C1F20C08 		movteq	r8, 4108
 2176              		.loc 1 1036 0
 2177 002e 07D0     		beq	.L289
 2178              		.loc 1 1038 0
 2179 0030 4146     		mov	r1, r8
 2180              	.LVL233:
 2181 0032 C1F20001 		movt	r1, 4096
 2182 0036 C1F20408 		movt	r8, 4100
 2183 003a 012A     		cmp	r2, #1
 2184 003c 18BF     		it	ne
 2185 003e 8846     		movne	r8, r1
 2186              	.L289:
 2187              	.LVL234:
 2188              		.loc 1 1054 0
 2189 0040 6A01     		lsls	r2, r5, #5
 2190 0042 A018     		adds	r0, r4, r2
 2191              	.LVL235:
 2192 0044 0021     		movs	r1, #0
 2193 0046 C0F8101B 		str	r1, [r0, #2832]
 2194              		.loc 1 1055 0
 2195 004a D968     		ldr	r1, [r3, #12]
 2196 004c 0029     		cmp	r1, #0
 2197 004e 51D0     		beq	.L292
 2198              		.loc 1 1056 0
 2199 0050 588A     		ldrh	r0, [r3, #18]
 2200 0052 05F15801 		add	r1, r5, #88
 2201 0056 4901     		lsls	r1, r1, #5
 2202 0058 48EA0000 		orr	r0, r8, r0
 2203 005c 6050     		str	r0, [r4, r1]
 2204              		.loc 1 1057 0
 2205 005e 4FF0010E 		mov	lr, #1
 2206 0062 D4F81C08 		ldr	r0, [r4, #2076]
 2207 0066 05F11001 		add	r1, r5, #16
 2208 006a 0EFA01F1 		lsl	r1, lr, r1
 2209 006e 0143     		orrs	r1, r1, r0
 2210 0070 C4F81C18 		str	r1, [r4, #2076]
 2211              	.L293:
 2212              		.loc 1 1065 0
 2213 0074 A218     		adds	r2, r4, r2
 2214              		.loc 1 1066 0
 2215 0076 9968     		ldr	r1, [r3, #8]
ARM GAS  /tmp/ccszEVcB.s 			page 40


 2216              		.loc 1 1065 0
 2217 0078 0020     		movs	r0, #0
 2218 007a C2F81009 		str	r0, [r2, #2320]
 2219              		.loc 1 1066 0
 2220 007e 0029     		cmp	r1, #0
 2221 0080 4BD0     		beq	.L294
 2222              		.loc 1 1069 0
 2223 0082 9A8B     		ldrh	r2, [r3, #28]
 2224              		.loc 1 1068 0
 2225 0084 198A     		ldrh	r1, [r3, #16]
 2226              	.LBB208:
 2227              	.LBB209:
 2228              		.loc 1 221 0
 2229 0086 D6F85890 		ldr	r9, [r6, #88]
 2230              	.LBE209:
 2231              	.LBE208:
 2232              		.loc 1 1068 0
 2233 008a 8B08     		lsrs	r3, r1, #2
 2234              	.LVL236:
 2235              		.loc 1 1069 0
 2236 008c 012A     		cmp	r2, #1
 2237              		.loc 1 1070 0
 2238 008e 88BF     		it	hi
 2239 0090 5343     		mulhi	r3, r2, r3
 2240              	.LVL237:
 2241              	.LBB213:
 2242              	.LBB210:
 2243              		.loc 1 223 0
 2244 0092 726D     		ldr	r2, [r6, #84]
 2245 0094 5168     		ldr	r1, [r2, #4]
 2246              		.loc 1 222 0
 2247 0096 03EB0902 		add	r2, r3, r9
 2248              		.loc 1 223 0
 2249 009a 8A42     		cmp	r2, r1
 2250              		.loc 1 222 0
 2251 009c B265     		str	r2, [r6, #88]
 2252              	.LBE210:
 2253              	.LBE213:
 2254              		.loc 1 1071 0
 2255 009e 05F1FF3B 		add	fp, r5, #-1
 2256 00a2 4FEA034A 		lsl	sl, r3, #16
 2257              	.LVL238:
 2258              	.LBB214:
 2259              	.LBB211:
 2260              		.loc 1 223 0
 2261 00a6 21D8     		bhi	.L299
 2262              	.LVL239:
 2263              	.L296:
 2264              	.LBE211:
 2265              	.LBE214:
 2266              		.loc 1 1071 0
 2267 00a8 0BF1400B 		add	fp, fp, #64
 2268 00ac 04EB8B0B 		add	fp, r4, fp, lsl #2
 2269 00b0 4AEA0903 		orr	r3, sl, r9
 2270              		.loc 1 1073 0
 2271 00b4 3046     		mov	r0, r6
 2272              		.loc 1 1077 0
ARM GAS  /tmp/ccszEVcB.s 			page 41


 2273 00b6 06EB8706 		add	r6, r6, r7, lsl #2
 2274              	.LVL240:
 2275              		.loc 1 1071 0
 2276 00ba CBF80430 		str	r3, [fp, #4]
 2277              		.loc 1 1073 0
 2278 00be 2946     		mov	r1, r5
 2279 00c0 FFF7FEFF 		bl	otg_txfifo_flush
 2280              	.LVL241:
 2281              		.loc 1 1077 0
 2282 00c4 7268     		ldr	r2, [r6, #4]
 2283              		.loc 1 1076 0
 2284 00c6 128A     		ldrh	r2, [r2, #16]
 2285              		.loc 1 1075 0
 2286 00c8 05F14803 		add	r3, r5, #72
 2287 00cc 5B01     		lsls	r3, r3, #5
 2288 00ce 42EA8552 		orr	r2, r2, r5, lsl #22
 2289              		.loc 1 1076 0
 2290 00d2 42EA0802 		orr	r2, r2, r8
 2291              		.loc 1 1075 0
 2292 00d6 E250     		str	r2, [r4, r3]
 2293              		.loc 1 1078 0
 2294 00d8 0122     		movs	r2, #1
 2295 00da D4F81C38 		ldr	r3, [r4, #2076]
 2296 00de 02FA05F5 		lsl	r5, r2, r5
 2297 00e2 1D43     		orrs	r5, r5, r3
 2298 00e4 C4F81C58 		str	r5, [r4, #2076]
 2299 00e8 BDE8F88F 		pop	{r3, r4, r5, r6, r7, r8, r9, sl, fp, pc}
 2300              	.LVL242:
 2301              	.L299:
 2302              	.LBB215:
 2303              	.LBB212:
 2304              		.loc 1 223 0
 2305 00ec 1A48     		ldr	r0, .L300
 2306 00ee FFF7FEFF 		bl	chDbgPanic
 2307              	.LVL243:
 2308 00f2 D9E7     		b	.L296
 2309              	.LVL244:
 2310              	.L292:
 2311              	.LBE212:
 2312              	.LBE215:
 2313              		.loc 1 1060 0
 2314 00f4 05F15801 		add	r1, r5, #88
 2315 00f8 4901     		lsls	r1, r1, #5
 2316              		.loc 1 1061 0
 2317 00fa 05F1100E 		add	lr, r5, #16
 2318              		.loc 1 1060 0
 2319 00fe 6058     		ldr	r0, [r4, r1]
 2320 0100 20F40040 		bic	r0, r0, #32768
 2321 0104 6050     		str	r0, [r4, r1]
 2322              		.loc 1 1061 0
 2323 0106 0121     		movs	r1, #1
 2324 0108 D4F81C08 		ldr	r0, [r4, #2076]
 2325 010c 01FA0EF1 		lsl	r1, r1, lr
 2326 0110 20EA0101 		bic	r1, r0, r1
 2327 0114 C4F81C18 		str	r1, [r4, #2076]
 2328 0118 ACE7     		b	.L293
 2329              	.L294:
ARM GAS  /tmp/ccszEVcB.s 			page 42


 2330              		.loc 1 1081 0
 2331 011a 05F13F02 		add	r2, r5, #63
 2332 011e 04EB8202 		add	r2, r4, r2, lsl #2
 2333 0122 4FF48063 		mov	r3, #1024
 2334 0126 C0F20023 		movt	r3, 512
 2335 012a 5360     		str	r3, [r2, #4]
 2336              		.loc 1 1082 0
 2337 012c 2946     		mov	r1, r5
 2338 012e 3046     		mov	r0, r6
 2339 0130 FFF7FEFF 		bl	otg_txfifo_flush
 2340              	.LVL245:
 2341              		.loc 1 1083 0
 2342 0134 05F14803 		add	r3, r5, #72
 2343 0138 5B01     		lsls	r3, r3, #5
 2344 013a E258     		ldr	r2, [r4, r3]
 2345 013c 22F40042 		bic	r2, r2, #32768
 2346 0140 E250     		str	r2, [r4, r3]
 2347              		.loc 1 1084 0
 2348 0142 0122     		movs	r2, #1
 2349 0144 D4F81C38 		ldr	r3, [r4, #2076]
 2350 0148 02FA05F5 		lsl	r5, r2, r5
 2351 014c 23EA0505 		bic	r5, r3, r5
 2352 0150 C4F81C58 		str	r5, [r4, #2076]
 2353 0154 BDE8F88F 		pop	{r3, r4, r5, r6, r7, r8, r9, sl, fp, pc}
 2354              	.L301:
 2355              		.align	2
 2356              	.L300:
 2357 0158 10000000 		.word	.LC1
 2358              		.cfi_endproc
 2359              	.LFE143:
 2360              		.size	usb_lld_init_endpoint, .-usb_lld_init_endpoint
 2361 015c AFF30080 		.section	.text.usb_lld_disable_endpoints,"ax",%progbits
 2362              		.align	2
 2363              		.p2align 4,,15
 2364              		.global	usb_lld_disable_endpoints
 2365              		.thumb
 2366              		.thumb_func
 2367              		.type	usb_lld_disable_endpoints, %function
 2368              	usb_lld_disable_endpoints:
 2369              	.LFB144:
 2370              		.loc 1 1095 0
 2371              		.cfi_startproc
 2372              		@ args = 0, pretend = 0, frame = 0
 2373              		@ frame_needed = 0, uses_anonymous_args = 0
 2374              		@ link register save eliminated.
 2375              	.LVL246:
 2376              	.LBB216:
 2377              	.LBB217:
 2378              		.loc 1 207 0
 2379 0000 426D     		ldr	r2, [r0, #84]
 2380 0002 1268     		ldr	r2, [r2, #0]
 2381 0004 8265     		str	r2, [r0, #88]
 2382              	.LBE217:
 2383              	.LBE216:
 2384              		.loc 1 1102 0
 2385              		.loc 1 1101 0
 2386 0006 FFF7FEBF 		b	otg_disable_ep
ARM GAS  /tmp/ccszEVcB.s 			page 43


 2387              	.LVL247:
 2388              		.cfi_endproc
 2389              	.LFE144:
 2390              		.size	usb_lld_disable_endpoints, .-usb_lld_disable_endpoints
 2391 000a 00BFAFF3 		.section	.text.usb_lld_get_status_out,"ax",%progbits
 2391      0080
 2392              		.align	2
 2393              		.p2align 4,,15
 2394              		.global	usb_lld_get_status_out
 2395              		.thumb
 2396              		.thumb_func
 2397              		.type	usb_lld_get_status_out, %function
 2398              	usb_lld_get_status_out:
 2399              	.LFB145:
 2400              		.loc 1 1116 0
 2401              		.cfi_startproc
 2402              		@ args = 0, pretend = 0, frame = 0
 2403              		@ frame_needed = 0, uses_anonymous_args = 0
 2404              		@ link register save eliminated.
 2405              	.LVL248:
 2406              		.loc 1 1121 0
 2407 0000 5831     		adds	r1, r1, #88
 2408              	.LVL249:
 2409 0002 036D     		ldr	r3, [r0, #80]
 2410 0004 4901     		lsls	r1, r1, #5
 2411 0006 5B58     		ldr	r3, [r3, r1]
 2412              	.LVL250:
 2413              		.loc 1 1122 0
 2414 0008 13F40040 		ands	r0, r3, #32768
 2415              	.LVL251:
 2416 000c 04D0     		beq	.L304
 2417              		.loc 1 1124 0
 2418 000e 13F4001F 		tst	r3, #2097152
 2419              		.loc 1 1125 0
 2420 0012 0CBF     		ite	eq
 2421 0014 0220     		moveq	r0, #2
 2422 0016 0120     		movne	r0, #1
 2423              	.L304:
 2424              		.loc 1 1127 0
 2425 0018 7047     		bx	lr
 2426              		.cfi_endproc
 2427              	.LFE145:
 2428              		.size	usb_lld_get_status_out, .-usb_lld_get_status_out
 2429 001a 00BFAFF3 		.section	.text.usb_lld_get_status_in,"ax",%progbits
 2429      0080
 2430              		.align	2
 2431              		.p2align 4,,15
 2432              		.global	usb_lld_get_status_in
 2433              		.thumb
 2434              		.thumb_func
 2435              		.type	usb_lld_get_status_in, %function
 2436              	usb_lld_get_status_in:
 2437              	.LFB146:
 2438              		.loc 1 1141 0
 2439              		.cfi_startproc
 2440              		@ args = 0, pretend = 0, frame = 0
 2441              		@ frame_needed = 0, uses_anonymous_args = 0
ARM GAS  /tmp/ccszEVcB.s 			page 44


 2442              		@ link register save eliminated.
 2443              	.LVL252:
 2444              		.loc 1 1146 0
 2445 0000 4831     		adds	r1, r1, #72
 2446              	.LVL253:
 2447 0002 036D     		ldr	r3, [r0, #80]
 2448 0004 4901     		lsls	r1, r1, #5
 2449 0006 5B58     		ldr	r3, [r3, r1]
 2450              	.LVL254:
 2451              		.loc 1 1147 0
 2452 0008 13F40040 		ands	r0, r3, #32768
 2453              	.LVL255:
 2454 000c 04D0     		beq	.L308
 2455              		.loc 1 1149 0
 2456 000e 13F4001F 		tst	r3, #2097152
 2457              		.loc 1 1150 0
 2458 0012 0CBF     		ite	eq
 2459 0014 0220     		moveq	r0, #2
 2460 0016 0120     		movne	r0, #1
 2461              	.L308:
 2462              		.loc 1 1152 0
 2463 0018 7047     		bx	lr
 2464              		.cfi_endproc
 2465              	.LFE146:
 2466              		.size	usb_lld_get_status_in, .-usb_lld_get_status_in
 2467 001a 00BFAFF3 		.section	.text.usb_lld_read_setup,"ax",%progbits
 2467      0080
 2468              		.align	2
 2469              		.p2align 4,,15
 2470              		.global	usb_lld_read_setup
 2471              		.thumb
 2472              		.thumb_func
 2473              		.type	usb_lld_read_setup, %function
 2474              	usb_lld_read_setup:
 2475              	.LFB147:
 2476              		.loc 1 1168 0
 2477              		.cfi_startproc
 2478              		@ args = 0, pretend = 0, frame = 0
 2479              		@ frame_needed = 0, uses_anonymous_args = 0
 2480              		@ link register save eliminated.
 2481              	.LVL256:
 2482              		.loc 1 1170 0
 2483 0000 00EB8101 		add	r1, r0, r1, lsl #2
 2484              	.LVL257:
 2485 0004 CB68     		ldr	r3, [r1, #12]
 2486 0006 1B6A     		ldr	r3, [r3, #32]
 2487 0008 1968     		ldr	r1, [r3, #0]	@ unaligned
 2488 000a 5B68     		ldr	r3, [r3, #4]	@ unaligned
 2489 000c 1160     		str	r1, [r2, #0]	@ unaligned
 2490 000e 5360     		str	r3, [r2, #4]	@ unaligned
 2491 0010 7047     		bx	lr
 2492              		.cfi_endproc
 2493              	.LFE147:
 2494              		.size	usb_lld_read_setup, .-usb_lld_read_setup
 2495 0012 00BFAFF3 		.section	.text.usb_lld_prepare_receive,"ax",%progbits
 2495      0080AFF3 
 2495      0080AFF3 
ARM GAS  /tmp/ccszEVcB.s 			page 45


 2495      0080
 2496              		.align	2
 2497              		.p2align 4,,15
 2498              		.global	usb_lld_prepare_receive
 2499              		.thumb
 2500              		.thumb_func
 2501              		.type	usb_lld_prepare_receive, %function
 2502              	usb_lld_prepare_receive:
 2503              	.LFB148:
 2504              		.loc 1 1181 0
 2505              		.cfi_startproc
 2506              		@ args = 0, pretend = 0, frame = 0
 2507              		@ frame_needed = 0, uses_anonymous_args = 0
 2508              		@ link register save eliminated.
 2509              	.LVL258:
 2510              		.loc 1 1183 0
 2511 0000 00EB8103 		add	r3, r0, r1, lsl #2
 2512              		.loc 1 1181 0
 2513 0004 10B4     		push	{r4}
 2514              	.LCFI12:
 2515              		.cfi_def_cfa_offset 4
 2516              		.cfi_offset 4, -4
 2517              		.loc 1 1183 0
 2518 0006 DB68     		ldr	r3, [r3, #12]
 2519              	.LVL259:
 2520              		.loc 1 1188 0
 2521 0008 006D     		ldr	r0, [r0, #80]
 2522              	.LVL260:
 2523              		.loc 1 1186 0
 2524 000a 9A69     		ldr	r2, [r3, #24]
 2525 000c 5B8A     		ldrh	r3, [r3, #18]
 2526              	.LVL261:
 2527 000e 5468     		ldr	r4, [r2, #4]
 2528 0010 013C     		subs	r4, r4, #1
 2529 0012 E418     		adds	r4, r4, r3
 2530              		.loc 1 1188 0
 2531 0014 43F0C042 		orr	r2, r3, #1610612736
 2532              	.LVL262:
 2533 0018 00EB4111 		add	r1, r0, r1, lsl #5
 2534              	.LVL263:
 2535              		.loc 1 1186 0
 2536 001c B4FBF3F3 		udiv	r3, r4, r3
 2537              		.loc 1 1188 0
 2538 0020 42EAC343 		orr	r3, r2, r3, lsl #19
 2539 0024 C1F8103B 		str	r3, [r1, #2832]
 2540              		.loc 1 1191 0
 2541 0028 10BC     		pop	{r4}
 2542 002a 7047     		bx	lr
 2543              		.cfi_endproc
 2544              	.LFE148:
 2545              		.size	usb_lld_prepare_receive, .-usb_lld_prepare_receive
 2546 002c AFF30080 		.section	.text.usb_lld_prepare_transmit,"ax",%progbits
 2547              		.align	2
 2548              		.p2align 4,,15
 2549              		.global	usb_lld_prepare_transmit
 2550              		.thumb
 2551              		.thumb_func
ARM GAS  /tmp/ccszEVcB.s 			page 46


 2552              		.type	usb_lld_prepare_transmit, %function
 2553              	usb_lld_prepare_transmit:
 2554              	.LFB149:
 2555              		.loc 1 1201 0
 2556              		.cfi_startproc
 2557              		@ args = 0, pretend = 0, frame = 0
 2558              		@ frame_needed = 0, uses_anonymous_args = 0
 2559              		@ link register save eliminated.
 2560              	.LVL264:
 2561              		.loc 1 1202 0
 2562 0000 00EB8103 		add	r3, r0, r1, lsl #2
 2563              		.loc 1 1201 0
 2564 0004 10B4     		push	{r4}
 2565              	.LCFI13:
 2566              		.cfi_def_cfa_offset 4
 2567              		.cfi_offset 4, -4
 2568              		.loc 1 1202 0
 2569 0006 DA68     		ldr	r2, [r3, #12]
 2570              	.LVL265:
 2571              		.loc 1 1205 0
 2572 0008 5369     		ldr	r3, [r2, #20]
 2573 000a 5B68     		ldr	r3, [r3, #4]
 2574 000c 6BB1     		cbz	r3, .L316
 2575              	.LBB218:
 2576              		.loc 1 1211 0
 2577 000e 128A     		ldrh	r2, [r2, #16]
 2578              	.LVL266:
 2579              		.loc 1 1213 0
 2580 0010 006D     		ldr	r0, [r0, #80]
 2581              	.LVL267:
 2582              		.loc 1 1211 0
 2583 0012 5C1E     		subs	r4, r3, #1
 2584 0014 A418     		adds	r4, r4, r2
 2585 0016 B4FBF2F2 		udiv	r2, r4, r2
 2586              	.LVL268:
 2587              		.loc 1 1213 0
 2588 001a 00EB4111 		add	r1, r0, r1, lsl #5
 2589              	.LVL269:
 2590 001e 43EAC243 		orr	r3, r3, r2, lsl #19
 2591 0022 C1F81039 		str	r3, [r1, #2320]
 2592              	.L313:
 2593              	.LBE218:
 2594              		.loc 1 1217 0
 2595 0026 10BC     		pop	{r4}
 2596 0028 7047     		bx	lr
 2597              	.LVL270:
 2598              	.L316:
 2599              		.loc 1 1207 0
 2600 002a 036D     		ldr	r3, [r0, #80]
 2601 002c 03EB4111 		add	r1, r3, r1, lsl #5
 2602              	.LVL271:
 2603 0030 4FF40023 		mov	r3, #524288
 2604 0034 C1F81039 		str	r3, [r1, #2320]
 2605 0038 F5E7     		b	.L313
 2606              		.cfi_endproc
 2607              	.LFE149:
 2608              		.size	usb_lld_prepare_transmit, .-usb_lld_prepare_transmit
ARM GAS  /tmp/ccszEVcB.s 			page 47


 2609 003a 00BFAFF3 		.section	.text.usb_lld_start_out,"ax",%progbits
 2609      0080
 2610              		.align	2
 2611              		.p2align 4,,15
 2612              		.global	usb_lld_start_out
 2613              		.thumb
 2614              		.thumb_func
 2615              		.type	usb_lld_start_out, %function
 2616              	usb_lld_start_out:
 2617              	.LFB150:
 2618              		.loc 1 1227 0
 2619              		.cfi_startproc
 2620              		@ args = 0, pretend = 0, frame = 0
 2621              		@ frame_needed = 0, uses_anonymous_args = 0
 2622              		@ link register save eliminated.
 2623              	.LVL272:
 2624              		.loc 1 1229 0
 2625 0000 5831     		adds	r1, r1, #88
 2626              	.LVL273:
 2627 0002 036D     		ldr	r3, [r0, #80]
 2628 0004 4901     		lsls	r1, r1, #5
 2629 0006 5A58     		ldr	r2, [r3, r1]
 2630 0008 42F08062 		orr	r2, r2, #67108864
 2631 000c 5A50     		str	r2, [r3, r1]
 2632 000e 7047     		bx	lr
 2633              		.cfi_endproc
 2634              	.LFE150:
 2635              		.size	usb_lld_start_out, .-usb_lld_start_out
 2636              		.section	.text.usb_lld_start_in,"ax",%progbits
 2637              		.align	2
 2638              		.p2align 4,,15
 2639              		.global	usb_lld_start_in
 2640              		.thumb
 2641              		.thumb_func
 2642              		.type	usb_lld_start_in, %function
 2643              	usb_lld_start_in:
 2644              	.LFB151:
 2645              		.loc 1 1240 0
 2646              		.cfi_startproc
 2647              		@ args = 0, pretend = 0, frame = 0
 2648              		@ frame_needed = 0, uses_anonymous_args = 0
 2649              		@ link register save eliminated.
 2650              	.LVL274:
 2651              		.loc 1 1242 0
 2652 0000 01F14802 		add	r2, r1, #72
 2653 0004 036D     		ldr	r3, [r0, #80]
 2654 0006 5201     		lsls	r2, r2, #5
 2655 0008 9858     		ldr	r0, [r3, r2]
 2656              	.LVL275:
 2657 000a 40F00440 		orr	r0, r0, #-2080374784
 2658 000e 9850     		str	r0, [r3, r2]
 2659              		.loc 1 1243 0
 2660 0010 0120     		movs	r0, #1
 2661 0012 D3F83428 		ldr	r2, [r3, #2100]
 2662 0016 00FA01F1 		lsl	r1, r0, r1
 2663              	.LVL276:
 2664 001a 1143     		orrs	r1, r1, r2
ARM GAS  /tmp/ccszEVcB.s 			page 48


 2665 001c C3F83418 		str	r1, [r3, #2100]
 2666 0020 7047     		bx	lr
 2667              		.cfi_endproc
 2668              	.LFE151:
 2669              		.size	usb_lld_start_in, .-usb_lld_start_in
 2670 0022 00BFAFF3 		.section	.text.usb_lld_stall_out,"ax",%progbits
 2670      0080AFF3 
 2670      0080AFF3 
 2670      0080
 2671              		.align	2
 2672              		.p2align 4,,15
 2673              		.global	usb_lld_stall_out
 2674              		.thumb
 2675              		.thumb_func
 2676              		.type	usb_lld_stall_out, %function
 2677              	usb_lld_stall_out:
 2678              	.LFB152:
 2679              		.loc 1 1254 0
 2680              		.cfi_startproc
 2681              		@ args = 0, pretend = 0, frame = 0
 2682              		@ frame_needed = 0, uses_anonymous_args = 0
 2683              		@ link register save eliminated.
 2684              	.LVL277:
 2685              		.loc 1 1256 0
 2686 0000 5831     		adds	r1, r1, #88
 2687              	.LVL278:
 2688 0002 036D     		ldr	r3, [r0, #80]
 2689 0004 4901     		lsls	r1, r1, #5
 2690 0006 5A58     		ldr	r2, [r3, r1]
 2691 0008 42F40012 		orr	r2, r2, #2097152
 2692 000c 5A50     		str	r2, [r3, r1]
 2693 000e 7047     		bx	lr
 2694              		.cfi_endproc
 2695              	.LFE152:
 2696              		.size	usb_lld_stall_out, .-usb_lld_stall_out
 2697              		.section	.text.usb_lld_stall_in,"ax",%progbits
 2698              		.align	2
 2699              		.p2align 4,,15
 2700              		.global	usb_lld_stall_in
 2701              		.thumb
 2702              		.thumb_func
 2703              		.type	usb_lld_stall_in, %function
 2704              	usb_lld_stall_in:
 2705              	.LFB153:
 2706              		.loc 1 1267 0
 2707              		.cfi_startproc
 2708              		@ args = 0, pretend = 0, frame = 0
 2709              		@ frame_needed = 0, uses_anonymous_args = 0
 2710              		@ link register save eliminated.
 2711              	.LVL279:
 2712              		.loc 1 1269 0
 2713 0000 4831     		adds	r1, r1, #72
 2714              	.LVL280:
 2715 0002 036D     		ldr	r3, [r0, #80]
 2716 0004 4901     		lsls	r1, r1, #5
 2717 0006 5A58     		ldr	r2, [r3, r1]
 2718 0008 42F40012 		orr	r2, r2, #2097152
ARM GAS  /tmp/ccszEVcB.s 			page 49


 2719 000c 5A50     		str	r2, [r3, r1]
 2720 000e 7047     		bx	lr
 2721              		.cfi_endproc
 2722              	.LFE153:
 2723              		.size	usb_lld_stall_in, .-usb_lld_stall_in
 2724              		.section	.text.usb_lld_clear_out,"ax",%progbits
 2725              		.align	2
 2726              		.p2align 4,,15
 2727              		.global	usb_lld_clear_out
 2728              		.thumb
 2729              		.thumb_func
 2730              		.type	usb_lld_clear_out, %function
 2731              	usb_lld_clear_out:
 2732              	.LFB154:
 2733              		.loc 1 1280 0
 2734              		.cfi_startproc
 2735              		@ args = 0, pretend = 0, frame = 0
 2736              		@ frame_needed = 0, uses_anonymous_args = 0
 2737              		@ link register save eliminated.
 2738              	.LVL281:
 2739              		.loc 1 1282 0
 2740 0000 5831     		adds	r1, r1, #88
 2741              	.LVL282:
 2742 0002 036D     		ldr	r3, [r0, #80]
 2743 0004 4901     		lsls	r1, r1, #5
 2744 0006 5A58     		ldr	r2, [r3, r1]
 2745 0008 22F40012 		bic	r2, r2, #2097152
 2746 000c 5A50     		str	r2, [r3, r1]
 2747 000e 7047     		bx	lr
 2748              		.cfi_endproc
 2749              	.LFE154:
 2750              		.size	usb_lld_clear_out, .-usb_lld_clear_out
 2751              		.section	.text.usb_lld_clear_in,"ax",%progbits
 2752              		.align	2
 2753              		.p2align 4,,15
 2754              		.global	usb_lld_clear_in
 2755              		.thumb
 2756              		.thumb_func
 2757              		.type	usb_lld_clear_in, %function
 2758              	usb_lld_clear_in:
 2759              	.LFB155:
 2760              		.loc 1 1293 0
 2761              		.cfi_startproc
 2762              		@ args = 0, pretend = 0, frame = 0
 2763              		@ frame_needed = 0, uses_anonymous_args = 0
 2764              		@ link register save eliminated.
 2765              	.LVL283:
 2766              		.loc 1 1295 0
 2767 0000 4831     		adds	r1, r1, #72
 2768              	.LVL284:
 2769 0002 036D     		ldr	r3, [r0, #80]
 2770 0004 4901     		lsls	r1, r1, #5
 2771 0006 5A58     		ldr	r2, [r3, r1]
 2772 0008 22F40012 		bic	r2, r2, #2097152
 2773 000c 5A50     		str	r2, [r3, r1]
 2774 000e 7047     		bx	lr
 2775              		.cfi_endproc
ARM GAS  /tmp/ccszEVcB.s 			page 50


 2776              	.LFE155:
 2777              		.size	usb_lld_clear_in, .-usb_lld_clear_in
 2778              		.global	USBD1
 2779              		.section	.rodata.fsparams,"a",%progbits
 2780              		.align	2
 2781              		.set	.LANCHOR1,. + 0
 2782              		.type	fsparams, %object
 2783              		.size	fsparams, 12
 2784              	fsparams:
 2785 0000 80000000 		.word	128
 2786 0004 80010000 		.word	384
 2787 0008 03000000 		.word	3
 2788              		.section	.bss.USBD1,"aw",%nobits
 2789              		.align	3
 2790              		.set	.LANCHOR0,. + 0
 2791              		.type	USBD1, %object
 2792              		.size	USBD1, 408
 2793              	USBD1:
 2794 0000 00000000 		.space	408
 2794      00000000 
 2794      00000000 
 2794      00000000 
 2794      00000000 
 2795              		.section	.rodata.str1.4,"aMS",%progbits,1
 2796              		.align	2
 2797              	.LC0:
 2798 0000 7573625F 		.ascii	"usb_lld_pump\000"
 2798      6C6C645F 
 2798      70756D70 
 2798      00
 2799 000d 000000   		.space	3
 2800              	.LC1:
 2801 0010 6F74675F 		.ascii	"otg_fifo_alloc(), #1\000"
 2801      6669666F 
 2801      5F616C6C 
 2801      6F632829 
 2801      2C202331 
 2802 0025 000000   		.section	.rodata.ep0config,"a",%progbits
 2803              		.align	2
 2804              		.set	.LANCHOR2,. + 0
 2805              		.type	ep0config, %object
 2806              		.size	ep0config, 36
 2807              	ep0config:
 2808 0000 00000000 		.word	0
 2809 0004 00000000 		.word	_usb_ep0setup
 2810 0008 00000000 		.word	_usb_ep0in
 2811 000c 00000000 		.word	_usb_ep0out
 2812 0010 4000     		.short	64
 2813 0012 4000     		.short	64
 2814 0014 00000000 		.word	ep0_state
 2815 0018 00000000 		.word	ep0_state
 2816 001c 0100     		.short	1
 2817 001e 0000     		.space	2
 2818 0020 00000000 		.word	ep0setup_buffer
 2819              		.section	.bss.ep0_state,"aw",%nobits
 2820              		.align	2
 2821              		.type	ep0_state, %object
ARM GAS  /tmp/ccszEVcB.s 			page 51


 2822              		.size	ep0_state, 16
 2823              	ep0_state:
 2824 0000 00000000 		.space	16
 2824      00000000 
 2824      00000000 
 2824      00000000 
 2825              		.section	.bss.ep0setup_buffer,"aw",%nobits
 2826              		.align	2
 2827              		.type	ep0setup_buffer, %object
 2828              		.size	ep0setup_buffer, 8
 2829              	ep0setup_buffer:
 2830 0000 00000000 		.space	8
 2830      00000000 
 2831              		.text
 2832              	.Letext0:
 2833              		.file 3 "/opt/psas/x-tools/stm32f407/arm-psas-eabi/bin/../lib/gcc/arm-psas-eabi/4.7.2/include/stdd
 2834              		.file 4 "/opt/psas/x-tools/stm32f407/arm-psas-eabi/bin/../lib/gcc/arm-psas-eabi/4.7.2/../../../../
 2835              		.file 5 "../../ChibiOS/os/ports/GCC/ARMCMx/chtypes.h"
 2836              		.file 6 "../../ChibiOS/os/kernel/include/chlists.h"
 2837              		.file 7 "../../ChibiOS/os/kernel/include/chthreads.h"
 2838              		.file 8 "../../ChibiOS/os/ports/GCC/ARMCMx/chcore_v7m.h"
 2839              		.file 9 "../../ChibiOS/os/kernel/include/chschd.h"
 2840              		.file 10 "../../ChibiOS/os/kernel/include/chmtx.h"
 2841              		.file 11 "../../ChibiOS/os/kernel/include/chqueues.h"
 2842              		.file 12 "../../ChibiOS/os/hal/platforms/STM32F4xx/stm32f4xx.h"
 2843              		.file 13 "../../ChibiOS/os/hal/platforms/STM32F4xx/hal_lld.h"
 2844              		.file 14 "../../ChibiOS/os/hal/include/usb.h"
 2845              		.file 15 "../../ChibiOS/os/hal/platforms/STM32/OTGv1/usb_lld.h"
 2846              		.file 16 "../../ChibiOS/os/hal/platforms/STM32/OTGv1/stm32_otg.h"
 2847              		.file 17 "../../ChibiOS/os/ports/common/ARMCMx/CMSIS/include/core_cm4.h"
 2848              		.file 18 "../../ChibiOS/os/kernel/include/chdebug.h"
 2849              		.file 19 "../../ChibiOS/os/hal/include/hal.h"
 2850              		.file 20 "../../ChibiOS/os/ports/common/ARMCMx/nvic.h"