ARM GAS  /tmp/ccg6gN3r.s 			page 1


   1              		.syntax unified
   2              		.cpu cortex-m4
   3              		.eabi_attribute 27, 3
   4              		.eabi_attribute 28, 1
   5              		.fpu fpv4-sp-d16
   6              		.eabi_attribute 20, 1
   7              		.eabi_attribute 21, 1
   8              		.eabi_attribute 23, 3
   9              		.eabi_attribute 24, 1
  10              		.eabi_attribute 25, 1
  11              		.eabi_attribute 26, 1
  12              		.eabi_attribute 30, 2
  13              		.eabi_attribute 34, 1
  14              		.eabi_attribute 18, 4
  15              		.thumb
  16              		.file	"usbdetail.c"
  17              		.text
  18              	.Ltext0:
  19              		.cfi_sections	.debug_frame
  20              		.section	.text.get_descriptor,"ax",%progbits
  21              		.align	2
  22              		.p2align 4,,15
  23              		.global	get_descriptor
  24              		.thumb
  25              		.thumb_func
  26              		.type	get_descriptor, %function
  27              	get_descriptor:
  28              	.LFB118:
  29              		.file 1 "../common/usbdetail.c"
  30              		.loc 1 211 0
  31              		.cfi_startproc
  32              		@ args = 0, pretend = 0, frame = 0
  33              		@ frame_needed = 0, uses_anonymous_args = 0
  34              		@ link register save eliminated.
  35              	.LVL0:
  36              		.loc 1 215 0
  37 0000 0229     		cmp	r1, #2
  38 0002 06D0     		beq	.L6
  39 0004 0329     		cmp	r1, #3
  40 0006 06D0     		beq	.L5
  41              		.loc 1 228 0
  42 0008 0748     		ldr	r0, .L9
  43              	.LVL1:
  44 000a 0129     		cmp	r1, #1
  45 000c 18BF     		it	ne
  46 000e 0020     		movne	r0, #0
  47 0010 7047     		bx	lr
  48              	.LVL2:
  49              	.L6:
  50              		.loc 1 220 0
  51 0012 0648     		ldr	r0, .L9+4
  52              	.LVL3:
  53 0014 7047     		bx	lr
  54              	.LVL4:
  55              	.L5:
  56              		.loc 1 223 0
  57 0016 032A     		cmp	r2, #3
ARM GAS  /tmp/ccg6gN3r.s 			page 2


  58 0018 03D8     		bhi	.L7
  59              		.loc 1 224 0
  60 001a 0548     		ldr	r0, .L9+8
  61              	.LVL5:
  62 001c 00EBC200 		add	r0, r0, r2, lsl #3
  63 0020 7047     		bx	lr
  64              	.LVL6:
  65              	.L7:
  66              		.loc 1 228 0
  67 0022 0020     		movs	r0, #0
  68              	.LVL7:
  69              		.loc 1 229 0
  70 0024 7047     		bx	lr
  71              	.L10:
  72 0026 00BF     		.align	2
  73              	.L9:
  74 0028 00000000 		.word	.LANCHOR0
  75 002c 00000000 		.word	.LANCHOR1
  76 0030 00000000 		.word	.LANCHOR2
  77              		.cfi_endproc
  78              	.LFE118:
  79              		.size	get_descriptor, .-get_descriptor
  80 0034 AFF30080 		.section	.text.usb_event,"ax",%progbits
  80      AFF30080 
  80      AFF30080 
  81              		.align	2
  82              		.p2align 4,,15
  83              		.global	usb_event
  84              		.thumb
  85              		.thumb_func
  86              		.type	usb_event, %function
  87              	usb_event:
  88              	.LFB119:
  89              		.loc 1 309 0
  90              		.cfi_startproc
  91              		@ args = 0, pretend = 0, frame = 0
  92              		@ frame_needed = 0, uses_anonymous_args = 0
  93              	.LVL8:
  94              		.loc 1 311 0
  95 0000 0229     		cmp	r1, #2
  96              		.loc 1 309 0
  97 0002 38B5     		push	{r3, r4, r5, lr}
  98              	.LCFI0:
  99              		.cfi_def_cfa_offset 16
 100              		.cfi_offset 3, -16
 101              		.cfi_offset 4, -12
 102              		.cfi_offset 5, -8
 103              		.cfi_offset 14, -4
 104              		.loc 1 309 0
 105 0004 0C46     		mov	r4, r1
 106 0006 0546     		mov	r5, r0
 107              		.loc 1 311 0
 108 0008 16D1     		bne	.L11
 109              	.LVL9:
 110              	.LBB8:
 111              	.LBB9:
 112              	.LBB10:
ARM GAS  /tmp/ccg6gN3r.s 			page 3


 113              		.loc 1 317 0
 114 000a 2023     		movs	r3, #32
 115              	.LVL10:
 116              	@ 317 "../common/usbdetail.c" 1
 117 000c 83F31188 		msr     BASEPRI, r3
 118              	@ 0 "" 2
 119              	.LVL11:
 120              		.thumb
 121              	.LBE10:
 122 0010 FFF7FEFF 		bl	dbg_check_lock_from_isr
 123              	.LVL12:
 124              		.loc 1 324 0
 125 0014 2846     		mov	r0, r5
 126 0016 0121     		movs	r1, #1
 127 0018 084A     		ldr	r2, .L14
 128 001a FFF7FEFF 		bl	usbInitEndpointI
 129              	.LVL13:
 130              		.loc 1 325 0
 131 001e 2146     		mov	r1, r4
 132 0020 074A     		ldr	r2, .L14+4
 133 0022 2846     		mov	r0, r5
 134 0024 FFF7FEFF 		bl	usbInitEndpointI
 135              	.LVL14:
 136              		.loc 1 332 0
 137 0028 0648     		ldr	r0, .L14+8
 138 002a FFF7FEFF 		bl	sduConfigureHookI
 139              	.LVL15:
 140              		.loc 1 334 0
 141 002e FFF7FEFF 		bl	dbg_check_unlock_from_isr
 142              	.LVL16:
 143              	.LBB11:
 144 0032 0023     		movs	r3, #0
 145              	.LVL17:
 146              	@ 334 "../common/usbdetail.c" 1
 147 0034 83F31188 		msr     BASEPRI, r3
 148              	@ 0 "" 2
 149              	.LVL18:
 150              		.thumb
 151              	.L11:
 152 0038 38BD     		pop	{r3, r4, r5, pc}
 153              	.L15:
 154 003a 00BF     		.align	2
 155              	.L14:
 156 003c 00000000 		.word	.LANCHOR3
 157 0040 00000000 		.word	.LANCHOR4
 158 0044 00000000 		.word	.LANCHOR5
 159              	.LBE11:
 160              	.LBE9:
 161              	.LBE8:
 162              		.cfi_endproc
 163              	.LFE119:
 164              		.size	usb_event, .-usb_event
 165              		.global	serusbcfg
 166              		.global	usbcfg
 167              		.global	SDU_PSAS
 168 0048 AFF30080 		.section	.rodata.ep1config,"a",%progbits
 168      AFF30080 
ARM GAS  /tmp/ccg6gN3r.s 			page 4


 169              		.align	2
 170              		.set	.LANCHOR3,. + 0
 171              		.type	ep1config, %object
 172              		.size	ep1config, 36
 173              	ep1config:
 174 0000 02000000 		.word	2
 175 0004 00000000 		.word	0
 176 0008 00000000 		.word	sduDataTransmitted
 177 000c 00000000 		.word	sduDataReceived
 178 0010 4000     		.short	64
 179 0012 4000     		.short	64
 180 0014 00000000 		.word	ep1instate
 181 0018 00000000 		.word	ep1outstate
 182 001c 0200     		.short	2
 183 001e 0000     		.space	2
 184 0020 00000000 		.word	0
 185              		.section	.rodata.vcom_configuration_descriptor_data,"a",%progbits
 186              		.align	2
 187              		.type	vcom_configuration_descriptor_data, %object
 188              		.size	vcom_configuration_descriptor_data, 67
 189              	vcom_configuration_descriptor_data:
 190 0000 09       		.byte	9
 191 0001 02       		.byte	2
 192 0002 43       		.byte	67
 193 0003 00       		.byte	0
 194 0004 02       		.byte	2
 195 0005 01       		.byte	1
 196 0006 00       		.byte	0
 197 0007 C0       		.byte	-64
 198 0008 32       		.byte	50
 199 0009 09       		.byte	9
 200 000a 04       		.byte	4
 201 000b 00       		.byte	0
 202 000c 00       		.byte	0
 203 000d 01       		.byte	1
 204 000e 02       		.byte	2
 205 000f 02       		.byte	2
 206 0010 01       		.byte	1
 207 0011 00       		.byte	0
 208 0012 05       		.byte	5
 209 0013 24       		.byte	36
 210 0014 00       		.byte	0
 211 0015 10       		.byte	16
 212 0016 01       		.byte	1
 213 0017 05       		.byte	5
 214 0018 24       		.byte	36
 215 0019 01       		.byte	1
 216 001a 00       		.byte	0
 217 001b 01       		.byte	1
 218 001c 04       		.byte	4
 219 001d 24       		.byte	36
 220 001e 02       		.byte	2
 221 001f 02       		.byte	2
 222 0020 05       		.byte	5
 223 0021 24       		.byte	36
 224 0022 06       		.byte	6
 225 0023 00       		.byte	0
ARM GAS  /tmp/ccg6gN3r.s 			page 5


 226 0024 01       		.byte	1
 227 0025 07       		.byte	7
 228 0026 05       		.byte	5
 229 0027 82       		.byte	-126
 230 0028 03       		.byte	3
 231 0029 08       		.byte	8
 232 002a 00       		.byte	0
 233 002b FF       		.byte	-1
 234 002c 09       		.byte	9
 235 002d 04       		.byte	4
 236 002e 01       		.byte	1
 237 002f 00       		.byte	0
 238 0030 02       		.byte	2
 239 0031 0A       		.byte	10
 240 0032 00       		.byte	0
 241 0033 00       		.byte	0
 242 0034 00       		.byte	0
 243 0035 07       		.byte	7
 244 0036 05       		.byte	5
 245 0037 01       		.byte	1
 246 0038 02       		.byte	2
 247 0039 40       		.byte	64
 248 003a 00       		.byte	0
 249 003b 00       		.byte	0
 250 003c 07       		.byte	7
 251 003d 05       		.byte	5
 252 003e 81       		.byte	-127
 253 003f 02       		.byte	2
 254 0040 40       		.byte	64
 255 0041 00       		.byte	0
 256 0042 00       		.byte	0
 257 0043 00       		.section	.bss.ep1instate,"aw",%nobits
 258              		.align	2
 259              		.type	ep1instate, %object
 260              		.size	ep1instate, 16
 261              	ep1instate:
 262 0000 00000000 		.space	16
 262      00000000 
 262      00000000 
 262      00000000 
 263              		.section	.rodata.vcom_configuration_descriptor,"a",%progbits
 264              		.align	2
 265              		.set	.LANCHOR1,. + 0
 266              		.type	vcom_configuration_descriptor, %object
 267              		.size	vcom_configuration_descriptor, 8
 268              	vcom_configuration_descriptor:
 269 0000 43000000 		.word	67
 270 0004 00000000 		.word	vcom_configuration_descriptor_data
 271              		.section	.rodata.ep2config,"a",%progbits
 272              		.align	2
 273              		.set	.LANCHOR4,. + 0
 274              		.type	ep2config, %object
 275              		.size	ep2config, 36
 276              	ep2config:
 277 0000 03000000 		.word	3
 278 0004 00000000 		.word	0
 279 0008 00000000 		.word	sduInterruptTransmitted
ARM GAS  /tmp/ccg6gN3r.s 			page 6


 280 000c 00000000 		.word	0
 281 0010 1000     		.short	16
 282 0012 0000     		.short	0
 283 0014 00000000 		.word	ep2instate
 284 0018 00000000 		.word	0
 285 001c 0100     		.short	1
 286 001e 0000     		.space	2
 287 0020 00000000 		.word	0
 288              		.section	.bss.ep2instate,"aw",%nobits
 289              		.align	2
 290              		.type	ep2instate, %object
 291              		.size	ep2instate, 16
 292              	ep2instate:
 293 0000 00000000 		.space	16
 293      00000000 
 293      00000000 
 293      00000000 
 294              		.section	.rodata.usbcfg,"a",%progbits
 295              		.align	2
 296              		.type	usbcfg, %object
 297              		.size	usbcfg, 16
 298              	usbcfg:
 299 0000 00000000 		.word	usb_event
 300 0004 00000000 		.word	get_descriptor
 301 0008 00000000 		.word	sduRequestsHook
 302 000c 00000000 		.word	0
 303              		.section	.bss.SDU_PSAS,"aw",%nobits
 304              		.align	2
 305              		.set	.LANCHOR5,. + 0
 306              		.type	SDU_PSAS, %object
 307              		.size	SDU_PSAS, 600
 308              	SDU_PSAS:
 309 0000 00000000 		.space	600
 309      00000000 
 309      00000000 
 309      00000000 
 309      00000000 
 310              		.section	.bss.ep1outstate,"aw",%nobits
 311              		.align	2
 312              		.type	ep1outstate, %object
 313              		.size	ep1outstate, 16
 314              	ep1outstate:
 315 0000 00000000 		.space	16
 315      00000000 
 315      00000000 
 315      00000000 
 316              		.section	.rodata.vcom_string0,"a",%progbits
 317              		.align	2
 318              		.type	vcom_string0, %object
 319              		.size	vcom_string0, 4
 320              	vcom_string0:
 321 0000 04       		.byte	4
 322 0001 03       		.byte	3
 323 0002 09       		.byte	9
 324 0003 04       		.byte	4
 325              		.section	.rodata.vcom_string1,"a",%progbits
 326              		.align	2
ARM GAS  /tmp/ccg6gN3r.s 			page 7


 327              		.type	vcom_string1, %object
 328              		.size	vcom_string1, 38
 329              	vcom_string1:
 330 0000 26       		.byte	38
 331 0001 03       		.byte	3
 332 0002 53       		.byte	83
 333 0003 00       		.byte	0
 334 0004 54       		.byte	84
 335 0005 00       		.byte	0
 336 0006 4D       		.byte	77
 337 0007 00       		.byte	0
 338 0008 69       		.byte	105
 339 0009 00       		.byte	0
 340 000a 63       		.byte	99
 341 000b 00       		.byte	0
 342 000c 72       		.byte	114
 343 000d 00       		.byte	0
 344 000e 6F       		.byte	111
 345 000f 00       		.byte	0
 346 0010 65       		.byte	101
 347 0011 00       		.byte	0
 348 0012 6C       		.byte	108
 349 0013 00       		.byte	0
 350 0014 65       		.byte	101
 351 0015 00       		.byte	0
 352 0016 63       		.byte	99
 353 0017 00       		.byte	0
 354 0018 74       		.byte	116
 355 0019 00       		.byte	0
 356 001a 72       		.byte	114
 357 001b 00       		.byte	0
 358 001c 6F       		.byte	111
 359 001d 00       		.byte	0
 360 001e 6E       		.byte	110
 361 001f 00       		.byte	0
 362 0020 69       		.byte	105
 363 0021 00       		.byte	0
 364 0022 63       		.byte	99
 365 0023 00       		.byte	0
 366 0024 73       		.byte	115
 367 0025 00       		.byte	0
 368 0026 0000     		.section	.rodata.vcom_string2,"a",%progbits
 369              		.align	2
 370              		.type	vcom_string2, %object
 371              		.size	vcom_string2, 56
 372              	vcom_string2:
 373 0000 38       		.byte	56
 374 0001 03       		.byte	3
 375 0002 43       		.byte	67
 376 0003 00       		.byte	0
 377 0004 68       		.byte	104
 378 0005 00       		.byte	0
 379 0006 69       		.byte	105
 380 0007 00       		.byte	0
 381 0008 62       		.byte	98
 382 0009 00       		.byte	0
 383 000a 69       		.byte	105
ARM GAS  /tmp/ccg6gN3r.s 			page 8


 384 000b 00       		.byte	0
 385 000c 4F       		.byte	79
 386 000d 00       		.byte	0
 387 000e 53       		.byte	83
 388 000f 00       		.byte	0
 389 0010 2F       		.byte	47
 390 0011 00       		.byte	0
 391 0012 52       		.byte	82
 392 0013 00       		.byte	0
 393 0014 54       		.byte	84
 394 0015 00       		.byte	0
 395 0016 20       		.byte	32
 396 0017 00       		.byte	0
 397 0018 56       		.byte	86
 398 0019 00       		.byte	0
 399 001a 69       		.byte	105
 400 001b 00       		.byte	0
 401 001c 72       		.byte	114
 402 001d 00       		.byte	0
 403 001e 74       		.byte	116
 404 001f 00       		.byte	0
 405 0020 75       		.byte	117
 406 0021 00       		.byte	0
 407 0022 61       		.byte	97
 408 0023 00       		.byte	0
 409 0024 6C       		.byte	108
 410 0025 00       		.byte	0
 411 0026 20       		.byte	32
 412 0027 00       		.byte	0
 413 0028 43       		.byte	67
 414 0029 00       		.byte	0
 415 002a 4F       		.byte	79
 416 002b 00       		.byte	0
 417 002c 4D       		.byte	77
 418 002d 00       		.byte	0
 419 002e 20       		.byte	32
 420 002f 00       		.byte	0
 421 0030 50       		.byte	80
 422 0031 00       		.byte	0
 423 0032 6F       		.byte	111
 424 0033 00       		.byte	0
 425 0034 72       		.byte	114
 426 0035 00       		.byte	0
 427 0036 74       		.byte	116
 428 0037 00       		.byte	0
 429              		.section	.rodata.vcom_string3,"a",%progbits
 430              		.align	2
 431              		.type	vcom_string3, %object
 432              		.size	vcom_string3, 18
 433              	vcom_string3:
 434 0000 12       		.byte	18
 435 0001 03       		.byte	3
 436 0002 50       		.byte	80
 437 0003 00       		.byte	0
 438 0004 53       		.byte	83
 439 0005 00       		.byte	0
 440 0006 41       		.byte	65
ARM GAS  /tmp/ccg6gN3r.s 			page 9


 441 0007 00       		.byte	0
 442 0008 53       		.byte	83
 443 0009 00       		.byte	0
 444 000a 2D       		.byte	45
 445 000b 00       		.byte	0
 446 000c 32       		.byte	50
 447 000d 00       		.byte	0
 448 000e 35       		.byte	53
 449 000f 00       		.byte	0
 450 0010 32       		.byte	50
 451 0011 00       		.byte	0
 452 0012 0000     		.section	.rodata.vcom_device_descriptor_data,"a",%progbits
 453              		.align	2
 454              		.type	vcom_device_descriptor_data, %object
 455              		.size	vcom_device_descriptor_data, 18
 456              	vcom_device_descriptor_data:
 457 0000 12       		.byte	18
 458 0001 01       		.byte	1
 459 0002 10       		.byte	16
 460 0003 01       		.byte	1
 461 0004 02       		.byte	2
 462 0005 00       		.byte	0
 463 0006 00       		.byte	0
 464 0007 40       		.byte	64
 465 0008 83       		.byte	-125
 466 0009 04       		.byte	4
 467 000a 40       		.byte	64
 468 000b 57       		.byte	87
 469 000c 00       		.byte	0
 470 000d 02       		.byte	2
 471 000e 01       		.byte	1
 472 000f 02       		.byte	2
 473 0010 03       		.byte	3
 474 0011 01       		.byte	1
 475 0012 0000     		.section	.rodata.vcom_strings,"a",%progbits
 476              		.align	2
 477              		.set	.LANCHOR2,. + 0
 478              		.type	vcom_strings, %object
 479              		.size	vcom_strings, 32
 480              	vcom_strings:
 481 0000 04000000 		.word	4
 482 0004 00000000 		.word	vcom_string0
 483 0008 26000000 		.word	38
 484 000c 00000000 		.word	vcom_string1
 485 0010 38000000 		.word	56
 486 0014 00000000 		.word	vcom_string2
 487 0018 12000000 		.word	18
 488 001c 00000000 		.word	vcom_string3
 489              		.section	.rodata.serusbcfg,"a",%progbits
 490              		.align	2
 491              		.type	serusbcfg, %object
 492              		.size	serusbcfg, 8
 493              	serusbcfg:
 494 0000 00000000 		.word	USBD1
 495 0004 01       		.byte	1
 496 0005 01       		.byte	1
 497 0006 02       		.byte	2
ARM GAS  /tmp/ccg6gN3r.s 			page 10


 498 0007 00       		.space	1
 499              		.section	.rodata.vcom_device_descriptor,"a",%progbits
 500              		.align	2
 501              		.set	.LANCHOR0,. + 0
 502              		.type	vcom_device_descriptor, %object
 503              		.size	vcom_device_descriptor, 8
 504              	vcom_device_descriptor:
 505 0000 12000000 		.word	18
 506 0004 00000000 		.word	vcom_device_descriptor_data
 507              		.text
 508              	.Letext0:
 509              		.file 2 "/opt/psas/x-tools/stm32f407/arm-psas-eabi/bin/../lib/gcc/arm-psas-eabi/4.7.2/include/stdd
 510              		.file 3 "/opt/psas/x-tools/stm32f407/arm-psas-eabi/bin/../lib/gcc/arm-psas-eabi/4.7.2/../../../../
 511              		.file 4 "../../ChibiOS/os/ports/GCC/ARMCMx/chtypes.h"
 512              		.file 5 "../../ChibiOS/os/kernel/include/chlists.h"
 513              		.file 6 "../../ChibiOS/os/kernel/include/chthreads.h"
 514              		.file 7 "../../ChibiOS/os/ports/GCC/ARMCMx/chcore_v7m.h"
 515              		.file 8 "../../ChibiOS/os/kernel/include/chmtx.h"
 516              		.file 9 "../../ChibiOS/os/kernel/include/chevents.h"
 517              		.file 10 "../../ChibiOS/os/kernel/include/chqueues.h"
 518              		.file 11 "../../ChibiOS/os/hal/include/usb.h"
 519              		.file 12 "../../ChibiOS/os/hal/platforms/STM32/OTGv1/usb_lld.h"
 520              		.file 13 "../../ChibiOS/os/hal/platforms/STM32/OTGv1/stm32_otg.h"
 521              		.file 14 "../../ChibiOS/os/hal/include/serial_usb.h"
 522              		.file 15 "../../ChibiOS/os/ports/common/ARMCMx/CMSIS/include/core_cm4.h"
 523              		.file 16 "../../ChibiOS/os/kernel/include/chdebug.h"