ARM GAS  /tmp/ccg6gN3r.s 			page 1


   1              		.syntax unified
   2              		.cpu cortex-m4
   3              		.eabi_attribute 27, 3
   4              		.eabi_attribute 28, 1
   5              		.fpu fpv4-sp-d16
   6              		.eabi_attribute 20, 1
   7              		.eabi_attribute 21, 1
   8              		.eabi_attribute 23, 3
   9              		.eabi_attribute 24, 1
  10              		.eabi_attribute 25, 1
  11              		.eabi_attribute 26, 1
  12              		.eabi_attribute 30, 2
  13              		.eabi_attribute 34, 1
  14              		.eabi_attribute 18, 4
  15              		.thumb
  16              		.file	"usbdetail.c"
  17              		.text
  18              	.Ltext0:
  19              		.cfi_sections	.debug_frame
  20              		.section	.text.get_descriptor,"ax",%progbits
  21              		.align	2
  22              		.p2align 4,,15
  23              		.global	get_descriptor
  24              		.thumb
  25              		.thumb_func
  26              		.type	get_descriptor, %function
  27              	get_descriptor:
  28              	.LFB118:
  29              		.file 1 "../common/usbdetail.c"
  30              		.loc 1 211 0
  31              		.cfi_startproc
  32              		@ args = 0, pretend = 0, frame = 0
  33              		@ frame_needed = 0, uses_anonymous_args = 0
  34              		@ link register save eliminated.
  35              	.LVL0:
  36              		.loc 1 215 0
  37 0000 0229     		cmp	r1, #2
  38 0002 06D0     		beq	.L6
  39 0004 0329     		cmp	r1, #3
  40 0006 06D0     		beq	.L5
  41              		.loc 1 228 0
  42 0008 0748     		ldr	r0, .L9
  43              	.LVL1:
  44 000a 0129     		cmp	r1, #1
  45 000c 18BF     		it	ne
  46 000e 0020     		movne	r0, #0
  47 0010 7047     		bx	lr
  48              	.LVL2:
  49              	.L6:
  50              		.loc 1 220 0
  51 0012 0648     		ldr	r0, .L9+4
  52              	.LVL3:
  53 0014 7047     		bx	lr
  54              	.LVL4:
  55              	.L5:
  56              		.loc 1 223 0
  57 0016 032A     		cmp	r2, #3
ARM GAS  /tmp/ccg6gN3r.s 			page 2


  58 0018 03D8     		bhi	.L7
  59              		.loc 1 224 0
  60 001a 0548     		ldr	r0, .L9+8
  61              	.LVL5:
  62 001c 00EBC200 		add	r0, r0, r2, lsl #3
  63 0020 7047     		bx	lr
  64              	.LVL6:
  65              	.L7:
  66              		.loc 1 228 0
  67 0022 0020     		movs	r0, #0
  68              	.LVL7:
  69              		.loc 1 229 0
  70 0024 7047     		bx	lr
  71              	.L10:
  72 0026 00BF     		.align	2
  73              	.L9:
  74 0028 00000000 		.word	.LANCHOR0
  75 002c 00000000 		.word	.LANCHOR1
  76 0030 00000000 		.word	.LANCHOR2
  77              		.cfi_endproc
  78              	.LFE118:
  79              		.size	get_descriptor, .-get_descriptor
  80 0034 AFF30080 		.section	.text.usb_event,"ax",%progbits
  80      AFF30080 
  80      AFF30080 
  81              		.align	2
  82              		.p2align 4,,15
  83              		.global	usb_event
  84              		.thumb
  85              		.thumb_func
  86              		.type	usb_event, %function
  87              	usb_event:
  88              	.LFB119:
  89              		.loc 1 309 0
  90              		.cfi_startproc
  91              		@ args = 0, pretend = 0, frame = 0
  92              		@ frame_needed = 0, uses_anonymous_args = 0
  93              	.LVL8:
  94              		.loc 1 311 0
  95 0000 0229     		cmp	r1, #2
  96              		.loc 1 309 0
  97 0002 38B5     		push	{r3, r4, r5, lr}
  98              	.LCFI0:
  99              		.cfi_def_cfa_offset 16
 100              		.cfi_offset 3, -16
 101              		.cfi_offset 4, -12
 102              		.cfi_offset 5, -8
 103              		.cfi_offset 14, -4
 104              		.loc 1 309 0
 105 0004 0C46     		mov	r4, r1
 106 0006 0546     		mov	r5, r0
 107              		.loc 1 311 0
 108 0008 16D1     		bne	.L11
 109              	.LVL9:
 110              	.LBB8:
 111              	.LBB9:
 112              	.LBB10:
ARM GAS  /tmp/ccg6gN3r.s 			page 3


 113              		.loc 1 317 0
 114 000a 2023     		movs	r3, #32
 115              	.LVL10:
 116              	@ 317 "../common/usbdetail.c" 1
 117 000c 83F31188 		msr     BASEPRI, r3
 118              	@ 0 "" 2
 119              	.LVL11:
 120              		.thumb
 121              	.LBE10:
 122 0010 FFF7FEFF 		bl	dbg_check_lock_from_isr
 123              	.LVL12:
 124              		.loc 1 324 0
 125 0014 2846     		mov	r0, r5
 126 0016 0121     		movs	r1, #1
 127 0018 084A     		ldr	r2, .L14
 128 001a FFF7FEFF 		bl	usbInitEndpointI
 129              	.LVL13:
 130              		.loc 1 325 0
 131 001e 2146     		mov	r1, r4
 132 0020 074A     		ldr	r2, .L14+4
 133 0022 2846     		mov	r0, r5
 134 0024 FFF7FEFF 		bl	usbInitEndpointI
 135              	.LVL14:
 136              		.loc 1 332 0
 137 0028 0648     		ldr	r0, .L14+8
 138 002a FFF7FEFF 		bl	sduConfigureHookI
 139              	.LVL15:
 140              		.loc 1 334 0
 141 002e FFF7FEFF 		bl	dbg_check_unlock_from_isr
 142              	.LVL16:
 143              	.LBB11:
 144 0032 0023     		movs	r3, #0
 145              	.LVL17:
 146              	@ 334 "../common/usbdetail.c" 1
 147 0034 83F31188 		msr     BASEPRI, r3
 148              	@ 0 "" 2
 149              	.LVL18:
 150              		.thumb
 151              	.L11:
 152 0038 38BD     		pop	{r3, r4, r5, pc}
 153              	.L15:
 154 003a 00BF     		.align	2
 155              	.L14:
 156 003c 00000000 		.word	.LANCHOR3
 157 0040 00000000 		.word	.LANCHOR4
 158 0044 00000000 		.word	.LANCHOR5
 159              	.LBE11:
 160              	.LBE9:
 161              	.LBE8:
 162              		.cfi_endproc
 163              	.LFE119:
 164              		.size	usb_event, .-usb_event
 165              		.global	serusbcfg
 166              		.global	usbcfg
 167              		.global	SDU_PSAS
 168 0048 AFF30080 		.section	.rodata.ep1config,"a",%progbits
 168      AFF30080 
ARM GAS  /tmp/ccg6gN3r.s 			page 4


 169              		.align	2
 170              		.set	.LANCHOR3,. + 0
 171              		.type	ep1config, %object
 172              		.size	ep1config, 36
 173              	ep1config:
 174 0000 02000000 		.word	2
 175 0004 00000000 		.word	0
 176 0008 00000000 		.word	sduDataTransmitted
 177 000c 00000000 		.word	sduDataReceived
 178 0010 4000     		.short	64
 179 0012 4000     		.short	64
 180 0014 00000000 		.word	ep1instate
 181 0018 00000000 		.word	ep1outstate
 182 001c 0200     		.short	2
 183 001e 0000     		.space	2
 184 0020 00000000 		.word	0
 185              		.section	.rodata.vcom_configuration_descriptor_data,"a",%progbits
 186              		.align	2
 187              		.type	vcom_configuration_descriptor_data, %object
 188              		.size	vcom_configuration_descriptor_data, 67
 189              	vcom_configuration_descriptor_data:
 190 0000 09       		.byte	9
 191 0001 02       		.byte	2
 192 0002 43       		.byte	67
 193 0003 00       		.byte	0
 194 0004 02       		.byte	2
 195 0005 01       		.byte	1
 196 0006 00       		.byte	0
 197 0007 C0       		.byte	-64
 198 0008 32       		.byte	50
 199 0009 09       		.byte	9
 200 000a 04       		.byte	4
 201 000b 00       		.byte	0
 202 000c 00       		.byte	0
 203 000d 01       		.byte	1
 204 000e 02       		.byte	2
 205 000f 02       		.byte	2
 206 0010 01       		.byte	1
 207 0011 00       		.byte	0
 208 0012 05       		.byte	5
 209 0013 24       		.byte	36
 210 0014 00       		.byte	0
 211 0015 10       		.byte	16
 212 0016 01       		.byte	1
 213 0017 05       		.byte	5
 214 0018 24       		.byte	36
 215 0019 01       		.byte	1
 216 001a 00       		.byte	0
 217 001b 01       		.byte	1
 218 001c 04       		.byte	4
 219 001d 24       		.byte	36
 220 001e 02       		.byte	2
 221 001f 02       		.byte	2
 222 0020 05       		.byte	5
 223 0021 24       		.byte	36
 224 0022 06       		.byte	6
 225 0023 00       		.byte	0
ARM GAS  /tmp/ccg6gN3r.s 			page 5


 226 0024 01       		.byte	1
 227 0025 07       		.byte	7
 228 0026 05       		.byte	5
 229 0027 82       		.byte	-126
 230 0028 03       		.byte	3
 231 0029 08       		.byte	8
 232 002a 00       		.byte	0
 233 002b FF       		.byte	-1
 234 002c 09       		.byte	9
 235 002d 04       		.byte	4
 236 002e 01       		.byte	1
 237 002f 00       		.byte	0
 238 0030 02       		.byte	2
 239 0031 0A       		.byte	10
 240 0032 00       		.byte	0
 241 0033 00       		.byte	0
 242 0034 00       		.byte	0
 243 0035 07       		.byte	7
 244 0036 05       		.byte	5
 245 0037 01       		.byte	1
 246 0038 02       		.byte	2
 247 0039 40       		.byte	64
 248 003a 00       		.byte	0
 249 003b 00       		.byte	0
 250 003c 07       		.byte	7
 251 003d 05       		.byte	5
 252 003e 81       		.byte	-127
 253 003f 02       		.byte	2
 254 0040 40       		.byte	64
 255 0041 00       		.byte	0
 256 0042 00       		.byte	0
 257 0043 00       		.section	.bss.ep1instate,"aw",%nobits
 258              		.align	2
 259              		.type	ep1instate, %object
 260              		.size	ep1instate, 16
 261              	ep1instate:
 262 0000 00000000 		.space	16
 262      00000000 
 262      00000000 
 262      00000000 
 263              		.section	.rodata.vcom_configuration_descriptor,"a",%progbits
 264              		.align	2
 265              		.set	.LANCHOR1,. + 0
 266              		.type	vcom_configuration_descriptor, %object
 267              		.size	vcom_configuration_descriptor, 8
 268              	vcom_configuration_descriptor:
 269 0000 43000000 		.word	67
 270 0004 00000000 		.word	vcom_configuration_descriptor_data
 271              		.section	.rodata.ep2config,"a",%progbits
 272              		.align	2
 273              		.set	.LANCHOR4,. + 0
 274              		.type	ep2config, %object
 275              		.size	ep2config, 36
 276              	ep2config:
 277 0000 03000000 		.word	3
 278 0004 00000000 		.word	0
 279 0008 00000000 		.word	sduInterruptTransmitted
ARM GAS  /tmp/ccg6gN3r.s 			page 6


 280 000c 00000000 		.word	0
 281 0010 1000     		.short	16
 282 0012 0000     		.short	0
 283 0014 00000000 		.word	ep2instate
 284 0018 00000000 		.word	0
 285 001c 0100     		.short	1
 286 001e 0000     		.space	2
 287 0020 00000000 		.word	0
 288              		.section	.bss.ep2instate,"aw",%nobits
 289              		.align	2
 290              		.type	ep2instate, %object
 291              		.size	ep2instate, 16
 292              	ep2instate:
 293 0000 00000000 		.space	16
 293      00000000 
 293      00000000 
 293      00000000 
 294              		.section	.rodata.usbcfg,"a",%progbits
 295              		.align	2
 296              		.type	usbcfg, %object
 297              		.size	usbcfg, 16
 298              	usbcfg:
 299 0000 00000000 		.word	usb_event
 300 0004 00000000 		.word	get_descriptor
 301 0008 00000000 		.word	sduRequestsHook
 302 000c 00000000 		.word	0
 303              		.section	.bss.SDU_PSAS,"aw",%nobits
 304              		.align	2
 305              		.set	.LANCHOR5,. + 0
 306              		.type	SDU_PSAS, %object
 307              		.size	SDU_PSAS, 600
 308              	SDU_PSAS:
 309 0000 00000000 		.space	600
 309      00000000 
 309      00000000 
 309      00000000 
 309      00000000 
 310              		.section	.bss.ep1outstate,"aw",%nobits
 311              		.align	2
 312              		.type	ep1outstate, %object
 313              		.size	ep1outstate, 16
 314              	ep1outstate:
 315 0000 00000000 		.space	16
 315      00000000 
 315      00000000 
 315      00000000 
 316              		.section	.rodata.vcom_string0,"a",%progbits
 317              		.align	2
 318              		.type	vcom_string0, %object
 319              		.size	vcom_string0, 4
 320              	vcom_string0:
 321 0000 04       		.byte	4
 322 0001 03       		.byte	3
 323 0002 09       		.byte	9
 324 0003 04       		.byte	4
 325              		.section	.rodata.vcom_string1,"a",%progbits
 326              		.align	2
ARM GAS  /tmp/ccg6gN3r.s 			page 7


 327              		.type	vcom_string1, %object
 328              		.size	vcom_string1, 38
 329              	vcom_string1:
 330 0000 26       		.byte	38
 331 0001 03       		.byte	3
 332 0002 53       		.byte	83
 333 0003 00       		.byte	0
 334 0004 54       		.byte	84
 335 0005 00       		.byte	0
 336 0006 4D       		.byte	77
 337 0007 00       		.byte	0
 338 0008 69       		.byte	105
 339 0009 00       		.byte	0
 340 000a 63       		.byte	99
 341 000b 00       		.byte	0
 342 000c 72       		.byte	114
 343 000d 00       		.byte	0
 344 000e 6F       		.byte	111
 345 000f 00       		.byte	0
 346 0010 65       		.byte	101
 347 0011 00       		.byte	0
 348 0012 6C       		.byte	108
 349 0013 00       		.byte	0
 350 0014 65       		.byte	101
 351 0015 00       		.byte	0
 352 0016 63       		.byte	99
 353 0017 00       		.byte	0
 354 0018 74       		.byte	116
 355 0019 00       		.byte	0
 356 001a 72       		.byte	114
 357 001b 00       		.byte	0
 358 001c 6F       		.byte	111
 359 001d 00       		.byte	0
 360 001e 6E       		.byte	110
 361 001f 00       		.byte	0
 362 0020 69       		.byte	105
 363 0021 00       		.byte	0
 364 0022 63       		.byte	99
 365 0023 00       		.byte	0
 366 0024 73       		.byte	115
 367 0025 00       		.byte	0
 368 0026 0000     		.section	.rodata.vcom_string2,"a",%progbits
 369              		.align	2
 370              		.type	vcom_string2, %object
 371              		.size	vcom_string2, 56
 372              	vcom_string2:
 373 0000 38       		.byte	56
 374 0001 03       		.byte	3
 375 0002 43       		.byte	67
 376 0003 00       		.byte	0
 377 0004 68       		.byte	104
 378 0005 00       		.byte	0
 379 0006 69       		.byte	105
 380 0007 00       		.byte	0
 381 0008 62       		.byte	98
 382 0009 00       		.byte	0
 383 000a 69       		.byte	105
ARM GAS  /tmp/ccg6gN3r.s 			page 8


 384 000b 00       		.byte	0
 385 000c 4F       		.byte	79
 386 000d 00       		.byte	0
 387 000e 53       		.byte	83
 388 000f 00       		.byte	0
 389 0010 2F       		.byte	47
 390 0011 00       		.byte	0
 391 0012 52       		.byte	82
 392 0013 00       		.byte	0
 393 0014 54       		.byte	84
 394 0015 00       		.byte	0
 395 0016 20       		.byte	32
 396 0017 00       		.byte	0
 397 0018 56       		.byte	86
 398 0019 00       		.byte	0
 399 001a 69       		.byte	105
 400 001b 00       		.byte	0
 401 001c 72       		.byte	114
 402 001d 00       		.byte	0
 403 001e 74       		.byte	116
 404 001f 00       		.byte	0
 405 0020 75       		.byte	117
 406 0021 00       		.byte	0
 407 0022 61       		.byte	97
 408 0023 00       		.byte	0
 409 0024 6C       		.byte	108
 410 0025 00       		.byte	0
 411 0026 20       		.byte	32
 412 0027 00       		.byte	0
 413 0028 43       		.byte	67
 414 0029 00       		.byte	0
 415 002a 4F       		.byte	79
 416 002b 00       		.byte	0
 417 002c 4D       		.byte	77
 418 002d 00       		.byte	0
 419 002e 20       		.byte	32
 420 002f 00       		.byte	0
 421 0030 50       		.byte	80
 422 0031 00       		.byte	0
 423 0032 6F       		.byte	111
 424 0033 00       		.byte	0
 425 0034 72       		.byte	114
 426 0035 00       		.byte	0
 427 0036 74       		.byte	116
 428 0037 00       		.byte	0
 429              		.section	.rodata.vcom_string3,"a",%progbits
 430              		.align	2
 431              		.type	vcom_string3, %object
 432              		.size	vcom_string3, 18
 433              	vcom_string3:
 434 0000 12       		.byte	18
 435 0001 03       		.byte	3
 436 0002 50       		.byte	80
 437 0003 00       		.byte	0
 438 0004 53       		.byte	83
 439 0005 00       		.byte	0
 440 0006 41       		.byte	65
ARM GAS  /tmp/ccg6gN3r.s 			page 9


 441 0007 00       		.byte	0
 442 0008 53       		.byte	83
 443 0009 00       		.byte	0
 444 000a 2D       		.byte	45
 445 000b 00       		.byte	0
 446 000c 32       		.byte	50
 447 000d 00       		.byte	0
 448 000e 35       		.byte	53
 449 000f 00       		.byte	0
 450 0010 32       		.byte	50
 451 0011 00       		.byte	0
 452 0012 0000     		.section	.rodata.vcom_device_descriptor_data,"a",%progbits
 453              		.align	2
 454              		.type	vcom_device_descriptor_data, %object
 455              		.size	vcom_device_descriptor_data, 18
 456              	vcom_device_descriptor_data:
 457 0000 12       		.byte	18
 458 0001 01       		.byte	1
 459 0002 10       		.byte	16
 460 0003 01       		.byte	1
 461 0004 02       		.byte	2
 462 0005 00       		.byte	0
 463 0006 00       		.byte	0
 464 0007 40       		.byte	64
 465 0008 83       		.byte	-125
 466 0009 04       		.byte	4
 467 000a 40       		.byte	64
 468 000b 57       		.byte	87
 469 000c 00       		.byte	0
 470 000d 02       		.byte	2
 471 000e 01       		.byte	1
 472 000f 02       		.byte	2
 473 0010 03       		.byte	3
 474 0011 01       		.byte	1
 475 0012 0000     		.section	.rodata.vcom_strings,"a",%progbits
 476              		.align	2
 477              		.set	.LANCHOR2,. + 0
 478              		.type	vcom_strings, %object
 479              		.size	vcom_strings, 32
 480              	vcom_strings:
 481 0000 04000000 		.word	4
 482 0004 00000000 		.word	vcom_string0
 483 0008 26000000 		.word	38
 484 000c 00000000 		.word	vcom_string1
 485 0010 38000000 		.word	56
 486 0014 00000000 		.word	vcom_string2
 487 0018 12000000 		.word	18
 488 001c 00000000 		.word	vcom_string3
 489              		.section	.rodata.serusbcfg,"a",%progbits
 490              		.align	2
 491              		.type	serusbcfg, %object
 492              		.size	serusbcfg, 8
 493              	serusbcfg:
 494 0000 00000000 		.word	USBD1
 495 0004 01       		.byte	1
 496 0005 01       		.byte	1
 497 0006 02       		.byte	2
ARM GAS  /tmp/ccg6gN3r.s 			page 10


 498 0007 00       		.space	1
 499              		.section	.rodata.vcom_device_descriptor,"a",%progbits
 500              		.align	2
 501              		.set	.LANCHOR0,. + 0
 502              		.type	vcom_device_descriptor, %object
 503              		.size	vcom_device_descriptor, 8
 504              	vcom_device_descriptor:
 505 0000 12000000 		.word	18
 506 0004 00000000 		.word	vcom_device_descriptor_data
 507              		.text
 508              	.Letext0:
 509              		.file 2 "/opt/psas/x-tools/stm32f407/arm-psas-eabi/bin/../lib/gcc/arm-psas-eabi/4.7.2/include/stdd
 510              		.file 3 "/opt/psas/x-tools/stm32f407/arm-psas-eabi/bin/../lib/gcc/arm-psas-eabi/4.7.2/../../../../
 511              		.file 4 "../../ChibiOS/os/ports/GCC/ARMCMx/chtypes.h"
 512              		.file 5 "../../ChibiOS/os/kernel/include/chlists.h"
 513              		.file 6 "../../ChibiOS/os/kernel/include/chthreads.h"
 514              		.file 7 "../../ChibiOS/os/ports/GCC/ARMCMx/chcore_v7m.h"
 515              		.file 8 "../../ChibiOS/os/kernel/include/chmtx.h"
 516              		.file 9 "../../ChibiOS/os/kernel/include/chevents.h"
 517              		.file 10 "../../ChibiOS/os/kernel/include/chqueues.h"
 518              		.file 11 "../../ChibiOS/os/hal/include/usb.h"
 519              		.file 12 "../../ChibiOS/os/hal/platforms/STM32/OTGv1/usb_lld.h"
 520              		.file 13 "../../ChibiOS/os/hal/platforms/STM32/OTGv1/stm32_otg.h"
 521              		.file 14 "../../ChibiOS/os/hal/include/serial_usb.h"
 522              		.file 15 "../../ChibiOS/os/ports/common/ARMCMx/CMSIS/include/core_cm4.h"
 523              		.file 16 "../../ChibiOS/os/kernel/include/chdebug.h"
 524              		.section	.debug_info,"",%progbits
 525              	.Ldebug_info0:
 526 0000 A0170000 		.4byte	0x17a0
 527 0004 0200     		.2byte	0x2
 528 0006 00000000 		.4byte	.Ldebug_abbrev0
 529 000a 04       		.byte	0x4
 530 000b 01       		.uleb128 0x1
 531 000c B3000000 		.4byte	.LASF290
 532 0010 01       		.byte	0x1
 533 0011 1F060000 		.4byte	.LASF291
 534 0015 7B050000 		.4byte	.LASF292
 535 0019 00000000 		.4byte	.Ldebug_ranges0+0
 536 001d 00000000 		.4byte	0
 537 0021 00000000 		.4byte	0
 538 0025 00000000 		.4byte	.Ldebug_line0
 539 0029 02       		.uleb128 0x2
 540 002a 00000000 		.4byte	.LASF11
 541 002e 02       		.byte	0x2
 542 002f D5       		.byte	0xd5
 543 0030 34000000 		.4byte	0x34
 544 0034 03       		.uleb128 0x3
 545 0035 04       		.byte	0x4
 546 0036 07       		.byte	0x7
 547 0037 CC060000 		.4byte	.LASF0
 548 003b 04       		.uleb128 0x4
 549 003c 04       		.byte	0x4
 550 003d 03       		.uleb128 0x3
 551 003e 01       		.byte	0x1
 552 003f 06       		.byte	0x6
 553 0040 06020000 		.4byte	.LASF1
 554 0044 03       		.uleb128 0x3
ARM GAS  /tmp/ccg6gN3r.s 			page 11


 555 0045 01       		.byte	0x1
 556 0046 08       		.byte	0x8
 557 0047 77020000 		.4byte	.LASF2
 558 004b 03       		.uleb128 0x3
 559 004c 02       		.byte	0x2
 560 004d 05       		.byte	0x5
 561 004e 63090000 		.4byte	.LASF3
 562 0052 03       		.uleb128 0x3
 563 0053 02       		.byte	0x2
 564 0054 07       		.byte	0x7
 565 0055 CB0A0000 		.4byte	.LASF4
 566 0059 05       		.uleb128 0x5
 567 005a 04       		.byte	0x4
 568 005b 05       		.byte	0x5
 569 005c 696E7400 		.ascii	"int\000"
 570 0060 03       		.uleb128 0x3
 571 0061 08       		.byte	0x8
 572 0062 05       		.byte	0x5
 573 0063 F6050000 		.4byte	.LASF5
 574 0067 03       		.uleb128 0x3
 575 0068 08       		.byte	0x8
 576 0069 07       		.byte	0x7
 577 006a 03080000 		.4byte	.LASF6
 578 006e 03       		.uleb128 0x3
 579 006f 04       		.byte	0x4
 580 0070 05       		.byte	0x5
 581 0071 5F010000 		.4byte	.LASF7
 582 0075 03       		.uleb128 0x3
 583 0076 04       		.byte	0x4
 584 0077 07       		.byte	0x7
 585 0078 07000000 		.4byte	.LASF8
 586 007c 03       		.uleb128 0x3
 587 007d 04       		.byte	0x4
 588 007e 07       		.byte	0x7
 589 007f C0040000 		.4byte	.LASF9
 590 0083 03       		.uleb128 0x3
 591 0084 01       		.byte	0x1
 592 0085 08       		.byte	0x8
 593 0086 01030000 		.4byte	.LASF10
 594 008a 06       		.uleb128 0x6
 595 008b 04       		.byte	0x4
 596 008c 90000000 		.4byte	0x90
 597 0090 07       		.uleb128 0x7
 598 0091 83000000 		.4byte	0x83
 599 0095 02       		.uleb128 0x2
 600 0096 1C020000 		.4byte	.LASF12
 601 009a 03       		.byte	0x3
 602 009b 2A       		.byte	0x2a
 603 009c 44000000 		.4byte	0x44
 604 00a0 02       		.uleb128 0x2
 605 00a1 2B080000 		.4byte	.LASF13
 606 00a5 03       		.byte	0x3
 607 00a6 36       		.byte	0x36
 608 00a7 52000000 		.4byte	0x52
 609 00ab 02       		.uleb128 0x2
 610 00ac 4D000000 		.4byte	.LASF14
 611 00b0 03       		.byte	0x3
ARM GAS  /tmp/ccg6gN3r.s 			page 12


 612 00b1 4F       		.byte	0x4f
 613 00b2 6E000000 		.4byte	0x6e
 614 00b6 02       		.uleb128 0x2
 615 00b7 780A0000 		.4byte	.LASF15
 616 00bb 03       		.byte	0x3
 617 00bc 50       		.byte	0x50
 618 00bd 7C000000 		.4byte	0x7c
 619 00c1 02       		.uleb128 0x2
 620 00c2 6D090000 		.4byte	.LASF16
 621 00c6 03       		.byte	0x3
 622 00c7 78       		.byte	0x78
 623 00c8 67000000 		.4byte	0x67
 624 00cc 02       		.uleb128 0x2
 625 00cd C0090000 		.4byte	.LASF17
 626 00d1 04       		.byte	0x4
 627 00d2 24       		.byte	0x24
 628 00d3 D7000000 		.4byte	0xd7
 629 00d7 03       		.uleb128 0x3
 630 00d8 01       		.byte	0x1
 631 00d9 02       		.byte	0x2
 632 00da CF020000 		.4byte	.LASF18
 633 00de 02       		.uleb128 0x2
 634 00df 29090000 		.4byte	.LASF19
 635 00e3 04       		.byte	0x4
 636 00e4 25       		.byte	0x25
 637 00e5 95000000 		.4byte	0x95
 638 00e9 02       		.uleb128 0x2
 639 00ea 84010000 		.4byte	.LASF20
 640 00ee 04       		.byte	0x4
 641 00ef 26       		.byte	0x26
 642 00f0 95000000 		.4byte	0x95
 643 00f4 02       		.uleb128 0x2
 644 00f5 420A0000 		.4byte	.LASF21
 645 00f9 04       		.byte	0x4
 646 00fa 27       		.byte	0x27
 647 00fb 95000000 		.4byte	0x95
 648 00ff 02       		.uleb128 0x2
 649 0100 9A080000 		.4byte	.LASF22
 650 0104 04       		.byte	0x4
 651 0105 28       		.byte	0x28
 652 0106 95000000 		.4byte	0x95
 653 010a 02       		.uleb128 0x2
 654 010b 2D000000 		.4byte	.LASF23
 655 010f 04       		.byte	0x4
 656 0110 29       		.byte	0x29
 657 0111 B6000000 		.4byte	0xb6
 658 0115 02       		.uleb128 0x2
 659 0116 41080000 		.4byte	.LASF24
 660 011a 04       		.byte	0x4
 661 011b 2A       		.byte	0x2a
 662 011c AB000000 		.4byte	0xab
 663 0120 02       		.uleb128 0x2
 664 0121 5C020000 		.4byte	.LASF25
 665 0125 04       		.byte	0x4
 666 0126 2C       		.byte	0x2c
 667 0127 B6000000 		.4byte	0xb6
 668 012b 02       		.uleb128 0x2
ARM GAS  /tmp/ccg6gN3r.s 			page 13


 669 012c 65070000 		.4byte	.LASF26
 670 0130 04       		.byte	0x4
 671 0131 2D       		.byte	0x2d
 672 0132 B6000000 		.4byte	0xb6
 673 0136 02       		.uleb128 0x2
 674 0137 10000000 		.4byte	.LASF27
 675 013b 04       		.byte	0x4
 676 013c 2E       		.byte	0x2e
 677 013d B6000000 		.4byte	0xb6
 678 0141 02       		.uleb128 0x2
 679 0142 000A0000 		.4byte	.LASF28
 680 0146 05       		.byte	0x5
 681 0147 23       		.byte	0x23
 682 0148 4C010000 		.4byte	0x14c
 683 014c 08       		.uleb128 0x8
 684 014d 000A0000 		.4byte	.LASF28
 685 0151 4C       		.byte	0x4c
 686 0152 06       		.byte	0x6
 687 0153 57       		.byte	0x57
 688 0154 7F020000 		.4byte	0x27f
 689 0158 09       		.uleb128 0x9
 690 0159 68010000 		.4byte	.LASF29
 691 015d 06       		.byte	0x6
 692 015e 58       		.byte	0x58
 693 015f A4020000 		.4byte	0x2a4
 694 0163 02       		.byte	0x2
 695 0164 23       		.byte	0x23
 696 0165 00       		.uleb128 0
 697 0166 09       		.uleb128 0x9
 698 0167 7D010000 		.4byte	.LASF30
 699 016b 06       		.byte	0x6
 700 016c 5A       		.byte	0x5a
 701 016d A4020000 		.4byte	0x2a4
 702 0171 02       		.byte	0x2
 703 0172 23       		.byte	0x23
 704 0173 04       		.uleb128 0x4
 705 0174 09       		.uleb128 0x9
 706 0175 19030000 		.4byte	.LASF31
 707 0179 06       		.byte	0x6
 708 017a 5C       		.byte	0x5c
 709 017b 0A010000 		.4byte	0x10a
 710 017f 02       		.byte	0x2
 711 0180 23       		.byte	0x23
 712 0181 08       		.uleb128 0x8
 713 0182 09       		.uleb128 0x9
 714 0183 1A000000 		.4byte	.LASF32
 715 0187 06       		.byte	0x6
 716 0188 5D       		.byte	0x5d
 717 0189 7B030000 		.4byte	0x37b
 718 018d 02       		.byte	0x2
 719 018e 23       		.byte	0x23
 720 018f 0C       		.uleb128 0xc
 721 0190 09       		.uleb128 0x9
 722 0191 4B010000 		.4byte	.LASF33
 723 0195 06       		.byte	0x6
 724 0196 5F       		.byte	0x5f
 725 0197 A4020000 		.4byte	0x2a4
ARM GAS  /tmp/ccg6gN3r.s 			page 14


 726 019b 02       		.byte	0x2
 727 019c 23       		.byte	0x23
 728 019d 10       		.uleb128 0x10
 729 019e 09       		.uleb128 0x9
 730 019f 23080000 		.4byte	.LASF34
 731 01a3 06       		.byte	0x6
 732 01a4 60       		.byte	0x60
 733 01a5 A4020000 		.4byte	0x2a4
 734 01a9 02       		.byte	0x2
 735 01aa 23       		.byte	0x23
 736 01ab 14       		.uleb128 0x14
 737 01ac 09       		.uleb128 0x9
 738 01ad 770B0000 		.4byte	.LASF35
 739 01b1 06       		.byte	0x6
 740 01b2 67       		.byte	0x67
 741 01b3 8A000000 		.4byte	0x8a
 742 01b7 02       		.byte	0x2
 743 01b8 23       		.byte	0x23
 744 01b9 18       		.uleb128 0x18
 745 01ba 09       		.uleb128 0x9
 746 01bb 270B0000 		.4byte	.LASF36
 747 01bf 06       		.byte	0x6
 748 01c0 6D       		.byte	0x6d
 749 01c1 A1040000 		.4byte	0x4a1
 750 01c5 02       		.byte	0x2
 751 01c6 23       		.byte	0x23
 752 01c7 1C       		.uleb128 0x1c
 753 01c8 09       		.uleb128 0x9
 754 01c9 DD0B0000 		.4byte	.LASF37
 755 01cd 06       		.byte	0x6
 756 01ce 72       		.byte	0x72
 757 01cf E9000000 		.4byte	0xe9
 758 01d3 02       		.byte	0x2
 759 01d4 23       		.byte	0x23
 760 01d5 20       		.uleb128 0x20
 761 01d6 09       		.uleb128 0x9
 762 01d7 B0060000 		.4byte	.LASF38
 763 01db 06       		.byte	0x6
 764 01dc 76       		.byte	0x76
 765 01dd DE000000 		.4byte	0xde
 766 01e1 02       		.byte	0x2
 767 01e2 23       		.byte	0x23
 768 01e3 21       		.uleb128 0x21
 769 01e4 09       		.uleb128 0x9
 770 01e5 0C070000 		.4byte	.LASF39
 771 01e9 06       		.byte	0x6
 772 01ea 7B       		.byte	0x7b
 773 01eb F4000000 		.4byte	0xf4
 774 01ef 02       		.byte	0x2
 775 01f0 23       		.byte	0x23
 776 01f1 22       		.uleb128 0x22
 777 01f2 09       		.uleb128 0x9
 778 01f3 12020000 		.4byte	.LASF40
 779 01f7 06       		.byte	0x6
 780 01f8 81       		.byte	0x81
 781 01f9 FF000000 		.4byte	0xff
 782 01fd 02       		.byte	0x2
ARM GAS  /tmp/ccg6gN3r.s 			page 15


 783 01fe 23       		.byte	0x23
 784 01ff 23       		.uleb128 0x23
 785 0200 09       		.uleb128 0x9
 786 0201 84070000 		.4byte	.LASF41
 787 0205 06       		.byte	0x6
 788 0206 88       		.byte	0x88
 789 0207 A3030000 		.4byte	0x3a3
 790 020b 02       		.byte	0x2
 791 020c 23       		.byte	0x23
 792 020d 24       		.uleb128 0x24
 793 020e 0A       		.uleb128 0xa
 794 020f 705F7500 		.ascii	"p_u\000"
 795 0213 06       		.byte	0x6
 796 0214 AD       		.byte	0xad
 797 0215 6C040000 		.4byte	0x46c
 798 0219 02       		.byte	0x2
 799 021a 23       		.byte	0x23
 800 021b 28       		.uleb128 0x28
 801 021c 09       		.uleb128 0x9
 802 021d A0060000 		.4byte	.LASF42
 803 0221 06       		.byte	0x6
 804 0222 B2       		.byte	0xb2
 805 0223 CC020000 		.4byte	0x2cc
 806 0227 02       		.byte	0x2
 807 0228 23       		.byte	0x23
 808 0229 2C       		.uleb128 0x2c
 809 022a 09       		.uleb128 0x9
 810 022b 35000000 		.4byte	.LASF43
 811 022f 06       		.byte	0x6
 812 0230 B8       		.byte	0xb8
 813 0231 AA020000 		.4byte	0x2aa
 814 0235 02       		.byte	0x2
 815 0236 23       		.byte	0x23
 816 0237 30       		.uleb128 0x30
 817 0238 09       		.uleb128 0x9
 818 0239 CB0B0000 		.4byte	.LASF44
 819 023d 06       		.byte	0x6
 820 023e BC       		.byte	0xbc
 821 023f 15010000 		.4byte	0x115
 822 0243 02       		.byte	0x2
 823 0244 23       		.byte	0x23
 824 0245 38       		.uleb128 0x38
 825 0246 09       		.uleb128 0x9
 826 0247 2C040000 		.4byte	.LASF45
 827 024b 06       		.byte	0x6
 828 024c C2       		.byte	0xc2
 829 024d 20010000 		.4byte	0x120
 830 0251 02       		.byte	0x2
 831 0252 23       		.byte	0x23
 832 0253 3C       		.uleb128 0x3c
 833 0254 09       		.uleb128 0x9
 834 0255 99010000 		.4byte	.LASF46
 835 0259 06       		.byte	0x6
 836 025a C9       		.byte	0xc9
 837 025b A7040000 		.4byte	0x4a7
 838 025f 02       		.byte	0x2
 839 0260 23       		.byte	0x23
ARM GAS  /tmp/ccg6gN3r.s 			page 16


 840 0261 40       		.uleb128 0x40
 841 0262 09       		.uleb128 0x9
 842 0263 B2070000 		.4byte	.LASF47
 843 0267 06       		.byte	0x6
 844 0268 CD       		.byte	0xcd
 845 0269 0A010000 		.4byte	0x10a
 846 026d 02       		.byte	0x2
 847 026e 23       		.byte	0x23
 848 026f 44       		.uleb128 0x44
 849 0270 09       		.uleb128 0x9
 850 0271 F8060000 		.4byte	.LASF48
 851 0275 06       		.byte	0x6
 852 0276 D3       		.byte	0xd3
 853 0277 3B000000 		.4byte	0x3b
 854 027b 02       		.byte	0x2
 855 027c 23       		.byte	0x23
 856 027d 48       		.uleb128 0x48
 857 027e 00       		.byte	0
 858 027f 0B       		.uleb128 0xb
 859 0280 08       		.byte	0x8
 860 0281 05       		.byte	0x5
 861 0282 5A       		.byte	0x5a
 862 0283 A4020000 		.4byte	0x2a4
 863 0287 09       		.uleb128 0x9
 864 0288 68010000 		.4byte	.LASF29
 865 028c 05       		.byte	0x5
 866 028d 5B       		.byte	0x5b
 867 028e A4020000 		.4byte	0x2a4
 868 0292 02       		.byte	0x2
 869 0293 23       		.byte	0x23
 870 0294 00       		.uleb128 0
 871 0295 09       		.uleb128 0x9
 872 0296 7D010000 		.4byte	.LASF30
 873 029a 05       		.byte	0x5
 874 029b 5D       		.byte	0x5d
 875 029c A4020000 		.4byte	0x2a4
 876 02a0 02       		.byte	0x2
 877 02a1 23       		.byte	0x23
 878 02a2 04       		.uleb128 0x4
 879 02a3 00       		.byte	0
 880 02a4 06       		.uleb128 0x6
 881 02a5 04       		.byte	0x4
 882 02a6 41010000 		.4byte	0x141
 883 02aa 02       		.uleb128 0x2
 884 02ab 920A0000 		.4byte	.LASF49
 885 02af 05       		.byte	0x5
 886 02b0 5F       		.byte	0x5f
 887 02b1 7F020000 		.4byte	0x27f
 888 02b5 0B       		.uleb128 0xb
 889 02b6 04       		.byte	0x4
 890 02b7 05       		.byte	0x5
 891 02b8 64       		.byte	0x64
 892 02b9 CC020000 		.4byte	0x2cc
 893 02bd 09       		.uleb128 0x9
 894 02be 68010000 		.4byte	.LASF29
 895 02c2 05       		.byte	0x5
 896 02c3 66       		.byte	0x66
ARM GAS  /tmp/ccg6gN3r.s 			page 17


 897 02c4 A4020000 		.4byte	0x2a4
 898 02c8 02       		.byte	0x2
 899 02c9 23       		.byte	0x23
 900 02ca 00       		.uleb128 0
 901 02cb 00       		.byte	0
 902 02cc 02       		.uleb128 0x2
 903 02cd 26070000 		.4byte	.LASF50
 904 02d1 05       		.byte	0x5
 905 02d2 69       		.byte	0x69
 906 02d3 B5020000 		.4byte	0x2b5
 907 02d7 02       		.uleb128 0x2
 908 02d8 B2010000 		.4byte	.LASF51
 909 02dc 07       		.byte	0x7
 910 02dd DE       		.byte	0xde
 911 02de 3B000000 		.4byte	0x3b
 912 02e2 02       		.uleb128 0x2
 913 02e3 66030000 		.4byte	.LASF52
 914 02e7 07       		.byte	0x7
 915 02e8 E4       		.byte	0xe4
 916 02e9 C1000000 		.4byte	0xc1
 917 02ed 0C       		.uleb128 0xc
 918 02ee 25040000 		.4byte	.LASF53
 919 02f2 24       		.byte	0x24
 920 02f3 07       		.byte	0x7
 921 02f4 0501     		.2byte	0x105
 922 02f6 7B030000 		.4byte	0x37b
 923 02fa 0D       		.uleb128 0xd
 924 02fb 723400   		.ascii	"r4\000"
 925 02fe 07       		.byte	0x7
 926 02ff 1801     		.2byte	0x118
 927 0301 D7020000 		.4byte	0x2d7
 928 0305 02       		.byte	0x2
 929 0306 23       		.byte	0x23
 930 0307 00       		.uleb128 0
 931 0308 0D       		.uleb128 0xd
 932 0309 723500   		.ascii	"r5\000"
 933 030c 07       		.byte	0x7
 934 030d 1901     		.2byte	0x119
 935 030f D7020000 		.4byte	0x2d7
 936 0313 02       		.byte	0x2
 937 0314 23       		.byte	0x23
 938 0315 04       		.uleb128 0x4
 939 0316 0D       		.uleb128 0xd
 940 0317 723600   		.ascii	"r6\000"
 941 031a 07       		.byte	0x7
 942 031b 1A01     		.2byte	0x11a
 943 031d D7020000 		.4byte	0x2d7
 944 0321 02       		.byte	0x2
 945 0322 23       		.byte	0x23
 946 0323 08       		.uleb128 0x8
 947 0324 0D       		.uleb128 0xd
 948 0325 723700   		.ascii	"r7\000"
 949 0328 07       		.byte	0x7
 950 0329 1B01     		.2byte	0x11b
 951 032b D7020000 		.4byte	0x2d7
 952 032f 02       		.byte	0x2
 953 0330 23       		.byte	0x23
ARM GAS  /tmp/ccg6gN3r.s 			page 18


 954 0331 0C       		.uleb128 0xc
 955 0332 0D       		.uleb128 0xd
 956 0333 723800   		.ascii	"r8\000"
 957 0336 07       		.byte	0x7
 958 0337 1C01     		.2byte	0x11c
 959 0339 D7020000 		.4byte	0x2d7
 960 033d 02       		.byte	0x2
 961 033e 23       		.byte	0x23
 962 033f 10       		.uleb128 0x10
 963 0340 0D       		.uleb128 0xd
 964 0341 723900   		.ascii	"r9\000"
 965 0344 07       		.byte	0x7
 966 0345 1D01     		.2byte	0x11d
 967 0347 D7020000 		.4byte	0x2d7
 968 034b 02       		.byte	0x2
 969 034c 23       		.byte	0x23
 970 034d 14       		.uleb128 0x14
 971 034e 0D       		.uleb128 0xd
 972 034f 72313000 		.ascii	"r10\000"
 973 0353 07       		.byte	0x7
 974 0354 1E01     		.2byte	0x11e
 975 0356 D7020000 		.4byte	0x2d7
 976 035a 02       		.byte	0x2
 977 035b 23       		.byte	0x23
 978 035c 18       		.uleb128 0x18
 979 035d 0D       		.uleb128 0xd
 980 035e 72313100 		.ascii	"r11\000"
 981 0362 07       		.byte	0x7
 982 0363 1F01     		.2byte	0x11f
 983 0365 D7020000 		.4byte	0x2d7
 984 0369 02       		.byte	0x2
 985 036a 23       		.byte	0x23
 986 036b 1C       		.uleb128 0x1c
 987 036c 0D       		.uleb128 0xd
 988 036d 6C7200   		.ascii	"lr\000"
 989 0370 07       		.byte	0x7
 990 0371 2001     		.2byte	0x120
 991 0373 D7020000 		.4byte	0x2d7
 992 0377 02       		.byte	0x2
 993 0378 23       		.byte	0x23
 994 0379 20       		.uleb128 0x20
 995 037a 00       		.byte	0
 996 037b 0C       		.uleb128 0xc
 997 037c 68020000 		.4byte	.LASF54
 998 0380 04       		.byte	0x4
 999 0381 07       		.byte	0x7
 1000 0382 2A01     		.2byte	0x12a
 1001 0384 98030000 		.4byte	0x398
 1002 0388 0D       		.uleb128 0xd
 1003 0389 72313300 		.ascii	"r13\000"
 1004 038d 07       		.byte	0x7
 1005 038e 2B01     		.2byte	0x12b
 1006 0390 98030000 		.4byte	0x398
 1007 0394 02       		.byte	0x2
 1008 0395 23       		.byte	0x23
 1009 0396 00       		.uleb128 0
 1010 0397 00       		.byte	0
ARM GAS  /tmp/ccg6gN3r.s 			page 19


 1011 0398 06       		.uleb128 0x6
 1012 0399 04       		.byte	0x4
 1013 039a ED020000 		.4byte	0x2ed
 1014 039e 0E       		.uleb128 0xe
 1015 039f B6000000 		.4byte	0xb6
 1016 03a3 0E       		.uleb128 0xe
 1017 03a4 36010000 		.4byte	0x136
 1018 03a8 08       		.uleb128 0x8
 1019 03a9 E1050000 		.4byte	.LASF55
 1020 03ad 10       		.byte	0x10
 1021 03ae 08       		.byte	0x8
 1022 03af 25       		.byte	0x25
 1023 03b0 DF030000 		.4byte	0x3df
 1024 03b4 09       		.uleb128 0x9
 1025 03b5 0E060000 		.4byte	.LASF56
 1026 03b9 08       		.byte	0x8
 1027 03ba 26       		.byte	0x26
 1028 03bb AA020000 		.4byte	0x2aa
 1029 03bf 02       		.byte	0x2
 1030 03c0 23       		.byte	0x23
 1031 03c1 00       		.uleb128 0
 1032 03c2 09       		.uleb128 0x9
 1033 03c3 CA000000 		.4byte	.LASF57
 1034 03c7 08       		.byte	0x8
 1035 03c8 28       		.byte	0x28
 1036 03c9 A4020000 		.4byte	0x2a4
 1037 03cd 02       		.byte	0x2
 1038 03ce 23       		.byte	0x23
 1039 03cf 08       		.uleb128 0x8
 1040 03d0 09       		.uleb128 0x9
 1041 03d1 7E0B0000 		.4byte	.LASF58
 1042 03d5 08       		.byte	0x8
 1043 03d6 2A       		.byte	0x2a
 1044 03d7 DF030000 		.4byte	0x3df
 1045 03db 02       		.byte	0x2
 1046 03dc 23       		.byte	0x23
 1047 03dd 0C       		.uleb128 0xc
 1048 03de 00       		.byte	0
 1049 03df 06       		.uleb128 0x6
 1050 03e0 04       		.byte	0x4
 1051 03e1 A8030000 		.4byte	0x3a8
 1052 03e5 02       		.uleb128 0x2
 1053 03e6 E1050000 		.4byte	.LASF55
 1054 03ea 08       		.byte	0x8
 1055 03eb 2C       		.byte	0x2c
 1056 03ec A8030000 		.4byte	0x3a8
 1057 03f0 02       		.uleb128 0x2
 1058 03f1 510A0000 		.4byte	.LASF59
 1059 03f5 09       		.byte	0x9
 1060 03f6 25       		.byte	0x25
 1061 03f7 FB030000 		.4byte	0x3fb
 1062 03fb 08       		.uleb128 0x8
 1063 03fc 510A0000 		.4byte	.LASF59
 1064 0400 10       		.byte	0x10
 1065 0401 09       		.byte	0x9
 1066 0402 2A       		.byte	0x2a
 1067 0403 40040000 		.4byte	0x440
ARM GAS  /tmp/ccg6gN3r.s 			page 20


 1068 0407 09       		.uleb128 0x9
 1069 0408 08050000 		.4byte	.LASF60
 1070 040c 09       		.byte	0x9
 1071 040d 2B       		.byte	0x2b
 1072 040e 40040000 		.4byte	0x440
 1073 0412 02       		.byte	0x2
 1074 0413 23       		.byte	0x23
 1075 0414 00       		.uleb128 0
 1076 0415 09       		.uleb128 0x9
 1077 0416 D10B0000 		.4byte	.LASF61
 1078 041a 09       		.byte	0x9
 1079 041b 2E       		.byte	0x2e
 1080 041c A4020000 		.4byte	0x2a4
 1081 0420 02       		.byte	0x2
 1082 0421 23       		.byte	0x23
 1083 0422 04       		.uleb128 0x4
 1084 0423 09       		.uleb128 0x9
 1085 0424 3A0B0000 		.4byte	.LASF62
 1086 0428 09       		.byte	0x9
 1087 0429 30       		.byte	0x30
 1088 042a 20010000 		.4byte	0x120
 1089 042e 02       		.byte	0x2
 1090 042f 23       		.byte	0x23
 1091 0430 08       		.uleb128 0x8
 1092 0431 09       		.uleb128 0x9
 1093 0432 85000000 		.4byte	.LASF63
 1094 0436 09       		.byte	0x9
 1095 0437 33       		.byte	0x33
 1096 0438 2B010000 		.4byte	0x12b
 1097 043c 02       		.byte	0x2
 1098 043d 23       		.byte	0x23
 1099 043e 0C       		.uleb128 0xc
 1100 043f 00       		.byte	0
 1101 0440 06       		.uleb128 0x6
 1102 0441 04       		.byte	0x4
 1103 0442 F0030000 		.4byte	0x3f0
 1104 0446 08       		.uleb128 0x8
 1105 0447 AC040000 		.4byte	.LASF64
 1106 044b 04       		.byte	0x4
 1107 044c 09       		.byte	0x9
 1108 044d 3A       		.byte	0x3a
 1109 044e 61040000 		.4byte	0x461
 1110 0452 09       		.uleb128 0x9
 1111 0453 91040000 		.4byte	.LASF65
 1112 0457 09       		.byte	0x9
 1113 0458 3B       		.byte	0x3b
 1114 0459 40040000 		.4byte	0x440
 1115 045d 02       		.byte	0x2
 1116 045e 23       		.byte	0x23
 1117 045f 00       		.uleb128 0
 1118 0460 00       		.byte	0
 1119 0461 02       		.uleb128 0x2
 1120 0462 AC040000 		.4byte	.LASF64
 1121 0466 09       		.byte	0x9
 1122 0467 3E       		.byte	0x3e
 1123 0468 46040000 		.4byte	0x446
 1124 046c 0F       		.uleb128 0xf
ARM GAS  /tmp/ccg6gN3r.s 			page 21


 1125 046d 04       		.byte	0x4
 1126 046e 06       		.byte	0x6
 1127 046f 8F       		.byte	0x8f
 1128 0470 A1040000 		.4byte	0x4a1
 1129 0474 10       		.uleb128 0x10
 1130 0475 C40A0000 		.4byte	.LASF66
 1131 0479 06       		.byte	0x6
 1132 047a 96       		.byte	0x96
 1133 047b 15010000 		.4byte	0x115
 1134 047f 10       		.uleb128 0x10
 1135 0480 D2000000 		.4byte	.LASF67
 1136 0484 06       		.byte	0x6
 1137 0485 9D       		.byte	0x9d
 1138 0486 15010000 		.4byte	0x115
 1139 048a 10       		.uleb128 0x10
 1140 048b 37030000 		.4byte	.LASF68
 1141 048f 06       		.byte	0x6
 1142 0490 A4       		.byte	0xa4
 1143 0491 3B000000 		.4byte	0x3b
 1144 0495 10       		.uleb128 0x10
 1145 0496 EF000000 		.4byte	.LASF69
 1146 049a 06       		.byte	0x6
 1147 049b AB       		.byte	0xab
 1148 049c 20010000 		.4byte	0x120
 1149 04a0 00       		.byte	0
 1150 04a1 06       		.uleb128 0x6
 1151 04a2 04       		.byte	0x4
 1152 04a3 E2020000 		.4byte	0x2e2
 1153 04a7 06       		.uleb128 0x6
 1154 04a8 04       		.byte	0x4
 1155 04a9 E5030000 		.4byte	0x3e5
 1156 04ad 06       		.uleb128 0x6
 1157 04ae 04       		.byte	0x4
 1158 04af B3040000 		.4byte	0x4b3
 1159 04b3 11       		.uleb128 0x11
 1160 04b4 01       		.byte	0x1
 1161 04b5 15010000 		.4byte	0x115
 1162 04b9 C3040000 		.4byte	0x4c3
 1163 04bd 12       		.uleb128 0x12
 1164 04be 3B000000 		.4byte	0x3b
 1165 04c2 00       		.byte	0
 1166 04c3 02       		.uleb128 0x2
 1167 04c4 2A030000 		.4byte	.LASF70
 1168 04c8 0A       		.byte	0xa
 1169 04c9 30       		.byte	0x30
 1170 04ca CE040000 		.4byte	0x4ce
 1171 04ce 08       		.uleb128 0x8
 1172 04cf 2A030000 		.4byte	.LASF70
 1173 04d3 24       		.byte	0x24
 1174 04d4 0A       		.byte	0xa
 1175 04d5 3E       		.byte	0x3e
 1176 04d6 4B050000 		.4byte	0x54b
 1177 04da 09       		.uleb128 0x9
 1178 04db 1F090000 		.4byte	.LASF71
 1179 04df 0A       		.byte	0xa
 1180 04e0 3F       		.byte	0x3f
 1181 04e1 AA020000 		.4byte	0x2aa
ARM GAS  /tmp/ccg6gN3r.s 			page 22


 1182 04e5 02       		.byte	0x2
 1183 04e6 23       		.byte	0x23
 1184 04e7 00       		.uleb128 0
 1185 04e8 09       		.uleb128 0x9
 1186 04e9 99040000 		.4byte	.LASF72
 1187 04ed 0A       		.byte	0xa
 1188 04ee 40       		.byte	0x40
 1189 04ef 29000000 		.4byte	0x29
 1190 04f3 02       		.byte	0x2
 1191 04f4 23       		.byte	0x23
 1192 04f5 08       		.uleb128 0x8
 1193 04f6 09       		.uleb128 0x9
 1194 04f7 1E010000 		.4byte	.LASF73
 1195 04fb 0A       		.byte	0xa
 1196 04fc 41       		.byte	0x41
 1197 04fd 6E050000 		.4byte	0x56e
 1198 0501 02       		.byte	0x2
 1199 0502 23       		.byte	0x23
 1200 0503 0C       		.uleb128 0xc
 1201 0504 09       		.uleb128 0x9
 1202 0505 E9000000 		.4byte	.LASF74
 1203 0509 0A       		.byte	0xa
 1204 050a 42       		.byte	0x42
 1205 050b 6E050000 		.4byte	0x56e
 1206 050f 02       		.byte	0x2
 1207 0510 23       		.byte	0x23
 1208 0511 10       		.uleb128 0x10
 1209 0512 09       		.uleb128 0x9
 1210 0513 23050000 		.4byte	.LASF75
 1211 0517 0A       		.byte	0xa
 1212 0518 44       		.byte	0x44
 1213 0519 6E050000 		.4byte	0x56e
 1214 051d 02       		.byte	0x2
 1215 051e 23       		.byte	0x23
 1216 051f 14       		.uleb128 0x14
 1217 0520 09       		.uleb128 0x9
 1218 0521 6F010000 		.4byte	.LASF76
 1219 0525 0A       		.byte	0xa
 1220 0526 45       		.byte	0x45
 1221 0527 6E050000 		.4byte	0x56e
 1222 052b 02       		.byte	0x2
 1223 052c 23       		.byte	0x23
 1224 052d 18       		.uleb128 0x18
 1225 052e 09       		.uleb128 0x9
 1226 052f 42010000 		.4byte	.LASF77
 1227 0533 0A       		.byte	0xa
 1228 0534 46       		.byte	0x46
 1229 0535 4B050000 		.4byte	0x54b
 1230 0539 02       		.byte	0x2
 1231 053a 23       		.byte	0x23
 1232 053b 1C       		.uleb128 0x1c
 1233 053c 09       		.uleb128 0x9
 1234 053d 93020000 		.4byte	.LASF78
 1235 0541 0A       		.byte	0xa
 1236 0542 47       		.byte	0x47
 1237 0543 3B000000 		.4byte	0x3b
 1238 0547 02       		.byte	0x2
ARM GAS  /tmp/ccg6gN3r.s 			page 23


 1239 0548 23       		.byte	0x23
 1240 0549 20       		.uleb128 0x20
 1241 054a 00       		.byte	0
 1242 054b 02       		.uleb128 0x2
 1243 054c 96060000 		.4byte	.LASF79
 1244 0550 0A       		.byte	0xa
 1245 0551 33       		.byte	0x33
 1246 0552 56050000 		.4byte	0x556
 1247 0556 06       		.uleb128 0x6
 1248 0557 04       		.byte	0x4
 1249 0558 5C050000 		.4byte	0x55c
 1250 055c 13       		.uleb128 0x13
 1251 055d 01       		.byte	0x1
 1252 055e 68050000 		.4byte	0x568
 1253 0562 12       		.uleb128 0x12
 1254 0563 68050000 		.4byte	0x568
 1255 0567 00       		.byte	0
 1256 0568 06       		.uleb128 0x6
 1257 0569 04       		.byte	0x4
 1258 056a C3040000 		.4byte	0x4c3
 1259 056e 06       		.uleb128 0x6
 1260 056f 04       		.byte	0x4
 1261 0570 95000000 		.4byte	0x95
 1262 0574 02       		.uleb128 0x2
 1263 0575 110B0000 		.4byte	.LASF80
 1264 0579 0A       		.byte	0xa
 1265 057a 7B       		.byte	0x7b
 1266 057b C3040000 		.4byte	0x4c3
 1267 057f 02       		.uleb128 0x2
 1268 0580 71030000 		.4byte	.LASF81
 1269 0584 0A       		.byte	0xa
 1270 0585 EE       		.byte	0xee
 1271 0586 C3040000 		.4byte	0x4c3
 1272 058a 11       		.uleb128 0x11
 1273 058b 01       		.byte	0x1
 1274 058c 29000000 		.4byte	0x29
 1275 0590 A4050000 		.4byte	0x5a4
 1276 0594 12       		.uleb128 0x12
 1277 0595 3B000000 		.4byte	0x3b
 1278 0599 12       		.uleb128 0x12
 1279 059a A4050000 		.4byte	0x5a4
 1280 059e 12       		.uleb128 0x12
 1281 059f 29000000 		.4byte	0x29
 1282 05a3 00       		.byte	0
 1283 05a4 06       		.uleb128 0x6
 1284 05a5 04       		.byte	0x4
 1285 05a6 AA050000 		.4byte	0x5aa
 1286 05aa 07       		.uleb128 0x7
 1287 05ab 95000000 		.4byte	0x95
 1288 05af 06       		.uleb128 0x6
 1289 05b0 04       		.byte	0x4
 1290 05b1 8A050000 		.4byte	0x58a
 1291 05b5 11       		.uleb128 0x11
 1292 05b6 01       		.byte	0x1
 1293 05b7 29000000 		.4byte	0x29
 1294 05bb CF050000 		.4byte	0x5cf
 1295 05bf 12       		.uleb128 0x12
ARM GAS  /tmp/ccg6gN3r.s 			page 24


 1296 05c0 3B000000 		.4byte	0x3b
 1297 05c4 12       		.uleb128 0x12
 1298 05c5 6E050000 		.4byte	0x56e
 1299 05c9 12       		.uleb128 0x12
 1300 05ca 29000000 		.4byte	0x29
 1301 05ce 00       		.byte	0
 1302 05cf 06       		.uleb128 0x6
 1303 05d0 04       		.byte	0x4
 1304 05d1 B5050000 		.4byte	0x5b5
 1305 05d5 11       		.uleb128 0x11
 1306 05d6 01       		.byte	0x1
 1307 05d7 15010000 		.4byte	0x115
 1308 05db EA050000 		.4byte	0x5ea
 1309 05df 12       		.uleb128 0x12
 1310 05e0 3B000000 		.4byte	0x3b
 1311 05e4 12       		.uleb128 0x12
 1312 05e5 95000000 		.4byte	0x95
 1313 05e9 00       		.byte	0
 1314 05ea 06       		.uleb128 0x6
 1315 05eb 04       		.byte	0x4
 1316 05ec D5050000 		.4byte	0x5d5
 1317 05f0 14       		.uleb128 0x14
 1318 05f1 B6000000 		.4byte	0xb6
 1319 05f5 00060000 		.4byte	0x600
 1320 05f9 15       		.uleb128 0x15
 1321 05fa 75000000 		.4byte	0x75
 1322 05fe 0E       		.byte	0xe
 1323 05ff 00       		.byte	0
 1324 0600 0E       		.uleb128 0xe
 1325 0601 AB000000 		.4byte	0xab
 1326 0605 11       		.uleb128 0x11
 1327 0606 01       		.byte	0x1
 1328 0607 15010000 		.4byte	0x115
 1329 060b 1F060000 		.4byte	0x61f
 1330 060f 12       		.uleb128 0x12
 1331 0610 3B000000 		.4byte	0x3b
 1332 0614 12       		.uleb128 0x12
 1333 0615 95000000 		.4byte	0x95
 1334 0619 12       		.uleb128 0x12
 1335 061a 36010000 		.4byte	0x136
 1336 061e 00       		.byte	0
 1337 061f 06       		.uleb128 0x6
 1338 0620 04       		.byte	0x4
 1339 0621 05060000 		.4byte	0x605
 1340 0625 11       		.uleb128 0x11
 1341 0626 01       		.byte	0x1
 1342 0627 15010000 		.4byte	0x115
 1343 062b 3A060000 		.4byte	0x63a
 1344 062f 12       		.uleb128 0x12
 1345 0630 3B000000 		.4byte	0x3b
 1346 0634 12       		.uleb128 0x12
 1347 0635 36010000 		.4byte	0x136
 1348 0639 00       		.byte	0
 1349 063a 06       		.uleb128 0x6
 1350 063b 04       		.byte	0x4
 1351 063c 25060000 		.4byte	0x625
 1352 0640 11       		.uleb128 0x11
ARM GAS  /tmp/ccg6gN3r.s 			page 25


 1353 0641 01       		.byte	0x1
 1354 0642 29000000 		.4byte	0x29
 1355 0646 5F060000 		.4byte	0x65f
 1356 064a 12       		.uleb128 0x12
 1357 064b 3B000000 		.4byte	0x3b
 1358 064f 12       		.uleb128 0x12
 1359 0650 A4050000 		.4byte	0x5a4
 1360 0654 12       		.uleb128 0x12
 1361 0655 29000000 		.4byte	0x29
 1362 0659 12       		.uleb128 0x12
 1363 065a 36010000 		.4byte	0x136
 1364 065e 00       		.byte	0
 1365 065f 06       		.uleb128 0x6
 1366 0660 04       		.byte	0x4
 1367 0661 40060000 		.4byte	0x640
 1368 0665 11       		.uleb128 0x11
 1369 0666 01       		.byte	0x1
 1370 0667 29000000 		.4byte	0x29
 1371 066b 84060000 		.4byte	0x684
 1372 066f 12       		.uleb128 0x12
 1373 0670 3B000000 		.4byte	0x3b
 1374 0674 12       		.uleb128 0x12
 1375 0675 6E050000 		.4byte	0x56e
 1376 0679 12       		.uleb128 0x12
 1377 067a 29000000 		.4byte	0x29
 1378 067e 12       		.uleb128 0x12
 1379 067f 36010000 		.4byte	0x136
 1380 0683 00       		.byte	0
 1381 0684 06       		.uleb128 0x6
 1382 0685 04       		.byte	0x4
 1383 0686 65060000 		.4byte	0x665
 1384 068a 02       		.uleb128 0x2
 1385 068b 52070000 		.4byte	.LASF82
 1386 068f 0B       		.byte	0xb
 1387 0690 DC       		.byte	0xdc
 1388 0691 95060000 		.4byte	0x695
 1389 0695 16       		.uleb128 0x16
 1390 0696 52070000 		.4byte	.LASF82
 1391 069a 9801     		.2byte	0x198
 1392 069c 0C       		.byte	0xc
 1393 069d 6501     		.2byte	0x165
 1394 069f EE070000 		.4byte	0x7ee
 1395 06a3 17       		.uleb128 0x17
 1396 06a4 95000000 		.4byte	.LASF83
 1397 06a8 0C       		.byte	0xc
 1398 06a9 6901     		.2byte	0x169
 1399 06ab 20080000 		.4byte	0x820
 1400 06af 02       		.byte	0x2
 1401 06b0 23       		.byte	0x23
 1402 06b1 00       		.uleb128 0
 1403 06b2 17       		.uleb128 0x17
 1404 06b3 8E000000 		.4byte	.LASF84
 1405 06b7 0C       		.byte	0xc
 1406 06b8 6D01     		.2byte	0x16d
 1407 06ba 00120000 		.4byte	0x1200
 1408 06be 02       		.byte	0x2
 1409 06bf 23       		.byte	0x23
ARM GAS  /tmp/ccg6gN3r.s 			page 26


 1410 06c0 04       		.uleb128 0x4
 1411 06c1 17       		.uleb128 0x17
 1412 06c2 A5030000 		.4byte	.LASF85
 1413 06c6 0C       		.byte	0xc
 1414 06c7 7101     		.2byte	0x171
 1415 06c9 A0000000 		.4byte	0xa0
 1416 06cd 02       		.byte	0x2
 1417 06ce 23       		.byte	0x23
 1418 06cf 08       		.uleb128 0x8
 1419 06d0 17       		.uleb128 0x17
 1420 06d1 20030000 		.4byte	.LASF86
 1421 06d5 0C       		.byte	0xc
 1422 06d6 7501     		.2byte	0x175
 1423 06d8 A0000000 		.4byte	0xa0
 1424 06dc 02       		.byte	0x2
 1425 06dd 23       		.byte	0x23
 1426 06de 0A       		.uleb128 0xa
 1427 06df 0D       		.uleb128 0xd
 1428 06e0 65706300 		.ascii	"epc\000"
 1429 06e4 0C       		.byte	0xc
 1430 06e5 7901     		.2byte	0x179
 1431 06e7 0B120000 		.4byte	0x120b
 1432 06eb 02       		.byte	0x2
 1433 06ec 23       		.byte	0x23
 1434 06ed 0C       		.uleb128 0xc
 1435 06ee 17       		.uleb128 0x17
 1436 06ef 52090000 		.4byte	.LASF87
 1437 06f3 0C       		.byte	0xc
 1438 06f4 8001     		.2byte	0x180
 1439 06f6 26120000 		.4byte	0x1226
 1440 06fa 02       		.byte	0x2
 1441 06fb 23       		.byte	0x23
 1442 06fc 1C       		.uleb128 0x1c
 1443 06fd 17       		.uleb128 0x17
 1444 06fe 1C0B0000 		.4byte	.LASF88
 1445 0702 0C       		.byte	0xc
 1446 0703 8701     		.2byte	0x187
 1447 0705 26120000 		.4byte	0x1226
 1448 0709 02       		.byte	0x2
 1449 070a 23       		.byte	0x23
 1450 070b 28       		.uleb128 0x28
 1451 070c 17       		.uleb128 0x17
 1452 070d AC020000 		.4byte	.LASF89
 1453 0711 0C       		.byte	0xc
 1454 0712 8B01     		.2byte	0x18b
 1455 0714 5E080000 		.4byte	0x85e
 1456 0718 02       		.byte	0x2
 1457 0719 23       		.byte	0x23
 1458 071a 34       		.uleb128 0x34
 1459 071b 17       		.uleb128 0x17
 1460 071c 35060000 		.4byte	.LASF90
 1461 0720 0C       		.byte	0xc
 1462 0721 8F01     		.2byte	0x18f
 1463 0723 6E050000 		.4byte	0x56e
 1464 0727 02       		.byte	0x2
 1465 0728 23       		.byte	0x23
 1466 0729 38       		.uleb128 0x38
ARM GAS  /tmp/ccg6gN3r.s 			page 27


 1467 072a 17       		.uleb128 0x17
 1468 072b 06030000 		.4byte	.LASF91
 1469 072f 0C       		.byte	0xc
 1470 0730 9301     		.2byte	0x193
 1471 0732 29000000 		.4byte	0x29
 1472 0736 02       		.byte	0x2
 1473 0737 23       		.byte	0x23
 1474 0738 3C       		.uleb128 0x3c
 1475 0739 17       		.uleb128 0x17
 1476 073a E9040000 		.4byte	.LASF92
 1477 073e 0C       		.byte	0xc
 1478 073f 9701     		.2byte	0x197
 1479 0741 D8080000 		.4byte	0x8d8
 1480 0745 02       		.byte	0x2
 1481 0746 23       		.byte	0x23
 1482 0747 40       		.uleb128 0x40
 1483 0748 17       		.uleb128 0x17
 1484 0749 1F040000 		.4byte	.LASF93
 1485 074d 0C       		.byte	0xc
 1486 074e 9B01     		.2byte	0x19b
 1487 0750 36120000 		.4byte	0x1236
 1488 0754 02       		.byte	0x2
 1489 0755 23       		.byte	0x23
 1490 0756 44       		.uleb128 0x44
 1491 0757 17       		.uleb128 0x17
 1492 0758 D2040000 		.4byte	.LASF94
 1493 075c 0C       		.byte	0xc
 1494 075d 9F01     		.2byte	0x19f
 1495 075f A0000000 		.4byte	0xa0
 1496 0763 02       		.byte	0x2
 1497 0764 23       		.byte	0x23
 1498 0765 4C       		.uleb128 0x4c
 1499 0766 17       		.uleb128 0x17
 1500 0767 E1040000 		.4byte	.LASF95
 1501 076b 0C       		.byte	0xc
 1502 076c A301     		.2byte	0x1a3
 1503 076e 95000000 		.4byte	0x95
 1504 0772 02       		.byte	0x2
 1505 0773 23       		.byte	0x23
 1506 0774 4E       		.uleb128 0x4e
 1507 0775 17       		.uleb128 0x17
 1508 0776 7B040000 		.4byte	.LASF96
 1509 077a 0C       		.byte	0xc
 1510 077b A701     		.2byte	0x1a7
 1511 077d 95000000 		.4byte	0x95
 1512 0781 02       		.byte	0x2
 1513 0782 23       		.byte	0x23
 1514 0783 4F       		.uleb128 0x4f
 1515 0784 0D       		.uleb128 0xd
 1516 0785 6F746700 		.ascii	"otg\000"
 1517 0789 0C       		.byte	0xc
 1518 078a AF01     		.2byte	0x1af
 1519 078c 46120000 		.4byte	0x1246
 1520 0790 02       		.byte	0x2
 1521 0791 23       		.byte	0x23
 1522 0792 50       		.uleb128 0x50
 1523 0793 17       		.uleb128 0x17
ARM GAS  /tmp/ccg6gN3r.s 			page 28


 1524 0794 D1070000 		.4byte	.LASF97
 1525 0798 0C       		.byte	0xc
 1526 0799 B301     		.2byte	0x1b3
 1527 079b 4C120000 		.4byte	0x124c
 1528 079f 02       		.byte	0x2
 1529 07a0 23       		.byte	0x23
 1530 07a1 54       		.uleb128 0x54
 1531 07a2 17       		.uleb128 0x17
 1532 07a3 850B0000 		.4byte	.LASF98
 1533 07a7 0C       		.byte	0xc
 1534 07a8 B701     		.2byte	0x1b7
 1535 07aa B6000000 		.4byte	0xb6
 1536 07ae 02       		.byte	0x2
 1537 07af 23       		.byte	0x23
 1538 07b0 58       		.uleb128 0x58
 1539 07b1 17       		.uleb128 0x17
 1540 07b2 EE060000 		.4byte	.LASF99
 1541 07b6 0C       		.byte	0xc
 1542 07b7 BB01     		.2byte	0x1bb
 1543 07b9 B6000000 		.4byte	0xb6
 1544 07bd 02       		.byte	0x2
 1545 07be 23       		.byte	0x23
 1546 07bf 5C       		.uleb128 0x5c
 1547 07c0 17       		.uleb128 0x17
 1548 07c1 45050000 		.4byte	.LASF100
 1549 07c5 0C       		.byte	0xc
 1550 07c6 BF01     		.2byte	0x1bf
 1551 07c8 A4020000 		.4byte	0x2a4
 1552 07cc 02       		.byte	0x2
 1553 07cd 23       		.byte	0x23
 1554 07ce 60       		.uleb128 0x60
 1555 07cf 17       		.uleb128 0x17
 1556 07d0 A3010000 		.4byte	.LASF101
 1557 07d4 0C       		.byte	0xc
 1558 07d5 C301     		.2byte	0x1c3
 1559 07d7 A4020000 		.4byte	0x2a4
 1560 07db 02       		.byte	0x2
 1561 07dc 23       		.byte	0x23
 1562 07dd 64       		.uleb128 0x64
 1563 07de 17       		.uleb128 0x17
 1564 07df 4A090000 		.4byte	.LASF102
 1565 07e3 0C       		.byte	0xc
 1566 07e4 C701     		.2byte	0x1c7
 1567 07e6 57120000 		.4byte	0x1257
 1568 07ea 02       		.byte	0x2
 1569 07eb 23       		.byte	0x23
 1570 07ec 68       		.uleb128 0x68
 1571 07ed 00       		.byte	0
 1572 07ee 02       		.uleb128 0x2
 1573 07ef 810A0000 		.4byte	.LASF103
 1574 07f3 0B       		.byte	0xb
 1575 07f4 E1       		.byte	0xe1
 1576 07f5 95000000 		.4byte	0x95
 1577 07f9 18       		.uleb128 0x18
 1578 07fa 01       		.byte	0x1
 1579 07fb 0B       		.byte	0xb
 1580 07fc E6       		.byte	0xe6
ARM GAS  /tmp/ccg6gN3r.s 			page 29


 1581 07fd 20080000 		.4byte	0x820
 1582 0801 19       		.uleb128 0x19
 1583 0802 DB070000 		.4byte	.LASF104
 1584 0806 00       		.sleb128 0
 1585 0807 19       		.uleb128 0x19
 1586 0808 32050000 		.4byte	.LASF105
 1587 080c 01       		.sleb128 1
 1588 080d 19       		.uleb128 0x19
 1589 080e 04060000 		.4byte	.LASF106
 1590 0812 02       		.sleb128 2
 1591 0813 19       		.uleb128 0x19
 1592 0814 6E040000 		.4byte	.LASF107
 1593 0818 03       		.sleb128 3
 1594 0819 19       		.uleb128 0x19
 1595 081a A8000000 		.4byte	.LASF108
 1596 081e 04       		.sleb128 4
 1597 081f 00       		.byte	0
 1598 0820 02       		.uleb128 0x2
 1599 0821 59050000 		.4byte	.LASF109
 1600 0825 0B       		.byte	0xb
 1601 0826 EC       		.byte	0xec
 1602 0827 F9070000 		.4byte	0x7f9
 1603 082b 18       		.uleb128 0x18
 1604 082c 01       		.byte	0x1
 1605 082d 0B       		.byte	0xb
 1606 082e FA       		.byte	0xfa
 1607 082f 5E080000 		.4byte	0x85e
 1608 0833 19       		.uleb128 0x19
 1609 0834 C1010000 		.4byte	.LASF110
 1610 0838 00       		.sleb128 0
 1611 0839 19       		.uleb128 0x19
 1612 083a 71000000 		.4byte	.LASF111
 1613 083e 01       		.sleb128 1
 1614 083f 19       		.uleb128 0x19
 1615 0840 BD070000 		.4byte	.LASF112
 1616 0844 02       		.sleb128 2
 1617 0845 19       		.uleb128 0x19
 1618 0846 630B0000 		.4byte	.LASF113
 1619 084a 03       		.sleb128 3
 1620 084b 19       		.uleb128 0x19
 1621 084c 9D0B0000 		.4byte	.LASF114
 1622 0850 04       		.sleb128 4
 1623 0851 19       		.uleb128 0x19
 1624 0852 4A0B0000 		.4byte	.LASF115
 1625 0856 05       		.sleb128 5
 1626 0857 19       		.uleb128 0x19
 1627 0858 85020000 		.4byte	.LASF116
 1628 085c 06       		.sleb128 6
 1629 085d 00       		.byte	0
 1630 085e 1A       		.uleb128 0x1a
 1631 085f DB000000 		.4byte	.LASF117
 1632 0863 0B       		.byte	0xb
 1633 0864 0201     		.2byte	0x102
 1634 0866 2B080000 		.4byte	0x82b
 1635 086a 1B       		.uleb128 0x1b
 1636 086b 01       		.byte	0x1
 1637 086c 0B       		.byte	0xb
ARM GAS  /tmp/ccg6gN3r.s 			page 30


 1638 086d 0701     		.2byte	0x107
 1639 086f 98080000 		.4byte	0x898
 1640 0873 19       		.uleb128 0x19
 1641 0874 80090000 		.4byte	.LASF118
 1642 0878 00       		.sleb128 0
 1643 0879 19       		.uleb128 0x19
 1644 087a 27010000 		.4byte	.LASF119
 1645 087e 01       		.sleb128 1
 1646 087f 19       		.uleb128 0x19
 1647 0880 05090000 		.4byte	.LASF120
 1648 0884 02       		.sleb128 2
 1649 0885 19       		.uleb128 0x19
 1650 0886 A80A0000 		.4byte	.LASF121
 1651 088a 03       		.sleb128 3
 1652 088b 19       		.uleb128 0x19
 1653 088c BF050000 		.4byte	.LASF122
 1654 0890 04       		.sleb128 4
 1655 0891 19       		.uleb128 0x19
 1656 0892 24020000 		.4byte	.LASF123
 1657 0896 05       		.sleb128 5
 1658 0897 00       		.byte	0
 1659 0898 1A       		.uleb128 0x1a
 1660 0899 3F040000 		.4byte	.LASF124
 1661 089d 0B       		.byte	0xb
 1662 089e 0E01     		.2byte	0x10e
 1663 08a0 6A080000 		.4byte	0x86a
 1664 08a4 1C       		.uleb128 0x1c
 1665 08a5 08       		.byte	0x8
 1666 08a6 0B       		.byte	0xb
 1667 08a7 1301     		.2byte	0x113
 1668 08a9 CC080000 		.4byte	0x8cc
 1669 08ad 17       		.uleb128 0x17
 1670 08ae 53040000 		.4byte	.LASF125
 1671 08b2 0B       		.byte	0xb
 1672 08b3 1701     		.2byte	0x117
 1673 08b5 29000000 		.4byte	0x29
 1674 08b9 02       		.byte	0x2
 1675 08ba 23       		.byte	0x23
 1676 08bb 00       		.uleb128 0
 1677 08bc 17       		.uleb128 0x17
 1678 08bd 51030000 		.4byte	.LASF126
 1679 08c1 0B       		.byte	0xb
 1680 08c2 1B01     		.2byte	0x11b
 1681 08c4 A4050000 		.4byte	0x5a4
 1682 08c8 02       		.byte	0x2
 1683 08c9 23       		.byte	0x23
 1684 08ca 04       		.uleb128 0x4
 1685 08cb 00       		.byte	0
 1686 08cc 1A       		.uleb128 0x1a
 1687 08cd FE030000 		.4byte	.LASF127
 1688 08d1 0B       		.byte	0xb
 1689 08d2 1C01     		.2byte	0x11c
 1690 08d4 A4080000 		.4byte	0x8a4
 1691 08d8 1A       		.uleb128 0x1a
 1692 08d9 F2090000 		.4byte	.LASF128
 1693 08dd 0B       		.byte	0xb
 1694 08de 2401     		.2byte	0x124
ARM GAS  /tmp/ccg6gN3r.s 			page 31


 1695 08e0 E4080000 		.4byte	0x8e4
 1696 08e4 06       		.uleb128 0x6
 1697 08e5 04       		.byte	0x4
 1698 08e6 EA080000 		.4byte	0x8ea
 1699 08ea 13       		.uleb128 0x13
 1700 08eb 01       		.byte	0x1
 1701 08ec F6080000 		.4byte	0x8f6
 1702 08f0 12       		.uleb128 0x12
 1703 08f1 F6080000 		.4byte	0x8f6
 1704 08f5 00       		.byte	0
 1705 08f6 06       		.uleb128 0x6
 1706 08f7 04       		.byte	0x4
 1707 08f8 8A060000 		.4byte	0x68a
 1708 08fc 1A       		.uleb128 0x1a
 1709 08fd 4D060000 		.4byte	.LASF129
 1710 0901 0B       		.byte	0xb
 1711 0902 2D01     		.2byte	0x12d
 1712 0904 08090000 		.4byte	0x908
 1713 0908 06       		.uleb128 0x6
 1714 0909 04       		.byte	0x4
 1715 090a 0E090000 		.4byte	0x90e
 1716 090e 13       		.uleb128 0x13
 1717 090f 01       		.byte	0x1
 1718 0910 1F090000 		.4byte	0x91f
 1719 0914 12       		.uleb128 0x12
 1720 0915 F6080000 		.4byte	0x8f6
 1721 0919 12       		.uleb128 0x12
 1722 091a EE070000 		.4byte	0x7ee
 1723 091e 00       		.byte	0
 1724 091f 1A       		.uleb128 0x1a
 1725 0920 83030000 		.4byte	.LASF130
 1726 0924 0B       		.byte	0xb
 1727 0925 3601     		.2byte	0x136
 1728 0927 2B090000 		.4byte	0x92b
 1729 092b 06       		.uleb128 0x6
 1730 092c 04       		.byte	0x4
 1731 092d 31090000 		.4byte	0x931
 1732 0931 13       		.uleb128 0x13
 1733 0932 01       		.byte	0x1
 1734 0933 42090000 		.4byte	0x942
 1735 0937 12       		.uleb128 0x12
 1736 0938 F6080000 		.4byte	0x8f6
 1737 093c 12       		.uleb128 0x12
 1738 093d 98080000 		.4byte	0x898
 1739 0941 00       		.byte	0
 1740 0942 1A       		.uleb128 0x1a
 1741 0943 DA090000 		.4byte	.LASF131
 1742 0947 0B       		.byte	0xb
 1743 0948 4201     		.2byte	0x142
 1744 094a 4E090000 		.4byte	0x94e
 1745 094e 06       		.uleb128 0x6
 1746 094f 04       		.byte	0x4
 1747 0950 54090000 		.4byte	0x954
 1748 0954 11       		.uleb128 0x11
 1749 0955 01       		.byte	0x1
 1750 0956 CC000000 		.4byte	0xcc
 1751 095a 64090000 		.4byte	0x964
ARM GAS  /tmp/ccg6gN3r.s 			page 32


 1752 095e 12       		.uleb128 0x12
 1753 095f F6080000 		.4byte	0x8f6
 1754 0963 00       		.byte	0
 1755 0964 1A       		.uleb128 0x1a
 1756 0965 37090000 		.4byte	.LASF132
 1757 0969 0B       		.byte	0xb
 1758 096a 4701     		.2byte	0x147
 1759 096c 70090000 		.4byte	0x970
 1760 0970 06       		.uleb128 0x6
 1761 0971 04       		.byte	0x4
 1762 0972 76090000 		.4byte	0x976
 1763 0976 11       		.uleb128 0x11
 1764 0977 01       		.byte	0x1
 1765 0978 95090000 		.4byte	0x995
 1766 097c 95090000 		.4byte	0x995
 1767 0980 12       		.uleb128 0x12
 1768 0981 F6080000 		.4byte	0x8f6
 1769 0985 12       		.uleb128 0x12
 1770 0986 95000000 		.4byte	0x95
 1771 098a 12       		.uleb128 0x12
 1772 098b 95000000 		.4byte	0x95
 1773 098f 12       		.uleb128 0x12
 1774 0990 A0000000 		.4byte	0xa0
 1775 0994 00       		.byte	0
 1776 0995 06       		.uleb128 0x6
 1777 0996 04       		.byte	0x4
 1778 0997 9B090000 		.4byte	0x99b
 1779 099b 07       		.uleb128 0x7
 1780 099c CC080000 		.4byte	0x8cc
 1781 09a0 0B       		.uleb128 0xb
 1782 09a1 20       		.byte	0x20
 1783 09a2 0D       		.byte	0xd
 1784 09a3 35       		.byte	0x35
 1785 09a4 190A0000 		.4byte	0xa19
 1786 09a8 09       		.uleb128 0x9
 1787 09a9 E7020000 		.4byte	.LASF133
 1788 09ad 0D       		.byte	0xd
 1789 09ae 36       		.byte	0x36
 1790 09af 9E030000 		.4byte	0x39e
 1791 09b3 02       		.byte	0x2
 1792 09b4 23       		.byte	0x23
 1793 09b5 00       		.uleb128 0
 1794 09b6 09       		.uleb128 0x9
 1795 09b7 63000000 		.4byte	.LASF134
 1796 09bb 0D       		.byte	0xd
 1797 09bc 38       		.byte	0x38
 1798 09bd 9E030000 		.4byte	0x39e
 1799 09c1 02       		.byte	0x2
 1800 09c2 23       		.byte	0x23
 1801 09c3 04       		.uleb128 0x4
 1802 09c4 09       		.uleb128 0x9
 1803 09c5 34080000 		.4byte	.LASF135
 1804 09c9 0D       		.byte	0xd
 1805 09ca 39       		.byte	0x39
 1806 09cb 9E030000 		.4byte	0x39e
 1807 09cf 02       		.byte	0x2
 1808 09d0 23       		.byte	0x23
ARM GAS  /tmp/ccg6gN3r.s 			page 33


 1809 09d1 08       		.uleb128 0x8
 1810 09d2 09       		.uleb128 0x9
 1811 09d3 81080000 		.4byte	.LASF136
 1812 09d7 0D       		.byte	0xd
 1813 09d8 3A       		.byte	0x3a
 1814 09d9 9E030000 		.4byte	0x39e
 1815 09dd 02       		.byte	0x2
 1816 09de 23       		.byte	0x23
 1817 09df 0C       		.uleb128 0xc
 1818 09e0 09       		.uleb128 0x9
 1819 09e1 B2030000 		.4byte	.LASF137
 1820 09e5 0D       		.byte	0xd
 1821 09e6 3C       		.byte	0x3c
 1822 09e7 9E030000 		.4byte	0x39e
 1823 09eb 02       		.byte	0x2
 1824 09ec 23       		.byte	0x23
 1825 09ed 10       		.uleb128 0x10
 1826 09ee 09       		.uleb128 0x9
 1827 09ef 90090000 		.4byte	.LASF138
 1828 09f3 0D       		.byte	0xd
 1829 09f4 3E       		.byte	0x3e
 1830 09f5 9E030000 		.4byte	0x39e
 1831 09f9 02       		.byte	0x2
 1832 09fa 23       		.byte	0x23
 1833 09fb 14       		.uleb128 0x14
 1834 09fc 09       		.uleb128 0x9
 1835 09fd 98090000 		.4byte	.LASF139
 1836 0a01 0D       		.byte	0xd
 1837 0a02 3F       		.byte	0x3f
 1838 0a03 9E030000 		.4byte	0x39e
 1839 0a07 02       		.byte	0x2
 1840 0a08 23       		.byte	0x23
 1841 0a09 18       		.uleb128 0x18
 1842 0a0a 09       		.uleb128 0x9
 1843 0a0b D2090000 		.4byte	.LASF140
 1844 0a0f 0D       		.byte	0xd
 1845 0a10 40       		.byte	0x40
 1846 0a11 9E030000 		.4byte	0x39e
 1847 0a15 02       		.byte	0x2
 1848 0a16 23       		.byte	0x23
 1849 0a17 1C       		.uleb128 0x1c
 1850 0a18 00       		.byte	0
 1851 0a19 02       		.uleb128 0x2
 1852 0a1a 90030000 		.4byte	.LASF141
 1853 0a1e 0D       		.byte	0xd
 1854 0a1f 41       		.byte	0x41
 1855 0a20 A0090000 		.4byte	0x9a0
 1856 0a24 0B       		.uleb128 0xb
 1857 0a25 20       		.byte	0x20
 1858 0a26 0D       		.byte	0xd
 1859 0a27 46       		.byte	0x46
 1860 0a28 9D0A0000 		.4byte	0xa9d
 1861 0a2c 09       		.uleb128 0x9
 1862 0a2d EA090000 		.4byte	.LASF142
 1863 0a31 0D       		.byte	0xd
 1864 0a32 47       		.byte	0x47
 1865 0a33 9E030000 		.4byte	0x39e
ARM GAS  /tmp/ccg6gN3r.s 			page 34


 1866 0a37 02       		.byte	0x2
 1867 0a38 23       		.byte	0x23
 1868 0a39 00       		.uleb128 0
 1869 0a3a 09       		.uleb128 0x9
 1870 0a3b 5C000000 		.4byte	.LASF143
 1871 0a3f 0D       		.byte	0xd
 1872 0a40 49       		.byte	0x49
 1873 0a41 9E030000 		.4byte	0x39e
 1874 0a45 02       		.byte	0x2
 1875 0a46 23       		.byte	0x23
 1876 0a47 04       		.uleb128 0x4
 1877 0a48 09       		.uleb128 0x9
 1878 0a49 2B0A0000 		.4byte	.LASF144
 1879 0a4d 0D       		.byte	0xd
 1880 0a4e 4A       		.byte	0x4a
 1881 0a4f 9E030000 		.4byte	0x39e
 1882 0a53 02       		.byte	0x2
 1883 0a54 23       		.byte	0x23
 1884 0a55 08       		.uleb128 0x8
 1885 0a56 09       		.uleb128 0x9
 1886 0a57 6A000000 		.4byte	.LASF145
 1887 0a5b 0D       		.byte	0xd
 1888 0a5c 4C       		.byte	0x4c
 1889 0a5d 9E030000 		.4byte	0x39e
 1890 0a61 02       		.byte	0x2
 1891 0a62 23       		.byte	0x23
 1892 0a63 0C       		.uleb128 0xc
 1893 0a64 09       		.uleb128 0x9
 1894 0a65 B5020000 		.4byte	.LASF146
 1895 0a69 0D       		.byte	0xd
 1896 0a6a 4D       		.byte	0x4d
 1897 0a6b 9E030000 		.4byte	0x39e
 1898 0a6f 02       		.byte	0x2
 1899 0a70 23       		.byte	0x23
 1900 0a71 10       		.uleb128 0x10
 1901 0a72 09       		.uleb128 0x9
 1902 0a73 90090000 		.4byte	.LASF138
 1903 0a77 0D       		.byte	0xd
 1904 0a78 4F       		.byte	0x4f
 1905 0a79 9E030000 		.4byte	0x39e
 1906 0a7d 02       		.byte	0x2
 1907 0a7e 23       		.byte	0x23
 1908 0a7f 14       		.uleb128 0x14
 1909 0a80 09       		.uleb128 0x9
 1910 0a81 A0090000 		.4byte	.LASF147
 1911 0a85 0D       		.byte	0xd
 1912 0a86 50       		.byte	0x50
 1913 0a87 9E030000 		.4byte	0x39e
 1914 0a8b 02       		.byte	0x2
 1915 0a8c 23       		.byte	0x23
 1916 0a8d 18       		.uleb128 0x18
 1917 0a8e 09       		.uleb128 0x9
 1918 0a8f B0090000 		.4byte	.LASF148
 1919 0a93 0D       		.byte	0xd
 1920 0a94 52       		.byte	0x52
 1921 0a95 9E030000 		.4byte	0x39e
 1922 0a99 02       		.byte	0x2
ARM GAS  /tmp/ccg6gN3r.s 			page 35


 1923 0a9a 23       		.byte	0x23
 1924 0a9b 1C       		.uleb128 0x1c
 1925 0a9c 00       		.byte	0
 1926 0a9d 02       		.uleb128 0x2
 1927 0a9e E6080000 		.4byte	.LASF149
 1928 0aa2 0D       		.byte	0xd
 1929 0aa3 53       		.byte	0x53
 1930 0aa4 240A0000 		.4byte	0xa24
 1931 0aa8 0B       		.uleb128 0xb
 1932 0aa9 20       		.byte	0x20
 1933 0aaa 0D       		.byte	0xd
 1934 0aab 58       		.byte	0x58
 1935 0aac 210B0000 		.4byte	0xb21
 1936 0ab0 09       		.uleb128 0x9
 1937 0ab1 FE010000 		.4byte	.LASF150
 1938 0ab5 0D       		.byte	0xd
 1939 0ab6 59       		.byte	0x59
 1940 0ab7 9E030000 		.4byte	0x39e
 1941 0abb 02       		.byte	0x2
 1942 0abc 23       		.byte	0x23
 1943 0abd 00       		.uleb128 0
 1944 0abe 09       		.uleb128 0x9
 1945 0abf 5C000000 		.4byte	.LASF143
 1946 0ac3 0D       		.byte	0xd
 1947 0ac4 5B       		.byte	0x5b
 1948 0ac5 9E030000 		.4byte	0x39e
 1949 0ac9 02       		.byte	0x2
 1950 0aca 23       		.byte	0x23
 1951 0acb 04       		.uleb128 0x4
 1952 0acc 09       		.uleb128 0x9
 1953 0acd 54020000 		.4byte	.LASF151
 1954 0ad1 0D       		.byte	0xd
 1955 0ad2 5C       		.byte	0x5c
 1956 0ad3 9E030000 		.4byte	0x39e
 1957 0ad7 02       		.byte	0x2
 1958 0ad8 23       		.byte	0x23
 1959 0ad9 08       		.uleb128 0x8
 1960 0ada 09       		.uleb128 0x9
 1961 0adb 6A000000 		.4byte	.LASF145
 1962 0adf 0D       		.byte	0xd
 1963 0ae0 5E       		.byte	0x5e
 1964 0ae1 9E030000 		.4byte	0x39e
 1965 0ae5 02       		.byte	0x2
 1966 0ae6 23       		.byte	0x23
 1967 0ae7 0C       		.uleb128 0xc
 1968 0ae8 09       		.uleb128 0x9
 1969 0ae9 B8060000 		.4byte	.LASF152
 1970 0aed 0D       		.byte	0xd
 1971 0aee 5F       		.byte	0x5f
 1972 0aef 9E030000 		.4byte	0x39e
 1973 0af3 02       		.byte	0x2
 1974 0af4 23       		.byte	0x23
 1975 0af5 10       		.uleb128 0x10
 1976 0af6 09       		.uleb128 0x9
 1977 0af7 90090000 		.4byte	.LASF138
 1978 0afb 0D       		.byte	0xd
 1979 0afc 61       		.byte	0x61
ARM GAS  /tmp/ccg6gN3r.s 			page 36


 1980 0afd 9E030000 		.4byte	0x39e
 1981 0b01 02       		.byte	0x2
 1982 0b02 23       		.byte	0x23
 1983 0b03 14       		.uleb128 0x14
 1984 0b04 09       		.uleb128 0x9
 1985 0b05 98090000 		.4byte	.LASF139
 1986 0b09 0D       		.byte	0xd
 1987 0b0a 62       		.byte	0x62
 1988 0b0b 9E030000 		.4byte	0x39e
 1989 0b0f 02       		.byte	0x2
 1990 0b10 23       		.byte	0x23
 1991 0b11 18       		.uleb128 0x18
 1992 0b12 09       		.uleb128 0x9
 1993 0b13 B0090000 		.4byte	.LASF148
 1994 0b17 0D       		.byte	0xd
 1995 0b18 63       		.byte	0x63
 1996 0b19 9E030000 		.4byte	0x39e
 1997 0b1d 02       		.byte	0x2
 1998 0b1e 23       		.byte	0x23
 1999 0b1f 1C       		.uleb128 0x1c
 2000 0b20 00       		.byte	0
 2001 0b21 02       		.uleb128 0x2
 2002 0b22 EE020000 		.4byte	.LASF153
 2003 0b26 0D       		.byte	0xd
 2004 0b27 64       		.byte	0x64
 2005 0b28 A80A0000 		.4byte	0xaa8
 2006 0b2c 1D       		.uleb128 0x1d
 2007 0b2d 00100100 		.4byte	0x11000
 2008 0b31 0D       		.byte	0xd
 2009 0b32 69       		.byte	0x69
 2010 0b33 7B0E0000 		.4byte	0xe7b
 2011 0b37 09       		.uleb128 0x9
 2012 0b38 6D050000 		.4byte	.LASF154
 2013 0b3c 0D       		.byte	0xd
 2014 0b3d 6A       		.byte	0x6a
 2015 0b3e 9E030000 		.4byte	0x39e
 2016 0b42 02       		.byte	0x2
 2017 0b43 23       		.byte	0x23
 2018 0b44 00       		.uleb128 0
 2019 0b45 09       		.uleb128 0x9
 2020 0b46 A4080000 		.4byte	.LASF155
 2021 0b4a 0D       		.byte	0xd
 2022 0b4b 6B       		.byte	0x6b
 2023 0b4c 9E030000 		.4byte	0x39e
 2024 0b50 02       		.byte	0x2
 2025 0b51 23       		.byte	0x23
 2026 0b52 04       		.uleb128 0x4
 2027 0b53 09       		.uleb128 0x9
 2028 0b54 F2040000 		.4byte	.LASF156
 2029 0b58 0D       		.byte	0xd
 2030 0b59 6C       		.byte	0x6c
 2031 0b5a 9E030000 		.4byte	0x39e
 2032 0b5e 02       		.byte	0x2
 2033 0b5f 23       		.byte	0x23
 2034 0b60 08       		.uleb128 0x8
 2035 0b61 09       		.uleb128 0x9
 2036 0b62 950B0000 		.4byte	.LASF157
ARM GAS  /tmp/ccg6gN3r.s 			page 37


 2037 0b66 0D       		.byte	0xd
 2038 0b67 6D       		.byte	0x6d
 2039 0b68 9E030000 		.4byte	0x39e
 2040 0b6c 02       		.byte	0x2
 2041 0b6d 23       		.byte	0x23
 2042 0b6e 0C       		.uleb128 0xc
 2043 0b6f 09       		.uleb128 0x9
 2044 0b70 37040000 		.4byte	.LASF158
 2045 0b74 0D       		.byte	0xd
 2046 0b75 6E       		.byte	0x6e
 2047 0b76 9E030000 		.4byte	0x39e
 2048 0b7a 02       		.byte	0x2
 2049 0b7b 23       		.byte	0x23
 2050 0b7c 10       		.uleb128 0x10
 2051 0b7d 09       		.uleb128 0x9
 2052 0b7e 070A0000 		.4byte	.LASF159
 2053 0b82 0D       		.byte	0xd
 2054 0b83 6F       		.byte	0x6f
 2055 0b84 9E030000 		.4byte	0x39e
 2056 0b88 02       		.byte	0x2
 2057 0b89 23       		.byte	0x23
 2058 0b8a 14       		.uleb128 0x14
 2059 0b8b 09       		.uleb128 0x9
 2060 0b8c 7C070000 		.4byte	.LASF160
 2061 0b90 0D       		.byte	0xd
 2062 0b91 70       		.byte	0x70
 2063 0b92 9E030000 		.4byte	0x39e
 2064 0b96 02       		.byte	0x2
 2065 0b97 23       		.byte	0x23
 2066 0b98 18       		.uleb128 0x18
 2067 0b99 09       		.uleb128 0x9
 2068 0b9a B7050000 		.4byte	.LASF161
 2069 0b9e 0D       		.byte	0xd
 2070 0b9f 71       		.byte	0x71
 2071 0ba0 9E030000 		.4byte	0x39e
 2072 0ba4 02       		.byte	0x2
 2073 0ba5 23       		.byte	0x23
 2074 0ba6 1C       		.uleb128 0x1c
 2075 0ba7 09       		.uleb128 0x9
 2076 0ba8 A6050000 		.4byte	.LASF162
 2077 0bac 0D       		.byte	0xd
 2078 0bad 73       		.byte	0x73
 2079 0bae 9E030000 		.4byte	0x39e
 2080 0bb2 02       		.byte	0x2
 2081 0bb3 23       		.byte	0x23
 2082 0bb4 20       		.uleb128 0x20
 2083 0bb5 09       		.uleb128 0x9
 2084 0bb6 89040000 		.4byte	.LASF163
 2085 0bba 0D       		.byte	0xd
 2086 0bbb 75       		.byte	0x75
 2087 0bbc 9E030000 		.4byte	0x39e
 2088 0bc0 02       		.byte	0x2
 2089 0bc1 23       		.byte	0x23
 2090 0bc2 24       		.uleb128 0x24
 2091 0bc3 09       		.uleb128 0x9
 2092 0bc4 39010000 		.4byte	.LASF164
 2093 0bc8 0D       		.byte	0xd
ARM GAS  /tmp/ccg6gN3r.s 			page 38


 2094 0bc9 76       		.byte	0x76
 2095 0bca 9E030000 		.4byte	0x39e
 2096 0bce 02       		.byte	0x2
 2097 0bcf 23       		.byte	0x23
 2098 0bd0 28       		.uleb128 0x28
 2099 0bd1 09       		.uleb128 0x9
 2100 0bd2 330A0000 		.4byte	.LASF165
 2101 0bd6 0D       		.byte	0xd
 2102 0bd7 78       		.byte	0x78
 2103 0bd8 9E030000 		.4byte	0x39e
 2104 0bdc 02       		.byte	0x2
 2105 0bdd 23       		.byte	0x23
 2106 0bde 2C       		.uleb128 0x2c
 2107 0bdf 09       		.uleb128 0x9
 2108 0be0 5F0A0000 		.4byte	.LASF166
 2109 0be4 0D       		.byte	0xd
 2110 0be5 7A       		.byte	0x7a
 2111 0be6 9E030000 		.4byte	0x39e
 2112 0bea 02       		.byte	0x2
 2113 0beb 23       		.byte	0x23
 2114 0bec 30       		.uleb128 0x30
 2115 0bed 09       		.uleb128 0x9
 2116 0bee 700A0000 		.4byte	.LASF167
 2117 0bf2 0D       		.byte	0xd
 2118 0bf3 7B       		.byte	0x7b
 2119 0bf4 9E030000 		.4byte	0x39e
 2120 0bf8 02       		.byte	0x2
 2121 0bf9 23       		.byte	0x23
 2122 0bfa 34       		.uleb128 0x34
 2123 0bfb 09       		.uleb128 0x9
 2124 0bfc A6020000 		.4byte	.LASF168
 2125 0c00 0D       		.byte	0xd
 2126 0c01 7C       		.byte	0x7c
 2127 0c02 9E030000 		.4byte	0x39e
 2128 0c06 02       		.byte	0x2
 2129 0c07 23       		.byte	0x23
 2130 0c08 38       		.uleb128 0x38
 2131 0c09 0A       		.uleb128 0xa
 2132 0c0a 43494400 		.ascii	"CID\000"
 2133 0c0e 0D       		.byte	0xd
 2134 0c0f 7D       		.byte	0x7d
 2135 0c10 9E030000 		.4byte	0x39e
 2136 0c14 02       		.byte	0x2
 2137 0c15 23       		.byte	0x23
 2138 0c16 3C       		.uleb128 0x3c
 2139 0c17 09       		.uleb128 0x9
 2140 0c18 420B0000 		.4byte	.LASF169
 2141 0c1c 0D       		.byte	0xd
 2142 0c1d 7E       		.byte	0x7e
 2143 0c1e 8B0E0000 		.4byte	0xe8b
 2144 0c22 02       		.byte	0x2
 2145 0c23 23       		.byte	0x23
 2146 0c24 40       		.uleb128 0x40
 2147 0c25 09       		.uleb128 0x9
 2148 0c26 1A080000 		.4byte	.LASF170
 2149 0c2a 0D       		.byte	0xd
 2150 0c2b 7F       		.byte	0x7f
ARM GAS  /tmp/ccg6gN3r.s 			page 39


 2151 0c2c 9E030000 		.4byte	0x39e
 2152 0c30 03       		.byte	0x3
 2153 0c31 23       		.byte	0x23
 2154 0c32 8002     		.uleb128 0x100
 2155 0c34 09       		.uleb128 0x9
 2156 0c35 B8040000 		.4byte	.LASF171
 2157 0c39 0D       		.byte	0xd
 2158 0c3a 81       		.byte	0x81
 2159 0c3b 900E0000 		.4byte	0xe90
 2160 0c3f 03       		.byte	0x3
 2161 0c40 23       		.byte	0x23
 2162 0c41 8402     		.uleb128 0x104
 2163 0c43 09       		.uleb128 0x9
 2164 0c44 B50B0000 		.4byte	.LASF172
 2165 0c48 0D       		.byte	0xd
 2166 0c49 83       		.byte	0x83
 2167 0c4a A50E0000 		.4byte	0xea5
 2168 0c4e 03       		.byte	0x3
 2169 0c4f 23       		.byte	0x23
 2170 0c50 C002     		.uleb128 0x140
 2171 0c52 09       		.uleb128 0x9
 2172 0c53 E2020000 		.4byte	.LASF173
 2173 0c57 0D       		.byte	0xd
 2174 0c58 84       		.byte	0x84
 2175 0c59 9E030000 		.4byte	0x39e
 2176 0c5d 03       		.byte	0x3
 2177 0c5e 23       		.byte	0x23
 2178 0c5f 8008     		.uleb128 0x400
 2179 0c61 09       		.uleb128 0x9
 2180 0c62 5E0B0000 		.4byte	.LASF174
 2181 0c66 0D       		.byte	0xd
 2182 0c67 85       		.byte	0x85
 2183 0c68 9E030000 		.4byte	0x39e
 2184 0c6c 03       		.byte	0x3
 2185 0c6d 23       		.byte	0x23
 2186 0c6e 8408     		.uleb128 0x404
 2187 0c70 09       		.uleb128 0x9
 2188 0c71 7D030000 		.4byte	.LASF175
 2189 0c75 0D       		.byte	0xd
 2190 0c76 86       		.byte	0x86
 2191 0c77 9E030000 		.4byte	0x39e
 2192 0c7b 03       		.byte	0x3
 2193 0c7c 23       		.byte	0x23
 2194 0c7d 8808     		.uleb128 0x408
 2195 0c7f 09       		.uleb128 0x9
 2196 0c80 64050000 		.4byte	.LASF176
 2197 0c84 0D       		.byte	0xd
 2198 0c85 88       		.byte	0x88
 2199 0c86 9E030000 		.4byte	0x39e
 2200 0c8a 03       		.byte	0x3
 2201 0c8b 23       		.byte	0x23
 2202 0c8c 8C08     		.uleb128 0x40c
 2203 0c8e 09       		.uleb128 0x9
 2204 0c8f 320B0000 		.4byte	.LASF177
 2205 0c93 0D       		.byte	0xd
 2206 0c94 89       		.byte	0x89
 2207 0c95 9E030000 		.4byte	0x39e
ARM GAS  /tmp/ccg6gN3r.s 			page 40


 2208 0c99 03       		.byte	0x3
 2209 0c9a 23       		.byte	0x23
 2210 0c9b 9008     		.uleb128 0x410
 2211 0c9d 09       		.uleb128 0x9
 2212 0c9e C6060000 		.4byte	.LASF178
 2213 0ca2 0D       		.byte	0xd
 2214 0ca3 8B       		.byte	0x8b
 2215 0ca4 9E030000 		.4byte	0x39e
 2216 0ca8 03       		.byte	0x3
 2217 0ca9 23       		.byte	0x23
 2218 0caa 9408     		.uleb128 0x414
 2219 0cac 09       		.uleb128 0x9
 2220 0cad 5C070000 		.4byte	.LASF179
 2221 0cb1 0D       		.byte	0xd
 2222 0cb2 8D       		.byte	0x8d
 2223 0cb3 9E030000 		.4byte	0x39e
 2224 0cb7 03       		.byte	0x3
 2225 0cb8 23       		.byte	0x23
 2226 0cb9 9808     		.uleb128 0x418
 2227 0cbb 09       		.uleb128 0x9
 2228 0cbc 16060000 		.4byte	.LASF180
 2229 0cc0 0D       		.byte	0xd
 2230 0cc1 8F       		.byte	0x8f
 2231 0cc2 BA0E0000 		.4byte	0xeba
 2232 0cc6 03       		.byte	0x3
 2233 0cc7 23       		.byte	0x23
 2234 0cc8 9C08     		.uleb128 0x41c
 2235 0cca 09       		.uleb128 0x9
 2236 0ccb 14030000 		.4byte	.LASF181
 2237 0ccf 0D       		.byte	0xd
 2238 0cd0 90       		.byte	0x90
 2239 0cd1 9E030000 		.4byte	0x39e
 2240 0cd5 03       		.byte	0x3
 2241 0cd6 23       		.byte	0x23
 2242 0cd7 C008     		.uleb128 0x440
 2243 0cd9 09       		.uleb128 0x9
 2244 0cda 32070000 		.4byte	.LASF182
 2245 0cde 0D       		.byte	0xd
 2246 0cdf 92       		.byte	0x92
 2247 0ce0 CF0E0000 		.4byte	0xecf
 2248 0ce4 03       		.byte	0x3
 2249 0ce5 23       		.byte	0x23
 2250 0ce6 C408     		.uleb128 0x444
 2251 0ce8 0A       		.uleb128 0xa
 2252 0ce9 686300   		.ascii	"hc\000"
 2253 0cec 0D       		.byte	0xd
 2254 0ced 93       		.byte	0x93
 2255 0cee D40E0000 		.4byte	0xed4
 2256 0cf2 03       		.byte	0x3
 2257 0cf3 23       		.byte	0x23
 2258 0cf4 800A     		.uleb128 0x500
 2259 0cf6 09       		.uleb128 0x9
 2260 0cf7 7C000000 		.4byte	.LASF183
 2261 0cfb 0D       		.byte	0xd
 2262 0cfc 94       		.byte	0x94
 2263 0cfd F40E0000 		.4byte	0xef4
 2264 0d01 03       		.byte	0x3
ARM GAS  /tmp/ccg6gN3r.s 			page 41


 2265 0d02 23       		.byte	0x23
 2266 0d03 800E     		.uleb128 0x700
 2267 0d05 09       		.uleb128 0x9
 2268 0d06 A1020000 		.4byte	.LASF184
 2269 0d0a 0D       		.byte	0xd
 2270 0d0b 95       		.byte	0x95
 2271 0d0c 9E030000 		.4byte	0x39e
 2272 0d10 03       		.byte	0x3
 2273 0d11 23       		.byte	0x23
 2274 0d12 8010     		.uleb128 0x800
 2275 0d14 09       		.uleb128 0x9
 2276 0d15 47080000 		.4byte	.LASF185
 2277 0d19 0D       		.byte	0xd
 2278 0d1a 96       		.byte	0x96
 2279 0d1b 9E030000 		.4byte	0x39e
 2280 0d1f 03       		.byte	0x3
 2281 0d20 23       		.byte	0x23
 2282 0d21 8410     		.uleb128 0x804
 2283 0d23 09       		.uleb128 0x9
 2284 0d24 E80A0000 		.4byte	.LASF186
 2285 0d28 0D       		.byte	0xd
 2286 0d29 97       		.byte	0x97
 2287 0d2a 9E030000 		.4byte	0x39e
 2288 0d2e 03       		.byte	0x3
 2289 0d2f 23       		.byte	0x23
 2290 0d30 8810     		.uleb128 0x808
 2291 0d32 09       		.uleb128 0x9
 2292 0d33 0B030000 		.4byte	.LASF187
 2293 0d37 0D       		.byte	0xd
 2294 0d38 98       		.byte	0x98
 2295 0d39 9E030000 		.4byte	0x39e
 2296 0d3d 03       		.byte	0x3
 2297 0d3e 23       		.byte	0x23
 2298 0d3f 8C10     		.uleb128 0x80c
 2299 0d41 09       		.uleb128 0x9
 2300 0d42 B8090000 		.4byte	.LASF188
 2301 0d46 0D       		.byte	0xd
 2302 0d47 99       		.byte	0x99
 2303 0d48 9E030000 		.4byte	0x39e
 2304 0d4c 03       		.byte	0x3
 2305 0d4d 23       		.byte	0x23
 2306 0d4e 9010     		.uleb128 0x810
 2307 0d50 09       		.uleb128 0x9
 2308 0d51 D7010000 		.4byte	.LASF189
 2309 0d55 0D       		.byte	0xd
 2310 0d56 9B       		.byte	0x9b
 2311 0d57 9E030000 		.4byte	0x39e
 2312 0d5b 03       		.byte	0x3
 2313 0d5c 23       		.byte	0x23
 2314 0d5d 9410     		.uleb128 0x814
 2315 0d5f 09       		.uleb128 0x9
 2316 0d60 BB010000 		.4byte	.LASF190
 2317 0d64 0D       		.byte	0xd
 2318 0d65 9D       		.byte	0x9d
 2319 0d66 9E030000 		.4byte	0x39e
 2320 0d6a 03       		.byte	0x3
 2321 0d6b 23       		.byte	0x23
ARM GAS  /tmp/ccg6gN3r.s 			page 42


 2322 0d6c 9810     		.uleb128 0x818
 2323 0d6e 09       		.uleb128 0x9
 2324 0d6f D4080000 		.4byte	.LASF191
 2325 0d73 0D       		.byte	0xd
 2326 0d74 9F       		.byte	0x9f
 2327 0d75 9E030000 		.4byte	0x39e
 2328 0d79 03       		.byte	0x3
 2329 0d7a 23       		.byte	0x23
 2330 0d7b 9C10     		.uleb128 0x81c
 2331 0d7d 09       		.uleb128 0x9
 2332 0d7e CC030000 		.4byte	.LASF192
 2333 0d82 0D       		.byte	0xd
 2334 0d83 A1       		.byte	0xa1
 2335 0d84 9E030000 		.4byte	0x39e
 2336 0d88 03       		.byte	0x3
 2337 0d89 23       		.byte	0x23
 2338 0d8a A010     		.uleb128 0x820
 2339 0d8c 09       		.uleb128 0x9
 2340 0d8d D5030000 		.4byte	.LASF193
 2341 0d91 0D       		.byte	0xd
 2342 0d92 A2       		.byte	0xa2
 2343 0d93 9E030000 		.4byte	0x39e
 2344 0d97 03       		.byte	0x3
 2345 0d98 23       		.byte	0x23
 2346 0d99 A410     		.uleb128 0x824
 2347 0d9b 09       		.uleb128 0x9
 2348 0d9c DD080000 		.4byte	.LASF194
 2349 0da0 0D       		.byte	0xd
 2350 0da1 A3       		.byte	0xa3
 2351 0da2 9E030000 		.4byte	0x39e
 2352 0da6 03       		.byte	0x3
 2353 0da7 23       		.byte	0x23
 2354 0da8 A810     		.uleb128 0x828
 2355 0daa 09       		.uleb128 0x9
 2356 0dab DE030000 		.4byte	.LASF195
 2357 0daf 0D       		.byte	0xd
 2358 0db0 A5       		.byte	0xa5
 2359 0db1 9E030000 		.4byte	0x39e
 2360 0db5 03       		.byte	0x3
 2361 0db6 23       		.byte	0x23
 2362 0db7 AC10     		.uleb128 0x82c
 2363 0db9 09       		.uleb128 0x9
 2364 0dba 44060000 		.4byte	.LASF196
 2365 0dbe 0D       		.byte	0xd
 2366 0dbf A7       		.byte	0xa7
 2367 0dc0 9E030000 		.4byte	0x39e
 2368 0dc4 03       		.byte	0x3
 2369 0dc5 23       		.byte	0x23
 2370 0dc6 B010     		.uleb128 0x830
 2371 0dc8 09       		.uleb128 0x9
 2372 0dc9 F3030000 		.4byte	.LASF197
 2373 0dcd 0D       		.byte	0xd
 2374 0dce A8       		.byte	0xa8
 2375 0dcf 9E030000 		.4byte	0x39e
 2376 0dd3 03       		.byte	0x3
 2377 0dd4 23       		.byte	0x23
 2378 0dd5 B410     		.uleb128 0x834
ARM GAS  /tmp/ccg6gN3r.s 			page 43


 2379 0dd7 09       		.uleb128 0x9
 2380 0dd8 4A040000 		.4byte	.LASF198
 2381 0ddc 0D       		.byte	0xd
 2382 0ddd AA       		.byte	0xaa
 2383 0dde 9E030000 		.4byte	0x39e
 2384 0de2 03       		.byte	0x3
 2385 0de3 23       		.byte	0x23
 2386 0de4 B810     		.uleb128 0x838
 2387 0de6 09       		.uleb128 0x9
 2388 0de7 8D060000 		.4byte	.LASF199
 2389 0deb 0D       		.byte	0xd
 2390 0dec AB       		.byte	0xab
 2391 0ded 9E030000 		.4byte	0x39e
 2392 0df1 03       		.byte	0x3
 2393 0df2 23       		.byte	0x23
 2394 0df3 BC10     		.uleb128 0x83c
 2395 0df5 09       		.uleb128 0x9
 2396 0df6 A3040000 		.4byte	.LASF200
 2397 0dfa 0D       		.byte	0xd
 2398 0dfb AC       		.byte	0xac
 2399 0dfc 090F0000 		.4byte	0xf09
 2400 0e00 03       		.byte	0x3
 2401 0e01 23       		.byte	0x23
 2402 0e02 C010     		.uleb128 0x840
 2403 0e04 09       		.uleb128 0x9
 2404 0e05 77060000 		.4byte	.LASF201
 2405 0e09 0D       		.byte	0xd
 2406 0e0a AD       		.byte	0xad
 2407 0e0b 0E0F0000 		.4byte	0xf0e
 2408 0e0f 03       		.byte	0x3
 2409 0e10 23       		.byte	0x23
 2410 0e11 8011     		.uleb128 0x880
 2411 0e13 09       		.uleb128 0x9
 2412 0e14 670A0000 		.4byte	.LASF202
 2413 0e18 0D       		.byte	0xd
 2414 0e19 AE       		.byte	0xae
 2415 0e1a 130F0000 		.4byte	0xf13
 2416 0e1e 03       		.byte	0x3
 2417 0e1f 23       		.byte	0x23
 2418 0e20 C011     		.uleb128 0x8c0
 2419 0e22 0A       		.uleb128 0xa
 2420 0e23 696500   		.ascii	"ie\000"
 2421 0e26 0D       		.byte	0xd
 2422 0e27 AF       		.byte	0xaf
 2423 0e28 180F0000 		.4byte	0xf18
 2424 0e2c 03       		.byte	0x3
 2425 0e2d 23       		.byte	0x23
 2426 0e2e 8012     		.uleb128 0x900
 2427 0e30 0A       		.uleb128 0xa
 2428 0e31 6F6500   		.ascii	"oe\000"
 2429 0e34 0D       		.byte	0xd
 2430 0e35 B0       		.byte	0xb0
 2431 0e36 280F0000 		.4byte	0xf28
 2432 0e3a 03       		.byte	0x3
 2433 0e3b 23       		.byte	0x23
 2434 0e3c 8016     		.uleb128 0xb00
 2435 0e3e 09       		.uleb128 0x9
ARM GAS  /tmp/ccg6gN3r.s 			page 44


 2436 0e3f FA070000 		.4byte	.LASF203
 2437 0e43 0D       		.byte	0xd
 2438 0e44 B1       		.byte	0xb1
 2439 0e45 380F0000 		.4byte	0xf38
 2440 0e49 03       		.byte	0x3
 2441 0e4a 23       		.byte	0x23
 2442 0e4b 801A     		.uleb128 0xd00
 2443 0e4d 09       		.uleb128 0x9
 2444 0e4e D0050000 		.4byte	.LASF204
 2445 0e52 0D       		.byte	0xd
 2446 0e53 B2       		.byte	0xb2
 2447 0e54 9E030000 		.4byte	0x39e
 2448 0e58 03       		.byte	0x3
 2449 0e59 23       		.byte	0x23
 2450 0e5a 801C     		.uleb128 0xe00
 2451 0e5c 09       		.uleb128 0x9
 2452 0e5d 1D070000 		.4byte	.LASF205
 2453 0e61 0D       		.byte	0xd
 2454 0e62 B4       		.byte	0xb4
 2455 0e63 4D0F0000 		.4byte	0xf4d
 2456 0e67 03       		.byte	0x3
 2457 0e68 23       		.byte	0x23
 2458 0e69 841C     		.uleb128 0xe04
 2459 0e6b 09       		.uleb128 0x9
 2460 0e6c 1A090000 		.4byte	.LASF206
 2461 0e70 0D       		.byte	0xd
 2462 0e71 B5       		.byte	0xb5
 2463 0e72 690F0000 		.4byte	0xf69
 2464 0e76 03       		.byte	0x3
 2465 0e77 23       		.byte	0x23
 2466 0e78 8020     		.uleb128 0x1000
 2467 0e7a 00       		.byte	0
 2468 0e7b 14       		.uleb128 0x14
 2469 0e7c B6000000 		.4byte	0xb6
 2470 0e80 8B0E0000 		.4byte	0xe8b
 2471 0e84 15       		.uleb128 0x15
 2472 0e85 75000000 		.4byte	0x75
 2473 0e89 2F       		.byte	0x2f
 2474 0e8a 00       		.byte	0
 2475 0e8b 0E       		.uleb128 0xe
 2476 0e8c 7B0E0000 		.4byte	0xe7b
 2477 0e90 0E       		.uleb128 0xe
 2478 0e91 F0050000 		.4byte	0x5f0
 2479 0e95 14       		.uleb128 0x14
 2480 0e96 B6000000 		.4byte	0xb6
 2481 0e9a A50E0000 		.4byte	0xea5
 2482 0e9e 15       		.uleb128 0x15
 2483 0e9f 75000000 		.4byte	0x75
 2484 0ea3 AF       		.byte	0xaf
 2485 0ea4 00       		.byte	0
 2486 0ea5 0E       		.uleb128 0xe
 2487 0ea6 950E0000 		.4byte	0xe95
 2488 0eaa 14       		.uleb128 0x14
 2489 0eab B6000000 		.4byte	0xb6
 2490 0eaf BA0E0000 		.4byte	0xeba
 2491 0eb3 15       		.uleb128 0x15
 2492 0eb4 75000000 		.4byte	0x75
ARM GAS  /tmp/ccg6gN3r.s 			page 45


 2493 0eb8 08       		.byte	0x8
 2494 0eb9 00       		.byte	0
 2495 0eba 0E       		.uleb128 0xe
 2496 0ebb AA0E0000 		.4byte	0xeaa
 2497 0ebf 14       		.uleb128 0x14
 2498 0ec0 B6000000 		.4byte	0xb6
 2499 0ec4 CF0E0000 		.4byte	0xecf
 2500 0ec8 15       		.uleb128 0x15
 2501 0ec9 75000000 		.4byte	0x75
 2502 0ecd 2E       		.byte	0x2e
 2503 0ece 00       		.byte	0
 2504 0ecf 0E       		.uleb128 0xe
 2505 0ed0 BF0E0000 		.4byte	0xebf
 2506 0ed4 14       		.uleb128 0x14
 2507 0ed5 190A0000 		.4byte	0xa19
 2508 0ed9 E40E0000 		.4byte	0xee4
 2509 0edd 15       		.uleb128 0x15
 2510 0ede 75000000 		.4byte	0x75
 2511 0ee2 0F       		.byte	0xf
 2512 0ee3 00       		.byte	0
 2513 0ee4 14       		.uleb128 0x14
 2514 0ee5 B6000000 		.4byte	0xb6
 2515 0ee9 F40E0000 		.4byte	0xef4
 2516 0eed 15       		.uleb128 0x15
 2517 0eee 75000000 		.4byte	0x75
 2518 0ef2 3F       		.byte	0x3f
 2519 0ef3 00       		.byte	0
 2520 0ef4 0E       		.uleb128 0xe
 2521 0ef5 E40E0000 		.4byte	0xee4
 2522 0ef9 14       		.uleb128 0x14
 2523 0efa B6000000 		.4byte	0xb6
 2524 0efe 090F0000 		.4byte	0xf09
 2525 0f02 15       		.uleb128 0x15
 2526 0f03 75000000 		.4byte	0x75
 2527 0f07 0F       		.byte	0xf
 2528 0f08 00       		.byte	0
 2529 0f09 0E       		.uleb128 0xe
 2530 0f0a F90E0000 		.4byte	0xef9
 2531 0f0e 0E       		.uleb128 0xe
 2532 0f0f F90E0000 		.4byte	0xef9
 2533 0f13 0E       		.uleb128 0xe
 2534 0f14 F90E0000 		.4byte	0xef9
 2535 0f18 14       		.uleb128 0x14
 2536 0f19 9D0A0000 		.4byte	0xa9d
 2537 0f1d 280F0000 		.4byte	0xf28
 2538 0f21 15       		.uleb128 0x15
 2539 0f22 75000000 		.4byte	0x75
 2540 0f26 0F       		.byte	0xf
 2541 0f27 00       		.byte	0
 2542 0f28 14       		.uleb128 0x14
 2543 0f29 210B0000 		.4byte	0xb21
 2544 0f2d 380F0000 		.4byte	0xf38
 2545 0f31 15       		.uleb128 0x15
 2546 0f32 75000000 		.4byte	0x75
 2547 0f36 0F       		.byte	0xf
 2548 0f37 00       		.byte	0
 2549 0f38 0E       		.uleb128 0xe
ARM GAS  /tmp/ccg6gN3r.s 			page 46


 2550 0f39 E40E0000 		.4byte	0xee4
 2551 0f3d 14       		.uleb128 0x14
 2552 0f3e B6000000 		.4byte	0xb6
 2553 0f42 4D0F0000 		.4byte	0xf4d
 2554 0f46 15       		.uleb128 0x15
 2555 0f47 75000000 		.4byte	0x75
 2556 0f4b 7E       		.byte	0x7e
 2557 0f4c 00       		.byte	0
 2558 0f4d 0E       		.uleb128 0xe
 2559 0f4e 3D0F0000 		.4byte	0xf3d
 2560 0f52 14       		.uleb128 0x14
 2561 0f53 B6000000 		.4byte	0xb6
 2562 0f57 690F0000 		.4byte	0xf69
 2563 0f5b 15       		.uleb128 0x15
 2564 0f5c 75000000 		.4byte	0x75
 2565 0f60 0F       		.byte	0xf
 2566 0f61 1E       		.uleb128 0x1e
 2567 0f62 75000000 		.4byte	0x75
 2568 0f66 FF03     		.2byte	0x3ff
 2569 0f68 00       		.byte	0
 2570 0f69 0E       		.uleb128 0xe
 2571 0f6a 520F0000 		.4byte	0xf52
 2572 0f6e 02       		.uleb128 0x2
 2573 0f6f 00070000 		.4byte	.LASF207
 2574 0f73 0D       		.byte	0xd
 2575 0f74 B6       		.byte	0xb6
 2576 0f75 2C0B0000 		.4byte	0xb2c
 2577 0f79 0B       		.uleb128 0xb
 2578 0f7a 0C       		.byte	0xc
 2579 0f7b 0C       		.byte	0xc
 2580 0f7c BC       		.byte	0xbc
 2581 0f7d AC0F0000 		.4byte	0xfac
 2582 0f81 09       		.uleb128 0x9
 2583 0f82 40000000 		.4byte	.LASF208
 2584 0f86 0C       		.byte	0xc
 2585 0f87 BD       		.byte	0xbd
 2586 0f88 B6000000 		.4byte	0xb6
 2587 0f8c 02       		.byte	0x2
 2588 0f8d 23       		.byte	0x23
 2589 0f8e 00       		.uleb128 0
 2590 0f8f 09       		.uleb128 0x9
 2591 0f90 F8080000 		.4byte	.LASF209
 2592 0f94 0C       		.byte	0xc
 2593 0f95 BE       		.byte	0xbe
 2594 0f96 B6000000 		.4byte	0xb6
 2595 0f9a 02       		.byte	0x2
 2596 0f9b 23       		.byte	0x23
 2597 0f9c 04       		.uleb128 0x4
 2598 0f9d 09       		.uleb128 0x9
 2599 0f9e 15050000 		.4byte	.LASF210
 2600 0fa2 0C       		.byte	0xc
 2601 0fa3 BF       		.byte	0xbf
 2602 0fa4 B6000000 		.4byte	0xb6
 2603 0fa8 02       		.byte	0x2
 2604 0fa9 23       		.byte	0x23
 2605 0faa 08       		.uleb128 0x8
 2606 0fab 00       		.byte	0
ARM GAS  /tmp/ccg6gN3r.s 			page 47


 2607 0fac 02       		.uleb128 0x2
 2608 0fad 0C040000 		.4byte	.LASF211
 2609 0fb1 0C       		.byte	0xc
 2610 0fb2 C0       		.byte	0xc0
 2611 0fb3 790F0000 		.4byte	0xf79
 2612 0fb7 0B       		.uleb128 0xb
 2613 0fb8 04       		.byte	0x4
 2614 0fb9 0C       		.byte	0xc
 2615 0fba D3       		.byte	0xd3
 2616 0fbb CE0F0000 		.4byte	0xfce
 2617 0fbf 09       		.uleb128 0x9
 2618 0fc0 AC010000 		.4byte	.LASF212
 2619 0fc4 0C       		.byte	0xc
 2620 0fc5 D7       		.byte	0xd7
 2621 0fc6 A4050000 		.4byte	0x5a4
 2622 0fca 02       		.byte	0x2
 2623 0fcb 23       		.byte	0x23
 2624 0fcc 00       		.uleb128 0
 2625 0fcd 00       		.byte	0
 2626 0fce 0B       		.uleb128 0xb
 2627 0fcf 04       		.byte	0x4
 2628 0fd0 0C       		.byte	0xc
 2629 0fd1 D9       		.byte	0xd9
 2630 0fd2 E50F0000 		.4byte	0xfe5
 2631 0fd6 09       		.uleb128 0x9
 2632 0fd7 A8090000 		.4byte	.LASF213
 2633 0fdb 0C       		.byte	0xc
 2634 0fdc DD       		.byte	0xdd
 2635 0fdd E50F0000 		.4byte	0xfe5
 2636 0fe1 02       		.byte	0x2
 2637 0fe2 23       		.byte	0x23
 2638 0fe3 00       		.uleb128 0
 2639 0fe4 00       		.byte	0
 2640 0fe5 06       		.uleb128 0x6
 2641 0fe6 04       		.byte	0x4
 2642 0fe7 7F050000 		.4byte	0x57f
 2643 0feb 0F       		.uleb128 0xf
 2644 0fec 04       		.byte	0x4
 2645 0fed 0C       		.byte	0xc
 2646 0fee D2       		.byte	0xd2
 2647 0fef 0A100000 		.4byte	0x100a
 2648 0ff3 10       		.uleb128 0x10
 2649 0ff4 3A080000 		.4byte	.LASF214
 2650 0ff8 0C       		.byte	0xc
 2651 0ff9 D8       		.byte	0xd8
 2652 0ffa B70F0000 		.4byte	0xfb7
 2653 0ffe 10       		.uleb128 0x10
 2654 0fff BD080000 		.4byte	.LASF215
 2655 1003 0C       		.byte	0xc
 2656 1004 DE       		.byte	0xde
 2657 1005 CE0F0000 		.4byte	0xfce
 2658 1009 00       		.byte	0
 2659 100a 0B       		.uleb128 0xb
 2660 100b 10       		.byte	0x10
 2661 100c 0C       		.byte	0xc
 2662 100d C5       		.byte	0xc5
 2663 100e 4B100000 		.4byte	0x104b
ARM GAS  /tmp/ccg6gN3r.s 			page 48


 2664 1012 09       		.uleb128 0x9
 2665 1013 8C0B0000 		.4byte	.LASF216
 2666 1017 0C       		.byte	0xc
 2667 1018 C9       		.byte	0xc9
 2668 1019 CC000000 		.4byte	0xcc
 2669 101d 02       		.byte	0x2
 2670 101e 23       		.byte	0x23
 2671 101f 00       		.uleb128 0
 2672 1020 09       		.uleb128 0x9
 2673 1021 2B050000 		.4byte	.LASF217
 2674 1025 0C       		.byte	0xc
 2675 1026 CD       		.byte	0xcd
 2676 1027 29000000 		.4byte	0x29
 2677 102b 02       		.byte	0x2
 2678 102c 23       		.byte	0x23
 2679 102d 04       		.uleb128 0x4
 2680 102e 09       		.uleb128 0x9
 2681 102f 77010000 		.4byte	.LASF218
 2682 1033 0C       		.byte	0xc
 2683 1034 D1       		.byte	0xd1
 2684 1035 29000000 		.4byte	0x29
 2685 1039 02       		.byte	0x2
 2686 103a 23       		.byte	0x23
 2687 103b 08       		.uleb128 0x8
 2688 103c 09       		.uleb128 0x9
 2689 103d 76090000 		.4byte	.LASF219
 2690 1041 0C       		.byte	0xc
 2691 1042 DF       		.byte	0xdf
 2692 1043 EB0F0000 		.4byte	0xfeb
 2693 1047 02       		.byte	0x2
 2694 1048 23       		.byte	0x23
 2695 1049 0C       		.uleb128 0xc
 2696 104a 00       		.byte	0
 2697 104b 02       		.uleb128 0x2
 2698 104c B9030000 		.4byte	.LASF220
 2699 1050 0C       		.byte	0xc
 2700 1051 E0       		.byte	0xe0
 2701 1052 0A100000 		.4byte	0x100a
 2702 1056 0B       		.uleb128 0xb
 2703 1057 04       		.byte	0x4
 2704 1058 0C       		.byte	0xc
 2705 1059 F3       		.byte	0xf3
 2706 105a 6D100000 		.4byte	0x106d
 2707 105e 09       		.uleb128 0x9
 2708 105f 75050000 		.4byte	.LASF221
 2709 1063 0C       		.byte	0xc
 2710 1064 F7       		.byte	0xf7
 2711 1065 6E050000 		.4byte	0x56e
 2712 1069 02       		.byte	0x2
 2713 106a 23       		.byte	0x23
 2714 106b 00       		.uleb128 0
 2715 106c 00       		.byte	0
 2716 106d 0B       		.uleb128 0xb
 2717 106e 04       		.byte	0x4
 2718 106f 0C       		.byte	0xc
 2719 1070 F9       		.byte	0xf9
 2720 1071 84100000 		.4byte	0x1084
ARM GAS  /tmp/ccg6gN3r.s 			page 49


 2721 1075 09       		.uleb128 0x9
 2722 1076 CC080000 		.4byte	.LASF222
 2723 107a 0C       		.byte	0xc
 2724 107b FD       		.byte	0xfd
 2725 107c 84100000 		.4byte	0x1084
 2726 1080 02       		.byte	0x2
 2727 1081 23       		.byte	0x23
 2728 1082 00       		.uleb128 0
 2729 1083 00       		.byte	0
 2730 1084 06       		.uleb128 0x6
 2731 1085 04       		.byte	0x4
 2732 1086 74050000 		.4byte	0x574
 2733 108a 0F       		.uleb128 0xf
 2734 108b 04       		.byte	0x4
 2735 108c 0C       		.byte	0xc
 2736 108d F2       		.byte	0xf2
 2737 108e A9100000 		.4byte	0x10a9
 2738 1092 10       		.uleb128 0x10
 2739 1093 3A080000 		.4byte	.LASF214
 2740 1097 0C       		.byte	0xc
 2741 1098 F8       		.byte	0xf8
 2742 1099 56100000 		.4byte	0x1056
 2743 109d 10       		.uleb128 0x10
 2744 109e BD080000 		.4byte	.LASF215
 2745 10a2 0C       		.byte	0xc
 2746 10a3 FE       		.byte	0xfe
 2747 10a4 6D100000 		.4byte	0x106d
 2748 10a8 00       		.byte	0
 2749 10a9 0B       		.uleb128 0xb
 2750 10aa 10       		.byte	0x10
 2751 10ab 0C       		.byte	0xc
 2752 10ac E5       		.byte	0xe5
 2753 10ad EA100000 		.4byte	0x10ea
 2754 10b1 09       		.uleb128 0x9
 2755 10b2 8A080000 		.4byte	.LASF223
 2756 10b6 0C       		.byte	0xc
 2757 10b7 E9       		.byte	0xe9
 2758 10b8 CC000000 		.4byte	0xcc
 2759 10bc 02       		.byte	0x2
 2760 10bd 23       		.byte	0x23
 2761 10be 00       		.uleb128 0
 2762 10bf 09       		.uleb128 0x9
 2763 10c0 70020000 		.4byte	.LASF224
 2764 10c4 0C       		.byte	0xc
 2765 10c5 ED       		.byte	0xed
 2766 10c6 29000000 		.4byte	0x29
 2767 10ca 02       		.byte	0x2
 2768 10cb 23       		.byte	0x23
 2769 10cc 04       		.uleb128 0x4
 2770 10cd 09       		.uleb128 0x9
 2771 10ce 53050000 		.4byte	.LASF225
 2772 10d2 0C       		.byte	0xc
 2773 10d3 F1       		.byte	0xf1
 2774 10d4 29000000 		.4byte	0x29
 2775 10d8 02       		.byte	0x2
 2776 10d9 23       		.byte	0x23
 2777 10da 08       		.uleb128 0x8
ARM GAS  /tmp/ccg6gN3r.s 			page 50


 2778 10db 09       		.uleb128 0x9
 2779 10dc 76090000 		.4byte	.LASF219
 2780 10e0 0C       		.byte	0xc
 2781 10e1 FF       		.byte	0xff
 2782 10e2 8A100000 		.4byte	0x108a
 2783 10e6 02       		.byte	0x2
 2784 10e7 23       		.byte	0x23
 2785 10e8 0C       		.uleb128 0xc
 2786 10e9 00       		.byte	0
 2787 10ea 1A       		.uleb128 0x1a
 2788 10eb E6070000 		.4byte	.LASF226
 2789 10ef 0C       		.byte	0xc
 2790 10f0 0001     		.2byte	0x100
 2791 10f2 A9100000 		.4byte	0x10a9
 2792 10f6 1C       		.uleb128 0x1c
 2793 10f7 24       		.byte	0x24
 2794 10f8 0C       		.byte	0xc
 2795 10f9 0601     		.2byte	0x106
 2796 10fb 96110000 		.4byte	0x1196
 2797 10ff 17       		.uleb128 0x17
 2798 1100 9B000000 		.4byte	.LASF227
 2799 1104 0C       		.byte	0xc
 2800 1105 0A01     		.2byte	0x10a
 2801 1107 B6000000 		.4byte	0xb6
 2802 110b 02       		.byte	0x2
 2803 110c 23       		.byte	0x23
 2804 110d 00       		.uleb128 0
 2805 110e 17       		.uleb128 0x17
 2806 110f 48030000 		.4byte	.LASF228
 2807 1113 0C       		.byte	0xc
 2808 1114 1501     		.2byte	0x115
 2809 1116 FC080000 		.4byte	0x8fc
 2810 111a 02       		.byte	0x2
 2811 111b 23       		.byte	0x23
 2812 111c 04       		.uleb128 0x4
 2813 111d 17       		.uleb128 0x17
 2814 111e 5B030000 		.4byte	.LASF229
 2815 1122 0C       		.byte	0xc
 2816 1123 1B01     		.2byte	0x11b
 2817 1125 FC080000 		.4byte	0x8fc
 2818 1129 02       		.byte	0x2
 2819 112a 23       		.byte	0x23
 2820 112b 08       		.uleb128 0x8
 2821 112c 17       		.uleb128 0x17
 2822 112d 3B070000 		.4byte	.LASF230
 2823 1131 0C       		.byte	0xc
 2824 1132 2101     		.2byte	0x121
 2825 1134 FC080000 		.4byte	0x8fc
 2826 1138 02       		.byte	0x2
 2827 1139 23       		.byte	0x23
 2828 113a 0C       		.uleb128 0xc
 2829 113b 17       		.uleb128 0x17
 2830 113c 71070000 		.4byte	.LASF231
 2831 1140 0C       		.byte	0xc
 2832 1141 2701     		.2byte	0x127
 2833 1143 A0000000 		.4byte	0xa0
 2834 1147 02       		.byte	0x2
ARM GAS  /tmp/ccg6gN3r.s 			page 51


 2835 1148 23       		.byte	0x23
 2836 1149 10       		.uleb128 0x10
 2837 114a 17       		.uleb128 0x17
 2838 114b 8D010000 		.4byte	.LASF232
 2839 114f 0C       		.byte	0xc
 2840 1150 2D01     		.2byte	0x12d
 2841 1152 A0000000 		.4byte	0xa0
 2842 1156 02       		.byte	0x2
 2843 1157 23       		.byte	0x23
 2844 1158 12       		.uleb128 0x12
 2845 1159 17       		.uleb128 0x17
 2846 115a AE050000 		.4byte	.LASF233
 2847 115e 0C       		.byte	0xc
 2848 115f 3201     		.2byte	0x132
 2849 1161 96110000 		.4byte	0x1196
 2850 1165 02       		.byte	0x2
 2851 1166 23       		.byte	0x23
 2852 1167 14       		.uleb128 0x14
 2853 1168 17       		.uleb128 0x17
 2854 1169 98070000 		.4byte	.LASF234
 2855 116d 0C       		.byte	0xc
 2856 116e 3701     		.2byte	0x137
 2857 1170 9C110000 		.4byte	0x119c
 2858 1174 02       		.byte	0x2
 2859 1175 23       		.byte	0x23
 2860 1176 18       		.uleb128 0x18
 2861 1177 17       		.uleb128 0x17
 2862 1178 FA040000 		.4byte	.LASF235
 2863 117c 0C       		.byte	0xc
 2864 117d 3E01     		.2byte	0x13e
 2865 117f A0000000 		.4byte	0xa0
 2866 1183 02       		.byte	0x2
 2867 1184 23       		.byte	0x23
 2868 1185 1C       		.uleb128 0x1c
 2869 1186 17       		.uleb128 0x17
 2870 1187 13070000 		.4byte	.LASF236
 2871 118b 0C       		.byte	0xc
 2872 118c 4401     		.2byte	0x144
 2873 118e 6E050000 		.4byte	0x56e
 2874 1192 02       		.byte	0x2
 2875 1193 23       		.byte	0x23
 2876 1194 20       		.uleb128 0x20
 2877 1195 00       		.byte	0
 2878 1196 06       		.uleb128 0x6
 2879 1197 04       		.byte	0x4
 2880 1198 4B100000 		.4byte	0x104b
 2881 119c 06       		.uleb128 0x6
 2882 119d 04       		.byte	0x4
 2883 119e EA100000 		.4byte	0x10ea
 2884 11a2 1A       		.uleb128 0x1a
 2885 11a3 4C080000 		.4byte	.LASF237
 2886 11a7 0C       		.byte	0xc
 2887 11a8 4501     		.2byte	0x145
 2888 11aa F6100000 		.4byte	0x10f6
 2889 11ae 1C       		.uleb128 0x1c
 2890 11af 10       		.byte	0x10
 2891 11b0 0C       		.byte	0xc
ARM GAS  /tmp/ccg6gN3r.s 			page 52


 2892 11b1 4A01     		.2byte	0x14a
 2893 11b3 F4110000 		.4byte	0x11f4
 2894 11b7 17       		.uleb128 0x17
 2895 11b8 D8050000 		.4byte	.LASF238
 2896 11bc 0C       		.byte	0xc
 2897 11bd 4F01     		.2byte	0x14f
 2898 11bf 1F090000 		.4byte	0x91f
 2899 11c3 02       		.byte	0x2
 2900 11c4 23       		.byte	0x23
 2901 11c5 00       		.uleb128 0
 2902 11c6 17       		.uleb128 0x17
 2903 11c7 ED0A0000 		.4byte	.LASF239
 2904 11cb 0C       		.byte	0xc
 2905 11cc 5401     		.2byte	0x154
 2906 11ce 64090000 		.4byte	0x964
 2907 11d2 02       		.byte	0x2
 2908 11d3 23       		.byte	0x23
 2909 11d4 04       		.uleb128 0x4
 2910 11d5 17       		.uleb128 0x17
 2911 11d6 BE020000 		.4byte	.LASF240
 2912 11da 0C       		.byte	0xc
 2913 11db 5A01     		.2byte	0x15a
 2914 11dd 42090000 		.4byte	0x942
 2915 11e1 02       		.byte	0x2
 2916 11e2 23       		.byte	0x23
 2917 11e3 08       		.uleb128 0x8
 2918 11e4 17       		.uleb128 0x17
 2919 11e5 4A0A0000 		.4byte	.LASF241
 2920 11e9 0C       		.byte	0xc
 2921 11ea 5E01     		.2byte	0x15e
 2922 11ec D8080000 		.4byte	0x8d8
 2923 11f0 02       		.byte	0x2
 2924 11f1 23       		.byte	0x23
 2925 11f2 0C       		.uleb128 0xc
 2926 11f3 00       		.byte	0
 2927 11f4 1A       		.uleb128 0x1a
 2928 11f5 D9060000 		.4byte	.LASF242
 2929 11f9 0C       		.byte	0xc
 2930 11fa 6001     		.2byte	0x160
 2931 11fc AE110000 		.4byte	0x11ae
 2932 1200 06       		.uleb128 0x6
 2933 1201 04       		.byte	0x4
 2934 1202 06120000 		.4byte	0x1206
 2935 1206 07       		.uleb128 0x7
 2936 1207 F4110000 		.4byte	0x11f4
 2937 120b 14       		.uleb128 0x14
 2938 120c 1B120000 		.4byte	0x121b
 2939 1210 1B120000 		.4byte	0x121b
 2940 1214 15       		.uleb128 0x15
 2941 1215 75000000 		.4byte	0x75
 2942 1219 03       		.byte	0x3
 2943 121a 00       		.byte	0
 2944 121b 06       		.uleb128 0x6
 2945 121c 04       		.byte	0x4
 2946 121d 21120000 		.4byte	0x1221
 2947 1221 07       		.uleb128 0x7
 2948 1222 A2110000 		.4byte	0x11a2
ARM GAS  /tmp/ccg6gN3r.s 			page 53


 2949 1226 14       		.uleb128 0x14
 2950 1227 3B000000 		.4byte	0x3b
 2951 122b 36120000 		.4byte	0x1236
 2952 122f 15       		.uleb128 0x15
 2953 1230 75000000 		.4byte	0x75
 2954 1234 02       		.byte	0x2
 2955 1235 00       		.byte	0
 2956 1236 14       		.uleb128 0x14
 2957 1237 95000000 		.4byte	0x95
 2958 123b 46120000 		.4byte	0x1246
 2959 123f 15       		.uleb128 0x15
 2960 1240 75000000 		.4byte	0x75
 2961 1244 07       		.byte	0x7
 2962 1245 00       		.byte	0
 2963 1246 06       		.uleb128 0x6
 2964 1247 04       		.byte	0x4
 2965 1248 6E0F0000 		.4byte	0xf6e
 2966 124c 06       		.uleb128 0x6
 2967 124d 04       		.byte	0x4
 2968 124e 52120000 		.4byte	0x1252
 2969 1252 07       		.uleb128 0x7
 2970 1253 AC0F0000 		.4byte	0xfac
 2971 1257 14       		.uleb128 0x14
 2972 1258 E2020000 		.4byte	0x2e2
 2973 125c 67120000 		.4byte	0x1267
 2974 1260 15       		.uleb128 0x15
 2975 1261 75000000 		.4byte	0x75
 2976 1265 25       		.byte	0x25
 2977 1266 00       		.byte	0
 2978 1267 14       		.uleb128 0x14
 2979 1268 95000000 		.4byte	0x95
 2980 126c 77120000 		.4byte	0x1277
 2981 1270 15       		.uleb128 0x15
 2982 1271 75000000 		.4byte	0x75
 2983 1275 03       		.byte	0x3
 2984 1276 00       		.byte	0
 2985 1277 18       		.uleb128 0x18
 2986 1278 01       		.byte	0x1
 2987 1279 0E       		.byte	0xe
 2988 127a 7C       		.byte	0x7c
 2989 127b 92120000 		.4byte	0x1292
 2990 127f 19       		.uleb128 0x19
 2991 1280 C7090000 		.4byte	.LASF243
 2992 1284 00       		.sleb128 0
 2993 1285 19       		.uleb128 0x19
 2994 1286 890A0000 		.4byte	.LASF244
 2995 128a 01       		.sleb128 1
 2996 128b 19       		.uleb128 0x19
 2997 128c 3B050000 		.4byte	.LASF245
 2998 1290 02       		.sleb128 2
 2999 1291 00       		.byte	0
 3000 1292 02       		.uleb128 0x2
 3001 1293 E3060000 		.4byte	.LASF246
 3002 1297 0E       		.byte	0xe
 3003 1298 80       		.byte	0x80
 3004 1299 77120000 		.4byte	0x1277
 3005 129d 02       		.uleb128 0x2
ARM GAS  /tmp/ccg6gN3r.s 			page 54


 3006 129e A2070000 		.4byte	.LASF247
 3007 12a2 0E       		.byte	0xe
 3008 12a3 85       		.byte	0x85
 3009 12a4 A8120000 		.4byte	0x12a8
 3010 12a8 1F       		.uleb128 0x1f
 3011 12a9 A2070000 		.4byte	.LASF247
 3012 12ad 5802     		.2byte	0x258
 3013 12af 0E       		.byte	0xe
 3014 12b0 C8       		.byte	0xc8
 3015 12b1 26130000 		.4byte	0x1326
 3016 12b5 0A       		.uleb128 0xa
 3017 12b6 766D7400 		.ascii	"vmt\000"
 3018 12ba 0E       		.byte	0xe
 3019 12bb CA       		.byte	0xca
 3020 12bc EF130000 		.4byte	0x13ef
 3021 12c0 02       		.byte	0x2
 3022 12c1 23       		.byte	0x23
 3023 12c2 00       		.uleb128 0
 3024 12c3 09       		.uleb128 0x9
 3025 12c4 AA060000 		.4byte	.LASF248
 3026 12c8 0E       		.byte	0xe
 3027 12c9 CB       		.byte	0xcb
 3028 12ca 61040000 		.4byte	0x461
 3029 12ce 02       		.byte	0x2
 3030 12cf 23       		.byte	0x23
 3031 12d0 04       		.uleb128 0x4
 3032 12d1 09       		.uleb128 0x9
 3033 12d2 95000000 		.4byte	.LASF83
 3034 12d6 0E       		.byte	0xe
 3035 12d7 CB       		.byte	0xcb
 3036 12d8 92120000 		.4byte	0x1292
 3037 12dc 02       		.byte	0x2
 3038 12dd 23       		.byte	0x23
 3039 12de 08       		.uleb128 0x8
 3040 12df 09       		.uleb128 0x9
 3041 12e0 3D060000 		.4byte	.LASF249
 3042 12e4 0E       		.byte	0xe
 3043 12e5 CB       		.byte	0xcb
 3044 12e6 74050000 		.4byte	0x574
 3045 12ea 02       		.byte	0x2
 3046 12eb 23       		.byte	0x23
 3047 12ec 0C       		.uleb128 0xc
 3048 12ed 09       		.uleb128 0x9
 3049 12ee 5C090000 		.4byte	.LASF250
 3050 12f2 0E       		.byte	0xe
 3051 12f3 CB       		.byte	0xcb
 3052 12f4 7F050000 		.4byte	0x57f
 3053 12f8 02       		.byte	0x2
 3054 12f9 23       		.byte	0x23
 3055 12fa 30       		.uleb128 0x30
 3056 12fb 0A       		.uleb128 0xa
 3057 12fc 696200   		.ascii	"ib\000"
 3058 12ff 0E       		.byte	0xe
 3059 1300 CB       		.byte	0xcb
 3060 1301 FA130000 		.4byte	0x13fa
 3061 1305 02       		.byte	0x2
 3062 1306 23       		.byte	0x23
ARM GAS  /tmp/ccg6gN3r.s 			page 55


 3063 1307 54       		.uleb128 0x54
 3064 1308 0A       		.uleb128 0xa
 3065 1309 6F6200   		.ascii	"ob\000"
 3066 130c 0E       		.byte	0xe
 3067 130d CB       		.byte	0xcb
 3068 130e FA130000 		.4byte	0x13fa
 3069 1312 03       		.byte	0x3
 3070 1313 23       		.byte	0x23
 3071 1314 D402     		.uleb128 0x154
 3072 1316 09       		.uleb128 0x9
 3073 1317 8E000000 		.4byte	.LASF84
 3074 131b 0E       		.byte	0xe
 3075 131c CB       		.byte	0xcb
 3076 131d 0A140000 		.4byte	0x140a
 3077 1321 03       		.byte	0x3
 3078 1322 23       		.byte	0x23
 3079 1323 D404     		.uleb128 0x254
 3080 1325 00       		.byte	0
 3081 1326 0B       		.uleb128 0xb
 3082 1327 08       		.byte	0x8
 3083 1328 0E       		.byte	0xe
 3084 1329 8C       		.byte	0x8c
 3085 132a 67130000 		.4byte	0x1367
 3086 132e 09       		.uleb128 0x9
 3087 132f 10050000 		.4byte	.LASF251
 3088 1333 0E       		.byte	0xe
 3089 1334 90       		.byte	0x90
 3090 1335 F6080000 		.4byte	0x8f6
 3091 1339 02       		.byte	0x2
 3092 133a 23       		.byte	0x23
 3093 133b 00       		.uleb128 0
 3094 133c 09       		.uleb128 0x9
 3095 133d D9040000 		.4byte	.LASF252
 3096 1341 0E       		.byte	0xe
 3097 1342 94       		.byte	0x94
 3098 1343 EE070000 		.4byte	0x7ee
 3099 1347 02       		.byte	0x2
 3100 1348 23       		.byte	0x23
 3101 1349 04       		.uleb128 0x4
 3102 134a 09       		.uleb128 0x9
 3103 134b 9F0A0000 		.4byte	.LASF253
 3104 134f 0E       		.byte	0xe
 3105 1350 98       		.byte	0x98
 3106 1351 EE070000 		.4byte	0x7ee
 3107 1355 02       		.byte	0x2
 3108 1356 23       		.byte	0x23
 3109 1357 05       		.uleb128 0x5
 3110 1358 09       		.uleb128 0x9
 3111 1359 DF010000 		.4byte	.LASF254
 3112 135d 0E       		.byte	0xe
 3113 135e 9C       		.byte	0x9c
 3114 135f EE070000 		.4byte	0x7ee
 3115 1363 02       		.byte	0x2
 3116 1364 23       		.byte	0x23
 3117 1365 06       		.uleb128 0x6
 3118 1366 00       		.byte	0
 3119 1367 02       		.uleb128 0x2
ARM GAS  /tmp/ccg6gN3r.s 			page 56


 3120 1368 42070000 		.4byte	.LASF255
 3121 136c 0E       		.byte	0xe
 3122 136d 9D       		.byte	0x9d
 3123 136e 26130000 		.4byte	0x1326
 3124 1372 08       		.uleb128 0x8
 3125 1373 5B040000 		.4byte	.LASF256
 3126 1377 20       		.byte	0x20
 3127 1378 0E       		.byte	0xe
 3128 1379 BD       		.byte	0xbd
 3129 137a EF130000 		.4byte	0x13ef
 3130 137e 09       		.uleb128 0x9
 3131 137f 4D050000 		.4byte	.LASF257
 3132 1383 0E       		.byte	0xe
 3133 1384 BE       		.byte	0xbe
 3134 1385 AF050000 		.4byte	0x5af
 3135 1389 02       		.byte	0x2
 3136 138a 23       		.byte	0x23
 3137 138b 00       		.uleb128 0
 3138 138c 09       		.uleb128 0x9
 3139 138d C1060000 		.4byte	.LASF258
 3140 1391 0E       		.byte	0xe
 3141 1392 BE       		.byte	0xbe
 3142 1393 CF050000 		.4byte	0x5cf
 3143 1397 02       		.byte	0x2
 3144 1398 23       		.byte	0x23
 3145 1399 04       		.uleb128 0x4
 3146 139a 0A       		.uleb128 0xa
 3147 139b 70757400 		.ascii	"put\000"
 3148 139f 0E       		.byte	0xe
 3149 13a0 BE       		.byte	0xbe
 3150 13a1 EA050000 		.4byte	0x5ea
 3151 13a5 02       		.byte	0x2
 3152 13a6 23       		.byte	0x23
 3153 13a7 08       		.uleb128 0x8
 3154 13a8 0A       		.uleb128 0xa
 3155 13a9 67657400 		.ascii	"get\000"
 3156 13ad 0E       		.byte	0xe
 3157 13ae BE       		.byte	0xbe
 3158 13af AD040000 		.4byte	0x4ad
 3159 13b3 02       		.byte	0x2
 3160 13b4 23       		.byte	0x23
 3161 13b5 0C       		.uleb128 0xc
 3162 13b6 09       		.uleb128 0x9
 3163 13b7 A3000000 		.4byte	.LASF259
 3164 13bb 0E       		.byte	0xe
 3165 13bc BE       		.byte	0xbe
 3166 13bd 1F060000 		.4byte	0x61f
 3167 13c1 02       		.byte	0x2
 3168 13c2 23       		.byte	0x23
 3169 13c3 10       		.uleb128 0x10
 3170 13c4 09       		.uleb128 0x9
 3171 13c5 61030000 		.4byte	.LASF260
 3172 13c9 0E       		.byte	0xe
 3173 13ca BE       		.byte	0xbe
 3174 13cb 3A060000 		.4byte	0x63a
 3175 13cf 02       		.byte	0x2
 3176 13d0 23       		.byte	0x23
ARM GAS  /tmp/ccg6gN3r.s 			page 57


 3177 13d1 14       		.uleb128 0x14
 3178 13d2 09       		.uleb128 0x9
 3179 13d3 55000000 		.4byte	.LASF261
 3180 13d7 0E       		.byte	0xe
 3181 13d8 BE       		.byte	0xbe
 3182 13d9 5F060000 		.4byte	0x65f
 3183 13dd 02       		.byte	0x2
 3184 13de 23       		.byte	0x23
 3185 13df 18       		.uleb128 0x18
 3186 13e0 09       		.uleb128 0x9
 3187 13e1 F6000000 		.4byte	.LASF262
 3188 13e5 0E       		.byte	0xe
 3189 13e6 BE       		.byte	0xbe
 3190 13e7 84060000 		.4byte	0x684
 3191 13eb 02       		.byte	0x2
 3192 13ec 23       		.byte	0x23
 3193 13ed 1C       		.uleb128 0x1c
 3194 13ee 00       		.byte	0
 3195 13ef 06       		.uleb128 0x6
 3196 13f0 04       		.byte	0x4
 3197 13f1 F5130000 		.4byte	0x13f5
 3198 13f5 07       		.uleb128 0x7
 3199 13f6 72130000 		.4byte	0x1372
 3200 13fa 14       		.uleb128 0x14
 3201 13fb 95000000 		.4byte	0x95
 3202 13ff 0A140000 		.4byte	0x140a
 3203 1403 15       		.uleb128 0x15
 3204 1404 75000000 		.4byte	0x75
 3205 1408 FF       		.byte	0xff
 3206 1409 00       		.byte	0
 3207 140a 06       		.uleb128 0x6
 3208 140b 04       		.byte	0x4
 3209 140c 10140000 		.4byte	0x1410
 3210 1410 07       		.uleb128 0x7
 3211 1411 67130000 		.4byte	0x1367
 3212 1415 20       		.uleb128 0x20
 3213 1416 01       		.byte	0x1
 3214 1417 DE0A0000 		.4byte	.LASF285
 3215 141b 01       		.byte	0x1
 3216 141c 3501     		.2byte	0x135
 3217 141e 01       		.byte	0x1
 3218 141f 01       		.byte	0x1
 3219 1420 5D140000 		.4byte	0x145d
 3220 1424 21       		.uleb128 0x21
 3221 1425 10050000 		.4byte	.LASF251
 3222 1429 01       		.byte	0x1
 3223 142a 3501     		.2byte	0x135
 3224 142c F6080000 		.4byte	0x8f6
 3225 1430 21       		.uleb128 0x21
 3226 1431 AA060000 		.4byte	.LASF248
 3227 1435 01       		.byte	0x1
 3228 1436 3501     		.2byte	0x135
 3229 1438 98080000 		.4byte	0x898
 3230 143c 22       		.uleb128 0x22
 3231 143d 4E140000 		.4byte	0x144e
 3232 1441 23       		.uleb128 0x23
 3233 1442 746D7000 		.ascii	"tmp\000"
ARM GAS  /tmp/ccg6gN3r.s 			page 58


 3234 1446 01       		.byte	0x1
 3235 1447 3D01     		.2byte	0x13d
 3236 1449 B6000000 		.4byte	0xb6
 3237 144d 00       		.byte	0
 3238 144e 24       		.uleb128 0x24
 3239 144f 23       		.uleb128 0x23
 3240 1450 746D7000 		.ascii	"tmp\000"
 3241 1454 01       		.byte	0x1
 3242 1455 4E01     		.2byte	0x14e
 3243 1457 B6000000 		.4byte	0xb6
 3244 145b 00       		.byte	0
 3245 145c 00       		.byte	0
 3246 145d 25       		.uleb128 0x25
 3247 145e 01       		.byte	0x1
 3248 145f E7050000 		.4byte	.LASF293
 3249 1463 01       		.byte	0x1
 3250 1464 D0       		.byte	0xd0
 3251 1465 01       		.byte	0x1
 3252 1466 95090000 		.4byte	0x995
 3253 146a 00000000 		.4byte	.LFB118
 3254 146e 34000000 		.4byte	.LFE118
 3255 1472 02       		.byte	0x2
 3256 1473 7D       		.byte	0x7d
 3257 1474 00       		.sleb128 0
 3258 1475 01       		.byte	0x1
 3259 1476 B1140000 		.4byte	0x14b1
 3260 147a 26       		.uleb128 0x26
 3261 147b 10050000 		.4byte	.LASF251
 3262 147f 01       		.byte	0x1
 3263 1480 D0       		.byte	0xd0
 3264 1481 F6080000 		.4byte	0x8f6
 3265 1485 00000000 		.4byte	.LLST0
 3266 1489 27       		.uleb128 0x27
 3267 148a 31090000 		.4byte	.LASF263
 3268 148e 01       		.byte	0x1
 3269 148f D1       		.byte	0xd1
 3270 1490 95000000 		.4byte	0x95
 3271 1494 01       		.byte	0x1
 3272 1495 51       		.byte	0x51
 3273 1496 27       		.uleb128 0x27
 3274 1497 9A020000 		.4byte	.LASF264
 3275 149b 01       		.byte	0x1
 3276 149c D2       		.byte	0xd2
 3277 149d 95000000 		.4byte	0x95
 3278 14a1 01       		.byte	0x1
 3279 14a2 52       		.byte	0x52
 3280 14a3 27       		.uleb128 0x27
 3281 14a4 7B090000 		.4byte	.LASF265
 3282 14a8 01       		.byte	0x1
 3283 14a9 D3       		.byte	0xd3
 3284 14aa A0000000 		.4byte	0xa0
 3285 14ae 01       		.byte	0x1
 3286 14af 53       		.byte	0x53
 3287 14b0 00       		.byte	0
 3288 14b1 28       		.uleb128 0x28
 3289 14b2 15140000 		.4byte	0x1415
 3290 14b6 00000000 		.4byte	.LFB119
ARM GAS  /tmp/ccg6gN3r.s 			page 59


 3291 14ba 48000000 		.4byte	.LFE119
 3292 14be 6C000000 		.4byte	.LLST1
 3293 14c2 01       		.byte	0x1
 3294 14c3 9F150000 		.4byte	0x159f
 3295 14c7 29       		.uleb128 0x29
 3296 14c8 24140000 		.4byte	0x1424
 3297 14cc 8C000000 		.4byte	.LLST2
 3298 14d0 29       		.uleb128 0x29
 3299 14d1 30140000 		.4byte	0x1430
 3300 14d5 AA000000 		.4byte	.LLST3
 3301 14d9 2A       		.uleb128 0x2a
 3302 14da 15140000 		.4byte	0x1415
 3303 14de 0A000000 		.4byte	.LBB8
 3304 14e2 48000000 		.4byte	.LBE8
 3305 14e6 01       		.byte	0x1
 3306 14e7 3501     		.2byte	0x135
 3307 14e9 29       		.uleb128 0x29
 3308 14ea 24140000 		.4byte	0x1424
 3309 14ee CB000000 		.4byte	.LLST4
 3310 14f2 2B       		.uleb128 0x2b
 3311 14f3 0A000000 		.4byte	.LBB9
 3312 14f7 48000000 		.4byte	.LBE9
 3313 14fb 2C       		.uleb128 0x2c
 3314 14fc 30140000 		.4byte	0x1430
 3315 1500 2D       		.uleb128 0x2d
 3316 1501 0A000000 		.4byte	.LBB10
 3317 1505 10000000 		.4byte	.LBE10
 3318 1509 17150000 		.4byte	0x1517
 3319 150d 2E       		.uleb128 0x2e
 3320 150e 41140000 		.4byte	0x1441
 3321 1512 E9000000 		.4byte	.LLST5
 3322 1516 00       		.byte	0
 3323 1517 2D       		.uleb128 0x2d
 3324 1518 32000000 		.4byte	.LBB11
 3325 151c 48000000 		.4byte	.LBE11
 3326 1520 2E150000 		.4byte	0x152e
 3327 1524 2E       		.uleb128 0x2e
 3328 1525 4F140000 		.4byte	0x144f
 3329 1529 FC000000 		.4byte	.LLST6
 3330 152d 00       		.byte	0
 3331 152e 2F       		.uleb128 0x2f
 3332 152f 14000000 		.4byte	.LVL12
 3333 1533 56170000 		.4byte	0x1756
 3334 1537 30       		.uleb128 0x30
 3335 1538 1E000000 		.4byte	.LVL13
 3336 153c 60170000 		.4byte	0x1760
 3337 1540 59150000 		.4byte	0x1559
 3338 1544 31       		.uleb128 0x31
 3339 1545 01       		.byte	0x1
 3340 1546 52       		.byte	0x52
 3341 1547 05       		.byte	0x5
 3342 1548 03       		.byte	0x3
 3343 1549 00000000 		.4byte	.LANCHOR3
 3344 154d 31       		.uleb128 0x31
 3345 154e 01       		.byte	0x1
 3346 154f 51       		.byte	0x51
 3347 1550 01       		.byte	0x1
ARM GAS  /tmp/ccg6gN3r.s 			page 60


 3348 1551 31       		.byte	0x31
 3349 1552 31       		.uleb128 0x31
 3350 1553 01       		.byte	0x1
 3351 1554 50       		.byte	0x50
 3352 1555 02       		.byte	0x2
 3353 1556 75       		.byte	0x75
 3354 1557 00       		.sleb128 0
 3355 1558 00       		.byte	0
 3356 1559 30       		.uleb128 0x30
 3357 155a 28000000 		.4byte	.LVL14
 3358 155e 60170000 		.4byte	0x1760
 3359 1562 7C150000 		.4byte	0x157c
 3360 1566 31       		.uleb128 0x31
 3361 1567 01       		.byte	0x1
 3362 1568 52       		.byte	0x52
 3363 1569 05       		.byte	0x5
 3364 156a 03       		.byte	0x3
 3365 156b 00000000 		.4byte	.LANCHOR4
 3366 156f 31       		.uleb128 0x31
 3367 1570 01       		.byte	0x1
 3368 1571 51       		.byte	0x51
 3369 1572 02       		.byte	0x2
 3370 1573 74       		.byte	0x74
 3371 1574 00       		.sleb128 0
 3372 1575 31       		.uleb128 0x31
 3373 1576 01       		.byte	0x1
 3374 1577 50       		.byte	0x50
 3375 1578 02       		.byte	0x2
 3376 1579 75       		.byte	0x75
 3377 157a 00       		.sleb128 0
 3378 157b 00       		.byte	0
 3379 157c 30       		.uleb128 0x30
 3380 157d 2E000000 		.4byte	.LVL15
 3381 1581 7F170000 		.4byte	0x177f
 3382 1585 93150000 		.4byte	0x1593
 3383 1589 31       		.uleb128 0x31
 3384 158a 01       		.byte	0x1
 3385 158b 50       		.byte	0x50
 3386 158c 05       		.byte	0x5
 3387 158d 03       		.byte	0x3
 3388 158e 00000000 		.4byte	.LANCHOR5
 3389 1592 00       		.byte	0
 3390 1593 2F       		.uleb128 0x2f
 3391 1594 32000000 		.4byte	.LVL16
 3392 1598 99170000 		.4byte	0x1799
 3393 159c 00       		.byte	0
 3394 159d 00       		.byte	0
 3395 159e 00       		.byte	0
 3396 159f 14       		.uleb128 0x14
 3397 15a0 95000000 		.4byte	0x95
 3398 15a4 AF150000 		.4byte	0x15af
 3399 15a8 15       		.uleb128 0x15
 3400 15a9 75000000 		.4byte	0x75
 3401 15ad 11       		.byte	0x11
 3402 15ae 00       		.byte	0
 3403 15af 32       		.uleb128 0x32
 3404 15b0 0F0A0000 		.4byte	.LASF266
ARM GAS  /tmp/ccg6gN3r.s 			page 61


 3405 15b4 01       		.byte	0x1
 3406 15b5 1C       		.byte	0x1c
 3407 15b6 C0150000 		.4byte	0x15c0
 3408 15ba 05       		.byte	0x5
 3409 15bb 03       		.byte	0x3
 3410 15bc 00000000 		.4byte	vcom_device_descriptor_data
 3411 15c0 07       		.uleb128 0x7
 3412 15c1 9F150000 		.4byte	0x159f
 3413 15c5 32       		.uleb128 0x32
 3414 15c6 07010000 		.4byte	.LASF267
 3415 15ca 01       		.byte	0x1
 3416 15cb 2E       		.byte	0x2e
 3417 15cc 9B090000 		.4byte	0x99b
 3418 15d0 05       		.byte	0x5
 3419 15d1 03       		.byte	0x3
 3420 15d2 00000000 		.4byte	vcom_device_descriptor
 3421 15d6 14       		.uleb128 0x14
 3422 15d7 95000000 		.4byte	0x95
 3423 15db E6150000 		.4byte	0x15e6
 3424 15df 15       		.uleb128 0x15
 3425 15e0 75000000 		.4byte	0x75
 3426 15e4 42       		.byte	0x42
 3427 15e5 00       		.byte	0
 3428 15e6 32       		.uleb128 0x32
 3429 15e7 5E080000 		.4byte	.LASF268
 3430 15eb 01       		.byte	0x1
 3431 15ec 36       		.byte	0x36
 3432 15ed F7150000 		.4byte	0x15f7
 3433 15f1 05       		.byte	0x5
 3434 15f2 03       		.byte	0x3
 3435 15f3 00000000 		.4byte	vcom_configuration_descriptor_data
 3436 15f7 07       		.uleb128 0x7
 3437 15f8 D6150000 		.4byte	0x15d6
 3438 15fc 32       		.uleb128 0x32
 3439 15fd 36020000 		.4byte	.LASF269
 3440 1601 01       		.byte	0x1
 3441 1602 91       		.byte	0x91
 3442 1603 9B090000 		.4byte	0x99b
 3443 1607 05       		.byte	0x5
 3444 1608 03       		.byte	0x3
 3445 1609 00000000 		.4byte	vcom_configuration_descriptor
 3446 160d 32       		.uleb128 0x32
 3447 160e 8B070000 		.4byte	.LASF270
 3448 1612 01       		.byte	0x1
 3449 1613 99       		.byte	0x99
 3450 1614 1E160000 		.4byte	0x161e
 3451 1618 05       		.byte	0x5
 3452 1619 03       		.byte	0x3
 3453 161a 00000000 		.4byte	vcom_string0
 3454 161e 07       		.uleb128 0x7
 3455 161f 67120000 		.4byte	0x1267
 3456 1623 14       		.uleb128 0x14
 3457 1624 95000000 		.4byte	0x95
 3458 1628 33160000 		.4byte	0x1633
 3459 162c 15       		.uleb128 0x15
 3460 162d 75000000 		.4byte	0x75
 3461 1631 25       		.byte	0x25
ARM GAS  /tmp/ccg6gN3r.s 			page 62


 3462 1632 00       		.byte	0
 3463 1633 32       		.uleb128 0x32
 3464 1634 A80B0000 		.4byte	.LASF271
 3465 1638 01       		.byte	0x1
 3466 1639 A2       		.byte	0xa2
 3467 163a 44160000 		.4byte	0x1644
 3468 163e 05       		.byte	0x5
 3469 163f 03       		.byte	0x3
 3470 1640 00000000 		.4byte	vcom_string1
 3471 1644 07       		.uleb128 0x7
 3472 1645 23160000 		.4byte	0x1623
 3473 1649 14       		.uleb128 0x14
 3474 164a 95000000 		.4byte	0x95
 3475 164e 59160000 		.4byte	0x1659
 3476 1652 15       		.uleb128 0x15
 3477 1653 75000000 		.4byte	0x75
 3478 1657 37       		.byte	0x37
 3479 1658 00       		.byte	0
 3480 1659 32       		.uleb128 0x32
 3481 165a D5020000 		.4byte	.LASF272
 3482 165e 01       		.byte	0x1
 3483 165f AD       		.byte	0xad
 3484 1660 6A160000 		.4byte	0x166a
 3485 1664 05       		.byte	0x5
 3486 1665 03       		.byte	0x3
 3487 1666 00000000 		.4byte	vcom_string2
 3488 166a 07       		.uleb128 0x7
 3489 166b 49160000 		.4byte	0x1649
 3490 166f 32       		.uleb128 0x32
 3491 1670 BE0B0000 		.4byte	.LASF273
 3492 1674 01       		.byte	0x1
 3493 1675 B9       		.byte	0xb9
 3494 1676 80160000 		.4byte	0x1680
 3495 167a 05       		.byte	0x5
 3496 167b 03       		.byte	0x3
 3497 167c 00000000 		.4byte	vcom_string3
 3498 1680 07       		.uleb128 0x7
 3499 1681 9F150000 		.4byte	0x159f
 3500 1685 14       		.uleb128 0x14
 3501 1686 CC080000 		.4byte	0x8cc
 3502 168a 95160000 		.4byte	0x1695
 3503 168e 15       		.uleb128 0x15
 3504 168f 75000000 		.4byte	0x75
 3505 1693 03       		.byte	0x3
 3506 1694 00       		.byte	0
 3507 1695 32       		.uleb128 0x32
 3508 1696 20000000 		.4byte	.LASF274
 3509 169a 01       		.byte	0x1
 3510 169b C5       		.byte	0xc5
 3511 169c A6160000 		.4byte	0x16a6
 3512 16a0 05       		.byte	0x5
 3513 16a1 03       		.byte	0x3
 3514 16a2 00000000 		.4byte	vcom_strings
 3515 16a6 07       		.uleb128 0x7
 3516 16a7 85160000 		.4byte	0x1685
 3517 16ab 32       		.uleb128 0x32
 3518 16ac FC000000 		.4byte	.LASF275
ARM GAS  /tmp/ccg6gN3r.s 			page 63


 3519 16b0 01       		.byte	0x1
 3520 16b1 EA       		.byte	0xea
 3521 16b2 4B100000 		.4byte	0x104b
 3522 16b6 05       		.byte	0x5
 3523 16b7 03       		.byte	0x3
 3524 16b8 00000000 		.4byte	ep1instate
 3525 16bc 32       		.uleb128 0x32
 3526 16bd 53010000 		.4byte	.LASF276
 3527 16c1 01       		.byte	0x1
 3528 16c2 EF       		.byte	0xef
 3529 16c3 EA100000 		.4byte	0x10ea
 3530 16c7 05       		.byte	0x5
 3531 16c8 03       		.byte	0x3
 3532 16c9 00000000 		.4byte	ep1outstate
 3533 16cd 32       		.uleb128 0x32
 3534 16ce 3E030000 		.4byte	.LASF277
 3535 16d2 01       		.byte	0x1
 3536 16d3 F4       		.byte	0xf4
 3537 16d4 21120000 		.4byte	0x1221
 3538 16d8 05       		.byte	0x5
 3539 16d9 03       		.byte	0x3
 3540 16da 00000000 		.4byte	ep1config
 3541 16de 33       		.uleb128 0x33
 3542 16df BF000000 		.4byte	.LASF278
 3543 16e3 01       		.byte	0x1
 3544 16e4 0401     		.2byte	0x104
 3545 16e6 4B100000 		.4byte	0x104b
 3546 16ea 05       		.byte	0x5
 3547 16eb 03       		.byte	0x3
 3548 16ec 00000000 		.4byte	ep2instate
 3549 16f0 33       		.uleb128 0x33
 3550 16f1 E9030000 		.4byte	.LASF279
 3551 16f5 01       		.byte	0x1
 3552 16f6 0901     		.2byte	0x109
 3553 16f8 21120000 		.4byte	0x1221
 3554 16fc 05       		.byte	0x5
 3555 16fd 03       		.byte	0x3
 3556 16fe 00000000 		.4byte	ep2config
 3557 1702 34       		.uleb128 0x34
 3558 1703 80060000 		.4byte	.LASF280
 3559 1707 0F       		.byte	0xf
 3560 1708 9806     		.2byte	0x698
 3561 170a 00060000 		.4byte	0x600
 3562 170e 01       		.byte	0x1
 3563 170f 01       		.byte	0x1
 3564 1710 34       		.uleb128 0x34
 3565 1711 3C0A0000 		.4byte	.LASF281
 3566 1715 0C       		.byte	0xc
 3567 1716 F201     		.2byte	0x1f2
 3568 1718 8A060000 		.4byte	0x68a
 3569 171c 01       		.byte	0x1
 3570 171d 01       		.byte	0x1
 3571 171e 35       		.uleb128 0x35
 3572 171f C3080000 		.4byte	.LASF282
 3573 1723 01       		.byte	0x1
 3574 1724 17       		.byte	0x17
 3575 1725 A8120000 		.4byte	0x12a8
ARM GAS  /tmp/ccg6gN3r.s 			page 64


 3576 1729 01       		.byte	0x1
 3577 172a 05       		.byte	0x5
 3578 172b 03       		.byte	0x3
 3579 172c 00000000 		.4byte	SDU_PSAS
 3580 1730 36       		.uleb128 0x36
 3581 1731 93080000 		.4byte	.LASF283
 3582 1735 01       		.byte	0x1
 3583 1736 1901     		.2byte	0x119
 3584 1738 06120000 		.4byte	0x1206
 3585 173c 01       		.byte	0x1
 3586 173d 05       		.byte	0x5
 3587 173e 03       		.byte	0x3
 3588 173f 00000000 		.4byte	usbcfg
 3589 1743 36       		.uleb128 0x36
 3590 1744 BA0A0000 		.4byte	.LASF284
 3591 1748 01       		.byte	0x1
 3592 1749 2301     		.2byte	0x123
 3593 174b 10140000 		.4byte	0x1410
 3594 174f 01       		.byte	0x1
 3595 1750 05       		.byte	0x5
 3596 1751 03       		.byte	0x3
 3597 1752 00000000 		.4byte	serusbcfg
 3598 1756 37       		.uleb128 0x37
 3599 1757 01       		.byte	0x1
 3600 1758 E6010000 		.4byte	.LASF288
 3601 175c 10       		.byte	0x10
 3602 175d E2       		.byte	0xe2
 3603 175e 01       		.byte	0x1
 3604 175f 01       		.byte	0x1
 3605 1760 38       		.uleb128 0x38
 3606 1761 01       		.byte	0x1
 3607 1762 AC080000 		.4byte	.LASF286
 3608 1766 0B       		.byte	0xb
 3609 1767 2002     		.2byte	0x220
 3610 1769 01       		.byte	0x1
 3611 176a 01       		.byte	0x1
 3612 176b 7F170000 		.4byte	0x177f
 3613 176f 12       		.uleb128 0x12
 3614 1770 F6080000 		.4byte	0x8f6
 3615 1774 12       		.uleb128 0x12
 3616 1775 EE070000 		.4byte	0x7ee
 3617 1779 12       		.uleb128 0x12
 3618 177a 1B120000 		.4byte	0x121b
 3619 177e 00       		.byte	0
 3620 177f 39       		.uleb128 0x39
 3621 1780 01       		.byte	0x1
 3622 1781 FF0A0000 		.4byte	.LASF287
 3623 1785 0E       		.byte	0xe
 3624 1786 DD       		.byte	0xdd
 3625 1787 01       		.byte	0x1
 3626 1788 01       		.byte	0x1
 3627 1789 93170000 		.4byte	0x1793
 3628 178d 12       		.uleb128 0x12
 3629 178e 93170000 		.4byte	0x1793
 3630 1792 00       		.byte	0
 3631 1793 06       		.uleb128 0x6
 3632 1794 04       		.byte	0x4
ARM GAS  /tmp/ccg6gN3r.s 			page 65


 3633 1795 9D120000 		.4byte	0x129d
 3634 1799 37       		.uleb128 0x37
 3635 179a 01       		.byte	0x1
 3636 179b 5D060000 		.4byte	.LASF289
 3637 179f 10       		.byte	0x10
 3638 17a0 E3       		.byte	0xe3
 3639 17a1 01       		.byte	0x1
 3640 17a2 01       		.byte	0x1
 3641 17a3 00       		.byte	0
 3642              		.section	.debug_abbrev,"",%progbits
 3643              	.Ldebug_abbrev0:
 3644 0000 01       		.uleb128 0x1
 3645 0001 11       		.uleb128 0x11
 3646 0002 01       		.byte	0x1
 3647 0003 25       		.uleb128 0x25
 3648 0004 0E       		.uleb128 0xe
 3649 0005 13       		.uleb128 0x13
 3650 0006 0B       		.uleb128 0xb
 3651 0007 03       		.uleb128 0x3
 3652 0008 0E       		.uleb128 0xe
 3653 0009 1B       		.uleb128 0x1b
 3654 000a 0E       		.uleb128 0xe
 3655 000b 55       		.uleb128 0x55
 3656 000c 06       		.uleb128 0x6
 3657 000d 11       		.uleb128 0x11
 3658 000e 01       		.uleb128 0x1
 3659 000f 52       		.uleb128 0x52
 3660 0010 01       		.uleb128 0x1
 3661 0011 10       		.uleb128 0x10
 3662 0012 06       		.uleb128 0x6
 3663 0013 00       		.byte	0
 3664 0014 00       		.byte	0
 3665 0015 02       		.uleb128 0x2
 3666 0016 16       		.uleb128 0x16
 3667 0017 00       		.byte	0
 3668 0018 03       		.uleb128 0x3
 3669 0019 0E       		.uleb128 0xe
 3670 001a 3A       		.uleb128 0x3a
 3671 001b 0B       		.uleb128 0xb
 3672 001c 3B       		.uleb128 0x3b
 3673 001d 0B       		.uleb128 0xb
 3674 001e 49       		.uleb128 0x49
 3675 001f 13       		.uleb128 0x13
 3676 0020 00       		.byte	0
 3677 0021 00       		.byte	0
 3678 0022 03       		.uleb128 0x3
 3679 0023 24       		.uleb128 0x24
 3680 0024 00       		.byte	0
 3681 0025 0B       		.uleb128 0xb
 3682 0026 0B       		.uleb128 0xb
 3683 0027 3E       		.uleb128 0x3e
 3684 0028 0B       		.uleb128 0xb
 3685 0029 03       		.uleb128 0x3
 3686 002a 0E       		.uleb128 0xe
 3687 002b 00       		.byte	0
 3688 002c 00       		.byte	0
 3689 002d 04       		.uleb128 0x4
ARM GAS  /tmp/ccg6gN3r.s 			page 66


 3690 002e 0F       		.uleb128 0xf
 3691 002f 00       		.byte	0
 3692 0030 0B       		.uleb128 0xb
 3693 0031 0B       		.uleb128 0xb
 3694 0032 00       		.byte	0
 3695 0033 00       		.byte	0
 3696 0034 05       		.uleb128 0x5
 3697 0035 24       		.uleb128 0x24
 3698 0036 00       		.byte	0
 3699 0037 0B       		.uleb128 0xb
 3700 0038 0B       		.uleb128 0xb
 3701 0039 3E       		.uleb128 0x3e
 3702 003a 0B       		.uleb128 0xb
 3703 003b 03       		.uleb128 0x3
 3704 003c 08       		.uleb128 0x8
 3705 003d 00       		.byte	0
 3706 003e 00       		.byte	0
 3707 003f 06       		.uleb128 0x6
 3708 0040 0F       		.uleb128 0xf
 3709 0041 00       		.byte	0
 3710 0042 0B       		.uleb128 0xb
 3711 0043 0B       		.uleb128 0xb
 3712 0044 49       		.uleb128 0x49
 3713 0045 13       		.uleb128 0x13
 3714 0046 00       		.byte	0
 3715 0047 00       		.byte	0
 3716 0048 07       		.uleb128 0x7
 3717 0049 26       		.uleb128 0x26
 3718 004a 00       		.byte	0
 3719 004b 49       		.uleb128 0x49
 3720 004c 13       		.uleb128 0x13
 3721 004d 00       		.byte	0
 3722 004e 00       		.byte	0
 3723 004f 08       		.uleb128 0x8
 3724 0050 13       		.uleb128 0x13
 3725 0051 01       		.byte	0x1
 3726 0052 03       		.uleb128 0x3
 3727 0053 0E       		.uleb128 0xe
 3728 0054 0B       		.uleb128 0xb
 3729 0055 0B       		.uleb128 0xb
 3730 0056 3A       		.uleb128 0x3a
 3731 0057 0B       		.uleb128 0xb
 3732 0058 3B       		.uleb128 0x3b
 3733 0059 0B       		.uleb128 0xb
 3734 005a 01       		.uleb128 0x1
 3735 005b 13       		.uleb128 0x13
 3736 005c 00       		.byte	0
 3737 005d 00       		.byte	0
 3738 005e 09       		.uleb128 0x9
 3739 005f 0D       		.uleb128 0xd
 3740 0060 00       		.byte	0
 3741 0061 03       		.uleb128 0x3
 3742 0062 0E       		.uleb128 0xe
 3743 0063 3A       		.uleb128 0x3a
 3744 0064 0B       		.uleb128 0xb
 3745 0065 3B       		.uleb128 0x3b
 3746 0066 0B       		.uleb128 0xb
ARM GAS  /tmp/ccg6gN3r.s 			page 67


 3747 0067 49       		.uleb128 0x49
 3748 0068 13       		.uleb128 0x13
 3749 0069 38       		.uleb128 0x38
 3750 006a 0A       		.uleb128 0xa
 3751 006b 00       		.byte	0
 3752 006c 00       		.byte	0
 3753 006d 0A       		.uleb128 0xa
 3754 006e 0D       		.uleb128 0xd
 3755 006f 00       		.byte	0
 3756 0070 03       		.uleb128 0x3
 3757 0071 08       		.uleb128 0x8
 3758 0072 3A       		.uleb128 0x3a
 3759 0073 0B       		.uleb128 0xb
 3760 0074 3B       		.uleb128 0x3b
 3761 0075 0B       		.uleb128 0xb
 3762 0076 49       		.uleb128 0x49
 3763 0077 13       		.uleb128 0x13
 3764 0078 38       		.uleb128 0x38
 3765 0079 0A       		.uleb128 0xa
 3766 007a 00       		.byte	0
 3767 007b 00       		.byte	0
 3768 007c 0B       		.uleb128 0xb
 3769 007d 13       		.uleb128 0x13
 3770 007e 01       		.byte	0x1
 3771 007f 0B       		.uleb128 0xb
 3772 0080 0B       		.uleb128 0xb
 3773 0081 3A       		.uleb128 0x3a
 3774 0082 0B       		.uleb128 0xb
 3775 0083 3B       		.uleb128 0x3b
 3776 0084 0B       		.uleb128 0xb
 3777 0085 01       		.uleb128 0x1
 3778 0086 13       		.uleb128 0x13
 3779 0087 00       		.byte	0
 3780 0088 00       		.byte	0
 3781 0089 0C       		.uleb128 0xc
 3782 008a 13       		.uleb128 0x13
 3783 008b 01       		.byte	0x1
 3784 008c 03       		.uleb128 0x3
 3785 008d 0E       		.uleb128 0xe
 3786 008e 0B       		.uleb128 0xb
 3787 008f 0B       		.uleb128 0xb
 3788 0090 3A       		.uleb128 0x3a
 3789 0091 0B       		.uleb128 0xb
 3790 0092 3B       		.uleb128 0x3b
 3791 0093 05       		.uleb128 0x5
 3792 0094 01       		.uleb128 0x1
 3793 0095 13       		.uleb128 0x13
 3794 0096 00       		.byte	0
 3795 0097 00       		.byte	0
 3796 0098 0D       		.uleb128 0xd
 3797 0099 0D       		.uleb128 0xd
 3798 009a 00       		.byte	0
 3799 009b 03       		.uleb128 0x3
 3800 009c 08       		.uleb128 0x8
 3801 009d 3A       		.uleb128 0x3a
 3802 009e 0B       		.uleb128 0xb
 3803 009f 3B       		.uleb128 0x3b
ARM GAS  /tmp/ccg6gN3r.s 			page 68


 3804 00a0 05       		.uleb128 0x5
 3805 00a1 49       		.uleb128 0x49
 3806 00a2 13       		.uleb128 0x13
 3807 00a3 38       		.uleb128 0x38
 3808 00a4 0A       		.uleb128 0xa
 3809 00a5 00       		.byte	0
 3810 00a6 00       		.byte	0
 3811 00a7 0E       		.uleb128 0xe
 3812 00a8 35       		.uleb128 0x35
 3813 00a9 00       		.byte	0
 3814 00aa 49       		.uleb128 0x49
 3815 00ab 13       		.uleb128 0x13
 3816 00ac 00       		.byte	0
 3817 00ad 00       		.byte	0
 3818 00ae 0F       		.uleb128 0xf
 3819 00af 17       		.uleb128 0x17
 3820 00b0 01       		.byte	0x1
 3821 00b1 0B       		.uleb128 0xb
 3822 00b2 0B       		.uleb128 0xb
 3823 00b3 3A       		.uleb128 0x3a
 3824 00b4 0B       		.uleb128 0xb
 3825 00b5 3B       		.uleb128 0x3b
 3826 00b6 0B       		.uleb128 0xb
 3827 00b7 01       		.uleb128 0x1
 3828 00b8 13       		.uleb128 0x13
 3829 00b9 00       		.byte	0
 3830 00ba 00       		.byte	0
 3831 00bb 10       		.uleb128 0x10
 3832 00bc 0D       		.uleb128 0xd
 3833 00bd 00       		.byte	0
 3834 00be 03       		.uleb128 0x3
 3835 00bf 0E       		.uleb128 0xe
 3836 00c0 3A       		.uleb128 0x3a
 3837 00c1 0B       		.uleb128 0xb
 3838 00c2 3B       		.uleb128 0x3b
 3839 00c3 0B       		.uleb128 0xb
 3840 00c4 49       		.uleb128 0x49
 3841 00c5 13       		.uleb128 0x13
 3842 00c6 00       		.byte	0
 3843 00c7 00       		.byte	0
 3844 00c8 11       		.uleb128 0x11
 3845 00c9 15       		.uleb128 0x15
 3846 00ca 01       		.byte	0x1
 3847 00cb 27       		.uleb128 0x27
 3848 00cc 0C       		.uleb128 0xc
 3849 00cd 49       		.uleb128 0x49
 3850 00ce 13       		.uleb128 0x13
 3851 00cf 01       		.uleb128 0x1
 3852 00d0 13       		.uleb128 0x13
 3853 00d1 00       		.byte	0
 3854 00d2 00       		.byte	0
 3855 00d3 12       		.uleb128 0x12
 3856 00d4 05       		.uleb128 0x5
 3857 00d5 00       		.byte	0
 3858 00d6 49       		.uleb128 0x49
 3859 00d7 13       		.uleb128 0x13
 3860 00d8 00       		.byte	0
ARM GAS  /tmp/ccg6gN3r.s 			page 69


 3861 00d9 00       		.byte	0
 3862 00da 13       		.uleb128 0x13
 3863 00db 15       		.uleb128 0x15
 3864 00dc 01       		.byte	0x1
 3865 00dd 27       		.uleb128 0x27
 3866 00de 0C       		.uleb128 0xc
 3867 00df 01       		.uleb128 0x1
 3868 00e0 13       		.uleb128 0x13
 3869 00e1 00       		.byte	0
 3870 00e2 00       		.byte	0
 3871 00e3 14       		.uleb128 0x14
 3872 00e4 01       		.uleb128 0x1
 3873 00e5 01       		.byte	0x1
 3874 00e6 49       		.uleb128 0x49
 3875 00e7 13       		.uleb128 0x13
 3876 00e8 01       		.uleb128 0x1
 3877 00e9 13       		.uleb128 0x13
 3878 00ea 00       		.byte	0
 3879 00eb 00       		.byte	0
 3880 00ec 15       		.uleb128 0x15
 3881 00ed 21       		.uleb128 0x21
 3882 00ee 00       		.byte	0
 3883 00ef 49       		.uleb128 0x49
 3884 00f0 13       		.uleb128 0x13
 3885 00f1 2F       		.uleb128 0x2f
 3886 00f2 0B       		.uleb128 0xb
 3887 00f3 00       		.byte	0
 3888 00f4 00       		.byte	0
 3889 00f5 16       		.uleb128 0x16
 3890 00f6 13       		.uleb128 0x13
 3891 00f7 01       		.byte	0x1
 3892 00f8 03       		.uleb128 0x3
 3893 00f9 0E       		.uleb128 0xe
 3894 00fa 0B       		.uleb128 0xb
 3895 00fb 05       		.uleb128 0x5
 3896 00fc 3A       		.uleb128 0x3a
 3897 00fd 0B       		.uleb128 0xb
 3898 00fe 3B       		.uleb128 0x3b
 3899 00ff 05       		.uleb128 0x5
 3900 0100 01       		.uleb128 0x1
 3901 0101 13       		.uleb128 0x13
 3902 0102 00       		.byte	0
 3903 0103 00       		.byte	0
 3904 0104 17       		.uleb128 0x17
 3905 0105 0D       		.uleb128 0xd
 3906 0106 00       		.byte	0
 3907 0107 03       		.uleb128 0x3
 3908 0108 0E       		.uleb128 0xe
 3909 0109 3A       		.uleb128 0x3a
 3910 010a 0B       		.uleb128 0xb
 3911 010b 3B       		.uleb128 0x3b
 3912 010c 05       		.uleb128 0x5
 3913 010d 49       		.uleb128 0x49
 3914 010e 13       		.uleb128 0x13
 3915 010f 38       		.uleb128 0x38
 3916 0110 0A       		.uleb128 0xa
 3917 0111 00       		.byte	0
ARM GAS  /tmp/ccg6gN3r.s 			page 70


 3918 0112 00       		.byte	0
 3919 0113 18       		.uleb128 0x18
 3920 0114 04       		.uleb128 0x4
 3921 0115 01       		.byte	0x1
 3922 0116 0B       		.uleb128 0xb
 3923 0117 0B       		.uleb128 0xb
 3924 0118 3A       		.uleb128 0x3a
 3925 0119 0B       		.uleb128 0xb
 3926 011a 3B       		.uleb128 0x3b
 3927 011b 0B       		.uleb128 0xb
 3928 011c 01       		.uleb128 0x1
 3929 011d 13       		.uleb128 0x13
 3930 011e 00       		.byte	0
 3931 011f 00       		.byte	0
 3932 0120 19       		.uleb128 0x19
 3933 0121 28       		.uleb128 0x28
 3934 0122 00       		.byte	0
 3935 0123 03       		.uleb128 0x3
 3936 0124 0E       		.uleb128 0xe
 3937 0125 1C       		.uleb128 0x1c
 3938 0126 0D       		.uleb128 0xd
 3939 0127 00       		.byte	0
 3940 0128 00       		.byte	0
 3941 0129 1A       		.uleb128 0x1a
 3942 012a 16       		.uleb128 0x16
 3943 012b 00       		.byte	0
 3944 012c 03       		.uleb128 0x3
 3945 012d 0E       		.uleb128 0xe
 3946 012e 3A       		.uleb128 0x3a
 3947 012f 0B       		.uleb128 0xb
 3948 0130 3B       		.uleb128 0x3b
 3949 0131 05       		.uleb128 0x5
 3950 0132 49       		.uleb128 0x49
 3951 0133 13       		.uleb128 0x13
 3952 0134 00       		.byte	0
 3953 0135 00       		.byte	0
 3954 0136 1B       		.uleb128 0x1b
 3955 0137 04       		.uleb128 0x4
 3956 0138 01       		.byte	0x1
 3957 0139 0B       		.uleb128 0xb
 3958 013a 0B       		.uleb128 0xb
 3959 013b 3A       		.uleb128 0x3a
 3960 013c 0B       		.uleb128 0xb
 3961 013d 3B       		.uleb128 0x3b
 3962 013e 05       		.uleb128 0x5
 3963 013f 01       		.uleb128 0x1
 3964 0140 13       		.uleb128 0x13
 3965 0141 00       		.byte	0
 3966 0142 00       		.byte	0
 3967 0143 1C       		.uleb128 0x1c
 3968 0144 13       		.uleb128 0x13
 3969 0145 01       		.byte	0x1
 3970 0146 0B       		.uleb128 0xb
 3971 0147 0B       		.uleb128 0xb
 3972 0148 3A       		.uleb128 0x3a
 3973 0149 0B       		.uleb128 0xb
 3974 014a 3B       		.uleb128 0x3b
ARM GAS  /tmp/ccg6gN3r.s 			page 71


 3975 014b 05       		.uleb128 0x5
 3976 014c 01       		.uleb128 0x1
 3977 014d 13       		.uleb128 0x13
 3978 014e 00       		.byte	0
 3979 014f 00       		.byte	0
 3980 0150 1D       		.uleb128 0x1d
 3981 0151 13       		.uleb128 0x13
 3982 0152 01       		.byte	0x1
 3983 0153 0B       		.uleb128 0xb
 3984 0154 06       		.uleb128 0x6
 3985 0155 3A       		.uleb128 0x3a
 3986 0156 0B       		.uleb128 0xb
 3987 0157 3B       		.uleb128 0x3b
 3988 0158 0B       		.uleb128 0xb
 3989 0159 01       		.uleb128 0x1
 3990 015a 13       		.uleb128 0x13
 3991 015b 00       		.byte	0
 3992 015c 00       		.byte	0
 3993 015d 1E       		.uleb128 0x1e
 3994 015e 21       		.uleb128 0x21
 3995 015f 00       		.byte	0
 3996 0160 49       		.uleb128 0x49
 3997 0161 13       		.uleb128 0x13
 3998 0162 2F       		.uleb128 0x2f
 3999 0163 05       		.uleb128 0x5
 4000 0164 00       		.byte	0
 4001 0165 00       		.byte	0
 4002 0166 1F       		.uleb128 0x1f
 4003 0167 13       		.uleb128 0x13
 4004 0168 01       		.byte	0x1
 4005 0169 03       		.uleb128 0x3
 4006 016a 0E       		.uleb128 0xe
 4007 016b 0B       		.uleb128 0xb
 4008 016c 05       		.uleb128 0x5
 4009 016d 3A       		.uleb128 0x3a
 4010 016e 0B       		.uleb128 0xb
 4011 016f 3B       		.uleb128 0x3b
 4012 0170 0B       		.uleb128 0xb
 4013 0171 01       		.uleb128 0x1
 4014 0172 13       		.uleb128 0x13
 4015 0173 00       		.byte	0
 4016 0174 00       		.byte	0
 4017 0175 20       		.uleb128 0x20
 4018 0176 2E       		.uleb128 0x2e
 4019 0177 01       		.byte	0x1
 4020 0178 3F       		.uleb128 0x3f
 4021 0179 0C       		.uleb128 0xc
 4022 017a 03       		.uleb128 0x3
 4023 017b 0E       		.uleb128 0xe
 4024 017c 3A       		.uleb128 0x3a
 4025 017d 0B       		.uleb128 0xb
 4026 017e 3B       		.uleb128 0x3b
 4027 017f 05       		.uleb128 0x5
 4028 0180 27       		.uleb128 0x27
 4029 0181 0C       		.uleb128 0xc
 4030 0182 20       		.uleb128 0x20
 4031 0183 0B       		.uleb128 0xb
ARM GAS  /tmp/ccg6gN3r.s 			page 72


 4032 0184 01       		.uleb128 0x1
 4033 0185 13       		.uleb128 0x13
 4034 0186 00       		.byte	0
 4035 0187 00       		.byte	0
 4036 0188 21       		.uleb128 0x21
 4037 0189 05       		.uleb128 0x5
 4038 018a 00       		.byte	0
 4039 018b 03       		.uleb128 0x3
 4040 018c 0E       		.uleb128 0xe
 4041 018d 3A       		.uleb128 0x3a
 4042 018e 0B       		.uleb128 0xb
 4043 018f 3B       		.uleb128 0x3b
 4044 0190 05       		.uleb128 0x5
 4045 0191 49       		.uleb128 0x49
 4046 0192 13       		.uleb128 0x13
 4047 0193 00       		.byte	0
 4048 0194 00       		.byte	0
 4049 0195 22       		.uleb128 0x22
 4050 0196 0B       		.uleb128 0xb
 4051 0197 01       		.byte	0x1
 4052 0198 01       		.uleb128 0x1
 4053 0199 13       		.uleb128 0x13
 4054 019a 00       		.byte	0
 4055 019b 00       		.byte	0
 4056 019c 23       		.uleb128 0x23
 4057 019d 34       		.uleb128 0x34
 4058 019e 00       		.byte	0
 4059 019f 03       		.uleb128 0x3
 4060 01a0 08       		.uleb128 0x8
 4061 01a1 3A       		.uleb128 0x3a
 4062 01a2 0B       		.uleb128 0xb
 4063 01a3 3B       		.uleb128 0x3b
 4064 01a4 05       		.uleb128 0x5
 4065 01a5 49       		.uleb128 0x49
 4066 01a6 13       		.uleb128 0x13
 4067 01a7 00       		.byte	0
 4068 01a8 00       		.byte	0
 4069 01a9 24       		.uleb128 0x24
 4070 01aa 0B       		.uleb128 0xb
 4071 01ab 01       		.byte	0x1
 4072 01ac 00       		.byte	0
 4073 01ad 00       		.byte	0
 4074 01ae 25       		.uleb128 0x25
 4075 01af 2E       		.uleb128 0x2e
 4076 01b0 01       		.byte	0x1
 4077 01b1 3F       		.uleb128 0x3f
 4078 01b2 0C       		.uleb128 0xc
 4079 01b3 03       		.uleb128 0x3
 4080 01b4 0E       		.uleb128 0xe
 4081 01b5 3A       		.uleb128 0x3a
 4082 01b6 0B       		.uleb128 0xb
 4083 01b7 3B       		.uleb128 0x3b
 4084 01b8 0B       		.uleb128 0xb
 4085 01b9 27       		.uleb128 0x27
 4086 01ba 0C       		.uleb128 0xc
 4087 01bb 49       		.uleb128 0x49
 4088 01bc 13       		.uleb128 0x13
ARM GAS  /tmp/ccg6gN3r.s 			page 73


 4089 01bd 11       		.uleb128 0x11
 4090 01be 01       		.uleb128 0x1
 4091 01bf 12       		.uleb128 0x12
 4092 01c0 01       		.uleb128 0x1
 4093 01c1 40       		.uleb128 0x40
 4094 01c2 0A       		.uleb128 0xa
 4095 01c3 9742     		.uleb128 0x2117
 4096 01c5 0C       		.uleb128 0xc
 4097 01c6 01       		.uleb128 0x1
 4098 01c7 13       		.uleb128 0x13
 4099 01c8 00       		.byte	0
 4100 01c9 00       		.byte	0
 4101 01ca 26       		.uleb128 0x26
 4102 01cb 05       		.uleb128 0x5
 4103 01cc 00       		.byte	0
 4104 01cd 03       		.uleb128 0x3
 4105 01ce 0E       		.uleb128 0xe
 4106 01cf 3A       		.uleb128 0x3a
 4107 01d0 0B       		.uleb128 0xb
 4108 01d1 3B       		.uleb128 0x3b
 4109 01d2 0B       		.uleb128 0xb
 4110 01d3 49       		.uleb128 0x49
 4111 01d4 13       		.uleb128 0x13
 4112 01d5 02       		.uleb128 0x2
 4113 01d6 06       		.uleb128 0x6
 4114 01d7 00       		.byte	0
 4115 01d8 00       		.byte	0
 4116 01d9 27       		.uleb128 0x27
 4117 01da 05       		.uleb128 0x5
 4118 01db 00       		.byte	0
 4119 01dc 03       		.uleb128 0x3
 4120 01dd 0E       		.uleb128 0xe
 4121 01de 3A       		.uleb128 0x3a
 4122 01df 0B       		.uleb128 0xb
 4123 01e0 3B       		.uleb128 0x3b
 4124 01e1 0B       		.uleb128 0xb
 4125 01e2 49       		.uleb128 0x49
 4126 01e3 13       		.uleb128 0x13
 4127 01e4 02       		.uleb128 0x2
 4128 01e5 0A       		.uleb128 0xa
 4129 01e6 00       		.byte	0
 4130 01e7 00       		.byte	0
 4131 01e8 28       		.uleb128 0x28
 4132 01e9 2E       		.uleb128 0x2e
 4133 01ea 01       		.byte	0x1
 4134 01eb 31       		.uleb128 0x31
 4135 01ec 13       		.uleb128 0x13
 4136 01ed 11       		.uleb128 0x11
 4137 01ee 01       		.uleb128 0x1
 4138 01ef 12       		.uleb128 0x12
 4139 01f0 01       		.uleb128 0x1
 4140 01f1 40       		.uleb128 0x40
 4141 01f2 06       		.uleb128 0x6
 4142 01f3 9742     		.uleb128 0x2117
 4143 01f5 0C       		.uleb128 0xc
 4144 01f6 01       		.uleb128 0x1
 4145 01f7 13       		.uleb128 0x13
ARM GAS  /tmp/ccg6gN3r.s 			page 74


 4146 01f8 00       		.byte	0
 4147 01f9 00       		.byte	0
 4148 01fa 29       		.uleb128 0x29
 4149 01fb 05       		.uleb128 0x5
 4150 01fc 00       		.byte	0
 4151 01fd 31       		.uleb128 0x31
 4152 01fe 13       		.uleb128 0x13
 4153 01ff 02       		.uleb128 0x2
 4154 0200 06       		.uleb128 0x6
 4155 0201 00       		.byte	0
 4156 0202 00       		.byte	0
 4157 0203 2A       		.uleb128 0x2a
 4158 0204 1D       		.uleb128 0x1d
 4159 0205 01       		.byte	0x1
 4160 0206 31       		.uleb128 0x31
 4161 0207 13       		.uleb128 0x13
 4162 0208 11       		.uleb128 0x11
 4163 0209 01       		.uleb128 0x1
 4164 020a 12       		.uleb128 0x12
 4165 020b 01       		.uleb128 0x1
 4166 020c 58       		.uleb128 0x58
 4167 020d 0B       		.uleb128 0xb
 4168 020e 59       		.uleb128 0x59
 4169 020f 05       		.uleb128 0x5
 4170 0210 00       		.byte	0
 4171 0211 00       		.byte	0
 4172 0212 2B       		.uleb128 0x2b
 4173 0213 0B       		.uleb128 0xb
 4174 0214 01       		.byte	0x1
 4175 0215 11       		.uleb128 0x11
 4176 0216 01       		.uleb128 0x1
 4177 0217 12       		.uleb128 0x12
 4178 0218 01       		.uleb128 0x1
 4179 0219 00       		.byte	0
 4180 021a 00       		.byte	0
 4181 021b 2C       		.uleb128 0x2c
 4182 021c 05       		.uleb128 0x5
 4183 021d 00       		.byte	0
 4184 021e 31       		.uleb128 0x31
 4185 021f 13       		.uleb128 0x13
 4186 0220 00       		.byte	0
 4187 0221 00       		.byte	0
 4188 0222 2D       		.uleb128 0x2d
 4189 0223 0B       		.uleb128 0xb
 4190 0224 01       		.byte	0x1
 4191 0225 11       		.uleb128 0x11
 4192 0226 01       		.uleb128 0x1
 4193 0227 12       		.uleb128 0x12
 4194 0228 01       		.uleb128 0x1
 4195 0229 01       		.uleb128 0x1
 4196 022a 13       		.uleb128 0x13
 4197 022b 00       		.byte	0
 4198 022c 00       		.byte	0
 4199 022d 2E       		.uleb128 0x2e
 4200 022e 34       		.uleb128 0x34
 4201 022f 00       		.byte	0
 4202 0230 31       		.uleb128 0x31
ARM GAS  /tmp/ccg6gN3r.s 			page 75


 4203 0231 13       		.uleb128 0x13
 4204 0232 02       		.uleb128 0x2
 4205 0233 06       		.uleb128 0x6
 4206 0234 00       		.byte	0
 4207 0235 00       		.byte	0
 4208 0236 2F       		.uleb128 0x2f
 4209 0237 898201   		.uleb128 0x4109
 4210 023a 00       		.byte	0
 4211 023b 11       		.uleb128 0x11
 4212 023c 01       		.uleb128 0x1
 4213 023d 31       		.uleb128 0x31
 4214 023e 13       		.uleb128 0x13
 4215 023f 00       		.byte	0
 4216 0240 00       		.byte	0
 4217 0241 30       		.uleb128 0x30
 4218 0242 898201   		.uleb128 0x4109
 4219 0245 01       		.byte	0x1
 4220 0246 11       		.uleb128 0x11
 4221 0247 01       		.uleb128 0x1
 4222 0248 31       		.uleb128 0x31
 4223 0249 13       		.uleb128 0x13
 4224 024a 01       		.uleb128 0x1
 4225 024b 13       		.uleb128 0x13
 4226 024c 00       		.byte	0
 4227 024d 00       		.byte	0
 4228 024e 31       		.uleb128 0x31
 4229 024f 8A8201   		.uleb128 0x410a
 4230 0252 00       		.byte	0
 4231 0253 02       		.uleb128 0x2
 4232 0254 0A       		.uleb128 0xa
 4233 0255 9142     		.uleb128 0x2111
 4234 0257 0A       		.uleb128 0xa
 4235 0258 00       		.byte	0
 4236 0259 00       		.byte	0
 4237 025a 32       		.uleb128 0x32
 4238 025b 34       		.uleb128 0x34
 4239 025c 00       		.byte	0
 4240 025d 03       		.uleb128 0x3
 4241 025e 0E       		.uleb128 0xe
 4242 025f 3A       		.uleb128 0x3a
 4243 0260 0B       		.uleb128 0xb
 4244 0261 3B       		.uleb128 0x3b
 4245 0262 0B       		.uleb128 0xb
 4246 0263 49       		.uleb128 0x49
 4247 0264 13       		.uleb128 0x13
 4248 0265 02       		.uleb128 0x2
 4249 0266 0A       		.uleb128 0xa
 4250 0267 00       		.byte	0
 4251 0268 00       		.byte	0
 4252 0269 33       		.uleb128 0x33
 4253 026a 34       		.uleb128 0x34
 4254 026b 00       		.byte	0
 4255 026c 03       		.uleb128 0x3
 4256 026d 0E       		.uleb128 0xe
 4257 026e 3A       		.uleb128 0x3a
 4258 026f 0B       		.uleb128 0xb
 4259 0270 3B       		.uleb128 0x3b
ARM GAS  /tmp/ccg6gN3r.s 			page 76


 4260 0271 05       		.uleb128 0x5
 4261 0272 49       		.uleb128 0x49
 4262 0273 13       		.uleb128 0x13
 4263 0274 02       		.uleb128 0x2
 4264 0275 0A       		.uleb128 0xa
 4265 0276 00       		.byte	0
 4266 0277 00       		.byte	0
 4267 0278 34       		.uleb128 0x34
 4268 0279 34       		.uleb128 0x34
 4269 027a 00       		.byte	0
 4270 027b 03       		.uleb128 0x3
 4271 027c 0E       		.uleb128 0xe
 4272 027d 3A       		.uleb128 0x3a
 4273 027e 0B       		.uleb128 0xb
 4274 027f 3B       		.uleb128 0x3b
 4275 0280 05       		.uleb128 0x5
 4276 0281 49       		.uleb128 0x49
 4277 0282 13       		.uleb128 0x13
 4278 0283 3F       		.uleb128 0x3f
 4279 0284 0C       		.uleb128 0xc
 4280 0285 3C       		.uleb128 0x3c
 4281 0286 0C       		.uleb128 0xc
 4282 0287 00       		.byte	0
 4283 0288 00       		.byte	0
 4284 0289 35       		.uleb128 0x35
 4285 028a 34       		.uleb128 0x34
 4286 028b 00       		.byte	0
 4287 028c 03       		.uleb128 0x3
 4288 028d 0E       		.uleb128 0xe
 4289 028e 3A       		.uleb128 0x3a
 4290 028f 0B       		.uleb128 0xb
 4291 0290 3B       		.uleb128 0x3b
 4292 0291 0B       		.uleb128 0xb
 4293 0292 49       		.uleb128 0x49
 4294 0293 13       		.uleb128 0x13
 4295 0294 3F       		.uleb128 0x3f
 4296 0295 0C       		.uleb128 0xc
 4297 0296 02       		.uleb128 0x2
 4298 0297 0A       		.uleb128 0xa
 4299 0298 00       		.byte	0
 4300 0299 00       		.byte	0
 4301 029a 36       		.uleb128 0x36
 4302 029b 34       		.uleb128 0x34
 4303 029c 00       		.byte	0
 4304 029d 03       		.uleb128 0x3
 4305 029e 0E       		.uleb128 0xe
 4306 029f 3A       		.uleb128 0x3a
 4307 02a0 0B       		.uleb128 0xb
 4308 02a1 3B       		.uleb128 0x3b
 4309 02a2 05       		.uleb128 0x5
 4310 02a3 49       		.uleb128 0x49
 4311 02a4 13       		.uleb128 0x13
 4312 02a5 3F       		.uleb128 0x3f
 4313 02a6 0C       		.uleb128 0xc
 4314 02a7 02       		.uleb128 0x2
 4315 02a8 0A       		.uleb128 0xa
 4316 02a9 00       		.byte	0
ARM GAS  /tmp/ccg6gN3r.s 			page 77


 4317 02aa 00       		.byte	0
 4318 02ab 37       		.uleb128 0x37
 4319 02ac 2E       		.uleb128 0x2e
 4320 02ad 00       		.byte	0
 4321 02ae 3F       		.uleb128 0x3f
 4322 02af 0C       		.uleb128 0xc
 4323 02b0 03       		.uleb128 0x3
 4324 02b1 0E       		.uleb128 0xe
 4325 02b2 3A       		.uleb128 0x3a
 4326 02b3 0B       		.uleb128 0xb
 4327 02b4 3B       		.uleb128 0x3b
 4328 02b5 0B       		.uleb128 0xb
 4329 02b6 27       		.uleb128 0x27
 4330 02b7 0C       		.uleb128 0xc
 4331 02b8 3C       		.uleb128 0x3c
 4332 02b9 0C       		.uleb128 0xc
 4333 02ba 00       		.byte	0
 4334 02bb 00       		.byte	0
 4335 02bc 38       		.uleb128 0x38
 4336 02bd 2E       		.uleb128 0x2e
 4337 02be 01       		.byte	0x1
 4338 02bf 3F       		.uleb128 0x3f
 4339 02c0 0C       		.uleb128 0xc
 4340 02c1 03       		.uleb128 0x3
 4341 02c2 0E       		.uleb128 0xe
 4342 02c3 3A       		.uleb128 0x3a
 4343 02c4 0B       		.uleb128 0xb
 4344 02c5 3B       		.uleb128 0x3b
 4345 02c6 05       		.uleb128 0x5
 4346 02c7 27       		.uleb128 0x27
 4347 02c8 0C       		.uleb128 0xc
 4348 02c9 3C       		.uleb128 0x3c
 4349 02ca 0C       		.uleb128 0xc
 4350 02cb 01       		.uleb128 0x1
 4351 02cc 13       		.uleb128 0x13
 4352 02cd 00       		.byte	0
 4353 02ce 00       		.byte	0
 4354 02cf 39       		.uleb128 0x39
 4355 02d0 2E       		.uleb128 0x2e
 4356 02d1 01       		.byte	0x1
 4357 02d2 3F       		.uleb128 0x3f
 4358 02d3 0C       		.uleb128 0xc
 4359 02d4 03       		.uleb128 0x3
 4360 02d5 0E       		.uleb128 0xe
 4361 02d6 3A       		.uleb128 0x3a
 4362 02d7 0B       		.uleb128 0xb
 4363 02d8 3B       		.uleb128 0x3b
 4364 02d9 0B       		.uleb128 0xb
 4365 02da 27       		.uleb128 0x27
 4366 02db 0C       		.uleb128 0xc
 4367 02dc 3C       		.uleb128 0x3c
 4368 02dd 0C       		.uleb128 0xc
 4369 02de 01       		.uleb128 0x1
 4370 02df 13       		.uleb128 0x13
 4371 02e0 00       		.byte	0
 4372 02e1 00       		.byte	0
 4373 02e2 00       		.byte	0
ARM GAS  /tmp/ccg6gN3r.s 			page 78


 4374              		.section	.debug_loc,"",%progbits
 4375              	.Ldebug_loc0:
 4376              	.LLST0:
 4377 0000 00000000 		.4byte	.LVL0
 4378 0004 0A000000 		.4byte	.LVL1
 4379 0008 0100     		.2byte	0x1
 4380 000a 50       		.byte	0x50
 4381 000b 0A000000 		.4byte	.LVL1
 4382 000f 12000000 		.4byte	.LVL2
 4383 0013 0400     		.2byte	0x4
 4384 0015 F3       		.byte	0xf3
 4385 0016 01       		.uleb128 0x1
 4386 0017 50       		.byte	0x50
 4387 0018 9F       		.byte	0x9f
 4388 0019 12000000 		.4byte	.LVL2
 4389 001d 14000000 		.4byte	.LVL3
 4390 0021 0100     		.2byte	0x1
 4391 0023 50       		.byte	0x50
 4392 0024 14000000 		.4byte	.LVL3
 4393 0028 16000000 		.4byte	.LVL4
 4394 002c 0400     		.2byte	0x4
 4395 002e F3       		.byte	0xf3
 4396 002f 01       		.uleb128 0x1
 4397 0030 50       		.byte	0x50
 4398 0031 9F       		.byte	0x9f
 4399 0032 16000000 		.4byte	.LVL4
 4400 0036 1C000000 		.4byte	.LVL5
 4401 003a 0100     		.2byte	0x1
 4402 003c 50       		.byte	0x50
 4403 003d 1C000000 		.4byte	.LVL5
 4404 0041 22000000 		.4byte	.LVL6
 4405 0045 0400     		.2byte	0x4
 4406 0047 F3       		.byte	0xf3
 4407 0048 01       		.uleb128 0x1
 4408 0049 50       		.byte	0x50
 4409 004a 9F       		.byte	0x9f
 4410 004b 22000000 		.4byte	.LVL6
 4411 004f 24000000 		.4byte	.LVL7
 4412 0053 0100     		.2byte	0x1
 4413 0055 50       		.byte	0x50
 4414 0056 24000000 		.4byte	.LVL7
 4415 005a 34000000 		.4byte	.LFE118
 4416 005e 0400     		.2byte	0x4
 4417 0060 F3       		.byte	0xf3
 4418 0061 01       		.uleb128 0x1
 4419 0062 50       		.byte	0x50
 4420 0063 9F       		.byte	0x9f
 4421 0064 00000000 		.4byte	0
 4422 0068 00000000 		.4byte	0
 4423              	.LLST1:
 4424 006c 00000000 		.4byte	.LFB119
 4425 0070 04000000 		.4byte	.LCFI0
 4426 0074 0200     		.2byte	0x2
 4427 0076 7D       		.byte	0x7d
 4428 0077 00       		.sleb128 0
 4429 0078 04000000 		.4byte	.LCFI0
 4430 007c 48000000 		.4byte	.LFE119
ARM GAS  /tmp/ccg6gN3r.s 			page 79


 4431 0080 0200     		.2byte	0x2
 4432 0082 7D       		.byte	0x7d
 4433 0083 10       		.sleb128 16
 4434 0084 00000000 		.4byte	0
 4435 0088 00000000 		.4byte	0
 4436              	.LLST2:
 4437 008c 00000000 		.4byte	.LVL8
 4438 0090 13000000 		.4byte	.LVL12-1
 4439 0094 0100     		.2byte	0x1
 4440 0096 50       		.byte	0x50
 4441 0097 13000000 		.4byte	.LVL12-1
 4442 009b 48000000 		.4byte	.LFE119
 4443 009f 0100     		.2byte	0x1
 4444 00a1 55       		.byte	0x55
 4445 00a2 00000000 		.4byte	0
 4446 00a6 00000000 		.4byte	0
 4447              	.LLST3:
 4448 00aa 00000000 		.4byte	.LVL8
 4449 00ae 13000000 		.4byte	.LVL12-1
 4450 00b2 0100     		.2byte	0x1
 4451 00b4 51       		.byte	0x51
 4452 00b5 13000000 		.4byte	.LVL12-1
 4453 00b9 48000000 		.4byte	.LFE119
 4454 00bd 0400     		.2byte	0x4
 4455 00bf F3       		.byte	0xf3
 4456 00c0 01       		.uleb128 0x1
 4457 00c1 51       		.byte	0x51
 4458 00c2 9F       		.byte	0x9f
 4459 00c3 00000000 		.4byte	0
 4460 00c7 00000000 		.4byte	0
 4461              	.LLST4:
 4462 00cb 0A000000 		.4byte	.LVL9
 4463 00cf 13000000 		.4byte	.LVL12-1
 4464 00d3 0100     		.2byte	0x1
 4465 00d5 50       		.byte	0x50
 4466 00d6 13000000 		.4byte	.LVL12-1
 4467 00da 38000000 		.4byte	.LVL18
 4468 00de 0100     		.2byte	0x1
 4469 00e0 55       		.byte	0x55
 4470 00e1 00000000 		.4byte	0
 4471 00e5 00000000 		.4byte	0
 4472              	.LLST5:
 4473 00e9 10000000 		.4byte	.LVL11
 4474 00ed 13000000 		.4byte	.LVL12-1
 4475 00f1 0100     		.2byte	0x1
 4476 00f3 53       		.byte	0x53
 4477 00f4 00000000 		.4byte	0
 4478 00f8 00000000 		.4byte	0
 4479              	.LLST6:
 4480 00fc 38000000 		.4byte	.LVL18
 4481 0100 48000000 		.4byte	.LFE119
 4482 0104 0100     		.2byte	0x1
 4483 0106 53       		.byte	0x53
 4484 0107 00000000 		.4byte	0
 4485 010b 00000000 		.4byte	0
 4486              		.section	.debug_aranges,"",%progbits
 4487 0000 24000000 		.4byte	0x24
ARM GAS  /tmp/ccg6gN3r.s 			page 80


 4488 0004 0200     		.2byte	0x2
 4489 0006 00000000 		.4byte	.Ldebug_info0
 4490 000a 04       		.byte	0x4
 4491 000b 00       		.byte	0
 4492 000c 0000     		.2byte	0
 4493 000e 0000     		.2byte	0
 4494 0010 00000000 		.4byte	.LFB118
 4495 0014 34000000 		.4byte	.LFE118-.LFB118
 4496 0018 00000000 		.4byte	.LFB119
 4497 001c 48000000 		.4byte	.LFE119-.LFB119
 4498 0020 00000000 		.4byte	0
 4499 0024 00000000 		.4byte	0
 4500              		.section	.debug_ranges,"",%progbits
 4501              	.Ldebug_ranges0:
 4502 0000 00000000 		.4byte	.LFB118
 4503 0004 34000000 		.4byte	.LFE118
 4504 0008 00000000 		.4byte	.LFB119
 4505 000c 48000000 		.4byte	.LFE119
 4506 0010 00000000 		.4byte	0
 4507 0014 00000000 		.4byte	0
 4508              		.section	.debug_line,"",%progbits
 4509              	.Ldebug_line0:
 4510 0000 AF020000 		.section	.debug_str,"MS",%progbits,1
 4510      02007502 
 4510      00000201 
 4510      FB0E0D00 
 4510      01010101 
 4511              	.LASF11:
 4512 0000 73697A65 		.ascii	"size_t\000"
 4512      5F7400
 4513              	.LASF8:
 4514 0007 73697A65 		.ascii	"sizetype\000"
 4514      74797065 
 4514      00
 4515              	.LASF27:
 4516 0010 73797374 		.ascii	"systime_t\000"
 4516      696D655F 
 4516      7400
 4517              	.LASF32:
 4518 001a 705F6374 		.ascii	"p_ctx\000"
 4518      7800
 4519              	.LASF274:
 4520 0020 76636F6D 		.ascii	"vcom_strings\000"
 4520      5F737472 
 4520      696E6773 
 4520      00
 4521              	.LASF23:
 4522 002d 74707269 		.ascii	"tprio_t\000"
 4522      6F5F7400 
 4523              	.LASF43:
 4524 0035 705F6D73 		.ascii	"p_msgqueue\000"
 4524      67717565 
 4524      756500
 4525              	.LASF208:
 4526 0040 72785F66 		.ascii	"rx_fifo_size\000"
 4526      69666F5F 
 4526      73697A65 
ARM GAS  /tmp/ccg6gN3r.s 			page 81


 4526      00
 4527              	.LASF14:
 4528 004d 696E7433 		.ascii	"int32_t\000"
 4528      325F7400 
 4529              	.LASF261:
 4530 0055 77726974 		.ascii	"writet\000"
 4530      657400
 4531              	.LASF143:
 4532 005c 72657376 		.ascii	"resvd4\000"
 4532      643400
 4533              	.LASF134:
 4534 0063 72657376 		.ascii	"resvd8\000"
 4534      643800
 4535              	.LASF145:
 4536 006a 72657376 		.ascii	"resvdC\000"
 4536      644300
 4537              	.LASF111:
 4538 0071 5553425F 		.ascii	"USB_EP0_TX\000"
 4538      4550305F 
 4538      545800
 4539              	.LASF183:
 4540 007c 72657376 		.ascii	"resvd700\000"
 4540      64373030 
 4540      00
 4541              	.LASF63:
 4542 0085 656C5F66 		.ascii	"el_flags\000"
 4542      6C616773 
 4542      00
 4543              	.LASF84:
 4544 008e 636F6E66 		.ascii	"config\000"
 4544      696700
 4545              	.LASF83:
 4546 0095 73746174 		.ascii	"state\000"
 4546      6500
 4547              	.LASF227:
 4548 009b 65705F6D 		.ascii	"ep_mode\000"
 4548      6F646500 
 4549              	.LASF259:
 4550 00a3 70757474 		.ascii	"putt\000"
 4550      00
 4551              	.LASF108:
 4552 00a8 5553425F 		.ascii	"USB_ACTIVE\000"
 4552      41435449 
 4552      564500
 4553              	.LASF290:
 4554 00b3 474E5520 		.ascii	"GNU C 4.7.2\000"
 4554      4320342E 
 4554      372E3200 
 4555              	.LASF278:
 4556 00bf 65703269 		.ascii	"ep2instate\000"
 4556      6E737461 
 4556      746500
 4557              	.LASF57:
 4558 00ca 6D5F6F77 		.ascii	"m_owner\000"
 4558      6E657200 
 4559              	.LASF67:
 4560 00d2 65786974 		.ascii	"exitcode\000"
ARM GAS  /tmp/ccg6gN3r.s 			page 82


 4560      636F6465 
 4560      00
 4561              	.LASF117:
 4562 00db 75736265 		.ascii	"usbep0state_t\000"
 4562      70307374 
 4562      6174655F 
 4562      7400
 4563              	.LASF74:
 4564 00e9 715F746F 		.ascii	"q_top\000"
 4564      7000
 4565              	.LASF69:
 4566 00ef 65776D61 		.ascii	"ewmask\000"
 4566      736B00
 4567              	.LASF262:
 4568 00f6 72656164 		.ascii	"readt\000"
 4568      7400
 4569              	.LASF275:
 4570 00fc 65703169 		.ascii	"ep1instate\000"
 4570      6E737461 
 4570      746500
 4571              	.LASF267:
 4572 0107 76636F6D 		.ascii	"vcom_device_descriptor\000"
 4572      5F646576 
 4572      6963655F 
 4572      64657363 
 4572      72697074 
 4573              	.LASF73:
 4574 011e 715F6275 		.ascii	"q_buffer\000"
 4574      66666572 
 4574      00
 4575              	.LASF119:
 4576 0127 5553425F 		.ascii	"USB_EVENT_ADDRESS\000"
 4576      4556454E 
 4576      545F4144 
 4576      44524553 
 4576      5300
 4577              	.LASF164:
 4578 0139 44494550 		.ascii	"DIEPTXF0\000"
 4578      54584630 
 4578      00
 4579              	.LASF77:
 4580 0142 715F6E6F 		.ascii	"q_notify\000"
 4580      74696679 
 4580      00
 4581              	.LASF33:
 4582 014b 705F6E65 		.ascii	"p_newer\000"
 4582      77657200 
 4583              	.LASF276:
 4584 0153 6570316F 		.ascii	"ep1outstate\000"
 4584      75747374 
 4584      61746500 
 4585              	.LASF7:
 4586 015f 6C6F6E67 		.ascii	"long int\000"
 4586      20696E74 
 4586      00
 4587              	.LASF29:
 4588 0168 705F6E65 		.ascii	"p_next\000"
ARM GAS  /tmp/ccg6gN3r.s 			page 83


 4588      787400
 4589              	.LASF76:
 4590 016f 715F7264 		.ascii	"q_rdptr\000"
 4590      70747200 
 4591              	.LASF218:
 4592 0177 7478636E 		.ascii	"txcnt\000"
 4592      7400
 4593              	.LASF30:
 4594 017d 705F7072 		.ascii	"p_prev\000"
 4594      657600
 4595              	.LASF20:
 4596 0184 74737461 		.ascii	"tstate_t\000"
 4596      74655F74 
 4596      00
 4597              	.LASF232:
 4598 018d 6F75745F 		.ascii	"out_maxsize\000"
 4598      6D617873 
 4598      697A6500 
 4599              	.LASF46:
 4600 0199 705F6D74 		.ascii	"p_mtxlist\000"
 4600      786C6973 
 4600      7400
 4601              	.LASF101:
 4602 01a3 7468645F 		.ascii	"thd_wait\000"
 4602      77616974 
 4602      00
 4603              	.LASF212:
 4604 01ac 74786275 		.ascii	"txbuf\000"
 4604      6600
 4605              	.LASF51:
 4606 01b2 72656761 		.ascii	"regarm_t\000"
 4606      726D5F74 
 4606      00
 4607              	.LASF190:
 4608 01bb 4441494E 		.ascii	"DAINT\000"
 4608      5400
 4609              	.LASF110:
 4610 01c1 5553425F 		.ascii	"USB_EP0_WAITING_SETUP\000"
 4610      4550305F 
 4610      57414954 
 4610      494E475F 
 4610      53455455 
 4611              	.LASF189:
 4612 01d7 444F4550 		.ascii	"DOEPMSK\000"
 4612      4D534B00 
 4613              	.LASF254:
 4614 01df 696E745F 		.ascii	"int_in\000"
 4614      696E00
 4615              	.LASF288:
 4616 01e6 6462675F 		.ascii	"dbg_check_lock_from_isr\000"
 4616      63686563 
 4616      6B5F6C6F 
 4616      636B5F66 
 4616      726F6D5F 
 4617              	.LASF150:
 4618 01fe 444F4550 		.ascii	"DOEPCTL\000"
 4618      43544C00 
ARM GAS  /tmp/ccg6gN3r.s 			page 84


 4619              	.LASF1:
 4620 0206 7369676E 		.ascii	"signed char\000"
 4620      65642063 
 4620      68617200 
 4621              	.LASF40:
 4622 0212 705F7072 		.ascii	"p_preempt\000"
 4622      65656D70 
 4622      7400
 4623              	.LASF12:
 4624 021c 75696E74 		.ascii	"uint8_t\000"
 4624      385F7400 
 4625              	.LASF123:
 4626 0224 5553425F 		.ascii	"USB_EVENT_STALLED\000"
 4626      4556454E 
 4626      545F5354 
 4626      414C4C45 
 4626      4400
 4627              	.LASF269:
 4628 0236 76636F6D 		.ascii	"vcom_configuration_descriptor\000"
 4628      5F636F6E 
 4628      66696775 
 4628      72617469 
 4628      6F6E5F64 
 4629              	.LASF151:
 4630 0254 444F4550 		.ascii	"DOEPINT\000"
 4630      494E5400 
 4631              	.LASF25:
 4632 025c 6576656E 		.ascii	"eventmask_t\000"
 4632      746D6173 
 4632      6B5F7400 
 4633              	.LASF54:
 4634 0268 636F6E74 		.ascii	"context\000"
 4634      65787400 
 4635              	.LASF224:
 4636 0270 72787369 		.ascii	"rxsize\000"
 4636      7A6500
 4637              	.LASF2:
 4638 0277 756E7369 		.ascii	"unsigned char\000"
 4638      676E6564 
 4638      20636861 
 4638      7200
 4639              	.LASF116:
 4640 0285 5553425F 		.ascii	"USB_EP0_ERROR\000"
 4640      4550305F 
 4640      4552524F 
 4640      5200
 4641              	.LASF78:
 4642 0293 715F6C69 		.ascii	"q_link\000"
 4642      6E6B00
 4643              	.LASF264:
 4644 029a 64696E64 		.ascii	"dindex\000"
 4644      657800
 4645              	.LASF184:
 4646 02a1 44434647 		.ascii	"DCFG\000"
 4646      00
 4647              	.LASF168:
 4648 02a6 47434346 		.ascii	"GCCFG\000"
ARM GAS  /tmp/ccg6gN3r.s 			page 85


 4648      4700
 4649              	.LASF89:
 4650 02ac 65703073 		.ascii	"ep0state\000"
 4650      74617465 
 4650      00
 4651              	.LASF146:
 4652 02b5 44494550 		.ascii	"DIEPTSIZ\000"
 4652      5453495A 
 4652      00
 4653              	.LASF240:
 4654 02be 72657175 		.ascii	"requests_hook_cb\000"
 4654      65737473 
 4654      5F686F6F 
 4654      6B5F6362 
 4654      00
 4655              	.LASF18:
 4656 02cf 5F426F6F 		.ascii	"_Bool\000"
 4656      6C00
 4657              	.LASF272:
 4658 02d5 76636F6D 		.ascii	"vcom_string2\000"
 4658      5F737472 
 4658      696E6732 
 4658      00
 4659              	.LASF173:
 4660 02e2 48434647 		.ascii	"HCFG\000"
 4660      00
 4661              	.LASF133:
 4662 02e7 48434348 		.ascii	"HCCHAR\000"
 4662      415200
 4663              	.LASF153:
 4664 02ee 73746D33 		.ascii	"stm32_otg_out_ep_t\000"
 4664      325F6F74 
 4664      675F6F75 
 4664      745F6570 
 4664      5F7400
 4665              	.LASF10:
 4666 0301 63686172 		.ascii	"char\000"
 4666      00
 4667              	.LASF91:
 4668 0306 6570306E 		.ascii	"ep0n\000"
 4668      00
 4669              	.LASF187:
 4670 030b 72657376 		.ascii	"resvd80C\000"
 4670      64383043 
 4670      00
 4671              	.LASF181:
 4672 0314 48505254 		.ascii	"HPRT\000"
 4672      00
 4673              	.LASF31:
 4674 0319 705F7072 		.ascii	"p_prio\000"
 4674      696F00
 4675              	.LASF86:
 4676 0320 72656365 		.ascii	"receiving\000"
 4676      6976696E 
 4676      6700
 4677              	.LASF70:
 4678 032a 47656E65 		.ascii	"GenericQueue\000"
ARM GAS  /tmp/ccg6gN3r.s 			page 86


 4678      72696351 
 4678      75657565 
 4678      00
 4679              	.LASF68:
 4680 0337 77746F62 		.ascii	"wtobjp\000"
 4680      6A7000
 4681              	.LASF277:
 4682 033e 65703163 		.ascii	"ep1config\000"
 4682      6F6E6669 
 4682      6700
 4683              	.LASF228:
 4684 0348 73657475 		.ascii	"setup_cb\000"
 4684      705F6362 
 4684      00
 4685              	.LASF126:
 4686 0351 75645F73 		.ascii	"ud_string\000"
 4686      7472696E 
 4686      6700
 4687              	.LASF229:
 4688 035b 696E5F63 		.ascii	"in_cb\000"
 4688      6200
 4689              	.LASF260:
 4690 0361 67657474 		.ascii	"gett\000"
 4690      00
 4691              	.LASF52:
 4692 0366 73746B61 		.ascii	"stkalign_t\000"
 4692      6C69676E 
 4692      5F7400
 4693              	.LASF81:
 4694 0371 4F757470 		.ascii	"OutputQueue\000"
 4694      75745175 
 4694      65756500 
 4695              	.LASF175:
 4696 037d 48464E55 		.ascii	"HFNUM\000"
 4696      4D00
 4697              	.LASF130:
 4698 0383 75736265 		.ascii	"usbeventcb_t\000"
 4698      76656E74 
 4698      63625F74 
 4698      00
 4699              	.LASF141:
 4700 0390 73746D33 		.ascii	"stm32_otg_host_chn_t\000"
 4700      325F6F74 
 4700      675F686F 
 4700      73745F63 
 4700      686E5F74 
 4701              	.LASF85:
 4702 03a5 7472616E 		.ascii	"transmitting\000"
 4702      736D6974 
 4702      74696E67 
 4702      00
 4703              	.LASF137:
 4704 03b2 48435453 		.ascii	"HCTSIZ\000"
 4704      495A00
 4705              	.LASF220:
 4706 03b9 55534249 		.ascii	"USBInEndpointState\000"
 4706      6E456E64 
ARM GAS  /tmp/ccg6gN3r.s 			page 87


 4706      706F696E 
 4706      74537461 
 4706      746500
 4707              	.LASF192:
 4708 03cc 72657376 		.ascii	"resvd820\000"
 4708      64383230 
 4708      00
 4709              	.LASF193:
 4710 03d5 72657376 		.ascii	"resvd824\000"
 4710      64383234 
 4710      00
 4711              	.LASF195:
 4712 03de 44564255 		.ascii	"DVBUSPULSE\000"
 4712      5350554C 
 4712      534500
 4713              	.LASF279:
 4714 03e9 65703263 		.ascii	"ep2config\000"
 4714      6F6E6669 
 4714      6700
 4715              	.LASF197:
 4716 03f3 44494550 		.ascii	"DIEPEMPMSK\000"
 4716      454D504D 
 4716      534B00
 4717              	.LASF127:
 4718 03fe 55534244 		.ascii	"USBDescriptor\000"
 4718      65736372 
 4718      6970746F 
 4718      7200
 4719              	.LASF211:
 4720 040c 73746D33 		.ascii	"stm32_otg_params_t\000"
 4720      325F6F74 
 4720      675F7061 
 4720      72616D73 
 4720      5F7400
 4721              	.LASF93:
 4722 041f 73657475 		.ascii	"setup\000"
 4722      7000
 4723              	.LASF53:
 4724 0425 696E7463 		.ascii	"intctx\000"
 4724      747800
 4725              	.LASF45:
 4726 042c 705F6570 		.ascii	"p_epending\000"
 4726      656E6469 
 4726      6E6700
 4727              	.LASF158:
 4728 0437 47525354 		.ascii	"GRSTCTL\000"
 4728      43544C00 
 4729              	.LASF124:
 4730 043f 75736265 		.ascii	"usbevent_t\000"
 4730      76656E74 
 4730      5F7400
 4731              	.LASF198:
 4732 044a 72657376 		.ascii	"resvd838\000"
 4732      64383338 
 4732      00
 4733              	.LASF125:
 4734 0453 75645F73 		.ascii	"ud_size\000"
ARM GAS  /tmp/ccg6gN3r.s 			page 88


 4734      697A6500 
 4735              	.LASF256:
 4736 045b 53657269 		.ascii	"SerialUSBDriverVMT\000"
 4736      616C5553 
 4736      42447269 
 4736      76657256 
 4736      4D5400
 4737              	.LASF107:
 4738 046e 5553425F 		.ascii	"USB_SELECTED\000"
 4738      53454C45 
 4738      43544544 
 4738      00
 4739              	.LASF96:
 4740 047b 636F6E66 		.ascii	"configuration\000"
 4740      69677572 
 4740      6174696F 
 4740      6E00
 4741              	.LASF163:
 4742 0489 47525846 		.ascii	"GRXFSIZ\000"
 4742      53495A00 
 4743              	.LASF65:
 4744 0491 65735F6E 		.ascii	"es_next\000"
 4744      65787400 
 4745              	.LASF72:
 4746 0499 715F636F 		.ascii	"q_counter\000"
 4746      756E7465 
 4746      7200
 4747              	.LASF200:
 4748 04a3 72657376 		.ascii	"resvd840\000"
 4748      64383430 
 4748      00
 4749              	.LASF64:
 4750 04ac 4576656E 		.ascii	"EventSource\000"
 4750      74536F75 
 4750      72636500 
 4751              	.LASF171:
 4752 04b8 44494550 		.ascii	"DIEPTXF\000"
 4752      54584600 
 4753              	.LASF9:
 4754 04c0 6C6F6E67 		.ascii	"long unsigned int\000"
 4754      20756E73 
 4754      69676E65 
 4754      6420696E 
 4754      7400
 4755              	.LASF94:
 4756 04d2 73746174 		.ascii	"status\000"
 4756      757300
 4757              	.LASF252:
 4758 04d9 62756C6B 		.ascii	"bulk_in\000"
 4758      5F696E00 
 4759              	.LASF95:
 4760 04e1 61646472 		.ascii	"address\000"
 4760      65737300 
 4761              	.LASF92:
 4762 04e9 65703065 		.ascii	"ep0endcb\000"
 4762      6E646362 
 4762      00
ARM GAS  /tmp/ccg6gN3r.s 			page 89


 4763              	.LASF156:
 4764 04f2 47414842 		.ascii	"GAHBCFG\000"
 4764      43464700 
 4765              	.LASF235:
 4766 04fa 696E5F6D 		.ascii	"in_multiplier\000"
 4766      756C7469 
 4766      706C6965 
 4766      7200
 4767              	.LASF60:
 4768 0508 656C5F6E 		.ascii	"el_next\000"
 4768      65787400 
 4769              	.LASF251:
 4770 0510 75736270 		.ascii	"usbp\000"
 4770      00
 4771              	.LASF210:
 4772 0515 6E756D5F 		.ascii	"num_endpoints\000"
 4772      656E6470 
 4772      6F696E74 
 4772      7300
 4773              	.LASF75:
 4774 0523 715F7772 		.ascii	"q_wrptr\000"
 4774      70747200 
 4775              	.LASF217:
 4776 052b 74787369 		.ascii	"txsize\000"
 4776      7A6500
 4777              	.LASF105:
 4778 0532 5553425F 		.ascii	"USB_STOP\000"
 4778      53544F50 
 4778      00
 4779              	.LASF245:
 4780 053b 5344555F 		.ascii	"SDU_READY\000"
 4780      52454144 
 4780      5900
 4781              	.LASF100:
 4782 0545 7468645F 		.ascii	"thd_ptr\000"
 4782      70747200 
 4783              	.LASF257:
 4784 054d 77726974 		.ascii	"write\000"
 4784      6500
 4785              	.LASF225:
 4786 0553 7278636E 		.ascii	"rxcnt\000"
 4786      7400
 4787              	.LASF109:
 4788 0559 75736273 		.ascii	"usbstate_t\000"
 4788      74617465 
 4788      5F7400
 4789              	.LASF176:
 4790 0564 72657376 		.ascii	"resvd40C\000"
 4790      64343043 
 4790      00
 4791              	.LASF154:
 4792 056d 474F5447 		.ascii	"GOTGCTL\000"
 4792      43544C00 
 4793              	.LASF221:
 4794 0575 72786275 		.ascii	"rxbuf\000"
 4794      6600
 4795              	.LASF292:
ARM GAS  /tmp/ccg6gN3r.s 			page 90


 4796 057b 2F686F6D 		.ascii	"/home/rob/Projects/stm32/src/rocket_tracks\000"
 4796      652F726F 
 4796      622F5072 
 4796      6F6A6563 
 4796      74732F73 
 4797              	.LASF162:
 4798 05a6 47525853 		.ascii	"GRXSTSP\000"
 4798      54535000 
 4799              	.LASF233:
 4800 05ae 696E5F73 		.ascii	"in_state\000"
 4800      74617465 
 4800      00
 4801              	.LASF161:
 4802 05b7 47525853 		.ascii	"GRXSTSR\000"
 4802      54535200 
 4803              	.LASF122:
 4804 05bf 5553425F 		.ascii	"USB_EVENT_WAKEUP\000"
 4804      4556454E 
 4804      545F5741 
 4804      4B455550 
 4804      00
 4805              	.LASF204:
 4806 05d0 50434743 		.ascii	"PCGCCTL\000"
 4806      43544C00 
 4807              	.LASF238:
 4808 05d8 6576656E 		.ascii	"event_cb\000"
 4808      745F6362 
 4808      00
 4809              	.LASF55:
 4810 05e1 4D757465 		.ascii	"Mutex\000"
 4810      7800
 4811              	.LASF293:
 4812 05e7 6765745F 		.ascii	"get_descriptor\000"
 4812      64657363 
 4812      72697074 
 4812      6F7200
 4813              	.LASF5:
 4814 05f6 6C6F6E67 		.ascii	"long long int\000"
 4814      206C6F6E 
 4814      6720696E 
 4814      7400
 4815              	.LASF106:
 4816 0604 5553425F 		.ascii	"USB_READY\000"
 4816      52454144 
 4816      5900
 4817              	.LASF56:
 4818 060e 6D5F7175 		.ascii	"m_queue\000"
 4818      65756500 
 4819              	.LASF180:
 4820 0616 72657376 		.ascii	"resvd41C\000"
 4820      64343143 
 4820      00
 4821              	.LASF291:
 4822 061f 2E2E2F63 		.ascii	"../common/usbdetail.c\000"
 4822      6F6D6D6F 
 4822      6E2F7573 
 4822      62646574 
ARM GAS  /tmp/ccg6gN3r.s 			page 91


 4822      61696C2E 
 4823              	.LASF90:
 4824 0635 6570306E 		.ascii	"ep0next\000"
 4824      65787400 
 4825              	.LASF249:
 4826 063d 69717565 		.ascii	"iqueue\000"
 4826      756500
 4827              	.LASF196:
 4828 0644 72657376 		.ascii	"resvd830\000"
 4828      64383330 
 4828      00
 4829              	.LASF129:
 4830 064d 75736265 		.ascii	"usbepcallback_t\000"
 4830      7063616C 
 4830      6C626163 
 4830      6B5F7400 
 4831              	.LASF289:
 4832 065d 6462675F 		.ascii	"dbg_check_unlock_from_isr\000"
 4832      63686563 
 4832      6B5F756E 
 4832      6C6F636B 
 4832      5F66726F 
 4833              	.LASF201:
 4834 0677 72657376 		.ascii	"resvd880\000"
 4834      64383830 
 4834      00
 4835              	.LASF280:
 4836 0680 49544D5F 		.ascii	"ITM_RxBuffer\000"
 4836      52784275 
 4836      66666572 
 4836      00
 4837              	.LASF199:
 4838 068d 72657376 		.ascii	"resvd83C\000"
 4838      64383343 
 4838      00
 4839              	.LASF79:
 4840 0696 716E6F74 		.ascii	"qnotify_t\000"
 4840      6966795F 
 4840      7400
 4841              	.LASF42:
 4842 06a0 705F7761 		.ascii	"p_waiting\000"
 4842      6974696E 
 4842      6700
 4843              	.LASF248:
 4844 06aa 6576656E 		.ascii	"event\000"
 4844      7400
 4845              	.LASF38:
 4846 06b0 705F666C 		.ascii	"p_flags\000"
 4846      61677300 
 4847              	.LASF152:
 4848 06b8 444F4550 		.ascii	"DOEPTSIZ\000"
 4848      5453495A 
 4848      00
 4849              	.LASF258:
 4850 06c1 72656164 		.ascii	"read\000"
 4850      00
 4851              	.LASF178:
ARM GAS  /tmp/ccg6gN3r.s 			page 92


 4852 06c6 4841494E 		.ascii	"HAINT\000"
 4852      5400
 4853              	.LASF0:
 4854 06cc 756E7369 		.ascii	"unsigned int\000"
 4854      676E6564 
 4854      20696E74 
 4854      00
 4855              	.LASF242:
 4856 06d9 55534243 		.ascii	"USBConfig\000"
 4856      6F6E6669 
 4856      6700
 4857              	.LASF246:
 4858 06e3 73647573 		.ascii	"sdustate_t\000"
 4858      74617465 
 4858      5F7400
 4859              	.LASF99:
 4860 06ee 74787065 		.ascii	"txpending\000"
 4860      6E64696E 
 4860      6700
 4861              	.LASF48:
 4862 06f8 705F6D70 		.ascii	"p_mpool\000"
 4862      6F6F6C00 
 4863              	.LASF207:
 4864 0700 73746D33 		.ascii	"stm32_otg_t\000"
 4864      325F6F74 
 4864      675F7400 
 4865              	.LASF39:
 4866 070c 705F7265 		.ascii	"p_refs\000"
 4866      667300
 4867              	.LASF236:
 4868 0713 73657475 		.ascii	"setup_buf\000"
 4868      705F6275 
 4868      6600
 4869              	.LASF205:
 4870 071d 72657376 		.ascii	"resvdE04\000"
 4870      64453034 
 4870      00
 4871              	.LASF50:
 4872 0726 54687265 		.ascii	"ThreadsList\000"
 4872      6164734C 
 4872      69737400 
 4873              	.LASF182:
 4874 0732 72657376 		.ascii	"resvd444\000"
 4874      64343434 
 4874      00
 4875              	.LASF230:
 4876 073b 6F75745F 		.ascii	"out_cb\000"
 4876      636200
 4877              	.LASF255:
 4878 0742 53657269 		.ascii	"SerialUSBConfig\000"
 4878      616C5553 
 4878      42436F6E 
 4878      66696700 
 4879              	.LASF82:
 4880 0752 55534244 		.ascii	"USBDriver\000"
 4880      72697665 
 4880      7200
ARM GAS  /tmp/ccg6gN3r.s 			page 93


 4881              	.LASF179:
 4882 075c 4841494E 		.ascii	"HAINTMSK\000"
 4882      544D534B 
 4882      00
 4883              	.LASF26:
 4884 0765 666C6167 		.ascii	"flagsmask_t\000"
 4884      736D6173 
 4884      6B5F7400 
 4885              	.LASF231:
 4886 0771 696E5F6D 		.ascii	"in_maxsize\000"
 4886      61787369 
 4886      7A6500
 4887              	.LASF160:
 4888 077c 47494E54 		.ascii	"GINTMSK\000"
 4888      4D534B00 
 4889              	.LASF41:
 4890 0784 705F7469 		.ascii	"p_time\000"
 4890      6D6500
 4891              	.LASF270:
 4892 078b 76636F6D 		.ascii	"vcom_string0\000"
 4892      5F737472 
 4892      696E6730 
 4892      00
 4893              	.LASF234:
 4894 0798 6F75745F 		.ascii	"out_state\000"
 4894      73746174 
 4894      6500
 4895              	.LASF247:
 4896 07a2 53657269 		.ascii	"SerialUSBDriver\000"
 4896      616C5553 
 4896      42447269 
 4896      76657200 
 4897              	.LASF47:
 4898 07b2 705F7265 		.ascii	"p_realprio\000"
 4898      616C7072 
 4898      696F00
 4899              	.LASF112:
 4900 07bd 5553425F 		.ascii	"USB_EP0_WAITING_TX0\000"
 4900      4550305F 
 4900      57414954 
 4900      494E475F 
 4900      54583000 
 4901              	.LASF97:
 4902 07d1 6F746770 		.ascii	"otgparams\000"
 4902      6172616D 
 4902      7300
 4903              	.LASF104:
 4904 07db 5553425F 		.ascii	"USB_UNINIT\000"
 4904      554E494E 
 4904      495400
 4905              	.LASF226:
 4906 07e6 5553424F 		.ascii	"USBOutEndpointState\000"
 4906      7574456E 
 4906      64706F69 
 4906      6E745374 
 4906      61746500 
 4907              	.LASF203:
ARM GAS  /tmp/ccg6gN3r.s 			page 94


 4908 07fa 72657376 		.ascii	"resvdD00\000"
 4908      64443030 
 4908      00
 4909              	.LASF6:
 4910 0803 6C6F6E67 		.ascii	"long long unsigned int\000"
 4910      206C6F6E 
 4910      6720756E 
 4910      7369676E 
 4910      65642069 
 4911              	.LASF170:
 4912 081a 48505458 		.ascii	"HPTXFSIZ\000"
 4912      4653495A 
 4912      00
 4913              	.LASF34:
 4914 0823 705F6F6C 		.ascii	"p_older\000"
 4914      64657200 
 4915              	.LASF13:
 4916 082b 75696E74 		.ascii	"uint16_t\000"
 4916      31365F74 
 4916      00
 4917              	.LASF135:
 4918 0834 4843494E 		.ascii	"HCINT\000"
 4918      5400
 4919              	.LASF214:
 4920 083a 6C696E65 		.ascii	"linear\000"
 4920      617200
 4921              	.LASF24:
 4922 0841 6D73675F 		.ascii	"msg_t\000"
 4922      7400
 4923              	.LASF185:
 4924 0847 4443544C 		.ascii	"DCTL\000"
 4924      00
 4925              	.LASF237:
 4926 084c 55534245 		.ascii	"USBEndpointConfig\000"
 4926      6E64706F 
 4926      696E7443 
 4926      6F6E6669 
 4926      6700
 4927              	.LASF268:
 4928 085e 76636F6D 		.ascii	"vcom_configuration_descriptor_data\000"
 4928      5F636F6E 
 4928      66696775 
 4928      72617469 
 4928      6F6E5F64 
 4929              	.LASF136:
 4930 0881 4843494E 		.ascii	"HCINTMSK\000"
 4930      544D534B 
 4930      00
 4931              	.LASF223:
 4932 088a 72787175 		.ascii	"rxqueued\000"
 4932      65756564 
 4932      00
 4933              	.LASF283:
 4934 0893 75736263 		.ascii	"usbcfg\000"
 4934      666700
 4935              	.LASF22:
 4936 089a 74736C69 		.ascii	"tslices_t\000"
ARM GAS  /tmp/ccg6gN3r.s 			page 95


 4936      6365735F 
 4936      7400
 4937              	.LASF155:
 4938 08a4 474F5447 		.ascii	"GOTGINT\000"
 4938      494E5400 
 4939              	.LASF286:
 4940 08ac 75736249 		.ascii	"usbInitEndpointI\000"
 4940      6E697445 
 4940      6E64706F 
 4940      696E7449 
 4940      00
 4941              	.LASF215:
 4942 08bd 71756575 		.ascii	"queue\000"
 4942      6500
 4943              	.LASF282:
 4944 08c3 5344555F 		.ascii	"SDU_PSAS\000"
 4944      50534153 
 4944      00
 4945              	.LASF222:
 4946 08cc 72787175 		.ascii	"rxqueue\000"
 4946      65756500 
 4947              	.LASF191:
 4948 08d4 4441494E 		.ascii	"DAINTMSK\000"
 4948      544D534B 
 4948      00
 4949              	.LASF194:
 4950 08dd 44564255 		.ascii	"DVBUSDIS\000"
 4950      53444953 
 4950      00
 4951              	.LASF149:
 4952 08e6 73746D33 		.ascii	"stm32_otg_in_ep_t\000"
 4952      325F6F74 
 4952      675F696E 
 4952      5F65705F 
 4952      7400
 4953              	.LASF209:
 4954 08f8 6F74675F 		.ascii	"otg_ram_size\000"
 4954      72616D5F 
 4954      73697A65 
 4954      00
 4955              	.LASF120:
 4956 0905 5553425F 		.ascii	"USB_EVENT_CONFIGURED\000"
 4956      4556454E 
 4956      545F434F 
 4956      4E464947 
 4956      55524544 
 4957              	.LASF206:
 4958 091a 4649464F 		.ascii	"FIFO\000"
 4958      00
 4959              	.LASF71:
 4960 091f 715F7761 		.ascii	"q_waiting\000"
 4960      6974696E 
 4960      6700
 4961              	.LASF19:
 4962 0929 746D6F64 		.ascii	"tmode_t\000"
 4962      655F7400 
 4963              	.LASF263:
ARM GAS  /tmp/ccg6gN3r.s 			page 96


 4964 0931 64747970 		.ascii	"dtype\000"
 4964      6500
 4965              	.LASF132:
 4966 0937 75736267 		.ascii	"usbgetdescriptor_t\000"
 4966      65746465 
 4966      73637269 
 4966      70746F72 
 4966      5F7400
 4967              	.LASF102:
 4968 094a 77615F70 		.ascii	"wa_pump\000"
 4968      756D7000 
 4969              	.LASF87:
 4970 0952 696E5F70 		.ascii	"in_params\000"
 4970      6172616D 
 4970      7300
 4971              	.LASF250:
 4972 095c 6F717565 		.ascii	"oqueue\000"
 4972      756500
 4973              	.LASF3:
 4974 0963 73686F72 		.ascii	"short int\000"
 4974      7420696E 
 4974      7400
 4975              	.LASF16:
 4976 096d 75696E74 		.ascii	"uint64_t\000"
 4976      36345F74 
 4976      00
 4977              	.LASF219:
 4978 0976 6D6F6465 		.ascii	"mode\000"
 4978      00
 4979              	.LASF265:
 4980 097b 6C616E67 		.ascii	"lang\000"
 4980      00
 4981              	.LASF118:
 4982 0980 5553425F 		.ascii	"USB_EVENT_RESET\000"
 4982      4556454E 
 4982      545F5245 
 4982      53455400 
 4983              	.LASF138:
 4984 0990 72657376 		.ascii	"resvd14\000"
 4984      64313400 
 4985              	.LASF139:
 4986 0998 72657376 		.ascii	"resvd18\000"
 4986      64313800 
 4987              	.LASF147:
 4988 09a0 44545846 		.ascii	"DTXFSTS\000"
 4988      53545300 
 4989              	.LASF213:
 4990 09a8 74787175 		.ascii	"txqueue\000"
 4990      65756500 
 4991              	.LASF148:
 4992 09b0 72657376 		.ascii	"resvd1C\000"
 4992      64314300 
 4993              	.LASF188:
 4994 09b8 44494550 		.ascii	"DIEPMSK\000"
 4994      4D534B00 
 4995              	.LASF17:
 4996 09c0 626F6F6C 		.ascii	"bool_t\000"
ARM GAS  /tmp/ccg6gN3r.s 			page 97


 4996      5F7400
 4997              	.LASF243:
 4998 09c7 5344555F 		.ascii	"SDU_UNINIT\000"
 4998      554E494E 
 4998      495400
 4999              	.LASF140:
 5000 09d2 72657376 		.ascii	"resvd1c\000"
 5000      64316300 
 5001              	.LASF131:
 5002 09da 75736272 		.ascii	"usbreqhandler_t\000"
 5002      65716861 
 5002      6E646C65 
 5002      725F7400 
 5003              	.LASF142:
 5004 09ea 44494550 		.ascii	"DIEPCTL\000"
 5004      43544C00 
 5005              	.LASF128:
 5006 09f2 75736263 		.ascii	"usbcallback_t\000"
 5006      616C6C62 
 5006      61636B5F 
 5006      7400
 5007              	.LASF28:
 5008 0a00 54687265 		.ascii	"Thread\000"
 5008      616400
 5009              	.LASF159:
 5010 0a07 47494E54 		.ascii	"GINTSTS\000"
 5010      53545300 
 5011              	.LASF266:
 5012 0a0f 76636F6D 		.ascii	"vcom_device_descriptor_data\000"
 5012      5F646576 
 5012      6963655F 
 5012      64657363 
 5012      72697074 
 5013              	.LASF144:
 5014 0a2b 44494550 		.ascii	"DIEPINT\000"
 5014      494E5400 
 5015              	.LASF165:
 5016 0a33 484E5054 		.ascii	"HNPTXSTS\000"
 5016      58535453 
 5016      00
 5017              	.LASF281:
 5018 0a3c 55534244 		.ascii	"USBD1\000"
 5018      3100
 5019              	.LASF21:
 5020 0a42 74726566 		.ascii	"trefs_t\000"
 5020      735F7400 
 5021              	.LASF241:
 5022 0a4a 736F665F 		.ascii	"sof_cb\000"
 5022      636200
 5023              	.LASF59:
 5024 0a51 4576656E 		.ascii	"EventListener\000"
 5024      744C6973 
 5024      74656E65 
 5024      7200
 5025              	.LASF166:
 5026 0a5f 72657376 		.ascii	"resvd30\000"
 5026      64333000 
ARM GAS  /tmp/ccg6gN3r.s 			page 98


 5027              	.LASF202:
 5028 0a67 72657376 		.ascii	"resvd8C0\000"
 5028      64384330 
 5028      00
 5029              	.LASF167:
 5030 0a70 72657376 		.ascii	"resvd34\000"
 5030      64333400 
 5031              	.LASF15:
 5032 0a78 75696E74 		.ascii	"uint32_t\000"
 5032      33325F74 
 5032      00
 5033              	.LASF103:
 5034 0a81 75736265 		.ascii	"usbep_t\000"
 5034      705F7400 
 5035              	.LASF244:
 5036 0a89 5344555F 		.ascii	"SDU_STOP\000"
 5036      53544F50 
 5036      00
 5037              	.LASF49:
 5038 0a92 54687265 		.ascii	"ThreadsQueue\000"
 5038      61647351 
 5038      75657565 
 5038      00
 5039              	.LASF253:
 5040 0a9f 62756C6B 		.ascii	"bulk_out\000"
 5040      5F6F7574 
 5040      00
 5041              	.LASF121:
 5042 0aa8 5553425F 		.ascii	"USB_EVENT_SUSPEND\000"
 5042      4556454E 
 5042      545F5355 
 5042      5350454E 
 5042      4400
 5043              	.LASF284:
 5044 0aba 73657275 		.ascii	"serusbcfg\000"
 5044      73626366 
 5044      6700
 5045              	.LASF66:
 5046 0ac4 7264796D 		.ascii	"rdymsg\000"
 5046      736700
 5047              	.LASF4:
 5048 0acb 73686F72 		.ascii	"short unsigned int\000"
 5048      7420756E 
 5048      7369676E 
 5048      65642069 
 5048      6E7400
 5049              	.LASF285:
 5050 0ade 7573625F 		.ascii	"usb_event\000"
 5050      6576656E 
 5050      7400
 5051              	.LASF186:
 5052 0ae8 44535453 		.ascii	"DSTS\000"
 5052      00
 5053              	.LASF239:
 5054 0aed 6765745F 		.ascii	"get_descriptor_cb\000"
 5054      64657363 
 5054      72697074 
ARM GAS  /tmp/ccg6gN3r.s 			page 99


 5054      6F725F63 
 5054      6200
 5055              	.LASF287:
 5056 0aff 73647543 		.ascii	"sduConfigureHookI\000"
 5056      6F6E6669 
 5056      67757265 
 5056      486F6F6B 
 5056      4900
 5057              	.LASF80:
 5058 0b11 496E7075 		.ascii	"InputQueue\000"
 5058      74517565 
 5058      756500
 5059              	.LASF88:
 5060 0b1c 6F75745F 		.ascii	"out_params\000"
 5060      70617261 
 5060      6D7300
 5061              	.LASF36:
 5062 0b27 705F7374 		.ascii	"p_stklimit\000"
 5062      6B6C696D 
 5062      697400
 5063              	.LASF177:
 5064 0b32 48505458 		.ascii	"HPTXSTS\000"
 5064      53545300 
 5065              	.LASF62:
 5066 0b3a 656C5F6D 		.ascii	"el_mask\000"
 5066      61736B00 
 5067              	.LASF169:
 5068 0b42 72657376 		.ascii	"resvd58\000"
 5068      64353800 
 5069              	.LASF115:
 5070 0b4a 5553425F 		.ascii	"USB_EP0_SENDING_STS\000"
 5070      4550305F 
 5070      53454E44 
 5070      494E475F 
 5070      53545300 
 5071              	.LASF174:
 5072 0b5e 48464952 		.ascii	"HFIR\000"
 5072      00
 5073              	.LASF113:
 5074 0b63 5553425F 		.ascii	"USB_EP0_WAITING_STS\000"
 5074      4550305F 
 5074      57414954 
 5074      494E475F 
 5074      53545300 
 5075              	.LASF35:
 5076 0b77 705F6E61 		.ascii	"p_name\000"
 5076      6D6500
 5077              	.LASF58:
 5078 0b7e 6D5F6E65 		.ascii	"m_next\000"
 5078      787400
 5079              	.LASF98:
 5080 0b85 706D6E65 		.ascii	"pmnext\000"
 5080      787400
 5081              	.LASF216:
 5082 0b8c 74787175 		.ascii	"txqueued\000"
 5082      65756564 
 5082      00
ARM GAS  /tmp/ccg6gN3r.s 			page 100


 5083              	.LASF157:
 5084 0b95 47555342 		.ascii	"GUSBCFG\000"
 5084      43464700 
 5085              	.LASF114:
 5086 0b9d 5553425F 		.ascii	"USB_EP0_RX\000"
 5086      4550305F 
 5086      525800
 5087              	.LASF271:
 5088 0ba8 76636F6D 		.ascii	"vcom_string1\000"
 5088      5F737472 
 5088      696E6731 
 5088      00
 5089              	.LASF172:
 5090 0bb5 72657376 		.ascii	"resvd140\000"
 5090      64313430 
 5090      00
 5091              	.LASF273:
 5092 0bbe 76636F6D 		.ascii	"vcom_string3\000"
 5092      5F737472 
 5092      696E6733 
 5092      00
 5093              	.LASF44:
 5094 0bcb 705F6D73 		.ascii	"p_msg\000"
 5094      6700
 5095              	.LASF61:
 5096 0bd1 656C5F6C 		.ascii	"el_listener\000"
 5096      69737465 
 5096      6E657200 
 5097              	.LASF37:
 5098 0bdd 705F7374 		.ascii	"p_state\000"
 5098      61746500 
 5099              		.ident	"GCC: (crosstool-NG 1.17.0 - PSAS ST32F4 GFE) 4.7.2"
ARM GAS  /tmp/ccg6gN3r.s 			page 101


DEFINED SYMBOLS
                            *ABS*:0000000000000000 usbdetail.c
     /tmp/ccg6gN3r.s:21     .text.get_descriptor:0000000000000000 $t
     /tmp/ccg6gN3r.s:27     .text.get_descriptor:0000000000000000 get_descriptor
     /tmp/ccg6gN3r.s:74     .text.get_descriptor:0000000000000028 $d
     /tmp/ccg6gN3r.s:81     .text.usb_event:0000000000000000 $t
     /tmp/ccg6gN3r.s:87     .text.usb_event:0000000000000000 usb_event
     /tmp/ccg6gN3r.s:156    .text.usb_event:000000000000003c $d
     /tmp/ccg6gN3r.s:493    .rodata.serusbcfg:0000000000000000 serusbcfg
     /tmp/ccg6gN3r.s:298    .rodata.usbcfg:0000000000000000 usbcfg
     /tmp/ccg6gN3r.s:308    .bss.SDU_PSAS:0000000000000000 SDU_PSAS
     /tmp/ccg6gN3r.s:169    .rodata.ep1config:0000000000000000 $d
     /tmp/ccg6gN3r.s:173    .rodata.ep1config:0000000000000000 ep1config
     /tmp/ccg6gN3r.s:261    .bss.ep1instate:0000000000000000 ep1instate
     /tmp/ccg6gN3r.s:314    .bss.ep1outstate:0000000000000000 ep1outstate
     /tmp/ccg6gN3r.s:186    .rodata.vcom_configuration_descriptor_data:0000000000000000 $d
     /tmp/ccg6gN3r.s:189    .rodata.vcom_configuration_descriptor_data:0000000000000000 vcom_configuration_descriptor_data
     /tmp/ccg6gN3r.s:258    .bss.ep1instate:0000000000000000 $d
     /tmp/ccg6gN3r.s:264    .rodata.vcom_configuration_descriptor:0000000000000000 $d
     /tmp/ccg6gN3r.s:268    .rodata.vcom_configuration_descriptor:0000000000000000 vcom_configuration_descriptor
     /tmp/ccg6gN3r.s:272    .rodata.ep2config:0000000000000000 $d
     /tmp/ccg6gN3r.s:276    .rodata.ep2config:0000000000000000 ep2config
     /tmp/ccg6gN3r.s:292    .bss.ep2instate:0000000000000000 ep2instate
     /tmp/ccg6gN3r.s:289    .bss.ep2instate:0000000000000000 $d
     /tmp/ccg6gN3r.s:295    .rodata.usbcfg:0000000000000000 $d
     /tmp/ccg6gN3r.s:304    .bss.SDU_PSAS:0000000000000000 $d
     /tmp/ccg6gN3r.s:311    .bss.ep1outstate:0000000000000000 $d
     /tmp/ccg6gN3r.s:317    .rodata.vcom_string0:0000000000000000 $d
     /tmp/ccg6gN3r.s:320    .rodata.vcom_string0:0000000000000000 vcom_string0
     /tmp/ccg6gN3r.s:326    .rodata.vcom_string1:0000000000000000 $d
     /tmp/ccg6gN3r.s:329    .rodata.vcom_string1:0000000000000000 vcom_string1
     /tmp/ccg6gN3r.s:369    .rodata.vcom_string2:0000000000000000 $d
     /tmp/ccg6gN3r.s:372    .rodata.vcom_string2:0000000000000000 vcom_string2
     /tmp/ccg6gN3r.s:430    .rodata.vcom_string3:0000000000000000 $d
     /tmp/ccg6gN3r.s:433    .rodata.vcom_string3:0000000000000000 vcom_string3
     /tmp/ccg6gN3r.s:453    .rodata.vcom_device_descriptor_data:0000000000000000 $d
     /tmp/ccg6gN3r.s:456    .rodata.vcom_device_descriptor_data:0000000000000000 vcom_device_descriptor_data
     /tmp/ccg6gN3r.s:476    .rodata.vcom_strings:0000000000000000 $d
     /tmp/ccg6gN3r.s:480    .rodata.vcom_strings:0000000000000000 vcom_strings
     /tmp/ccg6gN3r.s:490    .rodata.serusbcfg:0000000000000000 $d
     /tmp/ccg6gN3r.s:500    .rodata.vcom_device_descriptor:0000000000000000 $d
     /tmp/ccg6gN3r.s:504    .rodata.vcom_device_descriptor:0000000000000000 vcom_device_descriptor
                     .debug_frame:0000000000000010 $d
     /tmp/ccg6gN3r.s:80     .text.get_descriptor:0000000000000034 $t
     /tmp/ccg6gN3r.s:168    .text.usb_event:0000000000000048 $t

UNDEFINED SYMBOLS
dbg_check_lock_from_isr
usbInitEndpointI
sduConfigureHookI
dbg_check_unlock_from_isr
sduDataTransmitted
sduDataReceived
sduInterruptTransmitted
sduRequestsHook
USBD1
