ARM GAS  /tmp/cc0bic3b.s 			page 1


   1              		.syntax unified
   2              		.cpu cortex-m4
   3              		.eabi_attribute 27, 3
   4              		.eabi_attribute 28, 1
   5              		.fpu fpv4-sp-d16
   6              		.eabi_attribute 20, 1
   7              		.eabi_attribute 21, 1
   8              		.eabi_attribute 23, 3
   9              		.eabi_attribute 24, 1
  10              		.eabi_attribute 25, 1
  11              		.eabi_attribute 26, 1
  12              		.eabi_attribute 30, 2
  13              		.eabi_attribute 34, 1
  14              		.eabi_attribute 18, 4
  15              		.thumb
  16              		.file	"ADIS16405.c"
  17              		.text
  18              	.Ltext0:
  19              		.cfi_sections	.debug_frame
  20              		.section	.text.adis_reset,"ax",%progbits
  21              		.align	2
  22              		.p2align 4,,15
  23              		.global	adis_reset
  24              		.thumb
  25              		.thumb_func
  26              		.type	adis_reset, %function
  27              	adis_reset:
  28              	.LFB121:
  29              		.file 1 "../../devices/ADIS16405.c"
  30              		.loc 1 116 0
  31              		.cfi_startproc
  32              		@ args = 0, pretend = 0, frame = 0
  33              		@ frame_needed = 0, uses_anonymous_args = 0
  34 0000 38B5     		push	{r3, r4, r5, lr}
  35              	.LCFI0:
  36              		.cfi_def_cfa_offset 16
  37              		.cfi_offset 3, -16
  38              		.cfi_offset 4, -12
  39              		.cfi_offset 5, -8
  40              		.cfi_offset 14, -4
  41              		.loc 1 117 0
  42 0002 40F20003 		movw	r3, #:lower16:adis_connections
  43 0006 C0F20003 		movt	r3, #:upper16:adis_connections
  44 000a 0125     		movs	r5, #1
  45 000c 9A8C     		ldrh	r2, [r3, #36]
  46 000e 1C6A     		ldr	r4, [r3, #32]
  47 0010 05FA02F5 		lsl	r5, r5, r2
  48 0014 ADB2     		uxth	r5, r5
  49              		.loc 1 118 0
  50 0016 4FF4FA70 		mov	r0, #500
  51              		.loc 1 117 0
  52 001a 6583     		strh	r5, [r4, #26]	@ movhi
  53              		.loc 1 118 0
  54 001c FFF7FEFF 		bl	chThdSleep
  55              	.LVL0:
  56              		.loc 1 120 0
  57 0020 4FF4FA70 		mov	r0, #500
ARM GAS  /tmp/cc0bic3b.s 			page 2


  58              		.loc 1 119 0
  59 0024 2583     		strh	r5, [r4, #24]	@ movhi
  60              		.loc 1 121 0
  61 0026 BDE83840 		pop	{r3, r4, r5, lr}
  62              		.loc 1 120 0
  63 002a FFF7FEBF 		b	chThdSleep
  64              	.LVL1:
  65              		.cfi_endproc
  66              	.LFE121:
  67              		.size	adis_reset, .-adis_reset
  68              		.section	.text.adis_init,"ax",%progbits
  69              		.align	2
  70              		.p2align 4,,15
  71              		.global	adis_init
  72              		.thumb
  73              		.thumb_func
  74              		.type	adis_init, %function
  75              	adis_init:
  76              	.LFB122:
  77              		.loc 1 126 0
  78              		.cfi_startproc
  79              		@ args = 0, pretend = 0, frame = 0
  80              		@ frame_needed = 0, uses_anonymous_args = 0
  81              		@ link register save eliminated.
  82              	.LVL2:
  83 0000 30B4     		push	{r4, r5}
  84              	.LCFI1:
  85              		.cfi_def_cfa_offset 8
  86              		.cfi_offset 4, -8
  87              		.cfi_offset 5, -4
  88              		.loc 1 132 0
  89 0002 144C     		ldr	r4, .L8
  90 0004 144B     		ldr	r3, .L8+4
  91 0006 154D     		ldr	r5, .L8+8
  92 0008 6360     		str	r3, [r4, #4]
  93              		.loc 1 133 0
  94 000a 0121     		movs	r1, #1
  95              		.loc 1 135 0
  96 000c 0022     		movs	r2, #0
  97              		.loc 1 133 0
  98 000e 2172     		strb	r1, [r4, #8]
  99              		.loc 1 134 0
 100 0010 5621     		movs	r1, #86
 101              		.loc 1 136 0
 102 0012 1346     		mov	r3, r2
 103              		.loc 1 134 0
 104 0014 6172     		strb	r1, [r4, #9]
 105              		.loc 1 135 0
 106 0016 84F85A20 		strb	r2, [r4, #90]
 107              		.loc 1 136 0
 108 001a 84F85B20 		strb	r2, [r4, #91]
 109              	.LVL3:
 110              	.L3:
 111              		.loc 1 126 0 discriminator 2
 112 001e E018     		adds	r0, r4, r3
 113 0020 E918     		adds	r1, r5, r3
 114 0022 0133     		adds	r3, r3, #1
ARM GAS  /tmp/cc0bic3b.s 			page 3


 115              		.loc 1 138 0 discriminator 2
 116 0024 102B     		cmp	r3, #16
 117              		.loc 1 139 0 discriminator 2
 118 0026 8272     		strb	r2, [r0, #10]
 119              		.loc 1 140 0 discriminator 2
 120 0028 CA70     		strb	r2, [r1, #3]
 121              		.loc 1 138 0 discriminator 2
 122 002a F8D1     		bne	.L3
 123              		.loc 1 138 0 is_stmt 0
 124 002c 0023     		movs	r3, #0
 125              		.loc 1 143 0 is_stmt 1
 126 002e A522     		movs	r2, #165
 127              	.L4:
 128              		.loc 1 126 0 discriminator 2
 129 0030 E018     		adds	r0, r4, r3
 130 0032 E918     		adds	r1, r5, r3
 131 0034 0133     		adds	r3, r3, #1
 132              		.loc 1 142 0 discriminator 2
 133 0036 402B     		cmp	r3, #64
 134              		.loc 1 143 0 discriminator 2
 135 0038 8276     		strb	r2, [r0, #26]
 136              		.loc 1 144 0 discriminator 2
 137 003a CA74     		strb	r2, [r1, #19]
 138              		.loc 1 142 0 discriminator 2
 139 003c F8D1     		bne	.L4
 140              		.loc 1 146 0
 141 003e 0848     		ldr	r0, .L8+12
 142              		.loc 1 147 0
 143 0040 0849     		ldr	r1, .L8+16
 144              		.loc 1 148 0
 145 0042 094A     		ldr	r2, .L8+20
 146              		.loc 1 149 0
 147 0044 094B     		ldr	r3, .L8+24
 148              		.loc 1 146 0
 149 0046 0060     		str	r0, [r0, #0]
 150              		.loc 1 147 0
 151 0048 0960     		str	r1, [r1, #0]
 152              		.loc 1 148 0
 153 004a 1260     		str	r2, [r2, #0]
 154              		.loc 1 149 0
 155 004c 1B60     		str	r3, [r3, #0]
 156              		.loc 1 150 0
 157 004e 30BC     		pop	{r4, r5}
 158 0050 7047     		bx	lr
 159              	.L9:
 160 0052 00BF     		.align	2
 161              	.L8:
 162 0054 00000000 		.word	.LANCHOR0
 163 0058 00000000 		.word	SPID1
 164 005c 00000000 		.word	.LANCHOR1
 165 0060 00000000 		.word	.LANCHOR2
 166 0064 00000000 		.word	.LANCHOR3
 167 0068 00000000 		.word	.LANCHOR4
 168 006c 00000000 		.word	.LANCHOR5
 169              		.cfi_endproc
 170              	.LFE122:
 171              		.size	adis_init, .-adis_init
ARM GAS  /tmp/cc0bic3b.s 			page 4


 172              		.section	.text.adis_tstall_delay,"ax",%progbits
 173              		.align	2
 174              		.p2align 4,,15
 175              		.global	adis_tstall_delay
 176              		.thumb
 177              		.thumb_func
 178              		.type	adis_tstall_delay, %function
 179              	adis_tstall_delay:
 180              	.LFB123:
 181              		.loc 1 155 0
 182              		.cfi_startproc
 183              		@ args = 0, pretend = 0, frame = 8
 184              		@ frame_needed = 0, uses_anonymous_args = 0
 185              		@ link register save eliminated.
 186 0000 82B0     		sub	sp, sp, #8
 187              	.LCFI2:
 188              		.cfi_def_cfa_offset 8
 189              		.loc 1 165 0
 190 0002 0023     		movs	r3, #0
 191 0004 0193     		str	r3, [sp, #4]
 192              	.LVL4:
 193              		.loc 1 166 0
 194 0006 0093     		str	r3, [sp, #0]
 195              	.LVL5:
 196 0008 009B     		ldr	r3, [sp, #0]
 197 000a 632B     		cmp	r3, #99
 198 000c 08D8     		bhi	.L10
 199              	.L13:
 200              		.loc 1 167 0
 201 000e 019B     		ldr	r3, [sp, #4]
 202 0010 0133     		adds	r3, r3, #1
 203              	.LVL6:
 204 0012 0193     		str	r3, [sp, #4]
 205              	.LVL7:
 206              		.loc 1 166 0
 207 0014 009B     		ldr	r3, [sp, #0]
 208              	.LVL8:
 209 0016 0133     		adds	r3, r3, #1
 210              	.LVL9:
 211 0018 0093     		str	r3, [sp, #0]
 212              	.LVL10:
 213 001a 009B     		ldr	r3, [sp, #0]
 214              	.LVL11:
 215 001c 632B     		cmp	r3, #99
 216 001e F6D9     		bls	.L13
 217              	.L10:
 218              		.loc 1 169 0
 219 0020 02B0     		add	sp, sp, #8
 220 0022 7047     		bx	lr
 221              		.cfi_endproc
 222              	.LFE123:
 223              		.size	adis_tstall_delay, .-adis_tstall_delay
 224 0024 AFF30080 		.section	.text.adis_release_bus,"ax",%progbits
 224      AFF30080 
 224      AFF30080 
 225              		.align	2
 226              		.p2align 4,,15
ARM GAS  /tmp/cc0bic3b.s 			page 5


 227              		.global	adis_release_bus
 228              		.thumb
 229              		.thumb_func
 230              		.type	adis_release_bus, %function
 231              	adis_release_bus:
 232              	.LFB124:
 233              		.loc 1 175 0
 234              		.cfi_startproc
 235              		@ args = 0, pretend = 0, frame = 0
 236              		@ frame_needed = 0, uses_anonymous_args = 0
 237              		@ link register save eliminated.
 238              	.LVL12:
 239              		.loc 1 177 0
 240 0000 40F20003 		movw	r3, #:lower16:.LANCHOR0
 241 0004 C0F20003 		movt	r3, #:upper16:.LANCHOR0
 242 0008 5868     		ldr	r0, [r3, #4]
 243              	.LVL13:
 244              		.loc 1 178 0
 245              		.loc 1 177 0
 246 000a FFF7FEBF 		b	spiReleaseBus
 247              	.LVL14:
 248              		.cfi_endproc
 249              	.LFE124:
 250              		.size	adis_release_bus, .-adis_release_bus
 251 000e 00BF     		.section	.text.adis_spi_cb,"ax",%progbits
 252              		.align	2
 253              		.p2align 4,,15
 254              		.global	adis_spi_cb
 255              		.thumb
 256              		.thumb_func
 257              		.type	adis_spi_cb, %function
 258              	adis_spi_cb:
 259              	.LFB125:
 260              		.loc 1 188 0
 261              		.cfi_startproc
 262              		@ args = 0, pretend = 0, frame = 0
 263              		@ frame_needed = 0, uses_anonymous_args = 0
 264              	.LVL15:
 265 0000 F8B5     		push	{r3, r4, r5, r6, r7, lr}
 266              	.LCFI3:
 267              		.cfi_def_cfa_offset 24
 268              		.cfi_offset 3, -24
 269              		.cfi_offset 4, -20
 270              		.cfi_offset 5, -16
 271              		.cfi_offset 6, -12
 272              		.cfi_offset 7, -8
 273              		.cfi_offset 14, -4
 274              		.loc 1 188 0
 275 0002 0546     		mov	r5, r0
 276              	.LBB8:
 277              		.loc 1 189 0
 278 0004 2023     		movs	r3, #32
 279              	.LVL16:
 280              	@ 189 "../../devices/ADIS16405.c" 1
 281 0006 83F31188 		msr     BASEPRI, r3
 282              	@ 0 "" 2
 283              	.LVL17:
ARM GAS  /tmp/cc0bic3b.s 			page 6


 284              		.thumb
 285              	.LBE8:
 286              		.loc 1 193 0
 287 000a 1E4C     		ldr	r4, .L30
 288              		.loc 1 189 0
 289 000c FFF7FEFF 		bl	dbg_check_lock_from_isr
 290              	.LVL18:
 291              		.loc 1 193 0
 292 0010 6368     		ldr	r3, [r4, #4]
 293 0012 AB42     		cmp	r3, r5
 294 0014 02D0     		beq	.L17
 295              		.loc 1 193 0 is_stmt 0 discriminator 1
 296 0016 1C48     		ldr	r0, .L30+4
 297 0018 FFF7FEFF 		bl	chDbgPanic
 298              	.LVL19:
 299              	.L17:
 300              		.loc 1 194 0 is_stmt 1
 301 001c 237A     		ldrb	r3, [r4, #8]	@ zero_extendqisi2
 302 001e 022B     		cmp	r3, #2
 303 0020 2BD0     		beq	.L18
 304              		.loc 1 197 0 discriminator 1
 305 0022 184B     		ldr	r3, .L30
 306 0024 194A     		ldr	r2, .L30+8
 307 0026 5E78     		ldrb	r6, [r3, #1]	@ zero_extendqisi2
 308 0028 0023     		movs	r3, #0
 309 002a 3EB1     		cbz	r6, .L20
 310              	.LVL20:
 311              	.L19:
 312              		.loc 1 188 0 discriminator 2
 313 002c E118     		adds	r1, r4, r3
 314 002e D018     		adds	r0, r2, r3
 315 0030 0133     		adds	r3, r3, #1
 316              		.loc 1 198 0 discriminator 2
 317 0032 8D7A     		ldrb	r5, [r1, #10]	@ zero_extendqisi2
 318              		.loc 1 197 0 discriminator 2
 319 0034 D9B2     		uxtb	r1, r3
 320 0036 B142     		cmp	r1, r6
 321              		.loc 1 198 0 discriminator 2
 322 0038 C570     		strb	r5, [r0, #3]
 323              		.loc 1 197 0 discriminator 2
 324 003a F7D3     		bcc	.L19
 325              	.L20:
 326              	.LVL21:
 327              		.loc 1 200 0 discriminator 1
 328 003c 2778     		ldrb	r7, [r4, #0]	@ zero_extendqisi2
 329 003e 57B1     		cbz	r7, .L22
 330              		.loc 1 188 0
 331 0040 7D1E     		subs	r5, r7, #1
 332 0042 EDB2     		uxtb	r5, r5
 333 0044 0135     		adds	r5, r5, #1
 334 0046 0023     		movs	r3, #0
 335              	.LVL22:
 336              	.L23:
 337              		.loc 1 188 0 is_stmt 0 discriminator 2
 338 0048 E018     		adds	r0, r4, r3
 339 004a D118     		adds	r1, r2, r3
 340              		.loc 1 201 0 is_stmt 1 discriminator 2
ARM GAS  /tmp/cc0bic3b.s 			page 7


 341 004c 807E     		ldrb	r0, [r0, #26]	@ zero_extendqisi2
 342 004e 0133     		adds	r3, r3, #1
 343              		.loc 1 200 0 discriminator 2
 344 0050 AB42     		cmp	r3, r5
 345              		.loc 1 201 0 discriminator 2
 346 0052 C874     		strb	r0, [r1, #19]
 347              		.loc 1 200 0 discriminator 2
 348 0054 F8D1     		bne	.L23
 349              	.L22:
 350              		.loc 1 203 0
 351 0056 637A     		ldrb	r3, [r4, #9]	@ zero_extendqisi2
 352              		.loc 1 206 0
 353 0058 0D48     		ldr	r0, .L30+12
 354              		.loc 1 203 0
 355 005a 9370     		strb	r3, [r2, #2]
 356              		.loc 1 206 0
 357 005c 0021     		movs	r1, #0
 358              		.loc 1 204 0
 359 005e 1770     		strb	r7, [r2, #0]
 360              		.loc 1 205 0
 361 0060 5670     		strb	r6, [r2, #1]
 362              		.loc 1 206 0
 363 0062 FFF7FEFF 		bl	chEvtBroadcastFlagsI
 364              	.LVL23:
 365              		.loc 1 207 0
 366 0066 0B48     		ldr	r0, .L30+16
 367 0068 0021     		movs	r1, #0
 368 006a FFF7FEFF 		bl	chEvtBroadcastFlagsI
 369              	.LVL24:
 370              	.L21:
 371              		.loc 1 209 0
 372 006e FFF7FEFF 		bl	dbg_check_unlock_from_isr
 373              	.LVL25:
 374              	.LBB9:
 375 0072 0023     		movs	r3, #0
 376              	.LVL26:
 377              	@ 209 "../../devices/ADIS16405.c" 1
 378 0074 83F31188 		msr     BASEPRI, r3
 379              	@ 0 "" 2
 380              	.LVL27:
 381              		.thumb
 382 0078 F8BD     		pop	{r3, r4, r5, r6, r7, pc}
 383              	.LVL28:
 384              	.L18:
 385              	.LBE9:
 386              		.loc 1 195 0
 387 007a 0748     		ldr	r0, .L30+20
 388 007c 0021     		movs	r1, #0
 389 007e FFF7FEFF 		bl	chEvtBroadcastFlagsI
 390              	.LVL29:
 391 0082 F4E7     		b	.L21
 392              	.L31:
 393              		.align	2
 394              	.L30:
 395 0084 00000000 		.word	.LANCHOR0
 396 0088 00000000 		.word	.LC0
 397 008c 00000000 		.word	.LANCHOR1
ARM GAS  /tmp/cc0bic3b.s 			page 8


 398 0090 00000000 		.word	.LANCHOR4
 399 0094 00000000 		.word	.LANCHOR5
 400 0098 00000000 		.word	.LANCHOR3
 401              		.cfi_endproc
 402              	.LFE125:
 403              		.size	adis_spi_cb, .-adis_spi_cb
 404 009c AFF30080 		.section	.text.adis_newdata_handler,"ax",%progbits
 405              		.align	2
 406              		.p2align 4,,15
 407              		.global	adis_newdata_handler
 408              		.thumb
 409              		.thumb_func
 410              		.type	adis_newdata_handler, %function
 411              	adis_newdata_handler:
 412              	.LFB126:
 413              		.loc 1 214 0
 414              		.cfi_startproc
 415              		@ args = 0, pretend = 0, frame = 72
 416              		@ frame_needed = 0, uses_anonymous_args = 0
 417              	.LVL30:
 418 0000 2DE9F04F 		push	{r4, r5, r6, r7, r8, r9, sl, fp, lr}
 419              	.LCFI4:
 420              		.cfi_def_cfa_offset 36
 421              		.cfi_offset 4, -36
 422              		.cfi_offset 5, -32
 423              		.cfi_offset 6, -28
 424              		.cfi_offset 7, -24
 425              		.cfi_offset 8, -20
 426              		.cfi_offset 9, -16
 427              		.cfi_offset 10, -12
 428              		.cfi_offset 11, -8
 429              		.cfi_offset 14, -4
 430              		.loc 1 217 0
 431 0004 624C     		ldr	r4, .L34
 432              		.loc 1 214 0
 433 0006 93B0     		sub	sp, sp, #76
 434              	.LCFI5:
 435              		.cfi_def_cfa_offset 112
 436              		.loc 1 217 0
 437 0008 6068     		ldr	r0, [r4, #4]
 438              	.LVL31:
 439 000a FFF7FEFF 		bl	spiUnselect
 440              	.LVL32:
 441              		.loc 1 219 0
 442 000e 637A     		ldrb	r3, [r4, #9]	@ zero_extendqisi2
 443 0010 3E2B     		cmp	r3, #62
 444 0012 40F0B880 		bne	.L33
 445              		.loc 1 220 0
 446 0016 5F4A     		ldr	r2, .L34+4
 447 0018 5F4B     		ldr	r3, .L34+8
 448              		.loc 1 224 0
 449 001a D07E     		ldrb	r0, [r2, #27]	@ zero_extendqisi2
 450 001c 92F81C80 		ldrb	r8, [r2, #28]	@ zero_extendqisi2
 451 0020 0590     		str	r0, [sp, #20]
 452              		.loc 1 225 0
 453 0022 507F     		ldrb	r0, [r2, #29]	@ zero_extendqisi2
 454              		.loc 1 224 0
ARM GAS  /tmp/cc0bic3b.s 			page 9


 455 0024 CDF81880 		str	r8, [sp, #24]
 456              		.loc 1 225 0
 457 0028 0790     		str	r0, [sp, #28]
 458 002a 92F81E80 		ldrb	r8, [r2, #30]	@ zero_extendqisi2
 459              		.loc 1 226 0
 460 002e D07F     		ldrb	r0, [r2, #31]	@ zero_extendqisi2
 461              		.loc 1 225 0
 462 0030 CDF82080 		str	r8, [sp, #32]
 463              		.loc 1 226 0
 464 0034 0990     		str	r0, [sp, #36]
 465 0036 92F82080 		ldrb	r8, [r2, #32]	@ zero_extendqisi2
 466              		.loc 1 227 0
 467 003a 92F82100 		ldrb	r0, [r2, #33]	@ zero_extendqisi2
 468              		.loc 1 226 0
 469 003e CDF82880 		str	r8, [sp, #40]
 470              		.loc 1 227 0
 471 0042 0B90     		str	r0, [sp, #44]
 472 0044 92F82280 		ldrb	r8, [r2, #34]	@ zero_extendqisi2
 473              		.loc 1 228 0
 474 0048 92F82300 		ldrb	r0, [r2, #35]	@ zero_extendqisi2
 475              		.loc 1 227 0
 476 004c CDF83080 		str	r8, [sp, #48]
 477              		.loc 1 228 0
 478 0050 0D90     		str	r0, [sp, #52]
 479 0052 92F82480 		ldrb	r8, [r2, #36]	@ zero_extendqisi2
 480              		.loc 1 229 0
 481 0056 92F82500 		ldrb	r0, [r2, #37]	@ zero_extendqisi2
 482              		.loc 1 228 0
 483 005a CDF80C80 		str	r8, [sp, #12]
 484              		.loc 1 229 0
 485 005e 0E90     		str	r0, [sp, #56]
 486 0060 92F82680 		ldrb	r8, [r2, #38]	@ zero_extendqisi2
 487              		.loc 1 230 0
 488 0064 92F82700 		ldrb	r0, [r2, #39]	@ zero_extendqisi2
 489              		.loc 1 220 0
 490 0068 D77C     		ldrb	r7, [r2, #19]	@ zero_extendqisi2
 491 006a 117D     		ldrb	r1, [r2, #20]	@ zero_extendqisi2
 492              		.loc 1 221 0
 493 006c 967D     		ldrb	r6, [r2, #22]	@ zero_extendqisi2
 494              		.loc 1 222 0
 495 006e 92F818C0 		ldrb	ip, [r2, #24]	@ zero_extendqisi2
 496              		.loc 1 223 0
 497 0072 957E     		ldrb	r5, [r2, #26]	@ zero_extendqisi2
 498              		.loc 1 221 0
 499 0074 92F815B0 		ldrb	fp, [r2, #21]	@ zero_extendqisi2
 500              		.loc 1 222 0
 501 0078 92F817A0 		ldrb	sl, [r2, #23]	@ zero_extendqisi2
 502              		.loc 1 223 0
 503 007c 92F81990 		ldrb	r9, [r2, #25]	@ zero_extendqisi2
 504              		.loc 1 229 0
 505 0080 CDF80880 		str	r8, [sp, #8]
 506              		.loc 1 230 0
 507 0084 0F90     		str	r0, [sp, #60]
 508 0086 92F82880 		ldrb	r8, [r2, #40]	@ zero_extendqisi2
 509              		.loc 1 231 0
 510 008a 92F82900 		ldrb	r0, [r2, #41]	@ zero_extendqisi2
 511 008e 92F82A20 		ldrb	r2, [r2, #42]	@ zero_extendqisi2
ARM GAS  /tmp/cc0bic3b.s 			page 10


 512              		.loc 1 230 0
 513 0092 CDF84080 		str	r8, [sp, #64]
 514              		.loc 1 220 0
 515 0096 41EA0721 		orr	r1, r1, r7, lsl #8
 516              		.loc 1 231 0
 517 009a 0192     		str	r2, [sp, #4]
 518              		.loc 1 220 0
 519 009c 0491     		str	r1, [sp, #16]
 520              		.loc 1 224 0
 521 009e 059A     		ldr	r2, [sp, #20]
 522 00a0 0699     		ldr	r1, [sp, #24]
 523              		.loc 1 231 0
 524 00a2 1190     		str	r0, [sp, #68]
 525              		.loc 1 224 0
 526 00a4 41EA0228 		orr	r8, r1, r2, lsl #8
 527              		.loc 1 226 0
 528 00a8 0A98     		ldr	r0, [sp, #40]
 529 00aa 0999     		ldr	r1, [sp, #36]
 530              		.loc 1 227 0
 531 00ac 0C9A     		ldr	r2, [sp, #48]
 532              		.loc 1 221 0
 533 00ae 46EA0B2B 		orr	fp, r6, fp, lsl #8
 534              		.loc 1 223 0
 535 00b2 45EA0929 		orr	r9, r5, r9, lsl #8
 536              		.loc 1 225 0
 537 00b6 079E     		ldr	r6, [sp, #28]
 538 00b8 089D     		ldr	r5, [sp, #32]
 539              		.loc 1 226 0
 540 00ba 40EA0127 		orr	r7, r0, r1, lsl #8
 541              		.loc 1 222 0
 542 00be 4CEA0A2A 		orr	sl, ip, sl, lsl #8
 543              		.loc 1 228 0
 544 00c2 0398     		ldr	r0, [sp, #12]
 545 00c4 0D99     		ldr	r1, [sp, #52]
 546              		.loc 1 225 0
 547 00c6 45EA062C 		orr	ip, r5, r6, lsl #8
 548              		.loc 1 227 0
 549 00ca 0B9D     		ldr	r5, [sp, #44]
 550 00cc 42EA0526 		orr	r6, r2, r5, lsl #8
 551              		.loc 1 228 0
 552 00d0 40EA0125 		orr	r5, r0, r1, lsl #8
 553              		.loc 1 229 0
 554 00d4 029A     		ldr	r2, [sp, #8]
 555 00d6 0E99     		ldr	r1, [sp, #56]
 556 00d8 42EA0120 		orr	r0, r2, r1, lsl #8
 557              		.loc 1 230 0
 558 00dc 0F99     		ldr	r1, [sp, #60]
 559 00de 109A     		ldr	r2, [sp, #64]
 560 00e0 42EA0122 		orr	r2, r2, r1, lsl #8
 561 00e4 0692     		str	r2, [sp, #24]
 562              		.loc 1 231 0
 563 00e6 1199     		ldr	r1, [sp, #68]
 564 00e8 019A     		ldr	r2, [sp, #4]
 565              		.loc 1 221 0
 566 00ea 4FEA8B4B 		lsl	fp, fp, #18
 567              		.loc 1 231 0
 568 00ee 42EA0122 		orr	r2, r2, r1, lsl #8
ARM GAS  /tmp/cc0bic3b.s 			page 11


 569 00f2 0892     		str	r2, [sp, #32]
 570              		.loc 1 221 0
 571 00f4 CDF81CB0 		str	fp, [sp, #28]
 572              		.loc 1 220 0
 573 00f8 049A     		ldr	r2, [sp, #16]
 574              		.loc 1 230 0
 575 00fa DDF818B0 		ldr	fp, [sp, #24]
 576              		.loc 1 220 0
 577 00fe 9204     		lsls	r2, r2, #18
 578              		.loc 1 230 0
 579 0100 4FEA0B51 		lsl	r1, fp, #20
 580              		.loc 1 231 0
 581 0104 DDF820B0 		ldr	fp, [sp, #32]
 582              		.loc 1 220 0
 583 0108 0592     		str	r2, [sp, #20]
 584              		.loc 1 231 0
 585 010a 4FEA0B52 		lsl	r2, fp, #20
 586              		.loc 1 220 0
 587 010e DDF814B0 		ldr	fp, [sp, #20]
 588 0112 4FEA9B4B 		lsr	fp, fp, #18
 589 0116 CDF814B0 		str	fp, [sp, #20]
 590              		.loc 1 221 0
 591 011a DDF81CB0 		ldr	fp, [sp, #28]
 592 011e 4FEA9B4B 		lsr	fp, fp, #18
 593 0122 CDF81CB0 		str	fp, [sp, #28]
 594              		.loc 1 220 0
 595 0126 DDF814B0 		ldr	fp, [sp, #20]
 596              		.loc 1 222 0
 597 012a 4FEA8A4A 		lsl	sl, sl, #18
 598              		.loc 1 223 0
 599 012e 4FEA8949 		lsl	r9, r9, #18
 600              		.loc 1 224 0
 601 0132 4FEA8848 		lsl	r8, r8, #18
 602              		.loc 1 225 0
 603 0136 4FEA8C4C 		lsl	ip, ip, #18
 604              		.loc 1 226 0
 605 013a BF04     		lsls	r7, r7, #18
 606              		.loc 1 227 0
 607 013c B604     		lsls	r6, r6, #18
 608              		.loc 1 228 0
 609 013e AD04     		lsls	r5, r5, #18
 610              		.loc 1 229 0
 611 0140 8004     		lsls	r0, r0, #18
 612              		.loc 1 220 0
 613 0142 A3F800B0 		strh	fp, [r3, #0]	@ movhi
 614              		.loc 1 221 0
 615 0146 DDF81CB0 		ldr	fp, [sp, #28]
 616              		.loc 1 222 0
 617 014a 4FEA9A4A 		lsr	sl, sl, #18
 618              		.loc 1 223 0
 619 014e 4FEA9949 		lsr	r9, r9, #18
 620              		.loc 1 224 0
 621 0152 4FEA9848 		lsr	r8, r8, #18
 622              		.loc 1 225 0
 623 0156 4FEA9C4C 		lsr	ip, ip, #18
 624              		.loc 1 226 0
 625 015a BF0C     		lsrs	r7, r7, #18
ARM GAS  /tmp/cc0bic3b.s 			page 12


 626              		.loc 1 227 0
 627 015c B60C     		lsrs	r6, r6, #18
 628              		.loc 1 228 0
 629 015e AD0C     		lsrs	r5, r5, #18
 630              		.loc 1 229 0
 631 0160 800C     		lsrs	r0, r0, #18
 632              		.loc 1 230 0
 633 0162 090D     		lsrs	r1, r1, #20
 634              		.loc 1 231 0
 635 0164 120D     		lsrs	r2, r2, #20
 636              		.loc 1 221 0
 637 0166 A3F802B0 		strh	fp, [r3, #2]	@ movhi
 638              		.loc 1 222 0
 639 016a A3F804A0 		strh	sl, [r3, #4]	@ movhi
 640              		.loc 1 223 0
 641 016e A3F80690 		strh	r9, [r3, #6]	@ movhi
 642              		.loc 1 224 0
 643 0172 A3F80880 		strh	r8, [r3, #8]	@ movhi
 644              		.loc 1 225 0
 645 0176 A3F80AC0 		strh	ip, [r3, #10]	@ movhi
 646              		.loc 1 226 0
 647 017a 9F81     		strh	r7, [r3, #12]	@ movhi
 648              		.loc 1 227 0
 649 017c DE81     		strh	r6, [r3, #14]	@ movhi
 650              		.loc 1 228 0
 651 017e 1D82     		strh	r5, [r3, #16]	@ movhi
 652              		.loc 1 229 0
 653 0180 5882     		strh	r0, [r3, #18]	@ movhi
 654              		.loc 1 230 0
 655 0182 9982     		strh	r1, [r3, #20]	@ movhi
 656              		.loc 1 231 0
 657 0184 DA82     		strh	r2, [r3, #22]	@ movhi
 658              	.L33:
 659              		.loc 1 270 0
 660 0186 0123     		movs	r3, #1
 661 0188 2372     		strb	r3, [r4, #8]
 662              		.loc 1 271 0
 663 018a 13B0     		add	sp, sp, #76
 664 018c BDE8F08F 		pop	{r4, r5, r6, r7, r8, r9, sl, fp, pc}
 665              	.L35:
 666              		.align	2
 667              	.L34:
 668 0190 00000000 		.word	.LANCHOR0
 669 0194 00000000 		.word	.LANCHOR1
 670 0198 00000000 		.word	.LANCHOR6
 671              		.cfi_endproc
 672              	.LFE126:
 673              		.size	adis_newdata_handler, .-adis_newdata_handler
 674 019c AFF30080 		.section	.text.adis_read_id_handler,"ax",%progbits
 675              		.align	2
 676              		.p2align 4,,15
 677              		.global	adis_read_id_handler
 678              		.thumb
 679              		.thumb_func
 680              		.type	adis_read_id_handler, %function
 681              	adis_read_id_handler:
 682              	.LFB127:
ARM GAS  /tmp/cc0bic3b.s 			page 13


 683              		.loc 1 273 0
 684              		.cfi_startproc
 685              		@ args = 0, pretend = 0, frame = 0
 686              		@ frame_needed = 0, uses_anonymous_args = 0
 687              	.LVL33:
 688 0000 70B5     		push	{r4, r5, r6, lr}
 689              	.LCFI6:
 690              		.cfi_def_cfa_offset 16
 691              		.cfi_offset 4, -16
 692              		.cfi_offset 5, -12
 693              		.cfi_offset 6, -8
 694              		.cfi_offset 14, -4
 695              	.LBB12:
 696              	.LBB13:
 697              		.loc 1 81 0
 698 0002 104C     		ldr	r4, .L39
 699 0004 237A     		ldrb	r3, [r4, #8]	@ zero_extendqisi2
 700 0006 012B     		cmp	r3, #1
 701 0008 00D0     		beq	.L38
 702 000a 70BD     		pop	{r4, r5, r6, pc}
 703              	.L38:
 704              		.loc 1 82 0
 705 000c 0E4D     		ldr	r5, .L39+4
 706              		.loc 1 84 0
 707 000e 0023     		movs	r3, #0
 708              		.loc 1 83 0
 709 0010 5622     		movs	r2, #86
 710              		.loc 1 87 0
 711 0012 0226     		movs	r6, #2
 712              		.loc 1 91 0
 713 0014 2846     		mov	r0, r5
 714              	.LVL34:
 715              		.loc 1 83 0
 716 0016 A272     		strb	r2, [r4, #10]
 717              		.loc 1 84 0
 718 0018 E372     		strb	r3, [r4, #11]
 719              		.loc 1 85 0
 720 001a 2373     		strb	r3, [r4, #12]
 721              		.loc 1 86 0
 722 001c 6272     		strb	r2, [r4, #9]
 723              		.loc 1 89 0
 724 001e 84F85A30 		strb	r3, [r4, #90]
 725              		.loc 1 82 0
 726 0022 6560     		str	r5, [r4, #4]
 727              	.LVL35:
 728              		.loc 1 87 0
 729 0024 2670     		strb	r6, [r4, #0]
 730              		.loc 1 88 0
 731 0026 6670     		strb	r6, [r4, #1]
 732              		.loc 1 91 0
 733 0028 FFF7FEFF 		bl	spiAcquireBus
 734              	.LVL36:
 735              		.loc 1 92 0
 736 002c 2846     		mov	r0, r5
 737 002e FFF7FEFF 		bl	spiSelect
 738              	.LVL37:
 739              		.loc 1 93 0
ARM GAS  /tmp/cc0bic3b.s 			page 14


 740 0032 2846     		mov	r0, r5
 741 0034 6178     		ldrb	r1, [r4, #1]	@ zero_extendqisi2
 742 0036 04F10A02 		add	r2, r4, #10
 743 003a FFF7FEFF 		bl	spiStartSend
 744              	.LVL38:
 745              		.loc 1 94 0
 746 003e 2672     		strb	r6, [r4, #8]
 747 0040 70BD     		pop	{r4, r5, r6, pc}
 748              	.L40:
 749 0042 00BF     		.align	2
 750              	.L39:
 751 0044 00000000 		.word	.LANCHOR0
 752 0048 00000000 		.word	SPID1
 753              	.LBE13:
 754              	.LBE12:
 755              		.cfi_endproc
 756              	.LFE127:
 757              		.size	adis_read_id_handler, .-adis_read_id_handler
 758 004c AFF30080 		.section	.text.adis_burst_read_handler,"ax",%progbits
 759              		.align	2
 760              		.p2align 4,,15
 761              		.global	adis_burst_read_handler
 762              		.thumb
 763              		.thumb_func
 764              		.type	adis_burst_read_handler, %function
 765              	adis_burst_read_handler:
 766              	.LFB128:
 767              		.loc 1 278 0
 768              		.cfi_startproc
 769              		@ args = 0, pretend = 0, frame = 0
 770              		@ frame_needed = 0, uses_anonymous_args = 0
 771              	.LVL39:
 772 0000 70B5     		push	{r4, r5, r6, lr}
 773              	.LCFI7:
 774              		.cfi_def_cfa_offset 16
 775              		.cfi_offset 4, -16
 776              		.cfi_offset 5, -12
 777              		.cfi_offset 6, -8
 778              		.cfi_offset 14, -4
 779              	.LBB16:
 780              	.LBB17:
 781              		.loc 1 99 0
 782 0002 104C     		ldr	r4, .L44
 783 0004 237A     		ldrb	r3, [r4, #8]	@ zero_extendqisi2
 784 0006 012B     		cmp	r3, #1
 785 0008 00D0     		beq	.L43
 786 000a 70BD     		pop	{r4, r5, r6, pc}
 787              	.L43:
 788              		.loc 1 100 0
 789 000c 0E4D     		ldr	r5, .L44+4
 790              		.loc 1 101 0
 791 000e 3E22     		movs	r2, #62
 792              		.loc 1 102 0
 793 0010 0023     		movs	r3, #0
 794              		.loc 1 105 0
 795 0012 0226     		movs	r6, #2
 796              		.loc 1 108 0
ARM GAS  /tmp/cc0bic3b.s 			page 15


 797 0014 2846     		mov	r0, r5
 798              	.LVL40:
 799              		.loc 1 101 0
 800 0016 A272     		strb	r2, [r4, #10]
 801              		.loc 1 103 0
 802 0018 6272     		strb	r2, [r4, #9]
 803              		.loc 1 104 0
 804 001a 1822     		movs	r2, #24
 805              		.loc 1 102 0
 806 001c E372     		strb	r3, [r4, #11]
 807              		.loc 1 104 0
 808 001e 2270     		strb	r2, [r4, #0]
 809              		.loc 1 106 0
 810 0020 84F85A30 		strb	r3, [r4, #90]
 811              		.loc 1 100 0
 812 0024 6560     		str	r5, [r4, #4]
 813              	.LVL41:
 814              		.loc 1 105 0
 815 0026 6670     		strb	r6, [r4, #1]
 816              		.loc 1 108 0
 817 0028 FFF7FEFF 		bl	spiAcquireBus
 818              	.LVL42:
 819              		.loc 1 109 0
 820 002c 2846     		mov	r0, r5
 821 002e FFF7FEFF 		bl	spiSelect
 822              	.LVL43:
 823              		.loc 1 110 0
 824 0032 2846     		mov	r0, r5
 825 0034 6178     		ldrb	r1, [r4, #1]	@ zero_extendqisi2
 826 0036 04F10A02 		add	r2, r4, #10
 827 003a FFF7FEFF 		bl	spiStartSend
 828              	.LVL44:
 829              		.loc 1 111 0
 830 003e 2672     		strb	r6, [r4, #8]
 831 0040 70BD     		pop	{r4, r5, r6, pc}
 832              	.L45:
 833 0042 00BF     		.align	2
 834              	.L44:
 835 0044 00000000 		.word	.LANCHOR0
 836 0048 00000000 		.word	SPID1
 837              	.LBE17:
 838              	.LBE16:
 839              		.cfi_endproc
 840              	.LFE128:
 841              		.size	adis_burst_read_handler, .-adis_burst_read_handler
 842 004c AFF30080 		.section	.text.adis_spi_cb_txdone_handler,"ax",%progbits
 843              		.align	2
 844              		.p2align 4,,15
 845              		.global	adis_spi_cb_txdone_handler
 846              		.thumb
 847              		.thumb_func
 848              		.type	adis_spi_cb_txdone_handler, %function
 849              	adis_spi_cb_txdone_handler:
 850              	.LFB129:
 851              		.loc 1 286 0
 852              		.cfi_startproc
 853              		@ args = 0, pretend = 0, frame = 8
ARM GAS  /tmp/cc0bic3b.s 			page 16


 854              		@ frame_needed = 0, uses_anonymous_args = 0
 855              	.LVL45:
 856 0000 10B5     		push	{r4, lr}
 857              	.LCFI8:
 858              		.cfi_def_cfa_offset 8
 859              		.cfi_offset 4, -8
 860              		.cfi_offset 14, -4
 861              		.loc 1 288 0
 862 0002 1E4C     		ldr	r4, .L57
 863 0004 637A     		ldrb	r3, [r4, #9]	@ zero_extendqisi2
 864 0006 3E2B     		cmp	r3, #62
 865              		.loc 1 286 0
 866 0008 82B0     		sub	sp, sp, #8
 867              	.LCFI9:
 868              		.cfi_def_cfa_offset 16
 869              		.loc 1 288 0
 870 000a 0BD0     		beq	.L48
 871 000c 562B     		cmp	r3, #86
 872              		.loc 1 290 0
 873 000e 6068     		ldr	r0, [r4, #4]
 874              	.LVL46:
 875              		.loc 1 288 0
 876 0010 11D0     		beq	.L56
 877              		.loc 1 303 0
 878 0012 FFF7FEFF 		bl	spiUnselect
 879              	.LVL47:
 880              		.loc 1 304 0
 881 0016 6068     		ldr	r0, [r4, #4]
 882 0018 FFF7FEFF 		bl	spiReleaseBus
 883              	.LVL48:
 884              		.loc 1 305 0
 885 001c 0123     		movs	r3, #1
 886 001e 2372     		strb	r3, [r4, #8]
 887              	.LVL49:
 888              	.L46:
 889              		.loc 1 308 0
 890 0020 02B0     		add	sp, sp, #8
 891 0022 10BD     		pop	{r4, pc}
 892              	.LVL50:
 893              	.L48:
 894              		.loc 1 299 0
 895 0024 2246     		mov	r2, r4
 896 0026 6068     		ldr	r0, [r4, #4]
 897              	.LVL51:
 898 0028 12F81A1B 		ldrb	r1, [r2], #26	@ zero_extendqisi2
 899 002c FFF7FEFF 		bl	spiStartReceive
 900              	.LVL52:
 901              		.loc 1 300 0
 902 0030 0323     		movs	r3, #3
 903 0032 2372     		strb	r3, [r4, #8]
 904              		.loc 1 301 0
 905 0034 F4E7     		b	.L46
 906              	.L56:
 907              		.loc 1 290 0
 908 0036 FFF7FEFF 		bl	spiUnselect
 909              	.LVL53:
 910              		.loc 1 291 0
ARM GAS  /tmp/cc0bic3b.s 			page 17


 911 003a 6068     		ldr	r0, [r4, #4]
 912 003c FFF7FEFF 		bl	spiReleaseBus
 913              	.LVL54:
 914              	.LBB18:
 915              	.LBB19:
 916              		.loc 1 165 0
 917 0040 0023     		movs	r3, #0
 918 0042 0193     		str	r3, [sp, #4]
 919              	.LVL55:
 920              		.loc 1 166 0
 921 0044 0093     		str	r3, [sp, #0]
 922              	.LVL56:
 923 0046 009B     		ldr	r3, [sp, #0]
 924 0048 632B     		cmp	r3, #99
 925 004a 08D8     		bhi	.L52
 926              	.L53:
 927              		.loc 1 167 0
 928 004c 019B     		ldr	r3, [sp, #4]
 929 004e 0133     		adds	r3, r3, #1
 930              	.LVL57:
 931 0050 0193     		str	r3, [sp, #4]
 932              	.LVL58:
 933              		.loc 1 166 0
 934 0052 009B     		ldr	r3, [sp, #0]
 935              	.LVL59:
 936 0054 0133     		adds	r3, r3, #1
 937              	.LVL60:
 938 0056 0093     		str	r3, [sp, #0]
 939              	.LVL61:
 940 0058 009B     		ldr	r3, [sp, #0]
 941              	.LVL62:
 942 005a 632B     		cmp	r3, #99
 943 005c F6D9     		bls	.L53
 944              	.L52:
 945              	.LBE19:
 946              	.LBE18:
 947              		.loc 1 293 0
 948 005e 6068     		ldr	r0, [r4, #4]
 949 0060 FFF7FEFF 		bl	spiAcquireBus
 950              	.LVL63:
 951              		.loc 1 294 0
 952 0064 6068     		ldr	r0, [r4, #4]
 953 0066 FFF7FEFF 		bl	spiSelect
 954              	.LVL64:
 955              		.loc 1 295 0
 956 006a 6068     		ldr	r0, [r4, #4]
 957 006c 2178     		ldrb	r1, [r4, #0]	@ zero_extendqisi2
 958 006e 044A     		ldr	r2, .L57+4
 959 0070 FFF7FEFF 		bl	spiStartReceive
 960              	.LVL65:
 961              		.loc 1 296 0
 962 0074 0323     		movs	r3, #3
 963 0076 2372     		strb	r3, [r4, #8]
 964              		.loc 1 297 0
 965 0078 D2E7     		b	.L46
 966              	.L58:
 967 007a 00BF     		.align	2
ARM GAS  /tmp/cc0bic3b.s 			page 18


 968              	.L57:
 969 007c 00000000 		.word	.LANCHOR0
 970 0080 1A000000 		.word	.LANCHOR0+26
 971              		.cfi_endproc
 972              	.LFE129:
 973              		.size	adis_spi_cb_txdone_handler, .-adis_spi_cb_txdone_handler
 974              		.global	adis_spi_cb_releasebus
 975              		.global	adis_spi_cb_newdata
 976              		.global	adis_spi_cb_txdone_event
 977              		.global	adis_dio1_event
 978              		.global	burst_data
 979              		.global	adis_cache_data
 980              		.global	adis_driver
 981 0084 AFF30080 		.section	.bss.adis_spi_cb_txdone_event,"aw",%nobits
 981      AFF30080 
 981      AFF30080 
 982              		.align	2
 983              		.set	.LANCHOR3,. + 0
 984              		.type	adis_spi_cb_txdone_event, %object
 985              		.size	adis_spi_cb_txdone_event, 4
 986              	adis_spi_cb_txdone_event:
 987 0000 00000000 		.space	4
 988              		.section	.bss.adis_dio1_event,"aw",%nobits
 989              		.align	2
 990              		.set	.LANCHOR2,. + 0
 991              		.type	adis_dio1_event, %object
 992              		.size	adis_dio1_event, 4
 993              	adis_dio1_event:
 994 0000 00000000 		.space	4
 995              		.section	.bss.adis_spi_cb_releasebus,"aw",%nobits
 996              		.align	2
 997              		.set	.LANCHOR5,. + 0
 998              		.type	adis_spi_cb_releasebus, %object
 999              		.size	adis_spi_cb_releasebus, 4
 1000              	adis_spi_cb_releasebus:
 1001 0000 00000000 		.space	4
 1002              		.section	.rodata.str1.4,"aMS",%progbits,1
 1003              		.align	2
 1004              	.LC0:
 1005 0000 22616469 		.ascii	"\"adis_spi_cb driver mismatch\"()\000"
 1005      735F7370 
 1005      695F6362 
 1005      20647269 
 1005      76657220 
 1006              		.section	.bss.burst_data,"aw",%nobits
 1007              		.align	2
 1008              		.set	.LANCHOR6,. + 0
 1009              		.type	burst_data, %object
 1010              		.size	burst_data, 24
 1011              	burst_data:
 1012 0000 00000000 		.space	24
 1012      00000000 
 1012      00000000 
 1012      00000000 
 1012      00000000 
 1013              		.section	.bss.adis_spi_cb_newdata,"aw",%nobits
 1014              		.align	2
ARM GAS  /tmp/cc0bic3b.s 			page 19


 1015              		.set	.LANCHOR4,. + 0
 1016              		.type	adis_spi_cb_newdata, %object
 1017              		.size	adis_spi_cb_newdata, 4
 1018              	adis_spi_cb_newdata:
 1019 0000 00000000 		.space	4
 1020              		.section	.bss.adis_cache_data,"aw",%nobits
 1021              		.align	2
 1022              		.set	.LANCHOR1,. + 0
 1023              		.type	adis_cache_data, %object
 1024              		.size	adis_cache_data, 83
 1025              	adis_cache_data:
 1026 0000 00000000 		.space	83
 1026      00000000 
 1026      00000000 
 1026      00000000 
 1026      00000000 
 1027 0053 00       		.section	.bss.adis_driver,"aw",%nobits
 1028              		.align	2
 1029              		.set	.LANCHOR0,. + 0
 1030              		.type	adis_driver, %object
 1031              		.size	adis_driver, 92
 1032              	adis_driver:
 1033 0000 00000000 		.space	92
 1033      00000000 
 1033      00000000 
 1033      00000000 
 1033      00000000 
 1034              		.text
 1035              	.Letext0:
 1036              		.file 2 "/home/david/toolchains/arm-psas-eabi/bin/../lib/gcc/arm-psas-eabi/4.7.2/include/stddef.h"
 1037              		.file 3 "/home/david/toolchains/arm-psas-eabi/bin/../lib/gcc/arm-psas-eabi/4.7.2/../../../../arm-p
 1038              		.file 4 "../../ChibiOS/os/ports/GCC/ARMCMx/chtypes.h"
 1039              		.file 5 "../../ChibiOS/os/kernel/include/chlists.h"
 1040              		.file 6 "../../ChibiOS/os/kernel/include/chthreads.h"
 1041              		.file 7 "../../ChibiOS/os/ports/GCC/ARMCMx/chcore_v7m.h"
 1042              		.file 8 "../../ChibiOS/os/kernel/include/chmtx.h"
 1043              		.file 9 "../../ChibiOS/os/kernel/include/chevents.h"
 1044              		.file 10 "../../ChibiOS/os/hal/platforms/STM32F4xx/stm32f4xx.h"
 1045              		.file 11 "../../ChibiOS/os/hal/platforms/STM32F4xx/stm32_dma.h"
 1046              		.file 12 "../../ChibiOS/os/hal/platforms/STM32/GPIOv2/pal_lld.h"
 1047              		.file 13 "../../ChibiOS/os/hal/include/spi.h"
 1048              		.file 14 "../../ChibiOS/os/hal/platforms/STM32/SPIv1/spi_lld.h"
 1049              		.file 15 "../../devices/include/ADIS16405.h"
 1050              		.file 16 "../../ChibiOS/os/ports/common/ARMCMx/CMSIS/include/core_cm4.h"
 1051              		.file 17 "../../ChibiOS/os/kernel/include/chdebug.h"