ARM GAS  /tmp/ccTsFZoR.s 			page 1


   1              		.syntax unified
   2              		.cpu cortex-m4
   3              		.eabi_attribute 27, 3
   4              		.eabi_attribute 28, 1
   5              		.fpu fpv4-sp-d16
   6              		.eabi_attribute 20, 1
   7              		.eabi_attribute 21, 1
   8              		.eabi_attribute 23, 3
   9              		.eabi_attribute 24, 1
  10              		.eabi_attribute 25, 1
  11              		.eabi_attribute 26, 1
  12              		.eabi_attribute 30, 2
  13              		.eabi_attribute 34, 1
  14              		.eabi_attribute 18, 4
  15              		.thumb
  16              		.file	"chcore_v7m.c"
  17              		.text
  18              	.Ltext0:
  19              		.cfi_sections	.debug_frame
  20              		.section	.text._port_switch_from_isr,"ax",%progbits
  21              		.align	2
  22              		.p2align 4,,15
  23              		.global	_port_switch_from_isr
  24              		.thumb
  25              		.thumb_func
  26              		.type	_port_switch_from_isr, %function
  27              	_port_switch_from_isr:
  28              	.LFB11:
  29              		.file 1 "../../ChibiOS/os/ports/GCC/ARMCMx/chcore_v7m.c"
  30              		.loc 1 200 0
  31              		.cfi_startproc
  32              		@ Naked Function: prologue and epilogue provided by programmer.
  33              		@ args = 0, pretend = 0, frame = 0
  34              		@ frame_needed = 0, uses_anonymous_args = 0
  35              		.loc 1 202 0
  36 0000 FFF7FEFF 		bl	dbg_check_lock
  37              	.LVL0:
  38              		.loc 1 203 0
  39 0004 FFF7FEFF 		bl	chSchDoReschedule
  40              	.LVL1:
  41              		.loc 1 204 0
  42 0008 FFF7FEFF 		bl	dbg_check_unlock
  43              	.LVL2:
  44              		.loc 1 205 0
  45              	@ 205 "../../ChibiOS/os/ports/GCC/ARMCMx/chcore_v7m.c" 1
  46              		_port_exit_from_isr:
  47              	@ 0 "" 2
  48              		.loc 1 207 0
  49              	@ 207 "../../ChibiOS/os/ports/GCC/ARMCMx/chcore_v7m.c" 1
  50 000c 00DF     		svc     #0
  51              	@ 0 "" 2
  52              		.loc 1 214 0
  53              		.thumb
  54              		.cfi_endproc
  55              	.LFE11:
  56              		.size	_port_switch_from_isr, .-_port_switch_from_isr
  57 000e 00BF     		.section	.text.SVCallVector,"ax",%progbits
ARM GAS  /tmp/ccTsFZoR.s 			page 2


  58              		.align	2
  59              		.p2align 4,,15
  60              		.global	SVCallVector
  61              		.thumb
  62              		.thumb_func
  63              		.type	SVCallVector, %function
  64              	SVCallVector:
  65              	.LFB8:
  66              		.loc 1 58 0
  67              		.cfi_startproc
  68              		@ args = 0, pretend = 0, frame = 0
  69              		@ frame_needed = 0, uses_anonymous_args = 0
  70              		@ link register save eliminated.
  71              		.loc 1 62 0
  72              	@ 62 "../../ChibiOS/os/ports/GCC/ARMCMx/chcore_v7m.c" 1
  73 0000 EFF30983 		mrs     r3, PSP
  74              	@ 0 "" 2
  75              	.LVL3:
  76              		.loc 1 66 0
  77              		.thumb
  78 0004 2033     		adds	r3, r3, #32
  79              	.LVL4:
  80              		.loc 1 73 0
  81              	@ 73 "../../ChibiOS/os/ports/GCC/ARMCMx/chcore_v7m.c" 1
  82 0006 83F30988 		msr     PSP, r3
  83              	@ 0 "" 2
  84              		.thumb
  85              	.LBB2:
  86              		.loc 1 74 0
  87 000a 0023     		movs	r3, #0
  88              	.LVL5:
  89              	@ 74 "../../ChibiOS/os/ports/GCC/ARMCMx/chcore_v7m.c" 1
  90 000c 83F31188 		msr     BASEPRI, r3
  91              	@ 0 "" 2
  92              	.LVL6:
  93              		.thumb
  94 0010 7047     		bx	lr
  95              	.LBE2:
  96              		.cfi_endproc
  97              	.LFE8:
  98              		.size	SVCallVector, .-SVCallVector
  99 0012 00BFAFF3 		.section	.text._port_init,"ax",%progbits
  99      0080AFF3 
  99      0080AFF3 
  99      0080
 100              		.align	2
 101              		.p2align 4,,15
 102              		.global	_port_init
 103              		.thumb
 104              		.thumb_func
 105              		.type	_port_init, %function
 106              	_port_init:
 107              	.LFB9:
 108              		.loc 1 111 0
 109              		.cfi_startproc
 110              		@ args = 0, pretend = 0, frame = 0
 111              		@ frame_needed = 0, uses_anonymous_args = 0
ARM GAS  /tmp/ccTsFZoR.s 			page 3


 112 0000 08B5     		push	{r3, lr}
 113              	.LCFI0:
 114              		.cfi_def_cfa_offset 8
 115              		.cfi_offset 3, -8
 116              		.cfi_offset 14, -4
 117              		.loc 1 114 0
 118 0002 4FF46D43 		mov	r3, #60672
 119 0006 CEF20003 		movt	r3, 57344
 120              		.loc 1 115 0
 121 000a 4FF44072 		mov	r2, #768
 122 000e C0F2FA52 		movt	r2, 1530
 123              		.loc 1 114 0
 124 0012 0021     		movs	r1, #0
 125 0014 9960     		str	r1, [r3, #8]
 126              		.loc 1 118 0
 127 0016 0720     		movs	r0, #7
 128 0018 1021     		movs	r1, #16
 129              		.loc 1 115 0
 130 001a DA60     		str	r2, [r3, #12]
 131              		.loc 1 118 0
 132 001c FFF7FEFF 		bl	nvicSetSystemHandlerPriority
 133              	.LVL7:
 134              		.loc 1 120 0
 135 0020 0A20     		movs	r0, #10
 136 0022 4FF40071 		mov	r1, #512
 137 0026 FFF7FEFF 		bl	nvicSetSystemHandlerPriority
 138              	.LVL8:
 139              		.loc 1 122 0
 140 002a 0B20     		movs	r0, #11
 141 002c 8021     		movs	r1, #128
 142              		.loc 1 124 0
 143 002e BDE80840 		pop	{r3, lr}
 144              		.loc 1 122 0
 145 0032 FFF7FEBF 		b	nvicSetSystemHandlerPriority
 146              	.LVL9:
 147              		.cfi_endproc
 148              	.LFE9:
 149              		.size	_port_init, .-_port_init
 150 0036 00BFAFF3 		.section	.text._port_irq_epilogue,"ax",%progbits
 150      0080AFF3 
 150      0080
 151              		.align	2
 152              		.p2align 4,,15
 153              		.global	_port_irq_epilogue
 154              		.thumb
 155              		.thumb_func
 156              		.type	_port_irq_epilogue, %function
 157              	_port_irq_epilogue:
 158              	.LFB10:
 159              		.loc 1 141 0
 160              		.cfi_startproc
 161              		@ args = 0, pretend = 0, frame = 0
 162              		@ frame_needed = 0, uses_anonymous_args = 0
 163              		@ link register save eliminated.
 164              	.LBB3:
 165              		.loc 1 143 0
 166 0000 2023     		movs	r3, #32
ARM GAS  /tmp/ccTsFZoR.s 			page 4


 167              	.LVL10:
 168              	@ 143 "../../ChibiOS/os/ports/GCC/ARMCMx/chcore_v7m.c" 1
 169 0002 83F31188 		msr     BASEPRI, r3
 170              	@ 0 "" 2
 171              	.LVL11:
 172              		.thumb
 173              	.LBE3:
 174              		.loc 1 144 0
 175 0006 4FF46D43 		mov	r3, #60672
 176              	.LVL12:
 177 000a CEF20003 		movt	r3, 57344
 178 000e 5B68     		ldr	r3, [r3, #4]
 179 0010 13F40063 		ands	r3, r3, #2048
 180 0014 1AD0     		beq	.L5
 181              	.LBB4:
 182              		.loc 1 148 0
 183              	@ 148 "../../ChibiOS/os/ports/GCC/ARMCMx/chcore_v7m.c" 1
 184 0016 EFF30983 		mrs     r3, PSP
 185              	@ 0 "" 2
 186              	.LVL13:
 187              		.loc 1 152 0
 188              		.thumb
 189 001a A3F12002 		sub	r2, r3, #32
 190              	.LVL14:
 191              		.loc 1 153 0
 192              	@ 153 "../../ChibiOS/os/ports/GCC/ARMCMx/chcore_v7m.c" 1
 193 001e 82F30988 		msr     PSP, r2
 194              	@ 0 "" 2
 195              		.loc 1 158 0
 196              		.thumb
 197 0022 1149     		ldr	r1, .L12
 198              		.loc 1 154 0
 199 0024 4FF08070 		mov	r0, #16777216
 200              		.loc 1 158 0
 201 0028 8A69     		ldr	r2, [r1, #24]
 202              	.LVL15:
 203              		.loc 1 154 0
 204 002a 43F8040C 		str	r0, [r3, #-4]
 205              		.loc 1 158 0
 206 002e 92F82300 		ldrb	r0, [r2, #35]	@ zero_extendqisi2
 207 0032 0968     		ldr	r1, [r1, #0]
 208 0034 9268     		ldr	r2, [r2, #8]
 209 0036 8968     		ldr	r1, [r1, #8]
 210 0038 58B1     		cbz	r0, .L6
 211              		.loc 1 158 0 is_stmt 0 discriminator 1
 212 003a 9142     		cmp	r1, r2
 213 003c 94BF     		ite	ls
 214 003e 0022     		movls	r2, #0
 215 0040 0122     		movhi	r2, #1
 216 0042 62B1     		cbz	r2, .L8
 217              	.L11:
 218              		.loc 1 160 0 is_stmt 1
 219 0044 094A     		ldr	r2, .L12+4
 220 0046 43F8082C 		str	r2, [r3, #-8]
 221 004a 7047     		bx	lr
 222              	.LVL16:
 223              	.L5:
ARM GAS  /tmp/ccTsFZoR.s 			page 5


 224              	.LBE4:
 225              	.LBB5:
 226              		.loc 1 190 0
 227              	@ 190 "../../ChibiOS/os/ports/GCC/ARMCMx/chcore_v7m.c" 1
 228 004c 83F31188 		msr     BASEPRI, r3
 229              	@ 0 "" 2
 230              	.LVL17:
 231              		.thumb
 232 0050 7047     		bx	lr
 233              	.LVL18:
 234              	.L6:
 235              	.LBE5:
 236              	.LBB6:
 237              		.loc 1 158 0 discriminator 2
 238 0052 9142     		cmp	r1, r2
 239 0054 34BF     		ite	cc
 240 0056 0022     		movcc	r2, #0
 241 0058 0122     		movcs	r2, #1
 242 005a 002A     		cmp	r2, #0
 243 005c F2D1     		bne	.L11
 244              	.L8:
 245              		.loc 1 169 0
 246 005e 044A     		ldr	r2, .L12+8
 247 0060 43F8082C 		str	r2, [r3, #-8]
 248 0064 7047     		bx	lr
 249              	.L13:
 250 0066 00BF     		.align	2
 251              	.L12:
 252 0068 00000000 		.word	rlist
 253 006c 00000000 		.word	_port_switch_from_isr
 254 0070 0C000000 		.word	_port_exit_from_isr
 255              	.LBE6:
 256              		.cfi_endproc
 257              	.LFE10:
 258              		.size	_port_irq_epilogue, .-_port_irq_epilogue
 259 0074 AFF30080 		.section	.text.SysTickVector,"ax",%progbits
 259      AFF30080 
 259      AFF30080 
 260              		.align	2
 261              		.p2align 4,,15
 262              		.global	SysTickVector
 263              		.thumb
 264              		.thumb_func
 265              		.type	SysTickVector, %function
 266              	SysTickVector:
 267              	.LFB7:
 268              		.loc 1 40 0
 269              		.cfi_startproc
 270              		@ args = 0, pretend = 0, frame = 0
 271              		@ frame_needed = 0, uses_anonymous_args = 0
 272 0000 08B5     		push	{r3, lr}
 273              	.LCFI1:
 274              		.cfi_def_cfa_offset 8
 275              		.cfi_offset 3, -8
 276              		.cfi_offset 14, -4
 277              		.loc 1 42 0
 278 0002 FFF7FEFF 		bl	dbg_check_enter_isr
ARM GAS  /tmp/ccTsFZoR.s 			page 6


 279              	.LVL19:
 280              	.LBB7:
 281              		.loc 1 44 0
 282 0006 2023     		movs	r3, #32
 283              	.LVL20:
 284              	@ 44 "../../ChibiOS/os/ports/GCC/ARMCMx/chcore_v7m.c" 1
 285 0008 83F31188 		msr     BASEPRI, r3
 286              	@ 0 "" 2
 287              	.LVL21:
 288              		.thumb
 289              	.LBE7:
 290 000c FFF7FEFF 		bl	dbg_check_lock_from_isr
 291              	.LVL22:
 292              		.loc 1 45 0
 293 0010 FFF7FEFF 		bl	chSysTimerHandlerI
 294              	.LVL23:
 295              		.loc 1 46 0
 296 0014 FFF7FEFF 		bl	dbg_check_unlock_from_isr
 297              	.LVL24:
 298              	.LBB8:
 299 0018 0023     		movs	r3, #0
 300              	.LVL25:
 301              	@ 46 "../../ChibiOS/os/ports/GCC/ARMCMx/chcore_v7m.c" 1
 302 001a 83F31188 		msr     BASEPRI, r3
 303              	@ 0 "" 2
 304              	.LVL26:
 305              		.thumb
 306              	.LBE8:
 307              		.loc 1 48 0
 308 001e FFF7FEFF 		bl	dbg_check_leave_isr
 309              	.LVL27:
 310              		.loc 1 49 0
 311 0022 BDE80840 		pop	{r3, lr}
 312              		.loc 1 48 0
 313 0026 FFF7FEBF 		b	_port_irq_epilogue
 314              	.LVL28:
 315              		.cfi_endproc
 316              	.LFE7:
 317              		.size	SysTickVector, .-SysTickVector
 318 002a 00BFAFF3 		.section	.text._port_switch,"ax",%progbits
 318      0080
 319              		.align	2
 320              		.p2align 4,,15
 321              		.global	_port_switch
 322              		.thumb
 323              		.thumb_func
 324              		.type	_port_switch, %function
 325              	_port_switch:
 326              	.LFB12:
 327              		.loc 1 229 0
 328              		.cfi_startproc
 329              		@ Naked Function: prologue and epilogue provided by programmer.
 330              		@ args = 0, pretend = 0, frame = 0
 331              		@ frame_needed = 0, uses_anonymous_args = 0
 332              	.LVL29:
 333              		.loc 1 231 0
 334              	@ 231 "../../ChibiOS/os/ports/GCC/ARMCMx/chcore_v7m.c" 1
ARM GAS  /tmp/ccTsFZoR.s 			page 7


 335 0000 2DE9F04F 		push    {r4, r5, r6, r7, r8, r9, r10, r11, lr}
 336              	@ 0 "" 2
 337              		.loc 1 237 0
 338              	@ 237 "../../ChibiOS/os/ports/GCC/ARMCMx/chcore_v7m.c" 1
 339 0004 C1F80CD0 		str     sp, [r1, #12]                          
 340 0008 D0F80CD0 		ldr     sp, [r0, #12]
 341              	@ 0 "" 2
 342              		.loc 1 243 0
 343              	@ 243 "../../ChibiOS/os/ports/GCC/ARMCMx/chcore_v7m.c" 1
 344 000c BDE8F08F 		pop     {r4, r5, r6, r7, r8, r9, r10, r11, pc}
 345              	@ 0 "" 2
 346              		.loc 1 245 0
 347              		.thumb
 348              		.cfi_endproc
 349              	.LFE12:
 350              		.size	_port_switch, .-_port_switch
 351              		.section	.text._port_thread_start,"ax",%progbits
 352              		.align	2
 353              		.p2align 4,,15
 354              		.global	_port_thread_start
 355              		.thumb
 356              		.thumb_func
 357              		.type	_port_thread_start, %function
 358              	_port_thread_start:
 359              	.LFB13:
 360              		.loc 1 252 0
 361              		.cfi_startproc
 362              		@ args = 0, pretend = 0, frame = 0
 363              		@ frame_needed = 0, uses_anonymous_args = 0
 364 0000 08B5     		push	{r3, lr}
 365              	.LCFI2:
 366              		.cfi_def_cfa_offset 8
 367              		.cfi_offset 3, -8
 368              		.cfi_offset 14, -4
 369              		.loc 1 254 0
 370 0002 FFF7FEFF 		bl	dbg_check_unlock
 371              	.LVL30:
 372              	.LBB9:
 373 0006 0023     		movs	r3, #0
 374              	.LVL31:
 375              	@ 254 "../../ChibiOS/os/ports/GCC/ARMCMx/chcore_v7m.c" 1
 376 0008 83F31188 		msr     BASEPRI, r3
 377              	@ 0 "" 2
 378              	.LVL32:
 379              		.thumb
 380              	.LBE9:
 381              		.loc 1 255 0
 382              	@ 255 "../../ChibiOS/os/ports/GCC/ARMCMx/chcore_v7m.c" 1
 383 000c 2846     		mov     r0, r5                                 
 384 000e A047     		blx     r4                                     
 385 0010 FFF7FEFF 		bl      chThdExit
 386              	@ 0 "" 2
 387              		.thumb
 388 0014 08BD     		pop	{r3, pc}
 389              		.cfi_endproc
 390              	.LFE13:
 391              		.size	_port_thread_start, .-_port_thread_start
ARM GAS  /tmp/ccTsFZoR.s 			page 8


 392              		.text
 393              	.Letext0:
 394              		.file 2 "/home/david/toolchains/psas/x-tools/stm32f407/arm-psas-eabi/bin/../lib/gcc/arm-psas-eabi/
 395              		.file 3 "../../ChibiOS/os/ports/GCC/ARMCMx/chtypes.h"
 396              		.file 4 "../../ChibiOS/os/kernel/include/chlists.h"
 397              		.file 5 "../../ChibiOS/os/kernel/include/chthreads.h"
 398              		.file 6 "../../ChibiOS/os/ports/GCC/ARMCMx/chcore_v7m.h"
 399              		.file 7 "../../ChibiOS/os/ports/common/ARMCMx/nvic.h"
 400              		.file 8 "../../ChibiOS/os/kernel/include/chschd.h"
 401              		.file 9 "../../ChibiOS/os/kernel/include/chmtx.h"
 402              		.file 10 "../../ChibiOS/os/kernel/include/chdebug.h"
 403              		.file 11 "../../ChibiOS/os/kernel/include/chsys.h"