ARM GAS  /tmp/ccCoY8YM.s 			page 1


   1              		.syntax unified
   2              		.cpu cortex-m4
   3              		.eabi_attribute 27, 3
   4              		.eabi_attribute 28, 1
   5              		.fpu fpv4-sp-d16
   6              		.eabi_attribute 20, 1
   7              		.eabi_attribute 21, 1
   8              		.eabi_attribute 23, 3
   9              		.eabi_attribute 24, 1
  10              		.eabi_attribute 25, 1
  11              		.eabi_attribute 26, 1
  12              		.eabi_attribute 30, 2
  13              		.eabi_attribute 34, 1
  14              		.eabi_attribute 18, 4
  15              		.thumb
  16              		.file	"chdynamic.c"
  17              		.text
  18              	.Ltext0:
  19              		.cfi_sections	.debug_frame
  20              		.section	.text.chThdAddRef,"ax",%progbits
  21              		.align	2
  22              		.p2align 4,,15
  23              		.global	chThdAddRef
  24              		.thumb
  25              		.thumb_func
  26              		.type	chThdAddRef, %function
  27              	chThdAddRef:
  28              	.LFB7:
  29              		.file 1 "../../ChibiOS/os/kernel/src/chdynamic.c"
  30              		.loc 1 45 0
  31              		.cfi_startproc
  32              		@ args = 0, pretend = 0, frame = 0
  33              		@ frame_needed = 0, uses_anonymous_args = 0
  34              	.LVL0:
  35 0000 10B5     		push	{r4, lr}
  36              	.LCFI0:
  37              		.cfi_def_cfa_offset 8
  38              		.cfi_offset 4, -8
  39              		.cfi_offset 14, -4
  40              	.LBB2:
  41              		.loc 1 47 0
  42 0002 2023     		movs	r3, #32
  43              	.LVL1:
  44              	.LBE2:
  45              		.loc 1 45 0
  46 0004 0446     		mov	r4, r0
  47              	.LBB3:
  48              		.loc 1 47 0
  49              	@ 47 "../../ChibiOS/os/kernel/src/chdynamic.c" 1
  50 0006 83F31188 		msr     BASEPRI, r3
  51              	@ 0 "" 2
  52              	.LVL2:
  53              		.thumb
  54              	.LBE3:
  55 000a FFF7FEFF 		bl	dbg_check_lock
  56              	.LVL3:
  57              		.loc 1 48 0
ARM GAS  /tmp/ccCoY8YM.s 			page 2


  58 000e 94F82230 		ldrb	r3, [r4, #34]	@ zero_extendqisi2
  59 0012 FF2B     		cmp	r3, #255
  60 0014 09D0     		beq	.L4
  61              	.L2:
  62              		.loc 1 49 0
  63 0016 0133     		adds	r3, r3, #1
  64 0018 84F82230 		strb	r3, [r4, #34]
  65              		.loc 1 50 0
  66 001c FFF7FEFF 		bl	dbg_check_unlock
  67              	.LVL4:
  68              	.LBB4:
  69 0020 0023     		movs	r3, #0
  70              	.LVL5:
  71              	@ 50 "../../ChibiOS/os/kernel/src/chdynamic.c" 1
  72 0022 83F31188 		msr     BASEPRI, r3
  73              	@ 0 "" 2
  74              	.LVL6:
  75              		.thumb
  76              	.LBE4:
  77              		.loc 1 52 0
  78 0026 2046     		mov	r0, r4
  79 0028 10BD     		pop	{r4, pc}
  80              	.LVL7:
  81              	.L4:
  82              		.loc 1 48 0 discriminator 1
  83 002a 0348     		ldr	r0, .L5
  84 002c FFF7FEFF 		bl	chDbgPanic
  85              	.LVL8:
  86 0030 94F82230 		ldrb	r3, [r4, #34]	@ zero_extendqisi2
  87 0034 EFE7     		b	.L2
  88              	.L6:
  89 0036 00BF     		.align	2
  90              	.L5:
  91 0038 00000000 		.word	.LC0
  92              		.cfi_endproc
  93              	.LFE7:
  94              		.size	chThdAddRef, .-chThdAddRef
  95 003c AFF30080 		.section	.text.chThdRelease,"ax",%progbits
  96              		.align	2
  97              		.p2align 4,,15
  98              		.global	chThdRelease
  99              		.thumb
 100              		.thumb_func
 101              		.type	chThdRelease, %function
 102              	chThdRelease:
 103              	.LFB8:
 104              		.loc 1 67 0
 105              		.cfi_startproc
 106              		@ args = 0, pretend = 0, frame = 0
 107              		@ frame_needed = 0, uses_anonymous_args = 0
 108              	.LVL9:
 109 0000 38B5     		push	{r3, r4, r5, lr}
 110              	.LCFI1:
 111              		.cfi_def_cfa_offset 16
 112              		.cfi_offset 3, -16
 113              		.cfi_offset 4, -12
 114              		.cfi_offset 5, -8
ARM GAS  /tmp/ccCoY8YM.s 			page 3


 115              		.cfi_offset 14, -4
 116              		.loc 1 67 0
 117 0002 0446     		mov	r4, r0
 118              	.LBB5:
 119              		.loc 1 70 0
 120 0004 2023     		movs	r3, #32
 121              	.LVL10:
 122              	@ 70 "../../ChibiOS/os/kernel/src/chdynamic.c" 1
 123 0006 83F31188 		msr     BASEPRI, r3
 124              	@ 0 "" 2
 125              	.LVL11:
 126              		.thumb
 127              	.LBE5:
 128 000a FFF7FEFF 		bl	dbg_check_lock
 129              	.LVL12:
 130              		.loc 1 71 0
 131 000e 94F82230 		ldrb	r3, [r4, #34]	@ zero_extendqisi2
 132 0012 002B     		cmp	r3, #0
 133 0014 21D0     		beq	.L12
 134              	.L8:
 135              		.loc 1 72 0
 136 0016 013B     		subs	r3, r3, #1
 137 0018 DDB2     		uxtb	r5, r3
 138 001a 84F82250 		strb	r5, [r4, #34]
 139              	.LVL13:
 140              		.loc 1 73 0
 141 001e FFF7FEFF 		bl	dbg_check_unlock
 142              	.LVL14:
 143              	.LBB6:
 144 0022 0023     		movs	r3, #0
 145              	.LVL15:
 146              	@ 73 "../../ChibiOS/os/kernel/src/chdynamic.c" 1
 147 0024 83F31188 		msr     BASEPRI, r3
 148              	@ 0 "" 2
 149              	.LVL16:
 150              		.thumb
 151              	.LBE6:
 152              		.loc 1 78 0
 153 0028 1DB9     		cbnz	r5, .L7
 154              		.loc 1 78 0 is_stmt 0 discriminator 1
 155 002a 94F82030 		ldrb	r3, [r4, #32]	@ zero_extendqisi2
 156              	.LVL17:
 157 002e 0E2B     		cmp	r3, #14
 158 0030 00D0     		beq	.L13
 159              	.LVL18:
 160              	.L7:
 161 0032 38BD     		pop	{r3, r4, r5, pc}
 162              	.LVL19:
 163              	.L13:
 164              		.loc 1 79 0 is_stmt 1
 165 0034 94F82130 		ldrb	r3, [r4, #33]	@ zero_extendqisi2
 166 0038 03F00303 		and	r3, r3, #3
 167 003c 012B     		cmp	r3, #1
 168 003e 12D0     		beq	.L10
 169 0040 022B     		cmp	r3, #2
 170 0042 F6D1     		bne	.L7
 171              		.loc 1 91 0
ARM GAS  /tmp/ccCoY8YM.s 			page 4


 172 0044 6369     		ldr	r3, [r4, #20]
 173 0046 2269     		ldr	r2, [r4, #16]
 174              		.loc 1 93 0
 175 0048 A06C     		ldr	r0, [r4, #72]
 176              		.loc 1 91 0
 177 004a 1A61     		str	r2, [r3, #16]
 178 004c 2269     		ldr	r2, [r4, #16]
 179              		.loc 1 93 0
 180 004e 2146     		mov	r1, r4
 181              		.loc 1 91 0
 182 0050 5361     		str	r3, [r2, #20]
 183              		.loc 1 98 0
 184 0052 BDE83840 		pop	{r3, r4, r5, lr}
 185              		.loc 1 93 0
 186 0056 FFF7FEBF 		b	chPoolFree
 187              	.LVL20:
 188              	.L12:
 189              		.loc 1 71 0 discriminator 1
 190 005a 0848     		ldr	r0, .L14
 191 005c FFF7FEFF 		bl	chDbgPanic
 192              	.LVL21:
 193 0060 94F82230 		ldrb	r3, [r4, #34]	@ zero_extendqisi2
 194 0064 D7E7     		b	.L8
 195              	.LVL22:
 196              	.L10:
 197              		.loc 1 83 0
 198 0066 6369     		ldr	r3, [r4, #20]
 199 0068 2269     		ldr	r2, [r4, #16]
 200 006a 1A61     		str	r2, [r3, #16]
 201 006c 2269     		ldr	r2, [r4, #16]
 202              		.loc 1 85 0
 203 006e 2046     		mov	r0, r4
 204              		.loc 1 83 0
 205 0070 5361     		str	r3, [r2, #20]
 206              		.loc 1 98 0
 207 0072 BDE83840 		pop	{r3, r4, r5, lr}
 208              		.loc 1 85 0
 209 0076 FFF7FEBF 		b	chHeapFree
 210              	.LVL23:
 211              	.L15:
 212 007a 00BF     		.align	2
 213              	.L14:
 214 007c 14000000 		.word	.LC1
 215              		.cfi_endproc
 216              	.LFE8:
 217              		.size	chThdRelease, .-chThdRelease
 218              		.section	.text.chThdCreateFromHeap,"ax",%progbits
 219              		.align	2
 220              		.p2align 4,,15
 221              		.global	chThdCreateFromHeap
 222              		.thumb
 223              		.thumb_func
 224              		.type	chThdCreateFromHeap, %function
 225              	chThdCreateFromHeap:
 226              	.LFB9:
 227              		.loc 1 124 0
 228              		.cfi_startproc
ARM GAS  /tmp/ccCoY8YM.s 			page 5


 229              		@ args = 4, pretend = 0, frame = 0
 230              		@ frame_needed = 0, uses_anonymous_args = 0
 231              	.LVL24:
 232 0000 2DE9F041 		push	{r4, r5, r6, r7, r8, lr}
 233              	.LCFI2:
 234              		.cfi_def_cfa_offset 24
 235              		.cfi_offset 4, -24
 236              		.cfi_offset 5, -20
 237              		.cfi_offset 6, -16
 238              		.cfi_offset 7, -12
 239              		.cfi_offset 8, -8
 240              		.cfi_offset 14, -4
 241 0004 82B0     		sub	sp, sp, #8
 242              	.LCFI3:
 243              		.cfi_def_cfa_offset 32
 244              		.loc 1 124 0
 245 0006 0D46     		mov	r5, r1
 246 0008 1746     		mov	r7, r2
 247 000a 9846     		mov	r8, r3
 248              		.loc 1 128 0
 249 000c FFF7FEFF 		bl	chHeapAlloc
 250              	.LVL25:
 251              		.loc 1 129 0
 252 0010 0446     		mov	r4, r0
 253 0012 18B3     		cbz	r0, .L17
 254              		.loc 1 133 0
 255 0014 00F14C06 		add	r6, r0, #76
 256 0018 3146     		mov	r1, r6
 257 001a FF22     		movs	r2, #255
 258 001c FFF7FEFF 		bl	_thread_memfill
 259              	.LVL26:
 260              		.loc 1 136 0
 261 0020 3046     		mov	r0, r6
 262 0022 6119     		adds	r1, r4, r5
 263 0024 5522     		movs	r2, #85
 264 0026 FFF7FEFF 		bl	_thread_memfill
 265              	.LVL27:
 266              	.LBB7:
 267              		.loc 1 141 0
 268 002a 2023     		movs	r3, #32
 269              	.LVL28:
 270              	@ 141 "../../ChibiOS/os/kernel/src/chdynamic.c" 1
 271 002c 83F31188 		msr     BASEPRI, r3
 272              	@ 0 "" 2
 273              	.LVL29:
 274              		.thumb
 275              	.LBE7:
 276 0030 FFF7FEFF 		bl	dbg_check_lock
 277              	.LVL30:
 278              		.loc 1 142 0
 279 0034 0898     		ldr	r0, [sp, #32]
 280 0036 3A46     		mov	r2, r7
 281 0038 4346     		mov	r3, r8
 282 003a 2946     		mov	r1, r5
 283 003c 0090     		str	r0, [sp, #0]
 284 003e 2046     		mov	r0, r4
 285 0040 FFF7FEFF 		bl	chThdCreateI
ARM GAS  /tmp/ccCoY8YM.s 			page 6


 286              	.LVL31:
 287              		.loc 1 143 0
 288 0044 0123     		movs	r3, #1
 289 0046 80F82130 		strb	r3, [r0, #33]
 290              		.loc 1 144 0
 291 004a 0021     		movs	r1, #0
 292              		.loc 1 142 0
 293 004c 0446     		mov	r4, r0
 294              	.LVL32:
 295              		.loc 1 144 0
 296 004e FFF7FEFF 		bl	chSchWakeupS
 297              	.LVL33:
 298              		.loc 1 145 0
 299 0052 FFF7FEFF 		bl	dbg_check_unlock
 300              	.LVL34:
 301              	.LBB8:
 302 0056 0023     		movs	r3, #0
 303              	.LVL35:
 304              	@ 145 "../../ChibiOS/os/kernel/src/chdynamic.c" 1
 305 0058 83F31188 		msr     BASEPRI, r3
 306              	@ 0 "" 2
 307              	.LVL36:
 308              		.thumb
 309              	.L17:
 310              	.LBE8:
 311              		.loc 1 147 0
 312 005c 2046     		mov	r0, r4
 313 005e 02B0     		add	sp, sp, #8
 314 0060 BDE8F081 		pop	{r4, r5, r6, r7, r8, pc}
 315              		.cfi_endproc
 316              	.LFE9:
 317              		.size	chThdCreateFromHeap, .-chThdCreateFromHeap
 318 0064 AFF30080 		.section	.text.chThdCreateFromMemoryPool,"ax",%progbits
 318      AFF30080 
 318      AFF30080 
 319              		.align	2
 320              		.p2align 4,,15
 321              		.global	chThdCreateFromMemoryPool
 322              		.thumb
 323              		.thumb_func
 324              		.type	chThdCreateFromMemoryPool, %function
 325              	chThdCreateFromMemoryPool:
 326              	.LFB10:
 327              		.loc 1 173 0
 328              		.cfi_startproc
 329              		@ args = 0, pretend = 0, frame = 0
 330              		@ frame_needed = 0, uses_anonymous_args = 0
 331              	.LVL37:
 332 0000 2DE9F043 		push	{r4, r5, r6, r7, r8, r9, lr}
 333              	.LCFI4:
 334              		.cfi_def_cfa_offset 28
 335              		.cfi_offset 4, -28
 336              		.cfi_offset 5, -24
 337              		.cfi_offset 6, -20
 338              		.cfi_offset 7, -16
 339              		.cfi_offset 8, -12
 340              		.cfi_offset 9, -8
ARM GAS  /tmp/ccCoY8YM.s 			page 7


 341              		.cfi_offset 14, -4
 342              		.loc 1 177 0
 343 0004 0446     		mov	r4, r0
 344              		.loc 1 173 0
 345 0006 83B0     		sub	sp, sp, #12
 346              	.LCFI5:
 347              		.cfi_def_cfa_offset 40
 348              		.loc 1 173 0
 349 0008 0F46     		mov	r7, r1
 350 000a 9046     		mov	r8, r2
 351 000c 9946     		mov	r9, r3
 352              		.loc 1 177 0
 353 000e 0028     		cmp	r0, #0
 354 0010 2ED0     		beq	.L23
 355              	.LVL38:
 356              	.L20:
 357              		.loc 1 179 0
 358 0012 2046     		mov	r0, r4
 359 0014 FFF7FEFF 		bl	chPoolAlloc
 360              	.LVL39:
 361              		.loc 1 180 0
 362 0018 0546     		mov	r5, r0
 363 001a 28B3     		cbz	r0, .L21
 364              		.loc 1 184 0
 365 001c 00F14C06 		add	r6, r0, #76
 366 0020 3146     		mov	r1, r6
 367 0022 FF22     		movs	r2, #255
 368 0024 FFF7FEFF 		bl	_thread_memfill
 369              	.LVL40:
 370              		.loc 1 187 0
 371 0028 6168     		ldr	r1, [r4, #4]
 372 002a 3046     		mov	r0, r6
 373 002c 6918     		adds	r1, r5, r1
 374 002e 5522     		movs	r2, #85
 375 0030 FFF7FEFF 		bl	_thread_memfill
 376              	.LVL41:
 377              	.LBB9:
 378              		.loc 1 192 0
 379 0034 2023     		movs	r3, #32
 380              	.LVL42:
 381              	@ 192 "../../ChibiOS/os/kernel/src/chdynamic.c" 1
 382 0036 83F31188 		msr     BASEPRI, r3
 383              	@ 0 "" 2
 384              	.LVL43:
 385              		.thumb
 386              	.LBE9:
 387 003a FFF7FEFF 		bl	dbg_check_lock
 388              	.LVL44:
 389              		.loc 1 193 0
 390 003e 6168     		ldr	r1, [r4, #4]
 391 0040 CDF80090 		str	r9, [sp, #0]
 392 0044 3A46     		mov	r2, r7
 393 0046 4346     		mov	r3, r8
 394 0048 2846     		mov	r0, r5
 395 004a FFF7FEFF 		bl	chThdCreateI
 396              	.LVL45:
 397              		.loc 1 194 0
ARM GAS  /tmp/ccCoY8YM.s 			page 8


 398 004e 0223     		movs	r3, #2
 399 0050 80F82130 		strb	r3, [r0, #33]
 400              		.loc 1 196 0
 401 0054 0021     		movs	r1, #0
 402              		.loc 1 195 0
 403 0056 8464     		str	r4, [r0, #72]
 404              		.loc 1 193 0
 405 0058 0546     		mov	r5, r0
 406              	.LVL46:
 407              		.loc 1 196 0
 408 005a FFF7FEFF 		bl	chSchWakeupS
 409              	.LVL47:
 410              		.loc 1 197 0
 411 005e FFF7FEFF 		bl	dbg_check_unlock
 412              	.LVL48:
 413              	.LBB10:
 414 0062 0023     		movs	r3, #0
 415              	.LVL49:
 416              	@ 197 "../../ChibiOS/os/kernel/src/chdynamic.c" 1
 417 0064 83F31188 		msr     BASEPRI, r3
 418              	@ 0 "" 2
 419              	.LVL50:
 420              		.thumb
 421              	.L21:
 422              	.LBE10:
 423              		.loc 1 199 0
 424 0068 2846     		mov	r0, r5
 425 006a 03B0     		add	sp, sp, #12
 426 006c BDE8F083 		pop	{r4, r5, r6, r7, r8, r9, pc}
 427              	.LVL51:
 428              	.L23:
 429              		.loc 1 177 0 discriminator 1
 430 0070 0148     		ldr	r0, .L24
 431              	.LVL52:
 432 0072 FFF7FEFF 		bl	chDbgPanic
 433              	.LVL53:
 434 0076 CCE7     		b	.L20
 435              	.L25:
 436              		.align	2
 437              	.L24:
 438 0078 28000000 		.word	.LC2
 439              		.cfi_endproc
 440              	.LFE10:
 441              		.size	chThdCreateFromMemoryPool, .-chThdCreateFromMemoryPool
 442 007c AFF30080 		.section	.rodata.str1.4,"aMS",%progbits,1
 443              		.align	2
 444              	.LC0:
 445 0000 63685468 		.ascii	"chThdAddRef(), #1\000"
 445      64416464 
 445      52656628 
 445      292C2023 
 445      3100
 446 0012 0000     		.space	2
 447              	.LC1:
 448 0014 63685468 		.ascii	"chThdRelease(), #1\000"
 448      6452656C 
 448      65617365 
ARM GAS  /tmp/ccCoY8YM.s 			page 9


 448      28292C20 
 448      233100
 449 0027 00       		.space	1
 450              	.LC2:
 451 0028 22636854 		.ascii	"\"chThdCreateFromMemoryPool\"()\000"
 451      68644372 
 451      65617465 
 451      46726F6D 
 451      4D656D6F 
 452 0046 0000     		.text
 453              	.Letext0:
 454              		.file 2 "/home/david/toolchains/psas/x-tools/stm32f407/arm-psas-eabi/bin/../lib/gcc/arm-psas-eabi/
 455              		.file 3 "/home/david/toolchains/psas/x-tools/stm32f407/arm-psas-eabi/bin/../lib/gcc/arm-psas-eabi/
 456              		.file 4 "../../ChibiOS/os/ports/GCC/ARMCMx/chtypes.h"
 457              		.file 5 "../../ChibiOS/os/kernel/include/chlists.h"
 458              		.file 6 "../../ChibiOS/os/kernel/include/chthreads.h"
 459              		.file 7 "../../ChibiOS/os/ports/GCC/ARMCMx/chcore_v7m.h"
 460              		.file 8 "../../ChibiOS/os/kernel/include/chmtx.h"
 461              		.file 9 "../../ChibiOS/os/kernel/include/chmemcore.h"
 462              		.file 10 "../../ChibiOS/os/kernel/include/chheap.h"
 463              		.file 11 "../../ChibiOS/os/kernel/include/chmempools.h"
 464              		.file 12 "../../ChibiOS/os/kernel/include/chdebug.h"
 465              		.file 13 "../../ChibiOS/os/kernel/include/chschd.h"