ARM GAS  /tmp/ccOzgniH.s 			page 1


   1              		.syntax unified
   2              		.cpu cortex-m4
   3              		.eabi_attribute 27, 3
   4              		.eabi_attribute 28, 1
   5              		.fpu fpv4-sp-d16
   6              		.eabi_attribute 20, 1
   7              		.eabi_attribute 21, 1
   8              		.eabi_attribute 23, 3
   9              		.eabi_attribute 24, 1
  10              		.eabi_attribute 25, 1
  11              		.eabi_attribute 26, 1
  12              		.eabi_attribute 30, 2
  13              		.eabi_attribute 34, 1
  14              		.eabi_attribute 18, 4
  15              		.thumb
  16              		.file	"chmboxes.c"
  17              		.text
  18              	.Ltext0:
  19              		.cfi_sections	.debug_frame
  20              		.section	.text.chMBInit,"ax",%progbits
  21              		.align	2
  22              		.p2align 4,,15
  23              		.global	chMBInit
  24              		.thumb
  25              		.thumb_func
  26              		.type	chMBInit, %function
  27              	chMBInit:
  28              	.LFB7:
  29              		.file 1 "../../ChibiOS/os/kernel/src/chmboxes.c"
  30              		.loc 1 65 0
  31              		.cfi_startproc
  32              		@ args = 0, pretend = 0, frame = 0
  33              		@ frame_needed = 0, uses_anonymous_args = 0
  34              	.LVL0:
  35              		.loc 1 67 0
  36 0000 0028     		cmp	r0, #0
  37 0002 18BF     		it	ne
  38 0004 0029     		cmpne	r1, #0
  39              		.loc 1 65 0
  40 0006 70B5     		push	{r4, r5, r6, lr}
  41              	.LCFI0:
  42              		.cfi_def_cfa_offset 16
  43              		.cfi_offset 4, -16
  44              		.cfi_offset 5, -12
  45              		.cfi_offset 6, -8
  46              		.cfi_offset 14, -4
  47              		.loc 1 67 0
  48 0008 0D46     		mov	r5, r1
  49 000a 0446     		mov	r4, r0
  50              		.loc 1 65 0
  51 000c 1646     		mov	r6, r2
  52              		.loc 1 67 0
  53 000e 13D0     		beq	.L2
  54              		.loc 1 67 0 is_stmt 0 discriminator 2
  55 0010 002A     		cmp	r2, #0
  56 0012 11DD     		ble	.L2
  57              	.LVL1:
ARM GAS  /tmp/ccOzgniH.s 			page 2


  58              	.L3:
  59              		.loc 1 70 0 is_stmt 1
  60 0014 05EB8603 		add	r3, r5, r6, lsl #2
  61              		.loc 1 71 0
  62 0018 04F11C00 		add	r0, r4, #28
  63 001c 3146     		mov	r1, r6
  64              		.loc 1 69 0
  65 001e E560     		str	r5, [r4, #12]
  66 0020 A560     		str	r5, [r4, #8]
  67 0022 2560     		str	r5, [r4, #0]
  68              		.loc 1 70 0
  69 0024 6360     		str	r3, [r4, #4]
  70              		.loc 1 71 0
  71 0026 FFF7FEFF 		bl	chSemInit
  72              	.LVL2:
  73              		.loc 1 72 0
  74 002a 04F11000 		add	r0, r4, #16
  75 002e 0021     		movs	r1, #0
  76              		.loc 1 73 0
  77 0030 BDE87040 		pop	{r4, r5, r6, lr}
  78              		.loc 1 72 0
  79 0034 FFF7FEBF 		b	chSemInit
  80              	.LVL3:
  81              	.L2:
  82              		.loc 1 67 0 discriminator 1
  83 0038 0148     		ldr	r0, .L5
  84              	.LVL4:
  85 003a FFF7FEFF 		bl	chDbgPanic
  86              	.LVL5:
  87 003e E9E7     		b	.L3
  88              	.L6:
  89              		.align	2
  90              	.L5:
  91 0040 00000000 		.word	.LC0
  92              		.cfi_endproc
  93              	.LFE7:
  94              		.size	chMBInit, .-chMBInit
  95 0044 AFF30080 		.section	.text.chMBReset,"ax",%progbits
  95      AFF30080 
  95      AFF30080 
  96              		.align	2
  97              		.p2align 4,,15
  98              		.global	chMBReset
  99              		.thumb
 100              		.thumb_func
 101              		.type	chMBReset, %function
 102              	chMBReset:
 103              	.LFB8:
 104              		.loc 1 84 0
 105              		.cfi_startproc
 106              		@ args = 0, pretend = 0, frame = 0
 107              		@ frame_needed = 0, uses_anonymous_args = 0
 108              	.LVL6:
 109 0000 10B5     		push	{r4, lr}
 110              	.LCFI1:
 111              		.cfi_def_cfa_offset 8
 112              		.cfi_offset 4, -8
ARM GAS  /tmp/ccOzgniH.s 			page 3


 113              		.cfi_offset 14, -4
 114              		.loc 1 86 0
 115 0002 0446     		mov	r4, r0
 116 0004 D8B1     		cbz	r0, .L9
 117              	.LVL7:
 118              	.L8:
 119              	.LBB2:
 120              		.loc 1 88 0
 121 0006 2023     		movs	r3, #32
 122              	.LVL8:
 123              	@ 88 "../../ChibiOS/os/kernel/src/chmboxes.c" 1
 124 0008 83F31188 		msr     BASEPRI, r3
 125              	@ 0 "" 2
 126              	.LVL9:
 127              		.thumb
 128              	.LBE2:
 129 000c FFF7FEFF 		bl	dbg_check_lock
 130              	.LVL10:
 131              		.loc 1 89 0
 132 0010 2368     		ldr	r3, [r4, #0]
 133              		.loc 1 90 0
 134 0012 6168     		ldr	r1, [r4, #4]
 135              		.loc 1 89 0
 136 0014 E360     		str	r3, [r4, #12]
 137              		.loc 1 90 0
 138 0016 C91A     		subs	r1, r1, r3
 139              		.loc 1 89 0
 140 0018 A360     		str	r3, [r4, #8]
 141              		.loc 1 90 0
 142 001a 04F11C00 		add	r0, r4, #28
 143 001e 8910     		asrs	r1, r1, #2
 144 0020 FFF7FEFF 		bl	chSemResetI
 145              	.LVL11:
 146              		.loc 1 91 0
 147 0024 04F11000 		add	r0, r4, #16
 148 0028 0021     		movs	r1, #0
 149 002a FFF7FEFF 		bl	chSemResetI
 150              	.LVL12:
 151              		.loc 1 92 0
 152 002e FFF7FEFF 		bl	chSchRescheduleS
 153              	.LVL13:
 154              		.loc 1 93 0
 155 0032 FFF7FEFF 		bl	dbg_check_unlock
 156              	.LVL14:
 157              	.LBB3:
 158 0036 0023     		movs	r3, #0
 159              	.LVL15:
 160              	@ 93 "../../ChibiOS/os/kernel/src/chmboxes.c" 1
 161 0038 83F31188 		msr     BASEPRI, r3
 162              	@ 0 "" 2
 163              	.LVL16:
 164              		.thumb
 165 003c 10BD     		pop	{r4, pc}
 166              	.LVL17:
 167              	.L9:
 168              	.LBE3:
 169              		.loc 1 86 0 discriminator 1
ARM GAS  /tmp/ccOzgniH.s 			page 4


 170 003e 0248     		ldr	r0, .L10
 171              	.LVL18:
 172 0040 FFF7FEFF 		bl	chDbgPanic
 173              	.LVL19:
 174 0044 DFE7     		b	.L8
 175              	.L11:
 176 0046 00BF     		.align	2
 177              	.L10:
 178 0048 10000000 		.word	.LC1
 179              		.cfi_endproc
 180              	.LFE8:
 181              		.size	chMBReset, .-chMBReset
 182 004c AFF30080 		.section	.text.chMBPostS,"ax",%progbits
 183              		.align	2
 184              		.p2align 4,,15
 185              		.global	chMBPostS
 186              		.thumb
 187              		.thumb_func
 188              		.type	chMBPostS, %function
 189              	chMBPostS:
 190              	.LFB10:
 191              		.loc 1 143 0
 192              		.cfi_startproc
 193              		@ args = 0, pretend = 0, frame = 0
 194              		@ frame_needed = 0, uses_anonymous_args = 0
 195              	.LVL20:
 196 0000 70B5     		push	{r4, r5, r6, lr}
 197              	.LCFI2:
 198              		.cfi_def_cfa_offset 16
 199              		.cfi_offset 4, -16
 200              		.cfi_offset 5, -12
 201              		.cfi_offset 6, -8
 202              		.cfi_offset 14, -4
 203              		.loc 1 143 0
 204 0002 0446     		mov	r4, r0
 205 0004 0E46     		mov	r6, r1
 206 0006 1546     		mov	r5, r2
 207              		.loc 1 146 0
 208 0008 FFF7FEFF 		bl	chDbgCheckClassS
 209              	.LVL21:
 210              		.loc 1 147 0
 211 000c C4B1     		cbz	r4, .L16
 212              	.L13:
 213              		.loc 1 149 0
 214 000e 2946     		mov	r1, r5
 215 0010 04F11C00 		add	r0, r4, #28
 216 0014 FFF7FEFF 		bl	chSemWaitTimeoutS
 217              	.LVL22:
 218              		.loc 1 150 0
 219 0018 0546     		mov	r5, r0
 220              	.LVL23:
 221 001a 78B9     		cbnz	r0, .L14
 222              		.loc 1 151 0
 223 001c A368     		ldr	r3, [r4, #8]
 224              		.loc 1 152 0
 225 001e 6268     		ldr	r2, [r4, #4]
 226              		.loc 1 151 0
ARM GAS  /tmp/ccOzgniH.s 			page 5


 227 0020 43F8046B 		str	r6, [r3], #4
 228              		.loc 1 152 0
 229 0024 9342     		cmp	r3, r2
 230              		.loc 1 151 0
 231 0026 A360     		str	r3, [r4, #8]
 232              		.loc 1 153 0
 233 0028 28BF     		it	cs
 234 002a 2368     		ldrcs	r3, [r4, #0]
 235              		.loc 1 154 0
 236 002c 04F11000 		add	r0, r4, #16
 237              	.LVL24:
 238              		.loc 1 153 0
 239 0030 28BF     		it	cs
 240 0032 A360     		strcs	r3, [r4, #8]
 241              		.loc 1 154 0
 242 0034 FFF7FEFF 		bl	chSemSignalI
 243              	.LVL25:
 244              		.loc 1 155 0
 245 0038 FFF7FEFF 		bl	chSchRescheduleS
 246              	.LVL26:
 247              	.L14:
 248              		.loc 1 158 0
 249 003c 2846     		mov	r0, r5
 250 003e 70BD     		pop	{r4, r5, r6, pc}
 251              	.LVL27:
 252              	.L16:
 253              		.loc 1 147 0 discriminator 1
 254 0040 0148     		ldr	r0, .L17
 255 0042 FFF7FEFF 		bl	chDbgPanic
 256              	.LVL28:
 257 0046 E2E7     		b	.L13
 258              	.L18:
 259              		.align	2
 260              	.L17:
 261 0048 20000000 		.word	.LC2
 262              		.cfi_endproc
 263              	.LFE10:
 264              		.size	chMBPostS, .-chMBPostS
 265 004c AFF30080 		.section	.text.chMBPost,"ax",%progbits
 266              		.align	2
 267              		.p2align 4,,15
 268              		.global	chMBPost
 269              		.thumb
 270              		.thumb_func
 271              		.type	chMBPost, %function
 272              	chMBPost:
 273              	.LFB9:
 274              		.loc 1 115 0
 275              		.cfi_startproc
 276              		@ args = 0, pretend = 0, frame = 0
 277              		@ frame_needed = 0, uses_anonymous_args = 0
 278              	.LVL29:
 279 0000 70B5     		push	{r4, r5, r6, lr}
 280              	.LCFI3:
 281              		.cfi_def_cfa_offset 16
 282              		.cfi_offset 4, -16
 283              		.cfi_offset 5, -12
ARM GAS  /tmp/ccOzgniH.s 			page 6


 284              		.cfi_offset 6, -8
 285              		.cfi_offset 14, -4
 286              	.LBB4:
 287              		.loc 1 118 0
 288 0002 2023     		movs	r3, #32
 289              	.LVL30:
 290              	.LBE4:
 291              		.loc 1 115 0
 292 0004 0646     		mov	r6, r0
 293 0006 0D46     		mov	r5, r1
 294 0008 1446     		mov	r4, r2
 295              	.LBB5:
 296              		.loc 1 118 0
 297              	@ 118 "../../ChibiOS/os/kernel/src/chmboxes.c" 1
 298 000a 83F31188 		msr     BASEPRI, r3
 299              	@ 0 "" 2
 300              	.LVL31:
 301              		.thumb
 302              	.LBE5:
 303 000e FFF7FEFF 		bl	dbg_check_lock
 304              	.LVL32:
 305              		.loc 1 119 0
 306 0012 2246     		mov	r2, r4
 307 0014 2946     		mov	r1, r5
 308 0016 3046     		mov	r0, r6
 309 0018 FFF7FEFF 		bl	chMBPostS
 310              	.LVL33:
 311 001c 0446     		mov	r4, r0
 312              	.LVL34:
 313              		.loc 1 120 0
 314 001e FFF7FEFF 		bl	dbg_check_unlock
 315              	.LVL35:
 316              	.LBB6:
 317 0022 0023     		movs	r3, #0
 318              	.LVL36:
 319              	@ 120 "../../ChibiOS/os/kernel/src/chmboxes.c" 1
 320 0024 83F31188 		msr     BASEPRI, r3
 321              	@ 0 "" 2
 322              	.LVL37:
 323              		.thumb
 324              	.LBE6:
 325              		.loc 1 122 0
 326 0028 2046     		mov	r0, r4
 327 002a 70BD     		pop	{r4, r5, r6, pc}
 328              		.cfi_endproc
 329              	.LFE9:
 330              		.size	chMBPost, .-chMBPost
 331 002c AFF30080 		.section	.text.chMBPostI,"ax",%progbits
 332              		.align	2
 333              		.p2align 4,,15
 334              		.global	chMBPostI
 335              		.thumb
 336              		.thumb_func
 337              		.type	chMBPostI, %function
 338              	chMBPostI:
 339              	.LFB11:
 340              		.loc 1 174 0
ARM GAS  /tmp/ccOzgniH.s 			page 7


 341              		.cfi_startproc
 342              		@ args = 0, pretend = 0, frame = 0
 343              		@ frame_needed = 0, uses_anonymous_args = 0
 344              	.LVL38:
 345 0000 38B5     		push	{r3, r4, r5, lr}
 346              	.LCFI4:
 347              		.cfi_def_cfa_offset 16
 348              		.cfi_offset 3, -16
 349              		.cfi_offset 4, -12
 350              		.cfi_offset 5, -8
 351              		.cfi_offset 14, -4
 352              		.loc 1 174 0
 353 0002 0446     		mov	r4, r0
 354 0004 0D46     		mov	r5, r1
 355              		.loc 1 176 0
 356 0006 FFF7FEFF 		bl	chDbgCheckClassI
 357              	.LVL39:
 358              		.loc 1 177 0
 359 000a A4B1     		cbz	r4, .L25
 360              	.L21:
 361              		.loc 1 179 0
 362 000c 626A     		ldr	r2, [r4, #36]
 363 000e 002A     		cmp	r2, #0
 364 0010 15DD     		ble	.L24
 365              		.loc 1 182 0
 366 0012 A368     		ldr	r3, [r4, #8]
 367              		.loc 1 183 0
 368 0014 6168     		ldr	r1, [r4, #4]
 369              		.loc 1 181 0
 370 0016 013A     		subs	r2, r2, #1
 371 0018 6262     		str	r2, [r4, #36]
 372              		.loc 1 182 0
 373 001a 43F8045B 		str	r5, [r3], #4
 374              		.loc 1 183 0
 375 001e 8B42     		cmp	r3, r1
 376              		.loc 1 182 0
 377 0020 A360     		str	r3, [r4, #8]
 378              		.loc 1 184 0
 379 0022 28BF     		it	cs
 380 0024 2368     		ldrcs	r3, [r4, #0]
 381              		.loc 1 185 0
 382 0026 04F11000 		add	r0, r4, #16
 383              		.loc 1 184 0
 384 002a 28BF     		it	cs
 385 002c A360     		strcs	r3, [r4, #8]
 386              		.loc 1 185 0
 387 002e FFF7FEFF 		bl	chSemSignalI
 388              	.LVL40:
 389              		.loc 1 186 0
 390 0032 0020     		movs	r0, #0
 391 0034 38BD     		pop	{r3, r4, r5, pc}
 392              	.L25:
 393              		.loc 1 177 0 discriminator 1
 394 0036 0348     		ldr	r0, .L26
 395 0038 FFF7FEFF 		bl	chDbgPanic
 396              	.LVL41:
 397 003c E6E7     		b	.L21
ARM GAS  /tmp/ccOzgniH.s 			page 8


 398              	.L24:
 399              		.loc 1 180 0
 400 003e 4FF0FF30 		mov	r0, #-1
 401              		.loc 1 187 0
 402 0042 38BD     		pop	{r3, r4, r5, pc}
 403              	.L27:
 404              		.align	2
 405              	.L26:
 406 0044 30000000 		.word	.LC3
 407              		.cfi_endproc
 408              	.LFE11:
 409              		.size	chMBPostI, .-chMBPostI
 410 0048 AFF30080 		.section	.text.chMBPostAheadS,"ax",%progbits
 410      AFF30080 
 411              		.align	2
 412              		.p2align 4,,15
 413              		.global	chMBPostAheadS
 414              		.thumb
 415              		.thumb_func
 416              		.type	chMBPostAheadS, %function
 417              	chMBPostAheadS:
 418              	.LFB13:
 419              		.loc 1 236 0
 420              		.cfi_startproc
 421              		@ args = 0, pretend = 0, frame = 0
 422              		@ frame_needed = 0, uses_anonymous_args = 0
 423              	.LVL42:
 424 0000 70B5     		push	{r4, r5, r6, lr}
 425              	.LCFI5:
 426              		.cfi_def_cfa_offset 16
 427              		.cfi_offset 4, -16
 428              		.cfi_offset 5, -12
 429              		.cfi_offset 6, -8
 430              		.cfi_offset 14, -4
 431              		.loc 1 236 0
 432 0002 0446     		mov	r4, r0
 433 0004 0E46     		mov	r6, r1
 434 0006 1546     		mov	r5, r2
 435              		.loc 1 239 0
 436 0008 FFF7FEFF 		bl	chDbgCheckClassS
 437              	.LVL43:
 438              		.loc 1 240 0
 439 000c CCB1     		cbz	r4, .L32
 440              	.L29:
 441              		.loc 1 242 0
 442 000e 2946     		mov	r1, r5
 443 0010 04F11C00 		add	r0, r4, #28
 444 0014 FFF7FEFF 		bl	chSemWaitTimeoutS
 445              	.LVL44:
 446              		.loc 1 243 0
 447 0018 0546     		mov	r5, r0
 448              	.LVL45:
 449 001a 60B9     		cbnz	r0, .L30
 450              		.loc 1 244 0
 451 001c E368     		ldr	r3, [r4, #12]
 452 001e 2268     		ldr	r2, [r4, #0]
 453 0020 043B     		subs	r3, r3, #4
ARM GAS  /tmp/ccOzgniH.s 			page 9


 454 0022 9342     		cmp	r3, r2
 455 0024 E360     		str	r3, [r4, #12]
 456 0026 08D3     		bcc	.L33
 457              	.L31:
 458              		.loc 1 247 0
 459 0028 04F11000 		add	r0, r4, #16
 460              	.LVL46:
 461              		.loc 1 246 0
 462 002c 1E60     		str	r6, [r3, #0]
 463              		.loc 1 247 0
 464 002e FFF7FEFF 		bl	chSemSignalI
 465              	.LVL47:
 466              		.loc 1 248 0
 467 0032 FFF7FEFF 		bl	chSchRescheduleS
 468              	.LVL48:
 469              	.L30:
 470              		.loc 1 251 0
 471 0036 2846     		mov	r0, r5
 472 0038 70BD     		pop	{r4, r5, r6, pc}
 473              	.LVL49:
 474              	.L33:
 475              		.loc 1 245 0
 476 003a 6368     		ldr	r3, [r4, #4]
 477 003c 043B     		subs	r3, r3, #4
 478 003e E360     		str	r3, [r4, #12]
 479 0040 F2E7     		b	.L31
 480              	.LVL50:
 481              	.L32:
 482              		.loc 1 240 0 discriminator 1
 483 0042 0248     		ldr	r0, .L34
 484 0044 FFF7FEFF 		bl	chDbgPanic
 485              	.LVL51:
 486 0048 E1E7     		b	.L29
 487              	.L35:
 488 004a 00BF     		.align	2
 489              	.L34:
 490 004c 40000000 		.word	.LC4
 491              		.cfi_endproc
 492              	.LFE13:
 493              		.size	chMBPostAheadS, .-chMBPostAheadS
 494              		.section	.text.chMBPostAhead,"ax",%progbits
 495              		.align	2
 496              		.p2align 4,,15
 497              		.global	chMBPostAhead
 498              		.thumb
 499              		.thumb_func
 500              		.type	chMBPostAhead, %function
 501              	chMBPostAhead:
 502              	.LFB12:
 503              		.loc 1 208 0
 504              		.cfi_startproc
 505              		@ args = 0, pretend = 0, frame = 0
 506              		@ frame_needed = 0, uses_anonymous_args = 0
 507              	.LVL52:
 508 0000 70B5     		push	{r4, r5, r6, lr}
 509              	.LCFI6:
 510              		.cfi_def_cfa_offset 16
ARM GAS  /tmp/ccOzgniH.s 			page 10


 511              		.cfi_offset 4, -16
 512              		.cfi_offset 5, -12
 513              		.cfi_offset 6, -8
 514              		.cfi_offset 14, -4
 515              	.LBB7:
 516              		.loc 1 211 0
 517 0002 2023     		movs	r3, #32
 518              	.LVL53:
 519              	.LBE7:
 520              		.loc 1 208 0
 521 0004 0646     		mov	r6, r0
 522 0006 0D46     		mov	r5, r1
 523 0008 1446     		mov	r4, r2
 524              	.LBB8:
 525              		.loc 1 211 0
 526              	@ 211 "../../ChibiOS/os/kernel/src/chmboxes.c" 1
 527 000a 83F31188 		msr     BASEPRI, r3
 528              	@ 0 "" 2
 529              	.LVL54:
 530              		.thumb
 531              	.LBE8:
 532 000e FFF7FEFF 		bl	dbg_check_lock
 533              	.LVL55:
 534              		.loc 1 212 0
 535 0012 2246     		mov	r2, r4
 536 0014 2946     		mov	r1, r5
 537 0016 3046     		mov	r0, r6
 538 0018 FFF7FEFF 		bl	chMBPostAheadS
 539              	.LVL56:
 540 001c 0446     		mov	r4, r0
 541              	.LVL57:
 542              		.loc 1 213 0
 543 001e FFF7FEFF 		bl	dbg_check_unlock
 544              	.LVL58:
 545              	.LBB9:
 546 0022 0023     		movs	r3, #0
 547              	.LVL59:
 548              	@ 213 "../../ChibiOS/os/kernel/src/chmboxes.c" 1
 549 0024 83F31188 		msr     BASEPRI, r3
 550              	@ 0 "" 2
 551              	.LVL60:
 552              		.thumb
 553              	.LBE9:
 554              		.loc 1 215 0
 555 0028 2046     		mov	r0, r4
 556 002a 70BD     		pop	{r4, r5, r6, pc}
 557              		.cfi_endproc
 558              	.LFE12:
 559              		.size	chMBPostAhead, .-chMBPostAhead
 560 002c AFF30080 		.section	.text.chMBPostAheadI,"ax",%progbits
 561              		.align	2
 562              		.p2align 4,,15
 563              		.global	chMBPostAheadI
 564              		.thumb
 565              		.thumb_func
 566              		.type	chMBPostAheadI, %function
 567              	chMBPostAheadI:
ARM GAS  /tmp/ccOzgniH.s 			page 11


 568              	.LFB14:
 569              		.loc 1 267 0
 570              		.cfi_startproc
 571              		@ args = 0, pretend = 0, frame = 0
 572              		@ frame_needed = 0, uses_anonymous_args = 0
 573              	.LVL61:
 574 0000 38B5     		push	{r3, r4, r5, lr}
 575              	.LCFI7:
 576              		.cfi_def_cfa_offset 16
 577              		.cfi_offset 3, -16
 578              		.cfi_offset 4, -12
 579              		.cfi_offset 5, -8
 580              		.cfi_offset 14, -4
 581              		.loc 1 267 0
 582 0002 0446     		mov	r4, r0
 583 0004 0D46     		mov	r5, r1
 584              		.loc 1 269 0
 585 0006 FFF7FEFF 		bl	chDbgCheckClassI
 586              	.LVL62:
 587              		.loc 1 270 0
 588 000a A4B1     		cbz	r4, .L42
 589              	.L38:
 590              		.loc 1 272 0
 591 000c 626A     		ldr	r2, [r4, #36]
 592 000e 002A     		cmp	r2, #0
 593 0010 15DD     		ble	.L41
 594              		.loc 1 275 0
 595 0012 E368     		ldr	r3, [r4, #12]
 596 0014 2168     		ldr	r1, [r4, #0]
 597 0016 043B     		subs	r3, r3, #4
 598              		.loc 1 274 0
 599 0018 013A     		subs	r2, r2, #1
 600              		.loc 1 275 0
 601 001a 8B42     		cmp	r3, r1
 602              		.loc 1 274 0
 603 001c 6262     		str	r2, [r4, #36]
 604              		.loc 1 275 0
 605 001e E360     		str	r3, [r4, #12]
 606 0020 02D2     		bcs	.L40
 607              		.loc 1 276 0
 608 0022 6368     		ldr	r3, [r4, #4]
 609 0024 043B     		subs	r3, r3, #4
 610 0026 E360     		str	r3, [r4, #12]
 611              	.L40:
 612              		.loc 1 278 0
 613 0028 04F11000 		add	r0, r4, #16
 614              		.loc 1 277 0
 615 002c 1D60     		str	r5, [r3, #0]
 616              		.loc 1 278 0
 617 002e FFF7FEFF 		bl	chSemSignalI
 618              	.LVL63:
 619              		.loc 1 279 0
 620 0032 0020     		movs	r0, #0
 621 0034 38BD     		pop	{r3, r4, r5, pc}
 622              	.L42:
 623              		.loc 1 270 0 discriminator 1
 624 0036 0348     		ldr	r0, .L43
ARM GAS  /tmp/ccOzgniH.s 			page 12


 625 0038 FFF7FEFF 		bl	chDbgPanic
 626              	.LVL64:
 627 003c E6E7     		b	.L38
 628              	.L41:
 629              		.loc 1 273 0
 630 003e 4FF0FF30 		mov	r0, #-1
 631              		.loc 1 280 0
 632 0042 38BD     		pop	{r3, r4, r5, pc}
 633              	.L44:
 634              		.align	2
 635              	.L43:
 636 0044 54000000 		.word	.LC5
 637              		.cfi_endproc
 638              	.LFE14:
 639              		.size	chMBPostAheadI, .-chMBPostAheadI
 640 0048 AFF30080 		.section	.text.chMBFetchS,"ax",%progbits
 640      AFF30080 
 641              		.align	2
 642              		.p2align 4,,15
 643              		.global	chMBFetchS
 644              		.thumb
 645              		.thumb_func
 646              		.type	chMBFetchS, %function
 647              	chMBFetchS:
 648              	.LFB16:
 649              		.loc 1 329 0
 650              		.cfi_startproc
 651              		@ args = 0, pretend = 0, frame = 0
 652              		@ frame_needed = 0, uses_anonymous_args = 0
 653              	.LVL65:
 654 0000 70B5     		push	{r4, r5, r6, lr}
 655              	.LCFI8:
 656              		.cfi_def_cfa_offset 16
 657              		.cfi_offset 4, -16
 658              		.cfi_offset 5, -12
 659              		.cfi_offset 6, -8
 660              		.cfi_offset 14, -4
 661              		.loc 1 329 0
 662 0002 0446     		mov	r4, r0
 663 0004 0E46     		mov	r6, r1
 664 0006 1546     		mov	r5, r2
 665              		.loc 1 332 0
 666 0008 FFF7FEFF 		bl	chDbgCheckClassS
 667              	.LVL66:
 668              		.loc 1 333 0
 669 000c 002C     		cmp	r4, #0
 670 000e 18BF     		it	ne
 671 0010 002E     		cmpne	r6, #0
 672 0012 19D0     		beq	.L52
 673              	.L46:
 674              		.loc 1 335 0
 675 0014 2946     		mov	r1, r5
 676 0016 04F11000 		add	r0, r4, #16
 677 001a FFF7FEFF 		bl	chSemWaitTimeoutS
 678              	.LVL67:
 679              		.loc 1 336 0
 680 001e 0546     		mov	r5, r0
ARM GAS  /tmp/ccOzgniH.s 			page 13


 681              	.LVL68:
 682 0020 80B9     		cbnz	r0, .L47
 683              		.loc 1 337 0
 684 0022 E368     		ldr	r3, [r4, #12]
 685              		.loc 1 338 0
 686 0024 6268     		ldr	r2, [r4, #4]
 687              		.loc 1 337 0
 688 0026 53F8041B 		ldr	r1, [r3], #4
 689              		.loc 1 338 0
 690 002a 9342     		cmp	r3, r2
 691              		.loc 1 337 0
 692 002c 3160     		str	r1, [r6, #0]
 693 002e E360     		str	r3, [r4, #12]
 694              		.loc 1 339 0
 695 0030 28BF     		it	cs
 696 0032 2368     		ldrcs	r3, [r4, #0]
 697              		.loc 1 340 0
 698 0034 04F11C00 		add	r0, r4, #28
 699              	.LVL69:
 700              		.loc 1 339 0
 701 0038 28BF     		it	cs
 702 003a E360     		strcs	r3, [r4, #12]
 703              		.loc 1 340 0
 704 003c FFF7FEFF 		bl	chSemSignalI
 705              	.LVL70:
 706              		.loc 1 341 0
 707 0040 FFF7FEFF 		bl	chSchRescheduleS
 708              	.LVL71:
 709              	.L47:
 710              		.loc 1 344 0
 711 0044 2846     		mov	r0, r5
 712 0046 70BD     		pop	{r4, r5, r6, pc}
 713              	.LVL72:
 714              	.L52:
 715              		.loc 1 333 0 discriminator 1
 716 0048 0148     		ldr	r0, .L53
 717 004a FFF7FEFF 		bl	chDbgPanic
 718              	.LVL73:
 719 004e E1E7     		b	.L46
 720              	.L54:
 721              		.align	2
 722              	.L53:
 723 0050 68000000 		.word	.LC6
 724              		.cfi_endproc
 725              	.LFE16:
 726              		.size	chMBFetchS, .-chMBFetchS
 727 0054 AFF30080 		.section	.text.chMBFetch,"ax",%progbits
 727      AFF30080 
 727      AFF30080 
 728              		.align	2
 729              		.p2align 4,,15
 730              		.global	chMBFetch
 731              		.thumb
 732              		.thumb_func
 733              		.type	chMBFetch, %function
 734              	chMBFetch:
 735              	.LFB15:
ARM GAS  /tmp/ccOzgniH.s 			page 14


 736              		.loc 1 301 0
 737              		.cfi_startproc
 738              		@ args = 0, pretend = 0, frame = 0
 739              		@ frame_needed = 0, uses_anonymous_args = 0
 740              	.LVL74:
 741 0000 70B5     		push	{r4, r5, r6, lr}
 742              	.LCFI9:
 743              		.cfi_def_cfa_offset 16
 744              		.cfi_offset 4, -16
 745              		.cfi_offset 5, -12
 746              		.cfi_offset 6, -8
 747              		.cfi_offset 14, -4
 748              	.LBB10:
 749              		.loc 1 304 0
 750 0002 2023     		movs	r3, #32
 751              	.LVL75:
 752              	.LBE10:
 753              		.loc 1 301 0
 754 0004 0646     		mov	r6, r0
 755 0006 0D46     		mov	r5, r1
 756 0008 1446     		mov	r4, r2
 757              	.LBB11:
 758              		.loc 1 304 0
 759              	@ 304 "../../ChibiOS/os/kernel/src/chmboxes.c" 1
 760 000a 83F31188 		msr     BASEPRI, r3
 761              	@ 0 "" 2
 762              	.LVL76:
 763              		.thumb
 764              	.LBE11:
 765 000e FFF7FEFF 		bl	dbg_check_lock
 766              	.LVL77:
 767              		.loc 1 305 0
 768 0012 2246     		mov	r2, r4
 769 0014 2946     		mov	r1, r5
 770 0016 3046     		mov	r0, r6
 771 0018 FFF7FEFF 		bl	chMBFetchS
 772              	.LVL78:
 773 001c 0446     		mov	r4, r0
 774              	.LVL79:
 775              		.loc 1 306 0
 776 001e FFF7FEFF 		bl	dbg_check_unlock
 777              	.LVL80:
 778              	.LBB12:
 779 0022 0023     		movs	r3, #0
 780              	.LVL81:
 781              	@ 306 "../../ChibiOS/os/kernel/src/chmboxes.c" 1
 782 0024 83F31188 		msr     BASEPRI, r3
 783              	@ 0 "" 2
 784              	.LVL82:
 785              		.thumb
 786              	.LBE12:
 787              		.loc 1 308 0
 788 0028 2046     		mov	r0, r4
 789 002a 70BD     		pop	{r4, r5, r6, pc}
 790              		.cfi_endproc
 791              	.LFE15:
 792              		.size	chMBFetch, .-chMBFetch
ARM GAS  /tmp/ccOzgniH.s 			page 15


 793 002c AFF30080 		.section	.text.chMBFetchI,"ax",%progbits
 794              		.align	2
 795              		.p2align 4,,15
 796              		.global	chMBFetchI
 797              		.thumb
 798              		.thumb_func
 799              		.type	chMBFetchI, %function
 800              	chMBFetchI:
 801              	.LFB17:
 802              		.loc 1 360 0
 803              		.cfi_startproc
 804              		@ args = 0, pretend = 0, frame = 0
 805              		@ frame_needed = 0, uses_anonymous_args = 0
 806              	.LVL83:
 807 0000 38B5     		push	{r3, r4, r5, lr}
 808              	.LCFI10:
 809              		.cfi_def_cfa_offset 16
 810              		.cfi_offset 3, -16
 811              		.cfi_offset 4, -12
 812              		.cfi_offset 5, -8
 813              		.cfi_offset 14, -4
 814              		.loc 1 360 0
 815 0002 0446     		mov	r4, r0
 816 0004 0D46     		mov	r5, r1
 817              		.loc 1 362 0
 818 0006 FFF7FEFF 		bl	chDbgCheckClassI
 819              	.LVL84:
 820              		.loc 1 363 0
 821 000a 002C     		cmp	r4, #0
 822 000c 18BF     		it	ne
 823 000e 002D     		cmpne	r5, #0
 824 0010 15D0     		beq	.L64
 825              	.L57:
 826              		.loc 1 365 0
 827 0012 A269     		ldr	r2, [r4, #24]
 828 0014 002A     		cmp	r2, #0
 829 0016 16DD     		ble	.L60
 830              		.loc 1 368 0
 831 0018 E368     		ldr	r3, [r4, #12]
 832              		.loc 1 369 0
 833 001a 6168     		ldr	r1, [r4, #4]
 834              		.loc 1 367 0
 835 001c 013A     		subs	r2, r2, #1
 836 001e A261     		str	r2, [r4, #24]
 837              		.loc 1 368 0
 838 0020 53F8042B 		ldr	r2, [r3], #4
 839              		.loc 1 369 0
 840 0024 8B42     		cmp	r3, r1
 841              		.loc 1 368 0
 842 0026 2A60     		str	r2, [r5, #0]
 843 0028 E360     		str	r3, [r4, #12]
 844              		.loc 1 370 0
 845 002a 28BF     		it	cs
 846 002c 2368     		ldrcs	r3, [r4, #0]
 847              		.loc 1 371 0
 848 002e 04F11C00 		add	r0, r4, #28
 849              		.loc 1 370 0
ARM GAS  /tmp/ccOzgniH.s 			page 16


 850 0032 28BF     		it	cs
 851 0034 E360     		strcs	r3, [r4, #12]
 852              		.loc 1 371 0
 853 0036 FFF7FEFF 		bl	chSemSignalI
 854              	.LVL85:
 855              		.loc 1 372 0
 856 003a 0020     		movs	r0, #0
 857 003c 38BD     		pop	{r3, r4, r5, pc}
 858              	.L64:
 859              		.loc 1 363 0 discriminator 1
 860 003e 0348     		ldr	r0, .L65
 861 0040 FFF7FEFF 		bl	chDbgPanic
 862              	.LVL86:
 863 0044 E5E7     		b	.L57
 864              	.L60:
 865              		.loc 1 366 0
 866 0046 4FF0FF30 		mov	r0, #-1
 867              		.loc 1 373 0
 868 004a 38BD     		pop	{r3, r4, r5, pc}
 869              	.L66:
 870              		.align	2
 871              	.L65:
 872 004c 78000000 		.word	.LC7
 873              		.cfi_endproc
 874              	.LFE17:
 875              		.size	chMBFetchI, .-chMBFetchI
 876              		.section	.rodata.str1.4,"aMS",%progbits,1
 877              		.align	2
 878              	.LC0:
 879 0000 2263684D 		.ascii	"\"chMBInit\"()\000"
 879      42496E69 
 879      74222829 
 879      00
 880 000d 000000   		.space	3
 881              	.LC1:
 882 0010 2263684D 		.ascii	"\"chMBReset\"()\000"
 882      42526573 
 882      65742228 
 882      2900
 883 001e 0000     		.space	2
 884              	.LC2:
 885 0020 2263684D 		.ascii	"\"chMBPostS\"()\000"
 885      42506F73 
 885      74532228 
 885      2900
 886 002e 0000     		.space	2
 887              	.LC3:
 888 0030 2263684D 		.ascii	"\"chMBPostI\"()\000"
 888      42506F73 
 888      74492228 
 888      2900
 889 003e 0000     		.space	2
 890              	.LC4:
 891 0040 2263684D 		.ascii	"\"chMBPostAheadS\"()\000"
 891      42506F73 
 891      74416865 
 891      61645322 
ARM GAS  /tmp/ccOzgniH.s 			page 17


 891      282900
 892 0053 00       		.space	1
 893              	.LC5:
 894 0054 2263684D 		.ascii	"\"chMBPostAheadI\"()\000"
 894      42506F73 
 894      74416865 
 894      61644922 
 894      282900
 895 0067 00       		.space	1
 896              	.LC6:
 897 0068 2263684D 		.ascii	"\"chMBFetchS\"()\000"
 897      42466574 
 897      63685322 
 897      282900
 898 0077 00       		.space	1
 899              	.LC7:
 900 0078 2263684D 		.ascii	"\"chMBFetchI\"()\000"
 900      42466574 
 900      63684922 
 900      282900
 901 0087 00       		.text
 902              	.Letext0:
 903              		.file 2 "/home/david/toolchains/psas/x-tools/stm32f407/arm-psas-eabi/bin/../lib/gcc/arm-psas-eabi/
 904              		.file 3 "../../ChibiOS/os/ports/GCC/ARMCMx/chtypes.h"
 905              		.file 4 "../../ChibiOS/os/kernel/include/chlists.h"
 906              		.file 5 "../../ChibiOS/os/kernel/include/chthreads.h"
 907              		.file 6 "../../ChibiOS/os/ports/GCC/ARMCMx/chcore_v7m.h"
 908              		.file 7 "../../ChibiOS/os/kernel/include/chsem.h"
 909              		.file 8 "../../ChibiOS/os/kernel/include/chmtx.h"
 910              		.file 9 "../../ChibiOS/os/kernel/include/chmboxes.h"
 911              		.file 10 "../../ChibiOS/os/kernel/include/chdebug.h"
 912              		.file 11 "../../ChibiOS/os/kernel/include/chschd.h"