ARM GAS  /tmp/ccOzgniH.s 			page 1


   1              		.syntax unified
   2              		.cpu cortex-m4
   3              		.eabi_attribute 27, 3
   4              		.eabi_attribute 28, 1
   5              		.fpu fpv4-sp-d16
   6              		.eabi_attribute 20, 1
   7              		.eabi_attribute 21, 1
   8              		.eabi_attribute 23, 3
   9              		.eabi_attribute 24, 1
  10              		.eabi_attribute 25, 1
  11              		.eabi_attribute 26, 1
  12              		.eabi_attribute 30, 2
  13              		.eabi_attribute 34, 1
  14              		.eabi_attribute 18, 4
  15              		.thumb
  16              		.file	"chmboxes.c"
  17              		.text
  18              	.Ltext0:
  19              		.cfi_sections	.debug_frame
  20              		.section	.text.chMBInit,"ax",%progbits
  21              		.align	2
  22              		.p2align 4,,15
  23              		.global	chMBInit
  24              		.thumb
  25              		.thumb_func
  26              		.type	chMBInit, %function
  27              	chMBInit:
  28              	.LFB7:
  29              		.file 1 "../../ChibiOS/os/kernel/src/chmboxes.c"
  30              		.loc 1 65 0
  31              		.cfi_startproc
  32              		@ args = 0, pretend = 0, frame = 0
  33              		@ frame_needed = 0, uses_anonymous_args = 0
  34              	.LVL0:
  35              		.loc 1 67 0
  36 0000 0028     		cmp	r0, #0
  37 0002 18BF     		it	ne
  38 0004 0029     		cmpne	r1, #0
  39              		.loc 1 65 0
  40 0006 70B5     		push	{r4, r5, r6, lr}
  41              	.LCFI0:
  42              		.cfi_def_cfa_offset 16
  43              		.cfi_offset 4, -16
  44              		.cfi_offset 5, -12
  45              		.cfi_offset 6, -8
  46              		.cfi_offset 14, -4
  47              		.loc 1 67 0
  48 0008 0D46     		mov	r5, r1
  49 000a 0446     		mov	r4, r0
  50              		.loc 1 65 0
  51 000c 1646     		mov	r6, r2
  52              		.loc 1 67 0
  53 000e 13D0     		beq	.L2
  54              		.loc 1 67 0 is_stmt 0 discriminator 2
  55 0010 002A     		cmp	r2, #0
  56 0012 11DD     		ble	.L2
  57              	.LVL1:
ARM GAS  /tmp/ccOzgniH.s 			page 2


  58              	.L3:
  59              		.loc 1 70 0 is_stmt 1
  60 0014 05EB8603 		add	r3, r5, r6, lsl #2
  61              		.loc 1 71 0
  62 0018 04F11C00 		add	r0, r4, #28
  63 001c 3146     		mov	r1, r6
  64              		.loc 1 69 0
  65 001e E560     		str	r5, [r4, #12]
  66 0020 A560     		str	r5, [r4, #8]
  67 0022 2560     		str	r5, [r4, #0]
  68              		.loc 1 70 0
  69 0024 6360     		str	r3, [r4, #4]
  70              		.loc 1 71 0
  71 0026 FFF7FEFF 		bl	chSemInit
  72              	.LVL2:
  73              		.loc 1 72 0
  74 002a 04F11000 		add	r0, r4, #16
  75 002e 0021     		movs	r1, #0
  76              		.loc 1 73 0
  77 0030 BDE87040 		pop	{r4, r5, r6, lr}
  78              		.loc 1 72 0
  79 0034 FFF7FEBF 		b	chSemInit
  80              	.LVL3:
  81              	.L2:
  82              		.loc 1 67 0 discriminator 1
  83 0038 0148     		ldr	r0, .L5
  84              	.LVL4:
  85 003a FFF7FEFF 		bl	chDbgPanic
  86              	.LVL5:
  87 003e E9E7     		b	.L3
  88              	.L6:
  89              		.align	2
  90              	.L5:
  91 0040 00000000 		.word	.LC0
  92              		.cfi_endproc
  93              	.LFE7:
  94              		.size	chMBInit, .-chMBInit
  95 0044 AFF30080 		.section	.text.chMBReset,"ax",%progbits
  95      AFF30080 
  95      AFF30080 
  96              		.align	2
  97              		.p2align 4,,15
  98              		.global	chMBReset
  99              		.thumb
 100              		.thumb_func
 101              		.type	chMBReset, %function
 102              	chMBReset:
 103              	.LFB8:
 104              		.loc 1 84 0
 105              		.cfi_startproc
 106              		@ args = 0, pretend = 0, frame = 0
 107              		@ frame_needed = 0, uses_anonymous_args = 0
 108              	.LVL6:
 109 0000 10B5     		push	{r4, lr}
 110              	.LCFI1:
 111              		.cfi_def_cfa_offset 8
 112              		.cfi_offset 4, -8
ARM GAS  /tmp/ccOzgniH.s 			page 3


 113              		.cfi_offset 14, -4
 114              		.loc 1 86 0
 115 0002 0446     		mov	r4, r0
 116 0004 D8B1     		cbz	r0, .L9
 117              	.LVL7:
 118              	.L8:
 119              	.LBB2:
 120              		.loc 1 88 0
 121 0006 2023     		movs	r3, #32
 122              	.LVL8:
 123              	@ 88 "../../ChibiOS/os/kernel/src/chmboxes.c" 1
 124 0008 83F31188 		msr     BASEPRI, r3
 125              	@ 0 "" 2
 126              	.LVL9:
 127              		.thumb
 128              	.LBE2:
 129 000c FFF7FEFF 		bl	dbg_check_lock
 130              	.LVL10:
 131              		.loc 1 89 0
 132 0010 2368     		ldr	r3, [r4, #0]
 133              		.loc 1 90 0
 134 0012 6168     		ldr	r1, [r4, #4]
 135              		.loc 1 89 0
 136 0014 E360     		str	r3, [r4, #12]
 137              		.loc 1 90 0
 138 0016 C91A     		subs	r1, r1, r3
 139              		.loc 1 89 0
 140 0018 A360     		str	r3, [r4, #8]
 141              		.loc 1 90 0
 142 001a 04F11C00 		add	r0, r4, #28
 143 001e 8910     		asrs	r1, r1, #2
 144 0020 FFF7FEFF 		bl	chSemResetI
 145              	.LVL11:
 146              		.loc 1 91 0
 147 0024 04F11000 		add	r0, r4, #16
 148 0028 0021     		movs	r1, #0
 149 002a FFF7FEFF 		bl	chSemResetI
 150              	.LVL12:
 151              		.loc 1 92 0
 152 002e FFF7FEFF 		bl	chSchRescheduleS
 153              	.LVL13:
 154              		.loc 1 93 0
 155 0032 FFF7FEFF 		bl	dbg_check_unlock
 156              	.LVL14:
 157              	.LBB3:
 158 0036 0023     		movs	r3, #0
 159              	.LVL15:
 160              	@ 93 "../../ChibiOS/os/kernel/src/chmboxes.c" 1
 161 0038 83F31188 		msr     BASEPRI, r3
 162              	@ 0 "" 2
 163              	.LVL16:
 164              		.thumb
 165 003c 10BD     		pop	{r4, pc}
 166              	.LVL17:
 167              	.L9:
 168              	.LBE3:
 169              		.loc 1 86 0 discriminator 1
ARM GAS  /tmp/ccOzgniH.s 			page 4


 170 003e 0248     		ldr	r0, .L10
 171              	.LVL18:
 172 0040 FFF7FEFF 		bl	chDbgPanic
 173              	.LVL19:
 174 0044 DFE7     		b	.L8
 175              	.L11:
 176 0046 00BF     		.align	2
 177              	.L10:
 178 0048 10000000 		.word	.LC1
 179              		.cfi_endproc
 180              	.LFE8:
 181              		.size	chMBReset, .-chMBReset
 182 004c AFF30080 		.section	.text.chMBPostS,"ax",%progbits
 183              		.align	2
 184              		.p2align 4,,15
 185              		.global	chMBPostS
 186              		.thumb
 187              		.thumb_func
 188              		.type	chMBPostS, %function
 189              	chMBPostS:
 190              	.LFB10:
 191              		.loc 1 143 0
 192              		.cfi_startproc
 193              		@ args = 0, pretend = 0, frame = 0
 194              		@ frame_needed = 0, uses_anonymous_args = 0
 195              	.LVL20:
 196 0000 70B5     		push	{r4, r5, r6, lr}
 197              	.LCFI2:
 198              		.cfi_def_cfa_offset 16
 199              		.cfi_offset 4, -16
 200              		.cfi_offset 5, -12
 201              		.cfi_offset 6, -8
 202              		.cfi_offset 14, -4
 203              		.loc 1 143 0
 204 0002 0446     		mov	r4, r0
 205 0004 0E46     		mov	r6, r1
 206 0006 1546     		mov	r5, r2
 207              		.loc 1 146 0
 208 0008 FFF7FEFF 		bl	chDbgCheckClassS
 209              	.LVL21:
 210              		.loc 1 147 0
 211 000c C4B1     		cbz	r4, .L16
 212              	.L13:
 213              		.loc 1 149 0
 214 000e 2946     		mov	r1, r5
 215 0010 04F11C00 		add	r0, r4, #28
 216 0014 FFF7FEFF 		bl	chSemWaitTimeoutS
 217              	.LVL22:
 218              		.loc 1 150 0
 219 0018 0546     		mov	r5, r0
 220              	.LVL23:
 221 001a 78B9     		cbnz	r0, .L14
 222              		.loc 1 151 0
 223 001c A368     		ldr	r3, [r4, #8]
 224              		.loc 1 152 0
 225 001e 6268     		ldr	r2, [r4, #4]
 226              		.loc 1 151 0
ARM GAS  /tmp/ccOzgniH.s 			page 5


 227 0020 43F8046B 		str	r6, [r3], #4
 228              		.loc 1 152 0
 229 0024 9342     		cmp	r3, r2
 230              		.loc 1 151 0
 231 0026 A360     		str	r3, [r4, #8]
 232              		.loc 1 153 0
 233 0028 28BF     		it	cs
 234 002a 2368     		ldrcs	r3, [r4, #0]
 235              		.loc 1 154 0
 236 002c 04F11000 		add	r0, r4, #16
 237              	.LVL24:
 238              		.loc 1 153 0
 239 0030 28BF     		it	cs
 240 0032 A360     		strcs	r3, [r4, #8]
 241              		.loc 1 154 0
 242 0034 FFF7FEFF 		bl	chSemSignalI
 243              	.LVL25:
 244              		.loc 1 155 0
 245 0038 FFF7FEFF 		bl	chSchRescheduleS
 246              	.LVL26:
 247              	.L14:
 248              		.loc 1 158 0
 249 003c 2846     		mov	r0, r5
 250 003e 70BD     		pop	{r4, r5, r6, pc}
 251              	.LVL27:
 252              	.L16:
 253              		.loc 1 147 0 discriminator 1
 254 0040 0148     		ldr	r0, .L17
 255 0042 FFF7FEFF 		bl	chDbgPanic
 256              	.LVL28:
 257 0046 E2E7     		b	.L13
 258              	.L18:
 259              		.align	2
 260              	.L17:
 261 0048 20000000 		.word	.LC2
 262              		.cfi_endproc
 263              	.LFE10:
 264              		.size	chMBPostS, .-chMBPostS
 265 004c AFF30080 		.section	.text.chMBPost,"ax",%progbits
 266              		.align	2
 267              		.p2align 4,,15
 268              		.global	chMBPost
 269              		.thumb
 270              		.thumb_func
 271              		.type	chMBPost, %function
 272              	chMBPost:
 273              	.LFB9:
 274              		.loc 1 115 0
 275              		.cfi_startproc
 276              		@ args = 0, pretend = 0, frame = 0
 277              		@ frame_needed = 0, uses_anonymous_args = 0
 278              	.LVL29:
 279 0000 70B5     		push	{r4, r5, r6, lr}
 280              	.LCFI3:
 281              		.cfi_def_cfa_offset 16
 282              		.cfi_offset 4, -16
 283              		.cfi_offset 5, -12
ARM GAS  /tmp/ccOzgniH.s 			page 6


 284              		.cfi_offset 6, -8
 285              		.cfi_offset 14, -4
 286              	.LBB4:
 287              		.loc 1 118 0
 288 0002 2023     		movs	r3, #32
 289              	.LVL30:
 290              	.LBE4:
 291              		.loc 1 115 0
 292 0004 0646     		mov	r6, r0
 293 0006 0D46     		mov	r5, r1
 294 0008 1446     		mov	r4, r2
 295              	.LBB5:
 296              		.loc 1 118 0
 297              	@ 118 "../../ChibiOS/os/kernel/src/chmboxes.c" 1
 298 000a 83F31188 		msr     BASEPRI, r3
 299              	@ 0 "" 2
 300              	.LVL31:
 301              		.thumb
 302              	.LBE5:
 303 000e FFF7FEFF 		bl	dbg_check_lock
 304              	.LVL32:
 305              		.loc 1 119 0
 306 0012 2246     		mov	r2, r4
 307 0014 2946     		mov	r1, r5
 308 0016 3046     		mov	r0, r6
 309 0018 FFF7FEFF 		bl	chMBPostS
 310              	.LVL33:
 311 001c 0446     		mov	r4, r0
 312              	.LVL34:
 313              		.loc 1 120 0
 314 001e FFF7FEFF 		bl	dbg_check_unlock
 315              	.LVL35:
 316              	.LBB6:
 317 0022 0023     		movs	r3, #0
 318              	.LVL36:
 319              	@ 120 "../../ChibiOS/os/kernel/src/chmboxes.c" 1
 320 0024 83F31188 		msr     BASEPRI, r3
 321              	@ 0 "" 2
 322              	.LVL37:
 323              		.thumb
 324              	.LBE6:
 325              		.loc 1 122 0
 326 0028 2046     		mov	r0, r4
 327 002a 70BD     		pop	{r4, r5, r6, pc}
 328              		.cfi_endproc
 329              	.LFE9:
 330              		.size	chMBPost, .-chMBPost
 331 002c AFF30080 		.section	.text.chMBPostI,"ax",%progbits
 332              		.align	2
 333              		.p2align 4,,15
 334              		.global	chMBPostI
 335              		.thumb
 336              		.thumb_func
 337              		.type	chMBPostI, %function
 338              	chMBPostI:
 339              	.LFB11:
 340              		.loc 1 174 0
ARM GAS  /tmp/ccOzgniH.s 			page 7


 341              		.cfi_startproc
 342              		@ args = 0, pretend = 0, frame = 0
 343              		@ frame_needed = 0, uses_anonymous_args = 0
 344              	.LVL38:
 345 0000 38B5     		push	{r3, r4, r5, lr}
 346              	.LCFI4:
 347              		.cfi_def_cfa_offset 16
 348              		.cfi_offset 3, -16
 349              		.cfi_offset 4, -12
 350              		.cfi_offset 5, -8
 351              		.cfi_offset 14, -4
 352              		.loc 1 174 0
 353 0002 0446     		mov	r4, r0
 354 0004 0D46     		mov	r5, r1
 355              		.loc 1 176 0
 356 0006 FFF7FEFF 		bl	chDbgCheckClassI
 357              	.LVL39:
 358              		.loc 1 177 0
 359 000a A4B1     		cbz	r4, .L25
 360              	.L21:
 361              		.loc 1 179 0
 362 000c 626A     		ldr	r2, [r4, #36]
 363 000e 002A     		cmp	r2, #0
 364 0010 15DD     		ble	.L24
 365              		.loc 1 182 0
 366 0012 A368     		ldr	r3, [r4, #8]
 367              		.loc 1 183 0
 368 0014 6168     		ldr	r1, [r4, #4]
 369              		.loc 1 181 0
 370 0016 013A     		subs	r2, r2, #1
 371 0018 6262     		str	r2, [r4, #36]
 372              		.loc 1 182 0
 373 001a 43F8045B 		str	r5, [r3], #4
 374              		.loc 1 183 0
 375 001e 8B42     		cmp	r3, r1
 376              		.loc 1 182 0
 377 0020 A360     		str	r3, [r4, #8]
 378              		.loc 1 184 0
 379 0022 28BF     		it	cs
 380 0024 2368     		ldrcs	r3, [r4, #0]
 381              		.loc 1 185 0
 382 0026 04F11000 		add	r0, r4, #16
 383              		.loc 1 184 0
 384 002a 28BF     		it	cs
 385 002c A360     		strcs	r3, [r4, #8]
 386              		.loc 1 185 0
 387 002e FFF7FEFF 		bl	chSemSignalI
 388              	.LVL40:
 389              		.loc 1 186 0
 390 0032 0020     		movs	r0, #0
 391 0034 38BD     		pop	{r3, r4, r5, pc}
 392              	.L25:
 393              		.loc 1 177 0 discriminator 1
 394 0036 0348     		ldr	r0, .L26
 395 0038 FFF7FEFF 		bl	chDbgPanic
 396              	.LVL41:
 397 003c E6E7     		b	.L21
ARM GAS  /tmp/ccOzgniH.s 			page 8


 398              	.L24:
 399              		.loc 1 180 0
 400 003e 4FF0FF30 		mov	r0, #-1
 401              		.loc 1 187 0
 402 0042 38BD     		pop	{r3, r4, r5, pc}
 403              	.L27:
 404              		.align	2
 405              	.L26:
 406 0044 30000000 		.word	.LC3
 407              		.cfi_endproc
 408              	.LFE11:
 409              		.size	chMBPostI, .-chMBPostI
 410 0048 AFF30080 		.section	.text.chMBPostAheadS,"ax",%progbits
 410      AFF30080 
 411              		.align	2
 412              		.p2align 4,,15
 413              		.global	chMBPostAheadS
 414              		.thumb
 415              		.thumb_func
 416              		.type	chMBPostAheadS, %function
 417              	chMBPostAheadS:
 418              	.LFB13:
 419              		.loc 1 236 0
 420              		.cfi_startproc
 421              		@ args = 0, pretend = 0, frame = 0
 422              		@ frame_needed = 0, uses_anonymous_args = 0
 423              	.LVL42:
 424 0000 70B5     		push	{r4, r5, r6, lr}
 425              	.LCFI5:
 426              		.cfi_def_cfa_offset 16
 427              		.cfi_offset 4, -16
 428              		.cfi_offset 5, -12
 429              		.cfi_offset 6, -8
 430              		.cfi_offset 14, -4
 431              		.loc 1 236 0
 432 0002 0446     		mov	r4, r0
 433 0004 0E46     		mov	r6, r1
 434 0006 1546     		mov	r5, r2
 435              		.loc 1 239 0
 436 0008 FFF7FEFF 		bl	chDbgCheckClassS
 437              	.LVL43:
 438              		.loc 1 240 0
 439 000c CCB1     		cbz	r4, .L32
 440              	.L29:
 441              		.loc 1 242 0
 442 000e 2946     		mov	r1, r5
 443 0010 04F11C00 		add	r0, r4, #28
 444 0014 FFF7FEFF 		bl	chSemWaitTimeoutS
 445              	.LVL44:
 446              		.loc 1 243 0
 447 0018 0546     		mov	r5, r0
 448              	.LVL45:
 449 001a 60B9     		cbnz	r0, .L30
 450              		.loc 1 244 0
 451 001c E368     		ldr	r3, [r4, #12]
 452 001e 2268     		ldr	r2, [r4, #0]
 453 0020 043B     		subs	r3, r3, #4
ARM GAS  /tmp/ccOzgniH.s 			page 9


 454 0022 9342     		cmp	r3, r2
 455 0024 E360     		str	r3, [r4, #12]
 456 0026 08D3     		bcc	.L33
 457              	.L31:
 458              		.loc 1 247 0
 459 0028 04F11000 		add	r0, r4, #16
 460              	.LVL46:
 461              		.loc 1 246 0
 462 002c 1E60     		str	r6, [r3, #0]
 463              		.loc 1 247 0
 464 002e FFF7FEFF 		bl	chSemSignalI
 465              	.LVL47:
 466              		.loc 1 248 0
 467 0032 FFF7FEFF 		bl	chSchRescheduleS
 468              	.LVL48:
 469              	.L30:
 470              		.loc 1 251 0
 471 0036 2846     		mov	r0, r5
 472 0038 70BD     		pop	{r4, r5, r6, pc}
 473              	.LVL49:
 474              	.L33:
 475              		.loc 1 245 0
 476 003a 6368     		ldr	r3, [r4, #4]
 477 003c 043B     		subs	r3, r3, #4
 478 003e E360     		str	r3, [r4, #12]
 479 0040 F2E7     		b	.L31
 480              	.LVL50:
 481              	.L32:
 482              		.loc 1 240 0 discriminator 1
 483 0042 0248     		ldr	r0, .L34
 484 0044 FFF7FEFF 		bl	chDbgPanic
 485              	.LVL51:
 486 0048 E1E7     		b	.L29
 487              	.L35:
 488 004a 00BF     		.align	2
 489              	.L34:
 490 004c 40000000 		.word	.LC4
 491              		.cfi_endproc
 492              	.LFE13:
 493              		.size	chMBPostAheadS, .-chMBPostAheadS
 494              		.section	.text.chMBPostAhead,"ax",%progbits
 495              		.align	2
 496              		.p2align 4,,15
 497              		.global	chMBPostAhead
 498              		.thumb
 499              		.thumb_func
 500              		.type	chMBPostAhead, %function
 501              	chMBPostAhead:
 502              	.LFB12:
 503              		.loc 1 208 0
 504              		.cfi_startproc
 505              		@ args = 0, pretend = 0, frame = 0
 506              		@ frame_needed = 0, uses_anonymous_args = 0
 507              	.LVL52:
 508 0000 70B5     		push	{r4, r5, r6, lr}
 509              	.LCFI6:
 510              		.cfi_def_cfa_offset 16
ARM GAS  /tmp/ccOzgniH.s 			page 10


 511              		.cfi_offset 4, -16
 512              		.cfi_offset 5, -12
 513              		.cfi_offset 6, -8
 514              		.cfi_offset 14, -4
 515              	.LBB7:
 516              		.loc 1 211 0
 517 0002 2023     		movs	r3, #32
 518              	.LVL53:
 519              	.LBE7:
 520              		.loc 1 208 0
 521 0004 0646     		mov	r6, r0
 522 0006 0D46     		mov	r5, r1
 523 0008 1446     		mov	r4, r2
 524              	.LBB8:
 525              		.loc 1 211 0
 526              	@ 211 "../../ChibiOS/os/kernel/src/chmboxes.c" 1
 527 000a 83F31188 		msr     BASEPRI, r3
 528              	@ 0 "" 2
 529              	.LVL54:
 530              		.thumb
 531              	.LBE8:
 532 000e FFF7FEFF 		bl	dbg_check_lock
 533              	.LVL55:
 534              		.loc 1 212 0
 535 0012 2246     		mov	r2, r4
 536 0014 2946     		mov	r1, r5
 537 0016 3046     		mov	r0, r6
 538 0018 FFF7FEFF 		bl	chMBPostAheadS
 539              	.LVL56:
 540 001c 0446     		mov	r4, r0
 541              	.LVL57:
 542              		.loc 1 213 0
 543 001e FFF7FEFF 		bl	dbg_check_unlock
 544              	.LVL58:
 545              	.LBB9:
 546 0022 0023     		movs	r3, #0
 547              	.LVL59:
 548              	@ 213 "../../ChibiOS/os/kernel/src/chmboxes.c" 1
 549 0024 83F31188 		msr     BASEPRI, r3
 550              	@ 0 "" 2
 551              	.LVL60:
 552              		.thumb
 553              	.LBE9:
 554              		.loc 1 215 0
 555 0028 2046     		mov	r0, r4
 556 002a 70BD     		pop	{r4, r5, r6, pc}
 557              		.cfi_endproc
 558              	.LFE12:
 559              		.size	chMBPostAhead, .-chMBPostAhead
 560 002c AFF30080 		.section	.text.chMBPostAheadI,"ax",%progbits
 561              		.align	2
 562              		.p2align 4,,15
 563              		.global	chMBPostAheadI
 564              		.thumb
 565              		.thumb_func
 566              		.type	chMBPostAheadI, %function
 567              	chMBPostAheadI:
ARM GAS  /tmp/ccOzgniH.s 			page 11


 568              	.LFB14:
 569              		.loc 1 267 0
 570              		.cfi_startproc
 571              		@ args = 0, pretend = 0, frame = 0
 572              		@ frame_needed = 0, uses_anonymous_args = 0
 573              	.LVL61:
 574 0000 38B5     		push	{r3, r4, r5, lr}
 575              	.LCFI7:
 576              		.cfi_def_cfa_offset 16
 577              		.cfi_offset 3, -16
 578              		.cfi_offset 4, -12
 579              		.cfi_offset 5, -8
 580              		.cfi_offset 14, -4
 581              		.loc 1 267 0
 582 0002 0446     		mov	r4, r0
 583 0004 0D46     		mov	r5, r1
 584              		.loc 1 269 0
 585 0006 FFF7FEFF 		bl	chDbgCheckClassI
 586              	.LVL62:
 587              		.loc 1 270 0
 588 000a A4B1     		cbz	r4, .L42
 589              	.L38:
 590              		.loc 1 272 0
 591 000c 626A     		ldr	r2, [r4, #36]
 592 000e 002A     		cmp	r2, #0
 593 0010 15DD     		ble	.L41
 594              		.loc 1 275 0
 595 0012 E368     		ldr	r3, [r4, #12]
 596 0014 2168     		ldr	r1, [r4, #0]
 597 0016 043B     		subs	r3, r3, #4
 598              		.loc 1 274 0
 599 0018 013A     		subs	r2, r2, #1
 600              		.loc 1 275 0
 601 001a 8B42     		cmp	r3, r1
 602              		.loc 1 274 0
 603 001c 6262     		str	r2, [r4, #36]
 604              		.loc 1 275 0
 605 001e E360     		str	r3, [r4, #12]
 606 0020 02D2     		bcs	.L40
 607              		.loc 1 276 0
 608 0022 6368     		ldr	r3, [r4, #4]
 609 0024 043B     		subs	r3, r3, #4
 610 0026 E360     		str	r3, [r4, #12]
 611              	.L40:
 612              		.loc 1 278 0
 613 0028 04F11000 		add	r0, r4, #16
 614              		.loc 1 277 0
 615 002c 1D60     		str	r5, [r3, #0]
 616              		.loc 1 278 0
 617 002e FFF7FEFF 		bl	chSemSignalI
 618              	.LVL63:
 619              		.loc 1 279 0
 620 0032 0020     		movs	r0, #0
 621 0034 38BD     		pop	{r3, r4, r5, pc}
 622              	.L42:
 623              		.loc 1 270 0 discriminator 1
 624 0036 0348     		ldr	r0, .L43
ARM GAS  /tmp/ccOzgniH.s 			page 12


 625 0038 FFF7FEFF 		bl	chDbgPanic
 626              	.LVL64:
 627 003c E6E7     		b	.L38
 628              	.L41:
 629              		.loc 1 273 0
 630 003e 4FF0FF30 		mov	r0, #-1
 631              		.loc 1 280 0
 632 0042 38BD     		pop	{r3, r4, r5, pc}
 633              	.L44:
 634              		.align	2
 635              	.L43:
 636 0044 54000000 		.word	.LC5
 637              		.cfi_endproc
 638              	.LFE14:
 639              		.size	chMBPostAheadI, .-chMBPostAheadI
 640 0048 AFF30080 		.section	.text.chMBFetchS,"ax",%progbits
 640      AFF30080 
 641              		.align	2
 642              		.p2align 4,,15
 643              		.global	chMBFetchS
 644              		.thumb
 645              		.thumb_func
 646              		.type	chMBFetchS, %function
 647              	chMBFetchS:
 648              	.LFB16:
 649              		.loc 1 329 0
 650              		.cfi_startproc
 651              		@ args = 0, pretend = 0, frame = 0
 652              		@ frame_needed = 0, uses_anonymous_args = 0
 653              	.LVL65:
 654 0000 70B5     		push	{r4, r5, r6, lr}
 655              	.LCFI8:
 656              		.cfi_def_cfa_offset 16
 657              		.cfi_offset 4, -16
 658              		.cfi_offset 5, -12
 659              		.cfi_offset 6, -8
 660              		.cfi_offset 14, -4
 661              		.loc 1 329 0
 662 0002 0446     		mov	r4, r0
 663 0004 0E46     		mov	r6, r1
 664 0006 1546     		mov	r5, r2
 665              		.loc 1 332 0
 666 0008 FFF7FEFF 		bl	chDbgCheckClassS
 667              	.LVL66:
 668              		.loc 1 333 0
 669 000c 002C     		cmp	r4, #0
 670 000e 18BF     		it	ne
 671 0010 002E     		cmpne	r6, #0
 672 0012 19D0     		beq	.L52
 673              	.L46:
 674              		.loc 1 335 0
 675 0014 2946     		mov	r1, r5
 676 0016 04F11000 		add	r0, r4, #16
 677 001a FFF7FEFF 		bl	chSemWaitTimeoutS
 678              	.LVL67:
 679              		.loc 1 336 0
 680 001e 0546     		mov	r5, r0
ARM GAS  /tmp/ccOzgniH.s 			page 13


 681              	.LVL68:
 682 0020 80B9     		cbnz	r0, .L47
 683              		.loc 1 337 0
 684 0022 E368     		ldr	r3, [r4, #12]
 685              		.loc 1 338 0
 686 0024 6268     		ldr	r2, [r4, #4]
 687              		.loc 1 337 0
 688 0026 53F8041B 		ldr	r1, [r3], #4
 689              		.loc 1 338 0
 690 002a 9342     		cmp	r3, r2
 691              		.loc 1 337 0
 692 002c 3160     		str	r1, [r6, #0]
 693 002e E360     		str	r3, [r4, #12]
 694              		.loc 1 339 0
 695 0030 28BF     		it	cs
 696 0032 2368     		ldrcs	r3, [r4, #0]
 697              		.loc 1 340 0
 698 0034 04F11C00 		add	r0, r4, #28
 699              	.LVL69:
 700              		.loc 1 339 0
 701 0038 28BF     		it	cs
 702 003a E360     		strcs	r3, [r4, #12]
 703              		.loc 1 340 0
 704 003c FFF7FEFF 		bl	chSemSignalI
 705              	.LVL70:
 706              		.loc 1 341 0
 707 0040 FFF7FEFF 		bl	chSchRescheduleS
 708              	.LVL71:
 709              	.L47:
 710              		.loc 1 344 0
 711 0044 2846     		mov	r0, r5
 712 0046 70BD     		pop	{r4, r5, r6, pc}
 713              	.LVL72:
 714              	.L52:
 715              		.loc 1 333 0 discriminator 1
 716 0048 0148     		ldr	r0, .L53
 717 004a FFF7FEFF 		bl	chDbgPanic
 718              	.LVL73:
 719 004e E1E7     		b	.L46
 720              	.L54:
 721              		.align	2
 722              	.L53:
 723 0050 68000000 		.word	.LC6
 724              		.cfi_endproc
 725              	.LFE16:
 726              		.size	chMBFetchS, .-chMBFetchS
 727 0054 AFF30080 		.section	.text.chMBFetch,"ax",%progbits
 727      AFF30080 
 727      AFF30080 
 728              		.align	2
 729              		.p2align 4,,15
 730              		.global	chMBFetch
 731              		.thumb
 732              		.thumb_func
 733              		.type	chMBFetch, %function
 734              	chMBFetch:
 735              	.LFB15:
ARM GAS  /tmp/ccOzgniH.s 			page 14


 736              		.loc 1 301 0
 737              		.cfi_startproc
 738              		@ args = 0, pretend = 0, frame = 0
 739              		@ frame_needed = 0, uses_anonymous_args = 0
 740              	.LVL74:
 741 0000 70B5     		push	{r4, r5, r6, lr}
 742              	.LCFI9:
 743              		.cfi_def_cfa_offset 16
 744              		.cfi_offset 4, -16
 745              		.cfi_offset 5, -12
 746              		.cfi_offset 6, -8
 747              		.cfi_offset 14, -4
 748              	.LBB10:
 749              		.loc 1 304 0
 750 0002 2023     		movs	r3, #32
 751              	.LVL75:
 752              	.LBE10:
 753              		.loc 1 301 0
 754 0004 0646     		mov	r6, r0
 755 0006 0D46     		mov	r5, r1
 756 0008 1446     		mov	r4, r2
 757              	.LBB11:
 758              		.loc 1 304 0
 759              	@ 304 "../../ChibiOS/os/kernel/src/chmboxes.c" 1
 760 000a 83F31188 		msr     BASEPRI, r3
 761              	@ 0 "" 2
 762              	.LVL76:
 763              		.thumb
 764              	.LBE11:
 765 000e FFF7FEFF 		bl	dbg_check_lock
 766              	.LVL77:
 767              		.loc 1 305 0
 768 0012 2246     		mov	r2, r4
 769 0014 2946     		mov	r1, r5
 770 0016 3046     		mov	r0, r6
 771 0018 FFF7FEFF 		bl	chMBFetchS
 772              	.LVL78:
 773 001c 0446     		mov	r4, r0
 774              	.LVL79:
 775              		.loc 1 306 0
 776 001e FFF7FEFF 		bl	dbg_check_unlock
 777              	.LVL80:
 778              	.LBB12:
 779 0022 0023     		movs	r3, #0
 780              	.LVL81:
 781              	@ 306 "../../ChibiOS/os/kernel/src/chmboxes.c" 1
 782 0024 83F31188 		msr     BASEPRI, r3
 783              	@ 0 "" 2
 784              	.LVL82:
 785              		.thumb
 786              	.LBE12:
 787              		.loc 1 308 0
 788 0028 2046     		mov	r0, r4
 789 002a 70BD     		pop	{r4, r5, r6, pc}
 790              		.cfi_endproc
 791              	.LFE15:
 792              		.size	chMBFetch, .-chMBFetch
ARM GAS  /tmp/ccOzgniH.s 			page 15


 793 002c AFF30080 		.section	.text.chMBFetchI,"ax",%progbits
 794              		.align	2
 795              		.p2align 4,,15
 796              		.global	chMBFetchI
 797              		.thumb
 798              		.thumb_func
 799              		.type	chMBFetchI, %function
 800              	chMBFetchI:
 801              	.LFB17:
 802              		.loc 1 360 0
 803              		.cfi_startproc
 804              		@ args = 0, pretend = 0, frame = 0
 805              		@ frame_needed = 0, uses_anonymous_args = 0
 806              	.LVL83:
 807 0000 38B5     		push	{r3, r4, r5, lr}
 808              	.LCFI10:
 809              		.cfi_def_cfa_offset 16
 810              		.cfi_offset 3, -16
 811              		.cfi_offset 4, -12
 812              		.cfi_offset 5, -8
 813              		.cfi_offset 14, -4
 814              		.loc 1 360 0
 815 0002 0446     		mov	r4, r0
 816 0004 0D46     		mov	r5, r1
 817              		.loc 1 362 0
 818 0006 FFF7FEFF 		bl	chDbgCheckClassI
 819              	.LVL84:
 820              		.loc 1 363 0
 821 000a 002C     		cmp	r4, #0
 822 000c 18BF     		it	ne
 823 000e 002D     		cmpne	r5, #0
 824 0010 15D0     		beq	.L64
 825              	.L57:
 826              		.loc 1 365 0
 827 0012 A269     		ldr	r2, [r4, #24]
 828 0014 002A     		cmp	r2, #0
 829 0016 16DD     		ble	.L60
 830              		.loc 1 368 0
 831 0018 E368     		ldr	r3, [r4, #12]
 832              		.loc 1 369 0
 833 001a 6168     		ldr	r1, [r4, #4]
 834              		.loc 1 367 0
 835 001c 013A     		subs	r2, r2, #1
 836 001e A261     		str	r2, [r4, #24]
 837              		.loc 1 368 0
 838 0020 53F8042B 		ldr	r2, [r3], #4
 839              		.loc 1 369 0
 840 0024 8B42     		cmp	r3, r1
 841              		.loc 1 368 0
 842 0026 2A60     		str	r2, [r5, #0]
 843 0028 E360     		str	r3, [r4, #12]
 844              		.loc 1 370 0
 845 002a 28BF     		it	cs
 846 002c 2368     		ldrcs	r3, [r4, #0]
 847              		.loc 1 371 0
 848 002e 04F11C00 		add	r0, r4, #28
 849              		.loc 1 370 0
ARM GAS  /tmp/ccOzgniH.s 			page 16


 850 0032 28BF     		it	cs
 851 0034 E360     		strcs	r3, [r4, #12]
 852              		.loc 1 371 0
 853 0036 FFF7FEFF 		bl	chSemSignalI
 854              	.LVL85:
 855              		.loc 1 372 0
 856 003a 0020     		movs	r0, #0
 857 003c 38BD     		pop	{r3, r4, r5, pc}
 858              	.L64:
 859              		.loc 1 363 0 discriminator 1
 860 003e 0348     		ldr	r0, .L65
 861 0040 FFF7FEFF 		bl	chDbgPanic
 862              	.LVL86:
 863 0044 E5E7     		b	.L57
 864              	.L60:
 865              		.loc 1 366 0
 866 0046 4FF0FF30 		mov	r0, #-1
 867              		.loc 1 373 0
 868 004a 38BD     		pop	{r3, r4, r5, pc}
 869              	.L66:
 870              		.align	2
 871              	.L65:
 872 004c 78000000 		.word	.LC7
 873              		.cfi_endproc
 874              	.LFE17:
 875              		.size	chMBFetchI, .-chMBFetchI
 876              		.section	.rodata.str1.4,"aMS",%progbits,1
 877              		.align	2
 878              	.LC0:
 879 0000 2263684D 		.ascii	"\"chMBInit\"()\000"
 879      42496E69 
 879      74222829 
 879      00
 880 000d 000000   		.space	3
 881              	.LC1:
 882 0010 2263684D 		.ascii	"\"chMBReset\"()\000"
 882      42526573 
 882      65742228 
 882      2900
 883 001e 0000     		.space	2
 884              	.LC2:
 885 0020 2263684D 		.ascii	"\"chMBPostS\"()\000"
 885      42506F73 
 885      74532228 
 885      2900
 886 002e 0000     		.space	2
 887              	.LC3:
 888 0030 2263684D 		.ascii	"\"chMBPostI\"()\000"
 888      42506F73 
 888      74492228 
 888      2900
 889 003e 0000     		.space	2
 890              	.LC4:
 891 0040 2263684D 		.ascii	"\"chMBPostAheadS\"()\000"
 891      42506F73 
 891      74416865 
 891      61645322 
ARM GAS  /tmp/ccOzgniH.s 			page 17


 891      282900
 892 0053 00       		.space	1
 893              	.LC5:
 894 0054 2263684D 		.ascii	"\"chMBPostAheadI\"()\000"
 894      42506F73 
 894      74416865 
 894      61644922 
 894      282900
 895 0067 00       		.space	1
 896              	.LC6:
 897 0068 2263684D 		.ascii	"\"chMBFetchS\"()\000"
 897      42466574 
 897      63685322 
 897      282900
 898 0077 00       		.space	1
 899              	.LC7:
 900 0078 2263684D 		.ascii	"\"chMBFetchI\"()\000"
 900      42466574 
 900      63684922 
 900      282900
 901 0087 00       		.text
 902              	.Letext0:
 903              		.file 2 "/home/david/toolchains/psas/x-tools/stm32f407/arm-psas-eabi/bin/../lib/gcc/arm-psas-eabi/
 904              		.file 3 "../../ChibiOS/os/ports/GCC/ARMCMx/chtypes.h"
 905              		.file 4 "../../ChibiOS/os/kernel/include/chlists.h"
 906              		.file 5 "../../ChibiOS/os/kernel/include/chthreads.h"
 907              		.file 6 "../../ChibiOS/os/ports/GCC/ARMCMx/chcore_v7m.h"
 908              		.file 7 "../../ChibiOS/os/kernel/include/chsem.h"
 909              		.file 8 "../../ChibiOS/os/kernel/include/chmtx.h"
 910              		.file 9 "../../ChibiOS/os/kernel/include/chmboxes.h"
 911              		.file 10 "../../ChibiOS/os/kernel/include/chdebug.h"
 912              		.file 11 "../../ChibiOS/os/kernel/include/chschd.h"
 913              		.section	.debug_info,"",%progbits
 914              	.Ldebug_info0:
 915 0000 500C0000 		.4byte	0xc50
 916 0004 0200     		.2byte	0x2
 917 0006 00000000 		.4byte	.Ldebug_abbrev0
 918 000a 04       		.byte	0x4
 919 000b 01       		.uleb128 0x1
 920 000c 89020000 		.4byte	.LASF91
 921 0010 01       		.byte	0x1
 922 0011 37010000 		.4byte	.LASF92
 923 0015 98000000 		.4byte	.LASF93
 924 0019 48000000 		.4byte	.Ldebug_ranges0+0x48
 925 001d 00000000 		.4byte	0
 926 0021 00000000 		.4byte	0
 927 0025 00000000 		.4byte	.Ldebug_line0
 928 0029 02       		.uleb128 0x2
 929 002a 04       		.byte	0x4
 930 002b 05       		.byte	0x5
 931 002c 696E7400 		.ascii	"int\000"
 932 0030 03       		.uleb128 0x3
 933 0031 04       		.byte	0x4
 934 0032 07       		.byte	0x7
 935 0033 6F010000 		.4byte	.LASF0
 936 0037 03       		.uleb128 0x3
 937 0038 01       		.byte	0x1
ARM GAS  /tmp/ccOzgniH.s 			page 18


 938 0039 06       		.byte	0x6
 939 003a C7000000 		.4byte	.LASF1
 940 003e 04       		.uleb128 0x4
 941 003f C4030000 		.4byte	.LASF5
 942 0043 02       		.byte	0x2
 943 0044 2A       		.byte	0x2a
 944 0045 49000000 		.4byte	0x49
 945 0049 03       		.uleb128 0x3
 946 004a 01       		.byte	0x1
 947 004b 08       		.byte	0x8
 948 004c C3020000 		.4byte	.LASF2
 949 0050 03       		.uleb128 0x3
 950 0051 02       		.byte	0x2
 951 0052 05       		.byte	0x5
 952 0053 E2020000 		.4byte	.LASF3
 953 0057 03       		.uleb128 0x3
 954 0058 02       		.byte	0x2
 955 0059 07       		.byte	0x7
 956 005a B1010000 		.4byte	.LASF4
 957 005e 04       		.uleb128 0x4
 958 005f BB020000 		.4byte	.LASF6
 959 0063 02       		.byte	0x2
 960 0064 4F       		.byte	0x4f
 961 0065 69000000 		.4byte	0x69
 962 0069 03       		.uleb128 0x3
 963 006a 04       		.byte	0x4
 964 006b 05       		.byte	0x5
 965 006c ED000000 		.4byte	.LASF7
 966 0070 04       		.uleb128 0x4
 967 0071 2F030000 		.4byte	.LASF8
 968 0075 02       		.byte	0x2
 969 0076 50       		.byte	0x50
 970 0077 7B000000 		.4byte	0x7b
 971 007b 03       		.uleb128 0x3
 972 007c 04       		.byte	0x4
 973 007d 07       		.byte	0x7
 974 007e 85010000 		.4byte	.LASF9
 975 0082 03       		.uleb128 0x3
 976 0083 08       		.byte	0x8
 977 0084 05       		.byte	0x5
 978 0085 FF000000 		.4byte	.LASF10
 979 0089 04       		.uleb128 0x4
 980 008a 25000000 		.4byte	.LASF11
 981 008e 02       		.byte	0x2
 982 008f 78       		.byte	0x78
 983 0090 94000000 		.4byte	0x94
 984 0094 03       		.uleb128 0x3
 985 0095 08       		.byte	0x8
 986 0096 07       		.byte	0x7
 987 0097 59000000 		.4byte	.LASF12
 988 009b 04       		.uleb128 0x4
 989 009c F1010000 		.4byte	.LASF13
 990 00a0 03       		.byte	0x3
 991 00a1 28       		.byte	0x28
 992 00a2 3E000000 		.4byte	0x3e
 993 00a6 04       		.uleb128 0x4
 994 00a7 F6000000 		.4byte	.LASF14
ARM GAS  /tmp/ccOzgniH.s 			page 19


 995 00ab 03       		.byte	0x3
 996 00ac 29       		.byte	0x29
 997 00ad 3E000000 		.4byte	0x3e
 998 00b1 04       		.uleb128 0x4
 999 00b2 A4020000 		.4byte	.LASF15
 1000 00b6 03       		.byte	0x3
 1001 00b7 2A       		.byte	0x2a
 1002 00b8 3E000000 		.4byte	0x3e
 1003 00bc 04       		.uleb128 0x4
 1004 00bd E3000000 		.4byte	.LASF16
 1005 00c1 03       		.byte	0x3
 1006 00c2 2B       		.byte	0x2b
 1007 00c3 3E000000 		.4byte	0x3e
 1008 00c7 04       		.uleb128 0x4
 1009 00c8 B3020000 		.4byte	.LASF17
 1010 00cc 03       		.byte	0x3
 1011 00cd 2C       		.byte	0x2c
 1012 00ce 70000000 		.4byte	0x70
 1013 00d2 04       		.uleb128 0x4
 1014 00d3 CF010000 		.4byte	.LASF18
 1015 00d7 03       		.byte	0x3
 1016 00d8 2D       		.byte	0x2d
 1017 00d9 5E000000 		.4byte	0x5e
 1018 00dd 04       		.uleb128 0x4
 1019 00de 16020000 		.4byte	.LASF19
 1020 00e2 03       		.byte	0x3
 1021 00e3 2F       		.byte	0x2f
 1022 00e4 70000000 		.4byte	0x70
 1023 00e8 04       		.uleb128 0x4
 1024 00e9 56030000 		.4byte	.LASF20
 1025 00ed 03       		.byte	0x3
 1026 00ee 31       		.byte	0x31
 1027 00ef 70000000 		.4byte	0x70
 1028 00f3 04       		.uleb128 0x4
 1029 00f4 5E010000 		.4byte	.LASF21
 1030 00f8 03       		.byte	0x3
 1031 00f9 32       		.byte	0x32
 1032 00fa 5E000000 		.4byte	0x5e
 1033 00fe 04       		.uleb128 0x4
 1034 00ff 1D030000 		.4byte	.LASF22
 1035 0103 04       		.byte	0x4
 1036 0104 23       		.byte	0x23
 1037 0105 09010000 		.4byte	0x109
 1038 0109 05       		.uleb128 0x5
 1039 010a 1D030000 		.4byte	.LASF22
 1040 010e 4C       		.byte	0x4c
 1041 010f 05       		.byte	0x5
 1042 0110 57       		.byte	0x57
 1043 0111 3C020000 		.4byte	0x23c
 1044 0115 06       		.uleb128 0x6
 1045 0116 05030000 		.4byte	.LASF23
 1046 011a 05       		.byte	0x5
 1047 011b 58       		.byte	0x58
 1048 011c 61020000 		.4byte	0x261
 1049 0120 02       		.byte	0x2
 1050 0121 23       		.byte	0x23
 1051 0122 00       		.uleb128 0
ARM GAS  /tmp/ccOzgniH.s 			page 20


 1052 0123 06       		.uleb128 0x6
 1053 0124 AC020000 		.4byte	.LASF24
 1054 0128 05       		.byte	0x5
 1055 0129 5A       		.byte	0x5a
 1056 012a 61020000 		.4byte	0x261
 1057 012e 02       		.byte	0x2
 1058 012f 23       		.byte	0x23
 1059 0130 04       		.uleb128 0x4
 1060 0131 06       		.uleb128 0x6
 1061 0132 91000000 		.4byte	.LASF25
 1062 0136 05       		.byte	0x5
 1063 0137 5C       		.byte	0x5c
 1064 0138 C7000000 		.4byte	0xc7
 1065 013c 02       		.byte	0x2
 1066 013d 23       		.byte	0x23
 1067 013e 08       		.uleb128 0x8
 1068 013f 06       		.uleb128 0x6
 1069 0140 E2030000 		.4byte	.LASF26
 1070 0144 05       		.byte	0x5
 1071 0145 5D       		.byte	0x5d
 1072 0146 3A030000 		.4byte	0x33a
 1073 014a 02       		.byte	0x2
 1074 014b 23       		.byte	0x23
 1075 014c 0C       		.uleb128 0xc
 1076 014d 06       		.uleb128 0x6
 1077 014e 0D010000 		.4byte	.LASF27
 1078 0152 05       		.byte	0x5
 1079 0153 5F       		.byte	0x5f
 1080 0154 61020000 		.4byte	0x261
 1081 0158 02       		.byte	0x2
 1082 0159 23       		.byte	0x23
 1083 015a 10       		.uleb128 0x10
 1084 015b 06       		.uleb128 0x6
 1085 015c 65020000 		.4byte	.LASF28
 1086 0160 05       		.byte	0x5
 1087 0161 60       		.byte	0x60
 1088 0162 61020000 		.4byte	0x261
 1089 0166 02       		.byte	0x2
 1090 0167 23       		.byte	0x23
 1091 0168 14       		.uleb128 0x14
 1092 0169 06       		.uleb128 0x6
 1093 016a D3030000 		.4byte	.LASF29
 1094 016e 05       		.byte	0x5
 1095 016f 67       		.byte	0x67
 1096 0170 88040000 		.4byte	0x488
 1097 0174 02       		.byte	0x2
 1098 0175 23       		.byte	0x23
 1099 0176 18       		.uleb128 0x18
 1100 0177 06       		.uleb128 0x6
 1101 0178 64010000 		.4byte	.LASF30
 1102 017c 05       		.byte	0x5
 1103 017d 6D       		.byte	0x6d
 1104 017e 9A040000 		.4byte	0x49a
 1105 0182 02       		.byte	0x2
 1106 0183 23       		.byte	0x23
 1107 0184 1C       		.uleb128 0x1c
 1108 0185 06       		.uleb128 0x6
ARM GAS  /tmp/ccOzgniH.s 			page 21


 1109 0186 EC020000 		.4byte	.LASF31
 1110 018a 05       		.byte	0x5
 1111 018b 72       		.byte	0x72
 1112 018c A6000000 		.4byte	0xa6
 1113 0190 02       		.byte	0x2
 1114 0191 23       		.byte	0x23
 1115 0192 20       		.uleb128 0x20
 1116 0193 06       		.uleb128 0x6
 1117 0194 0C030000 		.4byte	.LASF32
 1118 0198 05       		.byte	0x5
 1119 0199 76       		.byte	0x76
 1120 019a 9B000000 		.4byte	0x9b
 1121 019e 02       		.byte	0x2
 1122 019f 23       		.byte	0x23
 1123 01a0 21       		.uleb128 0x21
 1124 01a1 06       		.uleb128 0x6
 1125 01a2 B1030000 		.4byte	.LASF33
 1126 01a6 05       		.byte	0x5
 1127 01a7 7B       		.byte	0x7b
 1128 01a8 B1000000 		.4byte	0xb1
 1129 01ac 02       		.byte	0x2
 1130 01ad 23       		.byte	0x23
 1131 01ae 22       		.uleb128 0x22
 1132 01af 06       		.uleb128 0x6
 1133 01b0 F4020000 		.4byte	.LASF34
 1134 01b4 05       		.byte	0x5
 1135 01b5 81       		.byte	0x81
 1136 01b6 BC000000 		.4byte	0xbc
 1137 01ba 02       		.byte	0x2
 1138 01bb 23       		.byte	0x23
 1139 01bc 23       		.uleb128 0x23
 1140 01bd 06       		.uleb128 0x6
 1141 01be 6B030000 		.4byte	.LASF35
 1142 01c2 05       		.byte	0x5
 1143 01c3 88       		.byte	0x88
 1144 01c4 64030000 		.4byte	0x364
 1145 01c8 02       		.byte	0x2
 1146 01c9 23       		.byte	0x23
 1147 01ca 24       		.uleb128 0x24
 1148 01cb 07       		.uleb128 0x7
 1149 01cc 705F7500 		.ascii	"p_u\000"
 1150 01d0 05       		.byte	0x5
 1151 01d1 AD       		.byte	0xad
 1152 01d2 53040000 		.4byte	0x453
 1153 01d6 02       		.byte	0x2
 1154 01d7 23       		.byte	0x23
 1155 01d8 28       		.uleb128 0x28
 1156 01d9 06       		.uleb128 0x6
 1157 01da E8030000 		.4byte	.LASF36
 1158 01de 05       		.byte	0x5
 1159 01df B2       		.byte	0xb2
 1160 01e0 89020000 		.4byte	0x289
 1161 01e4 02       		.byte	0x2
 1162 01e5 23       		.byte	0x23
 1163 01e6 2C       		.uleb128 0x2c
 1164 01e7 06       		.uleb128 0x6
 1165 01e8 87030000 		.4byte	.LASF37
ARM GAS  /tmp/ccOzgniH.s 			page 22


 1166 01ec 05       		.byte	0x5
 1167 01ed B8       		.byte	0xb8
 1168 01ee 67020000 		.4byte	0x267
 1169 01f2 02       		.byte	0x2
 1170 01f3 23       		.byte	0x23
 1171 01f4 30       		.uleb128 0x30
 1172 01f5 06       		.uleb128 0x6
 1173 01f6 00000000 		.4byte	.LASF38
 1174 01fa 05       		.byte	0x5
 1175 01fb BC       		.byte	0xbc
 1176 01fc D2000000 		.4byte	0xd2
 1177 0200 02       		.byte	0x2
 1178 0201 23       		.byte	0x23
 1179 0202 38       		.uleb128 0x38
 1180 0203 06       		.uleb128 0x6
 1181 0204 24030000 		.4byte	.LASF39
 1182 0208 05       		.byte	0x5
 1183 0209 C2       		.byte	0xc2
 1184 020a DD000000 		.4byte	0xdd
 1185 020e 02       		.byte	0x2
 1186 020f 23       		.byte	0x23
 1187 0210 3C       		.uleb128 0x3c
 1188 0211 06       		.uleb128 0x6
 1189 0212 D8020000 		.4byte	.LASF40
 1190 0216 05       		.byte	0x5
 1191 0217 C9       		.byte	0xc9
 1192 0218 A0040000 		.4byte	0x4a0
 1193 021c 02       		.byte	0x2
 1194 021d 23       		.byte	0x23
 1195 021e 40       		.uleb128 0x40
 1196 021f 06       		.uleb128 0x6
 1197 0220 60030000 		.4byte	.LASF41
 1198 0224 05       		.byte	0x5
 1199 0225 CD       		.byte	0xcd
 1200 0226 C7000000 		.4byte	0xc7
 1201 022a 02       		.byte	0x2
 1202 022b 23       		.byte	0x23
 1203 022c 44       		.uleb128 0x44
 1204 022d 06       		.uleb128 0x6
 1205 022e D3000000 		.4byte	.LASF42
 1206 0232 05       		.byte	0x5
 1207 0233 D3       		.byte	0xd3
 1208 0234 9F020000 		.4byte	0x29f
 1209 0238 02       		.byte	0x2
 1210 0239 23       		.byte	0x23
 1211 023a 48       		.uleb128 0x48
 1212 023b 00       		.byte	0
 1213 023c 08       		.uleb128 0x8
 1214 023d 08       		.byte	0x8
 1215 023e 04       		.byte	0x4
 1216 023f 5A       		.byte	0x5a
 1217 0240 61020000 		.4byte	0x261
 1218 0244 06       		.uleb128 0x6
 1219 0245 05030000 		.4byte	.LASF23
 1220 0249 04       		.byte	0x4
 1221 024a 5B       		.byte	0x5b
 1222 024b 61020000 		.4byte	0x261
ARM GAS  /tmp/ccOzgniH.s 			page 23


 1223 024f 02       		.byte	0x2
 1224 0250 23       		.byte	0x23
 1225 0251 00       		.uleb128 0
 1226 0252 06       		.uleb128 0x6
 1227 0253 AC020000 		.4byte	.LASF24
 1228 0257 04       		.byte	0x4
 1229 0258 5D       		.byte	0x5d
 1230 0259 61020000 		.4byte	0x261
 1231 025d 02       		.byte	0x2
 1232 025e 23       		.byte	0x23
 1233 025f 04       		.uleb128 0x4
 1234 0260 00       		.byte	0
 1235 0261 09       		.uleb128 0x9
 1236 0262 04       		.byte	0x4
 1237 0263 FE000000 		.4byte	0xfe
 1238 0267 04       		.uleb128 0x4
 1239 0268 6D020000 		.4byte	.LASF43
 1240 026c 04       		.byte	0x4
 1241 026d 5F       		.byte	0x5f
 1242 026e 3C020000 		.4byte	0x23c
 1243 0272 08       		.uleb128 0x8
 1244 0273 04       		.byte	0x4
 1245 0274 04       		.byte	0x4
 1246 0275 64       		.byte	0x64
 1247 0276 89020000 		.4byte	0x289
 1248 027a 06       		.uleb128 0x6
 1249 027b 05030000 		.4byte	.LASF23
 1250 027f 04       		.byte	0x4
 1251 0280 66       		.byte	0x66
 1252 0281 61020000 		.4byte	0x261
 1253 0285 02       		.byte	0x2
 1254 0286 23       		.byte	0x23
 1255 0287 00       		.uleb128 0
 1256 0288 00       		.byte	0
 1257 0289 04       		.uleb128 0x4
 1258 028a 0A020000 		.4byte	.LASF44
 1259 028e 04       		.byte	0x4
 1260 028f 69       		.byte	0x69
 1261 0290 72020000 		.4byte	0x272
 1262 0294 04       		.uleb128 0x4
 1263 0295 2E010000 		.4byte	.LASF45
 1264 0299 06       		.byte	0x6
 1265 029a DE       		.byte	0xde
 1266 029b 9F020000 		.4byte	0x29f
 1267 029f 0A       		.uleb128 0xa
 1268 02a0 04       		.byte	0x4
 1269 02a1 04       		.uleb128 0x4
 1270 02a2 2D020000 		.4byte	.LASF46
 1271 02a6 06       		.byte	0x6
 1272 02a7 E4       		.byte	0xe4
 1273 02a8 89000000 		.4byte	0x89
 1274 02ac 0B       		.uleb128 0xb
 1275 02ad 80030000 		.4byte	.LASF47
 1276 02b1 24       		.byte	0x24
 1277 02b2 06       		.byte	0x6
 1278 02b3 0501     		.2byte	0x105
 1279 02b5 3A030000 		.4byte	0x33a
ARM GAS  /tmp/ccOzgniH.s 			page 24


 1280 02b9 0C       		.uleb128 0xc
 1281 02ba 723400   		.ascii	"r4\000"
 1282 02bd 06       		.byte	0x6
 1283 02be 1801     		.2byte	0x118
 1284 02c0 94020000 		.4byte	0x294
 1285 02c4 02       		.byte	0x2
 1286 02c5 23       		.byte	0x23
 1287 02c6 00       		.uleb128 0
 1288 02c7 0C       		.uleb128 0xc
 1289 02c8 723500   		.ascii	"r5\000"
 1290 02cb 06       		.byte	0x6
 1291 02cc 1901     		.2byte	0x119
 1292 02ce 94020000 		.4byte	0x294
 1293 02d2 02       		.byte	0x2
 1294 02d3 23       		.byte	0x23
 1295 02d4 04       		.uleb128 0x4
 1296 02d5 0C       		.uleb128 0xc
 1297 02d6 723600   		.ascii	"r6\000"
 1298 02d9 06       		.byte	0x6
 1299 02da 1A01     		.2byte	0x11a
 1300 02dc 94020000 		.4byte	0x294
 1301 02e0 02       		.byte	0x2
 1302 02e1 23       		.byte	0x23
 1303 02e2 08       		.uleb128 0x8
 1304 02e3 0C       		.uleb128 0xc
 1305 02e4 723700   		.ascii	"r7\000"
 1306 02e7 06       		.byte	0x6
 1307 02e8 1B01     		.2byte	0x11b
 1308 02ea 94020000 		.4byte	0x294
 1309 02ee 02       		.byte	0x2
 1310 02ef 23       		.byte	0x23
 1311 02f0 0C       		.uleb128 0xc
 1312 02f1 0C       		.uleb128 0xc
 1313 02f2 723800   		.ascii	"r8\000"
 1314 02f5 06       		.byte	0x6
 1315 02f6 1C01     		.2byte	0x11c
 1316 02f8 94020000 		.4byte	0x294
 1317 02fc 02       		.byte	0x2
 1318 02fd 23       		.byte	0x23
 1319 02fe 10       		.uleb128 0x10
 1320 02ff 0C       		.uleb128 0xc
 1321 0300 723900   		.ascii	"r9\000"
 1322 0303 06       		.byte	0x6
 1323 0304 1D01     		.2byte	0x11d
 1324 0306 94020000 		.4byte	0x294
 1325 030a 02       		.byte	0x2
 1326 030b 23       		.byte	0x23
 1327 030c 14       		.uleb128 0x14
 1328 030d 0C       		.uleb128 0xc
 1329 030e 72313000 		.ascii	"r10\000"
 1330 0312 06       		.byte	0x6
 1331 0313 1E01     		.2byte	0x11e
 1332 0315 94020000 		.4byte	0x294
 1333 0319 02       		.byte	0x2
 1334 031a 23       		.byte	0x23
 1335 031b 18       		.uleb128 0x18
 1336 031c 0C       		.uleb128 0xc
ARM GAS  /tmp/ccOzgniH.s 			page 25


 1337 031d 72313100 		.ascii	"r11\000"
 1338 0321 06       		.byte	0x6
 1339 0322 1F01     		.2byte	0x11f
 1340 0324 94020000 		.4byte	0x294
 1341 0328 02       		.byte	0x2
 1342 0329 23       		.byte	0x23
 1343 032a 1C       		.uleb128 0x1c
 1344 032b 0C       		.uleb128 0xc
 1345 032c 6C7200   		.ascii	"lr\000"
 1346 032f 06       		.byte	0x6
 1347 0330 2001     		.2byte	0x120
 1348 0332 94020000 		.4byte	0x294
 1349 0336 02       		.byte	0x2
 1350 0337 23       		.byte	0x23
 1351 0338 20       		.uleb128 0x20
 1352 0339 00       		.byte	0
 1353 033a 0B       		.uleb128 0xb
 1354 033b A9010000 		.4byte	.LASF48
 1355 033f 04       		.byte	0x4
 1356 0340 06       		.byte	0x6
 1357 0341 2A01     		.2byte	0x12a
 1358 0343 57030000 		.4byte	0x357
 1359 0347 0C       		.uleb128 0xc
 1360 0348 72313300 		.ascii	"r13\000"
 1361 034c 06       		.byte	0x6
 1362 034d 2B01     		.2byte	0x12b
 1363 034f 57030000 		.4byte	0x357
 1364 0353 02       		.byte	0x2
 1365 0354 23       		.byte	0x23
 1366 0355 00       		.uleb128 0
 1367 0356 00       		.byte	0
 1368 0357 09       		.uleb128 0x9
 1369 0358 04       		.byte	0x4
 1370 0359 AC020000 		.4byte	0x2ac
 1371 035d 03       		.uleb128 0x3
 1372 035e 04       		.byte	0x4
 1373 035f 07       		.byte	0x7
 1374 0360 49020000 		.4byte	.LASF49
 1375 0364 0D       		.uleb128 0xd
 1376 0365 E8000000 		.4byte	0xe8
 1377 0369 05       		.uleb128 0x5
 1378 036a 9C030000 		.4byte	.LASF50
 1379 036e 0C       		.byte	0xc
 1380 036f 07       		.byte	0x7
 1381 0370 25       		.byte	0x25
 1382 0371 92030000 		.4byte	0x392
 1383 0375 06       		.uleb128 0x6
 1384 0376 15010000 		.4byte	.LASF51
 1385 037a 07       		.byte	0x7
 1386 037b 26       		.byte	0x26
 1387 037c 67020000 		.4byte	0x267
 1388 0380 02       		.byte	0x2
 1389 0381 23       		.byte	0x23
 1390 0382 00       		.uleb128 0
 1391 0383 06       		.uleb128 0x6
 1392 0384 A3010000 		.4byte	.LASF52
 1393 0388 07       		.byte	0x7
ARM GAS  /tmp/ccOzgniH.s 			page 26


 1394 0389 28       		.byte	0x28
 1395 038a F3000000 		.4byte	0xf3
 1396 038e 02       		.byte	0x2
 1397 038f 23       		.byte	0x23
 1398 0390 08       		.uleb128 0x8
 1399 0391 00       		.byte	0
 1400 0392 04       		.uleb128 0x4
 1401 0393 9C030000 		.4byte	.LASF50
 1402 0397 07       		.byte	0x7
 1403 0398 29       		.byte	0x29
 1404 0399 69030000 		.4byte	0x369
 1405 039d 05       		.uleb128 0x5
 1406 039e 22020000 		.4byte	.LASF53
 1407 03a2 10       		.byte	0x10
 1408 03a3 08       		.byte	0x8
 1409 03a4 25       		.byte	0x25
 1410 03a5 D4030000 		.4byte	0x3d4
 1411 03a9 06       		.uleb128 0x6
 1412 03aa DB000000 		.4byte	.LASF54
 1413 03ae 08       		.byte	0x8
 1414 03af 26       		.byte	0x26
 1415 03b0 67020000 		.4byte	0x267
 1416 03b4 02       		.byte	0x2
 1417 03b5 23       		.byte	0x23
 1418 03b6 00       		.uleb128 0
 1419 03b7 06       		.uleb128 0x6
 1420 03b8 DA030000 		.4byte	.LASF55
 1421 03bc 08       		.byte	0x8
 1422 03bd 28       		.byte	0x28
 1423 03be 61020000 		.4byte	0x261
 1424 03c2 02       		.byte	0x2
 1425 03c3 23       		.byte	0x23
 1426 03c4 08       		.uleb128 0x8
 1427 03c5 06       		.uleb128 0x6
 1428 03c6 4F030000 		.4byte	.LASF56
 1429 03ca 08       		.byte	0x8
 1430 03cb 2A       		.byte	0x2a
 1431 03cc D4030000 		.4byte	0x3d4
 1432 03d0 02       		.byte	0x2
 1433 03d1 23       		.byte	0x23
 1434 03d2 0C       		.uleb128 0xc
 1435 03d3 00       		.byte	0
 1436 03d4 09       		.uleb128 0x9
 1437 03d5 04       		.byte	0x4
 1438 03d6 9D030000 		.4byte	0x39d
 1439 03da 04       		.uleb128 0x4
 1440 03db 22020000 		.4byte	.LASF53
 1441 03df 08       		.byte	0x8
 1442 03e0 2C       		.byte	0x2c
 1443 03e1 9D030000 		.4byte	0x39d
 1444 03e5 08       		.uleb128 0x8
 1445 03e6 28       		.byte	0x28
 1446 03e7 09       		.byte	0x9
 1447 03e8 2C       		.byte	0x2c
 1448 03e9 42040000 		.4byte	0x442
 1449 03ed 06       		.uleb128 0x6
 1450 03ee 7A020000 		.4byte	.LASF57
ARM GAS  /tmp/ccOzgniH.s 			page 27


 1451 03f2 09       		.byte	0x9
 1452 03f3 2D       		.byte	0x2d
 1453 03f4 42040000 		.4byte	0x442
 1454 03f8 02       		.byte	0x2
 1455 03f9 23       		.byte	0x23
 1456 03fa 00       		.uleb128 0
 1457 03fb 06       		.uleb128 0x6
 1458 03fc D1020000 		.4byte	.LASF58
 1459 0400 09       		.byte	0x9
 1460 0401 2F       		.byte	0x2f
 1461 0402 42040000 		.4byte	0x442
 1462 0406 02       		.byte	0x2
 1463 0407 23       		.byte	0x23
 1464 0408 04       		.uleb128 0x4
 1465 0409 06       		.uleb128 0x6
 1466 040a 88000000 		.4byte	.LASF59
 1467 040e 09       		.byte	0x9
 1468 040f 31       		.byte	0x31
 1469 0410 42040000 		.4byte	0x442
 1470 0414 02       		.byte	0x2
 1471 0415 23       		.byte	0x23
 1472 0416 08       		.uleb128 0x8
 1473 0417 06       		.uleb128 0x6
 1474 0418 52020000 		.4byte	.LASF60
 1475 041c 09       		.byte	0x9
 1476 041d 32       		.byte	0x32
 1477 041e 42040000 		.4byte	0x442
 1478 0422 02       		.byte	0x2
 1479 0423 23       		.byte	0x23
 1480 0424 0C       		.uleb128 0xc
 1481 0425 06       		.uleb128 0x6
 1482 0426 A6030000 		.4byte	.LASF61
 1483 042a 09       		.byte	0x9
 1484 042b 33       		.byte	0x33
 1485 042c 92030000 		.4byte	0x392
 1486 0430 02       		.byte	0x2
 1487 0431 23       		.byte	0x23
 1488 0432 10       		.uleb128 0x10
 1489 0433 06       		.uleb128 0x6
 1490 0434 97010000 		.4byte	.LASF62
 1491 0438 09       		.byte	0x9
 1492 0439 35       		.byte	0x35
 1493 043a 92030000 		.4byte	0x392
 1494 043e 02       		.byte	0x2
 1495 043f 23       		.byte	0x23
 1496 0440 1C       		.uleb128 0x1c
 1497 0441 00       		.byte	0
 1498 0442 09       		.uleb128 0x9
 1499 0443 04       		.byte	0x4
 1500 0444 D2000000 		.4byte	0xd2
 1501 0448 04       		.uleb128 0x4
 1502 0449 42000000 		.4byte	.LASF63
 1503 044d 09       		.byte	0x9
 1504 044e 37       		.byte	0x37
 1505 044f E5030000 		.4byte	0x3e5
 1506 0453 0E       		.uleb128 0xe
 1507 0454 04       		.byte	0x4
ARM GAS  /tmp/ccOzgniH.s 			page 28


 1508 0455 05       		.byte	0x5
 1509 0456 8F       		.byte	0x8f
 1510 0457 88040000 		.4byte	0x488
 1511 045b 0F       		.uleb128 0xf
 1512 045c 1E000000 		.4byte	.LASF64
 1513 0460 05       		.byte	0x5
 1514 0461 96       		.byte	0x96
 1515 0462 D2000000 		.4byte	0xd2
 1516 0466 0F       		.uleb128 0xf
 1517 0467 70000000 		.4byte	.LASF65
 1518 046b 05       		.byte	0x5
 1519 046c 9D       		.byte	0x9d
 1520 046d D2000000 		.4byte	0xd2
 1521 0471 0F       		.uleb128 0xf
 1522 0472 CC030000 		.4byte	.LASF66
 1523 0476 05       		.byte	0x5
 1524 0477 A4       		.byte	0xa4
 1525 0478 9F020000 		.4byte	0x29f
 1526 047c 0F       		.uleb128 0xf
 1527 047d FE020000 		.4byte	.LASF67
 1528 0481 05       		.byte	0x5
 1529 0482 AB       		.byte	0xab
 1530 0483 DD000000 		.4byte	0xdd
 1531 0487 00       		.byte	0
 1532 0488 09       		.uleb128 0x9
 1533 0489 04       		.byte	0x4
 1534 048a 8E040000 		.4byte	0x48e
 1535 048e 10       		.uleb128 0x10
 1536 048f 93040000 		.4byte	0x493
 1537 0493 03       		.uleb128 0x3
 1538 0494 01       		.byte	0x1
 1539 0495 08       		.byte	0x8
 1540 0496 38030000 		.4byte	.LASF68
 1541 049a 09       		.uleb128 0x9
 1542 049b 04       		.byte	0x4
 1543 049c A1020000 		.4byte	0x2a1
 1544 04a0 09       		.uleb128 0x9
 1545 04a1 04       		.byte	0x4
 1546 04a2 DA030000 		.4byte	0x3da
 1547 04a6 11       		.uleb128 0x11
 1548 04a7 01       		.byte	0x1
 1549 04a8 7C010000 		.4byte	.LASF69
 1550 04ac 01       		.byte	0x1
 1551 04ad 41       		.byte	0x41
 1552 04ae 01       		.byte	0x1
 1553 04af 00000000 		.4byte	.LFB7
 1554 04b3 44000000 		.4byte	.LFE7
 1555 04b7 00000000 		.4byte	.LLST0
 1556 04bb 01       		.byte	0x1
 1557 04bc 33050000 		.4byte	0x533
 1558 04c0 12       		.uleb128 0x12
 1559 04c1 6D627000 		.ascii	"mbp\000"
 1560 04c5 01       		.byte	0x1
 1561 04c6 41       		.byte	0x41
 1562 04c7 33050000 		.4byte	0x533
 1563 04cb 20000000 		.4byte	.LLST1
 1564 04cf 12       		.uleb128 0x12
ARM GAS  /tmp/ccOzgniH.s 			page 29


 1565 04d0 62756600 		.ascii	"buf\000"
 1566 04d4 01       		.byte	0x1
 1567 04d5 41       		.byte	0x41
 1568 04d6 42040000 		.4byte	0x442
 1569 04da 54000000 		.4byte	.LLST2
 1570 04de 12       		.uleb128 0x12
 1571 04df 6E00     		.ascii	"n\000"
 1572 04e1 01       		.byte	0x1
 1573 04e2 41       		.byte	0x41
 1574 04e3 F3000000 		.4byte	0xf3
 1575 04e7 88000000 		.4byte	.LLST3
 1576 04eb 13       		.uleb128 0x13
 1577 04ec 2A000000 		.4byte	.LVL2
 1578 04f0 A40B0000 		.4byte	0xba4
 1579 04f4 05050000 		.4byte	0x505
 1580 04f8 14       		.uleb128 0x14
 1581 04f9 01       		.byte	0x1
 1582 04fa 51       		.byte	0x51
 1583 04fb 02       		.byte	0x2
 1584 04fc 76       		.byte	0x76
 1585 04fd 00       		.sleb128 0
 1586 04fe 14       		.uleb128 0x14
 1587 04ff 01       		.byte	0x1
 1588 0500 50       		.byte	0x50
 1589 0501 02       		.byte	0x2
 1590 0502 74       		.byte	0x74
 1591 0503 1C       		.sleb128 28
 1592 0504 00       		.byte	0
 1593 0505 15       		.uleb128 0x15
 1594 0506 38000000 		.4byte	.LVL3
 1595 050a 01       		.byte	0x1
 1596 050b A40B0000 		.4byte	0xba4
 1597 050f 1F050000 		.4byte	0x51f
 1598 0513 14       		.uleb128 0x14
 1599 0514 01       		.byte	0x1
 1600 0515 51       		.byte	0x51
 1601 0516 01       		.byte	0x1
 1602 0517 30       		.byte	0x30
 1603 0518 14       		.uleb128 0x14
 1604 0519 01       		.byte	0x1
 1605 051a 50       		.byte	0x50
 1606 051b 02       		.byte	0x2
 1607 051c 74       		.byte	0x74
 1608 051d 10       		.sleb128 16
 1609 051e 00       		.byte	0
 1610 051f 16       		.uleb128 0x16
 1611 0520 3E000000 		.4byte	.LVL5
 1612 0524 C30B0000 		.4byte	0xbc3
 1613 0528 14       		.uleb128 0x14
 1614 0529 01       		.byte	0x1
 1615 052a 50       		.byte	0x50
 1616 052b 05       		.byte	0x5
 1617 052c 03       		.byte	0x3
 1618 052d 00000000 		.4byte	.LC0
 1619 0531 00       		.byte	0
 1620 0532 00       		.byte	0
 1621 0533 09       		.uleb128 0x9
ARM GAS  /tmp/ccOzgniH.s 			page 30


 1622 0534 04       		.byte	0x4
 1623 0535 48040000 		.4byte	0x448
 1624 0539 11       		.uleb128 0x11
 1625 053a 01       		.byte	0x1
 1626 053b 5B020000 		.4byte	.LASF70
 1627 053f 01       		.byte	0x1
 1628 0540 54       		.byte	0x54
 1629 0541 01       		.byte	0x1
 1630 0542 00000000 		.4byte	.LFB8
 1631 0546 4C000000 		.4byte	.LFE8
 1632 054a BC000000 		.4byte	.LLST4
 1633 054e 01       		.byte	0x1
 1634 054f F8050000 		.4byte	0x5f8
 1635 0553 12       		.uleb128 0x12
 1636 0554 6D627000 		.ascii	"mbp\000"
 1637 0558 01       		.byte	0x1
 1638 0559 54       		.byte	0x54
 1639 055a 33050000 		.4byte	0x533
 1640 055e DC000000 		.4byte	.LLST5
 1641 0562 17       		.uleb128 0x17
 1642 0563 06000000 		.4byte	.LBB2
 1643 0567 0C000000 		.4byte	.LBE2
 1644 056b 7F050000 		.4byte	0x57f
 1645 056f 18       		.uleb128 0x18
 1646 0570 746D7000 		.ascii	"tmp\000"
 1647 0574 01       		.byte	0x1
 1648 0575 58       		.byte	0x58
 1649 0576 70000000 		.4byte	0x70
 1650 057a 10010000 		.4byte	.LLST6
 1651 057e 00       		.byte	0
 1652 057f 17       		.uleb128 0x17
 1653 0580 36000000 		.4byte	.LBB3
 1654 0584 3E000000 		.4byte	.LBE3
 1655 0588 9C050000 		.4byte	0x59c
 1656 058c 18       		.uleb128 0x18
 1657 058d 746D7000 		.ascii	"tmp\000"
 1658 0591 01       		.byte	0x1
 1659 0592 5D       		.byte	0x5d
 1660 0593 70000000 		.4byte	0x70
 1661 0597 23010000 		.4byte	.LLST7
 1662 059b 00       		.byte	0
 1663 059c 19       		.uleb128 0x19
 1664 059d 10000000 		.4byte	.LVL10
 1665 05a1 D70B0000 		.4byte	0xbd7
 1666 05a5 13       		.uleb128 0x13
 1667 05a6 24000000 		.4byte	.LVL11
 1668 05aa E10B0000 		.4byte	0xbe1
 1669 05ae B9050000 		.4byte	0x5b9
 1670 05b2 14       		.uleb128 0x14
 1671 05b3 01       		.byte	0x1
 1672 05b4 50       		.byte	0x50
 1673 05b5 02       		.byte	0x2
 1674 05b6 74       		.byte	0x74
 1675 05b7 1C       		.sleb128 28
 1676 05b8 00       		.byte	0
 1677 05b9 13       		.uleb128 0x13
 1678 05ba 2E000000 		.4byte	.LVL12
ARM GAS  /tmp/ccOzgniH.s 			page 31


 1679 05be E10B0000 		.4byte	0xbe1
 1680 05c2 D2050000 		.4byte	0x5d2
 1681 05c6 14       		.uleb128 0x14
 1682 05c7 01       		.byte	0x1
 1683 05c8 51       		.byte	0x51
 1684 05c9 01       		.byte	0x1
 1685 05ca 30       		.byte	0x30
 1686 05cb 14       		.uleb128 0x14
 1687 05cc 01       		.byte	0x1
 1688 05cd 50       		.byte	0x50
 1689 05ce 02       		.byte	0x2
 1690 05cf 74       		.byte	0x74
 1691 05d0 10       		.sleb128 16
 1692 05d1 00       		.byte	0
 1693 05d2 19       		.uleb128 0x19
 1694 05d3 32000000 		.4byte	.LVL13
 1695 05d7 FA0B0000 		.4byte	0xbfa
 1696 05db 19       		.uleb128 0x19
 1697 05dc 36000000 		.4byte	.LVL14
 1698 05e0 040C0000 		.4byte	0xc04
 1699 05e4 16       		.uleb128 0x16
 1700 05e5 44000000 		.4byte	.LVL19
 1701 05e9 C30B0000 		.4byte	0xbc3
 1702 05ed 14       		.uleb128 0x14
 1703 05ee 01       		.byte	0x1
 1704 05ef 50       		.byte	0x50
 1705 05f0 05       		.byte	0x5
 1706 05f1 03       		.byte	0x3
 1707 05f2 10000000 		.4byte	.LC1
 1708 05f6 00       		.byte	0
 1709 05f7 00       		.byte	0
 1710 05f8 1A       		.uleb128 0x1a
 1711 05f9 01       		.byte	0x1
 1712 05fa 38000000 		.4byte	.LASF72
 1713 05fe 01       		.byte	0x1
 1714 05ff 8F       		.byte	0x8f
 1715 0600 01       		.byte	0x1
 1716 0601 D2000000 		.4byte	0xd2
 1717 0605 00000000 		.4byte	.LFB10
 1718 0609 4C000000 		.4byte	.LFE10
 1719 060d 36010000 		.4byte	.LLST8
 1720 0611 01       		.byte	0x1
 1721 0612 A6060000 		.4byte	0x6a6
 1722 0616 12       		.uleb128 0x12
 1723 0617 6D627000 		.ascii	"mbp\000"
 1724 061b 01       		.byte	0x1
 1725 061c 8F       		.byte	0x8f
 1726 061d 33050000 		.4byte	0x533
 1727 0621 56010000 		.4byte	.LLST9
 1728 0625 12       		.uleb128 0x12
 1729 0626 6D736700 		.ascii	"msg\000"
 1730 062a 01       		.byte	0x1
 1731 062b 8F       		.byte	0x8f
 1732 062c D2000000 		.4byte	0xd2
 1733 0630 74010000 		.4byte	.LLST10
 1734 0634 1B       		.uleb128 0x1b
 1735 0635 84020000 		.4byte	.LASF71
ARM GAS  /tmp/ccOzgniH.s 			page 32


 1736 0639 01       		.byte	0x1
 1737 063a 8F       		.byte	0x8f
 1738 063b E8000000 		.4byte	0xe8
 1739 063f 92010000 		.4byte	.LLST11
 1740 0643 1C       		.uleb128 0x1c
 1741 0644 1E000000 		.4byte	.LASF64
 1742 0648 01       		.byte	0x1
 1743 0649 90       		.byte	0x90
 1744 064a D2000000 		.4byte	0xd2
 1745 064e C9010000 		.4byte	.LLST12
 1746 0652 19       		.uleb128 0x19
 1747 0653 0C000000 		.4byte	.LVL21
 1748 0657 0E0C0000 		.4byte	0xc0e
 1749 065b 13       		.uleb128 0x13
 1750 065c 18000000 		.4byte	.LVL22
 1751 0660 180C0000 		.4byte	0xc18
 1752 0664 75060000 		.4byte	0x675
 1753 0668 14       		.uleb128 0x14
 1754 0669 01       		.byte	0x1
 1755 066a 51       		.byte	0x51
 1756 066b 02       		.byte	0x2
 1757 066c 75       		.byte	0x75
 1758 066d 00       		.sleb128 0
 1759 066e 14       		.uleb128 0x14
 1760 066f 01       		.byte	0x1
 1761 0670 50       		.byte	0x50
 1762 0671 02       		.byte	0x2
 1763 0672 74       		.byte	0x74
 1764 0673 1C       		.sleb128 28
 1765 0674 00       		.byte	0
 1766 0675 13       		.uleb128 0x13
 1767 0676 38000000 		.4byte	.LVL25
 1768 067a 350C0000 		.4byte	0xc35
 1769 067e 89060000 		.4byte	0x689
 1770 0682 14       		.uleb128 0x14
 1771 0683 01       		.byte	0x1
 1772 0684 50       		.byte	0x50
 1773 0685 02       		.byte	0x2
 1774 0686 74       		.byte	0x74
 1775 0687 10       		.sleb128 16
 1776 0688 00       		.byte	0
 1777 0689 19       		.uleb128 0x19
 1778 068a 3C000000 		.4byte	.LVL26
 1779 068e FA0B0000 		.4byte	0xbfa
 1780 0692 16       		.uleb128 0x16
 1781 0693 46000000 		.4byte	.LVL28
 1782 0697 C30B0000 		.4byte	0xbc3
 1783 069b 14       		.uleb128 0x14
 1784 069c 01       		.byte	0x1
 1785 069d 50       		.byte	0x50
 1786 069e 05       		.byte	0x5
 1787 069f 03       		.byte	0x3
 1788 06a0 20000000 		.4byte	.LC2
 1789 06a4 00       		.byte	0
 1790 06a5 00       		.byte	0
 1791 06a6 1A       		.uleb128 0x1a
 1792 06a7 01       		.byte	0x1
ARM GAS  /tmp/ccOzgniH.s 			page 33


 1793 06a8 14030000 		.4byte	.LASF73
 1794 06ac 01       		.byte	0x1
 1795 06ad 73       		.byte	0x73
 1796 06ae 01       		.byte	0x1
 1797 06af D2000000 		.4byte	0xd2
 1798 06b3 00000000 		.4byte	.LFB9
 1799 06b7 2C000000 		.4byte	.LFE9
 1800 06bb E7010000 		.4byte	.LLST13
 1801 06bf 01       		.byte	0x1
 1802 06c0 69070000 		.4byte	0x769
 1803 06c4 12       		.uleb128 0x12
 1804 06c5 6D627000 		.ascii	"mbp\000"
 1805 06c9 01       		.byte	0x1
 1806 06ca 73       		.byte	0x73
 1807 06cb 33050000 		.4byte	0x533
 1808 06cf 07020000 		.4byte	.LLST14
 1809 06d3 12       		.uleb128 0x12
 1810 06d4 6D736700 		.ascii	"msg\000"
 1811 06d8 01       		.byte	0x1
 1812 06d9 73       		.byte	0x73
 1813 06da D2000000 		.4byte	0xd2
 1814 06de 25020000 		.4byte	.LLST15
 1815 06e2 1B       		.uleb128 0x1b
 1816 06e3 84020000 		.4byte	.LASF71
 1817 06e7 01       		.byte	0x1
 1818 06e8 73       		.byte	0x73
 1819 06e9 E8000000 		.4byte	0xe8
 1820 06ed 43020000 		.4byte	.LLST16
 1821 06f1 1C       		.uleb128 0x1c
 1822 06f2 1E000000 		.4byte	.LASF64
 1823 06f6 01       		.byte	0x1
 1824 06f7 74       		.byte	0x74
 1825 06f8 D2000000 		.4byte	0xd2
 1826 06fc 6F020000 		.4byte	.LLST17
 1827 0700 1D       		.uleb128 0x1d
 1828 0701 00000000 		.4byte	.Ldebug_ranges0+0
 1829 0705 19070000 		.4byte	0x719
 1830 0709 18       		.uleb128 0x18
 1831 070a 746D7000 		.ascii	"tmp\000"
 1832 070e 01       		.byte	0x1
 1833 070f 76       		.byte	0x76
 1834 0710 70000000 		.4byte	0x70
 1835 0714 8D020000 		.4byte	.LLST18
 1836 0718 00       		.byte	0
 1837 0719 17       		.uleb128 0x17
 1838 071a 22000000 		.4byte	.LBB6
 1839 071e 28000000 		.4byte	.LBE6
 1840 0722 36070000 		.4byte	0x736
 1841 0726 18       		.uleb128 0x18
 1842 0727 746D7000 		.ascii	"tmp\000"
 1843 072b 01       		.byte	0x1
 1844 072c 78       		.byte	0x78
 1845 072d 70000000 		.4byte	0x70
 1846 0731 A0020000 		.4byte	.LLST19
 1847 0735 00       		.byte	0
 1848 0736 19       		.uleb128 0x19
 1849 0737 12000000 		.4byte	.LVL32
ARM GAS  /tmp/ccOzgniH.s 			page 34


 1850 073b D70B0000 		.4byte	0xbd7
 1851 073f 13       		.uleb128 0x13
 1852 0740 1C000000 		.4byte	.LVL33
 1853 0744 F8050000 		.4byte	0x5f8
 1854 0748 5F070000 		.4byte	0x75f
 1855 074c 14       		.uleb128 0x14
 1856 074d 01       		.byte	0x1
 1857 074e 52       		.byte	0x52
 1858 074f 02       		.byte	0x2
 1859 0750 74       		.byte	0x74
 1860 0751 00       		.sleb128 0
 1861 0752 14       		.uleb128 0x14
 1862 0753 01       		.byte	0x1
 1863 0754 51       		.byte	0x51
 1864 0755 02       		.byte	0x2
 1865 0756 75       		.byte	0x75
 1866 0757 00       		.sleb128 0
 1867 0758 14       		.uleb128 0x14
 1868 0759 01       		.byte	0x1
 1869 075a 50       		.byte	0x50
 1870 075b 02       		.byte	0x2
 1871 075c 76       		.byte	0x76
 1872 075d 00       		.sleb128 0
 1873 075e 00       		.byte	0
 1874 075f 19       		.uleb128 0x19
 1875 0760 22000000 		.4byte	.LVL35
 1876 0764 040C0000 		.4byte	0xc04
 1877 0768 00       		.byte	0
 1878 0769 1A       		.uleb128 0x1a
 1879 076a 01       		.byte	0x1
 1880 076b 2E000000 		.4byte	.LASF74
 1881 076f 01       		.byte	0x1
 1882 0770 AE       		.byte	0xae
 1883 0771 01       		.byte	0x1
 1884 0772 D2000000 		.4byte	0xd2
 1885 0776 00000000 		.4byte	.LFB11
 1886 077a 48000000 		.4byte	.LFE11
 1887 077e B3020000 		.4byte	.LLST20
 1888 0782 01       		.byte	0x1
 1889 0783 D6070000 		.4byte	0x7d6
 1890 0787 12       		.uleb128 0x12
 1891 0788 6D627000 		.ascii	"mbp\000"
 1892 078c 01       		.byte	0x1
 1893 078d AE       		.byte	0xae
 1894 078e 33050000 		.4byte	0x533
 1895 0792 D3020000 		.4byte	.LLST21
 1896 0796 12       		.uleb128 0x12
 1897 0797 6D736700 		.ascii	"msg\000"
 1898 079b 01       		.byte	0x1
 1899 079c AE       		.byte	0xae
 1900 079d D2000000 		.4byte	0xd2
 1901 07a1 F1020000 		.4byte	.LLST22
 1902 07a5 19       		.uleb128 0x19
 1903 07a6 0A000000 		.4byte	.LVL39
 1904 07aa 490C0000 		.4byte	0xc49
 1905 07ae 13       		.uleb128 0x13
 1906 07af 32000000 		.4byte	.LVL40
ARM GAS  /tmp/ccOzgniH.s 			page 35


 1907 07b3 350C0000 		.4byte	0xc35
 1908 07b7 C2070000 		.4byte	0x7c2
 1909 07bb 14       		.uleb128 0x14
 1910 07bc 01       		.byte	0x1
 1911 07bd 50       		.byte	0x50
 1912 07be 02       		.byte	0x2
 1913 07bf 74       		.byte	0x74
 1914 07c0 10       		.sleb128 16
 1915 07c1 00       		.byte	0
 1916 07c2 16       		.uleb128 0x16
 1917 07c3 3C000000 		.4byte	.LVL41
 1918 07c7 C30B0000 		.4byte	0xbc3
 1919 07cb 14       		.uleb128 0x14
 1920 07cc 01       		.byte	0x1
 1921 07cd 50       		.byte	0x50
 1922 07ce 05       		.byte	0x5
 1923 07cf 03       		.byte	0x3
 1924 07d0 30000000 		.4byte	.LC3
 1925 07d4 00       		.byte	0
 1926 07d5 00       		.byte	0
 1927 07d6 1A       		.uleb128 0x1a
 1928 07d7 01       		.byte	0x1
 1929 07d8 79000000 		.4byte	.LASF75
 1930 07dc 01       		.byte	0x1
 1931 07dd EC       		.byte	0xec
 1932 07de 01       		.byte	0x1
 1933 07df D2000000 		.4byte	0xd2
 1934 07e3 00000000 		.4byte	.LFB13
 1935 07e7 50000000 		.4byte	.LFE13
 1936 07eb 0F030000 		.4byte	.LLST23
 1937 07ef 01       		.byte	0x1
 1938 07f0 84080000 		.4byte	0x884
 1939 07f4 12       		.uleb128 0x12
 1940 07f5 6D627000 		.ascii	"mbp\000"
 1941 07f9 01       		.byte	0x1
 1942 07fa EC       		.byte	0xec
 1943 07fb 33050000 		.4byte	0x533
 1944 07ff 2F030000 		.4byte	.LLST24
 1945 0803 12       		.uleb128 0x12
 1946 0804 6D736700 		.ascii	"msg\000"
 1947 0808 01       		.byte	0x1
 1948 0809 EC       		.byte	0xec
 1949 080a D2000000 		.4byte	0xd2
 1950 080e 4D030000 		.4byte	.LLST25
 1951 0812 1B       		.uleb128 0x1b
 1952 0813 84020000 		.4byte	.LASF71
 1953 0817 01       		.byte	0x1
 1954 0818 EC       		.byte	0xec
 1955 0819 E8000000 		.4byte	0xe8
 1956 081d 6B030000 		.4byte	.LLST26
 1957 0821 1C       		.uleb128 0x1c
 1958 0822 1E000000 		.4byte	.LASF64
 1959 0826 01       		.byte	0x1
 1960 0827 ED       		.byte	0xed
 1961 0828 D2000000 		.4byte	0xd2
 1962 082c A2030000 		.4byte	.LLST27
 1963 0830 19       		.uleb128 0x19
ARM GAS  /tmp/ccOzgniH.s 			page 36


 1964 0831 0C000000 		.4byte	.LVL43
 1965 0835 0E0C0000 		.4byte	0xc0e
 1966 0839 13       		.uleb128 0x13
 1967 083a 18000000 		.4byte	.LVL44
 1968 083e 180C0000 		.4byte	0xc18
 1969 0842 53080000 		.4byte	0x853
 1970 0846 14       		.uleb128 0x14
 1971 0847 01       		.byte	0x1
 1972 0848 51       		.byte	0x51
 1973 0849 02       		.byte	0x2
 1974 084a 75       		.byte	0x75
 1975 084b 00       		.sleb128 0
 1976 084c 14       		.uleb128 0x14
 1977 084d 01       		.byte	0x1
 1978 084e 50       		.byte	0x50
 1979 084f 02       		.byte	0x2
 1980 0850 74       		.byte	0x74
 1981 0851 1C       		.sleb128 28
 1982 0852 00       		.byte	0
 1983 0853 13       		.uleb128 0x13
 1984 0854 32000000 		.4byte	.LVL47
 1985 0858 350C0000 		.4byte	0xc35
 1986 085c 67080000 		.4byte	0x867
 1987 0860 14       		.uleb128 0x14
 1988 0861 01       		.byte	0x1
 1989 0862 50       		.byte	0x50
 1990 0863 02       		.byte	0x2
 1991 0864 74       		.byte	0x74
 1992 0865 10       		.sleb128 16
 1993 0866 00       		.byte	0
 1994 0867 19       		.uleb128 0x19
 1995 0868 36000000 		.4byte	.LVL48
 1996 086c FA0B0000 		.4byte	0xbfa
 1997 0870 16       		.uleb128 0x16
 1998 0871 48000000 		.4byte	.LVL51
 1999 0875 C30B0000 		.4byte	0xbc3
 2000 0879 14       		.uleb128 0x14
 2001 087a 01       		.byte	0x1
 2002 087b 50       		.byte	0x50
 2003 087c 05       		.byte	0x5
 2004 087d 03       		.byte	0x3
 2005 087e 40000000 		.4byte	.LC4
 2006 0882 00       		.byte	0
 2007 0883 00       		.byte	0
 2008 0884 1A       		.uleb128 0x1a
 2009 0885 01       		.byte	0x1
 2010 0886 72030000 		.4byte	.LASF76
 2011 088a 01       		.byte	0x1
 2012 088b D0       		.byte	0xd0
 2013 088c 01       		.byte	0x1
 2014 088d D2000000 		.4byte	0xd2
 2015 0891 00000000 		.4byte	.LFB12
 2016 0895 2C000000 		.4byte	.LFE12
 2017 0899 CB030000 		.4byte	.LLST28
 2018 089d 01       		.byte	0x1
 2019 089e 47090000 		.4byte	0x947
 2020 08a2 12       		.uleb128 0x12
ARM GAS  /tmp/ccOzgniH.s 			page 37


 2021 08a3 6D627000 		.ascii	"mbp\000"
 2022 08a7 01       		.byte	0x1
 2023 08a8 D0       		.byte	0xd0
 2024 08a9 33050000 		.4byte	0x533
 2025 08ad EB030000 		.4byte	.LLST29
 2026 08b1 12       		.uleb128 0x12
 2027 08b2 6D736700 		.ascii	"msg\000"
 2028 08b6 01       		.byte	0x1
 2029 08b7 D0       		.byte	0xd0
 2030 08b8 D2000000 		.4byte	0xd2
 2031 08bc 09040000 		.4byte	.LLST30
 2032 08c0 1B       		.uleb128 0x1b
 2033 08c1 84020000 		.4byte	.LASF71
 2034 08c5 01       		.byte	0x1
 2035 08c6 D0       		.byte	0xd0
 2036 08c7 E8000000 		.4byte	0xe8
 2037 08cb 27040000 		.4byte	.LLST31
 2038 08cf 1C       		.uleb128 0x1c
 2039 08d0 1E000000 		.4byte	.LASF64
 2040 08d4 01       		.byte	0x1
 2041 08d5 D1       		.byte	0xd1
 2042 08d6 D2000000 		.4byte	0xd2
 2043 08da 53040000 		.4byte	.LLST32
 2044 08de 1D       		.uleb128 0x1d
 2045 08df 18000000 		.4byte	.Ldebug_ranges0+0x18
 2046 08e3 F7080000 		.4byte	0x8f7
 2047 08e7 18       		.uleb128 0x18
 2048 08e8 746D7000 		.ascii	"tmp\000"
 2049 08ec 01       		.byte	0x1
 2050 08ed D3       		.byte	0xd3
 2051 08ee 70000000 		.4byte	0x70
 2052 08f2 71040000 		.4byte	.LLST33
 2053 08f6 00       		.byte	0
 2054 08f7 17       		.uleb128 0x17
 2055 08f8 22000000 		.4byte	.LBB9
 2056 08fc 28000000 		.4byte	.LBE9
 2057 0900 14090000 		.4byte	0x914
 2058 0904 18       		.uleb128 0x18
 2059 0905 746D7000 		.ascii	"tmp\000"
 2060 0909 01       		.byte	0x1
 2061 090a D5       		.byte	0xd5
 2062 090b 70000000 		.4byte	0x70
 2063 090f 84040000 		.4byte	.LLST34
 2064 0913 00       		.byte	0
 2065 0914 19       		.uleb128 0x19
 2066 0915 12000000 		.4byte	.LVL55
 2067 0919 D70B0000 		.4byte	0xbd7
 2068 091d 13       		.uleb128 0x13
 2069 091e 1C000000 		.4byte	.LVL56
 2070 0922 D6070000 		.4byte	0x7d6
 2071 0926 3D090000 		.4byte	0x93d
 2072 092a 14       		.uleb128 0x14
 2073 092b 01       		.byte	0x1
 2074 092c 52       		.byte	0x52
 2075 092d 02       		.byte	0x2
 2076 092e 74       		.byte	0x74
 2077 092f 00       		.sleb128 0
ARM GAS  /tmp/ccOzgniH.s 			page 38


 2078 0930 14       		.uleb128 0x14
 2079 0931 01       		.byte	0x1
 2080 0932 51       		.byte	0x51
 2081 0933 02       		.byte	0x2
 2082 0934 75       		.byte	0x75
 2083 0935 00       		.sleb128 0
 2084 0936 14       		.uleb128 0x14
 2085 0937 01       		.byte	0x1
 2086 0938 50       		.byte	0x50
 2087 0939 02       		.byte	0x2
 2088 093a 76       		.byte	0x76
 2089 093b 00       		.sleb128 0
 2090 093c 00       		.byte	0
 2091 093d 19       		.uleb128 0x19
 2092 093e 22000000 		.4byte	.LVL58
 2093 0942 040C0000 		.4byte	0xc04
 2094 0946 00       		.byte	0
 2095 0947 1E       		.uleb128 0x1e
 2096 0948 01       		.byte	0x1
 2097 0949 4A000000 		.4byte	.LASF77
 2098 094d 01       		.byte	0x1
 2099 094e 0B01     		.2byte	0x10b
 2100 0950 01       		.byte	0x1
 2101 0951 D2000000 		.4byte	0xd2
 2102 0955 00000000 		.4byte	.LFB14
 2103 0959 48000000 		.4byte	.LFE14
 2104 095d 97040000 		.4byte	.LLST35
 2105 0961 01       		.byte	0x1
 2106 0962 B7090000 		.4byte	0x9b7
 2107 0966 1F       		.uleb128 0x1f
 2108 0967 6D627000 		.ascii	"mbp\000"
 2109 096b 01       		.byte	0x1
 2110 096c 0B01     		.2byte	0x10b
 2111 096e 33050000 		.4byte	0x533
 2112 0972 B7040000 		.4byte	.LLST36
 2113 0976 1F       		.uleb128 0x1f
 2114 0977 6D736700 		.ascii	"msg\000"
 2115 097b 01       		.byte	0x1
 2116 097c 0B01     		.2byte	0x10b
 2117 097e D2000000 		.4byte	0xd2
 2118 0982 D5040000 		.4byte	.LLST37
 2119 0986 19       		.uleb128 0x19
 2120 0987 0A000000 		.4byte	.LVL62
 2121 098b 490C0000 		.4byte	0xc49
 2122 098f 13       		.uleb128 0x13
 2123 0990 32000000 		.4byte	.LVL63
 2124 0994 350C0000 		.4byte	0xc35
 2125 0998 A3090000 		.4byte	0x9a3
 2126 099c 14       		.uleb128 0x14
 2127 099d 01       		.byte	0x1
 2128 099e 50       		.byte	0x50
 2129 099f 02       		.byte	0x2
 2130 09a0 74       		.byte	0x74
 2131 09a1 10       		.sleb128 16
 2132 09a2 00       		.byte	0
 2133 09a3 16       		.uleb128 0x16
 2134 09a4 3C000000 		.4byte	.LVL64
ARM GAS  /tmp/ccOzgniH.s 			page 39


 2135 09a8 C30B0000 		.4byte	0xbc3
 2136 09ac 14       		.uleb128 0x14
 2137 09ad 01       		.byte	0x1
 2138 09ae 50       		.byte	0x50
 2139 09af 05       		.byte	0x5
 2140 09b0 03       		.byte	0x3
 2141 09b1 54000000 		.4byte	.LC5
 2142 09b5 00       		.byte	0
 2143 09b6 00       		.byte	0
 2144 09b7 1E       		.uleb128 0x1e
 2145 09b8 01       		.byte	0x1
 2146 09b9 E6010000 		.4byte	.LASF78
 2147 09bd 01       		.byte	0x1
 2148 09be 4901     		.2byte	0x149
 2149 09c0 01       		.byte	0x1
 2150 09c1 D2000000 		.4byte	0xd2
 2151 09c5 00000000 		.4byte	.LFB16
 2152 09c9 54000000 		.4byte	.LFE16
 2153 09cd F3040000 		.4byte	.LLST38
 2154 09d1 01       		.byte	0x1
 2155 09d2 6A0A0000 		.4byte	0xa6a
 2156 09d6 1F       		.uleb128 0x1f
 2157 09d7 6D627000 		.ascii	"mbp\000"
 2158 09db 01       		.byte	0x1
 2159 09dc 4901     		.2byte	0x149
 2160 09de 33050000 		.4byte	0x533
 2161 09e2 13050000 		.4byte	.LLST39
 2162 09e6 20       		.uleb128 0x20
 2163 09e7 28020000 		.4byte	.LASF79
 2164 09eb 01       		.byte	0x1
 2165 09ec 4901     		.2byte	0x149
 2166 09ee 42040000 		.4byte	0x442
 2167 09f2 31050000 		.4byte	.LLST40
 2168 09f6 20       		.uleb128 0x20
 2169 09f7 84020000 		.4byte	.LASF71
 2170 09fb 01       		.byte	0x1
 2171 09fc 4901     		.2byte	0x149
 2172 09fe E8000000 		.4byte	0xe8
 2173 0a02 4F050000 		.4byte	.LLST41
 2174 0a06 21       		.uleb128 0x21
 2175 0a07 1E000000 		.4byte	.LASF64
 2176 0a0b 01       		.byte	0x1
 2177 0a0c 4A01     		.2byte	0x14a
 2178 0a0e D2000000 		.4byte	0xd2
 2179 0a12 86050000 		.4byte	.LLST42
 2180 0a16 19       		.uleb128 0x19
 2181 0a17 0C000000 		.4byte	.LVL66
 2182 0a1b 0E0C0000 		.4byte	0xc0e
 2183 0a1f 13       		.uleb128 0x13
 2184 0a20 1E000000 		.4byte	.LVL67
 2185 0a24 180C0000 		.4byte	0xc18
 2186 0a28 390A0000 		.4byte	0xa39
 2187 0a2c 14       		.uleb128 0x14
 2188 0a2d 01       		.byte	0x1
 2189 0a2e 51       		.byte	0x51
 2190 0a2f 02       		.byte	0x2
 2191 0a30 75       		.byte	0x75
ARM GAS  /tmp/ccOzgniH.s 			page 40


 2192 0a31 00       		.sleb128 0
 2193 0a32 14       		.uleb128 0x14
 2194 0a33 01       		.byte	0x1
 2195 0a34 50       		.byte	0x50
 2196 0a35 02       		.byte	0x2
 2197 0a36 74       		.byte	0x74
 2198 0a37 10       		.sleb128 16
 2199 0a38 00       		.byte	0
 2200 0a39 13       		.uleb128 0x13
 2201 0a3a 40000000 		.4byte	.LVL70
 2202 0a3e 350C0000 		.4byte	0xc35
 2203 0a42 4D0A0000 		.4byte	0xa4d
 2204 0a46 14       		.uleb128 0x14
 2205 0a47 01       		.byte	0x1
 2206 0a48 50       		.byte	0x50
 2207 0a49 02       		.byte	0x2
 2208 0a4a 74       		.byte	0x74
 2209 0a4b 1C       		.sleb128 28
 2210 0a4c 00       		.byte	0
 2211 0a4d 19       		.uleb128 0x19
 2212 0a4e 44000000 		.4byte	.LVL71
 2213 0a52 FA0B0000 		.4byte	0xbfa
 2214 0a56 16       		.uleb128 0x16
 2215 0a57 4E000000 		.4byte	.LVL73
 2216 0a5b C30B0000 		.4byte	0xbc3
 2217 0a5f 14       		.uleb128 0x14
 2218 0a60 01       		.byte	0x1
 2219 0a61 50       		.byte	0x50
 2220 0a62 05       		.byte	0x5
 2221 0a63 03       		.byte	0x3
 2222 0a64 68000000 		.4byte	.LC6
 2223 0a68 00       		.byte	0
 2224 0a69 00       		.byte	0
 2225 0a6a 1E       		.uleb128 0x1e
 2226 0a6b 01       		.byte	0x1
 2227 0a6c 92030000 		.4byte	.LASF80
 2228 0a70 01       		.byte	0x1
 2229 0a71 2D01     		.2byte	0x12d
 2230 0a73 01       		.byte	0x1
 2231 0a74 D2000000 		.4byte	0xd2
 2232 0a78 00000000 		.4byte	.LFB15
 2233 0a7c 2C000000 		.4byte	.LFE15
 2234 0a80 A4050000 		.4byte	.LLST43
 2235 0a84 01       		.byte	0x1
 2236 0a85 340B0000 		.4byte	0xb34
 2237 0a89 1F       		.uleb128 0x1f
 2238 0a8a 6D627000 		.ascii	"mbp\000"
 2239 0a8e 01       		.byte	0x1
 2240 0a8f 2D01     		.2byte	0x12d
 2241 0a91 33050000 		.4byte	0x533
 2242 0a95 C4050000 		.4byte	.LLST44
 2243 0a99 20       		.uleb128 0x20
 2244 0a9a 28020000 		.4byte	.LASF79
 2245 0a9e 01       		.byte	0x1
 2246 0a9f 2D01     		.2byte	0x12d
 2247 0aa1 42040000 		.4byte	0x442
 2248 0aa5 E2050000 		.4byte	.LLST45
ARM GAS  /tmp/ccOzgniH.s 			page 41


 2249 0aa9 20       		.uleb128 0x20
 2250 0aaa 84020000 		.4byte	.LASF71
 2251 0aae 01       		.byte	0x1
 2252 0aaf 2D01     		.2byte	0x12d
 2253 0ab1 E8000000 		.4byte	0xe8
 2254 0ab5 00060000 		.4byte	.LLST46
 2255 0ab9 21       		.uleb128 0x21
 2256 0aba 1E000000 		.4byte	.LASF64
 2257 0abe 01       		.byte	0x1
 2258 0abf 2E01     		.2byte	0x12e
 2259 0ac1 D2000000 		.4byte	0xd2
 2260 0ac5 2C060000 		.4byte	.LLST47
 2261 0ac9 1D       		.uleb128 0x1d
 2262 0aca 30000000 		.4byte	.Ldebug_ranges0+0x30
 2263 0ace E30A0000 		.4byte	0xae3
 2264 0ad2 22       		.uleb128 0x22
 2265 0ad3 746D7000 		.ascii	"tmp\000"
 2266 0ad7 01       		.byte	0x1
 2267 0ad8 3001     		.2byte	0x130
 2268 0ada 70000000 		.4byte	0x70
 2269 0ade 4A060000 		.4byte	.LLST48
 2270 0ae2 00       		.byte	0
 2271 0ae3 17       		.uleb128 0x17
 2272 0ae4 22000000 		.4byte	.LBB12
 2273 0ae8 28000000 		.4byte	.LBE12
 2274 0aec 010B0000 		.4byte	0xb01
 2275 0af0 22       		.uleb128 0x22
 2276 0af1 746D7000 		.ascii	"tmp\000"
 2277 0af5 01       		.byte	0x1
 2278 0af6 3201     		.2byte	0x132
 2279 0af8 70000000 		.4byte	0x70
 2280 0afc 5D060000 		.4byte	.LLST49
 2281 0b00 00       		.byte	0
 2282 0b01 19       		.uleb128 0x19
 2283 0b02 12000000 		.4byte	.LVL77
 2284 0b06 D70B0000 		.4byte	0xbd7
 2285 0b0a 13       		.uleb128 0x13
 2286 0b0b 1C000000 		.4byte	.LVL78
 2287 0b0f B7090000 		.4byte	0x9b7
 2288 0b13 2A0B0000 		.4byte	0xb2a
 2289 0b17 14       		.uleb128 0x14
 2290 0b18 01       		.byte	0x1
 2291 0b19 52       		.byte	0x52
 2292 0b1a 02       		.byte	0x2
 2293 0b1b 74       		.byte	0x74
 2294 0b1c 00       		.sleb128 0
 2295 0b1d 14       		.uleb128 0x14
 2296 0b1e 01       		.byte	0x1
 2297 0b1f 51       		.byte	0x51
 2298 0b20 02       		.byte	0x2
 2299 0b21 75       		.byte	0x75
 2300 0b22 00       		.sleb128 0
 2301 0b23 14       		.uleb128 0x14
 2302 0b24 01       		.byte	0x1
 2303 0b25 50       		.byte	0x50
 2304 0b26 02       		.byte	0x2
 2305 0b27 76       		.byte	0x76
ARM GAS  /tmp/ccOzgniH.s 			page 42


 2306 0b28 00       		.sleb128 0
 2307 0b29 00       		.byte	0
 2308 0b2a 19       		.uleb128 0x19
 2309 0b2b 22000000 		.4byte	.LVL80
 2310 0b2f 040C0000 		.4byte	0xc04
 2311 0b33 00       		.byte	0
 2312 0b34 1E       		.uleb128 0x1e
 2313 0b35 01       		.byte	0x1
 2314 0b36 C4010000 		.4byte	.LASF81
 2315 0b3a 01       		.byte	0x1
 2316 0b3b 6801     		.2byte	0x168
 2317 0b3d 01       		.byte	0x1
 2318 0b3e D2000000 		.4byte	0xd2
 2319 0b42 00000000 		.4byte	.LFB17
 2320 0b46 50000000 		.4byte	.LFE17
 2321 0b4a 70060000 		.4byte	.LLST50
 2322 0b4e 01       		.byte	0x1
 2323 0b4f A40B0000 		.4byte	0xba4
 2324 0b53 1F       		.uleb128 0x1f
 2325 0b54 6D627000 		.ascii	"mbp\000"
 2326 0b58 01       		.byte	0x1
 2327 0b59 6801     		.2byte	0x168
 2328 0b5b 33050000 		.4byte	0x533
 2329 0b5f 90060000 		.4byte	.LLST51
 2330 0b63 20       		.uleb128 0x20
 2331 0b64 28020000 		.4byte	.LASF79
 2332 0b68 01       		.byte	0x1
 2333 0b69 6801     		.2byte	0x168
 2334 0b6b 42040000 		.4byte	0x442
 2335 0b6f AE060000 		.4byte	.LLST52
 2336 0b73 19       		.uleb128 0x19
 2337 0b74 0A000000 		.4byte	.LVL84
 2338 0b78 490C0000 		.4byte	0xc49
 2339 0b7c 13       		.uleb128 0x13
 2340 0b7d 3A000000 		.4byte	.LVL85
 2341 0b81 350C0000 		.4byte	0xc35
 2342 0b85 900B0000 		.4byte	0xb90
 2343 0b89 14       		.uleb128 0x14
 2344 0b8a 01       		.byte	0x1
 2345 0b8b 50       		.byte	0x50
 2346 0b8c 02       		.byte	0x2
 2347 0b8d 74       		.byte	0x74
 2348 0b8e 1C       		.sleb128 28
 2349 0b8f 00       		.byte	0
 2350 0b90 16       		.uleb128 0x16
 2351 0b91 44000000 		.4byte	.LVL86
 2352 0b95 C30B0000 		.4byte	0xbc3
 2353 0b99 14       		.uleb128 0x14
 2354 0b9a 01       		.byte	0x1
 2355 0b9b 50       		.byte	0x50
 2356 0b9c 05       		.byte	0x5
 2357 0b9d 03       		.byte	0x3
 2358 0b9e 78000000 		.4byte	.LC7
 2359 0ba2 00       		.byte	0
 2360 0ba3 00       		.byte	0
 2361 0ba4 23       		.uleb128 0x23
 2362 0ba5 01       		.byte	0x1
ARM GAS  /tmp/ccOzgniH.s 			page 43


 2363 0ba6 F2030000 		.4byte	.LASF82
 2364 0baa 07       		.byte	0x7
 2365 0bab 2E       		.byte	0x2e
 2366 0bac 01       		.byte	0x1
 2367 0bad 01       		.byte	0x1
 2368 0bae BD0B0000 		.4byte	0xbbd
 2369 0bb2 24       		.uleb128 0x24
 2370 0bb3 BD0B0000 		.4byte	0xbbd
 2371 0bb7 24       		.uleb128 0x24
 2372 0bb8 F3000000 		.4byte	0xf3
 2373 0bbc 00       		.byte	0
 2374 0bbd 09       		.uleb128 0x9
 2375 0bbe 04       		.byte	0x4
 2376 0bbf 92030000 		.4byte	0x392
 2377 0bc3 23       		.uleb128 0x23
 2378 0bc4 01       		.byte	0x1
 2379 0bc5 13000000 		.4byte	.LASF83
 2380 0bc9 0A       		.byte	0xa
 2381 0bca EF       		.byte	0xef
 2382 0bcb 01       		.byte	0x1
 2383 0bcc 01       		.byte	0x1
 2384 0bcd D70B0000 		.4byte	0xbd7
 2385 0bd1 24       		.uleb128 0x24
 2386 0bd2 88040000 		.4byte	0x488
 2387 0bd6 00       		.byte	0
 2388 0bd7 25       		.uleb128 0x25
 2389 0bd8 01       		.byte	0x1
 2390 0bd9 95020000 		.4byte	.LASF85
 2391 0bdd 0A       		.byte	0xa
 2392 0bde E0       		.byte	0xe0
 2393 0bdf 01       		.byte	0x1
 2394 0be0 01       		.byte	0x1
 2395 0be1 23       		.uleb128 0x23
 2396 0be2 01       		.byte	0x1
 2397 0be3 B8030000 		.4byte	.LASF84
 2398 0be7 07       		.byte	0x7
 2399 0be8 30       		.byte	0x30
 2400 0be9 01       		.byte	0x1
 2401 0bea 01       		.byte	0x1
 2402 0beb FA0B0000 		.4byte	0xbfa
 2403 0bef 24       		.uleb128 0x24
 2404 0bf0 BD0B0000 		.4byte	0xbbd
 2405 0bf4 24       		.uleb128 0x24
 2406 0bf5 F3000000 		.4byte	0xf3
 2407 0bf9 00       		.byte	0
 2408 0bfa 25       		.uleb128 0x25
 2409 0bfb 01       		.byte	0x1
 2410 0bfc 1D010000 		.4byte	.LASF86
 2411 0c00 0B       		.byte	0xb
 2412 0c01 95       		.byte	0x95
 2413 0c02 01       		.byte	0x1
 2414 0c03 01       		.byte	0x1
 2415 0c04 25       		.uleb128 0x25
 2416 0c05 01       		.byte	0x1
 2417 0c06 38020000 		.4byte	.LASF87
 2418 0c0a 0A       		.byte	0xa
 2419 0c0b E1       		.byte	0xe1
ARM GAS  /tmp/ccOzgniH.s 			page 44


 2420 0c0c 01       		.byte	0x1
 2421 0c0d 01       		.byte	0x1
 2422 0c0e 25       		.uleb128 0x25
 2423 0c0f 01       		.byte	0x1
 2424 0c10 F9010000 		.4byte	.LASF88
 2425 0c14 0A       		.byte	0xa
 2426 0c15 E7       		.byte	0xe7
 2427 0c16 01       		.byte	0x1
 2428 0c17 01       		.byte	0x1
 2429 0c18 26       		.uleb128 0x26
 2430 0c19 01       		.byte	0x1
 2431 0c1a 3D030000 		.4byte	.LASF94
 2432 0c1e 07       		.byte	0x7
 2433 0c1f 34       		.byte	0x34
 2434 0c20 01       		.byte	0x1
 2435 0c21 D2000000 		.4byte	0xd2
 2436 0c25 01       		.byte	0x1
 2437 0c26 350C0000 		.4byte	0xc35
 2438 0c2a 24       		.uleb128 0x24
 2439 0c2b BD0B0000 		.4byte	0xbbd
 2440 0c2f 24       		.uleb128 0x24
 2441 0c30 E8000000 		.4byte	0xe8
 2442 0c34 00       		.byte	0
 2443 0c35 23       		.uleb128 0x23
 2444 0c36 01       		.byte	0x1
 2445 0c37 06000000 		.4byte	.LASF89
 2446 0c3b 07       		.byte	0x7
 2447 0c3c 36       		.byte	0x36
 2448 0c3d 01       		.byte	0x1
 2449 0c3e 01       		.byte	0x1
 2450 0c3f 490C0000 		.4byte	0xc49
 2451 0c43 24       		.uleb128 0x24
 2452 0c44 BD0B0000 		.4byte	0xbbd
 2453 0c48 00       		.byte	0
 2454 0c49 25       		.uleb128 0x25
 2455 0c4a 01       		.byte	0x1
 2456 0c4b D5010000 		.4byte	.LASF90
 2457 0c4f 0A       		.byte	0xa
 2458 0c50 E6       		.byte	0xe6
 2459 0c51 01       		.byte	0x1
 2460 0c52 01       		.byte	0x1
 2461 0c53 00       		.byte	0
 2462              		.section	.debug_abbrev,"",%progbits
 2463              	.Ldebug_abbrev0:
 2464 0000 01       		.uleb128 0x1
 2465 0001 11       		.uleb128 0x11
 2466 0002 01       		.byte	0x1
 2467 0003 25       		.uleb128 0x25
 2468 0004 0E       		.uleb128 0xe
 2469 0005 13       		.uleb128 0x13
 2470 0006 0B       		.uleb128 0xb
 2471 0007 03       		.uleb128 0x3
 2472 0008 0E       		.uleb128 0xe
 2473 0009 1B       		.uleb128 0x1b
 2474 000a 0E       		.uleb128 0xe
 2475 000b 55       		.uleb128 0x55
 2476 000c 06       		.uleb128 0x6
ARM GAS  /tmp/ccOzgniH.s 			page 45


 2477 000d 11       		.uleb128 0x11
 2478 000e 01       		.uleb128 0x1
 2479 000f 52       		.uleb128 0x52
 2480 0010 01       		.uleb128 0x1
 2481 0011 10       		.uleb128 0x10
 2482 0012 06       		.uleb128 0x6
 2483 0013 00       		.byte	0
 2484 0014 00       		.byte	0
 2485 0015 02       		.uleb128 0x2
 2486 0016 24       		.uleb128 0x24
 2487 0017 00       		.byte	0
 2488 0018 0B       		.uleb128 0xb
 2489 0019 0B       		.uleb128 0xb
 2490 001a 3E       		.uleb128 0x3e
 2491 001b 0B       		.uleb128 0xb
 2492 001c 03       		.uleb128 0x3
 2493 001d 08       		.uleb128 0x8
 2494 001e 00       		.byte	0
 2495 001f 00       		.byte	0
 2496 0020 03       		.uleb128 0x3
 2497 0021 24       		.uleb128 0x24
 2498 0022 00       		.byte	0
 2499 0023 0B       		.uleb128 0xb
 2500 0024 0B       		.uleb128 0xb
 2501 0025 3E       		.uleb128 0x3e
 2502 0026 0B       		.uleb128 0xb
 2503 0027 03       		.uleb128 0x3
 2504 0028 0E       		.uleb128 0xe
 2505 0029 00       		.byte	0
 2506 002a 00       		.byte	0
 2507 002b 04       		.uleb128 0x4
 2508 002c 16       		.uleb128 0x16
 2509 002d 00       		.byte	0
 2510 002e 03       		.uleb128 0x3
 2511 002f 0E       		.uleb128 0xe
 2512 0030 3A       		.uleb128 0x3a
 2513 0031 0B       		.uleb128 0xb
 2514 0032 3B       		.uleb128 0x3b
 2515 0033 0B       		.uleb128 0xb
 2516 0034 49       		.uleb128 0x49
 2517 0035 13       		.uleb128 0x13
 2518 0036 00       		.byte	0
 2519 0037 00       		.byte	0
 2520 0038 05       		.uleb128 0x5
 2521 0039 13       		.uleb128 0x13
 2522 003a 01       		.byte	0x1
 2523 003b 03       		.uleb128 0x3
 2524 003c 0E       		.uleb128 0xe
 2525 003d 0B       		.uleb128 0xb
 2526 003e 0B       		.uleb128 0xb
 2527 003f 3A       		.uleb128 0x3a
 2528 0040 0B       		.uleb128 0xb
 2529 0041 3B       		.uleb128 0x3b
 2530 0042 0B       		.uleb128 0xb
 2531 0043 01       		.uleb128 0x1
 2532 0044 13       		.uleb128 0x13
 2533 0045 00       		.byte	0
ARM GAS  /tmp/ccOzgniH.s 			page 46


 2534 0046 00       		.byte	0
 2535 0047 06       		.uleb128 0x6
 2536 0048 0D       		.uleb128 0xd
 2537 0049 00       		.byte	0
 2538 004a 03       		.uleb128 0x3
 2539 004b 0E       		.uleb128 0xe
 2540 004c 3A       		.uleb128 0x3a
 2541 004d 0B       		.uleb128 0xb
 2542 004e 3B       		.uleb128 0x3b
 2543 004f 0B       		.uleb128 0xb
 2544 0050 49       		.uleb128 0x49
 2545 0051 13       		.uleb128 0x13
 2546 0052 38       		.uleb128 0x38
 2547 0053 0A       		.uleb128 0xa
 2548 0054 00       		.byte	0
 2549 0055 00       		.byte	0
 2550 0056 07       		.uleb128 0x7
 2551 0057 0D       		.uleb128 0xd
 2552 0058 00       		.byte	0
 2553 0059 03       		.uleb128 0x3
 2554 005a 08       		.uleb128 0x8
 2555 005b 3A       		.uleb128 0x3a
 2556 005c 0B       		.uleb128 0xb
 2557 005d 3B       		.uleb128 0x3b
 2558 005e 0B       		.uleb128 0xb
 2559 005f 49       		.uleb128 0x49
 2560 0060 13       		.uleb128 0x13
 2561 0061 38       		.uleb128 0x38
 2562 0062 0A       		.uleb128 0xa
 2563 0063 00       		.byte	0
 2564 0064 00       		.byte	0
 2565 0065 08       		.uleb128 0x8
 2566 0066 13       		.uleb128 0x13
 2567 0067 01       		.byte	0x1
 2568 0068 0B       		.uleb128 0xb
 2569 0069 0B       		.uleb128 0xb
 2570 006a 3A       		.uleb128 0x3a
 2571 006b 0B       		.uleb128 0xb
 2572 006c 3B       		.uleb128 0x3b
 2573 006d 0B       		.uleb128 0xb
 2574 006e 01       		.uleb128 0x1
 2575 006f 13       		.uleb128 0x13
 2576 0070 00       		.byte	0
 2577 0071 00       		.byte	0
 2578 0072 09       		.uleb128 0x9
 2579 0073 0F       		.uleb128 0xf
 2580 0074 00       		.byte	0
 2581 0075 0B       		.uleb128 0xb
 2582 0076 0B       		.uleb128 0xb
 2583 0077 49       		.uleb128 0x49
 2584 0078 13       		.uleb128 0x13
 2585 0079 00       		.byte	0
 2586 007a 00       		.byte	0
 2587 007b 0A       		.uleb128 0xa
 2588 007c 0F       		.uleb128 0xf
 2589 007d 00       		.byte	0
 2590 007e 0B       		.uleb128 0xb
ARM GAS  /tmp/ccOzgniH.s 			page 47


 2591 007f 0B       		.uleb128 0xb
 2592 0080 00       		.byte	0
 2593 0081 00       		.byte	0
 2594 0082 0B       		.uleb128 0xb
 2595 0083 13       		.uleb128 0x13
 2596 0084 01       		.byte	0x1
 2597 0085 03       		.uleb128 0x3
 2598 0086 0E       		.uleb128 0xe
 2599 0087 0B       		.uleb128 0xb
 2600 0088 0B       		.uleb128 0xb
 2601 0089 3A       		.uleb128 0x3a
 2602 008a 0B       		.uleb128 0xb
 2603 008b 3B       		.uleb128 0x3b
 2604 008c 05       		.uleb128 0x5
 2605 008d 01       		.uleb128 0x1
 2606 008e 13       		.uleb128 0x13
 2607 008f 00       		.byte	0
 2608 0090 00       		.byte	0
 2609 0091 0C       		.uleb128 0xc
 2610 0092 0D       		.uleb128 0xd
 2611 0093 00       		.byte	0
 2612 0094 03       		.uleb128 0x3
 2613 0095 08       		.uleb128 0x8
 2614 0096 3A       		.uleb128 0x3a
 2615 0097 0B       		.uleb128 0xb
 2616 0098 3B       		.uleb128 0x3b
 2617 0099 05       		.uleb128 0x5
 2618 009a 49       		.uleb128 0x49
 2619 009b 13       		.uleb128 0x13
 2620 009c 38       		.uleb128 0x38
 2621 009d 0A       		.uleb128 0xa
 2622 009e 00       		.byte	0
 2623 009f 00       		.byte	0
 2624 00a0 0D       		.uleb128 0xd
 2625 00a1 35       		.uleb128 0x35
 2626 00a2 00       		.byte	0
 2627 00a3 49       		.uleb128 0x49
 2628 00a4 13       		.uleb128 0x13
 2629 00a5 00       		.byte	0
 2630 00a6 00       		.byte	0
 2631 00a7 0E       		.uleb128 0xe
 2632 00a8 17       		.uleb128 0x17
 2633 00a9 01       		.byte	0x1
 2634 00aa 0B       		.uleb128 0xb
 2635 00ab 0B       		.uleb128 0xb
 2636 00ac 3A       		.uleb128 0x3a
 2637 00ad 0B       		.uleb128 0xb
 2638 00ae 3B       		.uleb128 0x3b
 2639 00af 0B       		.uleb128 0xb
 2640 00b0 01       		.uleb128 0x1
 2641 00b1 13       		.uleb128 0x13
 2642 00b2 00       		.byte	0
 2643 00b3 00       		.byte	0
 2644 00b4 0F       		.uleb128 0xf
 2645 00b5 0D       		.uleb128 0xd
 2646 00b6 00       		.byte	0
 2647 00b7 03       		.uleb128 0x3
ARM GAS  /tmp/ccOzgniH.s 			page 48


 2648 00b8 0E       		.uleb128 0xe
 2649 00b9 3A       		.uleb128 0x3a
 2650 00ba 0B       		.uleb128 0xb
 2651 00bb 3B       		.uleb128 0x3b
 2652 00bc 0B       		.uleb128 0xb
 2653 00bd 49       		.uleb128 0x49
 2654 00be 13       		.uleb128 0x13
 2655 00bf 00       		.byte	0
 2656 00c0 00       		.byte	0
 2657 00c1 10       		.uleb128 0x10
 2658 00c2 26       		.uleb128 0x26
 2659 00c3 00       		.byte	0
 2660 00c4 49       		.uleb128 0x49
 2661 00c5 13       		.uleb128 0x13
 2662 00c6 00       		.byte	0
 2663 00c7 00       		.byte	0
 2664 00c8 11       		.uleb128 0x11
 2665 00c9 2E       		.uleb128 0x2e
 2666 00ca 01       		.byte	0x1
 2667 00cb 3F       		.uleb128 0x3f
 2668 00cc 0C       		.uleb128 0xc
 2669 00cd 03       		.uleb128 0x3
 2670 00ce 0E       		.uleb128 0xe
 2671 00cf 3A       		.uleb128 0x3a
 2672 00d0 0B       		.uleb128 0xb
 2673 00d1 3B       		.uleb128 0x3b
 2674 00d2 0B       		.uleb128 0xb
 2675 00d3 27       		.uleb128 0x27
 2676 00d4 0C       		.uleb128 0xc
 2677 00d5 11       		.uleb128 0x11
 2678 00d6 01       		.uleb128 0x1
 2679 00d7 12       		.uleb128 0x12
 2680 00d8 01       		.uleb128 0x1
 2681 00d9 40       		.uleb128 0x40
 2682 00da 06       		.uleb128 0x6
 2683 00db 9742     		.uleb128 0x2117
 2684 00dd 0C       		.uleb128 0xc
 2685 00de 01       		.uleb128 0x1
 2686 00df 13       		.uleb128 0x13
 2687 00e0 00       		.byte	0
 2688 00e1 00       		.byte	0
 2689 00e2 12       		.uleb128 0x12
 2690 00e3 05       		.uleb128 0x5
 2691 00e4 00       		.byte	0
 2692 00e5 03       		.uleb128 0x3
 2693 00e6 08       		.uleb128 0x8
 2694 00e7 3A       		.uleb128 0x3a
 2695 00e8 0B       		.uleb128 0xb
 2696 00e9 3B       		.uleb128 0x3b
 2697 00ea 0B       		.uleb128 0xb
 2698 00eb 49       		.uleb128 0x49
 2699 00ec 13       		.uleb128 0x13
 2700 00ed 02       		.uleb128 0x2
 2701 00ee 06       		.uleb128 0x6
 2702 00ef 00       		.byte	0
 2703 00f0 00       		.byte	0
 2704 00f1 13       		.uleb128 0x13
ARM GAS  /tmp/ccOzgniH.s 			page 49


 2705 00f2 898201   		.uleb128 0x4109
 2706 00f5 01       		.byte	0x1
 2707 00f6 11       		.uleb128 0x11
 2708 00f7 01       		.uleb128 0x1
 2709 00f8 31       		.uleb128 0x31
 2710 00f9 13       		.uleb128 0x13
 2711 00fa 01       		.uleb128 0x1
 2712 00fb 13       		.uleb128 0x13
 2713 00fc 00       		.byte	0
 2714 00fd 00       		.byte	0
 2715 00fe 14       		.uleb128 0x14
 2716 00ff 8A8201   		.uleb128 0x410a
 2717 0102 00       		.byte	0
 2718 0103 02       		.uleb128 0x2
 2719 0104 0A       		.uleb128 0xa
 2720 0105 9142     		.uleb128 0x2111
 2721 0107 0A       		.uleb128 0xa
 2722 0108 00       		.byte	0
 2723 0109 00       		.byte	0
 2724 010a 15       		.uleb128 0x15
 2725 010b 898201   		.uleb128 0x4109
 2726 010e 01       		.byte	0x1
 2727 010f 11       		.uleb128 0x11
 2728 0110 01       		.uleb128 0x1
 2729 0111 9542     		.uleb128 0x2115
 2730 0113 0C       		.uleb128 0xc
 2731 0114 31       		.uleb128 0x31
 2732 0115 13       		.uleb128 0x13
 2733 0116 01       		.uleb128 0x1
 2734 0117 13       		.uleb128 0x13
 2735 0118 00       		.byte	0
 2736 0119 00       		.byte	0
 2737 011a 16       		.uleb128 0x16
 2738 011b 898201   		.uleb128 0x4109
 2739 011e 01       		.byte	0x1
 2740 011f 11       		.uleb128 0x11
 2741 0120 01       		.uleb128 0x1
 2742 0121 31       		.uleb128 0x31
 2743 0122 13       		.uleb128 0x13
 2744 0123 00       		.byte	0
 2745 0124 00       		.byte	0
 2746 0125 17       		.uleb128 0x17
 2747 0126 0B       		.uleb128 0xb
 2748 0127 01       		.byte	0x1
 2749 0128 11       		.uleb128 0x11
 2750 0129 01       		.uleb128 0x1
 2751 012a 12       		.uleb128 0x12
 2752 012b 01       		.uleb128 0x1
 2753 012c 01       		.uleb128 0x1
 2754 012d 13       		.uleb128 0x13
 2755 012e 00       		.byte	0
 2756 012f 00       		.byte	0
 2757 0130 18       		.uleb128 0x18
 2758 0131 34       		.uleb128 0x34
 2759 0132 00       		.byte	0
 2760 0133 03       		.uleb128 0x3
 2761 0134 08       		.uleb128 0x8
ARM GAS  /tmp/ccOzgniH.s 			page 50


 2762 0135 3A       		.uleb128 0x3a
 2763 0136 0B       		.uleb128 0xb
 2764 0137 3B       		.uleb128 0x3b
 2765 0138 0B       		.uleb128 0xb
 2766 0139 49       		.uleb128 0x49
 2767 013a 13       		.uleb128 0x13
 2768 013b 02       		.uleb128 0x2
 2769 013c 06       		.uleb128 0x6
 2770 013d 00       		.byte	0
 2771 013e 00       		.byte	0
 2772 013f 19       		.uleb128 0x19
 2773 0140 898201   		.uleb128 0x4109
 2774 0143 00       		.byte	0
 2775 0144 11       		.uleb128 0x11
 2776 0145 01       		.uleb128 0x1
 2777 0146 31       		.uleb128 0x31
 2778 0147 13       		.uleb128 0x13
 2779 0148 00       		.byte	0
 2780 0149 00       		.byte	0
 2781 014a 1A       		.uleb128 0x1a
 2782 014b 2E       		.uleb128 0x2e
 2783 014c 01       		.byte	0x1
 2784 014d 3F       		.uleb128 0x3f
 2785 014e 0C       		.uleb128 0xc
 2786 014f 03       		.uleb128 0x3
 2787 0150 0E       		.uleb128 0xe
 2788 0151 3A       		.uleb128 0x3a
 2789 0152 0B       		.uleb128 0xb
 2790 0153 3B       		.uleb128 0x3b
 2791 0154 0B       		.uleb128 0xb
 2792 0155 27       		.uleb128 0x27
 2793 0156 0C       		.uleb128 0xc
 2794 0157 49       		.uleb128 0x49
 2795 0158 13       		.uleb128 0x13
 2796 0159 11       		.uleb128 0x11
 2797 015a 01       		.uleb128 0x1
 2798 015b 12       		.uleb128 0x12
 2799 015c 01       		.uleb128 0x1
 2800 015d 40       		.uleb128 0x40
 2801 015e 06       		.uleb128 0x6
 2802 015f 9742     		.uleb128 0x2117
 2803 0161 0C       		.uleb128 0xc
 2804 0162 01       		.uleb128 0x1
 2805 0163 13       		.uleb128 0x13
 2806 0164 00       		.byte	0
 2807 0165 00       		.byte	0
 2808 0166 1B       		.uleb128 0x1b
 2809 0167 05       		.uleb128 0x5
 2810 0168 00       		.byte	0
 2811 0169 03       		.uleb128 0x3
 2812 016a 0E       		.uleb128 0xe
 2813 016b 3A       		.uleb128 0x3a
 2814 016c 0B       		.uleb128 0xb
 2815 016d 3B       		.uleb128 0x3b
 2816 016e 0B       		.uleb128 0xb
 2817 016f 49       		.uleb128 0x49
 2818 0170 13       		.uleb128 0x13
ARM GAS  /tmp/ccOzgniH.s 			page 51


 2819 0171 02       		.uleb128 0x2
 2820 0172 06       		.uleb128 0x6
 2821 0173 00       		.byte	0
 2822 0174 00       		.byte	0
 2823 0175 1C       		.uleb128 0x1c
 2824 0176 34       		.uleb128 0x34
 2825 0177 00       		.byte	0
 2826 0178 03       		.uleb128 0x3
 2827 0179 0E       		.uleb128 0xe
 2828 017a 3A       		.uleb128 0x3a
 2829 017b 0B       		.uleb128 0xb
 2830 017c 3B       		.uleb128 0x3b
 2831 017d 0B       		.uleb128 0xb
 2832 017e 49       		.uleb128 0x49
 2833 017f 13       		.uleb128 0x13
 2834 0180 02       		.uleb128 0x2
 2835 0181 06       		.uleb128 0x6
 2836 0182 00       		.byte	0
 2837 0183 00       		.byte	0
 2838 0184 1D       		.uleb128 0x1d
 2839 0185 0B       		.uleb128 0xb
 2840 0186 01       		.byte	0x1
 2841 0187 55       		.uleb128 0x55
 2842 0188 06       		.uleb128 0x6
 2843 0189 01       		.uleb128 0x1
 2844 018a 13       		.uleb128 0x13
 2845 018b 00       		.byte	0
 2846 018c 00       		.byte	0
 2847 018d 1E       		.uleb128 0x1e
 2848 018e 2E       		.uleb128 0x2e
 2849 018f 01       		.byte	0x1
 2850 0190 3F       		.uleb128 0x3f
 2851 0191 0C       		.uleb128 0xc
 2852 0192 03       		.uleb128 0x3
 2853 0193 0E       		.uleb128 0xe
 2854 0194 3A       		.uleb128 0x3a
 2855 0195 0B       		.uleb128 0xb
 2856 0196 3B       		.uleb128 0x3b
 2857 0197 05       		.uleb128 0x5
 2858 0198 27       		.uleb128 0x27
 2859 0199 0C       		.uleb128 0xc
 2860 019a 49       		.uleb128 0x49
 2861 019b 13       		.uleb128 0x13
 2862 019c 11       		.uleb128 0x11
 2863 019d 01       		.uleb128 0x1
 2864 019e 12       		.uleb128 0x12
 2865 019f 01       		.uleb128 0x1
 2866 01a0 40       		.uleb128 0x40
 2867 01a1 06       		.uleb128 0x6
 2868 01a2 9742     		.uleb128 0x2117
 2869 01a4 0C       		.uleb128 0xc
 2870 01a5 01       		.uleb128 0x1
 2871 01a6 13       		.uleb128 0x13
 2872 01a7 00       		.byte	0
 2873 01a8 00       		.byte	0
 2874 01a9 1F       		.uleb128 0x1f
 2875 01aa 05       		.uleb128 0x5
ARM GAS  /tmp/ccOzgniH.s 			page 52


 2876 01ab 00       		.byte	0
 2877 01ac 03       		.uleb128 0x3
 2878 01ad 08       		.uleb128 0x8
 2879 01ae 3A       		.uleb128 0x3a
 2880 01af 0B       		.uleb128 0xb
 2881 01b0 3B       		.uleb128 0x3b
 2882 01b1 05       		.uleb128 0x5
 2883 01b2 49       		.uleb128 0x49
 2884 01b3 13       		.uleb128 0x13
 2885 01b4 02       		.uleb128 0x2
 2886 01b5 06       		.uleb128 0x6
 2887 01b6 00       		.byte	0
 2888 01b7 00       		.byte	0
 2889 01b8 20       		.uleb128 0x20
 2890 01b9 05       		.uleb128 0x5
 2891 01ba 00       		.byte	0
 2892 01bb 03       		.uleb128 0x3
 2893 01bc 0E       		.uleb128 0xe
 2894 01bd 3A       		.uleb128 0x3a
 2895 01be 0B       		.uleb128 0xb
 2896 01bf 3B       		.uleb128 0x3b
 2897 01c0 05       		.uleb128 0x5
 2898 01c1 49       		.uleb128 0x49
 2899 01c2 13       		.uleb128 0x13
 2900 01c3 02       		.uleb128 0x2
 2901 01c4 06       		.uleb128 0x6
 2902 01c5 00       		.byte	0
 2903 01c6 00       		.byte	0
 2904 01c7 21       		.uleb128 0x21
 2905 01c8 34       		.uleb128 0x34
 2906 01c9 00       		.byte	0
 2907 01ca 03       		.uleb128 0x3
 2908 01cb 0E       		.uleb128 0xe
 2909 01cc 3A       		.uleb128 0x3a
 2910 01cd 0B       		.uleb128 0xb
 2911 01ce 3B       		.uleb128 0x3b
 2912 01cf 05       		.uleb128 0x5
 2913 01d0 49       		.uleb128 0x49
 2914 01d1 13       		.uleb128 0x13
 2915 01d2 02       		.uleb128 0x2
 2916 01d3 06       		.uleb128 0x6
 2917 01d4 00       		.byte	0
 2918 01d5 00       		.byte	0
 2919 01d6 22       		.uleb128 0x22
 2920 01d7 34       		.uleb128 0x34
 2921 01d8 00       		.byte	0
 2922 01d9 03       		.uleb128 0x3
 2923 01da 08       		.uleb128 0x8
 2924 01db 3A       		.uleb128 0x3a
 2925 01dc 0B       		.uleb128 0xb
 2926 01dd 3B       		.uleb128 0x3b
 2927 01de 05       		.uleb128 0x5
 2928 01df 49       		.uleb128 0x49
 2929 01e0 13       		.uleb128 0x13
 2930 01e1 02       		.uleb128 0x2
 2931 01e2 06       		.uleb128 0x6
 2932 01e3 00       		.byte	0
ARM GAS  /tmp/ccOzgniH.s 			page 53


 2933 01e4 00       		.byte	0
 2934 01e5 23       		.uleb128 0x23
 2935 01e6 2E       		.uleb128 0x2e
 2936 01e7 01       		.byte	0x1
 2937 01e8 3F       		.uleb128 0x3f
 2938 01e9 0C       		.uleb128 0xc
 2939 01ea 03       		.uleb128 0x3
 2940 01eb 0E       		.uleb128 0xe
 2941 01ec 3A       		.uleb128 0x3a
 2942 01ed 0B       		.uleb128 0xb
 2943 01ee 3B       		.uleb128 0x3b
 2944 01ef 0B       		.uleb128 0xb
 2945 01f0 27       		.uleb128 0x27
 2946 01f1 0C       		.uleb128 0xc
 2947 01f2 3C       		.uleb128 0x3c
 2948 01f3 0C       		.uleb128 0xc
 2949 01f4 01       		.uleb128 0x1
 2950 01f5 13       		.uleb128 0x13
 2951 01f6 00       		.byte	0
 2952 01f7 00       		.byte	0
 2953 01f8 24       		.uleb128 0x24
 2954 01f9 05       		.uleb128 0x5
 2955 01fa 00       		.byte	0
 2956 01fb 49       		.uleb128 0x49
 2957 01fc 13       		.uleb128 0x13
 2958 01fd 00       		.byte	0
 2959 01fe 00       		.byte	0
 2960 01ff 25       		.uleb128 0x25
 2961 0200 2E       		.uleb128 0x2e
 2962 0201 00       		.byte	0
 2963 0202 3F       		.uleb128 0x3f
 2964 0203 0C       		.uleb128 0xc
 2965 0204 03       		.uleb128 0x3
 2966 0205 0E       		.uleb128 0xe
 2967 0206 3A       		.uleb128 0x3a
 2968 0207 0B       		.uleb128 0xb
 2969 0208 3B       		.uleb128 0x3b
 2970 0209 0B       		.uleb128 0xb
 2971 020a 27       		.uleb128 0x27
 2972 020b 0C       		.uleb128 0xc
 2973 020c 3C       		.uleb128 0x3c
 2974 020d 0C       		.uleb128 0xc
 2975 020e 00       		.byte	0
 2976 020f 00       		.byte	0
 2977 0210 26       		.uleb128 0x26
 2978 0211 2E       		.uleb128 0x2e
 2979 0212 01       		.byte	0x1
 2980 0213 3F       		.uleb128 0x3f
 2981 0214 0C       		.uleb128 0xc
 2982 0215 03       		.uleb128 0x3
 2983 0216 0E       		.uleb128 0xe
 2984 0217 3A       		.uleb128 0x3a
 2985 0218 0B       		.uleb128 0xb
 2986 0219 3B       		.uleb128 0x3b
 2987 021a 0B       		.uleb128 0xb
 2988 021b 27       		.uleb128 0x27
 2989 021c 0C       		.uleb128 0xc
ARM GAS  /tmp/ccOzgniH.s 			page 54


 2990 021d 49       		.uleb128 0x49
 2991 021e 13       		.uleb128 0x13
 2992 021f 3C       		.uleb128 0x3c
 2993 0220 0C       		.uleb128 0xc
 2994 0221 01       		.uleb128 0x1
 2995 0222 13       		.uleb128 0x13
 2996 0223 00       		.byte	0
 2997 0224 00       		.byte	0
 2998 0225 00       		.byte	0
 2999              		.section	.debug_loc,"",%progbits
 3000              	.Ldebug_loc0:
 3001              	.LLST0:
 3002 0000 00000000 		.4byte	.LFB7
 3003 0004 08000000 		.4byte	.LCFI0
 3004 0008 0200     		.2byte	0x2
 3005 000a 7D       		.byte	0x7d
 3006 000b 00       		.sleb128 0
 3007 000c 08000000 		.4byte	.LCFI0
 3008 0010 44000000 		.4byte	.LFE7
 3009 0014 0200     		.2byte	0x2
 3010 0016 7D       		.byte	0x7d
 3011 0017 10       		.sleb128 16
 3012 0018 00000000 		.4byte	0
 3013 001c 00000000 		.4byte	0
 3014              	.LLST1:
 3015 0020 00000000 		.4byte	.LVL0
 3016 0024 14000000 		.4byte	.LVL1
 3017 0028 0100     		.2byte	0x1
 3018 002a 50       		.byte	0x50
 3019 002b 14000000 		.4byte	.LVL1
 3020 002f 38000000 		.4byte	.LVL3
 3021 0033 0100     		.2byte	0x1
 3022 0035 54       		.byte	0x54
 3023 0036 38000000 		.4byte	.LVL3
 3024 003a 3A000000 		.4byte	.LVL4
 3025 003e 0100     		.2byte	0x1
 3026 0040 50       		.byte	0x50
 3027 0041 3A000000 		.4byte	.LVL4
 3028 0045 44000000 		.4byte	.LFE7
 3029 0049 0100     		.2byte	0x1
 3030 004b 54       		.byte	0x54
 3031 004c 00000000 		.4byte	0
 3032 0050 00000000 		.4byte	0
 3033              	.LLST2:
 3034 0054 00000000 		.4byte	.LVL0
 3035 0058 14000000 		.4byte	.LVL1
 3036 005c 0100     		.2byte	0x1
 3037 005e 51       		.byte	0x51
 3038 005f 14000000 		.4byte	.LVL1
 3039 0063 38000000 		.4byte	.LVL3
 3040 0067 0100     		.2byte	0x1
 3041 0069 55       		.byte	0x55
 3042 006a 38000000 		.4byte	.LVL3
 3043 006e 3D000000 		.4byte	.LVL5-1
 3044 0072 0100     		.2byte	0x1
 3045 0074 51       		.byte	0x51
 3046 0075 3D000000 		.4byte	.LVL5-1
ARM GAS  /tmp/ccOzgniH.s 			page 55


 3047 0079 44000000 		.4byte	.LFE7
 3048 007d 0100     		.2byte	0x1
 3049 007f 55       		.byte	0x55
 3050 0080 00000000 		.4byte	0
 3051 0084 00000000 		.4byte	0
 3052              	.LLST3:
 3053 0088 00000000 		.4byte	.LVL0
 3054 008c 14000000 		.4byte	.LVL1
 3055 0090 0100     		.2byte	0x1
 3056 0092 52       		.byte	0x52
 3057 0093 14000000 		.4byte	.LVL1
 3058 0097 38000000 		.4byte	.LVL3
 3059 009b 0100     		.2byte	0x1
 3060 009d 56       		.byte	0x56
 3061 009e 38000000 		.4byte	.LVL3
 3062 00a2 3D000000 		.4byte	.LVL5-1
 3063 00a6 0100     		.2byte	0x1
 3064 00a8 52       		.byte	0x52
 3065 00a9 3D000000 		.4byte	.LVL5-1
 3066 00ad 44000000 		.4byte	.LFE7
 3067 00b1 0100     		.2byte	0x1
 3068 00b3 56       		.byte	0x56
 3069 00b4 00000000 		.4byte	0
 3070 00b8 00000000 		.4byte	0
 3071              	.LLST4:
 3072 00bc 00000000 		.4byte	.LFB8
 3073 00c0 02000000 		.4byte	.LCFI1
 3074 00c4 0200     		.2byte	0x2
 3075 00c6 7D       		.byte	0x7d
 3076 00c7 00       		.sleb128 0
 3077 00c8 02000000 		.4byte	.LCFI1
 3078 00cc 4C000000 		.4byte	.LFE8
 3079 00d0 0200     		.2byte	0x2
 3080 00d2 7D       		.byte	0x7d
 3081 00d3 08       		.sleb128 8
 3082 00d4 00000000 		.4byte	0
 3083 00d8 00000000 		.4byte	0
 3084              	.LLST5:
 3085 00dc 00000000 		.4byte	.LVL6
 3086 00e0 06000000 		.4byte	.LVL7
 3087 00e4 0100     		.2byte	0x1
 3088 00e6 50       		.byte	0x50
 3089 00e7 06000000 		.4byte	.LVL7
 3090 00eb 3E000000 		.4byte	.LVL17
 3091 00ef 0100     		.2byte	0x1
 3092 00f1 54       		.byte	0x54
 3093 00f2 3E000000 		.4byte	.LVL17
 3094 00f6 40000000 		.4byte	.LVL18
 3095 00fa 0100     		.2byte	0x1
 3096 00fc 50       		.byte	0x50
 3097 00fd 40000000 		.4byte	.LVL18
 3098 0101 4C000000 		.4byte	.LFE8
 3099 0105 0100     		.2byte	0x1
 3100 0107 54       		.byte	0x54
 3101 0108 00000000 		.4byte	0
 3102 010c 00000000 		.4byte	0
 3103              	.LLST6:
ARM GAS  /tmp/ccOzgniH.s 			page 56


 3104 0110 0C000000 		.4byte	.LVL9
 3105 0114 0F000000 		.4byte	.LVL10-1
 3106 0118 0100     		.2byte	0x1
 3107 011a 53       		.byte	0x53
 3108 011b 00000000 		.4byte	0
 3109 011f 00000000 		.4byte	0
 3110              	.LLST7:
 3111 0123 3C000000 		.4byte	.LVL16
 3112 0127 3E000000 		.4byte	.LVL17
 3113 012b 0100     		.2byte	0x1
 3114 012d 53       		.byte	0x53
 3115 012e 00000000 		.4byte	0
 3116 0132 00000000 		.4byte	0
 3117              	.LLST8:
 3118 0136 00000000 		.4byte	.LFB10
 3119 013a 02000000 		.4byte	.LCFI2
 3120 013e 0200     		.2byte	0x2
 3121 0140 7D       		.byte	0x7d
 3122 0141 00       		.sleb128 0
 3123 0142 02000000 		.4byte	.LCFI2
 3124 0146 4C000000 		.4byte	.LFE10
 3125 014a 0200     		.2byte	0x2
 3126 014c 7D       		.byte	0x7d
 3127 014d 10       		.sleb128 16
 3128 014e 00000000 		.4byte	0
 3129 0152 00000000 		.4byte	0
 3130              	.LLST9:
 3131 0156 00000000 		.4byte	.LVL20
 3132 015a 0B000000 		.4byte	.LVL21-1
 3133 015e 0100     		.2byte	0x1
 3134 0160 50       		.byte	0x50
 3135 0161 0B000000 		.4byte	.LVL21-1
 3136 0165 4C000000 		.4byte	.LFE10
 3137 0169 0100     		.2byte	0x1
 3138 016b 54       		.byte	0x54
 3139 016c 00000000 		.4byte	0
 3140 0170 00000000 		.4byte	0
 3141              	.LLST10:
 3142 0174 00000000 		.4byte	.LVL20
 3143 0178 0B000000 		.4byte	.LVL21-1
 3144 017c 0100     		.2byte	0x1
 3145 017e 51       		.byte	0x51
 3146 017f 0B000000 		.4byte	.LVL21-1
 3147 0183 4C000000 		.4byte	.LFE10
 3148 0187 0100     		.2byte	0x1
 3149 0189 56       		.byte	0x56
 3150 018a 00000000 		.4byte	0
 3151 018e 00000000 		.4byte	0
 3152              	.LLST11:
 3153 0192 00000000 		.4byte	.LVL20
 3154 0196 0B000000 		.4byte	.LVL21-1
 3155 019a 0100     		.2byte	0x1
 3156 019c 52       		.byte	0x52
 3157 019d 0B000000 		.4byte	.LVL21-1
 3158 01a1 1A000000 		.4byte	.LVL23
 3159 01a5 0100     		.2byte	0x1
 3160 01a7 55       		.byte	0x55
ARM GAS  /tmp/ccOzgniH.s 			page 57


 3161 01a8 1A000000 		.4byte	.LVL23
 3162 01ac 40000000 		.4byte	.LVL27
 3163 01b0 0400     		.2byte	0x4
 3164 01b2 F3       		.byte	0xf3
 3165 01b3 01       		.uleb128 0x1
 3166 01b4 52       		.byte	0x52
 3167 01b5 9F       		.byte	0x9f
 3168 01b6 40000000 		.4byte	.LVL27
 3169 01ba 4C000000 		.4byte	.LFE10
 3170 01be 0100     		.2byte	0x1
 3171 01c0 55       		.byte	0x55
 3172 01c1 00000000 		.4byte	0
 3173 01c5 00000000 		.4byte	0
 3174              	.LLST12:
 3175 01c9 18000000 		.4byte	.LVL22
 3176 01cd 30000000 		.4byte	.LVL24
 3177 01d1 0100     		.2byte	0x1
 3178 01d3 50       		.byte	0x50
 3179 01d4 30000000 		.4byte	.LVL24
 3180 01d8 40000000 		.4byte	.LVL27
 3181 01dc 0100     		.2byte	0x1
 3182 01de 55       		.byte	0x55
 3183 01df 00000000 		.4byte	0
 3184 01e3 00000000 		.4byte	0
 3185              	.LLST13:
 3186 01e7 00000000 		.4byte	.LFB9
 3187 01eb 02000000 		.4byte	.LCFI3
 3188 01ef 0200     		.2byte	0x2
 3189 01f1 7D       		.byte	0x7d
 3190 01f2 00       		.sleb128 0
 3191 01f3 02000000 		.4byte	.LCFI3
 3192 01f7 2C000000 		.4byte	.LFE9
 3193 01fb 0200     		.2byte	0x2
 3194 01fd 7D       		.byte	0x7d
 3195 01fe 10       		.sleb128 16
 3196 01ff 00000000 		.4byte	0
 3197 0203 00000000 		.4byte	0
 3198              	.LLST14:
 3199 0207 00000000 		.4byte	.LVL29
 3200 020b 11000000 		.4byte	.LVL32-1
 3201 020f 0100     		.2byte	0x1
 3202 0211 50       		.byte	0x50
 3203 0212 11000000 		.4byte	.LVL32-1
 3204 0216 2C000000 		.4byte	.LFE9
 3205 021a 0100     		.2byte	0x1
 3206 021c 56       		.byte	0x56
 3207 021d 00000000 		.4byte	0
 3208 0221 00000000 		.4byte	0
 3209              	.LLST15:
 3210 0225 00000000 		.4byte	.LVL29
 3211 0229 11000000 		.4byte	.LVL32-1
 3212 022d 0100     		.2byte	0x1
 3213 022f 51       		.byte	0x51
 3214 0230 11000000 		.4byte	.LVL32-1
 3215 0234 2C000000 		.4byte	.LFE9
 3216 0238 0100     		.2byte	0x1
 3217 023a 55       		.byte	0x55
ARM GAS  /tmp/ccOzgniH.s 			page 58


 3218 023b 00000000 		.4byte	0
 3219 023f 00000000 		.4byte	0
 3220              	.LLST16:
 3221 0243 00000000 		.4byte	.LVL29
 3222 0247 11000000 		.4byte	.LVL32-1
 3223 024b 0100     		.2byte	0x1
 3224 024d 52       		.byte	0x52
 3225 024e 11000000 		.4byte	.LVL32-1
 3226 0252 1E000000 		.4byte	.LVL34
 3227 0256 0100     		.2byte	0x1
 3228 0258 54       		.byte	0x54
 3229 0259 1E000000 		.4byte	.LVL34
 3230 025d 2C000000 		.4byte	.LFE9
 3231 0261 0400     		.2byte	0x4
 3232 0263 F3       		.byte	0xf3
 3233 0264 01       		.uleb128 0x1
 3234 0265 52       		.byte	0x52
 3235 0266 9F       		.byte	0x9f
 3236 0267 00000000 		.4byte	0
 3237 026b 00000000 		.4byte	0
 3238              	.LLST17:
 3239 026f 1E000000 		.4byte	.LVL34
 3240 0273 21000000 		.4byte	.LVL35-1
 3241 0277 0100     		.2byte	0x1
 3242 0279 50       		.byte	0x50
 3243 027a 21000000 		.4byte	.LVL35-1
 3244 027e 2C000000 		.4byte	.LFE9
 3245 0282 0100     		.2byte	0x1
 3246 0284 54       		.byte	0x54
 3247 0285 00000000 		.4byte	0
 3248 0289 00000000 		.4byte	0
 3249              	.LLST18:
 3250 028d 0E000000 		.4byte	.LVL31
 3251 0291 11000000 		.4byte	.LVL32-1
 3252 0295 0100     		.2byte	0x1
 3253 0297 53       		.byte	0x53
 3254 0298 00000000 		.4byte	0
 3255 029c 00000000 		.4byte	0
 3256              	.LLST19:
 3257 02a0 28000000 		.4byte	.LVL37
 3258 02a4 2C000000 		.4byte	.LFE9
 3259 02a8 0100     		.2byte	0x1
 3260 02aa 53       		.byte	0x53
 3261 02ab 00000000 		.4byte	0
 3262 02af 00000000 		.4byte	0
 3263              	.LLST20:
 3264 02b3 00000000 		.4byte	.LFB11
 3265 02b7 02000000 		.4byte	.LCFI4
 3266 02bb 0200     		.2byte	0x2
 3267 02bd 7D       		.byte	0x7d
 3268 02be 00       		.sleb128 0
 3269 02bf 02000000 		.4byte	.LCFI4
 3270 02c3 48000000 		.4byte	.LFE11
 3271 02c7 0200     		.2byte	0x2
 3272 02c9 7D       		.byte	0x7d
 3273 02ca 10       		.sleb128 16
 3274 02cb 00000000 		.4byte	0
ARM GAS  /tmp/ccOzgniH.s 			page 59


 3275 02cf 00000000 		.4byte	0
 3276              	.LLST21:
 3277 02d3 00000000 		.4byte	.LVL38
 3278 02d7 09000000 		.4byte	.LVL39-1
 3279 02db 0100     		.2byte	0x1
 3280 02dd 50       		.byte	0x50
 3281 02de 09000000 		.4byte	.LVL39-1
 3282 02e2 48000000 		.4byte	.LFE11
 3283 02e6 0100     		.2byte	0x1
 3284 02e8 54       		.byte	0x54
 3285 02e9 00000000 		.4byte	0
 3286 02ed 00000000 		.4byte	0
 3287              	.LLST22:
 3288 02f1 00000000 		.4byte	.LVL38
 3289 02f5 09000000 		.4byte	.LVL39-1
 3290 02f9 0100     		.2byte	0x1
 3291 02fb 51       		.byte	0x51
 3292 02fc 09000000 		.4byte	.LVL39-1
 3293 0300 48000000 		.4byte	.LFE11
 3294 0304 0100     		.2byte	0x1
 3295 0306 55       		.byte	0x55
 3296 0307 00000000 		.4byte	0
 3297 030b 00000000 		.4byte	0
 3298              	.LLST23:
 3299 030f 00000000 		.4byte	.LFB13
 3300 0313 02000000 		.4byte	.LCFI5
 3301 0317 0200     		.2byte	0x2
 3302 0319 7D       		.byte	0x7d
 3303 031a 00       		.sleb128 0
 3304 031b 02000000 		.4byte	.LCFI5
 3305 031f 50000000 		.4byte	.LFE13
 3306 0323 0200     		.2byte	0x2
 3307 0325 7D       		.byte	0x7d
 3308 0326 10       		.sleb128 16
 3309 0327 00000000 		.4byte	0
 3310 032b 00000000 		.4byte	0
 3311              	.LLST24:
 3312 032f 00000000 		.4byte	.LVL42
 3313 0333 0B000000 		.4byte	.LVL43-1
 3314 0337 0100     		.2byte	0x1
 3315 0339 50       		.byte	0x50
 3316 033a 0B000000 		.4byte	.LVL43-1
 3317 033e 50000000 		.4byte	.LFE13
 3318 0342 0100     		.2byte	0x1
 3319 0344 54       		.byte	0x54
 3320 0345 00000000 		.4byte	0
 3321 0349 00000000 		.4byte	0
 3322              	.LLST25:
 3323 034d 00000000 		.4byte	.LVL42
 3324 0351 0B000000 		.4byte	.LVL43-1
 3325 0355 0100     		.2byte	0x1
 3326 0357 51       		.byte	0x51
 3327 0358 0B000000 		.4byte	.LVL43-1
 3328 035c 50000000 		.4byte	.LFE13
 3329 0360 0100     		.2byte	0x1
 3330 0362 56       		.byte	0x56
 3331 0363 00000000 		.4byte	0
ARM GAS  /tmp/ccOzgniH.s 			page 60


 3332 0367 00000000 		.4byte	0
 3333              	.LLST26:
 3334 036b 00000000 		.4byte	.LVL42
 3335 036f 0B000000 		.4byte	.LVL43-1
 3336 0373 0100     		.2byte	0x1
 3337 0375 52       		.byte	0x52
 3338 0376 0B000000 		.4byte	.LVL43-1
 3339 037a 1A000000 		.4byte	.LVL45
 3340 037e 0100     		.2byte	0x1
 3341 0380 55       		.byte	0x55
 3342 0381 1A000000 		.4byte	.LVL45
 3343 0385 42000000 		.4byte	.LVL50
 3344 0389 0400     		.2byte	0x4
 3345 038b F3       		.byte	0xf3
 3346 038c 01       		.uleb128 0x1
 3347 038d 52       		.byte	0x52
 3348 038e 9F       		.byte	0x9f
 3349 038f 42000000 		.4byte	.LVL50
 3350 0393 50000000 		.4byte	.LFE13
 3351 0397 0100     		.2byte	0x1
 3352 0399 55       		.byte	0x55
 3353 039a 00000000 		.4byte	0
 3354 039e 00000000 		.4byte	0
 3355              	.LLST27:
 3356 03a2 18000000 		.4byte	.LVL44
 3357 03a6 2C000000 		.4byte	.LVL46
 3358 03aa 0100     		.2byte	0x1
 3359 03ac 50       		.byte	0x50
 3360 03ad 2C000000 		.4byte	.LVL46
 3361 03b1 3A000000 		.4byte	.LVL49
 3362 03b5 0100     		.2byte	0x1
 3363 03b7 55       		.byte	0x55
 3364 03b8 3A000000 		.4byte	.LVL49
 3365 03bc 42000000 		.4byte	.LVL50
 3366 03c0 0100     		.2byte	0x1
 3367 03c2 50       		.byte	0x50
 3368 03c3 00000000 		.4byte	0
 3369 03c7 00000000 		.4byte	0
 3370              	.LLST28:
 3371 03cb 00000000 		.4byte	.LFB12
 3372 03cf 02000000 		.4byte	.LCFI6
 3373 03d3 0200     		.2byte	0x2
 3374 03d5 7D       		.byte	0x7d
 3375 03d6 00       		.sleb128 0
 3376 03d7 02000000 		.4byte	.LCFI6
 3377 03db 2C000000 		.4byte	.LFE12
 3378 03df 0200     		.2byte	0x2
 3379 03e1 7D       		.byte	0x7d
 3380 03e2 10       		.sleb128 16
 3381 03e3 00000000 		.4byte	0
 3382 03e7 00000000 		.4byte	0
 3383              	.LLST29:
 3384 03eb 00000000 		.4byte	.LVL52
 3385 03ef 11000000 		.4byte	.LVL55-1
 3386 03f3 0100     		.2byte	0x1
 3387 03f5 50       		.byte	0x50
 3388 03f6 11000000 		.4byte	.LVL55-1
ARM GAS  /tmp/ccOzgniH.s 			page 61


 3389 03fa 2C000000 		.4byte	.LFE12
 3390 03fe 0100     		.2byte	0x1
 3391 0400 56       		.byte	0x56
 3392 0401 00000000 		.4byte	0
 3393 0405 00000000 		.4byte	0
 3394              	.LLST30:
 3395 0409 00000000 		.4byte	.LVL52
 3396 040d 11000000 		.4byte	.LVL55-1
 3397 0411 0100     		.2byte	0x1
 3398 0413 51       		.byte	0x51
 3399 0414 11000000 		.4byte	.LVL55-1
 3400 0418 2C000000 		.4byte	.LFE12
 3401 041c 0100     		.2byte	0x1
 3402 041e 55       		.byte	0x55
 3403 041f 00000000 		.4byte	0
 3404 0423 00000000 		.4byte	0
 3405              	.LLST31:
 3406 0427 00000000 		.4byte	.LVL52
 3407 042b 11000000 		.4byte	.LVL55-1
 3408 042f 0100     		.2byte	0x1
 3409 0431 52       		.byte	0x52
 3410 0432 11000000 		.4byte	.LVL55-1
 3411 0436 1E000000 		.4byte	.LVL57
 3412 043a 0100     		.2byte	0x1
 3413 043c 54       		.byte	0x54
 3414 043d 1E000000 		.4byte	.LVL57
 3415 0441 2C000000 		.4byte	.LFE12
 3416 0445 0400     		.2byte	0x4
 3417 0447 F3       		.byte	0xf3
 3418 0448 01       		.uleb128 0x1
 3419 0449 52       		.byte	0x52
 3420 044a 9F       		.byte	0x9f
 3421 044b 00000000 		.4byte	0
 3422 044f 00000000 		.4byte	0
 3423              	.LLST32:
 3424 0453 1E000000 		.4byte	.LVL57
 3425 0457 21000000 		.4byte	.LVL58-1
 3426 045b 0100     		.2byte	0x1
 3427 045d 50       		.byte	0x50
 3428 045e 21000000 		.4byte	.LVL58-1
 3429 0462 2C000000 		.4byte	.LFE12
 3430 0466 0100     		.2byte	0x1
 3431 0468 54       		.byte	0x54
 3432 0469 00000000 		.4byte	0
 3433 046d 00000000 		.4byte	0
 3434              	.LLST33:
 3435 0471 0E000000 		.4byte	.LVL54
 3436 0475 11000000 		.4byte	.LVL55-1
 3437 0479 0100     		.2byte	0x1
 3438 047b 53       		.byte	0x53
 3439 047c 00000000 		.4byte	0
 3440 0480 00000000 		.4byte	0
 3441              	.LLST34:
 3442 0484 28000000 		.4byte	.LVL60
 3443 0488 2C000000 		.4byte	.LFE12
 3444 048c 0100     		.2byte	0x1
 3445 048e 53       		.byte	0x53
ARM GAS  /tmp/ccOzgniH.s 			page 62


 3446 048f 00000000 		.4byte	0
 3447 0493 00000000 		.4byte	0
 3448              	.LLST35:
 3449 0497 00000000 		.4byte	.LFB14
 3450 049b 02000000 		.4byte	.LCFI7
 3451 049f 0200     		.2byte	0x2
 3452 04a1 7D       		.byte	0x7d
 3453 04a2 00       		.sleb128 0
 3454 04a3 02000000 		.4byte	.LCFI7
 3455 04a7 48000000 		.4byte	.LFE14
 3456 04ab 0200     		.2byte	0x2
 3457 04ad 7D       		.byte	0x7d
 3458 04ae 10       		.sleb128 16
 3459 04af 00000000 		.4byte	0
 3460 04b3 00000000 		.4byte	0
 3461              	.LLST36:
 3462 04b7 00000000 		.4byte	.LVL61
 3463 04bb 09000000 		.4byte	.LVL62-1
 3464 04bf 0100     		.2byte	0x1
 3465 04c1 50       		.byte	0x50
 3466 04c2 09000000 		.4byte	.LVL62-1
 3467 04c6 48000000 		.4byte	.LFE14
 3468 04ca 0100     		.2byte	0x1
 3469 04cc 54       		.byte	0x54
 3470 04cd 00000000 		.4byte	0
 3471 04d1 00000000 		.4byte	0
 3472              	.LLST37:
 3473 04d5 00000000 		.4byte	.LVL61
 3474 04d9 09000000 		.4byte	.LVL62-1
 3475 04dd 0100     		.2byte	0x1
 3476 04df 51       		.byte	0x51
 3477 04e0 09000000 		.4byte	.LVL62-1
 3478 04e4 48000000 		.4byte	.LFE14
 3479 04e8 0100     		.2byte	0x1
 3480 04ea 55       		.byte	0x55
 3481 04eb 00000000 		.4byte	0
 3482 04ef 00000000 		.4byte	0
 3483              	.LLST38:
 3484 04f3 00000000 		.4byte	.LFB16
 3485 04f7 02000000 		.4byte	.LCFI8
 3486 04fb 0200     		.2byte	0x2
 3487 04fd 7D       		.byte	0x7d
 3488 04fe 00       		.sleb128 0
 3489 04ff 02000000 		.4byte	.LCFI8
 3490 0503 54000000 		.4byte	.LFE16
 3491 0507 0200     		.2byte	0x2
 3492 0509 7D       		.byte	0x7d
 3493 050a 10       		.sleb128 16
 3494 050b 00000000 		.4byte	0
 3495 050f 00000000 		.4byte	0
 3496              	.LLST39:
 3497 0513 00000000 		.4byte	.LVL65
 3498 0517 0B000000 		.4byte	.LVL66-1
 3499 051b 0100     		.2byte	0x1
 3500 051d 50       		.byte	0x50
 3501 051e 0B000000 		.4byte	.LVL66-1
 3502 0522 54000000 		.4byte	.LFE16
ARM GAS  /tmp/ccOzgniH.s 			page 63


 3503 0526 0100     		.2byte	0x1
 3504 0528 54       		.byte	0x54
 3505 0529 00000000 		.4byte	0
 3506 052d 00000000 		.4byte	0
 3507              	.LLST40:
 3508 0531 00000000 		.4byte	.LVL65
 3509 0535 0B000000 		.4byte	.LVL66-1
 3510 0539 0100     		.2byte	0x1
 3511 053b 51       		.byte	0x51
 3512 053c 0B000000 		.4byte	.LVL66-1
 3513 0540 54000000 		.4byte	.LFE16
 3514 0544 0100     		.2byte	0x1
 3515 0546 56       		.byte	0x56
 3516 0547 00000000 		.4byte	0
 3517 054b 00000000 		.4byte	0
 3518              	.LLST41:
 3519 054f 00000000 		.4byte	.LVL65
 3520 0553 0B000000 		.4byte	.LVL66-1
 3521 0557 0100     		.2byte	0x1
 3522 0559 52       		.byte	0x52
 3523 055a 0B000000 		.4byte	.LVL66-1
 3524 055e 20000000 		.4byte	.LVL68
 3525 0562 0100     		.2byte	0x1
 3526 0564 55       		.byte	0x55
 3527 0565 20000000 		.4byte	.LVL68
 3528 0569 48000000 		.4byte	.LVL72
 3529 056d 0400     		.2byte	0x4
 3530 056f F3       		.byte	0xf3
 3531 0570 01       		.uleb128 0x1
 3532 0571 52       		.byte	0x52
 3533 0572 9F       		.byte	0x9f
 3534 0573 48000000 		.4byte	.LVL72
 3535 0577 54000000 		.4byte	.LFE16
 3536 057b 0100     		.2byte	0x1
 3537 057d 55       		.byte	0x55
 3538 057e 00000000 		.4byte	0
 3539 0582 00000000 		.4byte	0
 3540              	.LLST42:
 3541 0586 1E000000 		.4byte	.LVL67
 3542 058a 38000000 		.4byte	.LVL69
 3543 058e 0100     		.2byte	0x1
 3544 0590 50       		.byte	0x50
 3545 0591 38000000 		.4byte	.LVL69
 3546 0595 48000000 		.4byte	.LVL72
 3547 0599 0100     		.2byte	0x1
 3548 059b 55       		.byte	0x55
 3549 059c 00000000 		.4byte	0
 3550 05a0 00000000 		.4byte	0
 3551              	.LLST43:
 3552 05a4 00000000 		.4byte	.LFB15
 3553 05a8 02000000 		.4byte	.LCFI9
 3554 05ac 0200     		.2byte	0x2
 3555 05ae 7D       		.byte	0x7d
 3556 05af 00       		.sleb128 0
 3557 05b0 02000000 		.4byte	.LCFI9
 3558 05b4 2C000000 		.4byte	.LFE15
 3559 05b8 0200     		.2byte	0x2
ARM GAS  /tmp/ccOzgniH.s 			page 64


 3560 05ba 7D       		.byte	0x7d
 3561 05bb 10       		.sleb128 16
 3562 05bc 00000000 		.4byte	0
 3563 05c0 00000000 		.4byte	0
 3564              	.LLST44:
 3565 05c4 00000000 		.4byte	.LVL74
 3566 05c8 11000000 		.4byte	.LVL77-1
 3567 05cc 0100     		.2byte	0x1
 3568 05ce 50       		.byte	0x50
 3569 05cf 11000000 		.4byte	.LVL77-1
 3570 05d3 2C000000 		.4byte	.LFE15
 3571 05d7 0100     		.2byte	0x1
 3572 05d9 56       		.byte	0x56
 3573 05da 00000000 		.4byte	0
 3574 05de 00000000 		.4byte	0
 3575              	.LLST45:
 3576 05e2 00000000 		.4byte	.LVL74
 3577 05e6 11000000 		.4byte	.LVL77-1
 3578 05ea 0100     		.2byte	0x1
 3579 05ec 51       		.byte	0x51
 3580 05ed 11000000 		.4byte	.LVL77-1
 3581 05f1 2C000000 		.4byte	.LFE15
 3582 05f5 0100     		.2byte	0x1
 3583 05f7 55       		.byte	0x55
 3584 05f8 00000000 		.4byte	0
 3585 05fc 00000000 		.4byte	0
 3586              	.LLST46:
 3587 0600 00000000 		.4byte	.LVL74
 3588 0604 11000000 		.4byte	.LVL77-1
 3589 0608 0100     		.2byte	0x1
 3590 060a 52       		.byte	0x52
 3591 060b 11000000 		.4byte	.LVL77-1
 3592 060f 1E000000 		.4byte	.LVL79
 3593 0613 0100     		.2byte	0x1
 3594 0615 54       		.byte	0x54
 3595 0616 1E000000 		.4byte	.LVL79
 3596 061a 2C000000 		.4byte	.LFE15
 3597 061e 0400     		.2byte	0x4
 3598 0620 F3       		.byte	0xf3
 3599 0621 01       		.uleb128 0x1
 3600 0622 52       		.byte	0x52
 3601 0623 9F       		.byte	0x9f
 3602 0624 00000000 		.4byte	0
 3603 0628 00000000 		.4byte	0
 3604              	.LLST47:
 3605 062c 1E000000 		.4byte	.LVL79
 3606 0630 21000000 		.4byte	.LVL80-1
 3607 0634 0100     		.2byte	0x1
 3608 0636 50       		.byte	0x50
 3609 0637 21000000 		.4byte	.LVL80-1
 3610 063b 2C000000 		.4byte	.LFE15
 3611 063f 0100     		.2byte	0x1
 3612 0641 54       		.byte	0x54
 3613 0642 00000000 		.4byte	0
 3614 0646 00000000 		.4byte	0
 3615              	.LLST48:
 3616 064a 0E000000 		.4byte	.LVL76
ARM GAS  /tmp/ccOzgniH.s 			page 65


 3617 064e 11000000 		.4byte	.LVL77-1
 3618 0652 0100     		.2byte	0x1
 3619 0654 53       		.byte	0x53
 3620 0655 00000000 		.4byte	0
 3621 0659 00000000 		.4byte	0
 3622              	.LLST49:
 3623 065d 28000000 		.4byte	.LVL82
 3624 0661 2C000000 		.4byte	.LFE15
 3625 0665 0100     		.2byte	0x1
 3626 0667 53       		.byte	0x53
 3627 0668 00000000 		.4byte	0
 3628 066c 00000000 		.4byte	0
 3629              	.LLST50:
 3630 0670 00000000 		.4byte	.LFB17
 3631 0674 02000000 		.4byte	.LCFI10
 3632 0678 0200     		.2byte	0x2
 3633 067a 7D       		.byte	0x7d
 3634 067b 00       		.sleb128 0
 3635 067c 02000000 		.4byte	.LCFI10
 3636 0680 50000000 		.4byte	.LFE17
 3637 0684 0200     		.2byte	0x2
 3638 0686 7D       		.byte	0x7d
 3639 0687 10       		.sleb128 16
 3640 0688 00000000 		.4byte	0
 3641 068c 00000000 		.4byte	0
 3642              	.LLST51:
 3643 0690 00000000 		.4byte	.LVL83
 3644 0694 09000000 		.4byte	.LVL84-1
 3645 0698 0100     		.2byte	0x1
 3646 069a 50       		.byte	0x50
 3647 069b 09000000 		.4byte	.LVL84-1
 3648 069f 50000000 		.4byte	.LFE17
 3649 06a3 0100     		.2byte	0x1
 3650 06a5 54       		.byte	0x54
 3651 06a6 00000000 		.4byte	0
 3652 06aa 00000000 		.4byte	0
 3653              	.LLST52:
 3654 06ae 00000000 		.4byte	.LVL83
 3655 06b2 09000000 		.4byte	.LVL84-1
 3656 06b6 0100     		.2byte	0x1
 3657 06b8 51       		.byte	0x51
 3658 06b9 09000000 		.4byte	.LVL84-1
 3659 06bd 50000000 		.4byte	.LFE17
 3660 06c1 0100     		.2byte	0x1
 3661 06c3 55       		.byte	0x55
 3662 06c4 00000000 		.4byte	0
 3663 06c8 00000000 		.4byte	0
 3664              		.section	.debug_aranges,"",%progbits
 3665 0000 6C000000 		.4byte	0x6c
 3666 0004 0200     		.2byte	0x2
 3667 0006 00000000 		.4byte	.Ldebug_info0
 3668 000a 04       		.byte	0x4
 3669 000b 00       		.byte	0
 3670 000c 0000     		.2byte	0
 3671 000e 0000     		.2byte	0
 3672 0010 00000000 		.4byte	.LFB7
 3673 0014 44000000 		.4byte	.LFE7-.LFB7
ARM GAS  /tmp/ccOzgniH.s 			page 66


 3674 0018 00000000 		.4byte	.LFB8
 3675 001c 4C000000 		.4byte	.LFE8-.LFB8
 3676 0020 00000000 		.4byte	.LFB10
 3677 0024 4C000000 		.4byte	.LFE10-.LFB10
 3678 0028 00000000 		.4byte	.LFB9
 3679 002c 2C000000 		.4byte	.LFE9-.LFB9
 3680 0030 00000000 		.4byte	.LFB11
 3681 0034 48000000 		.4byte	.LFE11-.LFB11
 3682 0038 00000000 		.4byte	.LFB13
 3683 003c 50000000 		.4byte	.LFE13-.LFB13
 3684 0040 00000000 		.4byte	.LFB12
 3685 0044 2C000000 		.4byte	.LFE12-.LFB12
 3686 0048 00000000 		.4byte	.LFB14
 3687 004c 48000000 		.4byte	.LFE14-.LFB14
 3688 0050 00000000 		.4byte	.LFB16
 3689 0054 54000000 		.4byte	.LFE16-.LFB16
 3690 0058 00000000 		.4byte	.LFB15
 3691 005c 2C000000 		.4byte	.LFE15-.LFB15
 3692 0060 00000000 		.4byte	.LFB17
 3693 0064 50000000 		.4byte	.LFE17-.LFB17
 3694 0068 00000000 		.4byte	0
 3695 006c 00000000 		.4byte	0
 3696              		.section	.debug_ranges,"",%progbits
 3697              	.Ldebug_ranges0:
 3698 0000 02000000 		.4byte	.LBB4
 3699 0004 04000000 		.4byte	.LBE4
 3700 0008 0A000000 		.4byte	.LBB5
 3701 000c 0E000000 		.4byte	.LBE5
 3702 0010 00000000 		.4byte	0
 3703 0014 00000000 		.4byte	0
 3704 0018 02000000 		.4byte	.LBB7
 3705 001c 04000000 		.4byte	.LBE7
 3706 0020 0A000000 		.4byte	.LBB8
 3707 0024 0E000000 		.4byte	.LBE8
 3708 0028 00000000 		.4byte	0
 3709 002c 00000000 		.4byte	0
 3710 0030 02000000 		.4byte	.LBB10
 3711 0034 04000000 		.4byte	.LBE10
 3712 0038 0A000000 		.4byte	.LBB11
 3713 003c 0E000000 		.4byte	.LBE11
 3714 0040 00000000 		.4byte	0
 3715 0044 00000000 		.4byte	0
 3716 0048 00000000 		.4byte	.LFB7
 3717 004c 44000000 		.4byte	.LFE7
 3718 0050 00000000 		.4byte	.LFB8
 3719 0054 4C000000 		.4byte	.LFE8
 3720 0058 00000000 		.4byte	.LFB10
 3721 005c 4C000000 		.4byte	.LFE10
 3722 0060 00000000 		.4byte	.LFB9
 3723 0064 2C000000 		.4byte	.LFE9
 3724 0068 00000000 		.4byte	.LFB11
 3725 006c 48000000 		.4byte	.LFE11
 3726 0070 00000000 		.4byte	.LFB13
 3727 0074 50000000 		.4byte	.LFE13
 3728 0078 00000000 		.4byte	.LFB12
 3729 007c 2C000000 		.4byte	.LFE12
 3730 0080 00000000 		.4byte	.LFB14
ARM GAS  /tmp/ccOzgniH.s 			page 67


 3731 0084 48000000 		.4byte	.LFE14
 3732 0088 00000000 		.4byte	.LFB16
 3733 008c 54000000 		.4byte	.LFE16
 3734 0090 00000000 		.4byte	.LFB15
 3735 0094 2C000000 		.4byte	.LFE15
 3736 0098 00000000 		.4byte	.LFB17
 3737 009c 50000000 		.4byte	.LFE17
 3738 00a0 00000000 		.4byte	0
 3739 00a4 00000000 		.4byte	0
 3740              		.section	.debug_line,"",%progbits
 3741              	.Ldebug_line0:
 3742 0000 FD020000 		.section	.debug_str,"MS",%progbits,1
 3742      02008201 
 3742      00000201 
 3742      FB0E0D00 
 3742      01010101 
 3743              	.LASF38:
 3744 0000 705F6D73 		.ascii	"p_msg\000"
 3744      6700
 3745              	.LASF89:
 3746 0006 63685365 		.ascii	"chSemSignalI\000"
 3746      6D536967 
 3746      6E616C49 
 3746      00
 3747              	.LASF83:
 3748 0013 63684462 		.ascii	"chDbgPanic\000"
 3748      6750616E 
 3748      696300
 3749              	.LASF64:
 3750 001e 7264796D 		.ascii	"rdymsg\000"
 3750      736700
 3751              	.LASF11:
 3752 0025 75696E74 		.ascii	"uint64_t\000"
 3752      36345F74 
 3752      00
 3753              	.LASF74:
 3754 002e 63684D42 		.ascii	"chMBPostI\000"
 3754      506F7374 
 3754      4900
 3755              	.LASF72:
 3756 0038 63684D42 		.ascii	"chMBPostS\000"
 3756      506F7374 
 3756      5300
 3757              	.LASF63:
 3758 0042 4D61696C 		.ascii	"Mailbox\000"
 3758      626F7800 
 3759              	.LASF77:
 3760 004a 63684D42 		.ascii	"chMBPostAheadI\000"
 3760      506F7374 
 3760      41686561 
 3760      644900
 3761              	.LASF12:
 3762 0059 6C6F6E67 		.ascii	"long long unsigned int\000"
 3762      206C6F6E 
 3762      6720756E 
 3762      7369676E 
 3762      65642069 
ARM GAS  /tmp/ccOzgniH.s 			page 68


 3763              	.LASF65:
 3764 0070 65786974 		.ascii	"exitcode\000"
 3764      636F6465 
 3764      00
 3765              	.LASF75:
 3766 0079 63684D42 		.ascii	"chMBPostAheadS\000"
 3766      506F7374 
 3766      41686561 
 3766      645300
 3767              	.LASF59:
 3768 0088 6D625F77 		.ascii	"mb_wrptr\000"
 3768      72707472 
 3768      00
 3769              	.LASF25:
 3770 0091 705F7072 		.ascii	"p_prio\000"
 3770      696F00
 3771              	.LASF93:
 3772 0098 2F686F6D 		.ascii	"/home/david/Projects/stm32/src/pressure_sensor\000"
 3772      652F6461 
 3772      7669642F 
 3772      50726F6A 
 3772      65637473 
 3773              	.LASF1:
 3774 00c7 7369676E 		.ascii	"signed char\000"
 3774      65642063 
 3774      68617200 
 3775              	.LASF42:
 3776 00d3 705F6D70 		.ascii	"p_mpool\000"
 3776      6F6F6C00 
 3777              	.LASF54:
 3778 00db 6D5F7175 		.ascii	"m_queue\000"
 3778      65756500 
 3779              	.LASF16:
 3780 00e3 74736C69 		.ascii	"tslices_t\000"
 3780      6365735F 
 3780      7400
 3781              	.LASF7:
 3782 00ed 6C6F6E67 		.ascii	"long int\000"
 3782      20696E74 
 3782      00
 3783              	.LASF14:
 3784 00f6 74737461 		.ascii	"tstate_t\000"
 3784      74655F74 
 3784      00
 3785              	.LASF10:
 3786 00ff 6C6F6E67 		.ascii	"long long int\000"
 3786      206C6F6E 
 3786      6720696E 
 3786      7400
 3787              	.LASF27:
 3788 010d 705F6E65 		.ascii	"p_newer\000"
 3788      77657200 
 3789              	.LASF51:
 3790 0115 735F7175 		.ascii	"s_queue\000"
 3790      65756500 
 3791              	.LASF86:
 3792 011d 63685363 		.ascii	"chSchRescheduleS\000"
ARM GAS  /tmp/ccOzgniH.s 			page 69


 3792      68526573 
 3792      63686564 
 3792      756C6553 
 3792      00
 3793              	.LASF45:
 3794 012e 72656761 		.ascii	"regarm_t\000"
 3794      726D5F74 
 3794      00
 3795              	.LASF92:
 3796 0137 2E2E2F2E 		.ascii	"../../ChibiOS/os/kernel/src/chmboxes.c\000"
 3796      2E2F4368 
 3796      6962694F 
 3796      532F6F73 
 3796      2F6B6572 
 3797              	.LASF21:
 3798 015e 636E745F 		.ascii	"cnt_t\000"
 3798      7400
 3799              	.LASF30:
 3800 0164 705F7374 		.ascii	"p_stklimit\000"
 3800      6B6C696D 
 3800      697400
 3801              	.LASF0:
 3802 016f 756E7369 		.ascii	"unsigned int\000"
 3802      676E6564 
 3802      20696E74 
 3802      00
 3803              	.LASF69:
 3804 017c 63684D42 		.ascii	"chMBInit\000"
 3804      496E6974 
 3804      00
 3805              	.LASF9:
 3806 0185 6C6F6E67 		.ascii	"long unsigned int\000"
 3806      20756E73 
 3806      69676E65 
 3806      6420696E 
 3806      7400
 3807              	.LASF62:
 3808 0197 6D625F65 		.ascii	"mb_emptysem\000"
 3808      6D707479 
 3808      73656D00 
 3809              	.LASF52:
 3810 01a3 735F636E 		.ascii	"s_cnt\000"
 3810      7400
 3811              	.LASF48:
 3812 01a9 636F6E74 		.ascii	"context\000"
 3812      65787400 
 3813              	.LASF4:
 3814 01b1 73686F72 		.ascii	"short unsigned int\000"
 3814      7420756E 
 3814      7369676E 
 3814      65642069 
 3814      6E7400
 3815              	.LASF81:
 3816 01c4 63684D42 		.ascii	"chMBFetchI\000"
 3816      46657463 
 3816      684900
 3817              	.LASF18:
ARM GAS  /tmp/ccOzgniH.s 			page 70


 3818 01cf 6D73675F 		.ascii	"msg_t\000"
 3818      7400
 3819              	.LASF90:
 3820 01d5 63684462 		.ascii	"chDbgCheckClassI\000"
 3820      67436865 
 3820      636B436C 
 3820      61737349 
 3820      00
 3821              	.LASF78:
 3822 01e6 63684D42 		.ascii	"chMBFetchS\000"
 3822      46657463 
 3822      685300
 3823              	.LASF13:
 3824 01f1 746D6F64 		.ascii	"tmode_t\000"
 3824      655F7400 
 3825              	.LASF88:
 3826 01f9 63684462 		.ascii	"chDbgCheckClassS\000"
 3826      67436865 
 3826      636B436C 
 3826      61737353 
 3826      00
 3827              	.LASF44:
 3828 020a 54687265 		.ascii	"ThreadsList\000"
 3828      6164734C 
 3828      69737400 
 3829              	.LASF19:
 3830 0216 6576656E 		.ascii	"eventmask_t\000"
 3830      746D6173 
 3830      6B5F7400 
 3831              	.LASF53:
 3832 0222 4D757465 		.ascii	"Mutex\000"
 3832      7800
 3833              	.LASF79:
 3834 0228 6D736770 		.ascii	"msgp\000"
 3834      00
 3835              	.LASF46:
 3836 022d 73746B61 		.ascii	"stkalign_t\000"
 3836      6C69676E 
 3836      5F7400
 3837              	.LASF87:
 3838 0238 6462675F 		.ascii	"dbg_check_unlock\000"
 3838      63686563 
 3838      6B5F756E 
 3838      6C6F636B 
 3838      00
 3839              	.LASF49:
 3840 0249 73697A65 		.ascii	"sizetype\000"
 3840      74797065 
 3840      00
 3841              	.LASF60:
 3842 0252 6D625F72 		.ascii	"mb_rdptr\000"
 3842      64707472 
 3842      00
 3843              	.LASF70:
 3844 025b 63684D42 		.ascii	"chMBReset\000"
 3844      52657365 
 3844      7400
ARM GAS  /tmp/ccOzgniH.s 			page 71


 3845              	.LASF28:
 3846 0265 705F6F6C 		.ascii	"p_older\000"
 3846      64657200 
 3847              	.LASF43:
 3848 026d 54687265 		.ascii	"ThreadsQueue\000"
 3848      61647351 
 3848      75657565 
 3848      00
 3849              	.LASF57:
 3850 027a 6D625F62 		.ascii	"mb_buffer\000"
 3850      75666665 
 3850      7200
 3851              	.LASF71:
 3852 0284 74696D65 		.ascii	"time\000"
 3852      00
 3853              	.LASF91:
 3854 0289 474E5520 		.ascii	"GNU C 4.7.2\000"
 3854      4320342E 
 3854      372E3200 
 3855              	.LASF85:
 3856 0295 6462675F 		.ascii	"dbg_check_lock\000"
 3856      63686563 
 3856      6B5F6C6F 
 3856      636B00
 3857              	.LASF15:
 3858 02a4 74726566 		.ascii	"trefs_t\000"
 3858      735F7400 
 3859              	.LASF24:
 3860 02ac 705F7072 		.ascii	"p_prev\000"
 3860      657600
 3861              	.LASF17:
 3862 02b3 74707269 		.ascii	"tprio_t\000"
 3862      6F5F7400 
 3863              	.LASF6:
 3864 02bb 696E7433 		.ascii	"int32_t\000"
 3864      325F7400 
 3865              	.LASF2:
 3866 02c3 756E7369 		.ascii	"unsigned char\000"
 3866      676E6564 
 3866      20636861 
 3866      7200
 3867              	.LASF58:
 3868 02d1 6D625F74 		.ascii	"mb_top\000"
 3868      6F7000
 3869              	.LASF40:
 3870 02d8 705F6D74 		.ascii	"p_mtxlist\000"
 3870      786C6973 
 3870      7400
 3871              	.LASF3:
 3872 02e2 73686F72 		.ascii	"short int\000"
 3872      7420696E 
 3872      7400
 3873              	.LASF31:
 3874 02ec 705F7374 		.ascii	"p_state\000"
 3874      61746500 
 3875              	.LASF34:
 3876 02f4 705F7072 		.ascii	"p_preempt\000"
ARM GAS  /tmp/ccOzgniH.s 			page 72


 3876      65656D70 
 3876      7400
 3877              	.LASF67:
 3878 02fe 65776D61 		.ascii	"ewmask\000"
 3878      736B00
 3879              	.LASF23:
 3880 0305 705F6E65 		.ascii	"p_next\000"
 3880      787400
 3881              	.LASF32:
 3882 030c 705F666C 		.ascii	"p_flags\000"
 3882      61677300 
 3883              	.LASF73:
 3884 0314 63684D42 		.ascii	"chMBPost\000"
 3884      506F7374 
 3884      00
 3885              	.LASF22:
 3886 031d 54687265 		.ascii	"Thread\000"
 3886      616400
 3887              	.LASF39:
 3888 0324 705F6570 		.ascii	"p_epending\000"
 3888      656E6469 
 3888      6E6700
 3889              	.LASF8:
 3890 032f 75696E74 		.ascii	"uint32_t\000"
 3890      33325F74 
 3890      00
 3891              	.LASF68:
 3892 0338 63686172 		.ascii	"char\000"
 3892      00
 3893              	.LASF94:
 3894 033d 63685365 		.ascii	"chSemWaitTimeoutS\000"
 3894      6D576169 
 3894      7454696D 
 3894      656F7574 
 3894      5300
 3895              	.LASF56:
 3896 034f 6D5F6E65 		.ascii	"m_next\000"
 3896      787400
 3897              	.LASF20:
 3898 0356 73797374 		.ascii	"systime_t\000"
 3898      696D655F 
 3898      7400
 3899              	.LASF41:
 3900 0360 705F7265 		.ascii	"p_realprio\000"
 3900      616C7072 
 3900      696F00
 3901              	.LASF35:
 3902 036b 705F7469 		.ascii	"p_time\000"
 3902      6D6500
 3903              	.LASF76:
 3904 0372 63684D42 		.ascii	"chMBPostAhead\000"
 3904      506F7374 
 3904      41686561 
 3904      6400
 3905              	.LASF47:
 3906 0380 696E7463 		.ascii	"intctx\000"
 3906      747800
ARM GAS  /tmp/ccOzgniH.s 			page 73


 3907              	.LASF37:
 3908 0387 705F6D73 		.ascii	"p_msgqueue\000"
 3908      67717565 
 3908      756500
 3909              	.LASF80:
 3910 0392 63684D42 		.ascii	"chMBFetch\000"
 3910      46657463 
 3910      6800
 3911              	.LASF50:
 3912 039c 53656D61 		.ascii	"Semaphore\000"
 3912      70686F72 
 3912      6500
 3913              	.LASF61:
 3914 03a6 6D625F66 		.ascii	"mb_fullsem\000"
 3914      756C6C73 
 3914      656D00
 3915              	.LASF33:
 3916 03b1 705F7265 		.ascii	"p_refs\000"
 3916      667300
 3917              	.LASF84:
 3918 03b8 63685365 		.ascii	"chSemResetI\000"
 3918      6D526573 
 3918      65744900 
 3919              	.LASF5:
 3920 03c4 75696E74 		.ascii	"uint8_t\000"
 3920      385F7400 
 3921              	.LASF66:
 3922 03cc 77746F62 		.ascii	"wtobjp\000"
 3922      6A7000
 3923              	.LASF29:
 3924 03d3 705F6E61 		.ascii	"p_name\000"
 3924      6D6500
 3925              	.LASF55:
 3926 03da 6D5F6F77 		.ascii	"m_owner\000"
 3926      6E657200 
 3927              	.LASF26:
 3928 03e2 705F6374 		.ascii	"p_ctx\000"
 3928      7800
 3929              	.LASF36:
 3930 03e8 705F7761 		.ascii	"p_waiting\000"
 3930      6974696E 
 3930      6700
 3931              	.LASF82:
 3932 03f2 63685365 		.ascii	"chSemInit\000"
 3932      6D496E69 
 3932      7400
 3933              		.ident	"GCC: (crosstool-NG 1.17.0 - PSAS ST32F4 GFE) 4.7.2"
ARM GAS  /tmp/ccOzgniH.s 			page 74


DEFINED SYMBOLS
                            *ABS*:0000000000000000 chmboxes.c
     /tmp/ccOzgniH.s:21     .text.chMBInit:0000000000000000 $t
     /tmp/ccOzgniH.s:27     .text.chMBInit:0000000000000000 chMBInit
     /tmp/ccOzgniH.s:91     .text.chMBInit:0000000000000040 $d
     /tmp/ccOzgniH.s:96     .text.chMBReset:0000000000000000 $t
     /tmp/ccOzgniH.s:102    .text.chMBReset:0000000000000000 chMBReset
     /tmp/ccOzgniH.s:178    .text.chMBReset:0000000000000048 $d
     /tmp/ccOzgniH.s:183    .text.chMBPostS:0000000000000000 $t
     /tmp/ccOzgniH.s:189    .text.chMBPostS:0000000000000000 chMBPostS
     /tmp/ccOzgniH.s:261    .text.chMBPostS:0000000000000048 $d
     /tmp/ccOzgniH.s:266    .text.chMBPost:0000000000000000 $t
     /tmp/ccOzgniH.s:272    .text.chMBPost:0000000000000000 chMBPost
     /tmp/ccOzgniH.s:332    .text.chMBPostI:0000000000000000 $t
     /tmp/ccOzgniH.s:338    .text.chMBPostI:0000000000000000 chMBPostI
     /tmp/ccOzgniH.s:406    .text.chMBPostI:0000000000000044 $d
     /tmp/ccOzgniH.s:411    .text.chMBPostAheadS:0000000000000000 $t
     /tmp/ccOzgniH.s:417    .text.chMBPostAheadS:0000000000000000 chMBPostAheadS
     /tmp/ccOzgniH.s:490    .text.chMBPostAheadS:000000000000004c $d
     /tmp/ccOzgniH.s:495    .text.chMBPostAhead:0000000000000000 $t
     /tmp/ccOzgniH.s:501    .text.chMBPostAhead:0000000000000000 chMBPostAhead
     /tmp/ccOzgniH.s:561    .text.chMBPostAheadI:0000000000000000 $t
     /tmp/ccOzgniH.s:567    .text.chMBPostAheadI:0000000000000000 chMBPostAheadI
     /tmp/ccOzgniH.s:636    .text.chMBPostAheadI:0000000000000044 $d
     /tmp/ccOzgniH.s:641    .text.chMBFetchS:0000000000000000 $t
     /tmp/ccOzgniH.s:647    .text.chMBFetchS:0000000000000000 chMBFetchS
     /tmp/ccOzgniH.s:723    .text.chMBFetchS:0000000000000050 $d
     /tmp/ccOzgniH.s:728    .text.chMBFetch:0000000000000000 $t
     /tmp/ccOzgniH.s:734    .text.chMBFetch:0000000000000000 chMBFetch
     /tmp/ccOzgniH.s:794    .text.chMBFetchI:0000000000000000 $t
     /tmp/ccOzgniH.s:800    .text.chMBFetchI:0000000000000000 chMBFetchI
     /tmp/ccOzgniH.s:872    .text.chMBFetchI:000000000000004c $d
     /tmp/ccOzgniH.s:877    .rodata.str1.4:0000000000000000 $d
                     .debug_frame:0000000000000010 $d
     /tmp/ccOzgniH.s:95     .text.chMBInit:0000000000000044 $t
     /tmp/ccOzgniH.s:182    .text.chMBReset:000000000000004c $t
     /tmp/ccOzgniH.s:265    .text.chMBPostS:000000000000004c $t
     /tmp/ccOzgniH.s:410    .text.chMBPostI:0000000000000048 $t
     /tmp/ccOzgniH.s:640    .text.chMBPostAheadI:0000000000000048 $t
     /tmp/ccOzgniH.s:727    .text.chMBFetchS:0000000000000054 $t

UNDEFINED SYMBOLS
chSemInit
chDbgPanic
dbg_check_lock
chSemResetI
chSchRescheduleS
dbg_check_unlock
chDbgCheckClassS
chSemWaitTimeoutS
chSemSignalI
chDbgCheckClassI
