ARM GAS  /tmp/ccgGClIi.s 			page 1


   1              		.syntax unified
   2              		.cpu cortex-m4
   3              		.eabi_attribute 27, 3
   4              		.eabi_attribute 28, 1
   5              		.fpu fpv4-sp-d16
   6              		.eabi_attribute 20, 1
   7              		.eabi_attribute 21, 1
   8              		.eabi_attribute 23, 3
   9              		.eabi_attribute 24, 1
  10              		.eabi_attribute 25, 1
  11              		.eabi_attribute 26, 1
  12              		.eabi_attribute 30, 2
  13              		.eabi_attribute 34, 1
  14              		.eabi_attribute 18, 4
  15              		.thumb
  16              		.file	"chprintf.c"
  17              		.text
  18              	.Ltext0:
  19              		.cfi_sections	.debug_frame
  20              		.section	.text.long_to_string_with_divisor.constprop.0,"ax",%progbits
  21              		.align	2
  22              		.p2align 4,,15
  23              		.thumb
  24              		.thumb_func
  25              		.type	long_to_string_with_divisor.constprop.0, %function
  26              	long_to_string_with_divisor.constprop.0:
  27              	.LFB10:
  28              		.file 1 "../../ChibiOS/os/various/chprintf.c"
  29              		.loc 1 40 0
  30              		.cfi_startproc
  31              		@ args = 0, pretend = 0, frame = 0
  32              		@ frame_needed = 0, uses_anonymous_args = 0
  33              		@ link register save eliminated.
  34              	.LVL0:
  35 0000 F0B4     		push	{r4, r5, r6, r7}
  36              	.LCFI0:
  37              		.cfi_def_cfa_offset 16
  38              		.cfi_offset 4, -16
  39              		.cfi_offset 5, -12
  40              		.cfi_offset 6, -8
  41              		.cfi_offset 7, -4
  42              		.loc 1 55 0
  43 0002 00F10B0C 		add	ip, r0, #11
  44              	.LVL1:
  45              		.loc 1 40 0
  46 0006 00F10A05 		add	r5, r0, #10
  47 000a 0C46     		mov	r4, r1
  48              	.LVL2:
  49              	.L3:
  50              		.loc 1 57 0
  51 000c B1FBF2F6 		udiv	r6, r1, r2
  52 0010 02FB1611 		mls	r1, r2, r6, r1
  53              	.LVL3:
  54              		.loc 1 58 0
  55 0014 01F13003 		add	r3, r1, #48
  56              	.LVL4:
  57              		.loc 1 59 0
ARM GAS  /tmp/ccgGClIi.s 			page 2


  58 0018 392B     		cmp	r3, #57
  59              		.loc 1 60 0
  60 001a C8BF     		it	gt
  61 001c 01F13703 		addgt	r3, r1, #55
  62              	.LVL5:
  63              		.loc 1 61 0
  64 0020 DBB2     		uxtb	r3, r3
  65              	.LVL6:
  66              		.loc 1 63 0
  67 0022 B4FBF2F4 		udiv	r4, r4, r2
  68              	.LVL7:
  69              		.loc 1 61 0
  70 0026 2F46     		mov	r7, r5
  71              	.LVL8:
  72              		.loc 1 62 0
  73 0028 3146     		mov	r1, r6
  74              	.LVL9:
  75              		.loc 1 61 0
  76 002a 05F80139 		strb	r3, [r5], #-1
  77              	.LVL10:
  78              		.loc 1 63 0
  79 002e 002C     		cmp	r4, #0
  80 0030 ECD1     		bne	.L3
  81              	.LVL11:
  82              		.loc 1 65 0
  83 0032 C7EB0C01 		rsb	r1, r7, ip
  84              	.LVL12:
  85 0036 3A46     		mov	r2, r7
  86              	.LVL13:
  87              		.loc 1 40 0
  88 0038 4118     		adds	r1, r0, r1
  89              	.LVL14:
  90 003a 01E0     		b	.L5
  91              	.LVL15:
  92              	.L9:
  93 003c 12F8013F 		ldrb	r3, [r2, #1]!	@ zero_extendqisi2
  94              	.L5:
  95              		.loc 1 67 0
  96 0040 00F8013B 		strb	r3, [r0], #1
  97              	.LVL16:
  98              		.loc 1 68 0
  99 0044 8842     		cmp	r0, r1
 100 0046 F9D1     		bne	.L9
 101              		.loc 1 71 0
 102 0048 F0BC     		pop	{r4, r5, r6, r7}
 103 004a 7047     		bx	lr
 104              		.cfi_endproc
 105              	.LFE10:
 106              		.size	long_to_string_with_divisor.constprop.0, .-long_to_string_with_divisor.constprop.0
 107 004c AFF30080 		.section	.text.chprintf,"ax",%progbits
 108              		.align	2
 109              		.p2align 4,,15
 110              		.global	chprintf
 111              		.thumb
 112              		.thumb_func
 113              		.type	chprintf, %function
 114              	chprintf:
ARM GAS  /tmp/ccgGClIi.s 			page 3


 115              	.LFB9:
 116              		.loc 1 112 0
 117              		.cfi_startproc
 118              		@ args = 4, pretend = 12, frame = 24
 119              		@ frame_needed = 0, uses_anonymous_args = 1
 120              	.LVL17:
 121 0000 0EB4     		push	{r1, r2, r3}
 122              	.LCFI1:
 123              		.cfi_def_cfa_offset 12
 124              		.cfi_offset 1, -12
 125              		.cfi_offset 2, -8
 126              		.cfi_offset 3, -4
 127 0002 2DE9F04F 		push	{r4, r5, r6, r7, r8, r9, sl, fp, lr}
 128              	.LCFI2:
 129              		.cfi_def_cfa_offset 48
 130              		.cfi_offset 4, -48
 131              		.cfi_offset 5, -44
 132              		.cfi_offset 6, -40
 133              		.cfi_offset 7, -36
 134              		.cfi_offset 8, -32
 135              		.cfi_offset 9, -28
 136              		.cfi_offset 10, -24
 137              		.cfi_offset 11, -20
 138              		.cfi_offset 14, -16
 139 0006 86B0     		sub	sp, sp, #24
 140              	.LCFI3:
 141              		.cfi_def_cfa_offset 72
 142              		.loc 1 112 0
 143 0008 0FAB     		add	r3, sp, #60
 144              		.loc 1 136 0
 145 000a 0DF10C08 		add	r8, sp, #12
 146              		.loc 1 112 0
 147 000e 53F8044B 		ldr	r4, [r3], #4
 148              		.loc 1 125 0
 149 0012 0293     		str	r3, [sp, #8]
 150              		.loc 1 238 0
 151 0014 0DF10D03 		add	r3, sp, #13
 152 0018 C8EB030C 		rsb	ip, r8, r3
 153 001c 0093     		str	r3, [sp, #0]
 154              		.loc 1 112 0
 155 001e 0646     		mov	r6, r0
 156 0020 CDF804C0 		str	ip, [sp, #4]
 157              	.LVL18:
 158              	.L71:
 159              		.loc 1 127 0
 160 0024 2546     		mov	r5, r4
 161 0026 15F8011B 		ldrb	r1, [r5], #1	@ zero_extendqisi2
 162              	.LVL19:
 163              		.loc 1 128 0
 164 002a 59B1     		cbz	r1, .L70
 165              	.LVL20:
 166              	.L72:
 167              		.loc 1 132 0
 168 002c 2529     		cmp	r1, #37
 169 002e 0ED0     		beq	.L13
 170              		.loc 1 133 0
 171 0030 3368     		ldr	r3, [r6, #0]
ARM GAS  /tmp/ccgGClIi.s 			page 4


 172              		.loc 1 127 0
 173 0032 2C46     		mov	r4, r5
 174 0034 2546     		mov	r5, r4
 175              	.LVL21:
 176              		.loc 1 133 0
 177 0036 3046     		mov	r0, r6
 178 0038 9B68     		ldr	r3, [r3, #8]
 179 003a 9847     		blx	r3
 180              	.LVL22:
 181              		.loc 1 127 0
 182 003c 15F8011B 		ldrb	r1, [r5], #1	@ zero_extendqisi2
 183              	.LVL23:
 184              		.loc 1 128 0
 185 0040 0029     		cmp	r1, #0
 186 0042 F3D1     		bne	.L72
 187              	.LVL24:
 188              	.L70:
 189              		.loc 1 263 0
 190 0044 06B0     		add	sp, sp, #24
 191 0046 BDE8F04F 		pop	{r4, r5, r6, r7, r8, r9, sl, fp, lr}
 192 004a 03B0     		add	sp, sp, #12
 193 004c 7047     		bx	lr
 194              	.L13:
 195              	.LVL25:
 196              		.loc 1 139 0
 197 004e 6378     		ldrb	r3, [r4, #1]	@ zero_extendqisi2
 198 0050 2D2B     		cmp	r3, #45
 199              		.loc 1 138 0
 200 0052 18BF     		it	ne
 201 0054 4FF0000B 		movne	fp, #0
 202              		.loc 1 139 0
 203 0058 00F01281 		beq	.L73
 204              	.LVL26:
 205              	.L15:
 206              		.loc 1 143 0
 207 005c 2027     		movs	r7, #32
 208              		.loc 1 144 0
 209 005e 2E2B     		cmp	r3, #46
 210 0060 00F00A81 		beq	.L74
 211              	.LVL27:
 212              	.L16:
 213              		.loc 1 146 0
 214 0064 2C46     		mov	r4, r5
 215 0066 0299     		ldr	r1, [sp, #8]
 216              		.loc 1 148 0
 217 0068 0025     		movs	r5, #0
 218              	.LVL28:
 219 006a 06E0     		b	.L19
 220              	.LVL29:
 221              	.L75:
 222              		.loc 1 154 0
 223 006c 0A78     		ldrb	r2, [r1, #0]	@ zero_extendqisi2
 224              	.LVL30:
 225 006e 0431     		adds	r1, r1, #4
 226              	.LVL31:
 227              	.L17:
 228              		.loc 1 157 0
ARM GAS  /tmp/ccgGClIi.s 			page 5


 229 0070 05EB8505 		add	r5, r5, r5, lsl #2
 230              	.LVL32:
 231 0074 2378     		ldrb	r3, [r4, #0]	@ zero_extendqisi2
 232 0076 02EB4505 		add	r5, r2, r5, lsl #1
 233              	.LVL33:
 234              	.L19:
 235              		.loc 1 151 0
 236 007a A3F13002 		sub	r2, r3, #48
 237 007e D2B2     		uxtb	r2, r2
 238              		.loc 1 150 0
 239 0080 0134     		adds	r4, r4, #1
 240              	.LVL34:
 241              		.loc 1 151 0
 242 0082 092A     		cmp	r2, #9
 243 0084 F4D9     		bls	.L17
 244              		.loc 1 153 0
 245 0086 2A2B     		cmp	r3, #42
 246 0088 F0D0     		beq	.L75
 247              		.loc 1 160 0
 248 008a 0020     		movs	r0, #0
 249 008c 2E2B     		cmp	r3, #46
 250 008e 0291     		str	r1, [sp, #8]
 251              	.LVL35:
 252 0090 4BD0     		beq	.L23
 253              	.LVL36:
 254              		.loc 1 174 0
 255 0092 03F0DF02 		and	r2, r3, #223
 256 0096 4C2A     		cmp	r2, #76
 257 0098 55D1     		bne	.L24
 258              	.LVL37:
 259              	.L76:
 260              		.loc 1 176 0
 261 009a 2278     		ldrb	r2, [r4, #0]	@ zero_extendqisi2
 262              		.loc 1 175 0
 263 009c 0121     		movs	r1, #1
 264              		.loc 1 176 0
 265 009e 12B1     		cbz	r2, .L25
 266              	.LVL38:
 267              		.loc 1 177 0
 268 00a0 0134     		adds	r4, r4, #1
 269              	.LVL39:
 270 00a2 1346     		mov	r3, r2
 271              		.loc 1 175 0
 272 00a4 0121     		movs	r1, #1
 273              	.LVL40:
 274              	.L25:
 275              		.loc 1 183 0
 276 00a6 A3F14402 		sub	r2, r3, #68
 277 00aa 342A     		cmp	r2, #52
 278 00ac 00F2DC80 		bhi	.L26
 279 00b0 DFE812F0 		tbh	[pc, r2, lsl #1]
 280              	.L33:
 281 00b4 CA00     		.2byte	(.L27-.L33)/2
 282 00b6 DA00     		.2byte	(.L26-.L33)/2
 283 00b8 DA00     		.2byte	(.L26-.L33)/2
 284 00ba DA00     		.2byte	(.L26-.L33)/2
 285 00bc DA00     		.2byte	(.L26-.L33)/2
ARM GAS  /tmp/ccgGClIi.s 			page 6


 286 00be DA00     		.2byte	(.L26-.L33)/2
 287 00c0 DA00     		.2byte	(.L26-.L33)/2
 288 00c2 DA00     		.2byte	(.L26-.L33)/2
 289 00c4 DA00     		.2byte	(.L26-.L33)/2
 290 00c6 DA00     		.2byte	(.L26-.L33)/2
 291 00c8 DA00     		.2byte	(.L26-.L33)/2
 292 00ca E000     		.2byte	(.L28-.L33)/2
 293 00cc DA00     		.2byte	(.L26-.L33)/2
 294 00ce DA00     		.2byte	(.L26-.L33)/2
 295 00d0 DA00     		.2byte	(.L26-.L33)/2
 296 00d2 DA00     		.2byte	(.L26-.L33)/2
 297 00d4 DA00     		.2byte	(.L26-.L33)/2
 298 00d6 C200     		.2byte	(.L56-.L33)/2
 299 00d8 DA00     		.2byte	(.L26-.L33)/2
 300 00da DA00     		.2byte	(.L26-.L33)/2
 301 00dc B500     		.2byte	(.L30-.L33)/2
 302 00de DA00     		.2byte	(.L26-.L33)/2
 303 00e0 DA00     		.2byte	(.L26-.L33)/2
 304 00e2 DA00     		.2byte	(.L26-.L33)/2
 305 00e4 DA00     		.2byte	(.L26-.L33)/2
 306 00e6 DA00     		.2byte	(.L26-.L33)/2
 307 00e8 DA00     		.2byte	(.L26-.L33)/2
 308 00ea DA00     		.2byte	(.L26-.L33)/2
 309 00ec DA00     		.2byte	(.L26-.L33)/2
 310 00ee DA00     		.2byte	(.L26-.L33)/2
 311 00f0 DA00     		.2byte	(.L26-.L33)/2
 312 00f2 9500     		.2byte	(.L31-.L33)/2
 313 00f4 CA00     		.2byte	(.L27-.L33)/2
 314 00f6 DA00     		.2byte	(.L26-.L33)/2
 315 00f8 DA00     		.2byte	(.L26-.L33)/2
 316 00fa DA00     		.2byte	(.L26-.L33)/2
 317 00fc DA00     		.2byte	(.L26-.L33)/2
 318 00fe DA00     		.2byte	(.L26-.L33)/2
 319 0100 DA00     		.2byte	(.L26-.L33)/2
 320 0102 DA00     		.2byte	(.L26-.L33)/2
 321 0104 DA00     		.2byte	(.L26-.L33)/2
 322 0106 DA00     		.2byte	(.L26-.L33)/2
 323 0108 DA00     		.2byte	(.L26-.L33)/2
 324 010a E000     		.2byte	(.L28-.L33)/2
 325 010c DA00     		.2byte	(.L26-.L33)/2
 326 010e DA00     		.2byte	(.L26-.L33)/2
 327 0110 DA00     		.2byte	(.L26-.L33)/2
 328 0112 5000     		.2byte	(.L32-.L33)/2
 329 0114 DA00     		.2byte	(.L26-.L33)/2
 330 0116 C200     		.2byte	(.L56-.L33)/2
 331 0118 DA00     		.2byte	(.L26-.L33)/2
 332 011a DA00     		.2byte	(.L26-.L33)/2
 333 011c B500     		.2byte	(.L30-.L33)/2
 334              	.LVL41:
 335              	.L22:
 336              		.loc 1 166 0
 337 011e 0A78     		ldrb	r2, [r1, #0]	@ zero_extendqisi2
 338              	.LVL42:
 339 0120 0431     		adds	r1, r1, #4
 340              	.LVL43:
 341              	.L21:
 342              		.loc 1 169 0
ARM GAS  /tmp/ccgGClIi.s 			page 7


 343 0122 00EB8000 		add	r0, r0, r0, lsl #2
 344              	.LVL44:
 345              		.loc 1 170 0
 346 0126 02EB4000 		add	r0, r2, r0, lsl #1
 347              	.LVL45:
 348              	.L23:
 349              		.loc 1 162 0
 350 012a 14F8013B 		ldrb	r3, [r4], #1	@ zero_extendqisi2
 351              	.LVL46:
 352              		.loc 1 163 0
 353 012e A3F13002 		sub	r2, r3, #48
 354 0132 D2B2     		uxtb	r2, r2
 355 0134 092A     		cmp	r2, #9
 356 0136 F4D9     		bls	.L21
 357              		.loc 1 165 0
 358 0138 2A2B     		cmp	r3, #42
 359 013a F0D0     		beq	.L22
 360              		.loc 1 174 0
 361 013c 03F0DF02 		and	r2, r3, #223
 362 0140 4C2A     		cmp	r2, #76
 363 0142 0291     		str	r1, [sp, #8]
 364 0144 A9D0     		beq	.L76
 365              	.LVL47:
 366              	.L24:
 367              		.loc 1 180 0
 368 0146 A3F14101 		sub	r1, r3, #65
 369 014a 1929     		cmp	r1, #25
 370 014c 8CBF     		ite	hi
 371 014e 0021     		movhi	r1, #0
 372 0150 0121     		movls	r1, #1
 373              	.LVL48:
 374 0152 A8E7     		b	.L25
 375              	.LVL49:
 376              	.L32:
 377              		.loc 1 190 0
 378 0154 029A     		ldr	r2, [sp, #8]
 379              		.loc 1 191 0
 380 0156 40F20003 		movw	r3, #:lower16:.LC0
 381              	.LVL50:
 382              		.loc 1 190 0
 383 015a D2F80090 		ldr	r9, [r2, #0]
 384              	.LVL51:
 385              		.loc 1 191 0
 386 015e C0F20003 		movt	r3, #:upper16:.LC0
 387 0162 B9F1000F 		cmp	r9, #0
 388 0166 08BF     		it	eq
 389 0168 9946     		moveq	r9, r3
 390              	.LVL52:
 391              		.loc 1 190 0
 392 016a 111D     		adds	r1, r2, #4
 393              	.LVL53:
 394              		.loc 1 194 0
 395 016c 99F80020 		ldrb	r2, [r9, #0]	@ zero_extendqisi2
 396              		.loc 1 190 0
 397 0170 0291     		str	r1, [sp, #8]
 398              		.loc 1 193 0
 399 0172 47F6FF71 		movw	r1, #32767
ARM GAS  /tmp/ccgGClIi.s 			page 8


 400 0176 0028     		cmp	r0, #0
 401 0178 08BF     		it	eq
 402 017a 0846     		moveq	r0, r1
 403              	.LVL54:
 404              		.loc 1 194 0
 405 017c 002A     		cmp	r2, #0
 406 017e 00F0A080 		beq	.L59
 407              	.LVL55:
 408 0182 4946     		mov	r1, r9
 409              		.loc 1 112 0
 410 0184 4844     		add	r0, r9, r0
 411              	.LVL56:
 412 0186 02E0     		b	.L38
 413              	.LVL57:
 414              	.L37:
 415              		.loc 1 194 0 discriminator 2
 416 0188 9042     		cmp	r0, r2
 417 018a 00F09680 		beq	.L77
 418              	.L38:
 419              		.loc 1 194 0 is_stmt 0 discriminator 1
 420 018e 4F78     		ldrb	r7, [r1, #1]	@ zero_extendqisi2
 421              		.loc 1 112 0 is_stmt 1 discriminator 1
 422 0190 4A1C     		adds	r2, r1, #1
 423              	.LVL58:
 424 0192 1146     		mov	r1, r2
 425              		.loc 1 194 0 discriminator 1
 426 0194 002F     		cmp	r7, #0
 427 0196 F7D1     		bne	.L37
 428 0198 C9EB020A 		rsb	sl, r9, r2
 429              		.loc 1 242 0
 430 019c CAEB0505 		rsb	r5, sl, r5
 431              	.LVL59:
 432              		.loc 1 189 0
 433 01a0 2027     		movs	r7, #32
 434              	.LVL60:
 435 01a2 25EAE575 		bic	r5, r5, r5, asr #31
 436              	.LVL61:
 437              		.loc 1 244 0
 438 01a6 BBF1000F 		cmp	fp, #0
 439 01aa 29D0     		beq	.L78
 440              	.LVL62:
 441              	.L44:
 442              		.loc 1 255 0 discriminator 1
 443 01ac BAF1000F 		cmp	sl, #0
 444              		.loc 1 112 0 discriminator 1
 445 01b0 C8BF     		it	gt
 446 01b2 09EB0A0B 		addgt	fp, r9, sl
 447              	.LVL63:
 448              		.loc 1 255 0 discriminator 1
 449 01b6 07DD     		ble	.L50
 450              	.LVL64:
 451              	.L49:
 452              		.loc 1 256 0
 453 01b8 3268     		ldr	r2, [r6, #0]
 454 01ba 19F8011B 		ldrb	r1, [r9], #1	@ zero_extendqisi2
 455              	.LVL65:
 456 01be 9268     		ldr	r2, [r2, #8]
ARM GAS  /tmp/ccgGClIi.s 			page 9


 457 01c0 3046     		mov	r0, r6
 458 01c2 9047     		blx	r2
 459              	.LVL66:
 460              		.loc 1 255 0
 461 01c4 D945     		cmp	r9, fp
 462 01c6 F7D1     		bne	.L49
 463              	.L50:
 464              	.LVL67:
 465              		.loc 1 258 0
 466 01c8 002D     		cmp	r5, #0
 467 01ca 3FF42BAF 		beq	.L71
 468              	.L63:
 469              		.loc 1 259 0
 470 01ce 3368     		ldr	r3, [r6, #0]
 471 01d0 3046     		mov	r0, r6
 472 01d2 9B68     		ldr	r3, [r3, #8]
 473 01d4 3946     		mov	r1, r7
 474 01d6 9847     		blx	r3
 475              	.LVL68:
 476              		.loc 1 258 0
 477 01d8 013D     		subs	r5, r5, #1
 478              	.LVL69:
 479 01da F8D1     		bne	.L63
 480 01dc 22E7     		b	.L71
 481              	.LVL70:
 482              	.L31:
 483              		.loc 1 186 0
 484 01de 029B     		ldr	r3, [sp, #8]
 485              	.LVL71:
 486 01e0 DDF804A0 		ldr	sl, [sp, #4]
 487 01e4 1A68     		ldr	r2, [r3, #0]
 488              	.LVL72:
 489 01e6 0433     		adds	r3, r3, #4
 490 01e8 0293     		str	r3, [sp, #8]
 491 01ea 8DF80C20 		strb	r2, [sp, #12]
 492              	.LVL73:
 493              		.loc 1 185 0
 494 01ee 2027     		movs	r7, #32
 495              		.loc 1 137 0
 496 01f0 C146     		mov	r9, r8
 497              	.LVL74:
 498              	.L34:
 499              		.loc 1 242 0
 500 01f2 CAEB0505 		rsb	r5, sl, r5
 501              	.LVL75:
 502 01f6 25EAE575 		bic	r5, r5, r5, asr #31
 503              	.LVL76:
 504              		.loc 1 244 0
 505 01fa BBF1000F 		cmp	fp, #0
 506 01fe D5D1     		bne	.L44
 507              	.LVL77:
 508              	.L78:
 509              		.loc 1 245 0
 510 0200 6D42     		negs	r5, r5
 511              	.LVL78:
 512              		.loc 1 246 0
 513 0202 002D     		cmp	r5, #0
ARM GAS  /tmp/ccgGClIi.s 			page 10


 514 0204 D2D0     		beq	.L44
 515              		.loc 1 247 0
 516 0206 99F80010 		ldrb	r1, [r9, #0]	@ zero_extendqisi2
 517 020a 2D29     		cmp	r1, #45
 518 020c 4AD0     		beq	.L79
 519              	.LVL79:
 520              	.L64:
 521              		.loc 1 252 0 discriminator 1
 522 020e 3168     		ldr	r1, [r6, #0]
 523 0210 3046     		mov	r0, r6
 524 0212 8B68     		ldr	r3, [r1, #8]
 525 0214 3946     		mov	r1, r7
 526 0216 9847     		blx	r3
 527              	.LVL80:
 528              		.loc 1 253 0 discriminator 1
 529 0218 0135     		adds	r5, r5, #1
 530              	.LVL81:
 531 021a F8D1     		bne	.L64
 532 021c C6E7     		b	.L44
 533              	.LVL82:
 534              	.L30:
 535              		.loc 1 183 0
 536 021e 1022     		movs	r2, #16
 537              	.LVL83:
 538              	.L29:
 539              		.loc 1 232 0
 540 0220 029B     		ldr	r3, [sp, #8]
 541              		.loc 1 231 0
 542 0222 69B1     		cbz	r1, .L42
 543              	.L80:
 544              		.loc 1 232 0
 545 0224 191D     		adds	r1, r3, #4
 546              	.LVL84:
 547 0226 0291     		str	r1, [sp, #8]
 548 0228 1968     		ldr	r1, [r3, #0]
 549              	.LVL85:
 550              	.L43:
 551              	.LBB6:
 552              	.LBB7:
 553              		.loc 1 75 0
 554 022a 4046     		mov	r0, r8
 555 022c FFF7FEFF 		bl	long_to_string_with_divisor.constprop.0
 556              	.LVL86:
 557              	.LBE7:
 558              	.LBE6:
 559              		.loc 1 137 0
 560 0230 C146     		mov	r9, r8
 561 0232 C8EB000A 		rsb	sl, r8, r0
 562              		.loc 1 236 0
 563 0236 DCE7     		b	.L34
 564              	.LVL87:
 565              	.L56:
 566              		.loc 1 183 0
 567 0238 0A22     		movs	r2, #10
 568              	.LVL88:
 569              		.loc 1 232 0
 570 023a 029B     		ldr	r3, [sp, #8]
ARM GAS  /tmp/ccgGClIi.s 			page 11


 571              		.loc 1 231 0
 572 023c 0029     		cmp	r1, #0
 573 023e F1D1     		bne	.L80
 574              	.L42:
 575              		.loc 1 234 0
 576 0240 181D     		adds	r0, r3, #4
 577              	.LVL89:
 578 0242 1968     		ldr	r1, [r3, #0]
 579              	.LVL90:
 580 0244 0290     		str	r0, [sp, #8]
 581 0246 F0E7     		b	.L43
 582              	.LVL91:
 583              	.L27:
 584              		.loc 1 200 0
 585 0248 029B     		ldr	r3, [sp, #8]
 586              	.LVL92:
 587 024a 1A1D     		adds	r2, r3, #4
 588              	.LVL93:
 589              		.loc 1 199 0
 590 024c E9B9     		cbnz	r1, .L81
 591              		.loc 1 202 0
 592 024e 1968     		ldr	r1, [r3, #0]
 593              	.LVL94:
 594 0250 0292     		str	r2, [sp, #8]
 595              		.loc 1 203 0
 596 0252 0029     		cmp	r1, #0
 597              		.loc 1 136 0
 598 0254 A8BF     		it	ge
 599 0256 4046     		movge	r0, r8
 600              	.LVL95:
 601              		.loc 1 203 0
 602 0258 1DDB     		blt	.L82
 603              	.LVL96:
 604              	.L41:
 605              	.LBB8:
 606              	.LBB9:
 607              		.loc 1 75 0
 608 025a 0A22     		movs	r2, #10
 609 025c FFF7FEFF 		bl	long_to_string_with_divisor.constprop.0
 610              	.LVL97:
 611              	.LBE9:
 612              	.LBE8:
 613              		.loc 1 137 0
 614 0260 C146     		mov	r9, r8
 615 0262 C8EB000A 		rsb	sl, r8, r0
 616              		.loc 1 208 0
 617 0266 C4E7     		b	.L34
 618              	.LVL98:
 619              	.L26:
 620              		.loc 1 238 0
 621 0268 8DF80C30 		strb	r3, [sp, #12]
 622              	.LVL99:
 623 026c DDF804A0 		ldr	sl, [sp, #4]
 624              		.loc 1 137 0
 625 0270 C146     		mov	r9, r8
 626              		.loc 1 239 0
 627 0272 BEE7     		b	.L34
ARM GAS  /tmp/ccgGClIi.s 			page 12


 628              	.LVL100:
 629              	.L28:
 630 0274 0822     		movs	r2, #8
 631 0276 D3E7     		b	.L29
 632              	.LVL101:
 633              	.L74:
 634 0278 6B78     		ldrb	r3, [r5, #1]	@ zero_extendqisi2
 635              		.loc 1 146 0
 636 027a 3027     		movs	r7, #48
 637              		.loc 1 145 0
 638 027c 0135     		adds	r5, r5, #1
 639              	.LVL102:
 640 027e F1E6     		b	.L16
 641              	.LVL103:
 642              	.L73:
 643              		.loc 1 140 0
 644 0280 A51C     		adds	r5, r4, #2
 645              	.LVL104:
 646 0282 A378     		ldrb	r3, [r4, #2]	@ zero_extendqisi2
 647              		.loc 1 141 0
 648 0284 4FF0010B 		mov	fp, #1
 649 0288 E8E6     		b	.L15
 650              	.LVL105:
 651              	.L81:
 652              		.loc 1 200 0
 653 028a 1968     		ldr	r1, [r3, #0]
 654              	.LVL106:
 655 028c 0292     		str	r2, [sp, #8]
 656              		.loc 1 203 0
 657 028e 0029     		cmp	r1, #0
 658              		.loc 1 136 0
 659 0290 A8BF     		it	ge
 660 0292 4046     		movge	r0, r8
 661              	.LVL107:
 662              		.loc 1 203 0
 663 0294 E1DA     		bge	.L41
 664              	.L82:
 665              		.loc 1 204 0
 666 0296 2D23     		movs	r3, #45
 667 0298 8DF80C30 		strb	r3, [sp, #12]
 668              	.LVL108:
 669              		.loc 1 205 0
 670 029c 4942     		negs	r1, r1
 671              	.LVL109:
 672              		.loc 1 204 0
 673 029e 0DF10D00 		add	r0, sp, #13
 674 02a2 DAE7     		b	.L41
 675              	.LVL110:
 676              	.L79:
 677              		.loc 1 247 0 discriminator 1
 678 02a4 302F     		cmp	r7, #48
 679 02a6 B2D1     		bne	.L64
 680              		.loc 1 248 0
 681 02a8 3268     		ldr	r2, [r6, #0]
 682 02aa 3046     		mov	r0, r6
 683 02ac 9368     		ldr	r3, [r2, #8]
 684 02ae 9847     		blx	r3
ARM GAS  /tmp/ccgGClIi.s 			page 13


 685              	.LVL111:
 686 02b0 09F10109 		add	r9, r9, #1
 687              	.LVL112:
 688              		.loc 1 249 0
 689 02b4 0AF1FF3A 		add	sl, sl, #-1
 690              	.LVL113:
 691 02b8 A9E7     		b	.L64
 692              	.LVL114:
 693              	.L77:
 694 02ba C9EB000A 		rsb	sl, r9, r0
 695              		.loc 1 189 0
 696 02be 2027     		movs	r7, #32
 697 02c0 97E7     		b	.L34
 698              	.LVL115:
 699              	.L59:
 700              		.loc 1 194 0
 701 02c2 9246     		mov	sl, r2
 702              		.loc 1 189 0
 703 02c4 2027     		movs	r7, #32
 704 02c6 94E7     		b	.L34
 705              		.cfi_endproc
 706              	.LFE9:
 707              		.size	chprintf, .-chprintf
 708 02c8 AFF30080 		.section	.rodata.str1.4,"aMS",%progbits,1
 708      AFF30080 
 709              		.align	2
 710              	.LC0:
 711 0000 286E756C 		.ascii	"(null)\000"
 711      6C2900
 712 0007 00       		.text
 713              	.Letext0:
 714              		.file 2 "/home/david/toolchains/psas/x-tools/stm32f407/arm-psas-eabi/bin/../lib/gcc/arm-psas-eabi/
 715              		.file 3 "/home/david/toolchains/psas/x-tools/stm32f407/arm-psas-eabi/bin/../lib/gcc/arm-psas-eabi/
 716              		.file 4 "/home/david/toolchains/psas/x-tools/stm32f407/arm-psas-eabi/bin/../lib/gcc/arm-psas-eabi/
 717              		.file 5 "../../ChibiOS/os/ports/GCC/ARMCMx/chtypes.h"
 718              		.file 6 "<built-in>"
 719              		.file 7 "../../ChibiOS/os/kernel/include/chstreams.h"