ARM GAS  /tmp/ccRaoIkN.s 			page 1


   1              		.syntax unified
   2              		.cpu cortex-m4
   3              		.eabi_attribute 27, 3
   4              		.eabi_attribute 28, 1
   5              		.fpu fpv4-sp-d16
   6              		.eabi_attribute 20, 1
   7              		.eabi_attribute 21, 1
   8              		.eabi_attribute 23, 3
   9              		.eabi_attribute 24, 1
  10              		.eabi_attribute 25, 1
  11              		.eabi_attribute 26, 1
  12              		.eabi_attribute 30, 2
  13              		.eabi_attribute 34, 1
  14              		.eabi_attribute 18, 4
  15              		.thumb
  16              		.file	"chqueues.c"
  17              		.text
  18              	.Ltext0:
  19              		.cfi_sections	.debug_frame
  20              		.section	.text.qwait,"ax",%progbits
  21              		.align	2
  22              		.p2align 4,,15
  23              		.thumb
  24              		.thumb_func
  25              		.type	qwait, %function
  26              	qwait:
  27              	.LFB7:
  28              		.file 1 "../../ChibiOS/os/kernel/src/chqueues.c"
  29              		.loc 1 63 0
  30              		.cfi_startproc
  31              		@ args = 0, pretend = 0, frame = 0
  32              		@ frame_needed = 0, uses_anonymous_args = 0
  33              		@ link register save eliminated.
  34              	.LVL0:
  35 0000 10B4     		push	{r4}
  36              	.LCFI0:
  37              		.cfi_def_cfa_offset 4
  38              		.cfi_offset 4, -4
  39              		.loc 1 63 0
  40 0002 0246     		mov	r2, r0
  41              		.loc 1 65 0
  42 0004 59B1     		cbz	r1, .L2
  43              		.loc 1 67 0
  44 0006 084B     		ldr	r3, .L4
  45 0008 9B69     		ldr	r3, [r3, #24]
  46 000a 9862     		str	r0, [r3, #40]
  47              	.LVL1:
  48              	.LBB12:
  49              	.LBB13:
  50              		.file 2 "../../ChibiOS/os/kernel/include/chinline.h"
  51              		.loc 2 48 0
  52 000c 4468     		ldr	r4, [r0, #4]
  53              	.LBE13:
  54              	.LBE12:
  55              		.loc 1 69 0
  56 000e 0D20     		movs	r0, #13
  57              	.LVL2:
ARM GAS  /tmp/ccRaoIkN.s 			page 2


  58              	.LBB15:
  59              	.LBB14:
  60              		.loc 2 48 0
  61 0010 83E81400 		stmia	r3, {r2, r4}
  62              		.loc 2 49 0
  63 0014 5360     		str	r3, [r2, #4]
  64 0016 2360     		str	r3, [r4, #0]
  65              	.LBE14:
  66              	.LBE15:
  67              		.loc 1 70 0
  68 0018 10BC     		pop	{r4}
  69              		.loc 1 69 0
  70 001a FFF7FEBF 		b	chSchGoSleepTimeoutS
  71              	.LVL3:
  72              	.L2:
  73              		.loc 1 70 0
  74 001e 4FF0FF30 		mov	r0, #-1
  75              	.LVL4:
  76 0022 10BC     		pop	{r4}
  77 0024 7047     		bx	lr
  78              	.L5:
  79 0026 00BF     		.align	2
  80              	.L4:
  81 0028 00000000 		.word	rlist
  82              		.cfi_endproc
  83              	.LFE7:
  84              		.size	qwait, .-qwait
  85 002c AFF30080 		.section	.text.chIQInit,"ax",%progbits
  86              		.align	2
  87              		.p2align 4,,15
  88              		.global	chIQInit
  89              		.thumb
  90              		.thumb_func
  91              		.type	chIQInit, %function
  92              	chIQInit:
  93              	.LFB8:
  94              		.loc 1 89 0
  95              		.cfi_startproc
  96              		@ args = 4, pretend = 0, frame = 0
  97              		@ frame_needed = 0, uses_anonymous_args = 0
  98              		@ link register save eliminated.
  99              	.LVL5:
 100 0000 10B4     		push	{r4}
 101              	.LCFI1:
 102              		.cfi_def_cfa_offset 4
 103              		.cfi_offset 4, -4
 104              		.loc 1 95 0
 105 0002 C361     		str	r3, [r0, #28]
 106              		.loc 1 96 0
 107 0004 019B     		ldr	r3, [sp, #4]
 108              	.LVL6:
 109              		.loc 1 91 0
 110 0006 4060     		str	r0, [r0, #4]
 111              		.loc 1 94 0
 112 0008 8A18     		adds	r2, r1, r2
 113              	.LVL7:
 114              		.loc 1 92 0
ARM GAS  /tmp/ccRaoIkN.s 			page 3


 115 000a 0024     		movs	r4, #0
 116              		.loc 1 91 0
 117 000c 0060     		str	r0, [r0, #0]
 118              		.loc 1 92 0
 119 000e 8460     		str	r4, [r0, #8]
 120              		.loc 1 93 0
 121 0010 4161     		str	r1, [r0, #20]
 122 0012 8161     		str	r1, [r0, #24]
 123 0014 C160     		str	r1, [r0, #12]
 124              		.loc 1 94 0
 125 0016 0261     		str	r2, [r0, #16]
 126              		.loc 1 96 0
 127 0018 0362     		str	r3, [r0, #32]
 128              		.loc 1 97 0
 129 001a 10BC     		pop	{r4}
 130 001c 7047     		bx	lr
 131              		.cfi_endproc
 132              	.LFE8:
 133              		.size	chIQInit, .-chIQInit
 134 001e 00BF     		.section	.text.chIQResetI,"ax",%progbits
 135              		.align	2
 136              		.p2align 4,,15
 137              		.global	chIQResetI
 138              		.thumb
 139              		.thumb_func
 140              		.type	chIQResetI, %function
 141              	chIQResetI:
 142              	.LFB9:
 143              		.loc 1 110 0
 144              		.cfi_startproc
 145              		@ args = 0, pretend = 0, frame = 0
 146              		@ frame_needed = 0, uses_anonymous_args = 0
 147              	.LVL8:
 148 0000 38B5     		push	{r3, r4, r5, lr}
 149              	.LCFI2:
 150              		.cfi_def_cfa_offset 16
 151              		.cfi_offset 3, -16
 152              		.cfi_offset 4, -12
 153              		.cfi_offset 5, -8
 154              		.cfi_offset 14, -4
 155              		.loc 1 110 0
 156 0002 0446     		mov	r4, r0
 157              		.loc 1 112 0
 158 0004 FFF7FEFF 		bl	chDbgCheckClassI
 159              	.LVL9:
 160              		.loc 1 114 0
 161 0008 E368     		ldr	r3, [r4, #12]
 162              		.loc 1 116 0
 163 000a 2068     		ldr	r0, [r4, #0]
 164              		.loc 1 114 0
 165 000c 6361     		str	r3, [r4, #20]
 166 000e A361     		str	r3, [r4, #24]
 167              		.loc 1 115 0
 168 0010 0023     		movs	r3, #0
 169              		.loc 1 116 0
 170 0012 A042     		cmp	r0, r4
 171              		.loc 1 115 0
ARM GAS  /tmp/ccRaoIkN.s 			page 4


 172 0014 A360     		str	r3, [r4, #8]
 173              		.loc 1 116 0
 174 0016 0AD0     		beq	.L7
 175              		.loc 1 117 0
 176 0018 6FF00105 		mvn	r5, #1
 177              	.L11:
 178              	.LVL10:
 179              	.LBB16:
 180              	.LBB17:
 181              		.loc 2 55 0
 182 001c 0368     		ldr	r3, [r0, #0]
 183 001e 2360     		str	r3, [r4, #0]
 184 0020 5C60     		str	r4, [r3, #4]
 185              	.LBE17:
 186              	.LBE16:
 187              		.loc 1 117 0
 188 0022 FFF7FEFF 		bl	chSchReadyI
 189              	.LVL11:
 190 0026 8562     		str	r5, [r0, #40]
 191              		.loc 1 116 0
 192 0028 2068     		ldr	r0, [r4, #0]
 193 002a A042     		cmp	r0, r4
 194 002c F6D1     		bne	.L11
 195              	.LVL12:
 196              	.L7:
 197 002e 38BD     		pop	{r3, r4, r5, pc}
 198              		.cfi_endproc
 199              	.LFE9:
 200              		.size	chIQResetI, .-chIQResetI
 201              		.section	.text.chIQPutI,"ax",%progbits
 202              		.align	2
 203              		.p2align 4,,15
 204              		.global	chIQPutI
 205              		.thumb
 206              		.thumb_func
 207              		.type	chIQPutI, %function
 208              	chIQPutI:
 209              	.LFB10:
 210              		.loc 1 133 0
 211              		.cfi_startproc
 212              		@ args = 0, pretend = 0, frame = 0
 213              		@ frame_needed = 0, uses_anonymous_args = 0
 214              	.LVL13:
 215 0000 38B5     		push	{r3, r4, r5, lr}
 216              	.LCFI3:
 217              		.cfi_def_cfa_offset 16
 218              		.cfi_offset 3, -16
 219              		.cfi_offset 4, -12
 220              		.cfi_offset 5, -8
 221              		.cfi_offset 14, -4
 222              		.loc 1 133 0
 223 0002 0446     		mov	r4, r0
 224 0004 0D46     		mov	r5, r1
 225              		.loc 1 135 0
 226 0006 FFF7FEFF 		bl	chDbgCheckClassI
 227              	.LVL14:
 228              		.loc 1 137 0
ARM GAS  /tmp/ccRaoIkN.s 			page 5


 229 000a A269     		ldr	r2, [r4, #24]
 230 000c 6369     		ldr	r3, [r4, #20]
 231 000e 9342     		cmp	r3, r2
 232 0010 A268     		ldr	r2, [r4, #8]
 233 0012 18D0     		beq	.L14
 234              	.L15:
 235              		.loc 1 140 0
 236 0014 0132     		adds	r2, r2, #1
 237 0016 A260     		str	r2, [r4, #8]
 238              		.loc 1 141 0
 239 0018 03F8015B 		strb	r5, [r3], #1
 240              		.loc 1 142 0
 241 001c 2269     		ldr	r2, [r4, #16]
 242              		.loc 1 141 0
 243 001e 6361     		str	r3, [r4, #20]
 244              		.loc 1 142 0
 245 0020 9342     		cmp	r3, r2
 246              		.loc 1 143 0
 247 0022 28BF     		it	cs
 248 0024 E368     		ldrcs	r3, [r4, #12]
 249              		.loc 1 145 0
 250 0026 2068     		ldr	r0, [r4, #0]
 251              		.loc 1 143 0
 252 0028 28BF     		it	cs
 253 002a 6361     		strcs	r3, [r4, #20]
 254              		.loc 1 145 0
 255 002c A042     		cmp	r0, r4
 256 002e 08D0     		beq	.L19
 257              	.LVL15:
 258              	.LBB18:
 259              	.LBB19:
 260              		.loc 2 55 0
 261 0030 0368     		ldr	r3, [r0, #0]
 262 0032 2360     		str	r3, [r4, #0]
 263 0034 5C60     		str	r4, [r3, #4]
 264              	.LBE19:
 265              	.LBE18:
 266              		.loc 1 146 0
 267 0036 FFF7FEFF 		bl	chSchReadyI
 268              	.LVL16:
 269 003a 0023     		movs	r3, #0
 270 003c 8362     		str	r3, [r0, #40]
 271              		.loc 1 148 0
 272 003e 1846     		mov	r0, r3
 273 0040 38BD     		pop	{r3, r4, r5, pc}
 274              	.LVL17:
 275              	.L19:
 276 0042 0020     		movs	r0, #0
 277              		.loc 1 149 0
 278 0044 38BD     		pop	{r3, r4, r5, pc}
 279              	.L14:
 280              		.loc 1 137 0 discriminator 1
 281 0046 002A     		cmp	r2, #0
 282 0048 E4D0     		beq	.L15
 283              		.loc 1 138 0
 284 004a 6FF00300 		mvn	r0, #3
 285 004e 38BD     		pop	{r3, r4, r5, pc}
ARM GAS  /tmp/ccRaoIkN.s 			page 6


 286              		.cfi_endproc
 287              	.LFE10:
 288              		.size	chIQPutI, .-chIQPutI
 289              		.section	.text.chIQGetTimeout,"ax",%progbits
 290              		.align	2
 291              		.p2align 4,,15
 292              		.global	chIQGetTimeout
 293              		.thumb
 294              		.thumb_func
 295              		.type	chIQGetTimeout, %function
 296              	chIQGetTimeout:
 297              	.LFB11:
 298              		.loc 1 171 0
 299              		.cfi_startproc
 300              		@ args = 0, pretend = 0, frame = 0
 301              		@ frame_needed = 0, uses_anonymous_args = 0
 302              	.LVL18:
 303 0000 F8B5     		push	{r3, r4, r5, r6, r7, lr}
 304              	.LCFI4:
 305              		.cfi_def_cfa_offset 24
 306              		.cfi_offset 3, -24
 307              		.cfi_offset 4, -20
 308              		.cfi_offset 5, -16
 309              		.cfi_offset 6, -12
 310              		.cfi_offset 7, -8
 311              		.cfi_offset 14, -4
 312              		.loc 1 171 0
 313 0002 0446     		mov	r4, r0
 314 0004 0E46     		mov	r6, r1
 315              	.LBB20:
 316              		.loc 1 174 0
 317 0006 2023     		movs	r3, #32
 318              	.LVL19:
 319              	@ 174 "../../ChibiOS/os/kernel/src/chqueues.c" 1
 320 0008 83F31188 		msr     BASEPRI, r3
 321              	@ 0 "" 2
 322              	.LVL20:
 323              		.thumb
 324              	.LBE20:
 325 000c FFF7FEFF 		bl	dbg_check_lock
 326              	.LVL21:
 327              		.loc 1 175 0
 328 0010 E369     		ldr	r3, [r4, #28]
 329 0012 0BB1     		cbz	r3, .L28
 330              		.loc 1 176 0
 331 0014 2046     		mov	r0, r4
 332 0016 9847     		blx	r3
 333              	.LVL22:
 334              	.L28:
 335              		.loc 1 178 0 discriminator 1
 336 0018 A568     		ldr	r5, [r4, #8]
 337              	.LBB21:
 338              		.loc 1 180 0 discriminator 1
 339 001a 2046     		mov	r0, r4
 340 001c 3146     		mov	r1, r6
 341              	.LBE21:
 342              		.loc 1 178 0 discriminator 1
ARM GAS  /tmp/ccRaoIkN.s 			page 7


 343 001e 55B9     		cbnz	r5, .L31
 344              	.LVL23:
 345              	.LBB23:
 346              		.loc 1 180 0
 347 0020 FFF7FEFF 		bl	qwait
 348              	.LVL24:
 349 0024 071E     		subs	r7, r0, #0
 350 0026 F7DA     		bge	.L28
 351              		.loc 1 181 0
 352 0028 FFF7FEFF 		bl	dbg_check_unlock
 353              	.LVL25:
 354              	.LBB22:
 355 002c 2B46     		mov	r3, r5
 356              	.LVL26:
 357              	@ 181 "../../ChibiOS/os/kernel/src/chqueues.c" 1
 358 002e 83F31188 		msr     BASEPRI, r3
 359              	@ 0 "" 2
 360              	.LVL27:
 361              		.thumb
 362              	.LBE22:
 363              	.LBE23:
 364              		.loc 1 193 0
 365 0032 3846     		mov	r0, r7
 366 0034 F8BD     		pop	{r3, r4, r5, r6, r7, pc}
 367              	.LVL28:
 368              	.L31:
 369              		.loc 1 187 0
 370 0036 A369     		ldr	r3, [r4, #24]
 371              		.loc 1 188 0
 372 0038 2269     		ldr	r2, [r4, #16]
 373              		.loc 1 186 0
 374 003a 013D     		subs	r5, r5, #1
 375 003c A560     		str	r5, [r4, #8]
 376              		.loc 1 187 0
 377 003e 13F8017B 		ldrb	r7, [r3], #1	@ zero_extendqisi2
 378              	.LVL29:
 379              		.loc 1 188 0
 380 0042 9342     		cmp	r3, r2
 381              		.loc 1 187 0
 382 0044 A361     		str	r3, [r4, #24]
 383              		.loc 1 189 0
 384 0046 24BF     		itt	cs
 385 0048 E368     		ldrcs	r3, [r4, #12]
 386 004a A361     		strcs	r3, [r4, #24]
 387              		.loc 1 191 0
 388 004c FFF7FEFF 		bl	dbg_check_unlock
 389              	.LVL30:
 390              	.LBB24:
 391 0050 0023     		movs	r3, #0
 392              	.LVL31:
 393              	@ 191 "../../ChibiOS/os/kernel/src/chqueues.c" 1
 394 0052 83F31188 		msr     BASEPRI, r3
 395              	@ 0 "" 2
 396              	.LVL32:
 397              		.thumb
 398              	.LBE24:
 399              		.loc 1 193 0
ARM GAS  /tmp/ccRaoIkN.s 			page 8


 400 0056 3846     		mov	r0, r7
 401 0058 F8BD     		pop	{r3, r4, r5, r6, r7, pc}
 402              		.cfi_endproc
 403              	.LFE11:
 404              		.size	chIQGetTimeout, .-chIQGetTimeout
 405 005a 00BFAFF3 		.section	.text.chIQReadTimeout,"ax",%progbits
 405      0080
 406              		.align	2
 407              		.p2align 4,,15
 408              		.global	chIQReadTimeout
 409              		.thumb
 410              		.thumb_func
 411              		.type	chIQReadTimeout, %function
 412              	chIQReadTimeout:
 413              	.LFB12:
 414              		.loc 1 220 0
 415              		.cfi_startproc
 416              		@ args = 0, pretend = 0, frame = 0
 417              		@ frame_needed = 0, uses_anonymous_args = 0
 418              	.LVL33:
 419 0000 2DE9F047 		push	{r4, r5, r6, r7, r8, r9, sl, lr}
 420              	.LCFI5:
 421              		.cfi_def_cfa_offset 32
 422              		.cfi_offset 4, -32
 423              		.cfi_offset 5, -28
 424              		.cfi_offset 6, -24
 425              		.cfi_offset 7, -20
 426              		.cfi_offset 8, -16
 427              		.cfi_offset 9, -12
 428              		.cfi_offset 10, -8
 429              		.cfi_offset 14, -4
 430              		.loc 1 220 0
 431 0004 0446     		mov	r4, r0
 432              		.loc 1 224 0
 433 0006 1546     		mov	r5, r2
 434              		.loc 1 220 0
 435 0008 8846     		mov	r8, r1
 436 000a 1E46     		mov	r6, r3
 437              		.loc 1 221 0
 438 000c C769     		ldr	r7, [r0, #28]
 439              	.LVL34:
 440              		.loc 1 224 0
 441 000e 002A     		cmp	r2, #0
 442 0010 3AD0     		beq	.L48
 443              	.LVL35:
 444              	.L33:
 445              	.LBB25:
 446              		.loc 1 226 0
 447 0012 2023     		movs	r3, #32
 448              	.LVL36:
 449              	@ 226 "../../ChibiOS/os/kernel/src/chqueues.c" 1
 450 0014 83F31188 		msr     BASEPRI, r3
 451              	@ 0 "" 2
 452              	.LVL37:
 453              		.thumb
 454              	.LBE25:
 455 0018 FFF7FEFF 		bl	dbg_check_lock
ARM GAS  /tmp/ccRaoIkN.s 			page 9


 456              	.LVL38:
 457              		.loc 1 219 0
 458 001c 08F1010A 		add	sl, r8, #1
 459              		.loc 1 222 0
 460 0020 4FF00009 		mov	r9, #0
 461              		.loc 1 219 0
 462 0024 A844     		add	r8, r8, r5
 463              	.LVL39:
 464              	.L39:
 465              		.loc 1 228 0
 466 0026 0FB1     		cbz	r7, .L44
 467              		.loc 1 229 0
 468 0028 2046     		mov	r0, r4
 469 002a B847     		blx	r7
 470              	.LVL40:
 471              	.L44:
 472              		.loc 1 231 0 discriminator 1
 473 002c A568     		ldr	r5, [r4, #8]
 474              		.loc 1 232 0 discriminator 1
 475 002e 2046     		mov	r0, r4
 476 0030 3146     		mov	r1, r6
 477              		.loc 1 231 0 discriminator 1
 478 0032 5DB9     		cbnz	r5, .L49
 479              	.LVL41:
 480              		.loc 1 232 0
 481 0034 FFF7FEFF 		bl	qwait
 482              	.LVL42:
 483 0038 0028     		cmp	r0, #0
 484 003a F7D0     		beq	.L44
 485              		.loc 1 233 0
 486 003c FFF7FEFF 		bl	dbg_check_unlock
 487              	.LVL43:
 488              	.LBB26:
 489 0040 2B46     		mov	r3, r5
 490              	.LVL44:
 491              	@ 233 "../../ChibiOS/os/kernel/src/chqueues.c" 1
 492 0042 83F31188 		msr     BASEPRI, r3
 493              	@ 0 "" 2
 494              	.LVL45:
 495              		.thumb
 496              	.L36:
 497              	.LBE26:
 498              		.loc 1 250 0
 499 0046 4846     		mov	r0, r9
 500 0048 BDE8F087 		pop	{r4, r5, r6, r7, r8, r9, sl, pc}
 501              	.LVL46:
 502              	.L49:
 503              		.loc 1 239 0
 504 004c A369     		ldr	r3, [r4, #24]
 505              		.loc 1 238 0
 506 004e 013D     		subs	r5, r5, #1
 507 0050 A560     		str	r5, [r4, #8]
 508              		.loc 1 239 0
 509 0052 13F8012B 		ldrb	r2, [r3], #1	@ zero_extendqisi2
 510 0056 0AF8012C 		strb	r2, [sl, #-1]
 511              		.loc 1 240 0
 512 005a 2269     		ldr	r2, [r4, #16]
ARM GAS  /tmp/ccRaoIkN.s 			page 10


 513              		.loc 1 239 0
 514 005c A361     		str	r3, [r4, #24]
 515              		.loc 1 240 0
 516 005e 9342     		cmp	r3, r2
 517              		.loc 1 241 0
 518 0060 24BF     		itt	cs
 519 0062 E368     		ldrcs	r3, [r4, #12]
 520 0064 A361     		strcs	r3, [r4, #24]
 521              		.loc 1 243 0
 522 0066 FFF7FEFF 		bl	dbg_check_unlock
 523              	.LVL47:
 524              	.LBB27:
 525 006a 0023     		movs	r3, #0
 526              	@ 243 "../../ChibiOS/os/kernel/src/chqueues.c" 1
 527 006c 83F31188 		msr     BASEPRI, r3
 528              	@ 0 "" 2
 529              	.LVL48:
 530              		.thumb
 531              	.LBE27:
 532              		.loc 1 245 0
 533 0070 C245     		cmp	sl, r8
 534              		.loc 1 244 0
 535 0072 09F10109 		add	r9, r9, #1
 536              	.LVL49:
 537              		.loc 1 245 0
 538 0076 E6D0     		beq	.L36
 539              	.LBB28:
 540              		.loc 1 248 0
 541 0078 2023     		movs	r3, #32
 542              	.LVL50:
 543              	@ 248 "../../ChibiOS/os/kernel/src/chqueues.c" 1
 544 007a 83F31188 		msr     BASEPRI, r3
 545              	@ 0 "" 2
 546              	.LVL51:
 547              		.thumb
 548              	.LBE28:
 549 007e FFF7FEFF 		bl	dbg_check_lock
 550              	.LVL52:
 551 0082 0AF1010A 		add	sl, sl, #1
 552              		.loc 1 249 0
 553 0086 CEE7     		b	.L39
 554              	.LVL53:
 555              	.L48:
 556              		.loc 1 224 0 discriminator 1
 557 0088 0148     		ldr	r0, .L50
 558              	.LVL54:
 559 008a FFF7FEFF 		bl	chDbgPanic
 560              	.LVL55:
 561 008e C0E7     		b	.L33
 562              	.L51:
 563              		.align	2
 564              	.L50:
 565 0090 00000000 		.word	.LC0
 566              		.cfi_endproc
 567              	.LFE12:
 568              		.size	chIQReadTimeout, .-chIQReadTimeout
 569 0094 AFF30080 		.section	.text.chOQInit,"ax",%progbits
ARM GAS  /tmp/ccRaoIkN.s 			page 11


 569      AFF30080 
 569      AFF30080 
 570              		.align	2
 571              		.p2align 4,,15
 572              		.global	chOQInit
 573              		.thumb
 574              		.thumb_func
 575              		.type	chOQInit, %function
 576              	chOQInit:
 577              	.LFB13:
 578              		.loc 1 269 0
 579              		.cfi_startproc
 580              		@ args = 4, pretend = 0, frame = 0
 581              		@ frame_needed = 0, uses_anonymous_args = 0
 582              		@ link register save eliminated.
 583              	.LVL56:
 584 0000 10B4     		push	{r4}
 585              	.LCFI6:
 586              		.cfi_def_cfa_offset 4
 587              		.cfi_offset 4, -4
 588              		.loc 1 275 0
 589 0002 C361     		str	r3, [r0, #28]
 590              		.loc 1 276 0
 591 0004 019B     		ldr	r3, [sp, #4]
 592              	.LVL57:
 593              		.loc 1 271 0
 594 0006 4060     		str	r0, [r0, #4]
 595              		.loc 1 274 0
 596 0008 8C18     		adds	r4, r1, r2
 597              		.loc 1 271 0
 598 000a 0060     		str	r0, [r0, #0]
 599              		.loc 1 272 0
 600 000c 8260     		str	r2, [r0, #8]
 601              		.loc 1 273 0
 602 000e 4161     		str	r1, [r0, #20]
 603 0010 8161     		str	r1, [r0, #24]
 604 0012 C160     		str	r1, [r0, #12]
 605              		.loc 1 274 0
 606 0014 0461     		str	r4, [r0, #16]
 607              		.loc 1 276 0
 608 0016 0362     		str	r3, [r0, #32]
 609              		.loc 1 277 0
 610 0018 10BC     		pop	{r4}
 611 001a 7047     		bx	lr
 612              		.cfi_endproc
 613              	.LFE13:
 614              		.size	chOQInit, .-chOQInit
 615 001c AFF30080 		.section	.text.chOQResetI,"ax",%progbits
 616              		.align	2
 617              		.p2align 4,,15
 618              		.global	chOQResetI
 619              		.thumb
 620              		.thumb_func
 621              		.type	chOQResetI, %function
 622              	chOQResetI:
 623              	.LFB14:
 624              		.loc 1 290 0
ARM GAS  /tmp/ccRaoIkN.s 			page 12


 625              		.cfi_startproc
 626              		@ args = 0, pretend = 0, frame = 0
 627              		@ frame_needed = 0, uses_anonymous_args = 0
 628              	.LVL58:
 629 0000 38B5     		push	{r3, r4, r5, lr}
 630              	.LCFI7:
 631              		.cfi_def_cfa_offset 16
 632              		.cfi_offset 3, -16
 633              		.cfi_offset 4, -12
 634              		.cfi_offset 5, -8
 635              		.cfi_offset 14, -4
 636              		.loc 1 290 0
 637 0002 0446     		mov	r4, r0
 638              		.loc 1 292 0
 639 0004 FFF7FEFF 		bl	chDbgCheckClassI
 640              	.LVL59:
 641              		.loc 1 294 0
 642 0008 E368     		ldr	r3, [r4, #12]
 643              		.loc 1 295 0
 644 000a 2269     		ldr	r2, [r4, #16]
 645              		.loc 1 296 0
 646 000c 2068     		ldr	r0, [r4, #0]
 647              		.loc 1 294 0
 648 000e 6361     		str	r3, [r4, #20]
 649              		.loc 1 295 0
 650 0010 D21A     		subs	r2, r2, r3
 651              		.loc 1 296 0
 652 0012 A042     		cmp	r0, r4
 653              		.loc 1 294 0
 654 0014 A361     		str	r3, [r4, #24]
 655              		.loc 1 295 0
 656 0016 A260     		str	r2, [r4, #8]
 657              		.loc 1 296 0
 658 0018 0AD0     		beq	.L53
 659              		.loc 1 297 0
 660 001a 6FF00105 		mvn	r5, #1
 661              	.L57:
 662              	.LVL60:
 663              	.LBB29:
 664              	.LBB30:
 665              		.loc 2 55 0
 666 001e 0368     		ldr	r3, [r0, #0]
 667 0020 2360     		str	r3, [r4, #0]
 668 0022 5C60     		str	r4, [r3, #4]
 669              	.LBE30:
 670              	.LBE29:
 671              		.loc 1 297 0
 672 0024 FFF7FEFF 		bl	chSchReadyI
 673              	.LVL61:
 674 0028 8562     		str	r5, [r0, #40]
 675              		.loc 1 296 0
 676 002a 2068     		ldr	r0, [r4, #0]
 677 002c A042     		cmp	r0, r4
 678 002e F6D1     		bne	.L57
 679              	.LVL62:
 680              	.L53:
 681 0030 38BD     		pop	{r3, r4, r5, pc}
ARM GAS  /tmp/ccRaoIkN.s 			page 13


 682              		.cfi_endproc
 683              	.LFE14:
 684              		.size	chOQResetI, .-chOQResetI
 685 0032 00BFAFF3 		.section	.text.chOQPutTimeout,"ax",%progbits
 685      0080AFF3 
 685      0080AFF3 
 685      0080
 686              		.align	2
 687              		.p2align 4,,15
 688              		.global	chOQPutTimeout
 689              		.thumb
 690              		.thumb_func
 691              		.type	chOQPutTimeout, %function
 692              	chOQPutTimeout:
 693              	.LFB15:
 694              		.loc 1 322 0
 695              		.cfi_startproc
 696              		@ args = 0, pretend = 0, frame = 0
 697              		@ frame_needed = 0, uses_anonymous_args = 0
 698              	.LVL63:
 699 0000 2DE9F041 		push	{r4, r5, r6, r7, r8, lr}
 700              	.LCFI8:
 701              		.cfi_def_cfa_offset 24
 702              		.cfi_offset 4, -24
 703              		.cfi_offset 5, -20
 704              		.cfi_offset 6, -16
 705              		.cfi_offset 7, -12
 706              		.cfi_offset 8, -8
 707              		.cfi_offset 14, -4
 708              	.LBB31:
 709              		.loc 1 324 0
 710 0004 2023     		movs	r3, #32
 711              	.LVL64:
 712              	.LBE31:
 713              		.loc 1 322 0
 714 0006 0446     		mov	r4, r0
 715 0008 8846     		mov	r8, r1
 716 000a 1646     		mov	r6, r2
 717              	.LBB32:
 718              		.loc 1 324 0
 719              	@ 324 "../../ChibiOS/os/kernel/src/chqueues.c" 1
 720 000c 83F31188 		msr     BASEPRI, r3
 721              	@ 0 "" 2
 722              	.LVL65:
 723              		.thumb
 724              	.LBE32:
 725 0010 FFF7FEFF 		bl	dbg_check_lock
 726              	.LVL66:
 727              	.L60:
 728              		.loc 1 325 0 discriminator 1
 729 0014 A568     		ldr	r5, [r4, #8]
 730              	.LBB33:
 731              		.loc 1 328 0 discriminator 1
 732 0016 2046     		mov	r0, r4
 733 0018 3146     		mov	r1, r6
 734              	.LBE33:
 735              		.loc 1 325 0 discriminator 1
ARM GAS  /tmp/ccRaoIkN.s 			page 14


 736 001a 5DB9     		cbnz	r5, .L69
 737              	.LVL67:
 738              	.LBB35:
 739              		.loc 1 328 0
 740 001c FFF7FEFF 		bl	qwait
 741              	.LVL68:
 742 0020 071E     		subs	r7, r0, #0
 743 0022 F7DA     		bge	.L60
 744              		.loc 1 329 0
 745 0024 FFF7FEFF 		bl	dbg_check_unlock
 746              	.LVL69:
 747              	.LBB34:
 748 0028 2B46     		mov	r3, r5
 749              	.LVL70:
 750              	@ 329 "../../ChibiOS/os/kernel/src/chqueues.c" 1
 751 002a 83F31188 		msr     BASEPRI, r3
 752              	@ 0 "" 2
 753              	.LVL71:
 754              		.thumb
 755              	.LBE34:
 756              	.LBE35:
 757              		.loc 1 344 0
 758 002e 3846     		mov	r0, r7
 759 0030 BDE8F081 		pop	{r4, r5, r6, r7, r8, pc}
 760              	.LVL72:
 761              	.L69:
 762              		.loc 1 335 0
 763 0034 6369     		ldr	r3, [r4, #20]
 764              		.loc 1 334 0
 765 0036 013D     		subs	r5, r5, #1
 766 0038 A560     		str	r5, [r4, #8]
 767              		.loc 1 335 0
 768 003a 03F8018B 		strb	r8, [r3], #1
 769              		.loc 1 336 0
 770 003e 2269     		ldr	r2, [r4, #16]
 771              		.loc 1 335 0
 772 0040 6361     		str	r3, [r4, #20]
 773              		.loc 1 336 0
 774 0042 9342     		cmp	r3, r2
 775              		.loc 1 337 0
 776 0044 24BF     		itt	cs
 777 0046 E368     		ldrcs	r3, [r4, #12]
 778 0048 6361     		strcs	r3, [r4, #20]
 779              		.loc 1 339 0
 780 004a E369     		ldr	r3, [r4, #28]
 781 004c 0BB1     		cbz	r3, .L64
 782              		.loc 1 340 0
 783 004e 2046     		mov	r0, r4
 784              	.LVL73:
 785 0050 9847     		blx	r3
 786              	.LVL74:
 787              	.L64:
 788              		.loc 1 342 0
 789 0052 FFF7FEFF 		bl	dbg_check_unlock
 790              	.LVL75:
 791              	.LBB36:
 792 0056 0023     		movs	r3, #0
ARM GAS  /tmp/ccRaoIkN.s 			page 15


 793              	.LVL76:
 794              	@ 342 "../../ChibiOS/os/kernel/src/chqueues.c" 1
 795 0058 83F31188 		msr     BASEPRI, r3
 796              	@ 0 "" 2
 797              	.LVL77:
 798              		.thumb
 799              	.LBE36:
 800              		.loc 1 343 0
 801 005c 1F46     		mov	r7, r3
 802              		.loc 1 344 0
 803 005e 3846     		mov	r0, r7
 804 0060 BDE8F081 		pop	{r4, r5, r6, r7, r8, pc}
 805              		.cfi_endproc
 806              	.LFE15:
 807              		.size	chOQPutTimeout, .-chOQPutTimeout
 808 0064 AFF30080 		.section	.text.chOQGetI,"ax",%progbits
 808      AFF30080 
 808      AFF30080 
 809              		.align	2
 810              		.p2align 4,,15
 811              		.global	chOQGetI
 812              		.thumb
 813              		.thumb_func
 814              		.type	chOQGetI, %function
 815              	chOQGetI:
 816              	.LFB16:
 817              		.loc 1 356 0
 818              		.cfi_startproc
 819              		@ args = 0, pretend = 0, frame = 0
 820              		@ frame_needed = 0, uses_anonymous_args = 0
 821              	.LVL78:
 822 0000 38B5     		push	{r3, r4, r5, lr}
 823              	.LCFI9:
 824              		.cfi_def_cfa_offset 16
 825              		.cfi_offset 3, -16
 826              		.cfi_offset 4, -12
 827              		.cfi_offset 5, -8
 828              		.cfi_offset 14, -4
 829              		.loc 1 356 0
 830 0002 0446     		mov	r4, r0
 831              		.loc 1 359 0
 832 0004 FFF7FEFF 		bl	chDbgCheckClassI
 833              	.LVL79:
 834              		.loc 1 361 0
 835 0008 6269     		ldr	r2, [r4, #20]
 836 000a A369     		ldr	r3, [r4, #24]
 837 000c 9A42     		cmp	r2, r3
 838 000e A268     		ldr	r2, [r4, #8]
 839 0010 16D0     		beq	.L71
 840              	.L72:
 841              		.loc 1 364 0
 842 0012 0132     		adds	r2, r2, #1
 843 0014 A260     		str	r2, [r4, #8]
 844              		.loc 1 365 0
 845 0016 13F8015B 		ldrb	r5, [r3], #1	@ zero_extendqisi2
 846              	.LVL80:
 847              		.loc 1 366 0
ARM GAS  /tmp/ccRaoIkN.s 			page 16


 848 001a 2269     		ldr	r2, [r4, #16]
 849              		.loc 1 365 0
 850 001c A361     		str	r3, [r4, #24]
 851              		.loc 1 366 0
 852 001e 9342     		cmp	r3, r2
 853              		.loc 1 367 0
 854 0020 28BF     		it	cs
 855 0022 E368     		ldrcs	r3, [r4, #12]
 856              		.loc 1 369 0
 857 0024 2068     		ldr	r0, [r4, #0]
 858              		.loc 1 367 0
 859 0026 28BF     		it	cs
 860 0028 A361     		strcs	r3, [r4, #24]
 861              		.loc 1 369 0
 862 002a A042     		cmp	r0, r4
 863 002c 06D0     		beq	.L75
 864              	.LVL81:
 865              	.LBB37:
 866              	.LBB38:
 867              		.loc 2 55 0
 868 002e 0368     		ldr	r3, [r0, #0]
 869 0030 2360     		str	r3, [r4, #0]
 870 0032 5C60     		str	r4, [r3, #4]
 871              	.LBE38:
 872              	.LBE37:
 873              		.loc 1 370 0
 874 0034 FFF7FEFF 		bl	chSchReadyI
 875              	.LVL82:
 876 0038 0023     		movs	r3, #0
 877 003a 8362     		str	r3, [r0, #40]
 878              	.LVL83:
 879              	.L75:
 880              		.loc 1 372 0
 881 003c 2846     		mov	r0, r5
 882 003e 38BD     		pop	{r3, r4, r5, pc}
 883              	.LVL84:
 884              	.L71:
 885              		.loc 1 361 0 discriminator 1
 886 0040 002A     		cmp	r2, #0
 887 0042 E6D0     		beq	.L72
 888              		.loc 1 362 0
 889 0044 6FF00200 		mvn	r0, #2
 890              		.loc 1 373 0
 891 0048 38BD     		pop	{r3, r4, r5, pc}
 892              		.cfi_endproc
 893              	.LFE16:
 894              		.size	chOQGetI, .-chOQGetI
 895 004a 00BFAFF3 		.section	.text.chOQWriteTimeout,"ax",%progbits
 895      0080
 896              		.align	2
 897              		.p2align 4,,15
 898              		.global	chOQWriteTimeout
 899              		.thumb
 900              		.thumb_func
 901              		.type	chOQWriteTimeout, %function
 902              	chOQWriteTimeout:
 903              	.LFB17:
ARM GAS  /tmp/ccRaoIkN.s 			page 17


 904              		.loc 1 400 0
 905              		.cfi_startproc
 906              		@ args = 0, pretend = 0, frame = 0
 907              		@ frame_needed = 0, uses_anonymous_args = 0
 908              	.LVL85:
 909 0000 2DE9F047 		push	{r4, r5, r6, r7, r8, r9, sl, lr}
 910              	.LCFI10:
 911              		.cfi_def_cfa_offset 32
 912              		.cfi_offset 4, -32
 913              		.cfi_offset 5, -28
 914              		.cfi_offset 6, -24
 915              		.cfi_offset 7, -20
 916              		.cfi_offset 8, -16
 917              		.cfi_offset 9, -12
 918              		.cfi_offset 10, -8
 919              		.cfi_offset 14, -4
 920              		.loc 1 400 0
 921 0004 0446     		mov	r4, r0
 922              		.loc 1 404 0
 923 0006 1646     		mov	r6, r2
 924              		.loc 1 400 0
 925 0008 8846     		mov	r8, r1
 926 000a 9A46     		mov	sl, r3
 927              		.loc 1 401 0
 928 000c D0F81C90 		ldr	r9, [r0, #28]
 929              	.LVL86:
 930              		.loc 1 404 0
 931 0010 002A     		cmp	r2, #0
 932 0012 39D0     		beq	.L97
 933              	.LVL87:
 934              	.L78:
 935              	.LBB39:
 936              		.loc 1 406 0
 937 0014 2023     		movs	r3, #32
 938              	.LVL88:
 939              	@ 406 "../../ChibiOS/os/kernel/src/chqueues.c" 1
 940 0016 83F31188 		msr     BASEPRI, r3
 941              	@ 0 "" 2
 942              	.LVL89:
 943              		.thumb
 944              	.LBE39:
 945 001a FFF7FEFF 		bl	dbg_check_lock
 946              	.LVL90:
 947              		.loc 1 402 0
 948 001e 0027     		movs	r7, #0
 949              	.LVL91:
 950              	.L96:
 951              		.loc 1 408 0 discriminator 1
 952 0020 A568     		ldr	r5, [r4, #8]
 953              		.loc 1 420 0 discriminator 1
 954 0022 2046     		mov	r0, r4
 955              		.loc 1 414 0 discriminator 1
 956 0024 6B1E     		subs	r3, r5, #1
 957              		.loc 1 408 0 discriminator 1
 958 0026 0DB3     		cbz	r5, .L82
 959              	.LVL92:
 960              	.L98:
ARM GAS  /tmp/ccRaoIkN.s 			page 18


 961              		.loc 1 414 0
 962 0028 A360     		str	r3, [r4, #8]
 963              		.loc 1 415 0
 964 002a 18F8013B 		ldrb	r3, [r8], #1	@ zero_extendqisi2
 965              	.LVL93:
 966 002e 6569     		ldr	r5, [r4, #20]
 967 0030 05F8013B 		strb	r3, [r5], #1
 968              		.loc 1 416 0
 969 0034 2369     		ldr	r3, [r4, #16]
 970              		.loc 1 415 0
 971 0036 6561     		str	r5, [r4, #20]
 972              	.LVL94:
 973              		.loc 1 416 0
 974 0038 9D42     		cmp	r5, r3
 975              		.loc 1 417 0
 976 003a 24BF     		itt	cs
 977 003c E368     		ldrcs	r3, [r4, #12]
 978 003e 6361     		strcs	r3, [r4, #20]
 979              		.loc 1 419 0
 980 0040 B9F1000F 		cmp	r9, #0
 981 0044 00D0     		beq	.L84
 982              		.loc 1 420 0
 983 0046 C847     		blx	r9
 984              	.LVL95:
 985              	.L84:
 986              		.loc 1 422 0
 987 0048 FFF7FEFF 		bl	dbg_check_unlock
 988              	.LVL96:
 989              	.LBB40:
 990 004c 0023     		movs	r3, #0
 991              	.LVL97:
 992              	@ 422 "../../ChibiOS/os/kernel/src/chqueues.c" 1
 993 004e 83F31188 		msr     BASEPRI, r3
 994              	@ 0 "" 2
 995              	.LVL98:
 996              		.thumb
 997              	.LBE40:
 998              		.loc 1 423 0
 999 0052 0137     		adds	r7, r7, #1
 1000              	.LVL99:
 1001              		.loc 1 424 0
 1002 0054 013E     		subs	r6, r6, #1
 1003              	.LVL100:
 1004 0056 14D0     		beq	.L81
 1005              	.LBB41:
 1006              		.loc 1 426 0
 1007 0058 2023     		movs	r3, #32
 1008              	.LVL101:
 1009              	@ 426 "../../ChibiOS/os/kernel/src/chqueues.c" 1
 1010 005a 83F31188 		msr     BASEPRI, r3
 1011              	@ 0 "" 2
 1012              	.LVL102:
 1013              		.thumb
 1014              	.LBE41:
 1015 005e FFF7FEFF 		bl	dbg_check_lock
 1016              	.LVL103:
 1017              		.loc 1 408 0
ARM GAS  /tmp/ccRaoIkN.s 			page 19


 1018 0062 A568     		ldr	r5, [r4, #8]
 1019              		.loc 1 420 0
 1020 0064 2046     		mov	r0, r4
 1021              		.loc 1 414 0
 1022 0066 6B1E     		subs	r3, r5, #1
 1023              		.loc 1 408 0
 1024 0068 002D     		cmp	r5, #0
 1025 006a DDD1     		bne	.L98
 1026              	.LVL104:
 1027              	.L82:
 1028              		.loc 1 409 0
 1029 006c 2046     		mov	r0, r4
 1030              	.LVL105:
 1031 006e 5146     		mov	r1, sl
 1032 0070 FFF7FEFF 		bl	qwait
 1033              	.LVL106:
 1034 0074 0028     		cmp	r0, #0
 1035 0076 D3D0     		beq	.L96
 1036              		.loc 1 410 0
 1037 0078 FFF7FEFF 		bl	dbg_check_unlock
 1038              	.LVL107:
 1039              	.LBB42:
 1040 007c 2B46     		mov	r3, r5
 1041              	.LVL108:
 1042              	@ 410 "../../ChibiOS/os/kernel/src/chqueues.c" 1
 1043 007e 83F31188 		msr     BASEPRI, r3
 1044              	@ 0 "" 2
 1045              	.LVL109:
 1046              		.thumb
 1047              	.L81:
 1048              	.LBE42:
 1049              		.loc 1 428 0
 1050 0082 3846     		mov	r0, r7
 1051 0084 BDE8F087 		pop	{r4, r5, r6, r7, r8, r9, sl, pc}
 1052              	.LVL110:
 1053              	.L97:
 1054              		.loc 1 404 0 discriminator 1
 1055 0088 0148     		ldr	r0, .L99
 1056              	.LVL111:
 1057 008a FFF7FEFF 		bl	chDbgPanic
 1058              	.LVL112:
 1059 008e C1E7     		b	.L78
 1060              	.L100:
 1061              		.align	2
 1062              	.L99:
 1063 0090 14000000 		.word	.LC1
 1064              		.cfi_endproc
 1065              	.LFE17:
 1066              		.size	chOQWriteTimeout, .-chOQWriteTimeout
 1067 0094 AFF30080 		.section	.rodata.str1.4,"aMS",%progbits,1
 1067      AFF30080 
 1067      AFF30080 
 1068              		.align	2
 1069              	.LC0:
 1070 0000 22636849 		.ascii	"\"chIQReadTimeout\"()\000"
 1070      51526561 
 1070      6454696D 
ARM GAS  /tmp/ccRaoIkN.s 			page 20


 1070      656F7574 
 1070      22282900 
 1071              	.LC1:
 1072 0014 2263684F 		.ascii	"\"chOQWriteTimeout\"()\000"
 1072      51577269 
 1072      74655469 
 1072      6D656F75 
 1072      74222829 
 1073 0029 000000   		.text
 1074              	.Letext0:
 1075              		.file 3 "/home/david/toolchains/psas/x-tools/stm32f407/arm-psas-eabi/bin/../lib/gcc/arm-psas-eabi/
 1076              		.file 4 "/home/david/toolchains/psas/x-tools/stm32f407/arm-psas-eabi/bin/../lib/gcc/arm-psas-eabi/
 1077              		.file 5 "../../ChibiOS/os/ports/GCC/ARMCMx/chtypes.h"
 1078              		.file 6 "../../ChibiOS/os/kernel/include/chlists.h"
 1079              		.file 7 "../../ChibiOS/os/kernel/include/chthreads.h"
 1080              		.file 8 "../../ChibiOS/os/ports/GCC/ARMCMx/chcore_v7m.h"
 1081              		.file 9 "../../ChibiOS/os/kernel/include/chschd.h"
 1082              		.file 10 "../../ChibiOS/os/kernel/include/chmtx.h"
 1083              		.file 11 "../../ChibiOS/os/kernel/include/chqueues.h"
 1084              		.file 12 "../../ChibiOS/os/kernel/include/chdebug.h"