ARM GAS  /tmp/ccwv3sr0.s 			page 1


   1              		.syntax unified
   2              		.cpu cortex-m4
   3              		.eabi_attribute 27, 3
   4              		.eabi_attribute 28, 1
   5              		.fpu fpv4-sp-d16
   6              		.eabi_attribute 20, 1
   7              		.eabi_attribute 21, 1
   8              		.eabi_attribute 23, 3
   9              		.eabi_attribute 24, 1
  10              		.eabi_attribute 25, 1
  11              		.eabi_attribute 26, 1
  12              		.eabi_attribute 30, 2
  13              		.eabi_attribute 34, 1
  14              		.eabi_attribute 18, 4
  15              		.thumb
  16              		.file	"chsem.c"
  17              		.text
  18              	.Ltext0:
  19              		.cfi_sections	.debug_frame
  20              		.section	.text.chSemInit,"ax",%progbits
  21              		.align	2
  22              		.p2align 4,,15
  23              		.global	chSemInit
  24              		.thumb
  25              		.thumb_func
  26              		.type	chSemInit, %function
  27              	chSemInit:
  28              	.LFB7:
  29              		.file 1 "../../ChibiOS/os/kernel/src/chsem.c"
  30              		.loc 1 79 0
  31              		.cfi_startproc
  32              		@ args = 0, pretend = 0, frame = 0
  33              		@ frame_needed = 0, uses_anonymous_args = 0
  34              	.LVL0:
  35 0000 38B5     		push	{r3, r4, r5, lr}
  36              	.LCFI0:
  37              		.cfi_def_cfa_offset 16
  38              		.cfi_offset 3, -16
  39              		.cfi_offset 4, -12
  40              		.cfi_offset 5, -8
  41              		.cfi_offset 14, -4
  42              		.loc 1 81 0
  43 0002 D0F10103 		rsbs	r3, r0, #1
  44 0006 38BF     		it	cc
  45 0008 0023     		movcc	r3, #0
  46 000a 53EAD173 		orrs	r3, r3, r1, lsr #31
  47 000e 0446     		mov	r4, r0
  48              		.loc 1 79 0
  49 0010 0D46     		mov	r5, r1
  50              		.loc 1 81 0
  51 0012 02D0     		beq	.L2
  52              		.loc 1 81 0 is_stmt 0 discriminator 1
  53 0014 0348     		ldr	r0, .L7
  54              	.LVL1:
  55 0016 FFF7FEFF 		bl	chDbgPanic
  56              	.LVL2:
  57              	.L2:
ARM GAS  /tmp/ccwv3sr0.s 			page 2


  58              		.loc 1 83 0 is_stmt 1
  59 001a 6460     		str	r4, [r4, #4]
  60 001c 2460     		str	r4, [r4, #0]
  61              		.loc 1 84 0
  62 001e A560     		str	r5, [r4, #8]
  63 0020 38BD     		pop	{r3, r4, r5, pc}
  64              	.L8:
  65 0022 00BF     		.align	2
  66              	.L7:
  67 0024 00000000 		.word	.LC0
  68              		.cfi_endproc
  69              	.LFE7:
  70              		.size	chSemInit, .-chSemInit
  71 0028 AFF30080 		.section	.text.chSemResetI,"ax",%progbits
  71      AFF30080 
  72              		.align	2
  73              		.p2align 4,,15
  74              		.global	chSemResetI
  75              		.thumb
  76              		.thumb_func
  77              		.type	chSemResetI, %function
  78              	chSemResetI:
  79              	.LFB9:
  80              		.loc 1 129 0
  81              		.cfi_startproc
  82              		@ args = 0, pretend = 0, frame = 0
  83              		@ frame_needed = 0, uses_anonymous_args = 0
  84              	.LVL3:
  85 0000 70B5     		push	{r4, r5, r6, lr}
  86              	.LCFI1:
  87              		.cfi_def_cfa_offset 16
  88              		.cfi_offset 4, -16
  89              		.cfi_offset 5, -12
  90              		.cfi_offset 6, -8
  91              		.cfi_offset 14, -4
  92              		.loc 1 129 0
  93 0002 0446     		mov	r4, r0
  94 0004 0E46     		mov	r6, r1
  95              		.loc 1 132 0
  96 0006 FFF7FEFF 		bl	chDbgCheckClassI
  97              	.LVL4:
  98              		.loc 1 133 0
  99 000a D4F10103 		rsbs	r3, r4, #1
 100 000e 38BF     		it	cc
 101 0010 0023     		movcc	r3, #0
 102 0012 53EAD673 		orrs	r3, r3, r6, lsr #31
 103 0016 1DD1     		bne	.L22
 104              	.L10:
 105              		.loc 1 134 0
 106 0018 A568     		ldr	r5, [r4, #8]
 107 001a 2368     		ldr	r3, [r4, #0]
 108 001c 002D     		cmp	r5, #0
 109 001e 16DB     		blt	.L11
 110              		.loc 1 134 0 is_stmt 0 discriminator 2
 111 0020 A342     		cmp	r3, r4
 112 0022 03D0     		beq	.L13
 113              	.L12:
ARM GAS  /tmp/ccwv3sr0.s 			page 3


 114              		.loc 1 134 0 discriminator 3
 115 0024 0D48     		ldr	r0, .L23
 116 0026 FFF7FEFF 		bl	chDbgPanic
 117              	.LVL5:
 118 002a A568     		ldr	r5, [r4, #8]
 119              	.L13:
 120              	.LVL6:
 121              		.loc 1 141 0 is_stmt 1
 122 002c 0135     		adds	r5, r5, #1
 123              	.LVL7:
 124 002e 002D     		cmp	r5, #0
 125              		.loc 1 140 0
 126 0030 A660     		str	r6, [r4, #8]
 127              	.LVL8:
 128              		.loc 1 141 0
 129 0032 0BDC     		bgt	.L9
 130              		.loc 1 142 0
 131 0034 6FF00106 		mvn	r6, #1
 132              	.LVL9:
 133              	.L19:
 134              	.LBB24:
 135              	.LBB25:
 136              		.file 2 "../../ChibiOS/os/kernel/include/chinline.h"
 137              		.loc 2 60 0
 138 0038 6068     		ldr	r0, [r4, #4]
 139              	.LVL10:
 140              		.loc 2 62 0
 141 003a 4368     		ldr	r3, [r0, #4]
 142 003c 6360     		str	r3, [r4, #4]
 143 003e 1C60     		str	r4, [r3, #0]
 144              	.LBE25:
 145              	.LBE24:
 146              		.loc 1 142 0
 147 0040 FFF7FEFF 		bl	chSchReadyI
 148              	.LVL11:
 149              		.loc 1 141 0
 150 0044 0135     		adds	r5, r5, #1
 151              	.LVL12:
 152 0046 012D     		cmp	r5, #1
 153              		.loc 1 142 0
 154 0048 8662     		str	r6, [r0, #40]
 155              	.LVL13:
 156              		.loc 1 141 0
 157 004a F5D1     		bne	.L19
 158              	.LVL14:
 159              	.L9:
 160 004c 70BD     		pop	{r4, r5, r6, pc}
 161              	.LVL15:
 162              	.L11:
 163              		.loc 1 134 0 discriminator 4
 164 004e A342     		cmp	r3, r4
 165 0050 ECD1     		bne	.L13
 166 0052 E7E7     		b	.L12
 167              	.L22:
 168              		.loc 1 133 0 discriminator 1
 169 0054 0248     		ldr	r0, .L23+4
 170 0056 FFF7FEFF 		bl	chDbgPanic
ARM GAS  /tmp/ccwv3sr0.s 			page 4


 171              	.LVL16:
 172 005a DDE7     		b	.L10
 173              	.L24:
 174              		.align	2
 175              	.L23:
 176 005c 20000000 		.word	.LC2
 177 0060 10000000 		.word	.LC1
 178              		.cfi_endproc
 179              	.LFE9:
 180              		.size	chSemResetI, .-chSemResetI
 181 0064 AFF30080 		.section	.text.chSemReset,"ax",%progbits
 181      AFF30080 
 181      AFF30080 
 182              		.align	2
 183              		.p2align 4,,15
 184              		.global	chSemReset
 185              		.thumb
 186              		.thumb_func
 187              		.type	chSemReset, %function
 188              	chSemReset:
 189              	.LFB8:
 190              		.loc 1 102 0
 191              		.cfi_startproc
 192              		@ args = 0, pretend = 0, frame = 0
 193              		@ frame_needed = 0, uses_anonymous_args = 0
 194              	.LVL17:
 195 0000 38B5     		push	{r3, r4, r5, lr}
 196              	.LCFI2:
 197              		.cfi_def_cfa_offset 16
 198              		.cfi_offset 3, -16
 199              		.cfi_offset 4, -12
 200              		.cfi_offset 5, -8
 201              		.cfi_offset 14, -4
 202              		.loc 1 102 0
 203 0002 0546     		mov	r5, r0
 204 0004 0C46     		mov	r4, r1
 205              	.LBB26:
 206              		.loc 1 104 0
 207 0006 2023     		movs	r3, #32
 208              	.LVL18:
 209              	@ 104 "../../ChibiOS/os/kernel/src/chsem.c" 1
 210 0008 83F31188 		msr     BASEPRI, r3
 211              	@ 0 "" 2
 212              	.LVL19:
 213              		.thumb
 214              	.LBE26:
 215 000c FFF7FEFF 		bl	dbg_check_lock
 216              	.LVL20:
 217              		.loc 1 105 0
 218 0010 2846     		mov	r0, r5
 219 0012 2146     		mov	r1, r4
 220 0014 FFF7FEFF 		bl	chSemResetI
 221              	.LVL21:
 222              		.loc 1 106 0
 223 0018 FFF7FEFF 		bl	chSchRescheduleS
 224              	.LVL22:
 225              		.loc 1 107 0
ARM GAS  /tmp/ccwv3sr0.s 			page 5


 226 001c FFF7FEFF 		bl	dbg_check_unlock
 227              	.LVL23:
 228              	.LBB27:
 229 0020 0023     		movs	r3, #0
 230              	.LVL24:
 231              	@ 107 "../../ChibiOS/os/kernel/src/chsem.c" 1
 232 0022 83F31188 		msr     BASEPRI, r3
 233              	@ 0 "" 2
 234              	.LVL25:
 235              		.thumb
 236 0026 38BD     		pop	{r3, r4, r5, pc}
 237              	.LBE27:
 238              		.cfi_endproc
 239              	.LFE8:
 240              		.size	chSemReset, .-chSemReset
 241 0028 AFF30080 		.section	.text.chSemWaitS,"ax",%progbits
 241      AFF30080 
 242              		.align	2
 243              		.p2align 4,,15
 244              		.global	chSemWaitS
 245              		.thumb
 246              		.thumb_func
 247              		.type	chSemWaitS, %function
 248              	chSemWaitS:
 249              	.LFB11:
 250              		.loc 1 178 0
 251              		.cfi_startproc
 252              		@ args = 0, pretend = 0, frame = 0
 253              		@ frame_needed = 0, uses_anonymous_args = 0
 254              	.LVL26:
 255 0000 38B5     		push	{r3, r4, r5, lr}
 256              	.LCFI3:
 257              		.cfi_def_cfa_offset 16
 258              		.cfi_offset 3, -16
 259              		.cfi_offset 4, -12
 260              		.cfi_offset 5, -8
 261              		.cfi_offset 14, -4
 262              		.loc 1 178 0
 263 0002 0446     		mov	r4, r0
 264              		.loc 1 180 0
 265 0004 FFF7FEFF 		bl	chDbgCheckClassS
 266              	.LVL27:
 267              		.loc 1 181 0
 268 0008 1CB3     		cbz	r4, .L34
 269              	.L27:
 270              		.loc 1 182 0
 271 000a A368     		ldr	r3, [r4, #8]
 272 000c 2268     		ldr	r2, [r4, #0]
 273 000e 002B     		cmp	r3, #0
 274 0010 0BDB     		blt	.L28
 275              		.loc 1 182 0 is_stmt 0 discriminator 2
 276 0012 A242     		cmp	r2, r4
 277 0014 03D0     		beq	.L30
 278              	.L29:
 279              		.loc 1 182 0 discriminator 3
 280 0016 1148     		ldr	r0, .L36
 281 0018 FFF7FEFF 		bl	chDbgPanic
ARM GAS  /tmp/ccwv3sr0.s 			page 6


 282              	.LVL28:
 283 001c A368     		ldr	r3, [r4, #8]
 284              	.L30:
 285              		.loc 1 187 0 is_stmt 1
 286 001e 013B     		subs	r3, r3, #1
 287 0020 002B     		cmp	r3, #0
 288 0022 A360     		str	r3, [r4, #8]
 289 0024 07DB     		blt	.L35
 290              	.L32:
 291              		.loc 1 193 0
 292 0026 0020     		movs	r0, #0
 293              		.loc 1 194 0
 294 0028 38BD     		pop	{r3, r4, r5, pc}
 295              	.L28:
 296              		.loc 1 182 0 discriminator 4
 297 002a A242     		cmp	r2, r4
 298 002c F3D0     		beq	.L29
 299              		.loc 1 187 0
 300 002e 013B     		subs	r3, r3, #1
 301 0030 002B     		cmp	r3, #0
 302 0032 A360     		str	r3, [r4, #8]
 303 0034 F7DA     		bge	.L32
 304              	.L35:
 305              		.loc 1 188 0
 306 0036 0A4D     		ldr	r5, .L36+4
 307 0038 AB69     		ldr	r3, [r5, #24]
 308 003a 9C62     		str	r4, [r3, #40]
 309              	.LVL29:
 310              	.LBB28:
 311              	.LBB29:
 312              		.loc 2 48 0
 313 003c 6268     		ldr	r2, [r4, #4]
 314              		.loc 2 47 0
 315 003e 1C60     		str	r4, [r3, #0]
 316              		.loc 2 48 0
 317 0040 5A60     		str	r2, [r3, #4]
 318              	.LBE29:
 319              	.LBE28:
 320              		.loc 1 190 0
 321 0042 0320     		movs	r0, #3
 322              	.LBB31:
 323              	.LBB30:
 324              		.loc 2 49 0
 325 0044 6360     		str	r3, [r4, #4]
 326 0046 1360     		str	r3, [r2, #0]
 327              	.LBE30:
 328              	.LBE31:
 329              		.loc 1 190 0
 330 0048 FFF7FEFF 		bl	chSchGoSleepS
 331              	.LVL30:
 332              		.loc 1 191 0
 333 004c AB69     		ldr	r3, [r5, #24]
 334 004e 986A     		ldr	r0, [r3, #40]
 335 0050 38BD     		pop	{r3, r4, r5, pc}
 336              	.LVL31:
 337              	.L34:
 338              		.loc 1 181 0 discriminator 1
ARM GAS  /tmp/ccwv3sr0.s 			page 7


 339 0052 0448     		ldr	r0, .L36+8
 340 0054 FFF7FEFF 		bl	chDbgPanic
 341              	.LVL32:
 342 0058 D7E7     		b	.L27
 343              	.L37:
 344 005a 00BF     		.align	2
 345              	.L36:
 346 005c 44000000 		.word	.LC4
 347 0060 00000000 		.word	rlist
 348 0064 34000000 		.word	.LC3
 349              		.cfi_endproc
 350              	.LFE11:
 351              		.size	chSemWaitS, .-chSemWaitS
 352 0068 AFF30080 		.section	.text.chSemWait,"ax",%progbits
 352      AFF30080 
 353              		.align	2
 354              		.p2align 4,,15
 355              		.global	chSemWait
 356              		.thumb
 357              		.thumb_func
 358              		.type	chSemWait, %function
 359              	chSemWait:
 360              	.LFB10:
 361              		.loc 1 157 0
 362              		.cfi_startproc
 363              		@ args = 0, pretend = 0, frame = 0
 364              		@ frame_needed = 0, uses_anonymous_args = 0
 365              	.LVL33:
 366 0000 10B5     		push	{r4, lr}
 367              	.LCFI4:
 368              		.cfi_def_cfa_offset 8
 369              		.cfi_offset 4, -8
 370              		.cfi_offset 14, -4
 371              	.LBB32:
 372              		.loc 1 160 0
 373 0002 2023     		movs	r3, #32
 374              	.LVL34:
 375              	.LBE32:
 376              		.loc 1 157 0
 377 0004 0446     		mov	r4, r0
 378              	.LBB33:
 379              		.loc 1 160 0
 380              	@ 160 "../../ChibiOS/os/kernel/src/chsem.c" 1
 381 0006 83F31188 		msr     BASEPRI, r3
 382              	@ 0 "" 2
 383              	.LVL35:
 384              		.thumb
 385              	.LBE33:
 386 000a FFF7FEFF 		bl	dbg_check_lock
 387              	.LVL36:
 388              		.loc 1 161 0
 389 000e 2046     		mov	r0, r4
 390 0010 FFF7FEFF 		bl	chSemWaitS
 391              	.LVL37:
 392 0014 0446     		mov	r4, r0
 393              	.LVL38:
 394              		.loc 1 162 0
ARM GAS  /tmp/ccwv3sr0.s 			page 8


 395 0016 FFF7FEFF 		bl	dbg_check_unlock
 396              	.LVL39:
 397              	.LBB34:
 398 001a 0023     		movs	r3, #0
 399              	.LVL40:
 400              	@ 162 "../../ChibiOS/os/kernel/src/chsem.c" 1
 401 001c 83F31188 		msr     BASEPRI, r3
 402              	@ 0 "" 2
 403              	.LVL41:
 404              		.thumb
 405              	.LBE34:
 406              		.loc 1 164 0
 407 0020 2046     		mov	r0, r4
 408 0022 10BD     		pop	{r4, pc}
 409              		.cfi_endproc
 410              	.LFE10:
 411              		.size	chSemWait, .-chSemWait
 412 0024 AFF30080 		.section	.text.chSemWaitTimeoutS,"ax",%progbits
 412      AFF30080 
 412      AFF30080 
 413              		.align	2
 414              		.p2align 4,,15
 415              		.global	chSemWaitTimeoutS
 416              		.thumb
 417              		.thumb_func
 418              		.type	chSemWaitTimeoutS, %function
 419              	chSemWaitTimeoutS:
 420              	.LFB13:
 421              		.loc 1 243 0
 422              		.cfi_startproc
 423              		@ args = 0, pretend = 0, frame = 0
 424              		@ frame_needed = 0, uses_anonymous_args = 0
 425              	.LVL42:
 426 0000 38B5     		push	{r3, r4, r5, lr}
 427              	.LCFI5:
 428              		.cfi_def_cfa_offset 16
 429              		.cfi_offset 3, -16
 430              		.cfi_offset 4, -12
 431              		.cfi_offset 5, -8
 432              		.cfi_offset 14, -4
 433              		.loc 1 243 0
 434 0002 0446     		mov	r4, r0
 435 0004 0D46     		mov	r5, r1
 436              		.loc 1 245 0
 437 0006 FFF7FEFF 		bl	chDbgCheckClassS
 438              	.LVL43:
 439              		.loc 1 246 0
 440 000a 002C     		cmp	r4, #0
 441 000c 24D0     		beq	.L48
 442              	.L40:
 443              		.loc 1 247 0
 444 000e A368     		ldr	r3, [r4, #8]
 445 0010 2268     		ldr	r2, [r4, #0]
 446 0012 002B     		cmp	r3, #0
 447 0014 0BDB     		blt	.L41
 448              		.loc 1 247 0 is_stmt 0 discriminator 2
 449 0016 A242     		cmp	r2, r4
ARM GAS  /tmp/ccwv3sr0.s 			page 9


 450 0018 03D0     		beq	.L43
 451              	.L42:
 452              		.loc 1 247 0 discriminator 3
 453 001a 1348     		ldr	r0, .L51
 454 001c FFF7FEFF 		bl	chDbgPanic
 455              	.LVL44:
 456 0020 A368     		ldr	r3, [r4, #8]
 457              	.L43:
 458              		.loc 1 252 0 is_stmt 1
 459 0022 5A1E     		subs	r2, r3, #1
 460 0024 002A     		cmp	r2, #0
 461 0026 A260     		str	r2, [r4, #8]
 462 0028 07DB     		blt	.L49
 463              	.L46:
 464              		.loc 1 261 0
 465 002a 0020     		movs	r0, #0
 466              		.loc 1 262 0
 467 002c 38BD     		pop	{r3, r4, r5, pc}
 468              	.L41:
 469              		.loc 1 247 0 discriminator 4
 470 002e A242     		cmp	r2, r4
 471 0030 F3D0     		beq	.L42
 472              		.loc 1 252 0
 473 0032 5A1E     		subs	r2, r3, #1
 474 0034 002A     		cmp	r2, #0
 475 0036 A260     		str	r2, [r4, #8]
 476 0038 F7DA     		bge	.L46
 477              	.L49:
 478              		.loc 1 253 0
 479 003a 8DB1     		cbz	r5, .L50
 480              		.loc 1 257 0
 481 003c 0B4B     		ldr	r3, .L51+4
 482 003e 9B69     		ldr	r3, [r3, #24]
 483 0040 9C62     		str	r4, [r3, #40]
 484              	.LVL45:
 485              	.LBB35:
 486              	.LBB36:
 487              		.loc 2 48 0
 488 0042 6268     		ldr	r2, [r4, #4]
 489              		.loc 2 47 0
 490 0044 1C60     		str	r4, [r3, #0]
 491              	.LBE36:
 492              	.LBE35:
 493              		.loc 1 259 0
 494 0046 0320     		movs	r0, #3
 495 0048 2946     		mov	r1, r5
 496              	.LBB38:
 497              	.LBB37:
 498              		.loc 2 48 0
 499 004a 5A60     		str	r2, [r3, #4]
 500              		.loc 2 49 0
 501 004c 6360     		str	r3, [r4, #4]
 502 004e 1360     		str	r3, [r2, #0]
 503              	.LBE37:
 504              	.LBE38:
 505              		.loc 1 262 0
 506 0050 BDE83840 		pop	{r3, r4, r5, lr}
ARM GAS  /tmp/ccwv3sr0.s 			page 10


 507              		.loc 1 259 0
 508 0054 FFF7FEBF 		b	chSchGoSleepTimeoutS
 509              	.LVL46:
 510              	.L48:
 511              		.loc 1 246 0 discriminator 1
 512 0058 0548     		ldr	r0, .L51+8
 513 005a FFF7FEFF 		bl	chDbgPanic
 514              	.LVL47:
 515 005e D6E7     		b	.L40
 516              	.L50:
 517              		.loc 1 254 0
 518 0060 A360     		str	r3, [r4, #8]
 519              		.loc 1 255 0
 520 0062 4FF0FF30 		mov	r0, #-1
 521 0066 38BD     		pop	{r3, r4, r5, pc}
 522              	.L52:
 523              		.align	2
 524              	.L51:
 525 0068 70000000 		.word	.LC6
 526 006c 00000000 		.word	rlist
 527 0070 58000000 		.word	.LC5
 528              		.cfi_endproc
 529              	.LFE13:
 530              		.size	chSemWaitTimeoutS, .-chSemWaitTimeoutS
 531 0074 AFF30080 		.section	.text.chSemWaitTimeout,"ax",%progbits
 531      AFF30080 
 531      AFF30080 
 532              		.align	2
 533              		.p2align 4,,15
 534              		.global	chSemWaitTimeout
 535              		.thumb
 536              		.thumb_func
 537              		.type	chSemWaitTimeout, %function
 538              	chSemWaitTimeout:
 539              	.LFB12:
 540              		.loc 1 215 0
 541              		.cfi_startproc
 542              		@ args = 0, pretend = 0, frame = 0
 543              		@ frame_needed = 0, uses_anonymous_args = 0
 544              	.LVL48:
 545 0000 38B5     		push	{r3, r4, r5, lr}
 546              	.LCFI6:
 547              		.cfi_def_cfa_offset 16
 548              		.cfi_offset 3, -16
 549              		.cfi_offset 4, -12
 550              		.cfi_offset 5, -8
 551              		.cfi_offset 14, -4
 552              		.loc 1 215 0
 553 0002 0546     		mov	r5, r0
 554 0004 0C46     		mov	r4, r1
 555              	.LBB39:
 556              		.loc 1 218 0
 557 0006 2023     		movs	r3, #32
 558              	.LVL49:
 559              	@ 218 "../../ChibiOS/os/kernel/src/chsem.c" 1
 560 0008 83F31188 		msr     BASEPRI, r3
 561              	@ 0 "" 2
ARM GAS  /tmp/ccwv3sr0.s 			page 11


 562              	.LVL50:
 563              		.thumb
 564              	.LBE39:
 565 000c FFF7FEFF 		bl	dbg_check_lock
 566              	.LVL51:
 567              		.loc 1 219 0
 568 0010 2146     		mov	r1, r4
 569 0012 2846     		mov	r0, r5
 570 0014 FFF7FEFF 		bl	chSemWaitTimeoutS
 571              	.LVL52:
 572 0018 0446     		mov	r4, r0
 573              	.LVL53:
 574              		.loc 1 220 0
 575 001a FFF7FEFF 		bl	dbg_check_unlock
 576              	.LVL54:
 577              	.LBB40:
 578 001e 0023     		movs	r3, #0
 579              	.LVL55:
 580              	@ 220 "../../ChibiOS/os/kernel/src/chsem.c" 1
 581 0020 83F31188 		msr     BASEPRI, r3
 582              	@ 0 "" 2
 583              	.LVL56:
 584              		.thumb
 585              	.LBE40:
 586              		.loc 1 222 0
 587 0024 2046     		mov	r0, r4
 588 0026 38BD     		pop	{r3, r4, r5, pc}
 589              		.cfi_endproc
 590              	.LFE12:
 591              		.size	chSemWaitTimeout, .-chSemWaitTimeout
 592 0028 AFF30080 		.section	.text.chSemSignal,"ax",%progbits
 592      AFF30080 
 593              		.align	2
 594              		.p2align 4,,15
 595              		.global	chSemSignal
 596              		.thumb
 597              		.thumb_func
 598              		.type	chSemSignal, %function
 599              	chSemSignal:
 600              	.LFB14:
 601              		.loc 1 271 0
 602              		.cfi_startproc
 603              		@ args = 0, pretend = 0, frame = 0
 604              		@ frame_needed = 0, uses_anonymous_args = 0
 605              	.LVL57:
 606 0000 10B5     		push	{r4, lr}
 607              	.LCFI7:
 608              		.cfi_def_cfa_offset 8
 609              		.cfi_offset 4, -8
 610              		.cfi_offset 14, -4
 611              		.loc 1 273 0
 612 0002 0446     		mov	r4, r0
 613 0004 18B3     		cbz	r0, .L60
 614              	.LVL58:
 615              	.L55:
 616              		.loc 1 274 0
 617 0006 A368     		ldr	r3, [r4, #8]
ARM GAS  /tmp/ccwv3sr0.s 			page 12


 618 0008 002B     		cmp	r3, #0
 619 000a 2368     		ldr	r3, [r4, #0]
 620 000c 14DB     		blt	.L56
 621              		.loc 1 274 0 is_stmt 0 discriminator 2
 622 000e A342     		cmp	r3, r4
 623 0010 02D0     		beq	.L58
 624              	.L57:
 625              		.loc 1 274 0 discriminator 3
 626 0012 1148     		ldr	r0, .L62
 627 0014 FFF7FEFF 		bl	chDbgPanic
 628              	.LVL59:
 629              	.L58:
 630              	.LBB41:
 631              		.loc 1 279 0 is_stmt 1
 632 0018 2023     		movs	r3, #32
 633              	.LVL60:
 634              	@ 279 "../../ChibiOS/os/kernel/src/chsem.c" 1
 635 001a 83F31188 		msr     BASEPRI, r3
 636              	@ 0 "" 2
 637              	.LVL61:
 638              		.thumb
 639              	.LBE41:
 640 001e FFF7FEFF 		bl	dbg_check_lock
 641              	.LVL62:
 642              		.loc 1 280 0
 643 0022 A368     		ldr	r3, [r4, #8]
 644 0024 0133     		adds	r3, r3, #1
 645 0026 002B     		cmp	r3, #0
 646 0028 A360     		str	r3, [r4, #8]
 647 002a 08DD     		ble	.L61
 648              	.L59:
 649              		.loc 1 282 0
 650 002c FFF7FEFF 		bl	dbg_check_unlock
 651              	.LVL63:
 652              	.LBB42:
 653 0030 0023     		movs	r3, #0
 654              	.LVL64:
 655              	@ 282 "../../ChibiOS/os/kernel/src/chsem.c" 1
 656 0032 83F31188 		msr     BASEPRI, r3
 657              	@ 0 "" 2
 658              	.LVL65:
 659              		.thumb
 660 0036 10BD     		pop	{r4, pc}
 661              	.LVL66:
 662              	.L56:
 663              	.LBE42:
 664              		.loc 1 274 0 discriminator 4
 665 0038 A342     		cmp	r3, r4
 666 003a EDD1     		bne	.L58
 667 003c E9E7     		b	.L57
 668              	.L61:
 669              	.LVL67:
 670              	.LBB43:
 671              	.LBB44:
 672              		.loc 2 53 0
 673 003e 2068     		ldr	r0, [r4, #0]
 674              	.LVL68:
ARM GAS  /tmp/ccwv3sr0.s 			page 13


 675              		.loc 2 55 0
 676 0040 0368     		ldr	r3, [r0, #0]
 677              	.LBE44:
 678              	.LBE43:
 679              		.loc 1 281 0
 680 0042 0021     		movs	r1, #0
 681              	.LBB46:
 682              	.LBB45:
 683              		.loc 2 55 0
 684 0044 2360     		str	r3, [r4, #0]
 685 0046 5C60     		str	r4, [r3, #4]
 686              	.LBE45:
 687              	.LBE46:
 688              		.loc 1 281 0
 689 0048 FFF7FEFF 		bl	chSchWakeupS
 690              	.LVL69:
 691 004c EEE7     		b	.L59
 692              	.LVL70:
 693              	.L60:
 694              		.loc 1 273 0 discriminator 1
 695 004e 0348     		ldr	r0, .L62+4
 696              	.LVL71:
 697 0050 FFF7FEFF 		bl	chDbgPanic
 698              	.LVL72:
 699 0054 D7E7     		b	.L55
 700              	.L63:
 701 0056 00BF     		.align	2
 702              	.L62:
 703 0058 98000000 		.word	.LC8
 704 005c 88000000 		.word	.LC7
 705              		.cfi_endproc
 706              	.LFE14:
 707              		.size	chSemSignal, .-chSemSignal
 708              		.section	.text.chSemSignalI,"ax",%progbits
 709              		.align	2
 710              		.p2align 4,,15
 711              		.global	chSemSignalI
 712              		.thumb
 713              		.thumb_func
 714              		.type	chSemSignalI, %function
 715              	chSemSignalI:
 716              	.LFB15:
 717              		.loc 1 296 0
 718              		.cfi_startproc
 719              		@ args = 0, pretend = 0, frame = 0
 720              		@ frame_needed = 0, uses_anonymous_args = 0
 721              	.LVL73:
 722 0000 10B5     		push	{r4, lr}
 723              	.LCFI8:
 724              		.cfi_def_cfa_offset 8
 725              		.cfi_offset 4, -8
 726              		.cfi_offset 14, -4
 727              		.loc 1 296 0
 728 0002 0446     		mov	r4, r0
 729              		.loc 1 298 0
 730 0004 FFF7FEFF 		bl	chDbgCheckClassI
 731              	.LVL74:
ARM GAS  /tmp/ccwv3sr0.s 			page 14


 732              		.loc 1 299 0
 733 0008 002C     		cmp	r4, #0
 734 000a 1FD0     		beq	.L71
 735              	.L65:
 736              		.loc 1 300 0
 737 000c A368     		ldr	r3, [r4, #8]
 738 000e 2268     		ldr	r2, [r4, #0]
 739 0010 002B     		cmp	r3, #0
 740 0012 0ADB     		blt	.L66
 741              		.loc 1 300 0 is_stmt 0 discriminator 2
 742 0014 A242     		cmp	r2, r4
 743 0016 03D0     		beq	.L68
 744              	.L67:
 745              		.loc 1 300 0 discriminator 3
 746 0018 0E48     		ldr	r0, .L73
 747 001a FFF7FEFF 		bl	chDbgPanic
 748              	.LVL75:
 749 001e A368     		ldr	r3, [r4, #8]
 750              	.L68:
 751              		.loc 1 305 0 is_stmt 1
 752 0020 0133     		adds	r3, r3, #1
 753 0022 002B     		cmp	r3, #0
 754 0024 A360     		str	r3, [r4, #8]
 755 0026 06DD     		ble	.L72
 756              	.L64:
 757 0028 10BD     		pop	{r4, pc}
 758              	.L66:
 759              		.loc 1 300 0 discriminator 4
 760 002a A242     		cmp	r2, r4
 761 002c F4D0     		beq	.L67
 762              		.loc 1 305 0
 763 002e 0133     		adds	r3, r3, #1
 764 0030 002B     		cmp	r3, #0
 765 0032 A360     		str	r3, [r4, #8]
 766 0034 F8DC     		bgt	.L64
 767              	.L72:
 768              	.LVL76:
 769              	.LBB47:
 770              	.LBB48:
 771              	.LBB49:
 772              		.loc 2 53 0
 773 0036 2368     		ldr	r3, [r4, #0]
 774              	.LVL77:
 775              		.loc 2 55 0
 776 0038 1A68     		ldr	r2, [r3, #0]
 777              	.LBE49:
 778              	.LBE48:
 779              		.loc 1 310 0
 780 003a 1846     		mov	r0, r3
 781              	.LBB51:
 782              	.LBB50:
 783              		.loc 2 55 0
 784 003c 2260     		str	r2, [r4, #0]
 785 003e 5460     		str	r4, [r2, #4]
 786              	.LBE50:
 787              	.LBE51:
 788              		.loc 1 309 0
ARM GAS  /tmp/ccwv3sr0.s 			page 15


 789 0040 0022     		movs	r2, #0
 790 0042 9A62     		str	r2, [r3, #40]
 791              	.LBE47:
 792              		.loc 1 312 0
 793 0044 BDE81040 		pop	{r4, lr}
 794              	.LBB52:
 795              		.loc 1 310 0
 796 0048 FFF7FEBF 		b	chSchReadyI
 797              	.LVL78:
 798              	.L71:
 799              	.LBE52:
 800              		.loc 1 299 0 discriminator 1
 801 004c 0248     		ldr	r0, .L73+4
 802 004e FFF7FEFF 		bl	chDbgPanic
 803              	.LVL79:
 804 0052 DBE7     		b	.L65
 805              	.L74:
 806              		.align	2
 807              	.L73:
 808 0054 C0000000 		.word	.LC10
 809 0058 AC000000 		.word	.LC9
 810              		.cfi_endproc
 811              	.LFE15:
 812              		.size	chSemSignalI, .-chSemSignalI
 813 005c AFF30080 		.section	.text.chSemAddCounterI,"ax",%progbits
 814              		.align	2
 815              		.p2align 4,,15
 816              		.global	chSemAddCounterI
 817              		.thumb
 818              		.thumb_func
 819              		.type	chSemAddCounterI, %function
 820              	chSemAddCounterI:
 821              	.LFB16:
 822              		.loc 1 327 0
 823              		.cfi_startproc
 824              		@ args = 0, pretend = 0, frame = 0
 825              		@ frame_needed = 0, uses_anonymous_args = 0
 826              	.LVL80:
 827 0000 70B5     		push	{r4, r5, r6, lr}
 828              	.LCFI9:
 829              		.cfi_def_cfa_offset 16
 830              		.cfi_offset 4, -16
 831              		.cfi_offset 5, -12
 832              		.cfi_offset 6, -8
 833              		.cfi_offset 14, -4
 834              		.loc 1 327 0
 835 0002 0546     		mov	r5, r0
 836 0004 0C46     		mov	r4, r1
 837              		.loc 1 329 0
 838 0006 FFF7FEFF 		bl	chDbgCheckClassI
 839              	.LVL81:
 840              		.loc 1 330 0
 841 000a 002D     		cmp	r5, #0
 842 000c 18BF     		it	ne
 843 000e 002C     		cmpne	r4, #0
 844 0010 20DD     		ble	.L89
 845              	.L76:
ARM GAS  /tmp/ccwv3sr0.s 			page 16


 846              		.loc 1 331 0
 847 0012 AB68     		ldr	r3, [r5, #8]
 848 0014 002B     		cmp	r3, #0
 849 0016 2B68     		ldr	r3, [r5, #0]
 850 0018 19DB     		blt	.L77
 851              		.loc 1 331 0 is_stmt 0 discriminator 2
 852 001a AB42     		cmp	r3, r5
 853 001c 02D0     		beq	.L79
 854              	.L78:
 855              		.loc 1 331 0 discriminator 3
 856 001e 0F48     		ldr	r0, .L90
 857 0020 FFF7FEFF 		bl	chDbgPanic
 858              	.LVL82:
 859              	.L79:
 860              		.loc 1 336 0 is_stmt 1 discriminator 1
 861 0024 002C     		cmp	r4, #0
 862 0026 11DD     		ble	.L75
 863              		.loc 1 338 0
 864 0028 0026     		movs	r6, #0
 865 002a 01E0     		b	.L86
 866              	.LVL83:
 867              	.L81:
 868              		.loc 1 336 0
 869 002c 013C     		subs	r4, r4, #1
 870              	.LVL84:
 871 002e 0DD0     		beq	.L75
 872              	.LVL85:
 873              	.L86:
 874              		.loc 1 337 0
 875 0030 AB68     		ldr	r3, [r5, #8]
 876 0032 0133     		adds	r3, r3, #1
 877 0034 002B     		cmp	r3, #0
 878 0036 AB60     		str	r3, [r5, #8]
 879 0038 F8DC     		bgt	.L81
 880              	.LVL86:
 881              	.LBB53:
 882              	.LBB54:
 883              		.loc 2 53 0
 884 003a 2868     		ldr	r0, [r5, #0]
 885              	.LVL87:
 886              		.loc 2 55 0
 887 003c 0368     		ldr	r3, [r0, #0]
 888 003e 2B60     		str	r3, [r5, #0]
 889 0040 5D60     		str	r5, [r3, #4]
 890              	.LBE54:
 891              	.LBE53:
 892              		.loc 1 338 0
 893 0042 FFF7FEFF 		bl	chSchReadyI
 894              	.LVL88:
 895              		.loc 1 336 0
 896 0046 013C     		subs	r4, r4, #1
 897              		.loc 1 338 0
 898 0048 8662     		str	r6, [r0, #40]
 899              		.loc 1 336 0
 900 004a F1D1     		bne	.L86
 901              	.LVL89:
 902              	.L75:
ARM GAS  /tmp/ccwv3sr0.s 			page 17


 903 004c 70BD     		pop	{r4, r5, r6, pc}
 904              	.LVL90:
 905              	.L77:
 906              		.loc 1 331 0 discriminator 4
 907 004e AB42     		cmp	r3, r5
 908 0050 E8D1     		bne	.L79
 909 0052 E4E7     		b	.L78
 910              	.L89:
 911              		.loc 1 330 0 discriminator 1
 912 0054 0248     		ldr	r0, .L90+4
 913 0056 FFF7FEFF 		bl	chDbgPanic
 914              	.LVL91:
 915 005a DAE7     		b	.L76
 916              	.L91:
 917              		.align	2
 918              	.L90:
 919 005c EC000000 		.word	.LC12
 920 0060 D4000000 		.word	.LC11
 921              		.cfi_endproc
 922              	.LFE16:
 923              		.size	chSemAddCounterI, .-chSemAddCounterI
 924 0064 AFF30080 		.section	.text.chSemSignalWait,"ax",%progbits
 924      AFF30080 
 924      AFF30080 
 925              		.align	2
 926              		.p2align 4,,15
 927              		.global	chSemSignalWait
 928              		.thumb
 929              		.thumb_func
 930              		.type	chSemSignalWait, %function
 931              	chSemSignalWait:
 932              	.LFB17:
 933              		.loc 1 359 0
 934              		.cfi_startproc
 935              		@ args = 0, pretend = 0, frame = 0
 936              		@ frame_needed = 0, uses_anonymous_args = 0
 937              	.LVL92:
 938              		.loc 1 362 0
 939 0000 0028     		cmp	r0, #0
 940 0002 18BF     		it	ne
 941 0004 0029     		cmpne	r1, #0
 942              		.loc 1 359 0
 943 0006 38B5     		push	{r3, r4, r5, lr}
 944              	.LCFI10:
 945              		.cfi_def_cfa_offset 16
 946              		.cfi_offset 3, -16
 947              		.cfi_offset 4, -12
 948              		.cfi_offset 5, -8
 949              		.cfi_offset 14, -4
 950              		.loc 1 362 0
 951 0008 0C46     		mov	r4, r1
 952 000a 0546     		mov	r5, r0
 953 000c 33D0     		beq	.L107
 954              	.LVL93:
 955              	.L93:
 956              		.loc 1 363 0
 957 000e AB68     		ldr	r3, [r5, #8]
ARM GAS  /tmp/ccwv3sr0.s 			page 18


 958 0010 002B     		cmp	r3, #0
 959 0012 2B68     		ldr	r3, [r5, #0]
 960 0014 26DB     		blt	.L94
 961              		.loc 1 363 0 is_stmt 0 discriminator 2
 962 0016 AB42     		cmp	r3, r5
 963 0018 02D0     		beq	.L96
 964              	.L95:
 965              		.loc 1 363 0 discriminator 3
 966 001a 2448     		ldr	r0, .L111
 967 001c FFF7FEFF 		bl	chDbgPanic
 968              	.LVL94:
 969              	.L96:
 970              		.loc 1 367 0 is_stmt 1
 971 0020 A368     		ldr	r3, [r4, #8]
 972 0022 002B     		cmp	r3, #0
 973 0024 2368     		ldr	r3, [r4, #0]
 974 0026 23DB     		blt	.L97
 975              	.L110:
 976              		.loc 1 367 0 is_stmt 0 discriminator 2
 977 0028 A342     		cmp	r3, r4
 978 002a 02D0     		beq	.L99
 979              	.L98:
 980              		.loc 1 367 0 discriminator 3
 981 002c 2048     		ldr	r0, .L111+4
 982 002e FFF7FEFF 		bl	chDbgPanic
 983              	.LVL95:
 984              	.L99:
 985              	.LBB55:
 986              		.loc 1 372 0 is_stmt 1
 987 0032 2023     		movs	r3, #32
 988              	.LVL96:
 989              	@ 372 "../../ChibiOS/os/kernel/src/chsem.c" 1
 990 0034 83F31188 		msr     BASEPRI, r3
 991              	@ 0 "" 2
 992              	.LVL97:
 993              		.thumb
 994              	.LBE55:
 995 0038 FFF7FEFF 		bl	dbg_check_lock
 996              	.LVL98:
 997              		.loc 1 373 0
 998 003c AB68     		ldr	r3, [r5, #8]
 999 003e 0133     		adds	r3, r3, #1
 1000 0040 002B     		cmp	r3, #0
 1001 0042 AB60     		str	r3, [r5, #8]
 1002 0044 28DD     		ble	.L108
 1003              	.L100:
 1004              		.loc 1 375 0
 1005 0046 A368     		ldr	r3, [r4, #8]
 1006 0048 013B     		subs	r3, r3, #1
 1007 004a 002B     		cmp	r3, #0
 1008 004c A360     		str	r3, [r4, #8]
 1009 004e 16DB     		blt	.L109
 1010              		.loc 1 383 0
 1011 0050 FFF7FEFF 		bl	chSchRescheduleS
 1012              	.LVL99:
 1013              		.loc 1 384 0
 1014 0054 0024     		movs	r4, #0
ARM GAS  /tmp/ccwv3sr0.s 			page 19


 1015              	.LVL100:
 1016              	.L102:
 1017              		.loc 1 386 0
 1018 0056 FFF7FEFF 		bl	dbg_check_unlock
 1019              	.LVL101:
 1020              	.LBB56:
 1021 005a 0023     		movs	r3, #0
 1022              	.LVL102:
 1023              	@ 386 "../../ChibiOS/os/kernel/src/chsem.c" 1
 1024 005c 83F31188 		msr     BASEPRI, r3
 1025              	@ 0 "" 2
 1026              	.LVL103:
 1027              		.thumb
 1028              	.LBE56:
 1029              		.loc 1 388 0
 1030 0060 2046     		mov	r0, r4
 1031 0062 38BD     		pop	{r3, r4, r5, pc}
 1032              	.LVL104:
 1033              	.L94:
 1034              		.loc 1 363 0 discriminator 4
 1035 0064 AB42     		cmp	r3, r5
 1036 0066 D8D0     		beq	.L95
 1037              		.loc 1 367 0
 1038 0068 A368     		ldr	r3, [r4, #8]
 1039 006a 002B     		cmp	r3, #0
 1040 006c 2368     		ldr	r3, [r4, #0]
 1041 006e DBDA     		bge	.L110
 1042              	.L97:
 1043              		.loc 1 367 0 is_stmt 0 discriminator 4
 1044 0070 A342     		cmp	r3, r4
 1045 0072 DED1     		bne	.L99
 1046 0074 DAE7     		b	.L98
 1047              	.LVL105:
 1048              	.L107:
 1049              		.loc 1 362 0 is_stmt 1 discriminator 1
 1050 0076 0F48     		ldr	r0, .L111+8
 1051              	.LVL106:
 1052 0078 FFF7FEFF 		bl	chDbgPanic
 1053              	.LVL107:
 1054 007c C7E7     		b	.L93
 1055              	.L109:
 1056              	.LBB57:
 1057              		.loc 1 376 0
 1058 007e 0E4A     		ldr	r2, .L111+12
 1059              	.LBB58:
 1060              	.LBB59:
 1061              		.loc 2 48 0
 1062 0080 6368     		ldr	r3, [r4, #4]
 1063              	.LBE59:
 1064              	.LBE58:
 1065              		.loc 1 376 0
 1066 0082 9569     		ldr	r5, [r2, #24]
 1067              	.LVL108:
 1068              		.loc 1 379 0
 1069 0084 0320     		movs	r0, #3
 1070              	.LBB62:
 1071              	.LBB60:
ARM GAS  /tmp/ccwv3sr0.s 			page 20


 1072              		.loc 2 47 0
 1073 0086 2C60     		str	r4, [r5, #0]
 1074              		.loc 2 48 0
 1075 0088 6B60     		str	r3, [r5, #4]
 1076              		.loc 2 49 0
 1077 008a 6560     		str	r5, [r4, #4]
 1078              	.LBE60:
 1079              	.LBE62:
 1080              		.loc 1 378 0
 1081 008c AC62     		str	r4, [r5, #40]
 1082              	.LBB63:
 1083              	.LBB61:
 1084              		.loc 2 49 0
 1085 008e 1D60     		str	r5, [r3, #0]
 1086              	.LBE61:
 1087              	.LBE63:
 1088              		.loc 1 379 0
 1089 0090 FFF7FEFF 		bl	chSchGoSleepS
 1090              	.LVL109:
 1091              		.loc 1 380 0
 1092 0094 AC6A     		ldr	r4, [r5, #40]
 1093              	.LVL110:
 1094 0096 DEE7     		b	.L102
 1095              	.LVL111:
 1096              	.L108:
 1097              	.LBE57:
 1098              	.LBB64:
 1099              	.LBB65:
 1100              		.loc 2 53 0
 1101 0098 2868     		ldr	r0, [r5, #0]
 1102              	.LVL112:
 1103              		.loc 2 55 0
 1104 009a 0368     		ldr	r3, [r0, #0]
 1105 009c 2B60     		str	r3, [r5, #0]
 1106 009e 5D60     		str	r5, [r3, #4]
 1107              	.LBE65:
 1108              	.LBE64:
 1109              		.loc 1 374 0
 1110 00a0 FFF7FEFF 		bl	chSchReadyI
 1111              	.LVL113:
 1112 00a4 0023     		movs	r3, #0
 1113 00a6 8362     		str	r3, [r0, #40]
 1114 00a8 CDE7     		b	.L100
 1115              	.L112:
 1116 00aa 00BF     		.align	2
 1117              	.L111:
 1118 00ac 18010000 		.word	.LC14
 1119 00b0 30010000 		.word	.LC15
 1120 00b4 04010000 		.word	.LC13
 1121 00b8 00000000 		.word	rlist
 1122              		.cfi_endproc
 1123              	.LFE17:
 1124              		.size	chSemSignalWait, .-chSemSignalWait
 1125 00bc AFF30080 		.section	.rodata.str1.4,"aMS",%progbits,1
 1126              		.align	2
 1127              	.LC0:
 1128 0000 22636853 		.ascii	"\"chSemInit\"()\000"
ARM GAS  /tmp/ccwv3sr0.s 			page 21


 1128      656D496E 
 1128      69742228 
 1128      2900
 1129 000e 0000     		.space	2
 1130              	.LC1:
 1131 0010 22636853 		.ascii	"\"chSemResetI\"()\000"
 1131      656D5265 
 1131      73657449 
 1131      22282900 
 1132              	.LC2:
 1133 0020 63685365 		.ascii	"chSemResetI(), #1\000"
 1133      6D526573 
 1133      65744928 
 1133      292C2023 
 1133      3100
 1134 0032 0000     		.space	2
 1135              	.LC3:
 1136 0034 22636853 		.ascii	"\"chSemWaitS\"()\000"
 1136      656D5761 
 1136      69745322 
 1136      282900
 1137 0043 00       		.space	1
 1138              	.LC4:
 1139 0044 63685365 		.ascii	"chSemWaitS(), #1\000"
 1139      6D576169 
 1139      74532829 
 1139      2C202331 
 1139      00
 1140 0055 000000   		.space	3
 1141              	.LC5:
 1142 0058 22636853 		.ascii	"\"chSemWaitTimeoutS\"()\000"
 1142      656D5761 
 1142      69745469 
 1142      6D656F75 
 1142      74532228 
 1143 006e 0000     		.space	2
 1144              	.LC6:
 1145 0070 63685365 		.ascii	"chSemWaitTimeoutS(), #1\000"
 1145      6D576169 
 1145      7454696D 
 1145      656F7574 
 1145      5328292C 
 1146              	.LC7:
 1147 0088 22636853 		.ascii	"\"chSemSignal\"()\000"
 1147      656D5369 
 1147      676E616C 
 1147      22282900 
 1148              	.LC8:
 1149 0098 63685365 		.ascii	"chSemSignal(), #1\000"
 1149      6D536967 
 1149      6E616C28 
 1149      292C2023 
 1149      3100
 1150 00aa 0000     		.space	2
 1151              	.LC9:
 1152 00ac 22636853 		.ascii	"\"chSemSignalI\"()\000"
 1152      656D5369 
ARM GAS  /tmp/ccwv3sr0.s 			page 22


 1152      676E616C 
 1152      49222829 
 1152      00
 1153 00bd 000000   		.space	3
 1154              	.LC10:
 1155 00c0 63685365 		.ascii	"chSemSignalI(), #1\000"
 1155      6D536967 
 1155      6E616C49 
 1155      28292C20 
 1155      233100
 1156 00d3 00       		.space	1
 1157              	.LC11:
 1158 00d4 22636853 		.ascii	"\"chSemAddCounterI\"()\000"
 1158      656D4164 
 1158      64436F75 
 1158      6E746572 
 1158      49222829 
 1159 00e9 000000   		.space	3
 1160              	.LC12:
 1161 00ec 63685365 		.ascii	"chSemAddCounterI(), #1\000"
 1161      6D416464 
 1161      436F756E 
 1161      74657249 
 1161      28292C20 
 1162 0103 00       		.space	1
 1163              	.LC13:
 1164 0104 22636853 		.ascii	"\"chSemSignalWait\"()\000"
 1164      656D5369 
 1164      676E616C 
 1164      57616974 
 1164      22282900 
 1165              	.LC14:
 1166 0118 63685365 		.ascii	"chSemSignalWait(), #1\000"
 1166      6D536967 
 1166      6E616C57 
 1166      61697428 
 1166      292C2023 
 1167 012e 0000     		.space	2
 1168              	.LC15:
 1169 0130 63685365 		.ascii	"chSemSignalWait(), #2\000"
 1169      6D536967 
 1169      6E616C57 
 1169      61697428 
 1169      292C2023 
 1170 0146 0000     		.text
 1171              	.Letext0:
 1172              		.file 3 "/home/david/toolchains/arm-psas-eabi/bin/../lib/gcc/arm-psas-eabi/4.7.2/../../../../arm-p
 1173              		.file 4 "../../ChibiOS/os/ports/GCC/ARMCMx/chtypes.h"
 1174              		.file 5 "../../ChibiOS/os/kernel/include/chlists.h"
 1175              		.file 6 "../../ChibiOS/os/kernel/include/chthreads.h"
 1176              		.file 7 "../../ChibiOS/os/ports/GCC/ARMCMx/chcore_v7m.h"
 1177              		.file 8 "../../ChibiOS/os/kernel/include/chschd.h"
 1178              		.file 9 "../../ChibiOS/os/kernel/include/chsem.h"
 1179              		.file 10 "../../ChibiOS/os/kernel/include/chmtx.h"
 1180              		.file 11 "../../ChibiOS/os/kernel/include/chdebug.h"