ARM GAS  /tmp/ccwR0N9q.s 			page 1


   1              		.syntax unified
   2              		.cpu cortex-m4
   3              		.eabi_attribute 27, 3
   4              		.eabi_attribute 28, 1
   5              		.fpu fpv4-sp-d16
   6              		.eabi_attribute 20, 1
   7              		.eabi_attribute 21, 1
   8              		.eabi_attribute 23, 3
   9              		.eabi_attribute 24, 1
  10              		.eabi_attribute 25, 1
  11              		.eabi_attribute 26, 1
  12              		.eabi_attribute 30, 2
  13              		.eabi_attribute 34, 1
  14              		.eabi_attribute 18, 4
  15              		.thumb
  16              		.file	"chsys.c"
  17              		.text
  18              	.Ltext0:
  19              		.cfi_sections	.debug_frame
  20              		.section	.text._idle_thread,"ax",%progbits
  21              		.align	2
  22              		.p2align 4,,15
  23              		.global	_idle_thread
  24              		.thumb
  25              		.thumb_func
  26              		.type	_idle_thread, %function
  27              	_idle_thread:
  28              	.LFB7:
  29              		.file 1 "../../ChibiOS/os/kernel/src/chsys.c"
  30              		.loc 1 54 0
  31              		.cfi_startproc
  32              		@ args = 0, pretend = 0, frame = 0
  33              		@ frame_needed = 0, uses_anonymous_args = 0
  34              		@ link register save eliminated.
  35              	.LVL0:
  36              		.loc 1 57 0
  37 0000 024B     		ldr	r3, .L4
  38 0002 034A     		ldr	r2, .L4+4
  39 0004 9B69     		ldr	r3, [r3, #24]
  40 0006 9A61     		str	r2, [r3, #24]
  41              	.L2:
  42 0008 FEE7     		b	.L2
  43              	.L5:
  44 000a 00BF     		.align	2
  45              	.L4:
  46 000c 00000000 		.word	rlist
  47 0010 00000000 		.word	.LC0
  48              		.cfi_endproc
  49              	.LFE7:
  50              		.size	_idle_thread, .-_idle_thread
  51 0014 AFF30080 		.section	.text.chSysInit,"ax",%progbits
  51      AFF30080 
  51      AFF30080 
  52              		.align	2
  53              		.p2align 4,,15
  54              		.global	chSysInit
  55              		.thumb
ARM GAS  /tmp/ccwR0N9q.s 			page 2


  56              		.thumb_func
  57              		.type	chSysInit, %function
  58              	chSysInit:
  59              	.LFB8:
  60              		.loc 1 77 0
  61              		.cfi_startproc
  62              		@ args = 0, pretend = 0, frame = 0
  63              		@ frame_needed = 0, uses_anonymous_args = 0
  64 0000 30B5     		push	{r4, r5, lr}
  65              	.LCFI0:
  66              		.cfi_def_cfa_offset 12
  67              		.cfi_offset 4, -12
  68              		.cfi_offset 5, -8
  69              		.cfi_offset 14, -4
  70 0002 83B0     		sub	sp, sp, #12
  71              	.LCFI1:
  72              		.cfi_def_cfa_offset 24
  73              		.loc 1 83 0
  74 0004 FFF7FEFF 		bl	_port_init
  75              	.LVL1:
  76              		.loc 1 84 0
  77 0008 FFF7FEFF 		bl	_scheduler_init
  78              	.LVL2:
  79              		.loc 1 85 0
  80 000c FFF7FEFF 		bl	_vt_init
  81              	.LVL3:
  82              		.loc 1 87 0
  83 0010 FFF7FEFF 		bl	_core_init
  84              	.LVL4:
  85              		.loc 1 90 0
  86 0014 FFF7FEFF 		bl	_heap_init
  87              	.LVL5:
  88              		.loc 1 93 0
  89 0018 FFF7FEFF 		bl	_trace_init
  90              	.LVL6:
  91              		.loc 1 97 0
  92 001c 40F20000 		movw	r0, #:lower16:.LANCHOR0
  93 0020 4021     		movs	r1, #64
  94 0022 C0F20000 		movt	r0, #:upper16:.LANCHOR0
  95 0026 FFF7FEFF 		bl	_thread_init
  96              	.LVL7:
  97 002a 40F20004 		movw	r4, #:lower16:rlist
  98              		.loc 1 102 0
  99 002e 40F20003 		movw	r3, #:lower16:__main_thread_stack_base__
 100 0032 C0F20003 		movt	r3, #:upper16:__main_thread_stack_base__
 101              		.loc 1 97 0
 102 0036 C0F20004 		movt	r4, #:upper16:rlist
 103              		.loc 1 98 0
 104 003a 0125     		movs	r5, #1
 105              		.loc 1 102 0
 106 003c C361     		str	r3, [r0, #28]
 107              		.loc 1 98 0
 108 003e 80F82050 		strb	r5, [r0, #32]
 109              		.loc 1 97 0
 110 0042 A061     		str	r0, [r4, #24]
 111              		.loc 1 104 0
 112 0044 FFF7FEFF 		bl	dbg_check_enable
ARM GAS  /tmp/ccwR0N9q.s 			page 3


 113              	.LVL8:
 114              	.LBB2:
 115 0048 0023     		movs	r3, #0
 116              	.LVL9:
 117              	@ 104 "../../ChibiOS/os/kernel/src/chsys.c" 1
 118 004a 83F31188 		msr     BASEPRI, r3                    
 119 004e 62B6     		cpsie   i
 120              	@ 0 "" 2
 121              	.LVL10:
 122              		.thumb
 123              	.LBE2:
 124              		.loc 1 108 0
 125 0050 40F20001 		movw	r1, #:lower16:ch_debug
 126 0054 A269     		ldr	r2, [r4, #24]
 127 0056 C0F20001 		movt	r1, #:upper16:ch_debug
 128 005a 9161     		str	r1, [r2, #24]
 129              		.loc 1 114 0
 130 005c 40F20000 		movw	r0, #:lower16:.LANCHOR1
 131 0060 0093     		str	r3, [sp, #0]
 132 0062 40F20003 		movw	r3, #:lower16:_idle_thread
 133              	.LVL11:
 134 0066 C021     		movs	r1, #192
 135 0068 2A46     		mov	r2, r5
 136 006a C0F20003 		movt	r3, #:upper16:_idle_thread
 137 006e C0F20000 		movt	r0, #:upper16:.LANCHOR1
 138 0072 FFF7FEFF 		bl	chThdCreateStatic
 139              	.LVL12:
 140              		.loc 1 117 0
 141 0076 03B0     		add	sp, sp, #12
 142 0078 30BD     		pop	{r4, r5, pc}
 143              		.cfi_endproc
 144              	.LFE8:
 145              		.size	chSysInit, .-chSysInit
 146 007a 00BFAFF3 		.section	.text.chSysTimerHandlerI,"ax",%progbits
 146      0080
 147              		.align	2
 148              		.p2align 4,,15
 149              		.global	chSysTimerHandlerI
 150              		.thumb
 151              		.thumb_func
 152              		.type	chSysTimerHandlerI, %function
 153              	chSysTimerHandlerI:
 154              	.LFB9:
 155              		.loc 1 130 0
 156              		.cfi_startproc
 157              		@ args = 0, pretend = 0, frame = 0
 158              		@ frame_needed = 0, uses_anonymous_args = 0
 159 0000 F8B5     		push	{r3, r4, r5, r6, r7, lr}
 160              	.LCFI2:
 161              		.cfi_def_cfa_offset 24
 162              		.cfi_offset 3, -24
 163              		.cfi_offset 4, -20
 164              		.cfi_offset 5, -16
 165              		.cfi_offset 6, -12
 166              		.cfi_offset 7, -8
 167              		.cfi_offset 14, -4
 168              		.loc 1 132 0
ARM GAS  /tmp/ccwR0N9q.s 			page 4


 169 0002 FFF7FEFF 		bl	chDbgCheckClassI
 170              	.LVL13:
 171              		.loc 1 136 0
 172 0006 164B     		ldr	r3, .L20
 173 0008 9B69     		ldr	r3, [r3, #24]
 174 000a 93F82320 		ldrb	r2, [r3, #35]	@ zero_extendqisi2
 175 000e 12B1     		cbz	r2, .L8
 176              		.loc 1 138 0
 177 0010 013A     		subs	r2, r2, #1
 178 0012 83F82320 		strb	r2, [r3, #35]
 179              	.L8:
 180              		.loc 1 141 0
 181 0016 5A6A     		ldr	r2, [r3, #36]
 182              		.loc 1 143 0
 183 0018 124D     		ldr	r5, .L20+4
 184              		.loc 1 141 0
 185 001a 0132     		adds	r2, r2, #1
 186 001c 5A62     		str	r2, [r3, #36]
 187              		.loc 1 143 0
 188 001e EB68     		ldr	r3, [r5, #12]
 189 0020 2C68     		ldr	r4, [r5, #0]
 190 0022 0133     		adds	r3, r3, #1
 191 0024 AC42     		cmp	r4, r5
 192 0026 EB60     		str	r3, [r5, #12]
 193 0028 18D0     		beq	.L7
 194              	.LBB3:
 195              		.loc 1 143 0 is_stmt 0 discriminator 1
 196 002a A768     		ldr	r7, [r4, #8]
 197 002c 013F     		subs	r7, r7, #1
 198 002e A760     		str	r7, [r4, #8]
 199              	.LVL14:
 200 0030 A7B9     		cbnz	r7, .L7
 201              	.L16:
 202              	.LBB4:
 203              		.loc 1 143 0 discriminator 3
 204 0032 2368     		ldr	r3, [r4, #0]
 205 0034 E668     		ldr	r6, [r4, #12]
 206              	.LVL15:
 207 0036 5D60     		str	r5, [r3, #4]
 208 0038 E760     		str	r7, [r4, #12]
 209 003a 2B60     		str	r3, [r5, #0]
 210 003c FFF7FEFF 		bl	dbg_check_unlock_from_isr
 211              	.LVL16:
 212              	.LBB5:
 213 0040 0023     		movs	r3, #0
 214              	.LVL17:
 215              	@ 143 "../../ChibiOS/os/kernel/src/chsys.c" 1
 216 0042 83F31188 		msr     BASEPRI, r3
 217              	@ 0 "" 2
 218              	.LVL18:
 219              		.thumb
 220              	.LBE5:
 221 0046 2069     		ldr	r0, [r4, #16]
 222 0048 B047     		blx	r6
 223              	.LVL19:
 224              	.LBB6:
 225 004a 2023     		movs	r3, #32
ARM GAS  /tmp/ccwR0N9q.s 			page 5


 226              	.LVL20:
 227              	@ 143 "../../ChibiOS/os/kernel/src/chsys.c" 1
 228 004c 83F31188 		msr     BASEPRI, r3
 229              	@ 0 "" 2
 230              	.LVL21:
 231              		.thumb
 232              	.LBE6:
 233 0050 FFF7FEFF 		bl	dbg_check_lock_from_isr
 234              	.LVL22:
 235              	.LBE4:
 236 0054 2C68     		ldr	r4, [r5, #0]
 237              	.LVL23:
 238 0056 A368     		ldr	r3, [r4, #8]
 239 0058 002B     		cmp	r3, #0
 240 005a EAD0     		beq	.L16
 241              	.LVL24:
 242              	.L7:
 243 005c F8BD     		pop	{r3, r4, r5, r6, r7, pc}
 244              	.L21:
 245 005e 00BF     		.align	2
 246              	.L20:
 247 0060 00000000 		.word	rlist
 248 0064 00000000 		.word	vtlist
 249              	.LBE3:
 250              		.cfi_endproc
 251              	.LFE9:
 252              		.size	chSysTimerHandlerI, .-chSysTimerHandlerI
 253              		.global	_idle_thread_wa
 254 0068 AFF30080 		.section	.bss.mainthread.4819,"aw",%nobits
 254      AFF30080 
 255              		.align	2
 256              		.set	.LANCHOR0,. + 0
 257              		.type	mainthread.4819, %object
 258              		.size	mainthread.4819, 76
 259              	mainthread.4819:
 260 0000 00000000 		.space	76
 260      00000000 
 260      00000000 
 260      00000000 
 260      00000000 
 261              		.section	.rodata.str1.4,"aMS",%progbits,1
 262              		.align	2
 263              	.LC0:
 264 0000 69646C65 		.ascii	"idle\000"
 264      00
 265 0005 000000   		.section	.bss._idle_thread_wa,"aw",%nobits
 266              		.align	3
 267              		.set	.LANCHOR1,. + 0
 268              		.type	_idle_thread_wa, %object
 269              		.size	_idle_thread_wa, 192
 270              	_idle_thread_wa:
 271 0000 00000000 		.space	192
 271      00000000 
 271      00000000 
 271      00000000 
 271      00000000 
 272              		.text
ARM GAS  /tmp/ccwR0N9q.s 			page 6


 273              	.Letext0:
 274              		.file 2 "/home/david/toolchains/psas/x-tools/stm32f407/arm-psas-eabi/bin/../lib/gcc/arm-psas-eabi/
 275              		.file 3 "/home/david/toolchains/psas/x-tools/stm32f407/arm-psas-eabi/bin/../lib/gcc/arm-psas-eabi/
 276              		.file 4 "../../ChibiOS/os/ports/GCC/ARMCMx/chtypes.h"
 277              		.file 5 "../../ChibiOS/os/kernel/include/chlists.h"
 278              		.file 6 "../../ChibiOS/os/kernel/include/chthreads.h"
 279              		.file 7 "../../ChibiOS/os/ports/GCC/ARMCMx/chcore_v7m.h"
 280              		.file 8 "../../ChibiOS/os/kernel/include/chvt.h"
 281              		.file 9 "../../ChibiOS/os/kernel/include/chschd.h"
 282              		.file 10 "../../ChibiOS/os/kernel/include/chmtx.h"
 283              		.file 11 "../../ChibiOS/os/kernel/include/chregistry.h"
 284              		.file 12 "../../ChibiOS/os/kernel/include/chmemcore.h"
 285              		.file 13 "../../ChibiOS/os/kernel/include/chheap.h"
 286              		.file 14 "../../ChibiOS/os/kernel/include/chdebug.h"
 287              		.section	.debug_info,"",%progbits
 288              	.Ldebug_info0:
 289 0000 3F090000 		.4byte	0x93f
 290 0004 0200     		.2byte	0x2
 291 0006 00000000 		.4byte	.Ldebug_abbrev0
 292 000a 04       		.byte	0x4
 293 000b 01       		.uleb128 0x1
 294 000c 11030000 		.4byte	.LASF117
 295 0010 01       		.byte	0x1
 296 0011 4C000000 		.4byte	.LASF118
 297 0015 CD000000 		.4byte	.LASF119
 298 0019 00000000 		.4byte	.Ldebug_ranges0+0
 299 001d 00000000 		.4byte	0
 300 0021 00000000 		.4byte	0
 301 0025 00000000 		.4byte	.Ldebug_line0
 302 0029 02       		.uleb128 0x2
 303 002a 04       		.byte	0x4
 304 002b 05       		.byte	0x5
 305 002c 696E7400 		.ascii	"int\000"
 306 0030 03       		.uleb128 0x3
 307 0031 1B000000 		.4byte	.LASF2
 308 0035 02       		.byte	0x2
 309 0036 D5       		.byte	0xd5
 310 0037 3B000000 		.4byte	0x3b
 311 003b 04       		.uleb128 0x4
 312 003c 04       		.byte	0x4
 313 003d 07       		.byte	0x7
 314 003e DD010000 		.4byte	.LASF0
 315 0042 04       		.uleb128 0x4
 316 0043 01       		.byte	0x1
 317 0044 06       		.byte	0x6
 318 0045 FC000000 		.4byte	.LASF1
 319 0049 03       		.uleb128 0x3
 320 004a C7040000 		.4byte	.LASF3
 321 004e 03       		.byte	0x3
 322 004f 2A       		.byte	0x2a
 323 0050 54000000 		.4byte	0x54
 324 0054 04       		.uleb128 0x4
 325 0055 01       		.byte	0x1
 326 0056 08       		.byte	0x8
 327 0057 66030000 		.4byte	.LASF4
 328 005b 04       		.uleb128 0x4
 329 005c 02       		.byte	0x2
ARM GAS  /tmp/ccwR0N9q.s 			page 7


 330 005d 05       		.byte	0x5
 331 005e 89030000 		.4byte	.LASF5
 332 0062 03       		.uleb128 0x3
 333 0063 79010000 		.4byte	.LASF6
 334 0067 03       		.byte	0x3
 335 0068 36       		.byte	0x36
 336 0069 6D000000 		.4byte	0x6d
 337 006d 04       		.uleb128 0x4
 338 006e 02       		.byte	0x2
 339 006f 07       		.byte	0x7
 340 0070 30020000 		.4byte	.LASF7
 341 0074 03       		.uleb128 0x3
 342 0075 5E030000 		.4byte	.LASF8
 343 0079 03       		.byte	0x3
 344 007a 4F       		.byte	0x4f
 345 007b 7F000000 		.4byte	0x7f
 346 007f 04       		.uleb128 0x4
 347 0080 04       		.byte	0x4
 348 0081 05       		.byte	0x5
 349 0082 59010000 		.4byte	.LASF9
 350 0086 03       		.uleb128 0x3
 351 0087 FC030000 		.4byte	.LASF10
 352 008b 03       		.byte	0x3
 353 008c 50       		.byte	0x50
 354 008d 91000000 		.4byte	0x91
 355 0091 04       		.uleb128 0x4
 356 0092 04       		.byte	0x4
 357 0093 07       		.byte	0x7
 358 0094 FF010000 		.4byte	.LASF11
 359 0098 04       		.uleb128 0x4
 360 0099 08       		.byte	0x8
 361 009a 05       		.byte	0x5
 362 009b 6B010000 		.4byte	.LASF12
 363 009f 03       		.uleb128 0x3
 364 00a0 29000000 		.4byte	.LASF13
 365 00a4 03       		.byte	0x3
 366 00a5 78       		.byte	0x78
 367 00a6 AA000000 		.4byte	0xaa
 368 00aa 04       		.uleb128 0x4
 369 00ab 08       		.byte	0x8
 370 00ac 07       		.byte	0x7
 371 00ad 70000000 		.4byte	.LASF14
 372 00b1 03       		.uleb128 0x3
 373 00b2 66020000 		.4byte	.LASF15
 374 00b6 04       		.byte	0x4
 375 00b7 28       		.byte	0x28
 376 00b8 49000000 		.4byte	0x49
 377 00bc 03       		.uleb128 0x3
 378 00bd 62010000 		.4byte	.LASF16
 379 00c1 04       		.byte	0x4
 380 00c2 29       		.byte	0x29
 381 00c3 49000000 		.4byte	0x49
 382 00c7 03       		.uleb128 0x3
 383 00c8 3C030000 		.4byte	.LASF17
 384 00cc 04       		.byte	0x4
 385 00cd 2A       		.byte	0x2a
 386 00ce 49000000 		.4byte	0x49
ARM GAS  /tmp/ccwR0N9q.s 			page 8


 387 00d2 03       		.uleb128 0x3
 388 00d3 4F010000 		.4byte	.LASF18
 389 00d7 04       		.byte	0x4
 390 00d8 2B       		.byte	0x2b
 391 00d9 49000000 		.4byte	0x49
 392 00dd 03       		.uleb128 0x3
 393 00de 56030000 		.4byte	.LASF19
 394 00e2 04       		.byte	0x4
 395 00e3 2C       		.byte	0x2c
 396 00e4 86000000 		.4byte	0x86
 397 00e8 03       		.uleb128 0x3
 398 00e9 4F020000 		.4byte	.LASF20
 399 00ed 04       		.byte	0x4
 400 00ee 2D       		.byte	0x2d
 401 00ef 74000000 		.4byte	0x74
 402 00f3 03       		.uleb128 0x3
 403 00f4 7A020000 		.4byte	.LASF21
 404 00f8 04       		.byte	0x4
 405 00f9 2F       		.byte	0x2f
 406 00fa 86000000 		.4byte	0x86
 407 00fe 03       		.uleb128 0x3
 408 00ff 4D040000 		.4byte	.LASF22
 409 0103 04       		.byte	0x4
 410 0104 31       		.byte	0x31
 411 0105 86000000 		.4byte	0x86
 412 0109 03       		.uleb128 0x3
 413 010a DD030000 		.4byte	.LASF23
 414 010e 05       		.byte	0x5
 415 010f 23       		.byte	0x23
 416 0110 14010000 		.4byte	0x114
 417 0114 05       		.uleb128 0x5
 418 0115 DD030000 		.4byte	.LASF23
 419 0119 4C       		.byte	0x4c
 420 011a 06       		.byte	0x6
 421 011b 57       		.byte	0x57
 422 011c 47020000 		.4byte	0x247
 423 0120 06       		.uleb128 0x6
 424 0121 BF030000 		.4byte	.LASF24
 425 0125 06       		.byte	0x6
 426 0126 58       		.byte	0x58
 427 0127 6C020000 		.4byte	0x26c
 428 012b 02       		.byte	0x2
 429 012c 23       		.byte	0x23
 430 012d 00       		.uleb128 0
 431 012e 06       		.uleb128 0x6
 432 012f 4F030000 		.4byte	.LASF25
 433 0133 06       		.byte	0x6
 434 0134 5A       		.byte	0x5a
 435 0135 6C020000 		.4byte	0x26c
 436 0139 02       		.byte	0x2
 437 013a 23       		.byte	0x23
 438 013b 04       		.uleb128 0x4
 439 013c 06       		.uleb128 0x6
 440 013d A9000000 		.4byte	.LASF26
 441 0141 06       		.byte	0x6
 442 0142 5C       		.byte	0x5c
 443 0143 DD000000 		.4byte	0xdd
ARM GAS  /tmp/ccwR0N9q.s 			page 9


 444 0147 02       		.byte	0x2
 445 0148 23       		.byte	0x23
 446 0149 08       		.uleb128 0x8
 447 014a 06       		.uleb128 0x6
 448 014b 25050000 		.4byte	.LASF27
 449 014f 06       		.byte	0x6
 450 0150 5D       		.byte	0x5d
 451 0151 45030000 		.4byte	0x345
 452 0155 02       		.byte	0x2
 453 0156 23       		.byte	0x23
 454 0157 0C       		.uleb128 0xc
 455 0158 06       		.uleb128 0x6
 456 0159 8C010000 		.4byte	.LASF28
 457 015d 06       		.byte	0x6
 458 015e 5F       		.byte	0x5f
 459 015f 6C020000 		.4byte	0x26c
 460 0163 02       		.byte	0x2
 461 0164 23       		.byte	0x23
 462 0165 10       		.uleb128 0x10
 463 0166 06       		.uleb128 0x6
 464 0167 EE020000 		.4byte	.LASF29
 465 016b 06       		.byte	0x6
 466 016c 60       		.byte	0x60
 467 016d 6C020000 		.4byte	0x26c
 468 0171 02       		.byte	0x2
 469 0172 23       		.byte	0x23
 470 0173 14       		.uleb128 0x14
 471 0174 06       		.uleb128 0x6
 472 0175 F9040000 		.4byte	.LASF30
 473 0179 06       		.byte	0x6
 474 017a 67       		.byte	0x67
 475 017b 26050000 		.4byte	0x526
 476 017f 02       		.byte	0x2
 477 0180 23       		.byte	0x23
 478 0181 18       		.uleb128 0x18
 479 0182 06       		.uleb128 0x6
 480 0183 D2010000 		.4byte	.LASF31
 481 0187 06       		.byte	0x6
 482 0188 6D       		.byte	0x6d
 483 0189 38050000 		.4byte	0x538
 484 018d 02       		.byte	0x2
 485 018e 23       		.byte	0x23
 486 018f 1C       		.uleb128 0x1c
 487 0190 06       		.uleb128 0x6
 488 0191 93030000 		.4byte	.LASF32
 489 0195 06       		.byte	0x6
 490 0196 72       		.byte	0x72
 491 0197 BC000000 		.4byte	0xbc
 492 019b 02       		.byte	0x2
 493 019c 23       		.byte	0x23
 494 019d 20       		.uleb128 0x20
 495 019e 06       		.uleb128 0x6
 496 019f D5030000 		.4byte	.LASF33
 497 01a3 06       		.byte	0x6
 498 01a4 76       		.byte	0x76
 499 01a5 B1000000 		.4byte	0xb1
 500 01a9 02       		.byte	0x2
ARM GAS  /tmp/ccwR0N9q.s 			page 10


 501 01aa 23       		.byte	0x23
 502 01ab 21       		.uleb128 0x21
 503 01ac 06       		.uleb128 0x6
 504 01ad B0040000 		.4byte	.LASF34
 505 01b1 06       		.byte	0x6
 506 01b2 7B       		.byte	0x7b
 507 01b3 C7000000 		.4byte	0xc7
 508 01b7 02       		.byte	0x2
 509 01b8 23       		.byte	0x23
 510 01b9 22       		.uleb128 0x22
 511 01ba 06       		.uleb128 0x6
 512 01bb 9B030000 		.4byte	.LASF35
 513 01bf 06       		.byte	0x6
 514 01c0 81       		.byte	0x81
 515 01c1 D2000000 		.4byte	0xd2
 516 01c5 02       		.byte	0x2
 517 01c6 23       		.byte	0x23
 518 01c7 23       		.uleb128 0x23
 519 01c8 06       		.uleb128 0x6
 520 01c9 74040000 		.4byte	.LASF36
 521 01cd 06       		.byte	0x6
 522 01ce 88       		.byte	0x88
 523 01cf 31040000 		.4byte	0x431
 524 01d3 02       		.byte	0x2
 525 01d4 23       		.byte	0x23
 526 01d5 24       		.uleb128 0x24
 527 01d6 07       		.uleb128 0x7
 528 01d7 705F7500 		.ascii	"p_u\000"
 529 01db 06       		.byte	0x6
 530 01dc AD       		.byte	0xad
 531 01dd F1040000 		.4byte	0x4f1
 532 01e1 02       		.byte	0x2
 533 01e2 23       		.byte	0x23
 534 01e3 28       		.uleb128 0x28
 535 01e4 06       		.uleb128 0x6
 536 01e5 2B050000 		.4byte	.LASF37
 537 01e9 06       		.byte	0x6
 538 01ea B2       		.byte	0xb2
 539 01eb 94020000 		.4byte	0x294
 540 01ef 02       		.byte	0x2
 541 01f0 23       		.byte	0x23
 542 01f1 2C       		.uleb128 0x2c
 543 01f2 06       		.uleb128 0x6
 544 01f3 82040000 		.4byte	.LASF38
 545 01f7 06       		.byte	0x6
 546 01f8 B8       		.byte	0xb8
 547 01f9 72020000 		.4byte	0x272
 548 01fd 02       		.byte	0x2
 549 01fe 23       		.byte	0x23
 550 01ff 30       		.uleb128 0x30
 551 0200 06       		.uleb128 0x6
 552 0201 15000000 		.4byte	.LASF39
 553 0205 06       		.byte	0x6
 554 0206 BC       		.byte	0xbc
 555 0207 E8000000 		.4byte	0xe8
 556 020b 02       		.byte	0x2
 557 020c 23       		.byte	0x23
ARM GAS  /tmp/ccwR0N9q.s 			page 11


 558 020d 38       		.uleb128 0x38
 559 020e 06       		.uleb128 0x6
 560 020f F1030000 		.4byte	.LASF40
 561 0213 06       		.byte	0x6
 562 0214 C2       		.byte	0xc2
 563 0215 F3000000 		.4byte	0xf3
 564 0219 02       		.byte	0x2
 565 021a 23       		.byte	0x23
 566 021b 3C       		.uleb128 0x3c
 567 021c 06       		.uleb128 0x6
 568 021d 7F030000 		.4byte	.LASF41
 569 0221 06       		.byte	0x6
 570 0222 C9       		.byte	0xc9
 571 0223 3E050000 		.4byte	0x53e
 572 0227 02       		.byte	0x2
 573 0228 23       		.byte	0x23
 574 0229 40       		.uleb128 0x40
 575 022a 06       		.uleb128 0x6
 576 022b 57040000 		.4byte	.LASF42
 577 022f 06       		.byte	0x6
 578 0230 CD       		.byte	0xcd
 579 0231 DD000000 		.4byte	0xdd
 580 0235 02       		.byte	0x2
 581 0236 23       		.byte	0x23
 582 0237 44       		.uleb128 0x44
 583 0238 06       		.uleb128 0x6
 584 0239 3F010000 		.4byte	.LASF43
 585 023d 06       		.byte	0x6
 586 023e D3       		.byte	0xd3
 587 023f AA020000 		.4byte	0x2aa
 588 0243 02       		.byte	0x2
 589 0244 23       		.byte	0x23
 590 0245 48       		.uleb128 0x48
 591 0246 00       		.byte	0
 592 0247 08       		.uleb128 0x8
 593 0248 08       		.byte	0x8
 594 0249 05       		.byte	0x5
 595 024a 5A       		.byte	0x5a
 596 024b 6C020000 		.4byte	0x26c
 597 024f 06       		.uleb128 0x6
 598 0250 BF030000 		.4byte	.LASF24
 599 0254 05       		.byte	0x5
 600 0255 5B       		.byte	0x5b
 601 0256 6C020000 		.4byte	0x26c
 602 025a 02       		.byte	0x2
 603 025b 23       		.byte	0x23
 604 025c 00       		.uleb128 0
 605 025d 06       		.uleb128 0x6
 606 025e 4F030000 		.4byte	.LASF25
 607 0262 05       		.byte	0x5
 608 0263 5D       		.byte	0x5d
 609 0264 6C020000 		.4byte	0x26c
 610 0268 02       		.byte	0x2
 611 0269 23       		.byte	0x23
 612 026a 04       		.uleb128 0x4
 613 026b 00       		.byte	0
 614 026c 09       		.uleb128 0x9
ARM GAS  /tmp/ccwR0N9q.s 			page 12


 615 026d 04       		.byte	0x4
 616 026e 09010000 		.4byte	0x109
 617 0272 03       		.uleb128 0x3
 618 0273 FC020000 		.4byte	.LASF44
 619 0277 05       		.byte	0x5
 620 0278 5F       		.byte	0x5f
 621 0279 47020000 		.4byte	0x247
 622 027d 08       		.uleb128 0x8
 623 027e 04       		.byte	0x4
 624 027f 05       		.byte	0x5
 625 0280 64       		.byte	0x64
 626 0281 94020000 		.4byte	0x294
 627 0285 06       		.uleb128 0x6
 628 0286 BF030000 		.4byte	.LASF24
 629 028a 05       		.byte	0x5
 630 028b 66       		.byte	0x66
 631 028c 6C020000 		.4byte	0x26c
 632 0290 02       		.byte	0x2
 633 0291 23       		.byte	0x23
 634 0292 00       		.uleb128 0
 635 0293 00       		.byte	0
 636 0294 03       		.uleb128 0x3
 637 0295 6E020000 		.4byte	.LASF45
 638 0299 05       		.byte	0x5
 639 029a 69       		.byte	0x69
 640 029b 7D020000 		.4byte	0x27d
 641 029f 03       		.uleb128 0x3
 642 02a0 AC010000 		.4byte	.LASF46
 643 02a4 07       		.byte	0x7
 644 02a5 DE       		.byte	0xde
 645 02a6 AA020000 		.4byte	0x2aa
 646 02aa 0A       		.uleb128 0xa
 647 02ab 04       		.byte	0x4
 648 02ac 03       		.uleb128 0x3
 649 02ad 8C020000 		.4byte	.LASF47
 650 02b1 07       		.byte	0x7
 651 02b2 E4       		.byte	0xe4
 652 02b3 9F000000 		.4byte	0x9f
 653 02b7 0B       		.uleb128 0xb
 654 02b8 7B040000 		.4byte	.LASF48
 655 02bc 24       		.byte	0x24
 656 02bd 07       		.byte	0x7
 657 02be 0501     		.2byte	0x105
 658 02c0 45030000 		.4byte	0x345
 659 02c4 0C       		.uleb128 0xc
 660 02c5 723400   		.ascii	"r4\000"
 661 02c8 07       		.byte	0x7
 662 02c9 1801     		.2byte	0x118
 663 02cb 9F020000 		.4byte	0x29f
 664 02cf 02       		.byte	0x2
 665 02d0 23       		.byte	0x23
 666 02d1 00       		.uleb128 0
 667 02d2 0C       		.uleb128 0xc
 668 02d3 723500   		.ascii	"r5\000"
 669 02d6 07       		.byte	0x7
 670 02d7 1901     		.2byte	0x119
 671 02d9 9F020000 		.4byte	0x29f
ARM GAS  /tmp/ccwR0N9q.s 			page 13


 672 02dd 02       		.byte	0x2
 673 02de 23       		.byte	0x23
 674 02df 04       		.uleb128 0x4
 675 02e0 0C       		.uleb128 0xc
 676 02e1 723600   		.ascii	"r6\000"
 677 02e4 07       		.byte	0x7
 678 02e5 1A01     		.2byte	0x11a
 679 02e7 9F020000 		.4byte	0x29f
 680 02eb 02       		.byte	0x2
 681 02ec 23       		.byte	0x23
 682 02ed 08       		.uleb128 0x8
 683 02ee 0C       		.uleb128 0xc
 684 02ef 723700   		.ascii	"r7\000"
 685 02f2 07       		.byte	0x7
 686 02f3 1B01     		.2byte	0x11b
 687 02f5 9F020000 		.4byte	0x29f
 688 02f9 02       		.byte	0x2
 689 02fa 23       		.byte	0x23
 690 02fb 0C       		.uleb128 0xc
 691 02fc 0C       		.uleb128 0xc
 692 02fd 723800   		.ascii	"r8\000"
 693 0300 07       		.byte	0x7
 694 0301 1C01     		.2byte	0x11c
 695 0303 9F020000 		.4byte	0x29f
 696 0307 02       		.byte	0x2
 697 0308 23       		.byte	0x23
 698 0309 10       		.uleb128 0x10
 699 030a 0C       		.uleb128 0xc
 700 030b 723900   		.ascii	"r9\000"
 701 030e 07       		.byte	0x7
 702 030f 1D01     		.2byte	0x11d
 703 0311 9F020000 		.4byte	0x29f
 704 0315 02       		.byte	0x2
 705 0316 23       		.byte	0x23
 706 0317 14       		.uleb128 0x14
 707 0318 0C       		.uleb128 0xc
 708 0319 72313000 		.ascii	"r10\000"
 709 031d 07       		.byte	0x7
 710 031e 1E01     		.2byte	0x11e
 711 0320 9F020000 		.4byte	0x29f
 712 0324 02       		.byte	0x2
 713 0325 23       		.byte	0x23
 714 0326 18       		.uleb128 0x18
 715 0327 0C       		.uleb128 0xc
 716 0328 72313100 		.ascii	"r11\000"
 717 032c 07       		.byte	0x7
 718 032d 1F01     		.2byte	0x11f
 719 032f 9F020000 		.4byte	0x29f
 720 0333 02       		.byte	0x2
 721 0334 23       		.byte	0x23
 722 0335 1C       		.uleb128 0x1c
 723 0336 0C       		.uleb128 0xc
 724 0337 6C7200   		.ascii	"lr\000"
 725 033a 07       		.byte	0x7
 726 033b 2001     		.2byte	0x120
 727 033d 9F020000 		.4byte	0x29f
 728 0341 02       		.byte	0x2
ARM GAS  /tmp/ccwR0N9q.s 			page 14


 729 0342 23       		.byte	0x23
 730 0343 20       		.uleb128 0x20
 731 0344 00       		.byte	0
 732 0345 0B       		.uleb128 0xb
 733 0346 28020000 		.4byte	.LASF49
 734 034a 04       		.byte	0x4
 735 034b 07       		.byte	0x7
 736 034c 2A01     		.2byte	0x12a
 737 034e 62030000 		.4byte	0x362
 738 0352 0C       		.uleb128 0xc
 739 0353 72313300 		.ascii	"r13\000"
 740 0357 07       		.byte	0x7
 741 0358 2B01     		.2byte	0x12b
 742 035a 62030000 		.4byte	0x362
 743 035e 02       		.byte	0x2
 744 035f 23       		.byte	0x23
 745 0360 00       		.uleb128 0
 746 0361 00       		.byte	0
 747 0362 09       		.uleb128 0x9
 748 0363 04       		.byte	0x4
 749 0364 B7020000 		.4byte	0x2b7
 750 0368 04       		.uleb128 0x4
 751 0369 04       		.byte	0x4
 752 036a 07       		.byte	0x7
 753 036b C5020000 		.4byte	.LASF50
 754 036f 03       		.uleb128 0x3
 755 0370 62040000 		.4byte	.LASF51
 756 0374 08       		.byte	0x8
 757 0375 4E       		.byte	0x4e
 758 0376 7A030000 		.4byte	0x37a
 759 037a 09       		.uleb128 0x9
 760 037b 04       		.byte	0x4
 761 037c 80030000 		.4byte	0x380
 762 0380 0D       		.uleb128 0xd
 763 0381 01       		.byte	0x1
 764 0382 8C030000 		.4byte	0x38c
 765 0386 0E       		.uleb128 0xe
 766 0387 AA020000 		.4byte	0x2aa
 767 038b 00       		.byte	0
 768 038c 03       		.uleb128 0x3
 769 038d 19040000 		.4byte	.LASF52
 770 0391 08       		.byte	0x8
 771 0392 53       		.byte	0x53
 772 0393 97030000 		.4byte	0x397
 773 0397 05       		.uleb128 0x5
 774 0398 19040000 		.4byte	.LASF52
 775 039c 14       		.byte	0x14
 776 039d 08       		.byte	0x8
 777 039e 5A       		.byte	0x5a
 778 039f EA030000 		.4byte	0x3ea
 779 03a3 06       		.uleb128 0x6
 780 03a4 F7010000 		.4byte	.LASF53
 781 03a8 08       		.byte	0x8
 782 03a9 5B       		.byte	0x5b
 783 03aa EA030000 		.4byte	0x3ea
 784 03ae 02       		.byte	0x2
 785 03af 23       		.byte	0x23
ARM GAS  /tmp/ccwR0N9q.s 			page 15


 786 03b0 00       		.uleb128 0
 787 03b1 06       		.uleb128 0x6
 788 03b2 B5010000 		.4byte	.LASF54
 789 03b6 08       		.byte	0x8
 790 03b7 5D       		.byte	0x5d
 791 03b8 EA030000 		.4byte	0x3ea
 792 03bc 02       		.byte	0x2
 793 03bd 23       		.byte	0x23
 794 03be 04       		.uleb128 0x4
 795 03bf 06       		.uleb128 0x6
 796 03c0 BD020000 		.4byte	.LASF55
 797 03c4 08       		.byte	0x8
 798 03c5 5F       		.byte	0x5f
 799 03c6 FE000000 		.4byte	0xfe
 800 03ca 02       		.byte	0x2
 801 03cb 23       		.byte	0x23
 802 03cc 08       		.uleb128 0x8
 803 03cd 06       		.uleb128 0x6
 804 03ce CE020000 		.4byte	.LASF56
 805 03d2 08       		.byte	0x8
 806 03d3 60       		.byte	0x60
 807 03d4 6F030000 		.4byte	0x36f
 808 03d8 02       		.byte	0x2
 809 03d9 23       		.byte	0x23
 810 03da 0C       		.uleb128 0xc
 811 03db 06       		.uleb128 0x6
 812 03dc 9E040000 		.4byte	.LASF57
 813 03e0 08       		.byte	0x8
 814 03e1 62       		.byte	0x62
 815 03e2 AA020000 		.4byte	0x2aa
 816 03e6 02       		.byte	0x2
 817 03e7 23       		.byte	0x23
 818 03e8 10       		.uleb128 0x10
 819 03e9 00       		.byte	0
 820 03ea 09       		.uleb128 0x9
 821 03eb 04       		.byte	0x4
 822 03ec 8C030000 		.4byte	0x38c
 823 03f0 08       		.uleb128 0x8
 824 03f1 10       		.byte	0x10
 825 03f2 08       		.byte	0x8
 826 03f3 6C       		.byte	0x6c
 827 03f4 31040000 		.4byte	0x431
 828 03f8 06       		.uleb128 0x6
 829 03f9 F7010000 		.4byte	.LASF53
 830 03fd 08       		.byte	0x8
 831 03fe 6D       		.byte	0x6d
 832 03ff EA030000 		.4byte	0x3ea
 833 0403 02       		.byte	0x2
 834 0404 23       		.byte	0x23
 835 0405 00       		.uleb128 0
 836 0406 06       		.uleb128 0x6
 837 0407 B5010000 		.4byte	.LASF54
 838 040b 08       		.byte	0x8
 839 040c 6F       		.byte	0x6f
 840 040d EA030000 		.4byte	0x3ea
 841 0411 02       		.byte	0x2
 842 0412 23       		.byte	0x23
ARM GAS  /tmp/ccwR0N9q.s 			page 16


 843 0413 04       		.uleb128 0x4
 844 0414 06       		.uleb128 0x6
 845 0415 BD020000 		.4byte	.LASF55
 846 0419 08       		.byte	0x8
 847 041a 71       		.byte	0x71
 848 041b FE000000 		.4byte	0xfe
 849 041f 02       		.byte	0x2
 850 0420 23       		.byte	0x23
 851 0421 08       		.uleb128 0x8
 852 0422 06       		.uleb128 0x6
 853 0423 00050000 		.4byte	.LASF58
 854 0427 08       		.byte	0x8
 855 0428 72       		.byte	0x72
 856 0429 31040000 		.4byte	0x431
 857 042d 02       		.byte	0x2
 858 042e 23       		.byte	0x23
 859 042f 0C       		.uleb128 0xc
 860 0430 00       		.byte	0
 861 0431 0F       		.uleb128 0xf
 862 0432 FE000000 		.4byte	0xfe
 863 0436 03       		.uleb128 0x3
 864 0437 16050000 		.4byte	.LASF59
 865 043b 08       		.byte	0x8
 866 043c 73       		.byte	0x73
 867 043d F0030000 		.4byte	0x3f0
 868 0441 08       		.uleb128 0x8
 869 0442 1C       		.byte	0x1c
 870 0443 09       		.byte	0x9
 871 0444 57       		.byte	0x57
 872 0445 9E040000 		.4byte	0x49e
 873 0449 06       		.uleb128 0x6
 874 044a 11040000 		.4byte	.LASF60
 875 044e 09       		.byte	0x9
 876 044f 58       		.byte	0x58
 877 0450 72020000 		.4byte	0x272
 878 0454 02       		.byte	0x2
 879 0455 23       		.byte	0x23
 880 0456 00       		.uleb128 0
 881 0457 06       		.uleb128 0x6
 882 0458 B1030000 		.4byte	.LASF61
 883 045c 09       		.byte	0x9
 884 045d 59       		.byte	0x59
 885 045e DD000000 		.4byte	0xdd
 886 0462 02       		.byte	0x2
 887 0463 23       		.byte	0x23
 888 0464 08       		.uleb128 0x8
 889 0465 06       		.uleb128 0x6
 890 0466 F6020000 		.4byte	.LASF62
 891 046a 09       		.byte	0x9
 892 046b 5B       		.byte	0x5b
 893 046c 45030000 		.4byte	0x345
 894 0470 02       		.byte	0x2
 895 0471 23       		.byte	0x23
 896 0472 0C       		.uleb128 0xc
 897 0473 06       		.uleb128 0x6
 898 0474 A4010000 		.4byte	.LASF63
 899 0478 09       		.byte	0x9
ARM GAS  /tmp/ccwR0N9q.s 			page 17


 900 0479 5E       		.byte	0x5e
 901 047a 6C020000 		.4byte	0x26c
 902 047e 02       		.byte	0x2
 903 047f 23       		.byte	0x23
 904 0480 10       		.uleb128 0x10
 905 0481 06       		.uleb128 0x6
 906 0482 27030000 		.4byte	.LASF64
 907 0486 09       		.byte	0x9
 908 0487 5F       		.byte	0x5f
 909 0488 6C020000 		.4byte	0x26c
 910 048c 02       		.byte	0x2
 911 048d 23       		.byte	0x23
 912 048e 14       		.uleb128 0x14
 913 048f 06       		.uleb128 0x6
 914 0490 1D030000 		.4byte	.LASF65
 915 0494 09       		.byte	0x9
 916 0495 62       		.byte	0x62
 917 0496 6C020000 		.4byte	0x26c
 918 049a 02       		.byte	0x2
 919 049b 23       		.byte	0x23
 920 049c 18       		.uleb128 0x18
 921 049d 00       		.byte	0
 922 049e 03       		.uleb128 0x3
 923 049f B7040000 		.4byte	.LASF66
 924 04a3 09       		.byte	0x9
 925 04a4 64       		.byte	0x64
 926 04a5 41040000 		.4byte	0x441
 927 04a9 05       		.uleb128 0x5
 928 04aa 86020000 		.4byte	.LASF67
 929 04ae 10       		.byte	0x10
 930 04af 0A       		.byte	0xa
 931 04b0 25       		.byte	0x25
 932 04b1 E0040000 		.4byte	0x4e0
 933 04b5 06       		.uleb128 0x6
 934 04b6 47010000 		.4byte	.LASF68
 935 04ba 0A       		.byte	0xa
 936 04bb 26       		.byte	0x26
 937 04bc 72020000 		.4byte	0x272
 938 04c0 02       		.byte	0x2
 939 04c1 23       		.byte	0x23
 940 04c2 00       		.uleb128 0
 941 04c3 06       		.uleb128 0x6
 942 04c4 1D050000 		.4byte	.LASF69
 943 04c8 0A       		.byte	0xa
 944 04c9 28       		.byte	0x28
 945 04ca 6C020000 		.4byte	0x26c
 946 04ce 02       		.byte	0x2
 947 04cf 23       		.byte	0x23
 948 04d0 08       		.uleb128 0x8
 949 04d1 06       		.uleb128 0x6
 950 04d2 46040000 		.4byte	.LASF70
 951 04d6 0A       		.byte	0xa
 952 04d7 2A       		.byte	0x2a
 953 04d8 E0040000 		.4byte	0x4e0
 954 04dc 02       		.byte	0x2
 955 04dd 23       		.byte	0x23
 956 04de 0C       		.uleb128 0xc
ARM GAS  /tmp/ccwR0N9q.s 			page 18


 957 04df 00       		.byte	0
 958 04e0 09       		.uleb128 0x9
 959 04e1 04       		.byte	0x4
 960 04e2 A9040000 		.4byte	0x4a9
 961 04e6 03       		.uleb128 0x3
 962 04e7 86020000 		.4byte	.LASF67
 963 04eb 0A       		.byte	0xa
 964 04ec 2C       		.byte	0x2c
 965 04ed A9040000 		.4byte	0x4a9
 966 04f1 10       		.uleb128 0x10
 967 04f2 04       		.byte	0x4
 968 04f3 06       		.byte	0x6
 969 04f4 8F       		.byte	0x8f
 970 04f5 26050000 		.4byte	0x526
 971 04f9 11       		.uleb128 0x11
 972 04fa 22000000 		.4byte	.LASF71
 973 04fe 06       		.byte	0x6
 974 04ff 96       		.byte	0x96
 975 0500 E8000000 		.4byte	0xe8
 976 0504 11       		.uleb128 0x11
 977 0505 95000000 		.4byte	.LASF72
 978 0509 06       		.byte	0x6
 979 050a 9D       		.byte	0x9d
 980 050b E8000000 		.4byte	0xe8
 981 050f 11       		.uleb128 0x11
 982 0510 F2040000 		.4byte	.LASF73
 983 0514 06       		.byte	0x6
 984 0515 A4       		.byte	0xa4
 985 0516 AA020000 		.4byte	0x2aa
 986 051a 11       		.uleb128 0x11
 987 051b B8030000 		.4byte	.LASF74
 988 051f 06       		.byte	0x6
 989 0520 AB       		.byte	0xab
 990 0521 F3000000 		.4byte	0xf3
 991 0525 00       		.byte	0
 992 0526 09       		.uleb128 0x9
 993 0527 04       		.byte	0x4
 994 0528 2C050000 		.4byte	0x52c
 995 052c 12       		.uleb128 0x12
 996 052d 31050000 		.4byte	0x531
 997 0531 04       		.uleb128 0x4
 998 0532 01       		.byte	0x1
 999 0533 08       		.byte	0x8
 1000 0534 26040000 		.4byte	.LASF75
 1001 0538 09       		.uleb128 0x9
 1002 0539 04       		.byte	0x4
 1003 053a AC020000 		.4byte	0x2ac
 1004 053e 09       		.uleb128 0x9
 1005 053f 04       		.byte	0x4
 1006 0540 E6040000 		.4byte	0x4e6
 1007 0544 03       		.uleb128 0x3
 1008 0545 00000000 		.4byte	.LASF76
 1009 0549 06       		.byte	0x6
 1010 054a DE       		.byte	0xde
 1011 054b 4F050000 		.4byte	0x54f
 1012 054f 09       		.uleb128 0x9
 1013 0550 04       		.byte	0x4
ARM GAS  /tmp/ccwR0N9q.s 			page 19


 1014 0551 55050000 		.4byte	0x555
 1015 0555 13       		.uleb128 0x13
 1016 0556 01       		.byte	0x1
 1017 0557 E8000000 		.4byte	0xe8
 1018 055b 65050000 		.4byte	0x565
 1019 055f 0E       		.uleb128 0xe
 1020 0560 AA020000 		.4byte	0x2aa
 1021 0564 00       		.byte	0
 1022 0565 08       		.uleb128 0x8
 1023 0566 16       		.byte	0x16
 1024 0567 0B       		.byte	0xb
 1025 0568 25       		.byte	0x25
 1026 0569 6A060000 		.4byte	0x66a
 1027 056d 06       		.uleb128 0x6
 1028 056e 1A020000 		.4byte	.LASF77
 1029 0572 0B       		.byte	0xb
 1030 0573 26       		.byte	0x26
 1031 0574 6A060000 		.4byte	0x66a
 1032 0578 02       		.byte	0x2
 1033 0579 23       		.byte	0x23
 1034 057a 00       		.uleb128 0
 1035 057b 06       		.uleb128 0x6
 1036 057c A9020000 		.4byte	.LASF78
 1037 0580 0B       		.byte	0xb
 1038 0581 27       		.byte	0x27
 1039 0582 49000000 		.4byte	0x49
 1040 0586 02       		.byte	0x2
 1041 0587 23       		.byte	0x23
 1042 0588 04       		.uleb128 0x4
 1043 0589 06       		.uleb128 0x6
 1044 058a 09030000 		.4byte	.LASF79
 1045 058e 0B       		.byte	0xb
 1046 058f 28       		.byte	0x28
 1047 0590 49000000 		.4byte	0x49
 1048 0594 02       		.byte	0x2
 1049 0595 23       		.byte	0x23
 1050 0596 05       		.uleb128 0x5
 1051 0597 06       		.uleb128 0x6
 1052 0598 0B050000 		.4byte	.LASF80
 1053 059c 0B       		.byte	0xb
 1054 059d 29       		.byte	0x29
 1055 059e 62000000 		.4byte	0x62
 1056 05a2 02       		.byte	0x2
 1057 05a3 23       		.byte	0x23
 1058 05a4 06       		.uleb128 0x6
 1059 05a5 06       		.uleb128 0x6
 1060 05a6 44030000 		.4byte	.LASF81
 1061 05aa 0B       		.byte	0xb
 1062 05ab 2A       		.byte	0x2a
 1063 05ac 49000000 		.4byte	0x49
 1064 05b0 02       		.byte	0x2
 1065 05b1 23       		.byte	0x23
 1066 05b2 08       		.uleb128 0x8
 1067 05b3 06       		.uleb128 0x6
 1068 05b4 D6020000 		.4byte	.LASF82
 1069 05b8 0B       		.byte	0xb
 1070 05b9 2B       		.byte	0x2b
ARM GAS  /tmp/ccwR0N9q.s 			page 20


 1071 05ba 49000000 		.4byte	0x49
 1072 05be 02       		.byte	0x2
 1073 05bf 23       		.byte	0x23
 1074 05c0 09       		.uleb128 0x9
 1075 05c1 06       		.uleb128 0x6
 1076 05c2 87000000 		.4byte	.LASF83
 1077 05c6 0B       		.byte	0xb
 1078 05c7 2C       		.byte	0x2c
 1079 05c8 49000000 		.4byte	0x49
 1080 05cc 02       		.byte	0x2
 1081 05cd 23       		.byte	0x23
 1082 05ce 0A       		.uleb128 0xa
 1083 05cf 06       		.uleb128 0x6
 1084 05d0 05040000 		.4byte	.LASF84
 1085 05d4 0B       		.byte	0xb
 1086 05d5 2D       		.byte	0x2d
 1087 05d6 49000000 		.4byte	0x49
 1088 05da 02       		.byte	0x2
 1089 05db 23       		.byte	0x23
 1090 05dc 0B       		.uleb128 0xb
 1091 05dd 06       		.uleb128 0x6
 1092 05de A5040000 		.4byte	.LASF85
 1093 05e2 0B       		.byte	0xb
 1094 05e3 2E       		.byte	0x2e
 1095 05e4 49000000 		.4byte	0x49
 1096 05e8 02       		.byte	0x2
 1097 05e9 23       		.byte	0x23
 1098 05ea 0C       		.uleb128 0xc
 1099 05eb 06       		.uleb128 0x6
 1100 05ec E4030000 		.4byte	.LASF86
 1101 05f0 0B       		.byte	0xb
 1102 05f1 2F       		.byte	0x2f
 1103 05f2 49000000 		.4byte	0x49
 1104 05f6 02       		.byte	0x2
 1105 05f7 23       		.byte	0x23
 1106 05f8 0D       		.uleb128 0xd
 1107 05f9 06       		.uleb128 0x6
 1108 05fa 08000000 		.4byte	.LASF87
 1109 05fe 0B       		.byte	0xb
 1110 05ff 30       		.byte	0x30
 1111 0600 49000000 		.4byte	0x49
 1112 0604 02       		.byte	0x2
 1113 0605 23       		.byte	0x23
 1114 0606 0E       		.uleb128 0xe
 1115 0607 06       		.uleb128 0x6
 1116 0608 E2020000 		.4byte	.LASF88
 1117 060c 0B       		.byte	0xb
 1118 060d 31       		.byte	0x31
 1119 060e 49000000 		.4byte	0x49
 1120 0612 02       		.byte	0x2
 1121 0613 23       		.byte	0x23
 1122 0614 0F       		.uleb128 0xf
 1123 0615 06       		.uleb128 0x6
 1124 0616 08010000 		.4byte	.LASF89
 1125 061a 0B       		.byte	0xb
 1126 061b 32       		.byte	0x32
 1127 061c 49000000 		.4byte	0x49
ARM GAS  /tmp/ccwR0N9q.s 			page 21


 1128 0620 02       		.byte	0x2
 1129 0621 23       		.byte	0x23
 1130 0622 10       		.uleb128 0x10
 1131 0623 06       		.uleb128 0x6
 1132 0624 B0000000 		.4byte	.LASF90
 1133 0628 0B       		.byte	0xb
 1134 0629 34       		.byte	0x34
 1135 062a 49000000 		.4byte	0x49
 1136 062e 02       		.byte	0x2
 1137 062f 23       		.byte	0x23
 1138 0630 11       		.uleb128 0x11
 1139 0631 06       		.uleb128 0x6
 1140 0632 32010000 		.4byte	.LASF91
 1141 0636 0B       		.byte	0xb
 1142 0637 35       		.byte	0x35
 1143 0638 49000000 		.4byte	0x49
 1144 063c 02       		.byte	0x2
 1145 063d 23       		.byte	0x23
 1146 063e 12       		.uleb128 0x12
 1147 063f 06       		.uleb128 0x6
 1148 0640 B1020000 		.4byte	.LASF92
 1149 0644 0B       		.byte	0xb
 1150 0645 36       		.byte	0x36
 1151 0646 49000000 		.4byte	0x49
 1152 064a 02       		.byte	0x2
 1153 064b 23       		.byte	0x23
 1154 064c 13       		.uleb128 0x13
 1155 064d 06       		.uleb128 0x6
 1156 064e C6030000 		.4byte	.LASF93
 1157 0652 0B       		.byte	0xb
 1158 0653 37       		.byte	0x37
 1159 0654 49000000 		.4byte	0x49
 1160 0658 02       		.byte	0x2
 1161 0659 23       		.byte	0x23
 1162 065a 14       		.uleb128 0x14
 1163 065b 06       		.uleb128 0x6
 1164 065c A5030000 		.4byte	.LASF94
 1165 0660 0B       		.byte	0xb
 1166 0661 39       		.byte	0x39
 1167 0662 49000000 		.4byte	0x49
 1168 0666 02       		.byte	0x2
 1169 0667 23       		.byte	0x23
 1170 0668 15       		.uleb128 0x15
 1171 0669 00       		.byte	0
 1172 066a 14       		.uleb128 0x14
 1173 066b 31050000 		.4byte	0x531
 1174 066f 7A060000 		.4byte	0x67a
 1175 0673 15       		.uleb128 0x15
 1176 0674 68030000 		.4byte	0x368
 1177 0678 03       		.byte	0x3
 1178 0679 00       		.byte	0
 1179 067a 03       		.uleb128 0x3
 1180 067b 82010000 		.4byte	.LASF95
 1181 067f 0B       		.byte	0xb
 1182 0680 3A       		.byte	0x3a
 1183 0681 65050000 		.4byte	0x565
 1184 0685 16       		.uleb128 0x16
ARM GAS  /tmp/ccwR0N9q.s 			page 22


 1185 0686 01       		.byte	0x1
 1186 0687 2F030000 		.4byte	.LASF96
 1187 068b 01       		.byte	0x1
 1188 068c 36       		.byte	0x36
 1189 068d 01       		.byte	0x1
 1190 068e 00000000 		.4byte	.LFB7
 1191 0692 14000000 		.4byte	.LFE7
 1192 0696 02       		.byte	0x2
 1193 0697 7D       		.byte	0x7d
 1194 0698 00       		.sleb128 0
 1195 0699 01       		.byte	0x1
 1196 069a AA060000 		.4byte	0x6aa
 1197 069e 17       		.uleb128 0x17
 1198 069f 7000     		.ascii	"p\000"
 1199 06a1 01       		.byte	0x1
 1200 06a2 36       		.byte	0x36
 1201 06a3 AA020000 		.4byte	0x2aa
 1202 06a7 01       		.byte	0x1
 1203 06a8 50       		.byte	0x50
 1204 06a9 00       		.byte	0
 1205 06aa 18       		.uleb128 0x18
 1206 06ab 01       		.byte	0x1
 1207 06ac BD010000 		.4byte	.LASF97
 1208 06b0 01       		.byte	0x1
 1209 06b1 4D       		.byte	0x4d
 1210 06b2 01       		.byte	0x1
 1211 06b3 00000000 		.4byte	.LFB8
 1212 06b7 7A000000 		.4byte	.LFE8
 1213 06bb 00000000 		.4byte	.LLST0
 1214 06bf 01       		.byte	0x1
 1215 06c0 8A070000 		.4byte	0x78a
 1216 06c4 19       		.uleb128 0x19
 1217 06c5 9E000000 		.4byte	.LASF98
 1218 06c9 01       		.byte	0x1
 1219 06ca 4E       		.byte	0x4e
 1220 06cb 09010000 		.4byte	0x109
 1221 06cf 05       		.byte	0x5
 1222 06d0 03       		.byte	0x3
 1223 06d1 00000000 		.4byte	mainthread.4819
 1224 06d5 1A       		.uleb128 0x1a
 1225 06d6 2B040000 		.4byte	.LASF100
 1226 06da 01       		.byte	0x1
 1227 06db 50       		.byte	0x50
 1228 06dc AC020000 		.4byte	0x2ac
 1229 06e0 01       		.byte	0x1
 1230 06e1 01       		.byte	0x1
 1231 06e2 1B       		.uleb128 0x1b
 1232 06e3 48000000 		.4byte	.LBB2
 1233 06e7 50000000 		.4byte	.LBE2
 1234 06eb FF060000 		.4byte	0x6ff
 1235 06ef 1C       		.uleb128 0x1c
 1236 06f0 746D7000 		.ascii	"tmp\000"
 1237 06f4 01       		.byte	0x1
 1238 06f5 68       		.byte	0x68
 1239 06f6 86000000 		.4byte	0x86
 1240 06fa 2C000000 		.4byte	.LLST1
 1241 06fe 00       		.byte	0
ARM GAS  /tmp/ccwR0N9q.s 			page 23


 1242 06ff 1D       		.uleb128 0x1d
 1243 0700 08000000 		.4byte	.LVL1
 1244 0704 92080000 		.4byte	0x892
 1245 0708 1D       		.uleb128 0x1d
 1246 0709 0C000000 		.4byte	.LVL2
 1247 070d 9D080000 		.4byte	0x89d
 1248 0711 1D       		.uleb128 0x1d
 1249 0712 10000000 		.4byte	.LVL3
 1250 0716 A7080000 		.4byte	0x8a7
 1251 071a 1D       		.uleb128 0x1d
 1252 071b 14000000 		.4byte	.LVL4
 1253 071f B1080000 		.4byte	0x8b1
 1254 0723 1D       		.uleb128 0x1d
 1255 0724 18000000 		.4byte	.LVL5
 1256 0728 BB080000 		.4byte	0x8bb
 1257 072c 1D       		.uleb128 0x1d
 1258 072d 1C000000 		.4byte	.LVL6
 1259 0731 C5080000 		.4byte	0x8c5
 1260 0735 1E       		.uleb128 0x1e
 1261 0736 2A000000 		.4byte	.LVL7
 1262 073a CF080000 		.4byte	0x8cf
 1263 073e 52070000 		.4byte	0x752
 1264 0742 1F       		.uleb128 0x1f
 1265 0743 01       		.byte	0x1
 1266 0744 51       		.byte	0x51
 1267 0745 02       		.byte	0x2
 1268 0746 08       		.byte	0x8
 1269 0747 40       		.byte	0x40
 1270 0748 1F       		.uleb128 0x1f
 1271 0749 01       		.byte	0x1
 1272 074a 50       		.byte	0x50
 1273 074b 05       		.byte	0x5
 1274 074c 03       		.byte	0x3
 1275 074d 00000000 		.4byte	.LANCHOR0
 1276 0751 00       		.byte	0
 1277 0752 1D       		.uleb128 0x1d
 1278 0753 48000000 		.4byte	.LVL8
 1279 0757 ED080000 		.4byte	0x8ed
 1280 075b 20       		.uleb128 0x20
 1281 075c 76000000 		.4byte	.LVL12
 1282 0760 F7080000 		.4byte	0x8f7
 1283 0764 1F       		.uleb128 0x1f
 1284 0765 01       		.byte	0x1
 1285 0766 53       		.byte	0x53
 1286 0767 05       		.byte	0x5
 1287 0768 03       		.byte	0x3
 1288 0769 00000000 		.4byte	_idle_thread
 1289 076d 1F       		.uleb128 0x1f
 1290 076e 01       		.byte	0x1
 1291 076f 52       		.byte	0x52
 1292 0770 02       		.byte	0x2
 1293 0771 75       		.byte	0x75
 1294 0772 00       		.sleb128 0
 1295 0773 1F       		.uleb128 0x1f
 1296 0774 01       		.byte	0x1
 1297 0775 51       		.byte	0x51
 1298 0776 02       		.byte	0x2
ARM GAS  /tmp/ccwR0N9q.s 			page 24


 1299 0777 08       		.byte	0x8
 1300 0778 C0       		.byte	0xc0
 1301 0779 1F       		.uleb128 0x1f
 1302 077a 01       		.byte	0x1
 1303 077b 50       		.byte	0x50
 1304 077c 05       		.byte	0x5
 1305 077d 03       		.byte	0x3
 1306 077e 00000000 		.4byte	.LANCHOR1
 1307 0782 1F       		.uleb128 0x1f
 1308 0783 02       		.byte	0x2
 1309 0784 7D       		.byte	0x7d
 1310 0785 00       		.sleb128 0
 1311 0786 01       		.byte	0x1
 1312 0787 30       		.byte	0x30
 1313 0788 00       		.byte	0
 1314 0789 00       		.byte	0
 1315 078a 18       		.uleb128 0x18
 1316 078b 01       		.byte	0x1
 1317 078c 39000000 		.4byte	.LASF99
 1318 0790 01       		.byte	0x1
 1319 0791 82       		.byte	0x82
 1320 0792 01       		.byte	0x1
 1321 0793 00000000 		.4byte	.LFB9
 1322 0797 68000000 		.4byte	.LFE9
 1323 079b 3F000000 		.4byte	.LLST2
 1324 079f 01       		.byte	0x1
 1325 07a0 37080000 		.4byte	0x837
 1326 07a4 1B       		.uleb128 0x1b
 1327 07a5 2A000000 		.4byte	.LBB3
 1328 07a9 68000000 		.4byte	.LBE3
 1329 07ad 2D080000 		.4byte	0x82d
 1330 07b1 1C       		.uleb128 0x1c
 1331 07b2 76747000 		.ascii	"vtp\000"
 1332 07b6 01       		.byte	0x1
 1333 07b7 8F       		.byte	0x8f
 1334 07b8 EA030000 		.4byte	0x3ea
 1335 07bc 5F000000 		.4byte	.LLST3
 1336 07c0 21       		.uleb128 0x21
 1337 07c1 32000000 		.4byte	.LBB4
 1338 07c5 54000000 		.4byte	.LBE4
 1339 07c9 1C       		.uleb128 0x1c
 1340 07ca 666E00   		.ascii	"fn\000"
 1341 07cd 01       		.byte	0x1
 1342 07ce 8F       		.byte	0x8f
 1343 07cf 6F030000 		.4byte	0x36f
 1344 07d3 72000000 		.4byte	.LLST4
 1345 07d7 1B       		.uleb128 0x1b
 1346 07d8 40000000 		.4byte	.LBB5
 1347 07dc 46000000 		.4byte	.LBE5
 1348 07e0 F4070000 		.4byte	0x7f4
 1349 07e4 1C       		.uleb128 0x1c
 1350 07e5 746D7000 		.ascii	"tmp\000"
 1351 07e9 01       		.byte	0x1
 1352 07ea 8F       		.byte	0x8f
 1353 07eb 86000000 		.4byte	0x86
 1354 07ef 85000000 		.4byte	.LLST5
 1355 07f3 00       		.byte	0
ARM GAS  /tmp/ccwR0N9q.s 			page 25


 1356 07f4 1B       		.uleb128 0x1b
 1357 07f5 4A000000 		.4byte	.LBB6
 1358 07f9 50000000 		.4byte	.LBE6
 1359 07fd 11080000 		.4byte	0x811
 1360 0801 1C       		.uleb128 0x1c
 1361 0802 746D7000 		.ascii	"tmp\000"
 1362 0806 01       		.byte	0x1
 1363 0807 8F       		.byte	0x8f
 1364 0808 86000000 		.4byte	0x86
 1365 080c 98000000 		.4byte	.LLST6
 1366 0810 00       		.byte	0
 1367 0811 1D       		.uleb128 0x1d
 1368 0812 40000000 		.4byte	.LVL16
 1369 0816 24090000 		.4byte	0x924
 1370 081a 22       		.uleb128 0x22
 1371 081b 4A000000 		.4byte	.LVL19
 1372 081f 02       		.byte	0x2
 1373 0820 76       		.byte	0x76
 1374 0821 00       		.sleb128 0
 1375 0822 1D       		.uleb128 0x1d
 1376 0823 54000000 		.4byte	.LVL22
 1377 0827 2E090000 		.4byte	0x92e
 1378 082b 00       		.byte	0
 1379 082c 00       		.byte	0
 1380 082d 1D       		.uleb128 0x1d
 1381 082e 06000000 		.4byte	.LVL13
 1382 0832 38090000 		.4byte	0x938
 1383 0836 00       		.byte	0
 1384 0837 1A       		.uleb128 0x1a
 1385 0838 32000000 		.4byte	.LASF101
 1386 083c 08       		.byte	0x8
 1387 083d D1       		.byte	0xd1
 1388 083e 36040000 		.4byte	0x436
 1389 0842 01       		.byte	0x1
 1390 0843 01       		.byte	0x1
 1391 0844 1A       		.uleb128 0x1a
 1392 0845 C1040000 		.4byte	.LASF102
 1393 0849 09       		.byte	0x9
 1394 084a 68       		.byte	0x68
 1395 084b 9E040000 		.4byte	0x49e
 1396 084f 01       		.byte	0x1
 1397 0850 01       		.byte	0x1
 1398 0851 1A       		.uleb128 0x1a
 1399 0852 11020000 		.4byte	.LASF103
 1400 0856 0B       		.byte	0xb
 1401 0857 77       		.byte	0x77
 1402 0858 5E080000 		.4byte	0x85e
 1403 085c 01       		.byte	0x1
 1404 085d 01       		.byte	0x1
 1405 085e 12       		.uleb128 0x12
 1406 085f 7A060000 		.4byte	0x67a
 1407 0863 14       		.uleb128 0x14
 1408 0864 AC020000 		.4byte	0x2ac
 1409 0868 73080000 		.4byte	0x873
 1410 086c 15       		.uleb128 0x15
 1411 086d 68030000 		.4byte	0x368
 1412 0871 17       		.byte	0x17
ARM GAS  /tmp/ccwR0N9q.s 			page 26


 1413 0872 00       		.byte	0
 1414 0873 23       		.uleb128 0x23
 1415 0874 94010000 		.4byte	.LASF104
 1416 0878 01       		.byte	0x1
 1417 0879 2A       		.byte	0x2a
 1418 087a 63080000 		.4byte	0x863
 1419 087e 01       		.byte	0x1
 1420 087f 05       		.byte	0x5
 1421 0880 03       		.byte	0x3
 1422 0881 00000000 		.4byte	_idle_thread_wa
 1423 0885 1A       		.uleb128 0x1a
 1424 0886 2B040000 		.4byte	.LASF100
 1425 088a 01       		.byte	0x1
 1426 088b 50       		.byte	0x50
 1427 088c AC020000 		.4byte	0x2ac
 1428 0890 01       		.byte	0x1
 1429 0891 01       		.byte	0x1
 1430 0892 24       		.uleb128 0x24
 1431 0893 01       		.byte	0x1
 1432 0894 CF040000 		.4byte	.LASF105
 1433 0898 07       		.byte	0x7
 1434 0899 FB01     		.2byte	0x1fb
 1435 089b 01       		.byte	0x1
 1436 089c 01       		.byte	0x1
 1437 089d 25       		.uleb128 0x25
 1438 089e 01       		.byte	0x1
 1439 089f BD000000 		.4byte	.LASF106
 1440 08a3 09       		.byte	0x9
 1441 08a4 87       		.byte	0x87
 1442 08a5 01       		.byte	0x1
 1443 08a6 01       		.byte	0x1
 1444 08a7 25       		.uleb128 0x25
 1445 08a8 01       		.byte	0x1
 1446 08a9 6B040000 		.4byte	.LASF107
 1447 08ad 08       		.byte	0x8
 1448 08ae D9       		.byte	0xd9
 1449 08af 01       		.byte	0x1
 1450 08b0 01       		.byte	0x1
 1451 08b1 25       		.uleb128 0x25
 1452 08b2 01       		.byte	0x1
 1453 08b3 74030000 		.4byte	.LASF108
 1454 08b7 0C       		.byte	0xc
 1455 08b8 4A       		.byte	0x4a
 1456 08b9 01       		.byte	0x1
 1457 08ba 01       		.byte	0x1
 1458 08bb 25       		.uleb128 0x25
 1459 08bc 01       		.byte	0x1
 1460 08bd C7010000 		.4byte	.LASF109
 1461 08c1 0D       		.byte	0xd
 1462 08c2 4E       		.byte	0x4e
 1463 08c3 01       		.byte	0x1
 1464 08c4 01       		.byte	0x1
 1465 08c5 25       		.uleb128 0x25
 1466 08c6 01       		.byte	0x1
 1467 08c7 43020000 		.4byte	.LASF110
 1468 08cb 0E       		.byte	0xe
 1469 08cc EA       		.byte	0xea
ARM GAS  /tmp/ccwR0N9q.s 			page 27


 1470 08cd 01       		.byte	0x1
 1471 08ce 01       		.byte	0x1
 1472 08cf 26       		.uleb128 0x26
 1473 08d0 01       		.byte	0x1
 1474 08d1 EA010000 		.4byte	.LASF112
 1475 08d5 06       		.byte	0x6
 1476 08d6 6301     		.2byte	0x163
 1477 08d8 01       		.byte	0x1
 1478 08d9 6C020000 		.4byte	0x26c
 1479 08dd 01       		.byte	0x1
 1480 08de ED080000 		.4byte	0x8ed
 1481 08e2 0E       		.uleb128 0xe
 1482 08e3 6C020000 		.4byte	0x26c
 1483 08e7 0E       		.uleb128 0xe
 1484 08e8 DD000000 		.4byte	0xdd
 1485 08ec 00       		.byte	0
 1486 08ed 25       		.uleb128 0x25
 1487 08ee 01       		.byte	0x1
 1488 08ef 8D040000 		.4byte	.LASF111
 1489 08f3 0E       		.byte	0xe
 1490 08f4 DF       		.byte	0xdf
 1491 08f5 01       		.byte	0x1
 1492 08f6 01       		.byte	0x1
 1493 08f7 26       		.uleb128 0x26
 1494 08f8 01       		.byte	0x1
 1495 08f9 97020000 		.4byte	.LASF113
 1496 08fd 06       		.byte	0x6
 1497 08fe 6901     		.2byte	0x169
 1498 0900 01       		.byte	0x1
 1499 0901 6C020000 		.4byte	0x26c
 1500 0905 01       		.byte	0x1
 1501 0906 24090000 		.4byte	0x924
 1502 090a 0E       		.uleb128 0xe
 1503 090b AA020000 		.4byte	0x2aa
 1504 090f 0E       		.uleb128 0xe
 1505 0910 30000000 		.4byte	0x30
 1506 0914 0E       		.uleb128 0xe
 1507 0915 DD000000 		.4byte	0xdd
 1508 0919 0E       		.uleb128 0xe
 1509 091a 44050000 		.4byte	0x544
 1510 091e 0E       		.uleb128 0xe
 1511 091f AA020000 		.4byte	0x2aa
 1512 0923 00       		.byte	0
 1513 0924 25       		.uleb128 0x25
 1514 0925 01       		.byte	0x1
 1515 0926 18010000 		.4byte	.LASF114
 1516 092a 0E       		.byte	0xe
 1517 092b E3       		.byte	0xe3
 1518 092c 01       		.byte	0x1
 1519 092d 01       		.byte	0x1
 1520 092e 25       		.uleb128 0x25
 1521 092f 01       		.byte	0x1
 1522 0930 DA040000 		.4byte	.LASF115
 1523 0934 0E       		.byte	0xe
 1524 0935 E2       		.byte	0xe2
 1525 0936 01       		.byte	0x1
 1526 0937 01       		.byte	0x1
ARM GAS  /tmp/ccwR0N9q.s 			page 28


 1527 0938 25       		.uleb128 0x25
 1528 0939 01       		.byte	0x1
 1529 093a 55020000 		.4byte	.LASF116
 1530 093e 0E       		.byte	0xe
 1531 093f E6       		.byte	0xe6
 1532 0940 01       		.byte	0x1
 1533 0941 01       		.byte	0x1
 1534 0942 00       		.byte	0
 1535              		.section	.debug_abbrev,"",%progbits
 1536              	.Ldebug_abbrev0:
 1537 0000 01       		.uleb128 0x1
 1538 0001 11       		.uleb128 0x11
 1539 0002 01       		.byte	0x1
 1540 0003 25       		.uleb128 0x25
 1541 0004 0E       		.uleb128 0xe
 1542 0005 13       		.uleb128 0x13
 1543 0006 0B       		.uleb128 0xb
 1544 0007 03       		.uleb128 0x3
 1545 0008 0E       		.uleb128 0xe
 1546 0009 1B       		.uleb128 0x1b
 1547 000a 0E       		.uleb128 0xe
 1548 000b 55       		.uleb128 0x55
 1549 000c 06       		.uleb128 0x6
 1550 000d 11       		.uleb128 0x11
 1551 000e 01       		.uleb128 0x1
 1552 000f 52       		.uleb128 0x52
 1553 0010 01       		.uleb128 0x1
 1554 0011 10       		.uleb128 0x10
 1555 0012 06       		.uleb128 0x6
 1556 0013 00       		.byte	0
 1557 0014 00       		.byte	0
 1558 0015 02       		.uleb128 0x2
 1559 0016 24       		.uleb128 0x24
 1560 0017 00       		.byte	0
 1561 0018 0B       		.uleb128 0xb
 1562 0019 0B       		.uleb128 0xb
 1563 001a 3E       		.uleb128 0x3e
 1564 001b 0B       		.uleb128 0xb
 1565 001c 03       		.uleb128 0x3
 1566 001d 08       		.uleb128 0x8
 1567 001e 00       		.byte	0
 1568 001f 00       		.byte	0
 1569 0020 03       		.uleb128 0x3
 1570 0021 16       		.uleb128 0x16
 1571 0022 00       		.byte	0
 1572 0023 03       		.uleb128 0x3
 1573 0024 0E       		.uleb128 0xe
 1574 0025 3A       		.uleb128 0x3a
 1575 0026 0B       		.uleb128 0xb
 1576 0027 3B       		.uleb128 0x3b
 1577 0028 0B       		.uleb128 0xb
 1578 0029 49       		.uleb128 0x49
 1579 002a 13       		.uleb128 0x13
 1580 002b 00       		.byte	0
 1581 002c 00       		.byte	0
 1582 002d 04       		.uleb128 0x4
 1583 002e 24       		.uleb128 0x24
ARM GAS  /tmp/ccwR0N9q.s 			page 29


 1584 002f 00       		.byte	0
 1585 0030 0B       		.uleb128 0xb
 1586 0031 0B       		.uleb128 0xb
 1587 0032 3E       		.uleb128 0x3e
 1588 0033 0B       		.uleb128 0xb
 1589 0034 03       		.uleb128 0x3
 1590 0035 0E       		.uleb128 0xe
 1591 0036 00       		.byte	0
 1592 0037 00       		.byte	0
 1593 0038 05       		.uleb128 0x5
 1594 0039 13       		.uleb128 0x13
 1595 003a 01       		.byte	0x1
 1596 003b 03       		.uleb128 0x3
 1597 003c 0E       		.uleb128 0xe
 1598 003d 0B       		.uleb128 0xb
 1599 003e 0B       		.uleb128 0xb
 1600 003f 3A       		.uleb128 0x3a
 1601 0040 0B       		.uleb128 0xb
 1602 0041 3B       		.uleb128 0x3b
 1603 0042 0B       		.uleb128 0xb
 1604 0043 01       		.uleb128 0x1
 1605 0044 13       		.uleb128 0x13
 1606 0045 00       		.byte	0
 1607 0046 00       		.byte	0
 1608 0047 06       		.uleb128 0x6
 1609 0048 0D       		.uleb128 0xd
 1610 0049 00       		.byte	0
 1611 004a 03       		.uleb128 0x3
 1612 004b 0E       		.uleb128 0xe
 1613 004c 3A       		.uleb128 0x3a
 1614 004d 0B       		.uleb128 0xb
 1615 004e 3B       		.uleb128 0x3b
 1616 004f 0B       		.uleb128 0xb
 1617 0050 49       		.uleb128 0x49
 1618 0051 13       		.uleb128 0x13
 1619 0052 38       		.uleb128 0x38
 1620 0053 0A       		.uleb128 0xa
 1621 0054 00       		.byte	0
 1622 0055 00       		.byte	0
 1623 0056 07       		.uleb128 0x7
 1624 0057 0D       		.uleb128 0xd
 1625 0058 00       		.byte	0
 1626 0059 03       		.uleb128 0x3
 1627 005a 08       		.uleb128 0x8
 1628 005b 3A       		.uleb128 0x3a
 1629 005c 0B       		.uleb128 0xb
 1630 005d 3B       		.uleb128 0x3b
 1631 005e 0B       		.uleb128 0xb
 1632 005f 49       		.uleb128 0x49
 1633 0060 13       		.uleb128 0x13
 1634 0061 38       		.uleb128 0x38
 1635 0062 0A       		.uleb128 0xa
 1636 0063 00       		.byte	0
 1637 0064 00       		.byte	0
 1638 0065 08       		.uleb128 0x8
 1639 0066 13       		.uleb128 0x13
 1640 0067 01       		.byte	0x1
ARM GAS  /tmp/ccwR0N9q.s 			page 30


 1641 0068 0B       		.uleb128 0xb
 1642 0069 0B       		.uleb128 0xb
 1643 006a 3A       		.uleb128 0x3a
 1644 006b 0B       		.uleb128 0xb
 1645 006c 3B       		.uleb128 0x3b
 1646 006d 0B       		.uleb128 0xb
 1647 006e 01       		.uleb128 0x1
 1648 006f 13       		.uleb128 0x13
 1649 0070 00       		.byte	0
 1650 0071 00       		.byte	0
 1651 0072 09       		.uleb128 0x9
 1652 0073 0F       		.uleb128 0xf
 1653 0074 00       		.byte	0
 1654 0075 0B       		.uleb128 0xb
 1655 0076 0B       		.uleb128 0xb
 1656 0077 49       		.uleb128 0x49
 1657 0078 13       		.uleb128 0x13
 1658 0079 00       		.byte	0
 1659 007a 00       		.byte	0
 1660 007b 0A       		.uleb128 0xa
 1661 007c 0F       		.uleb128 0xf
 1662 007d 00       		.byte	0
 1663 007e 0B       		.uleb128 0xb
 1664 007f 0B       		.uleb128 0xb
 1665 0080 00       		.byte	0
 1666 0081 00       		.byte	0
 1667 0082 0B       		.uleb128 0xb
 1668 0083 13       		.uleb128 0x13
 1669 0084 01       		.byte	0x1
 1670 0085 03       		.uleb128 0x3
 1671 0086 0E       		.uleb128 0xe
 1672 0087 0B       		.uleb128 0xb
 1673 0088 0B       		.uleb128 0xb
 1674 0089 3A       		.uleb128 0x3a
 1675 008a 0B       		.uleb128 0xb
 1676 008b 3B       		.uleb128 0x3b
 1677 008c 05       		.uleb128 0x5
 1678 008d 01       		.uleb128 0x1
 1679 008e 13       		.uleb128 0x13
 1680 008f 00       		.byte	0
 1681 0090 00       		.byte	0
 1682 0091 0C       		.uleb128 0xc
 1683 0092 0D       		.uleb128 0xd
 1684 0093 00       		.byte	0
 1685 0094 03       		.uleb128 0x3
 1686 0095 08       		.uleb128 0x8
 1687 0096 3A       		.uleb128 0x3a
 1688 0097 0B       		.uleb128 0xb
 1689 0098 3B       		.uleb128 0x3b
 1690 0099 05       		.uleb128 0x5
 1691 009a 49       		.uleb128 0x49
 1692 009b 13       		.uleb128 0x13
 1693 009c 38       		.uleb128 0x38
 1694 009d 0A       		.uleb128 0xa
 1695 009e 00       		.byte	0
 1696 009f 00       		.byte	0
 1697 00a0 0D       		.uleb128 0xd
ARM GAS  /tmp/ccwR0N9q.s 			page 31


 1698 00a1 15       		.uleb128 0x15
 1699 00a2 01       		.byte	0x1
 1700 00a3 27       		.uleb128 0x27
 1701 00a4 0C       		.uleb128 0xc
 1702 00a5 01       		.uleb128 0x1
 1703 00a6 13       		.uleb128 0x13
 1704 00a7 00       		.byte	0
 1705 00a8 00       		.byte	0
 1706 00a9 0E       		.uleb128 0xe
 1707 00aa 05       		.uleb128 0x5
 1708 00ab 00       		.byte	0
 1709 00ac 49       		.uleb128 0x49
 1710 00ad 13       		.uleb128 0x13
 1711 00ae 00       		.byte	0
 1712 00af 00       		.byte	0
 1713 00b0 0F       		.uleb128 0xf
 1714 00b1 35       		.uleb128 0x35
 1715 00b2 00       		.byte	0
 1716 00b3 49       		.uleb128 0x49
 1717 00b4 13       		.uleb128 0x13
 1718 00b5 00       		.byte	0
 1719 00b6 00       		.byte	0
 1720 00b7 10       		.uleb128 0x10
 1721 00b8 17       		.uleb128 0x17
 1722 00b9 01       		.byte	0x1
 1723 00ba 0B       		.uleb128 0xb
 1724 00bb 0B       		.uleb128 0xb
 1725 00bc 3A       		.uleb128 0x3a
 1726 00bd 0B       		.uleb128 0xb
 1727 00be 3B       		.uleb128 0x3b
 1728 00bf 0B       		.uleb128 0xb
 1729 00c0 01       		.uleb128 0x1
 1730 00c1 13       		.uleb128 0x13
 1731 00c2 00       		.byte	0
 1732 00c3 00       		.byte	0
 1733 00c4 11       		.uleb128 0x11
 1734 00c5 0D       		.uleb128 0xd
 1735 00c6 00       		.byte	0
 1736 00c7 03       		.uleb128 0x3
 1737 00c8 0E       		.uleb128 0xe
 1738 00c9 3A       		.uleb128 0x3a
 1739 00ca 0B       		.uleb128 0xb
 1740 00cb 3B       		.uleb128 0x3b
 1741 00cc 0B       		.uleb128 0xb
 1742 00cd 49       		.uleb128 0x49
 1743 00ce 13       		.uleb128 0x13
 1744 00cf 00       		.byte	0
 1745 00d0 00       		.byte	0
 1746 00d1 12       		.uleb128 0x12
 1747 00d2 26       		.uleb128 0x26
 1748 00d3 00       		.byte	0
 1749 00d4 49       		.uleb128 0x49
 1750 00d5 13       		.uleb128 0x13
 1751 00d6 00       		.byte	0
 1752 00d7 00       		.byte	0
 1753 00d8 13       		.uleb128 0x13
 1754 00d9 15       		.uleb128 0x15
ARM GAS  /tmp/ccwR0N9q.s 			page 32


 1755 00da 01       		.byte	0x1
 1756 00db 27       		.uleb128 0x27
 1757 00dc 0C       		.uleb128 0xc
 1758 00dd 49       		.uleb128 0x49
 1759 00de 13       		.uleb128 0x13
 1760 00df 01       		.uleb128 0x1
 1761 00e0 13       		.uleb128 0x13
 1762 00e1 00       		.byte	0
 1763 00e2 00       		.byte	0
 1764 00e3 14       		.uleb128 0x14
 1765 00e4 01       		.uleb128 0x1
 1766 00e5 01       		.byte	0x1
 1767 00e6 49       		.uleb128 0x49
 1768 00e7 13       		.uleb128 0x13
 1769 00e8 01       		.uleb128 0x1
 1770 00e9 13       		.uleb128 0x13
 1771 00ea 00       		.byte	0
 1772 00eb 00       		.byte	0
 1773 00ec 15       		.uleb128 0x15
 1774 00ed 21       		.uleb128 0x21
 1775 00ee 00       		.byte	0
 1776 00ef 49       		.uleb128 0x49
 1777 00f0 13       		.uleb128 0x13
 1778 00f1 2F       		.uleb128 0x2f
 1779 00f2 0B       		.uleb128 0xb
 1780 00f3 00       		.byte	0
 1781 00f4 00       		.byte	0
 1782 00f5 16       		.uleb128 0x16
 1783 00f6 2E       		.uleb128 0x2e
 1784 00f7 01       		.byte	0x1
 1785 00f8 3F       		.uleb128 0x3f
 1786 00f9 0C       		.uleb128 0xc
 1787 00fa 03       		.uleb128 0x3
 1788 00fb 0E       		.uleb128 0xe
 1789 00fc 3A       		.uleb128 0x3a
 1790 00fd 0B       		.uleb128 0xb
 1791 00fe 3B       		.uleb128 0x3b
 1792 00ff 0B       		.uleb128 0xb
 1793 0100 27       		.uleb128 0x27
 1794 0101 0C       		.uleb128 0xc
 1795 0102 11       		.uleb128 0x11
 1796 0103 01       		.uleb128 0x1
 1797 0104 12       		.uleb128 0x12
 1798 0105 01       		.uleb128 0x1
 1799 0106 40       		.uleb128 0x40
 1800 0107 0A       		.uleb128 0xa
 1801 0108 9742     		.uleb128 0x2117
 1802 010a 0C       		.uleb128 0xc
 1803 010b 01       		.uleb128 0x1
 1804 010c 13       		.uleb128 0x13
 1805 010d 00       		.byte	0
 1806 010e 00       		.byte	0
 1807 010f 17       		.uleb128 0x17
 1808 0110 05       		.uleb128 0x5
 1809 0111 00       		.byte	0
 1810 0112 03       		.uleb128 0x3
 1811 0113 08       		.uleb128 0x8
ARM GAS  /tmp/ccwR0N9q.s 			page 33


 1812 0114 3A       		.uleb128 0x3a
 1813 0115 0B       		.uleb128 0xb
 1814 0116 3B       		.uleb128 0x3b
 1815 0117 0B       		.uleb128 0xb
 1816 0118 49       		.uleb128 0x49
 1817 0119 13       		.uleb128 0x13
 1818 011a 02       		.uleb128 0x2
 1819 011b 0A       		.uleb128 0xa
 1820 011c 00       		.byte	0
 1821 011d 00       		.byte	0
 1822 011e 18       		.uleb128 0x18
 1823 011f 2E       		.uleb128 0x2e
 1824 0120 01       		.byte	0x1
 1825 0121 3F       		.uleb128 0x3f
 1826 0122 0C       		.uleb128 0xc
 1827 0123 03       		.uleb128 0x3
 1828 0124 0E       		.uleb128 0xe
 1829 0125 3A       		.uleb128 0x3a
 1830 0126 0B       		.uleb128 0xb
 1831 0127 3B       		.uleb128 0x3b
 1832 0128 0B       		.uleb128 0xb
 1833 0129 27       		.uleb128 0x27
 1834 012a 0C       		.uleb128 0xc
 1835 012b 11       		.uleb128 0x11
 1836 012c 01       		.uleb128 0x1
 1837 012d 12       		.uleb128 0x12
 1838 012e 01       		.uleb128 0x1
 1839 012f 40       		.uleb128 0x40
 1840 0130 06       		.uleb128 0x6
 1841 0131 9742     		.uleb128 0x2117
 1842 0133 0C       		.uleb128 0xc
 1843 0134 01       		.uleb128 0x1
 1844 0135 13       		.uleb128 0x13
 1845 0136 00       		.byte	0
 1846 0137 00       		.byte	0
 1847 0138 19       		.uleb128 0x19
 1848 0139 34       		.uleb128 0x34
 1849 013a 00       		.byte	0
 1850 013b 03       		.uleb128 0x3
 1851 013c 0E       		.uleb128 0xe
 1852 013d 3A       		.uleb128 0x3a
 1853 013e 0B       		.uleb128 0xb
 1854 013f 3B       		.uleb128 0x3b
 1855 0140 0B       		.uleb128 0xb
 1856 0141 49       		.uleb128 0x49
 1857 0142 13       		.uleb128 0x13
 1858 0143 02       		.uleb128 0x2
 1859 0144 0A       		.uleb128 0xa
 1860 0145 00       		.byte	0
 1861 0146 00       		.byte	0
 1862 0147 1A       		.uleb128 0x1a
 1863 0148 34       		.uleb128 0x34
 1864 0149 00       		.byte	0
 1865 014a 03       		.uleb128 0x3
 1866 014b 0E       		.uleb128 0xe
 1867 014c 3A       		.uleb128 0x3a
 1868 014d 0B       		.uleb128 0xb
ARM GAS  /tmp/ccwR0N9q.s 			page 34


 1869 014e 3B       		.uleb128 0x3b
 1870 014f 0B       		.uleb128 0xb
 1871 0150 49       		.uleb128 0x49
 1872 0151 13       		.uleb128 0x13
 1873 0152 3F       		.uleb128 0x3f
 1874 0153 0C       		.uleb128 0xc
 1875 0154 3C       		.uleb128 0x3c
 1876 0155 0C       		.uleb128 0xc
 1877 0156 00       		.byte	0
 1878 0157 00       		.byte	0
 1879 0158 1B       		.uleb128 0x1b
 1880 0159 0B       		.uleb128 0xb
 1881 015a 01       		.byte	0x1
 1882 015b 11       		.uleb128 0x11
 1883 015c 01       		.uleb128 0x1
 1884 015d 12       		.uleb128 0x12
 1885 015e 01       		.uleb128 0x1
 1886 015f 01       		.uleb128 0x1
 1887 0160 13       		.uleb128 0x13
 1888 0161 00       		.byte	0
 1889 0162 00       		.byte	0
 1890 0163 1C       		.uleb128 0x1c
 1891 0164 34       		.uleb128 0x34
 1892 0165 00       		.byte	0
 1893 0166 03       		.uleb128 0x3
 1894 0167 08       		.uleb128 0x8
 1895 0168 3A       		.uleb128 0x3a
 1896 0169 0B       		.uleb128 0xb
 1897 016a 3B       		.uleb128 0x3b
 1898 016b 0B       		.uleb128 0xb
 1899 016c 49       		.uleb128 0x49
 1900 016d 13       		.uleb128 0x13
 1901 016e 02       		.uleb128 0x2
 1902 016f 06       		.uleb128 0x6
 1903 0170 00       		.byte	0
 1904 0171 00       		.byte	0
 1905 0172 1D       		.uleb128 0x1d
 1906 0173 898201   		.uleb128 0x4109
 1907 0176 00       		.byte	0
 1908 0177 11       		.uleb128 0x11
 1909 0178 01       		.uleb128 0x1
 1910 0179 31       		.uleb128 0x31
 1911 017a 13       		.uleb128 0x13
 1912 017b 00       		.byte	0
 1913 017c 00       		.byte	0
 1914 017d 1E       		.uleb128 0x1e
 1915 017e 898201   		.uleb128 0x4109
 1916 0181 01       		.byte	0x1
 1917 0182 11       		.uleb128 0x11
 1918 0183 01       		.uleb128 0x1
 1919 0184 31       		.uleb128 0x31
 1920 0185 13       		.uleb128 0x13
 1921 0186 01       		.uleb128 0x1
 1922 0187 13       		.uleb128 0x13
 1923 0188 00       		.byte	0
 1924 0189 00       		.byte	0
 1925 018a 1F       		.uleb128 0x1f
ARM GAS  /tmp/ccwR0N9q.s 			page 35


 1926 018b 8A8201   		.uleb128 0x410a
 1927 018e 00       		.byte	0
 1928 018f 02       		.uleb128 0x2
 1929 0190 0A       		.uleb128 0xa
 1930 0191 9142     		.uleb128 0x2111
 1931 0193 0A       		.uleb128 0xa
 1932 0194 00       		.byte	0
 1933 0195 00       		.byte	0
 1934 0196 20       		.uleb128 0x20
 1935 0197 898201   		.uleb128 0x4109
 1936 019a 01       		.byte	0x1
 1937 019b 11       		.uleb128 0x11
 1938 019c 01       		.uleb128 0x1
 1939 019d 31       		.uleb128 0x31
 1940 019e 13       		.uleb128 0x13
 1941 019f 00       		.byte	0
 1942 01a0 00       		.byte	0
 1943 01a1 21       		.uleb128 0x21
 1944 01a2 0B       		.uleb128 0xb
 1945 01a3 01       		.byte	0x1
 1946 01a4 11       		.uleb128 0x11
 1947 01a5 01       		.uleb128 0x1
 1948 01a6 12       		.uleb128 0x12
 1949 01a7 01       		.uleb128 0x1
 1950 01a8 00       		.byte	0
 1951 01a9 00       		.byte	0
 1952 01aa 22       		.uleb128 0x22
 1953 01ab 898201   		.uleb128 0x4109
 1954 01ae 00       		.byte	0
 1955 01af 11       		.uleb128 0x11
 1956 01b0 01       		.uleb128 0x1
 1957 01b1 9342     		.uleb128 0x2113
 1958 01b3 0A       		.uleb128 0xa
 1959 01b4 00       		.byte	0
 1960 01b5 00       		.byte	0
 1961 01b6 23       		.uleb128 0x23
 1962 01b7 34       		.uleb128 0x34
 1963 01b8 00       		.byte	0
 1964 01b9 03       		.uleb128 0x3
 1965 01ba 0E       		.uleb128 0xe
 1966 01bb 3A       		.uleb128 0x3a
 1967 01bc 0B       		.uleb128 0xb
 1968 01bd 3B       		.uleb128 0x3b
 1969 01be 0B       		.uleb128 0xb
 1970 01bf 49       		.uleb128 0x49
 1971 01c0 13       		.uleb128 0x13
 1972 01c1 3F       		.uleb128 0x3f
 1973 01c2 0C       		.uleb128 0xc
 1974 01c3 02       		.uleb128 0x2
 1975 01c4 0A       		.uleb128 0xa
 1976 01c5 00       		.byte	0
 1977 01c6 00       		.byte	0
 1978 01c7 24       		.uleb128 0x24
 1979 01c8 2E       		.uleb128 0x2e
 1980 01c9 00       		.byte	0
 1981 01ca 3F       		.uleb128 0x3f
 1982 01cb 0C       		.uleb128 0xc
ARM GAS  /tmp/ccwR0N9q.s 			page 36


 1983 01cc 03       		.uleb128 0x3
 1984 01cd 0E       		.uleb128 0xe
 1985 01ce 3A       		.uleb128 0x3a
 1986 01cf 0B       		.uleb128 0xb
 1987 01d0 3B       		.uleb128 0x3b
 1988 01d1 05       		.uleb128 0x5
 1989 01d2 27       		.uleb128 0x27
 1990 01d3 0C       		.uleb128 0xc
 1991 01d4 3C       		.uleb128 0x3c
 1992 01d5 0C       		.uleb128 0xc
 1993 01d6 00       		.byte	0
 1994 01d7 00       		.byte	0
 1995 01d8 25       		.uleb128 0x25
 1996 01d9 2E       		.uleb128 0x2e
 1997 01da 00       		.byte	0
 1998 01db 3F       		.uleb128 0x3f
 1999 01dc 0C       		.uleb128 0xc
 2000 01dd 03       		.uleb128 0x3
 2001 01de 0E       		.uleb128 0xe
 2002 01df 3A       		.uleb128 0x3a
 2003 01e0 0B       		.uleb128 0xb
 2004 01e1 3B       		.uleb128 0x3b
 2005 01e2 0B       		.uleb128 0xb
 2006 01e3 27       		.uleb128 0x27
 2007 01e4 0C       		.uleb128 0xc
 2008 01e5 3C       		.uleb128 0x3c
 2009 01e6 0C       		.uleb128 0xc
 2010 01e7 00       		.byte	0
 2011 01e8 00       		.byte	0
 2012 01e9 26       		.uleb128 0x26
 2013 01ea 2E       		.uleb128 0x2e
 2014 01eb 01       		.byte	0x1
 2015 01ec 3F       		.uleb128 0x3f
 2016 01ed 0C       		.uleb128 0xc
 2017 01ee 03       		.uleb128 0x3
 2018 01ef 0E       		.uleb128 0xe
 2019 01f0 3A       		.uleb128 0x3a
 2020 01f1 0B       		.uleb128 0xb
 2021 01f2 3B       		.uleb128 0x3b
 2022 01f3 05       		.uleb128 0x5
 2023 01f4 27       		.uleb128 0x27
 2024 01f5 0C       		.uleb128 0xc
 2025 01f6 49       		.uleb128 0x49
 2026 01f7 13       		.uleb128 0x13
 2027 01f8 3C       		.uleb128 0x3c
 2028 01f9 0C       		.uleb128 0xc
 2029 01fa 01       		.uleb128 0x1
 2030 01fb 13       		.uleb128 0x13
 2031 01fc 00       		.byte	0
 2032 01fd 00       		.byte	0
 2033 01fe 00       		.byte	0
 2034              		.section	.debug_loc,"",%progbits
 2035              	.Ldebug_loc0:
 2036              	.LLST0:
 2037 0000 00000000 		.4byte	.LFB8
 2038 0004 02000000 		.4byte	.LCFI0
 2039 0008 0200     		.2byte	0x2
ARM GAS  /tmp/ccwR0N9q.s 			page 37


 2040 000a 7D       		.byte	0x7d
 2041 000b 00       		.sleb128 0
 2042 000c 02000000 		.4byte	.LCFI0
 2043 0010 04000000 		.4byte	.LCFI1
 2044 0014 0200     		.2byte	0x2
 2045 0016 7D       		.byte	0x7d
 2046 0017 0C       		.sleb128 12
 2047 0018 04000000 		.4byte	.LCFI1
 2048 001c 7A000000 		.4byte	.LFE8
 2049 0020 0200     		.2byte	0x2
 2050 0022 7D       		.byte	0x7d
 2051 0023 18       		.sleb128 24
 2052 0024 00000000 		.4byte	0
 2053 0028 00000000 		.4byte	0
 2054              	.LLST1:
 2055 002c 50000000 		.4byte	.LVL10
 2056 0030 66000000 		.4byte	.LVL11
 2057 0034 0100     		.2byte	0x1
 2058 0036 53       		.byte	0x53
 2059 0037 00000000 		.4byte	0
 2060 003b 00000000 		.4byte	0
 2061              	.LLST2:
 2062 003f 00000000 		.4byte	.LFB9
 2063 0043 02000000 		.4byte	.LCFI2
 2064 0047 0200     		.2byte	0x2
 2065 0049 7D       		.byte	0x7d
 2066 004a 00       		.sleb128 0
 2067 004b 02000000 		.4byte	.LCFI2
 2068 004f 68000000 		.4byte	.LFE9
 2069 0053 0200     		.2byte	0x2
 2070 0055 7D       		.byte	0x7d
 2071 0056 18       		.sleb128 24
 2072 0057 00000000 		.4byte	0
 2073 005b 00000000 		.4byte	0
 2074              	.LLST3:
 2075 005f 30000000 		.4byte	.LVL14
 2076 0063 5C000000 		.4byte	.LVL24
 2077 0067 0100     		.2byte	0x1
 2078 0069 54       		.byte	0x54
 2079 006a 00000000 		.4byte	0
 2080 006e 00000000 		.4byte	0
 2081              	.LLST4:
 2082 0072 36000000 		.4byte	.LVL15
 2083 0076 5C000000 		.4byte	.LVL24
 2084 007a 0100     		.2byte	0x1
 2085 007c 56       		.byte	0x56
 2086 007d 00000000 		.4byte	0
 2087 0081 00000000 		.4byte	0
 2088              	.LLST5:
 2089 0085 46000000 		.4byte	.LVL18
 2090 0089 49000000 		.4byte	.LVL19-1
 2091 008d 0100     		.2byte	0x1
 2092 008f 53       		.byte	0x53
 2093 0090 00000000 		.4byte	0
 2094 0094 00000000 		.4byte	0
 2095              	.LLST6:
 2096 0098 50000000 		.4byte	.LVL21
ARM GAS  /tmp/ccwR0N9q.s 			page 38


 2097 009c 53000000 		.4byte	.LVL22-1
 2098 00a0 0100     		.2byte	0x1
 2099 00a2 53       		.byte	0x53
 2100 00a3 00000000 		.4byte	0
 2101 00a7 00000000 		.4byte	0
 2102              		.section	.debug_aranges,"",%progbits
 2103 0000 2C000000 		.4byte	0x2c
 2104 0004 0200     		.2byte	0x2
 2105 0006 00000000 		.4byte	.Ldebug_info0
 2106 000a 04       		.byte	0x4
 2107 000b 00       		.byte	0
 2108 000c 0000     		.2byte	0
 2109 000e 0000     		.2byte	0
 2110 0010 00000000 		.4byte	.LFB7
 2111 0014 14000000 		.4byte	.LFE7-.LFB7
 2112 0018 00000000 		.4byte	.LFB8
 2113 001c 7A000000 		.4byte	.LFE8-.LFB8
 2114 0020 00000000 		.4byte	.LFB9
 2115 0024 68000000 		.4byte	.LFE9-.LFB9
 2116 0028 00000000 		.4byte	0
 2117 002c 00000000 		.4byte	0
 2118              		.section	.debug_ranges,"",%progbits
 2119              	.Ldebug_ranges0:
 2120 0000 00000000 		.4byte	.LFB7
 2121 0004 14000000 		.4byte	.LFE7
 2122 0008 00000000 		.4byte	.LFB8
 2123 000c 7A000000 		.4byte	.LFE8
 2124 0010 00000000 		.4byte	.LFB9
 2125 0014 68000000 		.4byte	.LFE9
 2126 0018 00000000 		.4byte	0
 2127 001c 00000000 		.4byte	0
 2128              		.section	.debug_line,"",%progbits
 2129              	.Ldebug_line0:
 2130 0000 67020000 		.section	.debug_str,"MS",%progbits,1
 2130      02000E02 
 2130      00000201 
 2130      FB0E0D00 
 2130      01010101 
 2131              	.LASF76:
 2132 0000 7466756E 		.ascii	"tfunc_t\000"
 2132      635F7400 
 2133              	.LASF87:
 2134 0008 63665F6F 		.ascii	"cf_off_older\000"
 2134      66665F6F 
 2134      6C646572 
 2134      00
 2135              	.LASF39:
 2136 0015 705F6D73 		.ascii	"p_msg\000"
 2136      6700
 2137              	.LASF2:
 2138 001b 73697A65 		.ascii	"size_t\000"
 2138      5F7400
 2139              	.LASF71:
 2140 0022 7264796D 		.ascii	"rdymsg\000"
 2140      736700
 2141              	.LASF13:
 2142 0029 75696E74 		.ascii	"uint64_t\000"
ARM GAS  /tmp/ccwR0N9q.s 			page 39


 2142      36345F74 
 2142      00
 2143              	.LASF101:
 2144 0032 76746C69 		.ascii	"vtlist\000"
 2144      737400
 2145              	.LASF99:
 2146 0039 63685379 		.ascii	"chSysTimerHandlerI\000"
 2146      7354696D 
 2146      65724861 
 2146      6E646C65 
 2146      724900
 2147              	.LASF118:
 2148 004c 2E2E2F2E 		.ascii	"../../ChibiOS/os/kernel/src/chsys.c\000"
 2148      2E2F4368 
 2148      6962694F 
 2148      532F6F73 
 2148      2F6B6572 
 2149              	.LASF14:
 2150 0070 6C6F6E67 		.ascii	"long long unsigned int\000"
 2150      206C6F6E 
 2150      6720756E 
 2150      7369676E 
 2150      65642069 
 2151              	.LASF83:
 2152 0087 63685F74 		.ascii	"ch_threadsize\000"
 2152      68726561 
 2152      6473697A 
 2152      6500
 2153              	.LASF72:
 2154 0095 65786974 		.ascii	"exitcode\000"
 2154      636F6465 
 2154      00
 2155              	.LASF98:
 2156 009e 6D61696E 		.ascii	"mainthread\000"
 2156      74687265 
 2156      616400
 2157              	.LASF26:
 2158 00a9 705F7072 		.ascii	"p_prio\000"
 2158      696F00
 2159              	.LASF90:
 2160 00b0 63665F6F 		.ascii	"cf_off_state\000"
 2160      66665F73 
 2160      74617465 
 2160      00
 2161              	.LASF106:
 2162 00bd 5F736368 		.ascii	"_scheduler_init\000"
 2162      6564756C 
 2162      65725F69 
 2162      6E697400 
 2163              	.LASF119:
 2164 00cd 2F686F6D 		.ascii	"/home/david/Projects/stm32/src/pressure_sensor\000"
 2164      652F6461 
 2164      7669642F 
 2164      50726F6A 
 2164      65637473 
 2165              	.LASF1:
 2166 00fc 7369676E 		.ascii	"signed char\000"
ARM GAS  /tmp/ccwR0N9q.s 			page 40


 2166      65642063 
 2166      68617200 
 2167              	.LASF89:
 2168 0108 63665F6F 		.ascii	"cf_off_stklimit\000"
 2168      66665F73 
 2168      746B6C69 
 2168      6D697400 
 2169              	.LASF114:
 2170 0118 6462675F 		.ascii	"dbg_check_unlock_from_isr\000"
 2170      63686563 
 2170      6B5F756E 
 2170      6C6F636B 
 2170      5F66726F 
 2171              	.LASF91:
 2172 0132 63665F6F 		.ascii	"cf_off_flags\000"
 2172      66665F66 
 2172      6C616773 
 2172      00
 2173              	.LASF43:
 2174 013f 705F6D70 		.ascii	"p_mpool\000"
 2174      6F6F6C00 
 2175              	.LASF68:
 2176 0147 6D5F7175 		.ascii	"m_queue\000"
 2176      65756500 
 2177              	.LASF18:
 2178 014f 74736C69 		.ascii	"tslices_t\000"
 2178      6365735F 
 2178      7400
 2179              	.LASF9:
 2180 0159 6C6F6E67 		.ascii	"long int\000"
 2180      20696E74 
 2180      00
 2181              	.LASF16:
 2182 0162 74737461 		.ascii	"tstate_t\000"
 2182      74655F74 
 2182      00
 2183              	.LASF12:
 2184 016b 6C6F6E67 		.ascii	"long long int\000"
 2184      206C6F6E 
 2184      6720696E 
 2184      7400
 2185              	.LASF6:
 2186 0179 75696E74 		.ascii	"uint16_t\000"
 2186      31365F74 
 2186      00
 2187              	.LASF95:
 2188 0182 63686465 		.ascii	"chdebug_t\000"
 2188      6275675F 
 2188      7400
 2189              	.LASF28:
 2190 018c 705F6E65 		.ascii	"p_newer\000"
 2190      77657200 
 2191              	.LASF104:
 2192 0194 5F69646C 		.ascii	"_idle_thread_wa\000"
 2192      655F7468 
 2192      72656164 
 2192      5F776100 
ARM GAS  /tmp/ccwR0N9q.s 			page 41


 2193              	.LASF63:
 2194 01a4 725F6E65 		.ascii	"r_newer\000"
 2194      77657200 
 2195              	.LASF46:
 2196 01ac 72656761 		.ascii	"regarm_t\000"
 2196      726D5F74 
 2196      00
 2197              	.LASF54:
 2198 01b5 76745F70 		.ascii	"vt_prev\000"
 2198      72657600 
 2199              	.LASF97:
 2200 01bd 63685379 		.ascii	"chSysInit\000"
 2200      73496E69 
 2200      7400
 2201              	.LASF109:
 2202 01c7 5F686561 		.ascii	"_heap_init\000"
 2202      705F696E 
 2202      697400
 2203              	.LASF31:
 2204 01d2 705F7374 		.ascii	"p_stklimit\000"
 2204      6B6C696D 
 2204      697400
 2205              	.LASF0:
 2206 01dd 756E7369 		.ascii	"unsigned int\000"
 2206      676E6564 
 2206      20696E74 
 2206      00
 2207              	.LASF112:
 2208 01ea 5F746872 		.ascii	"_thread_init\000"
 2208      6561645F 
 2208      696E6974 
 2208      00
 2209              	.LASF53:
 2210 01f7 76745F6E 		.ascii	"vt_next\000"
 2210      65787400 
 2211              	.LASF11:
 2212 01ff 6C6F6E67 		.ascii	"long unsigned int\000"
 2212      20756E73 
 2212      69676E65 
 2212      6420696E 
 2212      7400
 2213              	.LASF103:
 2214 0211 63685F64 		.ascii	"ch_debug\000"
 2214      65627567 
 2214      00
 2215              	.LASF77:
 2216 021a 63685F69 		.ascii	"ch_identifier\000"
 2216      64656E74 
 2216      69666965 
 2216      7200
 2217              	.LASF49:
 2218 0228 636F6E74 		.ascii	"context\000"
 2218      65787400 
 2219              	.LASF7:
 2220 0230 73686F72 		.ascii	"short unsigned int\000"
 2220      7420756E 
 2220      7369676E 
ARM GAS  /tmp/ccwR0N9q.s 			page 42


 2220      65642069 
 2220      6E7400
 2221              	.LASF110:
 2222 0243 5F747261 		.ascii	"_trace_init\000"
 2222      63655F69 
 2222      6E697400 
 2223              	.LASF20:
 2224 024f 6D73675F 		.ascii	"msg_t\000"
 2224      7400
 2225              	.LASF116:
 2226 0255 63684462 		.ascii	"chDbgCheckClassI\000"
 2226      67436865 
 2226      636B436C 
 2226      61737349 
 2226      00
 2227              	.LASF15:
 2228 0266 746D6F64 		.ascii	"tmode_t\000"
 2228      655F7400 
 2229              	.LASF45:
 2230 026e 54687265 		.ascii	"ThreadsList\000"
 2230      6164734C 
 2230      69737400 
 2231              	.LASF21:
 2232 027a 6576656E 		.ascii	"eventmask_t\000"
 2232      746D6173 
 2232      6B5F7400 
 2233              	.LASF67:
 2234 0286 4D757465 		.ascii	"Mutex\000"
 2234      7800
 2235              	.LASF47:
 2236 028c 73746B61 		.ascii	"stkalign_t\000"
 2236      6C69676E 
 2236      5F7400
 2237              	.LASF113:
 2238 0297 63685468 		.ascii	"chThdCreateStatic\000"
 2238      64437265 
 2238      61746553 
 2238      74617469 
 2238      6300
 2239              	.LASF78:
 2240 02a9 63685F7A 		.ascii	"ch_zero\000"
 2240      65726F00 
 2241              	.LASF92:
 2242 02b1 63665F6F 		.ascii	"cf_off_refs\000"
 2242      66665F72 
 2242      65667300 
 2243              	.LASF55:
 2244 02bd 76745F74 		.ascii	"vt_time\000"
 2244      696D6500 
 2245              	.LASF50:
 2246 02c5 73697A65 		.ascii	"sizetype\000"
 2246      74797065 
 2246      00
 2247              	.LASF56:
 2248 02ce 76745F66 		.ascii	"vt_func\000"
 2248      756E6300 
 2249              	.LASF82:
ARM GAS  /tmp/ccwR0N9q.s 			page 43


 2250 02d6 63685F74 		.ascii	"ch_timesize\000"
 2250      696D6573 
 2250      697A6500 
 2251              	.LASF88:
 2252 02e2 63665F6F 		.ascii	"cf_off_name\000"
 2252      66665F6E 
 2252      616D6500 
 2253              	.LASF29:
 2254 02ee 705F6F6C 		.ascii	"p_older\000"
 2254      64657200 
 2255              	.LASF62:
 2256 02f6 725F6374 		.ascii	"r_ctx\000"
 2256      7800
 2257              	.LASF44:
 2258 02fc 54687265 		.ascii	"ThreadsQueue\000"
 2258      61647351 
 2258      75657565 
 2258      00
 2259              	.LASF79:
 2260 0309 63685F73 		.ascii	"ch_size\000"
 2260      697A6500 
 2261              	.LASF117:
 2262 0311 474E5520 		.ascii	"GNU C 4.7.2\000"
 2262      4320342E 
 2262      372E3200 
 2263              	.LASF65:
 2264 031d 725F6375 		.ascii	"r_current\000"
 2264      7272656E 
 2264      7400
 2265              	.LASF64:
 2266 0327 725F6F6C 		.ascii	"r_older\000"
 2266      64657200 
 2267              	.LASF96:
 2268 032f 5F69646C 		.ascii	"_idle_thread\000"
 2268      655F7468 
 2268      72656164 
 2268      00
 2269              	.LASF17:
 2270 033c 74726566 		.ascii	"trefs_t\000"
 2270      735F7400 
 2271              	.LASF81:
 2272 0344 63685F70 		.ascii	"ch_ptrsize\000"
 2272      74727369 
 2272      7A6500
 2273              	.LASF25:
 2274 034f 705F7072 		.ascii	"p_prev\000"
 2274      657600
 2275              	.LASF19:
 2276 0356 74707269 		.ascii	"tprio_t\000"
 2276      6F5F7400 
 2277              	.LASF8:
 2278 035e 696E7433 		.ascii	"int32_t\000"
 2278      325F7400 
 2279              	.LASF4:
 2280 0366 756E7369 		.ascii	"unsigned char\000"
 2280      676E6564 
 2280      20636861 
ARM GAS  /tmp/ccwR0N9q.s 			page 44


 2280      7200
 2281              	.LASF108:
 2282 0374 5F636F72 		.ascii	"_core_init\000"
 2282      655F696E 
 2282      697400
 2283              	.LASF41:
 2284 037f 705F6D74 		.ascii	"p_mtxlist\000"
 2284      786C6973 
 2284      7400
 2285              	.LASF5:
 2286 0389 73686F72 		.ascii	"short int\000"
 2286      7420696E 
 2286      7400
 2287              	.LASF32:
 2288 0393 705F7374 		.ascii	"p_state\000"
 2288      61746500 
 2289              	.LASF35:
 2290 039b 705F7072 		.ascii	"p_preempt\000"
 2290      65656D70 
 2290      7400
 2291              	.LASF94:
 2292 03a5 63665F6F 		.ascii	"cf_off_time\000"
 2292      66665F74 
 2292      696D6500 
 2293              	.LASF61:
 2294 03b1 725F7072 		.ascii	"r_prio\000"
 2294      696F00
 2295              	.LASF74:
 2296 03b8 65776D61 		.ascii	"ewmask\000"
 2296      736B00
 2297              	.LASF24:
 2298 03bf 705F6E65 		.ascii	"p_next\000"
 2298      787400
 2299              	.LASF93:
 2300 03c6 63665F6F 		.ascii	"cf_off_preempt\000"
 2300      66665F70 
 2300      7265656D 
 2300      707400
 2301              	.LASF33:
 2302 03d5 705F666C 		.ascii	"p_flags\000"
 2302      61677300 
 2303              	.LASF23:
 2304 03dd 54687265 		.ascii	"Thread\000"
 2304      616400
 2305              	.LASF86:
 2306 03e4 63665F6F 		.ascii	"cf_off_newer\000"
 2306      66665F6E 
 2306      65776572 
 2306      00
 2307              	.LASF40:
 2308 03f1 705F6570 		.ascii	"p_epending\000"
 2308      656E6469 
 2308      6E6700
 2309              	.LASF10:
 2310 03fc 75696E74 		.ascii	"uint32_t\000"
 2310      33325F74 
 2310      00
ARM GAS  /tmp/ccwR0N9q.s 			page 45


 2311              	.LASF84:
 2312 0405 63665F6F 		.ascii	"cf_off_prio\000"
 2312      66665F70 
 2312      72696F00 
 2313              	.LASF60:
 2314 0411 725F7175 		.ascii	"r_queue\000"
 2314      65756500 
 2315              	.LASF52:
 2316 0419 56697274 		.ascii	"VirtualTimer\000"
 2316      75616C54 
 2316      696D6572 
 2316      00
 2317              	.LASF75:
 2318 0426 63686172 		.ascii	"char\000"
 2318      00
 2319              	.LASF100:
 2320 042b 5F5F6D61 		.ascii	"__main_thread_stack_base__\000"
 2320      696E5F74 
 2320      68726561 
 2320      645F7374 
 2320      61636B5F 
 2321              	.LASF70:
 2322 0446 6D5F6E65 		.ascii	"m_next\000"
 2322      787400
 2323              	.LASF22:
 2324 044d 73797374 		.ascii	"systime_t\000"
 2324      696D655F 
 2324      7400
 2325              	.LASF42:
 2326 0457 705F7265 		.ascii	"p_realprio\000"
 2326      616C7072 
 2326      696F00
 2327              	.LASF51:
 2328 0462 76746675 		.ascii	"vtfunc_t\000"
 2328      6E635F74 
 2328      00
 2329              	.LASF107:
 2330 046b 5F76745F 		.ascii	"_vt_init\000"
 2330      696E6974 
 2330      00
 2331              	.LASF36:
 2332 0474 705F7469 		.ascii	"p_time\000"
 2332      6D6500
 2333              	.LASF48:
 2334 047b 696E7463 		.ascii	"intctx\000"
 2334      747800
 2335              	.LASF38:
 2336 0482 705F6D73 		.ascii	"p_msgqueue\000"
 2336      67717565 
 2336      756500
 2337              	.LASF111:
 2338 048d 6462675F 		.ascii	"dbg_check_enable\000"
 2338      63686563 
 2338      6B5F656E 
 2338      61626C65 
 2338      00
 2339              	.LASF57:
ARM GAS  /tmp/ccwR0N9q.s 			page 46


 2340 049e 76745F70 		.ascii	"vt_par\000"
 2340      617200
 2341              	.LASF85:
 2342 04a5 63665F6F 		.ascii	"cf_off_ctx\000"
 2342      66665F63 
 2342      747800
 2343              	.LASF34:
 2344 04b0 705F7265 		.ascii	"p_refs\000"
 2344      667300
 2345              	.LASF66:
 2346 04b7 52656164 		.ascii	"ReadyList\000"
 2346      794C6973 
 2346      7400
 2347              	.LASF102:
 2348 04c1 726C6973 		.ascii	"rlist\000"
 2348      7400
 2349              	.LASF3:
 2350 04c7 75696E74 		.ascii	"uint8_t\000"
 2350      385F7400 
 2351              	.LASF105:
 2352 04cf 5F706F72 		.ascii	"_port_init\000"
 2352      745F696E 
 2352      697400
 2353              	.LASF115:
 2354 04da 6462675F 		.ascii	"dbg_check_lock_from_isr\000"
 2354      63686563 
 2354      6B5F6C6F 
 2354      636B5F66 
 2354      726F6D5F 
 2355              	.LASF73:
 2356 04f2 77746F62 		.ascii	"wtobjp\000"
 2356      6A7000
 2357              	.LASF30:
 2358 04f9 705F6E61 		.ascii	"p_name\000"
 2358      6D6500
 2359              	.LASF58:
 2360 0500 76745F73 		.ascii	"vt_systime\000"
 2360      79737469 
 2360      6D6500
 2361              	.LASF80:
 2362 050b 63685F76 		.ascii	"ch_version\000"
 2362      65727369 
 2362      6F6E00
 2363              	.LASF59:
 2364 0516 56544C69 		.ascii	"VTList\000"
 2364      737400
 2365              	.LASF69:
 2366 051d 6D5F6F77 		.ascii	"m_owner\000"
 2366      6E657200 
 2367              	.LASF27:
 2368 0525 705F6374 		.ascii	"p_ctx\000"
 2368      7800
 2369              	.LASF37:
 2370 052b 705F7761 		.ascii	"p_waiting\000"
 2370      6974696E 
 2370      6700
 2371              		.ident	"GCC: (crosstool-NG 1.17.0 - PSAS ST32F4 GFE) 4.7.2"
ARM GAS  /tmp/ccwR0N9q.s 			page 47


ARM GAS  /tmp/ccwR0N9q.s 			page 48


DEFINED SYMBOLS
                            *ABS*:0000000000000000 chsys.c
     /tmp/ccwR0N9q.s:21     .text._idle_thread:0000000000000000 $t
     /tmp/ccwR0N9q.s:27     .text._idle_thread:0000000000000000 _idle_thread
     /tmp/ccwR0N9q.s:46     .text._idle_thread:000000000000000c $d
     /tmp/ccwR0N9q.s:52     .text.chSysInit:0000000000000000 $t
     /tmp/ccwR0N9q.s:58     .text.chSysInit:0000000000000000 chSysInit
     /tmp/ccwR0N9q.s:256    .bss.mainthread.4819:0000000000000000 .LANCHOR0
     /tmp/ccwR0N9q.s:267    .bss._idle_thread_wa:0000000000000000 .LANCHOR1
     /tmp/ccwR0N9q.s:147    .text.chSysTimerHandlerI:0000000000000000 $t
     /tmp/ccwR0N9q.s:153    .text.chSysTimerHandlerI:0000000000000000 chSysTimerHandlerI
     /tmp/ccwR0N9q.s:247    .text.chSysTimerHandlerI:0000000000000060 $d
     /tmp/ccwR0N9q.s:270    .bss._idle_thread_wa:0000000000000000 _idle_thread_wa
     /tmp/ccwR0N9q.s:255    .bss.mainthread.4819:0000000000000000 $d
     /tmp/ccwR0N9q.s:259    .bss.mainthread.4819:0000000000000000 mainthread.4819
     /tmp/ccwR0N9q.s:262    .rodata.str1.4:0000000000000000 $d
     /tmp/ccwR0N9q.s:266    .bss._idle_thread_wa:0000000000000000 $d
                     .debug_frame:0000000000000010 $d
     /tmp/ccwR0N9q.s:51     .text._idle_thread:0000000000000014 $t
     /tmp/ccwR0N9q.s:254    .text.chSysTimerHandlerI:0000000000000068 $t

UNDEFINED SYMBOLS
rlist
_port_init
_scheduler_init
_vt_init
_core_init
_heap_init
_trace_init
_thread_init
__main_thread_stack_base__
dbg_check_enable
ch_debug
chThdCreateStatic
chDbgCheckClassI
dbg_check_unlock_from_isr
dbg_check_lock_from_isr
vtlist
