ARM GAS  /tmp/ccwR0N9q.s 			page 1


   1              		.syntax unified
   2              		.cpu cortex-m4
   3              		.eabi_attribute 27, 3
   4              		.eabi_attribute 28, 1
   5              		.fpu fpv4-sp-d16
   6              		.eabi_attribute 20, 1
   7              		.eabi_attribute 21, 1
   8              		.eabi_attribute 23, 3
   9              		.eabi_attribute 24, 1
  10              		.eabi_attribute 25, 1
  11              		.eabi_attribute 26, 1
  12              		.eabi_attribute 30, 2
  13              		.eabi_attribute 34, 1
  14              		.eabi_attribute 18, 4
  15              		.thumb
  16              		.file	"chsys.c"
  17              		.text
  18              	.Ltext0:
  19              		.cfi_sections	.debug_frame
  20              		.section	.text._idle_thread,"ax",%progbits
  21              		.align	2
  22              		.p2align 4,,15
  23              		.global	_idle_thread
  24              		.thumb
  25              		.thumb_func
  26              		.type	_idle_thread, %function
  27              	_idle_thread:
  28              	.LFB7:
  29              		.file 1 "../../ChibiOS/os/kernel/src/chsys.c"
  30              		.loc 1 54 0
  31              		.cfi_startproc
  32              		@ args = 0, pretend = 0, frame = 0
  33              		@ frame_needed = 0, uses_anonymous_args = 0
  34              		@ link register save eliminated.
  35              	.LVL0:
  36              		.loc 1 57 0
  37 0000 024B     		ldr	r3, .L4
  38 0002 034A     		ldr	r2, .L4+4
  39 0004 9B69     		ldr	r3, [r3, #24]
  40 0006 9A61     		str	r2, [r3, #24]
  41              	.L2:
  42 0008 FEE7     		b	.L2
  43              	.L5:
  44 000a 00BF     		.align	2
  45              	.L4:
  46 000c 00000000 		.word	rlist
  47 0010 00000000 		.word	.LC0
  48              		.cfi_endproc
  49              	.LFE7:
  50              		.size	_idle_thread, .-_idle_thread
  51 0014 AFF30080 		.section	.text.chSysInit,"ax",%progbits
  51      AFF30080 
  51      AFF30080 
  52              		.align	2
  53              		.p2align 4,,15
  54              		.global	chSysInit
  55              		.thumb
ARM GAS  /tmp/ccwR0N9q.s 			page 2


  56              		.thumb_func
  57              		.type	chSysInit, %function
  58              	chSysInit:
  59              	.LFB8:
  60              		.loc 1 77 0
  61              		.cfi_startproc
  62              		@ args = 0, pretend = 0, frame = 0
  63              		@ frame_needed = 0, uses_anonymous_args = 0
  64 0000 30B5     		push	{r4, r5, lr}
  65              	.LCFI0:
  66              		.cfi_def_cfa_offset 12
  67              		.cfi_offset 4, -12
  68              		.cfi_offset 5, -8
  69              		.cfi_offset 14, -4
  70 0002 83B0     		sub	sp, sp, #12
  71              	.LCFI1:
  72              		.cfi_def_cfa_offset 24
  73              		.loc 1 83 0
  74 0004 FFF7FEFF 		bl	_port_init
  75              	.LVL1:
  76              		.loc 1 84 0
  77 0008 FFF7FEFF 		bl	_scheduler_init
  78              	.LVL2:
  79              		.loc 1 85 0
  80 000c FFF7FEFF 		bl	_vt_init
  81              	.LVL3:
  82              		.loc 1 87 0
  83 0010 FFF7FEFF 		bl	_core_init
  84              	.LVL4:
  85              		.loc 1 90 0
  86 0014 FFF7FEFF 		bl	_heap_init
  87              	.LVL5:
  88              		.loc 1 93 0
  89 0018 FFF7FEFF 		bl	_trace_init
  90              	.LVL6:
  91              		.loc 1 97 0
  92 001c 40F20000 		movw	r0, #:lower16:.LANCHOR0
  93 0020 4021     		movs	r1, #64
  94 0022 C0F20000 		movt	r0, #:upper16:.LANCHOR0
  95 0026 FFF7FEFF 		bl	_thread_init
  96              	.LVL7:
  97 002a 40F20004 		movw	r4, #:lower16:rlist
  98              		.loc 1 102 0
  99 002e 40F20003 		movw	r3, #:lower16:__main_thread_stack_base__
 100 0032 C0F20003 		movt	r3, #:upper16:__main_thread_stack_base__
 101              		.loc 1 97 0
 102 0036 C0F20004 		movt	r4, #:upper16:rlist
 103              		.loc 1 98 0
 104 003a 0125     		movs	r5, #1
 105              		.loc 1 102 0
 106 003c C361     		str	r3, [r0, #28]
 107              		.loc 1 98 0
 108 003e 80F82050 		strb	r5, [r0, #32]
 109              		.loc 1 97 0
 110 0042 A061     		str	r0, [r4, #24]
 111              		.loc 1 104 0
 112 0044 FFF7FEFF 		bl	dbg_check_enable
ARM GAS  /tmp/ccwR0N9q.s 			page 3


 113              	.LVL8:
 114              	.LBB2:
 115 0048 0023     		movs	r3, #0
 116              	.LVL9:
 117              	@ 104 "../../ChibiOS/os/kernel/src/chsys.c" 1
 118 004a 83F31188 		msr     BASEPRI, r3                    
 119 004e 62B6     		cpsie   i
 120              	@ 0 "" 2
 121              	.LVL10:
 122              		.thumb
 123              	.LBE2:
 124              		.loc 1 108 0
 125 0050 40F20001 		movw	r1, #:lower16:ch_debug
 126 0054 A269     		ldr	r2, [r4, #24]
 127 0056 C0F20001 		movt	r1, #:upper16:ch_debug
 128 005a 9161     		str	r1, [r2, #24]
 129              		.loc 1 114 0
 130 005c 40F20000 		movw	r0, #:lower16:.LANCHOR1
 131 0060 0093     		str	r3, [sp, #0]
 132 0062 40F20003 		movw	r3, #:lower16:_idle_thread
 133              	.LVL11:
 134 0066 C021     		movs	r1, #192
 135 0068 2A46     		mov	r2, r5
 136 006a C0F20003 		movt	r3, #:upper16:_idle_thread
 137 006e C0F20000 		movt	r0, #:upper16:.LANCHOR1
 138 0072 FFF7FEFF 		bl	chThdCreateStatic
 139              	.LVL12:
 140              		.loc 1 117 0
 141 0076 03B0     		add	sp, sp, #12
 142 0078 30BD     		pop	{r4, r5, pc}
 143              		.cfi_endproc
 144              	.LFE8:
 145              		.size	chSysInit, .-chSysInit
 146 007a 00BFAFF3 		.section	.text.chSysTimerHandlerI,"ax",%progbits
 146      0080
 147              		.align	2
 148              		.p2align 4,,15
 149              		.global	chSysTimerHandlerI
 150              		.thumb
 151              		.thumb_func
 152              		.type	chSysTimerHandlerI, %function
 153              	chSysTimerHandlerI:
 154              	.LFB9:
 155              		.loc 1 130 0
 156              		.cfi_startproc
 157              		@ args = 0, pretend = 0, frame = 0
 158              		@ frame_needed = 0, uses_anonymous_args = 0
 159 0000 F8B5     		push	{r3, r4, r5, r6, r7, lr}
 160              	.LCFI2:
 161              		.cfi_def_cfa_offset 24
 162              		.cfi_offset 3, -24
 163              		.cfi_offset 4, -20
 164              		.cfi_offset 5, -16
 165              		.cfi_offset 6, -12
 166              		.cfi_offset 7, -8
 167              		.cfi_offset 14, -4
 168              		.loc 1 132 0
ARM GAS  /tmp/ccwR0N9q.s 			page 4


 169 0002 FFF7FEFF 		bl	chDbgCheckClassI
 170              	.LVL13:
 171              		.loc 1 136 0
 172 0006 164B     		ldr	r3, .L20
 173 0008 9B69     		ldr	r3, [r3, #24]
 174 000a 93F82320 		ldrb	r2, [r3, #35]	@ zero_extendqisi2
 175 000e 12B1     		cbz	r2, .L8
 176              		.loc 1 138 0
 177 0010 013A     		subs	r2, r2, #1
 178 0012 83F82320 		strb	r2, [r3, #35]
 179              	.L8:
 180              		.loc 1 141 0
 181 0016 5A6A     		ldr	r2, [r3, #36]
 182              		.loc 1 143 0
 183 0018 124D     		ldr	r5, .L20+4
 184              		.loc 1 141 0
 185 001a 0132     		adds	r2, r2, #1
 186 001c 5A62     		str	r2, [r3, #36]
 187              		.loc 1 143 0
 188 001e EB68     		ldr	r3, [r5, #12]
 189 0020 2C68     		ldr	r4, [r5, #0]
 190 0022 0133     		adds	r3, r3, #1
 191 0024 AC42     		cmp	r4, r5
 192 0026 EB60     		str	r3, [r5, #12]
 193 0028 18D0     		beq	.L7
 194              	.LBB3:
 195              		.loc 1 143 0 is_stmt 0 discriminator 1
 196 002a A768     		ldr	r7, [r4, #8]
 197 002c 013F     		subs	r7, r7, #1
 198 002e A760     		str	r7, [r4, #8]
 199              	.LVL14:
 200 0030 A7B9     		cbnz	r7, .L7
 201              	.L16:
 202              	.LBB4:
 203              		.loc 1 143 0 discriminator 3
 204 0032 2368     		ldr	r3, [r4, #0]
 205 0034 E668     		ldr	r6, [r4, #12]
 206              	.LVL15:
 207 0036 5D60     		str	r5, [r3, #4]
 208 0038 E760     		str	r7, [r4, #12]
 209 003a 2B60     		str	r3, [r5, #0]
 210 003c FFF7FEFF 		bl	dbg_check_unlock_from_isr
 211              	.LVL16:
 212              	.LBB5:
 213 0040 0023     		movs	r3, #0
 214              	.LVL17:
 215              	@ 143 "../../ChibiOS/os/kernel/src/chsys.c" 1
 216 0042 83F31188 		msr     BASEPRI, r3
 217              	@ 0 "" 2
 218              	.LVL18:
 219              		.thumb
 220              	.LBE5:
 221 0046 2069     		ldr	r0, [r4, #16]
 222 0048 B047     		blx	r6
 223              	.LVL19:
 224              	.LBB6:
 225 004a 2023     		movs	r3, #32
ARM GAS  /tmp/ccwR0N9q.s 			page 5


 226              	.LVL20:
 227              	@ 143 "../../ChibiOS/os/kernel/src/chsys.c" 1
 228 004c 83F31188 		msr     BASEPRI, r3
 229              	@ 0 "" 2
 230              	.LVL21:
 231              		.thumb
 232              	.LBE6:
 233 0050 FFF7FEFF 		bl	dbg_check_lock_from_isr
 234              	.LVL22:
 235              	.LBE4:
 236 0054 2C68     		ldr	r4, [r5, #0]
 237              	.LVL23:
 238 0056 A368     		ldr	r3, [r4, #8]
 239 0058 002B     		cmp	r3, #0
 240 005a EAD0     		beq	.L16
 241              	.LVL24:
 242              	.L7:
 243 005c F8BD     		pop	{r3, r4, r5, r6, r7, pc}
 244              	.L21:
 245 005e 00BF     		.align	2
 246              	.L20:
 247 0060 00000000 		.word	rlist
 248 0064 00000000 		.word	vtlist
 249              	.LBE3:
 250              		.cfi_endproc
 251              	.LFE9:
 252              		.size	chSysTimerHandlerI, .-chSysTimerHandlerI
 253              		.global	_idle_thread_wa
 254 0068 AFF30080 		.section	.bss.mainthread.4819,"aw",%nobits
 254      AFF30080 
 255              		.align	2
 256              		.set	.LANCHOR0,. + 0
 257              		.type	mainthread.4819, %object
 258              		.size	mainthread.4819, 76
 259              	mainthread.4819:
 260 0000 00000000 		.space	76
 260      00000000 
 260      00000000 
 260      00000000 
 260      00000000 
 261              		.section	.rodata.str1.4,"aMS",%progbits,1
 262              		.align	2
 263              	.LC0:
 264 0000 69646C65 		.ascii	"idle\000"
 264      00
 265 0005 000000   		.section	.bss._idle_thread_wa,"aw",%nobits
 266              		.align	3
 267              		.set	.LANCHOR1,. + 0
 268              		.type	_idle_thread_wa, %object
 269              		.size	_idle_thread_wa, 192
 270              	_idle_thread_wa:
 271 0000 00000000 		.space	192
 271      00000000 
 271      00000000 
 271      00000000 
 271      00000000 
 272              		.text
ARM GAS  /tmp/ccwR0N9q.s 			page 6


 273              	.Letext0:
 274              		.file 2 "/home/david/toolchains/psas/x-tools/stm32f407/arm-psas-eabi/bin/../lib/gcc/arm-psas-eabi/
 275              		.file 3 "/home/david/toolchains/psas/x-tools/stm32f407/arm-psas-eabi/bin/../lib/gcc/arm-psas-eabi/
 276              		.file 4 "../../ChibiOS/os/ports/GCC/ARMCMx/chtypes.h"
 277              		.file 5 "../../ChibiOS/os/kernel/include/chlists.h"
 278              		.file 6 "../../ChibiOS/os/kernel/include/chthreads.h"
 279              		.file 7 "../../ChibiOS/os/ports/GCC/ARMCMx/chcore_v7m.h"
 280              		.file 8 "../../ChibiOS/os/kernel/include/chvt.h"
 281              		.file 9 "../../ChibiOS/os/kernel/include/chschd.h"
 282              		.file 10 "../../ChibiOS/os/kernel/include/chmtx.h"
 283              		.file 11 "../../ChibiOS/os/kernel/include/chregistry.h"
 284              		.file 12 "../../ChibiOS/os/kernel/include/chmemcore.h"
 285              		.file 13 "../../ChibiOS/os/kernel/include/chheap.h"
 286              		.file 14 "../../ChibiOS/os/kernel/include/chdebug.h"