ARM GAS  /tmp/ccxE3p7N.s 			page 1


   1              		.syntax unified
   2              		.cpu cortex-m4
   3              		.eabi_attribute 27, 3
   4              		.eabi_attribute 28, 1
   5              		.fpu fpv4-sp-d16
   6              		.eabi_attribute 20, 1
   7              		.eabi_attribute 21, 1
   8              		.eabi_attribute 23, 3
   9              		.eabi_attribute 24, 1
  10              		.eabi_attribute 25, 1
  11              		.eabi_attribute 26, 1
  12              		.eabi_attribute 30, 2
  13              		.eabi_attribute 34, 1
  14              		.eabi_attribute 18, 4
  15              		.thumb
  16              		.file	"chvt.c"
  17              		.text
  18              	.Ltext0:
  19              		.cfi_sections	.debug_frame
  20              		.section	.text._vt_init,"ax",%progbits
  21              		.align	2
  22              		.p2align 4,,15
  23              		.global	_vt_init
  24              		.thumb
  25              		.thumb_func
  26              		.type	_vt_init, %function
  27              	_vt_init:
  28              	.LFB7:
  29              		.file 1 "../../ChibiOS/os/kernel/src/chvt.c"
  30              		.loc 1 43 0
  31              		.cfi_startproc
  32              		@ args = 0, pretend = 0, frame = 0
  33              		@ frame_needed = 0, uses_anonymous_args = 0
  34              		@ link register save eliminated.
  35              		.loc 1 45 0
  36 0000 40F20003 		movw	r3, #:lower16:.LANCHOR0
  37 0004 C0F20003 		movt	r3, #:upper16:.LANCHOR0
  38              		.loc 1 46 0
  39 0008 4FF0FF32 		mov	r2, #-1
  40 000c 9A60     		str	r2, [r3, #8]
  41              		.loc 1 47 0
  42 000e 0022     		movs	r2, #0
  43              		.loc 1 45 0
  44 0010 5B60     		str	r3, [r3, #4]
  45 0012 1B60     		str	r3, [r3, #0]
  46              		.loc 1 47 0
  47 0014 DA60     		str	r2, [r3, #12]
  48 0016 7047     		bx	lr
  49              		.cfi_endproc
  50              	.LFE7:
  51              		.size	_vt_init, .-_vt_init
  52 0018 AFF30080 		.section	.text.chVTSetI,"ax",%progbits
  52      AFF30080 
  53              		.align	2
  54              		.p2align 4,,15
  55              		.global	chVTSetI
  56              		.thumb
ARM GAS  /tmp/ccxE3p7N.s 			page 2


  57              		.thumb_func
  58              		.type	chVTSetI, %function
  59              	chVTSetI:
  60              	.LFB8:
  61              		.loc 1 69 0
  62              		.cfi_startproc
  63              		@ args = 0, pretend = 0, frame = 0
  64              		@ frame_needed = 0, uses_anonymous_args = 0
  65              	.LVL0:
  66 0000 F8B5     		push	{r3, r4, r5, r6, r7, lr}
  67              	.LCFI0:
  68              		.cfi_def_cfa_offset 24
  69              		.cfi_offset 3, -24
  70              		.cfi_offset 4, -20
  71              		.cfi_offset 5, -16
  72              		.cfi_offset 6, -12
  73              		.cfi_offset 7, -8
  74              		.cfi_offset 14, -4
  75              		.loc 1 69 0
  76 0002 0546     		mov	r5, r0
  77 0004 1646     		mov	r6, r2
  78 0006 0C46     		mov	r4, r1
  79 0008 1F46     		mov	r7, r3
  80              		.loc 1 72 0
  81 000a FFF7FEFF 		bl	chDbgCheckClassI
  82              	.LVL1:
  83              		.loc 1 73 0
  84 000e 002D     		cmp	r5, #0
  85 0010 18BF     		it	ne
  86 0012 002E     		cmpne	r6, #0
  87 0014 1AD0     		beq	.L3
  88              		.loc 1 73 0 is_stmt 0 discriminator 2
  89 0016 CCB1     		cbz	r4, .L3
  90              	.L4:
  91              		.loc 1 78 0 is_stmt 1
  92 0018 0E49     		ldr	r1, .L11
  93              		.loc 1 76 0
  94 001a 2F61     		str	r7, [r5, #16]
  95              		.loc 1 78 0
  96 001c 0B68     		ldr	r3, [r1, #0]
  97              	.LVL2:
  98              		.loc 1 77 0
  99 001e EE60     		str	r6, [r5, #12]
 100              		.loc 1 79 0
 101 0020 9A68     		ldr	r2, [r3, #8]
 102 0022 9442     		cmp	r4, r2
 103 0024 04D9     		bls	.L5
 104              	.L8:
 105              		.loc 1 81 0
 106 0026 1B68     		ldr	r3, [r3, #0]
 107              	.LVL3:
 108              		.loc 1 80 0
 109 0028 A41A     		subs	r4, r4, r2
 110              	.LVL4:
 111              		.loc 1 79 0
 112 002a 9A68     		ldr	r2, [r3, #8]
 113 002c A242     		cmp	r2, r4
ARM GAS  /tmp/ccxE3p7N.s 			page 3


 114 002e FAD3     		bcc	.L8
 115              	.L5:
 116              		.loc 1 84 0
 117 0030 5A68     		ldr	r2, [r3, #4]
 118              		.loc 1 86 0
 119 0032 AC60     		str	r4, [r5, #8]
 120              		.loc 1 87 0
 121 0034 8B42     		cmp	r3, r1
 122              		.loc 1 84 0
 123 0036 6A60     		str	r2, [r5, #4]
 124 0038 2B60     		str	r3, [r5, #0]
 125              		.loc 1 85 0
 126 003a 1560     		str	r5, [r2, #0]
 127              		.loc 1 88 0
 128 003c 18BF     		it	ne
 129 003e 9A68     		ldrne	r2, [r3, #8]
 130              		.loc 1 85 0
 131 0040 5D60     		str	r5, [r3, #4]
 132              		.loc 1 88 0
 133 0042 1CBF     		itt	ne
 134 0044 C4EB0204 		rsbne	r4, r4, r2
 135              	.LVL5:
 136 0048 9C60     		strne	r4, [r3, #8]
 137 004a F8BD     		pop	{r3, r4, r5, r6, r7, pc}
 138              	.LVL6:
 139              	.L3:
 140              		.loc 1 73 0 discriminator 1
 141 004c 0248     		ldr	r0, .L11+4
 142 004e FFF7FEFF 		bl	chDbgPanic
 143              	.LVL7:
 144 0052 E1E7     		b	.L4
 145              	.L12:
 146              		.align	2
 147              	.L11:
 148 0054 00000000 		.word	.LANCHOR0
 149 0058 00000000 		.word	.LC0
 150              		.cfi_endproc
 151              	.LFE8:
 152              		.size	chVTSetI, .-chVTSetI
 153 005c AFF30080 		.section	.text.chVTResetI,"ax",%progbits
 154              		.align	2
 155              		.p2align 4,,15
 156              		.global	chVTResetI
 157              		.thumb
 158              		.thumb_func
 159              		.type	chVTResetI, %function
 160              	chVTResetI:
 161              	.LFB9:
 162              		.loc 1 99 0
 163              		.cfi_startproc
 164              		@ args = 0, pretend = 0, frame = 0
 165              		@ frame_needed = 0, uses_anonymous_args = 0
 166              	.LVL8:
 167 0000 10B5     		push	{r4, lr}
 168              	.LCFI1:
 169              		.cfi_def_cfa_offset 8
 170              		.cfi_offset 4, -8
ARM GAS  /tmp/ccxE3p7N.s 			page 4


 171              		.cfi_offset 14, -4
 172              		.loc 1 99 0
 173 0002 0446     		mov	r4, r0
 174              		.loc 1 101 0
 175 0004 FFF7FEFF 		bl	chDbgCheckClassI
 176              	.LVL9:
 177              		.loc 1 102 0
 178 0008 84B1     		cbz	r4, .L17
 179              	.L14:
 180              		.loc 1 103 0
 181 000a E368     		ldr	r3, [r4, #12]
 182 000c 93B1     		cbz	r3, .L18
 183              	.L15:
 184              		.loc 1 107 0
 185 000e 2368     		ldr	r3, [r4, #0]
 186 0010 0A4A     		ldr	r2, .L19
 187 0012 9342     		cmp	r3, r2
 188              		.loc 1 108 0
 189 0014 1FBF     		itttt	ne
 190 0016 9968     		ldrne	r1, [r3, #8]
 191 0018 A268     		ldrne	r2, [r4, #8]
 192 001a 8A18     		addne	r2, r1, r2
 193 001c 9A60     		strne	r2, [r3, #8]
 194              		.loc 1 109 0
 195 001e 6268     		ldr	r2, [r4, #4]
 196 0020 1360     		str	r3, [r2, #0]
 197              		.loc 1 110 0
 198 0022 2368     		ldr	r3, [r4, #0]
 199 0024 5A60     		str	r2, [r3, #4]
 200              		.loc 1 111 0
 201 0026 0023     		movs	r3, #0
 202 0028 E360     		str	r3, [r4, #12]
 203 002a 10BD     		pop	{r4, pc}
 204              	.L17:
 205              		.loc 1 102 0 discriminator 1
 206 002c 0448     		ldr	r0, .L19+4
 207 002e FFF7FEFF 		bl	chDbgPanic
 208              	.LVL10:
 209 0032 EAE7     		b	.L14
 210              	.L18:
 211              		.loc 1 103 0 discriminator 1
 212 0034 0348     		ldr	r0, .L19+8
 213 0036 FFF7FEFF 		bl	chDbgPanic
 214              	.LVL11:
 215 003a E8E7     		b	.L15
 216              	.L20:
 217              		.align	2
 218              	.L19:
 219 003c 00000000 		.word	.LANCHOR0
 220 0040 10000000 		.word	.LC1
 221 0044 20000000 		.word	.LC2
 222              		.cfi_endproc
 223              	.LFE9:
 224              		.size	chVTResetI, .-chVTResetI
 225 0048 AFF30080 		.section	.text.chTimeIsWithin,"ax",%progbits
 225      AFF30080 
 226              		.align	2
ARM GAS  /tmp/ccxE3p7N.s 			page 5


 227              		.p2align 4,,15
 228              		.global	chTimeIsWithin
 229              		.thumb
 230              		.thumb_func
 231              		.type	chTimeIsWithin, %function
 232              	chTimeIsWithin:
 233              	.LFB10:
 234              		.loc 1 127 0
 235              		.cfi_startproc
 236              		@ args = 0, pretend = 0, frame = 0
 237              		@ frame_needed = 0, uses_anonymous_args = 0
 238              		@ link register save eliminated.
 239              	.LVL12:
 240              		.loc 1 129 0
 241 0000 0B4A     		ldr	r2, .L25
 242              		.loc 1 130 0
 243 0002 8142     		cmp	r1, r0
 244              		.loc 1 127 0
 245 0004 0346     		mov	r3, r0
 246              		.loc 1 129 0
 247 0006 D268     		ldr	r2, [r2, #12]
 248              	.LVL13:
 249              		.loc 1 130 0
 250 0008 09D8     		bhi	.L24
 251              		.loc 1 131 0 discriminator 2
 252 000a 8242     		cmp	r2, r0
 253 000c 34BF     		ite	cc
 254 000e 0023     		movcc	r3, #0
 255 0010 0123     		movcs	r3, #1
 256              		.loc 1 130 0 discriminator 2
 257 0012 8A42     		cmp	r2, r1
 258 0014 2CBF     		ite	cs
 259 0016 1846     		movcs	r0, r3
 260 0018 43F00100 		orrcc	r0, r3, #1
 261              	.LVL14:
 262              		.loc 1 132 0 discriminator 2
 263 001c 7047     		bx	lr
 264              	.LVL15:
 265              	.L24:
 266              		.loc 1 130 0 discriminator 1
 267 001e 8A42     		cmp	r2, r1
 268 0020 2CBF     		ite	cs
 269 0022 0020     		movcs	r0, #0
 270              	.LVL16:
 271 0024 0120     		movcc	r0, #1
 272 0026 9A42     		cmp	r2, r3
 273 0028 38BF     		it	cc
 274 002a 0020     		movcc	r0, #0
 275 002c 7047     		bx	lr
 276              	.L26:
 277 002e 00BF     		.align	2
 278              	.L25:
 279 0030 00000000 		.word	.LANCHOR0
 280              		.cfi_endproc
 281              	.LFE10:
 282              		.size	chTimeIsWithin, .-chTimeIsWithin
 283              		.global	vtlist
ARM GAS  /tmp/ccxE3p7N.s 			page 6


 284 0034 AFF30080 		.section	.bss.vtlist,"aw",%nobits
 284      AFF30080 
 284      AFF30080 
 285              		.align	2
 286              		.set	.LANCHOR0,. + 0
 287              		.type	vtlist, %object
 288              		.size	vtlist, 16
 289              	vtlist:
 290 0000 00000000 		.space	16
 290      00000000 
 290      00000000 
 290      00000000 
 291              		.section	.rodata.str1.4,"aMS",%progbits,1
 292              		.align	2
 293              	.LC0:
 294 0000 22636856 		.ascii	"\"chVTSetI\"()\000"
 294      54536574 
 294      49222829 
 294      00
 295 000d 000000   		.space	3
 296              	.LC1:
 297 0010 22636856 		.ascii	"\"chVTResetI\"()\000"
 297      54526573 
 297      65744922 
 297      282900
 298 001f 00       		.space	1
 299              	.LC2:
 300 0020 63685654 		.ascii	"chVTResetI(), #1\000"
 300      52657365 
 300      74492829 
 300      2C202331 
 300      00
 301 0031 000000   		.text
 302              	.Letext0:
 303              		.file 2 "/home/david/toolchains/psas/x-tools/stm32f407/arm-psas-eabi/bin/../lib/gcc/arm-psas-eabi/
 304              		.file 3 "../../ChibiOS/os/ports/GCC/ARMCMx/chtypes.h"
 305              		.file 4 "../../ChibiOS/os/kernel/include/chvt.h"
 306              		.file 5 "../../ChibiOS/os/kernel/include/chdebug.h"