ARM GAS  /tmp/ccPXxX60.s 			page 1


   1              		.syntax unified
   2              		.cpu cortex-m4
   3              		.eabi_attribute 27, 3
   4              		.eabi_attribute 28, 1
   5              		.fpu fpv4-sp-d16
   6              		.eabi_attribute 20, 1
   7              		.eabi_attribute 21, 1
   8              		.eabi_attribute 23, 3
   9              		.eabi_attribute 24, 1
  10              		.eabi_attribute 25, 1
  11              		.eabi_attribute 26, 1
  12              		.eabi_attribute 30, 2
  13              		.eabi_attribute 34, 1
  14              		.eabi_attribute 18, 4
  15              		.thumb
  16              		.file	"cmddetail.c"
  17              		.text
  18              	.Ltext0:
  19              		.cfi_sections	.debug_frame
  20              		.section	.text.cmd_mem,"ax",%progbits
  21              		.align	2
  22              		.p2align 4,,15
  23              		.global	cmd_mem
  24              		.thumb
  25              		.thumb_func
  26              		.type	cmd_mem, %function
  27              	cmd_mem:
  28              	.LFB118:
  29              		.file 1 "cmddetail.c"
  30              		.loc 1 26 0
  31              		.cfi_startproc
  32              		@ args = 0, pretend = 0, frame = 8
  33              		@ frame_needed = 0, uses_anonymous_args = 0
  34              	.LVL0:
  35 0000 30B5     		push	{r4, r5, lr}
  36              	.LCFI0:
  37              		.cfi_def_cfa_offset 12
  38              		.cfi_offset 4, -12
  39              		.cfi_offset 5, -8
  40              		.cfi_offset 14, -4
  41              		.loc 1 30 0
  42 0002 0029     		cmp	r1, #0
  43              		.loc 1 26 0
  44 0004 83B0     		sub	sp, sp, #12
  45              	.LCFI1:
  46              		.cfi_def_cfa_offset 24
  47              		.loc 1 26 0
  48 0006 0446     		mov	r4, r0
  49              		.loc 1 30 0
  50 0008 04DD     		ble	.L2
  51              		.loc 1 31 0
  52 000a 0E49     		ldr	r1, .L5
  53              	.LVL1:
  54 000c FFF7FEFF 		bl	chprintf
  55              	.LVL2:
  56              	.L1:
  57              		.loc 1 38 0
ARM GAS  /tmp/ccPXxX60.s 			page 2


  58 0010 03B0     		add	sp, sp, #12
  59 0012 30BD     		pop	{r4, r5, pc}
  60              	.LVL3:
  61              	.L2:
  62              		.loc 1 34 0
  63 0014 01A9     		add	r1, sp, #4
  64              	.LVL4:
  65 0016 0020     		movs	r0, #0
  66              	.LVL5:
  67 0018 FFF7FEFF 		bl	chHeapStatus
  68              	.LVL6:
  69 001c 0546     		mov	r5, r0
  70              	.LVL7:
  71              		.loc 1 35 0
  72 001e FFF7FEFF 		bl	chCoreStatus
  73              	.LVL8:
  74 0022 0949     		ldr	r1, .L5+4
  75 0024 0246     		mov	r2, r0
  76 0026 2046     		mov	r0, r4
  77 0028 FFF7FEFF 		bl	chprintf
  78              	.LVL9:
  79              		.loc 1 36 0
  80 002c 2046     		mov	r0, r4
  81 002e 2A46     		mov	r2, r5
  82 0030 0649     		ldr	r1, .L5+8
  83 0032 FFF7FEFF 		bl	chprintf
  84              	.LVL10:
  85              		.loc 1 37 0
  86 0036 2046     		mov	r0, r4
  87 0038 0549     		ldr	r1, .L5+12
  88              	.LVL11:
  89 003a 019A     		ldr	r2, [sp, #4]
  90 003c FFF7FEFF 		bl	chprintf
  91              	.LVL12:
  92 0040 E6E7     		b	.L1
  93              	.L6:
  94 0042 00BF     		.align	2
  95              	.L5:
  96 0044 00000000 		.word	.LC0
  97 0048 10000000 		.word	.LC1
  98 004c 30000000 		.word	.LC2
  99 0050 48000000 		.word	.LC3
 100              		.cfi_endproc
 101              	.LFE118:
 102              		.size	cmd_mem, .-cmd_mem
 103 0054 AFF30080 		.section	.text.cmd_threads,"ax",%progbits
 103      AFF30080 
 103      AFF30080 
 104              		.align	2
 105              		.p2align 4,,15
 106              		.global	cmd_threads
 107              		.thumb
 108              		.thumb_func
 109              		.type	cmd_threads, %function
 110              	cmd_threads:
 111              	.LFB119:
 112              		.loc 1 46 0
ARM GAS  /tmp/ccPXxX60.s 			page 3


 113              		.cfi_startproc
 114              		@ args = 0, pretend = 0, frame = 0
 115              		@ frame_needed = 0, uses_anonymous_args = 0
 116              	.LVL13:
 117 0000 F0B5     		push	{r4, r5, r6, r7, lr}
 118              	.LCFI2:
 119              		.cfi_def_cfa_offset 20
 120              		.cfi_offset 4, -20
 121              		.cfi_offset 5, -16
 122              		.cfi_offset 6, -12
 123              		.cfi_offset 7, -8
 124              		.cfi_offset 14, -4
 125              		.loc 1 51 0
 126 0002 0029     		cmp	r1, #0
 127              		.loc 1 46 0
 128 0004 87B0     		sub	sp, sp, #28
 129              	.LCFI3:
 130              		.cfi_def_cfa_offset 48
 131              		.loc 1 46 0
 132 0006 0646     		mov	r6, r0
 133              		.loc 1 51 0
 134 0008 05DD     		ble	.L8
 135              		.loc 1 52 0
 136 000a 1549     		ldr	r1, .L11
 137              	.LVL14:
 138              		.loc 1 64 0
 139 000c 07B0     		add	sp, sp, #28
 140 000e BDE8F040 		pop	{r4, r5, r6, r7, lr}
 141              		.loc 1 52 0
 142 0012 FFF7FEBF 		b	chprintf
 143              	.LVL15:
 144              	.L8:
 145              		.loc 1 55 0
 146 0016 1349     		ldr	r1, .L11+4
 147              	.LVL16:
 148 0018 134F     		ldr	r7, .L11+8
 149 001a FFF7FEFF 		bl	chprintf
 150              	.LVL17:
 151              		.loc 1 56 0
 152 001e FFF7FEFF 		bl	chRegFirstThread
 153              	.LVL18:
 154 0022 0446     		mov	r4, r0
 155              	.LVL19:
 156              	.L9:
 157              		.loc 1 58 0 discriminator 1
 158 0024 A268     		ldr	r2, [r4, #8]
 159 0026 E368     		ldr	r3, [r4, #12]
 160 0028 606A     		ldr	r0, [r4, #36]
 161              	.LVL20:
 162 002a 0092     		str	r2, [sp, #0]
 163              		.loc 1 60 0 discriminator 1
 164 002c 94F82220 		ldrb	r2, [r4, #34]	@ zero_extendqisi2
 165              		.loc 1 58 0 discriminator 1
 166 0030 0E49     		ldr	r1, .L11+12
 167              		.loc 1 60 0 discriminator 1
 168 0032 013A     		subs	r2, r2, #1
 169              		.loc 1 58 0 discriminator 1
ARM GAS  /tmp/ccPXxX60.s 			page 4


 170 0034 0192     		str	r2, [sp, #4]
 171 0036 94F82020 		ldrb	r2, [r4, #32]	@ zero_extendqisi2
 172 003a 0390     		str	r0, [sp, #12]
 173 003c 57F82220 		ldr	r2, [r7, r2, lsl #2]
 174 0040 0292     		str	r2, [sp, #8]
 175 0042 A569     		ldr	r5, [r4, #24]
 176 0044 2246     		mov	r2, r4
 177 0046 3046     		mov	r0, r6
 178 0048 0495     		str	r5, [sp, #16]
 179 004a FFF7FEFF 		bl	chprintf
 180              	.LVL21:
 181              		.loc 1 62 0 discriminator 1
 182 004e 2046     		mov	r0, r4
 183 0050 FFF7FEFF 		bl	chRegNextThread
 184              	.LVL22:
 185              		.loc 1 63 0 discriminator 1
 186 0054 0446     		mov	r4, r0
 187 0056 0028     		cmp	r0, #0
 188 0058 E4D1     		bne	.L9
 189              		.loc 1 64 0
 190 005a 07B0     		add	sp, sp, #28
 191 005c F0BD     		pop	{r4, r5, r6, r7, pc}
 192              	.L12:
 193 005e 00BF     		.align	2
 194              	.L11:
 195 0060 68000000 		.word	.LC4
 196 0064 7C000000 		.word	.LC5
 197 0068 00000000 		.word	.LANCHOR0
 198 006c A8000000 		.word	.LC6
 199              		.cfi_endproc
 200              	.LFE119:
 201              		.size	cmd_threads, .-cmd_threads
 202              		.section	.rodata.states.8173,"a",%progbits
 203              		.align	2
 204              		.set	.LANCHOR0,. + 0
 205              		.type	states.8173, %object
 206              		.size	states.8173, 60
 207              	states.8173:
 208 0000 CC000000 		.word	.LC7
 209 0004 D4000000 		.word	.LC8
 210 0008 DC000000 		.word	.LC9
 211 000c E8000000 		.word	.LC10
 212 0010 F0000000 		.word	.LC11
 213 0014 F8000000 		.word	.LC12
 214 0018 00010000 		.word	.LC13
 215 001c 0C010000 		.word	.LC14
 216 0020 14010000 		.word	.LC15
 217 0024 1C010000 		.word	.LC16
 218 0028 28010000 		.word	.LC17
 219 002c 30010000 		.word	.LC18
 220 0030 38010000 		.word	.LC19
 221 0034 40010000 		.word	.LC20
 222 0038 48010000 		.word	.LC21
 223              		.section	.rodata.str1.4,"aMS",%progbits,1
 224              		.align	2
 225              	.LC0:
 226 0000 55736167 		.ascii	"Usage: mem\015\012\000"
ARM GAS  /tmp/ccPXxX60.s 			page 5


 226      653A206D 
 226      656D0D0A 
 226      00
 227 000d 000000   		.space	3
 228              	.LC1:
 229 0010 636F7265 		.ascii	"core free memory : %u bytes\015\012\000"
 229      20667265 
 229      65206D65 
 229      6D6F7279 
 229      203A2025 
 230 002e 0000     		.space	2
 231              	.LC2:
 232 0030 68656170 		.ascii	"heap fragments   : %u\015\012\000"
 232      20667261 
 232      676D656E 
 232      74732020 
 232      203A2025 
 233              	.LC3:
 234 0048 68656170 		.ascii	"heap free total  : %u bytes\015\012\000"
 234      20667265 
 234      6520746F 
 234      74616C20 
 234      203A2025 
 235 0066 0000     		.space	2
 236              	.LC4:
 237 0068 55736167 		.ascii	"Usage: threads\015\012\000"
 237      653A2074 
 237      68726561 
 237      64730D0A 
 237      00
 238 0079 000000   		.space	3
 239              	.LC5:
 240 007c 61646472 		.ascii	"addr\011\011stack\011\011prio\011refs\011state\011\011"
 240      09097374 
 240      61636B09 
 240      09707269 
 240      6F097265 
 241 009a 74696D65 		.ascii	"time\011name\015\012\000"
 241      096E616D 
 241      650D0A00 
 242 00a6 0000     		.space	2
 243              	.LC6:
 244 00a8 252E386C 		.ascii	"%.8lx\011%.8lx\011%4lu\011%4lu\011%9s\011%lu\011%s\015"
 244      7809252E 
 244      386C7809 
 244      25346C75 
 244      0925346C 
 245 00c9 0A00     		.ascii	"\012\000"
 246 00cb 00       		.space	1
 247              	.LC7:
 248 00cc 52454144 		.ascii	"READY\000"
 248      5900
 249 00d2 0000     		.space	2
 250              	.LC8:
 251 00d4 43555252 		.ascii	"CURRENT\000"
 251      454E5400 
 252              	.LC9:
ARM GAS  /tmp/ccPXxX60.s 			page 6


 253 00dc 53555350 		.ascii	"SUSPENDED\000"
 253      454E4445 
 253      4400
 254 00e6 0000     		.space	2
 255              	.LC10:
 256 00e8 57545345 		.ascii	"WTSEM\000"
 256      4D00
 257 00ee 0000     		.space	2
 258              	.LC11:
 259 00f0 57544D54 		.ascii	"WTMTX\000"
 259      5800
 260 00f6 0000     		.space	2
 261              	.LC12:
 262 00f8 5754434F 		.ascii	"WTCOND\000"
 262      4E4400
 263 00ff 00       		.space	1
 264              	.LC13:
 265 0100 534C4545 		.ascii	"SLEEPING\000"
 265      50494E47 
 265      00
 266 0109 000000   		.space	3
 267              	.LC14:
 268 010c 57544558 		.ascii	"WTEXIT\000"
 268      495400
 269 0113 00       		.space	1
 270              	.LC15:
 271 0114 57544F52 		.ascii	"WTOREVT\000"
 271      45565400 
 272              	.LC16:
 273 011c 5754414E 		.ascii	"WTANDEVT\000"
 273      44455654 
 273      00
 274 0125 000000   		.space	3
 275              	.LC17:
 276 0128 534E444D 		.ascii	"SNDMSGQ\000"
 276      53475100 
 277              	.LC18:
 278 0130 534E444D 		.ascii	"SNDMSG\000"
 278      534700
 279 0137 00       		.space	1
 280              	.LC19:
 281 0138 57544D53 		.ascii	"WTMSG\000"
 281      4700
 282 013e 0000     		.space	2
 283              	.LC20:
 284 0140 57545155 		.ascii	"WTQUEUE\000"
 284      45554500 
 285              	.LC21:
 286 0148 46494E41 		.ascii	"FINAL\000"
 286      4C00
 287 014e 0000     		.text
 288              	.Letext0:
 289              		.file 2 "/home/david/toolchains/psas/x-tools/stm32f407/arm-psas-eabi/bin/../lib/gcc/arm-psas-eabi/
 290              		.file 3 "/home/david/toolchains/psas/x-tools/stm32f407/arm-psas-eabi/bin/../lib/gcc/arm-psas-eabi/
 291              		.file 4 "../../ChibiOS/os/ports/GCC/ARMCMx/chtypes.h"
 292              		.file 5 "../../ChibiOS/os/kernel/include/chlists.h"
 293              		.file 6 "../../ChibiOS/os/kernel/include/chthreads.h"
ARM GAS  /tmp/ccPXxX60.s 			page 7


 294              		.file 7 "../../ChibiOS/os/ports/GCC/ARMCMx/chcore_v7m.h"
 295              		.file 8 "../../ChibiOS/os/kernel/include/chmtx.h"
 296              		.file 9 "../../ChibiOS/os/kernel/include/chmemcore.h"
 297              		.file 10 "../../ChibiOS/os/kernel/include/chheap.h"
 298              		.file 11 "../../ChibiOS/os/kernel/include/chstreams.h"
 299              		.file 12 "../../ChibiOS/os/kernel/include/chregistry.h"
 300              		.file 13 "../../ChibiOS/os/various/chprintf.h"
 301              		.file 14 "../../ChibiOS/os/ports/common/ARMCMx/CMSIS/include/core_cm4.h"