ARM GAS  /tmp/ccW0hHij.s 			page 1


   1              		.syntax unified
   2              		.cpu cortex-m4
   3              		.eabi_attribute 27, 3
   4              		.eabi_attribute 28, 1
   5              		.fpu fpv4-sp-d16
   6              		.eabi_attribute 20, 1
   7              		.eabi_attribute 21, 1
   8              		.eabi_attribute 23, 3
   9              		.eabi_attribute 24, 1
  10              		.eabi_attribute 25, 1
  11              		.eabi_attribute 26, 1
  12              		.eabi_attribute 30, 2
  13              		.eabi_attribute 34, 1
  14              		.eabi_attribute 18, 4
  15              		.thumb
  16              		.file	"evtimer.c"
  17              		.text
  18              	.Ltext0:
  19              		.cfi_sections	.debug_frame
  20              		.section	.text.tmrcb,"ax",%progbits
  21              		.align	2
  22              		.p2align 4,,15
  23              		.thumb
  24              		.thumb_func
  25              		.type	tmrcb, %function
  26              	tmrcb:
  27              	.LFB7:
  28              		.file 1 "../../ChibiOS/os/various/evtimer.c"
  29              		.loc 1 32 0
  30              		.cfi_startproc
  31              		@ args = 0, pretend = 0, frame = 0
  32              		@ frame_needed = 0, uses_anonymous_args = 0
  33              	.LVL0:
  34 0000 10B5     		push	{r4, lr}
  35              	.LCFI0:
  36              		.cfi_def_cfa_offset 8
  37              		.cfi_offset 4, -8
  38              		.cfi_offset 14, -4
  39              	.LBB2:
  40              		.loc 1 35 0
  41 0002 2023     		movs	r3, #32
  42              	.LVL1:
  43              	.LBE2:
  44              		.loc 1 32 0
  45 0004 0446     		mov	r4, r0
  46              	.LVL2:
  47              	.LBB3:
  48              		.loc 1 35 0
  49              	@ 35 "../../ChibiOS/os/various/evtimer.c" 1
  50 0006 83F31188 		msr     BASEPRI, r3
  51              	@ 0 "" 2
  52              	.LVL3:
  53              		.thumb
  54              	.LBE3:
  55 000a FFF7FEFF 		bl	dbg_check_lock_from_isr
  56              	.LVL4:
  57              		.loc 1 36 0
ARM GAS  /tmp/ccW0hHij.s 			page 2


  58 000e 04F11400 		add	r0, r4, #20
  59 0012 0021     		movs	r1, #0
  60 0014 FFF7FEFF 		bl	chEvtBroadcastFlagsI
  61              	.LVL5:
  62              		.loc 1 37 0
  63 0018 40F20002 		movw	r2, #:lower16:tmrcb
  64 001c 2346     		mov	r3, r4
  65 001e 2046     		mov	r0, r4
  66 0020 A169     		ldr	r1, [r4, #24]
  67 0022 C0F20002 		movt	r2, #:upper16:tmrcb
  68 0026 FFF7FEFF 		bl	chVTSetI
  69              	.LVL6:
  70              		.loc 1 38 0
  71 002a FFF7FEFF 		bl	dbg_check_unlock_from_isr
  72              	.LVL7:
  73              	.LBB4:
  74 002e 0023     		movs	r3, #0
  75              	.LVL8:
  76              	@ 38 "../../ChibiOS/os/various/evtimer.c" 1
  77 0030 83F31188 		msr     BASEPRI, r3
  78              	@ 0 "" 2
  79              	.LVL9:
  80              		.thumb
  81 0034 10BD     		pop	{r4, pc}
  82              	.LBE4:
  83              		.cfi_endproc
  84              	.LFE7:
  85              		.size	tmrcb, .-tmrcb
  86 0036 00BFAFF3 		.section	.text.evtStart,"ax",%progbits
  86      0080AFF3 
  86      0080
  87              		.align	2
  88              		.p2align 4,,15
  89              		.global	evtStart
  90              		.thumb
  91              		.thumb_func
  92              		.type	evtStart, %function
  93              	evtStart:
  94              	.LFB8:
  95              		.loc 1 47 0
  96              		.cfi_startproc
  97              		@ args = 0, pretend = 0, frame = 0
  98              		@ frame_needed = 0, uses_anonymous_args = 0
  99              	.LVL10:
 100 0000 10B5     		push	{r4, lr}
 101              	.LCFI1:
 102              		.cfi_def_cfa_offset 8
 103              		.cfi_offset 4, -8
 104              		.cfi_offset 14, -4
 105              	.LBB5:
 106              		.loc 1 49 0
 107 0002 2023     		movs	r3, #32
 108              	.LVL11:
 109              	.LBE5:
 110              		.loc 1 47 0
 111 0004 0446     		mov	r4, r0
 112              	.LBB6:
ARM GAS  /tmp/ccW0hHij.s 			page 3


 113              		.loc 1 49 0
 114              	@ 49 "../../ChibiOS/os/various/evtimer.c" 1
 115 0006 83F31188 		msr     BASEPRI, r3
 116              	@ 0 "" 2
 117              	.LVL12:
 118              		.thumb
 119              	.LBE6:
 120 000a FFF7FEFF 		bl	dbg_check_lock
 121              	.LVL13:
 122              		.loc 1 51 0
 123 000e E368     		ldr	r3, [r4, #12]
 124 0010 2BB1     		cbz	r3, .L5
 125              	.L3:
 126              		.loc 1 54 0
 127 0012 FFF7FEFF 		bl	dbg_check_unlock
 128              	.LVL14:
 129              	.LBB7:
 130 0016 0023     		movs	r3, #0
 131              	.LVL15:
 132              	@ 54 "../../ChibiOS/os/various/evtimer.c" 1
 133 0018 83F31188 		msr     BASEPRI, r3
 134              	@ 0 "" 2
 135              	.LVL16:
 136              		.thumb
 137 001c 10BD     		pop	{r4, pc}
 138              	.LVL17:
 139              	.L5:
 140              	.LBE7:
 141              		.loc 1 52 0
 142 001e 2046     		mov	r0, r4
 143 0020 024A     		ldr	r2, .L6
 144 0022 A169     		ldr	r1, [r4, #24]
 145 0024 2346     		mov	r3, r4
 146 0026 FFF7FEFF 		bl	chVTSetI
 147              	.LVL18:
 148 002a F2E7     		b	.L3
 149              	.L7:
 150              		.align	2
 151              	.L6:
 152 002c 00000000 		.word	tmrcb
 153              		.cfi_endproc
 154              	.LFE8:
 155              		.size	evtStart, .-evtStart
 156              		.section	.text.evtStop,"ax",%progbits
 157              		.align	2
 158              		.p2align 4,,15
 159              		.global	evtStop
 160              		.thumb
 161              		.thumb_func
 162              		.type	evtStop, %function
 163              	evtStop:
 164              	.LFB9:
 165              		.loc 1 63 0
 166              		.cfi_startproc
 167              		@ args = 0, pretend = 0, frame = 0
 168              		@ frame_needed = 0, uses_anonymous_args = 0
 169              	.LVL19:
ARM GAS  /tmp/ccW0hHij.s 			page 4


 170 0000 10B5     		push	{r4, lr}
 171              	.LCFI2:
 172              		.cfi_def_cfa_offset 8
 173              		.cfi_offset 4, -8
 174              		.cfi_offset 14, -4
 175              	.LBB8:
 176              		.loc 1 65 0
 177 0002 2023     		movs	r3, #32
 178              	.LVL20:
 179              	.LBE8:
 180              		.loc 1 63 0
 181 0004 0446     		mov	r4, r0
 182              	.LBB9:
 183              		.loc 1 65 0
 184              	@ 65 "../../ChibiOS/os/various/evtimer.c" 1
 185 0006 83F31188 		msr     BASEPRI, r3
 186              	@ 0 "" 2
 187              	.LVL21:
 188              		.thumb
 189              	.LBE9:
 190 000a FFF7FEFF 		bl	dbg_check_lock
 191              	.LVL22:
 192 000e E368     		ldr	r3, [r4, #12]
 193 0010 13B1     		cbz	r3, .L9
 194              		.loc 1 65 0 is_stmt 0 discriminator 1
 195 0012 2046     		mov	r0, r4
 196 0014 FFF7FEFF 		bl	chVTResetI
 197              	.LVL23:
 198              	.L9:
 199              		.loc 1 65 0 discriminator 2
 200 0018 FFF7FEFF 		bl	dbg_check_unlock
 201              	.LVL24:
 202              	.LBB10:
 203 001c 0023     		movs	r3, #0
 204              	.LVL25:
 205              	@ 65 "../../ChibiOS/os/various/evtimer.c" 1
 206 001e 83F31188 		msr     BASEPRI, r3
 207              	@ 0 "" 2
 208              	.LVL26:
 209              		.thumb
 210 0022 10BD     		pop	{r4, pc}
 211              	.LBE10:
 212              		.cfi_endproc
 213              	.LFE9:
 214              		.size	evtStop, .-evtStop
 215 0024 AFF30080 		.text
 215      AFF30080 
 215      AFF30080 
 216              	.Letext0:
 217              		.file 2 "/home/david/toolchains/arm-psas-eabi/bin/../lib/gcc/arm-psas-eabi/4.7.2/../../../../arm-p
 218              		.file 3 "../../ChibiOS/os/ports/GCC/ARMCMx/chtypes.h"
 219              		.file 4 "../../ChibiOS/os/kernel/include/chlists.h"
 220              		.file 5 "../../ChibiOS/os/kernel/include/chthreads.h"
 221              		.file 6 "../../ChibiOS/os/ports/GCC/ARMCMx/chcore_v7m.h"
 222              		.file 7 "../../ChibiOS/os/kernel/include/chvt.h"
 223              		.file 8 "../../ChibiOS/os/kernel/include/chmtx.h"
 224              		.file 9 "../../ChibiOS/os/kernel/include/chevents.h"
ARM GAS  /tmp/ccW0hHij.s 			page 5


 225              		.file 10 "../../ChibiOS/os/various/evtimer.h"
 226              		.file 11 "../../ChibiOS/os/kernel/include/chdebug.h"