ARM GAS  /tmp/cckljTkQ.s 			page 1


   1              		.syntax unified
   2              		.cpu cortex-m4
   3              		.eabi_attribute 27, 3
   4              		.eabi_attribute 28, 1
   5              		.fpu fpv4-sp-d16
   6              		.eabi_attribute 20, 1
   7              		.eabi_attribute 21, 1
   8              		.eabi_attribute 23, 3
   9              		.eabi_attribute 24, 1
  10              		.eabi_attribute 25, 1
  11              		.eabi_attribute 26, 1
  12              		.eabi_attribute 30, 2
  13              		.eabi_attribute 34, 1
  14              		.eabi_attribute 18, 4
  15              		.thumb
  16              		.file	"ext_lld_isr.c"
  17              		.text
  18              	.Ltext0:
  19              		.cfi_sections	.debug_frame
  20              		.section	.text.Vector58,"ax",%progbits
  21              		.align	2
  22              		.p2align 4,,15
  23              		.global	Vector58
  24              		.thumb
  25              		.thumb_func
  26              		.type	Vector58, %function
  27              	Vector58:
  28              	.LFB118:
  29              		.file 1 "../../ChibiOS/os/hal/platforms/STM32F4xx/ext_lld_isr.c"
  30              		.loc 1 61 0
  31              		.cfi_startproc
  32              		@ args = 0, pretend = 0, frame = 0
  33              		@ frame_needed = 0, uses_anonymous_args = 0
  34 0000 10B5     		push	{r4, lr}
  35              	.LCFI0:
  36              		.cfi_def_cfa_offset 8
  37              		.cfi_offset 4, -8
  38              		.cfi_offset 14, -4
  39              		.loc 1 63 0
  40 0002 FFF7FEFF 		bl	dbg_check_enter_isr
  41              	.LVL0:
  42              		.loc 1 66 0
  43 0006 40F20000 		movw	r0, #:lower16:EXTD1
  44 000a C0F20000 		movt	r0, #:upper16:EXTD1
  45              		.loc 1 65 0
  46 000e 4FF47053 		mov	r3, #15360
  47              		.loc 1 66 0
  48 0012 4268     		ldr	r2, [r0, #4]
  49              		.loc 1 65 0
  50 0014 C4F20103 		movt	r3, 16385
  51 0018 0124     		movs	r4, #1
  52              		.loc 1 66 0
  53 001a 0021     		movs	r1, #0
  54              		.loc 1 65 0
  55 001c 5C61     		str	r4, [r3, #20]
  56              		.loc 1 66 0
  57 001e 5368     		ldr	r3, [r2, #4]
ARM GAS  /tmp/cckljTkQ.s 			page 2


  58 0020 9847     		blx	r3
  59              	.LVL1:
  60              		.loc 1 68 0
  61 0022 FFF7FEFF 		bl	dbg_check_leave_isr
  62              	.LVL2:
  63              		.loc 1 69 0
  64 0026 BDE81040 		pop	{r4, lr}
  65              		.loc 1 68 0
  66 002a FFF7FEBF 		b	_port_irq_epilogue
  67              	.LVL3:
  68              		.cfi_endproc
  69              	.LFE118:
  70              		.size	Vector58, .-Vector58
  71 002e 00BF     		.section	.text.Vector5C,"ax",%progbits
  72              		.align	2
  73              		.p2align 4,,15
  74              		.global	Vector5C
  75              		.thumb
  76              		.thumb_func
  77              		.type	Vector5C, %function
  78              	Vector5C:
  79              	.LFB119:
  80              		.loc 1 76 0
  81              		.cfi_startproc
  82              		@ args = 0, pretend = 0, frame = 0
  83              		@ frame_needed = 0, uses_anonymous_args = 0
  84 0000 10B5     		push	{r4, lr}
  85              	.LCFI1:
  86              		.cfi_def_cfa_offset 8
  87              		.cfi_offset 4, -8
  88              		.cfi_offset 14, -4
  89              		.loc 1 78 0
  90 0002 FFF7FEFF 		bl	dbg_check_enter_isr
  91              	.LVL4:
  92              		.loc 1 81 0
  93 0006 40F20000 		movw	r0, #:lower16:EXTD1
  94 000a C0F20000 		movt	r0, #:upper16:EXTD1
  95              		.loc 1 80 0
  96 000e 4FF47053 		mov	r3, #15360
  97              		.loc 1 81 0
  98 0012 4268     		ldr	r2, [r0, #4]
  99              		.loc 1 80 0
 100 0014 C4F20103 		movt	r3, 16385
 101 0018 0224     		movs	r4, #2
 102              		.loc 1 81 0
 103 001a 0121     		movs	r1, #1
 104              		.loc 1 80 0
 105 001c 5C61     		str	r4, [r3, #20]
 106              		.loc 1 81 0
 107 001e D368     		ldr	r3, [r2, #12]
 108 0020 9847     		blx	r3
 109              	.LVL5:
 110              		.loc 1 83 0
 111 0022 FFF7FEFF 		bl	dbg_check_leave_isr
 112              	.LVL6:
 113              		.loc 1 84 0
 114 0026 BDE81040 		pop	{r4, lr}
ARM GAS  /tmp/cckljTkQ.s 			page 3


 115              		.loc 1 83 0
 116 002a FFF7FEBF 		b	_port_irq_epilogue
 117              	.LVL7:
 118              		.cfi_endproc
 119              	.LFE119:
 120              		.size	Vector5C, .-Vector5C
 121 002e 00BF     		.section	.text.Vector60,"ax",%progbits
 122              		.align	2
 123              		.p2align 4,,15
 124              		.global	Vector60
 125              		.thumb
 126              		.thumb_func
 127              		.type	Vector60, %function
 128              	Vector60:
 129              	.LFB120:
 130              		.loc 1 91 0
 131              		.cfi_startproc
 132              		@ args = 0, pretend = 0, frame = 0
 133              		@ frame_needed = 0, uses_anonymous_args = 0
 134 0000 10B5     		push	{r4, lr}
 135              	.LCFI2:
 136              		.cfi_def_cfa_offset 8
 137              		.cfi_offset 4, -8
 138              		.cfi_offset 14, -4
 139              		.loc 1 93 0
 140 0002 FFF7FEFF 		bl	dbg_check_enter_isr
 141              	.LVL8:
 142              		.loc 1 96 0
 143 0006 40F20000 		movw	r0, #:lower16:EXTD1
 144 000a C0F20000 		movt	r0, #:upper16:EXTD1
 145              		.loc 1 95 0
 146 000e 4FF47053 		mov	r3, #15360
 147              		.loc 1 96 0
 148 0012 4268     		ldr	r2, [r0, #4]
 149              		.loc 1 95 0
 150 0014 C4F20103 		movt	r3, 16385
 151 0018 0424     		movs	r4, #4
 152              		.loc 1 96 0
 153 001a 0221     		movs	r1, #2
 154              		.loc 1 95 0
 155 001c 5C61     		str	r4, [r3, #20]
 156              		.loc 1 96 0
 157 001e 5369     		ldr	r3, [r2, #20]
 158 0020 9847     		blx	r3
 159              	.LVL9:
 160              		.loc 1 98 0
 161 0022 FFF7FEFF 		bl	dbg_check_leave_isr
 162              	.LVL10:
 163              		.loc 1 99 0
 164 0026 BDE81040 		pop	{r4, lr}
 165              		.loc 1 98 0
 166 002a FFF7FEBF 		b	_port_irq_epilogue
 167              	.LVL11:
 168              		.cfi_endproc
 169              	.LFE120:
 170              		.size	Vector60, .-Vector60
 171 002e 00BF     		.section	.text.Vector64,"ax",%progbits
ARM GAS  /tmp/cckljTkQ.s 			page 4


 172              		.align	2
 173              		.p2align 4,,15
 174              		.global	Vector64
 175              		.thumb
 176              		.thumb_func
 177              		.type	Vector64, %function
 178              	Vector64:
 179              	.LFB121:
 180              		.loc 1 106 0
 181              		.cfi_startproc
 182              		@ args = 0, pretend = 0, frame = 0
 183              		@ frame_needed = 0, uses_anonymous_args = 0
 184 0000 10B5     		push	{r4, lr}
 185              	.LCFI3:
 186              		.cfi_def_cfa_offset 8
 187              		.cfi_offset 4, -8
 188              		.cfi_offset 14, -4
 189              		.loc 1 108 0
 190 0002 FFF7FEFF 		bl	dbg_check_enter_isr
 191              	.LVL12:
 192              		.loc 1 111 0
 193 0006 40F20000 		movw	r0, #:lower16:EXTD1
 194 000a C0F20000 		movt	r0, #:upper16:EXTD1
 195              		.loc 1 110 0
 196 000e 4FF47053 		mov	r3, #15360
 197              		.loc 1 111 0
 198 0012 4268     		ldr	r2, [r0, #4]
 199              		.loc 1 110 0
 200 0014 C4F20103 		movt	r3, 16385
 201 0018 0824     		movs	r4, #8
 202              		.loc 1 111 0
 203 001a 0321     		movs	r1, #3
 204              		.loc 1 110 0
 205 001c 5C61     		str	r4, [r3, #20]
 206              		.loc 1 111 0
 207 001e D369     		ldr	r3, [r2, #28]
 208 0020 9847     		blx	r3
 209              	.LVL13:
 210              		.loc 1 113 0
 211 0022 FFF7FEFF 		bl	dbg_check_leave_isr
 212              	.LVL14:
 213              		.loc 1 114 0
 214 0026 BDE81040 		pop	{r4, lr}
 215              		.loc 1 113 0
 216 002a FFF7FEBF 		b	_port_irq_epilogue
 217              	.LVL15:
 218              		.cfi_endproc
 219              	.LFE121:
 220              		.size	Vector64, .-Vector64
 221 002e 00BF     		.section	.text.Vector68,"ax",%progbits
 222              		.align	2
 223              		.p2align 4,,15
 224              		.global	Vector68
 225              		.thumb
 226              		.thumb_func
 227              		.type	Vector68, %function
 228              	Vector68:
ARM GAS  /tmp/cckljTkQ.s 			page 5


 229              	.LFB122:
 230              		.loc 1 121 0
 231              		.cfi_startproc
 232              		@ args = 0, pretend = 0, frame = 0
 233              		@ frame_needed = 0, uses_anonymous_args = 0
 234 0000 10B5     		push	{r4, lr}
 235              	.LCFI4:
 236              		.cfi_def_cfa_offset 8
 237              		.cfi_offset 4, -8
 238              		.cfi_offset 14, -4
 239              		.loc 1 123 0
 240 0002 FFF7FEFF 		bl	dbg_check_enter_isr
 241              	.LVL16:
 242              		.loc 1 126 0
 243 0006 40F20000 		movw	r0, #:lower16:EXTD1
 244 000a C0F20000 		movt	r0, #:upper16:EXTD1
 245              		.loc 1 125 0
 246 000e 4FF47053 		mov	r3, #15360
 247              		.loc 1 126 0
 248 0012 4268     		ldr	r2, [r0, #4]
 249              		.loc 1 125 0
 250 0014 C4F20103 		movt	r3, 16385
 251 0018 1024     		movs	r4, #16
 252              		.loc 1 126 0
 253 001a 0421     		movs	r1, #4
 254              		.loc 1 125 0
 255 001c 5C61     		str	r4, [r3, #20]
 256              		.loc 1 126 0
 257 001e 536A     		ldr	r3, [r2, #36]
 258 0020 9847     		blx	r3
 259              	.LVL17:
 260              		.loc 1 128 0
 261 0022 FFF7FEFF 		bl	dbg_check_leave_isr
 262              	.LVL18:
 263              		.loc 1 129 0
 264 0026 BDE81040 		pop	{r4, lr}
 265              		.loc 1 128 0
 266 002a FFF7FEBF 		b	_port_irq_epilogue
 267              	.LVL19:
 268              		.cfi_endproc
 269              	.LFE122:
 270              		.size	Vector68, .-Vector68
 271 002e 00BF     		.section	.text.Vector9C,"ax",%progbits
 272              		.align	2
 273              		.p2align 4,,15
 274              		.global	Vector9C
 275              		.thumb
 276              		.thumb_func
 277              		.type	Vector9C, %function
 278              	Vector9C:
 279              	.LFB123:
 280              		.loc 1 136 0
 281              		.cfi_startproc
 282              		@ args = 0, pretend = 0, frame = 0
 283              		@ frame_needed = 0, uses_anonymous_args = 0
 284 0000 10B5     		push	{r4, lr}
 285              	.LCFI5:
ARM GAS  /tmp/cckljTkQ.s 			page 6


 286              		.cfi_def_cfa_offset 8
 287              		.cfi_offset 4, -8
 288              		.cfi_offset 14, -4
 289              		.loc 1 139 0
 290 0002 FFF7FEFF 		bl	dbg_check_enter_isr
 291              	.LVL20:
 292              		.loc 1 141 0
 293 0006 4FF47053 		mov	r3, #15360
 294 000a C4F20103 		movt	r3, 16385
 295 000e 5C69     		ldr	r4, [r3, #20]
 296 0010 04F47872 		and	r2, r4, #992
 297              	.LVL21:
 298              		.loc 1 142 0
 299 0014 5A61     		str	r2, [r3, #20]
 300              		.loc 1 143 0
 301 0016 A306     		lsls	r3, r4, #26
 302 0018 24D4     		bmi	.L28
 303              	.LVL22:
 304              	.L7:
 305              		.loc 1 145 0
 306 001a 6006     		lsls	r0, r4, #25
 307 001c 1CD4     		bmi	.L29
 308              	.L8:
 309              		.loc 1 147 0
 310 001e 2106     		lsls	r1, r4, #24
 311 0020 14D4     		bmi	.L30
 312              	.L9:
 313              		.loc 1 149 0
 314 0022 E205     		lsls	r2, r4, #23
 315 0024 0CD4     		bmi	.L31
 316              	.L10:
 317              		.loc 1 151 0
 318 0026 A305     		lsls	r3, r4, #22
 319 0028 04D5     		bpl	.L11
 320              		.loc 1 152 0
 321 002a 1148     		ldr	r0, .L32
 322 002c 4368     		ldr	r3, [r0, #4]
 323 002e 0921     		movs	r1, #9
 324 0030 DB6C     		ldr	r3, [r3, #76]
 325 0032 9847     		blx	r3
 326              	.LVL23:
 327              	.L11:
 328              		.loc 1 154 0
 329 0034 FFF7FEFF 		bl	dbg_check_leave_isr
 330              	.LVL24:
 331              		.loc 1 155 0
 332 0038 BDE81040 		pop	{r4, lr}
 333              		.loc 1 154 0
 334 003c FFF7FEBF 		b	_port_irq_epilogue
 335              	.LVL25:
 336              	.L31:
 337              		.loc 1 150 0
 338 0040 0B48     		ldr	r0, .L32
 339 0042 4368     		ldr	r3, [r0, #4]
 340 0044 0821     		movs	r1, #8
 341 0046 5B6C     		ldr	r3, [r3, #68]
 342 0048 9847     		blx	r3
ARM GAS  /tmp/cckljTkQ.s 			page 7


 343              	.LVL26:
 344 004a ECE7     		b	.L10
 345              	.L30:
 346              		.loc 1 148 0
 347 004c 0848     		ldr	r0, .L32
 348 004e 4368     		ldr	r3, [r0, #4]
 349 0050 0721     		movs	r1, #7
 350 0052 DB6B     		ldr	r3, [r3, #60]
 351 0054 9847     		blx	r3
 352              	.LVL27:
 353 0056 E4E7     		b	.L9
 354              	.L29:
 355              		.loc 1 146 0
 356 0058 0548     		ldr	r0, .L32
 357 005a 4368     		ldr	r3, [r0, #4]
 358 005c 0621     		movs	r1, #6
 359 005e 5B6B     		ldr	r3, [r3, #52]
 360 0060 9847     		blx	r3
 361              	.LVL28:
 362 0062 DCE7     		b	.L8
 363              	.LVL29:
 364              	.L28:
 365              		.loc 1 144 0
 366 0064 0248     		ldr	r0, .L32
 367 0066 4368     		ldr	r3, [r0, #4]
 368 0068 0521     		movs	r1, #5
 369 006a DB6A     		ldr	r3, [r3, #44]
 370 006c 9847     		blx	r3
 371              	.LVL30:
 372 006e D4E7     		b	.L7
 373              	.L33:
 374              		.align	2
 375              	.L32:
 376 0070 00000000 		.word	EXTD1
 377              		.cfi_endproc
 378              	.LFE123:
 379              		.size	Vector9C, .-Vector9C
 380 0074 AFF30080 		.section	.text.VectorE0,"ax",%progbits
 380      AFF30080 
 380      AFF30080 
 381              		.align	2
 382              		.p2align 4,,15
 383              		.global	VectorE0
 384              		.thumb
 385              		.thumb_func
 386              		.type	VectorE0, %function
 387              	VectorE0:
 388              	.LFB124:
 389              		.loc 1 162 0
 390              		.cfi_startproc
 391              		@ args = 0, pretend = 0, frame = 0
 392              		@ frame_needed = 0, uses_anonymous_args = 0
 393 0000 10B5     		push	{r4, lr}
 394              	.LCFI6:
 395              		.cfi_def_cfa_offset 8
 396              		.cfi_offset 4, -8
 397              		.cfi_offset 14, -4
ARM GAS  /tmp/cckljTkQ.s 			page 8


 398              		.loc 1 165 0
 399 0002 FFF7FEFF 		bl	dbg_check_enter_isr
 400              	.LVL31:
 401              		.loc 1 167 0
 402 0006 4FF47053 		mov	r3, #15360
 403 000a C4F20103 		movt	r3, 16385
 404 000e 5C69     		ldr	r4, [r3, #20]
 405 0010 04F47C42 		and	r2, r4, #64512
 406              	.LVL32:
 407              		.loc 1 170 0
 408 0014 6105     		lsls	r1, r4, #21
 409              		.loc 1 169 0
 410 0016 5A61     		str	r2, [r3, #20]
 411              		.loc 1 170 0
 412 0018 2CD4     		bmi	.L59
 413              	.LVL33:
 414              	.L35:
 415              		.loc 1 172 0
 416 001a 2205     		lsls	r2, r4, #20
 417 001c 24D4     		bmi	.L60
 418              	.L36:
 419              		.loc 1 174 0
 420 001e E304     		lsls	r3, r4, #19
 421 0020 1CD4     		bmi	.L61
 422              	.L37:
 423              		.loc 1 176 0
 424 0022 A004     		lsls	r0, r4, #18
 425 0024 14D4     		bmi	.L62
 426              	.L38:
 427              		.loc 1 178 0
 428 0026 6104     		lsls	r1, r4, #17
 429 0028 0CD4     		bmi	.L63
 430              	.L39:
 431              		.loc 1 180 0
 432 002a 2204     		lsls	r2, r4, #16
 433 002c 04D5     		bpl	.L40
 434              		.loc 1 181 0
 435 002e 1448     		ldr	r0, .L64
 436 0030 4368     		ldr	r3, [r0, #4]
 437 0032 0F21     		movs	r1, #15
 438 0034 DB6F     		ldr	r3, [r3, #124]
 439 0036 9847     		blx	r3
 440              	.LVL34:
 441              	.L40:
 442              		.loc 1 183 0
 443 0038 FFF7FEFF 		bl	dbg_check_leave_isr
 444              	.LVL35:
 445              		.loc 1 184 0
 446 003c BDE81040 		pop	{r4, lr}
 447              		.loc 1 183 0
 448 0040 FFF7FEBF 		b	_port_irq_epilogue
 449              	.LVL36:
 450              	.L63:
 451              		.loc 1 179 0
 452 0044 0E48     		ldr	r0, .L64
 453 0046 4368     		ldr	r3, [r0, #4]
 454 0048 0E21     		movs	r1, #14
ARM GAS  /tmp/cckljTkQ.s 			page 9


 455 004a 5B6F     		ldr	r3, [r3, #116]
 456 004c 9847     		blx	r3
 457              	.LVL37:
 458 004e ECE7     		b	.L39
 459              	.L62:
 460              		.loc 1 177 0
 461 0050 0B48     		ldr	r0, .L64
 462 0052 4368     		ldr	r3, [r0, #4]
 463 0054 0D21     		movs	r1, #13
 464 0056 DB6E     		ldr	r3, [r3, #108]
 465 0058 9847     		blx	r3
 466              	.LVL38:
 467 005a E4E7     		b	.L38
 468              	.L61:
 469              		.loc 1 175 0
 470 005c 0848     		ldr	r0, .L64
 471 005e 4368     		ldr	r3, [r0, #4]
 472 0060 0C21     		movs	r1, #12
 473 0062 5B6E     		ldr	r3, [r3, #100]
 474 0064 9847     		blx	r3
 475              	.LVL39:
 476 0066 DCE7     		b	.L37
 477              	.L60:
 478              		.loc 1 173 0
 479 0068 0548     		ldr	r0, .L64
 480 006a 4368     		ldr	r3, [r0, #4]
 481 006c 0B21     		movs	r1, #11
 482 006e DB6D     		ldr	r3, [r3, #92]
 483 0070 9847     		blx	r3
 484              	.LVL40:
 485 0072 D4E7     		b	.L36
 486              	.LVL41:
 487              	.L59:
 488              		.loc 1 171 0
 489 0074 0248     		ldr	r0, .L64
 490 0076 4368     		ldr	r3, [r0, #4]
 491 0078 0A21     		movs	r1, #10
 492 007a 5B6D     		ldr	r3, [r3, #84]
 493 007c 9847     		blx	r3
 494              	.LVL42:
 495 007e CCE7     		b	.L35
 496              	.L65:
 497              		.align	2
 498              	.L64:
 499 0080 00000000 		.word	EXTD1
 500              		.cfi_endproc
 501              	.LFE124:
 502              		.size	VectorE0, .-VectorE0
 503 0084 AFF30080 		.section	.text.Vector44,"ax",%progbits
 503      AFF30080 
 503      AFF30080 
 504              		.align	2
 505              		.p2align 4,,15
 506              		.global	Vector44
 507              		.thumb
 508              		.thumb_func
 509              		.type	Vector44, %function
ARM GAS  /tmp/cckljTkQ.s 			page 10


 510              	Vector44:
 511              	.LFB125:
 512              		.loc 1 191 0
 513              		.cfi_startproc
 514              		@ args = 0, pretend = 0, frame = 0
 515              		@ frame_needed = 0, uses_anonymous_args = 0
 516 0000 10B5     		push	{r4, lr}
 517              	.LCFI7:
 518              		.cfi_def_cfa_offset 8
 519              		.cfi_offset 4, -8
 520              		.cfi_offset 14, -4
 521              		.loc 1 193 0
 522 0002 FFF7FEFF 		bl	dbg_check_enter_isr
 523              	.LVL43:
 524              		.loc 1 196 0
 525 0006 40F20000 		movw	r0, #:lower16:EXTD1
 526 000a C0F20000 		movt	r0, #:upper16:EXTD1
 527              		.loc 1 195 0
 528 000e 4FF47053 		mov	r3, #15360
 529              		.loc 1 196 0
 530 0012 4268     		ldr	r2, [r0, #4]
 531              		.loc 1 195 0
 532 0014 C4F20103 		movt	r3, 16385
 533 0018 4FF48034 		mov	r4, #65536
 534              		.loc 1 196 0
 535 001c 1021     		movs	r1, #16
 536              		.loc 1 195 0
 537 001e 5C61     		str	r4, [r3, #20]
 538              		.loc 1 196 0
 539 0020 D2F88430 		ldr	r3, [r2, #132]
 540 0024 9847     		blx	r3
 541              	.LVL44:
 542              		.loc 1 198 0
 543 0026 FFF7FEFF 		bl	dbg_check_leave_isr
 544              	.LVL45:
 545              		.loc 1 199 0
 546 002a BDE81040 		pop	{r4, lr}
 547              		.loc 1 198 0
 548 002e FFF7FEBF 		b	_port_irq_epilogue
 549              	.LVL46:
 550              		.cfi_endproc
 551              	.LFE125:
 552              		.size	Vector44, .-Vector44
 553 0032 00BFAFF3 		.section	.text.RTCAlarm_IRQHandler,"ax",%progbits
 553      0080AFF3 
 553      0080AFF3 
 553      0080
 554              		.align	2
 555              		.p2align 4,,15
 556              		.global	RTCAlarm_IRQHandler
 557              		.thumb
 558              		.thumb_func
 559              		.type	RTCAlarm_IRQHandler, %function
 560              	RTCAlarm_IRQHandler:
 561              	.LFB126:
 562              		.loc 1 206 0
 563              		.cfi_startproc
ARM GAS  /tmp/cckljTkQ.s 			page 11


 564              		@ args = 0, pretend = 0, frame = 0
 565              		@ frame_needed = 0, uses_anonymous_args = 0
 566 0000 10B5     		push	{r4, lr}
 567              	.LCFI8:
 568              		.cfi_def_cfa_offset 8
 569              		.cfi_offset 4, -8
 570              		.cfi_offset 14, -4
 571              		.loc 1 208 0
 572 0002 FFF7FEFF 		bl	dbg_check_enter_isr
 573              	.LVL47:
 574              		.loc 1 211 0
 575 0006 40F20000 		movw	r0, #:lower16:EXTD1
 576 000a C0F20000 		movt	r0, #:upper16:EXTD1
 577              		.loc 1 210 0
 578 000e 4FF47053 		mov	r3, #15360
 579              		.loc 1 211 0
 580 0012 4268     		ldr	r2, [r0, #4]
 581              		.loc 1 210 0
 582 0014 C4F20103 		movt	r3, 16385
 583 0018 4FF40034 		mov	r4, #131072
 584              		.loc 1 211 0
 585 001c 1121     		movs	r1, #17
 586              		.loc 1 210 0
 587 001e 5C61     		str	r4, [r3, #20]
 588              		.loc 1 211 0
 589 0020 D2F88C30 		ldr	r3, [r2, #140]
 590 0024 9847     		blx	r3
 591              	.LVL48:
 592              		.loc 1 213 0
 593 0026 FFF7FEFF 		bl	dbg_check_leave_isr
 594              	.LVL49:
 595              		.loc 1 214 0
 596 002a BDE81040 		pop	{r4, lr}
 597              		.loc 1 213 0
 598 002e FFF7FEBF 		b	_port_irq_epilogue
 599              	.LVL50:
 600              		.cfi_endproc
 601              	.LFE126:
 602              		.size	RTCAlarm_IRQHandler, .-RTCAlarm_IRQHandler
 603 0032 00BFAFF3 		.section	.text.VectorE8,"ax",%progbits
 603      0080AFF3 
 603      0080AFF3 
 603      0080
 604              		.align	2
 605              		.p2align 4,,15
 606              		.global	VectorE8
 607              		.thumb
 608              		.thumb_func
 609              		.type	VectorE8, %function
 610              	VectorE8:
 611              	.LFB127:
 612              		.loc 1 221 0
 613              		.cfi_startproc
 614              		@ args = 0, pretend = 0, frame = 0
 615              		@ frame_needed = 0, uses_anonymous_args = 0
 616 0000 10B5     		push	{r4, lr}
 617              	.LCFI9:
ARM GAS  /tmp/cckljTkQ.s 			page 12


 618              		.cfi_def_cfa_offset 8
 619              		.cfi_offset 4, -8
 620              		.cfi_offset 14, -4
 621              		.loc 1 223 0
 622 0002 FFF7FEFF 		bl	dbg_check_enter_isr
 623              	.LVL51:
 624              		.loc 1 226 0
 625 0006 40F20000 		movw	r0, #:lower16:EXTD1
 626 000a C0F20000 		movt	r0, #:upper16:EXTD1
 627              		.loc 1 225 0
 628 000e 4FF47053 		mov	r3, #15360
 629              		.loc 1 226 0
 630 0012 4268     		ldr	r2, [r0, #4]
 631              		.loc 1 225 0
 632 0014 C4F20103 		movt	r3, 16385
 633 0018 4FF48024 		mov	r4, #262144
 634              		.loc 1 226 0
 635 001c 1221     		movs	r1, #18
 636              		.loc 1 225 0
 637 001e 5C61     		str	r4, [r3, #20]
 638              		.loc 1 226 0
 639 0020 D2F89430 		ldr	r3, [r2, #148]
 640 0024 9847     		blx	r3
 641              	.LVL52:
 642              		.loc 1 228 0
 643 0026 FFF7FEFF 		bl	dbg_check_leave_isr
 644              	.LVL53:
 645              		.loc 1 229 0
 646 002a BDE81040 		pop	{r4, lr}
 647              		.loc 1 228 0
 648 002e FFF7FEBF 		b	_port_irq_epilogue
 649              	.LVL54:
 650              		.cfi_endproc
 651              	.LFE127:
 652              		.size	VectorE8, .-VectorE8
 653 0032 00BFAFF3 		.section	.text.Vector138,"ax",%progbits
 653      0080AFF3 
 653      0080AFF3 
 653      0080
 654              		.align	2
 655              		.p2align 4,,15
 656              		.global	Vector138
 657              		.thumb
 658              		.thumb_func
 659              		.type	Vector138, %function
 660              	Vector138:
 661              	.LFB128:
 662              		.loc 1 236 0
 663              		.cfi_startproc
 664              		@ args = 0, pretend = 0, frame = 0
 665              		@ frame_needed = 0, uses_anonymous_args = 0
 666 0000 10B5     		push	{r4, lr}
 667              	.LCFI10:
 668              		.cfi_def_cfa_offset 8
 669              		.cfi_offset 4, -8
 670              		.cfi_offset 14, -4
 671              		.loc 1 238 0
ARM GAS  /tmp/cckljTkQ.s 			page 13


 672 0002 FFF7FEFF 		bl	dbg_check_enter_isr
 673              	.LVL55:
 674              		.loc 1 241 0
 675 0006 40F20000 		movw	r0, #:lower16:EXTD1
 676 000a C0F20000 		movt	r0, #:upper16:EXTD1
 677              		.loc 1 240 0
 678 000e 4FF47053 		mov	r3, #15360
 679              		.loc 1 241 0
 680 0012 4268     		ldr	r2, [r0, #4]
 681              		.loc 1 240 0
 682 0014 C4F20103 		movt	r3, 16385
 683 0018 4FF40024 		mov	r4, #524288
 684              		.loc 1 241 0
 685 001c 1321     		movs	r1, #19
 686              		.loc 1 240 0
 687 001e 5C61     		str	r4, [r3, #20]
 688              		.loc 1 241 0
 689 0020 D2F89C30 		ldr	r3, [r2, #156]
 690 0024 9847     		blx	r3
 691              	.LVL56:
 692              		.loc 1 243 0
 693 0026 FFF7FEFF 		bl	dbg_check_leave_isr
 694              	.LVL57:
 695              		.loc 1 244 0
 696 002a BDE81040 		pop	{r4, lr}
 697              		.loc 1 243 0
 698 002e FFF7FEBF 		b	_port_irq_epilogue
 699              	.LVL58:
 700              		.cfi_endproc
 701              	.LFE128:
 702              		.size	Vector138, .-Vector138
 703 0032 00BFAFF3 		.section	.text.Vector170,"ax",%progbits
 703      0080AFF3 
 703      0080AFF3 
 703      0080
 704              		.align	2
 705              		.p2align 4,,15
 706              		.global	Vector170
 707              		.thumb
 708              		.thumb_func
 709              		.type	Vector170, %function
 710              	Vector170:
 711              	.LFB129:
 712              		.loc 1 251 0
 713              		.cfi_startproc
 714              		@ args = 0, pretend = 0, frame = 0
 715              		@ frame_needed = 0, uses_anonymous_args = 0
 716 0000 10B5     		push	{r4, lr}
 717              	.LCFI11:
 718              		.cfi_def_cfa_offset 8
 719              		.cfi_offset 4, -8
 720              		.cfi_offset 14, -4
 721              		.loc 1 253 0
 722 0002 FFF7FEFF 		bl	dbg_check_enter_isr
 723              	.LVL59:
 724              		.loc 1 256 0
 725 0006 40F20000 		movw	r0, #:lower16:EXTD1
ARM GAS  /tmp/cckljTkQ.s 			page 14


 726 000a C0F20000 		movt	r0, #:upper16:EXTD1
 727              		.loc 1 255 0
 728 000e 4FF47053 		mov	r3, #15360
 729              		.loc 1 256 0
 730 0012 4268     		ldr	r2, [r0, #4]
 731              		.loc 1 255 0
 732 0014 C4F20103 		movt	r3, 16385
 733 0018 4FF48014 		mov	r4, #1048576
 734              		.loc 1 256 0
 735 001c 1421     		movs	r1, #20
 736              		.loc 1 255 0
 737 001e 5C61     		str	r4, [r3, #20]
 738              		.loc 1 256 0
 739 0020 D2F8A430 		ldr	r3, [r2, #164]
 740 0024 9847     		blx	r3
 741              	.LVL60:
 742              		.loc 1 258 0
 743 0026 FFF7FEFF 		bl	dbg_check_leave_isr
 744              	.LVL61:
 745              		.loc 1 259 0
 746 002a BDE81040 		pop	{r4, lr}
 747              		.loc 1 258 0
 748 002e FFF7FEBF 		b	_port_irq_epilogue
 749              	.LVL62:
 750              		.cfi_endproc
 751              	.LFE129:
 752              		.size	Vector170, .-Vector170
 753 0032 00BFAFF3 		.section	.text.TAMPER_STAMP_IRQHandler,"ax",%progbits
 753      0080AFF3 
 753      0080AFF3 
 753      0080
 754              		.align	2
 755              		.p2align 4,,15
 756              		.global	TAMPER_STAMP_IRQHandler
 757              		.thumb
 758              		.thumb_func
 759              		.type	TAMPER_STAMP_IRQHandler, %function
 760              	TAMPER_STAMP_IRQHandler:
 761              	.LFB130:
 762              		.loc 1 266 0
 763              		.cfi_startproc
 764              		@ args = 0, pretend = 0, frame = 0
 765              		@ frame_needed = 0, uses_anonymous_args = 0
 766 0000 10B5     		push	{r4, lr}
 767              	.LCFI12:
 768              		.cfi_def_cfa_offset 8
 769              		.cfi_offset 4, -8
 770              		.cfi_offset 14, -4
 771              		.loc 1 268 0
 772 0002 FFF7FEFF 		bl	dbg_check_enter_isr
 773              	.LVL63:
 774              		.loc 1 271 0
 775 0006 40F20000 		movw	r0, #:lower16:EXTD1
 776 000a C0F20000 		movt	r0, #:upper16:EXTD1
 777              		.loc 1 270 0
 778 000e 4FF47053 		mov	r3, #15360
 779              		.loc 1 271 0
ARM GAS  /tmp/cckljTkQ.s 			page 15


 780 0012 4268     		ldr	r2, [r0, #4]
 781              		.loc 1 270 0
 782 0014 C4F20103 		movt	r3, 16385
 783 0018 4FF40014 		mov	r4, #2097152
 784              		.loc 1 271 0
 785 001c 1521     		movs	r1, #21
 786              		.loc 1 270 0
 787 001e 5C61     		str	r4, [r3, #20]
 788              		.loc 1 271 0
 789 0020 D2F8AC30 		ldr	r3, [r2, #172]
 790 0024 9847     		blx	r3
 791              	.LVL64:
 792              		.loc 1 273 0
 793 0026 FFF7FEFF 		bl	dbg_check_leave_isr
 794              	.LVL65:
 795              		.loc 1 274 0
 796 002a BDE81040 		pop	{r4, lr}
 797              		.loc 1 273 0
 798 002e FFF7FEBF 		b	_port_irq_epilogue
 799              	.LVL66:
 800              		.cfi_endproc
 801              	.LFE130:
 802              		.size	TAMPER_STAMP_IRQHandler, .-TAMPER_STAMP_IRQHandler
 803 0032 00BFAFF3 		.section	.text.Vector4C,"ax",%progbits
 803      0080AFF3 
 803      0080AFF3 
 803      0080
 804              		.align	2
 805              		.p2align 4,,15
 806              		.global	Vector4C
 807              		.thumb
 808              		.thumb_func
 809              		.type	Vector4C, %function
 810              	Vector4C:
 811              	.LFB131:
 812              		.loc 1 281 0
 813              		.cfi_startproc
 814              		@ args = 0, pretend = 0, frame = 0
 815              		@ frame_needed = 0, uses_anonymous_args = 0
 816 0000 10B5     		push	{r4, lr}
 817              	.LCFI13:
 818              		.cfi_def_cfa_offset 8
 819              		.cfi_offset 4, -8
 820              		.cfi_offset 14, -4
 821              		.loc 1 283 0
 822 0002 FFF7FEFF 		bl	dbg_check_enter_isr
 823              	.LVL67:
 824              		.loc 1 286 0
 825 0006 40F20000 		movw	r0, #:lower16:EXTD1
 826 000a C0F20000 		movt	r0, #:upper16:EXTD1
 827              		.loc 1 285 0
 828 000e 4FF47053 		mov	r3, #15360
 829              		.loc 1 286 0
 830 0012 4268     		ldr	r2, [r0, #4]
 831              		.loc 1 285 0
 832 0014 C4F20103 		movt	r3, 16385
 833 0018 4FF48004 		mov	r4, #4194304
ARM GAS  /tmp/cckljTkQ.s 			page 16


 834              		.loc 1 286 0
 835 001c 1621     		movs	r1, #22
 836              		.loc 1 285 0
 837 001e 5C61     		str	r4, [r3, #20]
 838              		.loc 1 286 0
 839 0020 D2F8B430 		ldr	r3, [r2, #180]
 840 0024 9847     		blx	r3
 841              	.LVL68:
 842              		.loc 1 288 0
 843 0026 FFF7FEFF 		bl	dbg_check_leave_isr
 844              	.LVL69:
 845              		.loc 1 289 0
 846 002a BDE81040 		pop	{r4, lr}
 847              		.loc 1 288 0
 848 002e FFF7FEBF 		b	_port_irq_epilogue
 849              	.LVL70:
 850              		.cfi_endproc
 851              	.LFE131:
 852              		.size	Vector4C, .-Vector4C
 853 0032 00BFAFF3 		.section	.text.ext_lld_exti_irq_enable,"ax",%progbits
 853      0080AFF3 
 853      0080AFF3 
 853      0080
 854              		.align	2
 855              		.p2align 4,,15
 856              		.global	ext_lld_exti_irq_enable
 857              		.thumb
 858              		.thumb_func
 859              		.type	ext_lld_exti_irq_enable, %function
 860              	ext_lld_exti_irq_enable:
 861              	.LFB132:
 862              		.loc 1 300 0
 863              		.cfi_startproc
 864              		@ args = 0, pretend = 0, frame = 0
 865              		@ frame_needed = 0, uses_anonymous_args = 0
 866 0000 08B5     		push	{r3, lr}
 867              	.LCFI14:
 868              		.cfi_def_cfa_offset 8
 869              		.cfi_offset 3, -8
 870              		.cfi_offset 14, -4
 871              		.loc 1 302 0
 872 0002 0620     		movs	r0, #6
 873 0004 6021     		movs	r1, #96
 874 0006 FFF7FEFF 		bl	nvicEnableVector
 875              	.LVL71:
 876              		.loc 1 304 0
 877 000a 0720     		movs	r0, #7
 878 000c 6021     		movs	r1, #96
 879 000e FFF7FEFF 		bl	nvicEnableVector
 880              	.LVL72:
 881              		.loc 1 306 0
 882 0012 0820     		movs	r0, #8
 883 0014 6021     		movs	r1, #96
 884 0016 FFF7FEFF 		bl	nvicEnableVector
 885              	.LVL73:
 886              		.loc 1 308 0
 887 001a 0920     		movs	r0, #9
ARM GAS  /tmp/cckljTkQ.s 			page 17


 888 001c 6021     		movs	r1, #96
 889 001e FFF7FEFF 		bl	nvicEnableVector
 890              	.LVL74:
 891              		.loc 1 310 0
 892 0022 0A20     		movs	r0, #10
 893 0024 6021     		movs	r1, #96
 894 0026 FFF7FEFF 		bl	nvicEnableVector
 895              	.LVL75:
 896              		.loc 1 312 0
 897 002a 1720     		movs	r0, #23
 898 002c 6021     		movs	r1, #96
 899 002e FFF7FEFF 		bl	nvicEnableVector
 900              	.LVL76:
 901              		.loc 1 314 0
 902 0032 2820     		movs	r0, #40
 903 0034 6021     		movs	r1, #96
 904 0036 FFF7FEFF 		bl	nvicEnableVector
 905              	.LVL77:
 906              		.loc 1 316 0
 907 003a 0120     		movs	r0, #1
 908 003c 6021     		movs	r1, #96
 909 003e FFF7FEFF 		bl	nvicEnableVector
 910              	.LVL78:
 911              		.loc 1 318 0
 912 0042 2920     		movs	r0, #41
 913 0044 F021     		movs	r1, #240
 914 0046 FFF7FEFF 		bl	nvicEnableVector
 915              	.LVL79:
 916              		.loc 1 320 0
 917 004a 2A20     		movs	r0, #42
 918 004c 6021     		movs	r1, #96
 919 004e FFF7FEFF 		bl	nvicEnableVector
 920              	.LVL80:
 921              		.loc 1 322 0
 922 0052 6021     		movs	r1, #96
 923 0054 3E20     		movs	r0, #62
 924 0056 FFF7FEFF 		bl	nvicEnableVector
 925              	.LVL81:
 926              		.loc 1 324 0
 927 005a 4C20     		movs	r0, #76
 928 005c 6021     		movs	r1, #96
 929 005e FFF7FEFF 		bl	nvicEnableVector
 930              	.LVL82:
 931              		.loc 1 326 0
 932 0062 0220     		movs	r0, #2
 933 0064 F021     		movs	r1, #240
 934 0066 FFF7FEFF 		bl	nvicEnableVector
 935              	.LVL83:
 936              		.loc 1 328 0
 937 006a 0320     		movs	r0, #3
 938 006c F021     		movs	r1, #240
 939              		.loc 1 330 0
 940 006e BDE80840 		pop	{r3, lr}
 941              		.loc 1 328 0
 942 0072 FFF7FEBF 		b	nvicEnableVector
 943              	.LVL84:
 944              		.cfi_endproc
ARM GAS  /tmp/cckljTkQ.s 			page 18


 945              	.LFE132:
 946              		.size	ext_lld_exti_irq_enable, .-ext_lld_exti_irq_enable
 947 0076 00BFAFF3 		.section	.text.ext_lld_exti_irq_disable,"ax",%progbits
 947      0080AFF3 
 947      0080
 948              		.align	2
 949              		.p2align 4,,15
 950              		.global	ext_lld_exti_irq_disable
 951              		.thumb
 952              		.thumb_func
 953              		.type	ext_lld_exti_irq_disable, %function
 954              	ext_lld_exti_irq_disable:
 955              	.LFB133:
 956              		.loc 1 337 0
 957              		.cfi_startproc
 958              		@ args = 0, pretend = 0, frame = 0
 959              		@ frame_needed = 0, uses_anonymous_args = 0
 960 0000 08B5     		push	{r3, lr}
 961              	.LCFI15:
 962              		.cfi_def_cfa_offset 8
 963              		.cfi_offset 3, -8
 964              		.cfi_offset 14, -4
 965              		.loc 1 339 0
 966 0002 0620     		movs	r0, #6
 967 0004 FFF7FEFF 		bl	nvicDisableVector
 968              	.LVL85:
 969              		.loc 1 340 0
 970 0008 0720     		movs	r0, #7
 971 000a FFF7FEFF 		bl	nvicDisableVector
 972              	.LVL86:
 973              		.loc 1 341 0
 974 000e 0820     		movs	r0, #8
 975 0010 FFF7FEFF 		bl	nvicDisableVector
 976              	.LVL87:
 977              		.loc 1 342 0
 978 0014 0920     		movs	r0, #9
 979 0016 FFF7FEFF 		bl	nvicDisableVector
 980              	.LVL88:
 981              		.loc 1 343 0
 982 001a 0A20     		movs	r0, #10
 983 001c FFF7FEFF 		bl	nvicDisableVector
 984              	.LVL89:
 985              		.loc 1 344 0
 986 0020 1720     		movs	r0, #23
 987 0022 FFF7FEFF 		bl	nvicDisableVector
 988              	.LVL90:
 989              		.loc 1 345 0
 990 0026 2820     		movs	r0, #40
 991 0028 FFF7FEFF 		bl	nvicDisableVector
 992              	.LVL91:
 993              		.loc 1 346 0
 994 002c 0120     		movs	r0, #1
 995 002e FFF7FEFF 		bl	nvicDisableVector
 996              	.LVL92:
 997              		.loc 1 347 0
 998 0032 2920     		movs	r0, #41
 999 0034 FFF7FEFF 		bl	nvicDisableVector
ARM GAS  /tmp/cckljTkQ.s 			page 19


 1000              	.LVL93:
 1001              		.loc 1 348 0
 1002 0038 2A20     		movs	r0, #42
 1003 003a FFF7FEFF 		bl	nvicDisableVector
 1004              	.LVL94:
 1005              		.loc 1 349 0
 1006 003e 3E20     		movs	r0, #62
 1007 0040 FFF7FEFF 		bl	nvicDisableVector
 1008              	.LVL95:
 1009              		.loc 1 350 0
 1010 0044 4C20     		movs	r0, #76
 1011 0046 FFF7FEFF 		bl	nvicDisableVector
 1012              	.LVL96:
 1013              		.loc 1 351 0
 1014 004a 0220     		movs	r0, #2
 1015 004c FFF7FEFF 		bl	nvicDisableVector
 1016              	.LVL97:
 1017              		.loc 1 352 0
 1018 0050 0320     		movs	r0, #3
 1019              		.loc 1 353 0
 1020 0052 BDE80840 		pop	{r3, lr}
 1021              		.loc 1 352 0
 1022 0056 FFF7FEBF 		b	nvicDisableVector
 1023              	.LVL98:
 1024              		.cfi_endproc
 1025              	.LFE133:
 1026              		.size	ext_lld_exti_irq_disable, .-ext_lld_exti_irq_disable
 1027 005a 00BFAFF3 		.text
 1027      0080
 1028              	.Letext0:
 1029              		.file 2 "/home/david/toolchains/psas/x-tools/stm32f407/arm-psas-eabi/bin/../lib/gcc/arm-psas-eabi/
 1030              		.file 3 "../../ChibiOS/os/hal/platforms/STM32F4xx/stm32f4xx.h"
 1031              		.file 4 "../../ChibiOS/os/hal/include/ext.h"
 1032              		.file 5 "../../ChibiOS/os/hal/platforms/STM32/ext_lld.h"
 1033              		.file 6 "../../ChibiOS/os/ports/common/ARMCMx/CMSIS/include/core_cm4.h"
 1034              		.file 7 "../../ChibiOS/os/kernel/include/chdebug.h"
 1035              		.file 8 "../../ChibiOS/os/ports/GCC/ARMCMx/chcore_v7m.h"
 1036              		.file 9 "../../ChibiOS/os/ports/common/ARMCMx/nvic.h"