ARM GAS  /tmp/cckljTkQ.s 			page 1


   1              		.syntax unified
   2              		.cpu cortex-m4
   3              		.eabi_attribute 27, 3
   4              		.eabi_attribute 28, 1
   5              		.fpu fpv4-sp-d16
   6              		.eabi_attribute 20, 1
   7              		.eabi_attribute 21, 1
   8              		.eabi_attribute 23, 3
   9              		.eabi_attribute 24, 1
  10              		.eabi_attribute 25, 1
  11              		.eabi_attribute 26, 1
  12              		.eabi_attribute 30, 2
  13              		.eabi_attribute 34, 1
  14              		.eabi_attribute 18, 4
  15              		.thumb
  16              		.file	"ext_lld_isr.c"
  17              		.text
  18              	.Ltext0:
  19              		.cfi_sections	.debug_frame
  20              		.section	.text.Vector58,"ax",%progbits
  21              		.align	2
  22              		.p2align 4,,15
  23              		.global	Vector58
  24              		.thumb
  25              		.thumb_func
  26              		.type	Vector58, %function
  27              	Vector58:
  28              	.LFB118:
  29              		.file 1 "../../ChibiOS/os/hal/platforms/STM32F4xx/ext_lld_isr.c"
  30              		.loc 1 61 0
  31              		.cfi_startproc
  32              		@ args = 0, pretend = 0, frame = 0
  33              		@ frame_needed = 0, uses_anonymous_args = 0
  34 0000 10B5     		push	{r4, lr}
  35              	.LCFI0:
  36              		.cfi_def_cfa_offset 8
  37              		.cfi_offset 4, -8
  38              		.cfi_offset 14, -4
  39              		.loc 1 63 0
  40 0002 FFF7FEFF 		bl	dbg_check_enter_isr
  41              	.LVL0:
  42              		.loc 1 66 0
  43 0006 40F20000 		movw	r0, #:lower16:EXTD1
  44 000a C0F20000 		movt	r0, #:upper16:EXTD1
  45              		.loc 1 65 0
  46 000e 4FF47053 		mov	r3, #15360
  47              		.loc 1 66 0
  48 0012 4268     		ldr	r2, [r0, #4]
  49              		.loc 1 65 0
  50 0014 C4F20103 		movt	r3, 16385
  51 0018 0124     		movs	r4, #1
  52              		.loc 1 66 0
  53 001a 0021     		movs	r1, #0
  54              		.loc 1 65 0
  55 001c 5C61     		str	r4, [r3, #20]
  56              		.loc 1 66 0
  57 001e 5368     		ldr	r3, [r2, #4]
ARM GAS  /tmp/cckljTkQ.s 			page 2


  58 0020 9847     		blx	r3
  59              	.LVL1:
  60              		.loc 1 68 0
  61 0022 FFF7FEFF 		bl	dbg_check_leave_isr
  62              	.LVL2:
  63              		.loc 1 69 0
  64 0026 BDE81040 		pop	{r4, lr}
  65              		.loc 1 68 0
  66 002a FFF7FEBF 		b	_port_irq_epilogue
  67              	.LVL3:
  68              		.cfi_endproc
  69              	.LFE118:
  70              		.size	Vector58, .-Vector58
  71 002e 00BF     		.section	.text.Vector5C,"ax",%progbits
  72              		.align	2
  73              		.p2align 4,,15
  74              		.global	Vector5C
  75              		.thumb
  76              		.thumb_func
  77              		.type	Vector5C, %function
  78              	Vector5C:
  79              	.LFB119:
  80              		.loc 1 76 0
  81              		.cfi_startproc
  82              		@ args = 0, pretend = 0, frame = 0
  83              		@ frame_needed = 0, uses_anonymous_args = 0
  84 0000 10B5     		push	{r4, lr}
  85              	.LCFI1:
  86              		.cfi_def_cfa_offset 8
  87              		.cfi_offset 4, -8
  88              		.cfi_offset 14, -4
  89              		.loc 1 78 0
  90 0002 FFF7FEFF 		bl	dbg_check_enter_isr
  91              	.LVL4:
  92              		.loc 1 81 0
  93 0006 40F20000 		movw	r0, #:lower16:EXTD1
  94 000a C0F20000 		movt	r0, #:upper16:EXTD1
  95              		.loc 1 80 0
  96 000e 4FF47053 		mov	r3, #15360
  97              		.loc 1 81 0
  98 0012 4268     		ldr	r2, [r0, #4]
  99              		.loc 1 80 0
 100 0014 C4F20103 		movt	r3, 16385
 101 0018 0224     		movs	r4, #2
 102              		.loc 1 81 0
 103 001a 0121     		movs	r1, #1
 104              		.loc 1 80 0
 105 001c 5C61     		str	r4, [r3, #20]
 106              		.loc 1 81 0
 107 001e D368     		ldr	r3, [r2, #12]
 108 0020 9847     		blx	r3
 109              	.LVL5:
 110              		.loc 1 83 0
 111 0022 FFF7FEFF 		bl	dbg_check_leave_isr
 112              	.LVL6:
 113              		.loc 1 84 0
 114 0026 BDE81040 		pop	{r4, lr}
ARM GAS  /tmp/cckljTkQ.s 			page 3


 115              		.loc 1 83 0
 116 002a FFF7FEBF 		b	_port_irq_epilogue
 117              	.LVL7:
 118              		.cfi_endproc
 119              	.LFE119:
 120              		.size	Vector5C, .-Vector5C
 121 002e 00BF     		.section	.text.Vector60,"ax",%progbits
 122              		.align	2
 123              		.p2align 4,,15
 124              		.global	Vector60
 125              		.thumb
 126              		.thumb_func
 127              		.type	Vector60, %function
 128              	Vector60:
 129              	.LFB120:
 130              		.loc 1 91 0
 131              		.cfi_startproc
 132              		@ args = 0, pretend = 0, frame = 0
 133              		@ frame_needed = 0, uses_anonymous_args = 0
 134 0000 10B5     		push	{r4, lr}
 135              	.LCFI2:
 136              		.cfi_def_cfa_offset 8
 137              		.cfi_offset 4, -8
 138              		.cfi_offset 14, -4
 139              		.loc 1 93 0
 140 0002 FFF7FEFF 		bl	dbg_check_enter_isr
 141              	.LVL8:
 142              		.loc 1 96 0
 143 0006 40F20000 		movw	r0, #:lower16:EXTD1
 144 000a C0F20000 		movt	r0, #:upper16:EXTD1
 145              		.loc 1 95 0
 146 000e 4FF47053 		mov	r3, #15360
 147              		.loc 1 96 0
 148 0012 4268     		ldr	r2, [r0, #4]
 149              		.loc 1 95 0
 150 0014 C4F20103 		movt	r3, 16385
 151 0018 0424     		movs	r4, #4
 152              		.loc 1 96 0
 153 001a 0221     		movs	r1, #2
 154              		.loc 1 95 0
 155 001c 5C61     		str	r4, [r3, #20]
 156              		.loc 1 96 0
 157 001e 5369     		ldr	r3, [r2, #20]
 158 0020 9847     		blx	r3
 159              	.LVL9:
 160              		.loc 1 98 0
 161 0022 FFF7FEFF 		bl	dbg_check_leave_isr
 162              	.LVL10:
 163              		.loc 1 99 0
 164 0026 BDE81040 		pop	{r4, lr}
 165              		.loc 1 98 0
 166 002a FFF7FEBF 		b	_port_irq_epilogue
 167              	.LVL11:
 168              		.cfi_endproc
 169              	.LFE120:
 170              		.size	Vector60, .-Vector60
 171 002e 00BF     		.section	.text.Vector64,"ax",%progbits
ARM GAS  /tmp/cckljTkQ.s 			page 4


 172              		.align	2
 173              		.p2align 4,,15
 174              		.global	Vector64
 175              		.thumb
 176              		.thumb_func
 177              		.type	Vector64, %function
 178              	Vector64:
 179              	.LFB121:
 180              		.loc 1 106 0
 181              		.cfi_startproc
 182              		@ args = 0, pretend = 0, frame = 0
 183              		@ frame_needed = 0, uses_anonymous_args = 0
 184 0000 10B5     		push	{r4, lr}
 185              	.LCFI3:
 186              		.cfi_def_cfa_offset 8
 187              		.cfi_offset 4, -8
 188              		.cfi_offset 14, -4
 189              		.loc 1 108 0
 190 0002 FFF7FEFF 		bl	dbg_check_enter_isr
 191              	.LVL12:
 192              		.loc 1 111 0
 193 0006 40F20000 		movw	r0, #:lower16:EXTD1
 194 000a C0F20000 		movt	r0, #:upper16:EXTD1
 195              		.loc 1 110 0
 196 000e 4FF47053 		mov	r3, #15360
 197              		.loc 1 111 0
 198 0012 4268     		ldr	r2, [r0, #4]
 199              		.loc 1 110 0
 200 0014 C4F20103 		movt	r3, 16385
 201 0018 0824     		movs	r4, #8
 202              		.loc 1 111 0
 203 001a 0321     		movs	r1, #3
 204              		.loc 1 110 0
 205 001c 5C61     		str	r4, [r3, #20]
 206              		.loc 1 111 0
 207 001e D369     		ldr	r3, [r2, #28]
 208 0020 9847     		blx	r3
 209              	.LVL13:
 210              		.loc 1 113 0
 211 0022 FFF7FEFF 		bl	dbg_check_leave_isr
 212              	.LVL14:
 213              		.loc 1 114 0
 214 0026 BDE81040 		pop	{r4, lr}
 215              		.loc 1 113 0
 216 002a FFF7FEBF 		b	_port_irq_epilogue
 217              	.LVL15:
 218              		.cfi_endproc
 219              	.LFE121:
 220              		.size	Vector64, .-Vector64
 221 002e 00BF     		.section	.text.Vector68,"ax",%progbits
 222              		.align	2
 223              		.p2align 4,,15
 224              		.global	Vector68
 225              		.thumb
 226              		.thumb_func
 227              		.type	Vector68, %function
 228              	Vector68:
ARM GAS  /tmp/cckljTkQ.s 			page 5


 229              	.LFB122:
 230              		.loc 1 121 0
 231              		.cfi_startproc
 232              		@ args = 0, pretend = 0, frame = 0
 233              		@ frame_needed = 0, uses_anonymous_args = 0
 234 0000 10B5     		push	{r4, lr}
 235              	.LCFI4:
 236              		.cfi_def_cfa_offset 8
 237              		.cfi_offset 4, -8
 238              		.cfi_offset 14, -4
 239              		.loc 1 123 0
 240 0002 FFF7FEFF 		bl	dbg_check_enter_isr
 241              	.LVL16:
 242              		.loc 1 126 0
 243 0006 40F20000 		movw	r0, #:lower16:EXTD1
 244 000a C0F20000 		movt	r0, #:upper16:EXTD1
 245              		.loc 1 125 0
 246 000e 4FF47053 		mov	r3, #15360
 247              		.loc 1 126 0
 248 0012 4268     		ldr	r2, [r0, #4]
 249              		.loc 1 125 0
 250 0014 C4F20103 		movt	r3, 16385
 251 0018 1024     		movs	r4, #16
 252              		.loc 1 126 0
 253 001a 0421     		movs	r1, #4
 254              		.loc 1 125 0
 255 001c 5C61     		str	r4, [r3, #20]
 256              		.loc 1 126 0
 257 001e 536A     		ldr	r3, [r2, #36]
 258 0020 9847     		blx	r3
 259              	.LVL17:
 260              		.loc 1 128 0
 261 0022 FFF7FEFF 		bl	dbg_check_leave_isr
 262              	.LVL18:
 263              		.loc 1 129 0
 264 0026 BDE81040 		pop	{r4, lr}
 265              		.loc 1 128 0
 266 002a FFF7FEBF 		b	_port_irq_epilogue
 267              	.LVL19:
 268              		.cfi_endproc
 269              	.LFE122:
 270              		.size	Vector68, .-Vector68
 271 002e 00BF     		.section	.text.Vector9C,"ax",%progbits
 272              		.align	2
 273              		.p2align 4,,15
 274              		.global	Vector9C
 275              		.thumb
 276              		.thumb_func
 277              		.type	Vector9C, %function
 278              	Vector9C:
 279              	.LFB123:
 280              		.loc 1 136 0
 281              		.cfi_startproc
 282              		@ args = 0, pretend = 0, frame = 0
 283              		@ frame_needed = 0, uses_anonymous_args = 0
 284 0000 10B5     		push	{r4, lr}
 285              	.LCFI5:
ARM GAS  /tmp/cckljTkQ.s 			page 6


 286              		.cfi_def_cfa_offset 8
 287              		.cfi_offset 4, -8
 288              		.cfi_offset 14, -4
 289              		.loc 1 139 0
 290 0002 FFF7FEFF 		bl	dbg_check_enter_isr
 291              	.LVL20:
 292              		.loc 1 141 0
 293 0006 4FF47053 		mov	r3, #15360
 294 000a C4F20103 		movt	r3, 16385
 295 000e 5C69     		ldr	r4, [r3, #20]
 296 0010 04F47872 		and	r2, r4, #992
 297              	.LVL21:
 298              		.loc 1 142 0
 299 0014 5A61     		str	r2, [r3, #20]
 300              		.loc 1 143 0
 301 0016 A306     		lsls	r3, r4, #26
 302 0018 24D4     		bmi	.L28
 303              	.LVL22:
 304              	.L7:
 305              		.loc 1 145 0
 306 001a 6006     		lsls	r0, r4, #25
 307 001c 1CD4     		bmi	.L29
 308              	.L8:
 309              		.loc 1 147 0
 310 001e 2106     		lsls	r1, r4, #24
 311 0020 14D4     		bmi	.L30
 312              	.L9:
 313              		.loc 1 149 0
 314 0022 E205     		lsls	r2, r4, #23
 315 0024 0CD4     		bmi	.L31
 316              	.L10:
 317              		.loc 1 151 0
 318 0026 A305     		lsls	r3, r4, #22
 319 0028 04D5     		bpl	.L11
 320              		.loc 1 152 0
 321 002a 1148     		ldr	r0, .L32
 322 002c 4368     		ldr	r3, [r0, #4]
 323 002e 0921     		movs	r1, #9
 324 0030 DB6C     		ldr	r3, [r3, #76]
 325 0032 9847     		blx	r3
 326              	.LVL23:
 327              	.L11:
 328              		.loc 1 154 0
 329 0034 FFF7FEFF 		bl	dbg_check_leave_isr
 330              	.LVL24:
 331              		.loc 1 155 0
 332 0038 BDE81040 		pop	{r4, lr}
 333              		.loc 1 154 0
 334 003c FFF7FEBF 		b	_port_irq_epilogue
 335              	.LVL25:
 336              	.L31:
 337              		.loc 1 150 0
 338 0040 0B48     		ldr	r0, .L32
 339 0042 4368     		ldr	r3, [r0, #4]
 340 0044 0821     		movs	r1, #8
 341 0046 5B6C     		ldr	r3, [r3, #68]
 342 0048 9847     		blx	r3
ARM GAS  /tmp/cckljTkQ.s 			page 7


 343              	.LVL26:
 344 004a ECE7     		b	.L10
 345              	.L30:
 346              		.loc 1 148 0
 347 004c 0848     		ldr	r0, .L32
 348 004e 4368     		ldr	r3, [r0, #4]
 349 0050 0721     		movs	r1, #7
 350 0052 DB6B     		ldr	r3, [r3, #60]
 351 0054 9847     		blx	r3
 352              	.LVL27:
 353 0056 E4E7     		b	.L9
 354              	.L29:
 355              		.loc 1 146 0
 356 0058 0548     		ldr	r0, .L32
 357 005a 4368     		ldr	r3, [r0, #4]
 358 005c 0621     		movs	r1, #6
 359 005e 5B6B     		ldr	r3, [r3, #52]
 360 0060 9847     		blx	r3
 361              	.LVL28:
 362 0062 DCE7     		b	.L8
 363              	.LVL29:
 364              	.L28:
 365              		.loc 1 144 0
 366 0064 0248     		ldr	r0, .L32
 367 0066 4368     		ldr	r3, [r0, #4]
 368 0068 0521     		movs	r1, #5
 369 006a DB6A     		ldr	r3, [r3, #44]
 370 006c 9847     		blx	r3
 371              	.LVL30:
 372 006e D4E7     		b	.L7
 373              	.L33:
 374              		.align	2
 375              	.L32:
 376 0070 00000000 		.word	EXTD1
 377              		.cfi_endproc
 378              	.LFE123:
 379              		.size	Vector9C, .-Vector9C
 380 0074 AFF30080 		.section	.text.VectorE0,"ax",%progbits
 380      AFF30080 
 380      AFF30080 
 381              		.align	2
 382              		.p2align 4,,15
 383              		.global	VectorE0
 384              		.thumb
 385              		.thumb_func
 386              		.type	VectorE0, %function
 387              	VectorE0:
 388              	.LFB124:
 389              		.loc 1 162 0
 390              		.cfi_startproc
 391              		@ args = 0, pretend = 0, frame = 0
 392              		@ frame_needed = 0, uses_anonymous_args = 0
 393 0000 10B5     		push	{r4, lr}
 394              	.LCFI6:
 395              		.cfi_def_cfa_offset 8
 396              		.cfi_offset 4, -8
 397              		.cfi_offset 14, -4
ARM GAS  /tmp/cckljTkQ.s 			page 8


 398              		.loc 1 165 0
 399 0002 FFF7FEFF 		bl	dbg_check_enter_isr
 400              	.LVL31:
 401              		.loc 1 167 0
 402 0006 4FF47053 		mov	r3, #15360
 403 000a C4F20103 		movt	r3, 16385
 404 000e 5C69     		ldr	r4, [r3, #20]
 405 0010 04F47C42 		and	r2, r4, #64512
 406              	.LVL32:
 407              		.loc 1 170 0
 408 0014 6105     		lsls	r1, r4, #21
 409              		.loc 1 169 0
 410 0016 5A61     		str	r2, [r3, #20]
 411              		.loc 1 170 0
 412 0018 2CD4     		bmi	.L59
 413              	.LVL33:
 414              	.L35:
 415              		.loc 1 172 0
 416 001a 2205     		lsls	r2, r4, #20
 417 001c 24D4     		bmi	.L60
 418              	.L36:
 419              		.loc 1 174 0
 420 001e E304     		lsls	r3, r4, #19
 421 0020 1CD4     		bmi	.L61
 422              	.L37:
 423              		.loc 1 176 0
 424 0022 A004     		lsls	r0, r4, #18
 425 0024 14D4     		bmi	.L62
 426              	.L38:
 427              		.loc 1 178 0
 428 0026 6104     		lsls	r1, r4, #17
 429 0028 0CD4     		bmi	.L63
 430              	.L39:
 431              		.loc 1 180 0
 432 002a 2204     		lsls	r2, r4, #16
 433 002c 04D5     		bpl	.L40
 434              		.loc 1 181 0
 435 002e 1448     		ldr	r0, .L64
 436 0030 4368     		ldr	r3, [r0, #4]
 437 0032 0F21     		movs	r1, #15
 438 0034 DB6F     		ldr	r3, [r3, #124]
 439 0036 9847     		blx	r3
 440              	.LVL34:
 441              	.L40:
 442              		.loc 1 183 0
 443 0038 FFF7FEFF 		bl	dbg_check_leave_isr
 444              	.LVL35:
 445              		.loc 1 184 0
 446 003c BDE81040 		pop	{r4, lr}
 447              		.loc 1 183 0
 448 0040 FFF7FEBF 		b	_port_irq_epilogue
 449              	.LVL36:
 450              	.L63:
 451              		.loc 1 179 0
 452 0044 0E48     		ldr	r0, .L64
 453 0046 4368     		ldr	r3, [r0, #4]
 454 0048 0E21     		movs	r1, #14
ARM GAS  /tmp/cckljTkQ.s 			page 9


 455 004a 5B6F     		ldr	r3, [r3, #116]
 456 004c 9847     		blx	r3
 457              	.LVL37:
 458 004e ECE7     		b	.L39
 459              	.L62:
 460              		.loc 1 177 0
 461 0050 0B48     		ldr	r0, .L64
 462 0052 4368     		ldr	r3, [r0, #4]
 463 0054 0D21     		movs	r1, #13
 464 0056 DB6E     		ldr	r3, [r3, #108]
 465 0058 9847     		blx	r3
 466              	.LVL38:
 467 005a E4E7     		b	.L38
 468              	.L61:
 469              		.loc 1 175 0
 470 005c 0848     		ldr	r0, .L64
 471 005e 4368     		ldr	r3, [r0, #4]
 472 0060 0C21     		movs	r1, #12
 473 0062 5B6E     		ldr	r3, [r3, #100]
 474 0064 9847     		blx	r3
 475              	.LVL39:
 476 0066 DCE7     		b	.L37
 477              	.L60:
 478              		.loc 1 173 0
 479 0068 0548     		ldr	r0, .L64
 480 006a 4368     		ldr	r3, [r0, #4]
 481 006c 0B21     		movs	r1, #11
 482 006e DB6D     		ldr	r3, [r3, #92]
 483 0070 9847     		blx	r3
 484              	.LVL40:
 485 0072 D4E7     		b	.L36
 486              	.LVL41:
 487              	.L59:
 488              		.loc 1 171 0
 489 0074 0248     		ldr	r0, .L64
 490 0076 4368     		ldr	r3, [r0, #4]
 491 0078 0A21     		movs	r1, #10
 492 007a 5B6D     		ldr	r3, [r3, #84]
 493 007c 9847     		blx	r3
 494              	.LVL42:
 495 007e CCE7     		b	.L35
 496              	.L65:
 497              		.align	2
 498              	.L64:
 499 0080 00000000 		.word	EXTD1
 500              		.cfi_endproc
 501              	.LFE124:
 502              		.size	VectorE0, .-VectorE0
 503 0084 AFF30080 		.section	.text.Vector44,"ax",%progbits
 503      AFF30080 
 503      AFF30080 
 504              		.align	2
 505              		.p2align 4,,15
 506              		.global	Vector44
 507              		.thumb
 508              		.thumb_func
 509              		.type	Vector44, %function
ARM GAS  /tmp/cckljTkQ.s 			page 10


 510              	Vector44:
 511              	.LFB125:
 512              		.loc 1 191 0
 513              		.cfi_startproc
 514              		@ args = 0, pretend = 0, frame = 0
 515              		@ frame_needed = 0, uses_anonymous_args = 0
 516 0000 10B5     		push	{r4, lr}
 517              	.LCFI7:
 518              		.cfi_def_cfa_offset 8
 519              		.cfi_offset 4, -8
 520              		.cfi_offset 14, -4
 521              		.loc 1 193 0
 522 0002 FFF7FEFF 		bl	dbg_check_enter_isr
 523              	.LVL43:
 524              		.loc 1 196 0
 525 0006 40F20000 		movw	r0, #:lower16:EXTD1
 526 000a C0F20000 		movt	r0, #:upper16:EXTD1
 527              		.loc 1 195 0
 528 000e 4FF47053 		mov	r3, #15360
 529              		.loc 1 196 0
 530 0012 4268     		ldr	r2, [r0, #4]
 531              		.loc 1 195 0
 532 0014 C4F20103 		movt	r3, 16385
 533 0018 4FF48034 		mov	r4, #65536
 534              		.loc 1 196 0
 535 001c 1021     		movs	r1, #16
 536              		.loc 1 195 0
 537 001e 5C61     		str	r4, [r3, #20]
 538              		.loc 1 196 0
 539 0020 D2F88430 		ldr	r3, [r2, #132]
 540 0024 9847     		blx	r3
 541              	.LVL44:
 542              		.loc 1 198 0
 543 0026 FFF7FEFF 		bl	dbg_check_leave_isr
 544              	.LVL45:
 545              		.loc 1 199 0
 546 002a BDE81040 		pop	{r4, lr}
 547              		.loc 1 198 0
 548 002e FFF7FEBF 		b	_port_irq_epilogue
 549              	.LVL46:
 550              		.cfi_endproc
 551              	.LFE125:
 552              		.size	Vector44, .-Vector44
 553 0032 00BFAFF3 		.section	.text.RTCAlarm_IRQHandler,"ax",%progbits
 553      0080AFF3 
 553      0080AFF3 
 553      0080
 554              		.align	2
 555              		.p2align 4,,15
 556              		.global	RTCAlarm_IRQHandler
 557              		.thumb
 558              		.thumb_func
 559              		.type	RTCAlarm_IRQHandler, %function
 560              	RTCAlarm_IRQHandler:
 561              	.LFB126:
 562              		.loc 1 206 0
 563              		.cfi_startproc
ARM GAS  /tmp/cckljTkQ.s 			page 11


 564              		@ args = 0, pretend = 0, frame = 0
 565              		@ frame_needed = 0, uses_anonymous_args = 0
 566 0000 10B5     		push	{r4, lr}
 567              	.LCFI8:
 568              		.cfi_def_cfa_offset 8
 569              		.cfi_offset 4, -8
 570              		.cfi_offset 14, -4
 571              		.loc 1 208 0
 572 0002 FFF7FEFF 		bl	dbg_check_enter_isr
 573              	.LVL47:
 574              		.loc 1 211 0
 575 0006 40F20000 		movw	r0, #:lower16:EXTD1
 576 000a C0F20000 		movt	r0, #:upper16:EXTD1
 577              		.loc 1 210 0
 578 000e 4FF47053 		mov	r3, #15360
 579              		.loc 1 211 0
 580 0012 4268     		ldr	r2, [r0, #4]
 581              		.loc 1 210 0
 582 0014 C4F20103 		movt	r3, 16385
 583 0018 4FF40034 		mov	r4, #131072
 584              		.loc 1 211 0
 585 001c 1121     		movs	r1, #17
 586              		.loc 1 210 0
 587 001e 5C61     		str	r4, [r3, #20]
 588              		.loc 1 211 0
 589 0020 D2F88C30 		ldr	r3, [r2, #140]
 590 0024 9847     		blx	r3
 591              	.LVL48:
 592              		.loc 1 213 0
 593 0026 FFF7FEFF 		bl	dbg_check_leave_isr
 594              	.LVL49:
 595              		.loc 1 214 0
 596 002a BDE81040 		pop	{r4, lr}
 597              		.loc 1 213 0
 598 002e FFF7FEBF 		b	_port_irq_epilogue
 599              	.LVL50:
 600              		.cfi_endproc
 601              	.LFE126:
 602              		.size	RTCAlarm_IRQHandler, .-RTCAlarm_IRQHandler
 603 0032 00BFAFF3 		.section	.text.VectorE8,"ax",%progbits
 603      0080AFF3 
 603      0080AFF3 
 603      0080
 604              		.align	2
 605              		.p2align 4,,15
 606              		.global	VectorE8
 607              		.thumb
 608              		.thumb_func
 609              		.type	VectorE8, %function
 610              	VectorE8:
 611              	.LFB127:
 612              		.loc 1 221 0
 613              		.cfi_startproc
 614              		@ args = 0, pretend = 0, frame = 0
 615              		@ frame_needed = 0, uses_anonymous_args = 0
 616 0000 10B5     		push	{r4, lr}
 617              	.LCFI9:
ARM GAS  /tmp/cckljTkQ.s 			page 12


 618              		.cfi_def_cfa_offset 8
 619              		.cfi_offset 4, -8
 620              		.cfi_offset 14, -4
 621              		.loc 1 223 0
 622 0002 FFF7FEFF 		bl	dbg_check_enter_isr
 623              	.LVL51:
 624              		.loc 1 226 0
 625 0006 40F20000 		movw	r0, #:lower16:EXTD1
 626 000a C0F20000 		movt	r0, #:upper16:EXTD1
 627              		.loc 1 225 0
 628 000e 4FF47053 		mov	r3, #15360
 629              		.loc 1 226 0
 630 0012 4268     		ldr	r2, [r0, #4]
 631              		.loc 1 225 0
 632 0014 C4F20103 		movt	r3, 16385
 633 0018 4FF48024 		mov	r4, #262144
 634              		.loc 1 226 0
 635 001c 1221     		movs	r1, #18
 636              		.loc 1 225 0
 637 001e 5C61     		str	r4, [r3, #20]
 638              		.loc 1 226 0
 639 0020 D2F89430 		ldr	r3, [r2, #148]
 640 0024 9847     		blx	r3
 641              	.LVL52:
 642              		.loc 1 228 0
 643 0026 FFF7FEFF 		bl	dbg_check_leave_isr
 644              	.LVL53:
 645              		.loc 1 229 0
 646 002a BDE81040 		pop	{r4, lr}
 647              		.loc 1 228 0
 648 002e FFF7FEBF 		b	_port_irq_epilogue
 649              	.LVL54:
 650              		.cfi_endproc
 651              	.LFE127:
 652              		.size	VectorE8, .-VectorE8
 653 0032 00BFAFF3 		.section	.text.Vector138,"ax",%progbits
 653      0080AFF3 
 653      0080AFF3 
 653      0080
 654              		.align	2
 655              		.p2align 4,,15
 656              		.global	Vector138
 657              		.thumb
 658              		.thumb_func
 659              		.type	Vector138, %function
 660              	Vector138:
 661              	.LFB128:
 662              		.loc 1 236 0
 663              		.cfi_startproc
 664              		@ args = 0, pretend = 0, frame = 0
 665              		@ frame_needed = 0, uses_anonymous_args = 0
 666 0000 10B5     		push	{r4, lr}
 667              	.LCFI10:
 668              		.cfi_def_cfa_offset 8
 669              		.cfi_offset 4, -8
 670              		.cfi_offset 14, -4
 671              		.loc 1 238 0
ARM GAS  /tmp/cckljTkQ.s 			page 13


 672 0002 FFF7FEFF 		bl	dbg_check_enter_isr
 673              	.LVL55:
 674              		.loc 1 241 0
 675 0006 40F20000 		movw	r0, #:lower16:EXTD1
 676 000a C0F20000 		movt	r0, #:upper16:EXTD1
 677              		.loc 1 240 0
 678 000e 4FF47053 		mov	r3, #15360
 679              		.loc 1 241 0
 680 0012 4268     		ldr	r2, [r0, #4]
 681              		.loc 1 240 0
 682 0014 C4F20103 		movt	r3, 16385
 683 0018 4FF40024 		mov	r4, #524288
 684              		.loc 1 241 0
 685 001c 1321     		movs	r1, #19
 686              		.loc 1 240 0
 687 001e 5C61     		str	r4, [r3, #20]
 688              		.loc 1 241 0
 689 0020 D2F89C30 		ldr	r3, [r2, #156]
 690 0024 9847     		blx	r3
 691              	.LVL56:
 692              		.loc 1 243 0
 693 0026 FFF7FEFF 		bl	dbg_check_leave_isr
 694              	.LVL57:
 695              		.loc 1 244 0
 696 002a BDE81040 		pop	{r4, lr}
 697              		.loc 1 243 0
 698 002e FFF7FEBF 		b	_port_irq_epilogue
 699              	.LVL58:
 700              		.cfi_endproc
 701              	.LFE128:
 702              		.size	Vector138, .-Vector138
 703 0032 00BFAFF3 		.section	.text.Vector170,"ax",%progbits
 703      0080AFF3 
 703      0080AFF3 
 703      0080
 704              		.align	2
 705              		.p2align 4,,15
 706              		.global	Vector170
 707              		.thumb
 708              		.thumb_func
 709              		.type	Vector170, %function
 710              	Vector170:
 711              	.LFB129:
 712              		.loc 1 251 0
 713              		.cfi_startproc
 714              		@ args = 0, pretend = 0, frame = 0
 715              		@ frame_needed = 0, uses_anonymous_args = 0
 716 0000 10B5     		push	{r4, lr}
 717              	.LCFI11:
 718              		.cfi_def_cfa_offset 8
 719              		.cfi_offset 4, -8
 720              		.cfi_offset 14, -4
 721              		.loc 1 253 0
 722 0002 FFF7FEFF 		bl	dbg_check_enter_isr
 723              	.LVL59:
 724              		.loc 1 256 0
 725 0006 40F20000 		movw	r0, #:lower16:EXTD1
ARM GAS  /tmp/cckljTkQ.s 			page 14


 726 000a C0F20000 		movt	r0, #:upper16:EXTD1
 727              		.loc 1 255 0
 728 000e 4FF47053 		mov	r3, #15360
 729              		.loc 1 256 0
 730 0012 4268     		ldr	r2, [r0, #4]
 731              		.loc 1 255 0
 732 0014 C4F20103 		movt	r3, 16385
 733 0018 4FF48014 		mov	r4, #1048576
 734              		.loc 1 256 0
 735 001c 1421     		movs	r1, #20
 736              		.loc 1 255 0
 737 001e 5C61     		str	r4, [r3, #20]
 738              		.loc 1 256 0
 739 0020 D2F8A430 		ldr	r3, [r2, #164]
 740 0024 9847     		blx	r3
 741              	.LVL60:
 742              		.loc 1 258 0
 743 0026 FFF7FEFF 		bl	dbg_check_leave_isr
 744              	.LVL61:
 745              		.loc 1 259 0
 746 002a BDE81040 		pop	{r4, lr}
 747              		.loc 1 258 0
 748 002e FFF7FEBF 		b	_port_irq_epilogue
 749              	.LVL62:
 750              		.cfi_endproc
 751              	.LFE129:
 752              		.size	Vector170, .-Vector170
 753 0032 00BFAFF3 		.section	.text.TAMPER_STAMP_IRQHandler,"ax",%progbits
 753      0080AFF3 
 753      0080AFF3 
 753      0080
 754              		.align	2
 755              		.p2align 4,,15
 756              		.global	TAMPER_STAMP_IRQHandler
 757              		.thumb
 758              		.thumb_func
 759              		.type	TAMPER_STAMP_IRQHandler, %function
 760              	TAMPER_STAMP_IRQHandler:
 761              	.LFB130:
 762              		.loc 1 266 0
 763              		.cfi_startproc
 764              		@ args = 0, pretend = 0, frame = 0
 765              		@ frame_needed = 0, uses_anonymous_args = 0
 766 0000 10B5     		push	{r4, lr}
 767              	.LCFI12:
 768              		.cfi_def_cfa_offset 8
 769              		.cfi_offset 4, -8
 770              		.cfi_offset 14, -4
 771              		.loc 1 268 0
 772 0002 FFF7FEFF 		bl	dbg_check_enter_isr
 773              	.LVL63:
 774              		.loc 1 271 0
 775 0006 40F20000 		movw	r0, #:lower16:EXTD1
 776 000a C0F20000 		movt	r0, #:upper16:EXTD1
 777              		.loc 1 270 0
 778 000e 4FF47053 		mov	r3, #15360
 779              		.loc 1 271 0
ARM GAS  /tmp/cckljTkQ.s 			page 15


 780 0012 4268     		ldr	r2, [r0, #4]
 781              		.loc 1 270 0
 782 0014 C4F20103 		movt	r3, 16385
 783 0018 4FF40014 		mov	r4, #2097152
 784              		.loc 1 271 0
 785 001c 1521     		movs	r1, #21
 786              		.loc 1 270 0
 787 001e 5C61     		str	r4, [r3, #20]
 788              		.loc 1 271 0
 789 0020 D2F8AC30 		ldr	r3, [r2, #172]
 790 0024 9847     		blx	r3
 791              	.LVL64:
 792              		.loc 1 273 0
 793 0026 FFF7FEFF 		bl	dbg_check_leave_isr
 794              	.LVL65:
 795              		.loc 1 274 0
 796 002a BDE81040 		pop	{r4, lr}
 797              		.loc 1 273 0
 798 002e FFF7FEBF 		b	_port_irq_epilogue
 799              	.LVL66:
 800              		.cfi_endproc
 801              	.LFE130:
 802              		.size	TAMPER_STAMP_IRQHandler, .-TAMPER_STAMP_IRQHandler
 803 0032 00BFAFF3 		.section	.text.Vector4C,"ax",%progbits
 803      0080AFF3 
 803      0080AFF3 
 803      0080
 804              		.align	2
 805              		.p2align 4,,15
 806              		.global	Vector4C
 807              		.thumb
 808              		.thumb_func
 809              		.type	Vector4C, %function
 810              	Vector4C:
 811              	.LFB131:
 812              		.loc 1 281 0
 813              		.cfi_startproc
 814              		@ args = 0, pretend = 0, frame = 0
 815              		@ frame_needed = 0, uses_anonymous_args = 0
 816 0000 10B5     		push	{r4, lr}
 817              	.LCFI13:
 818              		.cfi_def_cfa_offset 8
 819              		.cfi_offset 4, -8
 820              		.cfi_offset 14, -4
 821              		.loc 1 283 0
 822 0002 FFF7FEFF 		bl	dbg_check_enter_isr
 823              	.LVL67:
 824              		.loc 1 286 0
 825 0006 40F20000 		movw	r0, #:lower16:EXTD1
 826 000a C0F20000 		movt	r0, #:upper16:EXTD1
 827              		.loc 1 285 0
 828 000e 4FF47053 		mov	r3, #15360
 829              		.loc 1 286 0
 830 0012 4268     		ldr	r2, [r0, #4]
 831              		.loc 1 285 0
 832 0014 C4F20103 		movt	r3, 16385
 833 0018 4FF48004 		mov	r4, #4194304
ARM GAS  /tmp/cckljTkQ.s 			page 16


 834              		.loc 1 286 0
 835 001c 1621     		movs	r1, #22
 836              		.loc 1 285 0
 837 001e 5C61     		str	r4, [r3, #20]
 838              		.loc 1 286 0
 839 0020 D2F8B430 		ldr	r3, [r2, #180]
 840 0024 9847     		blx	r3
 841              	.LVL68:
 842              		.loc 1 288 0
 843 0026 FFF7FEFF 		bl	dbg_check_leave_isr
 844              	.LVL69:
 845              		.loc 1 289 0
 846 002a BDE81040 		pop	{r4, lr}
 847              		.loc 1 288 0
 848 002e FFF7FEBF 		b	_port_irq_epilogue
 849              	.LVL70:
 850              		.cfi_endproc
 851              	.LFE131:
 852              		.size	Vector4C, .-Vector4C
 853 0032 00BFAFF3 		.section	.text.ext_lld_exti_irq_enable,"ax",%progbits
 853      0080AFF3 
 853      0080AFF3 
 853      0080
 854              		.align	2
 855              		.p2align 4,,15
 856              		.global	ext_lld_exti_irq_enable
 857              		.thumb
 858              		.thumb_func
 859              		.type	ext_lld_exti_irq_enable, %function
 860              	ext_lld_exti_irq_enable:
 861              	.LFB132:
 862              		.loc 1 300 0
 863              		.cfi_startproc
 864              		@ args = 0, pretend = 0, frame = 0
 865              		@ frame_needed = 0, uses_anonymous_args = 0
 866 0000 08B5     		push	{r3, lr}
 867              	.LCFI14:
 868              		.cfi_def_cfa_offset 8
 869              		.cfi_offset 3, -8
 870              		.cfi_offset 14, -4
 871              		.loc 1 302 0
 872 0002 0620     		movs	r0, #6
 873 0004 6021     		movs	r1, #96
 874 0006 FFF7FEFF 		bl	nvicEnableVector
 875              	.LVL71:
 876              		.loc 1 304 0
 877 000a 0720     		movs	r0, #7
 878 000c 6021     		movs	r1, #96
 879 000e FFF7FEFF 		bl	nvicEnableVector
 880              	.LVL72:
 881              		.loc 1 306 0
 882 0012 0820     		movs	r0, #8
 883 0014 6021     		movs	r1, #96
 884 0016 FFF7FEFF 		bl	nvicEnableVector
 885              	.LVL73:
 886              		.loc 1 308 0
 887 001a 0920     		movs	r0, #9
ARM GAS  /tmp/cckljTkQ.s 			page 17


 888 001c 6021     		movs	r1, #96
 889 001e FFF7FEFF 		bl	nvicEnableVector
 890              	.LVL74:
 891              		.loc 1 310 0
 892 0022 0A20     		movs	r0, #10
 893 0024 6021     		movs	r1, #96
 894 0026 FFF7FEFF 		bl	nvicEnableVector
 895              	.LVL75:
 896              		.loc 1 312 0
 897 002a 1720     		movs	r0, #23
 898 002c 6021     		movs	r1, #96
 899 002e FFF7FEFF 		bl	nvicEnableVector
 900              	.LVL76:
 901              		.loc 1 314 0
 902 0032 2820     		movs	r0, #40
 903 0034 6021     		movs	r1, #96
 904 0036 FFF7FEFF 		bl	nvicEnableVector
 905              	.LVL77:
 906              		.loc 1 316 0
 907 003a 0120     		movs	r0, #1
 908 003c 6021     		movs	r1, #96
 909 003e FFF7FEFF 		bl	nvicEnableVector
 910              	.LVL78:
 911              		.loc 1 318 0
 912 0042 2920     		movs	r0, #41
 913 0044 F021     		movs	r1, #240
 914 0046 FFF7FEFF 		bl	nvicEnableVector
 915              	.LVL79:
 916              		.loc 1 320 0
 917 004a 2A20     		movs	r0, #42
 918 004c 6021     		movs	r1, #96
 919 004e FFF7FEFF 		bl	nvicEnableVector
 920              	.LVL80:
 921              		.loc 1 322 0
 922 0052 6021     		movs	r1, #96
 923 0054 3E20     		movs	r0, #62
 924 0056 FFF7FEFF 		bl	nvicEnableVector
 925              	.LVL81:
 926              		.loc 1 324 0
 927 005a 4C20     		movs	r0, #76
 928 005c 6021     		movs	r1, #96
 929 005e FFF7FEFF 		bl	nvicEnableVector
 930              	.LVL82:
 931              		.loc 1 326 0
 932 0062 0220     		movs	r0, #2
 933 0064 F021     		movs	r1, #240
 934 0066 FFF7FEFF 		bl	nvicEnableVector
 935              	.LVL83:
 936              		.loc 1 328 0
 937 006a 0320     		movs	r0, #3
 938 006c F021     		movs	r1, #240
 939              		.loc 1 330 0
 940 006e BDE80840 		pop	{r3, lr}
 941              		.loc 1 328 0
 942 0072 FFF7FEBF 		b	nvicEnableVector
 943              	.LVL84:
 944              		.cfi_endproc
ARM GAS  /tmp/cckljTkQ.s 			page 18


 945              	.LFE132:
 946              		.size	ext_lld_exti_irq_enable, .-ext_lld_exti_irq_enable
 947 0076 00BFAFF3 		.section	.text.ext_lld_exti_irq_disable,"ax",%progbits
 947      0080AFF3 
 947      0080
 948              		.align	2
 949              		.p2align 4,,15
 950              		.global	ext_lld_exti_irq_disable
 951              		.thumb
 952              		.thumb_func
 953              		.type	ext_lld_exti_irq_disable, %function
 954              	ext_lld_exti_irq_disable:
 955              	.LFB133:
 956              		.loc 1 337 0
 957              		.cfi_startproc
 958              		@ args = 0, pretend = 0, frame = 0
 959              		@ frame_needed = 0, uses_anonymous_args = 0
 960 0000 08B5     		push	{r3, lr}
 961              	.LCFI15:
 962              		.cfi_def_cfa_offset 8
 963              		.cfi_offset 3, -8
 964              		.cfi_offset 14, -4
 965              		.loc 1 339 0
 966 0002 0620     		movs	r0, #6
 967 0004 FFF7FEFF 		bl	nvicDisableVector
 968              	.LVL85:
 969              		.loc 1 340 0
 970 0008 0720     		movs	r0, #7
 971 000a FFF7FEFF 		bl	nvicDisableVector
 972              	.LVL86:
 973              		.loc 1 341 0
 974 000e 0820     		movs	r0, #8
 975 0010 FFF7FEFF 		bl	nvicDisableVector
 976              	.LVL87:
 977              		.loc 1 342 0
 978 0014 0920     		movs	r0, #9
 979 0016 FFF7FEFF 		bl	nvicDisableVector
 980              	.LVL88:
 981              		.loc 1 343 0
 982 001a 0A20     		movs	r0, #10
 983 001c FFF7FEFF 		bl	nvicDisableVector
 984              	.LVL89:
 985              		.loc 1 344 0
 986 0020 1720     		movs	r0, #23
 987 0022 FFF7FEFF 		bl	nvicDisableVector
 988              	.LVL90:
 989              		.loc 1 345 0
 990 0026 2820     		movs	r0, #40
 991 0028 FFF7FEFF 		bl	nvicDisableVector
 992              	.LVL91:
 993              		.loc 1 346 0
 994 002c 0120     		movs	r0, #1
 995 002e FFF7FEFF 		bl	nvicDisableVector
 996              	.LVL92:
 997              		.loc 1 347 0
 998 0032 2920     		movs	r0, #41
 999 0034 FFF7FEFF 		bl	nvicDisableVector
ARM GAS  /tmp/cckljTkQ.s 			page 19


 1000              	.LVL93:
 1001              		.loc 1 348 0
 1002 0038 2A20     		movs	r0, #42
 1003 003a FFF7FEFF 		bl	nvicDisableVector
 1004              	.LVL94:
 1005              		.loc 1 349 0
 1006 003e 3E20     		movs	r0, #62
 1007 0040 FFF7FEFF 		bl	nvicDisableVector
 1008              	.LVL95:
 1009              		.loc 1 350 0
 1010 0044 4C20     		movs	r0, #76
 1011 0046 FFF7FEFF 		bl	nvicDisableVector
 1012              	.LVL96:
 1013              		.loc 1 351 0
 1014 004a 0220     		movs	r0, #2
 1015 004c FFF7FEFF 		bl	nvicDisableVector
 1016              	.LVL97:
 1017              		.loc 1 352 0
 1018 0050 0320     		movs	r0, #3
 1019              		.loc 1 353 0
 1020 0052 BDE80840 		pop	{r3, lr}
 1021              		.loc 1 352 0
 1022 0056 FFF7FEBF 		b	nvicDisableVector
 1023              	.LVL98:
 1024              		.cfi_endproc
 1025              	.LFE133:
 1026              		.size	ext_lld_exti_irq_disable, .-ext_lld_exti_irq_disable
 1027 005a 00BFAFF3 		.text
 1027      0080
 1028              	.Letext0:
 1029              		.file 2 "/home/david/toolchains/psas/x-tools/stm32f407/arm-psas-eabi/bin/../lib/gcc/arm-psas-eabi/
 1030              		.file 3 "../../ChibiOS/os/hal/platforms/STM32F4xx/stm32f4xx.h"
 1031              		.file 4 "../../ChibiOS/os/hal/include/ext.h"
 1032              		.file 5 "../../ChibiOS/os/hal/platforms/STM32/ext_lld.h"
 1033              		.file 6 "../../ChibiOS/os/ports/common/ARMCMx/CMSIS/include/core_cm4.h"
 1034              		.file 7 "../../ChibiOS/os/kernel/include/chdebug.h"
 1035              		.file 8 "../../ChibiOS/os/ports/GCC/ARMCMx/chcore_v7m.h"
 1036              		.file 9 "../../ChibiOS/os/ports/common/ARMCMx/nvic.h"
 1037              		.section	.debug_info,"",%progbits
 1038              	.Ldebug_info0:
 1039 0000 B70B0000 		.4byte	0xbb7
 1040 0004 0200     		.2byte	0x2
 1041 0006 00000000 		.4byte	.Ldebug_abbrev0
 1042 000a 04       		.byte	0x4
 1043 000b 01       		.uleb128 0x1
 1044 000c CD040000 		.4byte	.LASF141
 1045 0010 01       		.byte	0x1
 1046 0011 EB020000 		.4byte	.LASF142
 1047 0015 02010000 		.4byte	.LASF143
 1048 0019 00000000 		.4byte	.Ldebug_ranges0+0
 1049 001d 00000000 		.4byte	0
 1050 0021 00000000 		.4byte	0
 1051 0025 00000000 		.4byte	.Ldebug_line0
 1052 0029 02       		.uleb128 0x2
 1053 002a 04       		.byte	0x4
 1054 002b 05       		.byte	0x5
 1055 002c 696E7400 		.ascii	"int\000"
ARM GAS  /tmp/cckljTkQ.s 			page 20


 1056 0030 03       		.uleb128 0x3
 1057 0031 04       		.byte	0x4
 1058 0032 07       		.byte	0x7
 1059 0033 50020000 		.4byte	.LASF0
 1060 0037 03       		.uleb128 0x3
 1061 0038 01       		.byte	0x1
 1062 0039 06       		.byte	0x6
 1063 003a 31010000 		.4byte	.LASF1
 1064 003e 03       		.uleb128 0x3
 1065 003f 01       		.byte	0x1
 1066 0040 08       		.byte	0x8
 1067 0041 66050000 		.4byte	.LASF2
 1068 0045 03       		.uleb128 0x3
 1069 0046 02       		.byte	0x2
 1070 0047 05       		.byte	0x5
 1071 0048 BD050000 		.4byte	.LASF3
 1072 004c 03       		.uleb128 0x3
 1073 004d 02       		.byte	0x2
 1074 004e 07       		.byte	0x7
 1075 004f 2E030000 		.4byte	.LASF4
 1076 0053 04       		.uleb128 0x4
 1077 0054 5E050000 		.4byte	.LASF6
 1078 0058 02       		.byte	0x2
 1079 0059 4F       		.byte	0x4f
 1080 005a 5E000000 		.4byte	0x5e
 1081 005e 03       		.uleb128 0x3
 1082 005f 04       		.byte	0x4
 1083 0060 05       		.byte	0x5
 1084 0061 6C010000 		.4byte	.LASF5
 1085 0065 04       		.uleb128 0x4
 1086 0066 14060000 		.4byte	.LASF7
 1087 006a 02       		.byte	0x2
 1088 006b 50       		.byte	0x50
 1089 006c 70000000 		.4byte	0x70
 1090 0070 03       		.uleb128 0x3
 1091 0071 04       		.byte	0x4
 1092 0072 07       		.byte	0x7
 1093 0073 A9020000 		.4byte	.LASF8
 1094 0077 03       		.uleb128 0x3
 1095 0078 08       		.byte	0x8
 1096 0079 05       		.byte	0x5
 1097 007a A1010000 		.4byte	.LASF9
 1098 007e 03       		.uleb128 0x3
 1099 007f 08       		.byte	0x8
 1100 0080 07       		.byte	0x7
 1101 0081 85000000 		.4byte	.LASF10
 1102 0085 05       		.uleb128 0x5
 1103 0086 65000000 		.4byte	0x65
 1104 008a 03       		.uleb128 0x3
 1105 008b 04       		.byte	0x4
 1106 008c 07       		.byte	0x7
 1107 008d 02040000 		.4byte	.LASF11
 1108 0091 03       		.uleb128 0x3
 1109 0092 01       		.byte	0x1
 1110 0093 08       		.byte	0x8
 1111 0094 66060000 		.4byte	.LASF12
 1112 0098 06       		.uleb128 0x6
ARM GAS  /tmp/cckljTkQ.s 			page 21


 1113 0099 F4030000 		.4byte	.LASF144
 1114 009d 01       		.byte	0x1
 1115 009e 03       		.byte	0x3
 1116 009f 8C       		.byte	0x8c
 1117 00a0 D3020000 		.4byte	0x2d3
 1118 00a4 07       		.uleb128 0x7
 1119 00a5 AC060000 		.4byte	.LASF13
 1120 00a9 72       		.sleb128 -14
 1121 00aa 07       		.uleb128 0x7
 1122 00ab 86020000 		.4byte	.LASF14
 1123 00af 74       		.sleb128 -12
 1124 00b0 07       		.uleb128 0x7
 1125 00b1 06020000 		.4byte	.LASF15
 1126 00b5 75       		.sleb128 -11
 1127 00b6 07       		.uleb128 0x7
 1128 00b7 29060000 		.4byte	.LASF16
 1129 00bb 76       		.sleb128 -10
 1130 00bc 07       		.uleb128 0x7
 1131 00bd 22030000 		.4byte	.LASF17
 1132 00c1 7B       		.sleb128 -5
 1133 00c2 07       		.uleb128 0x7
 1134 00c3 D6060000 		.4byte	.LASF18
 1135 00c7 7C       		.sleb128 -4
 1136 00c8 07       		.uleb128 0x7
 1137 00c9 E7010000 		.4byte	.LASF19
 1138 00cd 7E       		.sleb128 -2
 1139 00ce 07       		.uleb128 0x7
 1140 00cf A5030000 		.4byte	.LASF20
 1141 00d3 7F       		.sleb128 -1
 1142 00d4 07       		.uleb128 0x7
 1143 00d5 D0000000 		.4byte	.LASF21
 1144 00d9 00       		.sleb128 0
 1145 00da 07       		.uleb128 0x7
 1146 00db 0E000000 		.4byte	.LASF22
 1147 00df 01       		.sleb128 1
 1148 00e0 07       		.uleb128 0x7
 1149 00e1 E2040000 		.4byte	.LASF23
 1150 00e5 02       		.sleb128 2
 1151 00e6 07       		.uleb128 0x7
 1152 00e7 C2000000 		.4byte	.LASF24
 1153 00eb 03       		.sleb128 3
 1154 00ec 07       		.uleb128 0x7
 1155 00ed 09060000 		.4byte	.LASF25
 1156 00f1 04       		.sleb128 4
 1157 00f2 07       		.uleb128 0x7
 1158 00f3 B4070000 		.4byte	.LASF26
 1159 00f7 05       		.sleb128 5
 1160 00f8 07       		.uleb128 0x7
 1161 00f9 1A070000 		.4byte	.LASF27
 1162 00fd 06       		.sleb128 6
 1163 00fe 07       		.uleb128 0x7
 1164 00ff D8070000 		.4byte	.LASF28
 1165 0103 07       		.sleb128 7
 1166 0104 07       		.uleb128 0x7
 1167 0105 FE050000 		.4byte	.LASF29
 1168 0109 08       		.sleb128 8
 1169 010a 07       		.uleb128 0x7
ARM GAS  /tmp/cckljTkQ.s 			page 22


 1170 010b 8D040000 		.4byte	.LASF30
 1171 010f 09       		.sleb128 9
 1172 0110 07       		.uleb128 0x7
 1173 0111 A4050000 		.4byte	.LASF31
 1174 0115 0A       		.sleb128 10
 1175 0116 07       		.uleb128 0x7
 1176 0117 E3070000 		.4byte	.LASF32
 1177 011b 0B       		.sleb128 11
 1178 011c 07       		.uleb128 0x7
 1179 011d 7F030000 		.4byte	.LASF33
 1180 0121 0C       		.sleb128 12
 1181 0122 07       		.uleb128 0x7
 1182 0123 A2040000 		.4byte	.LASF34
 1183 0127 0D       		.sleb128 13
 1184 0128 07       		.uleb128 0x7
 1185 0129 5D020000 		.4byte	.LASF35
 1186 012d 0E       		.sleb128 14
 1187 012e 07       		.uleb128 0x7
 1188 012f 53040000 		.4byte	.LASF36
 1189 0133 0F       		.sleb128 15
 1190 0134 07       		.uleb128 0x7
 1191 0135 82010000 		.4byte	.LASF37
 1192 0139 10       		.sleb128 16
 1193 013a 07       		.uleb128 0x7
 1194 013b 6F020000 		.4byte	.LASF38
 1195 013f 11       		.sleb128 17
 1196 0140 07       		.uleb128 0x7
 1197 0141 77070000 		.4byte	.LASF39
 1198 0145 12       		.sleb128 18
 1199 0146 07       		.uleb128 0x7
 1200 0147 59030000 		.4byte	.LASF40
 1201 014b 13       		.sleb128 19
 1202 014c 07       		.uleb128 0x7
 1203 014d 00000000 		.4byte	.LASF41
 1204 0151 14       		.sleb128 20
 1205 0152 07       		.uleb128 0x7
 1206 0153 77000000 		.4byte	.LASF42
 1207 0157 15       		.sleb128 21
 1208 0158 07       		.uleb128 0x7
 1209 0159 98070000 		.4byte	.LASF43
 1210 015d 16       		.sleb128 22
 1211 015e 07       		.uleb128 0x7
 1212 015f 94010000 		.4byte	.LASF44
 1213 0163 17       		.sleb128 23
 1214 0164 07       		.uleb128 0x7
 1215 0165 7F050000 		.4byte	.LASF45
 1216 0169 18       		.sleb128 24
 1217 016a 07       		.uleb128 0x7
 1218 016b 16040000 		.4byte	.LASF46
 1219 016f 19       		.sleb128 25
 1220 0170 07       		.uleb128 0x7
 1221 0171 D2050000 		.4byte	.LASF47
 1222 0175 1A       		.sleb128 26
 1223 0176 07       		.uleb128 0x7
 1224 0177 B2030000 		.4byte	.LASF48
 1225 017b 1B       		.sleb128 27
 1226 017c 07       		.uleb128 0x7
ARM GAS  /tmp/cckljTkQ.s 			page 23


 1227 017d 10070000 		.4byte	.LASF49
 1228 0181 1C       		.sleb128 28
 1229 0182 07       		.uleb128 0x7
 1230 0183 CE070000 		.4byte	.LASF50
 1231 0187 1D       		.sleb128 29
 1232 0188 07       		.uleb128 0x7
 1233 0189 B8000000 		.4byte	.LASF51
 1234 018d 1E       		.sleb128 30
 1235 018e 07       		.uleb128 0x7
 1236 018f 3B000000 		.4byte	.LASF52
 1237 0193 1F       		.sleb128 31
 1238 0194 07       		.uleb128 0x7
 1239 0195 C9060000 		.4byte	.LASF53
 1240 0199 20       		.sleb128 32
 1241 019a 07       		.uleb128 0x7
 1242 019b 75010000 		.4byte	.LASF54
 1243 019f 21       		.sleb128 33
 1244 01a0 07       		.uleb128 0x7
 1245 01a1 AB000000 		.4byte	.LASF55
 1246 01a5 22       		.sleb128 34
 1247 01a6 07       		.uleb128 0x7
 1248 01a7 75030000 		.4byte	.LASF56
 1249 01ab 23       		.sleb128 35
 1250 01ac 07       		.uleb128 0x7
 1251 01ad 98040000 		.4byte	.LASF57
 1252 01b1 24       		.sleb128 36
 1253 01b2 07       		.uleb128 0x7
 1254 01b3 2C050000 		.4byte	.LASF58
 1255 01b7 25       		.sleb128 37
 1256 01b8 07       		.uleb128 0x7
 1257 01b9 1D060000 		.4byte	.LASF59
 1258 01bd 26       		.sleb128 38
 1259 01be 07       		.uleb128 0x7
 1260 01bf FA060000 		.4byte	.LASF60
 1261 01c3 27       		.sleb128 39
 1262 01c4 07       		.uleb128 0x7
 1263 01c5 66030000 		.4byte	.LASF61
 1264 01c9 28       		.sleb128 40
 1265 01ca 07       		.uleb128 0x7
 1266 01cb 9C000000 		.4byte	.LASF62
 1267 01cf 29       		.sleb128 41
 1268 01d0 07       		.uleb128 0x7
 1269 01d1 14020000 		.4byte	.LASF63
 1270 01d5 2A       		.sleb128 42
 1271 01d6 07       		.uleb128 0x7
 1272 01d7 91030000 		.4byte	.LASF64
 1273 01db 2B       		.sleb128 43
 1274 01dc 07       		.uleb128 0x7
 1275 01dd F3010000 		.4byte	.LASF65
 1276 01e1 2C       		.sleb128 44
 1277 01e2 07       		.uleb128 0x7
 1278 01e3 BF030000 		.4byte	.LASF66
 1279 01e7 2D       		.sleb128 45
 1280 01e8 07       		.uleb128 0x7
 1281 01e9 F5000000 		.4byte	.LASF67
 1282 01ed 2E       		.sleb128 46
 1283 01ee 07       		.uleb128 0x7
ARM GAS  /tmp/cckljTkQ.s 			page 24


 1284 01ef 54060000 		.4byte	.LASF68
 1285 01f3 2F       		.sleb128 47
 1286 01f4 07       		.uleb128 0x7
 1287 01f5 54050000 		.4byte	.LASF69
 1288 01f9 30       		.sleb128 48
 1289 01fa 07       		.uleb128 0x7
 1290 01fb DA000000 		.4byte	.LASF70
 1291 01ff 31       		.sleb128 49
 1292 0200 07       		.uleb128 0x7
 1293 0201 83040000 		.4byte	.LASF71
 1294 0205 32       		.sleb128 50
 1295 0206 07       		.uleb128 0x7
 1296 0207 38050000 		.4byte	.LASF72
 1297 020b 33       		.sleb128 51
 1298 020c 07       		.uleb128 0x7
 1299 020d CB010000 		.4byte	.LASF73
 1300 0211 34       		.sleb128 52
 1301 0212 07       		.uleb128 0x7
 1302 0213 C7050000 		.4byte	.LASF74
 1303 0217 35       		.sleb128 53
 1304 0218 07       		.uleb128 0x7
 1305 0219 BD010000 		.4byte	.LASF75
 1306 021d 36       		.sleb128 54
 1307 021e 07       		.uleb128 0x7
 1308 021f 8F060000 		.4byte	.LASF76
 1309 0223 37       		.sleb128 55
 1310 0224 07       		.uleb128 0x7
 1311 0225 E8060000 		.4byte	.LASF77
 1312 0229 38       		.sleb128 56
 1313 022a 07       		.uleb128 0x7
 1314 022b 80070000 		.4byte	.LASF78
 1315 022f 39       		.sleb128 57
 1316 0230 07       		.uleb128 0x7
 1317 0231 65040000 		.4byte	.LASF79
 1318 0235 3A       		.sleb128 58
 1319 0236 07       		.uleb128 0x7
 1320 0237 41040000 		.4byte	.LASF80
 1321 023b 3B       		.sleb128 59
 1322 023c 07       		.uleb128 0x7
 1323 023d 42050000 		.4byte	.LASF81
 1324 0241 3C       		.sleb128 60
 1325 0242 07       		.uleb128 0x7
 1326 0243 EB030000 		.4byte	.LASF82
 1327 0247 3D       		.sleb128 61
 1328 0248 07       		.uleb128 0x7
 1329 0249 AF010000 		.4byte	.LASF83
 1330 024d 3E       		.sleb128 62
 1331 024e 07       		.uleb128 0x7
 1332 024f B4040000 		.4byte	.LASF84
 1333 0253 3F       		.sleb128 63
 1334 0254 07       		.uleb128 0x7
 1335 0255 17000000 		.4byte	.LASF85
 1336 0259 C000     		.sleb128 64
 1337 025b 07       		.uleb128 0x7
 1338 025c 3D010000 		.4byte	.LASF86
 1339 0260 C100     		.sleb128 65
 1340 0262 07       		.uleb128 0x7
ARM GAS  /tmp/cckljTkQ.s 			page 25


 1341 0263 A6070000 		.4byte	.LASF87
 1342 0267 C200     		.sleb128 66
 1343 0269 07       		.uleb128 0x7
 1344 026a C1040000 		.4byte	.LASF88
 1345 026e C300     		.sleb128 67
 1346 0270 07       		.uleb128 0x7
 1347 0271 55000000 		.4byte	.LASF89
 1348 0275 C400     		.sleb128 68
 1349 0277 07       		.uleb128 0x7
 1350 0278 4B010000 		.4byte	.LASF90
 1351 027c C500     		.sleb128 69
 1352 027e 07       		.uleb128 0x7
 1353 027f 25020000 		.4byte	.LASF91
 1354 0283 C600     		.sleb128 70
 1355 0285 07       		.uleb128 0x7
 1356 0286 77040000 		.4byte	.LASF92
 1357 028a C700     		.sleb128 71
 1358 028c 07       		.uleb128 0x7
 1359 028d 9C020000 		.4byte	.LASF93
 1360 0291 C800     		.sleb128 72
 1361 0293 07       		.uleb128 0x7
 1362 0294 2E000000 		.4byte	.LASF94
 1363 0298 C900     		.sleb128 73
 1364 029a 07       		.uleb128 0x7
 1365 029b D7020000 		.4byte	.LASF95
 1366 029f CA00     		.sleb128 74
 1367 02a1 07       		.uleb128 0x7
 1368 02a2 99060000 		.4byte	.LASF96
 1369 02a6 CB00     		.sleb128 75
 1370 02a8 07       		.uleb128 0x7
 1371 02a9 BD070000 		.4byte	.LASF97
 1372 02ad CC00     		.sleb128 76
 1373 02af 07       		.uleb128 0x7
 1374 02b0 F2040000 		.4byte	.LASF98
 1375 02b4 CD00     		.sleb128 77
 1376 02b6 07       		.uleb128 0x7
 1377 02b7 39070000 		.4byte	.LASF99
 1378 02bb CE00     		.sleb128 78
 1379 02bd 07       		.uleb128 0x7
 1380 02be 70060000 		.4byte	.LASF100
 1381 02c2 CF00     		.sleb128 79
 1382 02c4 07       		.uleb128 0x7
 1383 02c5 AF050000 		.4byte	.LASF101
 1384 02c9 D000     		.sleb128 80
 1385 02cb 07       		.uleb128 0x7
 1386 02cc 4D070000 		.4byte	.LASF102
 1387 02d0 D100     		.sleb128 81
 1388 02d2 00       		.byte	0
 1389 02d3 05       		.uleb128 0x5
 1390 02d4 53000000 		.4byte	0x53
 1391 02d8 08       		.uleb128 0x8
 1392 02d9 18       		.byte	0x18
 1393 02da 03       		.byte	0x3
 1394 02db 3302     		.2byte	0x233
 1395 02dd 3B030000 		.4byte	0x33b
 1396 02e1 09       		.uleb128 0x9
 1397 02e2 494D5200 		.ascii	"IMR\000"
ARM GAS  /tmp/cckljTkQ.s 			page 26


 1398 02e6 03       		.byte	0x3
 1399 02e7 3502     		.2byte	0x235
 1400 02e9 85000000 		.4byte	0x85
 1401 02ed 02       		.byte	0x2
 1402 02ee 23       		.byte	0x23
 1403 02ef 00       		.uleb128 0
 1404 02f0 09       		.uleb128 0x9
 1405 02f1 454D5200 		.ascii	"EMR\000"
 1406 02f5 03       		.byte	0x3
 1407 02f6 3602     		.2byte	0x236
 1408 02f8 85000000 		.4byte	0x85
 1409 02fc 02       		.byte	0x2
 1410 02fd 23       		.byte	0x23
 1411 02fe 04       		.uleb128 0x4
 1412 02ff 0A       		.uleb128 0xa
 1413 0300 81020000 		.4byte	.LASF103
 1414 0304 03       		.byte	0x3
 1415 0305 3702     		.2byte	0x237
 1416 0307 85000000 		.4byte	0x85
 1417 030b 02       		.byte	0x2
 1418 030c 23       		.byte	0x23
 1419 030d 08       		.uleb128 0x8
 1420 030e 0A       		.uleb128 0xa
 1421 030f 9F050000 		.4byte	.LASF104
 1422 0313 03       		.byte	0x3
 1423 0314 3802     		.2byte	0x238
 1424 0316 85000000 		.4byte	0x85
 1425 031a 02       		.byte	0x2
 1426 031b 23       		.byte	0x23
 1427 031c 0C       		.uleb128 0xc
 1428 031d 0A       		.uleb128 0xa
 1429 031e 67000000 		.4byte	.LASF105
 1430 0322 03       		.byte	0x3
 1431 0323 3902     		.2byte	0x239
 1432 0325 85000000 		.4byte	0x85
 1433 0329 02       		.byte	0x2
 1434 032a 23       		.byte	0x23
 1435 032b 10       		.uleb128 0x10
 1436 032c 09       		.uleb128 0x9
 1437 032d 505200   		.ascii	"PR\000"
 1438 0330 03       		.byte	0x3
 1439 0331 3A02     		.2byte	0x23a
 1440 0333 85000000 		.4byte	0x85
 1441 0337 02       		.byte	0x2
 1442 0338 23       		.byte	0x23
 1443 0339 14       		.uleb128 0x14
 1444 033a 00       		.byte	0
 1445 033b 0B       		.uleb128 0xb
 1446 033c 6A070000 		.4byte	.LASF106
 1447 0340 03       		.byte	0x3
 1448 0341 3B02     		.2byte	0x23b
 1449 0343 D8020000 		.4byte	0x2d8
 1450 0347 0C       		.uleb128 0xc
 1451 0348 01       		.byte	0x1
 1452 0349 04       		.byte	0x4
 1453 034a 43       		.byte	0x43
 1454 034b 62030000 		.4byte	0x362
ARM GAS  /tmp/cckljTkQ.s 			page 27


 1455 034f 07       		.uleb128 0x7
 1456 0350 74050000 		.4byte	.LASF107
 1457 0354 00       		.sleb128 0
 1458 0355 07       		.uleb128 0x7
 1459 0356 4B060000 		.4byte	.LASF108
 1460 035a 01       		.sleb128 1
 1461 035b 07       		.uleb128 0x7
 1462 035c D7030000 		.4byte	.LASF109
 1463 0360 02       		.sleb128 2
 1464 0361 00       		.byte	0
 1465 0362 04       		.uleb128 0x4
 1466 0363 0B040000 		.4byte	.LASF110
 1467 0367 04       		.byte	0x4
 1468 0368 47       		.byte	0x47
 1469 0369 47030000 		.4byte	0x347
 1470 036d 04       		.uleb128 0x4
 1471 036e 06070000 		.4byte	.LASF111
 1472 0372 04       		.byte	0x4
 1473 0373 4C       		.byte	0x4c
 1474 0374 78030000 		.4byte	0x378
 1475 0378 0D       		.uleb128 0xd
 1476 0379 06070000 		.4byte	.LASF111
 1477 037d 08       		.byte	0x8
 1478 037e 05       		.byte	0x5
 1479 037f 75       		.byte	0x75
 1480 0380 A1030000 		.4byte	0x3a1
 1481 0384 0E       		.uleb128 0xe
 1482 0385 5D010000 		.4byte	.LASF112
 1483 0389 05       		.byte	0x5
 1484 038a 79       		.byte	0x79
 1485 038b 62030000 		.4byte	0x362
 1486 038f 02       		.byte	0x2
 1487 0390 23       		.byte	0x23
 1488 0391 00       		.uleb128 0
 1489 0392 0E       		.uleb128 0xe
 1490 0393 7A060000 		.4byte	.LASF113
 1491 0397 05       		.byte	0x5
 1492 0398 7D       		.byte	0x7d
 1493 0399 35040000 		.4byte	0x435
 1494 039d 02       		.byte	0x2
 1495 039e 23       		.byte	0x23
 1496 039f 04       		.uleb128 0x4
 1497 03a0 00       		.byte	0
 1498 03a1 04       		.uleb128 0x4
 1499 03a2 48000000 		.4byte	.LASF114
 1500 03a6 05       		.byte	0x5
 1501 03a7 4B       		.byte	0x4b
 1502 03a8 65000000 		.4byte	0x65
 1503 03ac 04       		.uleb128 0x4
 1504 03ad 81060000 		.4byte	.LASF115
 1505 03b1 05       		.byte	0x5
 1506 03b2 53       		.byte	0x53
 1507 03b3 B7030000 		.4byte	0x3b7
 1508 03b7 0F       		.uleb128 0xf
 1509 03b8 04       		.byte	0x4
 1510 03b9 BD030000 		.4byte	0x3bd
 1511 03bd 10       		.uleb128 0x10
ARM GAS  /tmp/cckljTkQ.s 			page 28


 1512 03be 01       		.byte	0x1
 1513 03bf CE030000 		.4byte	0x3ce
 1514 03c3 11       		.uleb128 0x11
 1515 03c4 CE030000 		.4byte	0x3ce
 1516 03c8 11       		.uleb128 0x11
 1517 03c9 A1030000 		.4byte	0x3a1
 1518 03cd 00       		.byte	0
 1519 03ce 0F       		.uleb128 0xf
 1520 03cf 04       		.byte	0x4
 1521 03d0 6D030000 		.4byte	0x36d
 1522 03d4 12       		.uleb128 0x12
 1523 03d5 08       		.byte	0x8
 1524 03d6 05       		.byte	0x5
 1525 03d7 58       		.byte	0x58
 1526 03d8 F8030000 		.4byte	0x3f8
 1527 03dc 0E       		.uleb128 0xe
 1528 03dd 6B060000 		.4byte	.LASF116
 1529 03e1 05       		.byte	0x5
 1530 03e2 5C       		.byte	0x5c
 1531 03e3 65000000 		.4byte	0x65
 1532 03e7 02       		.byte	0x2
 1533 03e8 23       		.byte	0x23
 1534 03e9 00       		.uleb128 0
 1535 03ea 13       		.uleb128 0x13
 1536 03eb 636200   		.ascii	"cb\000"
 1537 03ee 05       		.byte	0x5
 1538 03ef 63       		.byte	0x63
 1539 03f0 AC030000 		.4byte	0x3ac
 1540 03f4 02       		.byte	0x2
 1541 03f5 23       		.byte	0x23
 1542 03f6 04       		.uleb128 0x4
 1543 03f7 00       		.byte	0
 1544 03f8 04       		.uleb128 0x4
 1545 03f9 D6010000 		.4byte	.LASF117
 1546 03fd 05       		.byte	0x5
 1547 03fe 64       		.byte	0x64
 1548 03ff D4030000 		.4byte	0x3d4
 1549 0403 12       		.uleb128 0x12
 1550 0404 B8       		.byte	0xb8
 1551 0405 05       		.byte	0x5
 1552 0406 6A       		.byte	0x6a
 1553 0407 1A040000 		.4byte	0x41a
 1554 040b 0E       		.uleb128 0xe
 1555 040c 63010000 		.4byte	.LASF118
 1556 0410 05       		.byte	0x5
 1557 0411 6E       		.byte	0x6e
 1558 0412 1A040000 		.4byte	0x41a
 1559 0416 02       		.byte	0x2
 1560 0417 23       		.byte	0x23
 1561 0418 00       		.uleb128 0
 1562 0419 00       		.byte	0
 1563 041a 14       		.uleb128 0x14
 1564 041b F8030000 		.4byte	0x3f8
 1565 041f 2A040000 		.4byte	0x42a
 1566 0423 15       		.uleb128 0x15
 1567 0424 8A000000 		.4byte	0x8a
 1568 0428 16       		.byte	0x16
ARM GAS  /tmp/cckljTkQ.s 			page 29


 1569 0429 00       		.byte	0
 1570 042a 04       		.uleb128 0x4
 1571 042b 43070000 		.4byte	.LASF119
 1572 042f 05       		.byte	0x5
 1573 0430 70       		.byte	0x70
 1574 0431 03040000 		.4byte	0x403
 1575 0435 0F       		.uleb128 0xf
 1576 0436 04       		.byte	0x4
 1577 0437 3B040000 		.4byte	0x43b
 1578 043b 16       		.uleb128 0x16
 1579 043c 2A040000 		.4byte	0x42a
 1580 0440 17       		.uleb128 0x17
 1581 0441 01       		.byte	0x1
 1582 0442 E2030000 		.4byte	.LASF120
 1583 0446 01       		.byte	0x1
 1584 0447 3D       		.byte	0x3d
 1585 0448 01       		.byte	0x1
 1586 0449 00000000 		.4byte	.LFB118
 1587 044d 2E000000 		.4byte	.LFE118
 1588 0451 00000000 		.4byte	.LLST0
 1589 0455 01       		.byte	0x1
 1590 0456 86040000 		.4byte	0x486
 1591 045a 18       		.uleb128 0x18
 1592 045b 06000000 		.4byte	.LVL0
 1593 045f 700B0000 		.4byte	0xb70
 1594 0463 19       		.uleb128 0x19
 1595 0464 22000000 		.4byte	.LVL1
 1596 0468 72040000 		.4byte	0x472
 1597 046c 1A       		.uleb128 0x1a
 1598 046d 01       		.byte	0x1
 1599 046e 51       		.byte	0x51
 1600 046f 01       		.byte	0x1
 1601 0470 30       		.byte	0x30
 1602 0471 00       		.byte	0
 1603 0472 18       		.uleb128 0x18
 1604 0473 26000000 		.4byte	.LVL2
 1605 0477 7A0B0000 		.4byte	0xb7a
 1606 047b 1B       		.uleb128 0x1b
 1607 047c 2E000000 		.4byte	.LVL3
 1608 0480 01       		.byte	0x1
 1609 0481 840B0000 		.4byte	0xb84
 1610 0485 00       		.byte	0
 1611 0486 17       		.uleb128 0x17
 1612 0487 01       		.byte	0x1
 1613 0488 F9030000 		.4byte	.LASF121
 1614 048c 01       		.byte	0x1
 1615 048d 4C       		.byte	0x4c
 1616 048e 01       		.byte	0x1
 1617 048f 00000000 		.4byte	.LFB119
 1618 0493 2E000000 		.4byte	.LFE119
 1619 0497 20000000 		.4byte	.LLST1
 1620 049b 01       		.byte	0x1
 1621 049c CC040000 		.4byte	0x4cc
 1622 04a0 18       		.uleb128 0x18
 1623 04a1 06000000 		.4byte	.LVL4
 1624 04a5 700B0000 		.4byte	0xb70
 1625 04a9 19       		.uleb128 0x19
ARM GAS  /tmp/cckljTkQ.s 			page 30


 1626 04aa 22000000 		.4byte	.LVL5
 1627 04ae B8040000 		.4byte	0x4b8
 1628 04b2 1A       		.uleb128 0x1a
 1629 04b3 01       		.byte	0x1
 1630 04b4 51       		.byte	0x51
 1631 04b5 01       		.byte	0x1
 1632 04b6 31       		.byte	0x31
 1633 04b7 00       		.byte	0
 1634 04b8 18       		.uleb128 0x18
 1635 04b9 26000000 		.4byte	.LVL6
 1636 04bd 7A0B0000 		.4byte	0xb7a
 1637 04c1 1B       		.uleb128 0x1b
 1638 04c2 2E000000 		.4byte	.LVL7
 1639 04c6 01       		.byte	0x1
 1640 04c7 840B0000 		.4byte	0xb84
 1641 04cb 00       		.byte	0
 1642 04cc 17       		.uleb128 0x17
 1643 04cd 01       		.byte	0x1
 1644 04ce 11050000 		.4byte	.LASF122
 1645 04d2 01       		.byte	0x1
 1646 04d3 5B       		.byte	0x5b
 1647 04d4 01       		.byte	0x1
 1648 04d5 00000000 		.4byte	.LFB120
 1649 04d9 2E000000 		.4byte	.LFE120
 1650 04dd 40000000 		.4byte	.LLST2
 1651 04e1 01       		.byte	0x1
 1652 04e2 12050000 		.4byte	0x512
 1653 04e6 18       		.uleb128 0x18
 1654 04e7 06000000 		.4byte	.LVL8
 1655 04eb 700B0000 		.4byte	0xb70
 1656 04ef 19       		.uleb128 0x19
 1657 04f0 22000000 		.4byte	.LVL9
 1658 04f4 FE040000 		.4byte	0x4fe
 1659 04f8 1A       		.uleb128 0x1a
 1660 04f9 01       		.byte	0x1
 1661 04fa 51       		.byte	0x51
 1662 04fb 01       		.byte	0x1
 1663 04fc 32       		.byte	0x32
 1664 04fd 00       		.byte	0
 1665 04fe 18       		.uleb128 0x18
 1666 04ff 26000000 		.4byte	.LVL10
 1667 0503 7A0B0000 		.4byte	0xb7a
 1668 0507 1B       		.uleb128 0x1b
 1669 0508 2E000000 		.4byte	.LVL11
 1670 050c 01       		.byte	0x1
 1671 050d 840B0000 		.4byte	0xb84
 1672 0511 00       		.byte	0
 1673 0512 17       		.uleb128 0x17
 1674 0513 01       		.byte	0x1
 1675 0514 1A050000 		.4byte	.LASF123
 1676 0518 01       		.byte	0x1
 1677 0519 6A       		.byte	0x6a
 1678 051a 01       		.byte	0x1
 1679 051b 00000000 		.4byte	.LFB121
 1680 051f 2E000000 		.4byte	.LFE121
 1681 0523 60000000 		.4byte	.LLST3
 1682 0527 01       		.byte	0x1
ARM GAS  /tmp/cckljTkQ.s 			page 31


 1683 0528 58050000 		.4byte	0x558
 1684 052c 18       		.uleb128 0x18
 1685 052d 06000000 		.4byte	.LVL12
 1686 0531 700B0000 		.4byte	0xb70
 1687 0535 19       		.uleb128 0x19
 1688 0536 22000000 		.4byte	.LVL13
 1689 053a 44050000 		.4byte	0x544
 1690 053e 1A       		.uleb128 0x1a
 1691 053f 01       		.byte	0x1
 1692 0540 51       		.byte	0x51
 1693 0541 01       		.byte	0x1
 1694 0542 33       		.byte	0x33
 1695 0543 00       		.byte	0
 1696 0544 18       		.uleb128 0x18
 1697 0545 26000000 		.4byte	.LVL14
 1698 0549 7A0B0000 		.4byte	0xb7a
 1699 054d 1B       		.uleb128 0x1b
 1700 054e 2E000000 		.4byte	.LVL15
 1701 0552 01       		.byte	0x1
 1702 0553 840B0000 		.4byte	0xb84
 1703 0557 00       		.byte	0
 1704 0558 17       		.uleb128 0x17
 1705 0559 01       		.byte	0x1
 1706 055a 23050000 		.4byte	.LASF124
 1707 055e 01       		.byte	0x1
 1708 055f 79       		.byte	0x79
 1709 0560 01       		.byte	0x1
 1710 0561 00000000 		.4byte	.LFB122
 1711 0565 2E000000 		.4byte	.LFE122
 1712 0569 80000000 		.4byte	.LLST4
 1713 056d 01       		.byte	0x1
 1714 056e 9E050000 		.4byte	0x59e
 1715 0572 18       		.uleb128 0x18
 1716 0573 06000000 		.4byte	.LVL16
 1717 0577 700B0000 		.4byte	0xb70
 1718 057b 19       		.uleb128 0x19
 1719 057c 22000000 		.4byte	.LVL17
 1720 0580 8A050000 		.4byte	0x58a
 1721 0584 1A       		.uleb128 0x1a
 1722 0585 01       		.byte	0x1
 1723 0586 51       		.byte	0x51
 1724 0587 01       		.byte	0x1
 1725 0588 34       		.byte	0x34
 1726 0589 00       		.byte	0
 1727 058a 18       		.uleb128 0x18
 1728 058b 26000000 		.4byte	.LVL18
 1729 058f 7A0B0000 		.4byte	0xb7a
 1730 0593 1B       		.uleb128 0x1b
 1731 0594 2E000000 		.4byte	.LVL19
 1732 0598 01       		.byte	0x1
 1733 0599 840B0000 		.4byte	0xb84
 1734 059d 00       		.byte	0
 1735 059e 17       		.uleb128 0x17
 1736 059f 01       		.byte	0x1
 1737 05a0 25000000 		.4byte	.LASF125
 1738 05a4 01       		.byte	0x1
 1739 05a5 88       		.byte	0x88
ARM GAS  /tmp/cckljTkQ.s 			page 32


 1740 05a6 01       		.byte	0x1
 1741 05a7 00000000 		.4byte	.LFB123
 1742 05ab 74000000 		.4byte	.LFE123
 1743 05af A0000000 		.4byte	.LLST5
 1744 05b3 01       		.byte	0x1
 1745 05b4 2A060000 		.4byte	0x62a
 1746 05b8 1C       		.uleb128 0x1c
 1747 05b9 707200   		.ascii	"pr\000"
 1748 05bc 01       		.byte	0x1
 1749 05bd 89       		.byte	0x89
 1750 05be 65000000 		.4byte	0x65
 1751 05c2 C0000000 		.4byte	.LLST6
 1752 05c6 18       		.uleb128 0x18
 1753 05c7 06000000 		.4byte	.LVL20
 1754 05cb 700B0000 		.4byte	0xb70
 1755 05cf 19       		.uleb128 0x19
 1756 05d0 34000000 		.4byte	.LVL23
 1757 05d4 DE050000 		.4byte	0x5de
 1758 05d8 1A       		.uleb128 0x1a
 1759 05d9 01       		.byte	0x1
 1760 05da 51       		.byte	0x51
 1761 05db 01       		.byte	0x1
 1762 05dc 39       		.byte	0x39
 1763 05dd 00       		.byte	0
 1764 05de 18       		.uleb128 0x18
 1765 05df 38000000 		.4byte	.LVL24
 1766 05e3 7A0B0000 		.4byte	0xb7a
 1767 05e7 1B       		.uleb128 0x1b
 1768 05e8 40000000 		.4byte	.LVL25
 1769 05ec 01       		.byte	0x1
 1770 05ed 840B0000 		.4byte	0xb84
 1771 05f1 19       		.uleb128 0x19
 1772 05f2 4A000000 		.4byte	.LVL26
 1773 05f6 00060000 		.4byte	0x600
 1774 05fa 1A       		.uleb128 0x1a
 1775 05fb 01       		.byte	0x1
 1776 05fc 51       		.byte	0x51
 1777 05fd 01       		.byte	0x1
 1778 05fe 38       		.byte	0x38
 1779 05ff 00       		.byte	0
 1780 0600 19       		.uleb128 0x19
 1781 0601 56000000 		.4byte	.LVL27
 1782 0605 0F060000 		.4byte	0x60f
 1783 0609 1A       		.uleb128 0x1a
 1784 060a 01       		.byte	0x1
 1785 060b 51       		.byte	0x51
 1786 060c 01       		.byte	0x1
 1787 060d 37       		.byte	0x37
 1788 060e 00       		.byte	0
 1789 060f 19       		.uleb128 0x19
 1790 0610 62000000 		.4byte	.LVL28
 1791 0614 1E060000 		.4byte	0x61e
 1792 0618 1A       		.uleb128 0x1a
 1793 0619 01       		.byte	0x1
 1794 061a 51       		.byte	0x51
 1795 061b 01       		.byte	0x1
 1796 061c 36       		.byte	0x36
ARM GAS  /tmp/cckljTkQ.s 			page 33


 1797 061d 00       		.byte	0
 1798 061e 1D       		.uleb128 0x1d
 1799 061f 6E000000 		.4byte	.LVL30
 1800 0623 1A       		.uleb128 0x1a
 1801 0624 01       		.byte	0x1
 1802 0625 51       		.byte	0x51
 1803 0626 01       		.byte	0x1
 1804 0627 35       		.byte	0x35
 1805 0628 00       		.byte	0
 1806 0629 00       		.byte	0
 1807 062a 17       		.uleb128 0x17
 1808 062b 01       		.byte	0x1
 1809 062c D9040000 		.4byte	.LASF126
 1810 0630 01       		.byte	0x1
 1811 0631 A2       		.byte	0xa2
 1812 0632 01       		.byte	0x1
 1813 0633 00000000 		.4byte	.LFB124
 1814 0637 84000000 		.4byte	.LFE124
 1815 063b 00010000 		.4byte	.LLST7
 1816 063f 01       		.byte	0x1
 1817 0640 C5060000 		.4byte	0x6c5
 1818 0644 1C       		.uleb128 0x1c
 1819 0645 707200   		.ascii	"pr\000"
 1820 0648 01       		.byte	0x1
 1821 0649 A3       		.byte	0xa3
 1822 064a 65000000 		.4byte	0x65
 1823 064e 20010000 		.4byte	.LLST8
 1824 0652 18       		.uleb128 0x18
 1825 0653 06000000 		.4byte	.LVL31
 1826 0657 700B0000 		.4byte	0xb70
 1827 065b 19       		.uleb128 0x19
 1828 065c 38000000 		.4byte	.LVL34
 1829 0660 6A060000 		.4byte	0x66a
 1830 0664 1A       		.uleb128 0x1a
 1831 0665 01       		.byte	0x1
 1832 0666 51       		.byte	0x51
 1833 0667 01       		.byte	0x1
 1834 0668 3F       		.byte	0x3f
 1835 0669 00       		.byte	0
 1836 066a 18       		.uleb128 0x18
 1837 066b 3C000000 		.4byte	.LVL35
 1838 066f 7A0B0000 		.4byte	0xb7a
 1839 0673 1B       		.uleb128 0x1b
 1840 0674 44000000 		.4byte	.LVL36
 1841 0678 01       		.byte	0x1
 1842 0679 840B0000 		.4byte	0xb84
 1843 067d 19       		.uleb128 0x19
 1844 067e 4E000000 		.4byte	.LVL37
 1845 0682 8C060000 		.4byte	0x68c
 1846 0686 1A       		.uleb128 0x1a
 1847 0687 01       		.byte	0x1
 1848 0688 51       		.byte	0x51
 1849 0689 01       		.byte	0x1
 1850 068a 3E       		.byte	0x3e
 1851 068b 00       		.byte	0
 1852 068c 19       		.uleb128 0x19
 1853 068d 5A000000 		.4byte	.LVL38
ARM GAS  /tmp/cckljTkQ.s 			page 34


 1854 0691 9B060000 		.4byte	0x69b
 1855 0695 1A       		.uleb128 0x1a
 1856 0696 01       		.byte	0x1
 1857 0697 51       		.byte	0x51
 1858 0698 01       		.byte	0x1
 1859 0699 3D       		.byte	0x3d
 1860 069a 00       		.byte	0
 1861 069b 19       		.uleb128 0x19
 1862 069c 66000000 		.4byte	.LVL39
 1863 06a0 AA060000 		.4byte	0x6aa
 1864 06a4 1A       		.uleb128 0x1a
 1865 06a5 01       		.byte	0x1
 1866 06a6 51       		.byte	0x51
 1867 06a7 01       		.byte	0x1
 1868 06a8 3C       		.byte	0x3c
 1869 06a9 00       		.byte	0
 1870 06aa 19       		.uleb128 0x19
 1871 06ab 72000000 		.4byte	.LVL40
 1872 06af B9060000 		.4byte	0x6b9
 1873 06b3 1A       		.uleb128 0x1a
 1874 06b4 01       		.byte	0x1
 1875 06b5 51       		.byte	0x51
 1876 06b6 01       		.byte	0x1
 1877 06b7 3B       		.byte	0x3b
 1878 06b8 00       		.byte	0
 1879 06b9 1D       		.uleb128 0x1d
 1880 06ba 7E000000 		.4byte	.LVL42
 1881 06be 1A       		.uleb128 0x1a
 1882 06bf 01       		.byte	0x1
 1883 06c0 51       		.byte	0x51
 1884 06c1 01       		.byte	0x1
 1885 06c2 3A       		.byte	0x3a
 1886 06c3 00       		.byte	0
 1887 06c4 00       		.byte	0
 1888 06c5 17       		.uleb128 0x17
 1889 06c6 01       		.byte	0x1
 1890 06c7 C0060000 		.4byte	.LASF127
 1891 06cb 01       		.byte	0x1
 1892 06cc BF       		.byte	0xbf
 1893 06cd 01       		.byte	0x1
 1894 06ce 00000000 		.4byte	.LFB125
 1895 06d2 32000000 		.4byte	.LFE125
 1896 06d6 60010000 		.4byte	.LLST9
 1897 06da 01       		.byte	0x1
 1898 06db 0B070000 		.4byte	0x70b
 1899 06df 18       		.uleb128 0x18
 1900 06e0 06000000 		.4byte	.LVL43
 1901 06e4 700B0000 		.4byte	0xb70
 1902 06e8 19       		.uleb128 0x19
 1903 06e9 26000000 		.4byte	.LVL44
 1904 06ed F7060000 		.4byte	0x6f7
 1905 06f1 1A       		.uleb128 0x1a
 1906 06f2 01       		.byte	0x1
 1907 06f3 51       		.byte	0x51
 1908 06f4 01       		.byte	0x1
 1909 06f5 40       		.byte	0x40
 1910 06f6 00       		.byte	0
ARM GAS  /tmp/cckljTkQ.s 			page 35


 1911 06f7 18       		.uleb128 0x18
 1912 06f8 2A000000 		.4byte	.LVL45
 1913 06fc 7A0B0000 		.4byte	0xb7a
 1914 0700 1B       		.uleb128 0x1b
 1915 0701 32000000 		.4byte	.LVL46
 1916 0705 01       		.byte	0x1
 1917 0706 840B0000 		.4byte	0xb84
 1918 070a 00       		.byte	0
 1919 070b 17       		.uleb128 0x17
 1920 070c 01       		.byte	0x1
 1921 070d 56070000 		.4byte	.LASF128
 1922 0711 01       		.byte	0x1
 1923 0712 CE       		.byte	0xce
 1924 0713 01       		.byte	0x1
 1925 0714 00000000 		.4byte	.LFB126
 1926 0718 32000000 		.4byte	.LFE126
 1927 071c 80010000 		.4byte	.LLST10
 1928 0720 01       		.byte	0x1
 1929 0721 51070000 		.4byte	0x751
 1930 0725 18       		.uleb128 0x18
 1931 0726 06000000 		.4byte	.LVL47
 1932 072a 700B0000 		.4byte	0xb70
 1933 072e 19       		.uleb128 0x19
 1934 072f 26000000 		.4byte	.LVL48
 1935 0733 3D070000 		.4byte	0x73d
 1936 0737 1A       		.uleb128 0x1a
 1937 0738 01       		.byte	0x1
 1938 0739 51       		.byte	0x51
 1939 073a 01       		.byte	0x1
 1940 073b 41       		.byte	0x41
 1941 073c 00       		.byte	0
 1942 073d 18       		.uleb128 0x18
 1943 073e 2A000000 		.4byte	.LVL49
 1944 0742 7A0B0000 		.4byte	0xb7a
 1945 0746 1B       		.uleb128 0x1b
 1946 0747 32000000 		.4byte	.LVL50
 1947 074b 01       		.byte	0x1
 1948 074c 840B0000 		.4byte	0xb84
 1949 0750 00       		.byte	0
 1950 0751 17       		.uleb128 0x17
 1951 0752 01       		.byte	0x1
 1952 0753 FE040000 		.4byte	.LASF129
 1953 0757 01       		.byte	0x1
 1954 0758 DD       		.byte	0xdd
 1955 0759 01       		.byte	0x1
 1956 075a 00000000 		.4byte	.LFB127
 1957 075e 32000000 		.4byte	.LFE127
 1958 0762 A0010000 		.4byte	.LLST11
 1959 0766 01       		.byte	0x1
 1960 0767 97070000 		.4byte	0x797
 1961 076b 18       		.uleb128 0x18
 1962 076c 06000000 		.4byte	.LVL51
 1963 0770 700B0000 		.4byte	0xb70
 1964 0774 19       		.uleb128 0x19
 1965 0775 26000000 		.4byte	.LVL52
 1966 0779 83070000 		.4byte	0x783
 1967 077d 1A       		.uleb128 0x1a
ARM GAS  /tmp/cckljTkQ.s 			page 36


 1968 077e 01       		.byte	0x1
 1969 077f 51       		.byte	0x51
 1970 0780 01       		.byte	0x1
 1971 0781 42       		.byte	0x42
 1972 0782 00       		.byte	0
 1973 0783 18       		.uleb128 0x18
 1974 0784 2A000000 		.4byte	.LVL53
 1975 0788 7A0B0000 		.4byte	0xb7a
 1976 078c 1B       		.uleb128 0x1b
 1977 078d 32000000 		.4byte	.LVL54
 1978 0791 01       		.byte	0x1
 1979 0792 840B0000 		.4byte	0xb84
 1980 0796 00       		.byte	0
 1981 0797 17       		.uleb128 0x17
 1982 0798 01       		.byte	0x1
 1983 0799 6D000000 		.4byte	.LASF130
 1984 079d 01       		.byte	0x1
 1985 079e EC       		.byte	0xec
 1986 079f 01       		.byte	0x1
 1987 07a0 00000000 		.4byte	.LFB128
 1988 07a4 32000000 		.4byte	.LFE128
 1989 07a8 C0010000 		.4byte	.LLST12
 1990 07ac 01       		.byte	0x1
 1991 07ad DD070000 		.4byte	0x7dd
 1992 07b1 18       		.uleb128 0x18
 1993 07b2 06000000 		.4byte	.LVL55
 1994 07b6 700B0000 		.4byte	0xb70
 1995 07ba 19       		.uleb128 0x19
 1996 07bb 26000000 		.4byte	.LVL56
 1997 07bf C9070000 		.4byte	0x7c9
 1998 07c3 1A       		.uleb128 0x1a
 1999 07c4 01       		.byte	0x1
 2000 07c5 51       		.byte	0x51
 2001 07c6 01       		.byte	0x1
 2002 07c7 43       		.byte	0x43
 2003 07c8 00       		.byte	0
 2004 07c9 18       		.uleb128 0x18
 2005 07ca 2A000000 		.4byte	.LVL57
 2006 07ce 7A0B0000 		.4byte	0xb7a
 2007 07d2 1B       		.uleb128 0x1b
 2008 07d3 32000000 		.4byte	.LVL58
 2009 07d7 01       		.byte	0x1
 2010 07d8 840B0000 		.4byte	0xb84
 2011 07dc 00       		.byte	0
 2012 07dd 17       		.uleb128 0x17
 2013 07de 01       		.byte	0x1
 2014 07df 07050000 		.4byte	.LASF131
 2015 07e3 01       		.byte	0x1
 2016 07e4 FB       		.byte	0xfb
 2017 07e5 01       		.byte	0x1
 2018 07e6 00000000 		.4byte	.LFB129
 2019 07ea 32000000 		.4byte	.LFE129
 2020 07ee E0010000 		.4byte	.LLST13
 2021 07f2 01       		.byte	0x1
 2022 07f3 23080000 		.4byte	0x823
 2023 07f7 18       		.uleb128 0x18
 2024 07f8 06000000 		.4byte	.LVL59
ARM GAS  /tmp/cckljTkQ.s 			page 37


 2025 07fc 700B0000 		.4byte	0xb70
 2026 0800 19       		.uleb128 0x19
 2027 0801 26000000 		.4byte	.LVL60
 2028 0805 0F080000 		.4byte	0x80f
 2029 0809 1A       		.uleb128 0x1a
 2030 080a 01       		.byte	0x1
 2031 080b 51       		.byte	0x51
 2032 080c 01       		.byte	0x1
 2033 080d 44       		.byte	0x44
 2034 080e 00       		.byte	0
 2035 080f 18       		.uleb128 0x18
 2036 0810 2A000000 		.4byte	.LVL61
 2037 0814 7A0B0000 		.4byte	0xb7a
 2038 0818 1B       		.uleb128 0x1b
 2039 0819 32000000 		.4byte	.LVL62
 2040 081d 01       		.byte	0x1
 2041 081e 840B0000 		.4byte	0xb84
 2042 0822 00       		.byte	0
 2043 0823 1E       		.uleb128 0x1e
 2044 0824 01       		.byte	0x1
 2045 0825 29040000 		.4byte	.LASF132
 2046 0829 01       		.byte	0x1
 2047 082a 0A01     		.2byte	0x10a
 2048 082c 01       		.byte	0x1
 2049 082d 00000000 		.4byte	.LFB130
 2050 0831 32000000 		.4byte	.LFE130
 2051 0835 00020000 		.4byte	.LLST14
 2052 0839 01       		.byte	0x1
 2053 083a 6A080000 		.4byte	0x86a
 2054 083e 18       		.uleb128 0x18
 2055 083f 06000000 		.4byte	.LVL63
 2056 0843 700B0000 		.4byte	0xb70
 2057 0847 19       		.uleb128 0x19
 2058 0848 26000000 		.4byte	.LVL64
 2059 084c 56080000 		.4byte	0x856
 2060 0850 1A       		.uleb128 0x1a
 2061 0851 01       		.byte	0x1
 2062 0852 51       		.byte	0x51
 2063 0853 01       		.byte	0x1
 2064 0854 45       		.byte	0x45
 2065 0855 00       		.byte	0
 2066 0856 18       		.uleb128 0x18
 2067 0857 2A000000 		.4byte	.LVL65
 2068 085b 7A0B0000 		.4byte	0xb7a
 2069 085f 1B       		.uleb128 0x1b
 2070 0860 32000000 		.4byte	.LVL66
 2071 0864 01       		.byte	0x1
 2072 0865 840B0000 		.4byte	0xb84
 2073 0869 00       		.byte	0
 2074 086a 1E       		.uleb128 0x1e
 2075 086b 01       		.byte	0x1
 2076 086c CE020000 		.4byte	.LASF133
 2077 0870 01       		.byte	0x1
 2078 0871 1901     		.2byte	0x119
 2079 0873 01       		.byte	0x1
 2080 0874 00000000 		.4byte	.LFB131
 2081 0878 32000000 		.4byte	.LFE131
ARM GAS  /tmp/cckljTkQ.s 			page 38


 2082 087c 20020000 		.4byte	.LLST15
 2083 0880 01       		.byte	0x1
 2084 0881 B1080000 		.4byte	0x8b1
 2085 0885 18       		.uleb128 0x18
 2086 0886 06000000 		.4byte	.LVL67
 2087 088a 700B0000 		.4byte	0xb70
 2088 088e 19       		.uleb128 0x19
 2089 088f 26000000 		.4byte	.LVL68
 2090 0893 9D080000 		.4byte	0x89d
 2091 0897 1A       		.uleb128 0x1a
 2092 0898 01       		.byte	0x1
 2093 0899 51       		.byte	0x51
 2094 089a 01       		.byte	0x1
 2095 089b 46       		.byte	0x46
 2096 089c 00       		.byte	0
 2097 089d 18       		.uleb128 0x18
 2098 089e 2A000000 		.4byte	.LVL69
 2099 08a2 7A0B0000 		.4byte	0xb7a
 2100 08a6 1B       		.uleb128 0x1b
 2101 08a7 32000000 		.4byte	.LVL70
 2102 08ab 01       		.byte	0x1
 2103 08ac 840B0000 		.4byte	0xb84
 2104 08b0 00       		.byte	0
 2105 08b1 1E       		.uleb128 0x1e
 2106 08b2 01       		.byte	0x1
 2107 08b3 41030000 		.4byte	.LASF134
 2108 08b7 01       		.byte	0x1
 2109 08b8 2C01     		.2byte	0x12c
 2110 08ba 01       		.byte	0x1
 2111 08bb 00000000 		.4byte	.LFB132
 2112 08bf 76000000 		.4byte	.LFE132
 2113 08c3 40020000 		.4byte	.LLST16
 2114 08c7 01       		.byte	0x1
 2115 08c8 2D0A0000 		.4byte	0xa2d
 2116 08cc 1F       		.uleb128 0x1f
 2117 08cd 0A000000 		.4byte	.LVL71
 2118 08d1 8F0B0000 		.4byte	0xb8f
 2119 08d5 E5080000 		.4byte	0x8e5
 2120 08d9 1A       		.uleb128 0x1a
 2121 08da 01       		.byte	0x1
 2122 08db 51       		.byte	0x51
 2123 08dc 02       		.byte	0x2
 2124 08dd 08       		.byte	0x8
 2125 08de 60       		.byte	0x60
 2126 08df 1A       		.uleb128 0x1a
 2127 08e0 01       		.byte	0x1
 2128 08e1 50       		.byte	0x50
 2129 08e2 01       		.byte	0x1
 2130 08e3 36       		.byte	0x36
 2131 08e4 00       		.byte	0
 2132 08e5 1F       		.uleb128 0x1f
 2133 08e6 12000000 		.4byte	.LVL72
 2134 08ea 8F0B0000 		.4byte	0xb8f
 2135 08ee FE080000 		.4byte	0x8fe
 2136 08f2 1A       		.uleb128 0x1a
 2137 08f3 01       		.byte	0x1
 2138 08f4 51       		.byte	0x51
ARM GAS  /tmp/cckljTkQ.s 			page 39


 2139 08f5 02       		.byte	0x2
 2140 08f6 08       		.byte	0x8
 2141 08f7 60       		.byte	0x60
 2142 08f8 1A       		.uleb128 0x1a
 2143 08f9 01       		.byte	0x1
 2144 08fa 50       		.byte	0x50
 2145 08fb 01       		.byte	0x1
 2146 08fc 37       		.byte	0x37
 2147 08fd 00       		.byte	0
 2148 08fe 1F       		.uleb128 0x1f
 2149 08ff 1A000000 		.4byte	.LVL73
 2150 0903 8F0B0000 		.4byte	0xb8f
 2151 0907 17090000 		.4byte	0x917
 2152 090b 1A       		.uleb128 0x1a
 2153 090c 01       		.byte	0x1
 2154 090d 51       		.byte	0x51
 2155 090e 02       		.byte	0x2
 2156 090f 08       		.byte	0x8
 2157 0910 60       		.byte	0x60
 2158 0911 1A       		.uleb128 0x1a
 2159 0912 01       		.byte	0x1
 2160 0913 50       		.byte	0x50
 2161 0914 01       		.byte	0x1
 2162 0915 38       		.byte	0x38
 2163 0916 00       		.byte	0
 2164 0917 1F       		.uleb128 0x1f
 2165 0918 22000000 		.4byte	.LVL74
 2166 091c 8F0B0000 		.4byte	0xb8f
 2167 0920 30090000 		.4byte	0x930
 2168 0924 1A       		.uleb128 0x1a
 2169 0925 01       		.byte	0x1
 2170 0926 51       		.byte	0x51
 2171 0927 02       		.byte	0x2
 2172 0928 08       		.byte	0x8
 2173 0929 60       		.byte	0x60
 2174 092a 1A       		.uleb128 0x1a
 2175 092b 01       		.byte	0x1
 2176 092c 50       		.byte	0x50
 2177 092d 01       		.byte	0x1
 2178 092e 39       		.byte	0x39
 2179 092f 00       		.byte	0
 2180 0930 1F       		.uleb128 0x1f
 2181 0931 2A000000 		.4byte	.LVL75
 2182 0935 8F0B0000 		.4byte	0xb8f
 2183 0939 49090000 		.4byte	0x949
 2184 093d 1A       		.uleb128 0x1a
 2185 093e 01       		.byte	0x1
 2186 093f 51       		.byte	0x51
 2187 0940 02       		.byte	0x2
 2188 0941 08       		.byte	0x8
 2189 0942 60       		.byte	0x60
 2190 0943 1A       		.uleb128 0x1a
 2191 0944 01       		.byte	0x1
 2192 0945 50       		.byte	0x50
 2193 0946 01       		.byte	0x1
 2194 0947 3A       		.byte	0x3a
 2195 0948 00       		.byte	0
ARM GAS  /tmp/cckljTkQ.s 			page 40


 2196 0949 1F       		.uleb128 0x1f
 2197 094a 32000000 		.4byte	.LVL76
 2198 094e 8F0B0000 		.4byte	0xb8f
 2199 0952 62090000 		.4byte	0x962
 2200 0956 1A       		.uleb128 0x1a
 2201 0957 01       		.byte	0x1
 2202 0958 51       		.byte	0x51
 2203 0959 02       		.byte	0x2
 2204 095a 08       		.byte	0x8
 2205 095b 60       		.byte	0x60
 2206 095c 1A       		.uleb128 0x1a
 2207 095d 01       		.byte	0x1
 2208 095e 50       		.byte	0x50
 2209 095f 01       		.byte	0x1
 2210 0960 47       		.byte	0x47
 2211 0961 00       		.byte	0
 2212 0962 1F       		.uleb128 0x1f
 2213 0963 3A000000 		.4byte	.LVL77
 2214 0967 8F0B0000 		.4byte	0xb8f
 2215 096b 7C090000 		.4byte	0x97c
 2216 096f 1A       		.uleb128 0x1a
 2217 0970 01       		.byte	0x1
 2218 0971 51       		.byte	0x51
 2219 0972 02       		.byte	0x2
 2220 0973 08       		.byte	0x8
 2221 0974 60       		.byte	0x60
 2222 0975 1A       		.uleb128 0x1a
 2223 0976 01       		.byte	0x1
 2224 0977 50       		.byte	0x50
 2225 0978 02       		.byte	0x2
 2226 0979 08       		.byte	0x8
 2227 097a 28       		.byte	0x28
 2228 097b 00       		.byte	0
 2229 097c 1F       		.uleb128 0x1f
 2230 097d 42000000 		.4byte	.LVL78
 2231 0981 8F0B0000 		.4byte	0xb8f
 2232 0985 95090000 		.4byte	0x995
 2233 0989 1A       		.uleb128 0x1a
 2234 098a 01       		.byte	0x1
 2235 098b 51       		.byte	0x51
 2236 098c 02       		.byte	0x2
 2237 098d 08       		.byte	0x8
 2238 098e 60       		.byte	0x60
 2239 098f 1A       		.uleb128 0x1a
 2240 0990 01       		.byte	0x1
 2241 0991 50       		.byte	0x50
 2242 0992 01       		.byte	0x1
 2243 0993 31       		.byte	0x31
 2244 0994 00       		.byte	0
 2245 0995 1F       		.uleb128 0x1f
 2246 0996 4A000000 		.4byte	.LVL79
 2247 099a 8F0B0000 		.4byte	0xb8f
 2248 099e AF090000 		.4byte	0x9af
 2249 09a2 1A       		.uleb128 0x1a
 2250 09a3 01       		.byte	0x1
 2251 09a4 51       		.byte	0x51
 2252 09a5 02       		.byte	0x2
ARM GAS  /tmp/cckljTkQ.s 			page 41


 2253 09a6 08       		.byte	0x8
 2254 09a7 F0       		.byte	0xf0
 2255 09a8 1A       		.uleb128 0x1a
 2256 09a9 01       		.byte	0x1
 2257 09aa 50       		.byte	0x50
 2258 09ab 02       		.byte	0x2
 2259 09ac 08       		.byte	0x8
 2260 09ad 29       		.byte	0x29
 2261 09ae 00       		.byte	0
 2262 09af 1F       		.uleb128 0x1f
 2263 09b0 52000000 		.4byte	.LVL80
 2264 09b4 8F0B0000 		.4byte	0xb8f
 2265 09b8 C9090000 		.4byte	0x9c9
 2266 09bc 1A       		.uleb128 0x1a
 2267 09bd 01       		.byte	0x1
 2268 09be 51       		.byte	0x51
 2269 09bf 02       		.byte	0x2
 2270 09c0 08       		.byte	0x8
 2271 09c1 60       		.byte	0x60
 2272 09c2 1A       		.uleb128 0x1a
 2273 09c3 01       		.byte	0x1
 2274 09c4 50       		.byte	0x50
 2275 09c5 02       		.byte	0x2
 2276 09c6 08       		.byte	0x8
 2277 09c7 2A       		.byte	0x2a
 2278 09c8 00       		.byte	0
 2279 09c9 1F       		.uleb128 0x1f
 2280 09ca 5A000000 		.4byte	.LVL81
 2281 09ce 8F0B0000 		.4byte	0xb8f
 2282 09d2 E3090000 		.4byte	0x9e3
 2283 09d6 1A       		.uleb128 0x1a
 2284 09d7 01       		.byte	0x1
 2285 09d8 51       		.byte	0x51
 2286 09d9 02       		.byte	0x2
 2287 09da 08       		.byte	0x8
 2288 09db 60       		.byte	0x60
 2289 09dc 1A       		.uleb128 0x1a
 2290 09dd 01       		.byte	0x1
 2291 09de 50       		.byte	0x50
 2292 09df 02       		.byte	0x2
 2293 09e0 08       		.byte	0x8
 2294 09e1 3E       		.byte	0x3e
 2295 09e2 00       		.byte	0
 2296 09e3 1F       		.uleb128 0x1f
 2297 09e4 62000000 		.4byte	.LVL82
 2298 09e8 8F0B0000 		.4byte	0xb8f
 2299 09ec FD090000 		.4byte	0x9fd
 2300 09f0 1A       		.uleb128 0x1a
 2301 09f1 01       		.byte	0x1
 2302 09f2 51       		.byte	0x51
 2303 09f3 02       		.byte	0x2
 2304 09f4 08       		.byte	0x8
 2305 09f5 60       		.byte	0x60
 2306 09f6 1A       		.uleb128 0x1a
 2307 09f7 01       		.byte	0x1
 2308 09f8 50       		.byte	0x50
 2309 09f9 02       		.byte	0x2
ARM GAS  /tmp/cckljTkQ.s 			page 42


 2310 09fa 08       		.byte	0x8
 2311 09fb 4C       		.byte	0x4c
 2312 09fc 00       		.byte	0
 2313 09fd 1F       		.uleb128 0x1f
 2314 09fe 6A000000 		.4byte	.LVL83
 2315 0a02 8F0B0000 		.4byte	0xb8f
 2316 0a06 160A0000 		.4byte	0xa16
 2317 0a0a 1A       		.uleb128 0x1a
 2318 0a0b 01       		.byte	0x1
 2319 0a0c 51       		.byte	0x51
 2320 0a0d 02       		.byte	0x2
 2321 0a0e 08       		.byte	0x8
 2322 0a0f F0       		.byte	0xf0
 2323 0a10 1A       		.uleb128 0x1a
 2324 0a11 01       		.byte	0x1
 2325 0a12 50       		.byte	0x50
 2326 0a13 01       		.byte	0x1
 2327 0a14 32       		.byte	0x32
 2328 0a15 00       		.byte	0
 2329 0a16 20       		.uleb128 0x20
 2330 0a17 76000000 		.4byte	.LVL84
 2331 0a1b 01       		.byte	0x1
 2332 0a1c 8F0B0000 		.4byte	0xb8f
 2333 0a20 1A       		.uleb128 0x1a
 2334 0a21 01       		.byte	0x1
 2335 0a22 51       		.byte	0x51
 2336 0a23 02       		.byte	0x2
 2337 0a24 08       		.byte	0x8
 2338 0a25 F0       		.byte	0xf0
 2339 0a26 1A       		.uleb128 0x1a
 2340 0a27 01       		.byte	0x1
 2341 0a28 50       		.byte	0x50
 2342 0a29 01       		.byte	0x1
 2343 0a2a 33       		.byte	0x33
 2344 0a2b 00       		.byte	0
 2345 0a2c 00       		.byte	0
 2346 0a2d 1E       		.uleb128 0x1e
 2347 0a2e 01       		.byte	0x1
 2348 0a2f 37020000 		.4byte	.LASF135
 2349 0a33 01       		.byte	0x1
 2350 0a34 5101     		.2byte	0x151
 2351 0a36 01       		.byte	0x1
 2352 0a37 00000000 		.4byte	.LFB133
 2353 0a3b 5A000000 		.4byte	.LFE133
 2354 0a3f 60020000 		.4byte	.LLST17
 2355 0a43 01       		.byte	0x1
 2356 0a44 550B0000 		.4byte	0xb55
 2357 0a48 1F       		.uleb128 0x1f
 2358 0a49 08000000 		.4byte	.LVL85
 2359 0a4d A90B0000 		.4byte	0xba9
 2360 0a51 5B0A0000 		.4byte	0xa5b
 2361 0a55 1A       		.uleb128 0x1a
 2362 0a56 01       		.byte	0x1
 2363 0a57 50       		.byte	0x50
 2364 0a58 01       		.byte	0x1
 2365 0a59 36       		.byte	0x36
 2366 0a5a 00       		.byte	0
ARM GAS  /tmp/cckljTkQ.s 			page 43


 2367 0a5b 1F       		.uleb128 0x1f
 2368 0a5c 0E000000 		.4byte	.LVL86
 2369 0a60 A90B0000 		.4byte	0xba9
 2370 0a64 6E0A0000 		.4byte	0xa6e
 2371 0a68 1A       		.uleb128 0x1a
 2372 0a69 01       		.byte	0x1
 2373 0a6a 50       		.byte	0x50
 2374 0a6b 01       		.byte	0x1
 2375 0a6c 37       		.byte	0x37
 2376 0a6d 00       		.byte	0
 2377 0a6e 1F       		.uleb128 0x1f
 2378 0a6f 14000000 		.4byte	.LVL87
 2379 0a73 A90B0000 		.4byte	0xba9
 2380 0a77 810A0000 		.4byte	0xa81
 2381 0a7b 1A       		.uleb128 0x1a
 2382 0a7c 01       		.byte	0x1
 2383 0a7d 50       		.byte	0x50
 2384 0a7e 01       		.byte	0x1
 2385 0a7f 38       		.byte	0x38
 2386 0a80 00       		.byte	0
 2387 0a81 1F       		.uleb128 0x1f
 2388 0a82 1A000000 		.4byte	.LVL88
 2389 0a86 A90B0000 		.4byte	0xba9
 2390 0a8a 940A0000 		.4byte	0xa94
 2391 0a8e 1A       		.uleb128 0x1a
 2392 0a8f 01       		.byte	0x1
 2393 0a90 50       		.byte	0x50
 2394 0a91 01       		.byte	0x1
 2395 0a92 39       		.byte	0x39
 2396 0a93 00       		.byte	0
 2397 0a94 1F       		.uleb128 0x1f
 2398 0a95 20000000 		.4byte	.LVL89
 2399 0a99 A90B0000 		.4byte	0xba9
 2400 0a9d A70A0000 		.4byte	0xaa7
 2401 0aa1 1A       		.uleb128 0x1a
 2402 0aa2 01       		.byte	0x1
 2403 0aa3 50       		.byte	0x50
 2404 0aa4 01       		.byte	0x1
 2405 0aa5 3A       		.byte	0x3a
 2406 0aa6 00       		.byte	0
 2407 0aa7 1F       		.uleb128 0x1f
 2408 0aa8 26000000 		.4byte	.LVL90
 2409 0aac A90B0000 		.4byte	0xba9
 2410 0ab0 BA0A0000 		.4byte	0xaba
 2411 0ab4 1A       		.uleb128 0x1a
 2412 0ab5 01       		.byte	0x1
 2413 0ab6 50       		.byte	0x50
 2414 0ab7 01       		.byte	0x1
 2415 0ab8 47       		.byte	0x47
 2416 0ab9 00       		.byte	0
 2417 0aba 1F       		.uleb128 0x1f
 2418 0abb 2C000000 		.4byte	.LVL91
 2419 0abf A90B0000 		.4byte	0xba9
 2420 0ac3 CE0A0000 		.4byte	0xace
 2421 0ac7 1A       		.uleb128 0x1a
 2422 0ac8 01       		.byte	0x1
 2423 0ac9 50       		.byte	0x50
ARM GAS  /tmp/cckljTkQ.s 			page 44


 2424 0aca 02       		.byte	0x2
 2425 0acb 08       		.byte	0x8
 2426 0acc 28       		.byte	0x28
 2427 0acd 00       		.byte	0
 2428 0ace 1F       		.uleb128 0x1f
 2429 0acf 32000000 		.4byte	.LVL92
 2430 0ad3 A90B0000 		.4byte	0xba9
 2431 0ad7 E10A0000 		.4byte	0xae1
 2432 0adb 1A       		.uleb128 0x1a
 2433 0adc 01       		.byte	0x1
 2434 0add 50       		.byte	0x50
 2435 0ade 01       		.byte	0x1
 2436 0adf 31       		.byte	0x31
 2437 0ae0 00       		.byte	0
 2438 0ae1 1F       		.uleb128 0x1f
 2439 0ae2 38000000 		.4byte	.LVL93
 2440 0ae6 A90B0000 		.4byte	0xba9
 2441 0aea F50A0000 		.4byte	0xaf5
 2442 0aee 1A       		.uleb128 0x1a
 2443 0aef 01       		.byte	0x1
 2444 0af0 50       		.byte	0x50
 2445 0af1 02       		.byte	0x2
 2446 0af2 08       		.byte	0x8
 2447 0af3 29       		.byte	0x29
 2448 0af4 00       		.byte	0
 2449 0af5 1F       		.uleb128 0x1f
 2450 0af6 3E000000 		.4byte	.LVL94
 2451 0afa A90B0000 		.4byte	0xba9
 2452 0afe 090B0000 		.4byte	0xb09
 2453 0b02 1A       		.uleb128 0x1a
 2454 0b03 01       		.byte	0x1
 2455 0b04 50       		.byte	0x50
 2456 0b05 02       		.byte	0x2
 2457 0b06 08       		.byte	0x8
 2458 0b07 2A       		.byte	0x2a
 2459 0b08 00       		.byte	0
 2460 0b09 1F       		.uleb128 0x1f
 2461 0b0a 44000000 		.4byte	.LVL95
 2462 0b0e A90B0000 		.4byte	0xba9
 2463 0b12 1D0B0000 		.4byte	0xb1d
 2464 0b16 1A       		.uleb128 0x1a
 2465 0b17 01       		.byte	0x1
 2466 0b18 50       		.byte	0x50
 2467 0b19 02       		.byte	0x2
 2468 0b1a 08       		.byte	0x8
 2469 0b1b 3E       		.byte	0x3e
 2470 0b1c 00       		.byte	0
 2471 0b1d 1F       		.uleb128 0x1f
 2472 0b1e 4A000000 		.4byte	.LVL96
 2473 0b22 A90B0000 		.4byte	0xba9
 2474 0b26 310B0000 		.4byte	0xb31
 2475 0b2a 1A       		.uleb128 0x1a
 2476 0b2b 01       		.byte	0x1
 2477 0b2c 50       		.byte	0x50
 2478 0b2d 02       		.byte	0x2
 2479 0b2e 08       		.byte	0x8
 2480 0b2f 4C       		.byte	0x4c
ARM GAS  /tmp/cckljTkQ.s 			page 45


 2481 0b30 00       		.byte	0
 2482 0b31 1F       		.uleb128 0x1f
 2483 0b32 50000000 		.4byte	.LVL97
 2484 0b36 A90B0000 		.4byte	0xba9
 2485 0b3a 440B0000 		.4byte	0xb44
 2486 0b3e 1A       		.uleb128 0x1a
 2487 0b3f 01       		.byte	0x1
 2488 0b40 50       		.byte	0x50
 2489 0b41 01       		.byte	0x1
 2490 0b42 32       		.byte	0x32
 2491 0b43 00       		.byte	0
 2492 0b44 20       		.uleb128 0x20
 2493 0b45 5A000000 		.4byte	.LVL98
 2494 0b49 01       		.byte	0x1
 2495 0b4a A90B0000 		.4byte	0xba9
 2496 0b4e 1A       		.uleb128 0x1a
 2497 0b4f 01       		.byte	0x1
 2498 0b50 50       		.byte	0x50
 2499 0b51 01       		.byte	0x1
 2500 0b52 33       		.byte	0x33
 2501 0b53 00       		.byte	0
 2502 0b54 00       		.byte	0
 2503 0b55 21       		.uleb128 0x21
 2504 0b56 92050000 		.4byte	.LASF136
 2505 0b5a 06       		.byte	0x6
 2506 0b5b 9806     		.2byte	0x698
 2507 0b5d D3020000 		.4byte	0x2d3
 2508 0b61 01       		.byte	0x1
 2509 0b62 01       		.byte	0x1
 2510 0b63 22       		.uleb128 0x22
 2511 0b64 92070000 		.4byte	.LASF137
 2512 0b68 05       		.byte	0x5
 2513 0b69 8A       		.byte	0x8a
 2514 0b6a 6D030000 		.4byte	0x36d
 2515 0b6e 01       		.byte	0x1
 2516 0b6f 01       		.byte	0x1
 2517 0b70 23       		.uleb128 0x23
 2518 0b71 01       		.byte	0x1
 2519 0b72 25070000 		.4byte	.LASF138
 2520 0b76 07       		.byte	0x7
 2521 0b77 E4       		.byte	0xe4
 2522 0b78 01       		.byte	0x1
 2523 0b79 01       		.byte	0x1
 2524 0b7a 23       		.uleb128 0x23
 2525 0b7b 01       		.byte	0x1
 2526 0b7c EA050000 		.4byte	.LASF139
 2527 0b80 07       		.byte	0x7
 2528 0b81 E5       		.byte	0xe5
 2529 0b82 01       		.byte	0x1
 2530 0b83 01       		.byte	0x1
 2531 0b84 24       		.uleb128 0x24
 2532 0b85 01       		.byte	0x1
 2533 0b86 BB020000 		.4byte	.LASF140
 2534 0b8a 08       		.byte	0x8
 2535 0b8b FC01     		.2byte	0x1fc
 2536 0b8d 01       		.byte	0x1
 2537 0b8e 01       		.byte	0x1
ARM GAS  /tmp/cckljTkQ.s 			page 46


 2538 0b8f 25       		.uleb128 0x25
 2539 0b90 01       		.byte	0x1
 2540 0b91 E4000000 		.4byte	.LASF145
 2541 0b95 09       		.byte	0x9
 2542 0b96 1C01     		.2byte	0x11c
 2543 0b98 01       		.byte	0x1
 2544 0b99 01       		.byte	0x1
 2545 0b9a A90B0000 		.4byte	0xba9
 2546 0b9e 11       		.uleb128 0x11
 2547 0b9f 65000000 		.4byte	0x65
 2548 0ba3 11       		.uleb128 0x11
 2549 0ba4 65000000 		.4byte	0x65
 2550 0ba8 00       		.byte	0
 2551 0ba9 26       		.uleb128 0x26
 2552 0baa 01       		.byte	0x1
 2553 0bab 39060000 		.4byte	.LASF146
 2554 0baf 09       		.byte	0x9
 2555 0bb0 1D01     		.2byte	0x11d
 2556 0bb2 01       		.byte	0x1
 2557 0bb3 01       		.byte	0x1
 2558 0bb4 11       		.uleb128 0x11
 2559 0bb5 65000000 		.4byte	0x65
 2560 0bb9 00       		.byte	0
 2561 0bba 00       		.byte	0
 2562              		.section	.debug_abbrev,"",%progbits
 2563              	.Ldebug_abbrev0:
 2564 0000 01       		.uleb128 0x1
 2565 0001 11       		.uleb128 0x11
 2566 0002 01       		.byte	0x1
 2567 0003 25       		.uleb128 0x25
 2568 0004 0E       		.uleb128 0xe
 2569 0005 13       		.uleb128 0x13
 2570 0006 0B       		.uleb128 0xb
 2571 0007 03       		.uleb128 0x3
 2572 0008 0E       		.uleb128 0xe
 2573 0009 1B       		.uleb128 0x1b
 2574 000a 0E       		.uleb128 0xe
 2575 000b 55       		.uleb128 0x55
 2576 000c 06       		.uleb128 0x6
 2577 000d 11       		.uleb128 0x11
 2578 000e 01       		.uleb128 0x1
 2579 000f 52       		.uleb128 0x52
 2580 0010 01       		.uleb128 0x1
 2581 0011 10       		.uleb128 0x10
 2582 0012 06       		.uleb128 0x6
 2583 0013 00       		.byte	0
 2584 0014 00       		.byte	0
 2585 0015 02       		.uleb128 0x2
 2586 0016 24       		.uleb128 0x24
 2587 0017 00       		.byte	0
 2588 0018 0B       		.uleb128 0xb
 2589 0019 0B       		.uleb128 0xb
 2590 001a 3E       		.uleb128 0x3e
 2591 001b 0B       		.uleb128 0xb
 2592 001c 03       		.uleb128 0x3
 2593 001d 08       		.uleb128 0x8
 2594 001e 00       		.byte	0
ARM GAS  /tmp/cckljTkQ.s 			page 47


 2595 001f 00       		.byte	0
 2596 0020 03       		.uleb128 0x3
 2597 0021 24       		.uleb128 0x24
 2598 0022 00       		.byte	0
 2599 0023 0B       		.uleb128 0xb
 2600 0024 0B       		.uleb128 0xb
 2601 0025 3E       		.uleb128 0x3e
 2602 0026 0B       		.uleb128 0xb
 2603 0027 03       		.uleb128 0x3
 2604 0028 0E       		.uleb128 0xe
 2605 0029 00       		.byte	0
 2606 002a 00       		.byte	0
 2607 002b 04       		.uleb128 0x4
 2608 002c 16       		.uleb128 0x16
 2609 002d 00       		.byte	0
 2610 002e 03       		.uleb128 0x3
 2611 002f 0E       		.uleb128 0xe
 2612 0030 3A       		.uleb128 0x3a
 2613 0031 0B       		.uleb128 0xb
 2614 0032 3B       		.uleb128 0x3b
 2615 0033 0B       		.uleb128 0xb
 2616 0034 49       		.uleb128 0x49
 2617 0035 13       		.uleb128 0x13
 2618 0036 00       		.byte	0
 2619 0037 00       		.byte	0
 2620 0038 05       		.uleb128 0x5
 2621 0039 35       		.uleb128 0x35
 2622 003a 00       		.byte	0
 2623 003b 49       		.uleb128 0x49
 2624 003c 13       		.uleb128 0x13
 2625 003d 00       		.byte	0
 2626 003e 00       		.byte	0
 2627 003f 06       		.uleb128 0x6
 2628 0040 04       		.uleb128 0x4
 2629 0041 01       		.byte	0x1
 2630 0042 03       		.uleb128 0x3
 2631 0043 0E       		.uleb128 0xe
 2632 0044 0B       		.uleb128 0xb
 2633 0045 0B       		.uleb128 0xb
 2634 0046 3A       		.uleb128 0x3a
 2635 0047 0B       		.uleb128 0xb
 2636 0048 3B       		.uleb128 0x3b
 2637 0049 0B       		.uleb128 0xb
 2638 004a 01       		.uleb128 0x1
 2639 004b 13       		.uleb128 0x13
 2640 004c 00       		.byte	0
 2641 004d 00       		.byte	0
 2642 004e 07       		.uleb128 0x7
 2643 004f 28       		.uleb128 0x28
 2644 0050 00       		.byte	0
 2645 0051 03       		.uleb128 0x3
 2646 0052 0E       		.uleb128 0xe
 2647 0053 1C       		.uleb128 0x1c
 2648 0054 0D       		.uleb128 0xd
 2649 0055 00       		.byte	0
 2650 0056 00       		.byte	0
 2651 0057 08       		.uleb128 0x8
ARM GAS  /tmp/cckljTkQ.s 			page 48


 2652 0058 13       		.uleb128 0x13
 2653 0059 01       		.byte	0x1
 2654 005a 0B       		.uleb128 0xb
 2655 005b 0B       		.uleb128 0xb
 2656 005c 3A       		.uleb128 0x3a
 2657 005d 0B       		.uleb128 0xb
 2658 005e 3B       		.uleb128 0x3b
 2659 005f 05       		.uleb128 0x5
 2660 0060 01       		.uleb128 0x1
 2661 0061 13       		.uleb128 0x13
 2662 0062 00       		.byte	0
 2663 0063 00       		.byte	0
 2664 0064 09       		.uleb128 0x9
 2665 0065 0D       		.uleb128 0xd
 2666 0066 00       		.byte	0
 2667 0067 03       		.uleb128 0x3
 2668 0068 08       		.uleb128 0x8
 2669 0069 3A       		.uleb128 0x3a
 2670 006a 0B       		.uleb128 0xb
 2671 006b 3B       		.uleb128 0x3b
 2672 006c 05       		.uleb128 0x5
 2673 006d 49       		.uleb128 0x49
 2674 006e 13       		.uleb128 0x13
 2675 006f 38       		.uleb128 0x38
 2676 0070 0A       		.uleb128 0xa
 2677 0071 00       		.byte	0
 2678 0072 00       		.byte	0
 2679 0073 0A       		.uleb128 0xa
 2680 0074 0D       		.uleb128 0xd
 2681 0075 00       		.byte	0
 2682 0076 03       		.uleb128 0x3
 2683 0077 0E       		.uleb128 0xe
 2684 0078 3A       		.uleb128 0x3a
 2685 0079 0B       		.uleb128 0xb
 2686 007a 3B       		.uleb128 0x3b
 2687 007b 05       		.uleb128 0x5
 2688 007c 49       		.uleb128 0x49
 2689 007d 13       		.uleb128 0x13
 2690 007e 38       		.uleb128 0x38
 2691 007f 0A       		.uleb128 0xa
 2692 0080 00       		.byte	0
 2693 0081 00       		.byte	0
 2694 0082 0B       		.uleb128 0xb
 2695 0083 16       		.uleb128 0x16
 2696 0084 00       		.byte	0
 2697 0085 03       		.uleb128 0x3
 2698 0086 0E       		.uleb128 0xe
 2699 0087 3A       		.uleb128 0x3a
 2700 0088 0B       		.uleb128 0xb
 2701 0089 3B       		.uleb128 0x3b
 2702 008a 05       		.uleb128 0x5
 2703 008b 49       		.uleb128 0x49
 2704 008c 13       		.uleb128 0x13
 2705 008d 00       		.byte	0
 2706 008e 00       		.byte	0
 2707 008f 0C       		.uleb128 0xc
 2708 0090 04       		.uleb128 0x4
ARM GAS  /tmp/cckljTkQ.s 			page 49


 2709 0091 01       		.byte	0x1
 2710 0092 0B       		.uleb128 0xb
 2711 0093 0B       		.uleb128 0xb
 2712 0094 3A       		.uleb128 0x3a
 2713 0095 0B       		.uleb128 0xb
 2714 0096 3B       		.uleb128 0x3b
 2715 0097 0B       		.uleb128 0xb
 2716 0098 01       		.uleb128 0x1
 2717 0099 13       		.uleb128 0x13
 2718 009a 00       		.byte	0
 2719 009b 00       		.byte	0
 2720 009c 0D       		.uleb128 0xd
 2721 009d 13       		.uleb128 0x13
 2722 009e 01       		.byte	0x1
 2723 009f 03       		.uleb128 0x3
 2724 00a0 0E       		.uleb128 0xe
 2725 00a1 0B       		.uleb128 0xb
 2726 00a2 0B       		.uleb128 0xb
 2727 00a3 3A       		.uleb128 0x3a
 2728 00a4 0B       		.uleb128 0xb
 2729 00a5 3B       		.uleb128 0x3b
 2730 00a6 0B       		.uleb128 0xb
 2731 00a7 01       		.uleb128 0x1
 2732 00a8 13       		.uleb128 0x13
 2733 00a9 00       		.byte	0
 2734 00aa 00       		.byte	0
 2735 00ab 0E       		.uleb128 0xe
 2736 00ac 0D       		.uleb128 0xd
 2737 00ad 00       		.byte	0
 2738 00ae 03       		.uleb128 0x3
 2739 00af 0E       		.uleb128 0xe
 2740 00b0 3A       		.uleb128 0x3a
 2741 00b1 0B       		.uleb128 0xb
 2742 00b2 3B       		.uleb128 0x3b
 2743 00b3 0B       		.uleb128 0xb
 2744 00b4 49       		.uleb128 0x49
 2745 00b5 13       		.uleb128 0x13
 2746 00b6 38       		.uleb128 0x38
 2747 00b7 0A       		.uleb128 0xa
 2748 00b8 00       		.byte	0
 2749 00b9 00       		.byte	0
 2750 00ba 0F       		.uleb128 0xf
 2751 00bb 0F       		.uleb128 0xf
 2752 00bc 00       		.byte	0
 2753 00bd 0B       		.uleb128 0xb
 2754 00be 0B       		.uleb128 0xb
 2755 00bf 49       		.uleb128 0x49
 2756 00c0 13       		.uleb128 0x13
 2757 00c1 00       		.byte	0
 2758 00c2 00       		.byte	0
 2759 00c3 10       		.uleb128 0x10
 2760 00c4 15       		.uleb128 0x15
 2761 00c5 01       		.byte	0x1
 2762 00c6 27       		.uleb128 0x27
 2763 00c7 0C       		.uleb128 0xc
 2764 00c8 01       		.uleb128 0x1
 2765 00c9 13       		.uleb128 0x13
ARM GAS  /tmp/cckljTkQ.s 			page 50


 2766 00ca 00       		.byte	0
 2767 00cb 00       		.byte	0
 2768 00cc 11       		.uleb128 0x11
 2769 00cd 05       		.uleb128 0x5
 2770 00ce 00       		.byte	0
 2771 00cf 49       		.uleb128 0x49
 2772 00d0 13       		.uleb128 0x13
 2773 00d1 00       		.byte	0
 2774 00d2 00       		.byte	0
 2775 00d3 12       		.uleb128 0x12
 2776 00d4 13       		.uleb128 0x13
 2777 00d5 01       		.byte	0x1
 2778 00d6 0B       		.uleb128 0xb
 2779 00d7 0B       		.uleb128 0xb
 2780 00d8 3A       		.uleb128 0x3a
 2781 00d9 0B       		.uleb128 0xb
 2782 00da 3B       		.uleb128 0x3b
 2783 00db 0B       		.uleb128 0xb
 2784 00dc 01       		.uleb128 0x1
 2785 00dd 13       		.uleb128 0x13
 2786 00de 00       		.byte	0
 2787 00df 00       		.byte	0
 2788 00e0 13       		.uleb128 0x13
 2789 00e1 0D       		.uleb128 0xd
 2790 00e2 00       		.byte	0
 2791 00e3 03       		.uleb128 0x3
 2792 00e4 08       		.uleb128 0x8
 2793 00e5 3A       		.uleb128 0x3a
 2794 00e6 0B       		.uleb128 0xb
 2795 00e7 3B       		.uleb128 0x3b
 2796 00e8 0B       		.uleb128 0xb
 2797 00e9 49       		.uleb128 0x49
 2798 00ea 13       		.uleb128 0x13
 2799 00eb 38       		.uleb128 0x38
 2800 00ec 0A       		.uleb128 0xa
 2801 00ed 00       		.byte	0
 2802 00ee 00       		.byte	0
 2803 00ef 14       		.uleb128 0x14
 2804 00f0 01       		.uleb128 0x1
 2805 00f1 01       		.byte	0x1
 2806 00f2 49       		.uleb128 0x49
 2807 00f3 13       		.uleb128 0x13
 2808 00f4 01       		.uleb128 0x1
 2809 00f5 13       		.uleb128 0x13
 2810 00f6 00       		.byte	0
 2811 00f7 00       		.byte	0
 2812 00f8 15       		.uleb128 0x15
 2813 00f9 21       		.uleb128 0x21
 2814 00fa 00       		.byte	0
 2815 00fb 49       		.uleb128 0x49
 2816 00fc 13       		.uleb128 0x13
 2817 00fd 2F       		.uleb128 0x2f
 2818 00fe 0B       		.uleb128 0xb
 2819 00ff 00       		.byte	0
 2820 0100 00       		.byte	0
 2821 0101 16       		.uleb128 0x16
 2822 0102 26       		.uleb128 0x26
ARM GAS  /tmp/cckljTkQ.s 			page 51


 2823 0103 00       		.byte	0
 2824 0104 49       		.uleb128 0x49
 2825 0105 13       		.uleb128 0x13
 2826 0106 00       		.byte	0
 2827 0107 00       		.byte	0
 2828 0108 17       		.uleb128 0x17
 2829 0109 2E       		.uleb128 0x2e
 2830 010a 01       		.byte	0x1
 2831 010b 3F       		.uleb128 0x3f
 2832 010c 0C       		.uleb128 0xc
 2833 010d 03       		.uleb128 0x3
 2834 010e 0E       		.uleb128 0xe
 2835 010f 3A       		.uleb128 0x3a
 2836 0110 0B       		.uleb128 0xb
 2837 0111 3B       		.uleb128 0x3b
 2838 0112 0B       		.uleb128 0xb
 2839 0113 27       		.uleb128 0x27
 2840 0114 0C       		.uleb128 0xc
 2841 0115 11       		.uleb128 0x11
 2842 0116 01       		.uleb128 0x1
 2843 0117 12       		.uleb128 0x12
 2844 0118 01       		.uleb128 0x1
 2845 0119 40       		.uleb128 0x40
 2846 011a 06       		.uleb128 0x6
 2847 011b 9742     		.uleb128 0x2117
 2848 011d 0C       		.uleb128 0xc
 2849 011e 01       		.uleb128 0x1
 2850 011f 13       		.uleb128 0x13
 2851 0120 00       		.byte	0
 2852 0121 00       		.byte	0
 2853 0122 18       		.uleb128 0x18
 2854 0123 898201   		.uleb128 0x4109
 2855 0126 00       		.byte	0
 2856 0127 11       		.uleb128 0x11
 2857 0128 01       		.uleb128 0x1
 2858 0129 31       		.uleb128 0x31
 2859 012a 13       		.uleb128 0x13
 2860 012b 00       		.byte	0
 2861 012c 00       		.byte	0
 2862 012d 19       		.uleb128 0x19
 2863 012e 898201   		.uleb128 0x4109
 2864 0131 01       		.byte	0x1
 2865 0132 11       		.uleb128 0x11
 2866 0133 01       		.uleb128 0x1
 2867 0134 01       		.uleb128 0x1
 2868 0135 13       		.uleb128 0x13
 2869 0136 00       		.byte	0
 2870 0137 00       		.byte	0
 2871 0138 1A       		.uleb128 0x1a
 2872 0139 8A8201   		.uleb128 0x410a
 2873 013c 00       		.byte	0
 2874 013d 02       		.uleb128 0x2
 2875 013e 0A       		.uleb128 0xa
 2876 013f 9142     		.uleb128 0x2111
 2877 0141 0A       		.uleb128 0xa
 2878 0142 00       		.byte	0
 2879 0143 00       		.byte	0
ARM GAS  /tmp/cckljTkQ.s 			page 52


 2880 0144 1B       		.uleb128 0x1b
 2881 0145 898201   		.uleb128 0x4109
 2882 0148 00       		.byte	0
 2883 0149 11       		.uleb128 0x11
 2884 014a 01       		.uleb128 0x1
 2885 014b 9542     		.uleb128 0x2115
 2886 014d 0C       		.uleb128 0xc
 2887 014e 31       		.uleb128 0x31
 2888 014f 13       		.uleb128 0x13
 2889 0150 00       		.byte	0
 2890 0151 00       		.byte	0
 2891 0152 1C       		.uleb128 0x1c
 2892 0153 34       		.uleb128 0x34
 2893 0154 00       		.byte	0
 2894 0155 03       		.uleb128 0x3
 2895 0156 08       		.uleb128 0x8
 2896 0157 3A       		.uleb128 0x3a
 2897 0158 0B       		.uleb128 0xb
 2898 0159 3B       		.uleb128 0x3b
 2899 015a 0B       		.uleb128 0xb
 2900 015b 49       		.uleb128 0x49
 2901 015c 13       		.uleb128 0x13
 2902 015d 02       		.uleb128 0x2
 2903 015e 06       		.uleb128 0x6
 2904 015f 00       		.byte	0
 2905 0160 00       		.byte	0
 2906 0161 1D       		.uleb128 0x1d
 2907 0162 898201   		.uleb128 0x4109
 2908 0165 01       		.byte	0x1
 2909 0166 11       		.uleb128 0x11
 2910 0167 01       		.uleb128 0x1
 2911 0168 00       		.byte	0
 2912 0169 00       		.byte	0
 2913 016a 1E       		.uleb128 0x1e
 2914 016b 2E       		.uleb128 0x2e
 2915 016c 01       		.byte	0x1
 2916 016d 3F       		.uleb128 0x3f
 2917 016e 0C       		.uleb128 0xc
 2918 016f 03       		.uleb128 0x3
 2919 0170 0E       		.uleb128 0xe
 2920 0171 3A       		.uleb128 0x3a
 2921 0172 0B       		.uleb128 0xb
 2922 0173 3B       		.uleb128 0x3b
 2923 0174 05       		.uleb128 0x5
 2924 0175 27       		.uleb128 0x27
 2925 0176 0C       		.uleb128 0xc
 2926 0177 11       		.uleb128 0x11
 2927 0178 01       		.uleb128 0x1
 2928 0179 12       		.uleb128 0x12
 2929 017a 01       		.uleb128 0x1
 2930 017b 40       		.uleb128 0x40
 2931 017c 06       		.uleb128 0x6
 2932 017d 9742     		.uleb128 0x2117
 2933 017f 0C       		.uleb128 0xc
 2934 0180 01       		.uleb128 0x1
 2935 0181 13       		.uleb128 0x13
 2936 0182 00       		.byte	0
ARM GAS  /tmp/cckljTkQ.s 			page 53


 2937 0183 00       		.byte	0
 2938 0184 1F       		.uleb128 0x1f
 2939 0185 898201   		.uleb128 0x4109
 2940 0188 01       		.byte	0x1
 2941 0189 11       		.uleb128 0x11
 2942 018a 01       		.uleb128 0x1
 2943 018b 31       		.uleb128 0x31
 2944 018c 13       		.uleb128 0x13
 2945 018d 01       		.uleb128 0x1
 2946 018e 13       		.uleb128 0x13
 2947 018f 00       		.byte	0
 2948 0190 00       		.byte	0
 2949 0191 20       		.uleb128 0x20
 2950 0192 898201   		.uleb128 0x4109
 2951 0195 01       		.byte	0x1
 2952 0196 11       		.uleb128 0x11
 2953 0197 01       		.uleb128 0x1
 2954 0198 9542     		.uleb128 0x2115
 2955 019a 0C       		.uleb128 0xc
 2956 019b 31       		.uleb128 0x31
 2957 019c 13       		.uleb128 0x13
 2958 019d 00       		.byte	0
 2959 019e 00       		.byte	0
 2960 019f 21       		.uleb128 0x21
 2961 01a0 34       		.uleb128 0x34
 2962 01a1 00       		.byte	0
 2963 01a2 03       		.uleb128 0x3
 2964 01a3 0E       		.uleb128 0xe
 2965 01a4 3A       		.uleb128 0x3a
 2966 01a5 0B       		.uleb128 0xb
 2967 01a6 3B       		.uleb128 0x3b
 2968 01a7 05       		.uleb128 0x5
 2969 01a8 49       		.uleb128 0x49
 2970 01a9 13       		.uleb128 0x13
 2971 01aa 3F       		.uleb128 0x3f
 2972 01ab 0C       		.uleb128 0xc
 2973 01ac 3C       		.uleb128 0x3c
 2974 01ad 0C       		.uleb128 0xc
 2975 01ae 00       		.byte	0
 2976 01af 00       		.byte	0
 2977 01b0 22       		.uleb128 0x22
 2978 01b1 34       		.uleb128 0x34
 2979 01b2 00       		.byte	0
 2980 01b3 03       		.uleb128 0x3
 2981 01b4 0E       		.uleb128 0xe
 2982 01b5 3A       		.uleb128 0x3a
 2983 01b6 0B       		.uleb128 0xb
 2984 01b7 3B       		.uleb128 0x3b
 2985 01b8 0B       		.uleb128 0xb
 2986 01b9 49       		.uleb128 0x49
 2987 01ba 13       		.uleb128 0x13
 2988 01bb 3F       		.uleb128 0x3f
 2989 01bc 0C       		.uleb128 0xc
 2990 01bd 3C       		.uleb128 0x3c
 2991 01be 0C       		.uleb128 0xc
 2992 01bf 00       		.byte	0
 2993 01c0 00       		.byte	0
ARM GAS  /tmp/cckljTkQ.s 			page 54


 2994 01c1 23       		.uleb128 0x23
 2995 01c2 2E       		.uleb128 0x2e
 2996 01c3 00       		.byte	0
 2997 01c4 3F       		.uleb128 0x3f
 2998 01c5 0C       		.uleb128 0xc
 2999 01c6 03       		.uleb128 0x3
 3000 01c7 0E       		.uleb128 0xe
 3001 01c8 3A       		.uleb128 0x3a
 3002 01c9 0B       		.uleb128 0xb
 3003 01ca 3B       		.uleb128 0x3b
 3004 01cb 0B       		.uleb128 0xb
 3005 01cc 27       		.uleb128 0x27
 3006 01cd 0C       		.uleb128 0xc
 3007 01ce 3C       		.uleb128 0x3c
 3008 01cf 0C       		.uleb128 0xc
 3009 01d0 00       		.byte	0
 3010 01d1 00       		.byte	0
 3011 01d2 24       		.uleb128 0x24
 3012 01d3 2E       		.uleb128 0x2e
 3013 01d4 00       		.byte	0
 3014 01d5 3F       		.uleb128 0x3f
 3015 01d6 0C       		.uleb128 0xc
 3016 01d7 03       		.uleb128 0x3
 3017 01d8 0E       		.uleb128 0xe
 3018 01d9 3A       		.uleb128 0x3a
 3019 01da 0B       		.uleb128 0xb
 3020 01db 3B       		.uleb128 0x3b
 3021 01dc 05       		.uleb128 0x5
 3022 01dd 27       		.uleb128 0x27
 3023 01de 0C       		.uleb128 0xc
 3024 01df 3C       		.uleb128 0x3c
 3025 01e0 0C       		.uleb128 0xc
 3026 01e1 00       		.byte	0
 3027 01e2 00       		.byte	0
 3028 01e3 25       		.uleb128 0x25
 3029 01e4 2E       		.uleb128 0x2e
 3030 01e5 01       		.byte	0x1
 3031 01e6 3F       		.uleb128 0x3f
 3032 01e7 0C       		.uleb128 0xc
 3033 01e8 03       		.uleb128 0x3
 3034 01e9 0E       		.uleb128 0xe
 3035 01ea 3A       		.uleb128 0x3a
 3036 01eb 0B       		.uleb128 0xb
 3037 01ec 3B       		.uleb128 0x3b
 3038 01ed 05       		.uleb128 0x5
 3039 01ee 27       		.uleb128 0x27
 3040 01ef 0C       		.uleb128 0xc
 3041 01f0 3C       		.uleb128 0x3c
 3042 01f1 0C       		.uleb128 0xc
 3043 01f2 01       		.uleb128 0x1
 3044 01f3 13       		.uleb128 0x13
 3045 01f4 00       		.byte	0
 3046 01f5 00       		.byte	0
 3047 01f6 26       		.uleb128 0x26
 3048 01f7 2E       		.uleb128 0x2e
 3049 01f8 01       		.byte	0x1
 3050 01f9 3F       		.uleb128 0x3f
ARM GAS  /tmp/cckljTkQ.s 			page 55


 3051 01fa 0C       		.uleb128 0xc
 3052 01fb 03       		.uleb128 0x3
 3053 01fc 0E       		.uleb128 0xe
 3054 01fd 3A       		.uleb128 0x3a
 3055 01fe 0B       		.uleb128 0xb
 3056 01ff 3B       		.uleb128 0x3b
 3057 0200 05       		.uleb128 0x5
 3058 0201 27       		.uleb128 0x27
 3059 0202 0C       		.uleb128 0xc
 3060 0203 3C       		.uleb128 0x3c
 3061 0204 0C       		.uleb128 0xc
 3062 0205 00       		.byte	0
 3063 0206 00       		.byte	0
 3064 0207 00       		.byte	0
 3065              		.section	.debug_loc,"",%progbits
 3066              	.Ldebug_loc0:
 3067              	.LLST0:
 3068 0000 00000000 		.4byte	.LFB118
 3069 0004 02000000 		.4byte	.LCFI0
 3070 0008 0200     		.2byte	0x2
 3071 000a 7D       		.byte	0x7d
 3072 000b 00       		.sleb128 0
 3073 000c 02000000 		.4byte	.LCFI0
 3074 0010 2E000000 		.4byte	.LFE118
 3075 0014 0200     		.2byte	0x2
 3076 0016 7D       		.byte	0x7d
 3077 0017 08       		.sleb128 8
 3078 0018 00000000 		.4byte	0
 3079 001c 00000000 		.4byte	0
 3080              	.LLST1:
 3081 0020 00000000 		.4byte	.LFB119
 3082 0024 02000000 		.4byte	.LCFI1
 3083 0028 0200     		.2byte	0x2
 3084 002a 7D       		.byte	0x7d
 3085 002b 00       		.sleb128 0
 3086 002c 02000000 		.4byte	.LCFI1
 3087 0030 2E000000 		.4byte	.LFE119
 3088 0034 0200     		.2byte	0x2
 3089 0036 7D       		.byte	0x7d
 3090 0037 08       		.sleb128 8
 3091 0038 00000000 		.4byte	0
 3092 003c 00000000 		.4byte	0
 3093              	.LLST2:
 3094 0040 00000000 		.4byte	.LFB120
 3095 0044 02000000 		.4byte	.LCFI2
 3096 0048 0200     		.2byte	0x2
 3097 004a 7D       		.byte	0x7d
 3098 004b 00       		.sleb128 0
 3099 004c 02000000 		.4byte	.LCFI2
 3100 0050 2E000000 		.4byte	.LFE120
 3101 0054 0200     		.2byte	0x2
 3102 0056 7D       		.byte	0x7d
 3103 0057 08       		.sleb128 8
 3104 0058 00000000 		.4byte	0
 3105 005c 00000000 		.4byte	0
 3106              	.LLST3:
 3107 0060 00000000 		.4byte	.LFB121
ARM GAS  /tmp/cckljTkQ.s 			page 56


 3108 0064 02000000 		.4byte	.LCFI3
 3109 0068 0200     		.2byte	0x2
 3110 006a 7D       		.byte	0x7d
 3111 006b 00       		.sleb128 0
 3112 006c 02000000 		.4byte	.LCFI3
 3113 0070 2E000000 		.4byte	.LFE121
 3114 0074 0200     		.2byte	0x2
 3115 0076 7D       		.byte	0x7d
 3116 0077 08       		.sleb128 8
 3117 0078 00000000 		.4byte	0
 3118 007c 00000000 		.4byte	0
 3119              	.LLST4:
 3120 0080 00000000 		.4byte	.LFB122
 3121 0084 02000000 		.4byte	.LCFI4
 3122 0088 0200     		.2byte	0x2
 3123 008a 7D       		.byte	0x7d
 3124 008b 00       		.sleb128 0
 3125 008c 02000000 		.4byte	.LCFI4
 3126 0090 2E000000 		.4byte	.LFE122
 3127 0094 0200     		.2byte	0x2
 3128 0096 7D       		.byte	0x7d
 3129 0097 08       		.sleb128 8
 3130 0098 00000000 		.4byte	0
 3131 009c 00000000 		.4byte	0
 3132              	.LLST5:
 3133 00a0 00000000 		.4byte	.LFB123
 3134 00a4 02000000 		.4byte	.LCFI5
 3135 00a8 0200     		.2byte	0x2
 3136 00aa 7D       		.byte	0x7d
 3137 00ab 00       		.sleb128 0
 3138 00ac 02000000 		.4byte	.LCFI5
 3139 00b0 74000000 		.4byte	.LFE123
 3140 00b4 0200     		.2byte	0x2
 3141 00b6 7D       		.byte	0x7d
 3142 00b7 08       		.sleb128 8
 3143 00b8 00000000 		.4byte	0
 3144 00bc 00000000 		.4byte	0
 3145              	.LLST6:
 3146 00c0 14000000 		.4byte	.LVL21
 3147 00c4 1A000000 		.4byte	.LVL22
 3148 00c8 0100     		.2byte	0x1
 3149 00ca 52       		.byte	0x52
 3150 00cb 1A000000 		.4byte	.LVL22
 3151 00cf 64000000 		.4byte	.LVL29
 3152 00d3 0700     		.2byte	0x7
 3153 00d5 74       		.byte	0x74
 3154 00d6 00       		.sleb128 0
 3155 00d7 0A       		.byte	0xa
 3156 00d8 E003     		.2byte	0x3e0
 3157 00da 1A       		.byte	0x1a
 3158 00db 9F       		.byte	0x9f
 3159 00dc 64000000 		.4byte	.LVL29
 3160 00e0 6D000000 		.4byte	.LVL30-1
 3161 00e4 0100     		.2byte	0x1
 3162 00e6 52       		.byte	0x52
 3163 00e7 6D000000 		.4byte	.LVL30-1
 3164 00eb 74000000 		.4byte	.LFE123
ARM GAS  /tmp/cckljTkQ.s 			page 57


 3165 00ef 0700     		.2byte	0x7
 3166 00f1 74       		.byte	0x74
 3167 00f2 00       		.sleb128 0
 3168 00f3 0A       		.byte	0xa
 3169 00f4 E003     		.2byte	0x3e0
 3170 00f6 1A       		.byte	0x1a
 3171 00f7 9F       		.byte	0x9f
 3172 00f8 00000000 		.4byte	0
 3173 00fc 00000000 		.4byte	0
 3174              	.LLST7:
 3175 0100 00000000 		.4byte	.LFB124
 3176 0104 02000000 		.4byte	.LCFI6
 3177 0108 0200     		.2byte	0x2
 3178 010a 7D       		.byte	0x7d
 3179 010b 00       		.sleb128 0
 3180 010c 02000000 		.4byte	.LCFI6
 3181 0110 84000000 		.4byte	.LFE124
 3182 0114 0200     		.2byte	0x2
 3183 0116 7D       		.byte	0x7d
 3184 0117 08       		.sleb128 8
 3185 0118 00000000 		.4byte	0
 3186 011c 00000000 		.4byte	0
 3187              	.LLST8:
 3188 0120 14000000 		.4byte	.LVL32
 3189 0124 1A000000 		.4byte	.LVL33
 3190 0128 0100     		.2byte	0x1
 3191 012a 52       		.byte	0x52
 3192 012b 1A000000 		.4byte	.LVL33
 3193 012f 74000000 		.4byte	.LVL41
 3194 0133 0700     		.2byte	0x7
 3195 0135 74       		.byte	0x74
 3196 0136 00       		.sleb128 0
 3197 0137 0A       		.byte	0xa
 3198 0138 00FC     		.2byte	0xfc00
 3199 013a 1A       		.byte	0x1a
 3200 013b 9F       		.byte	0x9f
 3201 013c 74000000 		.4byte	.LVL41
 3202 0140 7D000000 		.4byte	.LVL42-1
 3203 0144 0100     		.2byte	0x1
 3204 0146 52       		.byte	0x52
 3205 0147 7D000000 		.4byte	.LVL42-1
 3206 014b 84000000 		.4byte	.LFE124
 3207 014f 0700     		.2byte	0x7
 3208 0151 74       		.byte	0x74
 3209 0152 00       		.sleb128 0
 3210 0153 0A       		.byte	0xa
 3211 0154 00FC     		.2byte	0xfc00
 3212 0156 1A       		.byte	0x1a
 3213 0157 9F       		.byte	0x9f
 3214 0158 00000000 		.4byte	0
 3215 015c 00000000 		.4byte	0
 3216              	.LLST9:
 3217 0160 00000000 		.4byte	.LFB125
 3218 0164 02000000 		.4byte	.LCFI7
 3219 0168 0200     		.2byte	0x2
 3220 016a 7D       		.byte	0x7d
 3221 016b 00       		.sleb128 0
ARM GAS  /tmp/cckljTkQ.s 			page 58


 3222 016c 02000000 		.4byte	.LCFI7
 3223 0170 32000000 		.4byte	.LFE125
 3224 0174 0200     		.2byte	0x2
 3225 0176 7D       		.byte	0x7d
 3226 0177 08       		.sleb128 8
 3227 0178 00000000 		.4byte	0
 3228 017c 00000000 		.4byte	0
 3229              	.LLST10:
 3230 0180 00000000 		.4byte	.LFB126
 3231 0184 02000000 		.4byte	.LCFI8
 3232 0188 0200     		.2byte	0x2
 3233 018a 7D       		.byte	0x7d
 3234 018b 00       		.sleb128 0
 3235 018c 02000000 		.4byte	.LCFI8
 3236 0190 32000000 		.4byte	.LFE126
 3237 0194 0200     		.2byte	0x2
 3238 0196 7D       		.byte	0x7d
 3239 0197 08       		.sleb128 8
 3240 0198 00000000 		.4byte	0
 3241 019c 00000000 		.4byte	0
 3242              	.LLST11:
 3243 01a0 00000000 		.4byte	.LFB127
 3244 01a4 02000000 		.4byte	.LCFI9
 3245 01a8 0200     		.2byte	0x2
 3246 01aa 7D       		.byte	0x7d
 3247 01ab 00       		.sleb128 0
 3248 01ac 02000000 		.4byte	.LCFI9
 3249 01b0 32000000 		.4byte	.LFE127
 3250 01b4 0200     		.2byte	0x2
 3251 01b6 7D       		.byte	0x7d
 3252 01b7 08       		.sleb128 8
 3253 01b8 00000000 		.4byte	0
 3254 01bc 00000000 		.4byte	0
 3255              	.LLST12:
 3256 01c0 00000000 		.4byte	.LFB128
 3257 01c4 02000000 		.4byte	.LCFI10
 3258 01c8 0200     		.2byte	0x2
 3259 01ca 7D       		.byte	0x7d
 3260 01cb 00       		.sleb128 0
 3261 01cc 02000000 		.4byte	.LCFI10
 3262 01d0 32000000 		.4byte	.LFE128
 3263 01d4 0200     		.2byte	0x2
 3264 01d6 7D       		.byte	0x7d
 3265 01d7 08       		.sleb128 8
 3266 01d8 00000000 		.4byte	0
 3267 01dc 00000000 		.4byte	0
 3268              	.LLST13:
 3269 01e0 00000000 		.4byte	.LFB129
 3270 01e4 02000000 		.4byte	.LCFI11
 3271 01e8 0200     		.2byte	0x2
 3272 01ea 7D       		.byte	0x7d
 3273 01eb 00       		.sleb128 0
 3274 01ec 02000000 		.4byte	.LCFI11
 3275 01f0 32000000 		.4byte	.LFE129
 3276 01f4 0200     		.2byte	0x2
 3277 01f6 7D       		.byte	0x7d
 3278 01f7 08       		.sleb128 8
ARM GAS  /tmp/cckljTkQ.s 			page 59


 3279 01f8 00000000 		.4byte	0
 3280 01fc 00000000 		.4byte	0
 3281              	.LLST14:
 3282 0200 00000000 		.4byte	.LFB130
 3283 0204 02000000 		.4byte	.LCFI12
 3284 0208 0200     		.2byte	0x2
 3285 020a 7D       		.byte	0x7d
 3286 020b 00       		.sleb128 0
 3287 020c 02000000 		.4byte	.LCFI12
 3288 0210 32000000 		.4byte	.LFE130
 3289 0214 0200     		.2byte	0x2
 3290 0216 7D       		.byte	0x7d
 3291 0217 08       		.sleb128 8
 3292 0218 00000000 		.4byte	0
 3293 021c 00000000 		.4byte	0
 3294              	.LLST15:
 3295 0220 00000000 		.4byte	.LFB131
 3296 0224 02000000 		.4byte	.LCFI13
 3297 0228 0200     		.2byte	0x2
 3298 022a 7D       		.byte	0x7d
 3299 022b 00       		.sleb128 0
 3300 022c 02000000 		.4byte	.LCFI13
 3301 0230 32000000 		.4byte	.LFE131
 3302 0234 0200     		.2byte	0x2
 3303 0236 7D       		.byte	0x7d
 3304 0237 08       		.sleb128 8
 3305 0238 00000000 		.4byte	0
 3306 023c 00000000 		.4byte	0
 3307              	.LLST16:
 3308 0240 00000000 		.4byte	.LFB132
 3309 0244 02000000 		.4byte	.LCFI14
 3310 0248 0200     		.2byte	0x2
 3311 024a 7D       		.byte	0x7d
 3312 024b 00       		.sleb128 0
 3313 024c 02000000 		.4byte	.LCFI14
 3314 0250 76000000 		.4byte	.LFE132
 3315 0254 0200     		.2byte	0x2
 3316 0256 7D       		.byte	0x7d
 3317 0257 08       		.sleb128 8
 3318 0258 00000000 		.4byte	0
 3319 025c 00000000 		.4byte	0
 3320              	.LLST17:
 3321 0260 00000000 		.4byte	.LFB133
 3322 0264 02000000 		.4byte	.LCFI15
 3323 0268 0200     		.2byte	0x2
 3324 026a 7D       		.byte	0x7d
 3325 026b 00       		.sleb128 0
 3326 026c 02000000 		.4byte	.LCFI15
 3327 0270 5A000000 		.4byte	.LFE133
 3328 0274 0200     		.2byte	0x2
 3329 0276 7D       		.byte	0x7d
 3330 0277 08       		.sleb128 8
 3331 0278 00000000 		.4byte	0
 3332 027c 00000000 		.4byte	0
 3333              		.section	.debug_aranges,"",%progbits
 3334 0000 94000000 		.4byte	0x94
 3335 0004 0200     		.2byte	0x2
ARM GAS  /tmp/cckljTkQ.s 			page 60


 3336 0006 00000000 		.4byte	.Ldebug_info0
 3337 000a 04       		.byte	0x4
 3338 000b 00       		.byte	0
 3339 000c 0000     		.2byte	0
 3340 000e 0000     		.2byte	0
 3341 0010 00000000 		.4byte	.LFB118
 3342 0014 2E000000 		.4byte	.LFE118-.LFB118
 3343 0018 00000000 		.4byte	.LFB119
 3344 001c 2E000000 		.4byte	.LFE119-.LFB119
 3345 0020 00000000 		.4byte	.LFB120
 3346 0024 2E000000 		.4byte	.LFE120-.LFB120
 3347 0028 00000000 		.4byte	.LFB121
 3348 002c 2E000000 		.4byte	.LFE121-.LFB121
 3349 0030 00000000 		.4byte	.LFB122
 3350 0034 2E000000 		.4byte	.LFE122-.LFB122
 3351 0038 00000000 		.4byte	.LFB123
 3352 003c 74000000 		.4byte	.LFE123-.LFB123
 3353 0040 00000000 		.4byte	.LFB124
 3354 0044 84000000 		.4byte	.LFE124-.LFB124
 3355 0048 00000000 		.4byte	.LFB125
 3356 004c 32000000 		.4byte	.LFE125-.LFB125
 3357 0050 00000000 		.4byte	.LFB126
 3358 0054 32000000 		.4byte	.LFE126-.LFB126
 3359 0058 00000000 		.4byte	.LFB127
 3360 005c 32000000 		.4byte	.LFE127-.LFB127
 3361 0060 00000000 		.4byte	.LFB128
 3362 0064 32000000 		.4byte	.LFE128-.LFB128
 3363 0068 00000000 		.4byte	.LFB129
 3364 006c 32000000 		.4byte	.LFE129-.LFB129
 3365 0070 00000000 		.4byte	.LFB130
 3366 0074 32000000 		.4byte	.LFE130-.LFB130
 3367 0078 00000000 		.4byte	.LFB131
 3368 007c 32000000 		.4byte	.LFE131-.LFB131
 3369 0080 00000000 		.4byte	.LFB132
 3370 0084 76000000 		.4byte	.LFE132-.LFB132
 3371 0088 00000000 		.4byte	.LFB133
 3372 008c 5A000000 		.4byte	.LFE133-.LFB133
 3373 0090 00000000 		.4byte	0
 3374 0094 00000000 		.4byte	0
 3375              		.section	.debug_ranges,"",%progbits
 3376              	.Ldebug_ranges0:
 3377 0000 00000000 		.4byte	.LFB118
 3378 0004 2E000000 		.4byte	.LFE118
 3379 0008 00000000 		.4byte	.LFB119
 3380 000c 2E000000 		.4byte	.LFE119
 3381 0010 00000000 		.4byte	.LFB120
 3382 0014 2E000000 		.4byte	.LFE120
 3383 0018 00000000 		.4byte	.LFB121
 3384 001c 2E000000 		.4byte	.LFE121
 3385 0020 00000000 		.4byte	.LFB122
 3386 0024 2E000000 		.4byte	.LFE122
 3387 0028 00000000 		.4byte	.LFB123
 3388 002c 74000000 		.4byte	.LFE123
 3389 0030 00000000 		.4byte	.LFB124
 3390 0034 84000000 		.4byte	.LFE124
 3391 0038 00000000 		.4byte	.LFB125
 3392 003c 32000000 		.4byte	.LFE125
ARM GAS  /tmp/cckljTkQ.s 			page 61


 3393 0040 00000000 		.4byte	.LFB126
 3394 0044 32000000 		.4byte	.LFE126
 3395 0048 00000000 		.4byte	.LFB127
 3396 004c 32000000 		.4byte	.LFE127
 3397 0050 00000000 		.4byte	.LFB128
 3398 0054 32000000 		.4byte	.LFE128
 3399 0058 00000000 		.4byte	.LFB129
 3400 005c 32000000 		.4byte	.LFE129
 3401 0060 00000000 		.4byte	.LFB130
 3402 0064 32000000 		.4byte	.LFE130
 3403 0068 00000000 		.4byte	.LFB131
 3404 006c 32000000 		.4byte	.LFE131
 3405 0070 00000000 		.4byte	.LFB132
 3406 0074 76000000 		.4byte	.LFE132
 3407 0078 00000000 		.4byte	.LFB133
 3408 007c 5A000000 		.4byte	.LFE133
 3409 0080 00000000 		.4byte	0
 3410 0084 00000000 		.4byte	0
 3411              		.section	.debug_line,"",%progbits
 3412              	.Ldebug_line0:
 3413 0000 DC030000 		.section	.debug_str,"MS",%progbits,1
 3413      02001002 
 3413      00000201 
 3413      FB0E0D00 
 3413      01010101 
 3414              	.LASF41:
 3415 0000 43414E31 		.ascii	"CAN1_RX0_IRQn\000"
 3415      5F525830 
 3415      5F495251 
 3415      6E00
 3416              	.LASF22:
 3417 000e 5056445F 		.ascii	"PVD_IRQn\000"
 3417      4952516E 
 3417      00
 3418              	.LASF85:
 3419 0017 43414E32 		.ascii	"CAN2_RX0_IRQn\000"
 3419      5F525830 
 3419      5F495251 
 3419      6E00
 3420              	.LASF125:
 3421 0025 56656374 		.ascii	"Vector9C\000"
 3421      6F723943 
 3421      00
 3422              	.LASF94:
 3423 002e 49324333 		.ascii	"I2C3_ER_IRQn\000"
 3423      5F45525F 
 3423      4952516E 
 3423      00
 3424              	.LASF52:
 3425 003b 49324331 		.ascii	"I2C1_EV_IRQn\000"
 3425      5F45565F 
 3425      4952516E 
 3425      00
 3426              	.LASF114:
 3427 0048 65787063 		.ascii	"expchannel_t\000"
 3427      68616E6E 
 3427      656C5F74 
ARM GAS  /tmp/cckljTkQ.s 			page 62


 3427      00
 3428              	.LASF89:
 3429 0055 444D4132 		.ascii	"DMA2_Stream5_IRQn\000"
 3429      5F537472 
 3429      65616D35 
 3429      5F495251 
 3429      6E00
 3430              	.LASF105:
 3431 0067 53574945 		.ascii	"SWIER\000"
 3431      5200
 3432              	.LASF130:
 3433 006d 56656374 		.ascii	"Vector138\000"
 3433      6F723133 
 3433      3800
 3434              	.LASF42:
 3435 0077 43414E31 		.ascii	"CAN1_RX1_IRQn\000"
 3435      5F525831 
 3435      5F495251 
 3435      6E00
 3436              	.LASF10:
 3437 0085 6C6F6E67 		.ascii	"long long unsigned int\000"
 3437      206C6F6E 
 3437      6720756E 
 3437      7369676E 
 3437      65642069 
 3438              	.LASF62:
 3439 009c 5254435F 		.ascii	"RTC_Alarm_IRQn\000"
 3439      416C6172 
 3439      6D5F4952 
 3439      516E00
 3440              	.LASF55:
 3441 00ab 49324332 		.ascii	"I2C2_ER_IRQn\000"
 3441      5F45525F 
 3441      4952516E 
 3441      00
 3442              	.LASF51:
 3443 00b8 54494D34 		.ascii	"TIM4_IRQn\000"
 3443      5F495251 
 3443      6E00
 3444              	.LASF24:
 3445 00c2 5254435F 		.ascii	"RTC_WKUP_IRQn\000"
 3445      574B5550 
 3445      5F495251 
 3445      6E00
 3446              	.LASF21:
 3447 00d0 57574447 		.ascii	"WWDG_IRQn\000"
 3447      5F495251 
 3447      6E00
 3448              	.LASF70:
 3449 00da 5344494F 		.ascii	"SDIO_IRQn\000"
 3449      5F495251 
 3449      6E00
 3450              	.LASF145:
 3451 00e4 6E766963 		.ascii	"nvicEnableVector\000"
 3451      456E6162 
 3451      6C655665 
 3451      63746F72 
ARM GAS  /tmp/cckljTkQ.s 			page 63


 3451      00
 3452              	.LASF67:
 3453 00f5 54494D38 		.ascii	"TIM8_CC_IRQn\000"
 3453      5F43435F 
 3453      4952516E 
 3453      00
 3454              	.LASF143:
 3455 0102 2F686F6D 		.ascii	"/home/david/Projects/stm32/src/pressure_sensor\000"
 3455      652F6461 
 3455      7669642F 
 3455      50726F6A 
 3455      65637473 
 3456              	.LASF1:
 3457 0131 7369676E 		.ascii	"signed char\000"
 3457      65642063 
 3457      68617200 
 3458              	.LASF86:
 3459 013d 43414E32 		.ascii	"CAN2_RX1_IRQn\000"
 3459      5F525831 
 3459      5F495251 
 3459      6E00
 3460              	.LASF90:
 3461 014b 444D4132 		.ascii	"DMA2_Stream6_IRQn\000"
 3461      5F537472 
 3461      65616D36 
 3461      5F495251 
 3461      6E00
 3462              	.LASF112:
 3463 015d 73746174 		.ascii	"state\000"
 3463      6500
 3464              	.LASF118:
 3465 0163 6368616E 		.ascii	"channels\000"
 3465      6E656C73 
 3465      00
 3466              	.LASF5:
 3467 016c 6C6F6E67 		.ascii	"long int\000"
 3467      20696E74 
 3467      00
 3468              	.LASF54:
 3469 0175 49324332 		.ascii	"I2C2_EV_IRQn\000"
 3469      5F45565F 
 3469      4952516E 
 3469      00
 3470              	.LASF37:
 3471 0182 444D4131 		.ascii	"DMA1_Stream5_IRQn\000"
 3471      5F537472 
 3471      65616D35 
 3471      5F495251 
 3471      6E00
 3472              	.LASF44:
 3473 0194 45585449 		.ascii	"EXTI9_5_IRQn\000"
 3473      395F355F 
 3473      4952516E 
 3473      00
 3474              	.LASF9:
 3475 01a1 6C6F6E67 		.ascii	"long long int\000"
 3475      206C6F6E 
ARM GAS  /tmp/cckljTkQ.s 			page 64


 3475      6720696E 
 3475      7400
 3476              	.LASF83:
 3477 01af 4554485F 		.ascii	"ETH_WKUP_IRQn\000"
 3477      574B5550 
 3477      5F495251 
 3477      6E00
 3478              	.LASF75:
 3479 01bd 54494D36 		.ascii	"TIM6_DAC_IRQn\000"
 3479      5F444143 
 3479      5F495251 
 3479      6E00
 3480              	.LASF73:
 3481 01cb 55415254 		.ascii	"UART4_IRQn\000"
 3481      345F4952 
 3481      516E00
 3482              	.LASF117:
 3483 01d6 45585443 		.ascii	"EXTChannelConfig\000"
 3483      68616E6E 
 3483      656C436F 
 3483      6E666967 
 3483      00
 3484              	.LASF19:
 3485 01e7 50656E64 		.ascii	"PendSV_IRQn\000"
 3485      53565F49 
 3485      52516E00 
 3486              	.LASF65:
 3487 01f3 54494D38 		.ascii	"TIM8_UP_TIM13_IRQn\000"
 3487      5F55505F 
 3487      54494D31 
 3487      335F4952 
 3487      516E00
 3488              	.LASF15:
 3489 0206 42757346 		.ascii	"BusFault_IRQn\000"
 3489      61756C74 
 3489      5F495251 
 3489      6E00
 3490              	.LASF63:
 3491 0214 4F54475F 		.ascii	"OTG_FS_WKUP_IRQn\000"
 3491      46535F57 
 3491      4B55505F 
 3491      4952516E 
 3491      00
 3492              	.LASF91:
 3493 0225 444D4132 		.ascii	"DMA2_Stream7_IRQn\000"
 3493      5F537472 
 3493      65616D37 
 3493      5F495251 
 3493      6E00
 3494              	.LASF135:
 3495 0237 6578745F 		.ascii	"ext_lld_exti_irq_disable\000"
 3495      6C6C645F 
 3495      65787469 
 3495      5F697271 
 3495      5F646973 
 3496              	.LASF0:
 3497 0250 756E7369 		.ascii	"unsigned int\000"
ARM GAS  /tmp/cckljTkQ.s 			page 65


 3497      676E6564 
 3497      20696E74 
 3497      00
 3498              	.LASF35:
 3499 025d 444D4131 		.ascii	"DMA1_Stream3_IRQn\000"
 3499      5F537472 
 3499      65616D33 
 3499      5F495251 
 3499      6E00
 3500              	.LASF38:
 3501 026f 444D4131 		.ascii	"DMA1_Stream6_IRQn\000"
 3501      5F537472 
 3501      65616D36 
 3501      5F495251 
 3501      6E00
 3502              	.LASF103:
 3503 0281 52545352 		.ascii	"RTSR\000"
 3503      00
 3504              	.LASF14:
 3505 0286 4D656D6F 		.ascii	"MemoryManagement_IRQn\000"
 3505      72794D61 
 3505      6E616765 
 3505      6D656E74 
 3505      5F495251 
 3506              	.LASF93:
 3507 029c 49324333 		.ascii	"I2C3_EV_IRQn\000"
 3507      5F45565F 
 3507      4952516E 
 3507      00
 3508              	.LASF8:
 3509 02a9 6C6F6E67 		.ascii	"long unsigned int\000"
 3509      20756E73 
 3509      69676E65 
 3509      6420696E 
 3509      7400
 3510              	.LASF140:
 3511 02bb 5F706F72 		.ascii	"_port_irq_epilogue\000"
 3511      745F6972 
 3511      715F6570 
 3511      696C6F67 
 3511      756500
 3512              	.LASF133:
 3513 02ce 56656374 		.ascii	"Vector4C\000"
 3513      6F723443 
 3513      00
 3514              	.LASF95:
 3515 02d7 4F54475F 		.ascii	"OTG_HS_EP1_OUT_IRQn\000"
 3515      48535F45 
 3515      50315F4F 
 3515      55545F49 
 3515      52516E00 
 3516              	.LASF142:
 3517 02eb 2E2E2F2E 		.ascii	"../../ChibiOS/os/hal/platforms/STM32F4xx/ext_lld_is"
 3517      2E2F4368 
 3517      6962694F 
 3517      532F6F73 
 3517      2F68616C 
ARM GAS  /tmp/cckljTkQ.s 			page 66


 3518 031e 722E6300 		.ascii	"r.c\000"
 3519              	.LASF17:
 3520 0322 53564361 		.ascii	"SVCall_IRQn\000"
 3520      6C6C5F49 
 3520      52516E00 
 3521              	.LASF4:
 3522 032e 73686F72 		.ascii	"short unsigned int\000"
 3522      7420756E 
 3522      7369676E 
 3522      65642069 
 3522      6E7400
 3523              	.LASF134:
 3524 0341 6578745F 		.ascii	"ext_lld_exti_irq_enable\000"
 3524      6C6C645F 
 3524      65787469 
 3524      5F697271 
 3524      5F656E61 
 3525              	.LASF40:
 3526 0359 43414E31 		.ascii	"CAN1_TX_IRQn\000"
 3526      5F54585F 
 3526      4952516E 
 3526      00
 3527              	.LASF61:
 3528 0366 45585449 		.ascii	"EXTI15_10_IRQn\000"
 3528      31355F31 
 3528      305F4952 
 3528      516E00
 3529              	.LASF56:
 3530 0375 53504931 		.ascii	"SPI1_IRQn\000"
 3530      5F495251 
 3530      6E00
 3531              	.LASF33:
 3532 037f 444D4131 		.ascii	"DMA1_Stream1_IRQn\000"
 3532      5F537472 
 3532      65616D31 
 3532      5F495251 
 3532      6E00
 3533              	.LASF64:
 3534 0391 54494D38 		.ascii	"TIM8_BRK_TIM12_IRQn\000"
 3534      5F42524B 
 3534      5F54494D 
 3534      31325F49 
 3534      52516E00 
 3535              	.LASF20:
 3536 03a5 53797354 		.ascii	"SysTick_IRQn\000"
 3536      69636B5F 
 3536      4952516E 
 3536      00
 3537              	.LASF48:
 3538 03b2 54494D31 		.ascii	"TIM1_CC_IRQn\000"
 3538      5F43435F 
 3538      4952516E 
 3538      00
 3539              	.LASF66:
 3540 03bf 54494D38 		.ascii	"TIM8_TRG_COM_TIM14_IRQn\000"
 3540      5F545247 
 3540      5F434F4D 
ARM GAS  /tmp/cckljTkQ.s 			page 67


 3540      5F54494D 
 3540      31345F49 
 3541              	.LASF109:
 3542 03d7 4558545F 		.ascii	"EXT_ACTIVE\000"
 3542      41435449 
 3542      564500
 3543              	.LASF120:
 3544 03e2 56656374 		.ascii	"Vector58\000"
 3544      6F723538 
 3544      00
 3545              	.LASF82:
 3546 03eb 4554485F 		.ascii	"ETH_IRQn\000"
 3546      4952516E 
 3546      00
 3547              	.LASF144:
 3548 03f4 4952516E 		.ascii	"IRQn\000"
 3548      00
 3549              	.LASF121:
 3550 03f9 56656374 		.ascii	"Vector5C\000"
 3550      6F723543 
 3550      00
 3551              	.LASF11:
 3552 0402 73697A65 		.ascii	"sizetype\000"
 3552      74797065 
 3552      00
 3553              	.LASF110:
 3554 040b 65787473 		.ascii	"extstate_t\000"
 3554      74617465 
 3554      5F7400
 3555              	.LASF46:
 3556 0416 54494D31 		.ascii	"TIM1_UP_TIM10_IRQn\000"
 3556      5F55505F 
 3556      54494D31 
 3556      305F4952 
 3556      516E00
 3557              	.LASF132:
 3558 0429 54414D50 		.ascii	"TAMPER_STAMP_IRQHandler\000"
 3558      45525F53 
 3558      54414D50 
 3558      5F495251 
 3558      48616E64 
 3559              	.LASF80:
 3560 0441 444D4132 		.ascii	"DMA2_Stream3_IRQn\000"
 3560      5F537472 
 3560      65616D33 
 3560      5F495251 
 3560      6E00
 3561              	.LASF36:
 3562 0453 444D4131 		.ascii	"DMA1_Stream4_IRQn\000"
 3562      5F537472 
 3562      65616D34 
 3562      5F495251 
 3562      6E00
 3563              	.LASF79:
 3564 0465 444D4132 		.ascii	"DMA2_Stream2_IRQn\000"
 3564      5F537472 
 3564      65616D32 
ARM GAS  /tmp/cckljTkQ.s 			page 68


 3564      5F495251 
 3564      6E00
 3565              	.LASF92:
 3566 0477 55534152 		.ascii	"USART6_IRQn\000"
 3566      54365F49 
 3566      52516E00 
 3567              	.LASF71:
 3568 0483 54494D35 		.ascii	"TIM5_IRQn\000"
 3568      5F495251 
 3568      6E00
 3569              	.LASF30:
 3570 048d 45585449 		.ascii	"EXTI3_IRQn\000"
 3570      335F4952 
 3570      516E00
 3571              	.LASF57:
 3572 0498 53504932 		.ascii	"SPI2_IRQn\000"
 3572      5F495251 
 3572      6E00
 3573              	.LASF34:
 3574 04a2 444D4131 		.ascii	"DMA1_Stream2_IRQn\000"
 3574      5F537472 
 3574      65616D32 
 3574      5F495251 
 3574      6E00
 3575              	.LASF84:
 3576 04b4 43414E32 		.ascii	"CAN2_TX_IRQn\000"
 3576      5F54585F 
 3576      4952516E 
 3576      00
 3577              	.LASF88:
 3578 04c1 4F54475F 		.ascii	"OTG_FS_IRQn\000"
 3578      46535F49 
 3578      52516E00 
 3579              	.LASF141:
 3580 04cd 474E5520 		.ascii	"GNU C 4.7.2\000"
 3580      4320342E 
 3580      372E3200 
 3581              	.LASF126:
 3582 04d9 56656374 		.ascii	"VectorE0\000"
 3582      6F724530 
 3582      00
 3583              	.LASF23:
 3584 04e2 54414D50 		.ascii	"TAMP_STAMP_IRQn\000"
 3584      5F535441 
 3584      4D505F49 
 3584      52516E00 
 3585              	.LASF98:
 3586 04f2 4F54475F 		.ascii	"OTG_HS_IRQn\000"
 3586      48535F49 
 3586      52516E00 
 3587              	.LASF129:
 3588 04fe 56656374 		.ascii	"VectorE8\000"
 3588      6F724538 
 3588      00
 3589              	.LASF131:
 3590 0507 56656374 		.ascii	"Vector170\000"
 3590      6F723137 
ARM GAS  /tmp/cckljTkQ.s 			page 69


 3590      3000
 3591              	.LASF122:
 3592 0511 56656374 		.ascii	"Vector60\000"
 3592      6F723630 
 3592      00
 3593              	.LASF123:
 3594 051a 56656374 		.ascii	"Vector64\000"
 3594      6F723634 
 3594      00
 3595              	.LASF124:
 3596 0523 56656374 		.ascii	"Vector68\000"
 3596      6F723638 
 3596      00
 3597              	.LASF58:
 3598 052c 55534152 		.ascii	"USART1_IRQn\000"
 3598      54315F49 
 3598      52516E00 
 3599              	.LASF72:
 3600 0538 53504933 		.ascii	"SPI3_IRQn\000"
 3600      5F495251 
 3600      6E00
 3601              	.LASF81:
 3602 0542 444D4132 		.ascii	"DMA2_Stream4_IRQn\000"
 3602      5F537472 
 3602      65616D34 
 3602      5F495251 
 3602      6E00
 3603              	.LASF69:
 3604 0554 46534D43 		.ascii	"FSMC_IRQn\000"
 3604      5F495251 
 3604      6E00
 3605              	.LASF6:
 3606 055e 696E7433 		.ascii	"int32_t\000"
 3606      325F7400 
 3607              	.LASF2:
 3608 0566 756E7369 		.ascii	"unsigned char\000"
 3608      676E6564 
 3608      20636861 
 3608      7200
 3609              	.LASF107:
 3610 0574 4558545F 		.ascii	"EXT_UNINIT\000"
 3610      554E494E 
 3610      495400
 3611              	.LASF45:
 3612 057f 54494D31 		.ascii	"TIM1_BRK_TIM9_IRQn\000"
 3612      5F42524B 
 3612      5F54494D 
 3612      395F4952 
 3612      516E00
 3613              	.LASF136:
 3614 0592 49544D5F 		.ascii	"ITM_RxBuffer\000"
 3614      52784275 
 3614      66666572 
 3614      00
 3615              	.LASF104:
 3616 059f 46545352 		.ascii	"FTSR\000"
 3616      00
ARM GAS  /tmp/cckljTkQ.s 			page 70


 3617              	.LASF31:
 3618 05a4 45585449 		.ascii	"EXTI4_IRQn\000"
 3618      345F4952 
 3618      516E00
 3619              	.LASF101:
 3620 05af 48415348 		.ascii	"HASH_RNG_IRQn\000"
 3620      5F524E47 
 3620      5F495251 
 3620      6E00
 3621              	.LASF3:
 3622 05bd 73686F72 		.ascii	"short int\000"
 3622      7420696E 
 3622      7400
 3623              	.LASF74:
 3624 05c7 55415254 		.ascii	"UART5_IRQn\000"
 3624      355F4952 
 3624      516E00
 3625              	.LASF47:
 3626 05d2 54494D31 		.ascii	"TIM1_TRG_COM_TIM11_IRQn\000"
 3626      5F545247 
 3626      5F434F4D 
 3626      5F54494D 
 3626      31315F49 
 3627              	.LASF139:
 3628 05ea 6462675F 		.ascii	"dbg_check_leave_isr\000"
 3628      63686563 
 3628      6B5F6C65 
 3628      6176655F 
 3628      69737200 
 3629              	.LASF29:
 3630 05fe 45585449 		.ascii	"EXTI2_IRQn\000"
 3630      325F4952 
 3630      516E00
 3631              	.LASF25:
 3632 0609 464C4153 		.ascii	"FLASH_IRQn\000"
 3632      485F4952 
 3632      516E00
 3633              	.LASF7:
 3634 0614 75696E74 		.ascii	"uint32_t\000"
 3634      33325F74 
 3634      00
 3635              	.LASF59:
 3636 061d 55534152 		.ascii	"USART2_IRQn\000"
 3636      54325F49 
 3636      52516E00 
 3637              	.LASF16:
 3638 0629 55736167 		.ascii	"UsageFault_IRQn\000"
 3638      65466175 
 3638      6C745F49 
 3638      52516E00 
 3639              	.LASF146:
 3640 0639 6E766963 		.ascii	"nvicDisableVector\000"
 3640      44697361 
 3640      626C6556 
 3640      6563746F 
 3640      7200
 3641              	.LASF108:
ARM GAS  /tmp/cckljTkQ.s 			page 71


 3642 064b 4558545F 		.ascii	"EXT_STOP\000"
 3642      53544F50 
 3642      00
 3643              	.LASF68:
 3644 0654 444D4131 		.ascii	"DMA1_Stream7_IRQn\000"
 3644      5F537472 
 3644      65616D37 
 3644      5F495251 
 3644      6E00
 3645              	.LASF12:
 3646 0666 63686172 		.ascii	"char\000"
 3646      00
 3647              	.LASF116:
 3648 066b 6D6F6465 		.ascii	"mode\000"
 3648      00
 3649              	.LASF100:
 3650 0670 43525950 		.ascii	"CRYP_IRQn\000"
 3650      5F495251 
 3650      6E00
 3651              	.LASF113:
 3652 067a 636F6E66 		.ascii	"config\000"
 3652      696700
 3653              	.LASF115:
 3654 0681 65787463 		.ascii	"extcallback_t\000"
 3654      616C6C62 
 3654      61636B5F 
 3654      7400
 3655              	.LASF76:
 3656 068f 54494D37 		.ascii	"TIM7_IRQn\000"
 3656      5F495251 
 3656      6E00
 3657              	.LASF96:
 3658 0699 4F54475F 		.ascii	"OTG_HS_EP1_IN_IRQn\000"
 3658      48535F45 
 3658      50315F49 
 3658      4E5F4952 
 3658      516E00
 3659              	.LASF13:
 3660 06ac 4E6F6E4D 		.ascii	"NonMaskableInt_IRQn\000"
 3660      61736B61 
 3660      626C6549 
 3660      6E745F49 
 3660      52516E00 
 3661              	.LASF127:
 3662 06c0 56656374 		.ascii	"Vector44\000"
 3662      6F723434 
 3662      00
 3663              	.LASF53:
 3664 06c9 49324331 		.ascii	"I2C1_ER_IRQn\000"
 3664      5F45525F 
 3664      4952516E 
 3664      00
 3665              	.LASF18:
 3666 06d6 44656275 		.ascii	"DebugMonitor_IRQn\000"
 3666      674D6F6E 
 3666      69746F72 
 3666      5F495251 
ARM GAS  /tmp/cckljTkQ.s 			page 72


 3666      6E00
 3667              	.LASF77:
 3668 06e8 444D4132 		.ascii	"DMA2_Stream0_IRQn\000"
 3668      5F537472 
 3668      65616D30 
 3668      5F495251 
 3668      6E00
 3669              	.LASF60:
 3670 06fa 55534152 		.ascii	"USART3_IRQn\000"
 3670      54335F49 
 3670      52516E00 
 3671              	.LASF111:
 3672 0706 45585444 		.ascii	"EXTDriver\000"
 3672      72697665 
 3672      7200
 3673              	.LASF49:
 3674 0710 54494D32 		.ascii	"TIM2_IRQn\000"
 3674      5F495251 
 3674      6E00
 3675              	.LASF27:
 3676 071a 45585449 		.ascii	"EXTI0_IRQn\000"
 3676      305F4952 
 3676      516E00
 3677              	.LASF138:
 3678 0725 6462675F 		.ascii	"dbg_check_enter_isr\000"
 3678      63686563 
 3678      6B5F656E 
 3678      7465725F 
 3678      69737200 
 3679              	.LASF99:
 3680 0739 44434D49 		.ascii	"DCMI_IRQn\000"
 3680      5F495251 
 3680      6E00
 3681              	.LASF119:
 3682 0743 45585443 		.ascii	"EXTConfig\000"
 3682      6F6E6669 
 3682      6700
 3683              	.LASF102:
 3684 074d 4650555F 		.ascii	"FPU_IRQn\000"
 3684      4952516E 
 3684      00
 3685              	.LASF128:
 3686 0756 52544341 		.ascii	"RTCAlarm_IRQHandler\000"
 3686      6C61726D 
 3686      5F495251 
 3686      48616E64 
 3686      6C657200 
 3687              	.LASF106:
 3688 076a 45585449 		.ascii	"EXTI_TypeDef\000"
 3688      5F547970 
 3688      65446566 
 3688      00
 3689              	.LASF39:
 3690 0777 4144435F 		.ascii	"ADC_IRQn\000"
 3690      4952516E 
 3690      00
 3691              	.LASF78:
ARM GAS  /tmp/cckljTkQ.s 			page 73


 3692 0780 444D4132 		.ascii	"DMA2_Stream1_IRQn\000"
 3692      5F537472 
 3692      65616D31 
 3692      5F495251 
 3692      6E00
 3693              	.LASF137:
 3694 0792 45585444 		.ascii	"EXTD1\000"
 3694      3100
 3695              	.LASF43:
 3696 0798 43414E31 		.ascii	"CAN1_SCE_IRQn\000"
 3696      5F534345 
 3696      5F495251 
 3696      6E00
 3697              	.LASF87:
 3698 07a6 43414E32 		.ascii	"CAN2_SCE_IRQn\000"
 3698      5F534345 
 3698      5F495251 
 3698      6E00
 3699              	.LASF26:
 3700 07b4 5243435F 		.ascii	"RCC_IRQn\000"
 3700      4952516E 
 3700      00
 3701              	.LASF97:
 3702 07bd 4F54475F 		.ascii	"OTG_HS_WKUP_IRQn\000"
 3702      48535F57 
 3702      4B55505F 
 3702      4952516E 
 3702      00
 3703              	.LASF50:
 3704 07ce 54494D33 		.ascii	"TIM3_IRQn\000"
 3704      5F495251 
 3704      6E00
 3705              	.LASF28:
 3706 07d8 45585449 		.ascii	"EXTI1_IRQn\000"
 3706      315F4952 
 3706      516E00
 3707              	.LASF32:
 3708 07e3 444D4131 		.ascii	"DMA1_Stream0_IRQn\000"
 3708      5F537472 
 3708      65616D30 
 3708      5F495251 
 3708      6E00
 3709              		.ident	"GCC: (crosstool-NG 1.17.0 - PSAS ST32F4 GFE) 4.7.2"
ARM GAS  /tmp/cckljTkQ.s 			page 74


DEFINED SYMBOLS
                            *ABS*:0000000000000000 ext_lld_isr.c
     /tmp/cckljTkQ.s:21     .text.Vector58:0000000000000000 $t
     /tmp/cckljTkQ.s:27     .text.Vector58:0000000000000000 Vector58
     /tmp/cckljTkQ.s:72     .text.Vector5C:0000000000000000 $t
     /tmp/cckljTkQ.s:78     .text.Vector5C:0000000000000000 Vector5C
     /tmp/cckljTkQ.s:122    .text.Vector60:0000000000000000 $t
     /tmp/cckljTkQ.s:128    .text.Vector60:0000000000000000 Vector60
     /tmp/cckljTkQ.s:172    .text.Vector64:0000000000000000 $t
     /tmp/cckljTkQ.s:178    .text.Vector64:0000000000000000 Vector64
     /tmp/cckljTkQ.s:222    .text.Vector68:0000000000000000 $t
     /tmp/cckljTkQ.s:228    .text.Vector68:0000000000000000 Vector68
     /tmp/cckljTkQ.s:272    .text.Vector9C:0000000000000000 $t
     /tmp/cckljTkQ.s:278    .text.Vector9C:0000000000000000 Vector9C
     /tmp/cckljTkQ.s:376    .text.Vector9C:0000000000000070 $d
     /tmp/cckljTkQ.s:381    .text.VectorE0:0000000000000000 $t
     /tmp/cckljTkQ.s:387    .text.VectorE0:0000000000000000 VectorE0
     /tmp/cckljTkQ.s:499    .text.VectorE0:0000000000000080 $d
     /tmp/cckljTkQ.s:504    .text.Vector44:0000000000000000 $t
     /tmp/cckljTkQ.s:510    .text.Vector44:0000000000000000 Vector44
     /tmp/cckljTkQ.s:554    .text.RTCAlarm_IRQHandler:0000000000000000 $t
     /tmp/cckljTkQ.s:560    .text.RTCAlarm_IRQHandler:0000000000000000 RTCAlarm_IRQHandler
     /tmp/cckljTkQ.s:604    .text.VectorE8:0000000000000000 $t
     /tmp/cckljTkQ.s:610    .text.VectorE8:0000000000000000 VectorE8
     /tmp/cckljTkQ.s:654    .text.Vector138:0000000000000000 $t
     /tmp/cckljTkQ.s:660    .text.Vector138:0000000000000000 Vector138
     /tmp/cckljTkQ.s:704    .text.Vector170:0000000000000000 $t
     /tmp/cckljTkQ.s:710    .text.Vector170:0000000000000000 Vector170
     /tmp/cckljTkQ.s:754    .text.TAMPER_STAMP_IRQHandler:0000000000000000 $t
     /tmp/cckljTkQ.s:760    .text.TAMPER_STAMP_IRQHandler:0000000000000000 TAMPER_STAMP_IRQHandler
     /tmp/cckljTkQ.s:804    .text.Vector4C:0000000000000000 $t
     /tmp/cckljTkQ.s:810    .text.Vector4C:0000000000000000 Vector4C
     /tmp/cckljTkQ.s:854    .text.ext_lld_exti_irq_enable:0000000000000000 $t
     /tmp/cckljTkQ.s:860    .text.ext_lld_exti_irq_enable:0000000000000000 ext_lld_exti_irq_enable
     /tmp/cckljTkQ.s:948    .text.ext_lld_exti_irq_disable:0000000000000000 $t
     /tmp/cckljTkQ.s:954    .text.ext_lld_exti_irq_disable:0000000000000000 ext_lld_exti_irq_disable
                     .debug_frame:0000000000000010 $d
     /tmp/cckljTkQ.s:380    .text.Vector9C:0000000000000074 $t
     /tmp/cckljTkQ.s:503    .text.VectorE0:0000000000000084 $t

UNDEFINED SYMBOLS
dbg_check_enter_isr
EXTD1
dbg_check_leave_isr
_port_irq_epilogue
nvicEnableVector
nvicDisableVector
