ARM GAS  /tmp/cceBoJmg.s 			page 1


   1              		.syntax unified
   2              		.cpu cortex-m4
   3              		.eabi_attribute 27, 3
   4              		.eabi_attribute 28, 1
   5              		.fpu fpv4-sp-d16
   6              		.eabi_attribute 20, 1
   7              		.eabi_attribute 21, 1
   8              		.eabi_attribute 23, 3
   9              		.eabi_attribute 24, 1
  10              		.eabi_attribute 25, 1
  11              		.eabi_attribute 26, 1
  12              		.eabi_attribute 30, 2
  13              		.eabi_attribute 34, 1
  14              		.eabi_attribute 18, 4
  15              		.thumb
  16              		.file	"ext_lld.c"
  17              		.text
  18              	.Ltext0:
  19              		.cfi_sections	.debug_frame
  20              		.section	.text.ext_lld_init,"ax",%progbits
  21              		.align	2
  22              		.p2align 4,,15
  23              		.global	ext_lld_init
  24              		.thumb
  25              		.thumb_func
  26              		.type	ext_lld_init, %function
  27              	ext_lld_init:
  28              	.LFB118:
  29              		.file 1 "../../ChibiOS/os/hal/platforms/STM32/ext_lld.c"
  30              		.loc 1 70 0
  31              		.cfi_startproc
  32              		@ args = 0, pretend = 0, frame = 0
  33              		@ frame_needed = 0, uses_anonymous_args = 0
  34              		@ link register save eliminated.
  35              		.loc 1 73 0
  36 0000 40F20000 		movw	r0, #:lower16:.LANCHOR0
  37 0004 C0F20000 		movt	r0, #:upper16:.LANCHOR0
  38              		.loc 1 74 0
  39              		.loc 1 73 0
  40 0008 FFF7FEBF 		b	extObjectInit
  41              	.LVL0:
  42              		.cfi_endproc
  43              	.LFE118:
  44              		.size	ext_lld_init, .-ext_lld_init
  45 000c AFF30080 		.section	.text.ext_lld_stop,"ax",%progbits
  46              		.align	2
  47              		.p2align 4,,15
  48              		.global	ext_lld_stop
  49              		.thumb
  50              		.thumb_func
  51              		.type	ext_lld_stop, %function
  52              	ext_lld_stop:
  53              	.LFB120:
  54              		.loc 1 104 0
  55              		.cfi_startproc
  56              		@ args = 0, pretend = 0, frame = 0
  57              		@ frame_needed = 0, uses_anonymous_args = 0
ARM GAS  /tmp/cceBoJmg.s 			page 2


  58              	.LVL1:
  59 0000 08B5     		push	{r3, lr}
  60              	.LCFI0:
  61              		.cfi_def_cfa_offset 8
  62              		.cfi_offset 3, -8
  63              		.cfi_offset 14, -4
  64              		.loc 1 106 0
  65 0002 0378     		ldrb	r3, [r0, #0]	@ zero_extendqisi2
  66 0004 022B     		cmp	r3, #2
  67 0006 0AD0     		beq	.L5
  68              	.LVL2:
  69              	.L3:
  70              		.loc 1 109 0
  71 0008 4FF47053 		mov	r3, #15360
  72 000c C4F20103 		movt	r3, 16385
  73 0010 0022     		movs	r2, #0
  74 0012 5A60     		str	r2, [r3, #4]
  75              		.loc 1 110 0
  76 0014 1A60     		str	r2, [r3, #0]
  77              		.loc 1 111 0
  78 0016 4FF0FF32 		mov	r2, #-1
  79 001a 5A61     		str	r2, [r3, #20]
  80 001c 08BD     		pop	{r3, pc}
  81              	.LVL3:
  82              	.L5:
  83              		.loc 1 107 0
  84 001e FFF7FEFF 		bl	ext_lld_exti_irq_disable
  85              	.LVL4:
  86 0022 F1E7     		b	.L3
  87              		.cfi_endproc
  88              	.LFE120:
  89              		.size	ext_lld_stop, .-ext_lld_stop
  90 0024 AFF30080 		.section	.text.ext_lld_channel_enable,"ax",%progbits
  90      AFF30080 
  90      AFF30080 
  91              		.align	2
  92              		.p2align 4,,15
  93              		.global	ext_lld_channel_enable
  94              		.thumb
  95              		.thumb_func
  96              		.type	ext_lld_channel_enable, %function
  97              	ext_lld_channel_enable:
  98              	.LFB121:
  99              		.loc 1 125 0
 100              		.cfi_startproc
 101              		@ args = 0, pretend = 0, frame = 0
 102              		@ frame_needed = 0, uses_anonymous_args = 0
 103              		@ link register save eliminated.
 104              	.LVL5:
 105              		.loc 1 131 0
 106 0000 4268     		ldr	r2, [r0, #4]
 107 0002 52F83130 		ldr	r3, [r2, r1, lsl #3]
 108 0006 D807     		lsls	r0, r3, #31
 109              	.LVL6:
 110              		.loc 1 125 0
 111 0008 70B4     		push	{r4, r5, r6}
 112              	.LCFI1:
ARM GAS  /tmp/cceBoJmg.s 			page 3


 113              		.cfi_def_cfa_offset 12
 114              		.cfi_offset 4, -12
 115              		.cfi_offset 5, -8
 116              		.cfi_offset 6, -4
 117              		.loc 1 131 0
 118 000a 41D5     		bpl	.L7
 119              		.loc 1 132 0
 120 000c 4FF47054 		mov	r4, #15360
 121 0010 C4F20104 		movt	r4, 16385
 122 0014 0120     		movs	r0, #1
 123 0016 A568     		ldr	r5, [r4, #8]
 124 0018 00FA01F0 		lsl	r0, r0, r1
 125 001c 0543     		orrs	r5, r5, r0
 126 001e A560     		str	r5, [r4, #8]
 127 0020 C443     		mvns	r4, r0
 128              	.L8:
 129              		.loc 1 135 0
 130 0022 13F0020F 		tst	r3, #2
 131              		.loc 1 136 0
 132 0026 4FF47053 		mov	r3, #15360
 133 002a C4F20103 		movt	r3, 16385
 134 002e DD68     		ldr	r5, [r3, #12]
 135 0030 14BF     		ite	ne
 136 0032 0543     		orrne	r5, r0, r5
 137              		.loc 1 138 0
 138 0034 2540     		andeq	r5, r4, r5
 139 0036 DD60     		str	r5, [r3, #12]
 140              		.loc 1 141 0
 141 0038 02EBC103 		add	r3, r2, r1, lsl #3
 142 003c 5B68     		ldr	r3, [r3, #4]
 143 003e 002B     		cmp	r3, #0
 144 0040 32D0     		beq	.L11
 145              		.loc 1 142 0
 146 0042 4FF47053 		mov	r3, #15360
 147 0046 C4F20103 		movt	r3, 16385
 148 004a 1D68     		ldr	r5, [r3, #0]
 149 004c 2843     		orrs	r0, r0, r5
 150 004e 1860     		str	r0, [r3, #0]
 151              		.loc 1 143 0
 152 0050 5868     		ldr	r0, [r3, #4]
 153 0052 0440     		ands	r4, r4, r0
 154 0054 5C60     		str	r4, [r3, #4]
 155              	.L12:
 156              		.loc 1 175 0
 157 0056 0F29     		cmp	r1, #15
 158 0058 18D8     		bhi	.L6
 159              	.LBB2:
 160              		.loc 1 176 0
 161 005a 8808     		lsrs	r0, r1, #2
 162              	.LVL7:
 163              		.loc 1 184 0
 164 005c 4FF46053 		mov	r3, #14336
 165 0060 C4F20103 		movt	r3, 16385
 166 0064 0230     		adds	r0, r0, #2
 167              	.LVL8:
 168              		.loc 1 178 0
 169 0066 52F83140 		ldr	r4, [r2, r1, lsl #3]
ARM GAS  /tmp/cceBoJmg.s 			page 4


 170              		.loc 1 184 0
 171 006a 53F82050 		ldr	r5, [r3, r0, lsl #2]
 172              		.loc 1 177 0
 173 006e 01F00301 		and	r1, r1, #3
 174              	.LVL9:
 175 0072 8900     		lsls	r1, r1, #2
 176              	.LVL10:
 177 0074 0F22     		movs	r2, #15
 178 0076 02FA01F2 		lsl	r2, r2, r1
 179              		.loc 1 179 0
 180 007a C4F30314 		ubfx	r4, r4, #4, #4
 181              		.loc 1 184 0
 182 007e 25EA0202 		bic	r2, r5, r2
 183              		.loc 1 178 0
 184 0082 04FA01F1 		lsl	r1, r4, r1
 185              	.LVL11:
 186              		.loc 1 184 0
 187 0086 1143     		orrs	r1, r1, r2
 188 0088 43F82010 		str	r1, [r3, r0, lsl #2]
 189              	.LVL12:
 190              	.L6:
 191              	.LBE2:
 192              		.loc 1 189 0
 193 008c 70BC     		pop	{r4, r5, r6}
 194 008e 7047     		bx	lr
 195              	.LVL13:
 196              	.L7:
 197              		.loc 1 134 0
 198 0090 4FF47055 		mov	r5, #15360
 199 0094 C4F20105 		movt	r5, 16385
 200 0098 0120     		movs	r0, #1
 201 009a AE68     		ldr	r6, [r5, #8]
 202 009c 00FA01F0 		lsl	r0, r0, r1
 203 00a0 C443     		mvns	r4, r0
 204 00a2 2640     		ands	r6, r6, r4
 205 00a4 AE60     		str	r6, [r5, #8]
 206 00a6 BCE7     		b	.L8
 207              	.L11:
 208              		.loc 1 146 0
 209 00a8 4FF47053 		mov	r3, #15360
 210 00ac C4F20103 		movt	r3, 16385
 211 00b0 5D68     		ldr	r5, [r3, #4]
 212 00b2 2843     		orrs	r0, r0, r5
 213 00b4 5860     		str	r0, [r3, #4]
 214              		.loc 1 147 0
 215 00b6 1868     		ldr	r0, [r3, #0]
 216 00b8 0440     		ands	r4, r4, r0
 217 00ba 1C60     		str	r4, [r3, #0]
 218 00bc CBE7     		b	.L12
 219              		.cfi_endproc
 220              	.LFE121:
 221              		.size	ext_lld_channel_enable, .-ext_lld_channel_enable
 222 00be 00BF     		.section	.text.ext_lld_channel_disable,"ax",%progbits
 223              		.align	2
 224              		.p2align 4,,15
 225              		.global	ext_lld_channel_disable
 226              		.thumb
ARM GAS  /tmp/cceBoJmg.s 			page 5


 227              		.thumb_func
 228              		.type	ext_lld_channel_disable, %function
 229              	ext_lld_channel_disable:
 230              	.LFB122:
 231              		.loc 1 199 0
 232              		.cfi_startproc
 233              		@ args = 0, pretend = 0, frame = 0
 234              		@ frame_needed = 0, uses_anonymous_args = 0
 235              		@ link register save eliminated.
 236              	.LVL14:
 237              		.loc 1 206 0
 238 0000 4FF47053 		mov	r3, #15360
 239 0004 C4F20103 		movt	r3, 16385
 240 0008 0122     		movs	r2, #1
 241 000a 1868     		ldr	r0, [r3, #0]
 242              	.LVL15:
 243 000c 02FA01F1 		lsl	r1, r2, r1
 244              	.LVL16:
 245 0010 CA43     		mvns	r2, r1
 246 0012 1040     		ands	r0, r0, r2
 247 0014 1860     		str	r0, [r3, #0]
 248              		.loc 1 207 0
 249 0016 5868     		ldr	r0, [r3, #4]
 250 0018 1040     		ands	r0, r0, r2
 251 001a 5860     		str	r0, [r3, #4]
 252              		.loc 1 208 0
 253 001c 9868     		ldr	r0, [r3, #8]
 254 001e 1040     		ands	r0, r0, r2
 255 0020 9860     		str	r0, [r3, #8]
 256              		.loc 1 209 0
 257 0022 D868     		ldr	r0, [r3, #12]
 258 0024 0240     		ands	r2, r2, r0
 259 0026 DA60     		str	r2, [r3, #12]
 260              		.loc 1 210 0
 261 0028 5961     		str	r1, [r3, #20]
 262 002a 7047     		bx	lr
 263              		.cfi_endproc
 264              	.LFE122:
 265              		.size	ext_lld_channel_disable, .-ext_lld_channel_disable
 266 002c AFF30080 		.section	.text.ext_lld_start,"ax",%progbits
 267              		.align	2
 268              		.p2align 4,,15
 269              		.global	ext_lld_start
 270              		.thumb
 271              		.thumb_func
 272              		.type	ext_lld_start, %function
 273              	ext_lld_start:
 274              	.LFB119:
 275              		.loc 1 83 0
 276              		.cfi_startproc
 277              		@ args = 0, pretend = 0, frame = 0
 278              		@ frame_needed = 0, uses_anonymous_args = 0
 279              	.LVL17:
 280 0000 38B5     		push	{r3, r4, r5, lr}
 281              	.LCFI2:
 282              		.cfi_def_cfa_offset 16
 283              		.cfi_offset 3, -16
ARM GAS  /tmp/cceBoJmg.s 			page 6


 284              		.cfi_offset 4, -12
 285              		.cfi_offset 5, -8
 286              		.cfi_offset 14, -4
 287              		.loc 1 86 0
 288 0002 0378     		ldrb	r3, [r0, #0]	@ zero_extendqisi2
 289 0004 012B     		cmp	r3, #1
 290              		.loc 1 83 0
 291 0006 0546     		mov	r5, r0
 292              		.loc 1 86 0
 293 0008 14D0     		beq	.L21
 294              	.LVL18:
 295              	.L16:
 296              		.loc 1 83 0 discriminator 1
 297 000a 0024     		movs	r4, #0
 298 000c 04E0     		b	.L19
 299              	.LVL19:
 300              	.L23:
 301              		.loc 1 90 0
 302 000e 0134     		adds	r4, r4, #1
 303              		.loc 1 92 0
 304 0010 FFF7FEFF 		bl	ext_lld_channel_enable
 305              	.LVL20:
 306              		.loc 1 90 0
 307 0014 172C     		cmp	r4, #23
 308 0016 0CD0     		beq	.L22
 309              	.LVL21:
 310              	.L19:
 311              		.loc 1 91 0
 312 0018 6B68     		ldr	r3, [r5, #4]
 313 001a 53F83430 		ldr	r3, [r3, r4, lsl #3]
 314 001e 13F0040F 		tst	r3, #4
 315              		.loc 1 94 0
 316 0022 2146     		mov	r1, r4
 317 0024 2846     		mov	r0, r5
 318              		.loc 1 91 0
 319 0026 F2D1     		bne	.L23
 320              	.LVL22:
 321              		.loc 1 90 0
 322 0028 0134     		adds	r4, r4, #1
 323              		.loc 1 94 0
 324 002a FFF7FEFF 		bl	ext_lld_channel_disable
 325              	.LVL23:
 326              		.loc 1 90 0
 327 002e 172C     		cmp	r4, #23
 328 0030 F2D1     		bne	.L19
 329              	.L22:
 330              		.loc 1 95 0
 331 0032 38BD     		pop	{r3, r4, r5, pc}
 332              	.LVL24:
 333              	.L21:
 334              		.loc 1 87 0
 335 0034 FFF7FEFF 		bl	ext_lld_exti_irq_enable
 336              	.LVL25:
 337 0038 E7E7     		b	.L16
 338              		.cfi_endproc
 339              	.LFE119:
 340              		.size	ext_lld_start, .-ext_lld_start
ARM GAS  /tmp/cceBoJmg.s 			page 7


 341              		.global	EXTD1
 342 003a 00BFAFF3 		.section	.bss.EXTD1,"aw",%nobits
 342      0080
 343              		.align	2
 344              		.set	.LANCHOR0,. + 0
 345              		.type	EXTD1, %object
 346              		.size	EXTD1, 8
 347              	EXTD1:
 348 0000 00000000 		.space	8
 348      00000000 
 349              		.text
 350              	.Letext0:
 351              		.file 2 "/home/david/toolchains/psas/x-tools/stm32f407/arm-psas-eabi/bin/../lib/gcc/arm-psas-eabi/
 352              		.file 3 "../../ChibiOS/os/hal/platforms/STM32F4xx/stm32f4xx.h"
 353              		.file 4 "../../ChibiOS/os/hal/include/ext.h"
 354              		.file 5 "../../ChibiOS/os/hal/platforms/STM32/ext_lld.h"
 355              		.file 6 "../../ChibiOS/os/ports/common/ARMCMx/CMSIS/include/core_cm4.h"
 356              		.file 7 "../../ChibiOS/os/hal/platforms/STM32F4xx/ext_lld_isr.h"