ARM GAS  /tmp/ccvedTUC.s 			page 1


   1              		.syntax unified
   2              		.cpu cortex-m4
   3              		.eabi_attribute 27, 3
   4              		.eabi_attribute 28, 1
   5              		.fpu fpv4-sp-d16
   6              		.eabi_attribute 20, 1
   7              		.eabi_attribute 21, 1
   8              		.eabi_attribute 23, 3
   9              		.eabi_attribute 24, 1
  10              		.eabi_attribute 25, 1
  11              		.eabi_attribute 26, 1
  12              		.eabi_attribute 30, 2
  13              		.eabi_attribute 34, 1
  14              		.eabi_attribute 18, 4
  15              		.thumb
  16              		.file	"extdetail.c"
  17              		.text
  18              	.Ltext0:
  19              		.cfi_sections	.debug_frame
  20              		.section	.text.green_led_off,"ax",%progbits
  21              		.align	2
  22              		.p2align 4,,15
  23              		.thumb
  24              		.thumb_func
  25              		.type	green_led_off, %function
  26              	green_led_off:
  27              	.LFB119:
  28              		.file 1 "extdetail.c"
  29              		.loc 1 58 0
  30              		.cfi_startproc
  31              		@ args = 0, pretend = 0, frame = 0
  32              		@ frame_needed = 0, uses_anonymous_args = 0
  33              		@ link register save eliminated.
  34              	.LVL0:
  35              		.loc 1 60 0
  36 0000 4FF40063 		mov	r3, #2048
  37 0004 C4F20203 		movt	r3, 16386
  38 0008 4FF40052 		mov	r2, #8192
  39 000c 1A83     		strh	r2, [r3, #24]	@ movhi
  40 000e 7047     		bx	lr
  41              		.cfi_endproc
  42              	.LFE119:
  43              		.size	green_led_off, .-green_led_off
  44              		.section	.text.extdetail_mpl3115a2_int,"ax",%progbits
  45              		.align	2
  46              		.p2align 4,,15
  47              		.global	extdetail_mpl3115a2_int
  48              		.thumb
  49              		.thumb_func
  50              		.type	extdetail_mpl3115a2_int, %function
  51              	extdetail_mpl3115a2_int:
  52              	.LFB123:
  53              		.loc 1 118 0
  54              		.cfi_startproc
  55              		@ args = 0, pretend = 0, frame = 0
  56              		@ frame_needed = 0, uses_anonymous_args = 0
  57              	.LVL1:
ARM GAS  /tmp/ccvedTUC.s 			page 2


  58 0000 08B5     		push	{r3, lr}
  59              	.LCFI0:
  60              		.cfi_def_cfa_offset 8
  61              		.cfi_offset 3, -8
  62              		.cfi_offset 14, -4
  63              	.LBB2:
  64              		.loc 1 122 0
  65 0002 2023     		movs	r3, #32
  66              	.LVL2:
  67              	@ 122 "extdetail.c" 1
  68 0004 83F31188 		msr     BASEPRI, r3
  69              	@ 0 "" 2
  70              	.LVL3:
  71              		.thumb
  72              	.LBE2:
  73 0008 FFF7FEFF 		bl	dbg_check_lock_from_isr
  74              	.LVL4:
  75              		.loc 1 123 0
  76 000c 40F20000 		movw	r0, #:lower16:mpl3115a2_int_event
  77 0010 C0F20000 		movt	r0, #:upper16:mpl3115a2_int_event
  78 0014 0021     		movs	r1, #0
  79 0016 FFF7FEFF 		bl	chEvtBroadcastFlagsI
  80              	.LVL5:
  81              		.loc 1 124 0
  82 001a FFF7FEFF 		bl	dbg_check_unlock_from_isr
  83              	.LVL6:
  84              	.LBB3:
  85 001e 0023     		movs	r3, #0
  86              	.LVL7:
  87              	@ 124 "extdetail.c" 1
  88 0020 83F31188 		msr     BASEPRI, r3
  89              	@ 0 "" 2
  90              	.LVL8:
  91              		.thumb
  92 0024 08BD     		pop	{r3, pc}
  93              	.LBE3:
  94              		.cfi_endproc
  95              	.LFE123:
  96              		.size	extdetail_mpl3115a2_int, .-extdetail_mpl3115a2_int
  97 0026 00BFAFF3 		.section	.text.extdetail_adis_dio1,"ax",%progbits
  97      0080AFF3 
  97      0080
  98              		.align	2
  99              		.p2align 4,,15
 100              		.global	extdetail_adis_dio1
 101              		.thumb
 102              		.thumb_func
 103              		.type	extdetail_adis_dio1, %function
 104              	extdetail_adis_dio1:
 105              	.LFB122:
 106              		.loc 1 102 0
 107              		.cfi_startproc
 108              		@ args = 0, pretend = 0, frame = 0
 109              		@ frame_needed = 0, uses_anonymous_args = 0
 110              	.LVL9:
 111 0000 08B5     		push	{r3, lr}
 112              	.LCFI1:
ARM GAS  /tmp/ccvedTUC.s 			page 3


 113              		.cfi_def_cfa_offset 8
 114              		.cfi_offset 3, -8
 115              		.cfi_offset 14, -4
 116              	.LBB4:
 117              		.loc 1 106 0
 118 0002 2023     		movs	r3, #32
 119              	.LVL10:
 120              	@ 106 "extdetail.c" 1
 121 0004 83F31188 		msr     BASEPRI, r3
 122              	@ 0 "" 2
 123              	.LVL11:
 124              		.thumb
 125              	.LBE4:
 126 0008 FFF7FEFF 		bl	dbg_check_lock_from_isr
 127              	.LVL12:
 128              		.loc 1 107 0
 129 000c 40F20000 		movw	r0, #:lower16:adis_dio1_event
 130 0010 C0F20000 		movt	r0, #:upper16:adis_dio1_event
 131 0014 0021     		movs	r1, #0
 132 0016 FFF7FEFF 		bl	chEvtBroadcastFlagsI
 133              	.LVL13:
 134              		.loc 1 108 0
 135 001a FFF7FEFF 		bl	dbg_check_unlock_from_isr
 136              	.LVL14:
 137              	.LBB5:
 138 001e 0023     		movs	r3, #0
 139              	.LVL15:
 140              	@ 108 "extdetail.c" 1
 141 0020 83F31188 		msr     BASEPRI, r3
 142              	@ 0 "" 2
 143              	.LVL16:
 144              		.thumb
 145 0024 08BD     		pop	{r3, pc}
 146              	.LBE5:
 147              		.cfi_endproc
 148              	.LFE122:
 149              		.size	extdetail_adis_dio1, .-extdetail_adis_dio1
 150 0026 00BFAFF3 		.section	.text.extdetail_wkup_btn,"ax",%progbits
 150      0080AFF3 
 150      0080
 151              		.align	2
 152              		.p2align 4,,15
 153              		.global	extdetail_wkup_btn
 154              		.thumb
 155              		.thumb_func
 156              		.type	extdetail_wkup_btn, %function
 157              	extdetail_wkup_btn:
 158              	.LFB121:
 159              		.loc 1 78 0
 160              		.cfi_startproc
 161              		@ args = 0, pretend = 0, frame = 0
 162              		@ frame_needed = 0, uses_anonymous_args = 0
 163              	.LVL17:
 164 0000 08B5     		push	{r3, lr}
 165              	.LCFI2:
 166              		.cfi_def_cfa_offset 8
 167              		.cfi_offset 3, -8
ARM GAS  /tmp/ccvedTUC.s 			page 4


 168              		.cfi_offset 14, -4
 169              		.loc 1 84 0
 170 0002 4FF40063 		mov	r3, #2048
 171 0006 C4F20203 		movt	r3, 16386
 172 000a 4FF40052 		mov	r2, #8192
 173 000e 5A83     		strh	r2, [r3, #26]	@ movhi
 174              	.LBB6:
 175              		.loc 1 85 0
 176 0010 2023     		movs	r3, #32
 177              	.LVL18:
 178              	@ 85 "extdetail.c" 1
 179 0012 83F31188 		msr     BASEPRI, r3
 180              	@ 0 "" 2
 181              	.LVL19:
 182              		.thumb
 183              	.LBE6:
 184 0016 FFF7FEFF 		bl	dbg_check_lock_from_isr
 185              	.LVL20:
 186              		.loc 1 86 0
 187 001a 0B48     		ldr	r0, .L10
 188 001c 0021     		movs	r1, #0
 189 001e FFF7FEFF 		bl	chEvtBroadcastFlagsI
 190              	.LVL21:
 191              		.loc 1 88 0
 192 0022 0A48     		ldr	r0, .L10+4
 193 0024 C368     		ldr	r3, [r0, #12]
 194 0026 0BB1     		cbz	r3, .L5
 195              		.loc 1 89 0
 196 0028 FFF7FEFF 		bl	chVTResetI
 197              	.LVL22:
 198              	.L5:
 199              		.loc 1 92 0
 200 002c 0023     		movs	r3, #0
 201 002e 0748     		ldr	r0, .L10+4
 202 0030 074A     		ldr	r2, .L10+8
 203 0032 4FF4FA71 		mov	r1, #500
 204 0036 FFF7FEFF 		bl	chVTSetI
 205              	.LVL23:
 206              		.loc 1 93 0
 207 003a FFF7FEFF 		bl	dbg_check_unlock_from_isr
 208              	.LVL24:
 209              	.LBB7:
 210 003e 0023     		movs	r3, #0
 211              	.LVL25:
 212              	@ 93 "extdetail.c" 1
 213 0040 83F31188 		msr     BASEPRI, r3
 214              	@ 0 "" 2
 215              	.LVL26:
 216              		.thumb
 217 0044 08BD     		pop	{r3, pc}
 218              	.L11:
 219 0046 00BF     		.align	2
 220              	.L10:
 221 0048 00000000 		.word	.LANCHOR0
 222 004c 00000000 		.word	.LANCHOR1
 223 0050 00000000 		.word	green_led_off
 224              	.LBE7:
ARM GAS  /tmp/ccvedTUC.s 			page 5


 225              		.cfi_endproc
 226              	.LFE121:
 227              		.size	extdetail_wkup_btn, .-extdetail_wkup_btn
 228 0054 AFF30080 		.section	.text.extdetail_init,"ax",%progbits
 228      AFF30080 
 228      AFF30080 
 229              		.align	2
 230              		.p2align 4,,15
 231              		.global	extdetail_init
 232              		.thumb
 233              		.thumb_func
 234              		.type	extdetail_init, %function
 235              	extdetail_init:
 236              	.LFB118:
 237              		.loc 1 54 0
 238              		.cfi_startproc
 239              		@ args = 0, pretend = 0, frame = 0
 240              		@ frame_needed = 0, uses_anonymous_args = 0
 241              		@ link register save eliminated.
 242              		.loc 1 55 0
 243 0000 40F20003 		movw	r3, #:lower16:.LANCHOR0
 244 0004 C0F20003 		movt	r3, #:upper16:.LANCHOR0
 245 0008 1B60     		str	r3, [r3, #0]
 246 000a 7047     		bx	lr
 247              		.cfi_endproc
 248              	.LFE118:
 249              		.size	extdetail_init, .-extdetail_init
 250 000c AFF30080 		.section	.text.extdetail_WKUP_button_handler,"ax",%progbits
 251              		.align	2
 252              		.p2align 4,,15
 253              		.global	extdetail_WKUP_button_handler
 254              		.thumb
 255              		.thumb_func
 256              		.type	extdetail_WKUP_button_handler, %function
 257              	extdetail_WKUP_button_handler:
 258              	.LFB120:
 259              		.loc 1 68 0
 260              		.cfi_startproc
 261              		@ args = 0, pretend = 0, frame = 0
 262              		@ frame_needed = 0, uses_anonymous_args = 0
 263              	.LVL27:
 264 0000 10B5     		push	{r4, lr}
 265              	.LCFI3:
 266              		.cfi_def_cfa_offset 8
 267              		.cfi_offset 4, -8
 268              		.cfi_offset 14, -4
 269              		.loc 1 70 0
 270 0002 40F20004 		movw	r4, #:lower16:SDU1
 271 0006 C0F20004 		movt	r4, #:upper16:SDU1
 272 000a 40F20001 		movw	r1, #:lower16:.LC0
 273              		.loc 1 68 0
 274 000e 0246     		mov	r2, r0
 275              		.loc 1 70 0
 276 0010 C0F20001 		movt	r1, #:upper16:.LC0
 277 0014 2046     		mov	r0, r4
 278              	.LVL28:
 279 0016 FFF7FEFF 		bl	chprintf
ARM GAS  /tmp/ccvedTUC.s 			page 6


 280              	.LVL29:
 281              		.loc 1 71 0
 282 001a 40F20003 		movw	r3, #:lower16:adis_driver
 283 001e C0F20003 		movt	r3, #:upper16:adis_driver
 284 0022 40F20001 		movw	r1, #:lower16:.LC1
 285 0026 93F85B20 		ldrb	r2, [r3, #91]	@ zero_extendqisi2
 286 002a 2046     		mov	r0, r4
 287 002c C0F20001 		movt	r1, #:upper16:.LC1
 288              		.loc 1 72 0
 289 0030 BDE81040 		pop	{r4, lr}
 290              		.loc 1 71 0
 291 0034 FFF7FEBF 		b	chprintf
 292              	.LVL30:
 293              		.cfi_endproc
 294              	.LFE120:
 295              		.size	extdetail_WKUP_button_handler, .-extdetail_WKUP_button_handler
 296              		.global	extcfg
 297              		.global	extdetail_wkup_event
 298 0038 AFF30080 		.section	.bss.vt4.7391,"aw",%nobits
 298      AFF30080 
 299              		.align	2
 300              		.set	.LANCHOR1,. + 0
 301              		.type	vt4.7391, %object
 302              		.size	vt4.7391, 20
 303              	vt4.7391:
 304 0000 00000000 		.space	20
 304      00000000 
 304      00000000 
 304      00000000 
 304      00000000 
 305              		.section	.bss.extdetail_wkup_event,"aw",%nobits
 306              		.align	2
 307              		.set	.LANCHOR0,. + 0
 308              		.type	extdetail_wkup_event, %object
 309              		.size	extdetail_wkup_event, 4
 310              	extdetail_wkup_event:
 311 0000 00000000 		.space	4
 312              		.section	.rodata.str1.4,"aMS",%progbits,1
 313              		.align	2
 314              	.LC0:
 315 0000 0D0A574B 		.ascii	"\015\012WKUP btn. eventid: %d\015\012\000"
 315      55502062 
 315      746E2E20 
 315      6576656E 
 315      7469643A 
 316 001a 0000     		.space	2
 317              	.LC1:
 318 001c 0D0A6465 		.ascii	"\015\012debug_spi: %d\015\012\000"
 318      6275675F 
 318      7370693A 
 318      2025640D 
 318      0A00
 319 002e 0000     		.section	.rodata.extcfg,"a",%progbits
 320              		.align	2
 321              		.type	extcfg, %object
 322              		.size	extcfg, 184
 323              	extcfg:
ARM GAS  /tmp/ccvedTUC.s 			page 7


 324 0000 07000000 		.word	7
 325 0004 00000000 		.word	extdetail_wkup_btn
 326 0008 56000000 		.word	86
 327 000c 00000000 		.word	extdetail_mpl3115a2_int
 328 0010 00000000 		.word	0
 329 0014 00000000 		.word	0
 330 0018 00000000 		.word	0
 331 001c 00000000 		.word	0
 332 0020 00000000 		.word	0
 333 0024 00000000 		.word	0
 334 0028 00000000 		.word	0
 335 002c 00000000 		.word	0
 336 0030 00000000 		.word	0
 337 0034 00000000 		.word	0
 338 0038 00000000 		.word	0
 339 003c 00000000 		.word	0
 340 0040 00000000 		.word	0
 341 0044 00000000 		.word	0
 342 0048 36000000 		.word	54
 343 004c 00000000 		.word	extdetail_adis_dio1
 344 0050 00000000 		.word	0
 345 0054 00000000 		.word	0
 346 0058 00000000 		.word	0
 347 005c 00000000 		.word	0
 348 0060 00000000 		.word	0
 349 0064 00000000 		.word	0
 350 0068 00000000 		.word	0
 351 006c 00000000 		.word	0
 352 0070 00000000 		.word	0
 353 0074 00000000 		.word	0
 354 0078 00000000 		.word	0
 355 007c 00000000 		.word	0
 356 0080 00000000 		.word	0
 357 0084 00000000 		.word	0
 358 0088 00000000 		.word	0
 359 008c 00000000 		.word	0
 360 0090 00000000 		.word	0
 361 0094 00000000 		.word	0
 362 0098 00000000 		.word	0
 363 009c 00000000 		.word	0
 364 00a0 00000000 		.word	0
 365 00a4 00000000 		.word	0
 366 00a8 00000000 		.word	0
 367 00ac 00000000 		.word	0
 368 00b0 00000000 		.word	0
 369 00b4 00000000 		.word	0
 370              		.text
 371              	.Letext0:
 372              		.file 2 "/home/david/toolchains/psas/x-tools/stm32f407/arm-psas-eabi/bin/../lib/gcc/arm-psas-eabi/
 373              		.file 3 "/home/david/toolchains/psas/x-tools/stm32f407/arm-psas-eabi/bin/../lib/gcc/arm-psas-eabi/
 374              		.file 4 "../../ChibiOS/os/ports/GCC/ARMCMx/chtypes.h"
 375              		.file 5 "../../ChibiOS/os/kernel/include/chlists.h"
 376              		.file 6 "../../ChibiOS/os/kernel/include/chthreads.h"
 377              		.file 7 "../../ChibiOS/os/ports/GCC/ARMCMx/chcore_v7m.h"
 378              		.file 8 "../../ChibiOS/os/kernel/include/chvt.h"
 379              		.file 9 "../../ChibiOS/os/kernel/include/chmtx.h"
 380              		.file 10 "../../ChibiOS/os/kernel/include/chevents.h"
ARM GAS  /tmp/ccvedTUC.s 			page 8


 381              		.file 11 "../../ChibiOS/os/kernel/include/chqueues.h"
 382              		.file 12 "../../ChibiOS/os/kernel/include/chstreams.h"
 383              		.file 13 "../../ChibiOS/os/hal/platforms/STM32F4xx/stm32f4xx.h"
 384              		.file 14 "../../ChibiOS/os/hal/platforms/STM32F4xx/stm32_dma.h"
 385              		.file 15 "../../ChibiOS/os/hal/platforms/STM32/GPIOv2/pal_lld.h"
 386              		.file 16 "../../ChibiOS/os/hal/include/ext.h"
 387              		.file 17 "../../ChibiOS/os/hal/platforms/STM32/ext_lld.h"
 388              		.file 18 "../../ChibiOS/os/hal/include/spi.h"
 389              		.file 19 "../../ChibiOS/os/hal/platforms/STM32/SPIv1/spi_lld.h"
 390              		.file 20 "../../ChibiOS/os/hal/include/usb.h"
 391              		.file 21 "../../ChibiOS/os/hal/platforms/STM32/OTGv1/usb_lld.h"
 392              		.file 22 "../../ChibiOS/os/hal/platforms/STM32/OTGv1/stm32_otg.h"
 393              		.file 23 "../../ChibiOS/os/hal/include/serial_usb.h"
 394              		.file 24 "../../devices/include/ADIS16405.h"
 395              		.file 25 "../../ChibiOS/os/ports/common/ARMCMx/CMSIS/include/core_cm4.h"
 396              		.file 26 "../../devices/include/MPL3115A2.h"
 397              		.file 27 "usbdetail.h"
 398              		.file 28 "../../ChibiOS/os/kernel/include/chdebug.h"
 399              		.file 29 "../../ChibiOS/os/various/chprintf.h"