ARM GAS  /tmp/ccEer0Uy.s 			page 1


   1              		.syntax unified
   2              		.cpu cortex-m4
   3              		.eabi_attribute 27, 3
   4              		.eabi_attribute 28, 1
   5              		.fpu fpv4-sp-d16
   6              		.eabi_attribute 20, 1
   7              		.eabi_attribute 21, 1
   8              		.eabi_attribute 23, 3
   9              		.eabi_attribute 24, 1
  10              		.eabi_attribute 25, 1
  11              		.eabi_attribute 26, 1
  12              		.eabi_attribute 30, 2
  13              		.eabi_attribute 34, 1
  14              		.eabi_attribute 18, 4
  15              		.thumb
  16              		.file	"hal.c"
  17              		.text
  18              	.Ltext0:
  19              		.cfi_sections	.debug_frame
  20              		.section	.text.halInit,"ax",%progbits
  21              		.align	2
  22              		.p2align 4,,15
  23              		.global	halInit
  24              		.thumb
  25              		.thumb_func
  26              		.type	halInit, %function
  27              	halInit:
  28              	.LFB118:
  29              		.file 1 "../../ChibiOS/os/hal/src/hal.c"
  30              		.loc 1 61 0
  31              		.cfi_startproc
  32              		@ args = 0, pretend = 0, frame = 0
  33              		@ frame_needed = 0, uses_anonymous_args = 0
  34 0000 08B5     		push	{r3, lr}
  35              	.LCFI0:
  36              		.cfi_def_cfa_offset 8
  37              		.cfi_offset 3, -8
  38              		.cfi_offset 14, -4
  39              		.loc 1 63 0
  40 0002 FFF7FEFF 		bl	hal_lld_init
  41              	.LVL0:
  42              		.loc 1 66 0
  43 0006 FFF7FEFF 		bl	tmInit
  44              	.LVL1:
  45              		.loc 1 69 0
  46 000a 40F20000 		movw	r0, #:lower16:pal_default_config
  47 000e C0F20000 		movt	r0, #:upper16:pal_default_config
  48 0012 FFF7FEFF 		bl	_pal_lld_init
  49              	.LVL2:
  50              		.loc 1 78 0
  51 0016 FFF7FEFF 		bl	extInit
  52              	.LVL3:
  53              		.loc 1 84 0
  54 001a FFF7FEFF 		bl	i2cInit
  55              	.LVL4:
  56              		.loc 1 90 0
  57 001e FFF7FEFF 		bl	macInit
ARM GAS  /tmp/ccEer0Uy.s 			page 2


  58              	.LVL5:
  59              		.loc 1 96 0
  60 0022 FFF7FEFF 		bl	sdInit
  61              	.LVL6:
  62              		.loc 1 102 0
  63 0026 FFF7FEFF 		bl	spiInit
  64              	.LVL7:
  65              		.loc 1 108 0
  66 002a FFF7FEFF 		bl	usbInit
  67              	.LVL8:
  68              		.loc 1 114 0
  69 002e FFF7FEFF 		bl	sduInit
  70              	.LVL9:
  71              		.loc 1 121 0
  72 0032 BDE80840 		pop	{r3, lr}
  73              		.loc 1 120 0
  74 0036 FFF7FEBF 		b	boardInit
  75              	.LVL10:
  76              		.cfi_endproc
  77              	.LFE118:
  78              		.size	halInit, .-halInit
  79 003a 00BFAFF3 		.section	.text.halIsCounterWithin,"ax",%progbits
  79      0080
  80              		.align	2
  81              		.p2align 4,,15
  82              		.global	halIsCounterWithin
  83              		.thumb
  84              		.thumb_func
  85              		.type	halIsCounterWithin, %function
  86              	halIsCounterWithin:
  87              	.LFB119:
  88              		.loc 1 167 0
  89              		.cfi_startproc
  90              		@ args = 0, pretend = 0, frame = 0
  91              		@ frame_needed = 0, uses_anonymous_args = 0
  92              		@ link register save eliminated.
  93              	.LVL11:
  94              		.loc 1 168 0
  95 0000 4FF48053 		mov	r3, #4096
  96 0004 CEF20003 		movt	r3, 57344
  97              		.loc 1 170 0
  98 0008 8142     		cmp	r1, r0
  99              		.loc 1 167 0
 100 000a 0246     		mov	r2, r0
 101              		.loc 1 168 0
 102 000c 5B68     		ldr	r3, [r3, #4]
 103              	.LVL12:
 104              		.loc 1 170 0
 105 000e 09D8     		bhi	.L6
 106              		.loc 1 171 0 discriminator 2
 107 0010 8342     		cmp	r3, r0
 108 0012 34BF     		ite	cc
 109 0014 0022     		movcc	r2, #0
 110 0016 0122     		movcs	r2, #1
 111              		.loc 1 170 0 discriminator 2
 112 0018 8B42     		cmp	r3, r1
 113 001a 2CBF     		ite	cs
ARM GAS  /tmp/ccEer0Uy.s 			page 3


 114 001c 1046     		movcs	r0, r2
 115 001e 42F00100 		orrcc	r0, r2, #1
 116              	.LVL13:
 117              		.loc 1 172 0 discriminator 2
 118 0022 7047     		bx	lr
 119              	.LVL14:
 120              	.L6:
 121              		.loc 1 170 0 discriminator 1
 122 0024 8B42     		cmp	r3, r1
 123 0026 2CBF     		ite	cs
 124 0028 0020     		movcs	r0, #0
 125              	.LVL15:
 126 002a 0120     		movcc	r0, #1
 127 002c 9342     		cmp	r3, r2
 128 002e 38BF     		it	cc
 129 0030 0020     		movcc	r0, #0
 130 0032 7047     		bx	lr
 131              		.cfi_endproc
 132              	.LFE119:
 133              		.size	halIsCounterWithin, .-halIsCounterWithin
 134 0034 AFF30080 		.section	.text.halPolledDelay,"ax",%progbits
 134      AFF30080 
 134      AFF30080 
 135              		.align	2
 136              		.p2align 4,,15
 137              		.global	halPolledDelay
 138              		.thumb
 139              		.thumb_func
 140              		.type	halPolledDelay, %function
 141              	halPolledDelay:
 142              	.LFB120:
 143              		.loc 1 186 0
 144              		.cfi_startproc
 145              		@ args = 0, pretend = 0, frame = 0
 146              		@ frame_needed = 0, uses_anonymous_args = 0
 147              		@ link register save eliminated.
 148              	.LVL16:
 149              		.loc 1 187 0
 150 0000 4FF48053 		mov	r3, #4096
 151 0004 CEF20003 		movt	r3, 57344
 152              		.loc 1 186 0
 153 0008 10B4     		push	{r4}
 154              	.LCFI1:
 155              		.cfi_def_cfa_offset 4
 156              		.cfi_offset 4, -4
 157              		.loc 1 187 0
 158 000a 5A68     		ldr	r2, [r3, #4]
 159              	.LVL17:
 160              	.LBB4:
 161              	.LBB5:
 162              		.loc 1 168 0
 163 000c 1C46     		mov	r4, r3
 164              	.LBE5:
 165              	.LBE4:
 166              		.loc 1 188 0
 167 000e 8018     		adds	r0, r0, r2
 168              	.LVL18:
ARM GAS  /tmp/ccEer0Uy.s 			page 4


 169              	.L10:
 170              	.LBB8:
 171              	.LBB6:
 172              		.loc 1 170 0 discriminator 1
 173 0010 8242     		cmp	r2, r0
 174              		.loc 1 168 0 discriminator 1
 175 0012 6368     		ldr	r3, [r4, #4]
 176              	.LVL19:
 177              		.loc 1 170 0 discriminator 1
 178 0014 0AD2     		bcs	.L8
 179              		.loc 1 170 0 is_stmt 0
 180 0016 9842     		cmp	r0, r3
 181 0018 94BF     		ite	ls
 182 001a 0021     		movls	r1, #0
 183 001c 0121     		movhi	r1, #1
 184 001e 9A42     		cmp	r2, r3
 185 0020 88BF     		it	hi
 186 0022 0021     		movhi	r1, #0
 187              	.LBE6:
 188              	.LBE8:
 189              		.loc 1 189 0 is_stmt 1
 190 0024 0029     		cmp	r1, #0
 191 0026 F3D1     		bne	.L10
 192              	.L12:
 193              		.loc 1 191 0
 194 0028 10BC     		pop	{r4}
 195 002a 7047     		bx	lr
 196              	.L8:
 197              	.LBB9:
 198              	.LBB7:
 199              		.loc 1 171 0
 200 002c 9A42     		cmp	r2, r3
 201 002e 8CBF     		ite	hi
 202 0030 0021     		movhi	r1, #0
 203 0032 0121     		movls	r1, #1
 204              		.loc 1 170 0
 205 0034 9842     		cmp	r0, r3
 206 0036 88BF     		it	hi
 207 0038 41F00101 		orrhi	r1, r1, #1
 208              	.LBE7:
 209              	.LBE9:
 210              		.loc 1 189 0
 211 003c 0029     		cmp	r1, #0
 212 003e E7D1     		bne	.L10
 213 0040 F2E7     		b	.L12
 214              		.cfi_endproc
 215              	.LFE120:
 216              		.size	halPolledDelay, .-halPolledDelay
 217 0042 00BFAFF3 		.text
 217      0080AFF3 
 217      0080AFF3 
 217      0080
 218              	.Letext0:
 219              		.file 2 "/home/david/toolchains/arm-psas-eabi/bin/../lib/gcc/arm-psas-eabi/4.7.2/../../../../arm-p
 220              		.file 3 "../../ChibiOS/os/ports/GCC/ARMCMx/chtypes.h"
 221              		.file 4 "../../ChibiOS/os/ports/common/ARMCMx/nvic.h"
 222              		.file 5 "../../ChibiOS/os/hal/platforms/STM32F4xx/hal_lld.h"
ARM GAS  /tmp/ccEer0Uy.s 			page 5


 223              		.file 6 "../../ChibiOS/os/hal/platforms/STM32/GPIOv2/pal_lld.h"
 224              		.file 7 "../../ChibiOS/os/ports/common/ARMCMx/CMSIS/include/core_cm4.h"
 225              		.file 8 "../../ChibiOS/os/hal/include/tm.h"
 226              		.file 9 "../../ChibiOS/os/hal/include/ext.h"
 227              		.file 10 "../../ChibiOS/os/hal/include/i2c.h"
 228              		.file 11 "../../ChibiOS/os/hal/include/mac.h"
 229              		.file 12 "../../ChibiOS/os/hal/include/serial.h"
 230              		.file 13 "../../ChibiOS/os/hal/include/spi.h"
 231              		.file 14 "../../ChibiOS/os/hal/include/usb.h"
 232              		.file 15 "../../ChibiOS/os/hal/include/serial_usb.h"
 233              		.file 16 "./boards/OLIMEX_STM32_E407/board.h"