ARM GAS  /tmp/ccmMlW1m.s 			page 1


   1              		.syntax unified
   2              		.cpu cortex-m4
   3              		.eabi_attribute 27, 3
   4              		.eabi_attribute 28, 1
   5              		.fpu fpv4-sp-d16
   6              		.eabi_attribute 20, 1
   7              		.eabi_attribute 21, 1
   8              		.eabi_attribute 23, 3
   9              		.eabi_attribute 24, 1
  10              		.eabi_attribute 25, 1
  11              		.eabi_attribute 26, 1
  12              		.eabi_attribute 30, 2
  13              		.eabi_attribute 34, 1
  14              		.eabi_attribute 18, 4
  15              		.thumb
  16              		.file	"hal_lld.c"
  17              		.text
  18              	.Ltext0:
  19              		.cfi_sections	.debug_frame
  20              		.section	.text.hal_lld_init,"ax",%progbits
  21              		.align	2
  22              		.p2align 4,,15
  23              		.global	hal_lld_init
  24              		.thumb
  25              		.thumb_func
  26              		.type	hal_lld_init, %function
  27              	hal_lld_init:
  28              	.LFB119:
  29              		.file 1 "../../ChibiOS/os/hal/platforms/STM32F4xx/hal_lld.c"
  30              		.loc 1 98 0
  31              		.cfi_startproc
  32              		@ args = 0, pretend = 0, frame = 0
  33              		@ frame_needed = 0, uses_anonymous_args = 0
  34              		@ link register save eliminated.
  35              		.loc 1 102 0
  36 0000 4FF46053 		mov	r3, #14336
  37 0004 C4F20203 		movt	r3, 16386
  38 0008 0022     		movs	r2, #0
  39 000a 1969     		ldr	r1, [r3, #16]
  40 000c 41F00101 		orr	r1, r1, #1
  41              		.loc 1 98 0
  42 0010 30B4     		push	{r4, r5}
  43              	.LCFI0:
  44              		.cfi_def_cfa_offset 8
  45              		.cfi_offset 4, -8
  46              		.cfi_offset 5, -4
  47              		.loc 1 102 0
  48 0012 1961     		str	r1, [r3, #16]
  49 0014 1A61     		str	r2, [r3, #16]
  50              		.loc 1 103 0
  51 0016 5969     		ldr	r1, [r3, #20]
  52 0018 41F00101 		orr	r1, r1, #1
  53 001c 5961     		str	r1, [r3, #20]
  54 001e 5A61     		str	r2, [r3, #20]
  55              		.loc 1 104 0
  56 0020 9969     		ldr	r1, [r3, #24]
  57 0022 41F00101 		orr	r1, r1, #1
ARM GAS  /tmp/ccmMlW1m.s 			page 2


  58 0026 9961     		str	r1, [r3, #24]
  59 0028 9A61     		str	r2, [r3, #24]
  60              		.loc 1 105 0
  61 002a 196A     		ldr	r1, [r3, #32]
  62 002c 1962     		str	r1, [r3, #32]
  63 002e 1A62     		str	r2, [r3, #32]
  64              		.loc 1 106 0
  65 0030 5D6A     		ldr	r5, [r3, #36]
  66              		.loc 1 109 0
  67 0032 4EF21001 		movw	r1, #57360
  68 0036 CEF20001 		movt	r1, 57344
  69 003a 49F23F04 		movw	r4, #36927
  70 003e C0F20204 		movt	r4, 2
  71              		.loc 1 116 0
  72 0042 4EF6F050 		movw	r0, #60912
  73              		.loc 1 106 0
  74 0046 45F00105 		orr	r5, r5, #1
  75 004a 5D62     		str	r5, [r3, #36]
  76              		.loc 1 116 0
  77 004c CEF20000 		movt	r0, 57344
  78              		.loc 1 106 0
  79 0050 5A62     		str	r2, [r3, #36]
  80              		.loc 1 109 0
  81 0052 4C60     		str	r4, [r1, #4]
  82              		.loc 1 111 0
  83 0054 0724     		movs	r4, #7
  84              		.loc 1 110 0
  85 0056 8A60     		str	r2, [r1, #8]
  86              		.loc 1 111 0
  87 0058 0C60     		str	r4, [r1, #0]
  88              		.loc 1 116 0
  89 005a C468     		ldr	r4, [r0, #12]
  90              		.loc 1 117 0
  91 005c 4FF48051 		mov	r1, #4096
  92 0060 CEF20001 		movt	r1, 57344
  93              		.loc 1 116 0
  94 0064 44F08074 		orr	r4, r4, #16777216
  95 0068 C460     		str	r4, [r0, #12]
  96              		.loc 1 117 0
  97 006a 0868     		ldr	r0, [r1, #0]
  98 006c 40F00100 		orr	r0, r0, #1
  99 0070 0860     		str	r0, [r1, #0]
 100              		.loc 1 120 0
 101 0072 186C     		ldr	r0, [r3, #64]
 102              	.LBB4:
 103              	.LBB5:
 104              		.loc 1 56 0
 105 0074 4FF4E041 		mov	r1, #28672
 106 0078 C4F20001 		movt	r1, 16384
 107              	.LBE5:
 108              	.LBE4:
 109              		.loc 1 120 0
 110 007c 40F08050 		orr	r0, r0, #268435456
 111 0080 1864     		str	r0, [r3, #64]
 112              	.LBB7:
 113              	.LBB6:
 114              		.loc 1 56 0
ARM GAS  /tmp/ccmMlW1m.s 			page 3


 115 0082 0868     		ldr	r0, [r1, #0]
 116 0084 40F48070 		orr	r0, r0, #256
 117 0088 0860     		str	r0, [r1, #0]
 118              		.loc 1 59 0
 119 008a 196F     		ldr	r1, [r3, #112]
 120 008c 01F44071 		and	r1, r1, #768
 121 0090 B1F5007F 		cmp	r1, #512
 122              		.loc 1 61 0
 123 0094 1EBF     		ittt	ne
 124 0096 4FF48031 		movne	r1, #65536
 125 009a 1967     		strne	r1, [r3, #112]
 126              		.loc 1 62 0
 127 009c 1A67     		strne	r2, [r3, #112]
 128              		.loc 1 75 0
 129 009e 4FF46053 		mov	r3, #14336
 130 00a2 C4F20203 		movt	r3, 16386
 131 00a6 1A6F     		ldr	r2, [r3, #112]
 132 00a8 1204     		lsls	r2, r2, #16
 133 00aa 07D4     		bmi	.L3
 134              		.loc 1 77 0
 135 00ac 1A6F     		ldr	r2, [r3, #112]
 136 00ae 42F40072 		orr	r2, r2, #512
 137 00b2 1A67     		str	r2, [r3, #112]
 138              		.loc 1 80 0
 139 00b4 1A6F     		ldr	r2, [r3, #112]
 140 00b6 42F40042 		orr	r2, r2, #32768
 141 00ba 1A67     		str	r2, [r3, #112]
 142              	.L3:
 143              	.LBE6:
 144              	.LBE7:
 145              		.loc 1 133 0
 146 00bc 30BC     		pop	{r4, r5}
 147              		.loc 1 126 0
 148 00be FFF7FEBF 		b	dmaInit
 149              	.LVL0:
 150              		.cfi_endproc
 151              	.LFE119:
 152              		.size	hal_lld_init, .-hal_lld_init
 153 00c2 00BFAFF3 		.section	.text.stm32_clock_init,"ax",%progbits
 153      0080AFF3 
 153      0080AFF3 
 153      0080
 154              		.align	2
 155              		.p2align 4,,15
 156              		.global	stm32_clock_init
 157              		.thumb
 158              		.thumb_func
 159              		.type	stm32_clock_init, %function
 160              	stm32_clock_init:
 161              	.LFB120:
 162              		.loc 1 142 0
 163              		.cfi_startproc
 164              		@ args = 0, pretend = 0, frame = 0
 165              		@ frame_needed = 0, uses_anonymous_args = 0
 166              		@ link register save eliminated.
 167              		.loc 1 146 0
 168 0000 4FF46052 		mov	r2, #14336
ARM GAS  /tmp/ccmMlW1m.s 			page 4


 169 0004 C4F20202 		movt	r2, 16386
 170              		.loc 1 150 0
 171 0008 4FF4E043 		mov	r3, #28672
 172 000c C4F20003 		movt	r3, 16384
 173              		.loc 1 146 0
 174 0010 4FF08051 		mov	r1, #268435456
 175 0014 1164     		str	r1, [r2, #64]
 176              		.loc 1 150 0
 177 0016 4FF48041 		mov	r1, #16384
 178              		.loc 1 151 0
 179 001a 1A46     		mov	r2, r3
 180              		.loc 1 150 0
 181 001c 1960     		str	r1, [r3, #0]
 182              	.L9:
 183              		.loc 1 151 0 discriminator 1
 184 001e 5368     		ldr	r3, [r2, #4]
 185 0020 5904     		lsls	r1, r3, #17
 186 0022 FCD5     		bpl	.L9
 187              		.loc 1 159 0
 188 0024 4FF46053 		mov	r3, #14336
 189 0028 C4F20203 		movt	r3, 16386
 190              		.loc 1 160 0
 191 002c 1946     		mov	r1, r3
 192              		.loc 1 159 0
 193 002e 1A68     		ldr	r2, [r3, #0]
 194 0030 42F00102 		orr	r2, r2, #1
 195 0034 1A60     		str	r2, [r3, #0]
 196              	.L10:
 197              		.loc 1 160 0 discriminator 1
 198 0036 0A68     		ldr	r2, [r1, #0]
 199 0038 4FF46053 		mov	r3, #14336
 200 003c 9207     		lsls	r2, r2, #30
 201 003e C4F20203 		movt	r3, 16386
 202 0042 F8D5     		bpl	.L10
 203              		.loc 1 170 0
 204 0044 1A68     		ldr	r2, [r3, #0]
 205 0046 42F48032 		orr	r2, r2, #65536
 206 004a 1A60     		str	r2, [r3, #0]
 207              		.loc 1 172 0
 208 004c 1946     		mov	r1, r3
 209              	.L11:
 210              		.loc 1 172 0 is_stmt 0 discriminator 1
 211 004e 0A68     		ldr	r2, [r1, #0]
 212 0050 4FF46053 		mov	r3, #14336
 213 0054 9003     		lsls	r0, r2, #14
 214 0056 C4F20203 		movt	r3, 16386
 215 005a F8D5     		bpl	.L11
 216              		.loc 1 178 0 is_stmt 1
 217 005c 5A6F     		ldr	r2, [r3, #116]
 218 005e 42F00102 		orr	r2, r2, #1
 219 0062 5A67     		str	r2, [r3, #116]
 220              		.loc 1 179 0
 221 0064 1946     		mov	r1, r3
 222              	.L12:
 223              		.loc 1 179 0 is_stmt 0 discriminator 1
 224 0066 4A6F     		ldr	r2, [r1, #116]
 225 0068 4FF46053 		mov	r3, #14336
ARM GAS  /tmp/ccmMlW1m.s 			page 5


 226 006c 9207     		lsls	r2, r2, #30
 227 006e C4F20203 		movt	r3, 16386
 228 0072 F8D5     		bpl	.L12
 229              		.loc 1 196 0 is_stmt 1
 230 0074 45F20C42 		movw	r2, #21516
 231 0078 C0F24072 		movt	r2, 1856
 232 007c 5A60     		str	r2, [r3, #4]
 233              		.loc 1 198 0
 234 007e 1A68     		ldr	r2, [r3, #0]
 235 0080 42F08072 		orr	r2, r2, #16777216
 236 0084 1A60     		str	r2, [r3, #0]
 237              		.loc 1 199 0
 238 0086 1946     		mov	r1, r3
 239              	.L13:
 240              		.loc 1 199 0 is_stmt 0 discriminator 1
 241 0088 0A68     		ldr	r2, [r1, #0]
 242 008a 4FF46053 		mov	r3, #14336
 243 008e 9001     		lsls	r0, r2, #6
 244 0090 C4F20203 		movt	r3, 16386
 245 0094 F8D5     		bpl	.L13
 246              		.loc 1 212 0 is_stmt 1
 247 0096 9868     		ldr	r0, [r3, #8]
 248 0098 4FF41442 		mov	r2, #37888
 249              		.loc 1 225 0
 250 009c 4FF47051 		mov	r1, #15360
 251              		.loc 1 212 0
 252 00a0 C3F60802 		movt	r2, 14344
 253 00a4 0243     		orrs	r2, r2, r0
 254              		.loc 1 225 0
 255 00a6 C4F20201 		movt	r1, 16386
 256              		.loc 1 212 0
 257 00aa 9A60     		str	r2, [r3, #8]
 258              		.loc 1 225 0
 259 00ac 40F20572 		movw	r2, #1797
 260 00b0 0A60     		str	r2, [r1, #0]
 261              		.loc 1 231 0
 262 00b2 9A68     		ldr	r2, [r3, #8]
 263 00b4 42F00202 		orr	r2, r2, #2
 264 00b8 9A60     		str	r2, [r3, #8]
 265              	.L14:
 266              		.loc 1 232 0 discriminator 1
 267 00ba 9968     		ldr	r1, [r3, #8]
 268 00bc 01F00C01 		and	r1, r1, #12
 269 00c0 4FF46052 		mov	r2, #14336
 270 00c4 0829     		cmp	r1, #8
 271 00c6 C4F20202 		movt	r2, 16386
 272 00ca F6D1     		bne	.L14
 273              		.loc 1 239 0
 274 00cc 536C     		ldr	r3, [r2, #68]
 275 00ce 43F48043 		orr	r3, r3, #16384
 276 00d2 5364     		str	r3, [r2, #68]
 277 00d4 536E     		ldr	r3, [r2, #100]
 278 00d6 43F48043 		orr	r3, r3, #16384
 279 00da 5366     		str	r3, [r2, #100]
 280 00dc 7047     		bx	lr
 281              		.cfi_endproc
 282              	.LFE120:
ARM GAS  /tmp/ccmMlW1m.s 			page 6


 283              		.size	stm32_clock_init, .-stm32_clock_init
 284 00de 00BF     		.text
 285              	.Letext0:
 286              		.file 2 "/home/david/toolchains/psas/x-tools/stm32f407/arm-psas-eabi/bin/../lib/gcc/arm-psas-eabi/
 287              		.file 3 "../../ChibiOS/os/ports/common/ARMCMx/nvic.h"
 288              		.file 4 "../../ChibiOS/os/ports/common/ARMCMx/CMSIS/include/core_cm4.h"
 289              		.file 5 "../../ChibiOS/os/hal/platforms/STM32F4xx/stm32f4xx.h"
 290              		.file 6 "../../ChibiOS/os/hal/platforms/STM32F4xx/stm32_dma.h"
 291              		.section	.debug_info,"",%progbits
 292              	.Ldebug_info0:
 293 0000 D5040000 		.4byte	0x4d5
 294 0004 0200     		.2byte	0x2
 295 0006 00000000 		.4byte	.Ldebug_abbrev0
 296 000a 04       		.byte	0x4
 297 000b 01       		.uleb128 0x1
 298 000c B9010000 		.4byte	.LASF65
 299 0010 01       		.byte	0x1
 300 0011 83020000 		.4byte	.LASF66
 301 0015 70000000 		.4byte	.LASF67
 302 0019 18000000 		.4byte	.Ldebug_ranges0+0x18
 303 001d 00000000 		.4byte	0
 304 0021 00000000 		.4byte	0
 305 0025 00000000 		.4byte	.Ldebug_line0
 306 0029 02       		.uleb128 0x2
 307 002a 04       		.byte	0x4
 308 002b 05       		.byte	0x5
 309 002c 696E7400 		.ascii	"int\000"
 310 0030 03       		.uleb128 0x3
 311 0031 04       		.byte	0x4
 312 0032 07       		.byte	0x7
 313 0033 9A010000 		.4byte	.LASF0
 314 0037 03       		.uleb128 0x3
 315 0038 01       		.byte	0x1
 316 0039 06       		.byte	0x6
 317 003a 6E010000 		.4byte	.LASF1
 318 003e 03       		.uleb128 0x3
 319 003f 01       		.byte	0x1
 320 0040 08       		.byte	0x8
 321 0041 58010000 		.4byte	.LASF2
 322 0045 03       		.uleb128 0x3
 323 0046 02       		.byte	0x2
 324 0047 05       		.byte	0x5
 325 0048 21000000 		.4byte	.LASF3
 326 004c 04       		.uleb128 0x4
 327 004d B0010000 		.4byte	.LASF5
 328 0051 02       		.byte	0x2
 329 0052 36       		.byte	0x36
 330 0053 57000000 		.4byte	0x57
 331 0057 03       		.uleb128 0x3
 332 0058 02       		.byte	0x2
 333 0059 07       		.byte	0x7
 334 005a F9010000 		.4byte	.LASF4
 335 005e 04       		.uleb128 0x4
 336 005f 23020000 		.4byte	.LASF6
 337 0063 02       		.byte	0x2
 338 0064 4F       		.byte	0x4f
 339 0065 69000000 		.4byte	0x69
ARM GAS  /tmp/ccmMlW1m.s 			page 7


 340 0069 03       		.uleb128 0x3
 341 006a 04       		.byte	0x4
 342 006b 05       		.byte	0x5
 343 006c 15010000 		.4byte	.LASF7
 344 0070 04       		.uleb128 0x4
 345 0071 91010000 		.4byte	.LASF8
 346 0075 02       		.byte	0x2
 347 0076 50       		.byte	0x50
 348 0077 7B000000 		.4byte	0x7b
 349 007b 03       		.uleb128 0x3
 350 007c 04       		.byte	0x4
 351 007d 07       		.byte	0x7
 352 007e C5010000 		.4byte	.LASF9
 353 0082 03       		.uleb128 0x3
 354 0083 08       		.byte	0x8
 355 0084 05       		.byte	0x5
 356 0085 F4000000 		.4byte	.LASF10
 357 0089 03       		.uleb128 0x3
 358 008a 08       		.byte	0x8
 359 008b 07       		.byte	0x7
 360 008c 7A010000 		.4byte	.LASF11
 361 0090 04       		.uleb128 0x4
 362 0091 E4000000 		.4byte	.LASF12
 363 0095 03       		.byte	0x3
 364 0096 33       		.byte	0x33
 365 0097 9B000000 		.4byte	0x9b
 366 009b 05       		.uleb128 0x5
 367 009c 70000000 		.4byte	0x70
 368 00a0 03       		.uleb128 0x3
 369 00a1 04       		.byte	0x4
 370 00a2 07       		.byte	0x7
 371 00a3 2B000000 		.4byte	.LASF13
 372 00a7 06       		.uleb128 0x6
 373 00a8 10       		.byte	0x10
 374 00a9 03       		.byte	0x3
 375 00aa EA       		.byte	0xea
 376 00ab E8000000 		.4byte	0xe8
 377 00af 07       		.uleb128 0x7
 378 00b0 0F010000 		.4byte	.LASF14
 379 00b4 03       		.byte	0x3
 380 00b5 EB       		.byte	0xeb
 381 00b6 90000000 		.4byte	0x90
 382 00ba 02       		.byte	0x2
 383 00bb 23       		.byte	0x23
 384 00bc 00       		.uleb128 0
 385 00bd 07       		.uleb128 0x7
 386 00be BD000000 		.4byte	.LASF15
 387 00c2 03       		.byte	0x3
 388 00c3 EC       		.byte	0xec
 389 00c4 90000000 		.4byte	0x90
 390 00c8 02       		.byte	0x2
 391 00c9 23       		.byte	0x23
 392 00ca 04       		.uleb128 0x4
 393 00cb 07       		.uleb128 0x7
 394 00cc DE000000 		.4byte	.LASF16
 395 00d0 03       		.byte	0x3
 396 00d1 ED       		.byte	0xed
ARM GAS  /tmp/ccmMlW1m.s 			page 8


 397 00d2 90000000 		.4byte	0x90
 398 00d6 02       		.byte	0x2
 399 00d7 23       		.byte	0x23
 400 00d8 08       		.uleb128 0x8
 401 00d9 07       		.uleb128 0x7
 402 00da 1B000000 		.4byte	.LASF17
 403 00de 03       		.byte	0x3
 404 00df EE       		.byte	0xee
 405 00e0 90000000 		.4byte	0x90
 406 00e4 02       		.byte	0x2
 407 00e5 23       		.byte	0x23
 408 00e6 0C       		.uleb128 0xc
 409 00e7 00       		.byte	0
 410 00e8 04       		.uleb128 0x4
 411 00e9 1B020000 		.4byte	.LASF18
 412 00ed 03       		.byte	0x3
 413 00ee EF       		.byte	0xef
 414 00ef A7000000 		.4byte	0xa7
 415 00f3 06       		.uleb128 0x6
 416 00f4 20       		.byte	0x20
 417 00f5 03       		.byte	0x3
 418 00f6 FF       		.byte	0xff
 419 00f7 74010000 		.4byte	0x174
 420 00fb 08       		.uleb128 0x8
 421 00fc 6B000000 		.4byte	.LASF19
 422 0100 03       		.byte	0x3
 423 0101 0001     		.2byte	0x100
 424 0103 90000000 		.4byte	0x90
 425 0107 02       		.byte	0x2
 426 0108 23       		.byte	0x23
 427 0109 00       		.uleb128 0
 428 010a 08       		.uleb128 0x8
 429 010b 02010000 		.4byte	.LASF20
 430 010f 03       		.byte	0x3
 431 0110 0101     		.2byte	0x101
 432 0112 90000000 		.4byte	0x90
 433 0116 02       		.byte	0x2
 434 0117 23       		.byte	0x23
 435 0118 04       		.uleb128 0x4
 436 0119 08       		.uleb128 0x8
 437 011a A4000000 		.4byte	.LASF21
 438 011e 03       		.byte	0x3
 439 011f 0201     		.2byte	0x102
 440 0121 90000000 		.4byte	0x90
 441 0125 02       		.byte	0x2
 442 0126 23       		.byte	0x23
 443 0127 08       		.uleb128 0x8
 444 0128 08       		.uleb128 0x8
 445 0129 51010000 		.4byte	.LASF22
 446 012d 03       		.byte	0x3
 447 012e 0301     		.2byte	0x103
 448 0130 90000000 		.4byte	0x90
 449 0134 02       		.byte	0x2
 450 0135 23       		.byte	0x23
 451 0136 0C       		.uleb128 0xc
 452 0137 08       		.uleb128 0x8
 453 0138 B6020000 		.4byte	.LASF23
ARM GAS  /tmp/ccmMlW1m.s 			page 9


 454 013c 03       		.byte	0x3
 455 013d 0401     		.2byte	0x104
 456 013f 90000000 		.4byte	0x90
 457 0143 02       		.byte	0x2
 458 0144 23       		.byte	0x23
 459 0145 10       		.uleb128 0x10
 460 0146 08       		.uleb128 0x8
 461 0147 BF020000 		.4byte	.LASF24
 462 014b 03       		.byte	0x3
 463 014c 0501     		.2byte	0x105
 464 014e 90000000 		.4byte	0x90
 465 0152 02       		.byte	0x2
 466 0153 23       		.byte	0x23
 467 0154 14       		.uleb128 0x14
 468 0155 08       		.uleb128 0x8
 469 0156 3E000000 		.4byte	.LASF25
 470 015a 03       		.byte	0x3
 471 015b 0601     		.2byte	0x106
 472 015d 90000000 		.4byte	0x90
 473 0161 02       		.byte	0x2
 474 0162 23       		.byte	0x23
 475 0163 18       		.uleb128 0x18
 476 0164 08       		.uleb128 0x8
 477 0165 39000000 		.4byte	.LASF26
 478 0169 03       		.byte	0x3
 479 016a 0701     		.2byte	0x107
 480 016c 90000000 		.4byte	0x90
 481 0170 02       		.byte	0x2
 482 0171 23       		.byte	0x23
 483 0172 1C       		.uleb128 0x1c
 484 0173 00       		.byte	0
 485 0174 09       		.uleb128 0x9
 486 0175 5D000000 		.4byte	.LASF27
 487 0179 03       		.byte	0x3
 488 017a 0801     		.2byte	0x108
 489 017c F3000000 		.4byte	0xf3
 490 0180 03       		.uleb128 0x3
 491 0181 01       		.byte	0x1
 492 0182 08       		.byte	0x8
 493 0183 16020000 		.4byte	.LASF28
 494 0187 0A       		.uleb128 0xa
 495 0188 9B000000 		.4byte	0x9b
 496 018c 0B       		.uleb128 0xb
 497 018d 70000000 		.4byte	0x70
 498 0191 9C010000 		.4byte	0x19c
 499 0195 0C       		.uleb128 0xc
 500 0196 A0000000 		.4byte	0xa0
 501 019a 01       		.byte	0x1
 502 019b 00       		.byte	0
 503 019c 0D       		.uleb128 0xd
 504 019d 10       		.byte	0x10
 505 019e 04       		.byte	0x4
 506 019f 6002     		.2byte	0x260
 507 01a1 E2010000 		.4byte	0x1e2
 508 01a5 08       		.uleb128 0x8
 509 01a6 6B000000 		.4byte	.LASF19
 510 01aa 04       		.byte	0x4
ARM GAS  /tmp/ccmMlW1m.s 			page 10


 511 01ab 6202     		.2byte	0x262
 512 01ad 9B000000 		.4byte	0x9b
 513 01b1 02       		.byte	0x2
 514 01b2 23       		.byte	0x23
 515 01b3 00       		.uleb128 0
 516 01b4 08       		.uleb128 0x8
 517 01b5 C6020000 		.4byte	.LASF29
 518 01b9 04       		.byte	0x4
 519 01ba 6302     		.2byte	0x263
 520 01bc 9B000000 		.4byte	0x9b
 521 01c0 02       		.byte	0x2
 522 01c1 23       		.byte	0x23
 523 01c2 04       		.uleb128 0x4
 524 01c3 0E       		.uleb128 0xe
 525 01c4 56414C00 		.ascii	"VAL\000"
 526 01c8 04       		.byte	0x4
 527 01c9 6402     		.2byte	0x264
 528 01cb 9B000000 		.4byte	0x9b
 529 01cf 02       		.byte	0x2
 530 01d0 23       		.byte	0x23
 531 01d1 08       		.uleb128 0x8
 532 01d2 08       		.uleb128 0x8
 533 01d3 09010000 		.4byte	.LASF30
 534 01d7 04       		.byte	0x4
 535 01d8 6502     		.2byte	0x265
 536 01da 87010000 		.4byte	0x187
 537 01de 02       		.byte	0x2
 538 01df 23       		.byte	0x23
 539 01e0 0C       		.uleb128 0xc
 540 01e1 00       		.byte	0
 541 01e2 09       		.uleb128 0x9
 542 01e3 EC010000 		.4byte	.LASF31
 543 01e7 04       		.byte	0x4
 544 01e8 6602     		.2byte	0x266
 545 01ea 9C010000 		.4byte	0x19c
 546 01ee 05       		.uleb128 0x5
 547 01ef 5E000000 		.4byte	0x5e
 548 01f3 0D       		.uleb128 0xd
 549 01f4 18       		.byte	0x18
 550 01f5 05       		.byte	0x5
 551 01f6 4102     		.2byte	0x241
 552 01f8 55020000 		.4byte	0x255
 553 01fc 0E       		.uleb128 0xe
 554 01fd 41435200 		.ascii	"ACR\000"
 555 0201 05       		.byte	0x5
 556 0202 4302     		.2byte	0x243
 557 0204 9B000000 		.4byte	0x9b
 558 0208 02       		.byte	0x2
 559 0209 23       		.byte	0x23
 560 020a 00       		.uleb128 0
 561 020b 08       		.uleb128 0x8
 562 020c 4C010000 		.4byte	.LASF32
 563 0210 05       		.byte	0x5
 564 0211 4402     		.2byte	0x244
 565 0213 9B000000 		.4byte	0x9b
 566 0217 02       		.byte	0x2
 567 0218 23       		.byte	0x23
ARM GAS  /tmp/ccmMlW1m.s 			page 11


 568 0219 04       		.uleb128 0x4
 569 021a 08       		.uleb128 0x8
 570 021b EC000000 		.4byte	.LASF33
 571 021f 05       		.byte	0x5
 572 0220 4502     		.2byte	0x245
 573 0222 9B000000 		.4byte	0x9b
 574 0226 02       		.byte	0x2
 575 0227 23       		.byte	0x23
 576 0228 08       		.uleb128 0x8
 577 0229 0E       		.uleb128 0xe
 578 022a 535200   		.ascii	"SR\000"
 579 022d 05       		.byte	0x5
 580 022e 4602     		.2byte	0x246
 581 0230 9B000000 		.4byte	0x9b
 582 0234 02       		.byte	0x2
 583 0235 23       		.byte	0x23
 584 0236 0C       		.uleb128 0xc
 585 0237 0E       		.uleb128 0xe
 586 0238 435200   		.ascii	"CR\000"
 587 023b 05       		.byte	0x5
 588 023c 4702     		.2byte	0x247
 589 023e 9B000000 		.4byte	0x9b
 590 0242 02       		.byte	0x2
 591 0243 23       		.byte	0x23
 592 0244 10       		.uleb128 0x10
 593 0245 08       		.uleb128 0x8
 594 0246 0A030000 		.4byte	.LASF34
 595 024a 05       		.byte	0x5
 596 024b 4802     		.2byte	0x248
 597 024d 9B000000 		.4byte	0x9b
 598 0251 02       		.byte	0x2
 599 0252 23       		.byte	0x23
 600 0253 14       		.uleb128 0x14
 601 0254 00       		.byte	0
 602 0255 09       		.uleb128 0x9
 603 0256 E5020000 		.4byte	.LASF35
 604 025a 05       		.byte	0x5
 605 025b 4902     		.2byte	0x249
 606 025d F3010000 		.4byte	0x1f3
 607 0261 0D       		.uleb128 0xd
 608 0262 08       		.byte	0x8
 609 0263 05       		.byte	0x5
 610 0264 D102     		.2byte	0x2d1
 611 0266 88020000 		.4byte	0x288
 612 026a 0E       		.uleb128 0xe
 613 026b 435200   		.ascii	"CR\000"
 614 026e 05       		.byte	0x5
 615 026f D302     		.2byte	0x2d3
 616 0271 9B000000 		.4byte	0x9b
 617 0275 02       		.byte	0x2
 618 0276 23       		.byte	0x23
 619 0277 00       		.uleb128 0
 620 0278 0E       		.uleb128 0xe
 621 0279 43535200 		.ascii	"CSR\000"
 622 027d 05       		.byte	0x5
 623 027e D402     		.2byte	0x2d4
 624 0280 9B000000 		.4byte	0x9b
ARM GAS  /tmp/ccmMlW1m.s 			page 12


 625 0284 02       		.byte	0x2
 626 0285 23       		.byte	0x23
 627 0286 04       		.uleb128 0x4
 628 0287 00       		.byte	0
 629 0288 09       		.uleb128 0x9
 630 0289 51000000 		.4byte	.LASF36
 631 028d 05       		.byte	0x5
 632 028e D502     		.2byte	0x2d5
 633 0290 61020000 		.4byte	0x261
 634 0294 0D       		.uleb128 0xd
 635 0295 88       		.byte	0x88
 636 0296 05       		.byte	0x5
 637 0297 DB02     		.2byte	0x2db
 638 0299 61040000 		.4byte	0x461
 639 029d 0E       		.uleb128 0xe
 640 029e 435200   		.ascii	"CR\000"
 641 02a1 05       		.byte	0x5
 642 02a2 DD02     		.2byte	0x2dd
 643 02a4 9B000000 		.4byte	0x9b
 644 02a8 02       		.byte	0x2
 645 02a9 23       		.byte	0x23
 646 02aa 00       		.uleb128 0
 647 02ab 08       		.uleb128 0x8
 648 02ac E4010000 		.4byte	.LASF37
 649 02b0 05       		.byte	0x5
 650 02b1 DE02     		.2byte	0x2de
 651 02b3 9B000000 		.4byte	0x9b
 652 02b7 02       		.byte	0x2
 653 02b8 23       		.byte	0x23
 654 02b9 04       		.uleb128 0x4
 655 02ba 08       		.uleb128 0x8
 656 02bb 9F000000 		.4byte	.LASF38
 657 02bf 05       		.byte	0x5
 658 02c0 DF02     		.2byte	0x2df
 659 02c2 9B000000 		.4byte	0x9b
 660 02c6 02       		.byte	0x2
 661 02c7 23       		.byte	0x23
 662 02c8 08       		.uleb128 0x8
 663 02c9 0E       		.uleb128 0xe
 664 02ca 43495200 		.ascii	"CIR\000"
 665 02ce 05       		.byte	0x5
 666 02cf E002     		.2byte	0x2e0
 667 02d1 9B000000 		.4byte	0x9b
 668 02d5 02       		.byte	0x2
 669 02d6 23       		.byte	0x23
 670 02d7 0C       		.uleb128 0xc
 671 02d8 08       		.uleb128 0x8
 672 02d9 CB020000 		.4byte	.LASF39
 673 02dd 05       		.byte	0x5
 674 02de E102     		.2byte	0x2e1
 675 02e0 9B000000 		.4byte	0x9b
 676 02e4 02       		.byte	0x2
 677 02e5 23       		.byte	0x23
 678 02e6 10       		.uleb128 0x10
 679 02e7 08       		.uleb128 0x8
 680 02e8 A7010000 		.4byte	.LASF40
 681 02ec 05       		.byte	0x5
ARM GAS  /tmp/ccmMlW1m.s 			page 13


 682 02ed E202     		.2byte	0x2e2
 683 02ef 9B000000 		.4byte	0x9b
 684 02f3 02       		.byte	0x2
 685 02f4 23       		.byte	0x23
 686 02f5 14       		.uleb128 0x14
 687 02f6 08       		.uleb128 0x8
 688 02f7 DC020000 		.4byte	.LASF41
 689 02fb 05       		.byte	0x5
 690 02fc E302     		.2byte	0x2e3
 691 02fe 9B000000 		.4byte	0x9b
 692 0302 02       		.byte	0x2
 693 0303 23       		.byte	0x23
 694 0304 18       		.uleb128 0x18
 695 0305 08       		.uleb128 0x8
 696 0306 3D020000 		.4byte	.LASF42
 697 030a 05       		.byte	0x5
 698 030b E402     		.2byte	0x2e4
 699 030d 70000000 		.4byte	0x70
 700 0311 02       		.byte	0x2
 701 0312 23       		.byte	0x23
 702 0313 1C       		.uleb128 0x1c
 703 0314 08       		.uleb128 0x8
 704 0315 0A000000 		.4byte	.LASF43
 705 0319 05       		.byte	0x5
 706 031a E502     		.2byte	0x2e5
 707 031c 9B000000 		.4byte	0x9b
 708 0320 02       		.byte	0x2
 709 0321 23       		.byte	0x23
 710 0322 20       		.uleb128 0x20
 711 0323 08       		.uleb128 0x8
 712 0324 2A010000 		.4byte	.LASF44
 713 0328 05       		.byte	0x5
 714 0329 E602     		.2byte	0x2e6
 715 032b 9B000000 		.4byte	0x9b
 716 032f 02       		.byte	0x2
 717 0330 23       		.byte	0x23
 718 0331 24       		.uleb128 0x24
 719 0332 08       		.uleb128 0x8
 720 0333 47020000 		.4byte	.LASF45
 721 0337 05       		.byte	0x5
 722 0338 E702     		.2byte	0x2e7
 723 033a 8C010000 		.4byte	0x18c
 724 033e 02       		.byte	0x2
 725 033f 23       		.byte	0x23
 726 0340 28       		.uleb128 0x28
 727 0341 08       		.uleb128 0x8
 728 0342 D4020000 		.4byte	.LASF46
 729 0346 05       		.byte	0x5
 730 0347 E802     		.2byte	0x2e8
 731 0349 9B000000 		.4byte	0x9b
 732 034d 02       		.byte	0x2
 733 034e 23       		.byte	0x23
 734 034f 30       		.uleb128 0x30
 735 0350 08       		.uleb128 0x8
 736 0351 13000000 		.4byte	.LASF47
 737 0355 05       		.byte	0x5
 738 0356 E902     		.2byte	0x2e9
ARM GAS  /tmp/ccmMlW1m.s 			page 14


 739 0358 9B000000 		.4byte	0x9b
 740 035c 02       		.byte	0x2
 741 035d 23       		.byte	0x23
 742 035e 34       		.uleb128 0x34
 743 035f 08       		.uleb128 0x8
 744 0360 44010000 		.4byte	.LASF48
 745 0364 05       		.byte	0x5
 746 0365 EA02     		.2byte	0x2ea
 747 0367 9B000000 		.4byte	0x9b
 748 036b 02       		.byte	0x2
 749 036c 23       		.byte	0x23
 750 036d 38       		.uleb128 0x38
 751 036e 08       		.uleb128 0x8
 752 036f 51020000 		.4byte	.LASF49
 753 0373 05       		.byte	0x5
 754 0374 EB02     		.2byte	0x2eb
 755 0376 70000000 		.4byte	0x70
 756 037a 02       		.byte	0x2
 757 037b 23       		.byte	0x23
 758 037c 3C       		.uleb128 0x3c
 759 037d 08       		.uleb128 0x8
 760 037e B5000000 		.4byte	.LASF50
 761 0382 05       		.byte	0x5
 762 0383 EC02     		.2byte	0x2ec
 763 0385 9B000000 		.4byte	0x9b
 764 0389 02       		.byte	0x2
 765 038a 23       		.byte	0x23
 766 038b 40       		.uleb128 0x40
 767 038c 08       		.uleb128 0x8
 768 038d 66010000 		.4byte	.LASF51
 769 0391 05       		.byte	0x5
 770 0392 ED02     		.2byte	0x2ed
 771 0394 9B000000 		.4byte	0x9b
 772 0398 02       		.byte	0x2
 773 0399 23       		.byte	0x23
 774 039a 44       		.uleb128 0x44
 775 039b 08       		.uleb128 0x8
 776 039c 5B020000 		.4byte	.LASF52
 777 03a0 05       		.byte	0x5
 778 03a1 EE02     		.2byte	0x2ee
 779 03a3 8C010000 		.4byte	0x18c
 780 03a7 02       		.byte	0x2
 781 03a8 23       		.byte	0x23
 782 03a9 48       		.uleb128 0x48
 783 03aa 08       		.uleb128 0x8
 784 03ab 00000000 		.4byte	.LASF53
 785 03af 05       		.byte	0x5
 786 03b0 EF02     		.2byte	0x2ef
 787 03b2 9B000000 		.4byte	0x9b
 788 03b6 02       		.byte	0x2
 789 03b7 23       		.byte	0x23
 790 03b8 50       		.uleb128 0x50
 791 03b9 08       		.uleb128 0x8
 792 03ba 2B020000 		.4byte	.LASF54
 793 03be 05       		.byte	0x5
 794 03bf F002     		.2byte	0x2f0
 795 03c1 9B000000 		.4byte	0x9b
ARM GAS  /tmp/ccmMlW1m.s 			page 15


 796 03c5 02       		.byte	0x2
 797 03c6 23       		.byte	0x23
 798 03c7 54       		.uleb128 0x54
 799 03c8 08       		.uleb128 0x8
 800 03c9 AB000000 		.4byte	.LASF55
 801 03cd 05       		.byte	0x5
 802 03ce F102     		.2byte	0x2f1
 803 03d0 9B000000 		.4byte	0x9b
 804 03d4 02       		.byte	0x2
 805 03d5 23       		.byte	0x23
 806 03d6 58       		.uleb128 0x58
 807 03d7 08       		.uleb128 0x8
 808 03d8 65020000 		.4byte	.LASF56
 809 03dc 05       		.byte	0x5
 810 03dd F202     		.2byte	0x2f2
 811 03df 70000000 		.4byte	0x70
 812 03e3 02       		.byte	0x2
 813 03e4 23       		.byte	0x23
 814 03e5 5C       		.uleb128 0x5c
 815 03e6 08       		.uleb128 0x8
 816 03e7 0C020000 		.4byte	.LASF57
 817 03eb 05       		.byte	0x5
 818 03ec F302     		.2byte	0x2f3
 819 03ee 9B000000 		.4byte	0x9b
 820 03f2 02       		.byte	0x2
 821 03f3 23       		.byte	0x23
 822 03f4 60       		.uleb128 0x60
 823 03f5 08       		.uleb128 0x8
 824 03f6 00030000 		.4byte	.LASF58
 825 03fa 05       		.byte	0x5
 826 03fb F402     		.2byte	0x2f4
 827 03fd 9B000000 		.4byte	0x9b
 828 0401 02       		.byte	0x2
 829 0402 23       		.byte	0x23
 830 0403 64       		.uleb128 0x64
 831 0404 08       		.uleb128 0x8
 832 0405 6F020000 		.4byte	.LASF59
 833 0409 05       		.byte	0x5
 834 040a F502     		.2byte	0x2f5
 835 040c 8C010000 		.4byte	0x18c
 836 0410 02       		.byte	0x2
 837 0411 23       		.byte	0x23
 838 0412 68       		.uleb128 0x68
 839 0413 08       		.uleb128 0x8
 840 0414 34000000 		.4byte	.LASF60
 841 0418 05       		.byte	0x5
 842 0419 F602     		.2byte	0x2f6
 843 041b 9B000000 		.4byte	0x9b
 844 041f 02       		.byte	0x2
 845 0420 23       		.byte	0x23
 846 0421 70       		.uleb128 0x70
 847 0422 0E       		.uleb128 0xe
 848 0423 43535200 		.ascii	"CSR\000"
 849 0427 05       		.byte	0x5
 850 0428 F702     		.2byte	0x2f7
 851 042a 9B000000 		.4byte	0x9b
 852 042e 02       		.byte	0x2
ARM GAS  /tmp/ccmMlW1m.s 			page 16


 853 042f 23       		.byte	0x23
 854 0430 74       		.uleb128 0x74
 855 0431 08       		.uleb128 0x8
 856 0432 79020000 		.4byte	.LASF61
 857 0436 05       		.byte	0x5
 858 0437 F802     		.2byte	0x2f8
 859 0439 8C010000 		.4byte	0x18c
 860 043d 02       		.byte	0x2
 861 043e 23       		.byte	0x23
 862 043f 78       		.uleb128 0x78
 863 0440 08       		.uleb128 0x8
 864 0441 65000000 		.4byte	.LASF62
 865 0445 05       		.byte	0x5
 866 0446 F902     		.2byte	0x2f9
 867 0448 9B000000 		.4byte	0x9b
 868 044c 03       		.byte	0x3
 869 044d 23       		.byte	0x23
 870 044e 8001     		.uleb128 0x80
 871 0450 08       		.uleb128 0x8
 872 0451 46000000 		.4byte	.LASF63
 873 0455 05       		.byte	0x5
 874 0456 FA02     		.2byte	0x2fa
 875 0458 9B000000 		.4byte	0x9b
 876 045c 03       		.byte	0x3
 877 045d 23       		.byte	0x23
 878 045e 8401     		.uleb128 0x84
 879 0460 00       		.byte	0
 880 0461 09       		.uleb128 0x9
 881 0462 1E010000 		.4byte	.LASF64
 882 0466 05       		.byte	0x5
 883 0467 FB02     		.2byte	0x2fb
 884 0469 94020000 		.4byte	0x294
 885 046d 0F       		.uleb128 0xf
 886 046e C3000000 		.4byte	.LASF68
 887 0472 01       		.byte	0x1
 888 0473 35       		.byte	0x35
 889 0474 01       		.byte	0x1
 890 0475 01       		.byte	0x1
 891 0476 10       		.uleb128 0x10
 892 0477 01       		.byte	0x1
 893 0478 D7010000 		.4byte	.LASF69
 894 047c 01       		.byte	0x1
 895 047d 62       		.byte	0x62
 896 047e 01       		.byte	0x1
 897 047f 00000000 		.4byte	.LFB119
 898 0483 C2000000 		.4byte	.LFE119
 899 0487 00000000 		.4byte	.LLST0
 900 048b 01       		.byte	0x1
 901 048c AA040000 		.4byte	0x4aa
 902 0490 11       		.uleb128 0x11
 903 0491 6D040000 		.4byte	0x46d
 904 0495 74000000 		.4byte	.LBB4
 905 0499 00000000 		.4byte	.Ldebug_ranges0+0
 906 049d 01       		.byte	0x1
 907 049e 7B       		.byte	0x7b
 908 049f 12       		.uleb128 0x12
 909 04a0 C2000000 		.4byte	.LVL0
ARM GAS  /tmp/ccmMlW1m.s 			page 17


 910 04a4 01       		.byte	0x1
 911 04a5 CD040000 		.4byte	0x4cd
 912 04a9 00       		.byte	0
 913 04aa 13       		.uleb128 0x13
 914 04ab 01       		.byte	0x1
 915 04ac 33010000 		.4byte	.LASF70
 916 04b0 01       		.byte	0x1
 917 04b1 8E       		.byte	0x8e
 918 04b2 01       		.byte	0x1
 919 04b3 00000000 		.4byte	.LFB120
 920 04b7 DE000000 		.4byte	.LFE120
 921 04bb 02       		.byte	0x2
 922 04bc 7D       		.byte	0x7d
 923 04bd 00       		.sleb128 0
 924 04be 01       		.byte	0x1
 925 04bf 14       		.uleb128 0x14
 926 04c0 F3020000 		.4byte	.LASF71
 927 04c4 04       		.byte	0x4
 928 04c5 9806     		.2byte	0x698
 929 04c7 EE010000 		.4byte	0x1ee
 930 04cb 01       		.byte	0x1
 931 04cc 01       		.byte	0x1
 932 04cd 15       		.uleb128 0x15
 933 04ce 01       		.byte	0x1
 934 04cf 35020000 		.4byte	.LASF72
 935 04d3 06       		.byte	0x6
 936 04d4 C101     		.2byte	0x1c1
 937 04d6 01       		.byte	0x1
 938 04d7 01       		.byte	0x1
 939 04d8 00       		.byte	0
 940              		.section	.debug_abbrev,"",%progbits
 941              	.Ldebug_abbrev0:
 942 0000 01       		.uleb128 0x1
 943 0001 11       		.uleb128 0x11
 944 0002 01       		.byte	0x1
 945 0003 25       		.uleb128 0x25
 946 0004 0E       		.uleb128 0xe
 947 0005 13       		.uleb128 0x13
 948 0006 0B       		.uleb128 0xb
 949 0007 03       		.uleb128 0x3
 950 0008 0E       		.uleb128 0xe
 951 0009 1B       		.uleb128 0x1b
 952 000a 0E       		.uleb128 0xe
 953 000b 55       		.uleb128 0x55
 954 000c 06       		.uleb128 0x6
 955 000d 11       		.uleb128 0x11
 956 000e 01       		.uleb128 0x1
 957 000f 52       		.uleb128 0x52
 958 0010 01       		.uleb128 0x1
 959 0011 10       		.uleb128 0x10
 960 0012 06       		.uleb128 0x6
 961 0013 00       		.byte	0
 962 0014 00       		.byte	0
 963 0015 02       		.uleb128 0x2
 964 0016 24       		.uleb128 0x24
 965 0017 00       		.byte	0
 966 0018 0B       		.uleb128 0xb
ARM GAS  /tmp/ccmMlW1m.s 			page 18


 967 0019 0B       		.uleb128 0xb
 968 001a 3E       		.uleb128 0x3e
 969 001b 0B       		.uleb128 0xb
 970 001c 03       		.uleb128 0x3
 971 001d 08       		.uleb128 0x8
 972 001e 00       		.byte	0
 973 001f 00       		.byte	0
 974 0020 03       		.uleb128 0x3
 975 0021 24       		.uleb128 0x24
 976 0022 00       		.byte	0
 977 0023 0B       		.uleb128 0xb
 978 0024 0B       		.uleb128 0xb
 979 0025 3E       		.uleb128 0x3e
 980 0026 0B       		.uleb128 0xb
 981 0027 03       		.uleb128 0x3
 982 0028 0E       		.uleb128 0xe
 983 0029 00       		.byte	0
 984 002a 00       		.byte	0
 985 002b 04       		.uleb128 0x4
 986 002c 16       		.uleb128 0x16
 987 002d 00       		.byte	0
 988 002e 03       		.uleb128 0x3
 989 002f 0E       		.uleb128 0xe
 990 0030 3A       		.uleb128 0x3a
 991 0031 0B       		.uleb128 0xb
 992 0032 3B       		.uleb128 0x3b
 993 0033 0B       		.uleb128 0xb
 994 0034 49       		.uleb128 0x49
 995 0035 13       		.uleb128 0x13
 996 0036 00       		.byte	0
 997 0037 00       		.byte	0
 998 0038 05       		.uleb128 0x5
 999 0039 35       		.uleb128 0x35
 1000 003a 00       		.byte	0
 1001 003b 49       		.uleb128 0x49
 1002 003c 13       		.uleb128 0x13
 1003 003d 00       		.byte	0
 1004 003e 00       		.byte	0
 1005 003f 06       		.uleb128 0x6
 1006 0040 13       		.uleb128 0x13
 1007 0041 01       		.byte	0x1
 1008 0042 0B       		.uleb128 0xb
 1009 0043 0B       		.uleb128 0xb
 1010 0044 3A       		.uleb128 0x3a
 1011 0045 0B       		.uleb128 0xb
 1012 0046 3B       		.uleb128 0x3b
 1013 0047 0B       		.uleb128 0xb
 1014 0048 01       		.uleb128 0x1
 1015 0049 13       		.uleb128 0x13
 1016 004a 00       		.byte	0
 1017 004b 00       		.byte	0
 1018 004c 07       		.uleb128 0x7
 1019 004d 0D       		.uleb128 0xd
 1020 004e 00       		.byte	0
 1021 004f 03       		.uleb128 0x3
 1022 0050 0E       		.uleb128 0xe
 1023 0051 3A       		.uleb128 0x3a
ARM GAS  /tmp/ccmMlW1m.s 			page 19


 1024 0052 0B       		.uleb128 0xb
 1025 0053 3B       		.uleb128 0x3b
 1026 0054 0B       		.uleb128 0xb
 1027 0055 49       		.uleb128 0x49
 1028 0056 13       		.uleb128 0x13
 1029 0057 38       		.uleb128 0x38
 1030 0058 0A       		.uleb128 0xa
 1031 0059 00       		.byte	0
 1032 005a 00       		.byte	0
 1033 005b 08       		.uleb128 0x8
 1034 005c 0D       		.uleb128 0xd
 1035 005d 00       		.byte	0
 1036 005e 03       		.uleb128 0x3
 1037 005f 0E       		.uleb128 0xe
 1038 0060 3A       		.uleb128 0x3a
 1039 0061 0B       		.uleb128 0xb
 1040 0062 3B       		.uleb128 0x3b
 1041 0063 05       		.uleb128 0x5
 1042 0064 49       		.uleb128 0x49
 1043 0065 13       		.uleb128 0x13
 1044 0066 38       		.uleb128 0x38
 1045 0067 0A       		.uleb128 0xa
 1046 0068 00       		.byte	0
 1047 0069 00       		.byte	0
 1048 006a 09       		.uleb128 0x9
 1049 006b 16       		.uleb128 0x16
 1050 006c 00       		.byte	0
 1051 006d 03       		.uleb128 0x3
 1052 006e 0E       		.uleb128 0xe
 1053 006f 3A       		.uleb128 0x3a
 1054 0070 0B       		.uleb128 0xb
 1055 0071 3B       		.uleb128 0x3b
 1056 0072 05       		.uleb128 0x5
 1057 0073 49       		.uleb128 0x49
 1058 0074 13       		.uleb128 0x13
 1059 0075 00       		.byte	0
 1060 0076 00       		.byte	0
 1061 0077 0A       		.uleb128 0xa
 1062 0078 26       		.uleb128 0x26
 1063 0079 00       		.byte	0
 1064 007a 49       		.uleb128 0x49
 1065 007b 13       		.uleb128 0x13
 1066 007c 00       		.byte	0
 1067 007d 00       		.byte	0
 1068 007e 0B       		.uleb128 0xb
 1069 007f 01       		.uleb128 0x1
 1070 0080 01       		.byte	0x1
 1071 0081 49       		.uleb128 0x49
 1072 0082 13       		.uleb128 0x13
 1073 0083 01       		.uleb128 0x1
 1074 0084 13       		.uleb128 0x13
 1075 0085 00       		.byte	0
 1076 0086 00       		.byte	0
 1077 0087 0C       		.uleb128 0xc
 1078 0088 21       		.uleb128 0x21
 1079 0089 00       		.byte	0
 1080 008a 49       		.uleb128 0x49
ARM GAS  /tmp/ccmMlW1m.s 			page 20


 1081 008b 13       		.uleb128 0x13
 1082 008c 2F       		.uleb128 0x2f
 1083 008d 0B       		.uleb128 0xb
 1084 008e 00       		.byte	0
 1085 008f 00       		.byte	0
 1086 0090 0D       		.uleb128 0xd
 1087 0091 13       		.uleb128 0x13
 1088 0092 01       		.byte	0x1
 1089 0093 0B       		.uleb128 0xb
 1090 0094 0B       		.uleb128 0xb
 1091 0095 3A       		.uleb128 0x3a
 1092 0096 0B       		.uleb128 0xb
 1093 0097 3B       		.uleb128 0x3b
 1094 0098 05       		.uleb128 0x5
 1095 0099 01       		.uleb128 0x1
 1096 009a 13       		.uleb128 0x13
 1097 009b 00       		.byte	0
 1098 009c 00       		.byte	0
 1099 009d 0E       		.uleb128 0xe
 1100 009e 0D       		.uleb128 0xd
 1101 009f 00       		.byte	0
 1102 00a0 03       		.uleb128 0x3
 1103 00a1 08       		.uleb128 0x8
 1104 00a2 3A       		.uleb128 0x3a
 1105 00a3 0B       		.uleb128 0xb
 1106 00a4 3B       		.uleb128 0x3b
 1107 00a5 05       		.uleb128 0x5
 1108 00a6 49       		.uleb128 0x49
 1109 00a7 13       		.uleb128 0x13
 1110 00a8 38       		.uleb128 0x38
 1111 00a9 0A       		.uleb128 0xa
 1112 00aa 00       		.byte	0
 1113 00ab 00       		.byte	0
 1114 00ac 0F       		.uleb128 0xf
 1115 00ad 2E       		.uleb128 0x2e
 1116 00ae 00       		.byte	0
 1117 00af 03       		.uleb128 0x3
 1118 00b0 0E       		.uleb128 0xe
 1119 00b1 3A       		.uleb128 0x3a
 1120 00b2 0B       		.uleb128 0xb
 1121 00b3 3B       		.uleb128 0x3b
 1122 00b4 0B       		.uleb128 0xb
 1123 00b5 27       		.uleb128 0x27
 1124 00b6 0C       		.uleb128 0xc
 1125 00b7 20       		.uleb128 0x20
 1126 00b8 0B       		.uleb128 0xb
 1127 00b9 00       		.byte	0
 1128 00ba 00       		.byte	0
 1129 00bb 10       		.uleb128 0x10
 1130 00bc 2E       		.uleb128 0x2e
 1131 00bd 01       		.byte	0x1
 1132 00be 3F       		.uleb128 0x3f
 1133 00bf 0C       		.uleb128 0xc
 1134 00c0 03       		.uleb128 0x3
 1135 00c1 0E       		.uleb128 0xe
 1136 00c2 3A       		.uleb128 0x3a
 1137 00c3 0B       		.uleb128 0xb
ARM GAS  /tmp/ccmMlW1m.s 			page 21


 1138 00c4 3B       		.uleb128 0x3b
 1139 00c5 0B       		.uleb128 0xb
 1140 00c6 27       		.uleb128 0x27
 1141 00c7 0C       		.uleb128 0xc
 1142 00c8 11       		.uleb128 0x11
 1143 00c9 01       		.uleb128 0x1
 1144 00ca 12       		.uleb128 0x12
 1145 00cb 01       		.uleb128 0x1
 1146 00cc 40       		.uleb128 0x40
 1147 00cd 06       		.uleb128 0x6
 1148 00ce 9742     		.uleb128 0x2117
 1149 00d0 0C       		.uleb128 0xc
 1150 00d1 01       		.uleb128 0x1
 1151 00d2 13       		.uleb128 0x13
 1152 00d3 00       		.byte	0
 1153 00d4 00       		.byte	0
 1154 00d5 11       		.uleb128 0x11
 1155 00d6 1D       		.uleb128 0x1d
 1156 00d7 00       		.byte	0
 1157 00d8 31       		.uleb128 0x31
 1158 00d9 13       		.uleb128 0x13
 1159 00da 52       		.uleb128 0x52
 1160 00db 01       		.uleb128 0x1
 1161 00dc 55       		.uleb128 0x55
 1162 00dd 06       		.uleb128 0x6
 1163 00de 58       		.uleb128 0x58
 1164 00df 0B       		.uleb128 0xb
 1165 00e0 59       		.uleb128 0x59
 1166 00e1 0B       		.uleb128 0xb
 1167 00e2 00       		.byte	0
 1168 00e3 00       		.byte	0
 1169 00e4 12       		.uleb128 0x12
 1170 00e5 898201   		.uleb128 0x4109
 1171 00e8 00       		.byte	0
 1172 00e9 11       		.uleb128 0x11
 1173 00ea 01       		.uleb128 0x1
 1174 00eb 9542     		.uleb128 0x2115
 1175 00ed 0C       		.uleb128 0xc
 1176 00ee 31       		.uleb128 0x31
 1177 00ef 13       		.uleb128 0x13
 1178 00f0 00       		.byte	0
 1179 00f1 00       		.byte	0
 1180 00f2 13       		.uleb128 0x13
 1181 00f3 2E       		.uleb128 0x2e
 1182 00f4 00       		.byte	0
 1183 00f5 3F       		.uleb128 0x3f
 1184 00f6 0C       		.uleb128 0xc
 1185 00f7 03       		.uleb128 0x3
 1186 00f8 0E       		.uleb128 0xe
 1187 00f9 3A       		.uleb128 0x3a
 1188 00fa 0B       		.uleb128 0xb
 1189 00fb 3B       		.uleb128 0x3b
 1190 00fc 0B       		.uleb128 0xb
 1191 00fd 27       		.uleb128 0x27
 1192 00fe 0C       		.uleb128 0xc
 1193 00ff 11       		.uleb128 0x11
 1194 0100 01       		.uleb128 0x1
ARM GAS  /tmp/ccmMlW1m.s 			page 22


 1195 0101 12       		.uleb128 0x12
 1196 0102 01       		.uleb128 0x1
 1197 0103 40       		.uleb128 0x40
 1198 0104 0A       		.uleb128 0xa
 1199 0105 9742     		.uleb128 0x2117
 1200 0107 0C       		.uleb128 0xc
 1201 0108 00       		.byte	0
 1202 0109 00       		.byte	0
 1203 010a 14       		.uleb128 0x14
 1204 010b 34       		.uleb128 0x34
 1205 010c 00       		.byte	0
 1206 010d 03       		.uleb128 0x3
 1207 010e 0E       		.uleb128 0xe
 1208 010f 3A       		.uleb128 0x3a
 1209 0110 0B       		.uleb128 0xb
 1210 0111 3B       		.uleb128 0x3b
 1211 0112 05       		.uleb128 0x5
 1212 0113 49       		.uleb128 0x49
 1213 0114 13       		.uleb128 0x13
 1214 0115 3F       		.uleb128 0x3f
 1215 0116 0C       		.uleb128 0xc
 1216 0117 3C       		.uleb128 0x3c
 1217 0118 0C       		.uleb128 0xc
 1218 0119 00       		.byte	0
 1219 011a 00       		.byte	0
 1220 011b 15       		.uleb128 0x15
 1221 011c 2E       		.uleb128 0x2e
 1222 011d 00       		.byte	0
 1223 011e 3F       		.uleb128 0x3f
 1224 011f 0C       		.uleb128 0xc
 1225 0120 03       		.uleb128 0x3
 1226 0121 0E       		.uleb128 0xe
 1227 0122 3A       		.uleb128 0x3a
 1228 0123 0B       		.uleb128 0xb
 1229 0124 3B       		.uleb128 0x3b
 1230 0125 05       		.uleb128 0x5
 1231 0126 27       		.uleb128 0x27
 1232 0127 0C       		.uleb128 0xc
 1233 0128 3C       		.uleb128 0x3c
 1234 0129 0C       		.uleb128 0xc
 1235 012a 00       		.byte	0
 1236 012b 00       		.byte	0
 1237 012c 00       		.byte	0
 1238              		.section	.debug_loc,"",%progbits
 1239              	.Ldebug_loc0:
 1240              	.LLST0:
 1241 0000 00000000 		.4byte	.LFB119
 1242 0004 12000000 		.4byte	.LCFI0
 1243 0008 0200     		.2byte	0x2
 1244 000a 7D       		.byte	0x7d
 1245 000b 00       		.sleb128 0
 1246 000c 12000000 		.4byte	.LCFI0
 1247 0010 C2000000 		.4byte	.LFE119
 1248 0014 0200     		.2byte	0x2
 1249 0016 7D       		.byte	0x7d
 1250 0017 08       		.sleb128 8
 1251 0018 00000000 		.4byte	0
ARM GAS  /tmp/ccmMlW1m.s 			page 23


 1252 001c 00000000 		.4byte	0
 1253              		.section	.debug_aranges,"",%progbits
 1254 0000 24000000 		.4byte	0x24
 1255 0004 0200     		.2byte	0x2
 1256 0006 00000000 		.4byte	.Ldebug_info0
 1257 000a 04       		.byte	0x4
 1258 000b 00       		.byte	0
 1259 000c 0000     		.2byte	0
 1260 000e 0000     		.2byte	0
 1261 0010 00000000 		.4byte	.LFB119
 1262 0014 C2000000 		.4byte	.LFE119-.LFB119
 1263 0018 00000000 		.4byte	.LFB120
 1264 001c DE000000 		.4byte	.LFE120-.LFB120
 1265 0020 00000000 		.4byte	0
 1266 0024 00000000 		.4byte	0
 1267              		.section	.debug_ranges,"",%progbits
 1268              	.Ldebug_ranges0:
 1269 0000 74000000 		.4byte	.LBB4
 1270 0004 7C000000 		.4byte	.LBE4
 1271 0008 82000000 		.4byte	.LBB7
 1272 000c BC000000 		.4byte	.LBE7
 1273 0010 00000000 		.4byte	0
 1274 0014 00000000 		.4byte	0
 1275 0018 00000000 		.4byte	.LFB119
 1276 001c C2000000 		.4byte	.LFE119
 1277 0020 00000000 		.4byte	.LFB120
 1278 0024 DE000000 		.4byte	.LFE120
 1279 0028 00000000 		.4byte	0
 1280 002c 00000000 		.4byte	0
 1281              		.section	.debug_line,"",%progbits
 1282              	.Ldebug_line0:
 1283 0000 09020000 		.section	.debug_str,"MS",%progbits,1
 1283      02006401 
 1283      00000201 
 1283      FB0E0D00 
 1283      01010101 
 1284              	.LASF53:
 1285 0000 41484231 		.ascii	"AHB1LPENR\000"
 1285      4C50454E 
 1285      5200
 1286              	.LASF43:
 1287 000a 41504231 		.ascii	"APB1RSTR\000"
 1287      52535452 
 1287      00
 1288              	.LASF47:
 1289 0013 41484232 		.ascii	"AHB2ENR\000"
 1289      454E5200 
 1290              	.LASF17:
 1291 001b 44454D43 		.ascii	"DEMCR\000"
 1291      5200
 1292              	.LASF3:
 1293 0021 73686F72 		.ascii	"short int\000"
 1293      7420696E 
 1293      7400
 1294              	.LASF13:
 1295 002b 73697A65 		.ascii	"sizetype\000"
 1295      74797065 
ARM GAS  /tmp/ccmMlW1m.s 			page 24


 1295      00
 1296              	.LASF60:
 1297 0034 42444352 		.ascii	"BDCR\000"
 1297      00
 1298              	.LASF26:
 1299 0039 50435352 		.ascii	"PCSR\000"
 1299      00
 1300              	.LASF25:
 1301 003e 464F4C44 		.ascii	"FOLDCNT\000"
 1301      434E5400 
 1302              	.LASF63:
 1303 0046 504C4C49 		.ascii	"PLLI2SCFGR\000"
 1303      32534346 
 1303      475200
 1304              	.LASF36:
 1305 0051 5057525F 		.ascii	"PWR_TypeDef\000"
 1305      54797065 
 1305      44656600 
 1306              	.LASF27:
 1307 005d 434D785F 		.ascii	"CMx_DWT\000"
 1307      44575400 
 1308              	.LASF62:
 1309 0065 53534347 		.ascii	"SSCGR\000"
 1309      5200
 1310              	.LASF19:
 1311 006b 4354524C 		.ascii	"CTRL\000"
 1311      00
 1312              	.LASF67:
 1313 0070 2F686F6D 		.ascii	"/home/david/Projects/stm32/src/pressure_sensor\000"
 1313      652F6461 
 1313      7669642F 
 1313      50726F6A 
 1313      65637473 
 1314              	.LASF38:
 1315 009f 43464752 		.ascii	"CFGR\000"
 1315      00
 1316              	.LASF21:
 1317 00a4 43504943 		.ascii	"CPICNT\000"
 1317      4E5400
 1318              	.LASF55:
 1319 00ab 41484233 		.ascii	"AHB3LPENR\000"
 1319      4C50454E 
 1319      5200
 1320              	.LASF50:
 1321 00b5 41504231 		.ascii	"APB1ENR\000"
 1321      454E5200 
 1322              	.LASF15:
 1323 00bd 44435253 		.ascii	"DCRSR\000"
 1323      5200
 1324              	.LASF68:
 1325 00c3 68616C5F 		.ascii	"hal_lld_backup_domain_init\000"
 1325      6C6C645F 
 1325      6261636B 
 1325      75705F64 
 1325      6F6D6169 
 1326              	.LASF16:
 1327 00de 44435244 		.ascii	"DCRDR\000"
ARM GAS  /tmp/ccmMlW1m.s 			page 25


 1327      5200
 1328              	.LASF12:
 1329 00e4 494F5245 		.ascii	"IOREG32\000"
 1329      47333200 
 1330              	.LASF33:
 1331 00ec 4F50544B 		.ascii	"OPTKEYR\000"
 1331      45595200 
 1332              	.LASF10:
 1333 00f4 6C6F6E67 		.ascii	"long long int\000"
 1333      206C6F6E 
 1333      6720696E 
 1333      7400
 1334              	.LASF20:
 1335 0102 43594343 		.ascii	"CYCCNT\000"
 1335      4E5400
 1336              	.LASF30:
 1337 0109 43414C49 		.ascii	"CALIB\000"
 1337      4200
 1338              	.LASF14:
 1339 010f 44484353 		.ascii	"DHCSR\000"
 1339      5200
 1340              	.LASF7:
 1341 0115 6C6F6E67 		.ascii	"long int\000"
 1341      20696E74 
 1341      00
 1342              	.LASF64:
 1343 011e 5243435F 		.ascii	"RCC_TypeDef\000"
 1343      54797065 
 1343      44656600 
 1344              	.LASF44:
 1345 012a 41504232 		.ascii	"APB2RSTR\000"
 1345      52535452 
 1345      00
 1346              	.LASF70:
 1347 0133 73746D33 		.ascii	"stm32_clock_init\000"
 1347      325F636C 
 1347      6F636B5F 
 1347      696E6974 
 1347      00
 1348              	.LASF48:
 1349 0144 41484233 		.ascii	"AHB3ENR\000"
 1349      454E5200 
 1350              	.LASF32:
 1351 014c 4B455952 		.ascii	"KEYR\000"
 1351      00
 1352              	.LASF22:
 1353 0151 45584343 		.ascii	"EXCCNT\000"
 1353      4E5400
 1354              	.LASF2:
 1355 0158 756E7369 		.ascii	"unsigned char\000"
 1355      676E6564 
 1355      20636861 
 1355      7200
 1356              	.LASF51:
 1357 0166 41504232 		.ascii	"APB2ENR\000"
 1357      454E5200 
 1358              	.LASF1:
ARM GAS  /tmp/ccmMlW1m.s 			page 26


 1359 016e 7369676E 		.ascii	"signed char\000"
 1359      65642063 
 1359      68617200 
 1360              	.LASF11:
 1361 017a 6C6F6E67 		.ascii	"long long unsigned int\000"
 1361      206C6F6E 
 1361      6720756E 
 1361      7369676E 
 1361      65642069 
 1362              	.LASF8:
 1363 0191 75696E74 		.ascii	"uint32_t\000"
 1363      33325F74 
 1363      00
 1364              	.LASF0:
 1365 019a 756E7369 		.ascii	"unsigned int\000"
 1365      676E6564 
 1365      20696E74 
 1365      00
 1366              	.LASF40:
 1367 01a7 41484232 		.ascii	"AHB2RSTR\000"
 1367      52535452 
 1367      00
 1368              	.LASF5:
 1369 01b0 75696E74 		.ascii	"uint16_t\000"
 1369      31365F74 
 1369      00
 1370              	.LASF65:
 1371 01b9 474E5520 		.ascii	"GNU C 4.7.2\000"
 1371      4320342E 
 1371      372E3200 
 1372              	.LASF9:
 1373 01c5 6C6F6E67 		.ascii	"long unsigned int\000"
 1373      20756E73 
 1373      69676E65 
 1373      6420696E 
 1373      7400
 1374              	.LASF69:
 1375 01d7 68616C5F 		.ascii	"hal_lld_init\000"
 1375      6C6C645F 
 1375      696E6974 
 1375      00
 1376              	.LASF37:
 1377 01e4 504C4C43 		.ascii	"PLLCFGR\000"
 1377      46475200 
 1378              	.LASF31:
 1379 01ec 53797354 		.ascii	"SysTick_Type\000"
 1379      69636B5F 
 1379      54797065 
 1379      00
 1380              	.LASF4:
 1381 01f9 73686F72 		.ascii	"short unsigned int\000"
 1381      7420756E 
 1381      7369676E 
 1381      65642069 
 1381      6E7400
 1382              	.LASF57:
 1383 020c 41504231 		.ascii	"APB1LPENR\000"
ARM GAS  /tmp/ccmMlW1m.s 			page 27


 1383      4C50454E 
 1383      5200
 1384              	.LASF28:
 1385 0216 63686172 		.ascii	"char\000"
 1385      00
 1386              	.LASF18:
 1387 021b 434D785F 		.ascii	"CMx_SCS\000"
 1387      53435300 
 1388              	.LASF6:
 1389 0223 696E7433 		.ascii	"int32_t\000"
 1389      325F7400 
 1390              	.LASF54:
 1391 022b 41484232 		.ascii	"AHB2LPENR\000"
 1391      4C50454E 
 1391      5200
 1392              	.LASF72:
 1393 0235 646D6149 		.ascii	"dmaInit\000"
 1393      6E697400 
 1394              	.LASF42:
 1395 023d 52455345 		.ascii	"RESERVED0\000"
 1395      52564544 
 1395      3000
 1396              	.LASF45:
 1397 0247 52455345 		.ascii	"RESERVED1\000"
 1397      52564544 
 1397      3100
 1398              	.LASF49:
 1399 0251 52455345 		.ascii	"RESERVED2\000"
 1399      52564544 
 1399      3200
 1400              	.LASF52:
 1401 025b 52455345 		.ascii	"RESERVED3\000"
 1401      52564544 
 1401      3300
 1402              	.LASF56:
 1403 0265 52455345 		.ascii	"RESERVED4\000"
 1403      52564544 
 1403      3400
 1404              	.LASF59:
 1405 026f 52455345 		.ascii	"RESERVED5\000"
 1405      52564544 
 1405      3500
 1406              	.LASF61:
 1407 0279 52455345 		.ascii	"RESERVED6\000"
 1407      52564544 
 1407      3600
 1408              	.LASF66:
 1409 0283 2E2E2F2E 		.ascii	"../../ChibiOS/os/hal/platforms/STM32F4xx/hal_lld.c\000"
 1409      2E2F4368 
 1409      6962694F 
 1409      532F6F73 
 1409      2F68616C 
 1410              	.LASF23:
 1411 02b6 534C4545 		.ascii	"SLEEPCNT\000"
 1411      50434E54 
 1411      00
 1412              	.LASF24:
ARM GAS  /tmp/ccmMlW1m.s 			page 28


 1413 02bf 4C535543 		.ascii	"LSUCNT\000"
 1413      4E5400
 1414              	.LASF29:
 1415 02c6 4C4F4144 		.ascii	"LOAD\000"
 1415      00
 1416              	.LASF39:
 1417 02cb 41484231 		.ascii	"AHB1RSTR\000"
 1417      52535452 
 1417      00
 1418              	.LASF46:
 1419 02d4 41484231 		.ascii	"AHB1ENR\000"
 1419      454E5200 
 1420              	.LASF41:
 1421 02dc 41484233 		.ascii	"AHB3RSTR\000"
 1421      52535452 
 1421      00
 1422              	.LASF35:
 1423 02e5 464C4153 		.ascii	"FLASH_TypeDef\000"
 1423      485F5479 
 1423      70654465 
 1423      6600
 1424              	.LASF71:
 1425 02f3 49544D5F 		.ascii	"ITM_RxBuffer\000"
 1425      52784275 
 1425      66666572 
 1425      00
 1426              	.LASF58:
 1427 0300 41504232 		.ascii	"APB2LPENR\000"
 1427      4C50454E 
 1427      5200
 1428              	.LASF34:
 1429 030a 4F505443 		.ascii	"OPTCR\000"
 1429      5200
 1430              		.ident	"GCC: (crosstool-NG 1.17.0 - PSAS ST32F4 GFE) 4.7.2"
ARM GAS  /tmp/ccmMlW1m.s 			page 29


DEFINED SYMBOLS
                            *ABS*:0000000000000000 hal_lld.c
     /tmp/ccmMlW1m.s:21     .text.hal_lld_init:0000000000000000 $t
     /tmp/ccmMlW1m.s:27     .text.hal_lld_init:0000000000000000 hal_lld_init
     /tmp/ccmMlW1m.s:154    .text.stm32_clock_init:0000000000000000 $t
     /tmp/ccmMlW1m.s:160    .text.stm32_clock_init:0000000000000000 stm32_clock_init
                     .debug_frame:0000000000000010 $d

UNDEFINED SYMBOLS
dmaInit
