ARM GAS  /tmp/ccIFmokw.s 			page 1


   1              		.syntax unified
   2              		.cpu cortex-m4
   3              		.eabi_attribute 27, 3
   4              		.eabi_attribute 28, 1
   5              		.fpu fpv4-sp-d16
   6              		.eabi_attribute 20, 1
   7              		.eabi_attribute 21, 1
   8              		.eabi_attribute 23, 3
   9              		.eabi_attribute 24, 1
  10              		.eabi_attribute 25, 1
  11              		.eabi_attribute 26, 1
  12              		.eabi_attribute 30, 2
  13              		.eabi_attribute 34, 1
  14              		.eabi_attribute 18, 4
  15              		.thumb
  16              		.file	"i2c.c"
  17              		.text
  18              	.Ltext0:
  19              		.cfi_sections	.debug_frame
  20              		.section	.text.i2cInit,"ax",%progbits
  21              		.align	2
  22              		.p2align 4,,15
  23              		.global	i2cInit
  24              		.thumb
  25              		.thumb_func
  26              		.type	i2cInit, %function
  27              	i2cInit:
  28              	.LFB118:
  29              		.file 1 "../../ChibiOS/os/hal/src/i2c.c"
  30              		.loc 1 64 0
  31              		.cfi_startproc
  32              		@ args = 0, pretend = 0, frame = 0
  33              		@ frame_needed = 0, uses_anonymous_args = 0
  34              		@ link register save eliminated.
  35              		.loc 1 66 0
  36              		.loc 1 65 0
  37 0000 FFF7FEBF 		b	i2c_lld_init
  38              	.LVL0:
  39              		.cfi_endproc
  40              	.LFE118:
  41              		.size	i2cInit, .-i2cInit
  42 0004 AFF30080 		.section	.text.i2cObjectInit,"ax",%progbits
  42      AFF30080 
  42      AFF30080 
  43              		.align	2
  44              		.p2align 4,,15
  45              		.global	i2cObjectInit
  46              		.thumb
  47              		.thumb_func
  48              		.type	i2cObjectInit, %function
  49              	i2cObjectInit:
  50              	.LFB119:
  51              		.loc 1 75 0
  52              		.cfi_startproc
  53              		@ args = 0, pretend = 0, frame = 0
  54              		@ frame_needed = 0, uses_anonymous_args = 0
  55              		@ link register save eliminated.
ARM GAS  /tmp/ccIFmokw.s 			page 2


  56              	.LVL1:
  57              		.loc 1 77 0
  58 0000 0123     		movs	r3, #1
  59 0002 0370     		strb	r3, [r0, #0]
  60              		.loc 1 78 0
  61 0004 0023     		movs	r3, #0
  62 0006 4360     		str	r3, [r0, #4]
  63              		.loc 1 82 0
  64 0008 0C30     		adds	r0, r0, #12
  65              	.LVL2:
  66              		.loc 1 91 0
  67              		.loc 1 82 0
  68 000a FFF7FEBF 		b	chMtxInit
  69              	.LVL3:
  70              		.cfi_endproc
  71              	.LFE119:
  72              		.size	i2cObjectInit, .-i2cObjectInit
  73 000e 00BF     		.section	.text.i2cStart,"ax",%progbits
  74              		.align	2
  75              		.p2align 4,,15
  76              		.global	i2cStart
  77              		.thumb
  78              		.thumb_func
  79              		.type	i2cStart, %function
  80              	i2cStart:
  81              	.LFB120:
  82              		.loc 1 101 0
  83              		.cfi_startproc
  84              		@ args = 0, pretend = 0, frame = 0
  85              		@ frame_needed = 0, uses_anonymous_args = 0
  86              	.LVL4:
  87              		.loc 1 103 0
  88 0000 0028     		cmp	r0, #0
  89 0002 18BF     		it	ne
  90 0004 0029     		cmpne	r1, #0
  91              		.loc 1 101 0
  92 0006 38B5     		push	{r3, r4, r5, lr}
  93              	.LCFI0:
  94              		.cfi_def_cfa_offset 16
  95              		.cfi_offset 3, -16
  96              		.cfi_offset 4, -12
  97              		.cfi_offset 5, -8
  98              		.cfi_offset 14, -4
  99              		.loc 1 103 0
 100 0008 0D46     		mov	r5, r1
 101 000a 0446     		mov	r4, r0
 102 000c 19D0     		beq	.L13
 103              	.LVL5:
 104              	.L4:
 105              		.loc 1 104 0
 106 000e 2378     		ldrb	r3, [r4, #0]	@ zero_extendqisi2
 107 0010 5A1E     		subs	r2, r3, #1
 108 0012 052B     		cmp	r3, #5
 109 0014 18BF     		it	ne
 110 0016 012A     		cmpne	r2, #1
 111 0018 02D9     		bls	.L5
 112              		.loc 1 104 0 is_stmt 0 discriminator 1
ARM GAS  /tmp/ccIFmokw.s 			page 3


 113 001a 0C48     		ldr	r0, .L14
 114 001c FFF7FEFF 		bl	chDbgPanic
 115              	.LVL6:
 116              	.L5:
 117              	.LBB2:
 118              		.loc 1 109 0 is_stmt 1
 119 0020 2023     		movs	r3, #32
 120              	.LVL7:
 121              	@ 109 "../../ChibiOS/os/hal/src/i2c.c" 1
 122 0022 83F31188 		msr     BASEPRI, r3
 123              	@ 0 "" 2
 124              	.LVL8:
 125              		.thumb
 126              	.LBE2:
 127 0026 FFF7FEFF 		bl	dbg_check_lock
 128              	.LVL9:
 129              		.loc 1 111 0
 130 002a 2046     		mov	r0, r4
 131              		.loc 1 110 0
 132 002c 6560     		str	r5, [r4, #4]
 133              		.loc 1 111 0
 134 002e FFF7FEFF 		bl	i2c_lld_start
 135              	.LVL10:
 136              		.loc 1 112 0
 137 0032 0223     		movs	r3, #2
 138 0034 2370     		strb	r3, [r4, #0]
 139              		.loc 1 113 0
 140 0036 FFF7FEFF 		bl	dbg_check_unlock
 141              	.LVL11:
 142              	.LBB3:
 143 003a 0023     		movs	r3, #0
 144              	.LVL12:
 145              	@ 113 "../../ChibiOS/os/hal/src/i2c.c" 1
 146 003c 83F31188 		msr     BASEPRI, r3
 147              	@ 0 "" 2
 148              	.LVL13:
 149              		.thumb
 150 0040 38BD     		pop	{r3, r4, r5, pc}
 151              	.LVL14:
 152              	.L13:
 153              	.LBE3:
 154              		.loc 1 103 0 discriminator 1
 155 0042 0348     		ldr	r0, .L14+4
 156              	.LVL15:
 157 0044 FFF7FEFF 		bl	chDbgPanic
 158              	.LVL16:
 159 0048 E1E7     		b	.L4
 160              	.L15:
 161 004a 00BF     		.align	2
 162              	.L14:
 163 004c 10000000 		.word	.LC1
 164 0050 00000000 		.word	.LC0
 165              		.cfi_endproc
 166              	.LFE120:
 167              		.size	i2cStart, .-i2cStart
 168 0054 AFF30080 		.section	.text.i2cStop,"ax",%progbits
 168      AFF30080 
ARM GAS  /tmp/ccIFmokw.s 			page 4


 168      AFF30080 
 169              		.align	2
 170              		.p2align 4,,15
 171              		.global	i2cStop
 172              		.thumb
 173              		.thumb_func
 174              		.type	i2cStop, %function
 175              	i2cStop:
 176              	.LFB121:
 177              		.loc 1 123 0
 178              		.cfi_startproc
 179              		@ args = 0, pretend = 0, frame = 0
 180              		@ frame_needed = 0, uses_anonymous_args = 0
 181              	.LVL17:
 182 0000 10B5     		push	{r4, lr}
 183              	.LCFI1:
 184              		.cfi_def_cfa_offset 8
 185              		.cfi_offset 4, -8
 186              		.cfi_offset 14, -4
 187              		.loc 1 125 0
 188 0002 0446     		mov	r4, r0
 189 0004 C0B1     		cbz	r0, .L22
 190              	.LVL18:
 191              	.L17:
 192              		.loc 1 126 0
 193 0006 2378     		ldrb	r3, [r4, #0]	@ zero_extendqisi2
 194 0008 5A1E     		subs	r2, r3, #1
 195 000a 052B     		cmp	r3, #5
 196 000c 18BF     		it	ne
 197 000e 012A     		cmpne	r2, #1
 198 0010 02D9     		bls	.L18
 199              		.loc 1 126 0 is_stmt 0 discriminator 1
 200 0012 0B48     		ldr	r0, .L23
 201 0014 FFF7FEFF 		bl	chDbgPanic
 202              	.LVL19:
 203              	.L18:
 204              	.LBB4:
 205              		.loc 1 131 0 is_stmt 1
 206 0018 2023     		movs	r3, #32
 207              	.LVL20:
 208              	@ 131 "../../ChibiOS/os/hal/src/i2c.c" 1
 209 001a 83F31188 		msr     BASEPRI, r3
 210              	@ 0 "" 2
 211              	.LVL21:
 212              		.thumb
 213              	.LBE4:
 214 001e FFF7FEFF 		bl	dbg_check_lock
 215              	.LVL22:
 216              		.loc 1 132 0
 217 0022 2046     		mov	r0, r4
 218 0024 FFF7FEFF 		bl	i2c_lld_stop
 219              	.LVL23:
 220              		.loc 1 133 0
 221 0028 0123     		movs	r3, #1
 222 002a 2370     		strb	r3, [r4, #0]
 223              		.loc 1 134 0
 224 002c FFF7FEFF 		bl	dbg_check_unlock
ARM GAS  /tmp/ccIFmokw.s 			page 5


 225              	.LVL24:
 226              	.LBB5:
 227 0030 0023     		movs	r3, #0
 228              	.LVL25:
 229              	@ 134 "../../ChibiOS/os/hal/src/i2c.c" 1
 230 0032 83F31188 		msr     BASEPRI, r3
 231              	@ 0 "" 2
 232              	.LVL26:
 233              		.thumb
 234 0036 10BD     		pop	{r4, pc}
 235              	.LVL27:
 236              	.L22:
 237              	.LBE5:
 238              		.loc 1 125 0 discriminator 1
 239 0038 0248     		ldr	r0, .L23+4
 240              	.LVL28:
 241 003a FFF7FEFF 		bl	chDbgPanic
 242              	.LVL29:
 243 003e E2E7     		b	.L17
 244              	.L24:
 245              		.align	2
 246              	.L23:
 247 0040 2C000000 		.word	.LC3
 248 0044 20000000 		.word	.LC2
 249              		.cfi_endproc
 250              	.LFE121:
 251              		.size	i2cStop, .-i2cStop
 252 0048 AFF30080 		.section	.text.i2cGetErrors,"ax",%progbits
 252      AFF30080 
 253              		.align	2
 254              		.p2align 4,,15
 255              		.global	i2cGetErrors
 256              		.thumb
 257              		.thumb_func
 258              		.type	i2cGetErrors, %function
 259              	i2cGetErrors:
 260              	.LFB122:
 261              		.loc 1 145 0
 262              		.cfi_startproc
 263              		@ args = 0, pretend = 0, frame = 0
 264              		@ frame_needed = 0, uses_anonymous_args = 0
 265              	.LVL30:
 266 0000 10B5     		push	{r4, lr}
 267              	.LCFI2:
 268              		.cfi_def_cfa_offset 8
 269              		.cfi_offset 4, -8
 270              		.cfi_offset 14, -4
 271              		.loc 1 147 0
 272 0002 0446     		mov	r4, r0
 273 0004 08B1     		cbz	r0, .L27
 274              		.loc 1 150 0
 275 0006 A068     		ldr	r0, [r4, #8]
 276              	.LVL31:
 277 0008 10BD     		pop	{r4, pc}
 278              	.LVL32:
 279              	.L27:
 280              		.loc 1 147 0 discriminator 1
ARM GAS  /tmp/ccIFmokw.s 			page 6


 281 000a 0248     		ldr	r0, .L28
 282              	.LVL33:
 283 000c FFF7FEFF 		bl	chDbgPanic
 284              	.LVL34:
 285              		.loc 1 150 0 discriminator 1
 286 0010 A068     		ldr	r0, [r4, #8]
 287 0012 10BD     		pop	{r4, pc}
 288              	.L29:
 289              		.align	2
 290              	.L28:
 291 0014 3C000000 		.word	.LC4
 292              		.cfi_endproc
 293              	.LFE122:
 294              		.size	i2cGetErrors, .-i2cGetErrors
 295 0018 AFF30080 		.section	.text.i2cMasterTransmitTimeout,"ax",%progbits
 295      AFF30080 
 296              		.align	2
 297              		.p2align 4,,15
 298              		.global	i2cMasterTransmitTimeout
 299              		.thumb
 300              		.thumb_func
 301              		.type	i2cMasterTransmitTimeout, %function
 302              	i2cMasterTransmitTimeout:
 303              	.LFB123:
 304              		.loc 1 184 0
 305              		.cfi_startproc
 306              		@ args = 12, pretend = 0, frame = 0
 307              		@ frame_needed = 0, uses_anonymous_args = 0
 308              	.LVL35:
 309 0000 2DE9F047 		push	{r4, r5, r6, r7, r8, r9, sl, lr}
 310              	.LCFI3:
 311              		.cfi_def_cfa_offset 32
 312              		.cfi_offset 4, -32
 313              		.cfi_offset 5, -28
 314              		.cfi_offset 6, -24
 315              		.cfi_offset 7, -20
 316              		.cfi_offset 8, -16
 317              		.cfi_offset 9, -12
 318              		.cfi_offset 10, -8
 319              		.cfi_offset 14, -4
 320 0004 84B0     		sub	sp, sp, #16
 321              	.LCFI4:
 322              		.cfi_def_cfa_offset 48
 323              		.loc 1 187 0
 324 0006 0028     		cmp	r0, #0
 325 0008 18BF     		it	ne
 326 000a 0029     		cmpne	r1, #0
 327 000c 8846     		mov	r8, r1
 328 000e 0446     		mov	r4, r0
 329              		.loc 1 184 0
 330 0010 9246     		mov	sl, r2
 331 0012 9946     		mov	r9, r3
 332 0014 0C9F     		ldr	r7, [sp, #48]
 333 0016 0D9D     		ldr	r5, [sp, #52]
 334 0018 0E9E     		ldr	r6, [sp, #56]
 335              		.loc 1 187 0
 336 001a 03D0     		beq	.L31
ARM GAS  /tmp/ccIFmokw.s 			page 7


 337              		.loc 1 187 0 is_stmt 0 discriminator 2
 338 001c 002A     		cmp	r2, #0
 339 001e 18BF     		it	ne
 340 0020 002B     		cmpne	r3, #0
 341 0022 28D1     		bne	.L46
 342              	.L31:
 343              		.loc 1 187 0 discriminator 1
 344 0024 1848     		ldr	r0, .L48
 345              	.LVL36:
 346 0026 FFF7FEFF 		bl	chDbgPanic
 347              	.LVL37:
 348              	.L33:
 349              		.loc 1 193 0 is_stmt 1
 350 002a 2378     		ldrb	r3, [r4, #0]	@ zero_extendqisi2
 351 002c 022B     		cmp	r3, #2
 352 002e 02D0     		beq	.L34
 353              		.loc 1 193 0 is_stmt 0 discriminator 1
 354 0030 1648     		ldr	r0, .L48+4
 355 0032 FFF7FEFF 		bl	chDbgPanic
 356              	.LVL38:
 357              	.L34:
 358              	.LBB6:
 359              		.loc 1 196 0 is_stmt 1
 360 0036 2023     		movs	r3, #32
 361              	.LVL39:
 362              	@ 196 "../../ChibiOS/os/hal/src/i2c.c" 1
 363 0038 83F31188 		msr     BASEPRI, r3
 364              	@ 0 "" 2
 365              	.LVL40:
 366              		.thumb
 367              	.LBE6:
 368 003c FFF7FEFF 		bl	dbg_check_lock
 369              	.LVL41:
 370              		.loc 1 197 0
 371 0040 0023     		movs	r3, #0
 372 0042 A360     		str	r3, [r4, #8]
 373              		.loc 1 198 0
 374 0044 0323     		movs	r3, #3
 375 0046 2370     		strb	r3, [r4, #0]
 376              		.loc 1 199 0
 377 0048 2046     		mov	r0, r4
 378 004a 0195     		str	r5, [sp, #4]
 379 004c 4B46     		mov	r3, r9
 380 004e 0097     		str	r7, [sp, #0]
 381 0050 0296     		str	r6, [sp, #8]
 382 0052 4146     		mov	r1, r8
 383 0054 5246     		mov	r2, sl
 384 0056 FFF7FEFF 		bl	i2c_lld_master_transmit_timeout
 385              	.LVL42:
 386              		.loc 1 201 0
 387 005a 431C     		adds	r3, r0, #1
 388              		.loc 1 199 0
 389 005c 0546     		mov	r5, r0
 390              	.LVL43:
 391              		.loc 1 201 0
 392 005e 10D0     		beq	.L47
 393              		.loc 1 204 0
ARM GAS  /tmp/ccIFmokw.s 			page 8


 394 0060 0223     		movs	r3, #2
 395 0062 2370     		strb	r3, [r4, #0]
 396              	.L36:
 397              		.loc 1 205 0
 398 0064 FFF7FEFF 		bl	dbg_check_unlock
 399              	.LVL44:
 400              	.LBB7:
 401 0068 0023     		movs	r3, #0
 402              	.LVL45:
 403              	@ 205 "../../ChibiOS/os/hal/src/i2c.c" 1
 404 006a 83F31188 		msr     BASEPRI, r3
 405              	@ 0 "" 2
 406              	.LVL46:
 407              		.thumb
 408              	.LBE7:
 409              		.loc 1 207 0
 410 006e 2846     		mov	r0, r5
 411 0070 04B0     		add	sp, sp, #16
 412 0072 BDE8F087 		pop	{r4, r5, r6, r7, r8, r9, sl, pc}
 413              	.LVL47:
 414              	.L46:
 415              		.loc 1 187 0 discriminator 3
 416 0076 0DB1     		cbz	r5, .L32
 417              		.loc 1 187 0 is_stmt 0 discriminator 4
 418 0078 002F     		cmp	r7, #0
 419 007a D3D0     		beq	.L31
 420              	.L32:
 421              		.loc 1 187 0 discriminator 5
 422 007c 002E     		cmp	r6, #0
 423 007e D4D1     		bne	.L33
 424 0080 D0E7     		b	.L31
 425              	.LVL48:
 426              	.L47:
 427              		.loc 1 202 0 is_stmt 1
 428 0082 0523     		movs	r3, #5
 429 0084 2370     		strb	r3, [r4, #0]
 430 0086 EDE7     		b	.L36
 431              	.L49:
 432              		.align	2
 433              	.L48:
 434 0088 50000000 		.word	.LC5
 435 008c 70000000 		.word	.LC6
 436              		.cfi_endproc
 437              	.LFE123:
 438              		.size	i2cMasterTransmitTimeout, .-i2cMasterTransmitTimeout
 439              		.section	.text.i2cMasterReceiveTimeout,"ax",%progbits
 440              		.align	2
 441              		.p2align 4,,15
 442              		.global	i2cMasterReceiveTimeout
 443              		.thumb
 444              		.thumb_func
 445              		.type	i2cMasterReceiveTimeout, %function
 446              	i2cMasterReceiveTimeout:
 447              	.LFB124:
 448              		.loc 1 233 0
 449              		.cfi_startproc
 450              		@ args = 4, pretend = 0, frame = 0
ARM GAS  /tmp/ccIFmokw.s 			page 9


 451              		@ frame_needed = 0, uses_anonymous_args = 0
 452              	.LVL49:
 453 0000 2DE9F041 		push	{r4, r5, r6, r7, r8, lr}
 454              	.LCFI5:
 455              		.cfi_def_cfa_offset 24
 456              		.cfi_offset 4, -24
 457              		.cfi_offset 5, -20
 458              		.cfi_offset 6, -16
 459              		.cfi_offset 7, -12
 460              		.cfi_offset 8, -8
 461              		.cfi_offset 14, -4
 462 0004 82B0     		sub	sp, sp, #8
 463              	.LCFI6:
 464              		.cfi_def_cfa_offset 32
 465              		.loc 1 237 0
 466 0006 0028     		cmp	r0, #0
 467 0008 18BF     		it	ne
 468 000a 0029     		cmpne	r1, #0
 469 000c 0D46     		mov	r5, r1
 470 000e 0446     		mov	r4, r0
 471              		.loc 1 233 0
 472 0010 9046     		mov	r8, r2
 473 0012 1E46     		mov	r6, r3
 474 0014 089F     		ldr	r7, [sp, #32]
 475              		.loc 1 237 0
 476 0016 03D0     		beq	.L51
 477              		.loc 1 237 0 is_stmt 0 discriminator 2
 478 0018 002A     		cmp	r2, #0
 479 001a 18BF     		it	ne
 480 001c 002B     		cmpne	r3, #0
 481 001e 26D1     		bne	.L59
 482              	.L51:
 483              		.loc 1 237 0 discriminator 1
 484 0020 1648     		ldr	r0, .L61
 485              	.LVL50:
 486 0022 FFF7FEFF 		bl	chDbgPanic
 487              	.LVL51:
 488              	.L52:
 489              		.loc 1 242 0 is_stmt 1
 490 0026 2378     		ldrb	r3, [r4, #0]	@ zero_extendqisi2
 491 0028 022B     		cmp	r3, #2
 492 002a 02D0     		beq	.L53
 493              		.loc 1 242 0 is_stmt 0 discriminator 1
 494 002c 1448     		ldr	r0, .L61+4
 495 002e FFF7FEFF 		bl	chDbgPanic
 496              	.LVL52:
 497              	.L53:
 498              	.LBB8:
 499              		.loc 1 245 0 is_stmt 1
 500 0032 2023     		movs	r3, #32
 501              	.LVL53:
 502              	@ 245 "../../ChibiOS/os/hal/src/i2c.c" 1
 503 0034 83F31188 		msr     BASEPRI, r3
 504              	@ 0 "" 2
 505              	.LVL54:
 506              		.thumb
 507              	.LBE8:
ARM GAS  /tmp/ccIFmokw.s 			page 10


 508 0038 FFF7FEFF 		bl	dbg_check_lock
 509              	.LVL55:
 510              		.loc 1 246 0
 511 003c 0023     		movs	r3, #0
 512 003e A360     		str	r3, [r4, #8]
 513              		.loc 1 247 0
 514 0040 0423     		movs	r3, #4
 515 0042 2370     		strb	r3, [r4, #0]
 516              		.loc 1 248 0
 517 0044 2946     		mov	r1, r5
 518 0046 4246     		mov	r2, r8
 519 0048 2046     		mov	r0, r4
 520 004a 0097     		str	r7, [sp, #0]
 521 004c 3346     		mov	r3, r6
 522 004e FFF7FEFF 		bl	i2c_lld_master_receive_timeout
 523              	.LVL56:
 524              		.loc 1 249 0
 525 0052 421C     		adds	r2, r0, #1
 526              		.loc 1 248 0
 527 0054 0546     		mov	r5, r0
 528              	.LVL57:
 529              		.loc 1 249 0
 530 0056 0DD0     		beq	.L60
 531              		.loc 1 252 0
 532 0058 0223     		movs	r3, #2
 533 005a 2370     		strb	r3, [r4, #0]
 534              	.L55:
 535              		.loc 1 253 0
 536 005c FFF7FEFF 		bl	dbg_check_unlock
 537              	.LVL58:
 538              	.LBB9:
 539 0060 0023     		movs	r3, #0
 540              	.LVL59:
 541              	@ 253 "../../ChibiOS/os/hal/src/i2c.c" 1
 542 0062 83F31188 		msr     BASEPRI, r3
 543              	@ 0 "" 2
 544              	.LVL60:
 545              		.thumb
 546              	.LBE9:
 547              		.loc 1 255 0
 548 0066 2846     		mov	r0, r5
 549 0068 02B0     		add	sp, sp, #8
 550 006a BDE8F081 		pop	{r4, r5, r6, r7, r8, pc}
 551              	.LVL61:
 552              	.L59:
 553              		.loc 1 237 0 discriminator 3
 554 006e 002F     		cmp	r7, #0
 555 0070 D9D1     		bne	.L52
 556 0072 D5E7     		b	.L51
 557              	.LVL62:
 558              	.L60:
 559              		.loc 1 250 0
 560 0074 0523     		movs	r3, #5
 561 0076 2370     		strb	r3, [r4, #0]
 562 0078 F0E7     		b	.L55
 563              	.L62:
 564 007a 00BF     		.align	2
ARM GAS  /tmp/ccIFmokw.s 			page 11


 565              	.L61:
 566 007c 90000000 		.word	.LC7
 567 0080 AC000000 		.word	.LC8
 568              		.cfi_endproc
 569              	.LFE124:
 570              		.size	i2cMasterReceiveTimeout, .-i2cMasterReceiveTimeout
 571 0084 AFF30080 		.section	.text.i2cAcquireBus,"ax",%progbits
 571      AFF30080 
 571      AFF30080 
 572              		.align	2
 573              		.p2align 4,,15
 574              		.global	i2cAcquireBus
 575              		.thumb
 576              		.thumb_func
 577              		.type	i2cAcquireBus, %function
 578              	i2cAcquireBus:
 579              	.LFB125:
 580              		.loc 1 269 0
 581              		.cfi_startproc
 582              		@ args = 0, pretend = 0, frame = 0
 583              		@ frame_needed = 0, uses_anonymous_args = 0
 584              	.LVL63:
 585 0000 10B5     		push	{r4, lr}
 586              	.LCFI7:
 587              		.cfi_def_cfa_offset 8
 588              		.cfi_offset 4, -8
 589              		.cfi_offset 14, -4
 590              		.loc 1 271 0
 591 0002 0446     		mov	r4, r0
 592 0004 28B1     		cbz	r0, .L65
 593              	.LVL64:
 594              	.L64:
 595              		.loc 1 274 0
 596 0006 04F10C00 		add	r0, r4, #12
 597              		.loc 1 278 0
 598 000a BDE81040 		pop	{r4, lr}
 599              		.loc 1 274 0
 600 000e FFF7FEBF 		b	chMtxLock
 601              	.LVL65:
 602              	.L65:
 603              		.loc 1 271 0 discriminator 1
 604 0012 0248     		ldr	r0, .L66
 605              	.LVL66:
 606 0014 FFF7FEFF 		bl	chDbgPanic
 607              	.LVL67:
 608 0018 F5E7     		b	.L64
 609              	.L67:
 610 001a 00BF     		.align	2
 611              	.L66:
 612 001c C4000000 		.word	.LC9
 613              		.cfi_endproc
 614              	.LFE125:
 615              		.size	i2cAcquireBus, .-i2cAcquireBus
 616              		.section	.text.i2cReleaseBus,"ax",%progbits
 617              		.align	2
 618              		.p2align 4,,15
 619              		.global	i2cReleaseBus
ARM GAS  /tmp/ccIFmokw.s 			page 12


 620              		.thumb
 621              		.thumb_func
 622              		.type	i2cReleaseBus, %function
 623              	i2cReleaseBus:
 624              	.LFB126:
 625              		.loc 1 289 0
 626              		.cfi_startproc
 627              		@ args = 0, pretend = 0, frame = 0
 628              		@ frame_needed = 0, uses_anonymous_args = 0
 629              	.LVL68:
 630 0000 08B5     		push	{r3, lr}
 631              	.LCFI8:
 632              		.cfi_def_cfa_offset 8
 633              		.cfi_offset 3, -8
 634              		.cfi_offset 14, -4
 635              		.loc 1 291 0
 636 0002 18B1     		cbz	r0, .L70
 637              	.LVL69:
 638              	.L69:
 639              		.loc 1 298 0
 640 0004 BDE80840 		pop	{r3, lr}
 641              		.loc 1 294 0
 642 0008 FFF7FEBF 		b	chMtxUnlock
 643              	.LVL70:
 644              	.L70:
 645              		.loc 1 291 0 discriminator 1
 646 000c 0148     		ldr	r0, .L71
 647              	.LVL71:
 648 000e FFF7FEFF 		bl	chDbgPanic
 649              	.LVL72:
 650 0012 F7E7     		b	.L69
 651              	.L72:
 652              		.align	2
 653              	.L71:
 654 0014 D8000000 		.word	.LC10
 655              		.cfi_endproc
 656              	.LFE126:
 657              		.size	i2cReleaseBus, .-i2cReleaseBus
 658 0018 AFF30080 		.section	.rodata.str1.4,"aMS",%progbits,1
 658      AFF30080 
 659              		.align	2
 660              	.LC0:
 661 0000 22693263 		.ascii	"\"i2cStart\"()\000"
 661      53746172 
 661      74222829 
 661      00
 662 000d 000000   		.space	3
 663              	.LC1:
 664 0010 69326353 		.ascii	"i2cStart(), #1\000"
 664      74617274 
 664      28292C20 
 664      233100
 665 001f 00       		.space	1
 666              	.LC2:
 667 0020 22693263 		.ascii	"\"i2cStop\"()\000"
 667      53746F70 
 667      22282900 
ARM GAS  /tmp/ccIFmokw.s 			page 13


 668              	.LC3:
 669 002c 69326353 		.ascii	"i2cStop(), #1\000"
 669      746F7028 
 669      292C2023 
 669      3100
 670 003a 0000     		.space	2
 671              	.LC4:
 672 003c 22693263 		.ascii	"\"i2cGetErrors\"()\000"
 672      47657445 
 672      72726F72 
 672      73222829 
 672      00
 673 004d 000000   		.space	3
 674              	.LC5:
 675 0050 22693263 		.ascii	"\"i2cMasterTransmitTimeout\"()\000"
 675      4D617374 
 675      65725472 
 675      616E736D 
 675      69745469 
 676 006d 000000   		.space	3
 677              	.LC6:
 678 0070 6932634D 		.ascii	"i2cMasterTransmitTimeout(), #1\000"
 678      61737465 
 678      72547261 
 678      6E736D69 
 678      7454696D 
 679 008f 00       		.space	1
 680              	.LC7:
 681 0090 22693263 		.ascii	"\"i2cMasterReceiveTimeout\"()\000"
 681      4D617374 
 681      65725265 
 681      63656976 
 681      6554696D 
 682              	.LC8:
 683 00ac 6932634D 		.ascii	"i2cMasterReceive(), #1\000"
 683      61737465 
 683      72526563 
 683      65697665 
 683      28292C20 
 684 00c3 00       		.space	1
 685              	.LC9:
 686 00c4 22693263 		.ascii	"\"i2cAcquireBus\"()\000"
 686      41637175 
 686      69726542 
 686      75732228 
 686      2900
 687 00d6 0000     		.space	2
 688              	.LC10:
 689 00d8 22693263 		.ascii	"\"i2cReleaseBus\"()\000"
 689      52656C65 
 689      61736542 
 689      75732228 
 689      2900
 690 00ea 0000     		.text
 691              	.Letext0:
 692              		.file 2 "/home/david/toolchains/psas/x-tools/stm32f407/arm-psas-eabi/bin/../lib/gcc/arm-psas-eabi/
 693              		.file 3 "/home/david/toolchains/psas/x-tools/stm32f407/arm-psas-eabi/bin/../lib/gcc/arm-psas-eabi/
ARM GAS  /tmp/ccIFmokw.s 			page 14


 694              		.file 4 "../../ChibiOS/os/ports/GCC/ARMCMx/chtypes.h"
 695              		.file 5 "../../ChibiOS/os/kernel/include/chlists.h"
 696              		.file 6 "../../ChibiOS/os/kernel/include/chthreads.h"
 697              		.file 7 "../../ChibiOS/os/ports/GCC/ARMCMx/chcore_v7m.h"
 698              		.file 8 "../../ChibiOS/os/kernel/include/chmtx.h"
 699              		.file 9 "../../ChibiOS/os/hal/platforms/STM32F4xx/stm32f4xx.h"
 700              		.file 10 "../../ChibiOS/os/hal/platforms/STM32F4xx/stm32_dma.h"
 701              		.file 11 "../../ChibiOS/os/hal/include/i2c.h"
 702              		.file 12 "../../ChibiOS/os/hal/platforms/STM32/I2Cv1/i2c_lld.h"
 703              		.file 13 "../../ChibiOS/os/kernel/include/chdebug.h"
 704              		.file 14 "../../ChibiOS/os/ports/common/ARMCMx/CMSIS/include/core_cm4.h"