ARM GAS  /tmp/ccFfR4Gk.s 			page 1


   1              		.syntax unified
   2              		.cpu cortex-m4
   3              		.eabi_attribute 27, 3
   4              		.eabi_attribute 28, 1
   5              		.fpu fpv4-sp-d16
   6              		.eabi_attribute 20, 1
   7              		.eabi_attribute 21, 1
   8              		.eabi_attribute 23, 3
   9              		.eabi_attribute 24, 1
  10              		.eabi_attribute 25, 1
  11              		.eabi_attribute 26, 1
  12              		.eabi_attribute 30, 2
  13              		.eabi_attribute 34, 1
  14              		.eabi_attribute 18, 4
  15              		.thumb
  16              		.file	"i2c_lld.c"
  17              		.text
  18              	.Ltext0:
  19              		.cfi_sections	.debug_frame
  20              		.section	.text.i2c_lld_abort_operation,"ax",%progbits
  21              		.align	2
  22              		.p2align 4,,15
  23              		.thumb
  24              		.thumb_func
  25              		.type	i2c_lld_abort_operation, %function
  26              	i2c_lld_abort_operation:
  27              	.LFB118:
  28              		.file 1 "../../ChibiOS/os/hal/platforms/STM32/I2Cv1/i2c_lld.c"
  29              		.loc 1 135 0
  30              		.cfi_startproc
  31              		@ args = 0, pretend = 0, frame = 0
  32              		@ frame_needed = 0, uses_anonymous_args = 0
  33              		@ link register save eliminated.
  34              	.LVL0:
  35 0000 30B4     		push	{r4, r5}
  36              	.LCFI0:
  37              		.cfi_def_cfa_offset 8
  38              		.cfi_offset 4, -8
  39              		.cfi_offset 5, -4
  40              		.loc 1 145 0
  41 0002 C46A     		ldr	r4, [r0, #44]
  42              		.loc 1 136 0
  43 0004 036B     		ldr	r3, [r0, #48]
  44              	.LVL1:
  45              		.loc 1 145 0
  46 0006 2268     		ldr	r2, [r4, #0]
  47              		.loc 1 140 0
  48 0008 0021     		movs	r1, #0
  49              		.loc 1 139 0
  50 000a 4FF40045 		mov	r5, #32768
  51 000e 1D80     		strh	r5, [r3, #0]	@ movhi
  52              		.loc 1 140 0
  53 0010 1980     		strh	r1, [r3, #0]	@ movhi
  54              		.loc 1 141 0
  55 0012 9980     		strh	r1, [r3, #4]	@ movhi
  56              		.loc 1 142 0
  57 0014 9982     		strh	r1, [r3, #20]	@ movhi
ARM GAS  /tmp/ccFfR4Gk.s 			page 2


  58              		.loc 1 145 0
  59 0016 1368     		ldr	r3, [r2, #0]
  60              	.LVL2:
  61 0018 23F00103 		bic	r3, r3, #1
  62 001c 1360     		str	r3, [r2, #0]
  63              	.L2:
  64              		.loc 1 145 0 is_stmt 0 discriminator 1
  65 001e 1368     		ldr	r3, [r2, #0]
  66 0020 D907     		lsls	r1, r3, #31
  67 0022 FCD4     		bmi	.L2
  68              		.loc 1 146 0 is_stmt 1 discriminator 2
  69 0024 816A     		ldr	r1, [r0, #40]
  70              		.loc 1 145 0 discriminator 2
  71 0026 257A     		ldrb	r5, [r4, #8]	@ zero_extendqisi2
  72 0028 6368     		ldr	r3, [r4, #4]
  73              		.loc 1 146 0 discriminator 2
  74 002a 0A68     		ldr	r2, [r1, #0]
  75              		.loc 1 145 0 discriminator 2
  76 002c 3D20     		movs	r0, #61
  77              	.LVL3:
  78 002e 00FA05F0 		lsl	r0, r0, r5
  79 0032 1860     		str	r0, [r3, #0]
  80              		.loc 1 146 0 discriminator 2
  81 0034 1368     		ldr	r3, [r2, #0]
  82 0036 23F00103 		bic	r3, r3, #1
  83 003a 1360     		str	r3, [r2, #0]
  84              	.L3:
  85              		.loc 1 146 0 is_stmt 0 discriminator 1
  86 003c 1368     		ldr	r3, [r2, #0]
  87 003e DB07     		lsls	r3, r3, #31
  88 0040 FCD4     		bmi	.L3
  89              		.loc 1 146 0 discriminator 2
  90 0042 0A7A     		ldrb	r2, [r1, #8]	@ zero_extendqisi2
  91 0044 4B68     		ldr	r3, [r1, #4]
  92 0046 3D21     		movs	r1, #61
  93 0048 01FA02F2 		lsl	r2, r1, r2
  94 004c 1A60     		str	r2, [r3, #0]
  95              		.loc 1 147 0 is_stmt 1 discriminator 2
  96 004e 30BC     		pop	{r4, r5}
  97 0050 7047     		bx	lr
  98              		.cfi_endproc
  99              	.LFE118:
 100              		.size	i2c_lld_abort_operation, .-i2c_lld_abort_operation
 101 0052 00BFAFF3 		.section	.text.i2c_lld_safety_timeout,"ax",%progbits
 101      0080AFF3 
 101      0080AFF3 
 101      0080
 102              		.align	2
 103              		.p2align 4,,15
 104              		.thumb
 105              		.thumb_func
 106              		.type	i2c_lld_safety_timeout, %function
 107              	i2c_lld_safety_timeout:
 108              	.LFB119:
 109              		.loc 1 156 0
 110              		.cfi_startproc
 111              		@ args = 0, pretend = 0, frame = 0
ARM GAS  /tmp/ccFfR4Gk.s 			page 3


 112              		@ frame_needed = 0, uses_anonymous_args = 0
 113              	.LVL4:
 114 0000 38B5     		push	{r3, r4, r5, lr}
 115              	.LCFI1:
 116              		.cfi_def_cfa_offset 16
 117              		.cfi_offset 3, -16
 118              		.cfi_offset 4, -12
 119              		.cfi_offset 5, -8
 120              		.cfi_offset 14, -4
 121              		.loc 1 156 0
 122 0002 0446     		mov	r4, r0
 123              	.LVL5:
 124              	.LBB10:
 125              		.loc 1 159 0
 126 0004 2023     		movs	r3, #32
 127              	.LVL6:
 128              	@ 159 "../../ChibiOS/os/hal/platforms/STM32/I2Cv1/i2c_lld.c" 1
 129 0006 83F31188 		msr     BASEPRI, r3
 130              	@ 0 "" 2
 131              	.LVL7:
 132              		.thumb
 133              	.LBE10:
 134 000a FFF7FEFF 		bl	dbg_check_lock_from_isr
 135              	.LVL8:
 136              		.loc 1 160 0
 137 000e E569     		ldr	r5, [r4, #28]
 138 0010 55B1     		cbz	r5, .L8
 139              	.LVL9:
 140              	.LBB11:
 141              		.loc 1 162 0
 142 0012 2046     		mov	r0, r4
 143 0014 FFF7FEFF 		bl	i2c_lld_abort_operation
 144              	.LVL10:
 145              		.loc 1 163 0
 146 0018 0023     		movs	r3, #0
 147 001a E361     		str	r3, [r4, #28]
 148              		.loc 1 164 0
 149 001c 4FF0FF33 		mov	r3, #-1
 150              		.loc 1 165 0
 151 0020 2846     		mov	r0, r5
 152              		.loc 1 164 0
 153 0022 AB62     		str	r3, [r5, #40]
 154              		.loc 1 165 0
 155 0024 FFF7FEFF 		bl	chSchReadyI
 156              	.LVL11:
 157              	.L8:
 158              	.LBE11:
 159              		.loc 1 167 0
 160 0028 FFF7FEFF 		bl	dbg_check_unlock_from_isr
 161              	.LVL12:
 162              	.LBB12:
 163 002c 0023     		movs	r3, #0
 164              	.LVL13:
 165              	@ 167 "../../ChibiOS/os/hal/platforms/STM32/I2Cv1/i2c_lld.c" 1
 166 002e 83F31188 		msr     BASEPRI, r3
 167              	@ 0 "" 2
 168              	.LVL14:
ARM GAS  /tmp/ccFfR4Gk.s 			page 4


 169              		.thumb
 170 0032 38BD     		pop	{r3, r4, r5, pc}
 171              	.LBE12:
 172              		.cfi_endproc
 173              	.LFE119:
 174              		.size	i2c_lld_safety_timeout, .-i2c_lld_safety_timeout
 175 0034 AFF30080 		.section	.text.i2c_lld_serve_tx_end_irq,"ax",%progbits
 175      AFF30080 
 175      AFF30080 
 176              		.align	2
 177              		.p2align 4,,15
 178              		.thumb
 179              		.thumb_func
 180              		.type	i2c_lld_serve_tx_end_irq, %function
 181              	i2c_lld_serve_tx_end_irq:
 182              	.LFB124:
 183              		.loc 1 364 0
 184              		.cfi_startproc
 185              		@ args = 0, pretend = 0, frame = 0
 186              		@ frame_needed = 0, uses_anonymous_args = 0
 187              	.LVL15:
 188              		.loc 1 369 0
 189 0000 11F00C0F 		tst	r1, #12
 190              		.loc 1 364 0
 191 0004 38B5     		push	{r3, r4, r5, lr}
 192              	.LCFI2:
 193              		.cfi_def_cfa_offset 16
 194              		.cfi_offset 3, -16
 195              		.cfi_offset 4, -12
 196              		.cfi_offset 5, -8
 197              		.cfi_offset 14, -4
 198              		.loc 1 364 0
 199 0006 0546     		mov	r5, r0
 200              		.loc 1 365 0
 201 0008 046B     		ldr	r4, [r0, #48]
 202              	.LVL16:
 203              		.loc 1 369 0
 204 000a 14D1     		bne	.L19
 205              	.LVL17:
 206              	.L13:
 207              		.loc 1 376 0
 208 000c E96A     		ldr	r1, [r5, #44]
 209 000e 0A68     		ldr	r2, [r1, #0]
 210 0010 1368     		ldr	r3, [r2, #0]
 211 0012 23F00103 		bic	r3, r3, #1
 212 0016 1360     		str	r3, [r2, #0]
 213              	.L14:
 214              		.loc 1 376 0 is_stmt 0 discriminator 1
 215 0018 1368     		ldr	r3, [r2, #0]
 216 001a D807     		lsls	r0, r3, #31
 217 001c FCD4     		bmi	.L14
 218              		.loc 1 376 0 discriminator 2
 219 001e 0A7A     		ldrb	r2, [r1, #8]	@ zero_extendqisi2
 220 0020 4B68     		ldr	r3, [r1, #4]
 221 0022 3D21     		movs	r1, #61
 222 0024 01FA02F2 		lsl	r2, r1, r2
 223 0028 1A60     		str	r2, [r3, #0]
ARM GAS  /tmp/ccFfR4Gk.s 			page 5


 224              		.loc 1 380 0 is_stmt 1 discriminator 2
 225 002a A388     		ldrh	r3, [r4, #4]
 226 002c 9BB2     		uxth	r3, r3
 227 002e 43F40073 		orr	r3, r3, #512
 228 0032 A380     		strh	r3, [r4, #4]	@ movhi
 229 0034 38BD     		pop	{r3, r4, r5, pc}
 230              	.LVL18:
 231              	.L19:
 232              		.loc 1 370 0
 233 0036 FFF7FEFF 		bl	port_halt
 234              	.LVL19:
 235 003a E7E7     		b	.L13
 236              		.cfi_endproc
 237              	.LFE124:
 238              		.size	i2c_lld_serve_tx_end_irq, .-i2c_lld_serve_tx_end_irq
 239 003c AFF30080 		.section	.text.i2c_lld_serve_rx_end_irq,"ax",%progbits
 240              		.align	2
 241              		.p2align 4,,15
 242              		.thumb
 243              		.thumb_func
 244              		.type	i2c_lld_serve_rx_end_irq, %function
 245              	i2c_lld_serve_rx_end_irq:
 246              	.LFB123:
 247              		.loc 1 337 0
 248              		.cfi_startproc
 249              		@ args = 0, pretend = 0, frame = 0
 250              		@ frame_needed = 0, uses_anonymous_args = 0
 251              	.LVL20:
 252              		.loc 1 342 0
 253 0000 11F00C0F 		tst	r1, #12
 254              		.loc 1 337 0
 255 0004 70B5     		push	{r4, r5, r6, lr}
 256              	.LCFI3:
 257              		.cfi_def_cfa_offset 16
 258              		.cfi_offset 4, -16
 259              		.cfi_offset 5, -12
 260              		.cfi_offset 6, -8
 261              		.cfi_offset 14, -4
 262              		.loc 1 337 0
 263 0006 0646     		mov	r6, r0
 264              		.loc 1 338 0
 265 0008 056B     		ldr	r5, [r0, #48]
 266              	.LVL21:
 267              		.loc 1 342 0
 268 000a 32D1     		bne	.L31
 269              	.LVL22:
 270              	.L21:
 271              		.loc 1 349 0
 272 000c B16A     		ldr	r1, [r6, #40]
 273 000e 0A68     		ldr	r2, [r1, #0]
 274 0010 1368     		ldr	r3, [r2, #0]
 275 0012 23F00103 		bic	r3, r3, #1
 276 0016 1360     		str	r3, [r2, #0]
 277              	.L22:
 278              		.loc 1 349 0 is_stmt 0 discriminator 1
 279 0018 1368     		ldr	r3, [r2, #0]
 280 001a 13F00104 		ands	r4, r3, #1
ARM GAS  /tmp/ccFfR4Gk.s 			page 6


 281 001e FBD1     		bne	.L22
 282              		.loc 1 349 0 discriminator 2
 283 0020 0A7A     		ldrb	r2, [r1, #8]	@ zero_extendqisi2
 284 0022 4B68     		ldr	r3, [r1, #4]
 285 0024 3D21     		movs	r1, #61
 286 0026 01FA02F2 		lsl	r2, r1, r2
 287 002a 1A60     		str	r2, [r3, #0]
 288              		.loc 1 351 0 is_stmt 1 discriminator 2
 289 002c AB88     		ldrh	r3, [r5, #4]
 290 002e 23F48053 		bic	r3, r3, #4096
 291 0032 1B04     		lsls	r3, r3, #16
 292 0034 1B0C     		lsrs	r3, r3, #16
 293 0036 AB80     		strh	r3, [r5, #4]	@ movhi
 294              		.loc 1 352 0 discriminator 2
 295 0038 2B88     		ldrh	r3, [r5, #0]
 296 003a 23F48063 		bic	r3, r3, #1024
 297 003e 1B04     		lsls	r3, r3, #16
 298 0040 1B0C     		lsrs	r3, r3, #16
 299 0042 2B80     		strh	r3, [r5, #0]	@ movhi
 300              		.loc 1 353 0 discriminator 2
 301 0044 2B88     		ldrh	r3, [r5, #0]
 302 0046 9BB2     		uxth	r3, r3
 303 0048 43F40073 		orr	r3, r3, #512
 304 004c 2B80     		strh	r3, [r5, #0]	@ movhi
 305              	.LBB13:
 306              		.loc 1 354 0 discriminator 2
 307 004e 2023     		movs	r3, #32
 308              	.LVL23:
 309              	@ 354 "../../ChibiOS/os/hal/platforms/STM32/I2Cv1/i2c_lld.c" 1
 310 0050 83F31188 		msr     BASEPRI, r3
 311              	@ 0 "" 2
 312              	.LVL24:
 313              		.thumb
 314              	.LBE13:
 315 0054 FFF7FEFF 		bl	dbg_check_lock_from_isr
 316              	.LVL25:
 317 0058 F369     		ldr	r3, [r6, #28]
 318 005a 23B1     		cbz	r3, .L23
 319              	.LVL26:
 320              	.LBB14:
 321              		.loc 1 354 0 is_stmt 0 discriminator 1
 322 005c F461     		str	r4, [r6, #28]
 323 005e 1846     		mov	r0, r3
 324 0060 9C62     		str	r4, [r3, #40]
 325 0062 FFF7FEFF 		bl	chSchReadyI
 326              	.LVL27:
 327              	.L23:
 328              	.LBE14:
 329              		.loc 1 354 0 discriminator 2
 330 0066 FFF7FEFF 		bl	dbg_check_unlock_from_isr
 331              	.LVL28:
 332              	.LBB15:
 333 006a 0023     		movs	r3, #0
 334              	.LVL29:
 335              	@ 354 "../../ChibiOS/os/hal/platforms/STM32/I2Cv1/i2c_lld.c" 1
 336 006c 83F31188 		msr     BASEPRI, r3
 337              	@ 0 "" 2
ARM GAS  /tmp/ccFfR4Gk.s 			page 7


 338              	.LVL30:
 339              		.thumb
 340 0070 70BD     		pop	{r4, r5, r6, pc}
 341              	.LVL31:
 342              	.L31:
 343              	.LBE15:
 344              		.loc 1 343 0 is_stmt 1
 345 0072 FFF7FEFF 		bl	port_halt
 346              	.LVL32:
 347 0076 C9E7     		b	.L21
 348              		.cfi_endproc
 349              	.LFE123:
 350              		.size	i2c_lld_serve_rx_end_irq, .-i2c_lld_serve_rx_end_irq
 351 0078 AFF30080 		.section	.text.VectorC4,"ax",%progbits
 351      AFF30080 
 352              		.align	2
 353              		.p2align 4,,15
 354              		.global	VectorC4
 355              		.thumb
 356              		.thumb_func
 357              		.type	VectorC4, %function
 358              	VectorC4:
 359              	.LFB126:
 360              		.loc 1 478 0
 361              		.cfi_startproc
 362              		@ args = 0, pretend = 0, frame = 0
 363              		@ frame_needed = 0, uses_anonymous_args = 0
 364 0000 F8B5     		push	{r3, r4, r5, r6, r7, lr}
 365              	.LCFI4:
 366              		.cfi_def_cfa_offset 24
 367              		.cfi_offset 3, -24
 368              		.cfi_offset 4, -20
 369              		.cfi_offset 5, -16
 370              		.cfi_offset 6, -12
 371              		.cfi_offset 7, -8
 372              		.cfi_offset 14, -4
 373              	.LBB21:
 374              	.LBB22:
 375              		.loc 1 287 0
 376 0002 3F4D     		ldr	r5, .L48
 377              	.LBE22:
 378              	.LBE21:
 379              		.loc 1 480 0
 380 0004 FFF7FEFF 		bl	dbg_check_enter_isr
 381              	.LVL33:
 382              	.LBB28:
 383              	.LBB26:
 384              		.loc 1 287 0
 385 0008 2C6B     		ldr	r4, [r5, #48]
 386              	.LVL34:
 387              		.loc 1 288 0
 388 000a 228B     		ldrh	r2, [r4, #24]
 389              	.LVL35:
 390              		.loc 1 289 0
 391 000c A68A     		ldrh	r6, [r4, #20]
 392 000e B6B2     		uxth	r6, r6
 393              	.LVL36:
ARM GAS  /tmp/ccFfR4Gk.s 			page 8


 394              		.loc 1 294 0
 395 0010 0223     		movs	r3, #2
 396 0012 46EA0242 		orr	r2, r6, r2, lsl #16
 397              	.LVL37:
 398 0016 22F07F42 		bic	r2, r2, #-16777216
 399 001a C0F20303 		movt	r3, 3
 400 001e 9A42     		cmp	r2, r3
 401 0020 37D0     		beq	.L35
 402 0022 10D8     		bhi	.L38
 403 0024 0123     		movs	r3, #1
 404 0026 C0F20303 		movt	r3, 3
 405 002a 9A42     		cmp	r2, r3
 406 002c 01D1     		bne	.L33
 407              		.loc 1 296 0
 408 002e 2B8C     		ldrh	r3, [r5, #32]
 409 0030 2382     		strh	r3, [r4, #16]	@ movhi
 410              	.LVL38:
 411              	.L33:
 412              		.loc 1 325 0
 413 0032 16F00A0F 		tst	r6, #10
 414              		.loc 1 326 0
 415 0036 18BF     		it	ne
 416 0038 238B     		ldrhne	r3, [r4, #24]
 417              	.LVL39:
 418              	.L40:
 419              	.LBE26:
 420              	.LBE28:
 421              		.loc 1 484 0
 422 003a FFF7FEFF 		bl	dbg_check_leave_isr
 423              	.LVL40:
 424              		.loc 1 485 0
 425 003e BDE8F840 		pop	{r3, r4, r5, r6, r7, lr}
 426              		.loc 1 484 0
 427 0042 FFF7FEBF 		b	_port_irq_epilogue
 428              	.LVL41:
 429              	.L38:
 430              	.LBB29:
 431              	.LBB27:
 432              		.loc 1 294 0
 433 0046 8223     		movs	r3, #130
 434 0048 C0F20703 		movt	r3, 7
 435 004c 9A42     		cmp	r2, r3
 436 004e 13D0     		beq	.L36
 437 0050 8423     		movs	r3, #132
 438 0052 C0F20703 		movt	r3, 7
 439 0056 9A42     		cmp	r2, r3
 440 0058 EBD1     		bne	.L33
 441              		.loc 1 311 0
 442 005a AB6A     		ldr	r3, [r5, #40]
 443 005c 1B68     		ldr	r3, [r3, #0]
 444 005e 5F68     		ldr	r7, [r3, #4]
 445 0060 002F     		cmp	r7, #0
 446 0062 31D0     		beq	.L39
 447              		.loc 1 314 0
 448 0064 2388     		ldrh	r3, [r4, #0]
 449              		.loc 1 313 0
 450 0066 2A8C     		ldrh	r2, [r5, #32]
ARM GAS  /tmp/ccFfR4Gk.s 			page 9


 451              		.loc 1 314 0
 452 0068 9BB2     		uxth	r3, r3
 453              		.loc 1 313 0
 454 006a 42F00102 		orr	r2, r2, #1
 455              		.loc 1 314 0
 456 006e 43F4A063 		orr	r3, r3, #1280
 457              		.loc 1 313 0
 458 0072 2A84     		strh	r2, [r5, #32]	@ movhi
 459              		.loc 1 314 0
 460 0074 2380     		strh	r3, [r4, #0]	@ movhi
 461 0076 E0E7     		b	.L40
 462              	.L36:
 463              		.loc 1 306 0
 464 0078 A388     		ldrh	r3, [r4, #4]
 465              		.loc 1 307 0
 466 007a EA6A     		ldr	r2, [r5, #44]
 467              		.loc 1 306 0
 468 007c 23F40073 		bic	r3, r3, #512
 469 0080 1B04     		lsls	r3, r3, #16
 470              		.loc 1 307 0
 471 0082 1268     		ldr	r2, [r2, #0]
 472              		.loc 1 306 0
 473 0084 1B0C     		lsrs	r3, r3, #16
 474 0086 A380     		strh	r3, [r4, #4]	@ movhi
 475              		.loc 1 307 0
 476 0088 1368     		ldr	r3, [r2, #0]
 477 008a 43F00103 		orr	r3, r3, #1
 478 008e 1360     		str	r3, [r2, #0]
 479 0090 CFE7     		b	.L33
 480              	.L35:
 481              		.loc 1 299 0
 482 0092 A388     		ldrh	r3, [r4, #4]
 483              		.loc 1 300 0
 484 0094 AA6A     		ldr	r2, [r5, #40]
 485              		.loc 1 299 0
 486 0096 23F40073 		bic	r3, r3, #512
 487 009a 1B04     		lsls	r3, r3, #16
 488              		.loc 1 300 0
 489 009c 1268     		ldr	r2, [r2, #0]
 490              		.loc 1 299 0
 491 009e 1B0C     		lsrs	r3, r3, #16
 492 00a0 A380     		strh	r3, [r4, #4]	@ movhi
 493              		.loc 1 300 0
 494 00a2 1368     		ldr	r3, [r2, #0]
 495 00a4 43F00103 		orr	r3, r3, #1
 496 00a8 1360     		str	r3, [r2, #0]
 497              		.loc 1 301 0
 498 00aa A388     		ldrh	r3, [r4, #4]
 499 00ac 9BB2     		uxth	r3, r3
 500 00ae 43F48053 		orr	r3, r3, #4096
 501 00b2 A380     		strh	r3, [r4, #4]	@ movhi
 502              		.loc 1 302 0
 503 00b4 5368     		ldr	r3, [r2, #4]
 504 00b6 012B     		cmp	r3, #1
 505 00b8 BBD8     		bhi	.L33
 506              		.loc 1 303 0
 507 00ba 2388     		ldrh	r3, [r4, #0]
ARM GAS  /tmp/ccFfR4Gk.s 			page 10


 508 00bc 23F48063 		bic	r3, r3, #1024
 509 00c0 1B04     		lsls	r3, r3, #16
 510 00c2 1B0C     		lsrs	r3, r3, #16
 511 00c4 2380     		strh	r3, [r4, #0]	@ movhi
 512 00c6 B4E7     		b	.L33
 513              	.L39:
 514              		.loc 1 317 0
 515 00c8 A388     		ldrh	r3, [r4, #4]
 516 00ca 23F40073 		bic	r3, r3, #512
 517 00ce 1B04     		lsls	r3, r3, #16
 518 00d0 1B0C     		lsrs	r3, r3, #16
 519 00d2 A380     		strh	r3, [r4, #4]	@ movhi
 520              		.loc 1 318 0
 521 00d4 2388     		ldrh	r3, [r4, #0]
 522 00d6 9BB2     		uxth	r3, r3
 523 00d8 43F40073 		orr	r3, r3, #512
 524 00dc 2380     		strh	r3, [r4, #0]	@ movhi
 525              	.LBB23:
 526              		.loc 1 319 0
 527 00de 2023     		movs	r3, #32
 528              	.LVL42:
 529              	@ 319 "../../ChibiOS/os/hal/platforms/STM32/I2Cv1/i2c_lld.c" 1
 530 00e0 83F31188 		msr     BASEPRI, r3
 531              	@ 0 "" 2
 532              	.LVL43:
 533              		.thumb
 534              	.LBE23:
 535 00e4 FFF7FEFF 		bl	dbg_check_lock_from_isr
 536              	.LVL44:
 537 00e8 E869     		ldr	r0, [r5, #28]
 538 00ea 18B1     		cbz	r0, .L41
 539              	.LVL45:
 540              	.LBB24:
 541 00ec 8762     		str	r7, [r0, #40]
 542 00ee EF61     		str	r7, [r5, #28]
 543 00f0 FFF7FEFF 		bl	chSchReadyI
 544              	.LVL46:
 545              	.L41:
 546              	.LBE24:
 547 00f4 FFF7FEFF 		bl	dbg_check_unlock_from_isr
 548              	.LVL47:
 549              	.LBB25:
 550 00f8 0023     		movs	r3, #0
 551              	@ 319 "../../ChibiOS/os/hal/platforms/STM32/I2Cv1/i2c_lld.c" 1
 552 00fa 83F31188 		msr     BASEPRI, r3
 553              	@ 0 "" 2
 554              	.LVL48:
 555              		.thumb
 556 00fe 98E7     		b	.L33
 557              	.L49:
 558              		.align	2
 559              	.L48:
 560 0100 00000000 		.word	.LANCHOR0
 561              	.LBE25:
 562              	.LBE27:
 563              	.LBE29:
 564              		.cfi_endproc
ARM GAS  /tmp/ccFfR4Gk.s 			page 11


 565              	.LFE126:
 566              		.size	VectorC4, .-VectorC4
 567 0104 AFF30080 		.section	.text.VectorC8,"ax",%progbits
 567      AFF30080 
 567      AFF30080 
 568              		.align	2
 569              		.p2align 4,,15
 570              		.global	VectorC8
 571              		.thumb
 572              		.thumb_func
 573              		.type	VectorC8, %function
 574              	VectorC8:
 575              	.LFB127:
 576              		.loc 1 492 0
 577              		.cfi_startproc
 578              		@ args = 0, pretend = 0, frame = 0
 579              		@ frame_needed = 0, uses_anonymous_args = 0
 580 0000 70B5     		push	{r4, r5, r6, lr}
 581              	.LCFI5:
 582              		.cfi_def_cfa_offset 16
 583              		.cfi_offset 4, -16
 584              		.cfi_offset 5, -12
 585              		.cfi_offset 6, -8
 586              		.cfi_offset 14, -4
 587              	.LBB37:
 588              	.LBB38:
 589              		.loc 1 391 0
 590 0002 594E     		ldr	r6, .L85
 591              	.LBE38:
 592              	.LBE37:
 593              		.loc 1 494 0
 594 0004 FFF7FEFF 		bl	dbg_check_enter_isr
 595              	.LVL49:
 596              	.LBB46:
 597              	.LBB44:
 598              		.loc 1 391 0
 599 0008 346B     		ldr	r4, [r6, #48]
 600              	.LVL50:
 601              	.LBB39:
 602              		.loc 1 395 0
 603 000a 2023     		movs	r3, #32
 604              	.LVL51:
 605              	@ 395 "../../ChibiOS/os/hal/platforms/STM32/I2Cv1/i2c_lld.c" 1
 606 000c 83F31188 		msr     BASEPRI, r3
 607              	@ 0 "" 2
 608              	.LVL52:
 609              		.thumb
 610              	.LBE39:
 611 0010 FFF7FEFF 		bl	dbg_check_lock_from_isr
 612              	.LVL53:
 613              		.loc 1 396 0
 614 0014 F06A     		ldr	r0, [r6, #44]
 615 0016 0268     		ldr	r2, [r0, #0]
 616 0018 1368     		ldr	r3, [r2, #0]
 617 001a 23F00103 		bic	r3, r3, #1
 618 001e 1360     		str	r3, [r2, #0]
 619              	.L51:
ARM GAS  /tmp/ccFfR4Gk.s 			page 12


 620 0020 1368     		ldr	r3, [r2, #0]
 621 0022 DD07     		lsls	r5, r3, #31
 622 0024 FCD4     		bmi	.L51
 623 0026 057A     		ldrb	r5, [r0, #8]	@ zero_extendqisi2
 624              		.loc 1 397 0
 625 0028 B16A     		ldr	r1, [r6, #40]
 626              		.loc 1 396 0
 627 002a 4368     		ldr	r3, [r0, #4]
 628              		.loc 1 397 0
 629 002c 0A68     		ldr	r2, [r1, #0]
 630              		.loc 1 396 0
 631 002e 3D20     		movs	r0, #61
 632 0030 00FA05F0 		lsl	r0, r0, r5
 633 0034 1860     		str	r0, [r3, #0]
 634              		.loc 1 397 0
 635 0036 1368     		ldr	r3, [r2, #0]
 636 0038 23F00103 		bic	r3, r3, #1
 637 003c 1360     		str	r3, [r2, #0]
 638              	.L52:
 639 003e 1368     		ldr	r3, [r2, #0]
 640 0040 13F00105 		ands	r5, r3, #1
 641 0044 FBD1     		bne	.L52
 642 0046 0A7A     		ldrb	r2, [r1, #8]	@ zero_extendqisi2
 643 0048 4B68     		ldr	r3, [r1, #4]
 644 004a 3D21     		movs	r1, #61
 645 004c 01FA02F2 		lsl	r2, r1, r2
 646 0050 1A60     		str	r2, [r3, #0]
 647              		.loc 1 398 0
 648 0052 FFF7FEFF 		bl	dbg_check_unlock_from_isr
 649              	.LVL54:
 650              	.LBB40:
 651 0056 2B46     		mov	r3, r5
 652              	.LVL55:
 653              	@ 398 "../../ChibiOS/os/hal/platforms/STM32/I2Cv1/i2c_lld.c" 1
 654 0058 83F31188 		msr     BASEPRI, r3
 655              	@ 0 "" 2
 656              	.LVL56:
 657              		.thumb
 658              	.LBE40:
 659              		.loc 1 402 0
 660 005c A38A     		ldrh	r3, [r4, #20]
 661              	.LVL57:
 662 005e 03F48073 		and	r3, r3, #256
 663 0062 9BB2     		uxth	r3, r3
 664 0064 33B1     		cbz	r3, .L53
 665              		.loc 1 403 0
 666 0066 A38A     		ldrh	r3, [r4, #20]
 667 0068 23F48073 		bic	r3, r3, #256
 668 006c 1B04     		lsls	r3, r3, #16
 669 006e 1B0C     		lsrs	r3, r3, #16
 670 0070 A382     		strh	r3, [r4, #20]	@ movhi
 671              	.LVL58:
 672              		.loc 1 404 0
 673 0072 0123     		movs	r3, #1
 674              	.LVL59:
 675              	.L53:
 676              		.loc 1 406 0
ARM GAS  /tmp/ccFfR4Gk.s 			page 13


 677 0074 A28A     		ldrh	r2, [r4, #20]
 678 0076 02F40072 		and	r2, r2, #512
 679 007a 92B2     		uxth	r2, r2
 680 007c 3AB1     		cbz	r2, .L54
 681              		.loc 1 407 0
 682 007e A28A     		ldrh	r2, [r4, #20]
 683 0080 22F40072 		bic	r2, r2, #512
 684 0084 1204     		lsls	r2, r2, #16
 685 0086 120C     		lsrs	r2, r2, #16
 686 0088 A282     		strh	r2, [r4, #20]	@ movhi
 687              		.loc 1 408 0
 688 008a 43F00203 		orr	r3, r3, #2
 689              	.LVL60:
 690              	.L54:
 691              		.loc 1 410 0
 692 008e A28A     		ldrh	r2, [r4, #20]
 693 0090 02F48062 		and	r2, r2, #1024
 694 0094 92B2     		uxth	r2, r2
 695 0096 92B1     		cbz	r2, .L55
 696              		.loc 1 411 0
 697 0098 A28A     		ldrh	r2, [r4, #20]
 698 009a 22F48062 		bic	r2, r2, #1024
 699 009e 1204     		lsls	r2, r2, #16
 700 00a0 120C     		lsrs	r2, r2, #16
 701 00a2 A282     		strh	r2, [r4, #20]	@ movhi
 702              		.loc 1 412 0
 703 00a4 A288     		ldrh	r2, [r4, #4]
 704 00a6 22F40072 		bic	r2, r2, #512
 705 00aa 1204     		lsls	r2, r2, #16
 706 00ac 120C     		lsrs	r2, r2, #16
 707 00ae A280     		strh	r2, [r4, #4]	@ movhi
 708              		.loc 1 413 0
 709 00b0 2288     		ldrh	r2, [r4, #0]
 710 00b2 92B2     		uxth	r2, r2
 711 00b4 42F40072 		orr	r2, r2, #512
 712 00b8 2280     		strh	r2, [r4, #0]	@ movhi
 713              		.loc 1 414 0
 714 00ba 43F00403 		orr	r3, r3, #4
 715              	.LVL61:
 716              	.L55:
 717              		.loc 1 416 0
 718 00be A28A     		ldrh	r2, [r4, #20]
 719 00c0 02F40062 		and	r2, r2, #2048
 720 00c4 92B2     		uxth	r2, r2
 721 00c6 3AB1     		cbz	r2, .L56
 722              		.loc 1 417 0
 723 00c8 A28A     		ldrh	r2, [r4, #20]
 724 00ca 22F40062 		bic	r2, r2, #2048
 725 00ce 1204     		lsls	r2, r2, #16
 726 00d0 120C     		lsrs	r2, r2, #16
 727 00d2 A282     		strh	r2, [r4, #20]	@ movhi
 728              		.loc 1 418 0
 729 00d4 43F00803 		orr	r3, r3, #8
 730              	.LVL62:
 731              	.L56:
 732              		.loc 1 420 0
 733 00d8 A28A     		ldrh	r2, [r4, #20]
ARM GAS  /tmp/ccFfR4Gk.s 			page 14


 734 00da 02F48052 		and	r2, r2, #4096
 735 00de 92B2     		uxth	r2, r2
 736 00e0 3AB1     		cbz	r2, .L57
 737              		.loc 1 421 0
 738 00e2 A28A     		ldrh	r2, [r4, #20]
 739 00e4 22F48052 		bic	r2, r2, #4096
 740 00e8 1204     		lsls	r2, r2, #16
 741 00ea 120C     		lsrs	r2, r2, #16
 742 00ec A282     		strh	r2, [r4, #20]	@ movhi
 743              		.loc 1 422 0
 744 00ee 43F01003 		orr	r3, r3, #16
 745              	.LVL63:
 746              	.L57:
 747              		.loc 1 424 0
 748 00f2 A28A     		ldrh	r2, [r4, #20]
 749 00f4 02F48042 		and	r2, r2, #16384
 750 00f8 92B2     		uxth	r2, r2
 751 00fa 0AB3     		cbz	r2, .L58
 752              		.loc 1 425 0
 753 00fc A28A     		ldrh	r2, [r4, #20]
 754 00fe 22F48042 		bic	r2, r2, #16384
 755 0102 1204     		lsls	r2, r2, #16
 756 0104 120C     		lsrs	r2, r2, #16
 757 0106 A282     		strh	r2, [r4, #20]	@ movhi
 758              		.loc 1 428 0
 759 0108 A28A     		ldrh	r2, [r4, #20]
 760 010a 12B2     		sxth	r2, r2
 761 010c 002A     		cmp	r2, #0
 762              		.loc 1 426 0
 763 010e 43F02003 		orr	r3, r3, #32
 764              	.LVL64:
 765              		.loc 1 428 0
 766 0112 21DB     		blt	.L59
 767              	.L60:
 768              		.loc 1 435 0
 769 0114 B360     		str	r3, [r6, #8]
 770              	.LBB41:
 771              		.loc 1 436 0
 772 0116 2023     		movs	r3, #32
 773              	.LVL65:
 774              	@ 436 "../../ChibiOS/os/hal/platforms/STM32/I2Cv1/i2c_lld.c" 1
 775 0118 83F31188 		msr     BASEPRI, r3
 776              	@ 0 "" 2
 777              	.LVL66:
 778              		.thumb
 779              	.LBE41:
 780 011c FFF7FEFF 		bl	dbg_check_lock_from_isr
 781              	.LVL67:
 782 0120 F069     		ldr	r0, [r6, #28]
 783 0122 38B1     		cbz	r0, .L63
 784              	.LVL68:
 785              	.LBB42:
 786 0124 6FF00103 		mvn	r3, #1
 787 0128 8362     		str	r3, [r0, #40]
 788 012a 0F4B     		ldr	r3, .L85
 789 012c 0022     		movs	r2, #0
 790 012e DA61     		str	r2, [r3, #28]
ARM GAS  /tmp/ccFfR4Gk.s 			page 15


 791 0130 FFF7FEFF 		bl	chSchReadyI
 792              	.LVL69:
 793              	.L63:
 794              	.LBE42:
 795 0134 FFF7FEFF 		bl	dbg_check_unlock_from_isr
 796              	.LVL70:
 797              	.LBB43:
 798 0138 0023     		movs	r3, #0
 799              	.LVL71:
 800              	@ 436 "../../ChibiOS/os/hal/platforms/STM32/I2Cv1/i2c_lld.c" 1
 801 013a 83F31188 		msr     BASEPRI, r3
 802              	@ 0 "" 2
 803              	.LVL72:
 804              		.thumb
 805 013e 05E0     		b	.L62
 806              	.LVL73:
 807              	.L58:
 808              	.LBE43:
 809              		.loc 1 428 0
 810 0140 A28A     		ldrh	r2, [r4, #20]
 811 0142 12B2     		sxth	r2, r2
 812 0144 002A     		cmp	r2, #0
 813 0146 07DB     		blt	.L59
 814              		.loc 1 434 0
 815 0148 002B     		cmp	r3, #0
 816 014a E3D1     		bne	.L60
 817              	.LVL74:
 818              	.L62:
 819              	.LBE44:
 820              	.LBE46:
 821              		.loc 1 498 0
 822 014c FFF7FEFF 		bl	dbg_check_leave_isr
 823              	.LVL75:
 824              		.loc 1 499 0
 825 0150 BDE87040 		pop	{r4, r5, r6, lr}
 826              		.loc 1 498 0
 827 0154 FFF7FEBF 		b	_port_irq_epilogue
 828              	.LVL76:
 829              	.L59:
 830              	.LBB47:
 831              	.LBB45:
 832              		.loc 1 429 0
 833 0158 A28A     		ldrh	r2, [r4, #20]
 834 015a 5204     		lsls	r2, r2, #17
 835 015c 520C     		lsrs	r2, r2, #17
 836 015e A282     		strh	r2, [r4, #20]	@ movhi
 837              		.loc 1 430 0
 838 0160 43F04003 		orr	r3, r3, #64
 839              	.LVL77:
 840 0164 D6E7     		b	.L60
 841              	.L86:
 842 0166 00BF     		.align	2
 843              	.L85:
 844 0168 00000000 		.word	.LANCHOR0
 845              	.LBE45:
 846              	.LBE47:
 847              		.cfi_endproc
ARM GAS  /tmp/ccFfR4Gk.s 			page 16


 848              	.LFE127:
 849              		.size	VectorC8, .-VectorC8
 850 016c AFF30080 		.section	.text.i2c_lld_init,"ax",%progbits
 851              		.align	2
 852              		.p2align 4,,15
 853              		.global	i2c_lld_init
 854              		.thumb
 855              		.thumb_func
 856              		.type	i2c_lld_init, %function
 857              	i2c_lld_init:
 858              	.LFB128:
 859              		.loc 1 541 0
 860              		.cfi_startproc
 861              		@ args = 0, pretend = 0, frame = 0
 862              		@ frame_needed = 0, uses_anonymous_args = 0
 863 0000 10B5     		push	{r4, lr}
 864              	.LCFI6:
 865              		.cfi_def_cfa_offset 8
 866              		.cfi_offset 4, -8
 867              		.cfi_offset 14, -4
 868              		.loc 1 552 0
 869 0002 40F20004 		movw	r4, #:lower16:.LANCHOR0
 870 0006 C0F20004 		movt	r4, #:upper16:.LANCHOR0
 871 000a 2046     		mov	r0, r4
 872 000c FFF7FEFF 		bl	i2cObjectInit
 873              	.LVL78:
 874              		.loc 1 555 0
 875 0010 064B     		ldr	r3, .L88
 876              		.loc 1 554 0
 877 0012 4FF4B042 		mov	r2, #22528
 878 0016 C4F20002 		movt	r2, 16384
 879              		.loc 1 556 0
 880 001a 03F13C01 		add	r1, r3, #60
 881              		.loc 1 553 0
 882 001e 0020     		movs	r0, #0
 883 0020 E061     		str	r0, [r4, #28]
 884              		.loc 1 554 0
 885 0022 2263     		str	r2, [r4, #48]
 886              		.loc 1 555 0
 887 0024 A362     		str	r3, [r4, #40]
 888              		.loc 1 556 0
 889 0026 E162     		str	r1, [r4, #44]
 890 0028 10BD     		pop	{r4, pc}
 891              	.L89:
 892 002a 00BF     		.align	2
 893              	.L88:
 894 002c 18000000 		.word	_stm32_dma_streams+24
 895              		.cfi_endproc
 896              	.LFE128:
 897              		.size	i2c_lld_init, .-i2c_lld_init
 898              		.section	.text.i2c_lld_start,"ax",%progbits
 899              		.align	2
 900              		.p2align 4,,15
 901              		.global	i2c_lld_start
 902              		.thumb
 903              		.thumb_func
 904              		.type	i2c_lld_start, %function
ARM GAS  /tmp/ccFfR4Gk.s 			page 17


 905              	i2c_lld_start:
 906              	.LFB129:
 907              		.loc 1 575 0
 908              		.cfi_startproc
 909              		@ args = 0, pretend = 0, frame = 0
 910              		@ frame_needed = 0, uses_anonymous_args = 0
 911              	.LVL79:
 912              		.loc 1 583 0
 913 0000 0278     		ldrb	r2, [r0, #0]	@ zero_extendqisi2
 914              		.loc 1 578 0
 915 0002 40F21643 		movw	r3, #1046
 916              		.loc 1 583 0
 917 0006 012A     		cmp	r2, #1
 918              		.loc 1 575 0
 919 0008 2DE9F041 		push	{r4, r5, r6, r7, r8, lr}
 920              	.LCFI7:
 921              		.cfi_def_cfa_offset 24
 922              		.cfi_offset 4, -24
 923              		.cfi_offset 5, -20
 924              		.cfi_offset 6, -16
 925              		.cfi_offset 7, -12
 926              		.cfi_offset 8, -8
 927              		.cfi_offset 14, -4
 928              		.loc 1 575 0
 929 000c 0446     		mov	r4, r0
 930              		.loc 1 578 0
 931 000e 4362     		str	r3, [r0, #36]
 932              		.loc 1 576 0
 933 0010 056B     		ldr	r5, [r0, #48]
 934              	.LVL80:
 935              		.loc 1 583 0
 936 0012 00F08F80 		beq	.L135
 937              	.L113:
 938              		.loc 1 576 0
 939 0016 2E46     		mov	r6, r5
 940              		.loc 1 612 0
 941 0018 40F25642 		movw	r2, #1110
 942 001c 9C46     		mov	ip, r3
 943              	.LVL81:
 944              	.L91:
 945              		.loc 1 665 0
 946 001e E36A     		ldr	r3, [r4, #44]
 947              		.loc 1 666 0
 948 0020 A16A     		ldr	r1, [r4, #40]
 949              	.LBB53:
 950              	.LBB54:
 951              		.loc 1 180 0
 952 0022 6068     		ldr	r0, [r4, #4]
 953              	.LBE54:
 954              	.LBE53:
 955              		.loc 1 665 0
 956 0024 1B68     		ldr	r3, [r3, #0]
 957              		.loc 1 666 0
 958 0026 0968     		ldr	r1, [r1, #0]
 959              	.LBB62:
 960              	.LBB55:
 961              		.loc 1 180 0
ARM GAS  /tmp/ccFfR4Gk.s 			page 18


 962 0028 4768     		ldr	r7, [r0, #4]
 963              	.LBE55:
 964              	.LBE62:
 965              		.loc 1 665 0
 966 002a 1A60     		str	r2, [r3, #0]
 967              		.loc 1 669 0
 968 002c 05F11002 		add	r2, r5, #16
 969              		.loc 1 666 0
 970 0030 C1F800C0 		str	ip, [r1, #0]
 971              	.LBB63:
 972              	.LBB56:
 973              		.loc 1 181 0
 974 0034 90F80880 		ldrb	r8, [r0, #8]	@ zero_extendqisi2
 975              	.LBE56:
 976              	.LBE63:
 977              		.loc 1 669 0
 978 0038 8A60     		str	r2, [r1, #8]
 979              		.loc 1 670 0
 980 003a 9A60     		str	r2, [r3, #8]
 981              		.loc 1 673 0
 982 003c 4FF40043 		mov	r3, #32768
 983 0040 2B80     		strh	r3, [r5, #0]	@ movhi
 984              		.loc 1 674 0
 985 0042 0023     		movs	r3, #0
 986 0044 2B80     		strh	r3, [r5, #0]	@ movhi
 987              	.LBB64:
 988              	.LBB57:
 989              		.loc 1 183 0
 990 0046 002F     		cmp	r7, #0
 991              	.LBE57:
 992              	.LBE64:
 993              		.loc 1 675 0
 994 0048 4FF41063 		mov	r3, #2304
 995 004c AB80     		strh	r3, [r5, #4]	@ movhi
 996              	.LVL82:
 997              	.LBB65:
 998              	.LBB58:
 999              		.loc 1 183 0
 1000 004e 59DD     		ble	.L94
 1001 0050 C0F23D03 		movt	r3, 61
 1002 0054 9F42     		cmp	r7, r3
 1003 0056 55DC     		bgt	.L94
 1004              	.LVL83:
 1005              	.L95:
 1006              		.loc 1 187 0
 1007 0058 B388     		ldrh	r3, [r6, #4]
 1008 005a 23F03F03 		bic	r3, r3, #63
 1009 005e 1B04     		lsls	r3, r3, #16
 1010 0060 1B0C     		lsrs	r3, r3, #16
 1011 0062 B380     		strh	r3, [r6, #4]	@ movhi
 1012              		.loc 1 188 0
 1013 0064 B288     		ldrh	r2, [r6, #4]
 1014              		.loc 1 194 0
 1015 0066 48F2A063 		movw	r3, #34464
 1016              		.loc 1 188 0
 1017 006a 92B2     		uxth	r2, r2
 1018              		.loc 1 194 0
ARM GAS  /tmp/ccFfR4Gk.s 			page 19


 1019 006c C0F20103 		movt	r3, 1
 1020              		.loc 1 188 0
 1021 0070 42F02A02 		orr	r2, r2, #42
 1022              		.loc 1 194 0
 1023 0074 9F42     		cmp	r7, r3
 1024              		.loc 1 188 0
 1025 0076 B280     		strh	r2, [r6, #4]	@ movhi
 1026              	.LVL84:
 1027              		.loc 1 194 0
 1028 0078 48DC     		bgt	.L96
 1029              		.loc 1 196 0
 1030 007a B8F1010F 		cmp	r8, #1
 1031 007e 02D0     		beq	.L97
 1032 0080 7D48     		ldr	r0, .L142
 1033 0082 FFF7FEFF 		bl	chDbgPanic
 1034              	.LVL85:
 1035              	.L97:
 1036              		.loc 1 201 0
 1037 0086 4DF68063 		movw	r3, #56960
 1038 008a 7F00     		lsls	r7, r7, #1
 1039              	.LVL86:
 1040 008c C0F28023 		movt	r3, 640
 1041 0090 93FBF7F2 		sdiv	r2, r3, r7
 1042 0094 4DF68063 		movw	r3, #56960
 1043 0098 07FB02F2 		mul	r2, r7, r2
 1044 009c C0F28023 		movt	r3, 640
 1045 00a0 9B1A     		subs	r3, r3, r2
 1046 00a2 002B     		cmp	r3, #0
 1047 00a4 40F09080 		bne	.L136
 1048              	.L98:
 1049              		.loc 1 204 0
 1050 00a8 4DF68063 		movw	r3, #56960
 1051 00ac C0F28023 		movt	r3, 640
 1052 00b0 93FBF7F7 		sdiv	r7, r3, r7
 1053 00b4 BBB2     		uxth	r3, r7
 1054              	.LVL87:
 1055              		.loc 1 206 0
 1056 00b6 032B     		cmp	r3, #3
 1057 00b8 7ED9     		bls	.L137
 1058              		.loc 1 209 0
 1059 00ba 3F05     		lsls	r7, r7, #20
 1060              	.LVL88:
 1061              		.loc 1 212 0
 1062 00bc 2B22     		movs	r2, #43
 1063              		.loc 1 209 0
 1064 00be 3F0D     		lsrs	r7, r7, #20
 1065              	.LVL89:
 1066              		.loc 1 245 0
 1067 00c0 B3F5805F 		cmp	r3, #4096
 1068              		.loc 1 212 0
 1069 00c4 3284     		strh	r2, [r6, #32]	@ movhi
 1070              		.loc 1 245 0
 1071 00c6 02D3     		bcc	.L100
 1072 00c8 6C48     		ldr	r0, .L142+4
 1073 00ca FFF7FEFF 		bl	chDbgPanic
 1074              	.LVL90:
 1075              	.L100:
ARM GAS  /tmp/ccFfR4Gk.s 			page 20


 1076              	.LBE58:
 1077              	.LBE65:
 1078              	.LBB66:
 1079              	.LBB67:
 1080              		.loc 1 260 0
 1081 00ce 6268     		ldr	r2, [r4, #4]
 1082              		.loc 1 259 0
 1083 00d0 216B     		ldr	r1, [r4, #48]
 1084              		.loc 1 264 0
 1085 00d2 1278     		ldrb	r2, [r2, #0]	@ zero_extendqisi2
 1086              	.LBE67:
 1087              	.LBE66:
 1088              	.LBB70:
 1089              	.LBB59:
 1090              		.loc 1 248 0
 1091 00d4 B783     		strh	r7, [r6, #28]	@ movhi
 1092              	.LVL91:
 1093              	.LBE59:
 1094              	.LBE70:
 1095              	.LBB71:
 1096              	.LBB68:
 1097              		.loc 1 263 0
 1098 00d6 0B88     		ldrh	r3, [r1, #0]
 1099              		.loc 1 264 0
 1100 00d8 022A     		cmp	r2, #2
 1101              		.loc 1 263 0
 1102 00da 9BB2     		uxth	r3, r3
 1103              	.LVL92:
 1104              		.loc 1 264 0
 1105 00dc 66D0     		beq	.L110
 1106 00de 032A     		cmp	r2, #3
 1107              		.loc 1 273 0
 1108 00e0 08BF     		it	eq
 1109 00e2 43F00A03 		orreq	r3, r3, #10
 1110              	.LVL93:
 1111              		.loc 1 264 0
 1112 00e6 05D0     		beq	.L108
 1113 00e8 012A     		cmp	r2, #1
 1114 00ea 03D1     		bne	.L108
 1115              		.loc 1 266 0
 1116 00ec 23F00A03 		bic	r3, r3, #10
 1117 00f0 1B04     		lsls	r3, r3, #16
 1118 00f2 1B0C     		lsrs	r3, r3, #16
 1119              	.LVL94:
 1120              	.L108:
 1121              		.loc 1 276 0
 1122 00f4 0B80     		strh	r3, [r1, #0]	@ movhi
 1123              	.LBE68:
 1124              	.LBE71:
 1125              		.loc 1 682 0
 1126 00f6 2B88     		ldrh	r3, [r5, #0]
 1127              	.LVL95:
 1128 00f8 9BB2     		uxth	r3, r3
 1129 00fa 43F00103 		orr	r3, r3, #1
 1130 00fe 2B80     		strh	r3, [r5, #0]	@ movhi
 1131 0100 BDE8F081 		pop	{r4, r5, r6, r7, r8, pc}
 1132              	.LVL96:
ARM GAS  /tmp/ccFfR4Gk.s 			page 21


 1133              	.L94:
 1134              	.LBB72:
 1135              	.LBB60:
 1136              		.loc 1 183 0
 1137 0104 5E48     		ldr	r0, .L142+8
 1138              	.LVL97:
 1139 0106 FFF7FEFF 		bl	chDbgPanic
 1140              	.LVL98:
 1141 010a A5E7     		b	.L95
 1142              	.LVL99:
 1143              	.L96:
 1144              		.loc 1 214 0
 1145 010c 4FF4D453 		mov	r3, #6784
 1146 0110 C0F20603 		movt	r3, 6
 1147 0114 9F42     		cmp	r7, r3
 1148 0116 0BDC     		bgt	.L114
 1149              		.loc 1 216 0
 1150 0118 A8F10203 		sub	r3, r8, #2
 1151 011c 012B     		cmp	r3, #1
 1152 011e 57D9     		bls	.L103
 1153 0120 5848     		ldr	r0, .L142+12
 1154 0122 FFF7FEFF 		bl	chDbgPanic
 1155              	.LVL100:
 1156 0126 48F6FF77 		movw	r7, #36863
 1157              	.LVL101:
 1158              	.L104:
 1159              		.loc 1 242 0
 1160 012a 0D23     		movs	r3, #13
 1161 012c 3384     		strh	r3, [r6, #32]	@ movhi
 1162 012e CEE7     		b	.L100
 1163              	.LVL102:
 1164              	.L114:
 1165              		.loc 1 191 0
 1166 0130 0027     		movs	r7, #0
 1167              	.LVL103:
 1168 0132 CCE7     		b	.L100
 1169              	.LVL104:
 1170              	.L135:
 1171              	.LBE60:
 1172              	.LBE72:
 1173              		.loc 1 612 0
 1174 0134 544F     		ldr	r7, .L142+16
 1175 0136 B842     		cmp	r0, r7
 1176 0138 7FF46DAF 		bne	.L113
 1177              	.LBB73:
 1178              		.loc 1 615 0
 1179 013c 4FF46053 		mov	r3, #14336
 1180 0140 C4F20203 		movt	r3, 16386
 1181 0144 0026     		movs	r6, #0
 1182 0146 196A     		ldr	r1, [r3, #32]
 1183              		.loc 1 616 0
 1184 0148 806A     		ldr	r0, [r0, #40]
 1185              	.LVL105:
 1186 014a 504A     		ldr	r2, .L142+20
 1187              		.loc 1 615 0
 1188 014c 41F48001 		orr	r1, r1, #4194304
 1189 0150 1962     		str	r1, [r3, #32]
ARM GAS  /tmp/ccFfR4Gk.s 			page 22


 1190 0152 1E62     		str	r6, [r3, #32]
 1191              		.loc 1 616 0
 1192 0154 0521     		movs	r1, #5
 1193 0156 2346     		mov	r3, r4
 1194 0158 FFF7FEFF 		bl	dmaStreamAllocate
 1195              	.LVL106:
 1196              		.loc 1 620 0
 1197 015c 0028     		cmp	r0, #0
 1198 015e 40F08680 		bne	.L138
 1199              	.LVL107:
 1200              	.L92:
 1201              		.loc 1 621 0
 1202 0162 F86A     		ldr	r0, [r7, #44]
 1203 0164 4A4A     		ldr	r2, .L142+24
 1204 0166 484B     		ldr	r3, .L142+16
 1205 0168 0521     		movs	r1, #5
 1206 016a FFF7FEFF 		bl	dmaStreamAllocate
 1207              	.LVL108:
 1208              		.loc 1 625 0
 1209 016e 0028     		cmp	r0, #0
 1210 0170 79D1     		bne	.L139
 1211              	.LVL109:
 1212              	.L93:
 1213              		.loc 1 626 0
 1214 0172 4FF46053 		mov	r3, #14336
 1215 0176 C4F20203 		movt	r3, 16386
 1216              		.loc 1 627 0
 1217 017a 2120     		movs	r0, #33
 1218              		.loc 1 626 0
 1219 017c 1A6C     		ldr	r2, [r3, #64]
 1220 017e 42F48002 		orr	r2, r2, #4194304
 1221 0182 1A64     		str	r2, [r3, #64]
 1222              		.loc 1 627 0
 1223 0184 5021     		movs	r1, #80
 1224 0186 FFF7FEFF 		bl	nvicEnableVector
 1225              	.LVL110:
 1226              		.loc 1 629 0
 1227 018a 5021     		movs	r1, #80
 1228 018c 2220     		movs	r0, #34
 1229 018e FFF7FEFF 		bl	nvicEnableVector
 1230              	.LVL111:
 1231              		.loc 1 632 0
 1232 0192 796A     		ldr	r1, [r7, #36]
 1233 0194 3E6B     		ldr	r6, [r7, #48]
 1234 0196 41F0606C 		orr	ip, r1, #234881024
 1235 019a 4022     		movs	r2, #64
 1236 019c 4CF4403C 		orr	ip, ip, #196608
 1237 01a0 C0F60362 		movt	r2, 3587
 1238 01a4 C7F824C0 		str	ip, [r7, #36]
 1239 01a8 0A43     		orrs	r2, r2, r1
 1240 01aa 38E7     		b	.L91
 1241              	.LVL112:
 1242              	.L110:
 1243              	.LBE73:
 1244              	.LBB74:
 1245              		.loc 1 270 0
 1246 01ac 4FF6F772 		movw	r2, #65527
ARM GAS  /tmp/ccFfR4Gk.s 			page 23


 1247 01b0 1A40     		ands	r2, r2, r3
 1248              	.LBB69:
 1249 01b2 42F00203 		orr	r3, r2, #2
 1250              	.LVL113:
 1251 01b6 9DE7     		b	.L108
 1252              	.LVL114:
 1253              	.L137:
 1254              	.LBE69:
 1255              	.LBE74:
 1256              	.LBB75:
 1257              	.LBB61:
 1258              		.loc 1 206 0
 1259 01b8 3648     		ldr	r0, .L142+28
 1260 01ba FFF7FEFF 		bl	chDbgPanic
 1261              	.LVL115:
 1262              		.loc 1 209 0
 1263 01be 3F05     		lsls	r7, r7, #20
 1264              	.LVL116:
 1265              		.loc 1 212 0
 1266 01c0 2B23     		movs	r3, #43
 1267              		.loc 1 209 0
 1268 01c2 3F0D     		lsrs	r7, r7, #20
 1269              	.LVL117:
 1270              		.loc 1 212 0
 1271 01c4 3384     		strh	r3, [r6, #32]	@ movhi
 1272 01c6 82E7     		b	.L100
 1273              	.LVL118:
 1274              	.L136:
 1275              		.loc 1 201 0
 1276 01c8 3348     		ldr	r0, .L142+32
 1277 01ca FFF7FEFF 		bl	chDbgPanic
 1278              	.LVL119:
 1279 01ce 6BE7     		b	.L98
 1280              	.LVL120:
 1281              	.L103:
 1282              		.loc 1 220 0
 1283 01d0 B8F1020F 		cmp	r8, #2
 1284 01d4 1FD1     		bne	.L105
 1285              		.loc 1 222 0
 1286 01d6 4DF68063 		movw	r3, #56960
 1287 01da 07EB4707 		add	r7, r7, r7, lsl #1
 1288              	.LVL121:
 1289 01de C0F28023 		movt	r3, 640
 1290 01e2 93FBF7F2 		sdiv	r2, r3, r7
 1291 01e6 4DF68063 		movw	r3, #56960
 1292 01ea 07FB02F2 		mul	r2, r7, r2
 1293 01ee C0F28023 		movt	r3, 640
 1294 01f2 9B1A     		subs	r3, r3, r2
 1295 01f4 5BB9     		cbnz	r3, .L140
 1296              	.L106:
 1297              		.loc 1 225 0
 1298 01f6 4DF68063 		movw	r3, #56960
 1299 01fa C0F28023 		movt	r3, 640
 1300 01fe 93FBF7F7 		sdiv	r7, r3, r7
 1301              	.LVL122:
 1302 0202 6FEA4747 		mvn	r7, r7, lsl #17
 1303              	.LVL123:
ARM GAS  /tmp/ccFfR4Gk.s 			page 24


 1304 0206 6FEA5747 		mvn	r7, r7, lsr #17
 1305 020a BFB2     		uxth	r7, r7
 1306 020c 8DE7     		b	.L104
 1307              	.LVL124:
 1308              	.L140:
 1309              		.loc 1 222 0
 1310 020e 2348     		ldr	r0, .L142+36
 1311 0210 FFF7FEFF 		bl	chDbgPanic
 1312              	.LVL125:
 1313 0214 EFE7     		b	.L106
 1314              	.LVL126:
 1315              	.L105:
 1316              		.loc 1 227 0
 1317 0216 B8F1030F 		cmp	r8, #3
 1318 021a 18BF     		it	ne
 1319 021c 48F6FF77 		movwne	r7, #36863
 1320              	.LVL127:
 1321 0220 83D1     		bne	.L104
 1322              		.loc 1 229 0
 1323 0222 07EB8707 		add	r7, r7, r7, lsl #2
 1324 0226 4DF68063 		movw	r3, #56960
 1325 022a 07EB8707 		add	r7, r7, r7, lsl #2
 1326 022e C0F28023 		movt	r3, 640
 1327 0232 93FBF7F2 		sdiv	r2, r3, r7
 1328 0236 4DF68063 		movw	r3, #56960
 1329 023a 07FB02F2 		mul	r2, r7, r2
 1330 023e C0F28023 		movt	r3, 640
 1331 0242 9B1A     		subs	r3, r3, r2
 1332 0244 5BB9     		cbnz	r3, .L141
 1333              	.L107:
 1334              		.loc 1 232 0
 1335 0246 4DF68063 		movw	r3, #56960
 1336 024a C0F28023 		movt	r3, 640
 1337 024e 93FBF7F7 		sdiv	r7, r3, r7
 1338              	.LVL128:
 1339 0252 6FEA8747 		mvn	r7, r7, lsl #18
 1340              	.LVL129:
 1341 0256 6FEA9747 		mvn	r7, r7, lsr #18
 1342 025a BFB2     		uxth	r7, r7
 1343 025c 65E7     		b	.L104
 1344              	.LVL130:
 1345              	.L141:
 1346              		.loc 1 229 0
 1347 025e 1048     		ldr	r0, .L142+40
 1348 0260 FFF7FEFF 		bl	chDbgPanic
 1349              	.LVL131:
 1350 0264 EFE7     		b	.L107
 1351              	.LVL132:
 1352              	.L139:
 1353              	.LBE61:
 1354              	.LBE75:
 1355              	.LBB76:
 1356              		.loc 1 625 0 discriminator 1
 1357 0266 0F48     		ldr	r0, .L142+44
 1358              	.LVL133:
 1359 0268 FFF7FEFF 		bl	chDbgPanic
 1360              	.LVL134:
ARM GAS  /tmp/ccFfR4Gk.s 			page 25


 1361 026c 81E7     		b	.L93
 1362              	.LVL135:
 1363              	.L138:
 1364              		.loc 1 620 0 discriminator 1
 1365 026e 0E48     		ldr	r0, .L142+48
 1366              	.LVL136:
 1367 0270 FFF7FEFF 		bl	chDbgPanic
 1368              	.LVL137:
 1369 0274 75E7     		b	.L92
 1370              	.L143:
 1371 0276 00BF     		.align	2
 1372              	.L142:
 1373 0278 40000000 		.word	.LC3
 1374 027c D0000000 		.word	.LC9
 1375 0280 28000000 		.word	.LC2
 1376 0284 88000000 		.word	.LC6
 1377 0288 00000000 		.word	.LANCHOR0
 1378 028c 00000000 		.word	i2c_lld_serve_rx_end_irq
 1379 0290 00000000 		.word	i2c_lld_serve_tx_end_irq
 1380 0294 70000000 		.word	.LC5
 1381 0298 58000000 		.word	.LC4
 1382 029c A0000000 		.word	.LC7
 1383 02a0 B8000000 		.word	.LC8
 1384 02a4 14000000 		.word	.LC1
 1385 02a8 00000000 		.word	.LC0
 1386              	.LBE76:
 1387              		.cfi_endproc
 1388              	.LFE129:
 1389              		.size	i2c_lld_start, .-i2c_lld_start
 1390 02ac AFF30080 		.section	.text.i2c_lld_stop,"ax",%progbits
 1391              		.align	2
 1392              		.p2align 4,,15
 1393              		.global	i2c_lld_stop
 1394              		.thumb
 1395              		.thumb_func
 1396              		.type	i2c_lld_stop, %function
 1397              	i2c_lld_stop:
 1398              	.LFB130:
 1399              		.loc 1 692 0
 1400              		.cfi_startproc
 1401              		@ args = 0, pretend = 0, frame = 0
 1402              		@ frame_needed = 0, uses_anonymous_args = 0
 1403              	.LVL138:
 1404              		.loc 1 695 0
 1405 0000 0378     		ldrb	r3, [r0, #0]	@ zero_extendqisi2
 1406 0002 012B     		cmp	r3, #1
 1407              		.loc 1 692 0
 1408 0004 10B5     		push	{r4, lr}
 1409              	.LCFI8:
 1410              		.cfi_def_cfa_offset 8
 1411              		.cfi_offset 4, -8
 1412              		.cfi_offset 14, -4
 1413              		.loc 1 692 0
 1414 0006 0446     		mov	r4, r0
 1415              		.loc 1 695 0
 1416 0008 0AD0     		beq	.L144
 1417              		.loc 1 698 0
ARM GAS  /tmp/ccFfR4Gk.s 			page 26


 1418 000a FFF7FEFF 		bl	i2c_lld_abort_operation
 1419              	.LVL139:
 1420              		.loc 1 699 0
 1421 000e E06A     		ldr	r0, [r4, #44]
 1422 0010 FFF7FEFF 		bl	dmaStreamRelease
 1423              	.LVL140:
 1424              		.loc 1 700 0
 1425 0014 A06A     		ldr	r0, [r4, #40]
 1426 0016 FFF7FEFF 		bl	dmaStreamRelease
 1427              	.LVL141:
 1428              		.loc 1 711 0
 1429 001a 094B     		ldr	r3, .L149
 1430 001c 9C42     		cmp	r4, r3
 1431 001e 00D0     		beq	.L148
 1432              	.L144:
 1433 0020 10BD     		pop	{r4, pc}
 1434              	.L148:
 1435              		.loc 1 712 0
 1436 0022 2120     		movs	r0, #33
 1437 0024 FFF7FEFF 		bl	nvicDisableVector
 1438              	.LVL142:
 1439              		.loc 1 713 0
 1440 0028 2220     		movs	r0, #34
 1441 002a FFF7FEFF 		bl	nvicDisableVector
 1442              	.LVL143:
 1443              		.loc 1 714 0
 1444 002e 4FF46053 		mov	r3, #14336
 1445 0032 C4F20203 		movt	r3, 16386
 1446 0036 1A6C     		ldr	r2, [r3, #64]
 1447 0038 22F48002 		bic	r2, r2, #4194304
 1448 003c 1A64     		str	r2, [r3, #64]
 1449 003e EFE7     		b	.L144
 1450              	.L150:
 1451              		.align	2
 1452              	.L149:
 1453 0040 00000000 		.word	.LANCHOR0
 1454              		.cfi_endproc
 1455              	.LFE130:
 1456              		.size	i2c_lld_stop, .-i2c_lld_stop
 1457 0044 AFF30080 		.section	.text.i2c_lld_master_receive_timeout,"ax",%progbits
 1457      AFF30080 
 1457      AFF30080 
 1458              		.align	2
 1459              		.p2align 4,,15
 1460              		.global	i2c_lld_master_receive_timeout
 1461              		.thumb
 1462              		.thumb_func
 1463              		.type	i2c_lld_master_receive_timeout, %function
 1464              	i2c_lld_master_receive_timeout:
 1465              	.LFB131:
 1466              		.loc 1 753 0
 1467              		.cfi_startproc
 1468              		@ args = 4, pretend = 0, frame = 24
 1469              		@ frame_needed = 0, uses_anonymous_args = 0
 1470              	.LVL144:
 1471 0000 2DE9F043 		push	{r4, r5, r6, r7, r8, r9, lr}
 1472              	.LCFI9:
ARM GAS  /tmp/ccFfR4Gk.s 			page 27


 1473              		.cfi_def_cfa_offset 28
 1474              		.cfi_offset 4, -28
 1475              		.cfi_offset 5, -24
 1476              		.cfi_offset 6, -20
 1477              		.cfi_offset 7, -16
 1478              		.cfi_offset 8, -12
 1479              		.cfi_offset 9, -8
 1480              		.cfi_offset 14, -4
 1481 0004 87B0     		sub	sp, sp, #28
 1482              	.LCFI10:
 1483              		.cfi_def_cfa_offset 56
 1484              		.loc 1 753 0
 1485 0006 8946     		mov	r9, r1
 1486 0008 0E9D     		ldr	r5, [sp, #56]
 1487              		.loc 1 754 0
 1488 000a 046B     		ldr	r4, [r0, #48]
 1489              	.LVL145:
 1490              		.loc 1 762 0
 1491 000c 691C     		adds	r1, r5, #1
 1492              	.LVL146:
 1493              		.loc 1 753 0
 1494 000e 0646     		mov	r6, r0
 1495 0010 9046     		mov	r8, r2
 1496 0012 1F46     		mov	r7, r3
 1497              		.loc 1 762 0
 1498 0014 05D0     		beq	.L152
 1499              		.loc 1 763 0
 1500 0016 01A8     		add	r0, sp, #4
 1501              	.LVL147:
 1502 0018 2946     		mov	r1, r5
 1503 001a 334A     		ldr	r2, .L174
 1504              	.LVL148:
 1505 001c 3346     		mov	r3, r6
 1506              	.LVL149:
 1507 001e FFF7FEFF 		bl	chVTSetI
 1508              	.LVL150:
 1509              	.L152:
 1510              		.loc 1 766 0
 1511 0022 FFF7FEFF 		bl	dbg_check_unlock
 1512              	.LVL151:
 1513              	.LBB77:
 1514 0026 0023     		movs	r3, #0
 1515              	.LVL152:
 1516              	@ 766 "../../ChibiOS/os/hal/platforms/STM32/I2Cv1/i2c_lld.c" 1
 1517 0028 83F31188 		msr     BASEPRI, r3
 1518              	@ 0 "" 2
 1519              	.LVL153:
 1520              		.thumb
 1521              	.LBE77:
 1522              		.loc 1 773 0
 1523 002c B06A     		ldr	r0, [r6, #40]
 1524              		.loc 1 769 0
 1525 002e 4FEA4909 		lsl	r9, r9, #1
 1526              		.loc 1 773 0
 1527 0032 0068     		ldr	r0, [r0, #0]
 1528              		.loc 1 770 0
 1529 0034 B360     		str	r3, [r6, #8]
ARM GAS  /tmp/ccFfR4Gk.s 			page 28


 1530              	.LVL154:
 1531              		.loc 1 769 0
 1532 0036 49F00109 		orr	r9, r9, #1
 1533 003a A6F82090 		strh	r9, [r6, #32]	@ movhi
 1534              		.loc 1 773 0
 1535 003e C0F80C80 		str	r8, [r0, #12]
 1536              		.loc 1 774 0
 1537 0042 4760     		str	r7, [r0, #4]
 1538              		.loc 1 778 0
 1539 0044 04E0     		b	.L153
 1540              	.L154:
 1541              		.loc 1 782 0
 1542 0046 FFF7FEFF 		bl	dbg_check_unlock
 1543              	.LVL155:
 1544              	.LBB78:
 1545 004a 0023     		movs	r3, #0
 1546              	.LVL156:
 1547              	@ 782 "../../ChibiOS/os/hal/platforms/STM32/I2Cv1/i2c_lld.c" 1
 1548 004c 83F31188 		msr     BASEPRI, r3
 1549              	@ 0 "" 2
 1550              	.LVL157:
 1551              		.thumb
 1552              	.L153:
 1553              	.LBE78:
 1554              		.loc 1 778 0 discriminator 1
 1555 0050 228B     		ldrh	r2, [r4, #24]
 1556 0052 02F00202 		and	r2, r2, #2
 1557 0056 92B2     		uxth	r2, r2
 1558              	.LBB79:
 1559              		.loc 1 779 0 discriminator 1
 1560 0058 2023     		movs	r3, #32
 1561              	.LVL158:
 1562              	.LBE79:
 1563              		.loc 1 778 0 discriminator 1
 1564 005a 22B9     		cbnz	r2, .L156
 1565              		.loc 1 778 0 is_stmt 0 discriminator 2
 1566 005c 2288     		ldrh	r2, [r4, #0]
 1567 005e 02F40072 		and	r2, r2, #512
 1568 0062 92B2     		uxth	r2, r2
 1569 0064 6AB1     		cbz	r2, .L173
 1570              	.L156:
 1571              	.LBB80:
 1572              		.loc 1 779 0 is_stmt 1
 1573              	@ 779 "../../ChibiOS/os/hal/platforms/STM32/I2Cv1/i2c_lld.c" 1
 1574 0066 83F31188 		msr     BASEPRI, r3
 1575              	@ 0 "" 2
 1576              	.LVL159:
 1577              		.thumb
 1578              	.LBE80:
 1579 006a FFF7FEFF 		bl	dbg_check_lock
 1580              	.LVL160:
 1581              		.loc 1 780 0
 1582 006e 6A1C     		adds	r2, r5, #1
 1583 0070 E9D0     		beq	.L154
 1584              		.loc 1 780 0 is_stmt 0 discriminator 1
 1585 0072 049A     		ldr	r2, [sp, #16]
 1586 0074 002A     		cmp	r2, #0
ARM GAS  /tmp/ccFfR4Gk.s 			page 29


 1587 0076 E6D1     		bne	.L154
 1588              	.L158:
 1589              		.loc 1 781 0 is_stmt 1
 1590 0078 4FF0FF30 		mov	r0, #-1
 1591              	.L171:
 1592              		.loc 1 804 0
 1593 007c 07B0     		add	sp, sp, #28
 1594 007e BDE8F083 		pop	{r4, r5, r6, r7, r8, r9, pc}
 1595              	.L173:
 1596              	.LBB81:
 1597              		.loc 1 786 0
 1598              	@ 786 "../../ChibiOS/os/hal/platforms/STM32/I2Cv1/i2c_lld.c" 1
 1599 0082 83F31188 		msr     BASEPRI, r3
 1600              	@ 0 "" 2
 1601              	.LVL161:
 1602              		.thumb
 1603              	.LBE81:
 1604 0086 FFF7FEFF 		bl	dbg_check_lock
 1605              	.LVL162:
 1606              		.loc 1 790 0
 1607 008a 6B1C     		adds	r3, r5, #1
 1608 008c 1AD0     		beq	.L157
 1609              		.loc 1 790 0 is_stmt 0 discriminator 1
 1610 008e 049B     		ldr	r3, [sp, #16]
 1611 0090 002B     		cmp	r3, #0
 1612 0092 F1D0     		beq	.L158
 1613              		.loc 1 794 0 is_stmt 1
 1614 0094 A388     		ldrh	r3, [r4, #4]
 1615              		.loc 1 798 0
 1616 0096 154D     		ldr	r5, .L174+4
 1617              		.loc 1 794 0
 1618 0098 9BB2     		uxth	r3, r3
 1619 009a 43F40073 		orr	r3, r3, #512
 1620 009e A380     		strh	r3, [r4, #4]	@ movhi
 1621              		.loc 1 795 0
 1622 00a0 2288     		ldrh	r2, [r4, #0]
 1623              		.loc 1 798 0
 1624 00a2 AB69     		ldr	r3, [r5, #24]
 1625              		.loc 1 795 0
 1626 00a4 92B2     		uxth	r2, r2
 1627 00a6 42F4A062 		orr	r2, r2, #1280
 1628 00aa 2280     		strh	r2, [r4, #0]	@ movhi
 1629              		.loc 1 799 0
 1630 00ac 0220     		movs	r0, #2
 1631              		.loc 1 798 0
 1632 00ae F361     		str	r3, [r6, #28]
 1633              		.loc 1 799 0
 1634 00b0 FFF7FEFF 		bl	chSchGoSleepS
 1635              	.LVL163:
 1636              		.loc 1 800 0
 1637 00b4 049B     		ldr	r3, [sp, #16]
 1638 00b6 13B1     		cbz	r3, .L160
 1639              		.loc 1 801 0
 1640 00b8 01A8     		add	r0, sp, #4
 1641 00ba FFF7FEFF 		bl	chVTResetI
 1642              	.LVL164:
 1643              	.L160:
ARM GAS  /tmp/ccFfR4Gk.s 			page 30


 1644              		.loc 1 803 0
 1645 00be AB69     		ldr	r3, [r5, #24]
 1646 00c0 986A     		ldr	r0, [r3, #40]
 1647 00c2 DBE7     		b	.L171
 1648              	.L157:
 1649              		.loc 1 794 0
 1650 00c4 A388     		ldrh	r3, [r4, #4]
 1651              		.loc 1 798 0
 1652 00c6 094D     		ldr	r5, .L174+4
 1653              		.loc 1 794 0
 1654 00c8 9BB2     		uxth	r3, r3
 1655 00ca 43F40073 		orr	r3, r3, #512
 1656 00ce A380     		strh	r3, [r4, #4]	@ movhi
 1657              		.loc 1 795 0
 1658 00d0 2288     		ldrh	r2, [r4, #0]
 1659              		.loc 1 798 0
 1660 00d2 AB69     		ldr	r3, [r5, #24]
 1661              		.loc 1 795 0
 1662 00d4 92B2     		uxth	r2, r2
 1663 00d6 42F4A062 		orr	r2, r2, #1280
 1664 00da 2280     		strh	r2, [r4, #0]	@ movhi
 1665              		.loc 1 799 0
 1666 00dc 0220     		movs	r0, #2
 1667              		.loc 1 798 0
 1668 00de F361     		str	r3, [r6, #28]
 1669              		.loc 1 799 0
 1670 00e0 FFF7FEFF 		bl	chSchGoSleepS
 1671              	.LVL165:
 1672 00e4 EBE7     		b	.L160
 1673              	.L175:
 1674 00e6 00BF     		.align	2
 1675              	.L174:
 1676 00e8 00000000 		.word	i2c_lld_safety_timeout
 1677 00ec 00000000 		.word	rlist
 1678              		.cfi_endproc
 1679              	.LFE131:
 1680              		.size	i2c_lld_master_receive_timeout, .-i2c_lld_master_receive_timeout
 1681              		.section	.text.i2c_lld_master_transmit_timeout,"ax",%progbits
 1682              		.align	2
 1683              		.p2align 4,,15
 1684              		.global	i2c_lld_master_transmit_timeout
 1685              		.thumb
 1686              		.thumb_func
 1687              		.type	i2c_lld_master_transmit_timeout, %function
 1688              	i2c_lld_master_transmit_timeout:
 1689              	.LFB132:
 1690              		.loc 1 834 0
 1691              		.cfi_startproc
 1692              		@ args = 12, pretend = 0, frame = 24
 1693              		@ frame_needed = 0, uses_anonymous_args = 0
 1694              	.LVL166:
 1695 0000 2DE9F047 		push	{r4, r5, r6, r7, r8, r9, sl, lr}
 1696              	.LCFI11:
 1697              		.cfi_def_cfa_offset 32
 1698              		.cfi_offset 4, -32
 1699              		.cfi_offset 5, -28
 1700              		.cfi_offset 6, -24
ARM GAS  /tmp/ccFfR4Gk.s 			page 31


 1701              		.cfi_offset 7, -20
 1702              		.cfi_offset 8, -16
 1703              		.cfi_offset 9, -12
 1704              		.cfi_offset 10, -8
 1705              		.cfi_offset 14, -4
 1706 0004 86B0     		sub	sp, sp, #24
 1707              	.LCFI12:
 1708              		.cfi_def_cfa_offset 56
 1709              		.loc 1 834 0
 1710 0006 9146     		mov	r9, r2
 1711 0008 109D     		ldr	r5, [sp, #64]
 1712              		.loc 1 835 0
 1713 000a 046B     		ldr	r4, [r0, #48]
 1714              	.LVL167:
 1715              		.loc 1 844 0
 1716 000c 6A1C     		adds	r2, r5, #1
 1717              	.LVL168:
 1718              		.loc 1 834 0
 1719 000e 0646     		mov	r6, r0
 1720 0010 8A46     		mov	sl, r1
 1721 0012 9846     		mov	r8, r3
 1722              		.loc 1 844 0
 1723 0014 05D0     		beq	.L177
 1724              		.loc 1 845 0
 1725 0016 01A8     		add	r0, sp, #4
 1726              	.LVL169:
 1727 0018 2946     		mov	r1, r5
 1728              	.LVL170:
 1729 001a 354A     		ldr	r2, .L199
 1730 001c 3346     		mov	r3, r6
 1731              	.LVL171:
 1732 001e FFF7FEFF 		bl	chVTSetI
 1733              	.LVL172:
 1734              	.L177:
 1735              		.loc 1 848 0
 1736 0022 FFF7FEFF 		bl	dbg_check_unlock
 1737              	.LVL173:
 1738              	.LBB82:
 1739 0026 0023     		movs	r3, #0
 1740              	.LVL174:
 1741              	@ 848 "../../ChibiOS/os/hal/platforms/STM32/I2Cv1/i2c_lld.c" 1
 1742 0028 83F31188 		msr     BASEPRI, r3
 1743              	@ 0 "" 2
 1744              	.LVL175:
 1745              		.thumb
 1746              	.LBE82:
 1747              		.loc 1 855 0
 1748 002c F16A     		ldr	r1, [r6, #44]
 1749              		.loc 1 859 0
 1750 002e B26A     		ldr	r2, [r6, #40]
 1751              		.loc 1 855 0
 1752 0030 0F68     		ldr	r7, [r1, #0]
 1753              		.loc 1 859 0
 1754 0032 1068     		ldr	r0, [r2, #0]
 1755              		.loc 1 852 0
 1756 0034 B360     		str	r3, [r6, #8]
 1757              	.LVL176:
ARM GAS  /tmp/ccFfR4Gk.s 			page 32


 1758              		.loc 1 859 0
 1759 0036 0E9B     		ldr	r3, [sp, #56]
 1760              		.loc 1 851 0
 1761 0038 4FEA4A0A 		lsl	sl, sl, #1
 1762 003c A6F820A0 		strh	sl, [r6, #32]	@ movhi
 1763              		.loc 1 855 0
 1764 0040 C7F80C90 		str	r9, [r7, #12]
 1765              		.loc 1 856 0
 1766 0044 C7F80480 		str	r8, [r7, #4]
 1767              		.loc 1 859 0
 1768 0048 C360     		str	r3, [r0, #12]
 1769              		.loc 1 860 0
 1770 004a 0F9B     		ldr	r3, [sp, #60]
 1771 004c 4360     		str	r3, [r0, #4]
 1772              		.loc 1 864 0
 1773 004e 04E0     		b	.L178
 1774              	.L179:
 1775              		.loc 1 868 0
 1776 0050 FFF7FEFF 		bl	dbg_check_unlock
 1777              	.LVL177:
 1778              	.LBB83:
 1779 0054 0023     		movs	r3, #0
 1780              	.LVL178:
 1781              	@ 868 "../../ChibiOS/os/hal/platforms/STM32/I2Cv1/i2c_lld.c" 1
 1782 0056 83F31188 		msr     BASEPRI, r3
 1783              	@ 0 "" 2
 1784              	.LVL179:
 1785              		.thumb
 1786              	.L178:
 1787              	.LBE83:
 1788              		.loc 1 864 0 discriminator 1
 1789 005a 228B     		ldrh	r2, [r4, #24]
 1790 005c 02F00202 		and	r2, r2, #2
 1791 0060 92B2     		uxth	r2, r2
 1792              	.LBB84:
 1793              		.loc 1 865 0 discriminator 1
 1794 0062 2023     		movs	r3, #32
 1795              	.LVL180:
 1796              	.LBE84:
 1797              		.loc 1 864 0 discriminator 1
 1798 0064 22B9     		cbnz	r2, .L181
 1799              		.loc 1 864 0 is_stmt 0 discriminator 2
 1800 0066 2288     		ldrh	r2, [r4, #0]
 1801 0068 02F40072 		and	r2, r2, #512
 1802 006c 92B2     		uxth	r2, r2
 1803 006e 6AB1     		cbz	r2, .L198
 1804              	.L181:
 1805              	.LBB85:
 1806              		.loc 1 865 0 is_stmt 1
 1807              	@ 865 "../../ChibiOS/os/hal/platforms/STM32/I2Cv1/i2c_lld.c" 1
 1808 0070 83F31188 		msr     BASEPRI, r3
 1809              	@ 0 "" 2
 1810              	.LVL181:
 1811              		.thumb
 1812              	.LBE85:
 1813 0074 FFF7FEFF 		bl	dbg_check_lock
 1814              	.LVL182:
ARM GAS  /tmp/ccFfR4Gk.s 			page 33


 1815              		.loc 1 866 0
 1816 0078 6B1C     		adds	r3, r5, #1
 1817 007a E9D0     		beq	.L179
 1818              		.loc 1 866 0 is_stmt 0 discriminator 1
 1819 007c 049A     		ldr	r2, [sp, #16]
 1820 007e 002A     		cmp	r2, #0
 1821 0080 E6D1     		bne	.L179
 1822              	.L183:
 1823              		.loc 1 867 0 is_stmt 1
 1824 0082 4FF0FF30 		mov	r0, #-1
 1825              	.L196:
 1826              		.loc 1 890 0
 1827 0086 06B0     		add	sp, sp, #24
 1828 0088 BDE8F087 		pop	{r4, r5, r6, r7, r8, r9, sl, pc}
 1829              	.L198:
 1830              	.LBB86:
 1831              		.loc 1 872 0
 1832              	@ 872 "../../ChibiOS/os/hal/platforms/STM32/I2Cv1/i2c_lld.c" 1
 1833 008c 83F31188 		msr     BASEPRI, r3
 1834              	@ 0 "" 2
 1835              	.LVL183:
 1836              		.thumb
 1837              	.LBE86:
 1838 0090 FFF7FEFF 		bl	dbg_check_lock
 1839              	.LVL184:
 1840              		.loc 1 876 0
 1841 0094 681C     		adds	r0, r5, #1
 1842 0096 1AD0     		beq	.L182
 1843              		.loc 1 876 0 is_stmt 0 discriminator 1
 1844 0098 049B     		ldr	r3, [sp, #16]
 1845 009a 002B     		cmp	r3, #0
 1846 009c F1D0     		beq	.L183
 1847              		.loc 1 880 0 is_stmt 1
 1848 009e A388     		ldrh	r3, [r4, #4]
 1849              		.loc 1 884 0
 1850 00a0 144D     		ldr	r5, .L199+4
 1851              		.loc 1 880 0
 1852 00a2 9BB2     		uxth	r3, r3
 1853 00a4 43F40073 		orr	r3, r3, #512
 1854 00a8 A380     		strh	r3, [r4, #4]	@ movhi
 1855              		.loc 1 881 0
 1856 00aa 2288     		ldrh	r2, [r4, #0]
 1857              		.loc 1 884 0
 1858 00ac AB69     		ldr	r3, [r5, #24]
 1859              		.loc 1 881 0
 1860 00ae 92B2     		uxth	r2, r2
 1861 00b0 42F48072 		orr	r2, r2, #256
 1862 00b4 2280     		strh	r2, [r4, #0]	@ movhi
 1863              		.loc 1 885 0
 1864 00b6 0220     		movs	r0, #2
 1865              		.loc 1 884 0
 1866 00b8 F361     		str	r3, [r6, #28]
 1867              		.loc 1 885 0
 1868 00ba FFF7FEFF 		bl	chSchGoSleepS
 1869              	.LVL185:
 1870              		.loc 1 886 0
 1871 00be 049B     		ldr	r3, [sp, #16]
ARM GAS  /tmp/ccFfR4Gk.s 			page 34


 1872 00c0 13B1     		cbz	r3, .L185
 1873              		.loc 1 887 0
 1874 00c2 01A8     		add	r0, sp, #4
 1875 00c4 FFF7FEFF 		bl	chVTResetI
 1876              	.LVL186:
 1877              	.L185:
 1878              		.loc 1 889 0
 1879 00c8 AB69     		ldr	r3, [r5, #24]
 1880 00ca 986A     		ldr	r0, [r3, #40]
 1881 00cc DBE7     		b	.L196
 1882              	.L182:
 1883              		.loc 1 880 0
 1884 00ce A388     		ldrh	r3, [r4, #4]
 1885              		.loc 1 884 0
 1886 00d0 084D     		ldr	r5, .L199+4
 1887              		.loc 1 880 0
 1888 00d2 9BB2     		uxth	r3, r3
 1889 00d4 43F40073 		orr	r3, r3, #512
 1890 00d8 A380     		strh	r3, [r4, #4]	@ movhi
 1891              		.loc 1 881 0
 1892 00da 2288     		ldrh	r2, [r4, #0]
 1893              		.loc 1 884 0
 1894 00dc AB69     		ldr	r3, [r5, #24]
 1895              		.loc 1 881 0
 1896 00de 92B2     		uxth	r2, r2
 1897 00e0 42F48072 		orr	r2, r2, #256
 1898 00e4 2280     		strh	r2, [r4, #0]	@ movhi
 1899              		.loc 1 885 0
 1900 00e6 0220     		movs	r0, #2
 1901              		.loc 1 884 0
 1902 00e8 F361     		str	r3, [r6, #28]
 1903              		.loc 1 885 0
 1904 00ea FFF7FEFF 		bl	chSchGoSleepS
 1905              	.LVL187:
 1906 00ee EBE7     		b	.L185
 1907              	.L200:
 1908              		.align	2
 1909              	.L199:
 1910 00f0 00000000 		.word	i2c_lld_safety_timeout
 1911 00f4 00000000 		.word	rlist
 1912              		.cfi_endproc
 1913              	.LFE132:
 1914              		.size	i2c_lld_master_transmit_timeout, .-i2c_lld_master_transmit_timeout
 1915              		.global	I2CD2
 1916 00f8 AFF30080 		.section	.rodata.str1.4,"aMS",%progbits,1
 1916      AFF30080 
 1917              		.align	2
 1918              	.LC0:
 1919 0000 6932635F 		.ascii	"i2c_lld_start(), #3\000"
 1919      6C6C645F 
 1919      73746172 
 1919      7428292C 
 1919      20233300 
 1920              	.LC1:
 1921 0014 6932635F 		.ascii	"i2c_lld_start(), #4\000"
 1921      6C6C645F 
 1921      73746172 
ARM GAS  /tmp/ccFfR4Gk.s 			page 35


 1921      7428292C 
 1921      20233400 
 1922              	.LC2:
 1923 0028 22693263 		.ascii	"\"i2c_lld_set_clock\"()\000"
 1923      5F6C6C64 
 1923      5F736574 
 1923      5F636C6F 
 1923      636B2228 
 1924 003e 0000     		.space	2
 1925              	.LC3:
 1926 0040 6932635F 		.ascii	"i2c_lld_set_clock(), #1\000"
 1926      6C6C645F 
 1926      7365745F 
 1926      636C6F63 
 1926      6B28292C 
 1927              	.LC4:
 1928 0058 6932635F 		.ascii	"i2c_lld_set_clock(), #2\000"
 1928      6C6C645F 
 1928      7365745F 
 1928      636C6F63 
 1928      6B28292C 
 1929              	.LC5:
 1930 0070 6932635F 		.ascii	"i2c_lld_set_clock(), #3\000"
 1930      6C6C645F 
 1930      7365745F 
 1930      636C6F63 
 1930      6B28292C 
 1931              	.LC6:
 1932 0088 6932635F 		.ascii	"i2c_lld_set_clock(), #4\000"
 1932      6C6C645F 
 1932      7365745F 
 1932      636C6F63 
 1932      6B28292C 
 1933              	.LC7:
 1934 00a0 6932635F 		.ascii	"i2c_lld_set_clock(), #5\000"
 1934      6C6C645F 
 1934      7365745F 
 1934      636C6F63 
 1934      6B28292C 
 1935              	.LC8:
 1936 00b8 6932635F 		.ascii	"i2c_lld_set_clock(), #6\000"
 1936      6C6C645F 
 1936      7365745F 
 1936      636C6F63 
 1936      6B28292C 
 1937              	.LC9:
 1938 00d0 6932635F 		.ascii	"i2c_lld_set_clock(), #8\000"
 1938      6C6C645F 
 1938      7365745F 
 1938      636C6F63 
 1938      6B28292C 
 1939              		.section	.bss.I2CD2,"aw",%nobits
 1940              		.align	2
 1941              		.set	.LANCHOR0,. + 0
 1942              		.type	I2CD2, %object
 1943              		.size	I2CD2, 52
 1944              	I2CD2:
ARM GAS  /tmp/ccFfR4Gk.s 			page 36


 1945 0000 00000000 		.space	52
 1945      00000000 
 1945      00000000 
 1945      00000000 
 1945      00000000 
 1946              		.text
 1947              	.Letext0:
 1948              		.file 2 "/home/david/toolchains/psas/x-tools/stm32f407/arm-psas-eabi/bin/../lib/gcc/arm-psas-eabi/
 1949              		.file 3 "/home/david/toolchains/psas/x-tools/stm32f407/arm-psas-eabi/bin/../lib/gcc/arm-psas-eabi/
 1950              		.file 4 "../../ChibiOS/os/ports/GCC/ARMCMx/chtypes.h"
 1951              		.file 5 "../../ChibiOS/os/kernel/include/chlists.h"
 1952              		.file 6 "../../ChibiOS/os/kernel/include/chthreads.h"
 1953              		.file 7 "../../ChibiOS/os/ports/GCC/ARMCMx/chcore_v7m.h"
 1954              		.file 8 "../../ChibiOS/os/kernel/include/chvt.h"
 1955              		.file 9 "../../ChibiOS/os/kernel/include/chschd.h"
 1956              		.file 10 "../../ChibiOS/os/kernel/include/chmtx.h"
 1957              		.file 11 "../../ChibiOS/os/hal/platforms/STM32F4xx/stm32f4xx.h"
 1958              		.file 12 "../../ChibiOS/os/hal/platforms/STM32F4xx/stm32_dma.h"
 1959              		.file 13 "../../ChibiOS/os/hal/include/i2c.h"
 1960              		.file 14 "../../ChibiOS/os/hal/platforms/STM32/I2Cv1/i2c_lld.h"
 1961              		.file 15 "../../ChibiOS/os/ports/common/ARMCMx/CMSIS/include/core_cm4.h"
 1962              		.file 16 "../../ChibiOS/os/kernel/include/chdebug.h"
 1963              		.file 17 "../../ChibiOS/os/ports/common/ARMCMx/nvic.h"