ARM GAS  /tmp/cckvhpyF.s 			page 1


   1              		.syntax unified
   2              		.cpu cortex-m4
   3              		.eabi_attribute 27, 3
   4              		.eabi_attribute 28, 1
   5              		.fpu fpv4-sp-d16
   6              		.eabi_attribute 20, 1
   7              		.eabi_attribute 21, 1
   8              		.eabi_attribute 23, 3
   9              		.eabi_attribute 24, 1
  10              		.eabi_attribute 25, 1
  11              		.eabi_attribute 26, 1
  12              		.eabi_attribute 30, 2
  13              		.eabi_attribute 34, 1
  14              		.eabi_attribute 18, 4
  15              		.thumb
  16              		.file	"iwdg_lld.c"
  17              		.text
  18              	.Ltext0:
  19              		.cfi_sections	.debug_frame
  20              		.section	.text.iwdg_lld_init,"ax",%progbits
  21              		.align	2
  22              		.p2align 4,,15
  23              		.global	iwdg_lld_init
  24              		.thumb
  25              		.thumb_func
  26              		.type	iwdg_lld_init, %function
  27              	iwdg_lld_init:
  28              	.LFB118:
  29              		.file 1 "../common/iwdg_lld.c"
  30              		.loc 1 20 0
  31              		.cfi_startproc
  32              		@ args = 0, pretend = 0, frame = 0
  33              		@ frame_needed = 0, uses_anonymous_args = 0
  34 0000 08B5     		push	{r3, lr}
  35              	.LCFI0:
  36              		.cfi_def_cfa_offset 8
  37              		.cfi_offset 3, -8
  38              		.cfi_offset 14, -4
  39              	.LBB2:
  40              		.loc 1 21 0
  41 0002 2023     		movs	r3, #32
  42              	.LVL0:
  43              	@ 21 "../common/iwdg_lld.c" 1
  44 0004 83F31188 		msr     BASEPRI, r3
  45              	@ 0 "" 2
  46              	.LVL1:
  47              		.thumb
  48              	.LBE2:
  49 0008 FFF7FEFF 		bl	dbg_check_lock
  50              	.LVL2:
  51              		.loc 1 22 0
  52 000c 4FF44053 		mov	r3, #12288
  53 0010 C4F20003 		movt	r3, 16384
  54 0014 4CF6CC42 		movw	r2, #52428
  55 0018 1A60     		str	r2, [r3, #0]
  56              		.loc 1 23 0
  57 001a FFF7FEFF 		bl	dbg_check_unlock
ARM GAS  /tmp/cckvhpyF.s 			page 2


  58              	.LVL3:
  59              	.LBB3:
  60 001e 0023     		movs	r3, #0
  61              	.LVL4:
  62              	@ 23 "../common/iwdg_lld.c" 1
  63 0020 83F31188 		msr     BASEPRI, r3
  64              	@ 0 "" 2
  65              	.LVL5:
  66              		.thumb
  67 0024 08BD     		pop	{r3, pc}
  68              	.LBE3:
  69              		.cfi_endproc
  70              	.LFE118:
  71              		.size	iwdg_lld_init, .-iwdg_lld_init
  72 0026 00BFAFF3 		.section	.text.iwdg_lld_reload,"ax",%progbits
  72      0080AFF3 
  72      0080
  73              		.align	2
  74              		.p2align 4,,15
  75              		.global	iwdg_lld_reload
  76              		.thumb
  77              		.thumb_func
  78              		.type	iwdg_lld_reload, %function
  79              	iwdg_lld_reload:
  80              	.LFB119:
  81              		.loc 1 30 0
  82              		.cfi_startproc
  83              		@ args = 0, pretend = 0, frame = 0
  84              		@ frame_needed = 0, uses_anonymous_args = 0
  85 0000 08B5     		push	{r3, lr}
  86              	.LCFI1:
  87              		.cfi_def_cfa_offset 8
  88              		.cfi_offset 3, -8
  89              		.cfi_offset 14, -4
  90              	.LBB4:
  91              		.loc 1 31 0
  92 0002 2023     		movs	r3, #32
  93              	.LVL6:
  94              	@ 31 "../common/iwdg_lld.c" 1
  95 0004 83F31188 		msr     BASEPRI, r3
  96              	@ 0 "" 2
  97              	.LVL7:
  98              		.thumb
  99              	.LBE4:
 100 0008 FFF7FEFF 		bl	dbg_check_lock
 101              	.LVL8:
 102              		.loc 1 32 0
 103 000c 4FF44053 		mov	r3, #12288
 104 0010 C4F20003 		movt	r3, 16384
 105 0014 4AF6AA22 		movw	r2, #43690
 106 0018 1A60     		str	r2, [r3, #0]
 107              		.loc 1 33 0
 108 001a FFF7FEFF 		bl	dbg_check_unlock
 109              	.LVL9:
 110              	.LBB5:
 111 001e 0023     		movs	r3, #0
 112              	.LVL10:
ARM GAS  /tmp/cckvhpyF.s 			page 3


 113              	@ 33 "../common/iwdg_lld.c" 1
 114 0020 83F31188 		msr     BASEPRI, r3
 115              	@ 0 "" 2
 116              	.LVL11:
 117              		.thumb
 118 0024 08BD     		pop	{r3, pc}
 119              	.LBE5:
 120              		.cfi_endproc
 121              	.LFE119:
 122              		.size	iwdg_lld_reload, .-iwdg_lld_reload
 123 0026 00BFAFF3 		.section	.text.iwdg_lld_set_prescale,"ax",%progbits
 123      0080AFF3 
 123      0080
 124              		.align	2
 125              		.p2align 4,,15
 126              		.global	iwdg_lld_set_prescale
 127              		.thumb
 128              		.thumb_func
 129              		.type	iwdg_lld_set_prescale, %function
 130              	iwdg_lld_set_prescale:
 131              	.LFB120:
 132              		.loc 1 38 0
 133              		.cfi_startproc
 134              		@ args = 0, pretend = 0, frame = 0
 135              		@ frame_needed = 0, uses_anonymous_args = 0
 136              	.LVL12:
 137 0000 10B5     		push	{r4, lr}
 138              	.LCFI2:
 139              		.cfi_def_cfa_offset 8
 140              		.cfi_offset 4, -8
 141              		.cfi_offset 14, -4
 142              	.LBB6:
 143              		.loc 1 40 0
 144 0002 2023     		movs	r3, #32
 145              	.LVL13:
 146              	.LBE6:
 147              		.loc 1 38 0
 148 0004 0446     		mov	r4, r0
 149              	.LBB7:
 150              		.loc 1 40 0
 151              	@ 40 "../common/iwdg_lld.c" 1
 152 0006 83F31188 		msr     BASEPRI, r3
 153              	@ 0 "" 2
 154              	.LVL14:
 155              		.thumb
 156              	.LBE7:
 157 000a FFF7FEFF 		bl	dbg_check_lock
 158              	.LVL15:
 159              		.loc 1 41 0
 160 000e 4FF44053 		mov	r3, #12288
 161 0012 C4F20003 		movt	r3, 16384
 162 0016 45F25552 		movw	r2, #21845
 163 001a 1A60     		str	r2, [r3, #0]
 164              		.loc 1 43 0
 165 001c 4AF6AA22 		movw	r2, #43690
 166              		.loc 1 42 0
 167 0020 5C60     		str	r4, [r3, #4]
ARM GAS  /tmp/cckvhpyF.s 			page 4


 168              		.loc 1 43 0
 169 0022 1A60     		str	r2, [r3, #0]
 170              		.loc 1 44 0
 171 0024 FFF7FEFF 		bl	dbg_check_unlock
 172              	.LVL16:
 173              	.LBB8:
 174 0028 0023     		movs	r3, #0
 175              	.LVL17:
 176              	@ 44 "../common/iwdg_lld.c" 1
 177 002a 83F31188 		msr     BASEPRI, r3
 178              	@ 0 "" 2
 179              	.LVL18:
 180              		.thumb
 181 002e 10BD     		pop	{r4, pc}
 182              	.LBE8:
 183              		.cfi_endproc
 184              	.LFE120:
 185              		.size	iwdg_lld_set_prescale, .-iwdg_lld_set_prescale
 186              		.section	.text.iwdg_lld_set_reloadval,"ax",%progbits
 187              		.align	2
 188              		.p2align 4,,15
 189              		.global	iwdg_lld_set_reloadval
 190              		.thumb
 191              		.thumb_func
 192              		.type	iwdg_lld_set_reloadval, %function
 193              	iwdg_lld_set_reloadval:
 194              	.LFB121:
 195              		.loc 1 49 0
 196              		.cfi_startproc
 197              		@ args = 0, pretend = 0, frame = 0
 198              		@ frame_needed = 0, uses_anonymous_args = 0
 199              	.LVL19:
 200 0000 10B5     		push	{r4, lr}
 201              	.LCFI3:
 202              		.cfi_def_cfa_offset 8
 203              		.cfi_offset 4, -8
 204              		.cfi_offset 14, -4
 205              	.LBB9:
 206              		.loc 1 50 0
 207 0002 2023     		movs	r3, #32
 208              	.LVL20:
 209              	.LBE9:
 210              		.loc 1 49 0
 211 0004 0446     		mov	r4, r0
 212              	.LBB10:
 213              		.loc 1 50 0
 214              	@ 50 "../common/iwdg_lld.c" 1
 215 0006 83F31188 		msr     BASEPRI, r3
 216              	@ 0 "" 2
 217              	.LVL21:
 218              		.thumb
 219              	.LBE10:
 220 000a FFF7FEFF 		bl	dbg_check_lock
 221              	.LVL22:
 222              		.loc 1 52 0
 223 000e 4FF44053 		mov	r3, #12288
 224 0012 C4F20003 		movt	r3, 16384
ARM GAS  /tmp/cckvhpyF.s 			page 5


 225              		.loc 1 53 0
 226 0016 2005     		lsls	r0, r4, #20
 227              		.loc 1 52 0
 228 0018 45F25552 		movw	r2, #21845
 229 001c 1A60     		str	r2, [r3, #0]
 230              		.loc 1 53 0
 231 001e 000D     		lsrs	r0, r0, #20
 232              		.loc 1 54 0
 233 0020 4AF6AA22 		movw	r2, #43690
 234              		.loc 1 53 0
 235 0024 5860     		str	r0, [r3, #4]
 236              		.loc 1 54 0
 237 0026 1A60     		str	r2, [r3, #0]
 238              		.loc 1 55 0
 239 0028 FFF7FEFF 		bl	dbg_check_unlock
 240              	.LVL23:
 241              	.LBB11:
 242 002c 0023     		movs	r3, #0
 243              	.LVL24:
 244              	@ 55 "../common/iwdg_lld.c" 1
 245 002e 83F31188 		msr     BASEPRI, r3
 246              	@ 0 "" 2
 247              	.LVL25:
 248              		.thumb
 249 0032 10BD     		pop	{r4, pc}
 250              	.LBE11:
 251              		.cfi_endproc
 252              	.LFE121:
 253              		.size	iwdg_lld_set_reloadval, .-iwdg_lld_set_reloadval
 254 0034 AFF30080 		.section	.text.iwdg_begin,"ax",%progbits
 254      AFF30080 
 254      AFF30080 
 255              		.align	2
 256              		.p2align 4,,15
 257              		.global	iwdg_begin
 258              		.thumb
 259              		.thumb_func
 260              		.type	iwdg_begin, %function
 261              	iwdg_begin:
 262              	.LFB122:
 263              		.loc 1 64 0
 264              		.cfi_startproc
 265              		@ args = 0, pretend = 0, frame = 0
 266              		@ frame_needed = 0, uses_anonymous_args = 0
 267 0000 08B5     		push	{r3, lr}
 268              	.LCFI4:
 269              		.cfi_def_cfa_offset 8
 270              		.cfi_offset 3, -8
 271              		.cfi_offset 14, -4
 272              		.loc 1 66 0
 273 0002 4FF46053 		mov	r3, #14336
 274 0006 C4F20203 		movt	r3, 16386
 275 000a 5A6F     		ldr	r2, [r3, #116]
 276 000c 9200     		lsls	r2, r2, #2
 277              		.loc 1 68 0
 278 000e 42BF     		ittt	mi
 279 0010 5A6F     		ldrmi	r2, [r3, #116]
ARM GAS  /tmp/cckvhpyF.s 			page 6


 280 0012 42F08072 		orrmi	r2, r2, #16777216
 281 0016 5A67     		strmi	r2, [r3, #116]
 282              		.loc 1 70 0
 283 0018 0320     		movs	r0, #3
 284 001a FFF7FEFF 		bl	iwdg_lld_set_prescale
 285              	.LVL26:
 286              		.loc 1 71 0
 287 001e FFF7FEFF 		bl	iwdg_lld_reload
 288              	.LVL27:
 289              		.loc 1 73 0
 290 0022 BDE80840 		pop	{r3, lr}
 291              		.loc 1 72 0
 292 0026 FFF7FEBF 		b	iwdg_lld_init
 293              	.LVL28:
 294              		.cfi_endproc
 295              	.LFE122:
 296              		.size	iwdg_begin, .-iwdg_begin
 297 002a 00BFAFF3 		.text
 297      0080
 298              	.Letext0:
 299              		.file 2 "/home/david/toolchains/psas/x-tools/stm32f407/arm-psas-eabi/bin/../lib/gcc/arm-psas-eabi/
 300              		.file 3 "../../ChibiOS/os/hal/platforms/STM32F4xx/stm32f4xx.h"
 301              		.file 4 "../common/iwdg_lld.h"
 302              		.file 5 "../../ChibiOS/os/kernel/include/chdebug.h"
 303              		.file 6 "../../ChibiOS/os/ports/common/ARMCMx/CMSIS/include/core_cm4.h"