ARM GAS  /tmp/cckvhpyF.s 			page 1


   1              		.syntax unified
   2              		.cpu cortex-m4
   3              		.eabi_attribute 27, 3
   4              		.eabi_attribute 28, 1
   5              		.fpu fpv4-sp-d16
   6              		.eabi_attribute 20, 1
   7              		.eabi_attribute 21, 1
   8              		.eabi_attribute 23, 3
   9              		.eabi_attribute 24, 1
  10              		.eabi_attribute 25, 1
  11              		.eabi_attribute 26, 1
  12              		.eabi_attribute 30, 2
  13              		.eabi_attribute 34, 1
  14              		.eabi_attribute 18, 4
  15              		.thumb
  16              		.file	"iwdg_lld.c"
  17              		.text
  18              	.Ltext0:
  19              		.cfi_sections	.debug_frame
  20              		.section	.text.iwdg_lld_init,"ax",%progbits
  21              		.align	2
  22              		.p2align 4,,15
  23              		.global	iwdg_lld_init
  24              		.thumb
  25              		.thumb_func
  26              		.type	iwdg_lld_init, %function
  27              	iwdg_lld_init:
  28              	.LFB118:
  29              		.file 1 "../common/iwdg_lld.c"
  30              		.loc 1 20 0
  31              		.cfi_startproc
  32              		@ args = 0, pretend = 0, frame = 0
  33              		@ frame_needed = 0, uses_anonymous_args = 0
  34 0000 08B5     		push	{r3, lr}
  35              	.LCFI0:
  36              		.cfi_def_cfa_offset 8
  37              		.cfi_offset 3, -8
  38              		.cfi_offset 14, -4
  39              	.LBB2:
  40              		.loc 1 21 0
  41 0002 2023     		movs	r3, #32
  42              	.LVL0:
  43              	@ 21 "../common/iwdg_lld.c" 1
  44 0004 83F31188 		msr     BASEPRI, r3
  45              	@ 0 "" 2
  46              	.LVL1:
  47              		.thumb
  48              	.LBE2:
  49 0008 FFF7FEFF 		bl	dbg_check_lock
  50              	.LVL2:
  51              		.loc 1 22 0
  52 000c 4FF44053 		mov	r3, #12288
  53 0010 C4F20003 		movt	r3, 16384
  54 0014 4CF6CC42 		movw	r2, #52428
  55 0018 1A60     		str	r2, [r3, #0]
  56              		.loc 1 23 0
  57 001a FFF7FEFF 		bl	dbg_check_unlock
ARM GAS  /tmp/cckvhpyF.s 			page 2


  58              	.LVL3:
  59              	.LBB3:
  60 001e 0023     		movs	r3, #0
  61              	.LVL4:
  62              	@ 23 "../common/iwdg_lld.c" 1
  63 0020 83F31188 		msr     BASEPRI, r3
  64              	@ 0 "" 2
  65              	.LVL5:
  66              		.thumb
  67 0024 08BD     		pop	{r3, pc}
  68              	.LBE3:
  69              		.cfi_endproc
  70              	.LFE118:
  71              		.size	iwdg_lld_init, .-iwdg_lld_init
  72 0026 00BFAFF3 		.section	.text.iwdg_lld_reload,"ax",%progbits
  72      0080AFF3 
  72      0080
  73              		.align	2
  74              		.p2align 4,,15
  75              		.global	iwdg_lld_reload
  76              		.thumb
  77              		.thumb_func
  78              		.type	iwdg_lld_reload, %function
  79              	iwdg_lld_reload:
  80              	.LFB119:
  81              		.loc 1 30 0
  82              		.cfi_startproc
  83              		@ args = 0, pretend = 0, frame = 0
  84              		@ frame_needed = 0, uses_anonymous_args = 0
  85 0000 08B5     		push	{r3, lr}
  86              	.LCFI1:
  87              		.cfi_def_cfa_offset 8
  88              		.cfi_offset 3, -8
  89              		.cfi_offset 14, -4
  90              	.LBB4:
  91              		.loc 1 31 0
  92 0002 2023     		movs	r3, #32
  93              	.LVL6:
  94              	@ 31 "../common/iwdg_lld.c" 1
  95 0004 83F31188 		msr     BASEPRI, r3
  96              	@ 0 "" 2
  97              	.LVL7:
  98              		.thumb
  99              	.LBE4:
 100 0008 FFF7FEFF 		bl	dbg_check_lock
 101              	.LVL8:
 102              		.loc 1 32 0
 103 000c 4FF44053 		mov	r3, #12288
 104 0010 C4F20003 		movt	r3, 16384
 105 0014 4AF6AA22 		movw	r2, #43690
 106 0018 1A60     		str	r2, [r3, #0]
 107              		.loc 1 33 0
 108 001a FFF7FEFF 		bl	dbg_check_unlock
 109              	.LVL9:
 110              	.LBB5:
 111 001e 0023     		movs	r3, #0
 112              	.LVL10:
ARM GAS  /tmp/cckvhpyF.s 			page 3


 113              	@ 33 "../common/iwdg_lld.c" 1
 114 0020 83F31188 		msr     BASEPRI, r3
 115              	@ 0 "" 2
 116              	.LVL11:
 117              		.thumb
 118 0024 08BD     		pop	{r3, pc}
 119              	.LBE5:
 120              		.cfi_endproc
 121              	.LFE119:
 122              		.size	iwdg_lld_reload, .-iwdg_lld_reload
 123 0026 00BFAFF3 		.section	.text.iwdg_lld_set_prescale,"ax",%progbits
 123      0080AFF3 
 123      0080
 124              		.align	2
 125              		.p2align 4,,15
 126              		.global	iwdg_lld_set_prescale
 127              		.thumb
 128              		.thumb_func
 129              		.type	iwdg_lld_set_prescale, %function
 130              	iwdg_lld_set_prescale:
 131              	.LFB120:
 132              		.loc 1 38 0
 133              		.cfi_startproc
 134              		@ args = 0, pretend = 0, frame = 0
 135              		@ frame_needed = 0, uses_anonymous_args = 0
 136              	.LVL12:
 137 0000 10B5     		push	{r4, lr}
 138              	.LCFI2:
 139              		.cfi_def_cfa_offset 8
 140              		.cfi_offset 4, -8
 141              		.cfi_offset 14, -4
 142              	.LBB6:
 143              		.loc 1 40 0
 144 0002 2023     		movs	r3, #32
 145              	.LVL13:
 146              	.LBE6:
 147              		.loc 1 38 0
 148 0004 0446     		mov	r4, r0
 149              	.LBB7:
 150              		.loc 1 40 0
 151              	@ 40 "../common/iwdg_lld.c" 1
 152 0006 83F31188 		msr     BASEPRI, r3
 153              	@ 0 "" 2
 154              	.LVL14:
 155              		.thumb
 156              	.LBE7:
 157 000a FFF7FEFF 		bl	dbg_check_lock
 158              	.LVL15:
 159              		.loc 1 41 0
 160 000e 4FF44053 		mov	r3, #12288
 161 0012 C4F20003 		movt	r3, 16384
 162 0016 45F25552 		movw	r2, #21845
 163 001a 1A60     		str	r2, [r3, #0]
 164              		.loc 1 43 0
 165 001c 4AF6AA22 		movw	r2, #43690
 166              		.loc 1 42 0
 167 0020 5C60     		str	r4, [r3, #4]
ARM GAS  /tmp/cckvhpyF.s 			page 4


 168              		.loc 1 43 0
 169 0022 1A60     		str	r2, [r3, #0]
 170              		.loc 1 44 0
 171 0024 FFF7FEFF 		bl	dbg_check_unlock
 172              	.LVL16:
 173              	.LBB8:
 174 0028 0023     		movs	r3, #0
 175              	.LVL17:
 176              	@ 44 "../common/iwdg_lld.c" 1
 177 002a 83F31188 		msr     BASEPRI, r3
 178              	@ 0 "" 2
 179              	.LVL18:
 180              		.thumb
 181 002e 10BD     		pop	{r4, pc}
 182              	.LBE8:
 183              		.cfi_endproc
 184              	.LFE120:
 185              		.size	iwdg_lld_set_prescale, .-iwdg_lld_set_prescale
 186              		.section	.text.iwdg_lld_set_reloadval,"ax",%progbits
 187              		.align	2
 188              		.p2align 4,,15
 189              		.global	iwdg_lld_set_reloadval
 190              		.thumb
 191              		.thumb_func
 192              		.type	iwdg_lld_set_reloadval, %function
 193              	iwdg_lld_set_reloadval:
 194              	.LFB121:
 195              		.loc 1 49 0
 196              		.cfi_startproc
 197              		@ args = 0, pretend = 0, frame = 0
 198              		@ frame_needed = 0, uses_anonymous_args = 0
 199              	.LVL19:
 200 0000 10B5     		push	{r4, lr}
 201              	.LCFI3:
 202              		.cfi_def_cfa_offset 8
 203              		.cfi_offset 4, -8
 204              		.cfi_offset 14, -4
 205              	.LBB9:
 206              		.loc 1 50 0
 207 0002 2023     		movs	r3, #32
 208              	.LVL20:
 209              	.LBE9:
 210              		.loc 1 49 0
 211 0004 0446     		mov	r4, r0
 212              	.LBB10:
 213              		.loc 1 50 0
 214              	@ 50 "../common/iwdg_lld.c" 1
 215 0006 83F31188 		msr     BASEPRI, r3
 216              	@ 0 "" 2
 217              	.LVL21:
 218              		.thumb
 219              	.LBE10:
 220 000a FFF7FEFF 		bl	dbg_check_lock
 221              	.LVL22:
 222              		.loc 1 52 0
 223 000e 4FF44053 		mov	r3, #12288
 224 0012 C4F20003 		movt	r3, 16384
ARM GAS  /tmp/cckvhpyF.s 			page 5


 225              		.loc 1 53 0
 226 0016 2005     		lsls	r0, r4, #20
 227              		.loc 1 52 0
 228 0018 45F25552 		movw	r2, #21845
 229 001c 1A60     		str	r2, [r3, #0]
 230              		.loc 1 53 0
 231 001e 000D     		lsrs	r0, r0, #20
 232              		.loc 1 54 0
 233 0020 4AF6AA22 		movw	r2, #43690
 234              		.loc 1 53 0
 235 0024 5860     		str	r0, [r3, #4]
 236              		.loc 1 54 0
 237 0026 1A60     		str	r2, [r3, #0]
 238              		.loc 1 55 0
 239 0028 FFF7FEFF 		bl	dbg_check_unlock
 240              	.LVL23:
 241              	.LBB11:
 242 002c 0023     		movs	r3, #0
 243              	.LVL24:
 244              	@ 55 "../common/iwdg_lld.c" 1
 245 002e 83F31188 		msr     BASEPRI, r3
 246              	@ 0 "" 2
 247              	.LVL25:
 248              		.thumb
 249 0032 10BD     		pop	{r4, pc}
 250              	.LBE11:
 251              		.cfi_endproc
 252              	.LFE121:
 253              		.size	iwdg_lld_set_reloadval, .-iwdg_lld_set_reloadval
 254 0034 AFF30080 		.section	.text.iwdg_begin,"ax",%progbits
 254      AFF30080 
 254      AFF30080 
 255              		.align	2
 256              		.p2align 4,,15
 257              		.global	iwdg_begin
 258              		.thumb
 259              		.thumb_func
 260              		.type	iwdg_begin, %function
 261              	iwdg_begin:
 262              	.LFB122:
 263              		.loc 1 64 0
 264              		.cfi_startproc
 265              		@ args = 0, pretend = 0, frame = 0
 266              		@ frame_needed = 0, uses_anonymous_args = 0
 267 0000 08B5     		push	{r3, lr}
 268              	.LCFI4:
 269              		.cfi_def_cfa_offset 8
 270              		.cfi_offset 3, -8
 271              		.cfi_offset 14, -4
 272              		.loc 1 66 0
 273 0002 4FF46053 		mov	r3, #14336
 274 0006 C4F20203 		movt	r3, 16386
 275 000a 5A6F     		ldr	r2, [r3, #116]
 276 000c 9200     		lsls	r2, r2, #2
 277              		.loc 1 68 0
 278 000e 42BF     		ittt	mi
 279 0010 5A6F     		ldrmi	r2, [r3, #116]
ARM GAS  /tmp/cckvhpyF.s 			page 6


 280 0012 42F08072 		orrmi	r2, r2, #16777216
 281 0016 5A67     		strmi	r2, [r3, #116]
 282              		.loc 1 70 0
 283 0018 0320     		movs	r0, #3
 284 001a FFF7FEFF 		bl	iwdg_lld_set_prescale
 285              	.LVL26:
 286              		.loc 1 71 0
 287 001e FFF7FEFF 		bl	iwdg_lld_reload
 288              	.LVL27:
 289              		.loc 1 73 0
 290 0022 BDE80840 		pop	{r3, lr}
 291              		.loc 1 72 0
 292 0026 FFF7FEBF 		b	iwdg_lld_init
 293              	.LVL28:
 294              		.cfi_endproc
 295              	.LFE122:
 296              		.size	iwdg_begin, .-iwdg_begin
 297 002a 00BFAFF3 		.text
 297      0080
 298              	.Letext0:
 299              		.file 2 "/home/david/toolchains/psas/x-tools/stm32f407/arm-psas-eabi/bin/../lib/gcc/arm-psas-eabi/
 300              		.file 3 "../../ChibiOS/os/hal/platforms/STM32F4xx/stm32f4xx.h"
 301              		.file 4 "../common/iwdg_lld.h"
 302              		.file 5 "../../ChibiOS/os/kernel/include/chdebug.h"
 303              		.file 6 "../../ChibiOS/os/ports/common/ARMCMx/CMSIS/include/core_cm4.h"
 304              		.section	.debug_info,"",%progbits
 305              	.Ldebug_info0:
 306 0000 2C050000 		.4byte	0x52c
 307 0004 0200     		.2byte	0x2
 308 0006 00000000 		.4byte	.Ldebug_abbrev0
 309 000a 04       		.byte	0x4
 310 000b 01       		.uleb128 0x1
 311 000c 7E020000 		.4byte	.LASF58
 312 0010 01       		.byte	0x1
 313 0011 FA010000 		.4byte	.LASF59
 314 0015 6B000000 		.4byte	.LASF60
 315 0019 30000000 		.4byte	.Ldebug_ranges0+0x30
 316 001d 00000000 		.4byte	0
 317 0021 00000000 		.4byte	0
 318 0025 00000000 		.4byte	.Ldebug_line0
 319 0029 02       		.uleb128 0x2
 320 002a 04       		.byte	0x4
 321 002b 05       		.byte	0x5
 322 002c 696E7400 		.ascii	"int\000"
 323 0030 03       		.uleb128 0x3
 324 0031 04       		.byte	0x4
 325 0032 07       		.byte	0x7
 326 0033 88010000 		.4byte	.LASF0
 327 0037 03       		.uleb128 0x3
 328 0038 01       		.byte	0x1
 329 0039 06       		.byte	0x6
 330 003a 40010000 		.4byte	.LASF1
 331 003e 03       		.uleb128 0x3
 332 003f 01       		.byte	0x1
 333 0040 08       		.byte	0x8
 334 0041 19010000 		.4byte	.LASF2
 335 0045 03       		.uleb128 0x3
ARM GAS  /tmp/cckvhpyF.s 			page 7


 336 0046 02       		.byte	0x2
 337 0047 05       		.byte	0x5
 338 0048 61000000 		.4byte	.LASF3
 339 004c 04       		.uleb128 0x4
 340 004d E9010000 		.4byte	.LASF5
 341 0051 02       		.byte	0x2
 342 0052 36       		.byte	0x36
 343 0053 57000000 		.4byte	0x57
 344 0057 03       		.uleb128 0x3
 345 0058 02       		.byte	0x2
 346 0059 07       		.byte	0x7
 347 005a C7010000 		.4byte	.LASF4
 348 005e 04       		.uleb128 0x4
 349 005f F2010000 		.4byte	.LASF6
 350 0063 02       		.byte	0x2
 351 0064 4F       		.byte	0x4f
 352 0065 69000000 		.4byte	0x69
 353 0069 03       		.uleb128 0x3
 354 006a 04       		.byte	0x4
 355 006b 05       		.byte	0x5
 356 006c ED000000 		.4byte	.LASF7
 357 0070 04       		.uleb128 0x4
 358 0071 C0000000 		.4byte	.LASF8
 359 0075 02       		.byte	0x2
 360 0076 50       		.byte	0x50
 361 0077 7B000000 		.4byte	0x7b
 362 007b 03       		.uleb128 0x3
 363 007c 04       		.byte	0x4
 364 007d 07       		.byte	0x7
 365 007e AD010000 		.4byte	.LASF9
 366 0082 03       		.uleb128 0x3
 367 0083 08       		.byte	0x8
 368 0084 05       		.byte	0x5
 369 0085 DF000000 		.4byte	.LASF10
 370 0089 03       		.uleb128 0x3
 371 008a 08       		.byte	0x8
 372 008b 07       		.byte	0x7
 373 008c 5B010000 		.4byte	.LASF11
 374 0090 05       		.uleb128 0x5
 375 0091 70000000 		.4byte	0x70
 376 0095 03       		.uleb128 0x3
 377 0096 04       		.byte	0x4
 378 0097 07       		.byte	0x7
 379 0098 28000000 		.4byte	.LASF12
 380 009c 03       		.uleb128 0x3
 381 009d 01       		.byte	0x1
 382 009e 08       		.byte	0x8
 383 009f E4010000 		.4byte	.LASF13
 384 00a3 06       		.uleb128 0x6
 385 00a4 70000000 		.4byte	0x70
 386 00a8 B3000000 		.4byte	0xb3
 387 00ac 07       		.uleb128 0x7
 388 00ad 95000000 		.4byte	0x95
 389 00b1 01       		.byte	0x1
 390 00b2 00       		.byte	0
 391 00b3 05       		.uleb128 0x5
 392 00b4 5E000000 		.4byte	0x5e
ARM GAS  /tmp/cckvhpyF.s 			page 8


 393 00b8 08       		.uleb128 0x8
 394 00b9 10       		.byte	0x10
 395 00ba 03       		.byte	0x3
 396 00bb C502     		.2byte	0x2c5
 397 00bd FB000000 		.4byte	0xfb
 398 00c1 09       		.uleb128 0x9
 399 00c2 4B5200   		.ascii	"KR\000"
 400 00c5 03       		.byte	0x3
 401 00c6 C702     		.2byte	0x2c7
 402 00c8 90000000 		.4byte	0x90
 403 00cc 02       		.byte	0x2
 404 00cd 23       		.byte	0x23
 405 00ce 00       		.uleb128 0
 406 00cf 09       		.uleb128 0x9
 407 00d0 505200   		.ascii	"PR\000"
 408 00d3 03       		.byte	0x3
 409 00d4 C802     		.2byte	0x2c8
 410 00d6 90000000 		.4byte	0x90
 411 00da 02       		.byte	0x2
 412 00db 23       		.byte	0x23
 413 00dc 04       		.uleb128 0x4
 414 00dd 09       		.uleb128 0x9
 415 00de 524C5200 		.ascii	"RLR\000"
 416 00e2 03       		.byte	0x3
 417 00e3 C902     		.2byte	0x2c9
 418 00e5 90000000 		.4byte	0x90
 419 00e9 02       		.byte	0x2
 420 00ea 23       		.byte	0x23
 421 00eb 08       		.uleb128 0x8
 422 00ec 09       		.uleb128 0x9
 423 00ed 535200   		.ascii	"SR\000"
 424 00f0 03       		.byte	0x3
 425 00f1 CA02     		.2byte	0x2ca
 426 00f3 90000000 		.4byte	0x90
 427 00f7 02       		.byte	0x2
 428 00f8 23       		.byte	0x23
 429 00f9 0C       		.uleb128 0xc
 430 00fa 00       		.byte	0
 431 00fb 0A       		.uleb128 0xa
 432 00fc 1B000000 		.4byte	.LASF14
 433 0100 03       		.byte	0x3
 434 0101 CB02     		.2byte	0x2cb
 435 0103 B8000000 		.4byte	0xb8
 436 0107 08       		.uleb128 0x8
 437 0108 88       		.byte	0x88
 438 0109 03       		.byte	0x3
 439 010a DB02     		.2byte	0x2db
 440 010c D4020000 		.4byte	0x2d4
 441 0110 09       		.uleb128 0x9
 442 0111 435200   		.ascii	"CR\000"
 443 0114 03       		.byte	0x3
 444 0115 DD02     		.2byte	0x2dd
 445 0117 90000000 		.4byte	0x90
 446 011b 02       		.byte	0x2
 447 011c 23       		.byte	0x23
 448 011d 00       		.uleb128 0
 449 011e 0B       		.uleb128 0xb
ARM GAS  /tmp/cckvhpyF.s 			page 9


 450 011f BF010000 		.4byte	.LASF15
 451 0123 03       		.byte	0x3
 452 0124 DE02     		.2byte	0x2de
 453 0126 90000000 		.4byte	0x90
 454 012a 02       		.byte	0x2
 455 012b 23       		.byte	0x23
 456 012c 04       		.uleb128 0x4
 457 012d 0B       		.uleb128 0xb
 458 012e 9A000000 		.4byte	.LASF16
 459 0132 03       		.byte	0x3
 460 0133 DF02     		.2byte	0x2df
 461 0135 90000000 		.4byte	0x90
 462 0139 02       		.byte	0x2
 463 013a 23       		.byte	0x23
 464 013b 08       		.uleb128 0x8
 465 013c 09       		.uleb128 0x9
 466 013d 43495200 		.ascii	"CIR\000"
 467 0141 03       		.byte	0x3
 468 0142 E002     		.2byte	0x2e0
 469 0144 90000000 		.4byte	0x90
 470 0148 02       		.byte	0x2
 471 0149 23       		.byte	0x23
 472 014a 0C       		.uleb128 0xc
 473 014b 0B       		.uleb128 0xb
 474 014c 95020000 		.4byte	.LASF17
 475 0150 03       		.byte	0x3
 476 0151 E102     		.2byte	0x2e1
 477 0153 90000000 		.4byte	0x90
 478 0157 02       		.byte	0x2
 479 0158 23       		.byte	0x23
 480 0159 10       		.uleb128 0x10
 481 015a 0B       		.uleb128 0xb
 482 015b 95010000 		.4byte	.LASF18
 483 015f 03       		.byte	0x3
 484 0160 E202     		.2byte	0x2e2
 485 0162 90000000 		.4byte	0x90
 486 0166 02       		.byte	0x2
 487 0167 23       		.byte	0x23
 488 0168 14       		.uleb128 0x14
 489 0169 0B       		.uleb128 0xb
 490 016a AB020000 		.4byte	.LASF19
 491 016e 03       		.byte	0x3
 492 016f E302     		.2byte	0x2e3
 493 0171 90000000 		.4byte	0x90
 494 0175 02       		.byte	0x2
 495 0176 23       		.byte	0x23
 496 0177 18       		.uleb128 0x18
 497 0178 0B       		.uleb128 0xb
 498 0179 19020000 		.4byte	.LASF20
 499 017d 03       		.byte	0x3
 500 017e E402     		.2byte	0x2e4
 501 0180 70000000 		.4byte	0x70
 502 0184 02       		.byte	0x2
 503 0185 23       		.byte	0x23
 504 0186 1C       		.uleb128 0x1c
 505 0187 0B       		.uleb128 0xb
 506 0188 0A000000 		.4byte	.LASF21
ARM GAS  /tmp/cckvhpyF.s 			page 10


 507 018c 03       		.byte	0x3
 508 018d E502     		.2byte	0x2e5
 509 018f 90000000 		.4byte	0x90
 510 0193 02       		.byte	0x2
 511 0194 23       		.byte	0x23
 512 0195 20       		.uleb128 0x20
 513 0196 0B       		.uleb128 0xb
 514 0197 02010000 		.4byte	.LASF22
 515 019b 03       		.byte	0x3
 516 019c E602     		.2byte	0x2e6
 517 019e 90000000 		.4byte	0x90
 518 01a2 02       		.byte	0x2
 519 01a3 23       		.byte	0x23
 520 01a4 24       		.uleb128 0x24
 521 01a5 0B       		.uleb128 0xb
 522 01a6 23020000 		.4byte	.LASF23
 523 01aa 03       		.byte	0x3
 524 01ab E702     		.2byte	0x2e7
 525 01ad A3000000 		.4byte	0xa3
 526 01b1 02       		.byte	0x2
 527 01b2 23       		.byte	0x23
 528 01b3 28       		.uleb128 0x28
 529 01b4 0B       		.uleb128 0xb
 530 01b5 76020000 		.4byte	.LASF24
 531 01b9 03       		.byte	0x3
 532 01ba E802     		.2byte	0x2e8
 533 01bc 90000000 		.4byte	0x90
 534 01c0 02       		.byte	0x2
 535 01c1 23       		.byte	0x23
 536 01c2 30       		.uleb128 0x30
 537 01c3 0B       		.uleb128 0xb
 538 01c4 13000000 		.4byte	.LASF25
 539 01c8 03       		.byte	0x3
 540 01c9 E902     		.2byte	0x2e9
 541 01cb 90000000 		.4byte	0x90
 542 01cf 02       		.byte	0x2
 543 01d0 23       		.byte	0x23
 544 01d1 34       		.uleb128 0x34
 545 01d2 0B       		.uleb128 0xb
 546 01d3 D7000000 		.4byte	.LASF26
 547 01d7 03       		.byte	0x3
 548 01d8 EA02     		.2byte	0x2ea
 549 01da 90000000 		.4byte	0x90
 550 01de 02       		.byte	0x2
 551 01df 23       		.byte	0x23
 552 01e0 38       		.uleb128 0x38
 553 01e1 0B       		.uleb128 0xb
 554 01e2 2D020000 		.4byte	.LASF27
 555 01e6 03       		.byte	0x3
 556 01e7 EB02     		.2byte	0x2eb
 557 01e9 70000000 		.4byte	0x70
 558 01ed 02       		.byte	0x2
 559 01ee 23       		.byte	0x23
 560 01ef 3C       		.uleb128 0x3c
 561 01f0 0B       		.uleb128 0xb
 562 01f1 B8000000 		.4byte	.LASF28
 563 01f5 03       		.byte	0x3
ARM GAS  /tmp/cckvhpyF.s 			page 11


 564 01f6 EC02     		.2byte	0x2ec
 565 01f8 90000000 		.4byte	0x90
 566 01fc 02       		.byte	0x2
 567 01fd 23       		.byte	0x23
 568 01fe 40       		.uleb128 0x40
 569 01ff 0B       		.uleb128 0xb
 570 0200 38010000 		.4byte	.LASF29
 571 0204 03       		.byte	0x3
 572 0205 ED02     		.2byte	0x2ed
 573 0207 90000000 		.4byte	0x90
 574 020b 02       		.byte	0x2
 575 020c 23       		.byte	0x23
 576 020d 44       		.uleb128 0x44
 577 020e 0B       		.uleb128 0xb
 578 020f 37020000 		.4byte	.LASF30
 579 0213 03       		.byte	0x3
 580 0214 EE02     		.2byte	0x2ee
 581 0216 A3000000 		.4byte	0xa3
 582 021a 02       		.byte	0x2
 583 021b 23       		.byte	0x23
 584 021c 48       		.uleb128 0x48
 585 021d 0B       		.uleb128 0xb
 586 021e 00000000 		.4byte	.LASF31
 587 0222 03       		.byte	0x3
 588 0223 EF02     		.2byte	0x2ef
 589 0225 90000000 		.4byte	0x90
 590 0229 02       		.byte	0x2
 591 022a 23       		.byte	0x23
 592 022b 50       		.uleb128 0x50
 593 022c 0B       		.uleb128 0xb
 594 022d 0F020000 		.4byte	.LASF32
 595 0231 03       		.byte	0x3
 596 0232 F002     		.2byte	0x2f0
 597 0234 90000000 		.4byte	0x90
 598 0238 02       		.byte	0x2
 599 0239 23       		.byte	0x23
 600 023a 54       		.uleb128 0x54
 601 023b 0B       		.uleb128 0xb
 602 023c 9F000000 		.4byte	.LASF33
 603 0240 03       		.byte	0x3
 604 0241 F102     		.2byte	0x2f1
 605 0243 90000000 		.4byte	0x90
 606 0247 02       		.byte	0x2
 607 0248 23       		.byte	0x23
 608 0249 58       		.uleb128 0x58
 609 024a 0B       		.uleb128 0xb
 610 024b 41020000 		.4byte	.LASF34
 611 024f 03       		.byte	0x3
 612 0250 F202     		.2byte	0x2f2
 613 0252 70000000 		.4byte	0x70
 614 0256 02       		.byte	0x2
 615 0257 23       		.byte	0x23
 616 0258 5C       		.uleb128 0x5c
 617 0259 0B       		.uleb128 0xb
 618 025a DA010000 		.4byte	.LASF35
 619 025e 03       		.byte	0x3
 620 025f F302     		.2byte	0x2f3
ARM GAS  /tmp/cckvhpyF.s 			page 12


 621 0261 90000000 		.4byte	0x90
 622 0265 02       		.byte	0x2
 623 0266 23       		.byte	0x23
 624 0267 60       		.uleb128 0x60
 625 0268 0B       		.uleb128 0xb
 626 0269 DC020000 		.4byte	.LASF36
 627 026d 03       		.byte	0x3
 628 026e F402     		.2byte	0x2f4
 629 0270 90000000 		.4byte	0x90
 630 0274 02       		.byte	0x2
 631 0275 23       		.byte	0x23
 632 0276 64       		.uleb128 0x64
 633 0277 0B       		.uleb128 0xb
 634 0278 4B020000 		.4byte	.LASF37
 635 027c 03       		.byte	0x3
 636 027d F502     		.2byte	0x2f5
 637 027f A3000000 		.4byte	0xa3
 638 0283 02       		.byte	0x2
 639 0284 23       		.byte	0x23
 640 0285 68       		.uleb128 0x68
 641 0286 0B       		.uleb128 0xb
 642 0287 31000000 		.4byte	.LASF38
 643 028b 03       		.byte	0x3
 644 028c F602     		.2byte	0x2f6
 645 028e 90000000 		.4byte	0x90
 646 0292 02       		.byte	0x2
 647 0293 23       		.byte	0x23
 648 0294 70       		.uleb128 0x70
 649 0295 09       		.uleb128 0x9
 650 0296 43535200 		.ascii	"CSR\000"
 651 029a 03       		.byte	0x3
 652 029b F702     		.2byte	0x2f7
 653 029d 90000000 		.4byte	0x90
 654 02a1 02       		.byte	0x2
 655 02a2 23       		.byte	0x23
 656 02a3 74       		.uleb128 0x74
 657 02a4 0B       		.uleb128 0xb
 658 02a5 55020000 		.4byte	.LASF39
 659 02a9 03       		.byte	0x3
 660 02aa F802     		.2byte	0x2f8
 661 02ac A3000000 		.4byte	0xa3
 662 02b0 02       		.byte	0x2
 663 02b1 23       		.byte	0x23
 664 02b2 78       		.uleb128 0x78
 665 02b3 0B       		.uleb128 0xb
 666 02b4 4F000000 		.4byte	.LASF40
 667 02b8 03       		.byte	0x3
 668 02b9 F902     		.2byte	0x2f9
 669 02bb 90000000 		.4byte	0x90
 670 02bf 03       		.byte	0x3
 671 02c0 23       		.byte	0x23
 672 02c1 8001     		.uleb128 0x80
 673 02c3 0B       		.uleb128 0xb
 674 02c4 36000000 		.4byte	.LASF41
 675 02c8 03       		.byte	0x3
 676 02c9 FA02     		.2byte	0x2fa
 677 02cb 90000000 		.4byte	0x90
ARM GAS  /tmp/cckvhpyF.s 			page 13


 678 02cf 03       		.byte	0x3
 679 02d0 23       		.byte	0x23
 680 02d1 8401     		.uleb128 0x84
 681 02d3 00       		.byte	0
 682 02d4 0A       		.uleb128 0xa
 683 02d5 F6000000 		.4byte	.LASF42
 684 02d9 03       		.byte	0x3
 685 02da FB02     		.2byte	0x2fb
 686 02dc 07010000 		.4byte	0x107
 687 02e0 0C       		.uleb128 0xc
 688 02e1 01       		.byte	0x1
 689 02e2 04       		.byte	0x4
 690 02e3 19       		.byte	0x19
 691 02e4 13030000 		.4byte	0x313
 692 02e8 0D       		.uleb128 0xd
 693 02e9 9E020000 		.4byte	.LASF43
 694 02ed 00       		.sleb128 0
 695 02ee 0D       		.uleb128 0xd
 696 02ef B4020000 		.4byte	.LASF44
 697 02f3 01       		.sleb128 1
 698 02f4 0D       		.uleb128 0xd
 699 02f5 CE020000 		.4byte	.LASF45
 700 02f9 02       		.sleb128 2
 701 02fa 0D       		.uleb128 0xd
 702 02fb 0B010000 		.4byte	.LASF46
 703 02ff 03       		.sleb128 3
 704 0300 0D       		.uleb128 0xd
 705 0301 C9000000 		.4byte	.LASF47
 706 0305 04       		.sleb128 4
 707 0306 0D       		.uleb128 0xd
 708 0307 9E010000 		.4byte	.LASF48
 709 030b 05       		.sleb128 5
 710 030c 0D       		.uleb128 0xd
 711 030d A9000000 		.4byte	.LASF49
 712 0311 06       		.sleb128 6
 713 0312 00       		.byte	0
 714 0313 04       		.uleb128 0x4
 715 0314 55000000 		.4byte	.LASF50
 716 0318 04       		.byte	0x4
 717 0319 21       		.byte	0x21
 718 031a E0020000 		.4byte	0x2e0
 719 031e 0E       		.uleb128 0xe
 720 031f 01       		.byte	0x1
 721 0320 41000000 		.4byte	.LASF51
 722 0324 01       		.byte	0x1
 723 0325 14       		.byte	0x14
 724 0326 01       		.byte	0x1
 725 0327 00000000 		.4byte	.LFB118
 726 032b 26000000 		.4byte	.LFE118
 727 032f 00000000 		.4byte	.LLST0
 728 0333 01       		.byte	0x1
 729 0334 85030000 		.4byte	0x385
 730 0338 0F       		.uleb128 0xf
 731 0339 02000000 		.4byte	.LBB2
 732 033d 08000000 		.4byte	.LBE2
 733 0341 55030000 		.4byte	0x355
 734 0345 10       		.uleb128 0x10
ARM GAS  /tmp/cckvhpyF.s 			page 14


 735 0346 746D7000 		.ascii	"tmp\000"
 736 034a 01       		.byte	0x1
 737 034b 15       		.byte	0x15
 738 034c 70000000 		.4byte	0x70
 739 0350 20000000 		.4byte	.LLST1
 740 0354 00       		.byte	0
 741 0355 0F       		.uleb128 0xf
 742 0356 1E000000 		.4byte	.LBB3
 743 035a 26000000 		.4byte	.LBE3
 744 035e 72030000 		.4byte	0x372
 745 0362 10       		.uleb128 0x10
 746 0363 746D7000 		.ascii	"tmp\000"
 747 0367 01       		.byte	0x1
 748 0368 17       		.byte	0x17
 749 0369 70000000 		.4byte	0x70
 750 036d 33000000 		.4byte	.LLST2
 751 0371 00       		.byte	0
 752 0372 11       		.uleb128 0x11
 753 0373 0C000000 		.4byte	.LVL2
 754 0377 1B050000 		.4byte	0x51b
 755 037b 11       		.uleb128 0x11
 756 037c 1E000000 		.4byte	.LVL3
 757 0380 25050000 		.4byte	0x525
 758 0384 00       		.byte	0
 759 0385 0E       		.uleb128 0xe
 760 0386 01       		.byte	0x1
 761 0387 E6020000 		.4byte	.LASF52
 762 038b 01       		.byte	0x1
 763 038c 1E       		.byte	0x1e
 764 038d 01       		.byte	0x1
 765 038e 00000000 		.4byte	.LFB119
 766 0392 26000000 		.4byte	.LFE119
 767 0396 46000000 		.4byte	.LLST3
 768 039a 01       		.byte	0x1
 769 039b EC030000 		.4byte	0x3ec
 770 039f 0F       		.uleb128 0xf
 771 03a0 02000000 		.4byte	.LBB4
 772 03a4 08000000 		.4byte	.LBE4
 773 03a8 BC030000 		.4byte	0x3bc
 774 03ac 10       		.uleb128 0x10
 775 03ad 746D7000 		.ascii	"tmp\000"
 776 03b1 01       		.byte	0x1
 777 03b2 1F       		.byte	0x1f
 778 03b3 70000000 		.4byte	0x70
 779 03b7 66000000 		.4byte	.LLST4
 780 03bb 00       		.byte	0
 781 03bc 0F       		.uleb128 0xf
 782 03bd 1E000000 		.4byte	.LBB5
 783 03c1 26000000 		.4byte	.LBE5
 784 03c5 D9030000 		.4byte	0x3d9
 785 03c9 10       		.uleb128 0x10
 786 03ca 746D7000 		.ascii	"tmp\000"
 787 03ce 01       		.byte	0x1
 788 03cf 21       		.byte	0x21
 789 03d0 70000000 		.4byte	0x70
 790 03d4 79000000 		.4byte	.LLST5
 791 03d8 00       		.byte	0
ARM GAS  /tmp/cckvhpyF.s 			page 15


 792 03d9 11       		.uleb128 0x11
 793 03da 0C000000 		.4byte	.LVL8
 794 03de 1B050000 		.4byte	0x51b
 795 03e2 11       		.uleb128 0x11
 796 03e3 1E000000 		.4byte	.LVL9
 797 03e7 25050000 		.4byte	0x525
 798 03eb 00       		.byte	0
 799 03ec 0E       		.uleb128 0xe
 800 03ed 01       		.byte	0x1
 801 03ee 72010000 		.4byte	.LASF53
 802 03f2 01       		.byte	0x1
 803 03f3 26       		.byte	0x26
 804 03f4 01       		.byte	0x1
 805 03f5 00000000 		.4byte	.LFB120
 806 03f9 30000000 		.4byte	.LFE120
 807 03fd 8C000000 		.4byte	.LLST6
 808 0401 01       		.byte	0x1
 809 0402 5C040000 		.4byte	0x45c
 810 0406 12       		.uleb128 0x12
 811 0407 7300     		.ascii	"s\000"
 812 0409 01       		.byte	0x1
 813 040a 26       		.byte	0x26
 814 040b 13030000 		.4byte	0x313
 815 040f AC000000 		.4byte	.LLST7
 816 0413 13       		.uleb128 0x13
 817 0414 00000000 		.4byte	.Ldebug_ranges0+0
 818 0418 2C040000 		.4byte	0x42c
 819 041c 10       		.uleb128 0x10
 820 041d 746D7000 		.ascii	"tmp\000"
 821 0421 01       		.byte	0x1
 822 0422 28       		.byte	0x28
 823 0423 70000000 		.4byte	0x70
 824 0427 CD000000 		.4byte	.LLST8
 825 042b 00       		.byte	0
 826 042c 0F       		.uleb128 0xf
 827 042d 28000000 		.4byte	.LBB8
 828 0431 30000000 		.4byte	.LBE8
 829 0435 49040000 		.4byte	0x449
 830 0439 10       		.uleb128 0x10
 831 043a 746D7000 		.ascii	"tmp\000"
 832 043e 01       		.byte	0x1
 833 043f 2C       		.byte	0x2c
 834 0440 70000000 		.4byte	0x70
 835 0444 E0000000 		.4byte	.LLST9
 836 0448 00       		.byte	0
 837 0449 11       		.uleb128 0x11
 838 044a 0E000000 		.4byte	.LVL15
 839 044e 1B050000 		.4byte	0x51b
 840 0452 11       		.uleb128 0x11
 841 0453 28000000 		.4byte	.LVL16
 842 0457 25050000 		.4byte	0x525
 843 045b 00       		.byte	0
 844 045c 0E       		.uleb128 0xe
 845 045d 01       		.byte	0x1
 846 045e 5F020000 		.4byte	.LASF54
 847 0462 01       		.byte	0x1
 848 0463 31       		.byte	0x31
ARM GAS  /tmp/cckvhpyF.s 			page 16


 849 0464 01       		.byte	0x1
 850 0465 00000000 		.4byte	.LFB121
 851 0469 34000000 		.4byte	.LFE121
 852 046d F3000000 		.4byte	.LLST10
 853 0471 01       		.byte	0x1
 854 0472 CC040000 		.4byte	0x4cc
 855 0476 12       		.uleb128 0x12
 856 0477 7200     		.ascii	"r\000"
 857 0479 01       		.byte	0x1
 858 047a 31       		.byte	0x31
 859 047b 4C000000 		.4byte	0x4c
 860 047f 13010000 		.4byte	.LLST11
 861 0483 13       		.uleb128 0x13
 862 0484 18000000 		.4byte	.Ldebug_ranges0+0x18
 863 0488 9C040000 		.4byte	0x49c
 864 048c 10       		.uleb128 0x10
 865 048d 746D7000 		.ascii	"tmp\000"
 866 0491 01       		.byte	0x1
 867 0492 32       		.byte	0x32
 868 0493 70000000 		.4byte	0x70
 869 0497 45010000 		.4byte	.LLST12
 870 049b 00       		.byte	0
 871 049c 0F       		.uleb128 0xf
 872 049d 2C000000 		.4byte	.LBB11
 873 04a1 34000000 		.4byte	.LBE11
 874 04a5 B9040000 		.4byte	0x4b9
 875 04a9 10       		.uleb128 0x10
 876 04aa 746D7000 		.ascii	"tmp\000"
 877 04ae 01       		.byte	0x1
 878 04af 37       		.byte	0x37
 879 04b0 70000000 		.4byte	0x70
 880 04b4 58010000 		.4byte	.LLST13
 881 04b8 00       		.byte	0
 882 04b9 11       		.uleb128 0x11
 883 04ba 0E000000 		.4byte	.LVL22
 884 04be 1B050000 		.4byte	0x51b
 885 04c2 11       		.uleb128 0x11
 886 04c3 2C000000 		.4byte	.LVL23
 887 04c7 25050000 		.4byte	0x525
 888 04cb 00       		.byte	0
 889 04cc 0E       		.uleb128 0xe
 890 04cd 01       		.byte	0x1
 891 04ce 8A020000 		.4byte	.LASF55
 892 04d2 01       		.byte	0x1
 893 04d3 40       		.byte	0x40
 894 04d4 01       		.byte	0x1
 895 04d5 00000000 		.4byte	.LFB122
 896 04d9 2A000000 		.4byte	.LFE122
 897 04dd 6B010000 		.4byte	.LLST14
 898 04e1 01       		.byte	0x1
 899 04e2 0D050000 		.4byte	0x50d
 900 04e6 14       		.uleb128 0x14
 901 04e7 1E000000 		.4byte	.LVL26
 902 04eb EC030000 		.4byte	0x3ec
 903 04ef F9040000 		.4byte	0x4f9
 904 04f3 15       		.uleb128 0x15
 905 04f4 01       		.byte	0x1
ARM GAS  /tmp/cckvhpyF.s 			page 17


 906 04f5 50       		.byte	0x50
 907 04f6 01       		.byte	0x1
 908 04f7 33       		.byte	0x33
 909 04f8 00       		.byte	0
 910 04f9 11       		.uleb128 0x11
 911 04fa 22000000 		.4byte	.LVL27
 912 04fe 85030000 		.4byte	0x385
 913 0502 16       		.uleb128 0x16
 914 0503 2A000000 		.4byte	.LVL28
 915 0507 01       		.byte	0x1
 916 0508 1E030000 		.4byte	0x31e
 917 050c 00       		.byte	0
 918 050d 17       		.uleb128 0x17
 919 050e C1020000 		.4byte	.LASF61
 920 0512 06       		.byte	0x6
 921 0513 9806     		.2byte	0x698
 922 0515 B3000000 		.4byte	0xb3
 923 0519 01       		.byte	0x1
 924 051a 01       		.byte	0x1
 925 051b 18       		.uleb128 0x18
 926 051c 01       		.byte	0x1
 927 051d 4C010000 		.4byte	.LASF56
 928 0521 05       		.byte	0x5
 929 0522 E0       		.byte	0xe0
 930 0523 01       		.byte	0x1
 931 0524 01       		.byte	0x1
 932 0525 18       		.uleb128 0x18
 933 0526 01       		.byte	0x1
 934 0527 27010000 		.4byte	.LASF57
 935 052b 05       		.byte	0x5
 936 052c E1       		.byte	0xe1
 937 052d 01       		.byte	0x1
 938 052e 01       		.byte	0x1
 939 052f 00       		.byte	0
 940              		.section	.debug_abbrev,"",%progbits
 941              	.Ldebug_abbrev0:
 942 0000 01       		.uleb128 0x1
 943 0001 11       		.uleb128 0x11
 944 0002 01       		.byte	0x1
 945 0003 25       		.uleb128 0x25
 946 0004 0E       		.uleb128 0xe
 947 0005 13       		.uleb128 0x13
 948 0006 0B       		.uleb128 0xb
 949 0007 03       		.uleb128 0x3
 950 0008 0E       		.uleb128 0xe
 951 0009 1B       		.uleb128 0x1b
 952 000a 0E       		.uleb128 0xe
 953 000b 55       		.uleb128 0x55
 954 000c 06       		.uleb128 0x6
 955 000d 11       		.uleb128 0x11
 956 000e 01       		.uleb128 0x1
 957 000f 52       		.uleb128 0x52
 958 0010 01       		.uleb128 0x1
 959 0011 10       		.uleb128 0x10
 960 0012 06       		.uleb128 0x6
 961 0013 00       		.byte	0
 962 0014 00       		.byte	0
ARM GAS  /tmp/cckvhpyF.s 			page 18


 963 0015 02       		.uleb128 0x2
 964 0016 24       		.uleb128 0x24
 965 0017 00       		.byte	0
 966 0018 0B       		.uleb128 0xb
 967 0019 0B       		.uleb128 0xb
 968 001a 3E       		.uleb128 0x3e
 969 001b 0B       		.uleb128 0xb
 970 001c 03       		.uleb128 0x3
 971 001d 08       		.uleb128 0x8
 972 001e 00       		.byte	0
 973 001f 00       		.byte	0
 974 0020 03       		.uleb128 0x3
 975 0021 24       		.uleb128 0x24
 976 0022 00       		.byte	0
 977 0023 0B       		.uleb128 0xb
 978 0024 0B       		.uleb128 0xb
 979 0025 3E       		.uleb128 0x3e
 980 0026 0B       		.uleb128 0xb
 981 0027 03       		.uleb128 0x3
 982 0028 0E       		.uleb128 0xe
 983 0029 00       		.byte	0
 984 002a 00       		.byte	0
 985 002b 04       		.uleb128 0x4
 986 002c 16       		.uleb128 0x16
 987 002d 00       		.byte	0
 988 002e 03       		.uleb128 0x3
 989 002f 0E       		.uleb128 0xe
 990 0030 3A       		.uleb128 0x3a
 991 0031 0B       		.uleb128 0xb
 992 0032 3B       		.uleb128 0x3b
 993 0033 0B       		.uleb128 0xb
 994 0034 49       		.uleb128 0x49
 995 0035 13       		.uleb128 0x13
 996 0036 00       		.byte	0
 997 0037 00       		.byte	0
 998 0038 05       		.uleb128 0x5
 999 0039 35       		.uleb128 0x35
 1000 003a 00       		.byte	0
 1001 003b 49       		.uleb128 0x49
 1002 003c 13       		.uleb128 0x13
 1003 003d 00       		.byte	0
 1004 003e 00       		.byte	0
 1005 003f 06       		.uleb128 0x6
 1006 0040 01       		.uleb128 0x1
 1007 0041 01       		.byte	0x1
 1008 0042 49       		.uleb128 0x49
 1009 0043 13       		.uleb128 0x13
 1010 0044 01       		.uleb128 0x1
 1011 0045 13       		.uleb128 0x13
 1012 0046 00       		.byte	0
 1013 0047 00       		.byte	0
 1014 0048 07       		.uleb128 0x7
 1015 0049 21       		.uleb128 0x21
 1016 004a 00       		.byte	0
 1017 004b 49       		.uleb128 0x49
 1018 004c 13       		.uleb128 0x13
 1019 004d 2F       		.uleb128 0x2f
ARM GAS  /tmp/cckvhpyF.s 			page 19


 1020 004e 0B       		.uleb128 0xb
 1021 004f 00       		.byte	0
 1022 0050 00       		.byte	0
 1023 0051 08       		.uleb128 0x8
 1024 0052 13       		.uleb128 0x13
 1025 0053 01       		.byte	0x1
 1026 0054 0B       		.uleb128 0xb
 1027 0055 0B       		.uleb128 0xb
 1028 0056 3A       		.uleb128 0x3a
 1029 0057 0B       		.uleb128 0xb
 1030 0058 3B       		.uleb128 0x3b
 1031 0059 05       		.uleb128 0x5
 1032 005a 01       		.uleb128 0x1
 1033 005b 13       		.uleb128 0x13
 1034 005c 00       		.byte	0
 1035 005d 00       		.byte	0
 1036 005e 09       		.uleb128 0x9
 1037 005f 0D       		.uleb128 0xd
 1038 0060 00       		.byte	0
 1039 0061 03       		.uleb128 0x3
 1040 0062 08       		.uleb128 0x8
 1041 0063 3A       		.uleb128 0x3a
 1042 0064 0B       		.uleb128 0xb
 1043 0065 3B       		.uleb128 0x3b
 1044 0066 05       		.uleb128 0x5
 1045 0067 49       		.uleb128 0x49
 1046 0068 13       		.uleb128 0x13
 1047 0069 38       		.uleb128 0x38
 1048 006a 0A       		.uleb128 0xa
 1049 006b 00       		.byte	0
 1050 006c 00       		.byte	0
 1051 006d 0A       		.uleb128 0xa
 1052 006e 16       		.uleb128 0x16
 1053 006f 00       		.byte	0
 1054 0070 03       		.uleb128 0x3
 1055 0071 0E       		.uleb128 0xe
 1056 0072 3A       		.uleb128 0x3a
 1057 0073 0B       		.uleb128 0xb
 1058 0074 3B       		.uleb128 0x3b
 1059 0075 05       		.uleb128 0x5
 1060 0076 49       		.uleb128 0x49
 1061 0077 13       		.uleb128 0x13
 1062 0078 00       		.byte	0
 1063 0079 00       		.byte	0
 1064 007a 0B       		.uleb128 0xb
 1065 007b 0D       		.uleb128 0xd
 1066 007c 00       		.byte	0
 1067 007d 03       		.uleb128 0x3
 1068 007e 0E       		.uleb128 0xe
 1069 007f 3A       		.uleb128 0x3a
 1070 0080 0B       		.uleb128 0xb
 1071 0081 3B       		.uleb128 0x3b
 1072 0082 05       		.uleb128 0x5
 1073 0083 49       		.uleb128 0x49
 1074 0084 13       		.uleb128 0x13
 1075 0085 38       		.uleb128 0x38
 1076 0086 0A       		.uleb128 0xa
ARM GAS  /tmp/cckvhpyF.s 			page 20


 1077 0087 00       		.byte	0
 1078 0088 00       		.byte	0
 1079 0089 0C       		.uleb128 0xc
 1080 008a 04       		.uleb128 0x4
 1081 008b 01       		.byte	0x1
 1082 008c 0B       		.uleb128 0xb
 1083 008d 0B       		.uleb128 0xb
 1084 008e 3A       		.uleb128 0x3a
 1085 008f 0B       		.uleb128 0xb
 1086 0090 3B       		.uleb128 0x3b
 1087 0091 0B       		.uleb128 0xb
 1088 0092 01       		.uleb128 0x1
 1089 0093 13       		.uleb128 0x13
 1090 0094 00       		.byte	0
 1091 0095 00       		.byte	0
 1092 0096 0D       		.uleb128 0xd
 1093 0097 28       		.uleb128 0x28
 1094 0098 00       		.byte	0
 1095 0099 03       		.uleb128 0x3
 1096 009a 0E       		.uleb128 0xe
 1097 009b 1C       		.uleb128 0x1c
 1098 009c 0D       		.uleb128 0xd
 1099 009d 00       		.byte	0
 1100 009e 00       		.byte	0
 1101 009f 0E       		.uleb128 0xe
 1102 00a0 2E       		.uleb128 0x2e
 1103 00a1 01       		.byte	0x1
 1104 00a2 3F       		.uleb128 0x3f
 1105 00a3 0C       		.uleb128 0xc
 1106 00a4 03       		.uleb128 0x3
 1107 00a5 0E       		.uleb128 0xe
 1108 00a6 3A       		.uleb128 0x3a
 1109 00a7 0B       		.uleb128 0xb
 1110 00a8 3B       		.uleb128 0x3b
 1111 00a9 0B       		.uleb128 0xb
 1112 00aa 27       		.uleb128 0x27
 1113 00ab 0C       		.uleb128 0xc
 1114 00ac 11       		.uleb128 0x11
 1115 00ad 01       		.uleb128 0x1
 1116 00ae 12       		.uleb128 0x12
 1117 00af 01       		.uleb128 0x1
 1118 00b0 40       		.uleb128 0x40
 1119 00b1 06       		.uleb128 0x6
 1120 00b2 9742     		.uleb128 0x2117
 1121 00b4 0C       		.uleb128 0xc
 1122 00b5 01       		.uleb128 0x1
 1123 00b6 13       		.uleb128 0x13
 1124 00b7 00       		.byte	0
 1125 00b8 00       		.byte	0
 1126 00b9 0F       		.uleb128 0xf
 1127 00ba 0B       		.uleb128 0xb
 1128 00bb 01       		.byte	0x1
 1129 00bc 11       		.uleb128 0x11
 1130 00bd 01       		.uleb128 0x1
 1131 00be 12       		.uleb128 0x12
 1132 00bf 01       		.uleb128 0x1
 1133 00c0 01       		.uleb128 0x1
ARM GAS  /tmp/cckvhpyF.s 			page 21


 1134 00c1 13       		.uleb128 0x13
 1135 00c2 00       		.byte	0
 1136 00c3 00       		.byte	0
 1137 00c4 10       		.uleb128 0x10
 1138 00c5 34       		.uleb128 0x34
 1139 00c6 00       		.byte	0
 1140 00c7 03       		.uleb128 0x3
 1141 00c8 08       		.uleb128 0x8
 1142 00c9 3A       		.uleb128 0x3a
 1143 00ca 0B       		.uleb128 0xb
 1144 00cb 3B       		.uleb128 0x3b
 1145 00cc 0B       		.uleb128 0xb
 1146 00cd 49       		.uleb128 0x49
 1147 00ce 13       		.uleb128 0x13
 1148 00cf 02       		.uleb128 0x2
 1149 00d0 06       		.uleb128 0x6
 1150 00d1 00       		.byte	0
 1151 00d2 00       		.byte	0
 1152 00d3 11       		.uleb128 0x11
 1153 00d4 898201   		.uleb128 0x4109
 1154 00d7 00       		.byte	0
 1155 00d8 11       		.uleb128 0x11
 1156 00d9 01       		.uleb128 0x1
 1157 00da 31       		.uleb128 0x31
 1158 00db 13       		.uleb128 0x13
 1159 00dc 00       		.byte	0
 1160 00dd 00       		.byte	0
 1161 00de 12       		.uleb128 0x12
 1162 00df 05       		.uleb128 0x5
 1163 00e0 00       		.byte	0
 1164 00e1 03       		.uleb128 0x3
 1165 00e2 08       		.uleb128 0x8
 1166 00e3 3A       		.uleb128 0x3a
 1167 00e4 0B       		.uleb128 0xb
 1168 00e5 3B       		.uleb128 0x3b
 1169 00e6 0B       		.uleb128 0xb
 1170 00e7 49       		.uleb128 0x49
 1171 00e8 13       		.uleb128 0x13
 1172 00e9 02       		.uleb128 0x2
 1173 00ea 06       		.uleb128 0x6
 1174 00eb 00       		.byte	0
 1175 00ec 00       		.byte	0
 1176 00ed 13       		.uleb128 0x13
 1177 00ee 0B       		.uleb128 0xb
 1178 00ef 01       		.byte	0x1
 1179 00f0 55       		.uleb128 0x55
 1180 00f1 06       		.uleb128 0x6
 1181 00f2 01       		.uleb128 0x1
 1182 00f3 13       		.uleb128 0x13
 1183 00f4 00       		.byte	0
 1184 00f5 00       		.byte	0
 1185 00f6 14       		.uleb128 0x14
 1186 00f7 898201   		.uleb128 0x4109
 1187 00fa 01       		.byte	0x1
 1188 00fb 11       		.uleb128 0x11
 1189 00fc 01       		.uleb128 0x1
 1190 00fd 31       		.uleb128 0x31
ARM GAS  /tmp/cckvhpyF.s 			page 22


 1191 00fe 13       		.uleb128 0x13
 1192 00ff 01       		.uleb128 0x1
 1193 0100 13       		.uleb128 0x13
 1194 0101 00       		.byte	0
 1195 0102 00       		.byte	0
 1196 0103 15       		.uleb128 0x15
 1197 0104 8A8201   		.uleb128 0x410a
 1198 0107 00       		.byte	0
 1199 0108 02       		.uleb128 0x2
 1200 0109 0A       		.uleb128 0xa
 1201 010a 9142     		.uleb128 0x2111
 1202 010c 0A       		.uleb128 0xa
 1203 010d 00       		.byte	0
 1204 010e 00       		.byte	0
 1205 010f 16       		.uleb128 0x16
 1206 0110 898201   		.uleb128 0x4109
 1207 0113 00       		.byte	0
 1208 0114 11       		.uleb128 0x11
 1209 0115 01       		.uleb128 0x1
 1210 0116 9542     		.uleb128 0x2115
 1211 0118 0C       		.uleb128 0xc
 1212 0119 31       		.uleb128 0x31
 1213 011a 13       		.uleb128 0x13
 1214 011b 00       		.byte	0
 1215 011c 00       		.byte	0
 1216 011d 17       		.uleb128 0x17
 1217 011e 34       		.uleb128 0x34
 1218 011f 00       		.byte	0
 1219 0120 03       		.uleb128 0x3
 1220 0121 0E       		.uleb128 0xe
 1221 0122 3A       		.uleb128 0x3a
 1222 0123 0B       		.uleb128 0xb
 1223 0124 3B       		.uleb128 0x3b
 1224 0125 05       		.uleb128 0x5
 1225 0126 49       		.uleb128 0x49
 1226 0127 13       		.uleb128 0x13
 1227 0128 3F       		.uleb128 0x3f
 1228 0129 0C       		.uleb128 0xc
 1229 012a 3C       		.uleb128 0x3c
 1230 012b 0C       		.uleb128 0xc
 1231 012c 00       		.byte	0
 1232 012d 00       		.byte	0
 1233 012e 18       		.uleb128 0x18
 1234 012f 2E       		.uleb128 0x2e
 1235 0130 00       		.byte	0
 1236 0131 3F       		.uleb128 0x3f
 1237 0132 0C       		.uleb128 0xc
 1238 0133 03       		.uleb128 0x3
 1239 0134 0E       		.uleb128 0xe
 1240 0135 3A       		.uleb128 0x3a
 1241 0136 0B       		.uleb128 0xb
 1242 0137 3B       		.uleb128 0x3b
 1243 0138 0B       		.uleb128 0xb
 1244 0139 27       		.uleb128 0x27
 1245 013a 0C       		.uleb128 0xc
 1246 013b 3C       		.uleb128 0x3c
 1247 013c 0C       		.uleb128 0xc
ARM GAS  /tmp/cckvhpyF.s 			page 23


 1248 013d 00       		.byte	0
 1249 013e 00       		.byte	0
 1250 013f 00       		.byte	0
 1251              		.section	.debug_loc,"",%progbits
 1252              	.Ldebug_loc0:
 1253              	.LLST0:
 1254 0000 00000000 		.4byte	.LFB118
 1255 0004 02000000 		.4byte	.LCFI0
 1256 0008 0200     		.2byte	0x2
 1257 000a 7D       		.byte	0x7d
 1258 000b 00       		.sleb128 0
 1259 000c 02000000 		.4byte	.LCFI0
 1260 0010 26000000 		.4byte	.LFE118
 1261 0014 0200     		.2byte	0x2
 1262 0016 7D       		.byte	0x7d
 1263 0017 08       		.sleb128 8
 1264 0018 00000000 		.4byte	0
 1265 001c 00000000 		.4byte	0
 1266              	.LLST1:
 1267 0020 08000000 		.4byte	.LVL1
 1268 0024 0B000000 		.4byte	.LVL2-1
 1269 0028 0100     		.2byte	0x1
 1270 002a 53       		.byte	0x53
 1271 002b 00000000 		.4byte	0
 1272 002f 00000000 		.4byte	0
 1273              	.LLST2:
 1274 0033 24000000 		.4byte	.LVL5
 1275 0037 26000000 		.4byte	.LFE118
 1276 003b 0100     		.2byte	0x1
 1277 003d 53       		.byte	0x53
 1278 003e 00000000 		.4byte	0
 1279 0042 00000000 		.4byte	0
 1280              	.LLST3:
 1281 0046 00000000 		.4byte	.LFB119
 1282 004a 02000000 		.4byte	.LCFI1
 1283 004e 0200     		.2byte	0x2
 1284 0050 7D       		.byte	0x7d
 1285 0051 00       		.sleb128 0
 1286 0052 02000000 		.4byte	.LCFI1
 1287 0056 26000000 		.4byte	.LFE119
 1288 005a 0200     		.2byte	0x2
 1289 005c 7D       		.byte	0x7d
 1290 005d 08       		.sleb128 8
 1291 005e 00000000 		.4byte	0
 1292 0062 00000000 		.4byte	0
 1293              	.LLST4:
 1294 0066 08000000 		.4byte	.LVL7
 1295 006a 0B000000 		.4byte	.LVL8-1
 1296 006e 0100     		.2byte	0x1
 1297 0070 53       		.byte	0x53
 1298 0071 00000000 		.4byte	0
 1299 0075 00000000 		.4byte	0
 1300              	.LLST5:
 1301 0079 24000000 		.4byte	.LVL11
 1302 007d 26000000 		.4byte	.LFE119
 1303 0081 0100     		.2byte	0x1
 1304 0083 53       		.byte	0x53
ARM GAS  /tmp/cckvhpyF.s 			page 24


 1305 0084 00000000 		.4byte	0
 1306 0088 00000000 		.4byte	0
 1307              	.LLST6:
 1308 008c 00000000 		.4byte	.LFB120
 1309 0090 02000000 		.4byte	.LCFI2
 1310 0094 0200     		.2byte	0x2
 1311 0096 7D       		.byte	0x7d
 1312 0097 00       		.sleb128 0
 1313 0098 02000000 		.4byte	.LCFI2
 1314 009c 30000000 		.4byte	.LFE120
 1315 00a0 0200     		.2byte	0x2
 1316 00a2 7D       		.byte	0x7d
 1317 00a3 08       		.sleb128 8
 1318 00a4 00000000 		.4byte	0
 1319 00a8 00000000 		.4byte	0
 1320              	.LLST7:
 1321 00ac 00000000 		.4byte	.LVL12
 1322 00b0 0D000000 		.4byte	.LVL15-1
 1323 00b4 0100     		.2byte	0x1
 1324 00b6 50       		.byte	0x50
 1325 00b7 0D000000 		.4byte	.LVL15-1
 1326 00bb 30000000 		.4byte	.LFE120
 1327 00bf 0400     		.2byte	0x4
 1328 00c1 F3       		.byte	0xf3
 1329 00c2 01       		.uleb128 0x1
 1330 00c3 50       		.byte	0x50
 1331 00c4 9F       		.byte	0x9f
 1332 00c5 00000000 		.4byte	0
 1333 00c9 00000000 		.4byte	0
 1334              	.LLST8:
 1335 00cd 0A000000 		.4byte	.LVL14
 1336 00d1 0D000000 		.4byte	.LVL15-1
 1337 00d5 0100     		.2byte	0x1
 1338 00d7 53       		.byte	0x53
 1339 00d8 00000000 		.4byte	0
 1340 00dc 00000000 		.4byte	0
 1341              	.LLST9:
 1342 00e0 2E000000 		.4byte	.LVL18
 1343 00e4 30000000 		.4byte	.LFE120
 1344 00e8 0100     		.2byte	0x1
 1345 00ea 53       		.byte	0x53
 1346 00eb 00000000 		.4byte	0
 1347 00ef 00000000 		.4byte	0
 1348              	.LLST10:
 1349 00f3 00000000 		.4byte	.LFB121
 1350 00f7 02000000 		.4byte	.LCFI3
 1351 00fb 0200     		.2byte	0x2
 1352 00fd 7D       		.byte	0x7d
 1353 00fe 00       		.sleb128 0
 1354 00ff 02000000 		.4byte	.LCFI3
 1355 0103 34000000 		.4byte	.LFE121
 1356 0107 0200     		.2byte	0x2
 1357 0109 7D       		.byte	0x7d
 1358 010a 08       		.sleb128 8
 1359 010b 00000000 		.4byte	0
 1360 010f 00000000 		.4byte	0
 1361              	.LLST11:
ARM GAS  /tmp/cckvhpyF.s 			page 25


 1362 0113 00000000 		.4byte	.LVL19
 1363 0117 0D000000 		.4byte	.LVL22-1
 1364 011b 0100     		.2byte	0x1
 1365 011d 50       		.byte	0x50
 1366 011e 0D000000 		.4byte	.LVL22-1
 1367 0122 0E000000 		.4byte	.LVL22
 1368 0126 0400     		.2byte	0x4
 1369 0128 F3       		.byte	0xf3
 1370 0129 01       		.uleb128 0x1
 1371 012a 50       		.byte	0x50
 1372 012b 9F       		.byte	0x9f
 1373 012c 0E000000 		.4byte	.LVL22
 1374 0130 34000000 		.4byte	.LFE121
 1375 0134 0700     		.2byte	0x7
 1376 0136 74       		.byte	0x74
 1377 0137 00       		.sleb128 0
 1378 0138 0A       		.byte	0xa
 1379 0139 FF0F     		.2byte	0xfff
 1380 013b 1A       		.byte	0x1a
 1381 013c 9F       		.byte	0x9f
 1382 013d 00000000 		.4byte	0
 1383 0141 00000000 		.4byte	0
 1384              	.LLST12:
 1385 0145 0A000000 		.4byte	.LVL21
 1386 0149 0D000000 		.4byte	.LVL22-1
 1387 014d 0100     		.2byte	0x1
 1388 014f 53       		.byte	0x53
 1389 0150 00000000 		.4byte	0
 1390 0154 00000000 		.4byte	0
 1391              	.LLST13:
 1392 0158 32000000 		.4byte	.LVL25
 1393 015c 34000000 		.4byte	.LFE121
 1394 0160 0100     		.2byte	0x1
 1395 0162 53       		.byte	0x53
 1396 0163 00000000 		.4byte	0
 1397 0167 00000000 		.4byte	0
 1398              	.LLST14:
 1399 016b 00000000 		.4byte	.LFB122
 1400 016f 02000000 		.4byte	.LCFI4
 1401 0173 0200     		.2byte	0x2
 1402 0175 7D       		.byte	0x7d
 1403 0176 00       		.sleb128 0
 1404 0177 02000000 		.4byte	.LCFI4
 1405 017b 2A000000 		.4byte	.LFE122
 1406 017f 0200     		.2byte	0x2
 1407 0181 7D       		.byte	0x7d
 1408 0182 08       		.sleb128 8
 1409 0183 00000000 		.4byte	0
 1410 0187 00000000 		.4byte	0
 1411              		.section	.debug_aranges,"",%progbits
 1412 0000 3C000000 		.4byte	0x3c
 1413 0004 0200     		.2byte	0x2
 1414 0006 00000000 		.4byte	.Ldebug_info0
 1415 000a 04       		.byte	0x4
 1416 000b 00       		.byte	0
 1417 000c 0000     		.2byte	0
 1418 000e 0000     		.2byte	0
ARM GAS  /tmp/cckvhpyF.s 			page 26


 1419 0010 00000000 		.4byte	.LFB118
 1420 0014 26000000 		.4byte	.LFE118-.LFB118
 1421 0018 00000000 		.4byte	.LFB119
 1422 001c 26000000 		.4byte	.LFE119-.LFB119
 1423 0020 00000000 		.4byte	.LFB120
 1424 0024 30000000 		.4byte	.LFE120-.LFB120
 1425 0028 00000000 		.4byte	.LFB121
 1426 002c 34000000 		.4byte	.LFE121-.LFB121
 1427 0030 00000000 		.4byte	.LFB122
 1428 0034 2A000000 		.4byte	.LFE122-.LFB122
 1429 0038 00000000 		.4byte	0
 1430 003c 00000000 		.4byte	0
 1431              		.section	.debug_ranges,"",%progbits
 1432              	.Ldebug_ranges0:
 1433 0000 02000000 		.4byte	.LBB6
 1434 0004 04000000 		.4byte	.LBE6
 1435 0008 06000000 		.4byte	.LBB7
 1436 000c 0A000000 		.4byte	.LBE7
 1437 0010 00000000 		.4byte	0
 1438 0014 00000000 		.4byte	0
 1439 0018 02000000 		.4byte	.LBB9
 1440 001c 04000000 		.4byte	.LBE9
 1441 0020 06000000 		.4byte	.LBB10
 1442 0024 0A000000 		.4byte	.LBE10
 1443 0028 00000000 		.4byte	0
 1444 002c 00000000 		.4byte	0
 1445 0030 00000000 		.4byte	.LFB118
 1446 0034 26000000 		.4byte	.LFE118
 1447 0038 00000000 		.4byte	.LFB119
 1448 003c 26000000 		.4byte	.LFE119
 1449 0040 00000000 		.4byte	.LFB120
 1450 0044 30000000 		.4byte	.LFE120
 1451 0048 00000000 		.4byte	.LFB121
 1452 004c 34000000 		.4byte	.LFE121
 1453 0050 00000000 		.4byte	.LFB122
 1454 0054 2A000000 		.4byte	.LFE122
 1455 0058 00000000 		.4byte	0
 1456 005c 00000000 		.4byte	0
 1457              		.section	.debug_line,"",%progbits
 1458              	.Ldebug_line0:
 1459 0000 DC010000 		.section	.debug_str,"MS",%progbits,1
 1459      02006C01 
 1459      00000201 
 1459      FB0E0D00 
 1459      01010101 
 1460              	.LASF31:
 1461 0000 41484231 		.ascii	"AHB1LPENR\000"
 1461      4C50454E 
 1461      5200
 1462              	.LASF21:
 1463 000a 41504231 		.ascii	"APB1RSTR\000"
 1463      52535452 
 1463      00
 1464              	.LASF25:
 1465 0013 41484232 		.ascii	"AHB2ENR\000"
 1465      454E5200 
 1466              	.LASF14:
ARM GAS  /tmp/cckvhpyF.s 			page 27


 1467 001b 49574447 		.ascii	"IWDG_TypeDef\000"
 1467      5F547970 
 1467      65446566 
 1467      00
 1468              	.LASF12:
 1469 0028 73697A65 		.ascii	"sizetype\000"
 1469      74797065 
 1469      00
 1470              	.LASF38:
 1471 0031 42444352 		.ascii	"BDCR\000"
 1471      00
 1472              	.LASF41:
 1473 0036 504C4C49 		.ascii	"PLLI2SCFGR\000"
 1473      32534346 
 1473      475200
 1474              	.LASF51:
 1475 0041 69776467 		.ascii	"iwdg_lld_init\000"
 1475      5F6C6C64 
 1475      5F696E69 
 1475      7400
 1476              	.LASF40:
 1477 004f 53534347 		.ascii	"SSCGR\000"
 1477      5200
 1478              	.LASF50:
 1479 0055 69776467 		.ascii	"iwdg_ps_val\000"
 1479      5F70735F 
 1479      76616C00 
 1480              	.LASF3:
 1481 0061 73686F72 		.ascii	"short int\000"
 1481      7420696E 
 1481      7400
 1482              	.LASF60:
 1483 006b 2F686F6D 		.ascii	"/home/david/Projects/stm32/src/pressure_sensor\000"
 1483      652F6461 
 1483      7669642F 
 1483      50726F6A 
 1483      65637473 
 1484              	.LASF16:
 1485 009a 43464752 		.ascii	"CFGR\000"
 1485      00
 1486              	.LASF33:
 1487 009f 41484233 		.ascii	"AHB3LPENR\000"
 1487      4C50454E 
 1487      5200
 1488              	.LASF49:
 1489 00a9 49574447 		.ascii	"IWDG_PS_DIV256\000"
 1489      5F50535F 
 1489      44495632 
 1489      353600
 1490              	.LASF28:
 1491 00b8 41504231 		.ascii	"APB1ENR\000"
 1491      454E5200 
 1492              	.LASF8:
 1493 00c0 75696E74 		.ascii	"uint32_t\000"
 1493      33325F74 
 1493      00
 1494              	.LASF47:
ARM GAS  /tmp/cckvhpyF.s 			page 28


 1495 00c9 49574447 		.ascii	"IWDG_PS_DIV64\000"
 1495      5F50535F 
 1495      44495636 
 1495      3400
 1496              	.LASF26:
 1497 00d7 41484233 		.ascii	"AHB3ENR\000"
 1497      454E5200 
 1498              	.LASF10:
 1499 00df 6C6F6E67 		.ascii	"long long int\000"
 1499      206C6F6E 
 1499      6720696E 
 1499      7400
 1500              	.LASF7:
 1501 00ed 6C6F6E67 		.ascii	"long int\000"
 1501      20696E74 
 1501      00
 1502              	.LASF42:
 1503 00f6 5243435F 		.ascii	"RCC_TypeDef\000"
 1503      54797065 
 1503      44656600 
 1504              	.LASF22:
 1505 0102 41504232 		.ascii	"APB2RSTR\000"
 1505      52535452 
 1505      00
 1506              	.LASF46:
 1507 010b 49574447 		.ascii	"IWDG_PS_DIV32\000"
 1507      5F50535F 
 1507      44495633 
 1507      3200
 1508              	.LASF2:
 1509 0119 756E7369 		.ascii	"unsigned char\000"
 1509      676E6564 
 1509      20636861 
 1509      7200
 1510              	.LASF57:
 1511 0127 6462675F 		.ascii	"dbg_check_unlock\000"
 1511      63686563 
 1511      6B5F756E 
 1511      6C6F636B 
 1511      00
 1512              	.LASF29:
 1513 0138 41504232 		.ascii	"APB2ENR\000"
 1513      454E5200 
 1514              	.LASF1:
 1515 0140 7369676E 		.ascii	"signed char\000"
 1515      65642063 
 1515      68617200 
 1516              	.LASF56:
 1517 014c 6462675F 		.ascii	"dbg_check_lock\000"
 1517      63686563 
 1517      6B5F6C6F 
 1517      636B00
 1518              	.LASF11:
 1519 015b 6C6F6E67 		.ascii	"long long unsigned int\000"
 1519      206C6F6E 
 1519      6720756E 
 1519      7369676E 
ARM GAS  /tmp/cckvhpyF.s 			page 29


 1519      65642069 
 1520              	.LASF53:
 1521 0172 69776467 		.ascii	"iwdg_lld_set_prescale\000"
 1521      5F6C6C64 
 1521      5F736574 
 1521      5F707265 
 1521      7363616C 
 1522              	.LASF0:
 1523 0188 756E7369 		.ascii	"unsigned int\000"
 1523      676E6564 
 1523      20696E74 
 1523      00
 1524              	.LASF18:
 1525 0195 41484232 		.ascii	"AHB2RSTR\000"
 1525      52535452 
 1525      00
 1526              	.LASF48:
 1527 019e 49574447 		.ascii	"IWDG_PS_DIV128\000"
 1527      5F50535F 
 1527      44495631 
 1527      323800
 1528              	.LASF9:
 1529 01ad 6C6F6E67 		.ascii	"long unsigned int\000"
 1529      20756E73 
 1529      69676E65 
 1529      6420696E 
 1529      7400
 1530              	.LASF15:
 1531 01bf 504C4C43 		.ascii	"PLLCFGR\000"
 1531      46475200 
 1532              	.LASF4:
 1533 01c7 73686F72 		.ascii	"short unsigned int\000"
 1533      7420756E 
 1533      7369676E 
 1533      65642069 
 1533      6E7400
 1534              	.LASF35:
 1535 01da 41504231 		.ascii	"APB1LPENR\000"
 1535      4C50454E 
 1535      5200
 1536              	.LASF13:
 1537 01e4 63686172 		.ascii	"char\000"
 1537      00
 1538              	.LASF5:
 1539 01e9 75696E74 		.ascii	"uint16_t\000"
 1539      31365F74 
 1539      00
 1540              	.LASF6:
 1541 01f2 696E7433 		.ascii	"int32_t\000"
 1541      325F7400 
 1542              	.LASF59:
 1543 01fa 2E2E2F63 		.ascii	"../common/iwdg_lld.c\000"
 1543      6F6D6D6F 
 1543      6E2F6977 
 1543      64675F6C 
 1543      6C642E63 
 1544              	.LASF32:
ARM GAS  /tmp/cckvhpyF.s 			page 30


 1545 020f 41484232 		.ascii	"AHB2LPENR\000"
 1545      4C50454E 
 1545      5200
 1546              	.LASF20:
 1547 0219 52455345 		.ascii	"RESERVED0\000"
 1547      52564544 
 1547      3000
 1548              	.LASF23:
 1549 0223 52455345 		.ascii	"RESERVED1\000"
 1549      52564544 
 1549      3100
 1550              	.LASF27:
 1551 022d 52455345 		.ascii	"RESERVED2\000"
 1551      52564544 
 1551      3200
 1552              	.LASF30:
 1553 0237 52455345 		.ascii	"RESERVED3\000"
 1553      52564544 
 1553      3300
 1554              	.LASF34:
 1555 0241 52455345 		.ascii	"RESERVED4\000"
 1555      52564544 
 1555      3400
 1556              	.LASF37:
 1557 024b 52455345 		.ascii	"RESERVED5\000"
 1557      52564544 
 1557      3500
 1558              	.LASF39:
 1559 0255 52455345 		.ascii	"RESERVED6\000"
 1559      52564544 
 1559      3600
 1560              	.LASF54:
 1561 025f 69776467 		.ascii	"iwdg_lld_set_reloadval\000"
 1561      5F6C6C64 
 1561      5F736574 
 1561      5F72656C 
 1561      6F616476 
 1562              	.LASF24:
 1563 0276 41484231 		.ascii	"AHB1ENR\000"
 1563      454E5200 
 1564              	.LASF58:
 1565 027e 474E5520 		.ascii	"GNU C 4.7.2\000"
 1565      4320342E 
 1565      372E3200 
 1566              	.LASF55:
 1567 028a 69776467 		.ascii	"iwdg_begin\000"
 1567      5F626567 
 1567      696E00
 1568              	.LASF17:
 1569 0295 41484231 		.ascii	"AHB1RSTR\000"
 1569      52535452 
 1569      00
 1570              	.LASF43:
 1571 029e 49574447 		.ascii	"IWDG_PS_DIV4\000"
 1571      5F50535F 
 1571      44495634 
 1571      00
ARM GAS  /tmp/cckvhpyF.s 			page 31


 1572              	.LASF19:
 1573 02ab 41484233 		.ascii	"AHB3RSTR\000"
 1573      52535452 
 1573      00
 1574              	.LASF44:
 1575 02b4 49574447 		.ascii	"IWDG_PS_DIV8\000"
 1575      5F50535F 
 1575      44495638 
 1575      00
 1576              	.LASF61:
 1577 02c1 49544D5F 		.ascii	"ITM_RxBuffer\000"
 1577      52784275 
 1577      66666572 
 1577      00
 1578              	.LASF45:
 1579 02ce 49574447 		.ascii	"IWDG_PS_DIV16\000"
 1579      5F50535F 
 1579      44495631 
 1579      3600
 1580              	.LASF36:
 1581 02dc 41504232 		.ascii	"APB2LPENR\000"
 1581      4C50454E 
 1581      5200
 1582              	.LASF52:
 1583 02e6 69776467 		.ascii	"iwdg_lld_reload\000"
 1583      5F6C6C64 
 1583      5F72656C 
 1583      6F616400 
 1584              		.ident	"GCC: (crosstool-NG 1.17.0 - PSAS ST32F4 GFE) 4.7.2"
ARM GAS  /tmp/cckvhpyF.s 			page 32


DEFINED SYMBOLS
                            *ABS*:0000000000000000 iwdg_lld.c
     /tmp/cckvhpyF.s:21     .text.iwdg_lld_init:0000000000000000 $t
     /tmp/cckvhpyF.s:27     .text.iwdg_lld_init:0000000000000000 iwdg_lld_init
     /tmp/cckvhpyF.s:73     .text.iwdg_lld_reload:0000000000000000 $t
     /tmp/cckvhpyF.s:79     .text.iwdg_lld_reload:0000000000000000 iwdg_lld_reload
     /tmp/cckvhpyF.s:124    .text.iwdg_lld_set_prescale:0000000000000000 $t
     /tmp/cckvhpyF.s:130    .text.iwdg_lld_set_prescale:0000000000000000 iwdg_lld_set_prescale
     /tmp/cckvhpyF.s:187    .text.iwdg_lld_set_reloadval:0000000000000000 $t
     /tmp/cckvhpyF.s:193    .text.iwdg_lld_set_reloadval:0000000000000000 iwdg_lld_set_reloadval
     /tmp/cckvhpyF.s:255    .text.iwdg_begin:0000000000000000 $t
     /tmp/cckvhpyF.s:261    .text.iwdg_begin:0000000000000000 iwdg_begin
                     .debug_frame:0000000000000010 $d

UNDEFINED SYMBOLS
dbg_check_lock
dbg_check_unlock
