ARM GAS  /tmp/cc6hfLjm.s 			page 1


   1              		.syntax unified
   2              		.cpu cortex-m4
   3              		.eabi_attribute 27, 3
   4              		.eabi_attribute 28, 1
   5              		.fpu fpv4-sp-d16
   6              		.eabi_attribute 20, 1
   7              		.eabi_attribute 21, 1
   8              		.eabi_attribute 23, 3
   9              		.eabi_attribute 24, 1
  10              		.eabi_attribute 25, 1
  11              		.eabi_attribute 26, 1
  12              		.eabi_attribute 30, 2
  13              		.eabi_attribute 34, 1
  14              		.eabi_attribute 18, 4
  15              		.thumb
  16              		.file	"mac_lld.c"
  17              		.text
  18              	.Ltext0:
  19              		.cfi_sections	.debug_frame
  20              		.section	.text.mac_lld_set_address,"ax",%progbits
  21              		.align	2
  22              		.p2align 4,,15
  23              		.thumb
  24              		.thumb_func
  25              		.type	mac_lld_set_address, %function
  26              	mac_lld_set_address:
  27              	.LFB121:
  28              		.file 1 "../../ChibiOS/os/hal/platforms/STM32/mac_lld.c"
  29              		.loc 1 152 0
  30              		.cfi_startproc
  31              		@ args = 0, pretend = 0, frame = 0
  32              		@ frame_needed = 0, uses_anonymous_args = 0
  33              		@ link register save eliminated.
  34              	.LVL0:
  35 0000 30B4     		push	{r4, r5}
  36              	.LCFI0:
  37              		.cfi_def_cfa_offset 8
  38              		.cfi_offset 4, -8
  39              		.cfi_offset 5, -4
  40              		.loc 1 156 0
  41 0002 4FF40043 		mov	r3, #32768
  42 0006 4179     		ldrb	r1, [r0, #5]	@ zero_extendqisi2
  43              		.loc 1 157 0
  44 0008 0279     		ldrb	r2, [r0, #4]	@ zero_extendqisi2
  45              		.loc 1 156 0
  46 000a C4F20203 		movt	r3, 16386
  47 000e 42EA0122 		orr	r2, r2, r1, lsl #8
  48 0012 1A64     		str	r2, [r3, #64]
  49              		.loc 1 159 0
  50 0014 8478     		ldrb	r4, [r0, #2]	@ zero_extendqisi2
  51              		.loc 1 158 0
  52 0016 C178     		ldrb	r1, [r0, #3]	@ zero_extendqisi2
  53              		.loc 1 161 0
  54 0018 0278     		ldrb	r2, [r0, #0]	@ zero_extendqisi2
  55              		.loc 1 160 0
  56 001a 4578     		ldrb	r5, [r0, #1]	@ zero_extendqisi2
  57              		.loc 1 159 0
ARM GAS  /tmp/cc6hfLjm.s 			page 2


  58 001c 2404     		lsls	r4, r4, #16
  59              		.loc 1 158 0
  60 001e 44EA0164 		orr	r4, r4, r1, lsl #24
  61              		.loc 1 159 0
  62 0022 1443     		orrs	r4, r4, r2
  63              		.loc 1 162 0
  64 0024 4FF6FF71 		movw	r1, #65535
  65              		.loc 1 163 0
  66 0028 4FF0FF32 		mov	r2, #-1
  67              		.loc 1 168 0
  68 002c 0020     		movs	r0, #0
  69              	.LVL1:
  70              		.loc 1 160 0
  71 002e 44EA0524 		orr	r4, r4, r5, lsl #8
  72              		.loc 1 158 0
  73 0032 5C64     		str	r4, [r3, #68]
  74              		.loc 1 162 0
  75 0034 9964     		str	r1, [r3, #72]
  76              		.loc 1 163 0
  77 0036 DA64     		str	r2, [r3, #76]
  78              		.loc 1 164 0
  79 0038 1965     		str	r1, [r3, #80]
  80              		.loc 1 165 0
  81 003a 5A65     		str	r2, [r3, #84]
  82              		.loc 1 166 0
  83 003c 9965     		str	r1, [r3, #88]
  84              		.loc 1 167 0
  85 003e DA65     		str	r2, [r3, #92]
  86              		.loc 1 168 0
  87 0040 9860     		str	r0, [r3, #8]
  88              		.loc 1 169 0
  89 0042 D860     		str	r0, [r3, #12]
  90              		.loc 1 170 0
  91 0044 30BC     		pop	{r4, r5}
  92 0046 7047     		bx	lr
  93              		.cfi_endproc
  94              	.LFE121:
  95              		.size	mac_lld_set_address, .-mac_lld_set_address
  96 0048 AFF30080 		.section	.text.Vector134,"ax",%progbits
  96      AFF30080 
  97              		.align	2
  98              		.p2align 4,,15
  99              		.global	Vector134
 100              		.thumb
 101              		.thumb_func
 102              		.type	Vector134, %function
 103              	Vector134:
 104              	.LFB122:
 105              		.loc 1 176 0
 106              		.cfi_startproc
 107              		@ args = 0, pretend = 0, frame = 0
 108              		@ frame_needed = 0, uses_anonymous_args = 0
 109 0000 10B5     		push	{r4, lr}
 110              	.LCFI1:
 111              		.cfi_def_cfa_offset 8
 112              		.cfi_offset 4, -8
 113              		.cfi_offset 14, -4
ARM GAS  /tmp/cc6hfLjm.s 			page 3


 114              		.loc 1 179 0
 115 0002 FFF7FEFF 		bl	dbg_check_enter_isr
 116              	.LVL2:
 117              		.loc 1 181 0
 118 0006 4FF41043 		mov	r3, #36864
 119 000a C4F20203 		movt	r3, 16386
 120 000e 5C69     		ldr	r4, [r3, #20]
 121              	.LVL3:
 122              		.loc 1 184 0
 123 0010 6206     		lsls	r2, r4, #25
 124              		.loc 1 182 0
 125 0012 5C61     		str	r4, [r3, #20]
 126              		.loc 1 184 0
 127 0014 15D4     		bmi	.L12
 128              	.LVL4:
 129              	.L3:
 130              		.loc 1 194 0
 131 0016 E307     		lsls	r3, r4, #31
 132              	.LVL5:
 133 0018 0DD5     		bpl	.L4
 134              	.LBB35:
 135              		.loc 1 196 0
 136 001a 2023     		movs	r3, #32
 137              	.LVL6:
 138              	@ 196 "../../ChibiOS/os/hal/platforms/STM32/mac_lld.c" 1
 139 001c 83F31188 		msr     BASEPRI, r3
 140              	@ 0 "" 2
 141              	.LVL7:
 142              		.thumb
 143              	.LBE35:
 144 0020 FFF7FEFF 		bl	dbg_check_lock_from_isr
 145              	.LVL8:
 146              		.loc 1 197 0
 147 0024 1048     		ldr	r0, .L13
 148 0026 0021     		movs	r1, #0
 149 0028 FFF7FEFF 		bl	chSemResetI
 150              	.LVL9:
 151              		.loc 1 198 0
 152 002c FFF7FEFF 		bl	dbg_check_unlock_from_isr
 153              	.LVL10:
 154              	.LBB36:
 155 0030 0023     		movs	r3, #0
 156              	.LVL11:
 157              	@ 198 "../../ChibiOS/os/hal/platforms/STM32/mac_lld.c" 1
 158 0032 83F31188 		msr     BASEPRI, r3
 159              	@ 0 "" 2
 160              	.LVL12:
 161              		.thumb
 162              	.L4:
 163              	.LBE36:
 164              		.loc 1 201 0
 165 0036 FFF7FEFF 		bl	dbg_check_leave_isr
 166              	.LVL13:
 167              		.loc 1 202 0
 168 003a BDE81040 		pop	{r4, lr}
 169              		.loc 1 201 0
 170 003e FFF7FEBF 		b	_port_irq_epilogue
ARM GAS  /tmp/cc6hfLjm.s 			page 4


 171              	.LVL14:
 172              	.L12:
 173              	.LBB37:
 174              		.loc 1 186 0
 175 0042 2023     		movs	r3, #32
 176              	.LVL15:
 177              	@ 186 "../../ChibiOS/os/hal/platforms/STM32/mac_lld.c" 1
 178 0044 83F31188 		msr     BASEPRI, r3
 179              	@ 0 "" 2
 180              	.LVL16:
 181              		.thumb
 182              	.LBE37:
 183 0048 FFF7FEFF 		bl	dbg_check_lock_from_isr
 184              	.LVL17:
 185              		.loc 1 187 0
 186 004c 0021     		movs	r1, #0
 187 004e 0748     		ldr	r0, .L13+4
 188 0050 FFF7FEFF 		bl	chSemResetI
 189              	.LVL18:
 190              		.loc 1 189 0
 191 0054 0648     		ldr	r0, .L13+8
 192 0056 0021     		movs	r1, #0
 193 0058 FFF7FEFF 		bl	chEvtBroadcastFlagsI
 194              	.LVL19:
 195              		.loc 1 191 0
 196 005c FFF7FEFF 		bl	dbg_check_unlock_from_isr
 197              	.LVL20:
 198              	.LBB38:
 199 0060 0023     		movs	r3, #0
 200              	@ 191 "../../ChibiOS/os/hal/platforms/STM32/mac_lld.c" 1
 201 0062 83F31188 		msr     BASEPRI, r3
 202              	@ 0 "" 2
 203              	.LVL21:
 204              		.thumb
 205 0066 D6E7     		b	.L3
 206              	.L14:
 207              		.align	2
 208              	.L13:
 209 0068 08000000 		.word	.LANCHOR0+8
 210 006c 14000000 		.word	.LANCHOR0+20
 211 0070 20000000 		.word	.LANCHOR0+32
 212              	.LBE38:
 213              		.cfi_endproc
 214              	.LFE122:
 215              		.size	Vector134, .-Vector134
 216 0074 AFF30080 		.section	.text.mac_lld_init,"ax",%progbits
 216      AFF30080 
 216      AFF30080 
 217              		.align	2
 218              		.p2align 4,,15
 219              		.global	mac_lld_init
 220              		.thumb
 221              		.thumb_func
 222              		.type	mac_lld_init, %function
 223              	mac_lld_init:
 224              	.LFB123:
 225              		.loc 1 213 0
ARM GAS  /tmp/cc6hfLjm.s 			page 5


 226              		.cfi_startproc
 227              		@ args = 0, pretend = 0, frame = 0
 228              		@ frame_needed = 0, uses_anonymous_args = 0
 229 0000 2DE9F843 		push	{r3, r4, r5, r6, r7, r8, r9, lr}
 230              	.LCFI2:
 231              		.cfi_def_cfa_offset 32
 232              		.cfi_offset 3, -32
 233              		.cfi_offset 4, -28
 234              		.cfi_offset 5, -24
 235              		.cfi_offset 6, -20
 236              		.cfi_offset 7, -16
 237              		.cfi_offset 8, -12
 238              		.cfi_offset 9, -8
 239              		.cfi_offset 14, -4
 240              		.loc 1 216 0
 241 0004 5F4E     		ldr	r6, .L42
 242 0006 DFF88C81 		ldr	r8, .L42+16
 243 000a 3046     		mov	r0, r6
 244 000c FFF7FEFF 		bl	macObjectInit
 245              	.LVL22:
 246              		.loc 1 217 0
 247 0010 0023     		movs	r3, #0
 248 0012 5D48     		ldr	r0, .L42+4
 249 0014 7362     		str	r3, [r6, #36]
 250              	.LVL23:
 251              		.loc 1 222 0
 252 0016 44F2F25C 		movw	ip, #17906
 253              		.loc 1 223 0
 254 001a 40F2F45E 		movw	lr, #1524
 255              	.LVL24:
 256              	.L16:
 257              		.loc 1 224 0 discriminator 2
 258 001e 591C     		adds	r1, r3, #1
 259              		.loc 1 222 0 discriminator 2
 260 0020 00EB0312 		add	r2, r0, r3, lsl #4
 261              		.loc 1 224 0 discriminator 2
 262 0024 01F00305 		and	r5, r1, #3
 263              		.loc 1 223 0 discriminator 2
 264 0028 0EFB0387 		mla	r7, lr, r3, r8
 265              		.loc 1 224 0 discriminator 2
 266 002c 00EB0515 		add	r5, r0, r5, lsl #4
 267              		.loc 1 221 0 discriminator 2
 268 0030 0429     		cmp	r1, #4
 269              		.loc 1 222 0 discriminator 2
 270 0032 C2F804C0 		str	ip, [r2, #4]
 271              		.loc 1 221 0 discriminator 2
 272 0036 0B46     		mov	r3, r1
 273              		.loc 1 223 0 discriminator 2
 274 0038 9760     		str	r7, [r2, #8]
 275              		.loc 1 224 0 discriminator 2
 276 003a D560     		str	r5, [r2, #12]
 277              	.LVL25:
 278              		.loc 1 221 0 discriminator 2
 279 003c EFD1     		bne	.L16
 280              	.LVL26:
 281              		.loc 1 227 0 discriminator 1
 282 003e 534B     		ldr	r3, .L42+8
ARM GAS  /tmp/cc6hfLjm.s 			page 6


 283              		.loc 1 228 0 discriminator 1
 284 0040 5348     		ldr	r0, .L42+12
 285              		.loc 1 241 0 discriminator 1
 286 0042 4FF46051 		mov	r1, #14336
 287              		.loc 1 227 0 discriminator 1
 288 0046 0022     		movs	r2, #0
 289              		.loc 1 241 0 discriminator 1
 290 0048 C4F20101 		movt	r1, 16385
 291              		.loc 1 228 0 discriminator 1
 292 004c 00F2F454 		addw	r4, r0, #1524
 293              		.loc 1 229 0 discriminator 1
 294 0050 03F11005 		add	r5, r3, #16
 295              		.loc 1 227 0 discriminator 1
 296 0054 5A60     		str	r2, [r3, #4]
 297              		.loc 1 228 0 discriminator 1
 298 0056 9860     		str	r0, [r3, #8]
 299              		.loc 1 229 0 discriminator 1
 300 0058 DD60     		str	r5, [r3, #12]
 301              	.LVL27:
 302              		.loc 1 227 0 discriminator 1
 303 005a 5A61     		str	r2, [r3, #20]
 304              		.loc 1 228 0 discriminator 1
 305 005c 9C61     		str	r4, [r3, #24]
 306              		.loc 1 229 0 discriminator 1
 307 005e DB61     		str	r3, [r3, #28]
 308              	.LVL28:
 309              		.loc 1 241 0 discriminator 1
 310 0060 4868     		ldr	r0, [r1, #4]
 311              		.loc 1 250 0 discriminator 1
 312 0062 4FF46053 		mov	r3, #14336
 313 0066 C4F20203 		movt	r3, 16386
 314              		.loc 1 241 0 discriminator 1
 315 006a 40F40000 		orr	r0, r0, #8388608
 316 006e 4860     		str	r0, [r1, #4]
 317              		.loc 1 250 0 discriminator 1
 318 0070 1969     		ldr	r1, [r3, #16]
 319 0072 41F00071 		orr	r1, r1, #33554432
 320 0076 1961     		str	r1, [r3, #16]
 321 0078 1A61     		str	r2, [r3, #16]
 322              		.loc 1 253 0 discriminator 1
 323 007a 196B     		ldr	r1, [r3, #48]
 324              	.LBB53:
 325              	.LBB54:
 326              		.loc 1 126 0 discriminator 1
 327 007c 4FF48052 		mov	r2, #4096
 328              	.LBE54:
 329              	.LBE53:
 330              		.loc 1 253 0 discriminator 1
 331 0080 41F06061 		orr	r1, r1, #234881024
 332              	.LBB63:
 333              	.LBB61:
 334              		.loc 1 126 0 discriminator 1
 335 0084 CEF20002 		movt	r2, 57344
 336              	.LBE61:
 337              	.LBE63:
 338              		.loc 1 253 0 discriminator 1
 339 0088 1963     		str	r1, [r3, #48]
ARM GAS  /tmp/cc6hfLjm.s 			page 7


 340              	.LVL29:
 341              	.LBB64:
 342              	.LBB62:
 343              		.loc 1 126 0 discriminator 1
 344 008a 5768     		ldr	r7, [r2, #4]
 345              	.LVL30:
 346              		.loc 1 127 0 discriminator 1
 347 008c 07F18078 		add	r8, r7, #16777216
 348 0090 08F5B248 		add	r8, r8, #22784
 349              	.LVL31:
 350              		.loc 1 132 0 discriminator 1
 351 0094 4FF40044 		mov	r4, #32768
 352              		.loc 1 128 0 discriminator 1
 353 0098 3846     		mov	r0, r7
 354 009a 4146     		mov	r1, r8
 355              		.loc 1 132 0 discriminator 1
 356 009c C4F20204 		movt	r4, 16386
 357              		.loc 1 133 0 discriminator 1
 358 00a0 41F21069 		movw	r9, #5648
 359              		.loc 1 128 0 discriminator 1
 360 00a4 FFF7FEFF 		bl	halIsCounterWithin
 361              	.LVL32:
 362 00a8 E0B1     		cbz	r0, .L41
 363              	.L30:
 364              		.loc 1 128 0 is_stmt 0
 365 00aa 0025     		movs	r5, #0
 366              	.L20:
 367              		.loc 1 131 0 is_stmt 1
 368 00ac E902     		lsls	r1, r5, #11
 369              		.loc 1 132 0
 370 00ae AA01     		lsls	r2, r5, #6
 371 00b0 42F01002 		orr	r2, r2, #16
 372              	.LBB55:
 373              	.LBB56:
 374              		.loc 1 110 0
 375 00b4 41F09103 		orr	r3, r1, #145
 376              	.LBE56:
 377              	.LBE55:
 378              		.loc 1 132 0
 379 00b8 6261     		str	r2, [r4, #20]
 380              	.LVL33:
 381              	.LBB58:
 382              	.LBB57:
 383              		.loc 1 110 0
 384 00ba 2361     		str	r3, [r4, #16]
 385              	.L18:
 386              		.loc 1 111 0
 387 00bc 2269     		ldr	r2, [r4, #16]
 388 00be 4FF40043 		mov	r3, #32768
 389 00c2 D007     		lsls	r0, r2, #31
 390 00c4 C4F20203 		movt	r3, 16386
 391 00c8 F8D4     		bmi	.L18
 392              		.loc 1 113 0
 393 00ca 5A69     		ldr	r2, [r3, #20]
 394              	.LBE57:
 395              	.LBE58:
 396              		.loc 1 133 0
ARM GAS  /tmp/cc6hfLjm.s 			page 8


 397 00cc 222A     		cmp	r2, #34
 398 00ce 0DD0     		beq	.L19
 399              	.L23:
 400              		.loc 1 130 0
 401 00d0 0135     		adds	r5, r5, #1
 402              	.LVL34:
 403 00d2 1F2D     		cmp	r5, #31
 404 00d4 EAD1     		bne	.L20
 405 00d6 B162     		str	r1, [r6, #40]
 406              		.loc 1 128 0
 407 00d8 3846     		mov	r0, r7
 408 00da 4146     		mov	r1, r8
 409 00dc FFF7FEFF 		bl	halIsCounterWithin
 410              	.LVL35:
 411 00e0 0028     		cmp	r0, #0
 412 00e2 E2D1     		bne	.L30
 413              	.LVL36:
 414              	.L41:
 415              		.loc 1 142 0
 416 00e4 FFF7FEFF 		bl	port_halt
 417              	.LVL37:
 418 00e8 B16A     		ldr	r1, [r6, #40]
 419 00ea 10E0     		b	.L24
 420              	.LVL38:
 421              	.L19:
 422              	.LBB59:
 423              	.LBB60:
 424              		.loc 1 110 0
 425 00ec 41F0D102 		orr	r2, r1, #209
 426 00f0 1A61     		str	r2, [r3, #16]
 427              	.L22:
 428              		.loc 1 111 0
 429 00f2 2269     		ldr	r2, [r4, #16]
 430 00f4 4FF40043 		mov	r3, #32768
 431 00f8 D207     		lsls	r2, r2, #31
 432 00fa C4F20203 		movt	r3, 16386
 433 00fe F8D4     		bmi	.L22
 434              		.loc 1 113 0
 435 0100 5A69     		ldr	r2, [r3, #20]
 436              	.LBE60:
 437              	.LBE59:
 438              		.loc 1 134 0
 439 0102 4FF6F073 		movw	r3, #65520
 440 0106 1340     		ands	r3, r3, r2
 441              		.loc 1 133 0
 442 0108 4B45     		cmp	r3, r9
 443 010a E1D1     		bne	.L23
 444 010c B162     		str	r1, [r6, #40]
 445              	.LVL39:
 446              	.L24:
 447              	.LBE62:
 448              	.LBE64:
 449              	.LBB65:
 450              	.LBB66:
 451              		.loc 1 93 0
 452 010e 4FF40043 		mov	r3, #32768
 453 0112 C4F20203 		movt	r3, 16386
ARM GAS  /tmp/cc6hfLjm.s 			page 9


 454 0116 4FF40042 		mov	r2, #32768
 455              		.loc 1 95 0
 456 011a 41F01304 		orr	r4, r1, #19
 457              		.loc 1 93 0
 458 011e 5A61     		str	r2, [r3, #20]
 459              		.loc 1 96 0
 460 0120 1A46     		mov	r2, r3
 461              		.loc 1 94 0
 462 0122 1C61     		str	r4, [r3, #16]
 463              	.L25:
 464              		.loc 1 96 0
 465 0124 1369     		ldr	r3, [r2, #16]
 466 0126 D807     		lsls	r0, r3, #31
 467 0128 FCD4     		bmi	.L25
 468              	.LBE66:
 469              	.LBE65:
 470              	.LBB67:
 471              	.LBB68:
 472              		.loc 1 110 0
 473 012a 4FF40040 		mov	r0, #32768
 474 012e 41F01101 		orr	r1, r1, #17
 475 0132 C4F20200 		movt	r0, 16386
 476              	.L27:
 477              	.LVL40:
 478              		.loc 1 110 0 is_stmt 0 discriminator 1
 479 0136 0161     		str	r1, [r0, #16]
 480              	.L26:
 481              		.loc 1 111 0 is_stmt 1
 482 0138 0269     		ldr	r2, [r0, #16]
 483 013a 4FF40043 		mov	r3, #32768
 484 013e D207     		lsls	r2, r2, #31
 485 0140 C4F20203 		movt	r3, 16386
 486 0144 F8D4     		bmi	.L26
 487              		.loc 1 113 0
 488 0146 5A69     		ldr	r2, [r3, #20]
 489              	.LBE68:
 490              	.LBE67:
 491              		.loc 1 271 0
 492 0148 1204     		lsls	r2, r2, #16
 493 014a F4D4     		bmi	.L27
 494              	.LVL41:
 495              	.LBB69:
 496              	.LBB70:
 497              		.loc 1 110 0
 498 014c 1961     		str	r1, [r3, #16]
 499              	.L28:
 500              		.loc 1 111 0
 501 014e 1969     		ldr	r1, [r3, #16]
 502 0150 4FF40042 		mov	r2, #32768
 503 0154 C907     		lsls	r1, r1, #31
 504 0156 C4F20202 		movt	r2, 16386
 505 015a F8D4     		bmi	.L28
 506              		.loc 1 113 0
 507 015c 5369     		ldr	r3, [r2, #20]
 508              	.LBE70:
 509              	.LBE69:
 510              		.loc 1 277 0
ARM GAS  /tmp/cc6hfLjm.s 			page 10


 511 015e 43F40063 		orr	r3, r3, #2048
 512              	.LVL42:
 513              	.LBB71:
 514              	.LBB72:
 515              		.loc 1 93 0
 516 0162 5361     		str	r3, [r2, #20]
 517              		.loc 1 96 0
 518 0164 1146     		mov	r1, r2
 519              		.loc 1 94 0
 520 0166 1461     		str	r4, [r2, #16]
 521              	.LVL43:
 522              	.L29:
 523              		.loc 1 96 0
 524 0168 0B69     		ldr	r3, [r1, #16]
 525 016a D807     		lsls	r0, r3, #31
 526 016c FCD4     		bmi	.L29
 527              	.LBE72:
 528              	.LBE71:
 529              		.loc 1 281 0
 530 016e 4FF46053 		mov	r3, #14336
 531 0172 C4F20203 		movt	r3, 16386
 532 0176 1A6B     		ldr	r2, [r3, #48]
 533 0178 22F06062 		bic	r2, r2, #234881024
 534 017c 1A63     		str	r2, [r3, #48]
 535 017e BDE8F883 		pop	{r3, r4, r5, r6, r7, r8, r9, pc}
 536              	.L43:
 537 0182 00BF     		.align	2
 538              	.L42:
 539 0184 00000000 		.word	.LANCHOR0
 540 0188 00000000 		.word	.LANCHOR1
 541 018c 00000000 		.word	.LANCHOR3
 542 0190 00000000 		.word	.LANCHOR4
 543 0194 00000000 		.word	.LANCHOR2
 544              		.cfi_endproc
 545              	.LFE123:
 546              		.size	mac_lld_init, .-mac_lld_init
 547 0198 AFF30080 		.section	.text.mac_lld_start,"ax",%progbits
 547      AFF30080 
 548              		.align	2
 549              		.p2align 4,,15
 550              		.global	mac_lld_start
 551              		.thumb
 552              		.thumb_func
 553              		.type	mac_lld_start, %function
 554              	mac_lld_start:
 555              	.LFB124:
 556              		.loc 1 291 0
 557              		.cfi_startproc
 558              		@ args = 0, pretend = 0, frame = 0
 559              		@ frame_needed = 0, uses_anonymous_args = 0
 560              	.LVL44:
 561 0000 F8B5     		push	{r3, r4, r5, r6, r7, lr}
 562              	.LCFI3:
 563              		.cfi_def_cfa_offset 24
 564              		.cfi_offset 3, -24
 565              		.cfi_offset 4, -20
 566              		.cfi_offset 5, -16
ARM GAS  /tmp/cc6hfLjm.s 			page 11


 567              		.cfi_offset 6, -12
 568              		.cfi_offset 7, -8
 569              		.cfi_offset 14, -4
 570              		.loc 1 303 0
 571 0002 4FF46051 		mov	r1, #14336
 572              		.loc 1 296 0
 573 0006 3D4D     		ldr	r5, .L56
 574              		.loc 1 299 0
 575 0008 3D4E     		ldr	r6, .L56+4
 576              		.loc 1 296 0
 577 000a 4FF00043 		mov	r3, #-2147483648
 578              		.loc 1 299 0
 579 000e 4FF48012 		mov	r2, #1048576
 580              		.loc 1 303 0
 581 0012 C4F20201 		movt	r1, 16386
 582              		.loc 1 296 0
 583 0016 2B60     		str	r3, [r5, #0]
 584              	.LVL45:
 585 0018 2B61     		str	r3, [r5, #16]
 586              	.LVL46:
 587 001a 2B62     		str	r3, [r5, #32]
 588              	.LVL47:
 589 001c 2B63     		str	r3, [r5, #48]
 590              	.LVL48:
 591              		.loc 1 299 0
 592 001e 3260     		str	r2, [r6, #0]
 593 0020 3261     		str	r2, [r6, #16]
 594              		.loc 1 303 0
 595 0022 0B6B     		ldr	r3, [r1, #48]
 596              		.loc 1 297 0
 597 0024 C562     		str	r5, [r0, #44]
 598              	.LVL49:
 599              		.loc 1 304 0
 600 0026 4FF41042 		mov	r2, #36864
 601 002a C4F20202 		movt	r2, 16386
 602              		.loc 1 303 0
 603 002e 43F06063 		orr	r3, r3, #234881024
 604              		.loc 1 300 0
 605 0032 0663     		str	r6, [r0, #48]
 606              		.loc 1 303 0
 607 0034 0B63     		str	r3, [r1, #48]
 608              		.loc 1 304 0
 609 0036 1368     		ldr	r3, [r2, #0]
 610 0038 43F00103 		orr	r3, r3, #1
 611              		.loc 1 291 0
 612 003c 0746     		mov	r7, r0
 613              		.loc 1 304 0
 614 003e 1360     		str	r3, [r2, #0]
 615              	.L45:
 616              		.loc 1 305 0 discriminator 1
 617 0040 1368     		ldr	r3, [r2, #0]
 618 0042 4FF40044 		mov	r4, #32768
 619 0046 DB07     		lsls	r3, r3, #31
 620 0048 C4F20204 		movt	r4, 16386
 621 004c F8D4     		bmi	.L45
 622              		.loc 1 309 0
 623 004e D021     		movs	r1, #208
ARM GAS  /tmp/cc6hfLjm.s 			page 12


 624 0050 3D20     		movs	r0, #61
 625              	.LVL50:
 626 0052 FFF7FEFF 		bl	nvicEnableVector
 627              	.LVL51:
 628              	.LBB73:
 629              	.LBB74:
 630              		.loc 1 110 0
 631 0056 B96A     		ldr	r1, [r7, #40]
 632 0058 41F01103 		orr	r3, r1, #17
 633 005c 2361     		str	r3, [r4, #16]
 634              	.L46:
 635              		.loc 1 111 0
 636 005e 2269     		ldr	r2, [r4, #16]
 637 0060 4FF40043 		mov	r3, #32768
 638 0064 D007     		lsls	r0, r2, #31
 639 0066 C4F20203 		movt	r3, 16386
 640 006a F8D4     		bmi	.L46
 641              		.loc 1 113 0
 642 006c 5869     		ldr	r0, [r3, #20]
 643              	.LBE74:
 644              	.LBE73:
 645              	.LBB75:
 646              	.LBB76:
 647              		.loc 1 95 0
 648 006e 41F01302 		orr	r2, r1, #19
 649              	.LBE76:
 650              	.LBE75:
 651              		.loc 1 314 0
 652 0072 20F40061 		bic	r1, r0, #2048
 653              	.LVL52:
 654              	.LBB78:
 655              	.LBB77:
 656              		.loc 1 93 0
 657 0076 5961     		str	r1, [r3, #20]
 658              		.loc 1 96 0
 659 0078 1946     		mov	r1, r3
 660              	.LVL53:
 661              		.loc 1 94 0
 662 007a 1A61     		str	r2, [r3, #16]
 663              	.L47:
 664              		.loc 1 96 0
 665 007c 0B69     		ldr	r3, [r1, #16]
 666 007e 4FF40042 		mov	r2, #32768
 667 0082 13F00103 		ands	r3, r3, #1
 668 0086 C4F20202 		movt	r2, 16386
 669 008a F7D1     		bne	.L47
 670              	.LBE77:
 671              	.LBE78:
 672              		.loc 1 323 0
 673 008c 7968     		ldr	r1, [r7, #4]
 674              	.LVL54:
 675              		.loc 1 318 0
 676 008e 5360     		str	r3, [r2, #4]
 677              		.loc 1 323 0
 678 0090 0868     		ldr	r0, [r1, #0]
 679              	.LVL55:
 680              		.loc 1 319 0
ARM GAS  /tmp/cc6hfLjm.s 			page 13


 681 0092 9361     		str	r3, [r2, #24]
 682              		.loc 1 320 0
 683 0094 D361     		str	r3, [r2, #28]
 684              		.loc 1 323 0
 685 0096 60B3     		cbz	r0, .L55
 686              		.loc 1 326 0
 687 0098 FFF7FEFF 		bl	mac_lld_set_address
 688              	.LVL56:
 689              	.L49:
 690              		.loc 1 334 0
 691 009c 4FF40042 		mov	r2, #32768
 692              		.loc 1 339 0
 693 00a0 4FF41043 		mov	r3, #36864
 694 00a4 C4F20203 		movt	r3, 16386
 695              		.loc 1 334 0
 696 00a8 C4F20202 		movt	r2, 16386
 697 00ac 0C21     		movs	r1, #12
 698 00ae 1160     		str	r1, [r2, #0]
 699              		.loc 1 339 0
 700 00b0 DD60     		str	r5, [r3, #12]
 701              		.loc 1 340 0
 702 00b2 1E61     		str	r6, [r3, #16]
 703              		.loc 1 343 0
 704 00b4 5C69     		ldr	r4, [r3, #20]
 705              		.loc 1 344 0
 706 00b6 4120     		movs	r0, #65
 707              		.loc 1 347 0
 708 00b8 4FF48072 		mov	r2, #256
 709 00bc C0F20222 		movt	r2, 514
 710              		.loc 1 344 0
 711 00c0 C0F20100 		movt	r0, 1
 712              		.loc 1 343 0
 713 00c4 5C61     		str	r4, [r3, #20]
 714              		.loc 1 351 0
 715 00c6 49F21801 		movw	r1, #36888
 716              		.loc 1 344 0
 717 00ca D861     		str	r0, [r3, #28]
 718              		.loc 1 347 0
 719 00cc 1A60     		str	r2, [r3, #0]
 720              		.loc 1 350 0
 721 00ce 4FF48012 		mov	r2, #1048576
 722              		.loc 1 351 0
 723 00d2 C4F20201 		movt	r1, 16386
 724              		.loc 1 350 0
 725 00d6 9A61     		str	r2, [r3, #24]
 726              	.L50:
 727              		.loc 1 351 0 discriminator 1
 728 00d8 0A68     		ldr	r2, [r1, #0]
 729 00da 49F21803 		movw	r3, #36888
 730 00de D202     		lsls	r2, r2, #11
 731 00e0 C4F20203 		movt	r3, 16386
 732 00e4 F8D4     		bmi	.L50
 733              		.loc 1 355 0
 734 00e6 42F20202 		movw	r2, #8194
 735 00ea C0F22062 		movt	r2, 1568
 736 00ee 1A60     		str	r2, [r3, #0]
 737 00f0 F8BD     		pop	{r3, r4, r5, r6, r7, pc}
ARM GAS  /tmp/cc6hfLjm.s 			page 14


 738              	.L55:
 739              		.loc 1 324 0
 740 00f2 0448     		ldr	r0, .L56+8
 741 00f4 FFF7FEFF 		bl	mac_lld_set_address
 742              	.LVL57:
 743 00f8 D0E7     		b	.L49
 744              	.L57:
 745 00fa 00BF     		.align	2
 746              	.L56:
 747 00fc 00000000 		.word	.LANCHOR1
 748 0100 00000000 		.word	.LANCHOR3
 749 0104 00000000 		.word	.LANCHOR5
 750              		.cfi_endproc
 751              	.LFE124:
 752              		.size	mac_lld_start, .-mac_lld_start
 753 0108 AFF30080 		.section	.text.mac_lld_stop,"ax",%progbits
 753      AFF30080 
 754              		.align	2
 755              		.p2align 4,,15
 756              		.global	mac_lld_stop
 757              		.thumb
 758              		.thumb_func
 759              		.type	mac_lld_stop, %function
 760              	mac_lld_stop:
 761              	.LFB125:
 762              		.loc 1 366 0
 763              		.cfi_startproc
 764              		@ args = 0, pretend = 0, frame = 0
 765              		@ frame_needed = 0, uses_anonymous_args = 0
 766              		@ link register save eliminated.
 767              	.LVL58:
 768              		.loc 1 368 0
 769 0000 0378     		ldrb	r3, [r0, #0]	@ zero_extendqisi2
 770 0002 012B     		cmp	r3, #1
 771 0004 32D0     		beq	.L58
 772              	.LVL59:
 773              	.LBB79:
 774              	.LBB80:
 775              		.loc 1 110 0
 776 0006 806A     		ldr	r0, [r0, #40]
 777              	.LVL60:
 778 0008 4FF40041 		mov	r1, #32768
 779 000c C4F20201 		movt	r1, 16386
 780 0010 40F01103 		orr	r3, r0, #17
 781 0014 0B61     		str	r3, [r1, #16]
 782              	.L60:
 783              		.loc 1 111 0
 784 0016 0A69     		ldr	r2, [r1, #16]
 785 0018 4FF40043 		mov	r3, #32768
 786 001c D207     		lsls	r2, r2, #31
 787 001e C4F20203 		movt	r3, 16386
 788 0022 F8D4     		bmi	.L60
 789              		.loc 1 113 0
 790 0024 5A69     		ldr	r2, [r3, #20]
 791              	.LBE80:
 792              	.LBE79:
 793              	.LBB81:
ARM GAS  /tmp/cc6hfLjm.s 			page 15


 794              	.LBB82:
 795              		.loc 1 95 0
 796 0026 40F01300 		orr	r0, r0, #19
 797              	.LBE82:
 798              	.LBE81:
 799              		.loc 1 371 0
 800 002a 42F40062 		orr	r2, r2, #2048
 801              	.LVL61:
 802              	.LBB84:
 803              	.LBB83:
 804              		.loc 1 93 0
 805 002e 5A61     		str	r2, [r3, #20]
 806              		.loc 1 96 0
 807 0030 1946     		mov	r1, r3
 808              		.loc 1 94 0
 809 0032 1861     		str	r0, [r3, #16]
 810              	.LVL62:
 811              	.L61:
 812              		.loc 1 96 0
 813 0034 0B69     		ldr	r3, [r1, #16]
 814 0036 4FF40042 		mov	r2, #32768
 815 003a 13F00103 		ands	r3, r3, #1
 816 003e C4F20202 		movt	r2, 16386
 817 0042 F7D1     		bne	.L61
 818              	.LBE83:
 819              	.LBE84:
 820              		.loc 1 376 0
 821 0044 4FF41041 		mov	r1, #36864
 822              	.LVL63:
 823 0048 C4F20201 		movt	r1, 16386
 824              		.loc 1 375 0
 825 004c 1360     		str	r3, [r2, #0]
 826              		.loc 1 376 0
 827 004e 8B61     		str	r3, [r1, #24]
 828              		.loc 1 377 0
 829 0050 CB61     		str	r3, [r1, #28]
 830              		.loc 1 378 0
 831 0052 4A69     		ldr	r2, [r1, #20]
 832              		.loc 1 381 0
 833 0054 4FF46053 		mov	r3, #14336
 834 0058 C4F20203 		movt	r3, 16386
 835              		.loc 1 378 0
 836 005c 4A61     		str	r2, [r1, #20]
 837              		.loc 1 381 0
 838 005e 1A6B     		ldr	r2, [r3, #48]
 839              		.loc 1 384 0
 840 0060 3D20     		movs	r0, #61
 841              		.loc 1 381 0
 842 0062 22F06062 		bic	r2, r2, #234881024
 843 0066 1A63     		str	r2, [r3, #48]
 844              		.loc 1 386 0
 845              		.loc 1 384 0
 846 0068 FFF7FEBF 		b	nvicDisableVector
 847              	.LVL64:
 848              	.L58:
 849 006c 7047     		bx	lr
 850              		.cfi_endproc
ARM GAS  /tmp/cc6hfLjm.s 			page 16


 851              	.LFE125:
 852              		.size	mac_lld_stop, .-mac_lld_stop
 853 006e 00BF     		.section	.text.mac_lld_get_transmit_descriptor,"ax",%progbits
 854              		.align	2
 855              		.p2align 4,,15
 856              		.global	mac_lld_get_transmit_descriptor
 857              		.thumb
 858              		.thumb_func
 859              		.type	mac_lld_get_transmit_descriptor, %function
 860              	mac_lld_get_transmit_descriptor:
 861              	.LFB126:
 862              		.loc 1 402 0
 863              		.cfi_startproc
 864              		@ args = 0, pretend = 0, frame = 0
 865              		@ frame_needed = 0, uses_anonymous_args = 0
 866              	.LVL65:
 867 0000 F8B5     		push	{r3, r4, r5, r6, r7, lr}
 868              	.LCFI4:
 869              		.cfi_def_cfa_offset 24
 870              		.cfi_offset 3, -24
 871              		.cfi_offset 4, -20
 872              		.cfi_offset 5, -16
 873              		.cfi_offset 6, -12
 874              		.cfi_offset 7, -8
 875              		.cfi_offset 14, -4
 876              		.loc 1 405 0
 877 0002 436A     		ldr	r3, [r0, #36]
 878              		.loc 1 402 0
 879 0004 0546     		mov	r5, r0
 880 0006 0E46     		mov	r6, r1
 881              		.loc 1 405 0
 882 0008 DBB1     		cbz	r3, .L67
 883              	.LBB85:
 884              		.loc 1 408 0
 885 000a 2023     		movs	r3, #32
 886              	.LVL66:
 887              	@ 408 "../../ChibiOS/os/hal/platforms/STM32/mac_lld.c" 1
 888 000c 83F31188 		msr     BASEPRI, r3
 889              	@ 0 "" 2
 890              	.LVL67:
 891              		.thumb
 892              	.LBE85:
 893 0010 FFF7FEFF 		bl	dbg_check_lock
 894              	.LVL68:
 895              		.loc 1 411 0
 896 0014 2C6B     		ldr	r4, [r5, #48]
 897              	.LVL69:
 898              		.loc 1 415 0
 899 0016 2368     		ldr	r3, [r4, #0]
 900 0018 13F00147 		ands	r7, r3, #-2130706432
 901 001c 14D1     		bne	.L68
 902              		.loc 1 421 0
 903 001e 2368     		ldr	r3, [r4, #0]
 904 0020 43F08073 		orr	r3, r3, #16777216
 905 0024 2360     		str	r3, [r4, #0]
 906              		.loc 1 424 0
 907 0026 E368     		ldr	r3, [r4, #12]
ARM GAS  /tmp/cc6hfLjm.s 			page 17


 908 0028 2B63     		str	r3, [r5, #48]
 909              		.loc 1 426 0
 910 002a FFF7FEFF 		bl	dbg_check_unlock
 911              	.LVL70:
 912              	.LBB86:
 913 002e 3B46     		mov	r3, r7
 914              	.LVL71:
 915              	@ 426 "../../ChibiOS/os/hal/platforms/STM32/mac_lld.c" 1
 916 0030 83F31188 		msr     BASEPRI, r3
 917              	@ 0 "" 2
 918              	.LVL72:
 919              		.thumb
 920              	.LBE86:
 921              		.loc 1 430 0
 922 0034 40F2F252 		movw	r2, #1522
 923              		.loc 1 429 0
 924 0038 3760     		str	r7, [r6, #0]
 925              		.loc 1 430 0
 926 003a 7260     		str	r2, [r6, #4]
 927              		.loc 1 431 0
 928 003c B460     		str	r4, [r6, #8]
 929              		.loc 1 433 0
 930 003e 3846     		mov	r0, r7
 931 0040 F8BD     		pop	{r3, r4, r5, r6, r7, pc}
 932              	.LVL73:
 933              	.L67:
 934              		.loc 1 406 0
 935 0042 4FF0FF30 		mov	r0, #-1
 936              	.LVL74:
 937              		.loc 1 434 0
 938 0046 F8BD     		pop	{r3, r4, r5, r6, r7, pc}
 939              	.LVL75:
 940              	.L68:
 941              		.loc 1 416 0
 942 0048 FFF7FEFF 		bl	dbg_check_unlock
 943              	.LVL76:
 944              	.LBB87:
 945 004c 0023     		movs	r3, #0
 946              	.LVL77:
 947              	@ 416 "../../ChibiOS/os/hal/platforms/STM32/mac_lld.c" 1
 948 004e 83F31188 		msr     BASEPRI, r3
 949              	@ 0 "" 2
 950              	.LVL78:
 951              		.thumb
 952              	.LBE87:
 953              		.loc 1 417 0
 954 0052 4FF0FF30 		mov	r0, #-1
 955 0056 F8BD     		pop	{r3, r4, r5, r6, r7, pc}
 956              		.cfi_endproc
 957              	.LFE126:
 958              		.size	mac_lld_get_transmit_descriptor, .-mac_lld_get_transmit_descriptor
 959 0058 AFF30080 		.section	.text.mac_lld_release_transmit_descriptor,"ax",%progbits
 959      AFF30080 
 960              		.align	2
 961              		.p2align 4,,15
 962              		.global	mac_lld_release_transmit_descriptor
 963              		.thumb
ARM GAS  /tmp/cc6hfLjm.s 			page 18


 964              		.thumb_func
 965              		.type	mac_lld_release_transmit_descriptor, %function
 966              	mac_lld_release_transmit_descriptor:
 967              	.LFB127:
 968              		.loc 1 444 0
 969              		.cfi_startproc
 970              		@ args = 0, pretend = 0, frame = 0
 971              		@ frame_needed = 0, uses_anonymous_args = 0
 972              	.LVL79:
 973              		.loc 1 446 0
 974 0000 8368     		ldr	r3, [r0, #8]
 975 0002 1B68     		ldr	r3, [r3, #0]
 976 0004 002B     		cmp	r3, #0
 977              		.loc 1 444 0
 978 0006 10B5     		push	{r4, lr}
 979              	.LCFI5:
 980              		.cfi_def_cfa_offset 8
 981              		.cfi_offset 4, -8
 982              		.cfi_offset 14, -4
 983              		.loc 1 444 0
 984 0008 0446     		mov	r4, r0
 985              		.loc 1 446 0
 986 000a 1EDB     		blt	.L72
 987              	.LVL80:
 988              	.L70:
 989              	.LBB88:
 990              		.loc 1 450 0
 991 000c 2023     		movs	r3, #32
 992              	.LVL81:
 993              	@ 450 "../../ChibiOS/os/hal/platforms/STM32/mac_lld.c" 1
 994 000e 83F31188 		msr     BASEPRI, r3
 995              	@ 0 "" 2
 996              	.LVL82:
 997              		.thumb
 998              	.LBE88:
 999 0012 FFF7FEFF 		bl	dbg_check_lock
 1000              	.LVL83:
 1001              		.loc 1 453 0
 1002 0016 A268     		ldr	r2, [r4, #8]
 1003 0018 2068     		ldr	r0, [r4, #0]
 1004              		.loc 1 454 0
 1005 001a 0021     		movs	r1, #0
 1006              		.loc 1 459 0
 1007 001c 4FF41043 		mov	r3, #36864
 1008              		.loc 1 454 0
 1009 0020 CFF21001 		movt	r1, 61456
 1010              		.loc 1 459 0
 1011 0024 C4F20203 		movt	r3, 16386
 1012              		.loc 1 453 0
 1013 0028 5060     		str	r0, [r2, #4]
 1014              		.loc 1 454 0
 1015 002a 1160     		str	r1, [r2, #0]
 1016              		.loc 1 459 0
 1017 002c 5A69     		ldr	r2, [r3, #20]
 1018 002e 02F4E002 		and	r2, r2, #7340032
 1019 0032 B2F5C00F 		cmp	r2, #6291456
 1020 0036 02D1     		bne	.L71
ARM GAS  /tmp/cc6hfLjm.s 			page 19


 1021              		.loc 1 460 0
 1022 0038 0422     		movs	r2, #4
 1023 003a 5A61     		str	r2, [r3, #20]
 1024              		.loc 1 461 0
 1025 003c 5A60     		str	r2, [r3, #4]
 1026              	.L71:
 1027              		.loc 1 464 0
 1028 003e FFF7FEFF 		bl	dbg_check_unlock
 1029              	.LVL84:
 1030              	.LBB89:
 1031 0042 0023     		movs	r3, #0
 1032              	.LVL85:
 1033              	@ 464 "../../ChibiOS/os/hal/platforms/STM32/mac_lld.c" 1
 1034 0044 83F31188 		msr     BASEPRI, r3
 1035              	@ 0 "" 2
 1036              	.LVL86:
 1037              		.thumb
 1038 0048 10BD     		pop	{r4, pc}
 1039              	.LVL87:
 1040              	.L72:
 1041              	.LBE89:
 1042              		.loc 1 446 0 discriminator 1
 1043 004a 0248     		ldr	r0, .L73
 1044              	.LVL88:
 1045 004c FFF7FEFF 		bl	chDbgPanic
 1046              	.LVL89:
 1047 0050 DCE7     		b	.L70
 1048              	.L74:
 1049 0052 00BF     		.align	2
 1050              	.L73:
 1051 0054 00000000 		.word	.LC0
 1052              		.cfi_endproc
 1053              	.LFE127:
 1054              		.size	mac_lld_release_transmit_descriptor, .-mac_lld_release_transmit_descriptor
 1055 0058 AFF30080 		.section	.text.mac_lld_get_receive_descriptor,"ax",%progbits
 1055      AFF30080 
 1056              		.align	2
 1057              		.p2align 4,,15
 1058              		.global	mac_lld_get_receive_descriptor
 1059              		.thumb
 1060              		.thumb_func
 1061              		.type	mac_lld_get_receive_descriptor, %function
 1062              	mac_lld_get_receive_descriptor:
 1063              	.LFB128:
 1064              		.loc 1 479 0
 1065              		.cfi_startproc
 1066              		@ args = 0, pretend = 0, frame = 0
 1067              		@ frame_needed = 0, uses_anonymous_args = 0
 1068              	.LVL90:
 1069 0000 F8B5     		push	{r3, r4, r5, r6, r7, lr}
 1070              	.LCFI6:
 1071              		.cfi_def_cfa_offset 24
 1072              		.cfi_offset 3, -24
 1073              		.cfi_offset 4, -20
 1074              		.cfi_offset 5, -16
 1075              		.cfi_offset 6, -12
 1076              		.cfi_offset 7, -8
ARM GAS  /tmp/cc6hfLjm.s 			page 20


 1077              		.cfi_offset 14, -4
 1078              		.loc 1 479 0
 1079 0002 0746     		mov	r7, r0
 1080 0004 0E46     		mov	r6, r1
 1081              	.LBB90:
 1082              		.loc 1 482 0
 1083 0006 2023     		movs	r3, #32
 1084              	.LVL91:
 1085              	@ 482 "../../ChibiOS/os/hal/platforms/STM32/mac_lld.c" 1
 1086 0008 83F31188 		msr     BASEPRI, r3
 1087              	@ 0 "" 2
 1088              	.LVL92:
 1089              		.thumb
 1090              	.LBE90:
 1091 000c FFF7FEFF 		bl	dbg_check_lock
 1092              	.LVL93:
 1093              		.loc 1 485 0
 1094 0010 FA6A     		ldr	r2, [r7, #44]
 1095              	.LVL94:
 1096              		.loc 1 489 0
 1097 0012 1368     		ldr	r3, [r2, #0]
 1098 0014 002B     		cmp	r3, #0
 1099 0016 13DB     		blt	.L76
 1100              		.loc 1 506 0
 1101 0018 4FF00045 		mov	r5, #-2147483648
 1102              	.L84:
 1103              		.loc 1 490 0
 1104 001c 1368     		ldr	r3, [r2, #0]
 1105 001e 4FF40044 		mov	r4, #32768
 1106 0022 C4F20004 		movt	r4, 16384
 1107 0026 1C40     		ands	r4, r4, r3
 1108 0028 2CB9     		cbnz	r4, .L77
 1109              		.loc 1 495 0
 1110 002a 1368     		ldr	r3, [r2, #0]
 1111 002c 9805     		lsls	r0, r3, #22
 1112 002e 02D5     		bpl	.L77
 1113              		.loc 1 495 0 is_stmt 0 discriminator 1
 1114 0030 1368     		ldr	r3, [r2, #0]
 1115 0032 D905     		lsls	r1, r3, #23
 1116 0034 0DD4     		bmi	.L88
 1117              	.L77:
 1118              		.loc 1 506 0 is_stmt 1
 1119 0036 1560     		str	r5, [r2, #0]
 1120              		.loc 1 507 0
 1121 0038 D268     		ldr	r2, [r2, #12]
 1122              	.LVL95:
 1123              		.loc 1 489 0
 1124 003a 1368     		ldr	r3, [r2, #0]
 1125 003c 002B     		cmp	r3, #0
 1126 003e EDDA     		bge	.L84
 1127              	.L76:
 1128              		.loc 1 511 0
 1129 0040 FA62     		str	r2, [r7, #44]
 1130              		.loc 1 513 0
 1131 0042 FFF7FEFF 		bl	dbg_check_unlock
 1132              	.LVL96:
 1133              	.LBB91:
ARM GAS  /tmp/cc6hfLjm.s 			page 21


 1134 0046 0023     		movs	r3, #0
 1135              	.LVL97:
 1136              	@ 513 "../../ChibiOS/os/hal/platforms/STM32/mac_lld.c" 1
 1137 0048 83F31188 		msr     BASEPRI, r3
 1138              	@ 0 "" 2
 1139              	.LVL98:
 1140              		.thumb
 1141              	.LBE91:
 1142              		.loc 1 514 0
 1143 004c 4FF0FF30 		mov	r0, #-1
 1144              		.loc 1 515 0
 1145 0050 F8BD     		pop	{r3, r4, r5, r6, r7, pc}
 1146              	.LVL99:
 1147              	.L88:
 1148              		.loc 1 498 0
 1149 0052 1168     		ldr	r1, [r2, #0]
 1150              		.loc 1 500 0
 1151 0054 D368     		ldr	r3, [r2, #12]
 1152              		.loc 1 497 0
 1153 0056 3460     		str	r4, [r6, #0]
 1154              		.loc 1 498 0
 1155 0058 C1F30D41 		ubfx	r1, r1, #16, #14
 1156 005c 0439     		subs	r1, r1, #4
 1157 005e 7160     		str	r1, [r6, #4]
 1158              		.loc 1 499 0
 1159 0060 B260     		str	r2, [r6, #8]
 1160              		.loc 1 500 0
 1161 0062 FB62     		str	r3, [r7, #44]
 1162              		.loc 1 502 0
 1163 0064 FFF7FEFF 		bl	dbg_check_unlock
 1164              	.LVL100:
 1165              	.LBB92:
 1166 0068 2346     		mov	r3, r4
 1167              	.LVL101:
 1168              	@ 502 "../../ChibiOS/os/hal/platforms/STM32/mac_lld.c" 1
 1169 006a 83F31188 		msr     BASEPRI, r3
 1170              	@ 0 "" 2
 1171              	.LVL102:
 1172              		.thumb
 1173              	.LBE92:
 1174              		.loc 1 503 0
 1175 006e 2046     		mov	r0, r4
 1176 0070 F8BD     		pop	{r3, r4, r5, r6, r7, pc}
 1177              		.cfi_endproc
 1178              	.LFE128:
 1179              		.size	mac_lld_get_receive_descriptor, .-mac_lld_get_receive_descriptor
 1180 0072 00BFAFF3 		.section	.text.mac_lld_release_receive_descriptor,"ax",%progbits
 1180      0080AFF3 
 1180      0080AFF3 
 1180      0080
 1181              		.align	2
 1182              		.p2align 4,,15
 1183              		.global	mac_lld_release_receive_descriptor
 1184              		.thumb
 1185              		.thumb_func
 1186              		.type	mac_lld_release_receive_descriptor, %function
 1187              	mac_lld_release_receive_descriptor:
ARM GAS  /tmp/cc6hfLjm.s 			page 22


 1188              	.LFB129:
 1189              		.loc 1 526 0
 1190              		.cfi_startproc
 1191              		@ args = 0, pretend = 0, frame = 0
 1192              		@ frame_needed = 0, uses_anonymous_args = 0
 1193              	.LVL103:
 1194              		.loc 1 528 0
 1195 0000 8368     		ldr	r3, [r0, #8]
 1196 0002 1B68     		ldr	r3, [r3, #0]
 1197 0004 002B     		cmp	r3, #0
 1198              		.loc 1 526 0
 1199 0006 10B5     		push	{r4, lr}
 1200              	.LCFI7:
 1201              		.cfi_def_cfa_offset 8
 1202              		.cfi_offset 4, -8
 1203              		.cfi_offset 14, -4
 1204              		.loc 1 526 0
 1205 0008 0446     		mov	r4, r0
 1206              		.loc 1 528 0
 1207 000a 1BDB     		blt	.L92
 1208              	.LVL104:
 1209              	.L90:
 1210              	.LBB93:
 1211              		.loc 1 532 0
 1212 000c 2023     		movs	r3, #32
 1213              	.LVL105:
 1214              	@ 532 "../../ChibiOS/os/hal/platforms/STM32/mac_lld.c" 1
 1215 000e 83F31188 		msr     BASEPRI, r3
 1216              	@ 0 "" 2
 1217              	.LVL106:
 1218              		.thumb
 1219              	.LBE93:
 1220 0012 FFF7FEFF 		bl	dbg_check_lock
 1221              	.LVL107:
 1222              		.loc 1 535 0
 1223 0016 A268     		ldr	r2, [r4, #8]
 1224              		.loc 1 538 0
 1225 0018 4FF41043 		mov	r3, #36864
 1226 001c C4F20203 		movt	r3, 16386
 1227              		.loc 1 535 0
 1228 0020 4FF00041 		mov	r1, #-2147483648
 1229 0024 1160     		str	r1, [r2, #0]
 1230              		.loc 1 538 0
 1231 0026 5A69     		ldr	r2, [r3, #20]
 1232 0028 02F46022 		and	r2, r2, #917504
 1233 002c B2F5002F 		cmp	r2, #524288
 1234 0030 02D1     		bne	.L91
 1235              		.loc 1 539 0
 1236 0032 8022     		movs	r2, #128
 1237 0034 5A61     		str	r2, [r3, #20]
 1238              		.loc 1 540 0
 1239 0036 9A60     		str	r2, [r3, #8]
 1240              	.L91:
 1241              		.loc 1 543 0
 1242 0038 FFF7FEFF 		bl	dbg_check_unlock
 1243              	.LVL108:
 1244              	.LBB94:
ARM GAS  /tmp/cc6hfLjm.s 			page 23


 1245 003c 0023     		movs	r3, #0
 1246              	.LVL109:
 1247              	@ 543 "../../ChibiOS/os/hal/platforms/STM32/mac_lld.c" 1
 1248 003e 83F31188 		msr     BASEPRI, r3
 1249              	@ 0 "" 2
 1250              	.LVL110:
 1251              		.thumb
 1252 0042 10BD     		pop	{r4, pc}
 1253              	.LVL111:
 1254              	.L92:
 1255              	.LBE94:
 1256              		.loc 1 528 0 discriminator 1
 1257 0044 0148     		ldr	r0, .L93
 1258              	.LVL112:
 1259 0046 FFF7FEFF 		bl	chDbgPanic
 1260              	.LVL113:
 1261 004a DFE7     		b	.L90
 1262              	.L94:
 1263              		.align	2
 1264              	.L93:
 1265 004c 2C000000 		.word	.LC1
 1266              		.cfi_endproc
 1267              	.LFE129:
 1268              		.size	mac_lld_release_receive_descriptor, .-mac_lld_release_receive_descriptor
 1269              		.section	.text.mac_lld_poll_link_status,"ax",%progbits
 1270              		.align	2
 1271              		.p2align 4,,15
 1272              		.global	mac_lld_poll_link_status
 1273              		.thumb
 1274              		.thumb_func
 1275              		.type	mac_lld_poll_link_status, %function
 1276              	mac_lld_poll_link_status:
 1277              	.LFB130:
 1278              		.loc 1 556 0
 1279              		.cfi_startproc
 1280              		@ args = 0, pretend = 0, frame = 0
 1281              		@ frame_needed = 0, uses_anonymous_args = 0
 1282              		@ link register save eliminated.
 1283              	.LVL114:
 1284 0000 70B4     		push	{r4, r5, r6}
 1285              	.LCFI8:
 1286              		.cfi_def_cfa_offset 12
 1287              		.cfi_offset 4, -12
 1288              		.cfi_offset 5, -8
 1289              		.cfi_offset 6, -4
 1290              		.loc 1 559 0
 1291 0002 4FF40041 		mov	r1, #32768
 1292              	.LBB95:
 1293              	.LBB96:
 1294              		.loc 1 110 0
 1295 0006 846A     		ldr	r4, [r0, #40]
 1296              	.LBE96:
 1297              	.LBE95:
 1298              		.loc 1 559 0
 1299 0008 C4F20201 		movt	r1, 16386
 1300              		.loc 1 556 0
 1301 000c 0546     		mov	r5, r0
ARM GAS  /tmp/cc6hfLjm.s 			page 24


 1302              	.LBB99:
 1303              	.LBB97:
 1304              		.loc 1 110 0
 1305 000e 44F05100 		orr	r0, r4, #81
 1306              	.LVL115:
 1307              	.LBE97:
 1308              	.LBE99:
 1309              		.loc 1 559 0
 1310 0012 0E68     		ldr	r6, [r1, #0]
 1311              	.LVL116:
 1312              	.LBB100:
 1313              	.LBB98:
 1314              		.loc 1 110 0
 1315 0014 0861     		str	r0, [r1, #16]
 1316              	.L96:
 1317              		.loc 1 111 0
 1318 0016 0A69     		ldr	r2, [r1, #16]
 1319 0018 4FF40043 		mov	r3, #32768
 1320 001c D207     		lsls	r2, r2, #31
 1321 001e C4F20203 		movt	r3, 16386
 1322 0022 F8D4     		bmi	.L96
 1323              		.loc 1 113 0
 1324 0024 5A69     		ldr	r2, [r3, #20]
 1325              	.LVL117:
 1326              	.LBE98:
 1327              	.LBE100:
 1328              	.LBB101:
 1329              	.LBB102:
 1330              		.loc 1 110 0
 1331 0026 1861     		str	r0, [r3, #16]
 1332              		.loc 1 111 0
 1333 0028 1946     		mov	r1, r3
 1334              	.L97:
 1335 002a 0A69     		ldr	r2, [r1, #16]
 1336 002c 4FF40043 		mov	r3, #32768
 1337 0030 D207     		lsls	r2, r2, #31
 1338 0032 C4F20203 		movt	r3, 16386
 1339 0036 F8D4     		bmi	.L97
 1340              	.LBE102:
 1341              	.LBE101:
 1342              	.LBB104:
 1343              	.LBB105:
 1344              		.loc 1 110 0
 1345 0038 44F01102 		orr	r2, r4, #17
 1346              	.LBE105:
 1347              	.LBE104:
 1348              	.LBB107:
 1349              	.LBB103:
 1350              		.loc 1 113 0
 1351 003c 5869     		ldr	r0, [r3, #20]
 1352              	.LVL118:
 1353              	.LBE103:
 1354              	.LBE107:
 1355              	.LBB108:
 1356              	.LBB106:
 1357              		.loc 1 110 0
 1358 003e 1A61     		str	r2, [r3, #16]
ARM GAS  /tmp/cc6hfLjm.s 			page 25


 1359              		.loc 1 111 0
 1360 0040 1946     		mov	r1, r3
 1361              	.L98:
 1362 0042 0B69     		ldr	r3, [r1, #16]
 1363 0044 4FF40042 		mov	r2, #32768
 1364 0048 13F00103 		ands	r3, r3, #1
 1365 004c C4F20202 		movt	r2, 16386
 1366 0050 F7D1     		bne	.L98
 1367              		.loc 1 113 0
 1368 0052 5169     		ldr	r1, [r2, #20]
 1369              	.LBE106:
 1370              	.LBE108:
 1371              		.loc 1 567 0
 1372 0054 11F4805F 		tst	r1, #4096
 1373 0058 08D0     		beq	.L99
 1374              	.LBB109:
 1375              		.loc 1 571 0
 1376 005a 00F03400 		and	r0, r0, #52
 1377 005e 2428     		cmp	r0, #36
 1378              		.loc 1 573 0
 1379 0060 1CBF     		itt	ne
 1380 0062 6B62     		strne	r3, [r5, #36]
 1381 0064 1846     		movne	r0, r3
 1382              		.loc 1 571 0
 1383 0066 19D0     		beq	.L116
 1384              	.L101:
 1385              	.LBE109:
 1386              		.loc 1 613 0
 1387 0068 70BC     		pop	{r4, r5, r6}
 1388 006a 7047     		bx	lr
 1389              	.L99:
 1390              		.loc 1 592 0
 1391 006c 10F00400 		ands	r0, r0, #4
 1392              		.loc 1 593 0
 1393 0070 08BF     		it	eq
 1394 0072 6862     		streq	r0, [r5, #36]
 1395              		.loc 1 592 0
 1396 0074 F8D0     		beq	.L101
 1397              		.loc 1 596 0
 1398 0076 8A04     		lsls	r2, r1, #18
 1399              		.loc 1 597 0
 1400 0078 4CBF     		ite	mi
 1401 007a 46F48046 		orrmi	r6, r6, #16384
 1402              	.LVL119:
 1403              		.loc 1 599 0
 1404 007e 26F48046 		bicpl	r6, r6, #16384
 1405              	.LVL120:
 1406              		.loc 1 602 0
 1407 0082 CB05     		lsls	r3, r1, #23
 1408 0084 21D4     		bmi	.L115
 1409              	.L110:
 1410              		.loc 1 605 0
 1411 0086 26F40066 		bic	r6, r6, #2048
 1412              	.LVL121:
 1413              	.L106:
 1414              		.loc 1 609 0
 1415 008a 4FF40042 		mov	r2, #32768
ARM GAS  /tmp/cc6hfLjm.s 			page 26


 1416 008e C4F20202 		movt	r2, 16386
 1417              		.loc 1 612 0
 1418 0092 0123     		movs	r3, #1
 1419              		.loc 1 609 0
 1420 0094 1660     		str	r6, [r2, #0]
 1421              		.loc 1 612 0
 1422 0096 1846     		mov	r0, r3
 1423 0098 6B62     		str	r3, [r5, #36]
 1424 009a E5E7     		b	.L101
 1425              	.L116:
 1426              	.LVL122:
 1427              	.LBB112:
 1428              	.LBB110:
 1429              	.LBB111:
 1430              		.loc 1 110 0
 1431 009c 44F4A874 		orr	r4, r4, #336
 1432 00a0 44F00104 		orr	r4, r4, #1
 1433 00a4 1461     		str	r4, [r2, #16]
 1434              	.L102:
 1435              		.loc 1 111 0
 1436 00a6 1169     		ldr	r1, [r2, #16]
 1437 00a8 4FF40043 		mov	r3, #32768
 1438 00ac C907     		lsls	r1, r1, #31
 1439 00ae C4F20203 		movt	r3, 16386
 1440 00b2 F8D4     		bmi	.L102
 1441              		.loc 1 113 0
 1442 00b4 5B69     		ldr	r3, [r3, #20]
 1443              	.LBE111:
 1444              	.LBE110:
 1445              		.loc 1 579 0
 1446 00b6 13F4607F 		tst	r3, #896
 1447              		.loc 1 580 0
 1448 00ba 14BF     		ite	ne
 1449 00bc 46F48046 		orrne	r6, r6, #16384
 1450              	.LVL123:
 1451              		.loc 1 582 0
 1452 00c0 26F48046 		biceq	r6, r6, #16384
 1453              	.LVL124:
 1454              		.loc 1 585 0
 1455 00c4 13F4A07F 		tst	r3, #320
 1456 00c8 DDD0     		beq	.L110
 1457              	.LVL125:
 1458              	.L115:
 1459              	.LBE112:
 1460              		.loc 1 603 0
 1461 00ca 46F40066 		orr	r6, r6, #2048
 1462              	.LVL126:
 1463 00ce DCE7     		b	.L106
 1464              		.cfi_endproc
 1465              	.LFE130:
 1466              		.size	mac_lld_poll_link_status, .-mac_lld_poll_link_status
 1467              		.section	.text.mac_lld_write_transmit_descriptor,"ax",%progbits
 1468              		.align	2
 1469              		.p2align 4,,15
 1470              		.global	mac_lld_write_transmit_descriptor
 1471              		.thumb
 1472              		.thumb_func
ARM GAS  /tmp/cc6hfLjm.s 			page 27


 1473              		.type	mac_lld_write_transmit_descriptor, %function
 1474              	mac_lld_write_transmit_descriptor:
 1475              	.LFB131:
 1476              		.loc 1 631 0
 1477              		.cfi_startproc
 1478              		@ args = 0, pretend = 0, frame = 8
 1479              		@ frame_needed = 0, uses_anonymous_args = 0
 1480              	.LVL127:
 1481 0000 30B5     		push	{r4, r5, lr}
 1482              	.LCFI9:
 1483              		.cfi_def_cfa_offset 12
 1484              		.cfi_offset 4, -12
 1485              		.cfi_offset 5, -8
 1486              		.cfi_offset 14, -4
 1487              		.loc 1 633 0
 1488 0002 8368     		ldr	r3, [r0, #8]
 1489 0004 1B68     		ldr	r3, [r3, #0]
 1490 0006 002B     		cmp	r3, #0
 1491              		.loc 1 631 0
 1492 0008 83B0     		sub	sp, sp, #12
 1493              	.LCFI10:
 1494              		.cfi_def_cfa_offset 24
 1495              		.loc 1 631 0
 1496 000a 0446     		mov	r4, r0
 1497              		.loc 1 633 0
 1498 000c 12DB     		blt	.L123
 1499              	.LVL128:
 1500              	.L118:
 1501              		.loc 1 637 0
 1502 000e 2368     		ldr	r3, [r4, #0]
 1503 0010 6068     		ldr	r0, [r4, #4]
 1504 0012 C51A     		subs	r5, r0, r3
 1505 0014 AA42     		cmp	r2, r5
 1506 0016 38BF     		it	cc
 1507 0018 1546     		movcc	r5, r2
 1508              	.LVL129:
 1509              		.loc 1 640 0
 1510 001a 45B1     		cbz	r5, .L119
 1511              		.loc 1 641 0
 1512 001c A268     		ldr	r2, [r4, #8]
 1513 001e 9068     		ldr	r0, [r2, #8]
 1514 0020 2A46     		mov	r2, r5
 1515 0022 C018     		adds	r0, r0, r3
 1516 0024 FFF7FEFF 		bl	memcpy
 1517              	.LVL130:
 1518              		.loc 1 642 0
 1519 0028 2368     		ldr	r3, [r4, #0]
 1520 002a 5B19     		adds	r3, r3, r5
 1521 002c 2360     		str	r3, [r4, #0]
 1522              	.L119:
 1523              		.loc 1 645 0
 1524 002e 2846     		mov	r0, r5
 1525 0030 03B0     		add	sp, sp, #12
 1526 0032 30BD     		pop	{r4, r5, pc}
 1527              	.LVL131:
 1528              	.L123:
 1529              		.loc 1 633 0 discriminator 1
ARM GAS  /tmp/cc6hfLjm.s 			page 28


 1530 0034 0348     		ldr	r0, .L124
 1531              	.LVL132:
 1532 0036 0191     		str	r1, [sp, #4]
 1533 0038 0092     		str	r2, [sp, #0]
 1534 003a FFF7FEFF 		bl	chDbgPanic
 1535              	.LVL133:
 1536 003e 009A     		ldr	r2, [sp, #0]
 1537 0040 0199     		ldr	r1, [sp, #4]
 1538 0042 E4E7     		b	.L118
 1539              	.L125:
 1540              		.align	2
 1541              	.L124:
 1542 0044 58000000 		.word	.LC2
 1543              		.cfi_endproc
 1544              	.LFE131:
 1545              		.size	mac_lld_write_transmit_descriptor, .-mac_lld_write_transmit_descriptor
 1546 0048 AFF30080 		.section	.text.mac_lld_read_receive_descriptor,"ax",%progbits
 1546      AFF30080 
 1547              		.align	2
 1548              		.p2align 4,,15
 1549              		.global	mac_lld_read_receive_descriptor
 1550              		.thumb
 1551              		.thumb_func
 1552              		.type	mac_lld_read_receive_descriptor, %function
 1553              	mac_lld_read_receive_descriptor:
 1554              	.LFB132:
 1555              		.loc 1 662 0
 1556              		.cfi_startproc
 1557              		@ args = 0, pretend = 0, frame = 8
 1558              		@ frame_needed = 0, uses_anonymous_args = 0
 1559              	.LVL134:
 1560 0000 70B5     		push	{r4, r5, r6, lr}
 1561              	.LCFI11:
 1562              		.cfi_def_cfa_offset 16
 1563              		.cfi_offset 4, -16
 1564              		.cfi_offset 5, -12
 1565              		.cfi_offset 6, -8
 1566              		.cfi_offset 14, -4
 1567              		.loc 1 664 0
 1568 0002 8368     		ldr	r3, [r0, #8]
 1569 0004 1B68     		ldr	r3, [r3, #0]
 1570 0006 002B     		cmp	r3, #0
 1571              		.loc 1 662 0
 1572 0008 82B0     		sub	sp, sp, #8
 1573              	.LCFI12:
 1574              		.cfi_def_cfa_offset 24
 1575              		.loc 1 662 0
 1576 000a 0446     		mov	r4, r0
 1577              		.loc 1 664 0
 1578 000c 13DB     		blt	.L132
 1579              	.LVL135:
 1580              	.L127:
 1581              		.loc 1 668 0
 1582 000e 94E84800 		ldmia	r4, {r3, r6}
 1583 0012 F51A     		subs	r5, r6, r3
 1584 0014 AA42     		cmp	r2, r5
 1585 0016 38BF     		it	cc
ARM GAS  /tmp/cc6hfLjm.s 			page 29


 1586 0018 1546     		movcc	r5, r2
 1587              	.LVL136:
 1588              		.loc 1 671 0
 1589 001a 4DB1     		cbz	r5, .L128
 1590              		.loc 1 672 0
 1591 001c A268     		ldr	r2, [r4, #8]
 1592 001e 9268     		ldr	r2, [r2, #8]
 1593 0020 0846     		mov	r0, r1
 1594 0022 D118     		adds	r1, r2, r3
 1595 0024 2A46     		mov	r2, r5
 1596 0026 FFF7FEFF 		bl	memcpy
 1597              	.LVL137:
 1598              		.loc 1 673 0
 1599 002a 2368     		ldr	r3, [r4, #0]
 1600 002c 5B19     		adds	r3, r3, r5
 1601 002e 2360     		str	r3, [r4, #0]
 1602              	.L128:
 1603              		.loc 1 676 0
 1604 0030 2846     		mov	r0, r5
 1605 0032 02B0     		add	sp, sp, #8
 1606 0034 70BD     		pop	{r4, r5, r6, pc}
 1607              	.LVL138:
 1608              	.L132:
 1609              		.loc 1 664 0 discriminator 1
 1610 0036 0448     		ldr	r0, .L133
 1611              	.LVL139:
 1612 0038 0191     		str	r1, [sp, #4]
 1613 003a 0092     		str	r2, [sp, #0]
 1614 003c FFF7FEFF 		bl	chDbgPanic
 1615              	.LVL140:
 1616 0040 009A     		ldr	r2, [sp, #0]
 1617 0042 0199     		ldr	r1, [sp, #4]
 1618 0044 E3E7     		b	.L127
 1619              	.L134:
 1620 0046 00BF     		.align	2
 1621              	.L133:
 1622 0048 80000000 		.word	.LC3
 1623              		.cfi_endproc
 1624              	.LFE132:
 1625              		.size	mac_lld_read_receive_descriptor, .-mac_lld_read_receive_descriptor
 1626              		.global	ETHD1
 1627 004c AFF30080 		.section	.rodata.default_mac_address,"a",%progbits
 1628              		.align	2
 1629              		.set	.LANCHOR5,. + 0
 1630              		.type	default_mac_address, %object
 1631              		.size	default_mac_address, 6
 1632              	default_mac_address:
 1633 0000 AA       		.byte	-86
 1634 0001 55       		.byte	85
 1635 0002 13       		.byte	19
 1636 0003 37       		.byte	55
 1637 0004 01       		.byte	1
 1638 0005 10       		.byte	16
 1639 0006 0000     		.section	.bss.ETHD1,"aw",%nobits
 1640              		.align	2
 1641              		.set	.LANCHOR0,. + 0
 1642              		.type	ETHD1, %object
ARM GAS  /tmp/cc6hfLjm.s 			page 30


 1643              		.size	ETHD1, 52
 1644              	ETHD1:
 1645 0000 00000000 		.space	52
 1645      00000000 
 1645      00000000 
 1645      00000000 
 1645      00000000 
 1646              		.section	.bss.rb,"aw",%nobits
 1647              		.align	2
 1648              		.set	.LANCHOR2,. + 0
 1649              		.type	rb, %object
 1650              		.size	rb, 6096
 1651              	rb:
 1652 0000 00000000 		.space	6096
 1652      00000000 
 1652      00000000 
 1652      00000000 
 1652      00000000 
 1653              		.section	.bss.rd,"aw",%nobits
 1654              		.align	2
 1655              		.set	.LANCHOR1,. + 0
 1656              		.type	rd, %object
 1657              		.size	rd, 64
 1658              	rd:
 1659 0000 00000000 		.space	64
 1659      00000000 
 1659      00000000 
 1659      00000000 
 1659      00000000 
 1660              		.section	.rodata.str1.4,"aMS",%progbits,1
 1661              		.align	2
 1662              	.LC0:
 1663 0000 6D61635F 		.ascii	"mac_lld_release_transmit_descriptor(), #1\000"
 1663      6C6C645F 
 1663      72656C65 
 1663      6173655F 
 1663      7472616E 
 1664 002a 0000     		.space	2
 1665              	.LC1:
 1666 002c 6D61635F 		.ascii	"mac_lld_release_receive_descriptor(), #1\000"
 1666      6C6C645F 
 1666      72656C65 
 1666      6173655F 
 1666      72656365 
 1667 0055 000000   		.space	3
 1668              	.LC2:
 1669 0058 6D61635F 		.ascii	"mac_lld_write_transmit_descriptor(), #1\000"
 1669      6C6C645F 
 1669      77726974 
 1669      655F7472 
 1669      616E736D 
 1670              	.LC3:
 1671 0080 6D61635F 		.ascii	"mac_lld_read_receive_descriptor(), #1\000"
 1671      6C6C645F 
 1671      72656164 
 1671      5F726563 
 1671      65697665 
ARM GAS  /tmp/cc6hfLjm.s 			page 31


 1672 00a6 0000     		.section	.bss.tb,"aw",%nobits
 1673              		.align	2
 1674              		.set	.LANCHOR4,. + 0
 1675              		.type	tb, %object
 1676              		.size	tb, 3048
 1677              	tb:
 1678 0000 00000000 		.space	3048
 1678      00000000 
 1678      00000000 
 1678      00000000 
 1678      00000000 
 1679              		.section	.bss.td,"aw",%nobits
 1680              		.align	2
 1681              		.set	.LANCHOR3,. + 0
 1682              		.type	td, %object
 1683              		.size	td, 32
 1684              	td:
 1685 0000 00000000 		.space	32
 1685      00000000 
 1685      00000000 
 1685      00000000 
 1685      00000000 
 1686              		.text
 1687              	.Letext0:
 1688              		.file 2 "/home/david/toolchains/arm-psas-eabi/bin/../lib/gcc/arm-psas-eabi/4.7.2/include/stddef.h"
 1689              		.file 3 "/home/david/toolchains/arm-psas-eabi/bin/../lib/gcc/arm-psas-eabi/4.7.2/../../../../arm-p
 1690              		.file 4 "../../ChibiOS/os/ports/GCC/ARMCMx/chtypes.h"
 1691              		.file 5 "../../ChibiOS/os/kernel/include/chlists.h"
 1692              		.file 6 "../../ChibiOS/os/kernel/include/chthreads.h"
 1693              		.file 7 "../../ChibiOS/os/ports/GCC/ARMCMx/chcore_v7m.h"
 1694              		.file 8 "../../ChibiOS/os/ports/common/ARMCMx/nvic.h"
 1695              		.file 9 "../../ChibiOS/os/kernel/include/chsem.h"
 1696              		.file 10 "../../ChibiOS/os/kernel/include/chmtx.h"
 1697              		.file 11 "../../ChibiOS/os/kernel/include/chevents.h"
 1698              		.file 12 "../../ChibiOS/os/hal/platforms/STM32F4xx/stm32f4xx.h"
 1699              		.file 13 "../../ChibiOS/os/hal/platforms/STM32F4xx/hal_lld.h"
 1700              		.file 14 "../../ChibiOS/os/hal/include/mac.h"
 1701              		.file 15 "../../ChibiOS/os/hal/platforms/STM32/mac_lld.h"
 1702              		.file 16 "../../ChibiOS/os/ports/common/ARMCMx/CMSIS/include/core_cm4.h"
 1703              		.file 17 "../../ChibiOS/os/kernel/include/chdebug.h"
 1704              		.file 18 "../../ChibiOS/os/hal/include/hal.h"