ARM GAS  /tmp/ccnSx98I.s 			page 1


   1              		.syntax unified
   2              		.cpu cortex-m4
   3              		.eabi_attribute 27, 3
   4              		.eabi_attribute 28, 1
   5              		.fpu fpv4-sp-d16
   6              		.eabi_attribute 20, 1
   7              		.eabi_attribute 21, 1
   8              		.eabi_attribute 23, 3
   9              		.eabi_attribute 24, 1
  10              		.eabi_attribute 25, 1
  11              		.eabi_attribute 26, 1
  12              		.eabi_attribute 30, 2
  13              		.eabi_attribute 34, 1
  14              		.eabi_attribute 18, 4
  15              		.thumb
  16              		.file	"main.c"
  17              		.text
  18              	.Ltext0:
  19              		.cfi_sections	.debug_frame
  20              		.section	.text.Thread_blinker,"ax",%progbits
  21              		.align	2
  22              		.p2align 4,,15
  23              		.thumb
  24              		.thumb_func
  25              		.type	Thread_blinker, %function
  26              	Thread_blinker:
  27              	.LFB118:
  28              		.file 1 "main.c"
  29              		.loc 1 133 0
  30              		.cfi_startproc
  31              		@ args = 0, pretend = 0, frame = 0
  32              		@ frame_needed = 0, uses_anonymous_args = 0
  33              	.LVL0:
  34              		.loc 1 135 0
  35 0000 084B     		ldr	r3, .L4
  36 0002 094A     		ldr	r2, .L4+4
  37 0004 9B69     		ldr	r3, [r3, #24]
  38              		.loc 1 133 0
  39 0006 10B5     		push	{r4, lr}
  40              	.LCFI0:
  41              		.cfi_def_cfa_offset 8
  42              		.cfi_offset 4, -8
  43              		.cfi_offset 14, -4
  44              		.loc 1 137 0
  45 0008 4FF40064 		mov	r4, #2048
  46              		.loc 1 135 0
  47 000c 9A61     		str	r2, [r3, #24]
  48              		.loc 1 137 0
  49 000e C4F20204 		movt	r4, 16386
  50              	.LVL1:
  51              	.L2:
  52              		.loc 1 137 0 is_stmt 0 discriminator 1
  53 0012 6369     		ldr	r3, [r4, #20]
  54 0014 83F40053 		eor	r3, r3, #8192
  55 0018 6361     		str	r3, [r4, #20]
  56              		.loc 1 138 0 is_stmt 1 discriminator 1
  57 001a 4FF4FA70 		mov	r0, #500
ARM GAS  /tmp/ccnSx98I.s 			page 2


  58 001e FFF7FEFF 		bl	chThdSleep
  59              	.LVL2:
  60 0022 F6E7     		b	.L2
  61              	.L5:
  62              		.align	2
  63              	.L4:
  64 0024 00000000 		.word	rlist
  65 0028 00000000 		.word	.LC0
  66              		.cfi_endproc
  67              	.LFE118:
  68              		.size	Thread_blinker, .-Thread_blinker
  69 002c AFF30080 		.section	.text.Thread_mpl3115a2,"ax",%progbits
  70              		.align	2
  71              		.p2align 4,,15
  72              		.thumb
  73              		.thumb_func
  74              		.type	Thread_mpl3115a2, %function
  75              	Thread_mpl3115a2:
  76              	.LFB119:
  77              		.loc 1 164 0
  78              		.cfi_startproc
  79              		@ args = 0, pretend = 0, frame = 0
  80              		@ frame_needed = 0, uses_anonymous_args = 0
  81              	.LVL3:
  82              		.loc 1 168 0
  83 0000 064B     		ldr	r3, .L8
  84 0002 074A     		ldr	r2, .L8+4
  85 0004 9B69     		ldr	r3, [r3, #24]
  86              		.loc 1 164 0
  87 0006 10B5     		push	{r4, lr}
  88              	.LCFI1:
  89              		.cfi_def_cfa_offset 8
  90              		.cfi_offset 4, -8
  91              		.cfi_offset 14, -4
  92 0008 064C     		ldr	r4, .L8+8
  93              		.loc 1 168 0
  94 000a 9A61     		str	r2, [r3, #24]
  95              	.LVL4:
  96              	.L7:
  97              		.loc 1 174 0 discriminator 1
  98 000c 6068     		ldr	r0, [r4, #4]
  99 000e FFF7FEFF 		bl	mpl3115a2_get_temperature
 100              	.LVL5:
 101              		.loc 1 175 0 discriminator 1
 102 0012 4FF47A70 		mov	r0, #1000
 103 0016 FFF7FEFF 		bl	chThdSleep
 104              	.LVL6:
 105 001a F7E7     		b	.L7
 106              	.L9:
 107              		.align	2
 108              	.L8:
 109 001c 00000000 		.word	rlist
 110 0020 08000000 		.word	.LC1
 111 0024 00000000 		.word	mpl3115a2_driver
 112              		.cfi_endproc
 113              	.LFE119:
 114              		.size	Thread_mpl3115a2, .-Thread_mpl3115a2
ARM GAS  /tmp/ccnSx98I.s 			page 3


 115 0028 AFF30080 		.section	.text.Thread_indwatchdog,"ax",%progbits
 115      AFF30080 
 116              		.align	2
 117              		.p2align 4,,15
 118              		.thumb
 119              		.thumb_func
 120              		.type	Thread_indwatchdog, %function
 121              	Thread_indwatchdog:
 122              	.LFB120:
 123              		.loc 1 214 0
 124              		.cfi_startproc
 125              		@ args = 0, pretend = 0, frame = 0
 126              		@ frame_needed = 0, uses_anonymous_args = 0
 127              	.LVL7:
 128 0000 08B5     		push	{r3, lr}
 129              	.LCFI2:
 130              		.cfi_def_cfa_offset 8
 131              		.cfi_offset 3, -8
 132              		.cfi_offset 14, -4
 133              		.loc 1 217 0
 134 0002 054B     		ldr	r3, .L12
 135 0004 054A     		ldr	r2, .L12+4
 136 0006 9B69     		ldr	r3, [r3, #24]
 137 0008 9A61     		str	r2, [r3, #24]
 138              	.LVL8:
 139              	.L11:
 140              		.loc 1 219 0 discriminator 1
 141 000a FFF7FEFF 		bl	iwdg_lld_reload
 142              	.LVL9:
 143              		.loc 1 220 0 discriminator 1
 144 000e FA20     		movs	r0, #250
 145 0010 FFF7FEFF 		bl	chThdSleep
 146              	.LVL10:
 147 0014 F9E7     		b	.L11
 148              	.L13:
 149 0016 00BF     		.align	2
 150              	.L12:
 151 0018 00000000 		.word	rlist
 152 001c 14000000 		.word	.LC2
 153              		.cfi_endproc
 154              	.LFE120:
 155              		.size	Thread_indwatchdog, .-Thread_indwatchdog
 156              		.section	.text.startup.main,"ax",%progbits
 157              		.align	2
 158              		.p2align 4,,15
 159              		.global	main
 160              		.thumb
 161              		.thumb_func
 162              		.type	main, %function
 163              	main:
 164              	.LFB121:
 165              		.loc 1 227 0
 166              		.cfi_startproc
 167              		@ args = 0, pretend = 0, frame = 16
 168              		@ frame_needed = 0, uses_anonymous_args = 0
 169 0000 F0B5     		push	{r4, r5, r6, r7, lr}
 170              	.LCFI3:
ARM GAS  /tmp/ccnSx98I.s 			page 4


 171              		.cfi_def_cfa_offset 20
 172              		.cfi_offset 4, -20
 173              		.cfi_offset 5, -16
 174              		.cfi_offset 6, -12
 175              		.cfi_offset 7, -8
 176              		.cfi_offset 14, -4
 177              		.loc 1 272 0
 178 0002 4FF4A056 		mov	r6, #5120
 179              		.loc 1 227 0
 180 0006 87B0     		sub	sp, sp, #28
 181              	.LCFI4:
 182              		.cfi_def_cfa_offset 48
 183              		.loc 1 272 0
 184 0008 C4F20206 		movt	r6, 16386
 185              		.loc 1 241 0
 186 000c FFF7FEFF 		bl	halInit
 187              	.LVL11:
 188              		.loc 1 242 0
 189 0010 FFF7FEFF 		bl	chSysInit
 190              	.LVL12:
 191              		.loc 1 244 0
 192 0014 FFF7FEFF 		bl	extdetail_init
 193              	.LVL13:
 194              		.loc 1 272 0
 195 0018 3046     		mov	r0, r6
 196 001a 0121     		movs	r1, #1
 197 001c 40F21E22 		movw	r2, #542
 198 0020 FFF7FEFF 		bl	_pal_lld_setgroupmode
 199              	.LVL14:
 200              		.loc 1 274 0
 201 0024 3046     		mov	r0, r6
 202 0026 0221     		movs	r1, #2
 203 0028 40F21A22 		movw	r2, #538
 204 002c FFF7FEFF 		bl	_pal_lld_setgroupmode
 205              	.LVL15:
 206              		.loc 1 280 0
 207 0030 40F23A22 		movw	r2, #570
 208 0034 3046     		mov	r0, r6
 209 0036 0421     		movs	r1, #4
 210 0038 FFF7FEFF 		bl	_pal_lld_setgroupmode
 211              	.LVL16:
 212              		.loc 1 288 0
 213 003c 3848     		ldr	r0, .L19
 214              		.loc 1 289 0
 215 003e 394F     		ldr	r7, .L19+4
 216 0040 394C     		ldr	r4, .L19+8
 217              		.loc 1 283 0
 218 0042 0223     		movs	r3, #2
 219 0044 3383     		strh	r3, [r6, #24]	@ movhi
 220 0046 0546     		mov	r5, r0
 221              		.loc 1 288 0
 222 0048 FFF7FEFF 		bl	sduObjectInit
 223              	.LVL17:
 224              		.loc 1 289 0
 225 004c 3946     		mov	r1, r7
 226 004e 2846     		mov	r0, r5
 227 0050 FFF7FEFF 		bl	sduStart
ARM GAS  /tmp/ccnSx98I.s 			page 5


 228              	.LVL18:
 229              		.loc 1 296 0
 230 0054 3E68     		ldr	r6, [r7, #0]
 231 0056 F36B     		ldr	r3, [r6, #60]
 232 0058 9A6B     		ldr	r2, [r3, #56]
 233 005a 22F40022 		bic	r2, r2, #524288
 234 005e 9A63     		str	r2, [r3, #56]
 235              		.loc 1 297 0
 236 0060 4FF47A70 		mov	r0, #1000
 237 0064 FFF7FEFF 		bl	chThdSleep
 238              	.LVL19:
 239              		.loc 1 298 0
 240 0068 3046     		mov	r0, r6
 241 006a 3049     		ldr	r1, .L19+12
 242 006c FFF7FEFF 		bl	usbStart
 243              	.LVL20:
 244              		.loc 1 299 0
 245 0070 F36B     		ldr	r3, [r6, #60]
 246 0072 9A6B     		ldr	r2, [r3, #56]
 247 0074 42F40022 		orr	r2, r2, #524288
 248 0078 9A63     		str	r2, [r3, #56]
 249              		.loc 1 301 0
 250 007a FFF7FEFF 		bl	shellInit
 251              	.LVL21:
 252              		.loc 1 303 0
 253 007e FFF7FEFF 		bl	iwdg_begin
 254              	.LVL22:
 255              		.loc 1 313 0
 256 0082 2B48     		ldr	r0, .L19+16
 257 0084 FFF7FEFF 		bl	mpl3115a2_start
 258              	.LVL23:
 259              		.loc 1 314 0
 260 0088 2A4B     		ldr	r3, .L19+20
 261 008a 2B49     		ldr	r1, .L19+24
 262 008c 5868     		ldr	r0, [r3, #4]
 263 008e FFF7FEFF 		bl	i2cStart
 264              	.LVL24:
 265              		.loc 1 315 0
 266 0092 4FF47A70 		mov	r0, #1000
 267 0096 FFF7FEFF 		bl	chThdSleep
 268              	.LVL25:
 269              		.loc 1 320 0
 270 009a 0026     		movs	r6, #0
 271              		.loc 1 316 0
 272 009c 2448     		ldr	r0, .L19+16
 273 009e FFF7FEFF 		bl	mpl3115a2_init
 274              	.LVL26:
 275              		.loc 1 320 0
 276 00a2 F021     		movs	r1, #240
 277 00a4 4022     		movs	r2, #64
 278 00a6 254B     		ldr	r3, .L19+28
 279 00a8 0096     		str	r6, [sp, #0]
 280 00aa 2548     		ldr	r0, .L19+32
 281 00ac FFF7FEFF 		bl	chThdCreateStatic
 282              	.LVL27:
 283              		.loc 1 321 0
 284 00b0 F021     		movs	r1, #240
ARM GAS  /tmp/ccnSx98I.s 			page 6


 285 00b2 4022     		movs	r2, #64
 286 00b4 234B     		ldr	r3, .L19+36
 287 00b6 0096     		str	r6, [sp, #0]
 288 00b8 2348     		ldr	r0, .L19+40
 289 00ba FFF7FEFF 		bl	chThdCreateStatic
 290              	.LVL28:
 291              		.loc 1 322 0
 292 00be 4FF4D871 		mov	r1, #432
 293 00c2 4022     		movs	r2, #64
 294 00c4 214B     		ldr	r3, .L19+44
 295 00c6 0096     		str	r6, [sp, #0]
 296 00c8 2148     		ldr	r0, .L19+48
 297 00ca FFF7FEFF 		bl	chThdCreateStatic
 298              	.LVL29:
 299              		.loc 1 324 0
 300 00ce 2148     		ldr	r0, .L19+52
 301 00d0 02A9     		add	r1, sp, #8
 302 00d2 0122     		movs	r2, #1
 303 00d4 FFF7FEFF 		bl	chEvtRegisterMask
 304              	.LVL30:
 305              		.loc 1 326 0
 306 00d8 2746     		mov	r7, r4
 307 00da 0CE0     		b	.L17
 308              	.L15:
 309              		.loc 1 328 0
 310 00dc 90F82030 		ldrb	r3, [r0, #32]	@ zero_extendqisi2
 311 00e0 0E2B     		cmp	r3, #14
 312 00e2 19D0     		beq	.L18
 313              	.L16:
 314              		.loc 1 332 0
 315 00e4 4FF4FA71 		mov	r1, #500
 316 00e8 0120     		movs	r0, #1
 317 00ea FFF7FEFF 		bl	chEvtWaitOneTimeout
 318              	.LVL31:
 319 00ee 0146     		mov	r1, r0
 320 00f0 1948     		ldr	r0, .L19+56
 321 00f2 FFF7FEFF 		bl	chEvtDispatch
 322              	.LVL32:
 323              	.L17:
 324              		.loc 1 326 0
 325 00f6 2068     		ldr	r0, [r4, #0]
 326 00f8 0028     		cmp	r0, #0
 327 00fa EFD1     		bne	.L15
 328              		.loc 1 326 0 is_stmt 0 discriminator 1
 329 00fc D5F85432 		ldr	r3, [r5, #596]
 330 0100 1B68     		ldr	r3, [r3, #0]
 331 0102 1B78     		ldrb	r3, [r3, #0]	@ zero_extendqisi2
 332 0104 042B     		cmp	r3, #4
 333 0106 E9D1     		bne	.L15
 334              		.loc 1 327 0 is_stmt 1
 335 0108 1448     		ldr	r0, .L19+60
 336 010a 4FF40B61 		mov	r1, #2224
 337 010e 4022     		movs	r2, #64
 338 0110 FFF7FEFF 		bl	shellCreate
 339              	.LVL33:
 340 0114 3860     		str	r0, [r7, #0]
 341 0116 E5E7     		b	.L16
ARM GAS  /tmp/ccnSx98I.s 			page 7


 342              	.L18:
 343              		.loc 1 329 0
 344 0118 FFF7FEFF 		bl	chThdRelease
 345              	.LVL34:
 346              		.loc 1 330 0
 347 011c 2660     		str	r6, [r4, #0]
 348 011e E1E7     		b	.L16
 349              	.L20:
 350              		.align	2
 351              	.L19:
 352 0120 00000000 		.word	SDU1
 353 0124 00000000 		.word	serusbcfg
 354 0128 00000000 		.word	.LANCHOR4
 355 012c 00000000 		.word	usbcfg
 356 0130 00000000 		.word	I2CD2
 357 0134 00000000 		.word	mpl3115a2_driver
 358 0138 00000000 		.word	.LANCHOR0
 359 013c 00000000 		.word	Thread_blinker
 360 0140 00000000 		.word	.LANCHOR1
 361 0144 00000000 		.word	Thread_indwatchdog
 362 0148 00000000 		.word	.LANCHOR2
 363 014c 00000000 		.word	Thread_mpl3115a2
 364 0150 00000000 		.word	.LANCHOR3
 365 0154 00000000 		.word	extdetail_wkup_event
 366 0158 00000000 		.word	.LANCHOR6
 367 015c 00000000 		.word	.LANCHOR5
 368              		.cfi_endproc
 369              	.LFE121:
 370              		.size	main, .-main
 371              		.global	mpl3115a2_connections
 372              		.global	mpl3115a2_config
 373              		.section	.bss.waThread_indwatchdog,"aw",%nobits
 374              		.align	3
 375              		.set	.LANCHOR2,. + 0
 376              		.type	waThread_indwatchdog, %object
 377              		.size	waThread_indwatchdog, 240
 378              	waThread_indwatchdog:
 379 0000 00000000 		.space	240
 379      00000000 
 379      00000000 
 379      00000000 
 379      00000000 
 380              		.section	.bss.waThread_mpl3115a2,"aw",%nobits
 381              		.align	3
 382              		.set	.LANCHOR3,. + 0
 383              		.type	waThread_mpl3115a2, %object
 384              		.size	waThread_mpl3115a2, 432
 385              	waThread_mpl3115a2:
 386 0000 00000000 		.space	432
 386      00000000 
 386      00000000 
 386      00000000 
 386      00000000 
 387              		.section	.bss.shelltp.8516,"aw",%nobits
 388              		.align	2
 389              		.set	.LANCHOR4,. + 0
 390              		.type	shelltp.8516, %object
ARM GAS  /tmp/ccnSx98I.s 			page 8


 391              		.size	shelltp.8516, 4
 392              	shelltp.8516:
 393 0000 00000000 		.space	4
 394              		.section	.rodata.mpl3115a2_connections,"a",%progbits
 395              		.align	2
 396              		.type	mpl3115a2_connections, %object
 397              		.size	mpl3115a2_connections, 24
 398              	mpl3115a2_connections:
 399 0000 00140240 		.word	1073878016
 400 0004 0000     		.short	0
 401 0006 0000     		.space	2
 402 0008 00140240 		.word	1073878016
 403 000c 0100     		.short	1
 404 000e 0000     		.space	2
 405 0010 00140240 		.word	1073878016
 406 0014 0200     		.short	2
 407 0016 0000     		.space	2
 408              		.section	.rodata.commands,"a",%progbits
 409              		.align	2
 410              		.type	commands, %object
 411              		.size	commands, 24
 412              	commands:
 413 0000 20000000 		.word	.LC3
 414 0004 00000000 		.word	cmd_mem
 415 0008 24000000 		.word	.LC4
 416 000c 00000000 		.word	cmd_threads
 417 0010 00000000 		.word	0
 418 0014 00000000 		.word	0
 419              		.section	.rodata.str1.4,"aMS",%progbits,1
 420              		.align	2
 421              	.LC0:
 422 0000 626C696E 		.ascii	"blinker\000"
 422      6B657200 
 423              	.LC1:
 424 0008 6D706C33 		.ascii	"mpl3115a2\000"
 424      31313561 
 424      3200
 425 0012 0000     		.space	2
 426              	.LC2:
 427 0014 69776174 		.ascii	"iwatchdog\000"
 427      6368646F 
 427      6700
 428 001e 0000     		.space	2
 429              	.LC3:
 430 0020 6D656D00 		.ascii	"mem\000"
 431              	.LC4:
 432 0024 74687265 		.ascii	"threads\000"
 432      61647300 
 433              		.section	.bss.waThread_blinker,"aw",%nobits
 434              		.align	3
 435              		.set	.LANCHOR1,. + 0
 436              		.type	waThread_blinker, %object
 437              		.size	waThread_blinker, 240
 438              	waThread_blinker:
 439 0000 00000000 		.space	240
 439      00000000 
 439      00000000 
ARM GAS  /tmp/ccnSx98I.s 			page 9


 439      00000000 
 439      00000000 
 440              		.section	.rodata.mpl3115a2_config,"a",%progbits
 441              		.align	2
 442              		.set	.LANCHOR0,. + 0
 443              		.type	mpl3115a2_config, %object
 444              		.size	mpl3115a2_config, 12
 445              	mpl3115a2_config:
 446 0000 01       		.byte	1
 447 0001 000000   		.space	3
 448 0004 801A0600 		.word	400000
 449 0008 02       		.byte	2
 450 0009 000000   		.space	3
 451              		.section	.rodata.shell_cfg1,"a",%progbits
 452              		.align	2
 453              		.set	.LANCHOR5,. + 0
 454              		.type	shell_cfg1, %object
 455              		.size	shell_cfg1, 8
 456              	shell_cfg1:
 457 0000 00000000 		.word	SDU1
 458 0004 00000000 		.word	commands
 459              		.section	.rodata.evhndl_main.8517,"a",%progbits
 460              		.align	2
 461              		.set	.LANCHOR6,. + 0
 462              		.type	evhndl_main.8517, %object
 463              		.size	evhndl_main.8517, 4
 464              	evhndl_main.8517:
 465 0000 00000000 		.word	extdetail_WKUP_button_handler
 466              		.text
 467              	.Letext0:
 468              		.file 2 "/home/david/toolchains/psas/x-tools/stm32f407/arm-psas-eabi/bin/../lib/gcc/arm-psas-eabi/
 469              		.file 3 "/home/david/toolchains/psas/x-tools/stm32f407/arm-psas-eabi/bin/../lib/gcc/arm-psas-eabi/
 470              		.file 4 "../../ChibiOS/os/ports/GCC/ARMCMx/chtypes.h"
 471              		.file 5 "../../ChibiOS/os/kernel/include/chlists.h"
 472              		.file 6 "../../ChibiOS/os/kernel/include/chthreads.h"
 473              		.file 7 "../../ChibiOS/os/ports/GCC/ARMCMx/chcore_v7m.h"
 474              		.file 8 "../../ChibiOS/os/kernel/include/chschd.h"
 475              		.file 9 "../../ChibiOS/os/kernel/include/chmtx.h"
 476              		.file 10 "../../ChibiOS/os/kernel/include/chevents.h"
 477              		.file 11 "../../ChibiOS/os/kernel/include/chqueues.h"
 478              		.file 12 "../../ChibiOS/os/kernel/include/chstreams.h"
 479              		.file 13 "../../ChibiOS/os/hal/platforms/STM32F4xx/stm32f4xx.h"
 480              		.file 14 "../../ChibiOS/os/hal/platforms/STM32F4xx/stm32_dma.h"
 481              		.file 15 "../../ChibiOS/os/hal/platforms/STM32/GPIOv2/pal_lld.h"
 482              		.file 16 "../../ChibiOS/os/hal/include/i2c.h"
 483              		.file 17 "../../ChibiOS/os/hal/platforms/STM32/I2Cv1/i2c_lld.h"
 484              		.file 18 "../../ChibiOS/os/hal/include/usb.h"
 485              		.file 19 "../../ChibiOS/os/hal/platforms/STM32/OTGv1/usb_lld.h"
 486              		.file 20 "../../ChibiOS/os/hal/platforms/STM32/OTGv1/stm32_otg.h"
 487              		.file 21 "../../ChibiOS/os/hal/include/serial_usb.h"
 488              		.file 22 "../../ChibiOS/os/various/shell.h"
 489              		.file 23 "../../devices/include/MPL3115A2.h"
 490              		.file 24 "../../ChibiOS/os/ports/common/ARMCMx/CMSIS/include/core_cm4.h"
 491              		.file 25 "usbdetail.h"
 492              		.file 26 "extdetail.h"
 493              		.file 27 "../common/iwdg_lld.h"
 494              		.file 28 "../../ChibiOS/os/hal/include/hal.h"
ARM GAS  /tmp/ccnSx98I.s 			page 10


 495              		.file 29 "../../ChibiOS/os/kernel/include/chsys.h"
 496              		.file 30 "../../ChibiOS/os/kernel/include/chdynamic.h"