ARM GAS  /tmp/cckDtn2d.s 			page 1


   1              		.syntax unified
   2              		.cpu cortex-m4
   3              		.eabi_attribute 27, 3
   4              		.eabi_attribute 28, 1
   5              		.fpu fpv4-sp-d16
   6              		.eabi_attribute 20, 1
   7              		.eabi_attribute 21, 1
   8              		.eabi_attribute 23, 3
   9              		.eabi_attribute 24, 1
  10              		.eabi_attribute 25, 1
  11              		.eabi_attribute 26, 1
  12              		.eabi_attribute 30, 2
  13              		.eabi_attribute 34, 1
  14              		.eabi_attribute 18, 4
  15              		.thumb
  16              		.file	"MPL3115A2.c"
  17              		.text
  18              	.Ltext0:
  19              		.cfi_sections	.debug_frame
  20              		.section	.text.i2c_errno_str,"ax",%progbits
  21              		.align	2
  22              		.p2align 4,,15
  23              		.global	i2c_errno_str
  24              		.thumb
  25              		.thumb_func
  26              		.type	i2c_errno_str, %function
  27              	i2c_errno_str:
  28              	.LFB118:
  29              		.file 1 "../../devices/MPL3115A2.c"
  30              		.loc 1 44 0
  31              		.cfi_startproc
  32              		@ args = 0, pretend = 0, frame = 0
  33              		@ frame_needed = 0, uses_anonymous_args = 0
  34              		@ link register save eliminated.
  35              	.LVL0:
  36 0000 0749     		ldr	r1, .L8
  37              		.loc 1 44 0
  38 0002 0023     		movs	r3, #0
  39              	.LVL1:
  40              	.L4:
  41 0004 01EBC302 		add	r2, r1, r3, lsl #3
  42              		.loc 1 49 0
  43 0008 5268     		ldr	r2, [r2, #4]
  44 000a 8242     		cmp	r2, r0
  45 000c 04D0     		beq	.L7
  46 000e 0133     		adds	r3, r3, #1
  47              		.loc 1 48 0
  48 0010 092B     		cmp	r3, #9
  49 0012 F7D1     		bne	.L4
  50              		.loc 1 53 0
  51 0014 0348     		ldr	r0, .L8+4
  52              	.LVL2:
  53              		.loc 1 54 0
  54 0016 7047     		bx	lr
  55              	.LVL3:
  56              	.L7:
  57              		.loc 1 50 0
ARM GAS  /tmp/cckDtn2d.s 			page 2


  58 0018 014A     		ldr	r2, .L8
  59 001a 52F83300 		ldr	r0, [r2, r3, lsl #3]
  60              	.LVL4:
  61 001e 7047     		bx	lr
  62              	.L9:
  63              		.align	2
  64              	.L8:
  65 0020 00000000 		.word	.LANCHOR0
  66 0024 00000000 		.word	.LC0
  67              		.cfi_endproc
  68              	.LFE118:
  69              		.size	i2c_errno_str, .-i2c_errno_str
  70 0028 AFF30080 		.section	.text.mpl3115a2_int_event_handler,"ax",%progbits
  70      AFF30080 
  71              		.align	2
  72              		.p2align 4,,15
  73              		.global	mpl3115a2_int_event_handler
  74              		.thumb
  75              		.thumb_func
  76              		.type	mpl3115a2_int_event_handler, %function
  77              	mpl3115a2_int_event_handler:
  78              	.LFB119:
  79              		.loc 1 62 0
  80              		.cfi_startproc
  81              		@ args = 0, pretend = 0, frame = 0
  82              		@ frame_needed = 0, uses_anonymous_args = 0
  83              		@ link register save eliminated.
  84              	.LVL5:
  85 0000 7047     		bx	lr
  86              		.cfi_endproc
  87              	.LFE119:
  88              		.size	mpl3115a2_int_event_handler, .-mpl3115a2_int_event_handler
  89 0002 00BFAFF3 		.section	.text.mpl3115a2_start,"ax",%progbits
  89      0080AFF3 
  89      0080AFF3 
  89      0080
  90              		.align	2
  91              		.p2align 4,,15
  92              		.global	mpl3115a2_start
  93              		.thumb
  94              		.thumb_func
  95              		.type	mpl3115a2_start, %function
  96              	mpl3115a2_start:
  97              	.LFB120:
  98              		.loc 1 67 0
  99              		.cfi_startproc
 100              		@ args = 0, pretend = 0, frame = 0
 101              		@ frame_needed = 0, uses_anonymous_args = 0
 102              	.LVL6:
 103              		.loc 1 67 0
 104 0000 2DE9F047 		push	{r4, r5, r6, r7, r8, r9, sl, lr}
 105              	.LCFI0:
 106              		.cfi_def_cfa_offset 32
 107              		.cfi_offset 4, -32
 108              		.cfi_offset 5, -28
 109              		.cfi_offset 6, -24
 110              		.cfi_offset 7, -20
ARM GAS  /tmp/cckDtn2d.s 			page 3


 111              		.cfi_offset 8, -16
 112              		.cfi_offset 9, -12
 113              		.cfi_offset 10, -8
 114              		.cfi_offset 14, -4
 115              		.loc 1 71 0
 116 0004 40F20005 		movw	r5, #:lower16:.LANCHOR1
 117 0008 C0F20005 		movt	r5, #:upper16:.LANCHOR1
 118              		.loc 1 67 0
 119 000c 84B0     		sub	sp, sp, #16
 120              	.LCFI1:
 121              		.cfi_def_cfa_offset 48
 122              		.loc 1 71 0
 123 000e 2623     		movs	r3, #38
 124              		.loc 1 67 0
 125 0010 0446     		mov	r4, r0
 126              		.loc 1 74 0
 127 0012 05F10806 		add	r6, r5, #8
 128 0016 05F13A09 		add	r9, r5, #58
 129 001a 4FF00008 		mov	r8, #0
 130 001e 4FF4C877 		mov	r7, #400
 131              		.loc 1 71 0
 132 0022 2B72     		strb	r3, [r5, #8]
 133              		.loc 1 72 0
 134 0024 B923     		movs	r3, #185
 135 0026 6B72     		strb	r3, [r5, #9]
 136              		.loc 1 73 0
 137 0028 FFF7FEFF 		bl	i2cAcquireBus
 138              	.LVL7:
 139              		.loc 1 74 0
 140 002c 6021     		movs	r1, #96
 141 002e 3246     		mov	r2, r6
 142 0030 0223     		movs	r3, #2
 143 0032 CDF80090 		str	r9, [sp, #0]
 144 0036 CDF80480 		str	r8, [sp, #4]
 145 003a 0297     		str	r7, [sp, #8]
 146 003c 2046     		mov	r0, r4
 147 003e FFF7FEFF 		bl	i2cMasterTransmitTimeout
 148              	.LVL8:
 149              		.loc 1 75 0
 150 0042 2046     		mov	r0, r4
 151 0044 FFF7FEFF 		bl	i2cReleaseBus
 152              	.LVL9:
 153              		.loc 1 78 0
 154 0048 4FF0800A 		mov	sl, #128
 155              		.loc 1 77 0
 156 004c 2923     		movs	r3, #41
 157              		.loc 1 79 0
 158 004e 2046     		mov	r0, r4
 159              		.loc 1 77 0
 160 0050 2B72     		strb	r3, [r5, #8]
 161              		.loc 1 78 0
 162 0052 85F809A0 		strb	sl, [r5, #9]
 163              		.loc 1 79 0
 164 0056 FFF7FEFF 		bl	i2cAcquireBus
 165              	.LVL10:
 166              		.loc 1 80 0
 167 005a 6021     		movs	r1, #96
ARM GAS  /tmp/cckDtn2d.s 			page 4


 168 005c 3246     		mov	r2, r6
 169 005e 0223     		movs	r3, #2
 170 0060 CDF80090 		str	r9, [sp, #0]
 171 0064 CDF80480 		str	r8, [sp, #4]
 172 0068 0297     		str	r7, [sp, #8]
 173 006a 2046     		mov	r0, r4
 174 006c FFF7FEFF 		bl	i2cMasterTransmitTimeout
 175              	.LVL11:
 176              		.loc 1 81 0
 177 0070 2046     		mov	r0, r4
 178 0072 FFF7FEFF 		bl	i2cReleaseBus
 179              	.LVL12:
 180              		.loc 1 84 0
 181 0076 0723     		movs	r3, #7
 182              		.loc 1 85 0
 183 0078 2046     		mov	r0, r4
 184              		.loc 1 84 0
 185 007a 2B72     		strb	r3, [r5, #8]
 186              		.loc 1 85 0
 187 007c FFF7FEFF 		bl	i2cAcquireBus
 188              	.LVL13:
 189              		.loc 1 86 0
 190 0080 6021     		movs	r1, #96
 191 0082 3246     		mov	r2, r6
 192 0084 0223     		movs	r3, #2
 193 0086 CDF80090 		str	r9, [sp, #0]
 194 008a CDF80480 		str	r8, [sp, #4]
 195 008e 0297     		str	r7, [sp, #8]
 196 0090 2046     		mov	r0, r4
 197 0092 FFF7FEFF 		bl	i2cMasterTransmitTimeout
 198              	.LVL14:
 199              		.loc 1 87 0
 200 0096 2046     		mov	r0, r4
 201 0098 FFF7FEFF 		bl	i2cReleaseBus
 202              	.LVL15:
 203              		.loc 1 90 0
 204 009c 1523     		movs	r3, #21
 205              		.loc 1 92 0
 206 009e 2046     		mov	r0, r4
 207              		.loc 1 90 0
 208 00a0 2B72     		strb	r3, [r5, #8]
 209              		.loc 1 91 0
 210 00a2 85F809A0 		strb	sl, [r5, #9]
 211              		.loc 1 92 0
 212 00a6 FFF7FEFF 		bl	i2cAcquireBus
 213              	.LVL16:
 214              		.loc 1 93 0
 215 00aa 6021     		movs	r1, #96
 216 00ac 3246     		mov	r2, r6
 217 00ae 0223     		movs	r3, #2
 218 00b0 CDF80090 		str	r9, [sp, #0]
 219 00b4 CDF80480 		str	r8, [sp, #4]
 220 00b8 0297     		str	r7, [sp, #8]
 221 00ba 2046     		mov	r0, r4
 222 00bc FFF7FEFF 		bl	i2cMasterTransmitTimeout
 223              	.LVL17:
 224              		.loc 1 94 0
ARM GAS  /tmp/cckDtn2d.s 			page 5


 225 00c0 2046     		mov	r0, r4
 226 00c2 FFF7FEFF 		bl	i2cReleaseBus
 227              	.LVL18:
 228              		.loc 1 95 0
 229 00c6 1423     		movs	r3, #20
 230              		.loc 1 97 0
 231 00c8 2046     		mov	r0, r4
 232              		.loc 1 95 0
 233 00ca 2B72     		strb	r3, [r5, #8]
 234              		.loc 1 96 0
 235 00cc 8D23     		movs	r3, #141
 236 00ce 6B72     		strb	r3, [r5, #9]
 237              		.loc 1 97 0
 238 00d0 FFF7FEFF 		bl	i2cAcquireBus
 239              	.LVL19:
 240              		.loc 1 98 0
 241 00d4 CDF80090 		str	r9, [sp, #0]
 242 00d8 CDF80480 		str	r8, [sp, #4]
 243 00dc 0297     		str	r7, [sp, #8]
 244 00de 2046     		mov	r0, r4
 245 00e0 6021     		movs	r1, #96
 246 00e2 3246     		mov	r2, r6
 247 00e4 0223     		movs	r3, #2
 248 00e6 FFF7FEFF 		bl	i2cMasterTransmitTimeout
 249              	.LVL20:
 250              		.loc 1 99 0
 251 00ea 2046     		mov	r0, r4
 252              		.loc 1 100 0
 253 00ec 04B0     		add	sp, sp, #16
 254 00ee BDE8F047 		pop	{r4, r5, r6, r7, r8, r9, sl, lr}
 255              		.loc 1 99 0
 256 00f2 FFF7FEBF 		b	i2cReleaseBus
 257              	.LVL21:
 258              		.cfi_endproc
 259              	.LFE120:
 260              		.size	mpl3115a2_start, .-mpl3115a2_start
 261 00f6 00BFAFF3 		.section	.text.mpl3115a2_get_altitude,"ax",%progbits
 261      0080AFF3 
 261      0080
 262              		.align	2
 263              		.p2align 4,,15
 264              		.global	mpl3115a2_get_altitude
 265              		.thumb
 266              		.thumb_func
 267              		.type	mpl3115a2_get_altitude, %function
 268              	mpl3115a2_get_altitude:
 269              	.LFB121:
 270              		.loc 1 102 0
 271              		.cfi_startproc
 272              		@ args = 0, pretend = 0, frame = 0
 273              		@ frame_needed = 0, uses_anonymous_args = 0
 274              	.LVL22:
 275 0000 2DE9F04F 		push	{r4, r5, r6, r7, r8, r9, sl, fp, lr}
 276              	.LCFI2:
 277              		.cfi_def_cfa_offset 36
 278              		.cfi_offset 4, -36
 279              		.cfi_offset 5, -32
ARM GAS  /tmp/cckDtn2d.s 			page 6


 280              		.cfi_offset 6, -28
 281              		.cfi_offset 7, -24
 282              		.cfi_offset 8, -20
 283              		.cfi_offset 9, -16
 284              		.cfi_offset 10, -12
 285              		.cfi_offset 11, -8
 286              		.cfi_offset 14, -4
 287              		.loc 1 110 0
 288 0004 40F20004 		movw	r4, #:lower16:.LANCHOR1
 289 0008 C0F20004 		movt	r4, #:upper16:.LANCHOR1
 290 000c 2746     		mov	r7, r4
 291 000e 0126     		movs	r6, #1
 292              		.loc 1 102 0
 293 0010 85B0     		sub	sp, sp, #20
 294              	.LCFI3:
 295              		.cfi_def_cfa_offset 56
 296              		.loc 1 110 0
 297 0012 07F8086F 		strb	r6, [r7, #8]!
 298              		.loc 1 102 0
 299 0016 0546     		mov	r5, r0
 300              		.loc 1 112 0
 301 0018 04F13A09 		add	r9, r4, #58
 302 001c 4FF4C878 		mov	r8, #400
 303              		.loc 1 111 0
 304 0020 FFF7FEFF 		bl	i2cAcquireBus
 305              	.LVL23:
 306              		.loc 1 112 0
 307 0024 6021     		movs	r1, #96
 308 0026 3A46     		mov	r2, r7
 309 0028 3346     		mov	r3, r6
 310 002a CDF80090 		str	r9, [sp, #0]
 311 002e 0196     		str	r6, [sp, #4]
 312 0030 CDF80880 		str	r8, [sp, #8]
 313 0034 2846     		mov	r0, r5
 314 0036 FFF7FEFF 		bl	i2cMasterTransmitTimeout
 315              	.LVL24:
 316              		.loc 1 113 0
 317 003a 2846     		mov	r0, r5
 318 003c FFF7FEFF 		bl	i2cReleaseBus
 319              	.LVL25:
 320              		.loc 1 116 0
 321 0040 0223     		movs	r3, #2
 322              		.loc 1 117 0
 323 0042 2846     		mov	r0, r5
 324              		.loc 1 114 0
 325 0044 94F83AB0 		ldrb	fp, [r4, #58]	@ zero_extendqisi2
 326              	.LVL26:
 327              		.loc 1 116 0
 328 0048 2372     		strb	r3, [r4, #8]
 329              		.loc 1 117 0
 330 004a FFF7FEFF 		bl	i2cAcquireBus
 331              	.LVL27:
 332              		.loc 1 118 0
 333 004e 6021     		movs	r1, #96
 334 0050 3A46     		mov	r2, r7
 335 0052 3346     		mov	r3, r6
 336 0054 CDF80090 		str	r9, [sp, #0]
ARM GAS  /tmp/cckDtn2d.s 			page 7


 337 0058 0196     		str	r6, [sp, #4]
 338 005a CDF80880 		str	r8, [sp, #8]
 339 005e 2846     		mov	r0, r5
 340 0060 FFF7FEFF 		bl	i2cMasterTransmitTimeout
 341              	.LVL28:
 342              		.loc 1 119 0
 343 0064 2846     		mov	r0, r5
 344 0066 FFF7FEFF 		bl	i2cReleaseBus
 345              	.LVL29:
 346              		.loc 1 122 0
 347 006a 0323     		movs	r3, #3
 348              		.loc 1 123 0
 349 006c 2846     		mov	r0, r5
 350              		.loc 1 120 0
 351 006e 94F83AA0 		ldrb	sl, [r4, #58]	@ zero_extendqisi2
 352              	.LVL30:
 353              		.loc 1 122 0
 354 0072 2372     		strb	r3, [r4, #8]
 355              		.loc 1 123 0
 356 0074 FFF7FEFF 		bl	i2cAcquireBus
 357              	.LVL31:
 358              		.loc 1 124 0
 359 0078 3346     		mov	r3, r6
 360 007a 6021     		movs	r1, #96
 361 007c 3A46     		mov	r2, r7
 362 007e CDF80090 		str	r9, [sp, #0]
 363 0082 0196     		str	r6, [sp, #4]
 364 0084 CDF80880 		str	r8, [sp, #8]
 365 0088 2846     		mov	r0, r5
 366 008a FFF7FEFF 		bl	i2cMasterTransmitTimeout
 367              	.LVL32:
 368              		.loc 1 125 0
 369 008e 2846     		mov	r0, r5
 370 0090 FFF7FEFF 		bl	i2cReleaseBus
 371              	.LVL33:
 372              		.loc 1 126 0
 373 0094 94F83A30 		ldrb	r3, [r4, #58]	@ zero_extendqisi2
 374              		.loc 1 127 0
 375 0098 4AEA0B2A 		orr	sl, sl, fp, lsl #8
 376              	.LVL34:
 377              		.loc 1 126 0
 378 009c 1B09     		lsrs	r3, r3, #4
 379 009e 07EE903A 		fmsr	s15, r3	@ int
 380              		.loc 1 127 0
 381 00a2 07EE10AA 		fmsr	s14, sl	@ int
 382              		.loc 1 126 0
 383 00a6 FAEECE7A 		vcvt.f32.s32	s15, s15, #4
 384              		.loc 1 127 0
 385 00aa B8EEC70A 		fsitos	s0, s14
 386              		.loc 1 129 0
 387 00ae 30EE270A 		fadds	s0, s0, s15
 388 00b2 05B0     		add	sp, sp, #20
 389 00b4 BDE8F08F 		pop	{r4, r5, r6, r7, r8, r9, sl, fp, pc}
 390              		.cfi_endproc
 391              	.LFE121:
 392              		.size	mpl3115a2_get_altitude, .-mpl3115a2_get_altitude
 393 00b8 AFF30080 		.section	.text.mpl3115a2_get_temperature,"ax",%progbits
ARM GAS  /tmp/cckDtn2d.s 			page 8


 393      AFF30080 
 394              		.align	2
 395              		.p2align 4,,15
 396              		.global	mpl3115a2_get_temperature
 397              		.thumb
 398              		.thumb_func
 399              		.type	mpl3115a2_get_temperature, %function
 400              	mpl3115a2_get_temperature:
 401              	.LFB122:
 402              		.loc 1 131 0
 403              		.cfi_startproc
 404              		@ args = 0, pretend = 0, frame = 0
 405              		@ frame_needed = 0, uses_anonymous_args = 0
 406              	.LVL35:
 407 0000 2DE9F047 		push	{r4, r5, r6, r7, r8, r9, sl, lr}
 408              	.LCFI4:
 409              		.cfi_def_cfa_offset 32
 410              		.cfi_offset 4, -32
 411              		.cfi_offset 5, -28
 412              		.cfi_offset 6, -24
 413              		.cfi_offset 7, -20
 414              		.cfi_offset 8, -16
 415              		.cfi_offset 9, -12
 416              		.cfi_offset 10, -8
 417              		.cfi_offset 14, -4
 418              		.loc 1 136 0
 419 0004 40F20004 		movw	r4, #:lower16:.LANCHOR1
 420 0008 C0F20004 		movt	r4, #:upper16:.LANCHOR1
 421 000c 2746     		mov	r7, r4
 422 000e 0423     		movs	r3, #4
 423              		.loc 1 131 0
 424 0010 84B0     		sub	sp, sp, #16
 425              	.LCFI5:
 426              		.cfi_def_cfa_offset 48
 427              		.loc 1 136 0
 428 0012 07F8083F 		strb	r3, [r7, #8]!
 429              		.loc 1 131 0
 430 0016 0546     		mov	r5, r0
 431              		.loc 1 138 0
 432 0018 0126     		movs	r6, #1
 433 001a 04F13A09 		add	r9, r4, #58
 434 001e 4FF4C878 		mov	r8, #400
 435              		.loc 1 137 0
 436 0022 FFF7FEFF 		bl	i2cAcquireBus
 437              	.LVL36:
 438              		.loc 1 138 0
 439 0026 6021     		movs	r1, #96
 440 0028 3A46     		mov	r2, r7
 441 002a 3346     		mov	r3, r6
 442 002c CDF80090 		str	r9, [sp, #0]
 443 0030 0196     		str	r6, [sp, #4]
 444 0032 CDF80880 		str	r8, [sp, #8]
 445 0036 2846     		mov	r0, r5
 446 0038 FFF7FEFF 		bl	i2cMasterTransmitTimeout
 447              	.LVL37:
 448              		.loc 1 139 0
 449 003c 2846     		mov	r0, r5
ARM GAS  /tmp/cckDtn2d.s 			page 9


 450 003e FFF7FEFF 		bl	i2cReleaseBus
 451              	.LVL38:
 452              		.loc 1 141 0
 453 0042 0523     		movs	r3, #5
 454              		.loc 1 142 0
 455 0044 2846     		mov	r0, r5
 456              		.loc 1 140 0
 457 0046 94F83AA0 		ldrb	sl, [r4, #58]	@ zero_extendqisi2
 458              	.LVL39:
 459              		.loc 1 141 0
 460 004a 2372     		strb	r3, [r4, #8]
 461              		.loc 1 142 0
 462 004c FFF7FEFF 		bl	i2cAcquireBus
 463              	.LVL40:
 464              		.loc 1 143 0
 465 0050 3346     		mov	r3, r6
 466 0052 6021     		movs	r1, #96
 467 0054 3A46     		mov	r2, r7
 468 0056 CDF80090 		str	r9, [sp, #0]
 469 005a 0196     		str	r6, [sp, #4]
 470 005c CDF80880 		str	r8, [sp, #8]
 471 0060 2846     		mov	r0, r5
 472 0062 FFF7FEFF 		bl	i2cMasterTransmitTimeout
 473              	.LVL41:
 474              		.loc 1 144 0
 475 0066 2846     		mov	r0, r5
 476 0068 FFF7FEFF 		bl	i2cReleaseBus
 477              	.LVL42:
 478              		.loc 1 145 0
 479 006c 94F83A30 		ldrb	r3, [r4, #58]	@ zero_extendqisi2
 480 0070 1B09     		lsrs	r3, r3, #4
 481 0072 07EE903A 		fmsr	s15, r3	@ int
 482              		.loc 1 146 0
 483 0076 07EE10AA 		fmsr	s14, sl	@ int
 484              		.loc 1 145 0
 485 007a FAEECE7A 		vcvt.f32.s32	s15, s15, #4
 486              		.loc 1 146 0
 487 007e B8EEC70A 		fsitos	s0, s14
 488              		.loc 1 148 0
 489 0082 30EE270A 		fadds	s0, s0, s15
 490 0086 04B0     		add	sp, sp, #16
 491 0088 BDE8F087 		pop	{r4, r5, r6, r7, r8, r9, sl, pc}
 492              		.cfi_endproc
 493              	.LFE122:
 494              		.size	mpl3115a2_get_temperature, .-mpl3115a2_get_temperature
 495              		.global	mpl3115a2_i2c_magn_addr
 496              		.global	mpl3115a2_i2c_slave_addr
 497              		.global	mpl3115a2_i2c_timeout
 498              		.global	mpl3115a2_int_event
 499              		.global	mpl3115a2_driver
 500              		.global	mpl3115a2_burst_magn_data
 501              		.global	mpl3115a2_burst_a_g_data
 502              		.global	mpl3115a2_cache_data
 503 008c AFF30080 		.section	.bss.mpl3115a2_burst_magn_data,"aw",%nobits
 504              		.align	2
 505              		.type	mpl3115a2_burst_magn_data, %object
 506              		.size	mpl3115a2_burst_magn_data, 1
ARM GAS  /tmp/cckDtn2d.s 			page 10


 507              	mpl3115a2_burst_magn_data:
 508 0000 00       		.space	1
 509 0001 000000   		.section	.rodata.mpl3115a2_i2c_magn_addr,"a",%progbits
 510              		.type	mpl3115a2_i2c_magn_addr, %object
 511              		.size	mpl3115a2_i2c_magn_addr, 1
 512              	mpl3115a2_i2c_magn_addr:
 513 0000 0C       		.byte	12
 514              		.section	.rodata.mpl3115a2_i2c_slave_addr,"a",%progbits
 515              		.type	mpl3115a2_i2c_slave_addr, %object
 516              		.size	mpl3115a2_i2c_slave_addr, 1
 517              	mpl3115a2_i2c_slave_addr:
 518 0000 60       		.byte	96
 519              		.section	.bss.mpl3115a2_driver,"aw",%nobits
 520              		.align	2
 521              		.set	.LANCHOR1,. + 0
 522              		.type	mpl3115a2_driver, %object
 523              		.size	mpl3115a2_driver, 108
 524              	mpl3115a2_driver:
 525 0000 00000000 		.space	108
 525      00000000 
 525      00000000 
 525      00000000 
 525      00000000 
 526              		.section	.bss.mpl3115a2_cache_data,"aw",%nobits
 527              		.align	2
 528              		.type	mpl3115a2_cache_data, %object
 529              		.size	mpl3115a2_cache_data, 104
 530              	mpl3115a2_cache_data:
 531 0000 00000000 		.space	104
 531      00000000 
 531      00000000 
 531      00000000 
 531      00000000 
 532              		.section	.bss.mpl3115a2_burst_a_g_data,"aw",%nobits
 533              		.align	2
 534              		.type	mpl3115a2_burst_a_g_data, %object
 535              		.size	mpl3115a2_burst_a_g_data, 1
 536              	mpl3115a2_burst_a_g_data:
 537 0000 00       		.space	1
 538 0001 000000   		.section	.rodata.i2c_debug_errors,"a",%progbits
 539              		.align	2
 540              		.set	.LANCHOR0,. + 0
 541              		.type	i2c_debug_errors, %object
 542              		.size	i2c_debug_errors, 72
 543              	i2c_debug_errors:
 544 0000 14000000 		.word	.LC1
 545 0004 00000000 		.word	0
 546 0008 28000000 		.word	.LC2
 547 000c 01000000 		.word	1
 548 0010 3C000000 		.word	.LC3
 549 0014 02000000 		.word	2
 550 0018 50000000 		.word	.LC4
 551 001c 04000000 		.word	4
 552 0020 64000000 		.word	.LC5
 553 0024 04000000 		.word	4
 554 0028 78000000 		.word	.LC6
 555 002c 08000000 		.word	8
ARM GAS  /tmp/cckDtn2d.s 			page 11


 556 0030 8C000000 		.word	.LC7
 557 0034 10000000 		.word	16
 558 0038 A0000000 		.word	.LC8
 559 003c 20000000 		.word	32
 560 0040 B4000000 		.word	.LC9
 561 0044 40000000 		.word	64
 562              		.section	.rodata.str1.4,"aMS",%progbits,1
 563              		.align	2
 564              	.LC0:
 565 0000 49324320 		.ascii	"I2C Error Unknown\000"
 565      4572726F 
 565      7220556E 
 565      6B6E6F77 
 565      6E00
 566 0012 0000     		.space	2
 567              	.LC1:
 568 0014 4932435F 		.ascii	"I2C_NO_ERROR    \000"
 568      4E4F5F45 
 568      52524F52 
 568      20202020 
 568      00
 569 0025 000000   		.space	3
 570              	.LC2:
 571 0028 4932435F 		.ascii	"I2C_BUS_ERROR   \000"
 571      4255535F 
 571      4552524F 
 571      52202020 
 571      00
 572 0039 000000   		.space	3
 573              	.LC3:
 574 003c 4932435F 		.ascii	"I2C_ARBIT_LOST  \000"
 574      41524249 
 574      545F4C4F 
 574      53542020 
 574      00
 575 004d 000000   		.space	3
 576              	.LC4:
 577 0050 4932435F 		.ascii	"I2C_ACK_FAIL    \000"
 577      41434B5F 
 577      4641494C 
 577      20202020 
 577      00
 578 0061 000000   		.space	3
 579              	.LC5:
 580 0064 49324344 		.ascii	"I2CD_ACK_FAILURE\000"
 580      5F41434B 
 580      5F464149 
 580      4C555245 
 580      00
 581 0075 000000   		.space	3
 582              	.LC6:
 583 0078 49324344 		.ascii	"I2CD_OVERRUN    \000"
 583      5F4F5645 
 583      5252554E 
 583      20202020 
 583      00
 584 0089 000000   		.space	3
ARM GAS  /tmp/cckDtn2d.s 			page 12


 585              	.LC7:
 586 008c 49324344 		.ascii	"I2CD_PEC_ERROR  \000"
 586      5F504543 
 586      5F455252 
 586      4F522020 
 586      00
 587 009d 000000   		.space	3
 588              	.LC8:
 589 00a0 49324344 		.ascii	"I2CD_TIMEOUT    \000"
 589      5F54494D 
 589      454F5554 
 589      20202020 
 589      00
 590 00b1 000000   		.space	3
 591              	.LC9:
 592 00b4 49324344 		.ascii	"I2CD_SMB_ALERT  \000"
 592      5F534D42 
 592      5F414C45 
 592      52542020 
 592      00
 593 00c5 000000   		.section	.bss.mpl3115a2_int_event,"aw",%nobits
 594              		.align	2
 595              		.type	mpl3115a2_int_event, %object
 596              		.size	mpl3115a2_int_event, 4
 597              	mpl3115a2_int_event:
 598 0000 00000000 		.space	4
 599              		.section	.rodata.mpl3115a2_i2c_timeout,"a",%progbits
 600              		.align	2
 601              		.type	mpl3115a2_i2c_timeout, %object
 602              		.size	mpl3115a2_i2c_timeout, 4
 603              	mpl3115a2_i2c_timeout:
 604 0000 90010000 		.word	400
 605              		.text
 606              	.Letext0:
 607              		.file 2 "/home/david/toolchains/psas/x-tools/stm32f407/arm-psas-eabi/bin/../lib/gcc/arm-psas-eabi/
 608              		.file 3 "/home/david/toolchains/psas/x-tools/stm32f407/arm-psas-eabi/bin/../lib/gcc/arm-psas-eabi/
 609              		.file 4 "../../ChibiOS/os/ports/GCC/ARMCMx/chtypes.h"
 610              		.file 5 "../../ChibiOS/os/kernel/include/chlists.h"
 611              		.file 6 "../../ChibiOS/os/kernel/include/chthreads.h"
 612              		.file 7 "../../ChibiOS/os/ports/GCC/ARMCMx/chcore_v7m.h"
 613              		.file 8 "../../ChibiOS/os/kernel/include/chmtx.h"
 614              		.file 9 "../../ChibiOS/os/kernel/include/chevents.h"
 615              		.file 10 "../../ChibiOS/os/hal/platforms/STM32F4xx/stm32f4xx.h"
 616              		.file 11 "../../ChibiOS/os/hal/platforms/STM32F4xx/stm32_dma.h"
 617              		.file 12 "../../ChibiOS/os/hal/include/i2c.h"
 618              		.file 13 "../../ChibiOS/os/hal/platforms/STM32/I2Cv1/i2c_lld.h"
 619              		.file 14 "../../devices/include/MPL3115A2.h"
 620              		.file 15 "../../ChibiOS/os/ports/common/ARMCMx/CMSIS/include/core_cm4.h"