ARM GAS  /tmp/cczDKINg.s 			page 1


   1              		.syntax unified
   2              		.cpu cortex-m4
   3              		.eabi_attribute 27, 3
   4              		.eabi_attribute 28, 1
   5              		.fpu fpv4-sp-d16
   6              		.eabi_attribute 20, 1
   7              		.eabi_attribute 21, 1
   8              		.eabi_attribute 23, 3
   9              		.eabi_attribute 24, 1
  10              		.eabi_attribute 25, 1
  11              		.eabi_attribute 26, 1
  12              		.eabi_attribute 30, 2
  13              		.eabi_attribute 34, 1
  14              		.eabi_attribute 18, 4
  15              		.thumb
  16              		.file	"MPL3115A2.c"
  17              		.text
  18              	.Ltext0:
  19              		.cfi_sections	.debug_frame
  20              		.section	.text.i2c_errno_str,"ax",%progbits
  21              		.align	2
  22              		.p2align 4,,15
  23              		.global	i2c_errno_str
  24              		.thumb
  25              		.thumb_func
  26              		.type	i2c_errno_str, %function
  27              	i2c_errno_str:
  28              	.LFB118:
  29              		.file 1 "../../devices/MPL3115A2.c"
  30              		.loc 1 44 0
  31              		.cfi_startproc
  32              		@ args = 0, pretend = 0, frame = 0
  33              		@ frame_needed = 0, uses_anonymous_args = 0
  34              		@ link register save eliminated.
  35              	.LVL0:
  36 0000 0749     		ldr	r1, .L8
  37              		.loc 1 44 0
  38 0002 0023     		movs	r3, #0
  39              	.LVL1:
  40              	.L4:
  41 0004 01EBC302 		add	r2, r1, r3, lsl #3
  42              		.loc 1 49 0
  43 0008 5268     		ldr	r2, [r2, #4]
  44 000a 8242     		cmp	r2, r0
  45 000c 04D0     		beq	.L7
  46 000e 0133     		adds	r3, r3, #1
  47              		.loc 1 48 0
  48 0010 092B     		cmp	r3, #9
  49 0012 F7D1     		bne	.L4
  50              		.loc 1 53 0
  51 0014 0348     		ldr	r0, .L8+4
  52              	.LVL2:
  53              		.loc 1 54 0
  54 0016 7047     		bx	lr
  55              	.LVL3:
  56              	.L7:
  57              		.loc 1 50 0
ARM GAS  /tmp/cczDKINg.s 			page 2


  58 0018 014A     		ldr	r2, .L8
  59 001a 52F83300 		ldr	r0, [r2, r3, lsl #3]
  60              	.LVL4:
  61 001e 7047     		bx	lr
  62              	.L9:
  63              		.align	2
  64              	.L8:
  65 0020 00000000 		.word	.LANCHOR0
  66 0024 00000000 		.word	.LC0
  67              		.cfi_endproc
  68              	.LFE118:
  69              		.size	i2c_errno_str, .-i2c_errno_str
  70 0028 AFF30080 		.section	.text.mpl3115a2_int_event_handler,"ax",%progbits
  70      AFF30080 
  71              		.align	2
  72              		.p2align 4,,15
  73              		.global	mpl3115a2_int_event_handler
  74              		.thumb
  75              		.thumb_func
  76              		.type	mpl3115a2_int_event_handler, %function
  77              	mpl3115a2_int_event_handler:
  78              	.LFB119:
  79              		.loc 1 62 0
  80              		.cfi_startproc
  81              		@ args = 0, pretend = 0, frame = 0
  82              		@ frame_needed = 0, uses_anonymous_args = 0
  83              		@ link register save eliminated.
  84              	.LVL5:
  85 0000 7047     		bx	lr
  86              		.cfi_endproc
  87              	.LFE119:
  88              		.size	mpl3115a2_int_event_handler, .-mpl3115a2_int_event_handler
  89 0002 00BFAFF3 		.section	.text.mpl3115a2_start,"ax",%progbits
  89      0080AFF3 
  89      0080AFF3 
  89      0080
  90              		.align	2
  91              		.p2align 4,,15
  92              		.global	mpl3115a2_start
  93              		.thumb
  94              		.thumb_func
  95              		.type	mpl3115a2_start, %function
  96              	mpl3115a2_start:
  97              	.LFB120:
  98              		.loc 1 67 0
  99              		.cfi_startproc
 100              		@ args = 0, pretend = 0, frame = 0
 101              		@ frame_needed = 0, uses_anonymous_args = 0
 102              		@ link register save eliminated.
 103              	.LVL6:
 104              		.loc 1 70 0
 105 0000 0D4A     		ldr	r2, .L16
 106 0002 0E49     		ldr	r1, .L16+4
 107              		.loc 1 67 0
 108 0004 30B4     		push	{r4, r5}
 109              	.LCFI0:
 110              		.cfi_def_cfa_offset 8
ARM GAS  /tmp/cczDKINg.s 			page 3


 111              		.cfi_offset 4, -8
 112              		.cfi_offset 5, -4
 113              		.loc 1 71 0
 114 0006 5060     		str	r0, [r2, #4]
 115              		.loc 1 70 0
 116 0008 0020     		movs	r0, #0
 117              	.LVL7:
 118              		.loc 1 71 0
 119 000a 0346     		mov	r3, r0
 120              		.loc 1 70 0
 121 000c 1060     		str	r0, [r2, #0]
 122              	.LVL8:
 123              	.L12:
 124              		.loc 1 67 0 discriminator 2
 125 000e D518     		adds	r5, r2, r3
 126 0010 CC18     		adds	r4, r1, r3
 127 0012 0133     		adds	r3, r3, #1
 128              		.loc 1 72 0 discriminator 2
 129 0014 322B     		cmp	r3, #50
 130              		.loc 1 73 0 discriminator 2
 131 0016 2872     		strb	r0, [r5, #8]
 132              		.loc 1 74 0 discriminator 2
 133 0018 2071     		strb	r0, [r4, #4]
 134              		.loc 1 72 0 discriminator 2
 135 001a F8D1     		bne	.L12
 136              		.loc 1 72 0 is_stmt 0
 137 001c 0023     		movs	r3, #0
 138              		.loc 1 77 0 is_stmt 1
 139 001e A520     		movs	r0, #165
 140              	.L13:
 141              		.loc 1 67 0 discriminator 2
 142 0020 D518     		adds	r5, r2, r3
 143 0022 CC18     		adds	r4, r1, r3
 144 0024 0133     		adds	r3, r3, #1
 145              		.loc 1 76 0 discriminator 2
 146 0026 322B     		cmp	r3, #50
 147              		.loc 1 77 0 discriminator 2
 148 0028 85F83A00 		strb	r0, [r5, #58]
 149              		.loc 1 78 0 discriminator 2
 150 002c 84F83600 		strb	r0, [r4, #54]
 151              		.loc 1 76 0 discriminator 2
 152 0030 F6D1     		bne	.L13
 153              		.loc 1 81 0
 154 0032 30BC     		pop	{r4, r5}
 155 0034 7047     		bx	lr
 156              	.L17:
 157 0036 00BF     		.align	2
 158              	.L16:
 159 0038 00000000 		.word	.LANCHOR1
 160 003c 00000000 		.word	.LANCHOR2
 161              		.cfi_endproc
 162              	.LFE120:
 163              		.size	mpl3115a2_start, .-mpl3115a2_start
 164              		.section	.text.mpl3115a2_init,"ax",%progbits
 165              		.align	2
 166              		.p2align 4,,15
 167              		.global	mpl3115a2_init
ARM GAS  /tmp/cczDKINg.s 			page 4


 168              		.thumb
 169              		.thumb_func
 170              		.type	mpl3115a2_init, %function
 171              	mpl3115a2_init:
 172              	.LFB121:
 173              		.loc 1 83 0
 174              		.cfi_startproc
 175              		@ args = 0, pretend = 0, frame = 0
 176              		@ frame_needed = 0, uses_anonymous_args = 0
 177              	.LVL9:
 178 0000 2DE9F047 		push	{r4, r5, r6, r7, r8, r9, sl, lr}
 179              	.LCFI1:
 180              		.cfi_def_cfa_offset 32
 181              		.cfi_offset 4, -32
 182              		.cfi_offset 5, -28
 183              		.cfi_offset 6, -24
 184              		.cfi_offset 7, -20
 185              		.cfi_offset 8, -16
 186              		.cfi_offset 9, -12
 187              		.cfi_offset 10, -8
 188              		.cfi_offset 14, -4
 189              		.loc 1 87 0
 190 0004 40F20005 		movw	r5, #:lower16:.LANCHOR1
 191 0008 C0F20005 		movt	r5, #:upper16:.LANCHOR1
 192              		.loc 1 83 0
 193 000c 84B0     		sub	sp, sp, #16
 194              	.LCFI2:
 195              		.cfi_def_cfa_offset 48
 196              		.loc 1 87 0
 197 000e 2623     		movs	r3, #38
 198              		.loc 1 83 0
 199 0010 0446     		mov	r4, r0
 200              		.loc 1 90 0
 201 0012 05F10809 		add	r9, r5, #8
 202 0016 05F13A08 		add	r8, r5, #58
 203 001a 0027     		movs	r7, #0
 204 001c 4FF4C876 		mov	r6, #400
 205              		.loc 1 87 0
 206 0020 2B72     		strb	r3, [r5, #8]
 207              		.loc 1 88 0
 208 0022 B923     		movs	r3, #185
 209 0024 6B72     		strb	r3, [r5, #9]
 210              		.loc 1 89 0
 211 0026 FFF7FEFF 		bl	i2cAcquireBus
 212              	.LVL10:
 213              		.loc 1 90 0
 214 002a 6021     		movs	r1, #96
 215 002c 4A46     		mov	r2, r9
 216 002e 0223     		movs	r3, #2
 217 0030 CDF80080 		str	r8, [sp, #0]
 218 0034 0197     		str	r7, [sp, #4]
 219 0036 0296     		str	r6, [sp, #8]
 220 0038 2046     		mov	r0, r4
 221 003a FFF7FEFF 		bl	i2cMasterTransmitTimeout
 222              	.LVL11:
 223              		.loc 1 91 0
 224 003e 2046     		mov	r0, r4
ARM GAS  /tmp/cczDKINg.s 			page 5


 225 0040 FFF7FEFF 		bl	i2cReleaseBus
 226              	.LVL12:
 227              		.loc 1 94 0
 228 0044 4FF0800A 		mov	sl, #128
 229              		.loc 1 93 0
 230 0048 2923     		movs	r3, #41
 231              		.loc 1 95 0
 232 004a 2046     		mov	r0, r4
 233              		.loc 1 93 0
 234 004c 2B72     		strb	r3, [r5, #8]
 235              		.loc 1 94 0
 236 004e 85F809A0 		strb	sl, [r5, #9]
 237              		.loc 1 95 0
 238 0052 FFF7FEFF 		bl	i2cAcquireBus
 239              	.LVL13:
 240              		.loc 1 96 0
 241 0056 6021     		movs	r1, #96
 242 0058 4A46     		mov	r2, r9
 243 005a 0223     		movs	r3, #2
 244 005c CDF80080 		str	r8, [sp, #0]
 245 0060 0197     		str	r7, [sp, #4]
 246 0062 0296     		str	r6, [sp, #8]
 247 0064 2046     		mov	r0, r4
 248 0066 FFF7FEFF 		bl	i2cMasterTransmitTimeout
 249              	.LVL14:
 250              		.loc 1 97 0
 251 006a 2046     		mov	r0, r4
 252 006c FFF7FEFF 		bl	i2cReleaseBus
 253              	.LVL15:
 254              		.loc 1 100 0
 255 0070 0723     		movs	r3, #7
 256              		.loc 1 101 0
 257 0072 2046     		mov	r0, r4
 258              		.loc 1 100 0
 259 0074 2B72     		strb	r3, [r5, #8]
 260              		.loc 1 101 0
 261 0076 FFF7FEFF 		bl	i2cAcquireBus
 262              	.LVL16:
 263              		.loc 1 102 0
 264 007a 6021     		movs	r1, #96
 265 007c 4A46     		mov	r2, r9
 266 007e 0223     		movs	r3, #2
 267 0080 CDF80080 		str	r8, [sp, #0]
 268 0084 0197     		str	r7, [sp, #4]
 269 0086 0296     		str	r6, [sp, #8]
 270 0088 2046     		mov	r0, r4
 271 008a FFF7FEFF 		bl	i2cMasterTransmitTimeout
 272              	.LVL17:
 273              		.loc 1 103 0
 274 008e 2046     		mov	r0, r4
 275 0090 FFF7FEFF 		bl	i2cReleaseBus
 276              	.LVL18:
 277              		.loc 1 106 0
 278 0094 1523     		movs	r3, #21
 279              		.loc 1 108 0
 280 0096 2046     		mov	r0, r4
 281              		.loc 1 106 0
ARM GAS  /tmp/cczDKINg.s 			page 6


 282 0098 2B72     		strb	r3, [r5, #8]
 283              		.loc 1 107 0
 284 009a 85F809A0 		strb	sl, [r5, #9]
 285              		.loc 1 108 0
 286 009e FFF7FEFF 		bl	i2cAcquireBus
 287              	.LVL19:
 288              		.loc 1 109 0
 289 00a2 6021     		movs	r1, #96
 290 00a4 4A46     		mov	r2, r9
 291 00a6 0223     		movs	r3, #2
 292 00a8 CDF80080 		str	r8, [sp, #0]
 293 00ac 0197     		str	r7, [sp, #4]
 294 00ae 0296     		str	r6, [sp, #8]
 295 00b0 2046     		mov	r0, r4
 296 00b2 FFF7FEFF 		bl	i2cMasterTransmitTimeout
 297              	.LVL20:
 298              		.loc 1 110 0
 299 00b6 2046     		mov	r0, r4
 300 00b8 FFF7FEFF 		bl	i2cReleaseBus
 301              	.LVL21:
 302              		.loc 1 111 0
 303 00bc 1423     		movs	r3, #20
 304              		.loc 1 113 0
 305 00be 2046     		mov	r0, r4
 306              		.loc 1 111 0
 307 00c0 2B72     		strb	r3, [r5, #8]
 308              		.loc 1 112 0
 309 00c2 8D23     		movs	r3, #141
 310 00c4 6B72     		strb	r3, [r5, #9]
 311              		.loc 1 113 0
 312 00c6 FFF7FEFF 		bl	i2cAcquireBus
 313              	.LVL22:
 314              		.loc 1 114 0
 315 00ca 6021     		movs	r1, #96
 316 00cc 4A46     		mov	r2, r9
 317 00ce 0223     		movs	r3, #2
 318 00d0 CDF80080 		str	r8, [sp, #0]
 319 00d4 0197     		str	r7, [sp, #4]
 320 00d6 0296     		str	r6, [sp, #8]
 321 00d8 2046     		mov	r0, r4
 322 00da FFF7FEFF 		bl	i2cMasterTransmitTimeout
 323              	.LVL23:
 324 00de 0546     		mov	r5, r0
 325              	.LVL24:
 326              		.loc 1 115 0
 327 00e0 2046     		mov	r0, r4
 328              	.LVL25:
 329 00e2 FFF7FEFF 		bl	i2cReleaseBus
 330              	.LVL26:
 331              		.loc 1 117 0
 332 00e6 2846     		mov	r0, r5
 333 00e8 04B0     		add	sp, sp, #16
 334 00ea BDE8F087 		pop	{r4, r5, r6, r7, r8, r9, sl, pc}
 335              		.cfi_endproc
 336              	.LFE121:
 337              		.size	mpl3115a2_init, .-mpl3115a2_init
 338 00ee 00BF     		.section	.text.mpl3115a2_get_altitude,"ax",%progbits
ARM GAS  /tmp/cczDKINg.s 			page 7


 339              		.align	2
 340              		.p2align 4,,15
 341              		.global	mpl3115a2_get_altitude
 342              		.thumb
 343              		.thumb_func
 344              		.type	mpl3115a2_get_altitude, %function
 345              	mpl3115a2_get_altitude:
 346              	.LFB122:
 347              		.loc 1 119 0
 348              		.cfi_startproc
 349              		@ args = 0, pretend = 0, frame = 0
 350              		@ frame_needed = 0, uses_anonymous_args = 0
 351              	.LVL27:
 352 0000 F0B5     		push	{r4, r5, r6, r7, lr}
 353              	.LCFI3:
 354              		.cfi_def_cfa_offset 20
 355              		.cfi_offset 4, -20
 356              		.cfi_offset 5, -16
 357              		.cfi_offset 6, -12
 358              		.cfi_offset 7, -8
 359              		.cfi_offset 14, -4
 360              		.loc 1 127 0
 361 0002 40F20004 		movw	r4, #:lower16:.LANCHOR1
 362 0006 C0F20004 		movt	r4, #:upper16:.LANCHOR1
 363 000a 2646     		mov	r6, r4
 364 000c 0125     		movs	r5, #1
 365              		.loc 1 119 0
 366 000e 85B0     		sub	sp, sp, #20
 367              	.LCFI4:
 368              		.cfi_def_cfa_offset 40
 369              		.loc 1 127 0
 370 0010 06F8085F 		strb	r5, [r6, #8]!
 371              		.loc 1 119 0
 372 0014 0746     		mov	r7, r0
 373              		.loc 1 129 0
 374 0016 3A34     		adds	r4, r4, #58
 375              		.loc 1 128 0
 376 0018 FFF7FEFF 		bl	i2cAcquireBus
 377              	.LVL28:
 378              		.loc 1 129 0
 379 001c 4FF4C870 		mov	r0, #400
 380 0020 6021     		movs	r1, #96
 381 0022 3246     		mov	r2, r6
 382 0024 2B46     		mov	r3, r5
 383 0026 0290     		str	r0, [sp, #8]
 384 0028 8DE83000 		stmia	sp, {r4, r5}
 385 002c 3846     		mov	r0, r7
 386 002e FFF7FEFF 		bl	i2cMasterTransmitTimeout
 387              	.LVL29:
 388              		.loc 1 130 0
 389 0032 3846     		mov	r0, r7
 390 0034 FFF7FEFF 		bl	i2cReleaseBus
 391              	.LVL30:
 392              		.loc 1 148 0
 393 0038 B1EE040A 		fconsts	s0, #20
 394 003c 05B0     		add	sp, sp, #20
 395 003e F0BD     		pop	{r4, r5, r6, r7, pc}
ARM GAS  /tmp/cczDKINg.s 			page 8


 396              		.cfi_endproc
 397              	.LFE122:
 398              		.size	mpl3115a2_get_altitude, .-mpl3115a2_get_altitude
 399              		.section	.text.mpl3115a2_get_temperature,"ax",%progbits
 400              		.align	2
 401              		.p2align 4,,15
 402              		.global	mpl3115a2_get_temperature
 403              		.thumb
 404              		.thumb_func
 405              		.type	mpl3115a2_get_temperature, %function
 406              	mpl3115a2_get_temperature:
 407              	.LFB123:
 408              		.loc 1 150 0
 409              		.cfi_startproc
 410              		@ args = 0, pretend = 0, frame = 0
 411              		@ frame_needed = 0, uses_anonymous_args = 0
 412              	.LVL31:
 413 0000 30B5     		push	{r4, r5, lr}
 414              	.LCFI5:
 415              		.cfi_def_cfa_offset 12
 416              		.cfi_offset 4, -12
 417              		.cfi_offset 5, -8
 418              		.cfi_offset 14, -4
 419              		.loc 1 161 0
 420 0002 40F20004 		movw	r4, #:lower16:.LANCHOR1
 421 0006 C0F20004 		movt	r4, #:upper16:.LANCHOR1
 422 000a 2623     		movs	r3, #38
 423              		.loc 1 150 0
 424 000c 85B0     		sub	sp, sp, #20
 425              	.LCFI6:
 426              		.cfi_def_cfa_offset 32
 427              		.loc 1 161 0
 428 000e 2372     		strb	r3, [r4, #8]
 429              		.loc 1 162 0
 430 0010 B923     		movs	r3, #185
 431              		.loc 1 150 0
 432 0012 0546     		mov	r5, r0
 433              		.loc 1 162 0
 434 0014 6372     		strb	r3, [r4, #9]
 435              		.loc 1 163 0
 436 0016 FFF7FEFF 		bl	i2cAcquireBus
 437              	.LVL32:
 438              		.loc 1 164 0
 439 001a 04F13A00 		add	r0, r4, #58
 440 001e 0090     		str	r0, [sp, #0]
 441 0020 0020     		movs	r0, #0
 442 0022 0190     		str	r0, [sp, #4]
 443 0024 4FF4C870 		mov	r0, #400
 444 0028 6021     		movs	r1, #96
 445 002a 04F10802 		add	r2, r4, #8
 446 002e 0223     		movs	r3, #2
 447 0030 0290     		str	r0, [sp, #8]
 448 0032 2846     		mov	r0, r5
 449 0034 FFF7FEFF 		bl	i2cMasterTransmitTimeout
 450              	.LVL33:
 451              		.loc 1 165 0
 452 0038 2846     		mov	r0, r5
ARM GAS  /tmp/cczDKINg.s 			page 9


 453 003a FFF7FEFF 		bl	i2cReleaseBus
 454              	.LVL34:
 455              		.loc 1 176 0
 456 003e 9FED020A 		flds	s0, .L21
 457 0042 05B0     		add	sp, sp, #20
 458 0044 30BD     		pop	{r4, r5, pc}
 459              	.L22:
 460 0046 00BF     		.align	2
 461              	.L21:
 462 0048 00000000 		.word	0
 463              		.cfi_endproc
 464              	.LFE123:
 465              		.size	mpl3115a2_get_temperature, .-mpl3115a2_get_temperature
 466              		.global	mpl3115a2_i2c_magn_addr
 467              		.global	mpl3115a2_i2c_slave_addr
 468              		.global	mpl3115a2_i2c_timeout
 469              		.global	mpl3115a2_int_event
 470              		.global	mpl3115a2_driver
 471              		.global	mpl3115a2_burst_magn_data
 472              		.global	mpl3115a2_burst_a_g_data
 473              		.global	mpl3115a2_cache_data
 474 004c AFF30080 		.section	.bss.mpl3115a2_burst_magn_data,"aw",%nobits
 475              		.align	2
 476              		.type	mpl3115a2_burst_magn_data, %object
 477              		.size	mpl3115a2_burst_magn_data, 1
 478              	mpl3115a2_burst_magn_data:
 479 0000 00       		.space	1
 480 0001 000000   		.section	.rodata.mpl3115a2_i2c_magn_addr,"a",%progbits
 481              		.type	mpl3115a2_i2c_magn_addr, %object
 482              		.size	mpl3115a2_i2c_magn_addr, 1
 483              	mpl3115a2_i2c_magn_addr:
 484 0000 0C       		.byte	12
 485              		.section	.rodata.mpl3115a2_i2c_slave_addr,"a",%progbits
 486              		.type	mpl3115a2_i2c_slave_addr, %object
 487              		.size	mpl3115a2_i2c_slave_addr, 1
 488              	mpl3115a2_i2c_slave_addr:
 489 0000 60       		.byte	96
 490              		.section	.bss.mpl3115a2_driver,"aw",%nobits
 491              		.align	2
 492              		.set	.LANCHOR1,. + 0
 493              		.type	mpl3115a2_driver, %object
 494              		.size	mpl3115a2_driver, 108
 495              	mpl3115a2_driver:
 496 0000 00000000 		.space	108
 496      00000000 
 496      00000000 
 496      00000000 
 496      00000000 
 497              		.section	.bss.mpl3115a2_cache_data,"aw",%nobits
 498              		.align	2
 499              		.set	.LANCHOR2,. + 0
 500              		.type	mpl3115a2_cache_data, %object
 501              		.size	mpl3115a2_cache_data, 104
 502              	mpl3115a2_cache_data:
 503 0000 00000000 		.space	104
 503      00000000 
 503      00000000 
ARM GAS  /tmp/cczDKINg.s 			page 10


 503      00000000 
 503      00000000 
 504              		.section	.bss.mpl3115a2_burst_a_g_data,"aw",%nobits
 505              		.align	2
 506              		.type	mpl3115a2_burst_a_g_data, %object
 507              		.size	mpl3115a2_burst_a_g_data, 1
 508              	mpl3115a2_burst_a_g_data:
 509 0000 00       		.space	1
 510 0001 000000   		.section	.rodata.i2c_debug_errors,"a",%progbits
 511              		.align	2
 512              		.set	.LANCHOR0,. + 0
 513              		.type	i2c_debug_errors, %object
 514              		.size	i2c_debug_errors, 72
 515              	i2c_debug_errors:
 516 0000 14000000 		.word	.LC1
 517 0004 00000000 		.word	0
 518 0008 28000000 		.word	.LC2
 519 000c 01000000 		.word	1
 520 0010 3C000000 		.word	.LC3
 521 0014 02000000 		.word	2
 522 0018 50000000 		.word	.LC4
 523 001c 04000000 		.word	4
 524 0020 64000000 		.word	.LC5
 525 0024 04000000 		.word	4
 526 0028 78000000 		.word	.LC6
 527 002c 08000000 		.word	8
 528 0030 8C000000 		.word	.LC7
 529 0034 10000000 		.word	16
 530 0038 A0000000 		.word	.LC8
 531 003c 20000000 		.word	32
 532 0040 B4000000 		.word	.LC9
 533 0044 40000000 		.word	64
 534              		.section	.rodata.str1.4,"aMS",%progbits,1
 535              		.align	2
 536              	.LC0:
 537 0000 49324320 		.ascii	"I2C Error Unknown\000"
 537      4572726F 
 537      7220556E 
 537      6B6E6F77 
 537      6E00
 538 0012 0000     		.space	2
 539              	.LC1:
 540 0014 4932435F 		.ascii	"I2C_NO_ERROR    \000"
 540      4E4F5F45 
 540      52524F52 
 540      20202020 
 540      00
 541 0025 000000   		.space	3
 542              	.LC2:
 543 0028 4932435F 		.ascii	"I2C_BUS_ERROR   \000"
 543      4255535F 
 543      4552524F 
 543      52202020 
 543      00
 544 0039 000000   		.space	3
 545              	.LC3:
 546 003c 4932435F 		.ascii	"I2C_ARBIT_LOST  \000"
ARM GAS  /tmp/cczDKINg.s 			page 11


 546      41524249 
 546      545F4C4F 
 546      53542020 
 546      00
 547 004d 000000   		.space	3
 548              	.LC4:
 549 0050 4932435F 		.ascii	"I2C_ACK_FAIL    \000"
 549      41434B5F 
 549      4641494C 
 549      20202020 
 549      00
 550 0061 000000   		.space	3
 551              	.LC5:
 552 0064 49324344 		.ascii	"I2CD_ACK_FAILURE\000"
 552      5F41434B 
 552      5F464149 
 552      4C555245 
 552      00
 553 0075 000000   		.space	3
 554              	.LC6:
 555 0078 49324344 		.ascii	"I2CD_OVERRUN    \000"
 555      5F4F5645 
 555      5252554E 
 555      20202020 
 555      00
 556 0089 000000   		.space	3
 557              	.LC7:
 558 008c 49324344 		.ascii	"I2CD_PEC_ERROR  \000"
 558      5F504543 
 558      5F455252 
 558      4F522020 
 558      00
 559 009d 000000   		.space	3
 560              	.LC8:
 561 00a0 49324344 		.ascii	"I2CD_TIMEOUT    \000"
 561      5F54494D 
 561      454F5554 
 561      20202020 
 561      00
 562 00b1 000000   		.space	3
 563              	.LC9:
 564 00b4 49324344 		.ascii	"I2CD_SMB_ALERT  \000"
 564      5F534D42 
 564      5F414C45 
 564      52542020 
 564      00
 565 00c5 000000   		.section	.bss.mpl3115a2_int_event,"aw",%nobits
 566              		.align	2
 567              		.type	mpl3115a2_int_event, %object
 568              		.size	mpl3115a2_int_event, 4
 569              	mpl3115a2_int_event:
 570 0000 00000000 		.space	4
 571              		.section	.rodata.mpl3115a2_i2c_timeout,"a",%progbits
 572              		.align	2
 573              		.type	mpl3115a2_i2c_timeout, %object
 574              		.size	mpl3115a2_i2c_timeout, 4
 575              	mpl3115a2_i2c_timeout:
ARM GAS  /tmp/cczDKINg.s 			page 12


 576 0000 90010000 		.word	400
 577              		.text
 578              	.Letext0:
 579              		.file 2 "/home/david/toolchains/psas/x-tools/stm32f407/arm-psas-eabi/bin/../lib/gcc/arm-psas-eabi/
 580              		.file 3 "/home/david/toolchains/psas/x-tools/stm32f407/arm-psas-eabi/bin/../lib/gcc/arm-psas-eabi/
 581              		.file 4 "../../ChibiOS/os/ports/GCC/ARMCMx/chtypes.h"
 582              		.file 5 "../../ChibiOS/os/kernel/include/chlists.h"
 583              		.file 6 "../../ChibiOS/os/kernel/include/chthreads.h"
 584              		.file 7 "../../ChibiOS/os/ports/GCC/ARMCMx/chcore_v7m.h"
 585              		.file 8 "../../ChibiOS/os/kernel/include/chmtx.h"
 586              		.file 9 "../../ChibiOS/os/kernel/include/chevents.h"
 587              		.file 10 "../../ChibiOS/os/hal/platforms/STM32F4xx/stm32f4xx.h"
 588              		.file 11 "../../ChibiOS/os/hal/platforms/STM32F4xx/stm32_dma.h"
 589              		.file 12 "../../ChibiOS/os/hal/include/i2c.h"
 590              		.file 13 "../../ChibiOS/os/hal/platforms/STM32/I2Cv1/i2c_lld.h"
 591              		.file 14 "../../devices/include/MPL3115A2.h"
 592              		.file 15 "../../ChibiOS/os/ports/common/ARMCMx/CMSIS/include/core_cm4.h"
 593              		.section	.debug_info,"",%progbits
 594              	.Ldebug_info0:
 595 0000 FF100000 		.4byte	0x10ff
 596 0004 0200     		.2byte	0x2
 597 0006 00000000 		.4byte	.Ldebug_abbrev0
 598 000a 04       		.byte	0x4
 599 000b 01       		.uleb128 0x1
 600 000c 06010000 		.4byte	.LASF238
 601 0010 01       		.byte	0x1
 602 0011 27020000 		.4byte	.LASF239
 603 0015 83020000 		.4byte	.LASF240
 604 0019 00000000 		.4byte	.Ldebug_ranges0+0
 605 001d 00000000 		.4byte	0
 606 0021 00000000 		.4byte	0
 607 0025 00000000 		.4byte	.Ldebug_line0
 608 0029 02       		.uleb128 0x2
 609 002a 04       		.byte	0x4
 610 002b 05       		.byte	0x5
 611 002c 696E7400 		.ascii	"int\000"
 612 0030 03       		.uleb128 0x3
 613 0031 12000000 		.4byte	.LASF2
 614 0035 02       		.byte	0x2
 615 0036 D5       		.byte	0xd5
 616 0037 3B000000 		.4byte	0x3b
 617 003b 04       		.uleb128 0x4
 618 003c 04       		.byte	0x4
 619 003d 07       		.byte	0x7
 620 003e 75060000 		.4byte	.LASF0
 621 0042 04       		.uleb128 0x4
 622 0043 01       		.byte	0x1
 623 0044 06       		.byte	0x6
 624 0045 41020000 		.4byte	.LASF1
 625 0049 03       		.uleb128 0x3
 626 004a 57020000 		.4byte	.LASF3
 627 004e 03       		.byte	0x3
 628 004f 2A       		.byte	0x2a
 629 0050 54000000 		.4byte	0x54
 630 0054 04       		.uleb128 0x4
 631 0055 01       		.byte	0x1
 632 0056 08       		.byte	0x8
ARM GAS  /tmp/cczDKINg.s 			page 13


 633 0057 C6020000 		.4byte	.LASF4
 634 005b 04       		.uleb128 0x4
 635 005c 02       		.byte	0x2
 636 005d 05       		.byte	0x5
 637 005e D4080000 		.4byte	.LASF5
 638 0062 03       		.uleb128 0x3
 639 0063 E8070000 		.4byte	.LASF6
 640 0067 03       		.byte	0x3
 641 0068 36       		.byte	0x36
 642 0069 6D000000 		.4byte	0x6d
 643 006d 04       		.uleb128 0x4
 644 006e 02       		.byte	0x2
 645 006f 07       		.byte	0x7
 646 0070 CB090000 		.4byte	.LASF7
 647 0074 03       		.uleb128 0x3
 648 0075 4C000000 		.4byte	.LASF8
 649 0079 03       		.byte	0x3
 650 007a 4F       		.byte	0x4f
 651 007b 7F000000 		.4byte	0x7f
 652 007f 04       		.uleb128 0x4
 653 0080 04       		.byte	0x4
 654 0081 05       		.byte	0x5
 655 0082 B7010000 		.4byte	.LASF9
 656 0086 03       		.uleb128 0x3
 657 0087 60090000 		.4byte	.LASF10
 658 008b 03       		.byte	0x3
 659 008c 50       		.byte	0x50
 660 008d 91000000 		.4byte	0x91
 661 0091 04       		.uleb128 0x4
 662 0092 04       		.byte	0x4
 663 0093 07       		.byte	0x7
 664 0094 17050000 		.4byte	.LASF11
 665 0098 04       		.uleb128 0x4
 666 0099 08       		.byte	0x8
 667 009a 05       		.byte	0x5
 668 009b C0050000 		.4byte	.LASF12
 669 009f 03       		.uleb128 0x3
 670 00a0 DE080000 		.4byte	.LASF13
 671 00a4 03       		.byte	0x3
 672 00a5 78       		.byte	0x78
 673 00a6 AA000000 		.4byte	0xaa
 674 00aa 04       		.uleb128 0x4
 675 00ab 08       		.byte	0x8
 676 00ac 07       		.byte	0x7
 677 00ad B6070000 		.4byte	.LASF14
 678 00b1 03       		.uleb128 0x3
 679 00b2 9F080000 		.4byte	.LASF15
 680 00b6 04       		.byte	0x4
 681 00b7 28       		.byte	0x28
 682 00b8 49000000 		.4byte	0x49
 683 00bc 03       		.uleb128 0x3
 684 00bd DE010000 		.4byte	.LASF16
 685 00c1 04       		.byte	0x4
 686 00c2 29       		.byte	0x29
 687 00c3 49000000 		.4byte	0x49
 688 00c7 03       		.uleb128 0x3
 689 00c8 29090000 		.4byte	.LASF17
ARM GAS  /tmp/cczDKINg.s 			page 14


 690 00cc 04       		.byte	0x4
 691 00cd 2A       		.byte	0x2a
 692 00ce 49000000 		.4byte	0x49
 693 00d2 03       		.uleb128 0x3
 694 00d3 15080000 		.4byte	.LASF18
 695 00d7 04       		.byte	0x4
 696 00d8 2B       		.byte	0x2b
 697 00d9 49000000 		.4byte	0x49
 698 00dd 03       		.uleb128 0x3
 699 00de 32000000 		.4byte	.LASF19
 700 00e2 04       		.byte	0x4
 701 00e3 2C       		.byte	0x2c
 702 00e4 86000000 		.4byte	0x86
 703 00e8 03       		.uleb128 0x3
 704 00e9 F1070000 		.4byte	.LASF20
 705 00ed 04       		.byte	0x4
 706 00ee 2D       		.byte	0x2d
 707 00ef 74000000 		.4byte	0x74
 708 00f3 03       		.uleb128 0x3
 709 00f4 1F080000 		.4byte	.LASF21
 710 00f8 04       		.byte	0x4
 711 00f9 2E       		.byte	0x2e
 712 00fa 74000000 		.4byte	0x74
 713 00fe 03       		.uleb128 0x3
 714 00ff 5F020000 		.4byte	.LASF22
 715 0103 04       		.byte	0x4
 716 0104 2F       		.byte	0x2f
 717 0105 86000000 		.4byte	0x86
 718 0109 03       		.uleb128 0x3
 719 010a BB060000 		.4byte	.LASF23
 720 010e 04       		.byte	0x4
 721 010f 30       		.byte	0x30
 722 0110 86000000 		.4byte	0x86
 723 0114 03       		.uleb128 0x3
 724 0115 22000000 		.4byte	.LASF24
 725 0119 04       		.byte	0x4
 726 011a 31       		.byte	0x31
 727 011b 86000000 		.4byte	0x86
 728 011f 03       		.uleb128 0x3
 729 0120 18090000 		.4byte	.LASF25
 730 0124 05       		.byte	0x5
 731 0125 23       		.byte	0x23
 732 0126 2A010000 		.4byte	0x12a
 733 012a 05       		.uleb128 0x5
 734 012b 18090000 		.4byte	.LASF25
 735 012f 4C       		.byte	0x4c
 736 0130 06       		.byte	0x6
 737 0131 57       		.byte	0x57
 738 0132 5D020000 		.4byte	0x25d
 739 0136 06       		.uleb128 0x6
 740 0137 C0010000 		.4byte	.LASF26
 741 013b 06       		.byte	0x6
 742 013c 58       		.byte	0x58
 743 013d 82020000 		.4byte	0x282
 744 0141 02       		.byte	0x2
 745 0142 23       		.byte	0x23
 746 0143 00       		.uleb128 0
ARM GAS  /tmp/cczDKINg.s 			page 15


 747 0144 06       		.uleb128 0x6
 748 0145 CD010000 		.4byte	.LASF27
 749 0149 06       		.byte	0x6
 750 014a 5A       		.byte	0x5a
 751 014b 82020000 		.4byte	0x282
 752 014f 02       		.byte	0x2
 753 0150 23       		.byte	0x23
 754 0151 04       		.uleb128 0x4
 755 0152 06       		.uleb128 0x6
 756 0153 BD030000 		.4byte	.LASF28
 757 0157 06       		.byte	0x6
 758 0158 5C       		.byte	0x5c
 759 0159 DD000000 		.4byte	0xdd
 760 015d 02       		.byte	0x2
 761 015e 23       		.byte	0x23
 762 015f 08       		.uleb128 0x8
 763 0160 06       		.uleb128 0x6
 764 0161 2C000000 		.4byte	.LASF29
 765 0165 06       		.byte	0x6
 766 0166 5D       		.byte	0x5d
 767 0167 5B030000 		.4byte	0x35b
 768 016b 02       		.byte	0x2
 769 016c 23       		.byte	0x23
 770 016d 0C       		.uleb128 0xc
 771 016e 06       		.uleb128 0x6
 772 016f AF010000 		.4byte	.LASF30
 773 0173 06       		.byte	0x6
 774 0174 5F       		.byte	0x5f
 775 0175 82020000 		.4byte	0x282
 776 0179 02       		.byte	0x2
 777 017a 23       		.byte	0x23
 778 017b 10       		.uleb128 0x10
 779 017c 06       		.uleb128 0x6
 780 017d D4070000 		.4byte	.LASF31
 781 0181 06       		.byte	0x6
 782 0182 60       		.byte	0x60
 783 0183 82020000 		.4byte	0x282
 784 0187 02       		.byte	0x2
 785 0188 23       		.byte	0x23
 786 0189 14       		.uleb128 0x14
 787 018a 06       		.uleb128 0x6
 788 018b 8D0A0000 		.4byte	.LASF32
 789 018f 06       		.byte	0x6
 790 0190 67       		.byte	0x67
 791 0191 88040000 		.4byte	0x488
 792 0195 02       		.byte	0x2
 793 0196 23       		.byte	0x23
 794 0197 18       		.uleb128 0x18
 795 0198 06       		.uleb128 0x6
 796 0199 220A0000 		.4byte	.LASF33
 797 019d 06       		.byte	0x6
 798 019e 6D       		.byte	0x6d
 799 019f 9A040000 		.4byte	0x49a
 800 01a3 02       		.byte	0x2
 801 01a4 23       		.byte	0x23
 802 01a5 1C       		.uleb128 0x1c
 803 01a6 06       		.uleb128 0x6
ARM GAS  /tmp/cczDKINg.s 			page 16


 804 01a7 D20A0000 		.4byte	.LASF34
 805 01ab 06       		.byte	0x6
 806 01ac 72       		.byte	0x72
 807 01ad BC000000 		.4byte	0xbc
 808 01b1 02       		.byte	0x2
 809 01b2 23       		.byte	0x23
 810 01b3 20       		.uleb128 0x20
 811 01b4 06       		.uleb128 0x6
 812 01b5 63060000 		.4byte	.LASF35
 813 01b9 06       		.byte	0x6
 814 01ba 76       		.byte	0x76
 815 01bb B1000000 		.4byte	0xb1
 816 01bf 02       		.byte	0x2
 817 01c0 23       		.byte	0x23
 818 01c1 21       		.uleb128 0x21
 819 01c2 06       		.uleb128 0x6
 820 01c3 94060000 		.4byte	.LASF36
 821 01c7 06       		.byte	0x6
 822 01c8 7B       		.byte	0x7b
 823 01c9 C7000000 		.4byte	0xc7
 824 01cd 02       		.byte	0x2
 825 01ce 23       		.byte	0x23
 826 01cf 22       		.uleb128 0x22
 827 01d0 06       		.uleb128 0x6
 828 01d1 4D020000 		.4byte	.LASF37
 829 01d5 06       		.byte	0x6
 830 01d6 81       		.byte	0x81
 831 01d7 D2000000 		.4byte	0xd2
 832 01db 02       		.byte	0x2
 833 01dc 23       		.byte	0x23
 834 01dd 23       		.uleb128 0x23
 835 01de 06       		.uleb128 0x6
 836 01df DA060000 		.4byte	.LASF38
 837 01e3 06       		.byte	0x6
 838 01e4 88       		.byte	0x88
 839 01e5 8A030000 		.4byte	0x38a
 840 01e9 02       		.byte	0x2
 841 01ea 23       		.byte	0x23
 842 01eb 24       		.uleb128 0x24
 843 01ec 07       		.uleb128 0x7
 844 01ed 705F7500 		.ascii	"p_u\000"
 845 01f1 06       		.byte	0x6
 846 01f2 AD       		.byte	0xad
 847 01f3 53040000 		.4byte	0x453
 848 01f7 02       		.byte	0x2
 849 01f8 23       		.byte	0x23
 850 01f9 28       		.uleb128 0x28
 851 01fa 06       		.uleb128 0x6
 852 01fb 4E060000 		.4byte	.LASF39
 853 01ff 06       		.byte	0x6
 854 0200 B2       		.byte	0xb2
 855 0201 AA020000 		.4byte	0x2aa
 856 0205 02       		.byte	0x2
 857 0206 23       		.byte	0x23
 858 0207 2C       		.uleb128 0x2c
 859 0208 06       		.uleb128 0x6
 860 0209 41000000 		.4byte	.LASF40
ARM GAS  /tmp/cczDKINg.s 			page 17


 861 020d 06       		.byte	0x6
 862 020e B8       		.byte	0xb8
 863 020f 88020000 		.4byte	0x288
 864 0213 02       		.byte	0x2
 865 0214 23       		.byte	0x23
 866 0215 30       		.uleb128 0x30
 867 0216 06       		.uleb128 0x6
 868 0217 C00A0000 		.4byte	.LASF41
 869 021b 06       		.byte	0x6
 870 021c BC       		.byte	0xbc
 871 021d E8000000 		.4byte	0xe8
 872 0221 02       		.byte	0x2
 873 0222 23       		.byte	0x23
 874 0223 38       		.uleb128 0x38
 875 0224 06       		.uleb128 0x6
 876 0225 AD040000 		.4byte	.LASF42
 877 0229 06       		.byte	0x6
 878 022a C2       		.byte	0xc2
 879 022b FE000000 		.4byte	0xfe
 880 022f 02       		.byte	0x2
 881 0230 23       		.byte	0x23
 882 0231 3C       		.uleb128 0x3c
 883 0232 06       		.uleb128 0x6
 884 0233 F7010000 		.4byte	.LASF43
 885 0237 06       		.byte	0x6
 886 0238 C9       		.byte	0xc9
 887 0239 A0040000 		.4byte	0x4a0
 888 023d 02       		.byte	0x2
 889 023e 23       		.byte	0x23
 890 023f 40       		.uleb128 0x40
 891 0240 06       		.uleb128 0x6
 892 0241 3D070000 		.4byte	.LASF44
 893 0245 06       		.byte	0x6
 894 0246 CD       		.byte	0xcd
 895 0247 DD000000 		.4byte	0xdd
 896 024b 02       		.byte	0x2
 897 024c 23       		.byte	0x23
 898 024d 44       		.uleb128 0x44
 899 024e 06       		.uleb128 0x6
 900 024f 8C060000 		.4byte	.LASF45
 901 0253 06       		.byte	0x6
 902 0254 D3       		.byte	0xd3
 903 0255 C0020000 		.4byte	0x2c0
 904 0259 02       		.byte	0x2
 905 025a 23       		.byte	0x23
 906 025b 48       		.uleb128 0x48
 907 025c 00       		.byte	0
 908 025d 08       		.uleb128 0x8
 909 025e 08       		.byte	0x8
 910 025f 05       		.byte	0x5
 911 0260 5A       		.byte	0x5a
 912 0261 82020000 		.4byte	0x282
 913 0265 06       		.uleb128 0x6
 914 0266 C0010000 		.4byte	.LASF26
 915 026a 05       		.byte	0x5
 916 026b 5B       		.byte	0x5b
 917 026c 82020000 		.4byte	0x282
ARM GAS  /tmp/cczDKINg.s 			page 18


 918 0270 02       		.byte	0x2
 919 0271 23       		.byte	0x23
 920 0272 00       		.uleb128 0
 921 0273 06       		.uleb128 0x6
 922 0274 CD010000 		.4byte	.LASF27
 923 0278 05       		.byte	0x5
 924 0279 5D       		.byte	0x5d
 925 027a 82020000 		.4byte	0x282
 926 027e 02       		.byte	0x2
 927 027f 23       		.byte	0x23
 928 0280 04       		.uleb128 0x4
 929 0281 00       		.byte	0
 930 0282 09       		.uleb128 0x9
 931 0283 04       		.byte	0x4
 932 0284 1F010000 		.4byte	0x11f
 933 0288 03       		.uleb128 0x3
 934 0289 73090000 		.4byte	.LASF46
 935 028d 05       		.byte	0x5
 936 028e 5F       		.byte	0x5f
 937 028f 5D020000 		.4byte	0x25d
 938 0293 08       		.uleb128 0x8
 939 0294 04       		.byte	0x4
 940 0295 05       		.byte	0x5
 941 0296 64       		.byte	0x64
 942 0297 AA020000 		.4byte	0x2aa
 943 029b 06       		.uleb128 0x6
 944 029c C0010000 		.4byte	.LASF26
 945 02a0 05       		.byte	0x5
 946 02a1 66       		.byte	0x66
 947 02a2 82020000 		.4byte	0x282
 948 02a6 02       		.byte	0x2
 949 02a7 23       		.byte	0x23
 950 02a8 00       		.uleb128 0
 951 02a9 00       		.byte	0
 952 02aa 03       		.uleb128 0x3
 953 02ab 9B060000 		.4byte	.LASF47
 954 02af 05       		.byte	0x5
 955 02b0 69       		.byte	0x69
 956 02b1 93020000 		.4byte	0x293
 957 02b5 03       		.uleb128 0x3
 958 02b6 07020000 		.4byte	.LASF48
 959 02ba 07       		.byte	0x7
 960 02bb DE       		.byte	0xde
 961 02bc C0020000 		.4byte	0x2c0
 962 02c0 0A       		.uleb128 0xa
 963 02c1 04       		.byte	0x4
 964 02c2 03       		.uleb128 0x3
 965 02c3 1F040000 		.4byte	.LASF49
 966 02c7 07       		.byte	0x7
 967 02c8 E4       		.byte	0xe4
 968 02c9 9F000000 		.4byte	0x9f
 969 02cd 0B       		.uleb128 0xb
 970 02ce 9A040000 		.4byte	.LASF50
 971 02d2 24       		.byte	0x24
 972 02d3 07       		.byte	0x7
 973 02d4 0501     		.2byte	0x105
 974 02d6 5B030000 		.4byte	0x35b
ARM GAS  /tmp/cczDKINg.s 			page 19


 975 02da 0C       		.uleb128 0xc
 976 02db 723400   		.ascii	"r4\000"
 977 02de 07       		.byte	0x7
 978 02df 1801     		.2byte	0x118
 979 02e1 B5020000 		.4byte	0x2b5
 980 02e5 02       		.byte	0x2
 981 02e6 23       		.byte	0x23
 982 02e7 00       		.uleb128 0
 983 02e8 0C       		.uleb128 0xc
 984 02e9 723500   		.ascii	"r5\000"
 985 02ec 07       		.byte	0x7
 986 02ed 1901     		.2byte	0x119
 987 02ef B5020000 		.4byte	0x2b5
 988 02f3 02       		.byte	0x2
 989 02f4 23       		.byte	0x23
 990 02f5 04       		.uleb128 0x4
 991 02f6 0C       		.uleb128 0xc
 992 02f7 723600   		.ascii	"r6\000"
 993 02fa 07       		.byte	0x7
 994 02fb 1A01     		.2byte	0x11a
 995 02fd B5020000 		.4byte	0x2b5
 996 0301 02       		.byte	0x2
 997 0302 23       		.byte	0x23
 998 0303 08       		.uleb128 0x8
 999 0304 0C       		.uleb128 0xc
 1000 0305 723700   		.ascii	"r7\000"
 1001 0308 07       		.byte	0x7
 1002 0309 1B01     		.2byte	0x11b
 1003 030b B5020000 		.4byte	0x2b5
 1004 030f 02       		.byte	0x2
 1005 0310 23       		.byte	0x23
 1006 0311 0C       		.uleb128 0xc
 1007 0312 0C       		.uleb128 0xc
 1008 0313 723800   		.ascii	"r8\000"
 1009 0316 07       		.byte	0x7
 1010 0317 1C01     		.2byte	0x11c
 1011 0319 B5020000 		.4byte	0x2b5
 1012 031d 02       		.byte	0x2
 1013 031e 23       		.byte	0x23
 1014 031f 10       		.uleb128 0x10
 1015 0320 0C       		.uleb128 0xc
 1016 0321 723900   		.ascii	"r9\000"
 1017 0324 07       		.byte	0x7
 1018 0325 1D01     		.2byte	0x11d
 1019 0327 B5020000 		.4byte	0x2b5
 1020 032b 02       		.byte	0x2
 1021 032c 23       		.byte	0x23
 1022 032d 14       		.uleb128 0x14
 1023 032e 0C       		.uleb128 0xc
 1024 032f 72313000 		.ascii	"r10\000"
 1025 0333 07       		.byte	0x7
 1026 0334 1E01     		.2byte	0x11e
 1027 0336 B5020000 		.4byte	0x2b5
 1028 033a 02       		.byte	0x2
 1029 033b 23       		.byte	0x23
 1030 033c 18       		.uleb128 0x18
 1031 033d 0C       		.uleb128 0xc
ARM GAS  /tmp/cczDKINg.s 			page 20


 1032 033e 72313100 		.ascii	"r11\000"
 1033 0342 07       		.byte	0x7
 1034 0343 1F01     		.2byte	0x11f
 1035 0345 B5020000 		.4byte	0x2b5
 1036 0349 02       		.byte	0x2
 1037 034a 23       		.byte	0x23
 1038 034b 1C       		.uleb128 0x1c
 1039 034c 0C       		.uleb128 0xc
 1040 034d 6C7200   		.ascii	"lr\000"
 1041 0350 07       		.byte	0x7
 1042 0351 2001     		.2byte	0x120
 1043 0353 B5020000 		.4byte	0x2b5
 1044 0357 02       		.byte	0x2
 1045 0358 23       		.byte	0x23
 1046 0359 20       		.uleb128 0x20
 1047 035a 00       		.byte	0
 1048 035b 0B       		.uleb128 0xb
 1049 035c 6B020000 		.4byte	.LASF51
 1050 0360 04       		.byte	0x4
 1051 0361 07       		.byte	0x7
 1052 0362 2A01     		.2byte	0x12a
 1053 0364 78030000 		.4byte	0x378
 1054 0368 0C       		.uleb128 0xc
 1055 0369 72313300 		.ascii	"r13\000"
 1056 036d 07       		.byte	0x7
 1057 036e 2B01     		.2byte	0x12b
 1058 0370 78030000 		.4byte	0x378
 1059 0374 02       		.byte	0x2
 1060 0375 23       		.byte	0x23
 1061 0376 00       		.uleb128 0
 1062 0377 00       		.byte	0
 1063 0378 09       		.uleb128 0x9
 1064 0379 04       		.byte	0x4
 1065 037a CD020000 		.4byte	0x2cd
 1066 037e 0D       		.uleb128 0xd
 1067 037f 86000000 		.4byte	0x86
 1068 0383 04       		.uleb128 0x4
 1069 0384 04       		.byte	0x4
 1070 0385 07       		.byte	0x7
 1071 0386 19000000 		.4byte	.LASF52
 1072 038a 0D       		.uleb128 0xd
 1073 038b 14010000 		.4byte	0x114
 1074 038f 05       		.uleb128 0x5
 1075 0390 BA050000 		.4byte	.LASF53
 1076 0394 10       		.byte	0x10
 1077 0395 08       		.byte	0x8
 1078 0396 25       		.byte	0x25
 1079 0397 C6030000 		.4byte	0x3c6
 1080 039b 06       		.uleb128 0x6
 1081 039c E1050000 		.4byte	.LASF54
 1082 03a0 08       		.byte	0x8
 1083 03a1 26       		.byte	0x26
 1084 03a2 88020000 		.4byte	0x288
 1085 03a6 02       		.byte	0x2
 1086 03a7 23       		.byte	0x23
 1087 03a8 00       		.uleb128 0
 1088 03a9 06       		.uleb128 0x6
ARM GAS  /tmp/cczDKINg.s 			page 21


 1089 03aa 51010000 		.4byte	.LASF55
 1090 03ae 08       		.byte	0x8
 1091 03af 28       		.byte	0x28
 1092 03b0 82020000 		.4byte	0x282
 1093 03b4 02       		.byte	0x2
 1094 03b5 23       		.byte	0x23
 1095 03b6 08       		.uleb128 0x8
 1096 03b7 06       		.uleb128 0x6
 1097 03b8 940A0000 		.4byte	.LASF56
 1098 03bc 08       		.byte	0x8
 1099 03bd 2A       		.byte	0x2a
 1100 03be C6030000 		.4byte	0x3c6
 1101 03c2 02       		.byte	0x2
 1102 03c3 23       		.byte	0x23
 1103 03c4 0C       		.uleb128 0xc
 1104 03c5 00       		.byte	0
 1105 03c6 09       		.uleb128 0x9
 1106 03c7 04       		.byte	0x4
 1107 03c8 8F030000 		.4byte	0x38f
 1108 03cc 03       		.uleb128 0x3
 1109 03cd BA050000 		.4byte	.LASF53
 1110 03d1 08       		.byte	0x8
 1111 03d2 2C       		.byte	0x2c
 1112 03d3 8F030000 		.4byte	0x38f
 1113 03d7 03       		.uleb128 0x3
 1114 03d8 31090000 		.4byte	.LASF57
 1115 03dc 09       		.byte	0x9
 1116 03dd 25       		.byte	0x25
 1117 03de E2030000 		.4byte	0x3e2
 1118 03e2 05       		.uleb128 0x5
 1119 03e3 31090000 		.4byte	.LASF57
 1120 03e7 10       		.byte	0x10
 1121 03e8 09       		.byte	0x9
 1122 03e9 2A       		.byte	0x2a
 1123 03ea 27040000 		.4byte	0x427
 1124 03ee 06       		.uleb128 0x6
 1125 03ef 3B050000 		.4byte	.LASF58
 1126 03f3 09       		.byte	0x9
 1127 03f4 2B       		.byte	0x2b
 1128 03f5 27040000 		.4byte	0x427
 1129 03f9 02       		.byte	0x2
 1130 03fa 23       		.byte	0x23
 1131 03fb 00       		.uleb128 0
 1132 03fc 06       		.uleb128 0x6
 1133 03fd C60A0000 		.4byte	.LASF59
 1134 0401 09       		.byte	0x9
 1135 0402 2E       		.byte	0x2e
 1136 0403 82020000 		.4byte	0x282
 1137 0407 02       		.byte	0x2
 1138 0408 23       		.byte	0x23
 1139 0409 04       		.uleb128 0x4
 1140 040a 06       		.uleb128 0x6
 1141 040b 4E0A0000 		.4byte	.LASF60
 1142 040f 09       		.byte	0x9
 1143 0410 30       		.byte	0x30
 1144 0411 FE000000 		.4byte	0xfe
 1145 0415 02       		.byte	0x2
ARM GAS  /tmp/cczDKINg.s 			page 22


 1146 0416 23       		.byte	0x23
 1147 0417 08       		.uleb128 0x8
 1148 0418 06       		.uleb128 0x6
 1149 0419 D2000000 		.4byte	.LASF61
 1150 041d 09       		.byte	0x9
 1151 041e 33       		.byte	0x33
 1152 041f 09010000 		.4byte	0x109
 1153 0423 02       		.byte	0x2
 1154 0424 23       		.byte	0x23
 1155 0425 0C       		.uleb128 0xc
 1156 0426 00       		.byte	0
 1157 0427 09       		.uleb128 0x9
 1158 0428 04       		.byte	0x4
 1159 0429 D7030000 		.4byte	0x3d7
 1160 042d 05       		.uleb128 0x5
 1161 042e 0B050000 		.4byte	.LASF62
 1162 0432 04       		.byte	0x4
 1163 0433 09       		.byte	0x9
 1164 0434 3A       		.byte	0x3a
 1165 0435 48040000 		.4byte	0x448
 1166 0439 06       		.uleb128 0x6
 1167 043a FC040000 		.4byte	.LASF63
 1168 043e 09       		.byte	0x9
 1169 043f 3B       		.byte	0x3b
 1170 0440 27040000 		.4byte	0x427
 1171 0444 02       		.byte	0x2
 1172 0445 23       		.byte	0x23
 1173 0446 00       		.uleb128 0
 1174 0447 00       		.byte	0
 1175 0448 03       		.uleb128 0x3
 1176 0449 0B050000 		.4byte	.LASF62
 1177 044d 09       		.byte	0x9
 1178 044e 3E       		.byte	0x3e
 1179 044f 2D040000 		.4byte	0x42d
 1180 0453 0E       		.uleb128 0xe
 1181 0454 04       		.byte	0x4
 1182 0455 06       		.byte	0x6
 1183 0456 8F       		.byte	0x8f
 1184 0457 88040000 		.4byte	0x488
 1185 045b 0F       		.uleb128 0xf
 1186 045c B4090000 		.4byte	.LASF64
 1187 0460 06       		.byte	0x6
 1188 0461 96       		.byte	0x96
 1189 0462 E8000000 		.4byte	0xe8
 1190 0466 0F       		.uleb128 0xf
 1191 0467 59010000 		.4byte	.LASF65
 1192 046b 06       		.byte	0x6
 1193 046c 9D       		.byte	0x9d
 1194 046d E8000000 		.4byte	0xe8
 1195 0471 0F       		.uleb128 0xf
 1196 0472 D8030000 		.4byte	.LASF66
 1197 0476 06       		.byte	0x6
 1198 0477 A4       		.byte	0xa4
 1199 0478 C0020000 		.4byte	0x2c0
 1200 047c 0F       		.uleb128 0xf
 1201 047d 6C010000 		.4byte	.LASF67
 1202 0481 06       		.byte	0x6
ARM GAS  /tmp/cczDKINg.s 			page 23


 1203 0482 AB       		.byte	0xab
 1204 0483 FE000000 		.4byte	0xfe
 1205 0487 00       		.byte	0
 1206 0488 09       		.uleb128 0x9
 1207 0489 04       		.byte	0x4
 1208 048a 8E040000 		.4byte	0x48e
 1209 048e 10       		.uleb128 0x10
 1210 048f 93040000 		.4byte	0x493
 1211 0493 04       		.uleb128 0x4
 1212 0494 01       		.byte	0x1
 1213 0495 08       		.byte	0x8
 1214 0496 8F030000 		.4byte	.LASF68
 1215 049a 09       		.uleb128 0x9
 1216 049b 04       		.byte	0x4
 1217 049c C2020000 		.4byte	0x2c2
 1218 04a0 09       		.uleb128 0x9
 1219 04a1 04       		.byte	0x4
 1220 04a2 CC030000 		.4byte	0x3cc
 1221 04a6 09       		.uleb128 0x9
 1222 04a7 04       		.byte	0x4
 1223 04a8 49000000 		.4byte	0x49
 1224 04ac 09       		.uleb128 0x9
 1225 04ad 04       		.byte	0x4
 1226 04ae B2040000 		.4byte	0x4b2
 1227 04b2 10       		.uleb128 0x10
 1228 04b3 49000000 		.4byte	0x49
 1229 04b7 0D       		.uleb128 0xd
 1230 04b8 62000000 		.4byte	0x62
 1231 04bc 0D       		.uleb128 0xd
 1232 04bd 74000000 		.4byte	0x74
 1233 04c1 11       		.uleb128 0x11
 1234 04c2 18       		.byte	0x18
 1235 04c3 0A       		.byte	0xa
 1236 04c4 D301     		.2byte	0x1d3
 1237 04c6 24050000 		.4byte	0x524
 1238 04ca 0C       		.uleb128 0xc
 1239 04cb 435200   		.ascii	"CR\000"
 1240 04ce 0A       		.byte	0xa
 1241 04cf D501     		.2byte	0x1d5
 1242 04d1 7E030000 		.4byte	0x37e
 1243 04d5 02       		.byte	0x2
 1244 04d6 23       		.byte	0x23
 1245 04d7 00       		.uleb128 0
 1246 04d8 12       		.uleb128 0x12
 1247 04d9 490A0000 		.4byte	.LASF69
 1248 04dd 0A       		.byte	0xa
 1249 04de D601     		.2byte	0x1d6
 1250 04e0 7E030000 		.4byte	0x37e
 1251 04e4 02       		.byte	0x2
 1252 04e5 23       		.byte	0x23
 1253 04e6 04       		.uleb128 0x4
 1254 04e7 0C       		.uleb128 0xc
 1255 04e8 50415200 		.ascii	"PAR\000"
 1256 04ec 0A       		.byte	0xa
 1257 04ed D701     		.2byte	0x1d7
 1258 04ef 7E030000 		.4byte	0x37e
 1259 04f3 02       		.byte	0x2
ARM GAS  /tmp/cczDKINg.s 			page 24


 1260 04f4 23       		.byte	0x23
 1261 04f5 08       		.uleb128 0x8
 1262 04f6 12       		.uleb128 0x12
 1263 04f7 B8080000 		.4byte	.LASF70
 1264 04fb 0A       		.byte	0xa
 1265 04fc D801     		.2byte	0x1d8
 1266 04fe 7E030000 		.4byte	0x37e
 1267 0502 02       		.byte	0x2
 1268 0503 23       		.byte	0x23
 1269 0504 0C       		.uleb128 0xc
 1270 0505 12       		.uleb128 0x12
 1271 0506 00000000 		.4byte	.LASF71
 1272 050a 0A       		.byte	0xa
 1273 050b D901     		.2byte	0x1d9
 1274 050d 7E030000 		.4byte	0x37e
 1275 0511 02       		.byte	0x2
 1276 0512 23       		.byte	0x23
 1277 0513 10       		.uleb128 0x10
 1278 0514 0C       		.uleb128 0xc
 1279 0515 46435200 		.ascii	"FCR\000"
 1280 0519 0A       		.byte	0xa
 1281 051a DA01     		.2byte	0x1da
 1282 051c 7E030000 		.4byte	0x37e
 1283 0520 02       		.byte	0x2
 1284 0521 23       		.byte	0x23
 1285 0522 14       		.uleb128 0x14
 1286 0523 00       		.byte	0
 1287 0524 13       		.uleb128 0x13
 1288 0525 C7060000 		.4byte	.LASF72
 1289 0529 0A       		.byte	0xa
 1290 052a DB01     		.2byte	0x1db
 1291 052c C1040000 		.4byte	0x4c1
 1292 0530 11       		.uleb128 0x11
 1293 0531 24       		.byte	0x24
 1294 0532 0A       		.byte	0xa
 1295 0533 AB02     		.2byte	0x2ab
 1296 0535 47060000 		.4byte	0x647
 1297 0539 0C       		.uleb128 0xc
 1298 053a 43523100 		.ascii	"CR1\000"
 1299 053e 0A       		.byte	0xa
 1300 053f AD02     		.2byte	0x2ad
 1301 0541 B7040000 		.4byte	0x4b7
 1302 0545 02       		.byte	0x2
 1303 0546 23       		.byte	0x23
 1304 0547 00       		.uleb128 0
 1305 0548 12       		.uleb128 0x12
 1306 0549 B2020000 		.4byte	.LASF73
 1307 054d 0A       		.byte	0xa
 1308 054e AE02     		.2byte	0x2ae
 1309 0550 62000000 		.4byte	0x62
 1310 0554 02       		.byte	0x2
 1311 0555 23       		.byte	0x23
 1312 0556 02       		.uleb128 0x2
 1313 0557 0C       		.uleb128 0xc
 1314 0558 43523200 		.ascii	"CR2\000"
 1315 055c 0A       		.byte	0xa
 1316 055d AF02     		.2byte	0x2af
ARM GAS  /tmp/cczDKINg.s 			page 25


 1317 055f B7040000 		.4byte	0x4b7
 1318 0563 02       		.byte	0x2
 1319 0564 23       		.byte	0x23
 1320 0565 04       		.uleb128 0x4
 1321 0566 12       		.uleb128 0x12
 1322 0567 BC020000 		.4byte	.LASF74
 1323 056b 0A       		.byte	0xa
 1324 056c B002     		.2byte	0x2b0
 1325 056e 62000000 		.4byte	0x62
 1326 0572 02       		.byte	0x2
 1327 0573 23       		.byte	0x23
 1328 0574 06       		.uleb128 0x6
 1329 0575 12       		.uleb128 0x12
 1330 0576 A7080000 		.4byte	.LASF75
 1331 057a 0A       		.byte	0xa
 1332 057b B102     		.2byte	0x2b1
 1333 057d B7040000 		.4byte	0x4b7
 1334 0581 02       		.byte	0x2
 1335 0582 23       		.byte	0x23
 1336 0583 08       		.uleb128 0x8
 1337 0584 12       		.uleb128 0x12
 1338 0585 6E030000 		.4byte	.LASF76
 1339 0589 0A       		.byte	0xa
 1340 058a B202     		.2byte	0x2b2
 1341 058c 62000000 		.4byte	0x62
 1342 0590 02       		.byte	0x2
 1343 0591 23       		.byte	0x23
 1344 0592 0A       		.uleb128 0xa
 1345 0593 12       		.uleb128 0x12
 1346 0594 AC080000 		.4byte	.LASF77
 1347 0598 0A       		.byte	0xa
 1348 0599 B302     		.2byte	0x2b3
 1349 059b B7040000 		.4byte	0x4b7
 1350 059f 02       		.byte	0x2
 1351 05a0 23       		.byte	0x23
 1352 05a1 0C       		.uleb128 0xc
 1353 05a2 12       		.uleb128 0x12
 1354 05a3 D4020000 		.4byte	.LASF78
 1355 05a7 0A       		.byte	0xa
 1356 05a8 B402     		.2byte	0x2b4
 1357 05aa 62000000 		.4byte	0x62
 1358 05ae 02       		.byte	0x2
 1359 05af 23       		.byte	0x23
 1360 05b0 0E       		.uleb128 0xe
 1361 05b1 0C       		.uleb128 0xc
 1362 05b2 445200   		.ascii	"DR\000"
 1363 05b5 0A       		.byte	0xa
 1364 05b6 B502     		.2byte	0x2b5
 1365 05b8 B7040000 		.4byte	0x4b7
 1366 05bc 02       		.byte	0x2
 1367 05bd 23       		.byte	0x23
 1368 05be 10       		.uleb128 0x10
 1369 05bf 12       		.uleb128 0x12
 1370 05c0 DE020000 		.4byte	.LASF79
 1371 05c4 0A       		.byte	0xa
 1372 05c5 B602     		.2byte	0x2b6
 1373 05c7 62000000 		.4byte	0x62
ARM GAS  /tmp/cczDKINg.s 			page 26


 1374 05cb 02       		.byte	0x2
 1375 05cc 23       		.byte	0x23
 1376 05cd 12       		.uleb128 0x12
 1377 05ce 0C       		.uleb128 0xc
 1378 05cf 53523100 		.ascii	"SR1\000"
 1379 05d3 0A       		.byte	0xa
 1380 05d4 B702     		.2byte	0x2b7
 1381 05d6 B7040000 		.4byte	0x4b7
 1382 05da 02       		.byte	0x2
 1383 05db 23       		.byte	0x23
 1384 05dc 14       		.uleb128 0x14
 1385 05dd 12       		.uleb128 0x12
 1386 05de E8020000 		.4byte	.LASF80
 1387 05e2 0A       		.byte	0xa
 1388 05e3 B802     		.2byte	0x2b8
 1389 05e5 62000000 		.4byte	0x62
 1390 05e9 02       		.byte	0x2
 1391 05ea 23       		.byte	0x23
 1392 05eb 16       		.uleb128 0x16
 1393 05ec 0C       		.uleb128 0xc
 1394 05ed 53523200 		.ascii	"SR2\000"
 1395 05f1 0A       		.byte	0xa
 1396 05f2 B902     		.2byte	0x2b9
 1397 05f4 B7040000 		.4byte	0x4b7
 1398 05f8 02       		.byte	0x2
 1399 05f9 23       		.byte	0x23
 1400 05fa 18       		.uleb128 0x18
 1401 05fb 12       		.uleb128 0x12
 1402 05fc F2020000 		.4byte	.LASF81
 1403 0600 0A       		.byte	0xa
 1404 0601 BA02     		.2byte	0x2ba
 1405 0603 62000000 		.4byte	0x62
 1406 0607 02       		.byte	0x2
 1407 0608 23       		.byte	0x23
 1408 0609 1A       		.uleb128 0x1a
 1409 060a 0C       		.uleb128 0xc
 1410 060b 43435200 		.ascii	"CCR\000"
 1411 060f 0A       		.byte	0xa
 1412 0610 BB02     		.2byte	0x2bb
 1413 0612 B7040000 		.4byte	0x4b7
 1414 0616 02       		.byte	0x2
 1415 0617 23       		.byte	0x23
 1416 0618 1C       		.uleb128 0x1c
 1417 0619 12       		.uleb128 0x12
 1418 061a FC020000 		.4byte	.LASF82
 1419 061e 0A       		.byte	0xa
 1420 061f BC02     		.2byte	0x2bc
 1421 0621 62000000 		.4byte	0x62
 1422 0625 02       		.byte	0x2
 1423 0626 23       		.byte	0x23
 1424 0627 1E       		.uleb128 0x1e
 1425 0628 12       		.uleb128 0x12
 1426 0629 5B050000 		.4byte	.LASF83
 1427 062d 0A       		.byte	0xa
 1428 062e BD02     		.2byte	0x2bd
 1429 0630 B7040000 		.4byte	0x4b7
 1430 0634 02       		.byte	0x2
ARM GAS  /tmp/cczDKINg.s 			page 27


 1431 0635 23       		.byte	0x23
 1432 0636 20       		.uleb128 0x20
 1433 0637 12       		.uleb128 0x12
 1434 0638 06030000 		.4byte	.LASF84
 1435 063c 0A       		.byte	0xa
 1436 063d BE02     		.2byte	0x2be
 1437 063f 62000000 		.4byte	0x62
 1438 0643 02       		.byte	0x2
 1439 0644 23       		.byte	0x23
 1440 0645 22       		.uleb128 0x22
 1441 0646 00       		.byte	0
 1442 0647 13       		.uleb128 0x13
 1443 0648 39080000 		.4byte	.LASF85
 1444 064c 0A       		.byte	0xa
 1445 064d BF02     		.2byte	0x2bf
 1446 064f 30050000 		.4byte	0x530
 1447 0653 08       		.uleb128 0x8
 1448 0654 0C       		.byte	0xc
 1449 0655 0B       		.byte	0xb
 1450 0656 DE       		.byte	0xde
 1451 0657 A2060000 		.4byte	0x6a2
 1452 065b 06       		.uleb128 0x6
 1453 065c 5B040000 		.4byte	.LASF86
 1454 0660 0B       		.byte	0xb
 1455 0661 DF       		.byte	0xdf
 1456 0662 A2060000 		.4byte	0x6a2
 1457 0666 02       		.byte	0x2
 1458 0667 23       		.byte	0x23
 1459 0668 00       		.uleb128 0
 1460 0669 06       		.uleb128 0x6
 1461 066a 560A0000 		.4byte	.LASF87
 1462 066e 0B       		.byte	0xb
 1463 066f E0       		.byte	0xe0
 1464 0670 A8060000 		.4byte	0x6a8
 1465 0674 02       		.byte	0x2
 1466 0675 23       		.byte	0x23
 1467 0676 04       		.uleb128 0x4
 1468 0677 06       		.uleb128 0x6
 1469 0678 B6030000 		.4byte	.LASF88
 1470 067c 0B       		.byte	0xb
 1471 067d E1       		.byte	0xe1
 1472 067e 49000000 		.4byte	0x49
 1473 0682 02       		.byte	0x2
 1474 0683 23       		.byte	0x23
 1475 0684 08       		.uleb128 0x8
 1476 0685 06       		.uleb128 0x6
 1477 0686 6B060000 		.4byte	.LASF89
 1478 068a 0B       		.byte	0xb
 1479 068b E3       		.byte	0xe3
 1480 068c 49000000 		.4byte	0x49
 1481 0690 02       		.byte	0x2
 1482 0691 23       		.byte	0x23
 1483 0692 09       		.uleb128 0x9
 1484 0693 06       		.uleb128 0x6
 1485 0694 32080000 		.4byte	.LASF90
 1486 0698 0B       		.byte	0xb
 1487 0699 E4       		.byte	0xe4
ARM GAS  /tmp/cczDKINg.s 			page 28


 1488 069a 49000000 		.4byte	0x49
 1489 069e 02       		.byte	0x2
 1490 069f 23       		.byte	0x23
 1491 06a0 0A       		.uleb128 0xa
 1492 06a1 00       		.byte	0
 1493 06a2 09       		.uleb128 0x9
 1494 06a3 04       		.byte	0x4
 1495 06a4 24050000 		.4byte	0x524
 1496 06a8 09       		.uleb128 0x9
 1497 06a9 04       		.byte	0x4
 1498 06aa 7E030000 		.4byte	0x37e
 1499 06ae 03       		.uleb128 0x3
 1500 06af 7B050000 		.4byte	.LASF91
 1501 06b3 0B       		.byte	0xb
 1502 06b4 E5       		.byte	0xe5
 1503 06b5 53060000 		.4byte	0x653
 1504 06b9 14       		.uleb128 0x14
 1505 06ba 01       		.byte	0x1
 1506 06bb 0C       		.byte	0xc
 1507 06bc 54       		.byte	0x54
 1508 06bd E6060000 		.4byte	0x6e6
 1509 06c1 15       		.uleb128 0x15
 1510 06c2 CE050000 		.4byte	.LASF92
 1511 06c6 00       		.sleb128 0
 1512 06c7 15       		.uleb128 0x15
 1513 06c8 840A0000 		.4byte	.LASF93
 1514 06cc 01       		.sleb128 1
 1515 06cd 15       		.uleb128 0x15
 1516 06ce B1060000 		.4byte	.LASF94
 1517 06d2 02       		.sleb128 2
 1518 06d3 15       		.uleb128 0x15
 1519 06d4 34040000 		.4byte	.LASF95
 1520 06d8 03       		.sleb128 3
 1521 06d9 15       		.uleb128 0x15
 1522 06da 36030000 		.4byte	.LASF96
 1523 06de 04       		.sleb128 4
 1524 06df 15       		.uleb128 0x15
 1525 06e0 C8040000 		.4byte	.LASF97
 1526 06e4 05       		.sleb128 5
 1527 06e5 00       		.byte	0
 1528 06e6 03       		.uleb128 0x3
 1529 06e7 28060000 		.4byte	.LASF98
 1530 06eb 0C       		.byte	0xc
 1531 06ec 5B       		.byte	0x5b
 1532 06ed B9060000 		.4byte	0x6b9
 1533 06f1 13       		.uleb128 0x13
 1534 06f2 62010000 		.4byte	.LASF99
 1535 06f6 0D       		.byte	0xd
 1536 06f7 3901     		.2byte	0x139
 1537 06f9 62000000 		.4byte	0x62
 1538 06fd 13       		.uleb128 0x13
 1539 06fe 9F090000 		.4byte	.LASF100
 1540 0702 0D       		.byte	0xd
 1541 0703 3E01     		.2byte	0x13e
 1542 0705 86000000 		.4byte	0x86
 1543 0709 16       		.uleb128 0x16
 1544 070a 01       		.byte	0x1
ARM GAS  /tmp/cczDKINg.s 			page 29


 1545 070b 0D       		.byte	0xd
 1546 070c 4301     		.2byte	0x143
 1547 070e 25070000 		.4byte	0x725
 1548 0712 15       		.uleb128 0x15
 1549 0713 84030000 		.4byte	.LASF101
 1550 0717 01       		.sleb128 1
 1551 0718 15       		.uleb128 0x15
 1552 0719 F7070000 		.4byte	.LASF102
 1553 071d 02       		.sleb128 2
 1554 071e 15       		.uleb128 0x15
 1555 071f 00090000 		.4byte	.LASF103
 1556 0723 03       		.sleb128 3
 1557 0724 00       		.byte	0
 1558 0725 13       		.uleb128 0x13
 1559 0726 DC070000 		.4byte	.LASF104
 1560 072a 0D       		.byte	0xd
 1561 072b 4701     		.2byte	0x147
 1562 072d 09070000 		.4byte	0x709
 1563 0731 16       		.uleb128 0x16
 1564 0732 01       		.byte	0x1
 1565 0733 0D       		.byte	0xd
 1566 0734 4C01     		.2byte	0x14c
 1567 0736 4D070000 		.4byte	0x74d
 1568 073a 15       		.uleb128 0x15
 1569 073b 45080000 		.4byte	.LASF105
 1570 073f 01       		.sleb128 1
 1571 0740 15       		.uleb128 0x15
 1572 0741 5D000000 		.4byte	.LASF106
 1573 0745 02       		.sleb128 2
 1574 0746 15       		.uleb128 0x15
 1575 0747 1F070000 		.4byte	.LASF107
 1576 074b 03       		.sleb128 3
 1577 074c 00       		.byte	0
 1578 074d 13       		.uleb128 0x13
 1579 074e 7D010000 		.4byte	.LASF108
 1580 0752 0D       		.byte	0xd
 1581 0753 5001     		.2byte	0x150
 1582 0755 31070000 		.4byte	0x731
 1583 0759 11       		.uleb128 0x11
 1584 075a 0C       		.byte	0xc
 1585 075b 0D       		.byte	0xd
 1586 075c 5501     		.2byte	0x155
 1587 075e 90070000 		.4byte	0x790
 1588 0762 12       		.uleb128 0x12
 1589 0763 3F090000 		.4byte	.LASF109
 1590 0767 0D       		.byte	0xd
 1591 0768 5601     		.2byte	0x156
 1592 076a 25070000 		.4byte	0x725
 1593 076e 02       		.byte	0x2
 1594 076f 23       		.byte	0x23
 1595 0770 00       		.uleb128 0
 1596 0771 12       		.uleb128 0x12
 1597 0772 E8090000 		.4byte	.LASF110
 1598 0776 0D       		.byte	0xd
 1599 0777 5701     		.2byte	0x157
 1600 0779 86000000 		.4byte	0x86
 1601 077d 02       		.byte	0x2
ARM GAS  /tmp/cczDKINg.s 			page 30


 1602 077e 23       		.byte	0x23
 1603 077f 04       		.uleb128 0x4
 1604 0780 12       		.uleb128 0x12
 1605 0781 D3040000 		.4byte	.LASF111
 1606 0785 0D       		.byte	0xd
 1607 0786 5A01     		.2byte	0x15a
 1608 0788 4D070000 		.4byte	0x74d
 1609 078c 02       		.byte	0x2
 1610 078d 23       		.byte	0x23
 1611 078e 08       		.uleb128 0x8
 1612 078f 00       		.byte	0
 1613 0790 13       		.uleb128 0x13
 1614 0791 5B070000 		.4byte	.LASF112
 1615 0795 0D       		.byte	0xd
 1616 0796 5C01     		.2byte	0x15c
 1617 0798 59070000 		.4byte	0x759
 1618 079c 13       		.uleb128 0x13
 1619 079d F2040000 		.4byte	.LASF113
 1620 07a1 0D       		.byte	0xd
 1621 07a2 6101     		.2byte	0x161
 1622 07a4 A8070000 		.4byte	0x7a8
 1623 07a8 0B       		.uleb128 0xb
 1624 07a9 F2040000 		.4byte	.LASF113
 1625 07ad 34       		.byte	0x34
 1626 07ae 0D       		.byte	0xd
 1627 07af 6601     		.2byte	0x166
 1628 07b1 4C080000 		.4byte	0x84c
 1629 07b5 12       		.uleb128 0x12
 1630 07b6 00010000 		.4byte	.LASF114
 1631 07ba 0D       		.byte	0xd
 1632 07bb 6A01     		.2byte	0x16a
 1633 07bd E6060000 		.4byte	0x6e6
 1634 07c1 02       		.byte	0x2
 1635 07c2 23       		.byte	0x23
 1636 07c3 00       		.uleb128 0
 1637 07c4 12       		.uleb128 0x12
 1638 07c5 F9000000 		.4byte	.LASF115
 1639 07c9 0D       		.byte	0xd
 1640 07ca 6E01     		.2byte	0x16e
 1641 07cc 4C080000 		.4byte	0x84c
 1642 07d0 02       		.byte	0x2
 1643 07d1 23       		.byte	0x23
 1644 07d2 04       		.uleb128 0x4
 1645 07d3 12       		.uleb128 0x12
 1646 07d4 06040000 		.4byte	.LASF116
 1647 07d8 0D       		.byte	0xd
 1648 07d9 7201     		.2byte	0x172
 1649 07db FD060000 		.4byte	0x6fd
 1650 07df 02       		.byte	0x2
 1651 07e0 23       		.byte	0x23
 1652 07e1 08       		.uleb128 0x8
 1653 07e2 12       		.uleb128 0x12
 1654 07e3 33060000 		.4byte	.LASF117
 1655 07e7 0D       		.byte	0xd
 1656 07e8 7801     		.2byte	0x178
 1657 07ea CC030000 		.4byte	0x3cc
 1658 07ee 02       		.byte	0x2
ARM GAS  /tmp/cczDKINg.s 			page 31


 1659 07ef 23       		.byte	0x23
 1660 07f0 0C       		.uleb128 0xc
 1661 07f1 12       		.uleb128 0x12
 1662 07f2 B1080000 		.4byte	.LASF118
 1663 07f6 0D       		.byte	0xd
 1664 07f7 8401     		.2byte	0x184
 1665 07f9 82020000 		.4byte	0x282
 1666 07fd 02       		.byte	0x2
 1667 07fe 23       		.byte	0x23
 1668 07ff 1C       		.uleb128 0x1c
 1669 0800 12       		.uleb128 0x12
 1670 0801 58060000 		.4byte	.LASF119
 1671 0805 0D       		.byte	0xd
 1672 0806 8801     		.2byte	0x188
 1673 0808 F1060000 		.4byte	0x6f1
 1674 080c 02       		.byte	0x2
 1675 080d 23       		.byte	0x23
 1676 080e 20       		.uleb128 0x20
 1677 080f 12       		.uleb128 0x12
 1678 0810 46060000 		.4byte	.LASF120
 1679 0814 0D       		.byte	0xd
 1680 0815 8C01     		.2byte	0x18c
 1681 0817 86000000 		.4byte	0x86
 1682 081b 02       		.byte	0x2
 1683 081c 23       		.byte	0x23
 1684 081d 24       		.uleb128 0x24
 1685 081e 12       		.uleb128 0x12
 1686 081f B4050000 		.4byte	.LASF121
 1687 0823 0D       		.byte	0xd
 1688 0824 9001     		.2byte	0x190
 1689 0826 57080000 		.4byte	0x857
 1690 082a 02       		.byte	0x2
 1691 082b 23       		.byte	0x23
 1692 082c 28       		.uleb128 0x28
 1693 082d 12       		.uleb128 0x12
 1694 082e 5D060000 		.4byte	.LASF122
 1695 0832 0D       		.byte	0xd
 1696 0833 9401     		.2byte	0x194
 1697 0835 57080000 		.4byte	0x857
 1698 0839 02       		.byte	0x2
 1699 083a 23       		.byte	0x23
 1700 083b 2C       		.uleb128 0x2c
 1701 083c 0C       		.uleb128 0xc
 1702 083d 69326300 		.ascii	"i2c\000"
 1703 0841 0D       		.byte	0xd
 1704 0842 9801     		.2byte	0x198
 1705 0844 62080000 		.4byte	0x862
 1706 0848 02       		.byte	0x2
 1707 0849 23       		.byte	0x23
 1708 084a 30       		.uleb128 0x30
 1709 084b 00       		.byte	0
 1710 084c 09       		.uleb128 0x9
 1711 084d 04       		.byte	0x4
 1712 084e 52080000 		.4byte	0x852
 1713 0852 10       		.uleb128 0x10
 1714 0853 90070000 		.4byte	0x790
 1715 0857 09       		.uleb128 0x9
ARM GAS  /tmp/cczDKINg.s 			page 32


 1716 0858 04       		.byte	0x4
 1717 0859 5D080000 		.4byte	0x85d
 1718 085d 10       		.uleb128 0x10
 1719 085e AE060000 		.4byte	0x6ae
 1720 0862 09       		.uleb128 0x9
 1721 0863 04       		.byte	0x4
 1722 0864 47060000 		.4byte	0x647
 1723 0868 03       		.uleb128 0x3
 1724 0869 48070000 		.4byte	.LASF123
 1725 086d 0E       		.byte	0xe
 1726 086e 1A       		.byte	0x1a
 1727 086f 49000000 		.4byte	0x49
 1728 0873 03       		.uleb128 0x3
 1729 0874 26010000 		.4byte	.LASF124
 1730 0878 0E       		.byte	0xe
 1731 0879 1B       		.byte	0x1b
 1732 087a 49000000 		.4byte	0x49
 1733 087e 05       		.uleb128 0x5
 1734 087f 8D070000 		.4byte	.LASF125
 1735 0883 08       		.byte	0x8
 1736 0884 0E       		.byte	0xe
 1737 0885 33       		.byte	0x33
 1738 0886 A7080000 		.4byte	0x8a7
 1739 088a 06       		.uleb128 0x6
 1740 088b 82070000 		.4byte	.LASF126
 1741 088f 0E       		.byte	0xe
 1742 0890 34       		.byte	0x34
 1743 0891 88040000 		.4byte	0x488
 1744 0895 02       		.byte	0x2
 1745 0896 23       		.byte	0x23
 1746 0897 00       		.uleb128 0
 1747 0898 06       		.uleb128 0x6
 1748 0899 05000000 		.4byte	.LASF127
 1749 089d 0E       		.byte	0xe
 1750 089e 35       		.byte	0x35
 1751 089f 29000000 		.4byte	0x29
 1752 08a3 02       		.byte	0x2
 1753 08a4 23       		.byte	0x23
 1754 08a5 04       		.uleb128 0x4
 1755 08a6 00       		.byte	0
 1756 08a7 03       		.uleb128 0x3
 1757 08a8 8D070000 		.4byte	.LASF125
 1758 08ac 0E       		.byte	0xe
 1759 08ad 36       		.byte	0x36
 1760 08ae 7E080000 		.4byte	0x87e
 1761 08b2 14       		.uleb128 0x14
 1762 08b3 01       		.byte	0x1
 1763 08b4 0E       		.byte	0xe
 1764 08b5 44       		.byte	0x44
 1765 08b6 27090000 		.4byte	0x927
 1766 08ba 15       		.uleb128 0x15
 1767 08bb F4090000 		.4byte	.LASF128
 1768 08bf 00       		.sleb128 0
 1769 08c0 15       		.uleb128 0x15
 1770 08c1 83000000 		.4byte	.LASF129
 1771 08c5 01       		.sleb128 1
 1772 08c6 15       		.uleb128 0x15
ARM GAS  /tmp/cczDKINg.s 			page 33


 1773 08c7 9B0A0000 		.4byte	.LASF130
 1774 08cb 02       		.sleb128 2
 1775 08cc 15       		.uleb128 0x15
 1776 08cd AD030000 		.4byte	.LASF131
 1777 08d1 03       		.sleb128 3
 1778 08d2 15       		.uleb128 0x15
 1779 08d3 94030000 		.4byte	.LASF132
 1780 08d7 04       		.sleb128 4
 1781 08d8 15       		.uleb128 0x15
 1782 08d9 16040000 		.4byte	.LASF133
 1783 08dd 05       		.sleb128 5
 1784 08de 15       		.uleb128 0x15
 1785 08df 0D040000 		.4byte	.LASF134
 1786 08e3 06       		.sleb128 6
 1787 08e4 15       		.uleb128 0x15
 1788 08e5 75040000 		.4byte	.LASF135
 1789 08e9 07       		.sleb128 7
 1790 08ea 15       		.uleb128 0x15
 1791 08eb 6C040000 		.4byte	.LASF136
 1792 08ef 08       		.sleb128 8
 1793 08f0 15       		.uleb128 0x15
 1794 08f1 A90A0000 		.4byte	.LASF137
 1795 08f5 09       		.sleb128 9
 1796 08f6 15       		.uleb128 0x15
 1797 08f7 69090000 		.4byte	.LASF138
 1798 08fb 0A       		.sleb128 10
 1799 08fc 15       		.uleb128 0x15
 1800 08fd 47090000 		.4byte	.LASF139
 1801 0901 0C       		.sleb128 12
 1802 0902 15       		.uleb128 0x15
 1803 0903 FD050000 		.4byte	.LASF140
 1804 0907 0D       		.sleb128 13
 1805 0908 15       		.uleb128 0x15
 1806 0909 06060000 		.4byte	.LASF141
 1807 090d 0E       		.sleb128 14
 1808 090e 15       		.uleb128 0x15
 1809 090f 8C010000 		.4byte	.LASF142
 1810 0913 0F       		.sleb128 15
 1811 0914 15       		.uleb128 0x15
 1812 0915 DE090000 		.4byte	.LASF143
 1813 0919 10       		.sleb128 16
 1814 091a 15       		.uleb128 0x15
 1815 091b C4030000 		.4byte	.LASF144
 1816 091f 11       		.sleb128 17
 1817 0920 15       		.uleb128 0x15
 1818 0921 CE030000 		.4byte	.LASF145
 1819 0925 12       		.sleb128 18
 1820 0926 00       		.byte	0
 1821 0927 03       		.uleb128 0x3
 1822 0928 6B070000 		.4byte	.LASF146
 1823 092c 0E       		.byte	0xe
 1824 092d 58       		.byte	0x58
 1825 092e B2080000 		.4byte	0x8b2
 1826 0932 14       		.uleb128 0x14
 1827 0933 01       		.byte	0x1
 1828 0934 0E       		.byte	0xe
 1829 0935 60       		.byte	0x60
ARM GAS  /tmp/cczDKINg.s 			page 34


 1830 0936 560A0000 		.4byte	0xa56
 1831 093a 15       		.uleb128 0x15
 1832 093b 7C080000 		.4byte	.LASF147
 1833 093f 00       		.sleb128 0
 1834 0940 15       		.uleb128 0x15
 1835 0941 62040000 		.4byte	.LASF148
 1836 0945 01       		.sleb128 1
 1837 0946 15       		.uleb128 0x15
 1838 0947 2A040000 		.4byte	.LASF149
 1839 094b 02       		.sleb128 2
 1840 094c 15       		.uleb128 0x15
 1841 094d 73010000 		.4byte	.LASF150
 1842 0951 03       		.sleb128 3
 1843 0952 15       		.uleb128 0x15
 1844 0953 0B080000 		.4byte	.LASF151
 1845 0957 04       		.sleb128 4
 1846 0958 15       		.uleb128 0x15
 1847 0959 F3050000 		.4byte	.LASF152
 1848 095d 05       		.sleb128 5
 1849 095e 15       		.uleb128 0x15
 1850 095f 82060000 		.4byte	.LASF153
 1851 0963 06       		.sleb128 6
 1852 0964 15       		.uleb128 0x15
 1853 0965 18060000 		.4byte	.LASF154
 1854 0969 07       		.sleb128 7
 1855 096a 15       		.uleb128 0x15
 1856 096b 39010000 		.4byte	.LASF155
 1857 096f 08       		.sleb128 8
 1858 0970 15       		.uleb128 0x15
 1859 0971 BB090000 		.4byte	.LASF156
 1860 0975 09       		.sleb128 9
 1861 0976 15       		.uleb128 0x15
 1862 0977 B8040000 		.4byte	.LASF157
 1863 097b 0A       		.sleb128 10
 1864 097c 15       		.uleb128 0x15
 1865 097d E7010000 		.4byte	.LASF158
 1866 0981 0B       		.sleb128 11
 1867 0982 15       		.uleb128 0x15
 1868 0983 34070000 		.4byte	.LASF159
 1869 0987 0C       		.sleb128 12
 1870 0988 15       		.uleb128 0x15
 1871 0989 BD080000 		.4byte	.LASF160
 1872 098d 0D       		.sleb128 13
 1873 098e 15       		.uleb128 0x15
 1874 098f 04050000 		.4byte	.LASF161
 1875 0993 0E       		.sleb128 14
 1876 0994 15       		.uleb128 0x15
 1877 0995 D9050000 		.4byte	.LASF162
 1878 0999 0F       		.sleb128 15
 1879 099a 15       		.uleb128 0x15
 1880 099b B70A0000 		.4byte	.LASF163
 1881 099f 10       		.sleb128 16
 1882 09a0 15       		.uleb128 0x15
 1883 09a1 A7050000 		.4byte	.LASF164
 1884 09a5 11       		.sleb128 17
 1885 09a6 15       		.uleb128 0x15
 1886 09a7 30050000 		.4byte	.LASF165
ARM GAS  /tmp/cczDKINg.s 			page 35


 1887 09ab 12       		.sleb128 18
 1888 09ac 15       		.uleb128 0x15
 1889 09ad 78030000 		.4byte	.LASF166
 1890 09b1 13       		.sleb128 19
 1891 09b2 15       		.uleb128 0x15
 1892 09b3 99010000 		.4byte	.LASF167
 1893 09b7 14       		.sleb128 20
 1894 09b8 15       		.uleb128 0x15
 1895 09b9 030A0000 		.4byte	.LASF168
 1896 09bd 15       		.sleb128 21
 1897 09be 15       		.uleb128 0x15
 1898 09bf A7060000 		.4byte	.LASF169
 1899 09c3 16       		.sleb128 22
 1900 09c4 15       		.uleb128 0x15
 1901 09c5 79000000 		.4byte	.LASF170
 1902 09c9 17       		.sleb128 23
 1903 09ca 15       		.uleb128 0x15
 1904 09cb 12090000 		.4byte	.LASF171
 1905 09cf 18       		.sleb128 24
 1906 09d0 15       		.uleb128 0x15
 1907 09d1 D4010000 		.4byte	.LASF172
 1908 09d5 19       		.sleb128 25
 1909 09d6 15       		.uleb128 0x15
 1910 09d7 0E070000 		.4byte	.LASF173
 1911 09db 1A       		.sleb128 26
 1912 09dc 15       		.uleb128 0x15
 1913 09dd 65070000 		.4byte	.LASF174
 1914 09e1 1B       		.sleb128 27
 1915 09e2 15       		.uleb128 0x15
 1916 09e3 AE000000 		.4byte	.LASF175
 1917 09e7 1C       		.sleb128 28
 1918 09e8 15       		.uleb128 0x15
 1919 09e9 6F000000 		.4byte	.LASF176
 1920 09ed 1D       		.sleb128 29
 1921 09ee 15       		.uleb128 0x15
 1922 09ef 1F090000 		.4byte	.LASF177
 1923 09f3 1E       		.sleb128 30
 1924 09f4 15       		.uleb128 0x15
 1925 09f5 330A0000 		.4byte	.LASF178
 1926 09f9 1F       		.sleb128 31
 1927 09fa 15       		.uleb128 0x15
 1928 09fb 72080000 		.4byte	.LASF179
 1929 09ff 20       		.sleb128 32
 1930 0a00 15       		.uleb128 0x15
 1931 0a01 0E0A0000 		.4byte	.LASF180
 1932 0a05 21       		.sleb128 33
 1933 0a06 15       		.uleb128 0x15
 1934 0a07 AA090000 		.4byte	.LASF181
 1935 0a0b 22       		.sleb128 34
 1936 0a0c 15       		.uleb128 0x15
 1937 0a0d 54080000 		.4byte	.LASF182
 1938 0a11 23       		.sleb128 35
 1939 0a12 15       		.uleb128 0x15
 1940 0a13 F6080000 		.4byte	.LASF183
 1941 0a17 24       		.sleb128 36
 1942 0a18 15       		.uleb128 0x15
 1943 0a19 F6060000 		.4byte	.LASF184
ARM GAS  /tmp/cczDKINg.s 			page 36


 1944 0a1d 25       		.sleb128 37
 1945 0a1e 15       		.uleb128 0x15
 1946 0a1f DB000000 		.4byte	.LASF185
 1947 0a23 26       		.sleb128 38
 1948 0a24 15       		.uleb128 0x15
 1949 0a25 E5000000 		.4byte	.LASF186
 1950 0a29 27       		.sleb128 39
 1951 0a2a 15       		.uleb128 0x15
 1952 0a2b EF000000 		.4byte	.LASF187
 1953 0a2f 28       		.sleb128 40
 1954 0a30 15       		.uleb128 0x15
 1955 0a31 E9050000 		.4byte	.LASF188
 1956 0a35 29       		.sleb128 41
 1957 0a36 15       		.uleb128 0x15
 1958 0a37 180A0000 		.4byte	.LASF189
 1959 0a3b 2A       		.sleb128 42
 1960 0a3c 15       		.uleb128 0x15
 1961 0a3d 3D0A0000 		.4byte	.LASF190
 1962 0a41 2B       		.sleb128 43
 1963 0a42 15       		.uleb128 0x15
 1964 0a43 430A0000 		.4byte	.LASF191
 1965 0a47 2C       		.sleb128 44
 1966 0a48 15       		.uleb128 0x15
 1967 0a49 2D0A0000 		.4byte	.LASF192
 1968 0a4d 2D       		.sleb128 45
 1969 0a4e 15       		.uleb128 0x15
 1970 0a4f 51090000 		.4byte	.LASF193
 1971 0a53 E000     		.sleb128 96
 1972 0a55 00       		.byte	0
 1973 0a56 03       		.uleb128 0x3
 1974 0a57 80090000 		.4byte	.LASF194
 1975 0a5b 0E       		.byte	0xe
 1976 0a5c 90       		.byte	0x90
 1977 0a5d 32090000 		.4byte	0x932
 1978 0a61 08       		.uleb128 0x8
 1979 0a62 01       		.byte	0x1
 1980 0a63 0E       		.byte	0xe
 1981 0a64 96       		.byte	0x96
 1982 0a65 780A0000 		.4byte	0xa78
 1983 0a69 06       		.uleb128 0x6
 1984 0a6a A1040000 		.4byte	.LASF195
 1985 0a6e 0E       		.byte	0xe
 1986 0a6f 97       		.byte	0x97
 1987 0a70 73080000 		.4byte	0x873
 1988 0a74 02       		.byte	0x2
 1989 0a75 23       		.byte	0x23
 1990 0a76 00       		.uleb128 0
 1991 0a77 00       		.byte	0
 1992 0a78 03       		.uleb128 0x3
 1993 0a79 6B0A0000 		.4byte	.LASF196
 1994 0a7d 0E       		.byte	0xe
 1995 0a7e 98       		.byte	0x98
 1996 0a7f 610A0000 		.4byte	0xa61
 1997 0a83 08       		.uleb128 0x8
 1998 0a84 01       		.byte	0x1
 1999 0a85 0E       		.byte	0xe
 2000 0a86 9F       		.byte	0x9f
ARM GAS  /tmp/cczDKINg.s 			page 37


 2001 0a87 9A0A0000 		.4byte	0xa9a
 2002 0a8b 06       		.uleb128 0x6
 2003 0a8c 83080000 		.4byte	.LASF197
 2004 0a90 0E       		.byte	0xe
 2005 0a91 A0       		.byte	0xa0
 2006 0a92 73080000 		.4byte	0x873
 2007 0a96 02       		.byte	0x2
 2008 0a97 23       		.byte	0x23
 2009 0a98 00       		.uleb128 0
 2010 0a99 00       		.byte	0
 2011 0a9a 03       		.uleb128 0x3
 2012 0a9b B8000000 		.4byte	.LASF198
 2013 0a9f 0E       		.byte	0xe
 2014 0aa0 A1       		.byte	0xa1
 2015 0aa1 830A0000 		.4byte	0xa83
 2016 0aa5 08       		.uleb128 0x8
 2017 0aa6 68       		.byte	0x68
 2018 0aa7 0E       		.byte	0xe
 2019 0aa8 A8       		.byte	0xa8
 2020 0aa9 020B0000 		.4byte	0xb02
 2021 0aad 06       		.uleb128 0x6
 2022 0aae 12010000 		.4byte	.LASF199
 2023 0ab2 0E       		.byte	0xe
 2024 0ab3 A9       		.byte	0xa9
 2025 0ab4 49000000 		.4byte	0x49
 2026 0ab8 02       		.byte	0x2
 2027 0ab9 23       		.byte	0x23
 2028 0aba 00       		.uleb128 0
 2029 0abb 06       		.uleb128 0x6
 2030 0abc DE040000 		.4byte	.LASF200
 2031 0ac0 0E       		.byte	0xe
 2032 0ac1 AA       		.byte	0xaa
 2033 0ac2 49000000 		.4byte	0x49
 2034 0ac6 02       		.byte	0x2
 2035 0ac7 23       		.byte	0x23
 2036 0ac8 01       		.uleb128 0x1
 2037 0ac9 06       		.uleb128 0x6
 2038 0aca 49010000 		.4byte	.LASF201
 2039 0ace 0E       		.byte	0xe
 2040 0acf AB       		.byte	0xab
 2041 0ad0 560A0000 		.4byte	0xa56
 2042 0ad4 02       		.byte	0x2
 2043 0ad5 23       		.byte	0x23
 2044 0ad6 02       		.uleb128 0x2
 2045 0ad7 06       		.uleb128 0x6
 2046 0ad8 94000000 		.4byte	.LASF202
 2047 0adc 0E       		.byte	0xe
 2048 0add AC       		.byte	0xac
 2049 0ade 27090000 		.4byte	0x927
 2050 0ae2 02       		.byte	0x2
 2051 0ae3 23       		.byte	0x23
 2052 0ae4 03       		.uleb128 0x3
 2053 0ae5 06       		.uleb128 0x6
 2054 0ae6 0F060000 		.4byte	.LASF203
 2055 0aea 0E       		.byte	0xe
 2056 0aeb AD       		.byte	0xad
 2057 0aec 020B0000 		.4byte	0xb02
ARM GAS  /tmp/cczDKINg.s 			page 38


 2058 0af0 02       		.byte	0x2
 2059 0af1 23       		.byte	0x23
 2060 0af2 04       		.uleb128 0x4
 2061 0af3 06       		.uleb128 0x6
 2062 0af4 29080000 		.4byte	.LASF204
 2063 0af8 0E       		.byte	0xe
 2064 0af9 AE       		.byte	0xae
 2065 0afa 020B0000 		.4byte	0xb02
 2066 0afe 02       		.byte	0x2
 2067 0aff 23       		.byte	0x23
 2068 0b00 36       		.uleb128 0x36
 2069 0b01 00       		.byte	0
 2070 0b02 17       		.uleb128 0x17
 2071 0b03 73080000 		.4byte	0x873
 2072 0b07 120B0000 		.4byte	0xb12
 2073 0b0b 18       		.uleb128 0x18
 2074 0b0c 83030000 		.4byte	0x383
 2075 0b10 31       		.byte	0x31
 2076 0b11 00       		.byte	0
 2077 0b12 03       		.uleb128 0x3
 2078 0b13 73020000 		.4byte	.LASF205
 2079 0b17 0E       		.byte	0xe
 2080 0b18 AF       		.byte	0xaf
 2081 0b19 A50A0000 		.4byte	0xaa5
 2082 0b1d 05       		.uleb128 0x5
 2083 0b1e 9D000000 		.4byte	.LASF206
 2084 0b22 6C       		.byte	0x6c
 2085 0b23 0E       		.byte	0xe
 2086 0b24 B6       		.byte	0xb6
 2087 0b25 620B0000 		.4byte	0xb62
 2088 0b29 06       		.uleb128 0x6
 2089 0b2a 8F040000 		.4byte	.LASF207
 2090 0b2e 0E       		.byte	0xe
 2091 0b2f B7       		.byte	0xb7
 2092 0b30 FD060000 		.4byte	0x6fd
 2093 0b34 02       		.byte	0x2
 2094 0b35 23       		.byte	0x23
 2095 0b36 00       		.uleb128 0
 2096 0b37 06       		.uleb128 0x6
 2097 0b38 92090000 		.4byte	.LASF208
 2098 0b3c 0E       		.byte	0xe
 2099 0b3d B8       		.byte	0xb8
 2100 0b3e 620B0000 		.4byte	0xb62
 2101 0b42 02       		.byte	0x2
 2102 0b43 23       		.byte	0x23
 2103 0b44 04       		.uleb128 0x4
 2104 0b45 06       		.uleb128 0x6
 2105 0b46 01020000 		.4byte	.LASF209
 2106 0b4a 0E       		.byte	0xe
 2107 0b4b B9       		.byte	0xb9
 2108 0b4c 680B0000 		.4byte	0xb68
 2109 0b50 02       		.byte	0x2
 2110 0b51 23       		.byte	0x23
 2111 0b52 08       		.uleb128 0x8
 2112 0b53 06       		.uleb128 0x6
 2113 0b54 AE050000 		.4byte	.LASF210
 2114 0b58 0E       		.byte	0xe
ARM GAS  /tmp/cczDKINg.s 			page 39


 2115 0b59 BA       		.byte	0xba
 2116 0b5a 680B0000 		.4byte	0xb68
 2117 0b5e 02       		.byte	0x2
 2118 0b5f 23       		.byte	0x23
 2119 0b60 3A       		.uleb128 0x3a
 2120 0b61 00       		.byte	0
 2121 0b62 09       		.uleb128 0x9
 2122 0b63 04       		.byte	0x4
 2123 0b64 9C070000 		.4byte	0x79c
 2124 0b68 17       		.uleb128 0x17
 2125 0b69 68080000 		.4byte	0x868
 2126 0b6d 780B0000 		.4byte	0xb78
 2127 0b71 18       		.uleb128 0x18
 2128 0b72 83030000 		.4byte	0x383
 2129 0b76 31       		.byte	0x31
 2130 0b77 00       		.byte	0
 2131 0b78 03       		.uleb128 0x3
 2132 0b79 7E040000 		.4byte	.LASF211
 2133 0b7d 0E       		.byte	0xe
 2134 0b7e BB       		.byte	0xbb
 2135 0b7f 1D0B0000 		.4byte	0xb1d
 2136 0b83 19       		.uleb128 0x19
 2137 0b84 01       		.byte	0x1
 2138 0b85 C6080000 		.4byte	.LASF215
 2139 0b89 01       		.byte	0x1
 2140 0b8a 2C       		.byte	0x2c
 2141 0b8b 01       		.byte	0x1
 2142 0b8c 88040000 		.4byte	0x488
 2143 0b90 00000000 		.4byte	.LFB118
 2144 0b94 28000000 		.4byte	.LFE118
 2145 0b98 02       		.byte	0x2
 2146 0b99 7D       		.byte	0x7d
 2147 0b9a 00       		.sleb128 0
 2148 0b9b 01       		.byte	0x1
 2149 0b9c C90B0000 		.4byte	0xbc9
 2150 0ba0 1A       		.uleb128 0x1a
 2151 0ba1 65727200 		.ascii	"err\000"
 2152 0ba5 01       		.byte	0x1
 2153 0ba6 2C       		.byte	0x2c
 2154 0ba7 74000000 		.4byte	0x74
 2155 0bab 00000000 		.4byte	.LLST0
 2156 0baf 1B       		.uleb128 0x1b
 2157 0bb0 29030000 		.4byte	.LASF212
 2158 0bb4 01       		.byte	0x1
 2159 0bb5 2D       		.byte	0x2d
 2160 0bb6 49000000 		.4byte	0x49
 2161 0bba 09       		.byte	0x9
 2162 0bbb 1C       		.uleb128 0x1c
 2163 0bbc 6900     		.ascii	"i\000"
 2164 0bbe 01       		.byte	0x1
 2165 0bbf 2E       		.byte	0x2e
 2166 0bc0 49000000 		.4byte	0x49
 2167 0bc4 3A000000 		.4byte	.LLST1
 2168 0bc8 00       		.byte	0
 2169 0bc9 1D       		.uleb128 0x1d
 2170 0bca 01       		.byte	0x1
 2171 0bcb 44030000 		.4byte	.LASF213
ARM GAS  /tmp/cczDKINg.s 			page 40


 2172 0bcf 01       		.byte	0x1
 2173 0bd0 3E       		.byte	0x3e
 2174 0bd1 01       		.byte	0x1
 2175 0bd2 00000000 		.4byte	.LFB119
 2176 0bd6 02000000 		.4byte	.LFE119
 2177 0bda 02       		.byte	0x2
 2178 0bdb 7D       		.byte	0x7d
 2179 0bdc 00       		.sleb128 0
 2180 0bdd 01       		.byte	0x1
 2181 0bde EF0B0000 		.4byte	0xbef
 2182 0be2 1E       		.uleb128 0x1e
 2183 0be3 696400   		.ascii	"id\000"
 2184 0be6 01       		.byte	0x1
 2185 0be7 3E       		.byte	0x3e
 2186 0be8 F3000000 		.4byte	0xf3
 2187 0bec 01       		.byte	0x1
 2188 0bed 50       		.byte	0x50
 2189 0bee 00       		.byte	0
 2190 0bef 1F       		.uleb128 0x1f
 2191 0bf0 01       		.byte	0x1
 2192 0bf1 9D030000 		.4byte	.LASF214
 2193 0bf5 01       		.byte	0x1
 2194 0bf6 43       		.byte	0x43
 2195 0bf7 01       		.byte	0x1
 2196 0bf8 00000000 		.4byte	.LFB120
 2197 0bfc 40000000 		.4byte	.LFE120
 2198 0c00 4E000000 		.4byte	.LLST2
 2199 0c04 01       		.byte	0x1
 2200 0c05 260C0000 		.4byte	0xc26
 2201 0c09 1A       		.uleb128 0x1a
 2202 0c0a 69326300 		.ascii	"i2c\000"
 2203 0c0e 01       		.byte	0x1
 2204 0c0f 43       		.byte	0x43
 2205 0c10 620B0000 		.4byte	0xb62
 2206 0c14 6E000000 		.4byte	.LLST3
 2207 0c18 1C       		.uleb128 0x1c
 2208 0c19 6900     		.ascii	"i\000"
 2209 0c1b 01       		.byte	0x1
 2210 0c1c 44       		.byte	0x44
 2211 0c1d 49000000 		.4byte	0x49
 2212 0c21 90000000 		.4byte	.LLST4
 2213 0c25 00       		.byte	0
 2214 0c26 20       		.uleb128 0x20
 2215 0c27 01       		.byte	0x1
 2216 0c28 E7080000 		.4byte	.LASF216
 2217 0c2c 01       		.byte	0x1
 2218 0c2d 53       		.byte	0x53
 2219 0c2e 01       		.byte	0x1
 2220 0c2f E8000000 		.4byte	0xe8
 2221 0c33 00000000 		.4byte	.LFB121
 2222 0c37 EE000000 		.4byte	.LFE121
 2223 0c3b A4000000 		.4byte	.LLST5
 2224 0c3f 01       		.byte	0x1
 2225 0c40 490E0000 		.4byte	0xe49
 2226 0c44 21       		.uleb128 0x21
 2227 0c45 CD070000 		.4byte	.LASF217
 2228 0c49 01       		.byte	0x1
ARM GAS  /tmp/cczDKINg.s 			page 41


 2229 0c4a 53       		.byte	0x53
 2230 0c4b 620B0000 		.4byte	0xb62
 2231 0c4f D0000000 		.4byte	.LLST6
 2232 0c53 22       		.uleb128 0x22
 2233 0c54 29050000 		.4byte	.LASF218
 2234 0c58 01       		.byte	0x1
 2235 0c59 55       		.byte	0x55
 2236 0c5a E8000000 		.4byte	0xe8
 2237 0c5e EE000000 		.4byte	.LLST7
 2238 0c62 23       		.uleb128 0x23
 2239 0c63 2A000000 		.4byte	.LVL10
 2240 0c67 A8100000 		.4byte	0x10a8
 2241 0c6b 760C0000 		.4byte	0xc76
 2242 0c6f 24       		.uleb128 0x24
 2243 0c70 01       		.byte	0x1
 2244 0c71 50       		.byte	0x50
 2245 0c72 02       		.byte	0x2
 2246 0c73 74       		.byte	0x74
 2247 0c74 00       		.sleb128 0
 2248 0c75 00       		.byte	0
 2249 0c76 23       		.uleb128 0x23
 2250 0c77 3E000000 		.4byte	.LVL11
 2251 0c7b BC100000 		.4byte	0x10bc
 2252 0c7f B00C0000 		.4byte	0xcb0
 2253 0c83 24       		.uleb128 0x24
 2254 0c84 01       		.byte	0x1
 2255 0c85 53       		.byte	0x53
 2256 0c86 01       		.byte	0x1
 2257 0c87 32       		.byte	0x32
 2258 0c88 24       		.uleb128 0x24
 2259 0c89 01       		.byte	0x1
 2260 0c8a 52       		.byte	0x52
 2261 0c8b 02       		.byte	0x2
 2262 0c8c 79       		.byte	0x79
 2263 0c8d 00       		.sleb128 0
 2264 0c8e 24       		.uleb128 0x24
 2265 0c8f 01       		.byte	0x1
 2266 0c90 51       		.byte	0x51
 2267 0c91 02       		.byte	0x2
 2268 0c92 08       		.byte	0x8
 2269 0c93 60       		.byte	0x60
 2270 0c94 24       		.uleb128 0x24
 2271 0c95 01       		.byte	0x1
 2272 0c96 50       		.byte	0x50
 2273 0c97 02       		.byte	0x2
 2274 0c98 74       		.byte	0x74
 2275 0c99 00       		.sleb128 0
 2276 0c9a 24       		.uleb128 0x24
 2277 0c9b 02       		.byte	0x2
 2278 0c9c 7D       		.byte	0x7d
 2279 0c9d 08       		.sleb128 8
 2280 0c9e 02       		.byte	0x2
 2281 0c9f 76       		.byte	0x76
 2282 0ca0 00       		.sleb128 0
 2283 0ca1 24       		.uleb128 0x24
 2284 0ca2 02       		.byte	0x2
 2285 0ca3 7D       		.byte	0x7d
ARM GAS  /tmp/cczDKINg.s 			page 42


 2286 0ca4 04       		.sleb128 4
 2287 0ca5 02       		.byte	0x2
 2288 0ca6 77       		.byte	0x77
 2289 0ca7 00       		.sleb128 0
 2290 0ca8 24       		.uleb128 0x24
 2291 0ca9 02       		.byte	0x2
 2292 0caa 7D       		.byte	0x7d
 2293 0cab 00       		.sleb128 0
 2294 0cac 02       		.byte	0x2
 2295 0cad 78       		.byte	0x78
 2296 0cae 00       		.sleb128 0
 2297 0caf 00       		.byte	0
 2298 0cb0 23       		.uleb128 0x23
 2299 0cb1 44000000 		.4byte	.LVL12
 2300 0cb5 F2100000 		.4byte	0x10f2
 2301 0cb9 C40C0000 		.4byte	0xcc4
 2302 0cbd 24       		.uleb128 0x24
 2303 0cbe 01       		.byte	0x1
 2304 0cbf 50       		.byte	0x50
 2305 0cc0 02       		.byte	0x2
 2306 0cc1 74       		.byte	0x74
 2307 0cc2 00       		.sleb128 0
 2308 0cc3 00       		.byte	0
 2309 0cc4 23       		.uleb128 0x23
 2310 0cc5 56000000 		.4byte	.LVL13
 2311 0cc9 A8100000 		.4byte	0x10a8
 2312 0ccd D80C0000 		.4byte	0xcd8
 2313 0cd1 24       		.uleb128 0x24
 2314 0cd2 01       		.byte	0x1
 2315 0cd3 50       		.byte	0x50
 2316 0cd4 02       		.byte	0x2
 2317 0cd5 74       		.byte	0x74
 2318 0cd6 00       		.sleb128 0
 2319 0cd7 00       		.byte	0
 2320 0cd8 23       		.uleb128 0x23
 2321 0cd9 6A000000 		.4byte	.LVL14
 2322 0cdd BC100000 		.4byte	0x10bc
 2323 0ce1 120D0000 		.4byte	0xd12
 2324 0ce5 24       		.uleb128 0x24
 2325 0ce6 01       		.byte	0x1
 2326 0ce7 53       		.byte	0x53
 2327 0ce8 01       		.byte	0x1
 2328 0ce9 32       		.byte	0x32
 2329 0cea 24       		.uleb128 0x24
 2330 0ceb 01       		.byte	0x1
 2331 0cec 52       		.byte	0x52
 2332 0ced 02       		.byte	0x2
 2333 0cee 79       		.byte	0x79
 2334 0cef 00       		.sleb128 0
 2335 0cf0 24       		.uleb128 0x24
 2336 0cf1 01       		.byte	0x1
 2337 0cf2 51       		.byte	0x51
 2338 0cf3 02       		.byte	0x2
 2339 0cf4 08       		.byte	0x8
 2340 0cf5 60       		.byte	0x60
 2341 0cf6 24       		.uleb128 0x24
 2342 0cf7 01       		.byte	0x1
ARM GAS  /tmp/cczDKINg.s 			page 43


 2343 0cf8 50       		.byte	0x50
 2344 0cf9 02       		.byte	0x2
 2345 0cfa 74       		.byte	0x74
 2346 0cfb 00       		.sleb128 0
 2347 0cfc 24       		.uleb128 0x24
 2348 0cfd 02       		.byte	0x2
 2349 0cfe 7D       		.byte	0x7d
 2350 0cff 08       		.sleb128 8
 2351 0d00 02       		.byte	0x2
 2352 0d01 76       		.byte	0x76
 2353 0d02 00       		.sleb128 0
 2354 0d03 24       		.uleb128 0x24
 2355 0d04 02       		.byte	0x2
 2356 0d05 7D       		.byte	0x7d
 2357 0d06 04       		.sleb128 4
 2358 0d07 02       		.byte	0x2
 2359 0d08 77       		.byte	0x77
 2360 0d09 00       		.sleb128 0
 2361 0d0a 24       		.uleb128 0x24
 2362 0d0b 02       		.byte	0x2
 2363 0d0c 7D       		.byte	0x7d
 2364 0d0d 00       		.sleb128 0
 2365 0d0e 02       		.byte	0x2
 2366 0d0f 78       		.byte	0x78
 2367 0d10 00       		.sleb128 0
 2368 0d11 00       		.byte	0
 2369 0d12 23       		.uleb128 0x23
 2370 0d13 70000000 		.4byte	.LVL15
 2371 0d17 F2100000 		.4byte	0x10f2
 2372 0d1b 260D0000 		.4byte	0xd26
 2373 0d1f 24       		.uleb128 0x24
 2374 0d20 01       		.byte	0x1
 2375 0d21 50       		.byte	0x50
 2376 0d22 02       		.byte	0x2
 2377 0d23 74       		.byte	0x74
 2378 0d24 00       		.sleb128 0
 2379 0d25 00       		.byte	0
 2380 0d26 23       		.uleb128 0x23
 2381 0d27 7A000000 		.4byte	.LVL16
 2382 0d2b A8100000 		.4byte	0x10a8
 2383 0d2f 3A0D0000 		.4byte	0xd3a
 2384 0d33 24       		.uleb128 0x24
 2385 0d34 01       		.byte	0x1
 2386 0d35 50       		.byte	0x50
 2387 0d36 02       		.byte	0x2
 2388 0d37 74       		.byte	0x74
 2389 0d38 00       		.sleb128 0
 2390 0d39 00       		.byte	0
 2391 0d3a 23       		.uleb128 0x23
 2392 0d3b 8E000000 		.4byte	.LVL17
 2393 0d3f BC100000 		.4byte	0x10bc
 2394 0d43 740D0000 		.4byte	0xd74
 2395 0d47 24       		.uleb128 0x24
 2396 0d48 01       		.byte	0x1
 2397 0d49 53       		.byte	0x53
 2398 0d4a 01       		.byte	0x1
 2399 0d4b 32       		.byte	0x32
ARM GAS  /tmp/cczDKINg.s 			page 44


 2400 0d4c 24       		.uleb128 0x24
 2401 0d4d 01       		.byte	0x1
 2402 0d4e 52       		.byte	0x52
 2403 0d4f 02       		.byte	0x2
 2404 0d50 79       		.byte	0x79
 2405 0d51 00       		.sleb128 0
 2406 0d52 24       		.uleb128 0x24
 2407 0d53 01       		.byte	0x1
 2408 0d54 51       		.byte	0x51
 2409 0d55 02       		.byte	0x2
 2410 0d56 08       		.byte	0x8
 2411 0d57 60       		.byte	0x60
 2412 0d58 24       		.uleb128 0x24
 2413 0d59 01       		.byte	0x1
 2414 0d5a 50       		.byte	0x50
 2415 0d5b 02       		.byte	0x2
 2416 0d5c 74       		.byte	0x74
 2417 0d5d 00       		.sleb128 0
 2418 0d5e 24       		.uleb128 0x24
 2419 0d5f 02       		.byte	0x2
 2420 0d60 7D       		.byte	0x7d
 2421 0d61 08       		.sleb128 8
 2422 0d62 02       		.byte	0x2
 2423 0d63 76       		.byte	0x76
 2424 0d64 00       		.sleb128 0
 2425 0d65 24       		.uleb128 0x24
 2426 0d66 02       		.byte	0x2
 2427 0d67 7D       		.byte	0x7d
 2428 0d68 04       		.sleb128 4
 2429 0d69 02       		.byte	0x2
 2430 0d6a 77       		.byte	0x77
 2431 0d6b 00       		.sleb128 0
 2432 0d6c 24       		.uleb128 0x24
 2433 0d6d 02       		.byte	0x2
 2434 0d6e 7D       		.byte	0x7d
 2435 0d6f 00       		.sleb128 0
 2436 0d70 02       		.byte	0x2
 2437 0d71 78       		.byte	0x78
 2438 0d72 00       		.sleb128 0
 2439 0d73 00       		.byte	0
 2440 0d74 23       		.uleb128 0x23
 2441 0d75 94000000 		.4byte	.LVL18
 2442 0d79 F2100000 		.4byte	0x10f2
 2443 0d7d 880D0000 		.4byte	0xd88
 2444 0d81 24       		.uleb128 0x24
 2445 0d82 01       		.byte	0x1
 2446 0d83 50       		.byte	0x50
 2447 0d84 02       		.byte	0x2
 2448 0d85 74       		.byte	0x74
 2449 0d86 00       		.sleb128 0
 2450 0d87 00       		.byte	0
 2451 0d88 23       		.uleb128 0x23
 2452 0d89 A2000000 		.4byte	.LVL19
 2453 0d8d A8100000 		.4byte	0x10a8
 2454 0d91 9C0D0000 		.4byte	0xd9c
 2455 0d95 24       		.uleb128 0x24
 2456 0d96 01       		.byte	0x1
ARM GAS  /tmp/cczDKINg.s 			page 45


 2457 0d97 50       		.byte	0x50
 2458 0d98 02       		.byte	0x2
 2459 0d99 74       		.byte	0x74
 2460 0d9a 00       		.sleb128 0
 2461 0d9b 00       		.byte	0
 2462 0d9c 23       		.uleb128 0x23
 2463 0d9d B6000000 		.4byte	.LVL20
 2464 0da1 BC100000 		.4byte	0x10bc
 2465 0da5 D60D0000 		.4byte	0xdd6
 2466 0da9 24       		.uleb128 0x24
 2467 0daa 01       		.byte	0x1
 2468 0dab 53       		.byte	0x53
 2469 0dac 01       		.byte	0x1
 2470 0dad 32       		.byte	0x32
 2471 0dae 24       		.uleb128 0x24
 2472 0daf 01       		.byte	0x1
 2473 0db0 52       		.byte	0x52
 2474 0db1 02       		.byte	0x2
 2475 0db2 79       		.byte	0x79
 2476 0db3 00       		.sleb128 0
 2477 0db4 24       		.uleb128 0x24
 2478 0db5 01       		.byte	0x1
 2479 0db6 51       		.byte	0x51
 2480 0db7 02       		.byte	0x2
 2481 0db8 08       		.byte	0x8
 2482 0db9 60       		.byte	0x60
 2483 0dba 24       		.uleb128 0x24
 2484 0dbb 01       		.byte	0x1
 2485 0dbc 50       		.byte	0x50
 2486 0dbd 02       		.byte	0x2
 2487 0dbe 74       		.byte	0x74
 2488 0dbf 00       		.sleb128 0
 2489 0dc0 24       		.uleb128 0x24
 2490 0dc1 02       		.byte	0x2
 2491 0dc2 7D       		.byte	0x7d
 2492 0dc3 08       		.sleb128 8
 2493 0dc4 02       		.byte	0x2
 2494 0dc5 76       		.byte	0x76
 2495 0dc6 00       		.sleb128 0
 2496 0dc7 24       		.uleb128 0x24
 2497 0dc8 02       		.byte	0x2
 2498 0dc9 7D       		.byte	0x7d
 2499 0dca 04       		.sleb128 4
 2500 0dcb 02       		.byte	0x2
 2501 0dcc 77       		.byte	0x77
 2502 0dcd 00       		.sleb128 0
 2503 0dce 24       		.uleb128 0x24
 2504 0dcf 02       		.byte	0x2
 2505 0dd0 7D       		.byte	0x7d
 2506 0dd1 00       		.sleb128 0
 2507 0dd2 02       		.byte	0x2
 2508 0dd3 78       		.byte	0x78
 2509 0dd4 00       		.sleb128 0
 2510 0dd5 00       		.byte	0
 2511 0dd6 23       		.uleb128 0x23
 2512 0dd7 BC000000 		.4byte	.LVL21
 2513 0ddb F2100000 		.4byte	0x10f2
ARM GAS  /tmp/cczDKINg.s 			page 46


 2514 0ddf EA0D0000 		.4byte	0xdea
 2515 0de3 24       		.uleb128 0x24
 2516 0de4 01       		.byte	0x1
 2517 0de5 50       		.byte	0x50
 2518 0de6 02       		.byte	0x2
 2519 0de7 74       		.byte	0x74
 2520 0de8 00       		.sleb128 0
 2521 0de9 00       		.byte	0
 2522 0dea 23       		.uleb128 0x23
 2523 0deb CA000000 		.4byte	.LVL22
 2524 0def A8100000 		.4byte	0x10a8
 2525 0df3 FE0D0000 		.4byte	0xdfe
 2526 0df7 24       		.uleb128 0x24
 2527 0df8 01       		.byte	0x1
 2528 0df9 50       		.byte	0x50
 2529 0dfa 02       		.byte	0x2
 2530 0dfb 74       		.byte	0x74
 2531 0dfc 00       		.sleb128 0
 2532 0dfd 00       		.byte	0
 2533 0dfe 23       		.uleb128 0x23
 2534 0dff DE000000 		.4byte	.LVL23
 2535 0e03 BC100000 		.4byte	0x10bc
 2536 0e07 380E0000 		.4byte	0xe38
 2537 0e0b 24       		.uleb128 0x24
 2538 0e0c 01       		.byte	0x1
 2539 0e0d 53       		.byte	0x53
 2540 0e0e 01       		.byte	0x1
 2541 0e0f 32       		.byte	0x32
 2542 0e10 24       		.uleb128 0x24
 2543 0e11 01       		.byte	0x1
 2544 0e12 52       		.byte	0x52
 2545 0e13 02       		.byte	0x2
 2546 0e14 79       		.byte	0x79
 2547 0e15 00       		.sleb128 0
 2548 0e16 24       		.uleb128 0x24
 2549 0e17 01       		.byte	0x1
 2550 0e18 51       		.byte	0x51
 2551 0e19 02       		.byte	0x2
 2552 0e1a 08       		.byte	0x8
 2553 0e1b 60       		.byte	0x60
 2554 0e1c 24       		.uleb128 0x24
 2555 0e1d 01       		.byte	0x1
 2556 0e1e 50       		.byte	0x50
 2557 0e1f 02       		.byte	0x2
 2558 0e20 74       		.byte	0x74
 2559 0e21 00       		.sleb128 0
 2560 0e22 24       		.uleb128 0x24
 2561 0e23 02       		.byte	0x2
 2562 0e24 7D       		.byte	0x7d
 2563 0e25 08       		.sleb128 8
 2564 0e26 02       		.byte	0x2
 2565 0e27 76       		.byte	0x76
 2566 0e28 00       		.sleb128 0
 2567 0e29 24       		.uleb128 0x24
 2568 0e2a 02       		.byte	0x2
 2569 0e2b 7D       		.byte	0x7d
 2570 0e2c 04       		.sleb128 4
ARM GAS  /tmp/cczDKINg.s 			page 47


 2571 0e2d 02       		.byte	0x2
 2572 0e2e 77       		.byte	0x77
 2573 0e2f 00       		.sleb128 0
 2574 0e30 24       		.uleb128 0x24
 2575 0e31 02       		.byte	0x2
 2576 0e32 7D       		.byte	0x7d
 2577 0e33 00       		.sleb128 0
 2578 0e34 02       		.byte	0x2
 2579 0e35 78       		.byte	0x78
 2580 0e36 00       		.sleb128 0
 2581 0e37 00       		.byte	0
 2582 0e38 25       		.uleb128 0x25
 2583 0e39 E6000000 		.4byte	.LVL26
 2584 0e3d F2100000 		.4byte	0x10f2
 2585 0e41 24       		.uleb128 0x24
 2586 0e42 01       		.byte	0x1
 2587 0e43 50       		.byte	0x50
 2588 0e44 02       		.byte	0x2
 2589 0e45 74       		.byte	0x74
 2590 0e46 00       		.sleb128 0
 2591 0e47 00       		.byte	0
 2592 0e48 00       		.byte	0
 2593 0e49 20       		.uleb128 0x20
 2594 0e4a 01       		.byte	0x1
 2595 0e4b 10020000 		.4byte	.LASF219
 2596 0e4f 01       		.byte	0x1
 2597 0e50 77       		.byte	0x77
 2598 0e51 01       		.byte	0x1
 2599 0e52 170F0000 		.4byte	0xf17
 2600 0e56 00000000 		.4byte	.LFB122
 2601 0e5a 40000000 		.4byte	.LFE122
 2602 0e5e 18010000 		.4byte	.LLST8
 2603 0e62 01       		.byte	0x1
 2604 0e63 170F0000 		.4byte	0xf17
 2605 0e67 21       		.uleb128 0x21
 2606 0e68 CD070000 		.4byte	.LASF217
 2607 0e6c 01       		.byte	0x1
 2608 0e6d 77       		.byte	0x77
 2609 0e6e 620B0000 		.4byte	0xb62
 2610 0e72 44010000 		.4byte	.LLST9
 2611 0e76 26       		.uleb128 0x26
 2612 0e77 54000000 		.4byte	.LASF220
 2613 0e7b 01       		.byte	0x1
 2614 0e7c 79       		.byte	0x79
 2615 0e7d 170F0000 		.4byte	0xf17
 2616 0e81 04       		.byte	0x4
 2617 0e82 0000A040 		.4byte	0x40a00000
 2618 0e86 27       		.uleb128 0x27
 2619 0e87 5B0A0000 		.4byte	.LASF221
 2620 0e8b 01       		.byte	0x1
 2621 0e8c 7A       		.byte	0x7a
 2622 0e8d 49000000 		.4byte	0x49
 2623 0e91 27       		.uleb128 0x27
 2624 0e92 94080000 		.4byte	.LASF222
 2625 0e96 01       		.byte	0x1
 2626 0e97 7B       		.byte	0x7b
 2627 0e98 49000000 		.4byte	0x49
ARM GAS  /tmp/cczDKINg.s 			page 48


 2628 0e9c 27       		.uleb128 0x27
 2629 0e9d A4010000 		.4byte	.LASF223
 2630 0ea1 01       		.byte	0x1
 2631 0ea2 7C       		.byte	0x7c
 2632 0ea3 170F0000 		.4byte	0xf17
 2633 0ea7 22       		.uleb128 0x22
 2634 0ea8 29050000 		.4byte	.LASF218
 2635 0eac 01       		.byte	0x1
 2636 0ead 7D       		.byte	0x7d
 2637 0eae E8000000 		.4byte	0xe8
 2638 0eb2 62010000 		.4byte	.LLST10
 2639 0eb6 23       		.uleb128 0x23
 2640 0eb7 1C000000 		.4byte	.LVL28
 2641 0ebb A8100000 		.4byte	0x10a8
 2642 0ebf CA0E0000 		.4byte	0xeca
 2643 0ec3 24       		.uleb128 0x24
 2644 0ec4 01       		.byte	0x1
 2645 0ec5 50       		.byte	0x50
 2646 0ec6 02       		.byte	0x2
 2647 0ec7 77       		.byte	0x77
 2648 0ec8 00       		.sleb128 0
 2649 0ec9 00       		.byte	0
 2650 0eca 23       		.uleb128 0x23
 2651 0ecb 32000000 		.4byte	.LVL29
 2652 0ecf BC100000 		.4byte	0x10bc
 2653 0ed3 060F0000 		.4byte	0xf06
 2654 0ed7 24       		.uleb128 0x24
 2655 0ed8 01       		.byte	0x1
 2656 0ed9 53       		.byte	0x53
 2657 0eda 02       		.byte	0x2
 2658 0edb 75       		.byte	0x75
 2659 0edc 00       		.sleb128 0
 2660 0edd 24       		.uleb128 0x24
 2661 0ede 01       		.byte	0x1
 2662 0edf 52       		.byte	0x52
 2663 0ee0 02       		.byte	0x2
 2664 0ee1 76       		.byte	0x76
 2665 0ee2 00       		.sleb128 0
 2666 0ee3 24       		.uleb128 0x24
 2667 0ee4 01       		.byte	0x1
 2668 0ee5 51       		.byte	0x51
 2669 0ee6 02       		.byte	0x2
 2670 0ee7 08       		.byte	0x8
 2671 0ee8 60       		.byte	0x60
 2672 0ee9 24       		.uleb128 0x24
 2673 0eea 01       		.byte	0x1
 2674 0eeb 50       		.byte	0x50
 2675 0eec 02       		.byte	0x2
 2676 0eed 77       		.byte	0x77
 2677 0eee 00       		.sleb128 0
 2678 0eef 24       		.uleb128 0x24
 2679 0ef0 02       		.byte	0x2
 2680 0ef1 7D       		.byte	0x7d
 2681 0ef2 08       		.sleb128 8
 2682 0ef3 03       		.byte	0x3
 2683 0ef4 0A       		.byte	0xa
 2684 0ef5 9001     		.2byte	0x190
ARM GAS  /tmp/cczDKINg.s 			page 49


 2685 0ef7 24       		.uleb128 0x24
 2686 0ef8 02       		.byte	0x2
 2687 0ef9 7D       		.byte	0x7d
 2688 0efa 04       		.sleb128 4
 2689 0efb 02       		.byte	0x2
 2690 0efc 75       		.byte	0x75
 2691 0efd 00       		.sleb128 0
 2692 0efe 24       		.uleb128 0x24
 2693 0eff 02       		.byte	0x2
 2694 0f00 7D       		.byte	0x7d
 2695 0f01 00       		.sleb128 0
 2696 0f02 02       		.byte	0x2
 2697 0f03 74       		.byte	0x74
 2698 0f04 00       		.sleb128 0
 2699 0f05 00       		.byte	0
 2700 0f06 25       		.uleb128 0x25
 2701 0f07 38000000 		.4byte	.LVL30
 2702 0f0b F2100000 		.4byte	0x10f2
 2703 0f0f 24       		.uleb128 0x24
 2704 0f10 01       		.byte	0x1
 2705 0f11 50       		.byte	0x50
 2706 0f12 02       		.byte	0x2
 2707 0f13 77       		.byte	0x77
 2708 0f14 00       		.sleb128 0
 2709 0f15 00       		.byte	0
 2710 0f16 00       		.byte	0
 2711 0f17 04       		.uleb128 0x4
 2712 0f18 04       		.byte	0x4
 2713 0f19 04       		.byte	0x4
 2714 0f1a C7010000 		.4byte	.LASF224
 2715 0f1e 20       		.uleb128 0x20
 2716 0f1f 01       		.byte	0x1
 2717 0f20 9C070000 		.4byte	.LASF225
 2718 0f24 01       		.byte	0x1
 2719 0f25 96       		.byte	0x96
 2720 0f26 01       		.byte	0x1
 2721 0f27 170F0000 		.4byte	0xf17
 2722 0f2b 00000000 		.4byte	.LFB123
 2723 0f2f 4C000000 		.4byte	.LFE123
 2724 0f33 76010000 		.4byte	.LLST11
 2725 0f37 01       		.byte	0x1
 2726 0f38 DF0F0000 		.4byte	0xfdf
 2727 0f3c 21       		.uleb128 0x21
 2728 0f3d CD070000 		.4byte	.LASF217
 2729 0f41 01       		.byte	0x1
 2730 0f42 96       		.byte	0x96
 2731 0f43 620B0000 		.4byte	0xb62
 2732 0f47 A2010000 		.4byte	.LLST12
 2733 0f4b 26       		.uleb128 0x26
 2734 0f4c 660A0000 		.4byte	.LASF226
 2735 0f50 01       		.byte	0x1
 2736 0f51 97       		.byte	0x97
 2737 0f52 170F0000 		.4byte	0xf17
 2738 0f56 04       		.byte	0x4
 2739 0f57 00000000 		.4byte	0
 2740 0f5b 27       		.uleb128 0x27
 2741 0f5c 18070000 		.4byte	.LASF227
ARM GAS  /tmp/cczDKINg.s 			page 50


 2742 0f60 01       		.byte	0x1
 2743 0f61 98       		.byte	0x98
 2744 0f62 49000000 		.4byte	0x49
 2745 0f66 27       		.uleb128 0x27
 2746 0f67 3A000000 		.4byte	.LASF228
 2747 0f6b 01       		.byte	0x1
 2748 0f6c 99       		.byte	0x99
 2749 0f6d 170F0000 		.4byte	0xf17
 2750 0f71 22       		.uleb128 0x22
 2751 0f72 29050000 		.4byte	.LASF218
 2752 0f76 01       		.byte	0x1
 2753 0f77 9A       		.byte	0x9a
 2754 0f78 E8000000 		.4byte	0xe8
 2755 0f7c C0010000 		.4byte	.LLST13
 2756 0f80 23       		.uleb128 0x23
 2757 0f81 1A000000 		.4byte	.LVL32
 2758 0f85 A8100000 		.4byte	0x10a8
 2759 0f89 940F0000 		.4byte	0xf94
 2760 0f8d 24       		.uleb128 0x24
 2761 0f8e 01       		.byte	0x1
 2762 0f8f 50       		.byte	0x50
 2763 0f90 02       		.byte	0x2
 2764 0f91 75       		.byte	0x75
 2765 0f92 00       		.sleb128 0
 2766 0f93 00       		.byte	0
 2767 0f94 23       		.uleb128 0x23
 2768 0f95 38000000 		.4byte	.LVL33
 2769 0f99 BC100000 		.4byte	0x10bc
 2770 0f9d CE0F0000 		.4byte	0xfce
 2771 0fa1 24       		.uleb128 0x24
 2772 0fa2 01       		.byte	0x1
 2773 0fa3 53       		.byte	0x53
 2774 0fa4 01       		.byte	0x1
 2775 0fa5 32       		.byte	0x32
 2776 0fa6 24       		.uleb128 0x24
 2777 0fa7 01       		.byte	0x1
 2778 0fa8 52       		.byte	0x52
 2779 0fa9 02       		.byte	0x2
 2780 0faa 74       		.byte	0x74
 2781 0fab 08       		.sleb128 8
 2782 0fac 24       		.uleb128 0x24
 2783 0fad 01       		.byte	0x1
 2784 0fae 51       		.byte	0x51
 2785 0faf 02       		.byte	0x2
 2786 0fb0 08       		.byte	0x8
 2787 0fb1 60       		.byte	0x60
 2788 0fb2 24       		.uleb128 0x24
 2789 0fb3 01       		.byte	0x1
 2790 0fb4 50       		.byte	0x50
 2791 0fb5 02       		.byte	0x2
 2792 0fb6 75       		.byte	0x75
 2793 0fb7 00       		.sleb128 0
 2794 0fb8 24       		.uleb128 0x24
 2795 0fb9 02       		.byte	0x2
 2796 0fba 7D       		.byte	0x7d
 2797 0fbb 08       		.sleb128 8
 2798 0fbc 03       		.byte	0x3
ARM GAS  /tmp/cczDKINg.s 			page 51


 2799 0fbd 0A       		.byte	0xa
 2800 0fbe 9001     		.2byte	0x190
 2801 0fc0 24       		.uleb128 0x24
 2802 0fc1 02       		.byte	0x2
 2803 0fc2 7D       		.byte	0x7d
 2804 0fc3 04       		.sleb128 4
 2805 0fc4 01       		.byte	0x1
 2806 0fc5 30       		.byte	0x30
 2807 0fc6 24       		.uleb128 0x24
 2808 0fc7 02       		.byte	0x2
 2809 0fc8 7D       		.byte	0x7d
 2810 0fc9 00       		.sleb128 0
 2811 0fca 02       		.byte	0x2
 2812 0fcb 74       		.byte	0x74
 2813 0fcc 3A       		.sleb128 58
 2814 0fcd 00       		.byte	0
 2815 0fce 25       		.uleb128 0x25
 2816 0fcf 3E000000 		.4byte	.LVL34
 2817 0fd3 F2100000 		.4byte	0x10f2
 2818 0fd7 24       		.uleb128 0x24
 2819 0fd8 01       		.byte	0x1
 2820 0fd9 50       		.byte	0x50
 2821 0fda 02       		.byte	0x2
 2822 0fdb 75       		.byte	0x75
 2823 0fdc 00       		.sleb128 0
 2824 0fdd 00       		.byte	0
 2825 0fde 00       		.byte	0
 2826 0fdf 17       		.uleb128 0x17
 2827 0fe0 A7080000 		.4byte	0x8a7
 2828 0fe4 EF0F0000 		.4byte	0xfef
 2829 0fe8 18       		.uleb128 0x18
 2830 0fe9 83030000 		.4byte	0x383
 2831 0fed 08       		.byte	0x8
 2832 0fee 00       		.byte	0
 2833 0fef 28       		.uleb128 0x28
 2834 0ff0 F5030000 		.4byte	.LASF229
 2835 0ff4 01       		.byte	0x1
 2836 0ff5 20       		.byte	0x20
 2837 0ff6 00100000 		.4byte	0x1000
 2838 0ffa 05       		.byte	0x5
 2839 0ffb 03       		.byte	0x3
 2840 0ffc 00000000 		.4byte	i2c_debug_errors
 2841 1000 10       		.uleb128 0x10
 2842 1001 DF0F0000 		.4byte	0xfdf
 2843 1005 29       		.uleb128 0x29
 2844 1006 39060000 		.4byte	.LASF230
 2845 100a 0F       		.byte	0xf
 2846 100b 9806     		.2byte	0x698
 2847 100d BC040000 		.4byte	0x4bc
 2848 1011 01       		.byte	0x1
 2849 1012 01       		.byte	0x1
 2850 1013 2A       		.uleb128 0x2a
 2851 1014 E1060000 		.4byte	.LASF231
 2852 1018 01       		.byte	0x1
 2853 1019 12       		.byte	0x12
 2854 101a 120B0000 		.4byte	0xb12
 2855 101e 01       		.byte	0x1
ARM GAS  /tmp/cczDKINg.s 			page 52


 2856 101f 05       		.byte	0x5
 2857 1020 03       		.byte	0x3
 2858 1021 00000000 		.4byte	mpl3115a2_cache_data
 2859 1025 2A       		.uleb128 0x2a
 2860 1026 5E080000 		.4byte	.LASF232
 2861 102a 01       		.byte	0x1
 2862 102b 17       		.byte	0x17
 2863 102c 48040000 		.4byte	0x448
 2864 1030 01       		.byte	0x1
 2865 1031 05       		.byte	0x5
 2866 1032 03       		.byte	0x3
 2867 1033 00000000 		.4byte	mpl3115a2_int_event
 2868 1037 2A       		.uleb128 0x2a
 2869 1038 42040000 		.4byte	.LASF233
 2870 103c 01       		.byte	0x1
 2871 103d 13       		.byte	0x13
 2872 103e 780A0000 		.4byte	0xa78
 2873 1042 01       		.byte	0x1
 2874 1043 05       		.byte	0x5
 2875 1044 03       		.byte	0x3
 2876 1045 00000000 		.4byte	mpl3115a2_burst_a_g_data
 2877 1049 2A       		.uleb128 0x2a
 2878 104a 61050000 		.4byte	.LASF234
 2879 104e 01       		.byte	0x1
 2880 104f 14       		.byte	0x14
 2881 1050 9A0A0000 		.4byte	0xa9a
 2882 1054 01       		.byte	0x1
 2883 1055 05       		.byte	0x5
 2884 1056 03       		.byte	0x3
 2885 1057 00000000 		.4byte	mpl3115a2_burst_magn_data
 2886 105b 2A       		.uleb128 0x2a
 2887 105c 9D000000 		.4byte	.LASF206
 2888 1060 01       		.byte	0x1
 2889 1061 16       		.byte	0x16
 2890 1062 780B0000 		.4byte	0xb78
 2891 1066 01       		.byte	0x1
 2892 1067 05       		.byte	0x5
 2893 1068 03       		.byte	0x3
 2894 1069 00000000 		.4byte	mpl3115a2_driver
 2895 106d 2A       		.uleb128 0x2a
 2896 106e DF030000 		.4byte	.LASF235
 2897 1072 01       		.byte	0x1
 2898 1073 19       		.byte	0x19
 2899 1074 7F100000 		.4byte	0x107f
 2900 1078 01       		.byte	0x1
 2901 1079 05       		.byte	0x5
 2902 107a 03       		.byte	0x3
 2903 107b 00000000 		.4byte	mpl3115a2_i2c_timeout
 2904 107f 10       		.uleb128 0x10
 2905 1080 14010000 		.4byte	0x114
 2906 1084 2A       		.uleb128 0x2a
 2907 1085 8E050000 		.4byte	.LASF236
 2908 1089 01       		.byte	0x1
 2909 108a 1C       		.byte	0x1c
 2910 108b B2040000 		.4byte	0x4b2
 2911 108f 01       		.byte	0x1
 2912 1090 05       		.byte	0x5
ARM GAS  /tmp/cczDKINg.s 			page 53


 2913 1091 03       		.byte	0x3
 2914 1092 00000000 		.4byte	mpl3115a2_i2c_slave_addr
 2915 1096 2A       		.uleb128 0x2a
 2916 1097 43050000 		.4byte	.LASF237
 2917 109b 01       		.byte	0x1
 2918 109c 1D       		.byte	0x1d
 2919 109d B2040000 		.4byte	0x4b2
 2920 10a1 01       		.byte	0x1
 2921 10a2 05       		.byte	0x5
 2922 10a3 03       		.byte	0x3
 2923 10a4 00000000 		.4byte	mpl3115a2_i2c_magn_addr
 2924 10a8 2B       		.uleb128 0x2b
 2925 10a9 01       		.byte	0x1
 2926 10aa 60030000 		.4byte	.LASF241
 2927 10ae 0C       		.byte	0xc
 2928 10af 88       		.byte	0x88
 2929 10b0 01       		.byte	0x1
 2930 10b1 01       		.byte	0x1
 2931 10b2 BC100000 		.4byte	0x10bc
 2932 10b6 2C       		.uleb128 0x2c
 2933 10b7 620B0000 		.4byte	0xb62
 2934 10bb 00       		.byte	0
 2935 10bc 2D       		.uleb128 0x2d
 2936 10bd 01       		.byte	0x1
 2937 10be 10030000 		.4byte	.LASF242
 2938 10c2 0C       		.byte	0xc
 2939 10c3 7E       		.byte	0x7e
 2940 10c4 01       		.byte	0x1
 2941 10c5 E8000000 		.4byte	0xe8
 2942 10c9 01       		.byte	0x1
 2943 10ca F2100000 		.4byte	0x10f2
 2944 10ce 2C       		.uleb128 0x2c
 2945 10cf 620B0000 		.4byte	0xb62
 2946 10d3 2C       		.uleb128 0x2c
 2947 10d4 F1060000 		.4byte	0x6f1
 2948 10d8 2C       		.uleb128 0x2c
 2949 10d9 AC040000 		.4byte	0x4ac
 2950 10dd 2C       		.uleb128 0x2c
 2951 10de 30000000 		.4byte	0x30
 2952 10e2 2C       		.uleb128 0x2c
 2953 10e3 A6040000 		.4byte	0x4a6
 2954 10e7 2C       		.uleb128 0x2c
 2955 10e8 30000000 		.4byte	0x30
 2956 10ec 2C       		.uleb128 0x2c
 2957 10ed 14010000 		.4byte	0x114
 2958 10f1 00       		.byte	0
 2959 10f2 2E       		.uleb128 0x2e
 2960 10f3 01       		.byte	0x1
 2961 10f4 00070000 		.4byte	.LASF243
 2962 10f8 0C       		.byte	0xc
 2963 10f9 89       		.byte	0x89
 2964 10fa 01       		.byte	0x1
 2965 10fb 01       		.byte	0x1
 2966 10fc 2C       		.uleb128 0x2c
 2967 10fd 620B0000 		.4byte	0xb62
 2968 1101 00       		.byte	0
 2969 1102 00       		.byte	0
ARM GAS  /tmp/cczDKINg.s 			page 54


 2970              		.section	.debug_abbrev,"",%progbits
 2971              	.Ldebug_abbrev0:
 2972 0000 01       		.uleb128 0x1
 2973 0001 11       		.uleb128 0x11
 2974 0002 01       		.byte	0x1
 2975 0003 25       		.uleb128 0x25
 2976 0004 0E       		.uleb128 0xe
 2977 0005 13       		.uleb128 0x13
 2978 0006 0B       		.uleb128 0xb
 2979 0007 03       		.uleb128 0x3
 2980 0008 0E       		.uleb128 0xe
 2981 0009 1B       		.uleb128 0x1b
 2982 000a 0E       		.uleb128 0xe
 2983 000b 55       		.uleb128 0x55
 2984 000c 06       		.uleb128 0x6
 2985 000d 11       		.uleb128 0x11
 2986 000e 01       		.uleb128 0x1
 2987 000f 52       		.uleb128 0x52
 2988 0010 01       		.uleb128 0x1
 2989 0011 10       		.uleb128 0x10
 2990 0012 06       		.uleb128 0x6
 2991 0013 00       		.byte	0
 2992 0014 00       		.byte	0
 2993 0015 02       		.uleb128 0x2
 2994 0016 24       		.uleb128 0x24
 2995 0017 00       		.byte	0
 2996 0018 0B       		.uleb128 0xb
 2997 0019 0B       		.uleb128 0xb
 2998 001a 3E       		.uleb128 0x3e
 2999 001b 0B       		.uleb128 0xb
 3000 001c 03       		.uleb128 0x3
 3001 001d 08       		.uleb128 0x8
 3002 001e 00       		.byte	0
 3003 001f 00       		.byte	0
 3004 0020 03       		.uleb128 0x3
 3005 0021 16       		.uleb128 0x16
 3006 0022 00       		.byte	0
 3007 0023 03       		.uleb128 0x3
 3008 0024 0E       		.uleb128 0xe
 3009 0025 3A       		.uleb128 0x3a
 3010 0026 0B       		.uleb128 0xb
 3011 0027 3B       		.uleb128 0x3b
 3012 0028 0B       		.uleb128 0xb
 3013 0029 49       		.uleb128 0x49
 3014 002a 13       		.uleb128 0x13
 3015 002b 00       		.byte	0
 3016 002c 00       		.byte	0
 3017 002d 04       		.uleb128 0x4
 3018 002e 24       		.uleb128 0x24
 3019 002f 00       		.byte	0
 3020 0030 0B       		.uleb128 0xb
 3021 0031 0B       		.uleb128 0xb
 3022 0032 3E       		.uleb128 0x3e
 3023 0033 0B       		.uleb128 0xb
 3024 0034 03       		.uleb128 0x3
 3025 0035 0E       		.uleb128 0xe
 3026 0036 00       		.byte	0
ARM GAS  /tmp/cczDKINg.s 			page 55


 3027 0037 00       		.byte	0
 3028 0038 05       		.uleb128 0x5
 3029 0039 13       		.uleb128 0x13
 3030 003a 01       		.byte	0x1
 3031 003b 03       		.uleb128 0x3
 3032 003c 0E       		.uleb128 0xe
 3033 003d 0B       		.uleb128 0xb
 3034 003e 0B       		.uleb128 0xb
 3035 003f 3A       		.uleb128 0x3a
 3036 0040 0B       		.uleb128 0xb
 3037 0041 3B       		.uleb128 0x3b
 3038 0042 0B       		.uleb128 0xb
 3039 0043 01       		.uleb128 0x1
 3040 0044 13       		.uleb128 0x13
 3041 0045 00       		.byte	0
 3042 0046 00       		.byte	0
 3043 0047 06       		.uleb128 0x6
 3044 0048 0D       		.uleb128 0xd
 3045 0049 00       		.byte	0
 3046 004a 03       		.uleb128 0x3
 3047 004b 0E       		.uleb128 0xe
 3048 004c 3A       		.uleb128 0x3a
 3049 004d 0B       		.uleb128 0xb
 3050 004e 3B       		.uleb128 0x3b
 3051 004f 0B       		.uleb128 0xb
 3052 0050 49       		.uleb128 0x49
 3053 0051 13       		.uleb128 0x13
 3054 0052 38       		.uleb128 0x38
 3055 0053 0A       		.uleb128 0xa
 3056 0054 00       		.byte	0
 3057 0055 00       		.byte	0
 3058 0056 07       		.uleb128 0x7
 3059 0057 0D       		.uleb128 0xd
 3060 0058 00       		.byte	0
 3061 0059 03       		.uleb128 0x3
 3062 005a 08       		.uleb128 0x8
 3063 005b 3A       		.uleb128 0x3a
 3064 005c 0B       		.uleb128 0xb
 3065 005d 3B       		.uleb128 0x3b
 3066 005e 0B       		.uleb128 0xb
 3067 005f 49       		.uleb128 0x49
 3068 0060 13       		.uleb128 0x13
 3069 0061 38       		.uleb128 0x38
 3070 0062 0A       		.uleb128 0xa
 3071 0063 00       		.byte	0
 3072 0064 00       		.byte	0
 3073 0065 08       		.uleb128 0x8
 3074 0066 13       		.uleb128 0x13
 3075 0067 01       		.byte	0x1
 3076 0068 0B       		.uleb128 0xb
 3077 0069 0B       		.uleb128 0xb
 3078 006a 3A       		.uleb128 0x3a
 3079 006b 0B       		.uleb128 0xb
 3080 006c 3B       		.uleb128 0x3b
 3081 006d 0B       		.uleb128 0xb
 3082 006e 01       		.uleb128 0x1
 3083 006f 13       		.uleb128 0x13
ARM GAS  /tmp/cczDKINg.s 			page 56


 3084 0070 00       		.byte	0
 3085 0071 00       		.byte	0
 3086 0072 09       		.uleb128 0x9
 3087 0073 0F       		.uleb128 0xf
 3088 0074 00       		.byte	0
 3089 0075 0B       		.uleb128 0xb
 3090 0076 0B       		.uleb128 0xb
 3091 0077 49       		.uleb128 0x49
 3092 0078 13       		.uleb128 0x13
 3093 0079 00       		.byte	0
 3094 007a 00       		.byte	0
 3095 007b 0A       		.uleb128 0xa
 3096 007c 0F       		.uleb128 0xf
 3097 007d 00       		.byte	0
 3098 007e 0B       		.uleb128 0xb
 3099 007f 0B       		.uleb128 0xb
 3100 0080 00       		.byte	0
 3101 0081 00       		.byte	0
 3102 0082 0B       		.uleb128 0xb
 3103 0083 13       		.uleb128 0x13
 3104 0084 01       		.byte	0x1
 3105 0085 03       		.uleb128 0x3
 3106 0086 0E       		.uleb128 0xe
 3107 0087 0B       		.uleb128 0xb
 3108 0088 0B       		.uleb128 0xb
 3109 0089 3A       		.uleb128 0x3a
 3110 008a 0B       		.uleb128 0xb
 3111 008b 3B       		.uleb128 0x3b
 3112 008c 05       		.uleb128 0x5
 3113 008d 01       		.uleb128 0x1
 3114 008e 13       		.uleb128 0x13
 3115 008f 00       		.byte	0
 3116 0090 00       		.byte	0
 3117 0091 0C       		.uleb128 0xc
 3118 0092 0D       		.uleb128 0xd
 3119 0093 00       		.byte	0
 3120 0094 03       		.uleb128 0x3
 3121 0095 08       		.uleb128 0x8
 3122 0096 3A       		.uleb128 0x3a
 3123 0097 0B       		.uleb128 0xb
 3124 0098 3B       		.uleb128 0x3b
 3125 0099 05       		.uleb128 0x5
 3126 009a 49       		.uleb128 0x49
 3127 009b 13       		.uleb128 0x13
 3128 009c 38       		.uleb128 0x38
 3129 009d 0A       		.uleb128 0xa
 3130 009e 00       		.byte	0
 3131 009f 00       		.byte	0
 3132 00a0 0D       		.uleb128 0xd
 3133 00a1 35       		.uleb128 0x35
 3134 00a2 00       		.byte	0
 3135 00a3 49       		.uleb128 0x49
 3136 00a4 13       		.uleb128 0x13
 3137 00a5 00       		.byte	0
 3138 00a6 00       		.byte	0
 3139 00a7 0E       		.uleb128 0xe
 3140 00a8 17       		.uleb128 0x17
ARM GAS  /tmp/cczDKINg.s 			page 57


 3141 00a9 01       		.byte	0x1
 3142 00aa 0B       		.uleb128 0xb
 3143 00ab 0B       		.uleb128 0xb
 3144 00ac 3A       		.uleb128 0x3a
 3145 00ad 0B       		.uleb128 0xb
 3146 00ae 3B       		.uleb128 0x3b
 3147 00af 0B       		.uleb128 0xb
 3148 00b0 01       		.uleb128 0x1
 3149 00b1 13       		.uleb128 0x13
 3150 00b2 00       		.byte	0
 3151 00b3 00       		.byte	0
 3152 00b4 0F       		.uleb128 0xf
 3153 00b5 0D       		.uleb128 0xd
 3154 00b6 00       		.byte	0
 3155 00b7 03       		.uleb128 0x3
 3156 00b8 0E       		.uleb128 0xe
 3157 00b9 3A       		.uleb128 0x3a
 3158 00ba 0B       		.uleb128 0xb
 3159 00bb 3B       		.uleb128 0x3b
 3160 00bc 0B       		.uleb128 0xb
 3161 00bd 49       		.uleb128 0x49
 3162 00be 13       		.uleb128 0x13
 3163 00bf 00       		.byte	0
 3164 00c0 00       		.byte	0
 3165 00c1 10       		.uleb128 0x10
 3166 00c2 26       		.uleb128 0x26
 3167 00c3 00       		.byte	0
 3168 00c4 49       		.uleb128 0x49
 3169 00c5 13       		.uleb128 0x13
 3170 00c6 00       		.byte	0
 3171 00c7 00       		.byte	0
 3172 00c8 11       		.uleb128 0x11
 3173 00c9 13       		.uleb128 0x13
 3174 00ca 01       		.byte	0x1
 3175 00cb 0B       		.uleb128 0xb
 3176 00cc 0B       		.uleb128 0xb
 3177 00cd 3A       		.uleb128 0x3a
 3178 00ce 0B       		.uleb128 0xb
 3179 00cf 3B       		.uleb128 0x3b
 3180 00d0 05       		.uleb128 0x5
 3181 00d1 01       		.uleb128 0x1
 3182 00d2 13       		.uleb128 0x13
 3183 00d3 00       		.byte	0
 3184 00d4 00       		.byte	0
 3185 00d5 12       		.uleb128 0x12
 3186 00d6 0D       		.uleb128 0xd
 3187 00d7 00       		.byte	0
 3188 00d8 03       		.uleb128 0x3
 3189 00d9 0E       		.uleb128 0xe
 3190 00da 3A       		.uleb128 0x3a
 3191 00db 0B       		.uleb128 0xb
 3192 00dc 3B       		.uleb128 0x3b
 3193 00dd 05       		.uleb128 0x5
 3194 00de 49       		.uleb128 0x49
 3195 00df 13       		.uleb128 0x13
 3196 00e0 38       		.uleb128 0x38
 3197 00e1 0A       		.uleb128 0xa
ARM GAS  /tmp/cczDKINg.s 			page 58


 3198 00e2 00       		.byte	0
 3199 00e3 00       		.byte	0
 3200 00e4 13       		.uleb128 0x13
 3201 00e5 16       		.uleb128 0x16
 3202 00e6 00       		.byte	0
 3203 00e7 03       		.uleb128 0x3
 3204 00e8 0E       		.uleb128 0xe
 3205 00e9 3A       		.uleb128 0x3a
 3206 00ea 0B       		.uleb128 0xb
 3207 00eb 3B       		.uleb128 0x3b
 3208 00ec 05       		.uleb128 0x5
 3209 00ed 49       		.uleb128 0x49
 3210 00ee 13       		.uleb128 0x13
 3211 00ef 00       		.byte	0
 3212 00f0 00       		.byte	0
 3213 00f1 14       		.uleb128 0x14
 3214 00f2 04       		.uleb128 0x4
 3215 00f3 01       		.byte	0x1
 3216 00f4 0B       		.uleb128 0xb
 3217 00f5 0B       		.uleb128 0xb
 3218 00f6 3A       		.uleb128 0x3a
 3219 00f7 0B       		.uleb128 0xb
 3220 00f8 3B       		.uleb128 0x3b
 3221 00f9 0B       		.uleb128 0xb
 3222 00fa 01       		.uleb128 0x1
 3223 00fb 13       		.uleb128 0x13
 3224 00fc 00       		.byte	0
 3225 00fd 00       		.byte	0
 3226 00fe 15       		.uleb128 0x15
 3227 00ff 28       		.uleb128 0x28
 3228 0100 00       		.byte	0
 3229 0101 03       		.uleb128 0x3
 3230 0102 0E       		.uleb128 0xe
 3231 0103 1C       		.uleb128 0x1c
 3232 0104 0D       		.uleb128 0xd
 3233 0105 00       		.byte	0
 3234 0106 00       		.byte	0
 3235 0107 16       		.uleb128 0x16
 3236 0108 04       		.uleb128 0x4
 3237 0109 01       		.byte	0x1
 3238 010a 0B       		.uleb128 0xb
 3239 010b 0B       		.uleb128 0xb
 3240 010c 3A       		.uleb128 0x3a
 3241 010d 0B       		.uleb128 0xb
 3242 010e 3B       		.uleb128 0x3b
 3243 010f 05       		.uleb128 0x5
 3244 0110 01       		.uleb128 0x1
 3245 0111 13       		.uleb128 0x13
 3246 0112 00       		.byte	0
 3247 0113 00       		.byte	0
 3248 0114 17       		.uleb128 0x17
 3249 0115 01       		.uleb128 0x1
 3250 0116 01       		.byte	0x1
 3251 0117 49       		.uleb128 0x49
 3252 0118 13       		.uleb128 0x13
 3253 0119 01       		.uleb128 0x1
 3254 011a 13       		.uleb128 0x13
ARM GAS  /tmp/cczDKINg.s 			page 59


 3255 011b 00       		.byte	0
 3256 011c 00       		.byte	0
 3257 011d 18       		.uleb128 0x18
 3258 011e 21       		.uleb128 0x21
 3259 011f 00       		.byte	0
 3260 0120 49       		.uleb128 0x49
 3261 0121 13       		.uleb128 0x13
 3262 0122 2F       		.uleb128 0x2f
 3263 0123 0B       		.uleb128 0xb
 3264 0124 00       		.byte	0
 3265 0125 00       		.byte	0
 3266 0126 19       		.uleb128 0x19
 3267 0127 2E       		.uleb128 0x2e
 3268 0128 01       		.byte	0x1
 3269 0129 3F       		.uleb128 0x3f
 3270 012a 0C       		.uleb128 0xc
 3271 012b 03       		.uleb128 0x3
 3272 012c 0E       		.uleb128 0xe
 3273 012d 3A       		.uleb128 0x3a
 3274 012e 0B       		.uleb128 0xb
 3275 012f 3B       		.uleb128 0x3b
 3276 0130 0B       		.uleb128 0xb
 3277 0131 27       		.uleb128 0x27
 3278 0132 0C       		.uleb128 0xc
 3279 0133 49       		.uleb128 0x49
 3280 0134 13       		.uleb128 0x13
 3281 0135 11       		.uleb128 0x11
 3282 0136 01       		.uleb128 0x1
 3283 0137 12       		.uleb128 0x12
 3284 0138 01       		.uleb128 0x1
 3285 0139 40       		.uleb128 0x40
 3286 013a 0A       		.uleb128 0xa
 3287 013b 9742     		.uleb128 0x2117
 3288 013d 0C       		.uleb128 0xc
 3289 013e 01       		.uleb128 0x1
 3290 013f 13       		.uleb128 0x13
 3291 0140 00       		.byte	0
 3292 0141 00       		.byte	0
 3293 0142 1A       		.uleb128 0x1a
 3294 0143 05       		.uleb128 0x5
 3295 0144 00       		.byte	0
 3296 0145 03       		.uleb128 0x3
 3297 0146 08       		.uleb128 0x8
 3298 0147 3A       		.uleb128 0x3a
 3299 0148 0B       		.uleb128 0xb
 3300 0149 3B       		.uleb128 0x3b
 3301 014a 0B       		.uleb128 0xb
 3302 014b 49       		.uleb128 0x49
 3303 014c 13       		.uleb128 0x13
 3304 014d 02       		.uleb128 0x2
 3305 014e 06       		.uleb128 0x6
 3306 014f 00       		.byte	0
 3307 0150 00       		.byte	0
 3308 0151 1B       		.uleb128 0x1b
 3309 0152 34       		.uleb128 0x34
 3310 0153 00       		.byte	0
 3311 0154 03       		.uleb128 0x3
ARM GAS  /tmp/cczDKINg.s 			page 60


 3312 0155 0E       		.uleb128 0xe
 3313 0156 3A       		.uleb128 0x3a
 3314 0157 0B       		.uleb128 0xb
 3315 0158 3B       		.uleb128 0x3b
 3316 0159 0B       		.uleb128 0xb
 3317 015a 49       		.uleb128 0x49
 3318 015b 13       		.uleb128 0x13
 3319 015c 1C       		.uleb128 0x1c
 3320 015d 0B       		.uleb128 0xb
 3321 015e 00       		.byte	0
 3322 015f 00       		.byte	0
 3323 0160 1C       		.uleb128 0x1c
 3324 0161 34       		.uleb128 0x34
 3325 0162 00       		.byte	0
 3326 0163 03       		.uleb128 0x3
 3327 0164 08       		.uleb128 0x8
 3328 0165 3A       		.uleb128 0x3a
 3329 0166 0B       		.uleb128 0xb
 3330 0167 3B       		.uleb128 0x3b
 3331 0168 0B       		.uleb128 0xb
 3332 0169 49       		.uleb128 0x49
 3333 016a 13       		.uleb128 0x13
 3334 016b 02       		.uleb128 0x2
 3335 016c 06       		.uleb128 0x6
 3336 016d 00       		.byte	0
 3337 016e 00       		.byte	0
 3338 016f 1D       		.uleb128 0x1d
 3339 0170 2E       		.uleb128 0x2e
 3340 0171 01       		.byte	0x1
 3341 0172 3F       		.uleb128 0x3f
 3342 0173 0C       		.uleb128 0xc
 3343 0174 03       		.uleb128 0x3
 3344 0175 0E       		.uleb128 0xe
 3345 0176 3A       		.uleb128 0x3a
 3346 0177 0B       		.uleb128 0xb
 3347 0178 3B       		.uleb128 0x3b
 3348 0179 0B       		.uleb128 0xb
 3349 017a 27       		.uleb128 0x27
 3350 017b 0C       		.uleb128 0xc
 3351 017c 11       		.uleb128 0x11
 3352 017d 01       		.uleb128 0x1
 3353 017e 12       		.uleb128 0x12
 3354 017f 01       		.uleb128 0x1
 3355 0180 40       		.uleb128 0x40
 3356 0181 0A       		.uleb128 0xa
 3357 0182 9742     		.uleb128 0x2117
 3358 0184 0C       		.uleb128 0xc
 3359 0185 01       		.uleb128 0x1
 3360 0186 13       		.uleb128 0x13
 3361 0187 00       		.byte	0
 3362 0188 00       		.byte	0
 3363 0189 1E       		.uleb128 0x1e
 3364 018a 05       		.uleb128 0x5
 3365 018b 00       		.byte	0
 3366 018c 03       		.uleb128 0x3
 3367 018d 08       		.uleb128 0x8
 3368 018e 3A       		.uleb128 0x3a
ARM GAS  /tmp/cczDKINg.s 			page 61


 3369 018f 0B       		.uleb128 0xb
 3370 0190 3B       		.uleb128 0x3b
 3371 0191 0B       		.uleb128 0xb
 3372 0192 49       		.uleb128 0x49
 3373 0193 13       		.uleb128 0x13
 3374 0194 02       		.uleb128 0x2
 3375 0195 0A       		.uleb128 0xa
 3376 0196 00       		.byte	0
 3377 0197 00       		.byte	0
 3378 0198 1F       		.uleb128 0x1f
 3379 0199 2E       		.uleb128 0x2e
 3380 019a 01       		.byte	0x1
 3381 019b 3F       		.uleb128 0x3f
 3382 019c 0C       		.uleb128 0xc
 3383 019d 03       		.uleb128 0x3
 3384 019e 0E       		.uleb128 0xe
 3385 019f 3A       		.uleb128 0x3a
 3386 01a0 0B       		.uleb128 0xb
 3387 01a1 3B       		.uleb128 0x3b
 3388 01a2 0B       		.uleb128 0xb
 3389 01a3 27       		.uleb128 0x27
 3390 01a4 0C       		.uleb128 0xc
 3391 01a5 11       		.uleb128 0x11
 3392 01a6 01       		.uleb128 0x1
 3393 01a7 12       		.uleb128 0x12
 3394 01a8 01       		.uleb128 0x1
 3395 01a9 40       		.uleb128 0x40
 3396 01aa 06       		.uleb128 0x6
 3397 01ab 9742     		.uleb128 0x2117
 3398 01ad 0C       		.uleb128 0xc
 3399 01ae 01       		.uleb128 0x1
 3400 01af 13       		.uleb128 0x13
 3401 01b0 00       		.byte	0
 3402 01b1 00       		.byte	0
 3403 01b2 20       		.uleb128 0x20
 3404 01b3 2E       		.uleb128 0x2e
 3405 01b4 01       		.byte	0x1
 3406 01b5 3F       		.uleb128 0x3f
 3407 01b6 0C       		.uleb128 0xc
 3408 01b7 03       		.uleb128 0x3
 3409 01b8 0E       		.uleb128 0xe
 3410 01b9 3A       		.uleb128 0x3a
 3411 01ba 0B       		.uleb128 0xb
 3412 01bb 3B       		.uleb128 0x3b
 3413 01bc 0B       		.uleb128 0xb
 3414 01bd 27       		.uleb128 0x27
 3415 01be 0C       		.uleb128 0xc
 3416 01bf 49       		.uleb128 0x49
 3417 01c0 13       		.uleb128 0x13
 3418 01c1 11       		.uleb128 0x11
 3419 01c2 01       		.uleb128 0x1
 3420 01c3 12       		.uleb128 0x12
 3421 01c4 01       		.uleb128 0x1
 3422 01c5 40       		.uleb128 0x40
 3423 01c6 06       		.uleb128 0x6
 3424 01c7 9742     		.uleb128 0x2117
 3425 01c9 0C       		.uleb128 0xc
ARM GAS  /tmp/cczDKINg.s 			page 62


 3426 01ca 01       		.uleb128 0x1
 3427 01cb 13       		.uleb128 0x13
 3428 01cc 00       		.byte	0
 3429 01cd 00       		.byte	0
 3430 01ce 21       		.uleb128 0x21
 3431 01cf 05       		.uleb128 0x5
 3432 01d0 00       		.byte	0
 3433 01d1 03       		.uleb128 0x3
 3434 01d2 0E       		.uleb128 0xe
 3435 01d3 3A       		.uleb128 0x3a
 3436 01d4 0B       		.uleb128 0xb
 3437 01d5 3B       		.uleb128 0x3b
 3438 01d6 0B       		.uleb128 0xb
 3439 01d7 49       		.uleb128 0x49
 3440 01d8 13       		.uleb128 0x13
 3441 01d9 02       		.uleb128 0x2
 3442 01da 06       		.uleb128 0x6
 3443 01db 00       		.byte	0
 3444 01dc 00       		.byte	0
 3445 01dd 22       		.uleb128 0x22
 3446 01de 34       		.uleb128 0x34
 3447 01df 00       		.byte	0
 3448 01e0 03       		.uleb128 0x3
 3449 01e1 0E       		.uleb128 0xe
 3450 01e2 3A       		.uleb128 0x3a
 3451 01e3 0B       		.uleb128 0xb
 3452 01e4 3B       		.uleb128 0x3b
 3453 01e5 0B       		.uleb128 0xb
 3454 01e6 49       		.uleb128 0x49
 3455 01e7 13       		.uleb128 0x13
 3456 01e8 02       		.uleb128 0x2
 3457 01e9 06       		.uleb128 0x6
 3458 01ea 00       		.byte	0
 3459 01eb 00       		.byte	0
 3460 01ec 23       		.uleb128 0x23
 3461 01ed 898201   		.uleb128 0x4109
 3462 01f0 01       		.byte	0x1
 3463 01f1 11       		.uleb128 0x11
 3464 01f2 01       		.uleb128 0x1
 3465 01f3 31       		.uleb128 0x31
 3466 01f4 13       		.uleb128 0x13
 3467 01f5 01       		.uleb128 0x1
 3468 01f6 13       		.uleb128 0x13
 3469 01f7 00       		.byte	0
 3470 01f8 00       		.byte	0
 3471 01f9 24       		.uleb128 0x24
 3472 01fa 8A8201   		.uleb128 0x410a
 3473 01fd 00       		.byte	0
 3474 01fe 02       		.uleb128 0x2
 3475 01ff 0A       		.uleb128 0xa
 3476 0200 9142     		.uleb128 0x2111
 3477 0202 0A       		.uleb128 0xa
 3478 0203 00       		.byte	0
 3479 0204 00       		.byte	0
 3480 0205 25       		.uleb128 0x25
 3481 0206 898201   		.uleb128 0x4109
 3482 0209 01       		.byte	0x1
ARM GAS  /tmp/cczDKINg.s 			page 63


 3483 020a 11       		.uleb128 0x11
 3484 020b 01       		.uleb128 0x1
 3485 020c 31       		.uleb128 0x31
 3486 020d 13       		.uleb128 0x13
 3487 020e 00       		.byte	0
 3488 020f 00       		.byte	0
 3489 0210 26       		.uleb128 0x26
 3490 0211 34       		.uleb128 0x34
 3491 0212 00       		.byte	0
 3492 0213 03       		.uleb128 0x3
 3493 0214 0E       		.uleb128 0xe
 3494 0215 3A       		.uleb128 0x3a
 3495 0216 0B       		.uleb128 0xb
 3496 0217 3B       		.uleb128 0x3b
 3497 0218 0B       		.uleb128 0xb
 3498 0219 49       		.uleb128 0x49
 3499 021a 13       		.uleb128 0x13
 3500 021b 1C       		.uleb128 0x1c
 3501 021c 0A       		.uleb128 0xa
 3502 021d 00       		.byte	0
 3503 021e 00       		.byte	0
 3504 021f 27       		.uleb128 0x27
 3505 0220 34       		.uleb128 0x34
 3506 0221 00       		.byte	0
 3507 0222 03       		.uleb128 0x3
 3508 0223 0E       		.uleb128 0xe
 3509 0224 3A       		.uleb128 0x3a
 3510 0225 0B       		.uleb128 0xb
 3511 0226 3B       		.uleb128 0x3b
 3512 0227 0B       		.uleb128 0xb
 3513 0228 49       		.uleb128 0x49
 3514 0229 13       		.uleb128 0x13
 3515 022a 00       		.byte	0
 3516 022b 00       		.byte	0
 3517 022c 28       		.uleb128 0x28
 3518 022d 34       		.uleb128 0x34
 3519 022e 00       		.byte	0
 3520 022f 03       		.uleb128 0x3
 3521 0230 0E       		.uleb128 0xe
 3522 0231 3A       		.uleb128 0x3a
 3523 0232 0B       		.uleb128 0xb
 3524 0233 3B       		.uleb128 0x3b
 3525 0234 0B       		.uleb128 0xb
 3526 0235 49       		.uleb128 0x49
 3527 0236 13       		.uleb128 0x13
 3528 0237 02       		.uleb128 0x2
 3529 0238 0A       		.uleb128 0xa
 3530 0239 00       		.byte	0
 3531 023a 00       		.byte	0
 3532 023b 29       		.uleb128 0x29
 3533 023c 34       		.uleb128 0x34
 3534 023d 00       		.byte	0
 3535 023e 03       		.uleb128 0x3
 3536 023f 0E       		.uleb128 0xe
 3537 0240 3A       		.uleb128 0x3a
 3538 0241 0B       		.uleb128 0xb
 3539 0242 3B       		.uleb128 0x3b
ARM GAS  /tmp/cczDKINg.s 			page 64


 3540 0243 05       		.uleb128 0x5
 3541 0244 49       		.uleb128 0x49
 3542 0245 13       		.uleb128 0x13
 3543 0246 3F       		.uleb128 0x3f
 3544 0247 0C       		.uleb128 0xc
 3545 0248 3C       		.uleb128 0x3c
 3546 0249 0C       		.uleb128 0xc
 3547 024a 00       		.byte	0
 3548 024b 00       		.byte	0
 3549 024c 2A       		.uleb128 0x2a
 3550 024d 34       		.uleb128 0x34
 3551 024e 00       		.byte	0
 3552 024f 03       		.uleb128 0x3
 3553 0250 0E       		.uleb128 0xe
 3554 0251 3A       		.uleb128 0x3a
 3555 0252 0B       		.uleb128 0xb
 3556 0253 3B       		.uleb128 0x3b
 3557 0254 0B       		.uleb128 0xb
 3558 0255 49       		.uleb128 0x49
 3559 0256 13       		.uleb128 0x13
 3560 0257 3F       		.uleb128 0x3f
 3561 0258 0C       		.uleb128 0xc
 3562 0259 02       		.uleb128 0x2
 3563 025a 0A       		.uleb128 0xa
 3564 025b 00       		.byte	0
 3565 025c 00       		.byte	0
 3566 025d 2B       		.uleb128 0x2b
 3567 025e 2E       		.uleb128 0x2e
 3568 025f 01       		.byte	0x1
 3569 0260 3F       		.uleb128 0x3f
 3570 0261 0C       		.uleb128 0xc
 3571 0262 03       		.uleb128 0x3
 3572 0263 0E       		.uleb128 0xe
 3573 0264 3A       		.uleb128 0x3a
 3574 0265 0B       		.uleb128 0xb
 3575 0266 3B       		.uleb128 0x3b
 3576 0267 0B       		.uleb128 0xb
 3577 0268 27       		.uleb128 0x27
 3578 0269 0C       		.uleb128 0xc
 3579 026a 3C       		.uleb128 0x3c
 3580 026b 0C       		.uleb128 0xc
 3581 026c 01       		.uleb128 0x1
 3582 026d 13       		.uleb128 0x13
 3583 026e 00       		.byte	0
 3584 026f 00       		.byte	0
 3585 0270 2C       		.uleb128 0x2c
 3586 0271 05       		.uleb128 0x5
 3587 0272 00       		.byte	0
 3588 0273 49       		.uleb128 0x49
 3589 0274 13       		.uleb128 0x13
 3590 0275 00       		.byte	0
 3591 0276 00       		.byte	0
 3592 0277 2D       		.uleb128 0x2d
 3593 0278 2E       		.uleb128 0x2e
 3594 0279 01       		.byte	0x1
 3595 027a 3F       		.uleb128 0x3f
 3596 027b 0C       		.uleb128 0xc
ARM GAS  /tmp/cczDKINg.s 			page 65


 3597 027c 03       		.uleb128 0x3
 3598 027d 0E       		.uleb128 0xe
 3599 027e 3A       		.uleb128 0x3a
 3600 027f 0B       		.uleb128 0xb
 3601 0280 3B       		.uleb128 0x3b
 3602 0281 0B       		.uleb128 0xb
 3603 0282 27       		.uleb128 0x27
 3604 0283 0C       		.uleb128 0xc
 3605 0284 49       		.uleb128 0x49
 3606 0285 13       		.uleb128 0x13
 3607 0286 3C       		.uleb128 0x3c
 3608 0287 0C       		.uleb128 0xc
 3609 0288 01       		.uleb128 0x1
 3610 0289 13       		.uleb128 0x13
 3611 028a 00       		.byte	0
 3612 028b 00       		.byte	0
 3613 028c 2E       		.uleb128 0x2e
 3614 028d 2E       		.uleb128 0x2e
 3615 028e 01       		.byte	0x1
 3616 028f 3F       		.uleb128 0x3f
 3617 0290 0C       		.uleb128 0xc
 3618 0291 03       		.uleb128 0x3
 3619 0292 0E       		.uleb128 0xe
 3620 0293 3A       		.uleb128 0x3a
 3621 0294 0B       		.uleb128 0xb
 3622 0295 3B       		.uleb128 0x3b
 3623 0296 0B       		.uleb128 0xb
 3624 0297 27       		.uleb128 0x27
 3625 0298 0C       		.uleb128 0xc
 3626 0299 3C       		.uleb128 0x3c
 3627 029a 0C       		.uleb128 0xc
 3628 029b 00       		.byte	0
 3629 029c 00       		.byte	0
 3630 029d 00       		.byte	0
 3631              		.section	.debug_loc,"",%progbits
 3632              	.Ldebug_loc0:
 3633              	.LLST0:
 3634 0000 00000000 		.4byte	.LVL0
 3635 0004 16000000 		.4byte	.LVL2
 3636 0008 0100     		.2byte	0x1
 3637 000a 50       		.byte	0x50
 3638 000b 16000000 		.4byte	.LVL2
 3639 000f 18000000 		.4byte	.LVL3
 3640 0013 0400     		.2byte	0x4
 3641 0015 F3       		.byte	0xf3
 3642 0016 01       		.uleb128 0x1
 3643 0017 50       		.byte	0x50
 3644 0018 9F       		.byte	0x9f
 3645 0019 18000000 		.4byte	.LVL3
 3646 001d 1E000000 		.4byte	.LVL4
 3647 0021 0100     		.2byte	0x1
 3648 0023 50       		.byte	0x50
 3649 0024 1E000000 		.4byte	.LVL4
 3650 0028 28000000 		.4byte	.LFE118
 3651 002c 0400     		.2byte	0x4
 3652 002e F3       		.byte	0xf3
 3653 002f 01       		.uleb128 0x1
ARM GAS  /tmp/cczDKINg.s 			page 66


 3654 0030 50       		.byte	0x50
 3655 0031 9F       		.byte	0x9f
 3656 0032 00000000 		.4byte	0
 3657 0036 00000000 		.4byte	0
 3658              	.LLST1:
 3659 003a 00000000 		.4byte	.LVL0
 3660 003e 04000000 		.4byte	.LVL1
 3661 0042 0200     		.2byte	0x2
 3662 0044 30       		.byte	0x30
 3663 0045 9F       		.byte	0x9f
 3664 0046 00000000 		.4byte	0
 3665 004a 00000000 		.4byte	0
 3666              	.LLST2:
 3667 004e 00000000 		.4byte	.LFB120
 3668 0052 06000000 		.4byte	.LCFI0
 3669 0056 0200     		.2byte	0x2
 3670 0058 7D       		.byte	0x7d
 3671 0059 00       		.sleb128 0
 3672 005a 06000000 		.4byte	.LCFI0
 3673 005e 40000000 		.4byte	.LFE120
 3674 0062 0200     		.2byte	0x2
 3675 0064 7D       		.byte	0x7d
 3676 0065 08       		.sleb128 8
 3677 0066 00000000 		.4byte	0
 3678 006a 00000000 		.4byte	0
 3679              	.LLST3:
 3680 006e 00000000 		.4byte	.LVL6
 3681 0072 0A000000 		.4byte	.LVL7
 3682 0076 0100     		.2byte	0x1
 3683 0078 50       		.byte	0x50
 3684 0079 0A000000 		.4byte	.LVL7
 3685 007d 40000000 		.4byte	.LFE120
 3686 0081 0500     		.2byte	0x5
 3687 0083 03       		.byte	0x3
 3688 0084 04000000 		.4byte	mpl3115a2_driver+4
 3689 0088 00000000 		.4byte	0
 3690 008c 00000000 		.4byte	0
 3691              	.LLST4:
 3692 0090 00000000 		.4byte	.LVL6
 3693 0094 0E000000 		.4byte	.LVL8
 3694 0098 0200     		.2byte	0x2
 3695 009a 30       		.byte	0x30
 3696 009b 9F       		.byte	0x9f
 3697 009c 00000000 		.4byte	0
 3698 00a0 00000000 		.4byte	0
 3699              	.LLST5:
 3700 00a4 00000000 		.4byte	.LFB121
 3701 00a8 04000000 		.4byte	.LCFI1
 3702 00ac 0200     		.2byte	0x2
 3703 00ae 7D       		.byte	0x7d
 3704 00af 00       		.sleb128 0
 3705 00b0 04000000 		.4byte	.LCFI1
 3706 00b4 0E000000 		.4byte	.LCFI2
 3707 00b8 0200     		.2byte	0x2
 3708 00ba 7D       		.byte	0x7d
 3709 00bb 20       		.sleb128 32
 3710 00bc 0E000000 		.4byte	.LCFI2
ARM GAS  /tmp/cczDKINg.s 			page 67


 3711 00c0 EE000000 		.4byte	.LFE121
 3712 00c4 0200     		.2byte	0x2
 3713 00c6 7D       		.byte	0x7d
 3714 00c7 30       		.sleb128 48
 3715 00c8 00000000 		.4byte	0
 3716 00cc 00000000 		.4byte	0
 3717              	.LLST6:
 3718 00d0 00000000 		.4byte	.LVL9
 3719 00d4 29000000 		.4byte	.LVL10-1
 3720 00d8 0100     		.2byte	0x1
 3721 00da 50       		.byte	0x50
 3722 00db 29000000 		.4byte	.LVL10-1
 3723 00df EE000000 		.4byte	.LFE121
 3724 00e3 0100     		.2byte	0x1
 3725 00e5 54       		.byte	0x54
 3726 00e6 00000000 		.4byte	0
 3727 00ea 00000000 		.4byte	0
 3728              	.LLST7:
 3729 00ee 00000000 		.4byte	.LVL9
 3730 00f2 3E000000 		.4byte	.LVL11
 3731 00f6 0200     		.2byte	0x2
 3732 00f8 30       		.byte	0x30
 3733 00f9 9F       		.byte	0x9f
 3734 00fa E0000000 		.4byte	.LVL24
 3735 00fe E2000000 		.4byte	.LVL25
 3736 0102 0100     		.2byte	0x1
 3737 0104 50       		.byte	0x50
 3738 0105 E2000000 		.4byte	.LVL25
 3739 0109 EE000000 		.4byte	.LFE121
 3740 010d 0100     		.2byte	0x1
 3741 010f 55       		.byte	0x55
 3742 0110 00000000 		.4byte	0
 3743 0114 00000000 		.4byte	0
 3744              	.LLST8:
 3745 0118 00000000 		.4byte	.LFB122
 3746 011c 02000000 		.4byte	.LCFI3
 3747 0120 0200     		.2byte	0x2
 3748 0122 7D       		.byte	0x7d
 3749 0123 00       		.sleb128 0
 3750 0124 02000000 		.4byte	.LCFI3
 3751 0128 10000000 		.4byte	.LCFI4
 3752 012c 0200     		.2byte	0x2
 3753 012e 7D       		.byte	0x7d
 3754 012f 14       		.sleb128 20
 3755 0130 10000000 		.4byte	.LCFI4
 3756 0134 40000000 		.4byte	.LFE122
 3757 0138 0200     		.2byte	0x2
 3758 013a 7D       		.byte	0x7d
 3759 013b 28       		.sleb128 40
 3760 013c 00000000 		.4byte	0
 3761 0140 00000000 		.4byte	0
 3762              	.LLST9:
 3763 0144 00000000 		.4byte	.LVL27
 3764 0148 1B000000 		.4byte	.LVL28-1
 3765 014c 0100     		.2byte	0x1
 3766 014e 50       		.byte	0x50
 3767 014f 1B000000 		.4byte	.LVL28-1
ARM GAS  /tmp/cczDKINg.s 			page 68


 3768 0153 40000000 		.4byte	.LFE122
 3769 0157 0100     		.2byte	0x1
 3770 0159 57       		.byte	0x57
 3771 015a 00000000 		.4byte	0
 3772 015e 00000000 		.4byte	0
 3773              	.LLST10:
 3774 0162 00000000 		.4byte	.LVL27
 3775 0166 32000000 		.4byte	.LVL29
 3776 016a 0200     		.2byte	0x2
 3777 016c 30       		.byte	0x30
 3778 016d 9F       		.byte	0x9f
 3779 016e 00000000 		.4byte	0
 3780 0172 00000000 		.4byte	0
 3781              	.LLST11:
 3782 0176 00000000 		.4byte	.LFB123
 3783 017a 02000000 		.4byte	.LCFI5
 3784 017e 0200     		.2byte	0x2
 3785 0180 7D       		.byte	0x7d
 3786 0181 00       		.sleb128 0
 3787 0182 02000000 		.4byte	.LCFI5
 3788 0186 0E000000 		.4byte	.LCFI6
 3789 018a 0200     		.2byte	0x2
 3790 018c 7D       		.byte	0x7d
 3791 018d 0C       		.sleb128 12
 3792 018e 0E000000 		.4byte	.LCFI6
 3793 0192 4C000000 		.4byte	.LFE123
 3794 0196 0200     		.2byte	0x2
 3795 0198 7D       		.byte	0x7d
 3796 0199 20       		.sleb128 32
 3797 019a 00000000 		.4byte	0
 3798 019e 00000000 		.4byte	0
 3799              	.LLST12:
 3800 01a2 00000000 		.4byte	.LVL31
 3801 01a6 19000000 		.4byte	.LVL32-1
 3802 01aa 0100     		.2byte	0x1
 3803 01ac 50       		.byte	0x50
 3804 01ad 19000000 		.4byte	.LVL32-1
 3805 01b1 4C000000 		.4byte	.LFE123
 3806 01b5 0100     		.2byte	0x1
 3807 01b7 55       		.byte	0x55
 3808 01b8 00000000 		.4byte	0
 3809 01bc 00000000 		.4byte	0
 3810              	.LLST13:
 3811 01c0 00000000 		.4byte	.LVL31
 3812 01c4 38000000 		.4byte	.LVL33
 3813 01c8 0200     		.2byte	0x2
 3814 01ca 30       		.byte	0x30
 3815 01cb 9F       		.byte	0x9f
 3816 01cc 00000000 		.4byte	0
 3817 01d0 00000000 		.4byte	0
 3818              		.section	.debug_aranges,"",%progbits
 3819 0000 44000000 		.4byte	0x44
 3820 0004 0200     		.2byte	0x2
 3821 0006 00000000 		.4byte	.Ldebug_info0
 3822 000a 04       		.byte	0x4
 3823 000b 00       		.byte	0
 3824 000c 0000     		.2byte	0
ARM GAS  /tmp/cczDKINg.s 			page 69


 3825 000e 0000     		.2byte	0
 3826 0010 00000000 		.4byte	.LFB118
 3827 0014 28000000 		.4byte	.LFE118-.LFB118
 3828 0018 00000000 		.4byte	.LFB119
 3829 001c 02000000 		.4byte	.LFE119-.LFB119
 3830 0020 00000000 		.4byte	.LFB120
 3831 0024 40000000 		.4byte	.LFE120-.LFB120
 3832 0028 00000000 		.4byte	.LFB121
 3833 002c EE000000 		.4byte	.LFE121-.LFB121
 3834 0030 00000000 		.4byte	.LFB122
 3835 0034 40000000 		.4byte	.LFE122-.LFB122
 3836 0038 00000000 		.4byte	.LFB123
 3837 003c 4C000000 		.4byte	.LFE123-.LFB123
 3838 0040 00000000 		.4byte	0
 3839 0044 00000000 		.4byte	0
 3840              		.section	.debug_ranges,"",%progbits
 3841              	.Ldebug_ranges0:
 3842 0000 00000000 		.4byte	.LFB118
 3843 0004 28000000 		.4byte	.LFE118
 3844 0008 00000000 		.4byte	.LFB119
 3845 000c 02000000 		.4byte	.LFE119
 3846 0010 00000000 		.4byte	.LFB120
 3847 0014 40000000 		.4byte	.LFE120
 3848 0018 00000000 		.4byte	.LFB121
 3849 001c EE000000 		.4byte	.LFE121
 3850 0020 00000000 		.4byte	.LFB122
 3851 0024 40000000 		.4byte	.LFE122
 3852 0028 00000000 		.4byte	.LFB123
 3853 002c 4C000000 		.4byte	.LFE123
 3854 0030 00000000 		.4byte	0
 3855 0034 00000000 		.4byte	0
 3856              		.section	.debug_line,"",%progbits
 3857              	.Ldebug_line0:
 3858 0000 C8030000 		.section	.debug_str,"MS",%progbits,1
 3858      0200CF02 
 3858      00000201 
 3858      FB0E0D00 
 3858      01010101 
 3859              	.LASF71:
 3860 0000 4D314152 		.ascii	"M1AR\000"
 3860      00
 3861              	.LASF127:
 3862 0005 6572726F 		.ascii	"error_number\000"
 3862      725F6E75 
 3862      6D626572 
 3862      00
 3863              	.LASF2:
 3864 0012 73697A65 		.ascii	"size_t\000"
 3864      5F7400
 3865              	.LASF52:
 3866 0019 73697A65 		.ascii	"sizetype\000"
 3866      74797065 
 3866      00
 3867              	.LASF24:
 3868 0022 73797374 		.ascii	"systime_t\000"
 3868      696D655F 
 3868      7400
ARM GAS  /tmp/cczDKINg.s 			page 70


 3869              	.LASF29:
 3870 002c 705F6374 		.ascii	"p_ctx\000"
 3870      7800
 3871              	.LASF19:
 3872 0032 74707269 		.ascii	"tprio_t\000"
 3872      6F5F7400 
 3873              	.LASF228:
 3874 003a 6C5F7465 		.ascii	"l_temp\000"
 3874      6D7000
 3875              	.LASF40:
 3876 0041 705F6D73 		.ascii	"p_msgqueue\000"
 3876      67717565 
 3876      756500
 3877              	.LASF8:
 3878 004c 696E7433 		.ascii	"int32_t\000"
 3878      325F7400 
 3879              	.LASF220:
 3880 0054 616C7469 		.ascii	"altitude\000"
 3880      74756465 
 3880      00
 3881              	.LASF106:
 3882 005d 46415354 		.ascii	"FAST_DUTY_CYCLE_2\000"
 3882      5F445554 
 3882      595F4359 
 3882      434C455F 
 3882      3200
 3883              	.LASF176:
 3884 006f 505F4D49 		.ascii	"P_MIN_CSB\000"
 3884      4E5F4353 
 3884      4200
 3885              	.LASF170:
 3886 0079 505F5447 		.ascii	"P_TGT_LSB\000"
 3886      545F4C53 
 3886      4200
 3887              	.LASF129:
 3888 0083 4D41474E 		.ascii	"MAGN_INFORMATION\000"
 3888      5F494E46 
 3888      4F524D41 
 3888      54494F4E 
 3888      00
 3889              	.LASF202:
 3890 0094 6D61676E 		.ascii	"magn_reg\000"
 3890      5F726567 
 3890      00
 3891              	.LASF206:
 3892 009d 6D706C33 		.ascii	"mpl3115a2_driver\000"
 3892      31313561 
 3892      325F6472 
 3892      69766572 
 3892      00
 3893              	.LASF175:
 3894 00ae 505F4D49 		.ascii	"P_MIN_MSB\000"
 3894      4E5F4D53 
 3894      4200
 3895              	.LASF198:
 3896 00b8 6D706C33 		.ascii	"mpl3115a2_magn_burst_data\000"
 3896      31313561 
ARM GAS  /tmp/cczDKINg.s 			page 71


 3896      325F6D61 
 3896      676E5F62 
 3896      75727374 
 3897              	.LASF61:
 3898 00d2 656C5F66 		.ascii	"el_flags\000"
 3898      6C616773 
 3898      00
 3899              	.LASF185:
 3900 00db 4354524C 		.ascii	"CTRL_REG1\000"
 3900      5F524547 
 3900      3100
 3901              	.LASF186:
 3902 00e5 4354524C 		.ascii	"CTRL_REG2\000"
 3902      5F524547 
 3902      3200
 3903              	.LASF187:
 3904 00ef 4354524C 		.ascii	"CTRL_REG3\000"
 3904      5F524547 
 3904      3300
 3905              	.LASF115:
 3906 00f9 636F6E66 		.ascii	"config\000"
 3906      696700
 3907              	.LASF114:
 3908 0100 73746174 		.ascii	"state\000"
 3908      6500
 3909              	.LASF238:
 3910 0106 474E5520 		.ascii	"GNU C 4.7.2\000"
 3910      4320342E 
 3910      372E3200 
 3911              	.LASF199:
 3912 0112 63757272 		.ascii	"current_rx_numbytes\000"
 3912      656E745F 
 3912      72785F6E 
 3912      756D6279 
 3912      74657300 
 3913              	.LASF124:
 3914 0126 6D706C33 		.ascii	"mpl3115a2_reg_data\000"
 3914      31313561 
 3914      325F7265 
 3914      675F6461 
 3914      746100
 3915              	.LASF155:
 3916 0139 4F55545F 		.ascii	"OUT_P_DELTA_CSB\000"
 3916      505F4445 
 3916      4C54415F 
 3916      43534200 
 3917              	.LASF201:
 3918 0149 615F675F 		.ascii	"a_g_reg\000"
 3918      72656700 
 3919              	.LASF55:
 3920 0151 6D5F6F77 		.ascii	"m_owner\000"
 3920      6E657200 
 3921              	.LASF65:
 3922 0159 65786974 		.ascii	"exitcode\000"
 3922      636F6465 
 3922      00
 3923              	.LASF99:
ARM GAS  /tmp/cczDKINg.s 			page 72


 3924 0162 69326361 		.ascii	"i2caddr_t\000"
 3924      6464725F 
 3924      7400
 3925              	.LASF67:
 3926 016c 65776D61 		.ascii	"ewmask\000"
 3926      736B00
 3927              	.LASF150:
 3928 0173 4F55545F 		.ascii	"OUT_P_LSB\000"
 3928      505F4C53 
 3928      4200
 3929              	.LASF108:
 3930 017d 69326364 		.ascii	"i2cdutycycle_t\000"
 3930      75747963 
 3930      79636C65 
 3930      5F7400
 3931              	.LASF142:
 3932 018c 4D41474E 		.ascii	"MAGN_I2C_DIS\000"
 3932      5F493243 
 3932      5F444953 
 3932      00
 3933              	.LASF167:
 3934 0199 4241525F 		.ascii	"BAR_IN_MSB\000"
 3934      494E5F4D 
 3934      534200
 3935              	.LASF223:
 3936 01a4 6C5F616C 		.ascii	"l_altitude\000"
 3936      74697475 
 3936      646500
 3937              	.LASF30:
 3938 01af 705F6E65 		.ascii	"p_newer\000"
 3938      77657200 
 3939              	.LASF9:
 3940 01b7 6C6F6E67 		.ascii	"long int\000"
 3940      20696E74 
 3940      00
 3941              	.LASF26:
 3942 01c0 705F6E65 		.ascii	"p_next\000"
 3942      787400
 3943              	.LASF224:
 3944 01c7 666C6F61 		.ascii	"float\000"
 3944      7400
 3945              	.LASF27:
 3946 01cd 705F7072 		.ascii	"p_prev\000"
 3946      657600
 3947              	.LASF172:
 3948 01d4 505F574E 		.ascii	"P_WND_MSB\000"
 3948      445F4D53 
 3948      4200
 3949              	.LASF16:
 3950 01de 74737461 		.ascii	"tstate_t\000"
 3950      74655F74 
 3950      00
 3951              	.LASF158:
 3952 01e7 4F55545F 		.ascii	"OUT_T_DELTA_LSB\000"
 3952      545F4445 
 3952      4C54415F 
 3952      4C534200 
ARM GAS  /tmp/cczDKINg.s 			page 73


 3953              	.LASF43:
 3954 01f7 705F6D74 		.ascii	"p_mtxlist\000"
 3954      786C6973 
 3954      7400
 3955              	.LASF209:
 3956 0201 74786275 		.ascii	"txbuf\000"
 3956      6600
 3957              	.LASF48:
 3958 0207 72656761 		.ascii	"regarm_t\000"
 3958      726D5F74 
 3958      00
 3959              	.LASF219:
 3960 0210 6D706C33 		.ascii	"mpl3115a2_get_altitude\000"
 3960      31313561 
 3960      325F6765 
 3960      745F616C 
 3960      74697475 
 3961              	.LASF239:
 3962 0227 2E2E2F2E 		.ascii	"../../devices/MPL3115A2.c\000"
 3962      2E2F6465 
 3962      76696365 
 3962      732F4D50 
 3962      4C333131 
 3963              	.LASF1:
 3964 0241 7369676E 		.ascii	"signed char\000"
 3964      65642063 
 3964      68617200 
 3965              	.LASF37:
 3966 024d 705F7072 		.ascii	"p_preempt\000"
 3966      65656D70 
 3966      7400
 3967              	.LASF3:
 3968 0257 75696E74 		.ascii	"uint8_t\000"
 3968      385F7400 
 3969              	.LASF22:
 3970 025f 6576656E 		.ascii	"eventmask_t\000"
 3970      746D6173 
 3970      6B5F7400 
 3971              	.LASF51:
 3972 026b 636F6E74 		.ascii	"context\000"
 3972      65787400 
 3973              	.LASF205:
 3974 0273 6D706C33 		.ascii	"mpl3115a2_cache\000"
 3974      31313561 
 3974      325F6361 
 3974      63686500 
 3975              	.LASF240:
 3976 0283 2F686F6D 		.ascii	"/home/david/Projects/stm32/src/pressure_sensor\000"
 3976      652F6461 
 3976      7669642F 
 3976      50726F6A 
 3976      65637473 
 3977              	.LASF73:
 3978 02b2 52455345 		.ascii	"RESERVED0\000"
 3978      52564544 
 3978      3000
 3979              	.LASF74:
ARM GAS  /tmp/cczDKINg.s 			page 74


 3980 02bc 52455345 		.ascii	"RESERVED1\000"
 3980      52564544 
 3980      3100
 3981              	.LASF4:
 3982 02c6 756E7369 		.ascii	"unsigned char\000"
 3982      676E6564 
 3982      20636861 
 3982      7200
 3983              	.LASF78:
 3984 02d4 52455345 		.ascii	"RESERVED3\000"
 3984      52564544 
 3984      3300
 3985              	.LASF79:
 3986 02de 52455345 		.ascii	"RESERVED4\000"
 3986      52564544 
 3986      3400
 3987              	.LASF80:
 3988 02e8 52455345 		.ascii	"RESERVED5\000"
 3988      52564544 
 3988      3500
 3989              	.LASF81:
 3990 02f2 52455345 		.ascii	"RESERVED6\000"
 3990      52564544 
 3990      3600
 3991              	.LASF82:
 3992 02fc 52455345 		.ascii	"RESERVED7\000"
 3992      52564544 
 3992      3700
 3993              	.LASF84:
 3994 0306 52455345 		.ascii	"RESERVED8\000"
 3994      52564544 
 3994      3800
 3995              	.LASF242:
 3996 0310 6932634D 		.ascii	"i2cMasterTransmitTimeout\000"
 3996      61737465 
 3996      72547261 
 3996      6E736D69 
 3996      7454696D 
 3997              	.LASF212:
 3998 0329 636F756E 		.ascii	"count_errors\000"
 3998      745F6572 
 3998      726F7273 
 3998      00
 3999              	.LASF96:
 4000 0336 4932435F 		.ascii	"I2C_ACTIVE_RX\000"
 4000      41435449 
 4000      56455F52 
 4000      5800
 4001              	.LASF213:
 4002 0344 6D706C33 		.ascii	"mpl3115a2_int_event_handler\000"
 4002      31313561 
 4002      325F696E 
 4002      745F6576 
 4002      656E745F 
 4003              	.LASF241:
 4004 0360 69326341 		.ascii	"i2cAcquireBus\000"
 4004      63717569 
ARM GAS  /tmp/cczDKINg.s 			page 75


 4004      72654275 
 4004      7300
 4005              	.LASF76:
 4006 036e 52455345 		.ascii	"RESERVED2\000"
 4006      52564544 
 4006      3200
 4007              	.LASF166:
 4008 0378 50545F44 		.ascii	"PT_DATA_CFG\000"
 4008      4154415F 
 4008      43464700 
 4009              	.LASF101:
 4010 0384 4F504D4F 		.ascii	"OPMODE_I2C\000"
 4010      44455F49 
 4010      324300
 4011              	.LASF68:
 4012 038f 63686172 		.ascii	"char\000"
 4012      00
 4013              	.LASF132:
 4014 0394 4D41474E 		.ascii	"MAGN_HXH\000"
 4014      5F485848 
 4014      00
 4015              	.LASF214:
 4016 039d 6D706C33 		.ascii	"mpl3115a2_start\000"
 4016      31313561 
 4016      325F7374 
 4016      61727400 
 4017              	.LASF131:
 4018 03ad 4D41474E 		.ascii	"MAGN_HXL\000"
 4018      5F48584C 
 4018      00
 4019              	.LASF88:
 4020 03b6 69736869 		.ascii	"ishift\000"
 4020      667400
 4021              	.LASF28:
 4022 03bd 705F7072 		.ascii	"p_prio\000"
 4022      696F00
 4023              	.LASF144:
 4024 03c4 4D41474E 		.ascii	"MAGN_ASAY\000"
 4024      5F415341 
 4024      5900
 4025              	.LASF145:
 4026 03ce 4D41474E 		.ascii	"MAGN_ASAZ\000"
 4026      5F415341 
 4026      5A00
 4027              	.LASF66:
 4028 03d8 77746F62 		.ascii	"wtobjp\000"
 4028      6A7000
 4029              	.LASF235:
 4030 03df 6D706C33 		.ascii	"mpl3115a2_i2c_timeout\000"
 4030      31313561 
 4030      325F6932 
 4030      635F7469 
 4030      6D656F75 
 4031              	.LASF229:
 4032 03f5 6932635F 		.ascii	"i2c_debug_errors\000"
 4032      64656275 
 4032      675F6572 
ARM GAS  /tmp/cczDKINg.s 			page 76


 4032      726F7273 
 4032      00
 4033              	.LASF116:
 4034 0406 6572726F 		.ascii	"errors\000"
 4034      727300
 4035              	.LASF134:
 4036 040d 4D41474E 		.ascii	"MAGN_HYH\000"
 4036      5F485948 
 4036      00
 4037              	.LASF133:
 4038 0416 4D41474E 		.ascii	"MAGN_HYL\000"
 4038      5F48594C 
 4038      00
 4039              	.LASF49:
 4040 041f 73746B61 		.ascii	"stkalign_t\000"
 4040      6C69676E 
 4040      5F7400
 4041              	.LASF149:
 4042 042a 4F55545F 		.ascii	"OUT_P_CSB\000"
 4042      505F4353 
 4042      4200
 4043              	.LASF95:
 4044 0434 4932435F 		.ascii	"I2C_ACTIVE_TX\000"
 4044      41435449 
 4044      56455F54 
 4044      5800
 4045              	.LASF233:
 4046 0442 6D706C33 		.ascii	"mpl3115a2_burst_a_g_data\000"
 4046      31313561 
 4046      325F6275 
 4046      7273745F 
 4046      615F675F 
 4047              	.LASF86:
 4048 045b 73747265 		.ascii	"stream\000"
 4048      616D00
 4049              	.LASF148:
 4050 0462 4F55545F 		.ascii	"OUT_P_MSB\000"
 4050      505F4D53 
 4050      4200
 4051              	.LASF136:
 4052 046c 4D41474E 		.ascii	"MAGN_HZH\000"
 4052      5F485A48 
 4052      00
 4053              	.LASF135:
 4054 0475 4D41474E 		.ascii	"MAGN_HZL\000"
 4054      5F485A4C 
 4054      00
 4055              	.LASF211:
 4056 047e 4D504C33 		.ascii	"MPL3115A2_Driver\000"
 4056      31313541 
 4056      325F4472 
 4056      69766572 
 4056      00
 4057              	.LASF207:
 4058 048f 6932635F 		.ascii	"i2c_errors\000"
 4058      6572726F 
 4058      727300
ARM GAS  /tmp/cczDKINg.s 			page 77


 4059              	.LASF50:
 4060 049a 696E7463 		.ascii	"intctx\000"
 4060      747800
 4061              	.LASF195:
 4062 04a1 6D70755F 		.ascii	"mpu_who_ami\000"
 4062      77686F5F 
 4062      616D6900 
 4063              	.LASF42:
 4064 04ad 705F6570 		.ascii	"p_epending\000"
 4064      656E6469 
 4064      6E6700
 4065              	.LASF157:
 4066 04b8 4F55545F 		.ascii	"OUT_T_DELTA_MSB\000"
 4066      545F4445 
 4066      4C54415F 
 4066      4D534200 
 4067              	.LASF97:
 4068 04c8 4932435F 		.ascii	"I2C_LOCKED\000"
 4068      4C4F434B 
 4068      454400
 4069              	.LASF111:
 4070 04d3 64757479 		.ascii	"duty_cycle\000"
 4070      5F637963 
 4070      6C6500
 4071              	.LASF200:
 4072 04de 63757272 		.ascii	"current_tx_numbytes\000"
 4072      656E745F 
 4072      74785F6E 
 4072      756D6279 
 4072      74657300 
 4073              	.LASF113:
 4074 04f2 49324344 		.ascii	"I2CDriver\000"
 4074      72697665 
 4074      7200
 4075              	.LASF63:
 4076 04fc 65735F6E 		.ascii	"es_next\000"
 4076      65787400 
 4077              	.LASF161:
 4078 0504 465F4441 		.ascii	"F_DATA\000"
 4078      544100
 4079              	.LASF62:
 4080 050b 4576656E 		.ascii	"EventSource\000"
 4080      74536F75 
 4080      72636500 
 4081              	.LASF11:
 4082 0517 6C6F6E67 		.ascii	"long unsigned int\000"
 4082      20756E73 
 4082      69676E65 
 4082      6420696E 
 4082      7400
 4083              	.LASF218:
 4084 0529 73746174 		.ascii	"status\000"
 4084      757300
 4085              	.LASF165:
 4086 0530 494E545F 		.ascii	"INT_SOURCE\000"
 4086      534F5552 
 4086      434500
ARM GAS  /tmp/cczDKINg.s 			page 78


 4087              	.LASF58:
 4088 053b 656C5F6E 		.ascii	"el_next\000"
 4088      65787400 
 4089              	.LASF237:
 4090 0543 6D706C33 		.ascii	"mpl3115a2_i2c_magn_addr\000"
 4090      31313561 
 4090      325F6932 
 4090      635F6D61 
 4090      676E5F61 
 4091              	.LASF83:
 4092 055b 54524953 		.ascii	"TRISE\000"
 4092      4500
 4093              	.LASF234:
 4094 0561 6D706C33 		.ascii	"mpl3115a2_burst_magn_data\000"
 4094      31313561 
 4094      325F6275 
 4094      7273745F 
 4094      6D61676E 
 4095              	.LASF91:
 4096 057b 73746D33 		.ascii	"stm32_dma_stream_t\000"
 4096      325F646D 
 4096      615F7374 
 4096      7265616D 
 4096      5F7400
 4097              	.LASF236:
 4098 058e 6D706C33 		.ascii	"mpl3115a2_i2c_slave_addr\000"
 4098      31313561 
 4098      325F6932 
 4098      635F736C 
 4098      6176655F 
 4099              	.LASF164:
 4100 05a7 5359534D 		.ascii	"SYSMOD\000"
 4100      4F4400
 4101              	.LASF210:
 4102 05ae 72786275 		.ascii	"rxbuf\000"
 4102      6600
 4103              	.LASF121:
 4104 05b4 646D6172 		.ascii	"dmarx\000"
 4104      7800
 4105              	.LASF53:
 4106 05ba 4D757465 		.ascii	"Mutex\000"
 4106      7800
 4107              	.LASF12:
 4108 05c0 6C6F6E67 		.ascii	"long long int\000"
 4108      206C6F6E 
 4108      6720696E 
 4108      7400
 4109              	.LASF92:
 4110 05ce 4932435F 		.ascii	"I2C_UNINIT\000"
 4110      554E494E 
 4110      495400
 4111              	.LASF162:
 4112 05d9 465F5345 		.ascii	"F_SETUP\000"
 4112      54555000 
 4113              	.LASF54:
 4114 05e1 6D5F7175 		.ascii	"m_queue\000"
 4114      65756500 
ARM GAS  /tmp/cczDKINg.s 			page 79


 4115              	.LASF188:
 4116 05e9 4354524C 		.ascii	"CTRL_REG4\000"
 4116      5F524547 
 4116      3400
 4117              	.LASF152:
 4118 05f3 4F55545F 		.ascii	"OUT_T_LSB\000"
 4118      545F4C53 
 4118      4200
 4119              	.LASF140:
 4120 05fd 4D41474E 		.ascii	"MAGN_TS1\000"
 4120      5F545331 
 4120      00
 4121              	.LASF141:
 4122 0606 4D41474E 		.ascii	"MAGN_TS2\000"
 4122      5F545332 
 4122      00
 4123              	.LASF203:
 4124 060f 74785F63 		.ascii	"tx_cache\000"
 4124      61636865 
 4124      00
 4125              	.LASF154:
 4126 0618 4F55545F 		.ascii	"OUT_P_DELTA_MSB\000"
 4126      505F4445 
 4126      4C54415F 
 4126      4D534200 
 4127              	.LASF98:
 4128 0628 69326373 		.ascii	"i2cstate_t\000"
 4128      74617465 
 4128      5F7400
 4129              	.LASF117:
 4130 0633 6D757465 		.ascii	"mutex\000"
 4130      7800
 4131              	.LASF230:
 4132 0639 49544D5F 		.ascii	"ITM_RxBuffer\000"
 4132      52784275 
 4132      66666572 
 4132      00
 4133              	.LASF120:
 4134 0646 646D616D 		.ascii	"dmamode\000"
 4134      6F646500 
 4135              	.LASF39:
 4136 064e 705F7761 		.ascii	"p_waiting\000"
 4136      6974696E 
 4136      6700
 4137              	.LASF119:
 4138 0658 61646472 		.ascii	"addr\000"
 4138      00
 4139              	.LASF122:
 4140 065d 646D6174 		.ascii	"dmatx\000"
 4140      7800
 4141              	.LASF35:
 4142 0663 705F666C 		.ascii	"p_flags\000"
 4142      61677300 
 4143              	.LASF89:
 4144 066b 73656C66 		.ascii	"selfindex\000"
 4144      696E6465 
 4144      7800
ARM GAS  /tmp/cczDKINg.s 			page 80


 4145              	.LASF0:
 4146 0675 756E7369 		.ascii	"unsigned int\000"
 4146      676E6564 
 4146      20696E74 
 4146      00
 4147              	.LASF153:
 4148 0682 44525F53 		.ascii	"DR_STATUS\000"
 4148      54415455 
 4148      5300
 4149              	.LASF45:
 4150 068c 705F6D70 		.ascii	"p_mpool\000"
 4150      6F6F6C00 
 4151              	.LASF36:
 4152 0694 705F7265 		.ascii	"p_refs\000"
 4152      667300
 4153              	.LASF47:
 4154 069b 54687265 		.ascii	"ThreadsList\000"
 4154      6164734C 
 4154      69737400 
 4155              	.LASF169:
 4156 06a7 505F5447 		.ascii	"P_TGT_MSB\000"
 4156      545F4D53 
 4156      4200
 4157              	.LASF94:
 4158 06b1 4932435F 		.ascii	"I2C_READY\000"
 4158      52454144 
 4158      5900
 4159              	.LASF23:
 4160 06bb 666C6167 		.ascii	"flagsmask_t\000"
 4160      736D6173 
 4160      6B5F7400 
 4161              	.LASF72:
 4162 06c7 444D415F 		.ascii	"DMA_Stream_TypeDef\000"
 4162      53747265 
 4162      616D5F54 
 4162      79706544 
 4162      656600
 4163              	.LASF38:
 4164 06da 705F7469 		.ascii	"p_time\000"
 4164      6D6500
 4165              	.LASF231:
 4166 06e1 6D706C33 		.ascii	"mpl3115a2_cache_data\000"
 4166      31313561 
 4166      325F6361 
 4166      6368655F 
 4166      64617461 
 4167              	.LASF184:
 4168 06f6 545F4D41 		.ascii	"T_MAX_LSB\000"
 4168      585F4C53 
 4168      4200
 4169              	.LASF243:
 4170 0700 69326352 		.ascii	"i2cReleaseBus\000"
 4170      656C6561 
 4170      73654275 
 4170      7300
 4171              	.LASF173:
 4172 070e 505F574E 		.ascii	"P_WND_LSB\000"
ARM GAS  /tmp/cczDKINg.s 			page 81


 4172      445F4C53 
 4172      4200
 4173              	.LASF227:
 4174 0718 6D5F7465 		.ascii	"m_temp\000"
 4174      6D7000
 4175              	.LASF107:
 4176 071f 46415354 		.ascii	"FAST_DUTY_CYCLE_16_9\000"
 4176      5F445554 
 4176      595F4359 
 4176      434C455F 
 4176      31365F39 
 4177              	.LASF159:
 4178 0734 57484F5F 		.ascii	"WHO_AM_I\000"
 4178      414D5F49 
 4178      00
 4179              	.LASF44:
 4180 073d 705F7265 		.ascii	"p_realprio\000"
 4180      616C7072 
 4180      696F00
 4181              	.LASF123:
 4182 0748 6D706C33 		.ascii	"mpl3115a2_i2c_data\000"
 4182      31313561 
 4182      325F6932 
 4182      635F6461 
 4182      746100
 4183              	.LASF112:
 4184 075b 49324343 		.ascii	"I2CConfig\000"
 4184      6F6E6669 
 4184      6700
 4185              	.LASF174:
 4186 0765 545F574E 		.ascii	"T_WND\000"
 4186      4400
 4187              	.LASF146:
 4188 076b 6D706C33 		.ascii	"mpl3115a2_magn_regaddr\000"
 4188      31313561 
 4188      325F6D61 
 4188      676E5F72 
 4188      65676164 
 4189              	.LASF126:
 4190 0782 6572725F 		.ascii	"err_string\000"
 4190      73747269 
 4190      6E6700
 4191              	.LASF125:
 4192 078d 6932635F 		.ascii	"i2c_error_info\000"
 4192      6572726F 
 4192      725F696E 
 4192      666F00
 4193              	.LASF225:
 4194 079c 6D706C33 		.ascii	"mpl3115a2_get_temperature\000"
 4194      31313561 
 4194      325F6765 
 4194      745F7465 
 4194      6D706572 
 4195              	.LASF14:
 4196 07b6 6C6F6E67 		.ascii	"long long unsigned int\000"
 4196      206C6F6E 
 4196      6720756E 
ARM GAS  /tmp/cczDKINg.s 			page 82


 4196      7369676E 
 4196      65642069 
 4197              	.LASF217:
 4198 07cd 69326370 		.ascii	"i2cptr\000"
 4198      747200
 4199              	.LASF31:
 4200 07d4 705F6F6C 		.ascii	"p_older\000"
 4200      64657200 
 4201              	.LASF104:
 4202 07dc 6932636F 		.ascii	"i2copmode_t\000"
 4202      706D6F64 
 4202      655F7400 
 4203              	.LASF6:
 4204 07e8 75696E74 		.ascii	"uint16_t\000"
 4204      31365F74 
 4204      00
 4205              	.LASF20:
 4206 07f1 6D73675F 		.ascii	"msg_t\000"
 4206      7400
 4207              	.LASF102:
 4208 07f7 4F504D4F 		.ascii	"OPMODE_SMBUS_DEVICE\000"
 4208      44455F53 
 4208      4D425553 
 4208      5F444556 
 4208      49434500 
 4209              	.LASF151:
 4210 080b 4F55545F 		.ascii	"OUT_T_MSB\000"
 4210      545F4D53 
 4210      4200
 4211              	.LASF18:
 4212 0815 74736C69 		.ascii	"tslices_t\000"
 4212      6365735F 
 4212      7400
 4213              	.LASF21:
 4214 081f 6576656E 		.ascii	"eventid_t\000"
 4214      7469645F 
 4214      7400
 4215              	.LASF204:
 4216 0829 72785F63 		.ascii	"rx_cache\000"
 4216      61636865 
 4216      00
 4217              	.LASF90:
 4218 0832 76656374 		.ascii	"vector\000"
 4218      6F7200
 4219              	.LASF85:
 4220 0839 4932435F 		.ascii	"I2C_TypeDef\000"
 4220      54797065 
 4220      44656600 
 4221              	.LASF105:
 4222 0845 5354445F 		.ascii	"STD_DUTY_CYCLE\000"
 4222      44555459 
 4222      5F435943 
 4222      4C4500
 4223              	.LASF182:
 4224 0854 505F4D41 		.ascii	"P_MAX_LSB\000"
 4224      585F4C53 
 4224      4200
ARM GAS  /tmp/cczDKINg.s 			page 83


 4225              	.LASF232:
 4226 085e 6D706C33 		.ascii	"mpl3115a2_int_event\000"
 4226      31313561 
 4226      325F696E 
 4226      745F6576 
 4226      656E7400 
 4227              	.LASF179:
 4228 0872 545F4D49 		.ascii	"T_MIN_LSB\000"
 4228      4E5F4C53 
 4228      4200
 4229              	.LASF147:
 4230 087c 53544154 		.ascii	"STATUS\000"
 4230      555300
 4231              	.LASF197:
 4232 0883 6D70755F 		.ascii	"mpu_magn_who_ami\000"
 4232      6D61676E 
 4232      5F77686F 
 4232      5F616D69 
 4232      00
 4233              	.LASF222:
 4234 0894 635F616C 		.ascii	"c_altitude\000"
 4234      74697475 
 4234      646500
 4235              	.LASF15:
 4236 089f 746D6F64 		.ascii	"tmode_t\000"
 4236      655F7400 
 4237              	.LASF75:
 4238 08a7 4F415231 		.ascii	"OAR1\000"
 4238      00
 4239              	.LASF77:
 4240 08ac 4F415232 		.ascii	"OAR2\000"
 4240      00
 4241              	.LASF118:
 4242 08b1 74687265 		.ascii	"thread\000"
 4242      616400
 4243              	.LASF70:
 4244 08b8 4D304152 		.ascii	"M0AR\000"
 4244      00
 4245              	.LASF160:
 4246 08bd 465F5354 		.ascii	"F_STATUS\000"
 4246      41545553 
 4246      00
 4247              	.LASF215:
 4248 08c6 6932635F 		.ascii	"i2c_errno_str\000"
 4248      6572726E 
 4248      6F5F7374 
 4248      7200
 4249              	.LASF5:
 4250 08d4 73686F72 		.ascii	"short int\000"
 4250      7420696E 
 4250      7400
 4251              	.LASF13:
 4252 08de 75696E74 		.ascii	"uint64_t\000"
 4252      36345F74 
 4252      00
 4253              	.LASF216:
 4254 08e7 6D706C33 		.ascii	"mpl3115a2_init\000"
ARM GAS  /tmp/cczDKINg.s 			page 84


 4254      31313561 
 4254      325F696E 
 4254      697400
 4255              	.LASF183:
 4256 08f6 545F4D41 		.ascii	"T_MAX_MSB\000"
 4256      585F4D53 
 4256      4200
 4257              	.LASF103:
 4258 0900 4F504D4F 		.ascii	"OPMODE_SMBUS_HOST\000"
 4258      44455F53 
 4258      4D425553 
 4258      5F484F53 
 4258      5400
 4259              	.LASF171:
 4260 0912 545F5447 		.ascii	"T_TGT\000"
 4260      5400
 4261              	.LASF25:
 4262 0918 54687265 		.ascii	"Thread\000"
 4262      616400
 4263              	.LASF177:
 4264 091f 505F4D49 		.ascii	"P_MIN_LSB\000"
 4264      4E5F4C53 
 4264      4200
 4265              	.LASF17:
 4266 0929 74726566 		.ascii	"trefs_t\000"
 4266      735F7400 
 4267              	.LASF57:
 4268 0931 4576656E 		.ascii	"EventListener\000"
 4268      744C6973 
 4268      74656E65 
 4268      7200
 4269              	.LASF109:
 4270 093f 6F705F6D 		.ascii	"op_mode\000"
 4270      6F646500 
 4271              	.LASF139:
 4272 0947 4D41474E 		.ascii	"MAGN_ASTC\000"
 4272      5F415354 
 4272      4300
 4273              	.LASF193:
 4274 0951 4D504C5F 		.ascii	"MPL_SLAVE_ADDR\000"
 4274      534C4156 
 4274      455F4144 
 4274      445200
 4275              	.LASF10:
 4276 0960 75696E74 		.ascii	"uint32_t\000"
 4276      33325F74 
 4276      00
 4277              	.LASF138:
 4278 0969 4D41474E 		.ascii	"MAGN_CNTL\000"
 4278      5F434E54 
 4278      4C00
 4279              	.LASF46:
 4280 0973 54687265 		.ascii	"ThreadsQueue\000"
 4280      61647351 
 4280      75657565 
 4280      00
 4281              	.LASF194:
ARM GAS  /tmp/cczDKINg.s 			page 85


 4282 0980 6D706C33 		.ascii	"mpl3115a2_regaddr\000"
 4282      31313561 
 4282      325F7265 
 4282      67616464 
 4282      7200
 4283              	.LASF208:
 4284 0992 6932635F 		.ascii	"i2c_instance\000"
 4284      696E7374 
 4284      616E6365 
 4284      00
 4285              	.LASF100:
 4286 099f 69326366 		.ascii	"i2cflags_t\000"
 4286      6C616773 
 4286      5F7400
 4287              	.LASF181:
 4288 09aa 505F4D41 		.ascii	"P_MAX_CSB\000"
 4288      585F4353 
 4288      4200
 4289              	.LASF64:
 4290 09b4 7264796D 		.ascii	"rdymsg\000"
 4290      736700
 4291              	.LASF156:
 4292 09bb 4F55545F 		.ascii	"OUT_P_DELTA_LSB\000"
 4292      505F4445 
 4292      4C54415F 
 4292      4C534200 
 4293              	.LASF7:
 4294 09cb 73686F72 		.ascii	"short unsigned int\000"
 4294      7420756E 
 4294      7369676E 
 4294      65642069 
 4294      6E7400
 4295              	.LASF143:
 4296 09de 4D41474E 		.ascii	"MAGN_ASAX\000"
 4296      5F415341 
 4296      5800
 4297              	.LASF110:
 4298 09e8 636C6F63 		.ascii	"clock_speed\000"
 4298      6B5F7370 
 4298      65656400 
 4299              	.LASF128:
 4300 09f4 4D41474E 		.ascii	"MAGN_DEVICE_ID\000"
 4300      5F444556 
 4300      4943455F 
 4300      494400
 4301              	.LASF168:
 4302 0a03 4241525F 		.ascii	"BAR_IN_LSB\000"
 4302      494E5F4C 
 4302      534200
 4303              	.LASF180:
 4304 0a0e 505F4D41 		.ascii	"P_MAX_MSB\000"
 4304      585F4D53 
 4304      4200
 4305              	.LASF189:
 4306 0a18 4354524C 		.ascii	"CTRL_REG5\000"
 4306      5F524547 
 4306      3500
ARM GAS  /tmp/cczDKINg.s 			page 86


 4307              	.LASF33:
 4308 0a22 705F7374 		.ascii	"p_stklimit\000"
 4308      6B6C696D 
 4308      697400
 4309              	.LASF192:
 4310 0a2d 4F46465F 		.ascii	"OFF_H\000"
 4310      4800
 4311              	.LASF178:
 4312 0a33 545F4D49 		.ascii	"T_MIN_MSB\000"
 4312      4E5F4D53 
 4312      4200
 4313              	.LASF190:
 4314 0a3d 4F46465F 		.ascii	"OFF_P\000"
 4314      5000
 4315              	.LASF191:
 4316 0a43 4F46465F 		.ascii	"OFF_T\000"
 4316      5400
 4317              	.LASF69:
 4318 0a49 4E445452 		.ascii	"NDTR\000"
 4318      00
 4319              	.LASF60:
 4320 0a4e 656C5F6D 		.ascii	"el_mask\000"
 4320      61736B00 
 4321              	.LASF87:
 4322 0a56 69666372 		.ascii	"ifcr\000"
 4322      00
 4323              	.LASF221:
 4324 0a5b 6D5F616C 		.ascii	"m_altitude\000"
 4324      74697475 
 4324      646500
 4325              	.LASF226:
 4326 0a66 74656D70 		.ascii	"temp\000"
 4326      00
 4327              	.LASF196:
 4328 0a6b 6D706C33 		.ascii	"mpl3115a2_a_g_burst_data\000"
 4328      31313561 
 4328      325F615F 
 4328      675F6275 
 4328      7273745F 
 4329              	.LASF93:
 4330 0a84 4932435F 		.ascii	"I2C_STOP\000"
 4330      53544F50 
 4330      00
 4331              	.LASF32:
 4332 0a8d 705F6E61 		.ascii	"p_name\000"
 4332      6D6500
 4333              	.LASF56:
 4334 0a94 6D5F6E65 		.ascii	"m_next\000"
 4334      787400
 4335              	.LASF130:
 4336 0a9b 4D41474E 		.ascii	"MAGN_STATUS_1\000"
 4336      5F535441 
 4336      5455535F 
 4336      3100
 4337              	.LASF137:
 4338 0aa9 4D41474E 		.ascii	"MAGN_STATUS_2\000"
 4338      5F535441 
ARM GAS  /tmp/cczDKINg.s 			page 87


 4338      5455535F 
 4338      3200
 4339              	.LASF163:
 4340 0ab7 54494D45 		.ascii	"TIME_DLY\000"
 4340      5F444C59 
 4340      00
 4341              	.LASF41:
 4342 0ac0 705F6D73 		.ascii	"p_msg\000"
 4342      6700
 4343              	.LASF59:
 4344 0ac6 656C5F6C 		.ascii	"el_listener\000"
 4344      69737465 
 4344      6E657200 
 4345              	.LASF34:
 4346 0ad2 705F7374 		.ascii	"p_state\000"
 4346      61746500 
 4347              		.ident	"GCC: (crosstool-NG 1.17.0 - PSAS ST32F4 GFE) 4.7.2"
ARM GAS  /tmp/cczDKINg.s 			page 88


DEFINED SYMBOLS
                            *ABS*:0000000000000000 MPL3115A2.c
     /tmp/cczDKINg.s:21     .text.i2c_errno_str:0000000000000000 $t
     /tmp/cczDKINg.s:27     .text.i2c_errno_str:0000000000000000 i2c_errno_str
     /tmp/cczDKINg.s:65     .text.i2c_errno_str:0000000000000020 $d
     /tmp/cczDKINg.s:71     .text.mpl3115a2_int_event_handler:0000000000000000 $t
     /tmp/cczDKINg.s:77     .text.mpl3115a2_int_event_handler:0000000000000000 mpl3115a2_int_event_handler
     /tmp/cczDKINg.s:90     .text.mpl3115a2_start:0000000000000000 $t
     /tmp/cczDKINg.s:96     .text.mpl3115a2_start:0000000000000000 mpl3115a2_start
     /tmp/cczDKINg.s:159    .text.mpl3115a2_start:0000000000000038 $d
     /tmp/cczDKINg.s:165    .text.mpl3115a2_init:0000000000000000 $t
     /tmp/cczDKINg.s:171    .text.mpl3115a2_init:0000000000000000 mpl3115a2_init
     /tmp/cczDKINg.s:492    .bss.mpl3115a2_driver:0000000000000000 .LANCHOR1
     /tmp/cczDKINg.s:339    .text.mpl3115a2_get_altitude:0000000000000000 $t
     /tmp/cczDKINg.s:345    .text.mpl3115a2_get_altitude:0000000000000000 mpl3115a2_get_altitude
     /tmp/cczDKINg.s:400    .text.mpl3115a2_get_temperature:0000000000000000 $t
     /tmp/cczDKINg.s:406    .text.mpl3115a2_get_temperature:0000000000000000 mpl3115a2_get_temperature
     /tmp/cczDKINg.s:462    .text.mpl3115a2_get_temperature:0000000000000048 $d
     /tmp/cczDKINg.s:483    .rodata.mpl3115a2_i2c_magn_addr:0000000000000000 mpl3115a2_i2c_magn_addr
     /tmp/cczDKINg.s:488    .rodata.mpl3115a2_i2c_slave_addr:0000000000000000 mpl3115a2_i2c_slave_addr
     /tmp/cczDKINg.s:575    .rodata.mpl3115a2_i2c_timeout:0000000000000000 mpl3115a2_i2c_timeout
     /tmp/cczDKINg.s:569    .bss.mpl3115a2_int_event:0000000000000000 mpl3115a2_int_event
     /tmp/cczDKINg.s:495    .bss.mpl3115a2_driver:0000000000000000 mpl3115a2_driver
     /tmp/cczDKINg.s:478    .bss.mpl3115a2_burst_magn_data:0000000000000000 mpl3115a2_burst_magn_data
     /tmp/cczDKINg.s:508    .bss.mpl3115a2_burst_a_g_data:0000000000000000 mpl3115a2_burst_a_g_data
     /tmp/cczDKINg.s:502    .bss.mpl3115a2_cache_data:0000000000000000 mpl3115a2_cache_data
     /tmp/cczDKINg.s:475    .bss.mpl3115a2_burst_magn_data:0000000000000000 $d
     /tmp/cczDKINg.s:491    .bss.mpl3115a2_driver:0000000000000000 $d
     /tmp/cczDKINg.s:498    .bss.mpl3115a2_cache_data:0000000000000000 $d
     /tmp/cczDKINg.s:505    .bss.mpl3115a2_burst_a_g_data:0000000000000000 $d
     /tmp/cczDKINg.s:511    .rodata.i2c_debug_errors:0000000000000000 $d
     /tmp/cczDKINg.s:515    .rodata.i2c_debug_errors:0000000000000000 i2c_debug_errors
     /tmp/cczDKINg.s:535    .rodata.str1.4:0000000000000000 $d
     /tmp/cczDKINg.s:566    .bss.mpl3115a2_int_event:0000000000000000 $d
     /tmp/cczDKINg.s:572    .rodata.mpl3115a2_i2c_timeout:0000000000000000 $d
                     .debug_frame:0000000000000010 $d
     /tmp/cczDKINg.s:70     .text.i2c_errno_str:0000000000000028 $t
     /tmp/cczDKINg.s:474    .text.mpl3115a2_get_temperature:000000000000004c $t

UNDEFINED SYMBOLS
i2cAcquireBus
i2cMasterTransmitTimeout
i2cReleaseBus
