ARM GAS  /tmp/cckDtn2d.s 			page 1


   1              		.syntax unified
   2              		.cpu cortex-m4
   3              		.eabi_attribute 27, 3
   4              		.eabi_attribute 28, 1
   5              		.fpu fpv4-sp-d16
   6              		.eabi_attribute 20, 1
   7              		.eabi_attribute 21, 1
   8              		.eabi_attribute 23, 3
   9              		.eabi_attribute 24, 1
  10              		.eabi_attribute 25, 1
  11              		.eabi_attribute 26, 1
  12              		.eabi_attribute 30, 2
  13              		.eabi_attribute 34, 1
  14              		.eabi_attribute 18, 4
  15              		.thumb
  16              		.file	"MPL3115A2.c"
  17              		.text
  18              	.Ltext0:
  19              		.cfi_sections	.debug_frame
  20              		.section	.text.i2c_errno_str,"ax",%progbits
  21              		.align	2
  22              		.p2align 4,,15
  23              		.global	i2c_errno_str
  24              		.thumb
  25              		.thumb_func
  26              		.type	i2c_errno_str, %function
  27              	i2c_errno_str:
  28              	.LFB118:
  29              		.file 1 "../../devices/MPL3115A2.c"
  30              		.loc 1 44 0
  31              		.cfi_startproc
  32              		@ args = 0, pretend = 0, frame = 0
  33              		@ frame_needed = 0, uses_anonymous_args = 0
  34              		@ link register save eliminated.
  35              	.LVL0:
  36 0000 0749     		ldr	r1, .L8
  37              		.loc 1 44 0
  38 0002 0023     		movs	r3, #0
  39              	.LVL1:
  40              	.L4:
  41 0004 01EBC302 		add	r2, r1, r3, lsl #3
  42              		.loc 1 49 0
  43 0008 5268     		ldr	r2, [r2, #4]
  44 000a 8242     		cmp	r2, r0
  45 000c 04D0     		beq	.L7
  46 000e 0133     		adds	r3, r3, #1
  47              		.loc 1 48 0
  48 0010 092B     		cmp	r3, #9
  49 0012 F7D1     		bne	.L4
  50              		.loc 1 53 0
  51 0014 0348     		ldr	r0, .L8+4
  52              	.LVL2:
  53              		.loc 1 54 0
  54 0016 7047     		bx	lr
  55              	.LVL3:
  56              	.L7:
  57              		.loc 1 50 0
ARM GAS  /tmp/cckDtn2d.s 			page 2


  58 0018 014A     		ldr	r2, .L8
  59 001a 52F83300 		ldr	r0, [r2, r3, lsl #3]
  60              	.LVL4:
  61 001e 7047     		bx	lr
  62              	.L9:
  63              		.align	2
  64              	.L8:
  65 0020 00000000 		.word	.LANCHOR0
  66 0024 00000000 		.word	.LC0
  67              		.cfi_endproc
  68              	.LFE118:
  69              		.size	i2c_errno_str, .-i2c_errno_str
  70 0028 AFF30080 		.section	.text.mpl3115a2_int_event_handler,"ax",%progbits
  70      AFF30080 
  71              		.align	2
  72              		.p2align 4,,15
  73              		.global	mpl3115a2_int_event_handler
  74              		.thumb
  75              		.thumb_func
  76              		.type	mpl3115a2_int_event_handler, %function
  77              	mpl3115a2_int_event_handler:
  78              	.LFB119:
  79              		.loc 1 62 0
  80              		.cfi_startproc
  81              		@ args = 0, pretend = 0, frame = 0
  82              		@ frame_needed = 0, uses_anonymous_args = 0
  83              		@ link register save eliminated.
  84              	.LVL5:
  85 0000 7047     		bx	lr
  86              		.cfi_endproc
  87              	.LFE119:
  88              		.size	mpl3115a2_int_event_handler, .-mpl3115a2_int_event_handler
  89 0002 00BFAFF3 		.section	.text.mpl3115a2_start,"ax",%progbits
  89      0080AFF3 
  89      0080AFF3 
  89      0080
  90              		.align	2
  91              		.p2align 4,,15
  92              		.global	mpl3115a2_start
  93              		.thumb
  94              		.thumb_func
  95              		.type	mpl3115a2_start, %function
  96              	mpl3115a2_start:
  97              	.LFB120:
  98              		.loc 1 67 0
  99              		.cfi_startproc
 100              		@ args = 0, pretend = 0, frame = 0
 101              		@ frame_needed = 0, uses_anonymous_args = 0
 102              	.LVL6:
 103              		.loc 1 67 0
 104 0000 2DE9F047 		push	{r4, r5, r6, r7, r8, r9, sl, lr}
 105              	.LCFI0:
 106              		.cfi_def_cfa_offset 32
 107              		.cfi_offset 4, -32
 108              		.cfi_offset 5, -28
 109              		.cfi_offset 6, -24
 110              		.cfi_offset 7, -20
ARM GAS  /tmp/cckDtn2d.s 			page 3


 111              		.cfi_offset 8, -16
 112              		.cfi_offset 9, -12
 113              		.cfi_offset 10, -8
 114              		.cfi_offset 14, -4
 115              		.loc 1 71 0
 116 0004 40F20005 		movw	r5, #:lower16:.LANCHOR1
 117 0008 C0F20005 		movt	r5, #:upper16:.LANCHOR1
 118              		.loc 1 67 0
 119 000c 84B0     		sub	sp, sp, #16
 120              	.LCFI1:
 121              		.cfi_def_cfa_offset 48
 122              		.loc 1 71 0
 123 000e 2623     		movs	r3, #38
 124              		.loc 1 67 0
 125 0010 0446     		mov	r4, r0
 126              		.loc 1 74 0
 127 0012 05F10806 		add	r6, r5, #8
 128 0016 05F13A09 		add	r9, r5, #58
 129 001a 4FF00008 		mov	r8, #0
 130 001e 4FF4C877 		mov	r7, #400
 131              		.loc 1 71 0
 132 0022 2B72     		strb	r3, [r5, #8]
 133              		.loc 1 72 0
 134 0024 B923     		movs	r3, #185
 135 0026 6B72     		strb	r3, [r5, #9]
 136              		.loc 1 73 0
 137 0028 FFF7FEFF 		bl	i2cAcquireBus
 138              	.LVL7:
 139              		.loc 1 74 0
 140 002c 6021     		movs	r1, #96
 141 002e 3246     		mov	r2, r6
 142 0030 0223     		movs	r3, #2
 143 0032 CDF80090 		str	r9, [sp, #0]
 144 0036 CDF80480 		str	r8, [sp, #4]
 145 003a 0297     		str	r7, [sp, #8]
 146 003c 2046     		mov	r0, r4
 147 003e FFF7FEFF 		bl	i2cMasterTransmitTimeout
 148              	.LVL8:
 149              		.loc 1 75 0
 150 0042 2046     		mov	r0, r4
 151 0044 FFF7FEFF 		bl	i2cReleaseBus
 152              	.LVL9:
 153              		.loc 1 78 0
 154 0048 4FF0800A 		mov	sl, #128
 155              		.loc 1 77 0
 156 004c 2923     		movs	r3, #41
 157              		.loc 1 79 0
 158 004e 2046     		mov	r0, r4
 159              		.loc 1 77 0
 160 0050 2B72     		strb	r3, [r5, #8]
 161              		.loc 1 78 0
 162 0052 85F809A0 		strb	sl, [r5, #9]
 163              		.loc 1 79 0
 164 0056 FFF7FEFF 		bl	i2cAcquireBus
 165              	.LVL10:
 166              		.loc 1 80 0
 167 005a 6021     		movs	r1, #96
ARM GAS  /tmp/cckDtn2d.s 			page 4


 168 005c 3246     		mov	r2, r6
 169 005e 0223     		movs	r3, #2
 170 0060 CDF80090 		str	r9, [sp, #0]
 171 0064 CDF80480 		str	r8, [sp, #4]
 172 0068 0297     		str	r7, [sp, #8]
 173 006a 2046     		mov	r0, r4
 174 006c FFF7FEFF 		bl	i2cMasterTransmitTimeout
 175              	.LVL11:
 176              		.loc 1 81 0
 177 0070 2046     		mov	r0, r4
 178 0072 FFF7FEFF 		bl	i2cReleaseBus
 179              	.LVL12:
 180              		.loc 1 84 0
 181 0076 0723     		movs	r3, #7
 182              		.loc 1 85 0
 183 0078 2046     		mov	r0, r4
 184              		.loc 1 84 0
 185 007a 2B72     		strb	r3, [r5, #8]
 186              		.loc 1 85 0
 187 007c FFF7FEFF 		bl	i2cAcquireBus
 188              	.LVL13:
 189              		.loc 1 86 0
 190 0080 6021     		movs	r1, #96
 191 0082 3246     		mov	r2, r6
 192 0084 0223     		movs	r3, #2
 193 0086 CDF80090 		str	r9, [sp, #0]
 194 008a CDF80480 		str	r8, [sp, #4]
 195 008e 0297     		str	r7, [sp, #8]
 196 0090 2046     		mov	r0, r4
 197 0092 FFF7FEFF 		bl	i2cMasterTransmitTimeout
 198              	.LVL14:
 199              		.loc 1 87 0
 200 0096 2046     		mov	r0, r4
 201 0098 FFF7FEFF 		bl	i2cReleaseBus
 202              	.LVL15:
 203              		.loc 1 90 0
 204 009c 1523     		movs	r3, #21
 205              		.loc 1 92 0
 206 009e 2046     		mov	r0, r4
 207              		.loc 1 90 0
 208 00a0 2B72     		strb	r3, [r5, #8]
 209              		.loc 1 91 0
 210 00a2 85F809A0 		strb	sl, [r5, #9]
 211              		.loc 1 92 0
 212 00a6 FFF7FEFF 		bl	i2cAcquireBus
 213              	.LVL16:
 214              		.loc 1 93 0
 215 00aa 6021     		movs	r1, #96
 216 00ac 3246     		mov	r2, r6
 217 00ae 0223     		movs	r3, #2
 218 00b0 CDF80090 		str	r9, [sp, #0]
 219 00b4 CDF80480 		str	r8, [sp, #4]
 220 00b8 0297     		str	r7, [sp, #8]
 221 00ba 2046     		mov	r0, r4
 222 00bc FFF7FEFF 		bl	i2cMasterTransmitTimeout
 223              	.LVL17:
 224              		.loc 1 94 0
ARM GAS  /tmp/cckDtn2d.s 			page 5


 225 00c0 2046     		mov	r0, r4
 226 00c2 FFF7FEFF 		bl	i2cReleaseBus
 227              	.LVL18:
 228              		.loc 1 95 0
 229 00c6 1423     		movs	r3, #20
 230              		.loc 1 97 0
 231 00c8 2046     		mov	r0, r4
 232              		.loc 1 95 0
 233 00ca 2B72     		strb	r3, [r5, #8]
 234              		.loc 1 96 0
 235 00cc 8D23     		movs	r3, #141
 236 00ce 6B72     		strb	r3, [r5, #9]
 237              		.loc 1 97 0
 238 00d0 FFF7FEFF 		bl	i2cAcquireBus
 239              	.LVL19:
 240              		.loc 1 98 0
 241 00d4 CDF80090 		str	r9, [sp, #0]
 242 00d8 CDF80480 		str	r8, [sp, #4]
 243 00dc 0297     		str	r7, [sp, #8]
 244 00de 2046     		mov	r0, r4
 245 00e0 6021     		movs	r1, #96
 246 00e2 3246     		mov	r2, r6
 247 00e4 0223     		movs	r3, #2
 248 00e6 FFF7FEFF 		bl	i2cMasterTransmitTimeout
 249              	.LVL20:
 250              		.loc 1 99 0
 251 00ea 2046     		mov	r0, r4
 252              		.loc 1 100 0
 253 00ec 04B0     		add	sp, sp, #16
 254 00ee BDE8F047 		pop	{r4, r5, r6, r7, r8, r9, sl, lr}
 255              		.loc 1 99 0
 256 00f2 FFF7FEBF 		b	i2cReleaseBus
 257              	.LVL21:
 258              		.cfi_endproc
 259              	.LFE120:
 260              		.size	mpl3115a2_start, .-mpl3115a2_start
 261 00f6 00BFAFF3 		.section	.text.mpl3115a2_get_altitude,"ax",%progbits
 261      0080AFF3 
 261      0080
 262              		.align	2
 263              		.p2align 4,,15
 264              		.global	mpl3115a2_get_altitude
 265              		.thumb
 266              		.thumb_func
 267              		.type	mpl3115a2_get_altitude, %function
 268              	mpl3115a2_get_altitude:
 269              	.LFB121:
 270              		.loc 1 102 0
 271              		.cfi_startproc
 272              		@ args = 0, pretend = 0, frame = 0
 273              		@ frame_needed = 0, uses_anonymous_args = 0
 274              	.LVL22:
 275 0000 2DE9F04F 		push	{r4, r5, r6, r7, r8, r9, sl, fp, lr}
 276              	.LCFI2:
 277              		.cfi_def_cfa_offset 36
 278              		.cfi_offset 4, -36
 279              		.cfi_offset 5, -32
ARM GAS  /tmp/cckDtn2d.s 			page 6


 280              		.cfi_offset 6, -28
 281              		.cfi_offset 7, -24
 282              		.cfi_offset 8, -20
 283              		.cfi_offset 9, -16
 284              		.cfi_offset 10, -12
 285              		.cfi_offset 11, -8
 286              		.cfi_offset 14, -4
 287              		.loc 1 110 0
 288 0004 40F20004 		movw	r4, #:lower16:.LANCHOR1
 289 0008 C0F20004 		movt	r4, #:upper16:.LANCHOR1
 290 000c 2746     		mov	r7, r4
 291 000e 0126     		movs	r6, #1
 292              		.loc 1 102 0
 293 0010 85B0     		sub	sp, sp, #20
 294              	.LCFI3:
 295              		.cfi_def_cfa_offset 56
 296              		.loc 1 110 0
 297 0012 07F8086F 		strb	r6, [r7, #8]!
 298              		.loc 1 102 0
 299 0016 0546     		mov	r5, r0
 300              		.loc 1 112 0
 301 0018 04F13A09 		add	r9, r4, #58
 302 001c 4FF4C878 		mov	r8, #400
 303              		.loc 1 111 0
 304 0020 FFF7FEFF 		bl	i2cAcquireBus
 305              	.LVL23:
 306              		.loc 1 112 0
 307 0024 6021     		movs	r1, #96
 308 0026 3A46     		mov	r2, r7
 309 0028 3346     		mov	r3, r6
 310 002a CDF80090 		str	r9, [sp, #0]
 311 002e 0196     		str	r6, [sp, #4]
 312 0030 CDF80880 		str	r8, [sp, #8]
 313 0034 2846     		mov	r0, r5
 314 0036 FFF7FEFF 		bl	i2cMasterTransmitTimeout
 315              	.LVL24:
 316              		.loc 1 113 0
 317 003a 2846     		mov	r0, r5
 318 003c FFF7FEFF 		bl	i2cReleaseBus
 319              	.LVL25:
 320              		.loc 1 116 0
 321 0040 0223     		movs	r3, #2
 322              		.loc 1 117 0
 323 0042 2846     		mov	r0, r5
 324              		.loc 1 114 0
 325 0044 94F83AB0 		ldrb	fp, [r4, #58]	@ zero_extendqisi2
 326              	.LVL26:
 327              		.loc 1 116 0
 328 0048 2372     		strb	r3, [r4, #8]
 329              		.loc 1 117 0
 330 004a FFF7FEFF 		bl	i2cAcquireBus
 331              	.LVL27:
 332              		.loc 1 118 0
 333 004e 6021     		movs	r1, #96
 334 0050 3A46     		mov	r2, r7
 335 0052 3346     		mov	r3, r6
 336 0054 CDF80090 		str	r9, [sp, #0]
ARM GAS  /tmp/cckDtn2d.s 			page 7


 337 0058 0196     		str	r6, [sp, #4]
 338 005a CDF80880 		str	r8, [sp, #8]
 339 005e 2846     		mov	r0, r5
 340 0060 FFF7FEFF 		bl	i2cMasterTransmitTimeout
 341              	.LVL28:
 342              		.loc 1 119 0
 343 0064 2846     		mov	r0, r5
 344 0066 FFF7FEFF 		bl	i2cReleaseBus
 345              	.LVL29:
 346              		.loc 1 122 0
 347 006a 0323     		movs	r3, #3
 348              		.loc 1 123 0
 349 006c 2846     		mov	r0, r5
 350              		.loc 1 120 0
 351 006e 94F83AA0 		ldrb	sl, [r4, #58]	@ zero_extendqisi2
 352              	.LVL30:
 353              		.loc 1 122 0
 354 0072 2372     		strb	r3, [r4, #8]
 355              		.loc 1 123 0
 356 0074 FFF7FEFF 		bl	i2cAcquireBus
 357              	.LVL31:
 358              		.loc 1 124 0
 359 0078 3346     		mov	r3, r6
 360 007a 6021     		movs	r1, #96
 361 007c 3A46     		mov	r2, r7
 362 007e CDF80090 		str	r9, [sp, #0]
 363 0082 0196     		str	r6, [sp, #4]
 364 0084 CDF80880 		str	r8, [sp, #8]
 365 0088 2846     		mov	r0, r5
 366 008a FFF7FEFF 		bl	i2cMasterTransmitTimeout
 367              	.LVL32:
 368              		.loc 1 125 0
 369 008e 2846     		mov	r0, r5
 370 0090 FFF7FEFF 		bl	i2cReleaseBus
 371              	.LVL33:
 372              		.loc 1 126 0
 373 0094 94F83A30 		ldrb	r3, [r4, #58]	@ zero_extendqisi2
 374              		.loc 1 127 0
 375 0098 4AEA0B2A 		orr	sl, sl, fp, lsl #8
 376              	.LVL34:
 377              		.loc 1 126 0
 378 009c 1B09     		lsrs	r3, r3, #4
 379 009e 07EE903A 		fmsr	s15, r3	@ int
 380              		.loc 1 127 0
 381 00a2 07EE10AA 		fmsr	s14, sl	@ int
 382              		.loc 1 126 0
 383 00a6 FAEECE7A 		vcvt.f32.s32	s15, s15, #4
 384              		.loc 1 127 0
 385 00aa B8EEC70A 		fsitos	s0, s14
 386              		.loc 1 129 0
 387 00ae 30EE270A 		fadds	s0, s0, s15
 388 00b2 05B0     		add	sp, sp, #20
 389 00b4 BDE8F08F 		pop	{r4, r5, r6, r7, r8, r9, sl, fp, pc}
 390              		.cfi_endproc
 391              	.LFE121:
 392              		.size	mpl3115a2_get_altitude, .-mpl3115a2_get_altitude
 393 00b8 AFF30080 		.section	.text.mpl3115a2_get_temperature,"ax",%progbits
ARM GAS  /tmp/cckDtn2d.s 			page 8


 393      AFF30080 
 394              		.align	2
 395              		.p2align 4,,15
 396              		.global	mpl3115a2_get_temperature
 397              		.thumb
 398              		.thumb_func
 399              		.type	mpl3115a2_get_temperature, %function
 400              	mpl3115a2_get_temperature:
 401              	.LFB122:
 402              		.loc 1 131 0
 403              		.cfi_startproc
 404              		@ args = 0, pretend = 0, frame = 0
 405              		@ frame_needed = 0, uses_anonymous_args = 0
 406              	.LVL35:
 407 0000 2DE9F047 		push	{r4, r5, r6, r7, r8, r9, sl, lr}
 408              	.LCFI4:
 409              		.cfi_def_cfa_offset 32
 410              		.cfi_offset 4, -32
 411              		.cfi_offset 5, -28
 412              		.cfi_offset 6, -24
 413              		.cfi_offset 7, -20
 414              		.cfi_offset 8, -16
 415              		.cfi_offset 9, -12
 416              		.cfi_offset 10, -8
 417              		.cfi_offset 14, -4
 418              		.loc 1 136 0
 419 0004 40F20004 		movw	r4, #:lower16:.LANCHOR1
 420 0008 C0F20004 		movt	r4, #:upper16:.LANCHOR1
 421 000c 2746     		mov	r7, r4
 422 000e 0423     		movs	r3, #4
 423              		.loc 1 131 0
 424 0010 84B0     		sub	sp, sp, #16
 425              	.LCFI5:
 426              		.cfi_def_cfa_offset 48
 427              		.loc 1 136 0
 428 0012 07F8083F 		strb	r3, [r7, #8]!
 429              		.loc 1 131 0
 430 0016 0546     		mov	r5, r0
 431              		.loc 1 138 0
 432 0018 0126     		movs	r6, #1
 433 001a 04F13A09 		add	r9, r4, #58
 434 001e 4FF4C878 		mov	r8, #400
 435              		.loc 1 137 0
 436 0022 FFF7FEFF 		bl	i2cAcquireBus
 437              	.LVL36:
 438              		.loc 1 138 0
 439 0026 6021     		movs	r1, #96
 440 0028 3A46     		mov	r2, r7
 441 002a 3346     		mov	r3, r6
 442 002c CDF80090 		str	r9, [sp, #0]
 443 0030 0196     		str	r6, [sp, #4]
 444 0032 CDF80880 		str	r8, [sp, #8]
 445 0036 2846     		mov	r0, r5
 446 0038 FFF7FEFF 		bl	i2cMasterTransmitTimeout
 447              	.LVL37:
 448              		.loc 1 139 0
 449 003c 2846     		mov	r0, r5
ARM GAS  /tmp/cckDtn2d.s 			page 9


 450 003e FFF7FEFF 		bl	i2cReleaseBus
 451              	.LVL38:
 452              		.loc 1 141 0
 453 0042 0523     		movs	r3, #5
 454              		.loc 1 142 0
 455 0044 2846     		mov	r0, r5
 456              		.loc 1 140 0
 457 0046 94F83AA0 		ldrb	sl, [r4, #58]	@ zero_extendqisi2
 458              	.LVL39:
 459              		.loc 1 141 0
 460 004a 2372     		strb	r3, [r4, #8]
 461              		.loc 1 142 0
 462 004c FFF7FEFF 		bl	i2cAcquireBus
 463              	.LVL40:
 464              		.loc 1 143 0
 465 0050 3346     		mov	r3, r6
 466 0052 6021     		movs	r1, #96
 467 0054 3A46     		mov	r2, r7
 468 0056 CDF80090 		str	r9, [sp, #0]
 469 005a 0196     		str	r6, [sp, #4]
 470 005c CDF80880 		str	r8, [sp, #8]
 471 0060 2846     		mov	r0, r5
 472 0062 FFF7FEFF 		bl	i2cMasterTransmitTimeout
 473              	.LVL41:
 474              		.loc 1 144 0
 475 0066 2846     		mov	r0, r5
 476 0068 FFF7FEFF 		bl	i2cReleaseBus
 477              	.LVL42:
 478              		.loc 1 145 0
 479 006c 94F83A30 		ldrb	r3, [r4, #58]	@ zero_extendqisi2
 480 0070 1B09     		lsrs	r3, r3, #4
 481 0072 07EE903A 		fmsr	s15, r3	@ int
 482              		.loc 1 146 0
 483 0076 07EE10AA 		fmsr	s14, sl	@ int
 484              		.loc 1 145 0
 485 007a FAEECE7A 		vcvt.f32.s32	s15, s15, #4
 486              		.loc 1 146 0
 487 007e B8EEC70A 		fsitos	s0, s14
 488              		.loc 1 148 0
 489 0082 30EE270A 		fadds	s0, s0, s15
 490 0086 04B0     		add	sp, sp, #16
 491 0088 BDE8F087 		pop	{r4, r5, r6, r7, r8, r9, sl, pc}
 492              		.cfi_endproc
 493              	.LFE122:
 494              		.size	mpl3115a2_get_temperature, .-mpl3115a2_get_temperature
 495              		.global	mpl3115a2_i2c_magn_addr
 496              		.global	mpl3115a2_i2c_slave_addr
 497              		.global	mpl3115a2_i2c_timeout
 498              		.global	mpl3115a2_int_event
 499              		.global	mpl3115a2_driver
 500              		.global	mpl3115a2_burst_magn_data
 501              		.global	mpl3115a2_burst_a_g_data
 502              		.global	mpl3115a2_cache_data
 503 008c AFF30080 		.section	.bss.mpl3115a2_burst_magn_data,"aw",%nobits
 504              		.align	2
 505              		.type	mpl3115a2_burst_magn_data, %object
 506              		.size	mpl3115a2_burst_magn_data, 1
ARM GAS  /tmp/cckDtn2d.s 			page 10


 507              	mpl3115a2_burst_magn_data:
 508 0000 00       		.space	1
 509 0001 000000   		.section	.rodata.mpl3115a2_i2c_magn_addr,"a",%progbits
 510              		.type	mpl3115a2_i2c_magn_addr, %object
 511              		.size	mpl3115a2_i2c_magn_addr, 1
 512              	mpl3115a2_i2c_magn_addr:
 513 0000 0C       		.byte	12
 514              		.section	.rodata.mpl3115a2_i2c_slave_addr,"a",%progbits
 515              		.type	mpl3115a2_i2c_slave_addr, %object
 516              		.size	mpl3115a2_i2c_slave_addr, 1
 517              	mpl3115a2_i2c_slave_addr:
 518 0000 60       		.byte	96
 519              		.section	.bss.mpl3115a2_driver,"aw",%nobits
 520              		.align	2
 521              		.set	.LANCHOR1,. + 0
 522              		.type	mpl3115a2_driver, %object
 523              		.size	mpl3115a2_driver, 108
 524              	mpl3115a2_driver:
 525 0000 00000000 		.space	108
 525      00000000 
 525      00000000 
 525      00000000 
 525      00000000 
 526              		.section	.bss.mpl3115a2_cache_data,"aw",%nobits
 527              		.align	2
 528              		.type	mpl3115a2_cache_data, %object
 529              		.size	mpl3115a2_cache_data, 104
 530              	mpl3115a2_cache_data:
 531 0000 00000000 		.space	104
 531      00000000 
 531      00000000 
 531      00000000 
 531      00000000 
 532              		.section	.bss.mpl3115a2_burst_a_g_data,"aw",%nobits
 533              		.align	2
 534              		.type	mpl3115a2_burst_a_g_data, %object
 535              		.size	mpl3115a2_burst_a_g_data, 1
 536              	mpl3115a2_burst_a_g_data:
 537 0000 00       		.space	1
 538 0001 000000   		.section	.rodata.i2c_debug_errors,"a",%progbits
 539              		.align	2
 540              		.set	.LANCHOR0,. + 0
 541              		.type	i2c_debug_errors, %object
 542              		.size	i2c_debug_errors, 72
 543              	i2c_debug_errors:
 544 0000 14000000 		.word	.LC1
 545 0004 00000000 		.word	0
 546 0008 28000000 		.word	.LC2
 547 000c 01000000 		.word	1
 548 0010 3C000000 		.word	.LC3
 549 0014 02000000 		.word	2
 550 0018 50000000 		.word	.LC4
 551 001c 04000000 		.word	4
 552 0020 64000000 		.word	.LC5
 553 0024 04000000 		.word	4
 554 0028 78000000 		.word	.LC6
 555 002c 08000000 		.word	8
ARM GAS  /tmp/cckDtn2d.s 			page 11


 556 0030 8C000000 		.word	.LC7
 557 0034 10000000 		.word	16
 558 0038 A0000000 		.word	.LC8
 559 003c 20000000 		.word	32
 560 0040 B4000000 		.word	.LC9
 561 0044 40000000 		.word	64
 562              		.section	.rodata.str1.4,"aMS",%progbits,1
 563              		.align	2
 564              	.LC0:
 565 0000 49324320 		.ascii	"I2C Error Unknown\000"
 565      4572726F 
 565      7220556E 
 565      6B6E6F77 
 565      6E00
 566 0012 0000     		.space	2
 567              	.LC1:
 568 0014 4932435F 		.ascii	"I2C_NO_ERROR    \000"
 568      4E4F5F45 
 568      52524F52 
 568      20202020 
 568      00
 569 0025 000000   		.space	3
 570              	.LC2:
 571 0028 4932435F 		.ascii	"I2C_BUS_ERROR   \000"
 571      4255535F 
 571      4552524F 
 571      52202020 
 571      00
 572 0039 000000   		.space	3
 573              	.LC3:
 574 003c 4932435F 		.ascii	"I2C_ARBIT_LOST  \000"
 574      41524249 
 574      545F4C4F 
 574      53542020 
 574      00
 575 004d 000000   		.space	3
 576              	.LC4:
 577 0050 4932435F 		.ascii	"I2C_ACK_FAIL    \000"
 577      41434B5F 
 577      4641494C 
 577      20202020 
 577      00
 578 0061 000000   		.space	3
 579              	.LC5:
 580 0064 49324344 		.ascii	"I2CD_ACK_FAILURE\000"
 580      5F41434B 
 580      5F464149 
 580      4C555245 
 580      00
 581 0075 000000   		.space	3
 582              	.LC6:
 583 0078 49324344 		.ascii	"I2CD_OVERRUN    \000"
 583      5F4F5645 
 583      5252554E 
 583      20202020 
 583      00
 584 0089 000000   		.space	3
ARM GAS  /tmp/cckDtn2d.s 			page 12


 585              	.LC7:
 586 008c 49324344 		.ascii	"I2CD_PEC_ERROR  \000"
 586      5F504543 
 586      5F455252 
 586      4F522020 
 586      00
 587 009d 000000   		.space	3
 588              	.LC8:
 589 00a0 49324344 		.ascii	"I2CD_TIMEOUT    \000"
 589      5F54494D 
 589      454F5554 
 589      20202020 
 589      00
 590 00b1 000000   		.space	3
 591              	.LC9:
 592 00b4 49324344 		.ascii	"I2CD_SMB_ALERT  \000"
 592      5F534D42 
 592      5F414C45 
 592      52542020 
 592      00
 593 00c5 000000   		.section	.bss.mpl3115a2_int_event,"aw",%nobits
 594              		.align	2
 595              		.type	mpl3115a2_int_event, %object
 596              		.size	mpl3115a2_int_event, 4
 597              	mpl3115a2_int_event:
 598 0000 00000000 		.space	4
 599              		.section	.rodata.mpl3115a2_i2c_timeout,"a",%progbits
 600              		.align	2
 601              		.type	mpl3115a2_i2c_timeout, %object
 602              		.size	mpl3115a2_i2c_timeout, 4
 603              	mpl3115a2_i2c_timeout:
 604 0000 90010000 		.word	400
 605              		.text
 606              	.Letext0:
 607              		.file 2 "/home/david/toolchains/psas/x-tools/stm32f407/arm-psas-eabi/bin/../lib/gcc/arm-psas-eabi/
 608              		.file 3 "/home/david/toolchains/psas/x-tools/stm32f407/arm-psas-eabi/bin/../lib/gcc/arm-psas-eabi/
 609              		.file 4 "../../ChibiOS/os/ports/GCC/ARMCMx/chtypes.h"
 610              		.file 5 "../../ChibiOS/os/kernel/include/chlists.h"
 611              		.file 6 "../../ChibiOS/os/kernel/include/chthreads.h"
 612              		.file 7 "../../ChibiOS/os/ports/GCC/ARMCMx/chcore_v7m.h"
 613              		.file 8 "../../ChibiOS/os/kernel/include/chmtx.h"
 614              		.file 9 "../../ChibiOS/os/kernel/include/chevents.h"
 615              		.file 10 "../../ChibiOS/os/hal/platforms/STM32F4xx/stm32f4xx.h"
 616              		.file 11 "../../ChibiOS/os/hal/platforms/STM32F4xx/stm32_dma.h"
 617              		.file 12 "../../ChibiOS/os/hal/include/i2c.h"
 618              		.file 13 "../../ChibiOS/os/hal/platforms/STM32/I2Cv1/i2c_lld.h"
 619              		.file 14 "../../devices/include/MPL3115A2.h"
 620              		.file 15 "../../ChibiOS/os/ports/common/ARMCMx/CMSIS/include/core_cm4.h"
 621              		.section	.debug_info,"",%progbits
 622              	.Ldebug_info0:
 623 0000 4C120000 		.4byte	0x124c
 624 0004 0200     		.2byte	0x2
 625 0006 00000000 		.4byte	.Ldebug_abbrev0
 626 000a 04       		.byte	0x4
 627 000b 01       		.uleb128 0x1
 628 000c 06010000 		.4byte	.LASF224
 629 0010 01       		.byte	0x1
ARM GAS  /tmp/cckDtn2d.s 			page 13


 630 0011 34020000 		.4byte	.LASF225
 631 0015 90020000 		.4byte	.LASF226
 632 0019 00000000 		.4byte	.Ldebug_ranges0+0
 633 001d 00000000 		.4byte	0
 634 0021 00000000 		.4byte	0
 635 0025 00000000 		.4byte	.Ldebug_line0
 636 0029 02       		.uleb128 0x2
 637 002a 04       		.byte	0x4
 638 002b 04       		.byte	0x4
 639 002c C9090000 		.4byte	.LASF0
 640 0030 03       		.uleb128 0x3
 641 0031 04       		.byte	0x4
 642 0032 05       		.byte	0x5
 643 0033 696E7400 		.ascii	"int\000"
 644 0037 04       		.uleb128 0x4
 645 0038 12000000 		.4byte	.LASF3
 646 003c 02       		.byte	0x2
 647 003d D5       		.byte	0xd5
 648 003e 42000000 		.4byte	0x42
 649 0042 02       		.uleb128 0x2
 650 0043 04       		.byte	0x4
 651 0044 07       		.byte	0x7
 652 0045 82060000 		.4byte	.LASF1
 653 0049 02       		.uleb128 0x2
 654 004a 01       		.byte	0x1
 655 004b 06       		.byte	0x6
 656 004c 4E020000 		.4byte	.LASF2
 657 0050 04       		.uleb128 0x4
 658 0051 64020000 		.4byte	.LASF4
 659 0055 03       		.byte	0x3
 660 0056 2A       		.byte	0x2a
 661 0057 5B000000 		.4byte	0x5b
 662 005b 02       		.uleb128 0x2
 663 005c 01       		.byte	0x1
 664 005d 08       		.byte	0x8
 665 005e D3020000 		.4byte	.LASF5
 666 0062 02       		.uleb128 0x2
 667 0063 02       		.byte	0x2
 668 0064 05       		.byte	0x5
 669 0065 E1080000 		.4byte	.LASF6
 670 0069 04       		.uleb128 0x4
 671 006a F5070000 		.4byte	.LASF7
 672 006e 03       		.byte	0x3
 673 006f 36       		.byte	0x36
 674 0070 74000000 		.4byte	0x74
 675 0074 02       		.uleb128 0x2
 676 0075 02       		.byte	0x2
 677 0076 07       		.byte	0x7
 678 0077 FB010000 		.4byte	.LASF8
 679 007b 04       		.uleb128 0x4
 680 007c 4C000000 		.4byte	.LASF9
 681 0080 03       		.byte	0x3
 682 0081 4F       		.byte	0x4f
 683 0082 86000000 		.4byte	0x86
 684 0086 02       		.uleb128 0x2
 685 0087 04       		.byte	0x4
 686 0088 05       		.byte	0x5
ARM GAS  /tmp/cckDtn2d.s 			page 14


 687 0089 B7010000 		.4byte	.LASF10
 688 008d 04       		.uleb128 0x4
 689 008e 5E090000 		.4byte	.LASF11
 690 0092 03       		.byte	0x3
 691 0093 50       		.byte	0x50
 692 0094 98000000 		.4byte	0x98
 693 0098 02       		.uleb128 0x2
 694 0099 04       		.byte	0x4
 695 009a 07       		.byte	0x7
 696 009b 24050000 		.4byte	.LASF12
 697 009f 02       		.uleb128 0x2
 698 00a0 08       		.byte	0x8
 699 00a1 05       		.byte	0x5
 700 00a2 CD050000 		.4byte	.LASF13
 701 00a6 04       		.uleb128 0x4
 702 00a7 EB080000 		.4byte	.LASF14
 703 00ab 03       		.byte	0x3
 704 00ac 78       		.byte	0x78
 705 00ad B1000000 		.4byte	0xb1
 706 00b1 02       		.uleb128 0x2
 707 00b2 08       		.byte	0x8
 708 00b3 07       		.byte	0x7
 709 00b4 C3070000 		.4byte	.LASF15
 710 00b8 04       		.uleb128 0x4
 711 00b9 AC080000 		.4byte	.LASF16
 712 00bd 04       		.byte	0x4
 713 00be 28       		.byte	0x28
 714 00bf 50000000 		.4byte	0x50
 715 00c3 04       		.uleb128 0x4
 716 00c4 D8010000 		.4byte	.LASF17
 717 00c8 04       		.byte	0x4
 718 00c9 29       		.byte	0x29
 719 00ca 50000000 		.4byte	0x50
 720 00ce 04       		.uleb128 0x4
 721 00cf 27090000 		.4byte	.LASF18
 722 00d3 04       		.byte	0x4
 723 00d4 2A       		.byte	0x2a
 724 00d5 50000000 		.4byte	0x50
 725 00d9 04       		.uleb128 0x4
 726 00da 22080000 		.4byte	.LASF19
 727 00de 04       		.byte	0x4
 728 00df 2B       		.byte	0x2b
 729 00e0 50000000 		.4byte	0x50
 730 00e4 04       		.uleb128 0x4
 731 00e5 32000000 		.4byte	.LASF20
 732 00e9 04       		.byte	0x4
 733 00ea 2C       		.byte	0x2c
 734 00eb 8D000000 		.4byte	0x8d
 735 00ef 04       		.uleb128 0x4
 736 00f0 FE070000 		.4byte	.LASF21
 737 00f4 04       		.byte	0x4
 738 00f5 2D       		.byte	0x2d
 739 00f6 7B000000 		.4byte	0x7b
 740 00fa 04       		.uleb128 0x4
 741 00fb 2C080000 		.4byte	.LASF22
 742 00ff 04       		.byte	0x4
 743 0100 2E       		.byte	0x2e
ARM GAS  /tmp/cckDtn2d.s 			page 15


 744 0101 7B000000 		.4byte	0x7b
 745 0105 04       		.uleb128 0x4
 746 0106 6C020000 		.4byte	.LASF23
 747 010a 04       		.byte	0x4
 748 010b 2F       		.byte	0x2f
 749 010c 8D000000 		.4byte	0x8d
 750 0110 04       		.uleb128 0x4
 751 0111 C8060000 		.4byte	.LASF24
 752 0115 04       		.byte	0x4
 753 0116 30       		.byte	0x30
 754 0117 8D000000 		.4byte	0x8d
 755 011b 04       		.uleb128 0x4
 756 011c 22000000 		.4byte	.LASF25
 757 0120 04       		.byte	0x4
 758 0121 31       		.byte	0x31
 759 0122 8D000000 		.4byte	0x8d
 760 0126 04       		.uleb128 0x4
 761 0127 16090000 		.4byte	.LASF26
 762 012b 05       		.byte	0x5
 763 012c 23       		.byte	0x23
 764 012d 31010000 		.4byte	0x131
 765 0131 05       		.uleb128 0x5
 766 0132 16090000 		.4byte	.LASF26
 767 0136 4C       		.byte	0x4c
 768 0137 06       		.byte	0x6
 769 0138 57       		.byte	0x57
 770 0139 64020000 		.4byte	0x264
 771 013d 06       		.uleb128 0x6
 772 013e C0010000 		.4byte	.LASF27
 773 0142 06       		.byte	0x6
 774 0143 58       		.byte	0x58
 775 0144 89020000 		.4byte	0x289
 776 0148 02       		.byte	0x2
 777 0149 23       		.byte	0x23
 778 014a 00       		.uleb128 0
 779 014b 06       		.uleb128 0x6
 780 014c C7010000 		.4byte	.LASF28
 781 0150 06       		.byte	0x6
 782 0151 5A       		.byte	0x5a
 783 0152 89020000 		.4byte	0x289
 784 0156 02       		.byte	0x2
 785 0157 23       		.byte	0x23
 786 0158 04       		.uleb128 0x4
 787 0159 06       		.uleb128 0x6
 788 015a CA030000 		.4byte	.LASF29
 789 015e 06       		.byte	0x6
 790 015f 5C       		.byte	0x5c
 791 0160 E4000000 		.4byte	0xe4
 792 0164 02       		.byte	0x2
 793 0165 23       		.byte	0x23
 794 0166 08       		.uleb128 0x8
 795 0167 06       		.uleb128 0x6
 796 0168 2C000000 		.4byte	.LASF30
 797 016c 06       		.byte	0x6
 798 016d 5D       		.byte	0x5d
 799 016e 62030000 		.4byte	0x362
 800 0172 02       		.byte	0x2
ARM GAS  /tmp/cckDtn2d.s 			page 16


 801 0173 23       		.byte	0x23
 802 0174 0C       		.uleb128 0xc
 803 0175 06       		.uleb128 0x6
 804 0176 AF010000 		.4byte	.LASF31
 805 017a 06       		.byte	0x6
 806 017b 5F       		.byte	0x5f
 807 017c 89020000 		.4byte	0x289
 808 0180 02       		.byte	0x2
 809 0181 23       		.byte	0x23
 810 0182 10       		.uleb128 0x10
 811 0183 06       		.uleb128 0x6
 812 0184 E1070000 		.4byte	.LASF32
 813 0188 06       		.byte	0x6
 814 0189 60       		.byte	0x60
 815 018a 89020000 		.4byte	0x289
 816 018e 02       		.byte	0x2
 817 018f 23       		.byte	0x23
 818 0190 14       		.uleb128 0x14
 819 0191 06       		.uleb128 0x6
 820 0192 7E0A0000 		.4byte	.LASF33
 821 0196 06       		.byte	0x6
 822 0197 67       		.byte	0x67
 823 0198 8F040000 		.4byte	0x48f
 824 019c 02       		.byte	0x2
 825 019d 23       		.byte	0x23
 826 019e 18       		.uleb128 0x18
 827 019f 06       		.uleb128 0x6
 828 01a0 130A0000 		.4byte	.LASF34
 829 01a4 06       		.byte	0x6
 830 01a5 6D       		.byte	0x6d
 831 01a6 A1040000 		.4byte	0x4a1
 832 01aa 02       		.byte	0x2
 833 01ab 23       		.byte	0x23
 834 01ac 1C       		.uleb128 0x1c
 835 01ad 06       		.uleb128 0x6
 836 01ae C30A0000 		.4byte	.LASF35
 837 01b2 06       		.byte	0x6
 838 01b3 72       		.byte	0x72
 839 01b4 C3000000 		.4byte	0xc3
 840 01b8 02       		.byte	0x2
 841 01b9 23       		.byte	0x23
 842 01ba 20       		.uleb128 0x20
 843 01bb 06       		.uleb128 0x6
 844 01bc 70060000 		.4byte	.LASF36
 845 01c0 06       		.byte	0x6
 846 01c1 76       		.byte	0x76
 847 01c2 B8000000 		.4byte	0xb8
 848 01c6 02       		.byte	0x2
 849 01c7 23       		.byte	0x23
 850 01c8 21       		.uleb128 0x21
 851 01c9 06       		.uleb128 0x6
 852 01ca A1060000 		.4byte	.LASF37
 853 01ce 06       		.byte	0x6
 854 01cf 7B       		.byte	0x7b
 855 01d0 CE000000 		.4byte	0xce
 856 01d4 02       		.byte	0x2
 857 01d5 23       		.byte	0x23
ARM GAS  /tmp/cckDtn2d.s 			page 17


 858 01d6 22       		.uleb128 0x22
 859 01d7 06       		.uleb128 0x6
 860 01d8 5A020000 		.4byte	.LASF38
 861 01dc 06       		.byte	0x6
 862 01dd 81       		.byte	0x81
 863 01de D9000000 		.4byte	0xd9
 864 01e2 02       		.byte	0x2
 865 01e3 23       		.byte	0x23
 866 01e4 23       		.uleb128 0x23
 867 01e5 06       		.uleb128 0x6
 868 01e6 E7060000 		.4byte	.LASF39
 869 01ea 06       		.byte	0x6
 870 01eb 88       		.byte	0x88
 871 01ec 91030000 		.4byte	0x391
 872 01f0 02       		.byte	0x2
 873 01f1 23       		.byte	0x23
 874 01f2 24       		.uleb128 0x24
 875 01f3 07       		.uleb128 0x7
 876 01f4 705F7500 		.ascii	"p_u\000"
 877 01f8 06       		.byte	0x6
 878 01f9 AD       		.byte	0xad
 879 01fa 5A040000 		.4byte	0x45a
 880 01fe 02       		.byte	0x2
 881 01ff 23       		.byte	0x23
 882 0200 28       		.uleb128 0x28
 883 0201 06       		.uleb128 0x6
 884 0202 5B060000 		.4byte	.LASF40
 885 0206 06       		.byte	0x6
 886 0207 B2       		.byte	0xb2
 887 0208 B1020000 		.4byte	0x2b1
 888 020c 02       		.byte	0x2
 889 020d 23       		.byte	0x23
 890 020e 2C       		.uleb128 0x2c
 891 020f 06       		.uleb128 0x6
 892 0210 41000000 		.4byte	.LASF41
 893 0214 06       		.byte	0x6
 894 0215 B8       		.byte	0xb8
 895 0216 8F020000 		.4byte	0x28f
 896 021a 02       		.byte	0x2
 897 021b 23       		.byte	0x23
 898 021c 30       		.uleb128 0x30
 899 021d 06       		.uleb128 0x6
 900 021e B10A0000 		.4byte	.LASF42
 901 0222 06       		.byte	0x6
 902 0223 BC       		.byte	0xbc
 903 0224 EF000000 		.4byte	0xef
 904 0228 02       		.byte	0x2
 905 0229 23       		.byte	0x23
 906 022a 38       		.uleb128 0x38
 907 022b 06       		.uleb128 0x6
 908 022c BA040000 		.4byte	.LASF43
 909 0230 06       		.byte	0x6
 910 0231 C2       		.byte	0xc2
 911 0232 05010000 		.4byte	0x105
 912 0236 02       		.byte	0x2
 913 0237 23       		.byte	0x23
 914 0238 3C       		.uleb128 0x3c
ARM GAS  /tmp/cckDtn2d.s 			page 18


 915 0239 06       		.uleb128 0x6
 916 023a F1010000 		.4byte	.LASF44
 917 023e 06       		.byte	0x6
 918 023f C9       		.byte	0xc9
 919 0240 A7040000 		.4byte	0x4a7
 920 0244 02       		.byte	0x2
 921 0245 23       		.byte	0x23
 922 0246 40       		.uleb128 0x40
 923 0247 06       		.uleb128 0x6
 924 0248 4A070000 		.4byte	.LASF45
 925 024c 06       		.byte	0x6
 926 024d CD       		.byte	0xcd
 927 024e E4000000 		.4byte	0xe4
 928 0252 02       		.byte	0x2
 929 0253 23       		.byte	0x23
 930 0254 44       		.uleb128 0x44
 931 0255 06       		.uleb128 0x6
 932 0256 99060000 		.4byte	.LASF46
 933 025a 06       		.byte	0x6
 934 025b D3       		.byte	0xd3
 935 025c C7020000 		.4byte	0x2c7
 936 0260 02       		.byte	0x2
 937 0261 23       		.byte	0x23
 938 0262 48       		.uleb128 0x48
 939 0263 00       		.byte	0
 940 0264 08       		.uleb128 0x8
 941 0265 08       		.byte	0x8
 942 0266 05       		.byte	0x5
 943 0267 5A       		.byte	0x5a
 944 0268 89020000 		.4byte	0x289
 945 026c 06       		.uleb128 0x6
 946 026d C0010000 		.4byte	.LASF27
 947 0271 05       		.byte	0x5
 948 0272 5B       		.byte	0x5b
 949 0273 89020000 		.4byte	0x289
 950 0277 02       		.byte	0x2
 951 0278 23       		.byte	0x23
 952 0279 00       		.uleb128 0
 953 027a 06       		.uleb128 0x6
 954 027b C7010000 		.4byte	.LASF28
 955 027f 05       		.byte	0x5
 956 0280 5D       		.byte	0x5d
 957 0281 89020000 		.4byte	0x289
 958 0285 02       		.byte	0x2
 959 0286 23       		.byte	0x23
 960 0287 04       		.uleb128 0x4
 961 0288 00       		.byte	0
 962 0289 09       		.uleb128 0x9
 963 028a 04       		.byte	0x4
 964 028b 26010000 		.4byte	0x126
 965 028f 04       		.uleb128 0x4
 966 0290 71090000 		.4byte	.LASF47
 967 0294 05       		.byte	0x5
 968 0295 5F       		.byte	0x5f
 969 0296 64020000 		.4byte	0x264
 970 029a 08       		.uleb128 0x8
 971 029b 04       		.byte	0x4
ARM GAS  /tmp/cckDtn2d.s 			page 19


 972 029c 05       		.byte	0x5
 973 029d 64       		.byte	0x64
 974 029e B1020000 		.4byte	0x2b1
 975 02a2 06       		.uleb128 0x6
 976 02a3 C0010000 		.4byte	.LASF27
 977 02a7 05       		.byte	0x5
 978 02a8 66       		.byte	0x66
 979 02a9 89020000 		.4byte	0x289
 980 02ad 02       		.byte	0x2
 981 02ae 23       		.byte	0x23
 982 02af 00       		.uleb128 0
 983 02b0 00       		.byte	0
 984 02b1 04       		.uleb128 0x4
 985 02b2 A8060000 		.4byte	.LASF48
 986 02b6 05       		.byte	0x5
 987 02b7 69       		.byte	0x69
 988 02b8 9A020000 		.4byte	0x29a
 989 02bc 04       		.uleb128 0x4
 990 02bd 14020000 		.4byte	.LASF49
 991 02c1 07       		.byte	0x7
 992 02c2 DE       		.byte	0xde
 993 02c3 C7020000 		.4byte	0x2c7
 994 02c7 0A       		.uleb128 0xa
 995 02c8 04       		.byte	0x4
 996 02c9 04       		.uleb128 0x4
 997 02ca 2C040000 		.4byte	.LASF50
 998 02ce 07       		.byte	0x7
 999 02cf E4       		.byte	0xe4
 1000 02d0 A6000000 		.4byte	0xa6
 1001 02d4 0B       		.uleb128 0xb
 1002 02d5 A7040000 		.4byte	.LASF51
 1003 02d9 24       		.byte	0x24
 1004 02da 07       		.byte	0x7
 1005 02db 0501     		.2byte	0x105
 1006 02dd 62030000 		.4byte	0x362
 1007 02e1 0C       		.uleb128 0xc
 1008 02e2 723400   		.ascii	"r4\000"
 1009 02e5 07       		.byte	0x7
 1010 02e6 1801     		.2byte	0x118
 1011 02e8 BC020000 		.4byte	0x2bc
 1012 02ec 02       		.byte	0x2
 1013 02ed 23       		.byte	0x23
 1014 02ee 00       		.uleb128 0
 1015 02ef 0C       		.uleb128 0xc
 1016 02f0 723500   		.ascii	"r5\000"
 1017 02f3 07       		.byte	0x7
 1018 02f4 1901     		.2byte	0x119
 1019 02f6 BC020000 		.4byte	0x2bc
 1020 02fa 02       		.byte	0x2
 1021 02fb 23       		.byte	0x23
 1022 02fc 04       		.uleb128 0x4
 1023 02fd 0C       		.uleb128 0xc
 1024 02fe 723600   		.ascii	"r6\000"
 1025 0301 07       		.byte	0x7
 1026 0302 1A01     		.2byte	0x11a
 1027 0304 BC020000 		.4byte	0x2bc
 1028 0308 02       		.byte	0x2
ARM GAS  /tmp/cckDtn2d.s 			page 20


 1029 0309 23       		.byte	0x23
 1030 030a 08       		.uleb128 0x8
 1031 030b 0C       		.uleb128 0xc
 1032 030c 723700   		.ascii	"r7\000"
 1033 030f 07       		.byte	0x7
 1034 0310 1B01     		.2byte	0x11b
 1035 0312 BC020000 		.4byte	0x2bc
 1036 0316 02       		.byte	0x2
 1037 0317 23       		.byte	0x23
 1038 0318 0C       		.uleb128 0xc
 1039 0319 0C       		.uleb128 0xc
 1040 031a 723800   		.ascii	"r8\000"
 1041 031d 07       		.byte	0x7
 1042 031e 1C01     		.2byte	0x11c
 1043 0320 BC020000 		.4byte	0x2bc
 1044 0324 02       		.byte	0x2
 1045 0325 23       		.byte	0x23
 1046 0326 10       		.uleb128 0x10
 1047 0327 0C       		.uleb128 0xc
 1048 0328 723900   		.ascii	"r9\000"
 1049 032b 07       		.byte	0x7
 1050 032c 1D01     		.2byte	0x11d
 1051 032e BC020000 		.4byte	0x2bc
 1052 0332 02       		.byte	0x2
 1053 0333 23       		.byte	0x23
 1054 0334 14       		.uleb128 0x14
 1055 0335 0C       		.uleb128 0xc
 1056 0336 72313000 		.ascii	"r10\000"
 1057 033a 07       		.byte	0x7
 1058 033b 1E01     		.2byte	0x11e
 1059 033d BC020000 		.4byte	0x2bc
 1060 0341 02       		.byte	0x2
 1061 0342 23       		.byte	0x23
 1062 0343 18       		.uleb128 0x18
 1063 0344 0C       		.uleb128 0xc
 1064 0345 72313100 		.ascii	"r11\000"
 1065 0349 07       		.byte	0x7
 1066 034a 1F01     		.2byte	0x11f
 1067 034c BC020000 		.4byte	0x2bc
 1068 0350 02       		.byte	0x2
 1069 0351 23       		.byte	0x23
 1070 0352 1C       		.uleb128 0x1c
 1071 0353 0C       		.uleb128 0xc
 1072 0354 6C7200   		.ascii	"lr\000"
 1073 0357 07       		.byte	0x7
 1074 0358 2001     		.2byte	0x120
 1075 035a BC020000 		.4byte	0x2bc
 1076 035e 02       		.byte	0x2
 1077 035f 23       		.byte	0x23
 1078 0360 20       		.uleb128 0x20
 1079 0361 00       		.byte	0
 1080 0362 0B       		.uleb128 0xb
 1081 0363 78020000 		.4byte	.LASF52
 1082 0367 04       		.byte	0x4
 1083 0368 07       		.byte	0x7
 1084 0369 2A01     		.2byte	0x12a
 1085 036b 7F030000 		.4byte	0x37f
ARM GAS  /tmp/cckDtn2d.s 			page 21


 1086 036f 0C       		.uleb128 0xc
 1087 0370 72313300 		.ascii	"r13\000"
 1088 0374 07       		.byte	0x7
 1089 0375 2B01     		.2byte	0x12b
 1090 0377 7F030000 		.4byte	0x37f
 1091 037b 02       		.byte	0x2
 1092 037c 23       		.byte	0x23
 1093 037d 00       		.uleb128 0
 1094 037e 00       		.byte	0
 1095 037f 09       		.uleb128 0x9
 1096 0380 04       		.byte	0x4
 1097 0381 D4020000 		.4byte	0x2d4
 1098 0385 0D       		.uleb128 0xd
 1099 0386 8D000000 		.4byte	0x8d
 1100 038a 02       		.uleb128 0x2
 1101 038b 04       		.byte	0x4
 1102 038c 07       		.byte	0x7
 1103 038d 19000000 		.4byte	.LASF53
 1104 0391 0D       		.uleb128 0xd
 1105 0392 1B010000 		.4byte	0x11b
 1106 0396 05       		.uleb128 0x5
 1107 0397 C7050000 		.4byte	.LASF54
 1108 039b 10       		.byte	0x10
 1109 039c 08       		.byte	0x8
 1110 039d 25       		.byte	0x25
 1111 039e CD030000 		.4byte	0x3cd
 1112 03a2 06       		.uleb128 0x6
 1113 03a3 EE050000 		.4byte	.LASF55
 1114 03a7 08       		.byte	0x8
 1115 03a8 26       		.byte	0x26
 1116 03a9 8F020000 		.4byte	0x28f
 1117 03ad 02       		.byte	0x2
 1118 03ae 23       		.byte	0x23
 1119 03af 00       		.uleb128 0
 1120 03b0 06       		.uleb128 0x6
 1121 03b1 51010000 		.4byte	.LASF56
 1122 03b5 08       		.byte	0x8
 1123 03b6 28       		.byte	0x28
 1124 03b7 89020000 		.4byte	0x289
 1125 03bb 02       		.byte	0x2
 1126 03bc 23       		.byte	0x23
 1127 03bd 08       		.uleb128 0x8
 1128 03be 06       		.uleb128 0x6
 1129 03bf 850A0000 		.4byte	.LASF57
 1130 03c3 08       		.byte	0x8
 1131 03c4 2A       		.byte	0x2a
 1132 03c5 CD030000 		.4byte	0x3cd
 1133 03c9 02       		.byte	0x2
 1134 03ca 23       		.byte	0x23
 1135 03cb 0C       		.uleb128 0xc
 1136 03cc 00       		.byte	0
 1137 03cd 09       		.uleb128 0x9
 1138 03ce 04       		.byte	0x4
 1139 03cf 96030000 		.4byte	0x396
 1140 03d3 04       		.uleb128 0x4
 1141 03d4 C7050000 		.4byte	.LASF54
 1142 03d8 08       		.byte	0x8
ARM GAS  /tmp/cckDtn2d.s 			page 22


 1143 03d9 2C       		.byte	0x2c
 1144 03da 96030000 		.4byte	0x396
 1145 03de 04       		.uleb128 0x4
 1146 03df 2F090000 		.4byte	.LASF58
 1147 03e3 09       		.byte	0x9
 1148 03e4 25       		.byte	0x25
 1149 03e5 E9030000 		.4byte	0x3e9
 1150 03e9 05       		.uleb128 0x5
 1151 03ea 2F090000 		.4byte	.LASF58
 1152 03ee 10       		.byte	0x10
 1153 03ef 09       		.byte	0x9
 1154 03f0 2A       		.byte	0x2a
 1155 03f1 2E040000 		.4byte	0x42e
 1156 03f5 06       		.uleb128 0x6
 1157 03f6 48050000 		.4byte	.LASF59
 1158 03fa 09       		.byte	0x9
 1159 03fb 2B       		.byte	0x2b
 1160 03fc 2E040000 		.4byte	0x42e
 1161 0400 02       		.byte	0x2
 1162 0401 23       		.byte	0x23
 1163 0402 00       		.uleb128 0
 1164 0403 06       		.uleb128 0x6
 1165 0404 B70A0000 		.4byte	.LASF60
 1166 0408 09       		.byte	0x9
 1167 0409 2E       		.byte	0x2e
 1168 040a 89020000 		.4byte	0x289
 1169 040e 02       		.byte	0x2
 1170 040f 23       		.byte	0x23
 1171 0410 04       		.uleb128 0x4
 1172 0411 06       		.uleb128 0x6
 1173 0412 3F0A0000 		.4byte	.LASF61
 1174 0416 09       		.byte	0x9
 1175 0417 30       		.byte	0x30
 1176 0418 05010000 		.4byte	0x105
 1177 041c 02       		.byte	0x2
 1178 041d 23       		.byte	0x23
 1179 041e 08       		.uleb128 0x8
 1180 041f 06       		.uleb128 0x6
 1181 0420 D2000000 		.4byte	.LASF62
 1182 0424 09       		.byte	0x9
 1183 0425 33       		.byte	0x33
 1184 0426 10010000 		.4byte	0x110
 1185 042a 02       		.byte	0x2
 1186 042b 23       		.byte	0x23
 1187 042c 0C       		.uleb128 0xc
 1188 042d 00       		.byte	0
 1189 042e 09       		.uleb128 0x9
 1190 042f 04       		.byte	0x4
 1191 0430 DE030000 		.4byte	0x3de
 1192 0434 05       		.uleb128 0x5
 1193 0435 18050000 		.4byte	.LASF63
 1194 0439 04       		.byte	0x4
 1195 043a 09       		.byte	0x9
 1196 043b 3A       		.byte	0x3a
 1197 043c 4F040000 		.4byte	0x44f
 1198 0440 06       		.uleb128 0x6
 1199 0441 09050000 		.4byte	.LASF64
ARM GAS  /tmp/cckDtn2d.s 			page 23


 1200 0445 09       		.byte	0x9
 1201 0446 3B       		.byte	0x3b
 1202 0447 2E040000 		.4byte	0x42e
 1203 044b 02       		.byte	0x2
 1204 044c 23       		.byte	0x23
 1205 044d 00       		.uleb128 0
 1206 044e 00       		.byte	0
 1207 044f 04       		.uleb128 0x4
 1208 0450 18050000 		.4byte	.LASF63
 1209 0454 09       		.byte	0x9
 1210 0455 3E       		.byte	0x3e
 1211 0456 34040000 		.4byte	0x434
 1212 045a 0E       		.uleb128 0xe
 1213 045b 04       		.byte	0x4
 1214 045c 06       		.byte	0x6
 1215 045d 8F       		.byte	0x8f
 1216 045e 8F040000 		.4byte	0x48f
 1217 0462 0F       		.uleb128 0xf
 1218 0463 B2090000 		.4byte	.LASF65
 1219 0467 06       		.byte	0x6
 1220 0468 96       		.byte	0x96
 1221 0469 EF000000 		.4byte	0xef
 1222 046d 0F       		.uleb128 0xf
 1223 046e 59010000 		.4byte	.LASF66
 1224 0472 06       		.byte	0x6
 1225 0473 9D       		.byte	0x9d
 1226 0474 EF000000 		.4byte	0xef
 1227 0478 0F       		.uleb128 0xf
 1228 0479 E5030000 		.4byte	.LASF67
 1229 047d 06       		.byte	0x6
 1230 047e A4       		.byte	0xa4
 1231 047f C7020000 		.4byte	0x2c7
 1232 0483 0F       		.uleb128 0xf
 1233 0484 6C010000 		.4byte	.LASF68
 1234 0488 06       		.byte	0x6
 1235 0489 AB       		.byte	0xab
 1236 048a 05010000 		.4byte	0x105
 1237 048e 00       		.byte	0
 1238 048f 09       		.uleb128 0x9
 1239 0490 04       		.byte	0x4
 1240 0491 95040000 		.4byte	0x495
 1241 0495 10       		.uleb128 0x10
 1242 0496 9A040000 		.4byte	0x49a
 1243 049a 02       		.uleb128 0x2
 1244 049b 01       		.byte	0x1
 1245 049c 08       		.byte	0x8
 1246 049d 9C030000 		.4byte	.LASF69
 1247 04a1 09       		.uleb128 0x9
 1248 04a2 04       		.byte	0x4
 1249 04a3 C9020000 		.4byte	0x2c9
 1250 04a7 09       		.uleb128 0x9
 1251 04a8 04       		.byte	0x4
 1252 04a9 D3030000 		.4byte	0x3d3
 1253 04ad 09       		.uleb128 0x9
 1254 04ae 04       		.byte	0x4
 1255 04af 50000000 		.4byte	0x50
 1256 04b3 09       		.uleb128 0x9
ARM GAS  /tmp/cckDtn2d.s 			page 24


 1257 04b4 04       		.byte	0x4
 1258 04b5 B9040000 		.4byte	0x4b9
 1259 04b9 10       		.uleb128 0x10
 1260 04ba 50000000 		.4byte	0x50
 1261 04be 0D       		.uleb128 0xd
 1262 04bf 69000000 		.4byte	0x69
 1263 04c3 0D       		.uleb128 0xd
 1264 04c4 7B000000 		.4byte	0x7b
 1265 04c8 11       		.uleb128 0x11
 1266 04c9 18       		.byte	0x18
 1267 04ca 0A       		.byte	0xa
 1268 04cb D301     		.2byte	0x1d3
 1269 04cd 2B050000 		.4byte	0x52b
 1270 04d1 0C       		.uleb128 0xc
 1271 04d2 435200   		.ascii	"CR\000"
 1272 04d5 0A       		.byte	0xa
 1273 04d6 D501     		.2byte	0x1d5
 1274 04d8 85030000 		.4byte	0x385
 1275 04dc 02       		.byte	0x2
 1276 04dd 23       		.byte	0x23
 1277 04de 00       		.uleb128 0
 1278 04df 12       		.uleb128 0x12
 1279 04e0 3A0A0000 		.4byte	.LASF70
 1280 04e4 0A       		.byte	0xa
 1281 04e5 D601     		.2byte	0x1d6
 1282 04e7 85030000 		.4byte	0x385
 1283 04eb 02       		.byte	0x2
 1284 04ec 23       		.byte	0x23
 1285 04ed 04       		.uleb128 0x4
 1286 04ee 0C       		.uleb128 0xc
 1287 04ef 50415200 		.ascii	"PAR\000"
 1288 04f3 0A       		.byte	0xa
 1289 04f4 D701     		.2byte	0x1d7
 1290 04f6 85030000 		.4byte	0x385
 1291 04fa 02       		.byte	0x2
 1292 04fb 23       		.byte	0x23
 1293 04fc 08       		.uleb128 0x8
 1294 04fd 12       		.uleb128 0x12
 1295 04fe C5080000 		.4byte	.LASF71
 1296 0502 0A       		.byte	0xa
 1297 0503 D801     		.2byte	0x1d8
 1298 0505 85030000 		.4byte	0x385
 1299 0509 02       		.byte	0x2
 1300 050a 23       		.byte	0x23
 1301 050b 0C       		.uleb128 0xc
 1302 050c 12       		.uleb128 0x12
 1303 050d 00000000 		.4byte	.LASF72
 1304 0511 0A       		.byte	0xa
 1305 0512 D901     		.2byte	0x1d9
 1306 0514 85030000 		.4byte	0x385
 1307 0518 02       		.byte	0x2
 1308 0519 23       		.byte	0x23
 1309 051a 10       		.uleb128 0x10
 1310 051b 0C       		.uleb128 0xc
 1311 051c 46435200 		.ascii	"FCR\000"
 1312 0520 0A       		.byte	0xa
 1313 0521 DA01     		.2byte	0x1da
ARM GAS  /tmp/cckDtn2d.s 			page 25


 1314 0523 85030000 		.4byte	0x385
 1315 0527 02       		.byte	0x2
 1316 0528 23       		.byte	0x23
 1317 0529 14       		.uleb128 0x14
 1318 052a 00       		.byte	0
 1319 052b 13       		.uleb128 0x13
 1320 052c D4060000 		.4byte	.LASF73
 1321 0530 0A       		.byte	0xa
 1322 0531 DB01     		.2byte	0x1db
 1323 0533 C8040000 		.4byte	0x4c8
 1324 0537 11       		.uleb128 0x11
 1325 0538 24       		.byte	0x24
 1326 0539 0A       		.byte	0xa
 1327 053a AB02     		.2byte	0x2ab
 1328 053c 4E060000 		.4byte	0x64e
 1329 0540 0C       		.uleb128 0xc
 1330 0541 43523100 		.ascii	"CR1\000"
 1331 0545 0A       		.byte	0xa
 1332 0546 AD02     		.2byte	0x2ad
 1333 0548 BE040000 		.4byte	0x4be
 1334 054c 02       		.byte	0x2
 1335 054d 23       		.byte	0x23
 1336 054e 00       		.uleb128 0
 1337 054f 12       		.uleb128 0x12
 1338 0550 BF020000 		.4byte	.LASF74
 1339 0554 0A       		.byte	0xa
 1340 0555 AE02     		.2byte	0x2ae
 1341 0557 69000000 		.4byte	0x69
 1342 055b 02       		.byte	0x2
 1343 055c 23       		.byte	0x23
 1344 055d 02       		.uleb128 0x2
 1345 055e 0C       		.uleb128 0xc
 1346 055f 43523200 		.ascii	"CR2\000"
 1347 0563 0A       		.byte	0xa
 1348 0564 AF02     		.2byte	0x2af
 1349 0566 BE040000 		.4byte	0x4be
 1350 056a 02       		.byte	0x2
 1351 056b 23       		.byte	0x23
 1352 056c 04       		.uleb128 0x4
 1353 056d 12       		.uleb128 0x12
 1354 056e C9020000 		.4byte	.LASF75
 1355 0572 0A       		.byte	0xa
 1356 0573 B002     		.2byte	0x2b0
 1357 0575 69000000 		.4byte	0x69
 1358 0579 02       		.byte	0x2
 1359 057a 23       		.byte	0x23
 1360 057b 06       		.uleb128 0x6
 1361 057c 12       		.uleb128 0x12
 1362 057d B4080000 		.4byte	.LASF76
 1363 0581 0A       		.byte	0xa
 1364 0582 B102     		.2byte	0x2b1
 1365 0584 BE040000 		.4byte	0x4be
 1366 0588 02       		.byte	0x2
 1367 0589 23       		.byte	0x23
 1368 058a 08       		.uleb128 0x8
 1369 058b 12       		.uleb128 0x12
 1370 058c 7B030000 		.4byte	.LASF77
ARM GAS  /tmp/cckDtn2d.s 			page 26


 1371 0590 0A       		.byte	0xa
 1372 0591 B202     		.2byte	0x2b2
 1373 0593 69000000 		.4byte	0x69
 1374 0597 02       		.byte	0x2
 1375 0598 23       		.byte	0x23
 1376 0599 0A       		.uleb128 0xa
 1377 059a 12       		.uleb128 0x12
 1378 059b B9080000 		.4byte	.LASF78
 1379 059f 0A       		.byte	0xa
 1380 05a0 B302     		.2byte	0x2b3
 1381 05a2 BE040000 		.4byte	0x4be
 1382 05a6 02       		.byte	0x2
 1383 05a7 23       		.byte	0x23
 1384 05a8 0C       		.uleb128 0xc
 1385 05a9 12       		.uleb128 0x12
 1386 05aa E1020000 		.4byte	.LASF79
 1387 05ae 0A       		.byte	0xa
 1388 05af B402     		.2byte	0x2b4
 1389 05b1 69000000 		.4byte	0x69
 1390 05b5 02       		.byte	0x2
 1391 05b6 23       		.byte	0x23
 1392 05b7 0E       		.uleb128 0xe
 1393 05b8 0C       		.uleb128 0xc
 1394 05b9 445200   		.ascii	"DR\000"
 1395 05bc 0A       		.byte	0xa
 1396 05bd B502     		.2byte	0x2b5
 1397 05bf BE040000 		.4byte	0x4be
 1398 05c3 02       		.byte	0x2
 1399 05c4 23       		.byte	0x23
 1400 05c5 10       		.uleb128 0x10
 1401 05c6 12       		.uleb128 0x12
 1402 05c7 EB020000 		.4byte	.LASF80
 1403 05cb 0A       		.byte	0xa
 1404 05cc B602     		.2byte	0x2b6
 1405 05ce 69000000 		.4byte	0x69
 1406 05d2 02       		.byte	0x2
 1407 05d3 23       		.byte	0x23
 1408 05d4 12       		.uleb128 0x12
 1409 05d5 0C       		.uleb128 0xc
 1410 05d6 53523100 		.ascii	"SR1\000"
 1411 05da 0A       		.byte	0xa
 1412 05db B702     		.2byte	0x2b7
 1413 05dd BE040000 		.4byte	0x4be
 1414 05e1 02       		.byte	0x2
 1415 05e2 23       		.byte	0x23
 1416 05e3 14       		.uleb128 0x14
 1417 05e4 12       		.uleb128 0x12
 1418 05e5 F5020000 		.4byte	.LASF81
 1419 05e9 0A       		.byte	0xa
 1420 05ea B802     		.2byte	0x2b8
 1421 05ec 69000000 		.4byte	0x69
 1422 05f0 02       		.byte	0x2
 1423 05f1 23       		.byte	0x23
 1424 05f2 16       		.uleb128 0x16
 1425 05f3 0C       		.uleb128 0xc
 1426 05f4 53523200 		.ascii	"SR2\000"
 1427 05f8 0A       		.byte	0xa
ARM GAS  /tmp/cckDtn2d.s 			page 27


 1428 05f9 B902     		.2byte	0x2b9
 1429 05fb BE040000 		.4byte	0x4be
 1430 05ff 02       		.byte	0x2
 1431 0600 23       		.byte	0x23
 1432 0601 18       		.uleb128 0x18
 1433 0602 12       		.uleb128 0x12
 1434 0603 FF020000 		.4byte	.LASF82
 1435 0607 0A       		.byte	0xa
 1436 0608 BA02     		.2byte	0x2ba
 1437 060a 69000000 		.4byte	0x69
 1438 060e 02       		.byte	0x2
 1439 060f 23       		.byte	0x23
 1440 0610 1A       		.uleb128 0x1a
 1441 0611 0C       		.uleb128 0xc
 1442 0612 43435200 		.ascii	"CCR\000"
 1443 0616 0A       		.byte	0xa
 1444 0617 BB02     		.2byte	0x2bb
 1445 0619 BE040000 		.4byte	0x4be
 1446 061d 02       		.byte	0x2
 1447 061e 23       		.byte	0x23
 1448 061f 1C       		.uleb128 0x1c
 1449 0620 12       		.uleb128 0x12
 1450 0621 09030000 		.4byte	.LASF83
 1451 0625 0A       		.byte	0xa
 1452 0626 BC02     		.2byte	0x2bc
 1453 0628 69000000 		.4byte	0x69
 1454 062c 02       		.byte	0x2
 1455 062d 23       		.byte	0x23
 1456 062e 1E       		.uleb128 0x1e
 1457 062f 12       		.uleb128 0x12
 1458 0630 68050000 		.4byte	.LASF84
 1459 0634 0A       		.byte	0xa
 1460 0635 BD02     		.2byte	0x2bd
 1461 0637 BE040000 		.4byte	0x4be
 1462 063b 02       		.byte	0x2
 1463 063c 23       		.byte	0x23
 1464 063d 20       		.uleb128 0x20
 1465 063e 12       		.uleb128 0x12
 1466 063f 13030000 		.4byte	.LASF85
 1467 0643 0A       		.byte	0xa
 1468 0644 BE02     		.2byte	0x2be
 1469 0646 69000000 		.4byte	0x69
 1470 064a 02       		.byte	0x2
 1471 064b 23       		.byte	0x23
 1472 064c 22       		.uleb128 0x22
 1473 064d 00       		.byte	0
 1474 064e 13       		.uleb128 0x13
 1475 064f 46080000 		.4byte	.LASF86
 1476 0653 0A       		.byte	0xa
 1477 0654 BF02     		.2byte	0x2bf
 1478 0656 37050000 		.4byte	0x537
 1479 065a 08       		.uleb128 0x8
 1480 065b 0C       		.byte	0xc
 1481 065c 0B       		.byte	0xb
 1482 065d DE       		.byte	0xde
 1483 065e A9060000 		.4byte	0x6a9
 1484 0662 06       		.uleb128 0x6
ARM GAS  /tmp/cckDtn2d.s 			page 28


 1485 0663 68040000 		.4byte	.LASF87
 1486 0667 0B       		.byte	0xb
 1487 0668 DF       		.byte	0xdf
 1488 0669 A9060000 		.4byte	0x6a9
 1489 066d 02       		.byte	0x2
 1490 066e 23       		.byte	0x23
 1491 066f 00       		.uleb128 0
 1492 0670 06       		.uleb128 0x6
 1493 0671 470A0000 		.4byte	.LASF88
 1494 0675 0B       		.byte	0xb
 1495 0676 E0       		.byte	0xe0
 1496 0677 AF060000 		.4byte	0x6af
 1497 067b 02       		.byte	0x2
 1498 067c 23       		.byte	0x23
 1499 067d 04       		.uleb128 0x4
 1500 067e 06       		.uleb128 0x6
 1501 067f C3030000 		.4byte	.LASF89
 1502 0683 0B       		.byte	0xb
 1503 0684 E1       		.byte	0xe1
 1504 0685 50000000 		.4byte	0x50
 1505 0689 02       		.byte	0x2
 1506 068a 23       		.byte	0x23
 1507 068b 08       		.uleb128 0x8
 1508 068c 06       		.uleb128 0x6
 1509 068d 78060000 		.4byte	.LASF90
 1510 0691 0B       		.byte	0xb
 1511 0692 E3       		.byte	0xe3
 1512 0693 50000000 		.4byte	0x50
 1513 0697 02       		.byte	0x2
 1514 0698 23       		.byte	0x23
 1515 0699 09       		.uleb128 0x9
 1516 069a 06       		.uleb128 0x6
 1517 069b 3F080000 		.4byte	.LASF91
 1518 069f 0B       		.byte	0xb
 1519 06a0 E4       		.byte	0xe4
 1520 06a1 50000000 		.4byte	0x50
 1521 06a5 02       		.byte	0x2
 1522 06a6 23       		.byte	0x23
 1523 06a7 0A       		.uleb128 0xa
 1524 06a8 00       		.byte	0
 1525 06a9 09       		.uleb128 0x9
 1526 06aa 04       		.byte	0x4
 1527 06ab 2B050000 		.4byte	0x52b
 1528 06af 09       		.uleb128 0x9
 1529 06b0 04       		.byte	0x4
 1530 06b1 85030000 		.4byte	0x385
 1531 06b5 04       		.uleb128 0x4
 1532 06b6 88050000 		.4byte	.LASF92
 1533 06ba 0B       		.byte	0xb
 1534 06bb E5       		.byte	0xe5
 1535 06bc 5A060000 		.4byte	0x65a
 1536 06c0 14       		.uleb128 0x14
 1537 06c1 01       		.byte	0x1
 1538 06c2 0C       		.byte	0xc
 1539 06c3 54       		.byte	0x54
 1540 06c4 ED060000 		.4byte	0x6ed
 1541 06c8 15       		.uleb128 0x15
ARM GAS  /tmp/cckDtn2d.s 			page 29


 1542 06c9 DB050000 		.4byte	.LASF93
 1543 06cd 00       		.sleb128 0
 1544 06ce 15       		.uleb128 0x15
 1545 06cf 750A0000 		.4byte	.LASF94
 1546 06d3 01       		.sleb128 1
 1547 06d4 15       		.uleb128 0x15
 1548 06d5 BE060000 		.4byte	.LASF95
 1549 06d9 02       		.sleb128 2
 1550 06da 15       		.uleb128 0x15
 1551 06db 41040000 		.4byte	.LASF96
 1552 06df 03       		.sleb128 3
 1553 06e0 15       		.uleb128 0x15
 1554 06e1 43030000 		.4byte	.LASF97
 1555 06e5 04       		.sleb128 4
 1556 06e6 15       		.uleb128 0x15
 1557 06e7 D5040000 		.4byte	.LASF98
 1558 06eb 05       		.sleb128 5
 1559 06ec 00       		.byte	0
 1560 06ed 04       		.uleb128 0x4
 1561 06ee 35060000 		.4byte	.LASF99
 1562 06f2 0C       		.byte	0xc
 1563 06f3 5B       		.byte	0x5b
 1564 06f4 C0060000 		.4byte	0x6c0
 1565 06f8 13       		.uleb128 0x13
 1566 06f9 62010000 		.4byte	.LASF100
 1567 06fd 0D       		.byte	0xd
 1568 06fe 3901     		.2byte	0x139
 1569 0700 69000000 		.4byte	0x69
 1570 0704 13       		.uleb128 0x13
 1571 0705 9D090000 		.4byte	.LASF101
 1572 0709 0D       		.byte	0xd
 1573 070a 3E01     		.2byte	0x13e
 1574 070c 8D000000 		.4byte	0x8d
 1575 0710 16       		.uleb128 0x16
 1576 0711 01       		.byte	0x1
 1577 0712 0D       		.byte	0xd
 1578 0713 4301     		.2byte	0x143
 1579 0715 2C070000 		.4byte	0x72c
 1580 0719 15       		.uleb128 0x15
 1581 071a 91030000 		.4byte	.LASF102
 1582 071e 01       		.sleb128 1
 1583 071f 15       		.uleb128 0x15
 1584 0720 04080000 		.4byte	.LASF103
 1585 0724 02       		.sleb128 2
 1586 0725 15       		.uleb128 0x15
 1587 0726 FE080000 		.4byte	.LASF104
 1588 072a 03       		.sleb128 3
 1589 072b 00       		.byte	0
 1590 072c 13       		.uleb128 0x13
 1591 072d E9070000 		.4byte	.LASF105
 1592 0731 0D       		.byte	0xd
 1593 0732 4701     		.2byte	0x147
 1594 0734 10070000 		.4byte	0x710
 1595 0738 16       		.uleb128 0x16
 1596 0739 01       		.byte	0x1
 1597 073a 0D       		.byte	0xd
 1598 073b 4C01     		.2byte	0x14c
ARM GAS  /tmp/cckDtn2d.s 			page 30


 1599 073d 54070000 		.4byte	0x754
 1600 0741 15       		.uleb128 0x15
 1601 0742 52080000 		.4byte	.LASF106
 1602 0746 01       		.sleb128 1
 1603 0747 15       		.uleb128 0x15
 1604 0748 5D000000 		.4byte	.LASF107
 1605 074c 02       		.sleb128 2
 1606 074d 15       		.uleb128 0x15
 1607 074e 2C070000 		.4byte	.LASF108
 1608 0752 03       		.sleb128 3
 1609 0753 00       		.byte	0
 1610 0754 13       		.uleb128 0x13
 1611 0755 7D010000 		.4byte	.LASF109
 1612 0759 0D       		.byte	0xd
 1613 075a 5001     		.2byte	0x150
 1614 075c 38070000 		.4byte	0x738
 1615 0760 11       		.uleb128 0x11
 1616 0761 0C       		.byte	0xc
 1617 0762 0D       		.byte	0xd
 1618 0763 5501     		.2byte	0x155
 1619 0765 97070000 		.4byte	0x797
 1620 0769 12       		.uleb128 0x12
 1621 076a 3D090000 		.4byte	.LASF110
 1622 076e 0D       		.byte	0xd
 1623 076f 5601     		.2byte	0x156
 1624 0771 2C070000 		.4byte	0x72c
 1625 0775 02       		.byte	0x2
 1626 0776 23       		.byte	0x23
 1627 0777 00       		.uleb128 0
 1628 0778 12       		.uleb128 0x12
 1629 0779 D9090000 		.4byte	.LASF111
 1630 077d 0D       		.byte	0xd
 1631 077e 5701     		.2byte	0x157
 1632 0780 8D000000 		.4byte	0x8d
 1633 0784 02       		.byte	0x2
 1634 0785 23       		.byte	0x23
 1635 0786 04       		.uleb128 0x4
 1636 0787 12       		.uleb128 0x12
 1637 0788 E0040000 		.4byte	.LASF112
 1638 078c 0D       		.byte	0xd
 1639 078d 5A01     		.2byte	0x15a
 1640 078f 54070000 		.4byte	0x754
 1641 0793 02       		.byte	0x2
 1642 0794 23       		.byte	0x23
 1643 0795 08       		.uleb128 0x8
 1644 0796 00       		.byte	0
 1645 0797 13       		.uleb128 0x13
 1646 0798 68070000 		.4byte	.LASF113
 1647 079c 0D       		.byte	0xd
 1648 079d 5C01     		.2byte	0x15c
 1649 079f 60070000 		.4byte	0x760
 1650 07a3 13       		.uleb128 0x13
 1651 07a4 FF040000 		.4byte	.LASF114
 1652 07a8 0D       		.byte	0xd
 1653 07a9 6101     		.2byte	0x161
 1654 07ab AF070000 		.4byte	0x7af
 1655 07af 0B       		.uleb128 0xb
ARM GAS  /tmp/cckDtn2d.s 			page 31


 1656 07b0 FF040000 		.4byte	.LASF114
 1657 07b4 34       		.byte	0x34
 1658 07b5 0D       		.byte	0xd
 1659 07b6 6601     		.2byte	0x166
 1660 07b8 53080000 		.4byte	0x853
 1661 07bc 12       		.uleb128 0x12
 1662 07bd 00010000 		.4byte	.LASF115
 1663 07c1 0D       		.byte	0xd
 1664 07c2 6A01     		.2byte	0x16a
 1665 07c4 ED060000 		.4byte	0x6ed
 1666 07c8 02       		.byte	0x2
 1667 07c9 23       		.byte	0x23
 1668 07ca 00       		.uleb128 0
 1669 07cb 12       		.uleb128 0x12
 1670 07cc F9000000 		.4byte	.LASF116
 1671 07d0 0D       		.byte	0xd
 1672 07d1 6E01     		.2byte	0x16e
 1673 07d3 53080000 		.4byte	0x853
 1674 07d7 02       		.byte	0x2
 1675 07d8 23       		.byte	0x23
 1676 07d9 04       		.uleb128 0x4
 1677 07da 12       		.uleb128 0x12
 1678 07db 13040000 		.4byte	.LASF117
 1679 07df 0D       		.byte	0xd
 1680 07e0 7201     		.2byte	0x172
 1681 07e2 04070000 		.4byte	0x704
 1682 07e6 02       		.byte	0x2
 1683 07e7 23       		.byte	0x23
 1684 07e8 08       		.uleb128 0x8
 1685 07e9 12       		.uleb128 0x12
 1686 07ea 40060000 		.4byte	.LASF118
 1687 07ee 0D       		.byte	0xd
 1688 07ef 7801     		.2byte	0x178
 1689 07f1 D3030000 		.4byte	0x3d3
 1690 07f5 02       		.byte	0x2
 1691 07f6 23       		.byte	0x23
 1692 07f7 0C       		.uleb128 0xc
 1693 07f8 12       		.uleb128 0x12
 1694 07f9 BE080000 		.4byte	.LASF119
 1695 07fd 0D       		.byte	0xd
 1696 07fe 8401     		.2byte	0x184
 1697 0800 89020000 		.4byte	0x289
 1698 0804 02       		.byte	0x2
 1699 0805 23       		.byte	0x23
 1700 0806 1C       		.uleb128 0x1c
 1701 0807 12       		.uleb128 0x12
 1702 0808 65060000 		.4byte	.LASF120
 1703 080c 0D       		.byte	0xd
 1704 080d 8801     		.2byte	0x188
 1705 080f F8060000 		.4byte	0x6f8
 1706 0813 02       		.byte	0x2
 1707 0814 23       		.byte	0x23
 1708 0815 20       		.uleb128 0x20
 1709 0816 12       		.uleb128 0x12
 1710 0817 53060000 		.4byte	.LASF121
 1711 081b 0D       		.byte	0xd
 1712 081c 8C01     		.2byte	0x18c
ARM GAS  /tmp/cckDtn2d.s 			page 32


 1713 081e 8D000000 		.4byte	0x8d
 1714 0822 02       		.byte	0x2
 1715 0823 23       		.byte	0x23
 1716 0824 24       		.uleb128 0x24
 1717 0825 12       		.uleb128 0x12
 1718 0826 C1050000 		.4byte	.LASF122
 1719 082a 0D       		.byte	0xd
 1720 082b 9001     		.2byte	0x190
 1721 082d 5E080000 		.4byte	0x85e
 1722 0831 02       		.byte	0x2
 1723 0832 23       		.byte	0x23
 1724 0833 28       		.uleb128 0x28
 1725 0834 12       		.uleb128 0x12
 1726 0835 6A060000 		.4byte	.LASF123
 1727 0839 0D       		.byte	0xd
 1728 083a 9401     		.2byte	0x194
 1729 083c 5E080000 		.4byte	0x85e
 1730 0840 02       		.byte	0x2
 1731 0841 23       		.byte	0x23
 1732 0842 2C       		.uleb128 0x2c
 1733 0843 0C       		.uleb128 0xc
 1734 0844 69326300 		.ascii	"i2c\000"
 1735 0848 0D       		.byte	0xd
 1736 0849 9801     		.2byte	0x198
 1737 084b 69080000 		.4byte	0x869
 1738 084f 02       		.byte	0x2
 1739 0850 23       		.byte	0x23
 1740 0851 30       		.uleb128 0x30
 1741 0852 00       		.byte	0
 1742 0853 09       		.uleb128 0x9
 1743 0854 04       		.byte	0x4
 1744 0855 59080000 		.4byte	0x859
 1745 0859 10       		.uleb128 0x10
 1746 085a 97070000 		.4byte	0x797
 1747 085e 09       		.uleb128 0x9
 1748 085f 04       		.byte	0x4
 1749 0860 64080000 		.4byte	0x864
 1750 0864 10       		.uleb128 0x10
 1751 0865 B5060000 		.4byte	0x6b5
 1752 0869 09       		.uleb128 0x9
 1753 086a 04       		.byte	0x4
 1754 086b 4E060000 		.4byte	0x64e
 1755 086f 04       		.uleb128 0x4
 1756 0870 55070000 		.4byte	.LASF124
 1757 0874 0E       		.byte	0xe
 1758 0875 1A       		.byte	0x1a
 1759 0876 50000000 		.4byte	0x50
 1760 087a 04       		.uleb128 0x4
 1761 087b 26010000 		.4byte	.LASF125
 1762 087f 0E       		.byte	0xe
 1763 0880 1B       		.byte	0x1b
 1764 0881 50000000 		.4byte	0x50
 1765 0885 05       		.uleb128 0x5
 1766 0886 9A070000 		.4byte	.LASF126
 1767 088a 08       		.byte	0x8
 1768 088b 0E       		.byte	0xe
 1769 088c 33       		.byte	0x33
ARM GAS  /tmp/cckDtn2d.s 			page 33


 1770 088d AE080000 		.4byte	0x8ae
 1771 0891 06       		.uleb128 0x6
 1772 0892 8F070000 		.4byte	.LASF127
 1773 0896 0E       		.byte	0xe
 1774 0897 34       		.byte	0x34
 1775 0898 8F040000 		.4byte	0x48f
 1776 089c 02       		.byte	0x2
 1777 089d 23       		.byte	0x23
 1778 089e 00       		.uleb128 0
 1779 089f 06       		.uleb128 0x6
 1780 08a0 05000000 		.4byte	.LASF128
 1781 08a4 0E       		.byte	0xe
 1782 08a5 35       		.byte	0x35
 1783 08a6 30000000 		.4byte	0x30
 1784 08aa 02       		.byte	0x2
 1785 08ab 23       		.byte	0x23
 1786 08ac 04       		.uleb128 0x4
 1787 08ad 00       		.byte	0
 1788 08ae 04       		.uleb128 0x4
 1789 08af 9A070000 		.4byte	.LASF126
 1790 08b3 0E       		.byte	0xe
 1791 08b4 36       		.byte	0x36
 1792 08b5 85080000 		.4byte	0x885
 1793 08b9 14       		.uleb128 0x14
 1794 08ba 01       		.byte	0x1
 1795 08bb 0E       		.byte	0xe
 1796 08bc 44       		.byte	0x44
 1797 08bd 2E090000 		.4byte	0x92e
 1798 08c1 15       		.uleb128 0x15
 1799 08c2 E5090000 		.4byte	.LASF129
 1800 08c6 00       		.sleb128 0
 1801 08c7 15       		.uleb128 0x15
 1802 08c8 83000000 		.4byte	.LASF130
 1803 08cc 01       		.sleb128 1
 1804 08cd 15       		.uleb128 0x15
 1805 08ce 8C0A0000 		.4byte	.LASF131
 1806 08d2 02       		.sleb128 2
 1807 08d3 15       		.uleb128 0x15
 1808 08d4 BA030000 		.4byte	.LASF132
 1809 08d8 03       		.sleb128 3
 1810 08d9 15       		.uleb128 0x15
 1811 08da A1030000 		.4byte	.LASF133
 1812 08de 04       		.sleb128 4
 1813 08df 15       		.uleb128 0x15
 1814 08e0 23040000 		.4byte	.LASF134
 1815 08e4 05       		.sleb128 5
 1816 08e5 15       		.uleb128 0x15
 1817 08e6 1A040000 		.4byte	.LASF135
 1818 08ea 06       		.sleb128 6
 1819 08eb 15       		.uleb128 0x15
 1820 08ec 82040000 		.4byte	.LASF136
 1821 08f0 07       		.sleb128 7
 1822 08f1 15       		.uleb128 0x15
 1823 08f2 79040000 		.4byte	.LASF137
 1824 08f6 08       		.sleb128 8
 1825 08f7 15       		.uleb128 0x15
 1826 08f8 9A0A0000 		.4byte	.LASF138
ARM GAS  /tmp/cckDtn2d.s 			page 34


 1827 08fc 09       		.sleb128 9
 1828 08fd 15       		.uleb128 0x15
 1829 08fe 67090000 		.4byte	.LASF139
 1830 0902 0A       		.sleb128 10
 1831 0903 15       		.uleb128 0x15
 1832 0904 45090000 		.4byte	.LASF140
 1833 0908 0C       		.sleb128 12
 1834 0909 15       		.uleb128 0x15
 1835 090a 0A060000 		.4byte	.LASF141
 1836 090e 0D       		.sleb128 13
 1837 090f 15       		.uleb128 0x15
 1838 0910 13060000 		.4byte	.LASF142
 1839 0914 0E       		.sleb128 14
 1840 0915 15       		.uleb128 0x15
 1841 0916 8C010000 		.4byte	.LASF143
 1842 091a 0F       		.sleb128 15
 1843 091b 15       		.uleb128 0x15
 1844 091c CF090000 		.4byte	.LASF144
 1845 0920 10       		.sleb128 16
 1846 0921 15       		.uleb128 0x15
 1847 0922 D1030000 		.4byte	.LASF145
 1848 0926 11       		.sleb128 17
 1849 0927 15       		.uleb128 0x15
 1850 0928 DB030000 		.4byte	.LASF146
 1851 092c 12       		.sleb128 18
 1852 092d 00       		.byte	0
 1853 092e 04       		.uleb128 0x4
 1854 092f 78070000 		.4byte	.LASF147
 1855 0933 0E       		.byte	0xe
 1856 0934 58       		.byte	0x58
 1857 0935 B9080000 		.4byte	0x8b9
 1858 0939 14       		.uleb128 0x14
 1859 093a 01       		.byte	0x1
 1860 093b 0E       		.byte	0xe
 1861 093c 60       		.byte	0x60
 1862 093d 5D0A0000 		.4byte	0xa5d
 1863 0941 15       		.uleb128 0x15
 1864 0942 89080000 		.4byte	.LASF148
 1865 0946 00       		.sleb128 0
 1866 0947 15       		.uleb128 0x15
 1867 0948 6F040000 		.4byte	.LASF149
 1868 094c 01       		.sleb128 1
 1869 094d 15       		.uleb128 0x15
 1870 094e 37040000 		.4byte	.LASF150
 1871 0952 02       		.sleb128 2
 1872 0953 15       		.uleb128 0x15
 1873 0954 73010000 		.4byte	.LASF151
 1874 0958 03       		.sleb128 3
 1875 0959 15       		.uleb128 0x15
 1876 095a 18080000 		.4byte	.LASF152
 1877 095e 04       		.sleb128 4
 1878 095f 15       		.uleb128 0x15
 1879 0960 00060000 		.4byte	.LASF153
 1880 0964 05       		.sleb128 5
 1881 0965 15       		.uleb128 0x15
 1882 0966 8F060000 		.4byte	.LASF154
 1883 096a 06       		.sleb128 6
ARM GAS  /tmp/cckDtn2d.s 			page 35


 1884 096b 15       		.uleb128 0x15
 1885 096c 25060000 		.4byte	.LASF155
 1886 0970 07       		.sleb128 7
 1887 0971 15       		.uleb128 0x15
 1888 0972 39010000 		.4byte	.LASF156
 1889 0976 08       		.sleb128 8
 1890 0977 15       		.uleb128 0x15
 1891 0978 B9090000 		.4byte	.LASF157
 1892 097c 09       		.sleb128 9
 1893 097d 15       		.uleb128 0x15
 1894 097e C5040000 		.4byte	.LASF158
 1895 0982 0A       		.sleb128 10
 1896 0983 15       		.uleb128 0x15
 1897 0984 E1010000 		.4byte	.LASF159
 1898 0988 0B       		.sleb128 11
 1899 0989 15       		.uleb128 0x15
 1900 098a 41070000 		.4byte	.LASF160
 1901 098e 0C       		.sleb128 12
 1902 098f 15       		.uleb128 0x15
 1903 0990 CA080000 		.4byte	.LASF161
 1904 0994 0D       		.sleb128 13
 1905 0995 15       		.uleb128 0x15
 1906 0996 11050000 		.4byte	.LASF162
 1907 099a 0E       		.sleb128 14
 1908 099b 15       		.uleb128 0x15
 1909 099c E6050000 		.4byte	.LASF163
 1910 09a0 0F       		.sleb128 15
 1911 09a1 15       		.uleb128 0x15
 1912 09a2 A80A0000 		.4byte	.LASF164
 1913 09a6 10       		.sleb128 16
 1914 09a7 15       		.uleb128 0x15
 1915 09a8 B4050000 		.4byte	.LASF165
 1916 09ac 11       		.sleb128 17
 1917 09ad 15       		.uleb128 0x15
 1918 09ae 3D050000 		.4byte	.LASF166
 1919 09b2 12       		.sleb128 18
 1920 09b3 15       		.uleb128 0x15
 1921 09b4 85030000 		.4byte	.LASF167
 1922 09b8 13       		.sleb128 19
 1923 09b9 15       		.uleb128 0x15
 1924 09ba 99010000 		.4byte	.LASF168
 1925 09be 14       		.sleb128 20
 1926 09bf 15       		.uleb128 0x15
 1927 09c0 F4090000 		.4byte	.LASF169
 1928 09c4 15       		.sleb128 21
 1929 09c5 15       		.uleb128 0x15
 1930 09c6 B4060000 		.4byte	.LASF170
 1931 09ca 16       		.sleb128 22
 1932 09cb 15       		.uleb128 0x15
 1933 09cc 79000000 		.4byte	.LASF171
 1934 09d0 17       		.sleb128 23
 1935 09d1 15       		.uleb128 0x15
 1936 09d2 10090000 		.4byte	.LASF172
 1937 09d6 18       		.sleb128 24
 1938 09d7 15       		.uleb128 0x15
 1939 09d8 CE010000 		.4byte	.LASF173
 1940 09dc 19       		.sleb128 25
ARM GAS  /tmp/cckDtn2d.s 			page 36


 1941 09dd 15       		.uleb128 0x15
 1942 09de 1B070000 		.4byte	.LASF174
 1943 09e2 1A       		.sleb128 26
 1944 09e3 15       		.uleb128 0x15
 1945 09e4 72070000 		.4byte	.LASF175
 1946 09e8 1B       		.sleb128 27
 1947 09e9 15       		.uleb128 0x15
 1948 09ea AE000000 		.4byte	.LASF176
 1949 09ee 1C       		.sleb128 28
 1950 09ef 15       		.uleb128 0x15
 1951 09f0 6F000000 		.4byte	.LASF177
 1952 09f4 1D       		.sleb128 29
 1953 09f5 15       		.uleb128 0x15
 1954 09f6 1D090000 		.4byte	.LASF178
 1955 09fa 1E       		.sleb128 30
 1956 09fb 15       		.uleb128 0x15
 1957 09fc 240A0000 		.4byte	.LASF179
 1958 0a00 1F       		.sleb128 31
 1959 0a01 15       		.uleb128 0x15
 1960 0a02 7F080000 		.4byte	.LASF180
 1961 0a06 20       		.sleb128 32
 1962 0a07 15       		.uleb128 0x15
 1963 0a08 FF090000 		.4byte	.LASF181
 1964 0a0c 21       		.sleb128 33
 1965 0a0d 15       		.uleb128 0x15
 1966 0a0e A8090000 		.4byte	.LASF182
 1967 0a12 22       		.sleb128 34
 1968 0a13 15       		.uleb128 0x15
 1969 0a14 61080000 		.4byte	.LASF183
 1970 0a18 23       		.sleb128 35
 1971 0a19 15       		.uleb128 0x15
 1972 0a1a F4080000 		.4byte	.LASF184
 1973 0a1e 24       		.sleb128 36
 1974 0a1f 15       		.uleb128 0x15
 1975 0a20 03070000 		.4byte	.LASF185
 1976 0a24 25       		.sleb128 37
 1977 0a25 15       		.uleb128 0x15
 1978 0a26 DB000000 		.4byte	.LASF186
 1979 0a2a 26       		.sleb128 38
 1980 0a2b 15       		.uleb128 0x15
 1981 0a2c E5000000 		.4byte	.LASF187
 1982 0a30 27       		.sleb128 39
 1983 0a31 15       		.uleb128 0x15
 1984 0a32 EF000000 		.4byte	.LASF188
 1985 0a36 28       		.sleb128 40
 1986 0a37 15       		.uleb128 0x15
 1987 0a38 F6050000 		.4byte	.LASF189
 1988 0a3c 29       		.sleb128 41
 1989 0a3d 15       		.uleb128 0x15
 1990 0a3e 090A0000 		.4byte	.LASF190
 1991 0a42 2A       		.sleb128 42
 1992 0a43 15       		.uleb128 0x15
 1993 0a44 2E0A0000 		.4byte	.LASF191
 1994 0a48 2B       		.sleb128 43
 1995 0a49 15       		.uleb128 0x15
 1996 0a4a 340A0000 		.4byte	.LASF192
 1997 0a4e 2C       		.sleb128 44
ARM GAS  /tmp/cckDtn2d.s 			page 37


 1998 0a4f 15       		.uleb128 0x15
 1999 0a50 1E0A0000 		.4byte	.LASF193
 2000 0a54 2D       		.sleb128 45
 2001 0a55 15       		.uleb128 0x15
 2002 0a56 4F090000 		.4byte	.LASF194
 2003 0a5a E000     		.sleb128 96
 2004 0a5c 00       		.byte	0
 2005 0a5d 04       		.uleb128 0x4
 2006 0a5e 7E090000 		.4byte	.LASF195
 2007 0a62 0E       		.byte	0xe
 2008 0a63 90       		.byte	0x90
 2009 0a64 39090000 		.4byte	0x939
 2010 0a68 08       		.uleb128 0x8
 2011 0a69 01       		.byte	0x1
 2012 0a6a 0E       		.byte	0xe
 2013 0a6b 96       		.byte	0x96
 2014 0a6c 7F0A0000 		.4byte	0xa7f
 2015 0a70 06       		.uleb128 0x6
 2016 0a71 AE040000 		.4byte	.LASF196
 2017 0a75 0E       		.byte	0xe
 2018 0a76 97       		.byte	0x97
 2019 0a77 7A080000 		.4byte	0x87a
 2020 0a7b 02       		.byte	0x2
 2021 0a7c 23       		.byte	0x23
 2022 0a7d 00       		.uleb128 0
 2023 0a7e 00       		.byte	0
 2024 0a7f 04       		.uleb128 0x4
 2025 0a80 5C0A0000 		.4byte	.LASF197
 2026 0a84 0E       		.byte	0xe
 2027 0a85 98       		.byte	0x98
 2028 0a86 680A0000 		.4byte	0xa68
 2029 0a8a 08       		.uleb128 0x8
 2030 0a8b 01       		.byte	0x1
 2031 0a8c 0E       		.byte	0xe
 2032 0a8d 9F       		.byte	0x9f
 2033 0a8e A10A0000 		.4byte	0xaa1
 2034 0a92 06       		.uleb128 0x6
 2035 0a93 90080000 		.4byte	.LASF198
 2036 0a97 0E       		.byte	0xe
 2037 0a98 A0       		.byte	0xa0
 2038 0a99 7A080000 		.4byte	0x87a
 2039 0a9d 02       		.byte	0x2
 2040 0a9e 23       		.byte	0x23
 2041 0a9f 00       		.uleb128 0
 2042 0aa0 00       		.byte	0
 2043 0aa1 04       		.uleb128 0x4
 2044 0aa2 B8000000 		.4byte	.LASF199
 2045 0aa6 0E       		.byte	0xe
 2046 0aa7 A1       		.byte	0xa1
 2047 0aa8 8A0A0000 		.4byte	0xa8a
 2048 0aac 08       		.uleb128 0x8
 2049 0aad 68       		.byte	0x68
 2050 0aae 0E       		.byte	0xe
 2051 0aaf A8       		.byte	0xa8
 2052 0ab0 090B0000 		.4byte	0xb09
 2053 0ab4 06       		.uleb128 0x6
 2054 0ab5 12010000 		.4byte	.LASF200
ARM GAS  /tmp/cckDtn2d.s 			page 38


 2055 0ab9 0E       		.byte	0xe
 2056 0aba A9       		.byte	0xa9
 2057 0abb 50000000 		.4byte	0x50
 2058 0abf 02       		.byte	0x2
 2059 0ac0 23       		.byte	0x23
 2060 0ac1 00       		.uleb128 0
 2061 0ac2 06       		.uleb128 0x6
 2062 0ac3 EB040000 		.4byte	.LASF201
 2063 0ac7 0E       		.byte	0xe
 2064 0ac8 AA       		.byte	0xaa
 2065 0ac9 50000000 		.4byte	0x50
 2066 0acd 02       		.byte	0x2
 2067 0ace 23       		.byte	0x23
 2068 0acf 01       		.uleb128 0x1
 2069 0ad0 06       		.uleb128 0x6
 2070 0ad1 49010000 		.4byte	.LASF202
 2071 0ad5 0E       		.byte	0xe
 2072 0ad6 AB       		.byte	0xab
 2073 0ad7 5D0A0000 		.4byte	0xa5d
 2074 0adb 02       		.byte	0x2
 2075 0adc 23       		.byte	0x23
 2076 0add 02       		.uleb128 0x2
 2077 0ade 06       		.uleb128 0x6
 2078 0adf 94000000 		.4byte	.LASF203
 2079 0ae3 0E       		.byte	0xe
 2080 0ae4 AC       		.byte	0xac
 2081 0ae5 2E090000 		.4byte	0x92e
 2082 0ae9 02       		.byte	0x2
 2083 0aea 23       		.byte	0x23
 2084 0aeb 03       		.uleb128 0x3
 2085 0aec 06       		.uleb128 0x6
 2086 0aed 1C060000 		.4byte	.LASF204
 2087 0af1 0E       		.byte	0xe
 2088 0af2 AD       		.byte	0xad
 2089 0af3 090B0000 		.4byte	0xb09
 2090 0af7 02       		.byte	0x2
 2091 0af8 23       		.byte	0x23
 2092 0af9 04       		.uleb128 0x4
 2093 0afa 06       		.uleb128 0x6
 2094 0afb 36080000 		.4byte	.LASF205
 2095 0aff 0E       		.byte	0xe
 2096 0b00 AE       		.byte	0xae
 2097 0b01 090B0000 		.4byte	0xb09
 2098 0b05 02       		.byte	0x2
 2099 0b06 23       		.byte	0x23
 2100 0b07 36       		.uleb128 0x36
 2101 0b08 00       		.byte	0
 2102 0b09 17       		.uleb128 0x17
 2103 0b0a 7A080000 		.4byte	0x87a
 2104 0b0e 190B0000 		.4byte	0xb19
 2105 0b12 18       		.uleb128 0x18
 2106 0b13 8A030000 		.4byte	0x38a
 2107 0b17 31       		.byte	0x31
 2108 0b18 00       		.byte	0
 2109 0b19 04       		.uleb128 0x4
 2110 0b1a 80020000 		.4byte	.LASF206
 2111 0b1e 0E       		.byte	0xe
ARM GAS  /tmp/cckDtn2d.s 			page 39


 2112 0b1f AF       		.byte	0xaf
 2113 0b20 AC0A0000 		.4byte	0xaac
 2114 0b24 05       		.uleb128 0x5
 2115 0b25 9D000000 		.4byte	.LASF207
 2116 0b29 6C       		.byte	0x6c
 2117 0b2a 0E       		.byte	0xe
 2118 0b2b B6       		.byte	0xb6
 2119 0b2c 690B0000 		.4byte	0xb69
 2120 0b30 06       		.uleb128 0x6
 2121 0b31 9C040000 		.4byte	.LASF208
 2122 0b35 0E       		.byte	0xe
 2123 0b36 B7       		.byte	0xb7
 2124 0b37 04070000 		.4byte	0x704
 2125 0b3b 02       		.byte	0x2
 2126 0b3c 23       		.byte	0x23
 2127 0b3d 00       		.uleb128 0
 2128 0b3e 06       		.uleb128 0x6
 2129 0b3f 90090000 		.4byte	.LASF209
 2130 0b43 0E       		.byte	0xe
 2131 0b44 B8       		.byte	0xb8
 2132 0b45 690B0000 		.4byte	0xb69
 2133 0b49 02       		.byte	0x2
 2134 0b4a 23       		.byte	0x23
 2135 0b4b 04       		.uleb128 0x4
 2136 0b4c 06       		.uleb128 0x6
 2137 0b4d 0E020000 		.4byte	.LASF210
 2138 0b51 0E       		.byte	0xe
 2139 0b52 B9       		.byte	0xb9
 2140 0b53 6F0B0000 		.4byte	0xb6f
 2141 0b57 02       		.byte	0x2
 2142 0b58 23       		.byte	0x23
 2143 0b59 08       		.uleb128 0x8
 2144 0b5a 06       		.uleb128 0x6
 2145 0b5b BB050000 		.4byte	.LASF211
 2146 0b5f 0E       		.byte	0xe
 2147 0b60 BA       		.byte	0xba
 2148 0b61 6F0B0000 		.4byte	0xb6f
 2149 0b65 02       		.byte	0x2
 2150 0b66 23       		.byte	0x23
 2151 0b67 3A       		.uleb128 0x3a
 2152 0b68 00       		.byte	0
 2153 0b69 09       		.uleb128 0x9
 2154 0b6a 04       		.byte	0x4
 2155 0b6b A3070000 		.4byte	0x7a3
 2156 0b6f 17       		.uleb128 0x17
 2157 0b70 6F080000 		.4byte	0x86f
 2158 0b74 7F0B0000 		.4byte	0xb7f
 2159 0b78 18       		.uleb128 0x18
 2160 0b79 8A030000 		.4byte	0x38a
 2161 0b7d 31       		.byte	0x31
 2162 0b7e 00       		.byte	0
 2163 0b7f 04       		.uleb128 0x4
 2164 0b80 8B040000 		.4byte	.LASF212
 2165 0b84 0E       		.byte	0xe
 2166 0b85 BB       		.byte	0xbb
 2167 0b86 240B0000 		.4byte	0xb24
 2168 0b8a 19       		.uleb128 0x19
ARM GAS  /tmp/cckDtn2d.s 			page 40


 2169 0b8b 01       		.byte	0x1
 2170 0b8c D3080000 		.4byte	.LASF218
 2171 0b90 01       		.byte	0x1
 2172 0b91 2C       		.byte	0x2c
 2173 0b92 01       		.byte	0x1
 2174 0b93 8F040000 		.4byte	0x48f
 2175 0b97 00000000 		.4byte	.LFB118
 2176 0b9b 28000000 		.4byte	.LFE118
 2177 0b9f 02       		.byte	0x2
 2178 0ba0 7D       		.byte	0x7d
 2179 0ba1 00       		.sleb128 0
 2180 0ba2 01       		.byte	0x1
 2181 0ba3 D00B0000 		.4byte	0xbd0
 2182 0ba7 1A       		.uleb128 0x1a
 2183 0ba8 65727200 		.ascii	"err\000"
 2184 0bac 01       		.byte	0x1
 2185 0bad 2C       		.byte	0x2c
 2186 0bae 7B000000 		.4byte	0x7b
 2187 0bb2 00000000 		.4byte	.LLST0
 2188 0bb6 1B       		.uleb128 0x1b
 2189 0bb7 36030000 		.4byte	.LASF213
 2190 0bbb 01       		.byte	0x1
 2191 0bbc 2D       		.byte	0x2d
 2192 0bbd 50000000 		.4byte	0x50
 2193 0bc1 09       		.byte	0x9
 2194 0bc2 1C       		.uleb128 0x1c
 2195 0bc3 6900     		.ascii	"i\000"
 2196 0bc5 01       		.byte	0x1
 2197 0bc6 2E       		.byte	0x2e
 2198 0bc7 50000000 		.4byte	0x50
 2199 0bcb 3A000000 		.4byte	.LLST1
 2200 0bcf 00       		.byte	0
 2201 0bd0 1D       		.uleb128 0x1d
 2202 0bd1 01       		.byte	0x1
 2203 0bd2 51030000 		.4byte	.LASF214
 2204 0bd6 01       		.byte	0x1
 2205 0bd7 3E       		.byte	0x3e
 2206 0bd8 01       		.byte	0x1
 2207 0bd9 00000000 		.4byte	.LFB119
 2208 0bdd 02000000 		.4byte	.LFE119
 2209 0be1 02       		.byte	0x2
 2210 0be2 7D       		.byte	0x7d
 2211 0be3 00       		.sleb128 0
 2212 0be4 01       		.byte	0x1
 2213 0be5 F60B0000 		.4byte	0xbf6
 2214 0be9 1E       		.uleb128 0x1e
 2215 0bea 696400   		.ascii	"id\000"
 2216 0bed 01       		.byte	0x1
 2217 0bee 3E       		.byte	0x3e
 2218 0bef FA000000 		.4byte	0xfa
 2219 0bf3 01       		.byte	0x1
 2220 0bf4 50       		.byte	0x50
 2221 0bf5 00       		.byte	0
 2222 0bf6 1F       		.uleb128 0x1f
 2223 0bf7 01       		.byte	0x1
 2224 0bf8 AA030000 		.4byte	.LASF215
 2225 0bfc 01       		.byte	0x1
ARM GAS  /tmp/cckDtn2d.s 			page 41


 2226 0bfd 43       		.byte	0x43
 2227 0bfe 01       		.byte	0x1
 2228 0bff 00000000 		.4byte	.LFB120
 2229 0c03 F6000000 		.4byte	.LFE120
 2230 0c07 4E000000 		.4byte	.LLST2
 2231 0c0b 01       		.byte	0x1
 2232 0c0c 160E0000 		.4byte	0xe16
 2233 0c10 20       		.uleb128 0x20
 2234 0c11 DA070000 		.4byte	.LASF216
 2235 0c15 01       		.byte	0x1
 2236 0c16 43       		.byte	0x43
 2237 0c17 690B0000 		.4byte	0xb69
 2238 0c1b 7A000000 		.4byte	.LLST3
 2239 0c1f 21       		.uleb128 0x21
 2240 0c20 36050000 		.4byte	.LASF217
 2241 0c24 01       		.byte	0x1
 2242 0c25 45       		.byte	0x45
 2243 0c26 EF000000 		.4byte	0xef
 2244 0c2a 98000000 		.4byte	.LLST4
 2245 0c2e 22       		.uleb128 0x22
 2246 0c2f 2C000000 		.4byte	.LVL7
 2247 0c33 F5110000 		.4byte	0x11f5
 2248 0c37 420C0000 		.4byte	0xc42
 2249 0c3b 23       		.uleb128 0x23
 2250 0c3c 01       		.byte	0x1
 2251 0c3d 50       		.byte	0x50
 2252 0c3e 02       		.byte	0x2
 2253 0c3f 74       		.byte	0x74
 2254 0c40 00       		.sleb128 0
 2255 0c41 00       		.byte	0
 2256 0c42 22       		.uleb128 0x22
 2257 0c43 42000000 		.4byte	.LVL8
 2258 0c47 09120000 		.4byte	0x1209
 2259 0c4b 7C0C0000 		.4byte	0xc7c
 2260 0c4f 23       		.uleb128 0x23
 2261 0c50 01       		.byte	0x1
 2262 0c51 53       		.byte	0x53
 2263 0c52 01       		.byte	0x1
 2264 0c53 32       		.byte	0x32
 2265 0c54 23       		.uleb128 0x23
 2266 0c55 01       		.byte	0x1
 2267 0c56 52       		.byte	0x52
 2268 0c57 02       		.byte	0x2
 2269 0c58 76       		.byte	0x76
 2270 0c59 00       		.sleb128 0
 2271 0c5a 23       		.uleb128 0x23
 2272 0c5b 01       		.byte	0x1
 2273 0c5c 51       		.byte	0x51
 2274 0c5d 02       		.byte	0x2
 2275 0c5e 08       		.byte	0x8
 2276 0c5f 60       		.byte	0x60
 2277 0c60 23       		.uleb128 0x23
 2278 0c61 01       		.byte	0x1
 2279 0c62 50       		.byte	0x50
 2280 0c63 02       		.byte	0x2
 2281 0c64 74       		.byte	0x74
 2282 0c65 00       		.sleb128 0
ARM GAS  /tmp/cckDtn2d.s 			page 42


 2283 0c66 23       		.uleb128 0x23
 2284 0c67 02       		.byte	0x2
 2285 0c68 7D       		.byte	0x7d
 2286 0c69 08       		.sleb128 8
 2287 0c6a 02       		.byte	0x2
 2288 0c6b 77       		.byte	0x77
 2289 0c6c 00       		.sleb128 0
 2290 0c6d 23       		.uleb128 0x23
 2291 0c6e 02       		.byte	0x2
 2292 0c6f 7D       		.byte	0x7d
 2293 0c70 04       		.sleb128 4
 2294 0c71 02       		.byte	0x2
 2295 0c72 78       		.byte	0x78
 2296 0c73 00       		.sleb128 0
 2297 0c74 23       		.uleb128 0x23
 2298 0c75 02       		.byte	0x2
 2299 0c76 7D       		.byte	0x7d
 2300 0c77 00       		.sleb128 0
 2301 0c78 02       		.byte	0x2
 2302 0c79 79       		.byte	0x79
 2303 0c7a 00       		.sleb128 0
 2304 0c7b 00       		.byte	0
 2305 0c7c 22       		.uleb128 0x22
 2306 0c7d 48000000 		.4byte	.LVL9
 2307 0c81 3F120000 		.4byte	0x123f
 2308 0c85 900C0000 		.4byte	0xc90
 2309 0c89 23       		.uleb128 0x23
 2310 0c8a 01       		.byte	0x1
 2311 0c8b 50       		.byte	0x50
 2312 0c8c 02       		.byte	0x2
 2313 0c8d 74       		.byte	0x74
 2314 0c8e 00       		.sleb128 0
 2315 0c8f 00       		.byte	0
 2316 0c90 22       		.uleb128 0x22
 2317 0c91 5A000000 		.4byte	.LVL10
 2318 0c95 F5110000 		.4byte	0x11f5
 2319 0c99 A40C0000 		.4byte	0xca4
 2320 0c9d 23       		.uleb128 0x23
 2321 0c9e 01       		.byte	0x1
 2322 0c9f 50       		.byte	0x50
 2323 0ca0 02       		.byte	0x2
 2324 0ca1 74       		.byte	0x74
 2325 0ca2 00       		.sleb128 0
 2326 0ca3 00       		.byte	0
 2327 0ca4 22       		.uleb128 0x22
 2328 0ca5 70000000 		.4byte	.LVL11
 2329 0ca9 09120000 		.4byte	0x1209
 2330 0cad DE0C0000 		.4byte	0xcde
 2331 0cb1 23       		.uleb128 0x23
 2332 0cb2 01       		.byte	0x1
 2333 0cb3 53       		.byte	0x53
 2334 0cb4 01       		.byte	0x1
 2335 0cb5 32       		.byte	0x32
 2336 0cb6 23       		.uleb128 0x23
 2337 0cb7 01       		.byte	0x1
 2338 0cb8 52       		.byte	0x52
 2339 0cb9 02       		.byte	0x2
ARM GAS  /tmp/cckDtn2d.s 			page 43


 2340 0cba 76       		.byte	0x76
 2341 0cbb 00       		.sleb128 0
 2342 0cbc 23       		.uleb128 0x23
 2343 0cbd 01       		.byte	0x1
 2344 0cbe 51       		.byte	0x51
 2345 0cbf 02       		.byte	0x2
 2346 0cc0 08       		.byte	0x8
 2347 0cc1 60       		.byte	0x60
 2348 0cc2 23       		.uleb128 0x23
 2349 0cc3 01       		.byte	0x1
 2350 0cc4 50       		.byte	0x50
 2351 0cc5 02       		.byte	0x2
 2352 0cc6 74       		.byte	0x74
 2353 0cc7 00       		.sleb128 0
 2354 0cc8 23       		.uleb128 0x23
 2355 0cc9 02       		.byte	0x2
 2356 0cca 7D       		.byte	0x7d
 2357 0ccb 08       		.sleb128 8
 2358 0ccc 02       		.byte	0x2
 2359 0ccd 77       		.byte	0x77
 2360 0cce 00       		.sleb128 0
 2361 0ccf 23       		.uleb128 0x23
 2362 0cd0 02       		.byte	0x2
 2363 0cd1 7D       		.byte	0x7d
 2364 0cd2 04       		.sleb128 4
 2365 0cd3 02       		.byte	0x2
 2366 0cd4 78       		.byte	0x78
 2367 0cd5 00       		.sleb128 0
 2368 0cd6 23       		.uleb128 0x23
 2369 0cd7 02       		.byte	0x2
 2370 0cd8 7D       		.byte	0x7d
 2371 0cd9 00       		.sleb128 0
 2372 0cda 02       		.byte	0x2
 2373 0cdb 79       		.byte	0x79
 2374 0cdc 00       		.sleb128 0
 2375 0cdd 00       		.byte	0
 2376 0cde 22       		.uleb128 0x22
 2377 0cdf 76000000 		.4byte	.LVL12
 2378 0ce3 3F120000 		.4byte	0x123f
 2379 0ce7 F20C0000 		.4byte	0xcf2
 2380 0ceb 23       		.uleb128 0x23
 2381 0cec 01       		.byte	0x1
 2382 0ced 50       		.byte	0x50
 2383 0cee 02       		.byte	0x2
 2384 0cef 74       		.byte	0x74
 2385 0cf0 00       		.sleb128 0
 2386 0cf1 00       		.byte	0
 2387 0cf2 22       		.uleb128 0x22
 2388 0cf3 80000000 		.4byte	.LVL13
 2389 0cf7 F5110000 		.4byte	0x11f5
 2390 0cfb 060D0000 		.4byte	0xd06
 2391 0cff 23       		.uleb128 0x23
 2392 0d00 01       		.byte	0x1
 2393 0d01 50       		.byte	0x50
 2394 0d02 02       		.byte	0x2
 2395 0d03 74       		.byte	0x74
 2396 0d04 00       		.sleb128 0
ARM GAS  /tmp/cckDtn2d.s 			page 44


 2397 0d05 00       		.byte	0
 2398 0d06 22       		.uleb128 0x22
 2399 0d07 96000000 		.4byte	.LVL14
 2400 0d0b 09120000 		.4byte	0x1209
 2401 0d0f 400D0000 		.4byte	0xd40
 2402 0d13 23       		.uleb128 0x23
 2403 0d14 01       		.byte	0x1
 2404 0d15 53       		.byte	0x53
 2405 0d16 01       		.byte	0x1
 2406 0d17 32       		.byte	0x32
 2407 0d18 23       		.uleb128 0x23
 2408 0d19 01       		.byte	0x1
 2409 0d1a 52       		.byte	0x52
 2410 0d1b 02       		.byte	0x2
 2411 0d1c 76       		.byte	0x76
 2412 0d1d 00       		.sleb128 0
 2413 0d1e 23       		.uleb128 0x23
 2414 0d1f 01       		.byte	0x1
 2415 0d20 51       		.byte	0x51
 2416 0d21 02       		.byte	0x2
 2417 0d22 08       		.byte	0x8
 2418 0d23 60       		.byte	0x60
 2419 0d24 23       		.uleb128 0x23
 2420 0d25 01       		.byte	0x1
 2421 0d26 50       		.byte	0x50
 2422 0d27 02       		.byte	0x2
 2423 0d28 74       		.byte	0x74
 2424 0d29 00       		.sleb128 0
 2425 0d2a 23       		.uleb128 0x23
 2426 0d2b 02       		.byte	0x2
 2427 0d2c 7D       		.byte	0x7d
 2428 0d2d 08       		.sleb128 8
 2429 0d2e 02       		.byte	0x2
 2430 0d2f 77       		.byte	0x77
 2431 0d30 00       		.sleb128 0
 2432 0d31 23       		.uleb128 0x23
 2433 0d32 02       		.byte	0x2
 2434 0d33 7D       		.byte	0x7d
 2435 0d34 04       		.sleb128 4
 2436 0d35 02       		.byte	0x2
 2437 0d36 78       		.byte	0x78
 2438 0d37 00       		.sleb128 0
 2439 0d38 23       		.uleb128 0x23
 2440 0d39 02       		.byte	0x2
 2441 0d3a 7D       		.byte	0x7d
 2442 0d3b 00       		.sleb128 0
 2443 0d3c 02       		.byte	0x2
 2444 0d3d 79       		.byte	0x79
 2445 0d3e 00       		.sleb128 0
 2446 0d3f 00       		.byte	0
 2447 0d40 22       		.uleb128 0x22
 2448 0d41 9C000000 		.4byte	.LVL15
 2449 0d45 3F120000 		.4byte	0x123f
 2450 0d49 540D0000 		.4byte	0xd54
 2451 0d4d 23       		.uleb128 0x23
 2452 0d4e 01       		.byte	0x1
 2453 0d4f 50       		.byte	0x50
ARM GAS  /tmp/cckDtn2d.s 			page 45


 2454 0d50 02       		.byte	0x2
 2455 0d51 74       		.byte	0x74
 2456 0d52 00       		.sleb128 0
 2457 0d53 00       		.byte	0
 2458 0d54 22       		.uleb128 0x22
 2459 0d55 AA000000 		.4byte	.LVL16
 2460 0d59 F5110000 		.4byte	0x11f5
 2461 0d5d 680D0000 		.4byte	0xd68
 2462 0d61 23       		.uleb128 0x23
 2463 0d62 01       		.byte	0x1
 2464 0d63 50       		.byte	0x50
 2465 0d64 02       		.byte	0x2
 2466 0d65 74       		.byte	0x74
 2467 0d66 00       		.sleb128 0
 2468 0d67 00       		.byte	0
 2469 0d68 22       		.uleb128 0x22
 2470 0d69 C0000000 		.4byte	.LVL17
 2471 0d6d 09120000 		.4byte	0x1209
 2472 0d71 A20D0000 		.4byte	0xda2
 2473 0d75 23       		.uleb128 0x23
 2474 0d76 01       		.byte	0x1
 2475 0d77 53       		.byte	0x53
 2476 0d78 01       		.byte	0x1
 2477 0d79 32       		.byte	0x32
 2478 0d7a 23       		.uleb128 0x23
 2479 0d7b 01       		.byte	0x1
 2480 0d7c 52       		.byte	0x52
 2481 0d7d 02       		.byte	0x2
 2482 0d7e 76       		.byte	0x76
 2483 0d7f 00       		.sleb128 0
 2484 0d80 23       		.uleb128 0x23
 2485 0d81 01       		.byte	0x1
 2486 0d82 51       		.byte	0x51
 2487 0d83 02       		.byte	0x2
 2488 0d84 08       		.byte	0x8
 2489 0d85 60       		.byte	0x60
 2490 0d86 23       		.uleb128 0x23
 2491 0d87 01       		.byte	0x1
 2492 0d88 50       		.byte	0x50
 2493 0d89 02       		.byte	0x2
 2494 0d8a 74       		.byte	0x74
 2495 0d8b 00       		.sleb128 0
 2496 0d8c 23       		.uleb128 0x23
 2497 0d8d 02       		.byte	0x2
 2498 0d8e 7D       		.byte	0x7d
 2499 0d8f 08       		.sleb128 8
 2500 0d90 02       		.byte	0x2
 2501 0d91 77       		.byte	0x77
 2502 0d92 00       		.sleb128 0
 2503 0d93 23       		.uleb128 0x23
 2504 0d94 02       		.byte	0x2
 2505 0d95 7D       		.byte	0x7d
 2506 0d96 04       		.sleb128 4
 2507 0d97 02       		.byte	0x2
 2508 0d98 78       		.byte	0x78
 2509 0d99 00       		.sleb128 0
 2510 0d9a 23       		.uleb128 0x23
ARM GAS  /tmp/cckDtn2d.s 			page 46


 2511 0d9b 02       		.byte	0x2
 2512 0d9c 7D       		.byte	0x7d
 2513 0d9d 00       		.sleb128 0
 2514 0d9e 02       		.byte	0x2
 2515 0d9f 79       		.byte	0x79
 2516 0da0 00       		.sleb128 0
 2517 0da1 00       		.byte	0
 2518 0da2 22       		.uleb128 0x22
 2519 0da3 C6000000 		.4byte	.LVL18
 2520 0da7 3F120000 		.4byte	0x123f
 2521 0dab B60D0000 		.4byte	0xdb6
 2522 0daf 23       		.uleb128 0x23
 2523 0db0 01       		.byte	0x1
 2524 0db1 50       		.byte	0x50
 2525 0db2 02       		.byte	0x2
 2526 0db3 74       		.byte	0x74
 2527 0db4 00       		.sleb128 0
 2528 0db5 00       		.byte	0
 2529 0db6 22       		.uleb128 0x22
 2530 0db7 D4000000 		.4byte	.LVL19
 2531 0dbb F5110000 		.4byte	0x11f5
 2532 0dbf CA0D0000 		.4byte	0xdca
 2533 0dc3 23       		.uleb128 0x23
 2534 0dc4 01       		.byte	0x1
 2535 0dc5 50       		.byte	0x50
 2536 0dc6 02       		.byte	0x2
 2537 0dc7 74       		.byte	0x74
 2538 0dc8 00       		.sleb128 0
 2539 0dc9 00       		.byte	0
 2540 0dca 22       		.uleb128 0x22
 2541 0dcb EA000000 		.4byte	.LVL20
 2542 0dcf 09120000 		.4byte	0x1209
 2543 0dd3 040E0000 		.4byte	0xe04
 2544 0dd7 23       		.uleb128 0x23
 2545 0dd8 01       		.byte	0x1
 2546 0dd9 53       		.byte	0x53
 2547 0dda 01       		.byte	0x1
 2548 0ddb 32       		.byte	0x32
 2549 0ddc 23       		.uleb128 0x23
 2550 0ddd 01       		.byte	0x1
 2551 0dde 52       		.byte	0x52
 2552 0ddf 02       		.byte	0x2
 2553 0de0 76       		.byte	0x76
 2554 0de1 00       		.sleb128 0
 2555 0de2 23       		.uleb128 0x23
 2556 0de3 01       		.byte	0x1
 2557 0de4 51       		.byte	0x51
 2558 0de5 02       		.byte	0x2
 2559 0de6 08       		.byte	0x8
 2560 0de7 60       		.byte	0x60
 2561 0de8 23       		.uleb128 0x23
 2562 0de9 01       		.byte	0x1
 2563 0dea 50       		.byte	0x50
 2564 0deb 02       		.byte	0x2
 2565 0dec 74       		.byte	0x74
 2566 0ded 00       		.sleb128 0
 2567 0dee 23       		.uleb128 0x23
ARM GAS  /tmp/cckDtn2d.s 			page 47


 2568 0def 02       		.byte	0x2
 2569 0df0 7D       		.byte	0x7d
 2570 0df1 08       		.sleb128 8
 2571 0df2 02       		.byte	0x2
 2572 0df3 77       		.byte	0x77
 2573 0df4 00       		.sleb128 0
 2574 0df5 23       		.uleb128 0x23
 2575 0df6 02       		.byte	0x2
 2576 0df7 7D       		.byte	0x7d
 2577 0df8 04       		.sleb128 4
 2578 0df9 02       		.byte	0x2
 2579 0dfa 78       		.byte	0x78
 2580 0dfb 00       		.sleb128 0
 2581 0dfc 23       		.uleb128 0x23
 2582 0dfd 02       		.byte	0x2
 2583 0dfe 7D       		.byte	0x7d
 2584 0dff 00       		.sleb128 0
 2585 0e00 02       		.byte	0x2
 2586 0e01 79       		.byte	0x79
 2587 0e02 00       		.sleb128 0
 2588 0e03 00       		.byte	0
 2589 0e04 24       		.uleb128 0x24
 2590 0e05 F6000000 		.4byte	.LVL21
 2591 0e09 01       		.byte	0x1
 2592 0e0a 3F120000 		.4byte	0x123f
 2593 0e0e 23       		.uleb128 0x23
 2594 0e0f 01       		.byte	0x1
 2595 0e10 50       		.byte	0x50
 2596 0e11 02       		.byte	0x2
 2597 0e12 74       		.byte	0x74
 2598 0e13 00       		.sleb128 0
 2599 0e14 00       		.byte	0
 2600 0e15 00       		.byte	0
 2601 0e16 25       		.uleb128 0x25
 2602 0e17 01       		.byte	0x1
 2603 0e18 1D020000 		.4byte	.LASF219
 2604 0e1c 01       		.byte	0x1
 2605 0e1d 66       		.byte	0x66
 2606 0e1e 01       		.byte	0x1
 2607 0e1f 29000000 		.4byte	0x29
 2608 0e23 00000000 		.4byte	.LFB121
 2609 0e27 B8000000 		.4byte	.LFE121
 2610 0e2b AC000000 		.4byte	.LLST5
 2611 0e2f 01       		.byte	0x1
 2612 0e30 CA0F0000 		.4byte	0xfca
 2613 0e34 20       		.uleb128 0x20
 2614 0e35 DA070000 		.4byte	.LASF216
 2615 0e39 01       		.byte	0x1
 2616 0e3a 66       		.byte	0x66
 2617 0e3b 690B0000 		.4byte	0xb69
 2618 0e3f D8000000 		.4byte	.LLST6
 2619 0e43 21       		.uleb128 0x21
 2620 0e44 54000000 		.4byte	.LASF220
 2621 0e48 01       		.byte	0x1
 2622 0e49 68       		.byte	0x68
 2623 0e4a 29000000 		.4byte	0x29
 2624 0e4e F6000000 		.4byte	.LLST7
ARM GAS  /tmp/cckDtn2d.s 			page 48


 2625 0e52 21       		.uleb128 0x21
 2626 0e53 4C0A0000 		.4byte	.LASF221
 2627 0e57 01       		.byte	0x1
 2628 0e58 69       		.byte	0x69
 2629 0e59 50000000 		.4byte	0x50
 2630 0e5d 33010000 		.4byte	.LLST8
 2631 0e61 21       		.uleb128 0x21
 2632 0e62 A1080000 		.4byte	.LASF222
 2633 0e66 01       		.byte	0x1
 2634 0e67 6A       		.byte	0x6a
 2635 0e68 50000000 		.4byte	0x50
 2636 0e6c 52010000 		.4byte	.LLST9
 2637 0e70 26       		.uleb128 0x26
 2638 0e71 A4010000 		.4byte	.LASF223
 2639 0e75 01       		.byte	0x1
 2640 0e76 6B       		.byte	0x6b
 2641 0e77 29000000 		.4byte	0x29
 2642 0e7b 19       		.byte	0x19
 2643 0e7c 03       		.byte	0x3
 2644 0e7d 3A000000 		.4byte	mpl3115a2_driver+58
 2645 0e81 94       		.byte	0x94
 2646 0e82 01       		.byte	0x1
 2647 0e83 34       		.byte	0x34
 2648 0e84 25       		.byte	0x25
 2649 0e85 08       		.byte	0x8
 2650 0e86 FF       		.byte	0xff
 2651 0e87 1A       		.byte	0x1a
 2652 0e88 F7       		.byte	0xf7
 2653 0e89 30       		.uleb128 0x30
 2654 0e8a F7       		.byte	0xf7
 2655 0e8b 29       		.uleb128 0x29
 2656 0e8c F4       		.byte	0xf4
 2657 0e8d 29       		.uleb128 0x29
 2658 0e8e 04       		.byte	0x4
 2659 0e8f 0000803D 		.4byte	0x3d800000
 2660 0e93 1E       		.byte	0x1e
 2661 0e94 9F       		.byte	0x9f
 2662 0e95 21       		.uleb128 0x21
 2663 0e96 36050000 		.4byte	.LASF217
 2664 0e9a 01       		.byte	0x1
 2665 0e9b 6C       		.byte	0x6c
 2666 0e9c EF000000 		.4byte	0xef
 2667 0ea0 71010000 		.4byte	.LLST10
 2668 0ea4 22       		.uleb128 0x22
 2669 0ea5 24000000 		.4byte	.LVL23
 2670 0ea9 F5110000 		.4byte	0x11f5
 2671 0ead B80E0000 		.4byte	0xeb8
 2672 0eb1 23       		.uleb128 0x23
 2673 0eb2 01       		.byte	0x1
 2674 0eb3 50       		.byte	0x50
 2675 0eb4 02       		.byte	0x2
 2676 0eb5 75       		.byte	0x75
 2677 0eb6 00       		.sleb128 0
 2678 0eb7 00       		.byte	0
 2679 0eb8 22       		.uleb128 0x22
 2680 0eb9 3A000000 		.4byte	.LVL24
 2681 0ebd 09120000 		.4byte	0x1209
ARM GAS  /tmp/cckDtn2d.s 			page 49


 2682 0ec1 F30E0000 		.4byte	0xef3
 2683 0ec5 23       		.uleb128 0x23
 2684 0ec6 01       		.byte	0x1
 2685 0ec7 53       		.byte	0x53
 2686 0ec8 02       		.byte	0x2
 2687 0ec9 76       		.byte	0x76
 2688 0eca 00       		.sleb128 0
 2689 0ecb 23       		.uleb128 0x23
 2690 0ecc 01       		.byte	0x1
 2691 0ecd 52       		.byte	0x52
 2692 0ece 02       		.byte	0x2
 2693 0ecf 77       		.byte	0x77
 2694 0ed0 00       		.sleb128 0
 2695 0ed1 23       		.uleb128 0x23
 2696 0ed2 01       		.byte	0x1
 2697 0ed3 51       		.byte	0x51
 2698 0ed4 02       		.byte	0x2
 2699 0ed5 08       		.byte	0x8
 2700 0ed6 60       		.byte	0x60
 2701 0ed7 23       		.uleb128 0x23
 2702 0ed8 01       		.byte	0x1
 2703 0ed9 50       		.byte	0x50
 2704 0eda 02       		.byte	0x2
 2705 0edb 75       		.byte	0x75
 2706 0edc 00       		.sleb128 0
 2707 0edd 23       		.uleb128 0x23
 2708 0ede 02       		.byte	0x2
 2709 0edf 7D       		.byte	0x7d
 2710 0ee0 08       		.sleb128 8
 2711 0ee1 02       		.byte	0x2
 2712 0ee2 78       		.byte	0x78
 2713 0ee3 00       		.sleb128 0
 2714 0ee4 23       		.uleb128 0x23
 2715 0ee5 02       		.byte	0x2
 2716 0ee6 7D       		.byte	0x7d
 2717 0ee7 04       		.sleb128 4
 2718 0ee8 02       		.byte	0x2
 2719 0ee9 76       		.byte	0x76
 2720 0eea 00       		.sleb128 0
 2721 0eeb 23       		.uleb128 0x23
 2722 0eec 02       		.byte	0x2
 2723 0eed 7D       		.byte	0x7d
 2724 0eee 00       		.sleb128 0
 2725 0eef 02       		.byte	0x2
 2726 0ef0 79       		.byte	0x79
 2727 0ef1 00       		.sleb128 0
 2728 0ef2 00       		.byte	0
 2729 0ef3 22       		.uleb128 0x22
 2730 0ef4 40000000 		.4byte	.LVL25
 2731 0ef8 3F120000 		.4byte	0x123f
 2732 0efc 070F0000 		.4byte	0xf07
 2733 0f00 23       		.uleb128 0x23
 2734 0f01 01       		.byte	0x1
 2735 0f02 50       		.byte	0x50
 2736 0f03 02       		.byte	0x2
 2737 0f04 75       		.byte	0x75
 2738 0f05 00       		.sleb128 0
ARM GAS  /tmp/cckDtn2d.s 			page 50


 2739 0f06 00       		.byte	0
 2740 0f07 22       		.uleb128 0x22
 2741 0f08 4E000000 		.4byte	.LVL27
 2742 0f0c F5110000 		.4byte	0x11f5
 2743 0f10 1B0F0000 		.4byte	0xf1b
 2744 0f14 23       		.uleb128 0x23
 2745 0f15 01       		.byte	0x1
 2746 0f16 50       		.byte	0x50
 2747 0f17 02       		.byte	0x2
 2748 0f18 75       		.byte	0x75
 2749 0f19 00       		.sleb128 0
 2750 0f1a 00       		.byte	0
 2751 0f1b 22       		.uleb128 0x22
 2752 0f1c 64000000 		.4byte	.LVL28
 2753 0f20 09120000 		.4byte	0x1209
 2754 0f24 560F0000 		.4byte	0xf56
 2755 0f28 23       		.uleb128 0x23
 2756 0f29 01       		.byte	0x1
 2757 0f2a 53       		.byte	0x53
 2758 0f2b 02       		.byte	0x2
 2759 0f2c 76       		.byte	0x76
 2760 0f2d 00       		.sleb128 0
 2761 0f2e 23       		.uleb128 0x23
 2762 0f2f 01       		.byte	0x1
 2763 0f30 52       		.byte	0x52
 2764 0f31 02       		.byte	0x2
 2765 0f32 77       		.byte	0x77
 2766 0f33 00       		.sleb128 0
 2767 0f34 23       		.uleb128 0x23
 2768 0f35 01       		.byte	0x1
 2769 0f36 51       		.byte	0x51
 2770 0f37 02       		.byte	0x2
 2771 0f38 08       		.byte	0x8
 2772 0f39 60       		.byte	0x60
 2773 0f3a 23       		.uleb128 0x23
 2774 0f3b 01       		.byte	0x1
 2775 0f3c 50       		.byte	0x50
 2776 0f3d 02       		.byte	0x2
 2777 0f3e 75       		.byte	0x75
 2778 0f3f 00       		.sleb128 0
 2779 0f40 23       		.uleb128 0x23
 2780 0f41 02       		.byte	0x2
 2781 0f42 7D       		.byte	0x7d
 2782 0f43 08       		.sleb128 8
 2783 0f44 02       		.byte	0x2
 2784 0f45 78       		.byte	0x78
 2785 0f46 00       		.sleb128 0
 2786 0f47 23       		.uleb128 0x23
 2787 0f48 02       		.byte	0x2
 2788 0f49 7D       		.byte	0x7d
 2789 0f4a 04       		.sleb128 4
 2790 0f4b 02       		.byte	0x2
 2791 0f4c 76       		.byte	0x76
 2792 0f4d 00       		.sleb128 0
 2793 0f4e 23       		.uleb128 0x23
 2794 0f4f 02       		.byte	0x2
 2795 0f50 7D       		.byte	0x7d
ARM GAS  /tmp/cckDtn2d.s 			page 51


 2796 0f51 00       		.sleb128 0
 2797 0f52 02       		.byte	0x2
 2798 0f53 79       		.byte	0x79
 2799 0f54 00       		.sleb128 0
 2800 0f55 00       		.byte	0
 2801 0f56 22       		.uleb128 0x22
 2802 0f57 6A000000 		.4byte	.LVL29
 2803 0f5b 3F120000 		.4byte	0x123f
 2804 0f5f 6A0F0000 		.4byte	0xf6a
 2805 0f63 23       		.uleb128 0x23
 2806 0f64 01       		.byte	0x1
 2807 0f65 50       		.byte	0x50
 2808 0f66 02       		.byte	0x2
 2809 0f67 75       		.byte	0x75
 2810 0f68 00       		.sleb128 0
 2811 0f69 00       		.byte	0
 2812 0f6a 22       		.uleb128 0x22
 2813 0f6b 78000000 		.4byte	.LVL31
 2814 0f6f F5110000 		.4byte	0x11f5
 2815 0f73 7E0F0000 		.4byte	0xf7e
 2816 0f77 23       		.uleb128 0x23
 2817 0f78 01       		.byte	0x1
 2818 0f79 50       		.byte	0x50
 2819 0f7a 02       		.byte	0x2
 2820 0f7b 75       		.byte	0x75
 2821 0f7c 00       		.sleb128 0
 2822 0f7d 00       		.byte	0
 2823 0f7e 22       		.uleb128 0x22
 2824 0f7f 8E000000 		.4byte	.LVL32
 2825 0f83 09120000 		.4byte	0x1209
 2826 0f87 B90F0000 		.4byte	0xfb9
 2827 0f8b 23       		.uleb128 0x23
 2828 0f8c 01       		.byte	0x1
 2829 0f8d 53       		.byte	0x53
 2830 0f8e 02       		.byte	0x2
 2831 0f8f 76       		.byte	0x76
 2832 0f90 00       		.sleb128 0
 2833 0f91 23       		.uleb128 0x23
 2834 0f92 01       		.byte	0x1
 2835 0f93 52       		.byte	0x52
 2836 0f94 02       		.byte	0x2
 2837 0f95 77       		.byte	0x77
 2838 0f96 00       		.sleb128 0
 2839 0f97 23       		.uleb128 0x23
 2840 0f98 01       		.byte	0x1
 2841 0f99 51       		.byte	0x51
 2842 0f9a 02       		.byte	0x2
 2843 0f9b 08       		.byte	0x8
 2844 0f9c 60       		.byte	0x60
 2845 0f9d 23       		.uleb128 0x23
 2846 0f9e 01       		.byte	0x1
 2847 0f9f 50       		.byte	0x50
 2848 0fa0 02       		.byte	0x2
 2849 0fa1 75       		.byte	0x75
 2850 0fa2 00       		.sleb128 0
 2851 0fa3 23       		.uleb128 0x23
 2852 0fa4 02       		.byte	0x2
ARM GAS  /tmp/cckDtn2d.s 			page 52


 2853 0fa5 7D       		.byte	0x7d
 2854 0fa6 08       		.sleb128 8
 2855 0fa7 02       		.byte	0x2
 2856 0fa8 78       		.byte	0x78
 2857 0fa9 00       		.sleb128 0
 2858 0faa 23       		.uleb128 0x23
 2859 0fab 02       		.byte	0x2
 2860 0fac 7D       		.byte	0x7d
 2861 0fad 04       		.sleb128 4
 2862 0fae 02       		.byte	0x2
 2863 0faf 76       		.byte	0x76
 2864 0fb0 00       		.sleb128 0
 2865 0fb1 23       		.uleb128 0x23
 2866 0fb2 02       		.byte	0x2
 2867 0fb3 7D       		.byte	0x7d
 2868 0fb4 00       		.sleb128 0
 2869 0fb5 02       		.byte	0x2
 2870 0fb6 79       		.byte	0x79
 2871 0fb7 00       		.sleb128 0
 2872 0fb8 00       		.byte	0
 2873 0fb9 27       		.uleb128 0x27
 2874 0fba 94000000 		.4byte	.LVL33
 2875 0fbe 3F120000 		.4byte	0x123f
 2876 0fc2 23       		.uleb128 0x23
 2877 0fc3 01       		.byte	0x1
 2878 0fc4 50       		.byte	0x50
 2879 0fc5 02       		.byte	0x2
 2880 0fc6 75       		.byte	0x75
 2881 0fc7 00       		.sleb128 0
 2882 0fc8 00       		.byte	0
 2883 0fc9 00       		.byte	0
 2884 0fca 25       		.uleb128 0x25
 2885 0fcb 01       		.byte	0x1
 2886 0fcc A9070000 		.4byte	.LASF227
 2887 0fd0 01       		.byte	0x1
 2888 0fd1 83       		.byte	0x83
 2889 0fd2 01       		.byte	0x1
 2890 0fd3 29000000 		.4byte	0x29
 2891 0fd7 00000000 		.4byte	.LFB122
 2892 0fdb 8C000000 		.4byte	.LFE122
 2893 0fdf 85010000 		.4byte	.LLST11
 2894 0fe3 01       		.byte	0x1
 2895 0fe4 2C110000 		.4byte	0x112c
 2896 0fe8 20       		.uleb128 0x20
 2897 0fe9 DA070000 		.4byte	.LASF216
 2898 0fed 01       		.byte	0x1
 2899 0fee 83       		.byte	0x83
 2900 0fef 690B0000 		.4byte	0xb69
 2901 0ff3 B1010000 		.4byte	.LLST12
 2902 0ff7 26       		.uleb128 0x26
 2903 0ff8 570A0000 		.4byte	.LASF228
 2904 0ffc 01       		.byte	0x1
 2905 0ffd 84       		.byte	0x84
 2906 0ffe 29000000 		.4byte	0x29
 2907 1002 23       		.byte	0x23
 2908 1003 03       		.byte	0x3
 2909 1004 3A000000 		.4byte	mpl3115a2_driver+58
ARM GAS  /tmp/cckDtn2d.s 			page 53


 2910 1008 94       		.byte	0x94
 2911 1009 01       		.byte	0x1
 2912 100a 34       		.byte	0x34
 2913 100b 25       		.byte	0x25
 2914 100c 08       		.byte	0x8
 2915 100d FF       		.byte	0xff
 2916 100e 1A       		.byte	0x1a
 2917 100f F7       		.byte	0xf7
 2918 1010 30       		.uleb128 0x30
 2919 1011 F7       		.byte	0xf7
 2920 1012 29       		.uleb128 0x29
 2921 1013 F4       		.byte	0xf4
 2922 1014 29       		.uleb128 0x29
 2923 1015 04       		.byte	0x4
 2924 1016 0000803D 		.4byte	0x3d800000
 2925 101a 1E       		.byte	0x1e
 2926 101b 7A       		.byte	0x7a
 2927 101c 00       		.sleb128 0
 2928 101d 08       		.byte	0x8
 2929 101e FF       		.byte	0xff
 2930 101f 1A       		.byte	0x1a
 2931 1020 F7       		.byte	0xf7
 2932 1021 30       		.uleb128 0x30
 2933 1022 F7       		.byte	0xf7
 2934 1023 29       		.uleb128 0x29
 2935 1024 22       		.byte	0x22
 2936 1025 9F       		.byte	0x9f
 2937 1026 21       		.uleb128 0x21
 2938 1027 25070000 		.4byte	.LASF229
 2939 102b 01       		.byte	0x1
 2940 102c 85       		.byte	0x85
 2941 102d 50000000 		.4byte	0x50
 2942 1031 CF010000 		.4byte	.LLST13
 2943 1035 26       		.uleb128 0x26
 2944 1036 3A000000 		.4byte	.LASF230
 2945 103a 01       		.byte	0x1
 2946 103b 86       		.byte	0x86
 2947 103c 29000000 		.4byte	0x29
 2948 1040 19       		.byte	0x19
 2949 1041 03       		.byte	0x3
 2950 1042 3A000000 		.4byte	mpl3115a2_driver+58
 2951 1046 94       		.byte	0x94
 2952 1047 01       		.byte	0x1
 2953 1048 34       		.byte	0x34
 2954 1049 25       		.byte	0x25
 2955 104a 08       		.byte	0x8
 2956 104b FF       		.byte	0xff
 2957 104c 1A       		.byte	0x1a
 2958 104d F7       		.byte	0xf7
 2959 104e 30       		.uleb128 0x30
 2960 104f F7       		.byte	0xf7
 2961 1050 29       		.uleb128 0x29
 2962 1051 F4       		.byte	0xf4
 2963 1052 29       		.uleb128 0x29
 2964 1053 04       		.byte	0x4
 2965 1054 0000803D 		.4byte	0x3d800000
 2966 1058 1E       		.byte	0x1e
ARM GAS  /tmp/cckDtn2d.s 			page 54


 2967 1059 9F       		.byte	0x9f
 2968 105a 21       		.uleb128 0x21
 2969 105b 36050000 		.4byte	.LASF217
 2970 105f 01       		.byte	0x1
 2971 1060 87       		.byte	0x87
 2972 1061 EF000000 		.4byte	0xef
 2973 1065 EE010000 		.4byte	.LLST14
 2974 1069 22       		.uleb128 0x22
 2975 106a 26000000 		.4byte	.LVL36
 2976 106e F5110000 		.4byte	0x11f5
 2977 1072 7D100000 		.4byte	0x107d
 2978 1076 23       		.uleb128 0x23
 2979 1077 01       		.byte	0x1
 2980 1078 50       		.byte	0x50
 2981 1079 02       		.byte	0x2
 2982 107a 75       		.byte	0x75
 2983 107b 00       		.sleb128 0
 2984 107c 00       		.byte	0
 2985 107d 22       		.uleb128 0x22
 2986 107e 3C000000 		.4byte	.LVL37
 2987 1082 09120000 		.4byte	0x1209
 2988 1086 B8100000 		.4byte	0x10b8
 2989 108a 23       		.uleb128 0x23
 2990 108b 01       		.byte	0x1
 2991 108c 53       		.byte	0x53
 2992 108d 02       		.byte	0x2
 2993 108e 76       		.byte	0x76
 2994 108f 00       		.sleb128 0
 2995 1090 23       		.uleb128 0x23
 2996 1091 01       		.byte	0x1
 2997 1092 52       		.byte	0x52
 2998 1093 02       		.byte	0x2
 2999 1094 77       		.byte	0x77
 3000 1095 00       		.sleb128 0
 3001 1096 23       		.uleb128 0x23
 3002 1097 01       		.byte	0x1
 3003 1098 51       		.byte	0x51
 3004 1099 02       		.byte	0x2
 3005 109a 08       		.byte	0x8
 3006 109b 60       		.byte	0x60
 3007 109c 23       		.uleb128 0x23
 3008 109d 01       		.byte	0x1
 3009 109e 50       		.byte	0x50
 3010 109f 02       		.byte	0x2
 3011 10a0 75       		.byte	0x75
 3012 10a1 00       		.sleb128 0
 3013 10a2 23       		.uleb128 0x23
 3014 10a3 02       		.byte	0x2
 3015 10a4 7D       		.byte	0x7d
 3016 10a5 08       		.sleb128 8
 3017 10a6 02       		.byte	0x2
 3018 10a7 78       		.byte	0x78
 3019 10a8 00       		.sleb128 0
 3020 10a9 23       		.uleb128 0x23
 3021 10aa 02       		.byte	0x2
 3022 10ab 7D       		.byte	0x7d
 3023 10ac 04       		.sleb128 4
ARM GAS  /tmp/cckDtn2d.s 			page 55


 3024 10ad 02       		.byte	0x2
 3025 10ae 76       		.byte	0x76
 3026 10af 00       		.sleb128 0
 3027 10b0 23       		.uleb128 0x23
 3028 10b1 02       		.byte	0x2
 3029 10b2 7D       		.byte	0x7d
 3030 10b3 00       		.sleb128 0
 3031 10b4 02       		.byte	0x2
 3032 10b5 79       		.byte	0x79
 3033 10b6 00       		.sleb128 0
 3034 10b7 00       		.byte	0
 3035 10b8 22       		.uleb128 0x22
 3036 10b9 42000000 		.4byte	.LVL38
 3037 10bd 3F120000 		.4byte	0x123f
 3038 10c1 CC100000 		.4byte	0x10cc
 3039 10c5 23       		.uleb128 0x23
 3040 10c6 01       		.byte	0x1
 3041 10c7 50       		.byte	0x50
 3042 10c8 02       		.byte	0x2
 3043 10c9 75       		.byte	0x75
 3044 10ca 00       		.sleb128 0
 3045 10cb 00       		.byte	0
 3046 10cc 22       		.uleb128 0x22
 3047 10cd 50000000 		.4byte	.LVL40
 3048 10d1 F5110000 		.4byte	0x11f5
 3049 10d5 E0100000 		.4byte	0x10e0
 3050 10d9 23       		.uleb128 0x23
 3051 10da 01       		.byte	0x1
 3052 10db 50       		.byte	0x50
 3053 10dc 02       		.byte	0x2
 3054 10dd 75       		.byte	0x75
 3055 10de 00       		.sleb128 0
 3056 10df 00       		.byte	0
 3057 10e0 22       		.uleb128 0x22
 3058 10e1 66000000 		.4byte	.LVL41
 3059 10e5 09120000 		.4byte	0x1209
 3060 10e9 1B110000 		.4byte	0x111b
 3061 10ed 23       		.uleb128 0x23
 3062 10ee 01       		.byte	0x1
 3063 10ef 53       		.byte	0x53
 3064 10f0 02       		.byte	0x2
 3065 10f1 76       		.byte	0x76
 3066 10f2 00       		.sleb128 0
 3067 10f3 23       		.uleb128 0x23
 3068 10f4 01       		.byte	0x1
 3069 10f5 52       		.byte	0x52
 3070 10f6 02       		.byte	0x2
 3071 10f7 77       		.byte	0x77
 3072 10f8 00       		.sleb128 0
 3073 10f9 23       		.uleb128 0x23
 3074 10fa 01       		.byte	0x1
 3075 10fb 51       		.byte	0x51
 3076 10fc 02       		.byte	0x2
 3077 10fd 08       		.byte	0x8
 3078 10fe 60       		.byte	0x60
 3079 10ff 23       		.uleb128 0x23
 3080 1100 01       		.byte	0x1
ARM GAS  /tmp/cckDtn2d.s 			page 56


 3081 1101 50       		.byte	0x50
 3082 1102 02       		.byte	0x2
 3083 1103 75       		.byte	0x75
 3084 1104 00       		.sleb128 0
 3085 1105 23       		.uleb128 0x23
 3086 1106 02       		.byte	0x2
 3087 1107 7D       		.byte	0x7d
 3088 1108 08       		.sleb128 8
 3089 1109 02       		.byte	0x2
 3090 110a 78       		.byte	0x78
 3091 110b 00       		.sleb128 0
 3092 110c 23       		.uleb128 0x23
 3093 110d 02       		.byte	0x2
 3094 110e 7D       		.byte	0x7d
 3095 110f 04       		.sleb128 4
 3096 1110 02       		.byte	0x2
 3097 1111 76       		.byte	0x76
 3098 1112 00       		.sleb128 0
 3099 1113 23       		.uleb128 0x23
 3100 1114 02       		.byte	0x2
 3101 1115 7D       		.byte	0x7d
 3102 1116 00       		.sleb128 0
 3103 1117 02       		.byte	0x2
 3104 1118 79       		.byte	0x79
 3105 1119 00       		.sleb128 0
 3106 111a 00       		.byte	0
 3107 111b 27       		.uleb128 0x27
 3108 111c 6C000000 		.4byte	.LVL42
 3109 1120 3F120000 		.4byte	0x123f
 3110 1124 23       		.uleb128 0x23
 3111 1125 01       		.byte	0x1
 3112 1126 50       		.byte	0x50
 3113 1127 02       		.byte	0x2
 3114 1128 75       		.byte	0x75
 3115 1129 00       		.sleb128 0
 3116 112a 00       		.byte	0
 3117 112b 00       		.byte	0
 3118 112c 17       		.uleb128 0x17
 3119 112d AE080000 		.4byte	0x8ae
 3120 1131 3C110000 		.4byte	0x113c
 3121 1135 18       		.uleb128 0x18
 3122 1136 8A030000 		.4byte	0x38a
 3123 113a 08       		.byte	0x8
 3124 113b 00       		.byte	0
 3125 113c 26       		.uleb128 0x26
 3126 113d 02040000 		.4byte	.LASF231
 3127 1141 01       		.byte	0x1
 3128 1142 20       		.byte	0x20
 3129 1143 4D110000 		.4byte	0x114d
 3130 1147 05       		.byte	0x5
 3131 1148 03       		.byte	0x3
 3132 1149 00000000 		.4byte	i2c_debug_errors
 3133 114d 10       		.uleb128 0x10
 3134 114e 2C110000 		.4byte	0x112c
 3135 1152 28       		.uleb128 0x28
 3136 1153 46060000 		.4byte	.LASF232
 3137 1157 0F       		.byte	0xf
ARM GAS  /tmp/cckDtn2d.s 			page 57


 3138 1158 9806     		.2byte	0x698
 3139 115a C3040000 		.4byte	0x4c3
 3140 115e 01       		.byte	0x1
 3141 115f 01       		.byte	0x1
 3142 1160 29       		.uleb128 0x29
 3143 1161 EE060000 		.4byte	.LASF233
 3144 1165 01       		.byte	0x1
 3145 1166 12       		.byte	0x12
 3146 1167 190B0000 		.4byte	0xb19
 3147 116b 01       		.byte	0x1
 3148 116c 05       		.byte	0x5
 3149 116d 03       		.byte	0x3
 3150 116e 00000000 		.4byte	mpl3115a2_cache_data
 3151 1172 29       		.uleb128 0x29
 3152 1173 6B080000 		.4byte	.LASF234
 3153 1177 01       		.byte	0x1
 3154 1178 17       		.byte	0x17
 3155 1179 4F040000 		.4byte	0x44f
 3156 117d 01       		.byte	0x1
 3157 117e 05       		.byte	0x5
 3158 117f 03       		.byte	0x3
 3159 1180 00000000 		.4byte	mpl3115a2_int_event
 3160 1184 29       		.uleb128 0x29
 3161 1185 4F040000 		.4byte	.LASF235
 3162 1189 01       		.byte	0x1
 3163 118a 13       		.byte	0x13
 3164 118b 7F0A0000 		.4byte	0xa7f
 3165 118f 01       		.byte	0x1
 3166 1190 05       		.byte	0x5
 3167 1191 03       		.byte	0x3
 3168 1192 00000000 		.4byte	mpl3115a2_burst_a_g_data
 3169 1196 29       		.uleb128 0x29
 3170 1197 6E050000 		.4byte	.LASF236
 3171 119b 01       		.byte	0x1
 3172 119c 14       		.byte	0x14
 3173 119d A10A0000 		.4byte	0xaa1
 3174 11a1 01       		.byte	0x1
 3175 11a2 05       		.byte	0x5
 3176 11a3 03       		.byte	0x3
 3177 11a4 00000000 		.4byte	mpl3115a2_burst_magn_data
 3178 11a8 29       		.uleb128 0x29
 3179 11a9 9D000000 		.4byte	.LASF207
 3180 11ad 01       		.byte	0x1
 3181 11ae 16       		.byte	0x16
 3182 11af 7F0B0000 		.4byte	0xb7f
 3183 11b3 01       		.byte	0x1
 3184 11b4 05       		.byte	0x5
 3185 11b5 03       		.byte	0x3
 3186 11b6 00000000 		.4byte	mpl3115a2_driver
 3187 11ba 29       		.uleb128 0x29
 3188 11bb EC030000 		.4byte	.LASF237
 3189 11bf 01       		.byte	0x1
 3190 11c0 19       		.byte	0x19
 3191 11c1 CC110000 		.4byte	0x11cc
 3192 11c5 01       		.byte	0x1
 3193 11c6 05       		.byte	0x5
 3194 11c7 03       		.byte	0x3
ARM GAS  /tmp/cckDtn2d.s 			page 58


 3195 11c8 00000000 		.4byte	mpl3115a2_i2c_timeout
 3196 11cc 10       		.uleb128 0x10
 3197 11cd 1B010000 		.4byte	0x11b
 3198 11d1 29       		.uleb128 0x29
 3199 11d2 9B050000 		.4byte	.LASF238
 3200 11d6 01       		.byte	0x1
 3201 11d7 1C       		.byte	0x1c
 3202 11d8 B9040000 		.4byte	0x4b9
 3203 11dc 01       		.byte	0x1
 3204 11dd 05       		.byte	0x5
 3205 11de 03       		.byte	0x3
 3206 11df 00000000 		.4byte	mpl3115a2_i2c_slave_addr
 3207 11e3 29       		.uleb128 0x29
 3208 11e4 50050000 		.4byte	.LASF239
 3209 11e8 01       		.byte	0x1
 3210 11e9 1D       		.byte	0x1d
 3211 11ea B9040000 		.4byte	0x4b9
 3212 11ee 01       		.byte	0x1
 3213 11ef 05       		.byte	0x5
 3214 11f0 03       		.byte	0x3
 3215 11f1 00000000 		.4byte	mpl3115a2_i2c_magn_addr
 3216 11f5 2A       		.uleb128 0x2a
 3217 11f6 01       		.byte	0x1
 3218 11f7 6D030000 		.4byte	.LASF240
 3219 11fb 0C       		.byte	0xc
 3220 11fc 88       		.byte	0x88
 3221 11fd 01       		.byte	0x1
 3222 11fe 01       		.byte	0x1
 3223 11ff 09120000 		.4byte	0x1209
 3224 1203 2B       		.uleb128 0x2b
 3225 1204 690B0000 		.4byte	0xb69
 3226 1208 00       		.byte	0
 3227 1209 2C       		.uleb128 0x2c
 3228 120a 01       		.byte	0x1
 3229 120b 1D030000 		.4byte	.LASF241
 3230 120f 0C       		.byte	0xc
 3231 1210 7E       		.byte	0x7e
 3232 1211 01       		.byte	0x1
 3233 1212 EF000000 		.4byte	0xef
 3234 1216 01       		.byte	0x1
 3235 1217 3F120000 		.4byte	0x123f
 3236 121b 2B       		.uleb128 0x2b
 3237 121c 690B0000 		.4byte	0xb69
 3238 1220 2B       		.uleb128 0x2b
 3239 1221 F8060000 		.4byte	0x6f8
 3240 1225 2B       		.uleb128 0x2b
 3241 1226 B3040000 		.4byte	0x4b3
 3242 122a 2B       		.uleb128 0x2b
 3243 122b 37000000 		.4byte	0x37
 3244 122f 2B       		.uleb128 0x2b
 3245 1230 AD040000 		.4byte	0x4ad
 3246 1234 2B       		.uleb128 0x2b
 3247 1235 37000000 		.4byte	0x37
 3248 1239 2B       		.uleb128 0x2b
 3249 123a 1B010000 		.4byte	0x11b
 3250 123e 00       		.byte	0
 3251 123f 2D       		.uleb128 0x2d
ARM GAS  /tmp/cckDtn2d.s 			page 59


 3252 1240 01       		.byte	0x1
 3253 1241 0D070000 		.4byte	.LASF242
 3254 1245 0C       		.byte	0xc
 3255 1246 89       		.byte	0x89
 3256 1247 01       		.byte	0x1
 3257 1248 01       		.byte	0x1
 3258 1249 2B       		.uleb128 0x2b
 3259 124a 690B0000 		.4byte	0xb69
 3260 124e 00       		.byte	0
 3261 124f 00       		.byte	0
 3262              		.section	.debug_abbrev,"",%progbits
 3263              	.Ldebug_abbrev0:
 3264 0000 01       		.uleb128 0x1
 3265 0001 11       		.uleb128 0x11
 3266 0002 01       		.byte	0x1
 3267 0003 25       		.uleb128 0x25
 3268 0004 0E       		.uleb128 0xe
 3269 0005 13       		.uleb128 0x13
 3270 0006 0B       		.uleb128 0xb
 3271 0007 03       		.uleb128 0x3
 3272 0008 0E       		.uleb128 0xe
 3273 0009 1B       		.uleb128 0x1b
 3274 000a 0E       		.uleb128 0xe
 3275 000b 55       		.uleb128 0x55
 3276 000c 06       		.uleb128 0x6
 3277 000d 11       		.uleb128 0x11
 3278 000e 01       		.uleb128 0x1
 3279 000f 52       		.uleb128 0x52
 3280 0010 01       		.uleb128 0x1
 3281 0011 10       		.uleb128 0x10
 3282 0012 06       		.uleb128 0x6
 3283 0013 00       		.byte	0
 3284 0014 00       		.byte	0
 3285 0015 02       		.uleb128 0x2
 3286 0016 24       		.uleb128 0x24
 3287 0017 00       		.byte	0
 3288 0018 0B       		.uleb128 0xb
 3289 0019 0B       		.uleb128 0xb
 3290 001a 3E       		.uleb128 0x3e
 3291 001b 0B       		.uleb128 0xb
 3292 001c 03       		.uleb128 0x3
 3293 001d 0E       		.uleb128 0xe
 3294 001e 00       		.byte	0
 3295 001f 00       		.byte	0
 3296 0020 03       		.uleb128 0x3
 3297 0021 24       		.uleb128 0x24
 3298 0022 00       		.byte	0
 3299 0023 0B       		.uleb128 0xb
 3300 0024 0B       		.uleb128 0xb
 3301 0025 3E       		.uleb128 0x3e
 3302 0026 0B       		.uleb128 0xb
 3303 0027 03       		.uleb128 0x3
 3304 0028 08       		.uleb128 0x8
 3305 0029 00       		.byte	0
 3306 002a 00       		.byte	0
 3307 002b 04       		.uleb128 0x4
 3308 002c 16       		.uleb128 0x16
ARM GAS  /tmp/cckDtn2d.s 			page 60


 3309 002d 00       		.byte	0
 3310 002e 03       		.uleb128 0x3
 3311 002f 0E       		.uleb128 0xe
 3312 0030 3A       		.uleb128 0x3a
 3313 0031 0B       		.uleb128 0xb
 3314 0032 3B       		.uleb128 0x3b
 3315 0033 0B       		.uleb128 0xb
 3316 0034 49       		.uleb128 0x49
 3317 0035 13       		.uleb128 0x13
 3318 0036 00       		.byte	0
 3319 0037 00       		.byte	0
 3320 0038 05       		.uleb128 0x5
 3321 0039 13       		.uleb128 0x13
 3322 003a 01       		.byte	0x1
 3323 003b 03       		.uleb128 0x3
 3324 003c 0E       		.uleb128 0xe
 3325 003d 0B       		.uleb128 0xb
 3326 003e 0B       		.uleb128 0xb
 3327 003f 3A       		.uleb128 0x3a
 3328 0040 0B       		.uleb128 0xb
 3329 0041 3B       		.uleb128 0x3b
 3330 0042 0B       		.uleb128 0xb
 3331 0043 01       		.uleb128 0x1
 3332 0044 13       		.uleb128 0x13
 3333 0045 00       		.byte	0
 3334 0046 00       		.byte	0
 3335 0047 06       		.uleb128 0x6
 3336 0048 0D       		.uleb128 0xd
 3337 0049 00       		.byte	0
 3338 004a 03       		.uleb128 0x3
 3339 004b 0E       		.uleb128 0xe
 3340 004c 3A       		.uleb128 0x3a
 3341 004d 0B       		.uleb128 0xb
 3342 004e 3B       		.uleb128 0x3b
 3343 004f 0B       		.uleb128 0xb
 3344 0050 49       		.uleb128 0x49
 3345 0051 13       		.uleb128 0x13
 3346 0052 38       		.uleb128 0x38
 3347 0053 0A       		.uleb128 0xa
 3348 0054 00       		.byte	0
 3349 0055 00       		.byte	0
 3350 0056 07       		.uleb128 0x7
 3351 0057 0D       		.uleb128 0xd
 3352 0058 00       		.byte	0
 3353 0059 03       		.uleb128 0x3
 3354 005a 08       		.uleb128 0x8
 3355 005b 3A       		.uleb128 0x3a
 3356 005c 0B       		.uleb128 0xb
 3357 005d 3B       		.uleb128 0x3b
 3358 005e 0B       		.uleb128 0xb
 3359 005f 49       		.uleb128 0x49
 3360 0060 13       		.uleb128 0x13
 3361 0061 38       		.uleb128 0x38
 3362 0062 0A       		.uleb128 0xa
 3363 0063 00       		.byte	0
 3364 0064 00       		.byte	0
 3365 0065 08       		.uleb128 0x8
ARM GAS  /tmp/cckDtn2d.s 			page 61


 3366 0066 13       		.uleb128 0x13
 3367 0067 01       		.byte	0x1
 3368 0068 0B       		.uleb128 0xb
 3369 0069 0B       		.uleb128 0xb
 3370 006a 3A       		.uleb128 0x3a
 3371 006b 0B       		.uleb128 0xb
 3372 006c 3B       		.uleb128 0x3b
 3373 006d 0B       		.uleb128 0xb
 3374 006e 01       		.uleb128 0x1
 3375 006f 13       		.uleb128 0x13
 3376 0070 00       		.byte	0
 3377 0071 00       		.byte	0
 3378 0072 09       		.uleb128 0x9
 3379 0073 0F       		.uleb128 0xf
 3380 0074 00       		.byte	0
 3381 0075 0B       		.uleb128 0xb
 3382 0076 0B       		.uleb128 0xb
 3383 0077 49       		.uleb128 0x49
 3384 0078 13       		.uleb128 0x13
 3385 0079 00       		.byte	0
 3386 007a 00       		.byte	0
 3387 007b 0A       		.uleb128 0xa
 3388 007c 0F       		.uleb128 0xf
 3389 007d 00       		.byte	0
 3390 007e 0B       		.uleb128 0xb
 3391 007f 0B       		.uleb128 0xb
 3392 0080 00       		.byte	0
 3393 0081 00       		.byte	0
 3394 0082 0B       		.uleb128 0xb
 3395 0083 13       		.uleb128 0x13
 3396 0084 01       		.byte	0x1
 3397 0085 03       		.uleb128 0x3
 3398 0086 0E       		.uleb128 0xe
 3399 0087 0B       		.uleb128 0xb
 3400 0088 0B       		.uleb128 0xb
 3401 0089 3A       		.uleb128 0x3a
 3402 008a 0B       		.uleb128 0xb
 3403 008b 3B       		.uleb128 0x3b
 3404 008c 05       		.uleb128 0x5
 3405 008d 01       		.uleb128 0x1
 3406 008e 13       		.uleb128 0x13
 3407 008f 00       		.byte	0
 3408 0090 00       		.byte	0
 3409 0091 0C       		.uleb128 0xc
 3410 0092 0D       		.uleb128 0xd
 3411 0093 00       		.byte	0
 3412 0094 03       		.uleb128 0x3
 3413 0095 08       		.uleb128 0x8
 3414 0096 3A       		.uleb128 0x3a
 3415 0097 0B       		.uleb128 0xb
 3416 0098 3B       		.uleb128 0x3b
 3417 0099 05       		.uleb128 0x5
 3418 009a 49       		.uleb128 0x49
 3419 009b 13       		.uleb128 0x13
 3420 009c 38       		.uleb128 0x38
 3421 009d 0A       		.uleb128 0xa
 3422 009e 00       		.byte	0
ARM GAS  /tmp/cckDtn2d.s 			page 62


 3423 009f 00       		.byte	0
 3424 00a0 0D       		.uleb128 0xd
 3425 00a1 35       		.uleb128 0x35
 3426 00a2 00       		.byte	0
 3427 00a3 49       		.uleb128 0x49
 3428 00a4 13       		.uleb128 0x13
 3429 00a5 00       		.byte	0
 3430 00a6 00       		.byte	0
 3431 00a7 0E       		.uleb128 0xe
 3432 00a8 17       		.uleb128 0x17
 3433 00a9 01       		.byte	0x1
 3434 00aa 0B       		.uleb128 0xb
 3435 00ab 0B       		.uleb128 0xb
 3436 00ac 3A       		.uleb128 0x3a
 3437 00ad 0B       		.uleb128 0xb
 3438 00ae 3B       		.uleb128 0x3b
 3439 00af 0B       		.uleb128 0xb
 3440 00b0 01       		.uleb128 0x1
 3441 00b1 13       		.uleb128 0x13
 3442 00b2 00       		.byte	0
 3443 00b3 00       		.byte	0
 3444 00b4 0F       		.uleb128 0xf
 3445 00b5 0D       		.uleb128 0xd
 3446 00b6 00       		.byte	0
 3447 00b7 03       		.uleb128 0x3
 3448 00b8 0E       		.uleb128 0xe
 3449 00b9 3A       		.uleb128 0x3a
 3450 00ba 0B       		.uleb128 0xb
 3451 00bb 3B       		.uleb128 0x3b
 3452 00bc 0B       		.uleb128 0xb
 3453 00bd 49       		.uleb128 0x49
 3454 00be 13       		.uleb128 0x13
 3455 00bf 00       		.byte	0
 3456 00c0 00       		.byte	0
 3457 00c1 10       		.uleb128 0x10
 3458 00c2 26       		.uleb128 0x26
 3459 00c3 00       		.byte	0
 3460 00c4 49       		.uleb128 0x49
 3461 00c5 13       		.uleb128 0x13
 3462 00c6 00       		.byte	0
 3463 00c7 00       		.byte	0
 3464 00c8 11       		.uleb128 0x11
 3465 00c9 13       		.uleb128 0x13
 3466 00ca 01       		.byte	0x1
 3467 00cb 0B       		.uleb128 0xb
 3468 00cc 0B       		.uleb128 0xb
 3469 00cd 3A       		.uleb128 0x3a
 3470 00ce 0B       		.uleb128 0xb
 3471 00cf 3B       		.uleb128 0x3b
 3472 00d0 05       		.uleb128 0x5
 3473 00d1 01       		.uleb128 0x1
 3474 00d2 13       		.uleb128 0x13
 3475 00d3 00       		.byte	0
 3476 00d4 00       		.byte	0
 3477 00d5 12       		.uleb128 0x12
 3478 00d6 0D       		.uleb128 0xd
 3479 00d7 00       		.byte	0
ARM GAS  /tmp/cckDtn2d.s 			page 63


 3480 00d8 03       		.uleb128 0x3
 3481 00d9 0E       		.uleb128 0xe
 3482 00da 3A       		.uleb128 0x3a
 3483 00db 0B       		.uleb128 0xb
 3484 00dc 3B       		.uleb128 0x3b
 3485 00dd 05       		.uleb128 0x5
 3486 00de 49       		.uleb128 0x49
 3487 00df 13       		.uleb128 0x13
 3488 00e0 38       		.uleb128 0x38
 3489 00e1 0A       		.uleb128 0xa
 3490 00e2 00       		.byte	0
 3491 00e3 00       		.byte	0
 3492 00e4 13       		.uleb128 0x13
 3493 00e5 16       		.uleb128 0x16
 3494 00e6 00       		.byte	0
 3495 00e7 03       		.uleb128 0x3
 3496 00e8 0E       		.uleb128 0xe
 3497 00e9 3A       		.uleb128 0x3a
 3498 00ea 0B       		.uleb128 0xb
 3499 00eb 3B       		.uleb128 0x3b
 3500 00ec 05       		.uleb128 0x5
 3501 00ed 49       		.uleb128 0x49
 3502 00ee 13       		.uleb128 0x13
 3503 00ef 00       		.byte	0
 3504 00f0 00       		.byte	0
 3505 00f1 14       		.uleb128 0x14
 3506 00f2 04       		.uleb128 0x4
 3507 00f3 01       		.byte	0x1
 3508 00f4 0B       		.uleb128 0xb
 3509 00f5 0B       		.uleb128 0xb
 3510 00f6 3A       		.uleb128 0x3a
 3511 00f7 0B       		.uleb128 0xb
 3512 00f8 3B       		.uleb128 0x3b
 3513 00f9 0B       		.uleb128 0xb
 3514 00fa 01       		.uleb128 0x1
 3515 00fb 13       		.uleb128 0x13
 3516 00fc 00       		.byte	0
 3517 00fd 00       		.byte	0
 3518 00fe 15       		.uleb128 0x15
 3519 00ff 28       		.uleb128 0x28
 3520 0100 00       		.byte	0
 3521 0101 03       		.uleb128 0x3
 3522 0102 0E       		.uleb128 0xe
 3523 0103 1C       		.uleb128 0x1c
 3524 0104 0D       		.uleb128 0xd
 3525 0105 00       		.byte	0
 3526 0106 00       		.byte	0
 3527 0107 16       		.uleb128 0x16
 3528 0108 04       		.uleb128 0x4
 3529 0109 01       		.byte	0x1
 3530 010a 0B       		.uleb128 0xb
 3531 010b 0B       		.uleb128 0xb
 3532 010c 3A       		.uleb128 0x3a
 3533 010d 0B       		.uleb128 0xb
 3534 010e 3B       		.uleb128 0x3b
 3535 010f 05       		.uleb128 0x5
 3536 0110 01       		.uleb128 0x1
ARM GAS  /tmp/cckDtn2d.s 			page 64


 3537 0111 13       		.uleb128 0x13
 3538 0112 00       		.byte	0
 3539 0113 00       		.byte	0
 3540 0114 17       		.uleb128 0x17
 3541 0115 01       		.uleb128 0x1
 3542 0116 01       		.byte	0x1
 3543 0117 49       		.uleb128 0x49
 3544 0118 13       		.uleb128 0x13
 3545 0119 01       		.uleb128 0x1
 3546 011a 13       		.uleb128 0x13
 3547 011b 00       		.byte	0
 3548 011c 00       		.byte	0
 3549 011d 18       		.uleb128 0x18
 3550 011e 21       		.uleb128 0x21
 3551 011f 00       		.byte	0
 3552 0120 49       		.uleb128 0x49
 3553 0121 13       		.uleb128 0x13
 3554 0122 2F       		.uleb128 0x2f
 3555 0123 0B       		.uleb128 0xb
 3556 0124 00       		.byte	0
 3557 0125 00       		.byte	0
 3558 0126 19       		.uleb128 0x19
 3559 0127 2E       		.uleb128 0x2e
 3560 0128 01       		.byte	0x1
 3561 0129 3F       		.uleb128 0x3f
 3562 012a 0C       		.uleb128 0xc
 3563 012b 03       		.uleb128 0x3
 3564 012c 0E       		.uleb128 0xe
 3565 012d 3A       		.uleb128 0x3a
 3566 012e 0B       		.uleb128 0xb
 3567 012f 3B       		.uleb128 0x3b
 3568 0130 0B       		.uleb128 0xb
 3569 0131 27       		.uleb128 0x27
 3570 0132 0C       		.uleb128 0xc
 3571 0133 49       		.uleb128 0x49
 3572 0134 13       		.uleb128 0x13
 3573 0135 11       		.uleb128 0x11
 3574 0136 01       		.uleb128 0x1
 3575 0137 12       		.uleb128 0x12
 3576 0138 01       		.uleb128 0x1
 3577 0139 40       		.uleb128 0x40
 3578 013a 0A       		.uleb128 0xa
 3579 013b 9742     		.uleb128 0x2117
 3580 013d 0C       		.uleb128 0xc
 3581 013e 01       		.uleb128 0x1
 3582 013f 13       		.uleb128 0x13
 3583 0140 00       		.byte	0
 3584 0141 00       		.byte	0
 3585 0142 1A       		.uleb128 0x1a
 3586 0143 05       		.uleb128 0x5
 3587 0144 00       		.byte	0
 3588 0145 03       		.uleb128 0x3
 3589 0146 08       		.uleb128 0x8
 3590 0147 3A       		.uleb128 0x3a
 3591 0148 0B       		.uleb128 0xb
 3592 0149 3B       		.uleb128 0x3b
 3593 014a 0B       		.uleb128 0xb
ARM GAS  /tmp/cckDtn2d.s 			page 65


 3594 014b 49       		.uleb128 0x49
 3595 014c 13       		.uleb128 0x13
 3596 014d 02       		.uleb128 0x2
 3597 014e 06       		.uleb128 0x6
 3598 014f 00       		.byte	0
 3599 0150 00       		.byte	0
 3600 0151 1B       		.uleb128 0x1b
 3601 0152 34       		.uleb128 0x34
 3602 0153 00       		.byte	0
 3603 0154 03       		.uleb128 0x3
 3604 0155 0E       		.uleb128 0xe
 3605 0156 3A       		.uleb128 0x3a
 3606 0157 0B       		.uleb128 0xb
 3607 0158 3B       		.uleb128 0x3b
 3608 0159 0B       		.uleb128 0xb
 3609 015a 49       		.uleb128 0x49
 3610 015b 13       		.uleb128 0x13
 3611 015c 1C       		.uleb128 0x1c
 3612 015d 0B       		.uleb128 0xb
 3613 015e 00       		.byte	0
 3614 015f 00       		.byte	0
 3615 0160 1C       		.uleb128 0x1c
 3616 0161 34       		.uleb128 0x34
 3617 0162 00       		.byte	0
 3618 0163 03       		.uleb128 0x3
 3619 0164 08       		.uleb128 0x8
 3620 0165 3A       		.uleb128 0x3a
 3621 0166 0B       		.uleb128 0xb
 3622 0167 3B       		.uleb128 0x3b
 3623 0168 0B       		.uleb128 0xb
 3624 0169 49       		.uleb128 0x49
 3625 016a 13       		.uleb128 0x13
 3626 016b 02       		.uleb128 0x2
 3627 016c 06       		.uleb128 0x6
 3628 016d 00       		.byte	0
 3629 016e 00       		.byte	0
 3630 016f 1D       		.uleb128 0x1d
 3631 0170 2E       		.uleb128 0x2e
 3632 0171 01       		.byte	0x1
 3633 0172 3F       		.uleb128 0x3f
 3634 0173 0C       		.uleb128 0xc
 3635 0174 03       		.uleb128 0x3
 3636 0175 0E       		.uleb128 0xe
 3637 0176 3A       		.uleb128 0x3a
 3638 0177 0B       		.uleb128 0xb
 3639 0178 3B       		.uleb128 0x3b
 3640 0179 0B       		.uleb128 0xb
 3641 017a 27       		.uleb128 0x27
 3642 017b 0C       		.uleb128 0xc
 3643 017c 11       		.uleb128 0x11
 3644 017d 01       		.uleb128 0x1
 3645 017e 12       		.uleb128 0x12
 3646 017f 01       		.uleb128 0x1
 3647 0180 40       		.uleb128 0x40
 3648 0181 0A       		.uleb128 0xa
 3649 0182 9742     		.uleb128 0x2117
 3650 0184 0C       		.uleb128 0xc
ARM GAS  /tmp/cckDtn2d.s 			page 66


 3651 0185 01       		.uleb128 0x1
 3652 0186 13       		.uleb128 0x13
 3653 0187 00       		.byte	0
 3654 0188 00       		.byte	0
 3655 0189 1E       		.uleb128 0x1e
 3656 018a 05       		.uleb128 0x5
 3657 018b 00       		.byte	0
 3658 018c 03       		.uleb128 0x3
 3659 018d 08       		.uleb128 0x8
 3660 018e 3A       		.uleb128 0x3a
 3661 018f 0B       		.uleb128 0xb
 3662 0190 3B       		.uleb128 0x3b
 3663 0191 0B       		.uleb128 0xb
 3664 0192 49       		.uleb128 0x49
 3665 0193 13       		.uleb128 0x13
 3666 0194 02       		.uleb128 0x2
 3667 0195 0A       		.uleb128 0xa
 3668 0196 00       		.byte	0
 3669 0197 00       		.byte	0
 3670 0198 1F       		.uleb128 0x1f
 3671 0199 2E       		.uleb128 0x2e
 3672 019a 01       		.byte	0x1
 3673 019b 3F       		.uleb128 0x3f
 3674 019c 0C       		.uleb128 0xc
 3675 019d 03       		.uleb128 0x3
 3676 019e 0E       		.uleb128 0xe
 3677 019f 3A       		.uleb128 0x3a
 3678 01a0 0B       		.uleb128 0xb
 3679 01a1 3B       		.uleb128 0x3b
 3680 01a2 0B       		.uleb128 0xb
 3681 01a3 27       		.uleb128 0x27
 3682 01a4 0C       		.uleb128 0xc
 3683 01a5 11       		.uleb128 0x11
 3684 01a6 01       		.uleb128 0x1
 3685 01a7 12       		.uleb128 0x12
 3686 01a8 01       		.uleb128 0x1
 3687 01a9 40       		.uleb128 0x40
 3688 01aa 06       		.uleb128 0x6
 3689 01ab 9742     		.uleb128 0x2117
 3690 01ad 0C       		.uleb128 0xc
 3691 01ae 01       		.uleb128 0x1
 3692 01af 13       		.uleb128 0x13
 3693 01b0 00       		.byte	0
 3694 01b1 00       		.byte	0
 3695 01b2 20       		.uleb128 0x20
 3696 01b3 05       		.uleb128 0x5
 3697 01b4 00       		.byte	0
 3698 01b5 03       		.uleb128 0x3
 3699 01b6 0E       		.uleb128 0xe
 3700 01b7 3A       		.uleb128 0x3a
 3701 01b8 0B       		.uleb128 0xb
 3702 01b9 3B       		.uleb128 0x3b
 3703 01ba 0B       		.uleb128 0xb
 3704 01bb 49       		.uleb128 0x49
 3705 01bc 13       		.uleb128 0x13
 3706 01bd 02       		.uleb128 0x2
 3707 01be 06       		.uleb128 0x6
ARM GAS  /tmp/cckDtn2d.s 			page 67


 3708 01bf 00       		.byte	0
 3709 01c0 00       		.byte	0
 3710 01c1 21       		.uleb128 0x21
 3711 01c2 34       		.uleb128 0x34
 3712 01c3 00       		.byte	0
 3713 01c4 03       		.uleb128 0x3
 3714 01c5 0E       		.uleb128 0xe
 3715 01c6 3A       		.uleb128 0x3a
 3716 01c7 0B       		.uleb128 0xb
 3717 01c8 3B       		.uleb128 0x3b
 3718 01c9 0B       		.uleb128 0xb
 3719 01ca 49       		.uleb128 0x49
 3720 01cb 13       		.uleb128 0x13
 3721 01cc 02       		.uleb128 0x2
 3722 01cd 06       		.uleb128 0x6
 3723 01ce 00       		.byte	0
 3724 01cf 00       		.byte	0
 3725 01d0 22       		.uleb128 0x22
 3726 01d1 898201   		.uleb128 0x4109
 3727 01d4 01       		.byte	0x1
 3728 01d5 11       		.uleb128 0x11
 3729 01d6 01       		.uleb128 0x1
 3730 01d7 31       		.uleb128 0x31
 3731 01d8 13       		.uleb128 0x13
 3732 01d9 01       		.uleb128 0x1
 3733 01da 13       		.uleb128 0x13
 3734 01db 00       		.byte	0
 3735 01dc 00       		.byte	0
 3736 01dd 23       		.uleb128 0x23
 3737 01de 8A8201   		.uleb128 0x410a
 3738 01e1 00       		.byte	0
 3739 01e2 02       		.uleb128 0x2
 3740 01e3 0A       		.uleb128 0xa
 3741 01e4 9142     		.uleb128 0x2111
 3742 01e6 0A       		.uleb128 0xa
 3743 01e7 00       		.byte	0
 3744 01e8 00       		.byte	0
 3745 01e9 24       		.uleb128 0x24
 3746 01ea 898201   		.uleb128 0x4109
 3747 01ed 01       		.byte	0x1
 3748 01ee 11       		.uleb128 0x11
 3749 01ef 01       		.uleb128 0x1
 3750 01f0 9542     		.uleb128 0x2115
 3751 01f2 0C       		.uleb128 0xc
 3752 01f3 31       		.uleb128 0x31
 3753 01f4 13       		.uleb128 0x13
 3754 01f5 00       		.byte	0
 3755 01f6 00       		.byte	0
 3756 01f7 25       		.uleb128 0x25
 3757 01f8 2E       		.uleb128 0x2e
 3758 01f9 01       		.byte	0x1
 3759 01fa 3F       		.uleb128 0x3f
 3760 01fb 0C       		.uleb128 0xc
 3761 01fc 03       		.uleb128 0x3
 3762 01fd 0E       		.uleb128 0xe
 3763 01fe 3A       		.uleb128 0x3a
 3764 01ff 0B       		.uleb128 0xb
ARM GAS  /tmp/cckDtn2d.s 			page 68


 3765 0200 3B       		.uleb128 0x3b
 3766 0201 0B       		.uleb128 0xb
 3767 0202 27       		.uleb128 0x27
 3768 0203 0C       		.uleb128 0xc
 3769 0204 49       		.uleb128 0x49
 3770 0205 13       		.uleb128 0x13
 3771 0206 11       		.uleb128 0x11
 3772 0207 01       		.uleb128 0x1
 3773 0208 12       		.uleb128 0x12
 3774 0209 01       		.uleb128 0x1
 3775 020a 40       		.uleb128 0x40
 3776 020b 06       		.uleb128 0x6
 3777 020c 9742     		.uleb128 0x2117
 3778 020e 0C       		.uleb128 0xc
 3779 020f 01       		.uleb128 0x1
 3780 0210 13       		.uleb128 0x13
 3781 0211 00       		.byte	0
 3782 0212 00       		.byte	0
 3783 0213 26       		.uleb128 0x26
 3784 0214 34       		.uleb128 0x34
 3785 0215 00       		.byte	0
 3786 0216 03       		.uleb128 0x3
 3787 0217 0E       		.uleb128 0xe
 3788 0218 3A       		.uleb128 0x3a
 3789 0219 0B       		.uleb128 0xb
 3790 021a 3B       		.uleb128 0x3b
 3791 021b 0B       		.uleb128 0xb
 3792 021c 49       		.uleb128 0x49
 3793 021d 13       		.uleb128 0x13
 3794 021e 02       		.uleb128 0x2
 3795 021f 0A       		.uleb128 0xa
 3796 0220 00       		.byte	0
 3797 0221 00       		.byte	0
 3798 0222 27       		.uleb128 0x27
 3799 0223 898201   		.uleb128 0x4109
 3800 0226 01       		.byte	0x1
 3801 0227 11       		.uleb128 0x11
 3802 0228 01       		.uleb128 0x1
 3803 0229 31       		.uleb128 0x31
 3804 022a 13       		.uleb128 0x13
 3805 022b 00       		.byte	0
 3806 022c 00       		.byte	0
 3807 022d 28       		.uleb128 0x28
 3808 022e 34       		.uleb128 0x34
 3809 022f 00       		.byte	0
 3810 0230 03       		.uleb128 0x3
 3811 0231 0E       		.uleb128 0xe
 3812 0232 3A       		.uleb128 0x3a
 3813 0233 0B       		.uleb128 0xb
 3814 0234 3B       		.uleb128 0x3b
 3815 0235 05       		.uleb128 0x5
 3816 0236 49       		.uleb128 0x49
 3817 0237 13       		.uleb128 0x13
 3818 0238 3F       		.uleb128 0x3f
 3819 0239 0C       		.uleb128 0xc
 3820 023a 3C       		.uleb128 0x3c
 3821 023b 0C       		.uleb128 0xc
ARM GAS  /tmp/cckDtn2d.s 			page 69


 3822 023c 00       		.byte	0
 3823 023d 00       		.byte	0
 3824 023e 29       		.uleb128 0x29
 3825 023f 34       		.uleb128 0x34
 3826 0240 00       		.byte	0
 3827 0241 03       		.uleb128 0x3
 3828 0242 0E       		.uleb128 0xe
 3829 0243 3A       		.uleb128 0x3a
 3830 0244 0B       		.uleb128 0xb
 3831 0245 3B       		.uleb128 0x3b
 3832 0246 0B       		.uleb128 0xb
 3833 0247 49       		.uleb128 0x49
 3834 0248 13       		.uleb128 0x13
 3835 0249 3F       		.uleb128 0x3f
 3836 024a 0C       		.uleb128 0xc
 3837 024b 02       		.uleb128 0x2
 3838 024c 0A       		.uleb128 0xa
 3839 024d 00       		.byte	0
 3840 024e 00       		.byte	0
 3841 024f 2A       		.uleb128 0x2a
 3842 0250 2E       		.uleb128 0x2e
 3843 0251 01       		.byte	0x1
 3844 0252 3F       		.uleb128 0x3f
 3845 0253 0C       		.uleb128 0xc
 3846 0254 03       		.uleb128 0x3
 3847 0255 0E       		.uleb128 0xe
 3848 0256 3A       		.uleb128 0x3a
 3849 0257 0B       		.uleb128 0xb
 3850 0258 3B       		.uleb128 0x3b
 3851 0259 0B       		.uleb128 0xb
 3852 025a 27       		.uleb128 0x27
 3853 025b 0C       		.uleb128 0xc
 3854 025c 3C       		.uleb128 0x3c
 3855 025d 0C       		.uleb128 0xc
 3856 025e 01       		.uleb128 0x1
 3857 025f 13       		.uleb128 0x13
 3858 0260 00       		.byte	0
 3859 0261 00       		.byte	0
 3860 0262 2B       		.uleb128 0x2b
 3861 0263 05       		.uleb128 0x5
 3862 0264 00       		.byte	0
 3863 0265 49       		.uleb128 0x49
 3864 0266 13       		.uleb128 0x13
 3865 0267 00       		.byte	0
 3866 0268 00       		.byte	0
 3867 0269 2C       		.uleb128 0x2c
 3868 026a 2E       		.uleb128 0x2e
 3869 026b 01       		.byte	0x1
 3870 026c 3F       		.uleb128 0x3f
 3871 026d 0C       		.uleb128 0xc
 3872 026e 03       		.uleb128 0x3
 3873 026f 0E       		.uleb128 0xe
 3874 0270 3A       		.uleb128 0x3a
 3875 0271 0B       		.uleb128 0xb
 3876 0272 3B       		.uleb128 0x3b
 3877 0273 0B       		.uleb128 0xb
 3878 0274 27       		.uleb128 0x27
ARM GAS  /tmp/cckDtn2d.s 			page 70


 3879 0275 0C       		.uleb128 0xc
 3880 0276 49       		.uleb128 0x49
 3881 0277 13       		.uleb128 0x13
 3882 0278 3C       		.uleb128 0x3c
 3883 0279 0C       		.uleb128 0xc
 3884 027a 01       		.uleb128 0x1
 3885 027b 13       		.uleb128 0x13
 3886 027c 00       		.byte	0
 3887 027d 00       		.byte	0
 3888 027e 2D       		.uleb128 0x2d
 3889 027f 2E       		.uleb128 0x2e
 3890 0280 01       		.byte	0x1
 3891 0281 3F       		.uleb128 0x3f
 3892 0282 0C       		.uleb128 0xc
 3893 0283 03       		.uleb128 0x3
 3894 0284 0E       		.uleb128 0xe
 3895 0285 3A       		.uleb128 0x3a
 3896 0286 0B       		.uleb128 0xb
 3897 0287 3B       		.uleb128 0x3b
 3898 0288 0B       		.uleb128 0xb
 3899 0289 27       		.uleb128 0x27
 3900 028a 0C       		.uleb128 0xc
 3901 028b 3C       		.uleb128 0x3c
 3902 028c 0C       		.uleb128 0xc
 3903 028d 00       		.byte	0
 3904 028e 00       		.byte	0
 3905 028f 00       		.byte	0
 3906              		.section	.debug_loc,"",%progbits
 3907              	.Ldebug_loc0:
 3908              	.LLST0:
 3909 0000 00000000 		.4byte	.LVL0
 3910 0004 16000000 		.4byte	.LVL2
 3911 0008 0100     		.2byte	0x1
 3912 000a 50       		.byte	0x50
 3913 000b 16000000 		.4byte	.LVL2
 3914 000f 18000000 		.4byte	.LVL3
 3915 0013 0400     		.2byte	0x4
 3916 0015 F3       		.byte	0xf3
 3917 0016 01       		.uleb128 0x1
 3918 0017 50       		.byte	0x50
 3919 0018 9F       		.byte	0x9f
 3920 0019 18000000 		.4byte	.LVL3
 3921 001d 1E000000 		.4byte	.LVL4
 3922 0021 0100     		.2byte	0x1
 3923 0023 50       		.byte	0x50
 3924 0024 1E000000 		.4byte	.LVL4
 3925 0028 28000000 		.4byte	.LFE118
 3926 002c 0400     		.2byte	0x4
 3927 002e F3       		.byte	0xf3
 3928 002f 01       		.uleb128 0x1
 3929 0030 50       		.byte	0x50
 3930 0031 9F       		.byte	0x9f
 3931 0032 00000000 		.4byte	0
 3932 0036 00000000 		.4byte	0
 3933              	.LLST1:
 3934 003a 00000000 		.4byte	.LVL0
 3935 003e 04000000 		.4byte	.LVL1
ARM GAS  /tmp/cckDtn2d.s 			page 71


 3936 0042 0200     		.2byte	0x2
 3937 0044 30       		.byte	0x30
 3938 0045 9F       		.byte	0x9f
 3939 0046 00000000 		.4byte	0
 3940 004a 00000000 		.4byte	0
 3941              	.LLST2:
 3942 004e 00000000 		.4byte	.LFB120
 3943 0052 04000000 		.4byte	.LCFI0
 3944 0056 0200     		.2byte	0x2
 3945 0058 7D       		.byte	0x7d
 3946 0059 00       		.sleb128 0
 3947 005a 04000000 		.4byte	.LCFI0
 3948 005e 0E000000 		.4byte	.LCFI1
 3949 0062 0200     		.2byte	0x2
 3950 0064 7D       		.byte	0x7d
 3951 0065 20       		.sleb128 32
 3952 0066 0E000000 		.4byte	.LCFI1
 3953 006a F6000000 		.4byte	.LFE120
 3954 006e 0200     		.2byte	0x2
 3955 0070 7D       		.byte	0x7d
 3956 0071 30       		.sleb128 48
 3957 0072 00000000 		.4byte	0
 3958 0076 00000000 		.4byte	0
 3959              	.LLST3:
 3960 007a 00000000 		.4byte	.LVL6
 3961 007e 2B000000 		.4byte	.LVL7-1
 3962 0082 0100     		.2byte	0x1
 3963 0084 50       		.byte	0x50
 3964 0085 2B000000 		.4byte	.LVL7-1
 3965 0089 F6000000 		.4byte	.LFE120
 3966 008d 0100     		.2byte	0x1
 3967 008f 54       		.byte	0x54
 3968 0090 00000000 		.4byte	0
 3969 0094 00000000 		.4byte	0
 3970              	.LLST4:
 3971 0098 00000000 		.4byte	.LVL6
 3972 009c 42000000 		.4byte	.LVL8
 3973 00a0 0200     		.2byte	0x2
 3974 00a2 30       		.byte	0x30
 3975 00a3 9F       		.byte	0x9f
 3976 00a4 00000000 		.4byte	0
 3977 00a8 00000000 		.4byte	0
 3978              	.LLST5:
 3979 00ac 00000000 		.4byte	.LFB121
 3980 00b0 04000000 		.4byte	.LCFI2
 3981 00b4 0200     		.2byte	0x2
 3982 00b6 7D       		.byte	0x7d
 3983 00b7 00       		.sleb128 0
 3984 00b8 04000000 		.4byte	.LCFI2
 3985 00bc 12000000 		.4byte	.LCFI3
 3986 00c0 0200     		.2byte	0x2
 3987 00c2 7D       		.byte	0x7d
 3988 00c3 24       		.sleb128 36
 3989 00c4 12000000 		.4byte	.LCFI3
 3990 00c8 B8000000 		.4byte	.LFE121
 3991 00cc 0200     		.2byte	0x2
 3992 00ce 7D       		.byte	0x7d
ARM GAS  /tmp/cckDtn2d.s 			page 72


 3993 00cf 38       		.sleb128 56
 3994 00d0 00000000 		.4byte	0
 3995 00d4 00000000 		.4byte	0
 3996              	.LLST6:
 3997 00d8 00000000 		.4byte	.LVL22
 3998 00dc 23000000 		.4byte	.LVL23-1
 3999 00e0 0100     		.2byte	0x1
 4000 00e2 50       		.byte	0x50
 4001 00e3 23000000 		.4byte	.LVL23-1
 4002 00e7 B8000000 		.4byte	.LFE121
 4003 00eb 0100     		.2byte	0x1
 4004 00ed 55       		.byte	0x55
 4005 00ee 00000000 		.4byte	0
 4006 00f2 00000000 		.4byte	0
 4007              	.LLST7:
 4008 00f6 94000000 		.4byte	.LVL33
 4009 00fa 9C000000 		.4byte	.LVL34
 4010 00fe 2B00     		.2byte	0x2b
 4011 0100 03       		.byte	0x3
 4012 0101 3A000000 		.4byte	mpl3115a2_driver+58
 4013 0105 94       		.byte	0x94
 4014 0106 01       		.byte	0x1
 4015 0107 34       		.byte	0x34
 4016 0108 25       		.byte	0x25
 4017 0109 08       		.byte	0x8
 4018 010a FF       		.byte	0xff
 4019 010b 1A       		.byte	0x1a
 4020 010c F7       		.byte	0xf7
 4021 010d 30       		.uleb128 0x30
 4022 010e F7       		.byte	0xf7
 4023 010f 29       		.uleb128 0x29
 4024 0110 F4       		.byte	0xf4
 4025 0111 29       		.uleb128 0x29
 4026 0112 04       		.byte	0x4
 4027 0113 0000803D 		.4byte	0x3d800000
 4028 0117 1E       		.byte	0x1e
 4029 0118 7B       		.byte	0x7b
 4030 0119 00       		.sleb128 0
 4031 011a 08       		.byte	0x8
 4032 011b FF       		.byte	0xff
 4033 011c 1A       		.byte	0x1a
 4034 011d 38       		.byte	0x38
 4035 011e 24       		.byte	0x24
 4036 011f 7A       		.byte	0x7a
 4037 0120 00       		.sleb128 0
 4038 0121 08       		.byte	0x8
 4039 0122 FF       		.byte	0xff
 4040 0123 1A       		.byte	0x1a
 4041 0124 21       		.byte	0x21
 4042 0125 F7       		.byte	0xf7
 4043 0126 30       		.uleb128 0x30
 4044 0127 F7       		.byte	0xf7
 4045 0128 29       		.uleb128 0x29
 4046 0129 22       		.byte	0x22
 4047 012a 9F       		.byte	0x9f
 4048 012b 00000000 		.4byte	0
 4049 012f 00000000 		.4byte	0
ARM GAS  /tmp/cckDtn2d.s 			page 73


 4050              	.LLST8:
 4051 0133 48000000 		.4byte	.LVL26
 4052 0137 4D000000 		.4byte	.LVL27-1
 4053 013b 0200     		.2byte	0x2
 4054 013d 79       		.byte	0x79
 4055 013e 00       		.sleb128 0
 4056 013f 4D000000 		.4byte	.LVL27-1
 4057 0143 B8000000 		.4byte	.LFE121
 4058 0147 0100     		.2byte	0x1
 4059 0149 5B       		.byte	0x5b
 4060 014a 00000000 		.4byte	0
 4061 014e 00000000 		.4byte	0
 4062              	.LLST9:
 4063 0152 72000000 		.4byte	.LVL30
 4064 0156 77000000 		.4byte	.LVL31-1
 4065 015a 0200     		.2byte	0x2
 4066 015c 79       		.byte	0x79
 4067 015d 00       		.sleb128 0
 4068 015e 77000000 		.4byte	.LVL31-1
 4069 0162 9C000000 		.4byte	.LVL34
 4070 0166 0100     		.2byte	0x1
 4071 0168 5A       		.byte	0x5a
 4072 0169 00000000 		.4byte	0
 4073 016d 00000000 		.4byte	0
 4074              	.LLST10:
 4075 0171 00000000 		.4byte	.LVL22
 4076 0175 3A000000 		.4byte	.LVL24
 4077 0179 0200     		.2byte	0x2
 4078 017b 30       		.byte	0x30
 4079 017c 9F       		.byte	0x9f
 4080 017d 00000000 		.4byte	0
 4081 0181 00000000 		.4byte	0
 4082              	.LLST11:
 4083 0185 00000000 		.4byte	.LFB122
 4084 0189 04000000 		.4byte	.LCFI4
 4085 018d 0200     		.2byte	0x2
 4086 018f 7D       		.byte	0x7d
 4087 0190 00       		.sleb128 0
 4088 0191 04000000 		.4byte	.LCFI4
 4089 0195 12000000 		.4byte	.LCFI5
 4090 0199 0200     		.2byte	0x2
 4091 019b 7D       		.byte	0x7d
 4092 019c 20       		.sleb128 32
 4093 019d 12000000 		.4byte	.LCFI5
 4094 01a1 8C000000 		.4byte	.LFE122
 4095 01a5 0200     		.2byte	0x2
 4096 01a7 7D       		.byte	0x7d
 4097 01a8 30       		.sleb128 48
 4098 01a9 00000000 		.4byte	0
 4099 01ad 00000000 		.4byte	0
 4100              	.LLST12:
 4101 01b1 00000000 		.4byte	.LVL35
 4102 01b5 25000000 		.4byte	.LVL36-1
 4103 01b9 0100     		.2byte	0x1
 4104 01bb 50       		.byte	0x50
 4105 01bc 25000000 		.4byte	.LVL36-1
 4106 01c0 8C000000 		.4byte	.LFE122
ARM GAS  /tmp/cckDtn2d.s 			page 74


 4107 01c4 0100     		.2byte	0x1
 4108 01c6 55       		.byte	0x55
 4109 01c7 00000000 		.4byte	0
 4110 01cb 00000000 		.4byte	0
 4111              	.LLST13:
 4112 01cf 4A000000 		.4byte	.LVL39
 4113 01d3 4F000000 		.4byte	.LVL40-1
 4114 01d7 0200     		.2byte	0x2
 4115 01d9 79       		.byte	0x79
 4116 01da 00       		.sleb128 0
 4117 01db 4F000000 		.4byte	.LVL40-1
 4118 01df 8C000000 		.4byte	.LFE122
 4119 01e3 0100     		.2byte	0x1
 4120 01e5 5A       		.byte	0x5a
 4121 01e6 00000000 		.4byte	0
 4122 01ea 00000000 		.4byte	0
 4123              	.LLST14:
 4124 01ee 00000000 		.4byte	.LVL35
 4125 01f2 3C000000 		.4byte	.LVL37
 4126 01f6 0200     		.2byte	0x2
 4127 01f8 30       		.byte	0x30
 4128 01f9 9F       		.byte	0x9f
 4129 01fa 00000000 		.4byte	0
 4130 01fe 00000000 		.4byte	0
 4131              		.section	.debug_aranges,"",%progbits
 4132 0000 3C000000 		.4byte	0x3c
 4133 0004 0200     		.2byte	0x2
 4134 0006 00000000 		.4byte	.Ldebug_info0
 4135 000a 04       		.byte	0x4
 4136 000b 00       		.byte	0
 4137 000c 0000     		.2byte	0
 4138 000e 0000     		.2byte	0
 4139 0010 00000000 		.4byte	.LFB118
 4140 0014 28000000 		.4byte	.LFE118-.LFB118
 4141 0018 00000000 		.4byte	.LFB119
 4142 001c 02000000 		.4byte	.LFE119-.LFB119
 4143 0020 00000000 		.4byte	.LFB120
 4144 0024 F6000000 		.4byte	.LFE120-.LFB120
 4145 0028 00000000 		.4byte	.LFB121
 4146 002c B8000000 		.4byte	.LFE121-.LFB121
 4147 0030 00000000 		.4byte	.LFB122
 4148 0034 8C000000 		.4byte	.LFE122-.LFB122
 4149 0038 00000000 		.4byte	0
 4150 003c 00000000 		.4byte	0
 4151              		.section	.debug_ranges,"",%progbits
 4152              	.Ldebug_ranges0:
 4153 0000 00000000 		.4byte	.LFB118
 4154 0004 28000000 		.4byte	.LFE118
 4155 0008 00000000 		.4byte	.LFB119
 4156 000c 02000000 		.4byte	.LFE119
 4157 0010 00000000 		.4byte	.LFB120
 4158 0014 F6000000 		.4byte	.LFE120
 4159 0018 00000000 		.4byte	.LFB121
 4160 001c B8000000 		.4byte	.LFE121
 4161 0020 00000000 		.4byte	.LFB122
 4162 0024 8C000000 		.4byte	.LFE122
 4163 0028 00000000 		.4byte	0
ARM GAS  /tmp/cckDtn2d.s 			page 75


 4164 002c 00000000 		.4byte	0
 4165              		.section	.debug_line,"",%progbits
 4166              	.Ldebug_line0:
 4167 0000 89030000 		.section	.debug_str,"MS",%progbits,1
 4167      0200CF02 
 4167      00000201 
 4167      FB0E0D00 
 4167      01010101 
 4168              	.LASF72:
 4169 0000 4D314152 		.ascii	"M1AR\000"
 4169      00
 4170              	.LASF128:
 4171 0005 6572726F 		.ascii	"error_number\000"
 4171      725F6E75 
 4171      6D626572 
 4171      00
 4172              	.LASF3:
 4173 0012 73697A65 		.ascii	"size_t\000"
 4173      5F7400
 4174              	.LASF53:
 4175 0019 73697A65 		.ascii	"sizetype\000"
 4175      74797065 
 4175      00
 4176              	.LASF25:
 4177 0022 73797374 		.ascii	"systime_t\000"
 4177      696D655F 
 4177      7400
 4178              	.LASF30:
 4179 002c 705F6374 		.ascii	"p_ctx\000"
 4179      7800
 4180              	.LASF20:
 4181 0032 74707269 		.ascii	"tprio_t\000"
 4181      6F5F7400 
 4182              	.LASF230:
 4183 003a 6C5F7465 		.ascii	"l_temp\000"
 4183      6D7000
 4184              	.LASF41:
 4185 0041 705F6D73 		.ascii	"p_msgqueue\000"
 4185      67717565 
 4185      756500
 4186              	.LASF9:
 4187 004c 696E7433 		.ascii	"int32_t\000"
 4187      325F7400 
 4188              	.LASF220:
 4189 0054 616C7469 		.ascii	"altitude\000"
 4189      74756465 
 4189      00
 4190              	.LASF107:
 4191 005d 46415354 		.ascii	"FAST_DUTY_CYCLE_2\000"
 4191      5F445554 
 4191      595F4359 
 4191      434C455F 
 4191      3200
 4192              	.LASF177:
 4193 006f 505F4D49 		.ascii	"P_MIN_CSB\000"
 4193      4E5F4353 
 4193      4200
ARM GAS  /tmp/cckDtn2d.s 			page 76


 4194              	.LASF171:
 4195 0079 505F5447 		.ascii	"P_TGT_LSB\000"
 4195      545F4C53 
 4195      4200
 4196              	.LASF130:
 4197 0083 4D41474E 		.ascii	"MAGN_INFORMATION\000"
 4197      5F494E46 
 4197      4F524D41 
 4197      54494F4E 
 4197      00
 4198              	.LASF203:
 4199 0094 6D61676E 		.ascii	"magn_reg\000"
 4199      5F726567 
 4199      00
 4200              	.LASF207:
 4201 009d 6D706C33 		.ascii	"mpl3115a2_driver\000"
 4201      31313561 
 4201      325F6472 
 4201      69766572 
 4201      00
 4202              	.LASF176:
 4203 00ae 505F4D49 		.ascii	"P_MIN_MSB\000"
 4203      4E5F4D53 
 4203      4200
 4204              	.LASF199:
 4205 00b8 6D706C33 		.ascii	"mpl3115a2_magn_burst_data\000"
 4205      31313561 
 4205      325F6D61 
 4205      676E5F62 
 4205      75727374 
 4206              	.LASF62:
 4207 00d2 656C5F66 		.ascii	"el_flags\000"
 4207      6C616773 
 4207      00
 4208              	.LASF186:
 4209 00db 4354524C 		.ascii	"CTRL_REG1\000"
 4209      5F524547 
 4209      3100
 4210              	.LASF187:
 4211 00e5 4354524C 		.ascii	"CTRL_REG2\000"
 4211      5F524547 
 4211      3200
 4212              	.LASF188:
 4213 00ef 4354524C 		.ascii	"CTRL_REG3\000"
 4213      5F524547 
 4213      3300
 4214              	.LASF116:
 4215 00f9 636F6E66 		.ascii	"config\000"
 4215      696700
 4216              	.LASF115:
 4217 0100 73746174 		.ascii	"state\000"
 4217      6500
 4218              	.LASF224:
 4219 0106 474E5520 		.ascii	"GNU C 4.7.2\000"
 4219      4320342E 
 4219      372E3200 
 4220              	.LASF200:
ARM GAS  /tmp/cckDtn2d.s 			page 77


 4221 0112 63757272 		.ascii	"current_rx_numbytes\000"
 4221      656E745F 
 4221      72785F6E 
 4221      756D6279 
 4221      74657300 
 4222              	.LASF125:
 4223 0126 6D706C33 		.ascii	"mpl3115a2_reg_data\000"
 4223      31313561 
 4223      325F7265 
 4223      675F6461 
 4223      746100
 4224              	.LASF156:
 4225 0139 4F55545F 		.ascii	"OUT_P_DELTA_CSB\000"
 4225      505F4445 
 4225      4C54415F 
 4225      43534200 
 4226              	.LASF202:
 4227 0149 615F675F 		.ascii	"a_g_reg\000"
 4227      72656700 
 4228              	.LASF56:
 4229 0151 6D5F6F77 		.ascii	"m_owner\000"
 4229      6E657200 
 4230              	.LASF66:
 4231 0159 65786974 		.ascii	"exitcode\000"
 4231      636F6465 
 4231      00
 4232              	.LASF100:
 4233 0162 69326361 		.ascii	"i2caddr_t\000"
 4233      6464725F 
 4233      7400
 4234              	.LASF68:
 4235 016c 65776D61 		.ascii	"ewmask\000"
 4235      736B00
 4236              	.LASF151:
 4237 0173 4F55545F 		.ascii	"OUT_P_LSB\000"
 4237      505F4C53 
 4237      4200
 4238              	.LASF109:
 4239 017d 69326364 		.ascii	"i2cdutycycle_t\000"
 4239      75747963 
 4239      79636C65 
 4239      5F7400
 4240              	.LASF143:
 4241 018c 4D41474E 		.ascii	"MAGN_I2C_DIS\000"
 4241      5F493243 
 4241      5F444953 
 4241      00
 4242              	.LASF168:
 4243 0199 4241525F 		.ascii	"BAR_IN_MSB\000"
 4243      494E5F4D 
 4243      534200
 4244              	.LASF223:
 4245 01a4 6C5F616C 		.ascii	"l_altitude\000"
 4245      74697475 
 4245      646500
 4246              	.LASF31:
 4247 01af 705F6E65 		.ascii	"p_newer\000"
ARM GAS  /tmp/cckDtn2d.s 			page 78


 4247      77657200 
 4248              	.LASF10:
 4249 01b7 6C6F6E67 		.ascii	"long int\000"
 4249      20696E74 
 4249      00
 4250              	.LASF27:
 4251 01c0 705F6E65 		.ascii	"p_next\000"
 4251      787400
 4252              	.LASF28:
 4253 01c7 705F7072 		.ascii	"p_prev\000"
 4253      657600
 4254              	.LASF173:
 4255 01ce 505F574E 		.ascii	"P_WND_MSB\000"
 4255      445F4D53 
 4255      4200
 4256              	.LASF17:
 4257 01d8 74737461 		.ascii	"tstate_t\000"
 4257      74655F74 
 4257      00
 4258              	.LASF159:
 4259 01e1 4F55545F 		.ascii	"OUT_T_DELTA_LSB\000"
 4259      545F4445 
 4259      4C54415F 
 4259      4C534200 
 4260              	.LASF44:
 4261 01f1 705F6D74 		.ascii	"p_mtxlist\000"
 4261      786C6973 
 4261      7400
 4262              	.LASF8:
 4263 01fb 73686F72 		.ascii	"short unsigned int\000"
 4263      7420756E 
 4263      7369676E 
 4263      65642069 
 4263      6E7400
 4264              	.LASF210:
 4265 020e 74786275 		.ascii	"txbuf\000"
 4265      6600
 4266              	.LASF49:
 4267 0214 72656761 		.ascii	"regarm_t\000"
 4267      726D5F74 
 4267      00
 4268              	.LASF219:
 4269 021d 6D706C33 		.ascii	"mpl3115a2_get_altitude\000"
 4269      31313561 
 4269      325F6765 
 4269      745F616C 
 4269      74697475 
 4270              	.LASF225:
 4271 0234 2E2E2F2E 		.ascii	"../../devices/MPL3115A2.c\000"
 4271      2E2F6465 
 4271      76696365 
 4271      732F4D50 
 4271      4C333131 
 4272              	.LASF2:
 4273 024e 7369676E 		.ascii	"signed char\000"
 4273      65642063 
 4273      68617200 
ARM GAS  /tmp/cckDtn2d.s 			page 79


 4274              	.LASF38:
 4275 025a 705F7072 		.ascii	"p_preempt\000"
 4275      65656D70 
 4275      7400
 4276              	.LASF4:
 4277 0264 75696E74 		.ascii	"uint8_t\000"
 4277      385F7400 
 4278              	.LASF23:
 4279 026c 6576656E 		.ascii	"eventmask_t\000"
 4279      746D6173 
 4279      6B5F7400 
 4280              	.LASF52:
 4281 0278 636F6E74 		.ascii	"context\000"
 4281      65787400 
 4282              	.LASF206:
 4283 0280 6D706C33 		.ascii	"mpl3115a2_cache\000"
 4283      31313561 
 4283      325F6361 
 4283      63686500 
 4284              	.LASF226:
 4285 0290 2F686F6D 		.ascii	"/home/david/Projects/stm32/src/pressure_sensor\000"
 4285      652F6461 
 4285      7669642F 
 4285      50726F6A 
 4285      65637473 
 4286              	.LASF74:
 4287 02bf 52455345 		.ascii	"RESERVED0\000"
 4287      52564544 
 4287      3000
 4288              	.LASF75:
 4289 02c9 52455345 		.ascii	"RESERVED1\000"
 4289      52564544 
 4289      3100
 4290              	.LASF5:
 4291 02d3 756E7369 		.ascii	"unsigned char\000"
 4291      676E6564 
 4291      20636861 
 4291      7200
 4292              	.LASF79:
 4293 02e1 52455345 		.ascii	"RESERVED3\000"
 4293      52564544 
 4293      3300
 4294              	.LASF80:
 4295 02eb 52455345 		.ascii	"RESERVED4\000"
 4295      52564544 
 4295      3400
 4296              	.LASF81:
 4297 02f5 52455345 		.ascii	"RESERVED5\000"
 4297      52564544 
 4297      3500
 4298              	.LASF82:
 4299 02ff 52455345 		.ascii	"RESERVED6\000"
 4299      52564544 
 4299      3600
 4300              	.LASF83:
 4301 0309 52455345 		.ascii	"RESERVED7\000"
 4301      52564544 
ARM GAS  /tmp/cckDtn2d.s 			page 80


 4301      3700
 4302              	.LASF85:
 4303 0313 52455345 		.ascii	"RESERVED8\000"
 4303      52564544 
 4303      3800
 4304              	.LASF241:
 4305 031d 6932634D 		.ascii	"i2cMasterTransmitTimeout\000"
 4305      61737465 
 4305      72547261 
 4305      6E736D69 
 4305      7454696D 
 4306              	.LASF213:
 4307 0336 636F756E 		.ascii	"count_errors\000"
 4307      745F6572 
 4307      726F7273 
 4307      00
 4308              	.LASF97:
 4309 0343 4932435F 		.ascii	"I2C_ACTIVE_RX\000"
 4309      41435449 
 4309      56455F52 
 4309      5800
 4310              	.LASF214:
 4311 0351 6D706C33 		.ascii	"mpl3115a2_int_event_handler\000"
 4311      31313561 
 4311      325F696E 
 4311      745F6576 
 4311      656E745F 
 4312              	.LASF240:
 4313 036d 69326341 		.ascii	"i2cAcquireBus\000"
 4313      63717569 
 4313      72654275 
 4313      7300
 4314              	.LASF77:
 4315 037b 52455345 		.ascii	"RESERVED2\000"
 4315      52564544 
 4315      3200
 4316              	.LASF167:
 4317 0385 50545F44 		.ascii	"PT_DATA_CFG\000"
 4317      4154415F 
 4317      43464700 
 4318              	.LASF102:
 4319 0391 4F504D4F 		.ascii	"OPMODE_I2C\000"
 4319      44455F49 
 4319      324300
 4320              	.LASF69:
 4321 039c 63686172 		.ascii	"char\000"
 4321      00
 4322              	.LASF133:
 4323 03a1 4D41474E 		.ascii	"MAGN_HXH\000"
 4323      5F485848 
 4323      00
 4324              	.LASF215:
 4325 03aa 6D706C33 		.ascii	"mpl3115a2_start\000"
 4325      31313561 
 4325      325F7374 
 4325      61727400 
 4326              	.LASF132:
ARM GAS  /tmp/cckDtn2d.s 			page 81


 4327 03ba 4D41474E 		.ascii	"MAGN_HXL\000"
 4327      5F48584C 
 4327      00
 4328              	.LASF89:
 4329 03c3 69736869 		.ascii	"ishift\000"
 4329      667400
 4330              	.LASF29:
 4331 03ca 705F7072 		.ascii	"p_prio\000"
 4331      696F00
 4332              	.LASF145:
 4333 03d1 4D41474E 		.ascii	"MAGN_ASAY\000"
 4333      5F415341 
 4333      5900
 4334              	.LASF146:
 4335 03db 4D41474E 		.ascii	"MAGN_ASAZ\000"
 4335      5F415341 
 4335      5A00
 4336              	.LASF67:
 4337 03e5 77746F62 		.ascii	"wtobjp\000"
 4337      6A7000
 4338              	.LASF237:
 4339 03ec 6D706C33 		.ascii	"mpl3115a2_i2c_timeout\000"
 4339      31313561 
 4339      325F6932 
 4339      635F7469 
 4339      6D656F75 
 4340              	.LASF231:
 4341 0402 6932635F 		.ascii	"i2c_debug_errors\000"
 4341      64656275 
 4341      675F6572 
 4341      726F7273 
 4341      00
 4342              	.LASF117:
 4343 0413 6572726F 		.ascii	"errors\000"
 4343      727300
 4344              	.LASF135:
 4345 041a 4D41474E 		.ascii	"MAGN_HYH\000"
 4345      5F485948 
 4345      00
 4346              	.LASF134:
 4347 0423 4D41474E 		.ascii	"MAGN_HYL\000"
 4347      5F48594C 
 4347      00
 4348              	.LASF50:
 4349 042c 73746B61 		.ascii	"stkalign_t\000"
 4349      6C69676E 
 4349      5F7400
 4350              	.LASF150:
 4351 0437 4F55545F 		.ascii	"OUT_P_CSB\000"
 4351      505F4353 
 4351      4200
 4352              	.LASF96:
 4353 0441 4932435F 		.ascii	"I2C_ACTIVE_TX\000"
 4353      41435449 
 4353      56455F54 
 4353      5800
 4354              	.LASF235:
ARM GAS  /tmp/cckDtn2d.s 			page 82


 4355 044f 6D706C33 		.ascii	"mpl3115a2_burst_a_g_data\000"
 4355      31313561 
 4355      325F6275 
 4355      7273745F 
 4355      615F675F 
 4356              	.LASF87:
 4357 0468 73747265 		.ascii	"stream\000"
 4357      616D00
 4358              	.LASF149:
 4359 046f 4F55545F 		.ascii	"OUT_P_MSB\000"
 4359      505F4D53 
 4359      4200
 4360              	.LASF137:
 4361 0479 4D41474E 		.ascii	"MAGN_HZH\000"
 4361      5F485A48 
 4361      00
 4362              	.LASF136:
 4363 0482 4D41474E 		.ascii	"MAGN_HZL\000"
 4363      5F485A4C 
 4363      00
 4364              	.LASF212:
 4365 048b 4D504C33 		.ascii	"MPL3115A2_Driver\000"
 4365      31313541 
 4365      325F4472 
 4365      69766572 
 4365      00
 4366              	.LASF208:
 4367 049c 6932635F 		.ascii	"i2c_errors\000"
 4367      6572726F 
 4367      727300
 4368              	.LASF51:
 4369 04a7 696E7463 		.ascii	"intctx\000"
 4369      747800
 4370              	.LASF196:
 4371 04ae 6D70755F 		.ascii	"mpu_who_ami\000"
 4371      77686F5F 
 4371      616D6900 
 4372              	.LASF43:
 4373 04ba 705F6570 		.ascii	"p_epending\000"
 4373      656E6469 
 4373      6E6700
 4374              	.LASF158:
 4375 04c5 4F55545F 		.ascii	"OUT_T_DELTA_MSB\000"
 4375      545F4445 
 4375      4C54415F 
 4375      4D534200 
 4376              	.LASF98:
 4377 04d5 4932435F 		.ascii	"I2C_LOCKED\000"
 4377      4C4F434B 
 4377      454400
 4378              	.LASF112:
 4379 04e0 64757479 		.ascii	"duty_cycle\000"
 4379      5F637963 
 4379      6C6500
 4380              	.LASF201:
 4381 04eb 63757272 		.ascii	"current_tx_numbytes\000"
 4381      656E745F 
ARM GAS  /tmp/cckDtn2d.s 			page 83


 4381      74785F6E 
 4381      756D6279 
 4381      74657300 
 4382              	.LASF114:
 4383 04ff 49324344 		.ascii	"I2CDriver\000"
 4383      72697665 
 4383      7200
 4384              	.LASF64:
 4385 0509 65735F6E 		.ascii	"es_next\000"
 4385      65787400 
 4386              	.LASF162:
 4387 0511 465F4441 		.ascii	"F_DATA\000"
 4387      544100
 4388              	.LASF63:
 4389 0518 4576656E 		.ascii	"EventSource\000"
 4389      74536F75 
 4389      72636500 
 4390              	.LASF12:
 4391 0524 6C6F6E67 		.ascii	"long unsigned int\000"
 4391      20756E73 
 4391      69676E65 
 4391      6420696E 
 4391      7400
 4392              	.LASF217:
 4393 0536 73746174 		.ascii	"status\000"
 4393      757300
 4394              	.LASF166:
 4395 053d 494E545F 		.ascii	"INT_SOURCE\000"
 4395      534F5552 
 4395      434500
 4396              	.LASF59:
 4397 0548 656C5F6E 		.ascii	"el_next\000"
 4397      65787400 
 4398              	.LASF239:
 4399 0550 6D706C33 		.ascii	"mpl3115a2_i2c_magn_addr\000"
 4399      31313561 
 4399      325F6932 
 4399      635F6D61 
 4399      676E5F61 
 4400              	.LASF84:
 4401 0568 54524953 		.ascii	"TRISE\000"
 4401      4500
 4402              	.LASF236:
 4403 056e 6D706C33 		.ascii	"mpl3115a2_burst_magn_data\000"
 4403      31313561 
 4403      325F6275 
 4403      7273745F 
 4403      6D61676E 
 4404              	.LASF92:
 4405 0588 73746D33 		.ascii	"stm32_dma_stream_t\000"
 4405      325F646D 
 4405      615F7374 
 4405      7265616D 
 4405      5F7400
 4406              	.LASF238:
 4407 059b 6D706C33 		.ascii	"mpl3115a2_i2c_slave_addr\000"
 4407      31313561 
ARM GAS  /tmp/cckDtn2d.s 			page 84


 4407      325F6932 
 4407      635F736C 
 4407      6176655F 
 4408              	.LASF165:
 4409 05b4 5359534D 		.ascii	"SYSMOD\000"
 4409      4F4400
 4410              	.LASF211:
 4411 05bb 72786275 		.ascii	"rxbuf\000"
 4411      6600
 4412              	.LASF122:
 4413 05c1 646D6172 		.ascii	"dmarx\000"
 4413      7800
 4414              	.LASF54:
 4415 05c7 4D757465 		.ascii	"Mutex\000"
 4415      7800
 4416              	.LASF13:
 4417 05cd 6C6F6E67 		.ascii	"long long int\000"
 4417      206C6F6E 
 4417      6720696E 
 4417      7400
 4418              	.LASF93:
 4419 05db 4932435F 		.ascii	"I2C_UNINIT\000"
 4419      554E494E 
 4419      495400
 4420              	.LASF163:
 4421 05e6 465F5345 		.ascii	"F_SETUP\000"
 4421      54555000 
 4422              	.LASF55:
 4423 05ee 6D5F7175 		.ascii	"m_queue\000"
 4423      65756500 
 4424              	.LASF189:
 4425 05f6 4354524C 		.ascii	"CTRL_REG4\000"
 4425      5F524547 
 4425      3400
 4426              	.LASF153:
 4427 0600 4F55545F 		.ascii	"OUT_T_LSB\000"
 4427      545F4C53 
 4427      4200
 4428              	.LASF141:
 4429 060a 4D41474E 		.ascii	"MAGN_TS1\000"
 4429      5F545331 
 4429      00
 4430              	.LASF142:
 4431 0613 4D41474E 		.ascii	"MAGN_TS2\000"
 4431      5F545332 
 4431      00
 4432              	.LASF204:
 4433 061c 74785F63 		.ascii	"tx_cache\000"
 4433      61636865 
 4433      00
 4434              	.LASF155:
 4435 0625 4F55545F 		.ascii	"OUT_P_DELTA_MSB\000"
 4435      505F4445 
 4435      4C54415F 
 4435      4D534200 
 4436              	.LASF99:
 4437 0635 69326373 		.ascii	"i2cstate_t\000"
ARM GAS  /tmp/cckDtn2d.s 			page 85


 4437      74617465 
 4437      5F7400
 4438              	.LASF118:
 4439 0640 6D757465 		.ascii	"mutex\000"
 4439      7800
 4440              	.LASF232:
 4441 0646 49544D5F 		.ascii	"ITM_RxBuffer\000"
 4441      52784275 
 4441      66666572 
 4441      00
 4442              	.LASF121:
 4443 0653 646D616D 		.ascii	"dmamode\000"
 4443      6F646500 
 4444              	.LASF40:
 4445 065b 705F7761 		.ascii	"p_waiting\000"
 4445      6974696E 
 4445      6700
 4446              	.LASF120:
 4447 0665 61646472 		.ascii	"addr\000"
 4447      00
 4448              	.LASF123:
 4449 066a 646D6174 		.ascii	"dmatx\000"
 4449      7800
 4450              	.LASF36:
 4451 0670 705F666C 		.ascii	"p_flags\000"
 4451      61677300 
 4452              	.LASF90:
 4453 0678 73656C66 		.ascii	"selfindex\000"
 4453      696E6465 
 4453      7800
 4454              	.LASF1:
 4455 0682 756E7369 		.ascii	"unsigned int\000"
 4455      676E6564 
 4455      20696E74 
 4455      00
 4456              	.LASF154:
 4457 068f 44525F53 		.ascii	"DR_STATUS\000"
 4457      54415455 
 4457      5300
 4458              	.LASF46:
 4459 0699 705F6D70 		.ascii	"p_mpool\000"
 4459      6F6F6C00 
 4460              	.LASF37:
 4461 06a1 705F7265 		.ascii	"p_refs\000"
 4461      667300
 4462              	.LASF48:
 4463 06a8 54687265 		.ascii	"ThreadsList\000"
 4463      6164734C 
 4463      69737400 
 4464              	.LASF170:
 4465 06b4 505F5447 		.ascii	"P_TGT_MSB\000"
 4465      545F4D53 
 4465      4200
 4466              	.LASF95:
 4467 06be 4932435F 		.ascii	"I2C_READY\000"
 4467      52454144 
 4467      5900
ARM GAS  /tmp/cckDtn2d.s 			page 86


 4468              	.LASF24:
 4469 06c8 666C6167 		.ascii	"flagsmask_t\000"
 4469      736D6173 
 4469      6B5F7400 
 4470              	.LASF73:
 4471 06d4 444D415F 		.ascii	"DMA_Stream_TypeDef\000"
 4471      53747265 
 4471      616D5F54 
 4471      79706544 
 4471      656600
 4472              	.LASF39:
 4473 06e7 705F7469 		.ascii	"p_time\000"
 4473      6D6500
 4474              	.LASF233:
 4475 06ee 6D706C33 		.ascii	"mpl3115a2_cache_data\000"
 4475      31313561 
 4475      325F6361 
 4475      6368655F 
 4475      64617461 
 4476              	.LASF185:
 4477 0703 545F4D41 		.ascii	"T_MAX_LSB\000"
 4477      585F4C53 
 4477      4200
 4478              	.LASF242:
 4479 070d 69326352 		.ascii	"i2cReleaseBus\000"
 4479      656C6561 
 4479      73654275 
 4479      7300
 4480              	.LASF174:
 4481 071b 505F574E 		.ascii	"P_WND_LSB\000"
 4481      445F4C53 
 4481      4200
 4482              	.LASF229:
 4483 0725 6D5F7465 		.ascii	"m_temp\000"
 4483      6D7000
 4484              	.LASF108:
 4485 072c 46415354 		.ascii	"FAST_DUTY_CYCLE_16_9\000"
 4485      5F445554 
 4485      595F4359 
 4485      434C455F 
 4485      31365F39 
 4486              	.LASF160:
 4487 0741 57484F5F 		.ascii	"WHO_AM_I\000"
 4487      414D5F49 
 4487      00
 4488              	.LASF45:
 4489 074a 705F7265 		.ascii	"p_realprio\000"
 4489      616C7072 
 4489      696F00
 4490              	.LASF124:
 4491 0755 6D706C33 		.ascii	"mpl3115a2_i2c_data\000"
 4491      31313561 
 4491      325F6932 
 4491      635F6461 
 4491      746100
 4492              	.LASF113:
 4493 0768 49324343 		.ascii	"I2CConfig\000"
ARM GAS  /tmp/cckDtn2d.s 			page 87


 4493      6F6E6669 
 4493      6700
 4494              	.LASF175:
 4495 0772 545F574E 		.ascii	"T_WND\000"
 4495      4400
 4496              	.LASF147:
 4497 0778 6D706C33 		.ascii	"mpl3115a2_magn_regaddr\000"
 4497      31313561 
 4497      325F6D61 
 4497      676E5F72 
 4497      65676164 
 4498              	.LASF127:
 4499 078f 6572725F 		.ascii	"err_string\000"
 4499      73747269 
 4499      6E6700
 4500              	.LASF126:
 4501 079a 6932635F 		.ascii	"i2c_error_info\000"
 4501      6572726F 
 4501      725F696E 
 4501      666F00
 4502              	.LASF227:
 4503 07a9 6D706C33 		.ascii	"mpl3115a2_get_temperature\000"
 4503      31313561 
 4503      325F6765 
 4503      745F7465 
 4503      6D706572 
 4504              	.LASF15:
 4505 07c3 6C6F6E67 		.ascii	"long long unsigned int\000"
 4505      206C6F6E 
 4505      6720756E 
 4505      7369676E 
 4505      65642069 
 4506              	.LASF216:
 4507 07da 69326370 		.ascii	"i2cptr\000"
 4507      747200
 4508              	.LASF32:
 4509 07e1 705F6F6C 		.ascii	"p_older\000"
 4509      64657200 
 4510              	.LASF105:
 4511 07e9 6932636F 		.ascii	"i2copmode_t\000"
 4511      706D6F64 
 4511      655F7400 
 4512              	.LASF7:
 4513 07f5 75696E74 		.ascii	"uint16_t\000"
 4513      31365F74 
 4513      00
 4514              	.LASF21:
 4515 07fe 6D73675F 		.ascii	"msg_t\000"
 4515      7400
 4516              	.LASF103:
 4517 0804 4F504D4F 		.ascii	"OPMODE_SMBUS_DEVICE\000"
 4517      44455F53 
 4517      4D425553 
 4517      5F444556 
 4517      49434500 
 4518              	.LASF152:
 4519 0818 4F55545F 		.ascii	"OUT_T_MSB\000"
ARM GAS  /tmp/cckDtn2d.s 			page 88


 4519      545F4D53 
 4519      4200
 4520              	.LASF19:
 4521 0822 74736C69 		.ascii	"tslices_t\000"
 4521      6365735F 
 4521      7400
 4522              	.LASF22:
 4523 082c 6576656E 		.ascii	"eventid_t\000"
 4523      7469645F 
 4523      7400
 4524              	.LASF205:
 4525 0836 72785F63 		.ascii	"rx_cache\000"
 4525      61636865 
 4525      00
 4526              	.LASF91:
 4527 083f 76656374 		.ascii	"vector\000"
 4527      6F7200
 4528              	.LASF86:
 4529 0846 4932435F 		.ascii	"I2C_TypeDef\000"
 4529      54797065 
 4529      44656600 
 4530              	.LASF106:
 4531 0852 5354445F 		.ascii	"STD_DUTY_CYCLE\000"
 4531      44555459 
 4531      5F435943 
 4531      4C4500
 4532              	.LASF183:
 4533 0861 505F4D41 		.ascii	"P_MAX_LSB\000"
 4533      585F4C53 
 4533      4200
 4534              	.LASF234:
 4535 086b 6D706C33 		.ascii	"mpl3115a2_int_event\000"
 4535      31313561 
 4535      325F696E 
 4535      745F6576 
 4535      656E7400 
 4536              	.LASF180:
 4537 087f 545F4D49 		.ascii	"T_MIN_LSB\000"
 4537      4E5F4C53 
 4537      4200
 4538              	.LASF148:
 4539 0889 53544154 		.ascii	"STATUS\000"
 4539      555300
 4540              	.LASF198:
 4541 0890 6D70755F 		.ascii	"mpu_magn_who_ami\000"
 4541      6D61676E 
 4541      5F77686F 
 4541      5F616D69 
 4541      00
 4542              	.LASF222:
 4543 08a1 635F616C 		.ascii	"c_altitude\000"
 4543      74697475 
 4543      646500
 4544              	.LASF16:
 4545 08ac 746D6F64 		.ascii	"tmode_t\000"
 4545      655F7400 
 4546              	.LASF76:
ARM GAS  /tmp/cckDtn2d.s 			page 89


 4547 08b4 4F415231 		.ascii	"OAR1\000"
 4547      00
 4548              	.LASF78:
 4549 08b9 4F415232 		.ascii	"OAR2\000"
 4549      00
 4550              	.LASF119:
 4551 08be 74687265 		.ascii	"thread\000"
 4551      616400
 4552              	.LASF71:
 4553 08c5 4D304152 		.ascii	"M0AR\000"
 4553      00
 4554              	.LASF161:
 4555 08ca 465F5354 		.ascii	"F_STATUS\000"
 4555      41545553 
 4555      00
 4556              	.LASF218:
 4557 08d3 6932635F 		.ascii	"i2c_errno_str\000"
 4557      6572726E 
 4557      6F5F7374 
 4557      7200
 4558              	.LASF6:
 4559 08e1 73686F72 		.ascii	"short int\000"
 4559      7420696E 
 4559      7400
 4560              	.LASF14:
 4561 08eb 75696E74 		.ascii	"uint64_t\000"
 4561      36345F74 
 4561      00
 4562              	.LASF184:
 4563 08f4 545F4D41 		.ascii	"T_MAX_MSB\000"
 4563      585F4D53 
 4563      4200
 4564              	.LASF104:
 4565 08fe 4F504D4F 		.ascii	"OPMODE_SMBUS_HOST\000"
 4565      44455F53 
 4565      4D425553 
 4565      5F484F53 
 4565      5400
 4566              	.LASF172:
 4567 0910 545F5447 		.ascii	"T_TGT\000"
 4567      5400
 4568              	.LASF26:
 4569 0916 54687265 		.ascii	"Thread\000"
 4569      616400
 4570              	.LASF178:
 4571 091d 505F4D49 		.ascii	"P_MIN_LSB\000"
 4571      4E5F4C53 
 4571      4200
 4572              	.LASF18:
 4573 0927 74726566 		.ascii	"trefs_t\000"
 4573      735F7400 
 4574              	.LASF58:
 4575 092f 4576656E 		.ascii	"EventListener\000"
 4575      744C6973 
 4575      74656E65 
 4575      7200
 4576              	.LASF110:
ARM GAS  /tmp/cckDtn2d.s 			page 90


 4577 093d 6F705F6D 		.ascii	"op_mode\000"
 4577      6F646500 
 4578              	.LASF140:
 4579 0945 4D41474E 		.ascii	"MAGN_ASTC\000"
 4579      5F415354 
 4579      4300
 4580              	.LASF194:
 4581 094f 4D504C5F 		.ascii	"MPL_SLAVE_ADDR\000"
 4581      534C4156 
 4581      455F4144 
 4581      445200
 4582              	.LASF11:
 4583 095e 75696E74 		.ascii	"uint32_t\000"
 4583      33325F74 
 4583      00
 4584              	.LASF139:
 4585 0967 4D41474E 		.ascii	"MAGN_CNTL\000"
 4585      5F434E54 
 4585      4C00
 4586              	.LASF47:
 4587 0971 54687265 		.ascii	"ThreadsQueue\000"
 4587      61647351 
 4587      75657565 
 4587      00
 4588              	.LASF195:
 4589 097e 6D706C33 		.ascii	"mpl3115a2_regaddr\000"
 4589      31313561 
 4589      325F7265 
 4589      67616464 
 4589      7200
 4590              	.LASF209:
 4591 0990 6932635F 		.ascii	"i2c_instance\000"
 4591      696E7374 
 4591      616E6365 
 4591      00
 4592              	.LASF101:
 4593 099d 69326366 		.ascii	"i2cflags_t\000"
 4593      6C616773 
 4593      5F7400
 4594              	.LASF182:
 4595 09a8 505F4D41 		.ascii	"P_MAX_CSB\000"
 4595      585F4353 
 4595      4200
 4596              	.LASF65:
 4597 09b2 7264796D 		.ascii	"rdymsg\000"
 4597      736700
 4598              	.LASF157:
 4599 09b9 4F55545F 		.ascii	"OUT_P_DELTA_LSB\000"
 4599      505F4445 
 4599      4C54415F 
 4599      4C534200 
 4600              	.LASF0:
 4601 09c9 666C6F61 		.ascii	"float\000"
 4601      7400
 4602              	.LASF144:
 4603 09cf 4D41474E 		.ascii	"MAGN_ASAX\000"
 4603      5F415341 
ARM GAS  /tmp/cckDtn2d.s 			page 91


 4603      5800
 4604              	.LASF111:
 4605 09d9 636C6F63 		.ascii	"clock_speed\000"
 4605      6B5F7370 
 4605      65656400 
 4606              	.LASF129:
 4607 09e5 4D41474E 		.ascii	"MAGN_DEVICE_ID\000"
 4607      5F444556 
 4607      4943455F 
 4607      494400
 4608              	.LASF169:
 4609 09f4 4241525F 		.ascii	"BAR_IN_LSB\000"
 4609      494E5F4C 
 4609      534200
 4610              	.LASF181:
 4611 09ff 505F4D41 		.ascii	"P_MAX_MSB\000"
 4611      585F4D53 
 4611      4200
 4612              	.LASF190:
 4613 0a09 4354524C 		.ascii	"CTRL_REG5\000"
 4613      5F524547 
 4613      3500
 4614              	.LASF34:
 4615 0a13 705F7374 		.ascii	"p_stklimit\000"
 4615      6B6C696D 
 4615      697400
 4616              	.LASF193:
 4617 0a1e 4F46465F 		.ascii	"OFF_H\000"
 4617      4800
 4618              	.LASF179:
 4619 0a24 545F4D49 		.ascii	"T_MIN_MSB\000"
 4619      4E5F4D53 
 4619      4200
 4620              	.LASF191:
 4621 0a2e 4F46465F 		.ascii	"OFF_P\000"
 4621      5000
 4622              	.LASF192:
 4623 0a34 4F46465F 		.ascii	"OFF_T\000"
 4623      5400
 4624              	.LASF70:
 4625 0a3a 4E445452 		.ascii	"NDTR\000"
 4625      00
 4626              	.LASF61:
 4627 0a3f 656C5F6D 		.ascii	"el_mask\000"
 4627      61736B00 
 4628              	.LASF88:
 4629 0a47 69666372 		.ascii	"ifcr\000"
 4629      00
 4630              	.LASF221:
 4631 0a4c 6D5F616C 		.ascii	"m_altitude\000"
 4631      74697475 
 4631      646500
 4632              	.LASF228:
 4633 0a57 74656D70 		.ascii	"temp\000"
 4633      00
 4634              	.LASF197:
 4635 0a5c 6D706C33 		.ascii	"mpl3115a2_a_g_burst_data\000"
ARM GAS  /tmp/cckDtn2d.s 			page 92


 4635      31313561 
 4635      325F615F 
 4635      675F6275 
 4635      7273745F 
 4636              	.LASF94:
 4637 0a75 4932435F 		.ascii	"I2C_STOP\000"
 4637      53544F50 
 4637      00
 4638              	.LASF33:
 4639 0a7e 705F6E61 		.ascii	"p_name\000"
 4639      6D6500
 4640              	.LASF57:
 4641 0a85 6D5F6E65 		.ascii	"m_next\000"
 4641      787400
 4642              	.LASF131:
 4643 0a8c 4D41474E 		.ascii	"MAGN_STATUS_1\000"
 4643      5F535441 
 4643      5455535F 
 4643      3100
 4644              	.LASF138:
 4645 0a9a 4D41474E 		.ascii	"MAGN_STATUS_2\000"
 4645      5F535441 
 4645      5455535F 
 4645      3200
 4646              	.LASF164:
 4647 0aa8 54494D45 		.ascii	"TIME_DLY\000"
 4647      5F444C59 
 4647      00
 4648              	.LASF42:
 4649 0ab1 705F6D73 		.ascii	"p_msg\000"
 4649      6700
 4650              	.LASF60:
 4651 0ab7 656C5F6C 		.ascii	"el_listener\000"
 4651      69737465 
 4651      6E657200 
 4652              	.LASF35:
 4653 0ac3 705F7374 		.ascii	"p_state\000"
 4653      61746500 
 4654              		.ident	"GCC: (crosstool-NG 1.17.0 - PSAS ST32F4 GFE) 4.7.2"
ARM GAS  /tmp/cckDtn2d.s 			page 93


DEFINED SYMBOLS
                            *ABS*:0000000000000000 MPL3115A2.c
     /tmp/cckDtn2d.s:21     .text.i2c_errno_str:0000000000000000 $t
     /tmp/cckDtn2d.s:27     .text.i2c_errno_str:0000000000000000 i2c_errno_str
     /tmp/cckDtn2d.s:65     .text.i2c_errno_str:0000000000000020 $d
     /tmp/cckDtn2d.s:71     .text.mpl3115a2_int_event_handler:0000000000000000 $t
     /tmp/cckDtn2d.s:77     .text.mpl3115a2_int_event_handler:0000000000000000 mpl3115a2_int_event_handler
     /tmp/cckDtn2d.s:90     .text.mpl3115a2_start:0000000000000000 $t
     /tmp/cckDtn2d.s:96     .text.mpl3115a2_start:0000000000000000 mpl3115a2_start
     /tmp/cckDtn2d.s:521    .bss.mpl3115a2_driver:0000000000000000 .LANCHOR1
     /tmp/cckDtn2d.s:262    .text.mpl3115a2_get_altitude:0000000000000000 $t
     /tmp/cckDtn2d.s:268    .text.mpl3115a2_get_altitude:0000000000000000 mpl3115a2_get_altitude
     /tmp/cckDtn2d.s:394    .text.mpl3115a2_get_temperature:0000000000000000 $t
     /tmp/cckDtn2d.s:400    .text.mpl3115a2_get_temperature:0000000000000000 mpl3115a2_get_temperature
     /tmp/cckDtn2d.s:512    .rodata.mpl3115a2_i2c_magn_addr:0000000000000000 mpl3115a2_i2c_magn_addr
     /tmp/cckDtn2d.s:517    .rodata.mpl3115a2_i2c_slave_addr:0000000000000000 mpl3115a2_i2c_slave_addr
     /tmp/cckDtn2d.s:603    .rodata.mpl3115a2_i2c_timeout:0000000000000000 mpl3115a2_i2c_timeout
     /tmp/cckDtn2d.s:597    .bss.mpl3115a2_int_event:0000000000000000 mpl3115a2_int_event
     /tmp/cckDtn2d.s:524    .bss.mpl3115a2_driver:0000000000000000 mpl3115a2_driver
     /tmp/cckDtn2d.s:507    .bss.mpl3115a2_burst_magn_data:0000000000000000 mpl3115a2_burst_magn_data
     /tmp/cckDtn2d.s:536    .bss.mpl3115a2_burst_a_g_data:0000000000000000 mpl3115a2_burst_a_g_data
     /tmp/cckDtn2d.s:530    .bss.mpl3115a2_cache_data:0000000000000000 mpl3115a2_cache_data
     /tmp/cckDtn2d.s:504    .bss.mpl3115a2_burst_magn_data:0000000000000000 $d
     /tmp/cckDtn2d.s:520    .bss.mpl3115a2_driver:0000000000000000 $d
     /tmp/cckDtn2d.s:527    .bss.mpl3115a2_cache_data:0000000000000000 $d
     /tmp/cckDtn2d.s:533    .bss.mpl3115a2_burst_a_g_data:0000000000000000 $d
     /tmp/cckDtn2d.s:539    .rodata.i2c_debug_errors:0000000000000000 $d
     /tmp/cckDtn2d.s:543    .rodata.i2c_debug_errors:0000000000000000 i2c_debug_errors
     /tmp/cckDtn2d.s:563    .rodata.str1.4:0000000000000000 $d
     /tmp/cckDtn2d.s:594    .bss.mpl3115a2_int_event:0000000000000000 $d
     /tmp/cckDtn2d.s:600    .rodata.mpl3115a2_i2c_timeout:0000000000000000 $d
                     .debug_frame:0000000000000010 $d
     /tmp/cckDtn2d.s:70     .text.i2c_errno_str:0000000000000028 $t

UNDEFINED SYMBOLS
i2cAcquireBus
i2cMasterTransmitTimeout
i2cReleaseBus
