ARM GAS  /tmp/ccNArar1.s 			page 1


   1              		.syntax unified
   2              		.cpu cortex-m4
   3              		.eabi_attribute 27, 3
   4              		.eabi_attribute 28, 1
   5              		.fpu fpv4-sp-d16
   6              		.eabi_attribute 20, 1
   7              		.eabi_attribute 21, 1
   8              		.eabi_attribute 23, 3
   9              		.eabi_attribute 24, 1
  10              		.eabi_attribute 25, 1
  11              		.eabi_attribute 26, 1
  12              		.eabi_attribute 30, 2
  13              		.eabi_attribute 34, 1
  14              		.eabi_attribute 18, 4
  15              		.thumb
  16              		.file	"pal.c"
  17              		.text
  18              	.Ltext0:
  19              		.cfi_sections	.debug_frame
  20              		.section	.text.palReadBus,"ax",%progbits
  21              		.align	2
  22              		.p2align 4,,15
  23              		.global	palReadBus
  24              		.thumb
  25              		.thumb_func
  26              		.type	palReadBus, %function
  27              	palReadBus:
  28              	.LFB118:
  29              		.file 1 "../../ChibiOS/os/hal/src/pal.c"
  30              		.loc 1 69 0
  31              		.cfi_startproc
  32              		@ args = 0, pretend = 0, frame = 0
  33              		@ frame_needed = 0, uses_anonymous_args = 0
  34              	.LVL0:
  35 0000 10B5     		push	{r4, lr}
  36              	.LCFI0:
  37              		.cfi_def_cfa_offset 8
  38              		.cfi_offset 4, -8
  39              		.cfi_offset 14, -4
  40              		.loc 1 71 0
  41 0002 0446     		mov	r4, r0
  42 0004 10B1     		cbz	r0, .L2
  43              		.loc 1 71 0 is_stmt 0 discriminator 2
  44 0006 8368     		ldr	r3, [r0, #8]
  45 0008 0F2B     		cmp	r3, #15
  46 000a 03D9     		bls	.L3
  47              	.L2:
  48              		.loc 1 71 0 discriminator 1
  49 000c 0548     		ldr	r0, .L8
  50              	.LVL1:
  51 000e FFF7FEFF 		bl	chDbgPanic
  52              	.LVL2:
  53 0012 A368     		ldr	r3, [r4, #8]
  54              	.L3:
  55              		.loc 1 74 0 is_stmt 1
  56 0014 2168     		ldr	r1, [r4, #0]
  57 0016 6068     		ldr	r0, [r4, #4]
ARM GAS  /tmp/ccNArar1.s 			page 2


  58 0018 0969     		ldr	r1, [r1, #16]
  59 001a 21FA03F3 		lsr	r3, r1, r3
  60              		.loc 1 75 0
  61 001e 1840     		ands	r0, r0, r3
  62 0020 10BD     		pop	{r4, pc}
  63              	.L9:
  64 0022 00BF     		.align	2
  65              	.L8:
  66 0024 00000000 		.word	.LC0
  67              		.cfi_endproc
  68              	.LFE118:
  69              		.size	palReadBus, .-palReadBus
  70 0028 AFF30080 		.section	.text.palWriteBus,"ax",%progbits
  70      AFF30080 
  71              		.align	2
  72              		.p2align 4,,15
  73              		.global	palWriteBus
  74              		.thumb
  75              		.thumb_func
  76              		.type	palWriteBus, %function
  77              	palWriteBus:
  78              	.LFB119:
  79              		.loc 1 94 0
  80              		.cfi_startproc
  81              		@ args = 0, pretend = 0, frame = 0
  82              		@ frame_needed = 0, uses_anonymous_args = 0
  83              	.LVL3:
  84 0000 38B5     		push	{r3, r4, r5, lr}
  85              	.LCFI1:
  86              		.cfi_def_cfa_offset 16
  87              		.cfi_offset 3, -16
  88              		.cfi_offset 4, -12
  89              		.cfi_offset 5, -8
  90              		.cfi_offset 14, -4
  91              		.loc 1 96 0
  92 0002 0446     		mov	r4, r0
  93              		.loc 1 94 0
  94 0004 0D46     		mov	r5, r1
  95              		.loc 1 96 0
  96 0006 10B1     		cbz	r0, .L11
  97              		.loc 1 96 0 is_stmt 0 discriminator 2
  98 0008 8368     		ldr	r3, [r0, #8]
  99 000a 0F2B     		cmp	r3, #15
 100 000c 03D9     		bls	.L12
 101              	.L11:
 102              		.loc 1 96 0 discriminator 1
 103 000e 0948     		ldr	r0, .L16
 104              	.LVL4:
 105 0010 FFF7FEFF 		bl	chDbgPanic
 106              	.LVL5:
 107 0014 A368     		ldr	r3, [r4, #8]
 108              	.L12:
 109              		.loc 1 99 0 is_stmt 1
 110 0016 94E80600 		ldmia	r4, {r1, r2}
 111 001a 03F11000 		add	r0, r3, #16
 112 001e 22EA0504 		bic	r4, r2, r5
 113              	.LVL6:
ARM GAS  /tmp/ccNArar1.s 			page 3


 114 0022 1540     		ands	r5, r5, r2
 115              	.LVL7:
 116 0024 04FA00F0 		lsl	r0, r4, r0
 117 0028 05FA03F3 		lsl	r3, r5, r3
 118 002c 0343     		orrs	r3, r3, r0
 119 002e 8B61     		str	r3, [r1, #24]
 120 0030 38BD     		pop	{r3, r4, r5, pc}
 121              	.L17:
 122 0032 00BF     		.align	2
 123              	.L16:
 124 0034 10000000 		.word	.LC1
 125              		.cfi_endproc
 126              	.LFE119:
 127              		.size	palWriteBus, .-palWriteBus
 128 0038 AFF30080 		.section	.text.palSetBusMode,"ax",%progbits
 128      AFF30080 
 129              		.align	2
 130              		.p2align 4,,15
 131              		.global	palSetBusMode
 132              		.thumb
 133              		.thumb_func
 134              		.type	palSetBusMode, %function
 135              	palSetBusMode:
 136              	.LFB120:
 137              		.loc 1 117 0
 138              		.cfi_startproc
 139              		@ args = 0, pretend = 0, frame = 0
 140              		@ frame_needed = 0, uses_anonymous_args = 0
 141              	.LVL8:
 142 0000 38B5     		push	{r3, r4, r5, lr}
 143              	.LCFI2:
 144              		.cfi_def_cfa_offset 16
 145              		.cfi_offset 3, -16
 146              		.cfi_offset 4, -12
 147              		.cfi_offset 5, -8
 148              		.cfi_offset 14, -4
 149              		.loc 1 119 0
 150 0002 0446     		mov	r4, r0
 151              		.loc 1 117 0
 152 0004 0D46     		mov	r5, r1
 153              		.loc 1 119 0
 154 0006 10B1     		cbz	r0, .L19
 155              		.loc 1 119 0 is_stmt 0 discriminator 2
 156 0008 8368     		ldr	r3, [r0, #8]
 157 000a 0F2B     		cmp	r3, #15
 158 000c 03D9     		bls	.L20
 159              	.L19:
 160              		.loc 1 119 0 discriminator 1
 161 000e 0648     		ldr	r0, .L24
 162              	.LVL9:
 163 0010 FFF7FEFF 		bl	chDbgPanic
 164              	.LVL10:
 165 0014 A368     		ldr	r3, [r4, #8]
 166              	.L20:
 167              		.loc 1 122 0 is_stmt 1
 168 0016 94E80300 		ldmia	r4, {r0, r1}
 169 001a 2A46     		mov	r2, r5
ARM GAS  /tmp/ccNArar1.s 			page 4


 170 001c 01FA03F1 		lsl	r1, r1, r3
 171              		.loc 1 123 0
 172 0020 BDE83840 		pop	{r3, r4, r5, lr}
 173              		.loc 1 122 0
 174 0024 FFF7FEBF 		b	_pal_lld_setgroupmode
 175              	.LVL11:
 176              	.L25:
 177              		.align	2
 178              	.L24:
 179 0028 20000000 		.word	.LC2
 180              		.cfi_endproc
 181              	.LFE120:
 182              		.size	palSetBusMode, .-palSetBusMode
 183 002c AFF30080 		.section	.rodata.str1.4,"aMS",%progbits,1
 184              		.align	2
 185              	.LC0:
 186 0000 2270616C 		.ascii	"\"palReadBus\"()\000"
 186      52656164 
 186      42757322 
 186      282900
 187 000f 00       		.space	1
 188              	.LC1:
 189 0010 2270616C 		.ascii	"\"palWriteBus\"()\000"
 189      57726974 
 189      65427573 
 189      22282900 
 190              	.LC2:
 191 0020 2270616C 		.ascii	"\"palSetBusMode\"()\000"
 191      53657442 
 191      75734D6F 
 191      64652228 
 191      2900
 192 0032 0000     		.text
 193              	.Letext0:
 194              		.file 2 "/home/david/toolchains/psas/x-tools/stm32f407/arm-psas-eabi/bin/../lib/gcc/arm-psas-eabi/
 195              		.file 3 "../../ChibiOS/os/hal/platforms/STM32/GPIOv2/pal_lld.h"
 196              		.file 4 "../../ChibiOS/os/hal/include/pal.h"
 197              		.file 5 "../../ChibiOS/os/ports/common/ARMCMx/CMSIS/include/core_cm4.h"
 198              		.file 6 "../../ChibiOS/os/kernel/include/chdebug.h"