ARM GAS  /tmp/ccifUFZQ.s 			page 1


   1              		.syntax unified
   2              		.cpu cortex-m4
   3              		.eabi_attribute 27, 3
   4              		.eabi_attribute 28, 1
   5              		.fpu fpv4-sp-d16
   6              		.eabi_attribute 20, 1
   7              		.eabi_attribute 21, 1
   8              		.eabi_attribute 23, 3
   9              		.eabi_attribute 24, 1
  10              		.eabi_attribute 25, 1
  11              		.eabi_attribute 26, 1
  12              		.eabi_attribute 30, 2
  13              		.eabi_attribute 34, 1
  14              		.eabi_attribute 18, 4
  15              		.thumb
  16              		.file	"serial.c"
  17              		.text
  18              	.Ltext0:
  19              		.cfi_sections	.debug_frame
  20              		.section	.text.readt,"ax",%progbits
  21              		.align	2
  22              		.p2align 4,,15
  23              		.thumb
  24              		.thumb_func
  25              		.type	readt, %function
  26              	readt:
  27              	.LFB125:
  28              		.file 1 "../../ChibiOS/os/hal/src/serial.c"
  29              		.loc 1 92 0
  30              		.cfi_startproc
  31              		@ args = 0, pretend = 0, frame = 0
  32              		@ frame_needed = 0, uses_anonymous_args = 0
  33              		@ link register save eliminated.
  34              	.LVL0:
  35              		.loc 1 94 0
  36 0000 0C30     		adds	r0, r0, #12
  37              	.LVL1:
  38              		.loc 1 95 0
  39              		.loc 1 94 0
  40 0002 FFF7FEBF 		b	chIQReadTimeout
  41              	.LVL2:
  42              		.cfi_endproc
  43              	.LFE125:
  44              		.size	readt, .-readt
  45 0006 00BFAFF3 		.section	.text.read,"ax",%progbits
  45      0080AFF3 
  45      0080
  46              		.align	2
  47              		.p2align 4,,15
  48              		.thumb
  49              		.thumb_func
  50              		.type	read, %function
  51              	read:
  52              	.LFB119:
  53              		.loc 1 61 0
  54              		.cfi_startproc
  55              		@ args = 0, pretend = 0, frame = 0
ARM GAS  /tmp/ccifUFZQ.s 			page 2


  56              		@ frame_needed = 0, uses_anonymous_args = 0
  57              		@ link register save eliminated.
  58              	.LVL3:
  59              		.loc 1 63 0
  60 0000 0C30     		adds	r0, r0, #12
  61              	.LVL4:
  62 0002 4FF0FF33 		mov	r3, #-1
  63              		.loc 1 65 0
  64              		.loc 1 63 0
  65 0006 FFF7FEBF 		b	chIQReadTimeout
  66              	.LVL5:
  67              		.cfi_endproc
  68              	.LFE119:
  69              		.size	read, .-read
  70 000a 00BFAFF3 		.section	.text.writet,"ax",%progbits
  70      0080
  71              		.align	2
  72              		.p2align 4,,15
  73              		.thumb
  74              		.thumb_func
  75              		.type	writet, %function
  76              	writet:
  77              	.LFB124:
  78              		.loc 1 87 0
  79              		.cfi_startproc
  80              		@ args = 0, pretend = 0, frame = 0
  81              		@ frame_needed = 0, uses_anonymous_args = 0
  82              		@ link register save eliminated.
  83              	.LVL6:
  84              		.loc 1 89 0
  85 0000 3030     		adds	r0, r0, #48
  86              	.LVL7:
  87              		.loc 1 90 0
  88              		.loc 1 89 0
  89 0002 FFF7FEBF 		b	chOQWriteTimeout
  90              	.LVL8:
  91              		.cfi_endproc
  92              	.LFE124:
  93              		.size	writet, .-writet
  94 0006 00BFAFF3 		.section	.text.write,"ax",%progbits
  94      0080AFF3 
  94      0080
  95              		.align	2
  96              		.p2align 4,,15
  97              		.thumb
  98              		.thumb_func
  99              		.type	write, %function
 100              	write:
 101              	.LFB118:
 102              		.loc 1 55 0
 103              		.cfi_startproc
 104              		@ args = 0, pretend = 0, frame = 0
 105              		@ frame_needed = 0, uses_anonymous_args = 0
 106              		@ link register save eliminated.
 107              	.LVL9:
 108              		.loc 1 57 0
 109 0000 3030     		adds	r0, r0, #48
ARM GAS  /tmp/ccifUFZQ.s 			page 3


 110              	.LVL10:
 111 0002 4FF0FF33 		mov	r3, #-1
 112              		.loc 1 59 0
 113              		.loc 1 57 0
 114 0006 FFF7FEBF 		b	chOQWriteTimeout
 115              	.LVL11:
 116              		.cfi_endproc
 117              	.LFE118:
 118              		.size	write, .-write
 119 000a 00BFAFF3 		.section	.text.gett,"ax",%progbits
 119      0080
 120              		.align	2
 121              		.p2align 4,,15
 122              		.thumb
 123              		.thumb_func
 124              		.type	gett, %function
 125              	gett:
 126              	.LFB123:
 127              		.loc 1 82 0
 128              		.cfi_startproc
 129              		@ args = 0, pretend = 0, frame = 0
 130              		@ frame_needed = 0, uses_anonymous_args = 0
 131              		@ link register save eliminated.
 132              	.LVL12:
 133              		.loc 1 84 0
 134 0000 0C30     		adds	r0, r0, #12
 135              	.LVL13:
 136              		.loc 1 85 0
 137              		.loc 1 84 0
 138 0002 FFF7FEBF 		b	chIQGetTimeout
 139              	.LVL14:
 140              		.cfi_endproc
 141              	.LFE123:
 142              		.size	gett, .-gett
 143 0006 00BFAFF3 		.section	.text.get,"ax",%progbits
 143      0080AFF3 
 143      0080
 144              		.align	2
 145              		.p2align 4,,15
 146              		.thumb
 147              		.thumb_func
 148              		.type	get, %function
 149              	get:
 150              	.LFB121:
 151              		.loc 1 72 0
 152              		.cfi_startproc
 153              		@ args = 0, pretend = 0, frame = 0
 154              		@ frame_needed = 0, uses_anonymous_args = 0
 155              		@ link register save eliminated.
 156              	.LVL15:
 157              		.loc 1 74 0
 158 0000 0C30     		adds	r0, r0, #12
 159              	.LVL16:
 160 0002 4FF0FF31 		mov	r1, #-1
 161              		.loc 1 75 0
 162              		.loc 1 74 0
 163 0006 FFF7FEBF 		b	chIQGetTimeout
ARM GAS  /tmp/ccifUFZQ.s 			page 4


 164              	.LVL17:
 165              		.cfi_endproc
 166              	.LFE121:
 167              		.size	get, .-get
 168 000a 00BFAFF3 		.section	.text.putt,"ax",%progbits
 168      0080
 169              		.align	2
 170              		.p2align 4,,15
 171              		.thumb
 172              		.thumb_func
 173              		.type	putt, %function
 174              	putt:
 175              	.LFB122:
 176              		.loc 1 77 0
 177              		.cfi_startproc
 178              		@ args = 0, pretend = 0, frame = 0
 179              		@ frame_needed = 0, uses_anonymous_args = 0
 180              		@ link register save eliminated.
 181              	.LVL18:
 182              		.loc 1 79 0
 183 0000 3030     		adds	r0, r0, #48
 184              	.LVL19:
 185              		.loc 1 80 0
 186              		.loc 1 79 0
 187 0002 FFF7FEBF 		b	chOQPutTimeout
 188              	.LVL20:
 189              		.cfi_endproc
 190              	.LFE122:
 191              		.size	putt, .-putt
 192 0006 00BFAFF3 		.section	.text.put,"ax",%progbits
 192      0080AFF3 
 192      0080
 193              		.align	2
 194              		.p2align 4,,15
 195              		.thumb
 196              		.thumb_func
 197              		.type	put, %function
 198              	put:
 199              	.LFB120:
 200              		.loc 1 67 0
 201              		.cfi_startproc
 202              		@ args = 0, pretend = 0, frame = 0
 203              		@ frame_needed = 0, uses_anonymous_args = 0
 204              		@ link register save eliminated.
 205              	.LVL21:
 206              		.loc 1 69 0
 207 0000 3030     		adds	r0, r0, #48
 208              	.LVL22:
 209 0002 4FF0FF32 		mov	r2, #-1
 210              		.loc 1 70 0
 211              		.loc 1 69 0
 212 0006 FFF7FEBF 		b	chOQPutTimeout
 213              	.LVL23:
 214              		.cfi_endproc
 215              	.LFE120:
 216              		.size	put, .-put
 217 000a 00BFAFF3 		.section	.text.sdInit,"ax",%progbits
ARM GAS  /tmp/ccifUFZQ.s 			page 5


 217      0080
 218              		.align	2
 219              		.p2align 4,,15
 220              		.global	sdInit
 221              		.thumb
 222              		.thumb_func
 223              		.type	sdInit, %function
 224              	sdInit:
 225              	.LFB126:
 226              		.loc 1 113 0
 227              		.cfi_startproc
 228              		@ args = 0, pretend = 0, frame = 0
 229              		@ frame_needed = 0, uses_anonymous_args = 0
 230              		@ link register save eliminated.
 231              		.loc 1 116 0
 232              		.loc 1 115 0
 233 0000 FFF7FEBF 		b	sd_lld_init
 234              	.LVL24:
 235              		.cfi_endproc
 236              	.LFE126:
 237              		.size	sdInit, .-sdInit
 238 0004 AFF30080 		.section	.text.sdObjectInit,"ax",%progbits
 238      AFF30080 
 238      AFF30080 
 239              		.align	2
 240              		.p2align 4,,15
 241              		.global	sdObjectInit
 242              		.thumb
 243              		.thumb_func
 244              		.type	sdObjectInit, %function
 245              	sdObjectInit:
 246              	.LFB127:
 247              		.loc 1 133 0
 248              		.cfi_startproc
 249              		@ args = 0, pretend = 0, frame = 0
 250              		@ frame_needed = 0, uses_anonymous_args = 0
 251              	.LVL25:
 252 0000 70B5     		push	{r4, r5, r6, lr}
 253              	.LCFI0:
 254              		.cfi_def_cfa_offset 16
 255              		.cfi_offset 4, -16
 256              		.cfi_offset 5, -12
 257              		.cfi_offset 6, -8
 258              		.cfi_offset 14, -4
 259              		.loc 1 135 0
 260 0002 40F20003 		movw	r3, #:lower16:.LANCHOR0
 261 0006 0546     		mov	r5, r0
 262 0008 C0F20003 		movt	r3, #:upper16:.LANCHOR0
 263              		.loc 1 133 0
 264 000c 0446     		mov	r4, r0
 265              		.loc 1 135 0
 266 000e 45F8043B 		str	r3, [r5], #4
 267              		.loc 1 133 0
 268 0012 82B0     		sub	sp, sp, #8
 269              	.LCFI1:
 270              		.cfi_def_cfa_offset 24
 271              		.loc 1 136 0
ARM GAS  /tmp/ccifUFZQ.s 			page 6


 272 0014 6560     		str	r5, [r4, #4]
 273              		.loc 1 137 0
 274 0016 0125     		movs	r5, #1
 275              		.loc 1 133 0
 276 0018 0B46     		mov	r3, r1
 277 001a 1646     		mov	r6, r2
 278              		.loc 1 138 0
 279 001c 04F15401 		add	r1, r4, #84
 280              	.LVL26:
 281 0020 1022     		movs	r2, #16
 282              	.LVL27:
 283              		.loc 1 137 0
 284 0022 2572     		strb	r5, [r4, #8]
 285              		.loc 1 138 0
 286 0024 00F10C00 		add	r0, r0, #12
 287              	.LVL28:
 288 0028 0094     		str	r4, [sp, #0]
 289 002a FFF7FEFF 		bl	chIQInit
 290              	.LVL29:
 291              		.loc 1 139 0
 292 002e 0094     		str	r4, [sp, #0]
 293 0030 04F13000 		add	r0, r4, #48
 294 0034 04F16401 		add	r1, r4, #100
 295 0038 1022     		movs	r2, #16
 296 003a 3346     		mov	r3, r6
 297 003c FFF7FEFF 		bl	chOQInit
 298              	.LVL30:
 299              		.loc 1 140 0
 300 0040 02B0     		add	sp, sp, #8
 301 0042 70BD     		pop	{r4, r5, r6, pc}
 302              		.cfi_endproc
 303              	.LFE127:
 304              		.size	sdObjectInit, .-sdObjectInit
 305 0044 AFF30080 		.section	.text.sdStart,"ax",%progbits
 305      AFF30080 
 305      AFF30080 
 306              		.align	2
 307              		.p2align 4,,15
 308              		.global	sdStart
 309              		.thumb
 310              		.thumb_func
 311              		.type	sdStart, %function
 312              	sdStart:
 313              	.LFB128:
 314              		.loc 1 152 0
 315              		.cfi_startproc
 316              		@ args = 0, pretend = 0, frame = 0
 317              		@ frame_needed = 0, uses_anonymous_args = 0
 318              	.LVL31:
 319 0000 38B5     		push	{r3, r4, r5, lr}
 320              	.LCFI2:
 321              		.cfi_def_cfa_offset 16
 322              		.cfi_offset 3, -16
 323              		.cfi_offset 4, -12
 324              		.cfi_offset 5, -8
 325              		.cfi_offset 14, -4
 326              		.loc 1 154 0
ARM GAS  /tmp/ccifUFZQ.s 			page 7


 327 0002 0446     		mov	r4, r0
 328              		.loc 1 152 0
 329 0004 0D46     		mov	r5, r1
 330              		.loc 1 154 0
 331 0006 B8B1     		cbz	r0, .L15
 332              	.LVL32:
 333              	.L12:
 334              	.LBB2:
 335              		.loc 1 156 0
 336 0008 2023     		movs	r3, #32
 337              	.LVL33:
 338              	@ 156 "../../ChibiOS/os/hal/src/serial.c" 1
 339 000a 83F31188 		msr     BASEPRI, r3
 340              	@ 0 "" 2
 341              	.LVL34:
 342              		.thumb
 343              	.LBE2:
 344 000e FFF7FEFF 		bl	dbg_check_lock
 345              	.LVL35:
 346              		.loc 1 157 0
 347 0012 237A     		ldrb	r3, [r4, #8]	@ zero_extendqisi2
 348 0014 013B     		subs	r3, r3, #1
 349 0016 012B     		cmp	r3, #1
 350 0018 02D9     		bls	.L13
 351              		.loc 1 157 0 is_stmt 0 discriminator 1
 352 001a 0948     		ldr	r0, .L16
 353 001c FFF7FEFF 		bl	chDbgPanic
 354              	.LVL36:
 355              	.L13:
 356              		.loc 1 160 0 is_stmt 1
 357 0020 2046     		mov	r0, r4
 358 0022 2946     		mov	r1, r5
 359 0024 FFF7FEFF 		bl	sd_lld_start
 360              	.LVL37:
 361              		.loc 1 161 0
 362 0028 0223     		movs	r3, #2
 363 002a 2372     		strb	r3, [r4, #8]
 364              		.loc 1 162 0
 365 002c FFF7FEFF 		bl	dbg_check_unlock
 366              	.LVL38:
 367              	.LBB3:
 368 0030 0023     		movs	r3, #0
 369              	.LVL39:
 370              	@ 162 "../../ChibiOS/os/hal/src/serial.c" 1
 371 0032 83F31188 		msr     BASEPRI, r3
 372              	@ 0 "" 2
 373              	.LVL40:
 374              		.thumb
 375 0036 38BD     		pop	{r3, r4, r5, pc}
 376              	.LVL41:
 377              	.L15:
 378              	.LBE3:
 379              		.loc 1 154 0 discriminator 1
 380 0038 0248     		ldr	r0, .L16+4
 381              	.LVL42:
 382 003a FFF7FEFF 		bl	chDbgPanic
 383              	.LVL43:
ARM GAS  /tmp/ccifUFZQ.s 			page 8


 384 003e E3E7     		b	.L12
 385              	.L17:
 386              		.align	2
 387              	.L16:
 388 0040 0C000000 		.word	.LC1
 389 0044 00000000 		.word	.LC0
 390              		.cfi_endproc
 391              	.LFE128:
 392              		.size	sdStart, .-sdStart
 393 0048 AFF30080 		.section	.text.sdStop,"ax",%progbits
 393      AFF30080 
 394              		.align	2
 395              		.p2align 4,,15
 396              		.global	sdStop
 397              		.thumb
 398              		.thumb_func
 399              		.type	sdStop, %function
 400              	sdStop:
 401              	.LFB129:
 402              		.loc 1 174 0
 403              		.cfi_startproc
 404              		@ args = 0, pretend = 0, frame = 0
 405              		@ frame_needed = 0, uses_anonymous_args = 0
 406              	.LVL44:
 407 0000 10B5     		push	{r4, lr}
 408              	.LCFI3:
 409              		.cfi_def_cfa_offset 8
 410              		.cfi_offset 4, -8
 411              		.cfi_offset 14, -4
 412              		.loc 1 176 0
 413 0002 0446     		mov	r4, r0
 414 0004 00B3     		cbz	r0, .L21
 415              	.LVL45:
 416              	.L19:
 417              	.LBB4:
 418              		.loc 1 178 0
 419 0006 2023     		movs	r3, #32
 420              	.LVL46:
 421              	@ 178 "../../ChibiOS/os/hal/src/serial.c" 1
 422 0008 83F31188 		msr     BASEPRI, r3
 423              	@ 0 "" 2
 424              	.LVL47:
 425              		.thumb
 426              	.LBE4:
 427 000c FFF7FEFF 		bl	dbg_check_lock
 428              	.LVL48:
 429              		.loc 1 179 0
 430 0010 237A     		ldrb	r3, [r4, #8]	@ zero_extendqisi2
 431 0012 013B     		subs	r3, r3, #1
 432 0014 012B     		cmp	r3, #1
 433 0016 02D9     		bls	.L20
 434              		.loc 1 179 0 is_stmt 0 discriminator 1
 435 0018 0D48     		ldr	r0, .L22
 436 001a FFF7FEFF 		bl	chDbgPanic
 437              	.LVL49:
 438              	.L20:
 439              		.loc 1 182 0 is_stmt 1
ARM GAS  /tmp/ccifUFZQ.s 			page 9


 440 001e 2046     		mov	r0, r4
 441 0020 FFF7FEFF 		bl	sd_lld_stop
 442              	.LVL50:
 443              		.loc 1 183 0
 444 0024 0123     		movs	r3, #1
 445 0026 2372     		strb	r3, [r4, #8]
 446              		.loc 1 184 0
 447 0028 04F13000 		add	r0, r4, #48
 448 002c FFF7FEFF 		bl	chOQResetI
 449              	.LVL51:
 450              		.loc 1 185 0
 451 0030 04F10C00 		add	r0, r4, #12
 452 0034 FFF7FEFF 		bl	chIQResetI
 453              	.LVL52:
 454              		.loc 1 186 0
 455 0038 FFF7FEFF 		bl	chSchRescheduleS
 456              	.LVL53:
 457              		.loc 1 187 0
 458 003c FFF7FEFF 		bl	dbg_check_unlock
 459              	.LVL54:
 460              	.LBB5:
 461 0040 0023     		movs	r3, #0
 462              	.LVL55:
 463              	@ 187 "../../ChibiOS/os/hal/src/serial.c" 1
 464 0042 83F31188 		msr     BASEPRI, r3
 465              	@ 0 "" 2
 466              	.LVL56:
 467              		.thumb
 468 0046 10BD     		pop	{r4, pc}
 469              	.LVL57:
 470              	.L21:
 471              	.LBE5:
 472              		.loc 1 176 0 discriminator 1
 473 0048 0248     		ldr	r0, .L22+4
 474              	.LVL58:
 475 004a FFF7FEFF 		bl	chDbgPanic
 476              	.LVL59:
 477 004e DAE7     		b	.L19
 478              	.L23:
 479              		.align	2
 480              	.L22:
 481 0050 28000000 		.word	.LC3
 482 0054 1C000000 		.word	.LC2
 483              		.cfi_endproc
 484              	.LFE129:
 485              		.size	sdStop, .-sdStop
 486 0058 AFF30080 		.section	.text.sdIncomingDataI,"ax",%progbits
 486      AFF30080 
 487              		.align	2
 488              		.p2align 4,,15
 489              		.global	sdIncomingDataI
 490              		.thumb
 491              		.thumb_func
 492              		.type	sdIncomingDataI, %function
 493              	sdIncomingDataI:
 494              	.LFB130:
 495              		.loc 1 206 0
ARM GAS  /tmp/ccifUFZQ.s 			page 10


 496              		.cfi_startproc
 497              		@ args = 0, pretend = 0, frame = 0
 498              		@ frame_needed = 0, uses_anonymous_args = 0
 499              	.LVL60:
 500 0000 38B5     		push	{r3, r4, r5, lr}
 501              	.LCFI4:
 502              		.cfi_def_cfa_offset 16
 503              		.cfi_offset 3, -16
 504              		.cfi_offset 4, -12
 505              		.cfi_offset 5, -8
 506              		.cfi_offset 14, -4
 507              		.loc 1 206 0
 508 0002 0446     		mov	r4, r0
 509 0004 0D46     		mov	r5, r1
 510              		.loc 1 208 0
 511 0006 FFF7FEFF 		bl	chDbgCheckClassI
 512              	.LVL61:
 513              		.loc 1 209 0
 514 000a D4B1     		cbz	r4, .L28
 515              	.L25:
 516              		.loc 1 211 0
 517 000c 6369     		ldr	r3, [r4, #20]
 518 000e 3BB1     		cbz	r3, .L29
 519              		.loc 1 213 0
 520 0010 04F10C00 		add	r0, r4, #12
 521 0014 2946     		mov	r1, r5
 522 0016 FFF7FEFF 		bl	chIQPutI
 523              	.LVL62:
 524 001a 0028     		cmp	r0, #0
 525 001c 0BDB     		blt	.L30
 526              	.L24:
 527 001e 38BD     		pop	{r3, r4, r5, pc}
 528              	.L29:
 529              		.loc 1 212 0
 530 0020 201D     		adds	r0, r4, #4
 531 0022 0421     		movs	r1, #4
 532 0024 FFF7FEFF 		bl	chEvtBroadcastFlagsI
 533              	.LVL63:
 534              		.loc 1 213 0
 535 0028 04F10C00 		add	r0, r4, #12
 536 002c 2946     		mov	r1, r5
 537 002e FFF7FEFF 		bl	chIQPutI
 538              	.LVL64:
 539 0032 0028     		cmp	r0, #0
 540 0034 F3DA     		bge	.L24
 541              	.L30:
 542              		.loc 1 214 0
 543 0036 201D     		adds	r0, r4, #4
 544 0038 8021     		movs	r1, #128
 545              		.loc 1 215 0
 546 003a BDE83840 		pop	{r3, r4, r5, lr}
 547              		.loc 1 214 0
 548 003e FFF7FEBF 		b	chEvtBroadcastFlagsI
 549              	.LVL65:
 550              	.L28:
 551              		.loc 1 209 0 discriminator 1
 552 0042 0248     		ldr	r0, .L31
ARM GAS  /tmp/ccifUFZQ.s 			page 11


 553 0044 FFF7FEFF 		bl	chDbgPanic
 554              	.LVL66:
 555 0048 E0E7     		b	.L25
 556              	.L32:
 557 004a 00BF     		.align	2
 558              	.L31:
 559 004c 38000000 		.word	.LC4
 560              		.cfi_endproc
 561              	.LFE130:
 562              		.size	sdIncomingDataI, .-sdIncomingDataI
 563              		.section	.text.sdRequestDataI,"ax",%progbits
 564              		.align	2
 565              		.p2align 4,,15
 566              		.global	sdRequestDataI
 567              		.thumb
 568              		.thumb_func
 569              		.type	sdRequestDataI, %function
 570              	sdRequestDataI:
 571              	.LFB131:
 572              		.loc 1 232 0
 573              		.cfi_startproc
 574              		@ args = 0, pretend = 0, frame = 0
 575              		@ frame_needed = 0, uses_anonymous_args = 0
 576              	.LVL67:
 577 0000 38B5     		push	{r3, r4, r5, lr}
 578              	.LCFI5:
 579              		.cfi_def_cfa_offset 16
 580              		.cfi_offset 3, -16
 581              		.cfi_offset 4, -12
 582              		.cfi_offset 5, -8
 583              		.cfi_offset 14, -4
 584              		.loc 1 232 0
 585 0002 0446     		mov	r4, r0
 586              		.loc 1 235 0
 587 0004 FFF7FEFF 		bl	chDbgCheckClassI
 588              	.LVL68:
 589              		.loc 1 236 0
 590 0008 6CB1     		cbz	r4, .L36
 591              	.L34:
 592              		.loc 1 238 0
 593 000a 04F13000 		add	r0, r4, #48
 594 000e FFF7FEFF 		bl	chOQGetI
 595              	.LVL69:
 596              		.loc 1 239 0
 597 0012 051E     		subs	r5, r0, #0
 598 0014 01DB     		blt	.L37
 599              		.loc 1 242 0
 600 0016 2846     		mov	r0, r5
 601 0018 38BD     		pop	{r3, r4, r5, pc}
 602              	.L37:
 603              		.loc 1 240 0
 604 001a 201D     		adds	r0, r4, #4
 605 001c 0821     		movs	r1, #8
 606 001e FFF7FEFF 		bl	chEvtBroadcastFlagsI
 607              	.LVL70:
 608              		.loc 1 242 0
 609 0022 2846     		mov	r0, r5
ARM GAS  /tmp/ccifUFZQ.s 			page 12


 610 0024 38BD     		pop	{r3, r4, r5, pc}
 611              	.LVL71:
 612              	.L36:
 613              		.loc 1 236 0 discriminator 1
 614 0026 0248     		ldr	r0, .L38
 615 0028 FFF7FEFF 		bl	chDbgPanic
 616              	.LVL72:
 617 002c EDE7     		b	.L34
 618              	.L39:
 619 002e 00BF     		.align	2
 620              	.L38:
 621 0030 4C000000 		.word	.LC5
 622              		.cfi_endproc
 623              	.LFE131:
 624              		.size	sdRequestDataI, .-sdRequestDataI
 625 0034 AFF30080 		.section	.rodata.str1.4,"aMS",%progbits,1
 625      AFF30080 
 625      AFF30080 
 626              		.align	2
 627              	.LC0:
 628 0000 22736453 		.ascii	"\"sdStart\"()\000"
 628      74617274 
 628      22282900 
 629              	.LC1:
 630 000c 73645374 		.ascii	"sdStart(), #1\000"
 630      61727428 
 630      292C2023 
 630      3100
 631 001a 0000     		.space	2
 632              	.LC2:
 633 001c 22736453 		.ascii	"\"sdStop\"()\000"
 633      746F7022 
 633      282900
 634 0027 00       		.space	1
 635              	.LC3:
 636 0028 73645374 		.ascii	"sdStop(), #1\000"
 636      6F702829 
 636      2C202331 
 636      00
 637 0035 000000   		.space	3
 638              	.LC4:
 639 0038 22736449 		.ascii	"\"sdIncomingDataI\"()\000"
 639      6E636F6D 
 639      696E6744 
 639      61746149 
 639      22282900 
 640              	.LC5:
 641 004c 22736452 		.ascii	"\"sdRequestDataI\"()\000"
 641      65717565 
 641      73744461 
 641      74614922 
 641      282900
 642 005f 00       		.section	.rodata.vmt,"a",%progbits
 643              		.align	2
 644              		.set	.LANCHOR0,. + 0
 645              		.type	vmt, %object
 646              		.size	vmt, 32
ARM GAS  /tmp/ccifUFZQ.s 			page 13


 647              	vmt:
 648 0000 00000000 		.word	write
 649 0004 00000000 		.word	read
 650 0008 00000000 		.word	put
 651 000c 00000000 		.word	get
 652 0010 00000000 		.word	putt
 653 0014 00000000 		.word	gett
 654 0018 00000000 		.word	writet
 655 001c 00000000 		.word	readt
 656              		.text
 657              	.Letext0:
 658              		.file 2 "/home/david/toolchains/arm-psas-eabi/bin/../lib/gcc/arm-psas-eabi/4.7.2/include/stddef.h"
 659              		.file 3 "/home/david/toolchains/arm-psas-eabi/bin/../lib/gcc/arm-psas-eabi/4.7.2/../../../../arm-p
 660              		.file 4 "../../ChibiOS/os/ports/GCC/ARMCMx/chtypes.h"
 661              		.file 5 "../../ChibiOS/os/kernel/include/chlists.h"
 662              		.file 6 "../../ChibiOS/os/kernel/include/chthreads.h"
 663              		.file 7 "../../ChibiOS/os/ports/GCC/ARMCMx/chcore_v7m.h"
 664              		.file 8 "../../ChibiOS/os/kernel/include/chmtx.h"
 665              		.file 9 "../../ChibiOS/os/kernel/include/chevents.h"
 666              		.file 10 "../../ChibiOS/os/kernel/include/chqueues.h"
 667              		.file 11 "../../ChibiOS/os/hal/platforms/STM32F4xx/stm32f4xx.h"
 668              		.file 12 "../../ChibiOS/os/hal/include/serial.h"
 669              		.file 13 "../../ChibiOS/os/hal/platforms/STM32/USARTv1/serial_lld.h"
 670              		.file 14 "../../ChibiOS/os/kernel/include/chdebug.h"
 671              		.file 15 "../../ChibiOS/os/kernel/include/chschd.h"
 672              		.file 16 "../../ChibiOS/os/ports/common/ARMCMx/CMSIS/include/core_cm4.h"