ARM GAS  /tmp/ccXIrMZk.s 			page 1


   1              		.syntax unified
   2              		.cpu cortex-m4
   3              		.eabi_attribute 27, 3
   4              		.eabi_attribute 28, 1
   5              		.fpu fpv4-sp-d16
   6              		.eabi_attribute 20, 1
   7              		.eabi_attribute 21, 1
   8              		.eabi_attribute 23, 3
   9              		.eabi_attribute 24, 1
  10              		.eabi_attribute 25, 1
  11              		.eabi_attribute 26, 1
  12              		.eabi_attribute 30, 2
  13              		.eabi_attribute 34, 1
  14              		.eabi_attribute 18, 4
  15              		.thumb
  16              		.file	"serial_lld.c"
  17              		.text
  18              	.Ltext0:
  19              		.cfi_sections	.debug_frame
  20              		.section	.text.notify6,"ax",%progbits
  21              		.align	2
  22              		.p2align 4,,15
  23              		.thumb
  24              		.thumb_func
  25              		.type	notify6, %function
  26              	notify6:
  27              	.LFB122:
  28              		.file 1 "../../ChibiOS/os/hal/platforms/STM32/USARTv1/serial_lld.c"
  29              		.loc 1 246 0
  30              		.cfi_startproc
  31              		@ args = 0, pretend = 0, frame = 0
  32              		@ frame_needed = 0, uses_anonymous_args = 0
  33              		@ link register save eliminated.
  34              	.LVL0:
  35              		.loc 1 249 0
  36 0000 4FF4A053 		mov	r3, #5120
  37 0004 C4F20103 		movt	r3, 16385
  38 0008 9A89     		ldrh	r2, [r3, #12]
  39 000a 92B2     		uxth	r2, r2
  40 000c 42F08002 		orr	r2, r2, #128
  41 0010 9A81     		strh	r2, [r3, #12]	@ movhi
  42 0012 7047     		bx	lr
  43              		.cfi_endproc
  44              	.LFE122:
  45              		.size	notify6, .-notify6
  46              		.section	.text.Vector15C,"ax",%progbits
  47              		.align	2
  48              		.p2align 4,,15
  49              		.global	Vector15C
  50              		.thumb
  51              		.thumb_func
  52              		.type	Vector15C, %function
  53              	Vector15C:
  54              	.LFB123:
  55              		.loc 1 361 0
  56              		.cfi_startproc
  57              		@ args = 0, pretend = 0, frame = 0
ARM GAS  /tmp/ccXIrMZk.s 			page 2


  58              		@ frame_needed = 0, uses_anonymous_args = 0
  59 0000 2DE9F041 		push	{r4, r5, r6, r7, r8, lr}
  60              	.LCFI0:
  61              		.cfi_def_cfa_offset 24
  62              		.cfi_offset 4, -24
  63              		.cfi_offset 5, -20
  64              		.cfi_offset 6, -16
  65              		.cfi_offset 7, -12
  66              		.cfi_offset 8, -8
  67              		.cfi_offset 14, -4
  68              		.loc 1 363 0
  69 0004 FFF7FEFF 		bl	dbg_check_enter_isr
  70              	.LVL1:
  71              	.LBB30:
  72              	.LBB31:
  73              		.loc 1 161 0
  74 0008 554B     		ldr	r3, .L48
  75 000a 5D6F     		ldr	r5, [r3, #116]
  76              	.LVL2:
  77              		.loc 1 162 0
  78 000c AE89     		ldrh	r6, [r5, #12]
  79              		.loc 1 163 0
  80 000e 2C88     		ldrh	r4, [r5, #0]
  81              		.loc 1 164 0
  82 0010 A988     		ldrh	r1, [r5, #4]
  83              		.loc 1 163 0
  84 0012 A4B2     		uxth	r4, r4
  85              		.loc 1 167 0
  86 0014 2207     		lsls	r2, r4, #28
  87              		.loc 1 162 0
  88 0016 B6B2     		uxth	r6, r6
  89              	.LVL3:
  90              		.loc 1 164 0
  91 0018 8FB2     		uxth	r7, r1
  92              	.LVL4:
  93              		.loc 1 167 0
  94 001a 59D1     		bne	.L43
  95              	.LVL5:
  96              	.L3:
  97              		.loc 1 170 0
  98 001c 04F48073 		and	r3, r4, #256
  99              	.LVL6:
 100 0020 9BB2     		uxth	r3, r3
 101 0022 002B     		cmp	r3, #0
 102 0024 3ED1     		bne	.L44
 103              	.L8:
 104              		.loc 1 177 0
 105 0026 04F02003 		and	r3, r4, #32
 106 002a 9BB2     		uxth	r3, r3
 107 002c 002B     		cmp	r3, #0
 108 002e 2AD1     		bne	.L45
 109              	.LVL7:
 110              	.L9:
 111              		.loc 1 183 0
 112 0030 06F08003 		and	r3, r6, #128
 113              	.LVL8:
 114 0034 9BB2     		uxth	r3, r3
ARM GAS  /tmp/ccXIrMZk.s 			page 3


 115 0036 23B1     		cbz	r3, .L10
 116 0038 04F08003 		and	r3, r4, #128
 117 003c 9BB2     		uxth	r3, r3
 118 003e 002B     		cmp	r3, #0
 119 0040 70D1     		bne	.L46
 120              	.LVL9:
 121              	.L10:
 122              		.loc 1 196 0
 123 0042 04F04004 		and	r4, r4, #64
 124              	.LVL10:
 125 0046 A4B2     		uxth	r4, r4
 126 0048 BCB1     		cbz	r4, .L13
 127              	.LBB32:
 128              		.loc 1 197 0
 129 004a 2023     		movs	r3, #32
 130              	.LVL11:
 131              	@ 197 "../../ChibiOS/os/hal/platforms/STM32/USARTv1/serial_lld.c" 1
 132 004c 83F31188 		msr     BASEPRI, r3
 133              	@ 0 "" 2
 134              	.LVL12:
 135              		.thumb
 136              	.LBE32:
 137 0050 FFF7FEFF 		bl	dbg_check_lock_from_isr
 138              	.LVL13:
 139              		.loc 1 198 0
 140 0054 4348     		ldr	r0, .L48+4
 141 0056 1021     		movs	r1, #16
 142 0058 FFF7FEFF 		bl	chEvtBroadcastFlagsI
 143              	.LVL14:
 144              		.loc 1 199 0
 145 005c FFF7FEFF 		bl	dbg_check_unlock_from_isr
 146              	.LVL15:
 147              	.LBB33:
 148 0060 0023     		movs	r3, #0
 149              	.LVL16:
 150              	@ 199 "../../ChibiOS/os/hal/platforms/STM32/USARTv1/serial_lld.c" 1
 151 0062 83F31188 		msr     BASEPRI, r3
 152              	@ 0 "" 2
 153              	.LVL17:
 154              		.thumb
 155              	.LBE33:
 156              		.loc 1 200 0
 157 0066 4FF6BF73 		movw	r3, #65471
 158              	.LVL18:
 159 006a 3340     		ands	r3, r3, r6
 160 006c AB81     		strh	r3, [r5, #12]	@ movhi
 161              		.loc 1 201 0
 162 006e 2B88     		ldrh	r3, [r5, #0]
 163 0070 23F04003 		bic	r3, r3, #64
 164 0074 1B04     		lsls	r3, r3, #16
 165 0076 1B0C     		lsrs	r3, r3, #16
 166 0078 2B80     		strh	r3, [r5, #0]	@ movhi
 167              	.LVL19:
 168              	.L13:
 169              	.LBE31:
 170              	.LBE30:
 171              		.loc 1 367 0
ARM GAS  /tmp/ccXIrMZk.s 			page 4


 172 007a FFF7FEFF 		bl	dbg_check_leave_isr
 173              	.LVL20:
 174              		.loc 1 368 0
 175 007e BDE8F041 		pop	{r4, r5, r6, r7, r8, lr}
 176              		.loc 1 367 0
 177 0082 FFF7FEBF 		b	_port_irq_epilogue
 178              	.LVL21:
 179              	.L45:
 180              	.LBB46:
 181              	.LBB45:
 182              	.LBB34:
 183              		.loc 1 178 0
 184 0086 2023     		movs	r3, #32
 185              	.LVL22:
 186              	@ 178 "../../ChibiOS/os/hal/platforms/STM32/USARTv1/serial_lld.c" 1
 187 0088 83F31188 		msr     BASEPRI, r3
 188              	@ 0 "" 2
 189              	.LVL23:
 190              		.thumb
 191              	.LBE34:
 192 008c FFF7FEFF 		bl	dbg_check_lock_from_isr
 193              	.LVL24:
 194              		.loc 1 179 0
 195 0090 3348     		ldr	r0, .L48
 196 0092 F9B2     		uxtb	r1, r7
 197 0094 FFF7FEFF 		bl	sdIncomingDataI
 198              	.LVL25:
 199              		.loc 1 180 0
 200 0098 FFF7FEFF 		bl	dbg_check_unlock_from_isr
 201              	.LVL26:
 202              	.LBB35:
 203 009c 0023     		movs	r3, #0
 204              	@ 180 "../../ChibiOS/os/hal/platforms/STM32/USARTv1/serial_lld.c" 1
 205 009e 83F31188 		msr     BASEPRI, r3
 206              	@ 0 "" 2
 207              	.LVL27:
 208              		.thumb
 209 00a2 C5E7     		b	.L9
 210              	.LVL28:
 211              	.L44:
 212              	.LBE35:
 213              	.LBB36:
 214              		.loc 1 171 0
 215 00a4 2023     		movs	r3, #32
 216              	.LVL29:
 217              	@ 171 "../../ChibiOS/os/hal/platforms/STM32/USARTv1/serial_lld.c" 1
 218 00a6 83F31188 		msr     BASEPRI, r3
 219              	@ 0 "" 2
 220              	.LVL30:
 221              		.thumb
 222              	.LBE36:
 223 00aa FFF7FEFF 		bl	dbg_check_lock_from_isr
 224              	.LVL31:
 225              		.loc 1 172 0
 226 00ae 2D48     		ldr	r0, .L48+4
 227 00b0 4FF40071 		mov	r1, #512
 228 00b4 FFF7FEFF 		bl	chEvtBroadcastFlagsI
ARM GAS  /tmp/ccXIrMZk.s 			page 5


 229              	.LVL32:
 230              		.loc 1 173 0
 231 00b8 FFF7FEFF 		bl	dbg_check_unlock_from_isr
 232              	.LVL33:
 233              	.LBB37:
 234 00bc 0023     		movs	r3, #0
 235              	.LVL34:
 236              	@ 173 "../../ChibiOS/os/hal/platforms/STM32/USARTv1/serial_lld.c" 1
 237 00be 83F31188 		msr     BASEPRI, r3
 238              	@ 0 "" 2
 239              	.LVL35:
 240              		.thumb
 241              	.LBE37:
 242              		.loc 1 174 0
 243 00c2 2B88     		ldrh	r3, [r5, #0]
 244              	.LVL36:
 245 00c4 23F48073 		bic	r3, r3, #256
 246 00c8 1B04     		lsls	r3, r3, #16
 247 00ca 1B0C     		lsrs	r3, r3, #16
 248 00cc 2B80     		strh	r3, [r5, #0]	@ movhi
 249 00ce AAE7     		b	.L8
 250              	.LVL37:
 251              	.L43:
 252              	.LBB38:
 253              	.LBB39:
 254              		.loc 1 142 0
 255 00d0 04F00808 		and	r8, r4, #8
 256 00d4 1FFA88F8 		uxth	r8, r8
 257              		.loc 1 143 0
 258 00d8 B8F1000F 		cmp	r8, #0
 259 00dc 14BF     		ite	ne
 260 00de 4FF08008 		movne	r8, #128
 261 00e2 4FF00008 		moveq	r8, #0
 262              	.LVL38:
 263              		.loc 1 144 0
 264 00e6 E307     		lsls	r3, r4, #31
 265              		.loc 1 146 0
 266 00e8 04F00203 		and	r3, r4, #2
 267 00ec 9BB2     		uxth	r3, r3
 268              		.loc 1 145 0
 269 00ee 48BF     		it	mi
 270 00f0 48F02008 		orrmi	r8, r8, #32
 271              	.LVL39:
 272              		.loc 1 146 0
 273 00f4 0BB1     		cbz	r3, .L6
 274              		.loc 1 147 0
 275 00f6 48F04008 		orr	r8, r8, #64
 276              	.LVL40:
 277              	.L6:
 278              		.loc 1 148 0
 279 00fa 04F00403 		and	r3, r4, #4
 280 00fe 9BB2     		uxth	r3, r3
 281 0100 0BB1     		cbz	r3, .L7
 282              		.loc 1 149 0
 283 0102 48F48078 		orr	r8, r8, #256
 284              	.LVL41:
 285              	.L7:
ARM GAS  /tmp/ccXIrMZk.s 			page 6


 286              	.LBB40:
 287              		.loc 1 150 0
 288 0106 2023     		movs	r3, #32
 289              	.LVL42:
 290              	@ 150 "../../ChibiOS/os/hal/platforms/STM32/USARTv1/serial_lld.c" 1
 291 0108 83F31188 		msr     BASEPRI, r3
 292              	@ 0 "" 2
 293              	.LVL43:
 294              		.thumb
 295              	.LBE40:
 296 010c FFF7FEFF 		bl	dbg_check_lock_from_isr
 297              	.LVL44:
 298              		.loc 1 151 0
 299 0110 1448     		ldr	r0, .L48+4
 300 0112 4146     		mov	r1, r8
 301 0114 FFF7FEFF 		bl	chEvtBroadcastFlagsI
 302              	.LVL45:
 303              		.loc 1 152 0
 304 0118 FFF7FEFF 		bl	dbg_check_unlock_from_isr
 305              	.LVL46:
 306              	.LBB41:
 307 011c 0023     		movs	r3, #0
 308              	@ 152 "../../ChibiOS/os/hal/platforms/STM32/USARTv1/serial_lld.c" 1
 309 011e 83F31188 		msr     BASEPRI, r3
 310              	@ 0 "" 2
 311              	.LVL47:
 312              		.thumb
 313 0122 7BE7     		b	.L3
 314              	.LVL48:
 315              	.L46:
 316              	.LBE41:
 317              	.LBE39:
 318              	.LBE38:
 319              	.LBB42:
 320              	.LBB43:
 321              		.loc 1 185 0
 322 0124 2023     		movs	r3, #32
 323              	.LVL49:
 324              	@ 185 "../../ChibiOS/os/hal/platforms/STM32/USARTv1/serial_lld.c" 1
 325 0126 83F31188 		msr     BASEPRI, r3
 326              	@ 0 "" 2
 327              	.LVL50:
 328              		.thumb
 329              	.LBE43:
 330 012a FFF7FEFF 		bl	dbg_check_lock_from_isr
 331              	.LVL51:
 332              		.loc 1 186 0
 333 012e 0E48     		ldr	r0, .L48+8
 334 0130 FFF7FEFF 		bl	chOQGetI
 335              	.LVL52:
 336              		.loc 1 187 0
 337 0134 0028     		cmp	r0, #0
 338              		.loc 1 192 0
 339 0136 A4BF     		itt	ge
 340 0138 80B2     		uxthge	r0, r0
 341              	.LVL53:
 342 013a A880     		strhge	r0, [r5, #4]	@ movhi
ARM GAS  /tmp/ccXIrMZk.s 			page 7


 343              		.loc 1 187 0
 344 013c 05DB     		blt	.L47
 345              	.L12:
 346              		.loc 1 193 0
 347 013e FFF7FEFF 		bl	dbg_check_unlock_from_isr
 348              	.LVL54:
 349              	.LBB44:
 350 0142 0023     		movs	r3, #0
 351              	@ 193 "../../ChibiOS/os/hal/platforms/STM32/USARTv1/serial_lld.c" 1
 352 0144 83F31188 		msr     BASEPRI, r3
 353              	@ 0 "" 2
 354              	.LVL55:
 355              		.thumb
 356 0148 7BE7     		b	.L10
 357              	.LVL56:
 358              	.L47:
 359              	.LBE44:
 360              		.loc 1 188 0
 361 014a 0648     		ldr	r0, .L48+4
 362 014c 0821     		movs	r1, #8
 363 014e FFF7FEFF 		bl	chEvtBroadcastFlagsI
 364              	.LVL57:
 365              		.loc 1 189 0
 366 0152 26F0C003 		bic	r3, r6, #192
 367 0156 43F04003 		orr	r3, r3, #64
 368 015a AB81     		strh	r3, [r5, #12]	@ movhi
 369 015c EFE7     		b	.L12
 370              	.L49:
 371 015e 00BF     		.align	2
 372              	.L48:
 373 0160 00000000 		.word	.LANCHOR0
 374 0164 04000000 		.word	.LANCHOR0+4
 375 0168 30000000 		.word	.LANCHOR0+48
 376              	.LBE42:
 377              	.LBE45:
 378              	.LBE46:
 379              		.cfi_endproc
 380              	.LFE123:
 381              		.size	Vector15C, .-Vector15C
 382 016c AFF30080 		.section	.text.sd_lld_init,"ax",%progbits
 383              		.align	2
 384              		.p2align 4,,15
 385              		.global	sd_lld_init
 386              		.thumb
 387              		.thumb_func
 388              		.type	sd_lld_init, %function
 389              	sd_lld_init:
 390              	.LFB124:
 391              		.loc 1 380 0
 392              		.cfi_startproc
 393              		@ args = 0, pretend = 0, frame = 0
 394              		@ frame_needed = 0, uses_anonymous_args = 0
 395 0000 10B5     		push	{r4, lr}
 396              	.LCFI1:
 397              		.cfi_def_cfa_offset 8
 398              		.cfi_offset 4, -8
 399              		.cfi_offset 14, -4
ARM GAS  /tmp/ccXIrMZk.s 			page 8


 400              		.loc 1 408 0
 401 0002 40F20004 		movw	r4, #:lower16:.LANCHOR0
 402 0006 C0F20004 		movt	r4, #:upper16:.LANCHOR0
 403 000a 40F20002 		movw	r2, #:lower16:notify6
 404 000e 2046     		mov	r0, r4
 405 0010 0021     		movs	r1, #0
 406 0012 C0F20002 		movt	r2, #:upper16:notify6
 407 0016 FFF7FEFF 		bl	sdObjectInit
 408              	.LVL58:
 409              		.loc 1 409 0
 410 001a 4FF4A053 		mov	r3, #5120
 411 001e C4F20103 		movt	r3, 16385
 412 0022 6367     		str	r3, [r4, #116]
 413 0024 10BD     		pop	{r4, pc}
 414              		.cfi_endproc
 415              	.LFE124:
 416              		.size	sd_lld_init, .-sd_lld_init
 417 0026 00BFAFF3 		.section	.text.sd_lld_start,"ax",%progbits
 417      0080AFF3 
 417      0080
 418              		.align	2
 419              		.p2align 4,,15
 420              		.global	sd_lld_start
 421              		.thumb
 422              		.thumb_func
 423              		.type	sd_lld_start, %function
 424              	sd_lld_start:
 425              	.LFB125:
 426              		.loc 1 423 0
 427              		.cfi_startproc
 428              		@ args = 0, pretend = 0, frame = 0
 429              		@ frame_needed = 0, uses_anonymous_args = 0
 430              	.LVL59:
 431 0000 38B5     		push	{r3, r4, r5, lr}
 432              	.LCFI2:
 433              		.cfi_def_cfa_offset 16
 434              		.cfi_offset 3, -16
 435              		.cfi_offset 4, -12
 436              		.cfi_offset 5, -8
 437              		.cfi_offset 14, -4
 438              		.loc 1 428 0
 439 0002 037A     		ldrb	r3, [r0, #8]	@ zero_extendqisi2
 440              		.loc 1 426 0
 441 0004 234C     		ldr	r4, .L58
 442 0006 0029     		cmp	r1, #0
 443 0008 18BF     		it	ne
 444 000a 0C46     		movne	r4, r1
 445              	.LVL60:
 446              		.loc 1 428 0
 447 000c 012B     		cmp	r3, #1
 448              		.loc 1 423 0
 449 000e 0546     		mov	r5, r0
 450              		.loc 1 428 0
 451 0010 30D0     		beq	.L57
 452              	.LVL61:
 453              	.L53:
 454              	.LBB49:
ARM GAS  /tmp/ccXIrMZk.s 			page 9


 455              	.LBB50:
 456              		.loc 1 97 0
 457 0012 6B6F     		ldr	r3, [r5, #116]
 458              	.LVL62:
 459              		.loc 1 101 0
 460 0014 4FF4A051 		mov	r1, #5120
 461 0018 4FF48052 		mov	r2, #4096
 462 001c C4F20102 		movt	r2, 16385
 463 0020 C4F20101 		movt	r1, 16385
 464 0024 9342     		cmp	r3, r2
 465 0026 18BF     		it	ne
 466 0028 8B42     		cmpne	r3, r1
 467              		.loc 1 105 0
 468 002a 08BF     		it	eq
 469 002c 4FF43D42 		moveq	r2, #48384
 470 0030 2168     		ldr	r1, [r4, #0]
 471              		.loc 1 107 0
 472 0032 16BF     		itet	ne
 473 0034 4DF68062 		movwne	r2, #56960
 474              		.loc 1 105 0
 475 0038 C0F20152 		movteq	r2, 1281
 476              		.loc 1 107 0
 477 003c C0F28022 		movtne	r2, 640
 478 0040 B2FBF1F2 		udiv	r2, r2, r1
 479 0044 92B2     		uxth	r2, r2
 480 0046 1A81     		strh	r2, [r3, #8]	@ movhi
 481              		.loc 1 112 0
 482 0048 A288     		ldrh	r2, [r4, #4]
 483              		.loc 1 110 0
 484 004a E088     		ldrh	r0, [r4, #6]
 485              		.loc 1 111 0
 486 004c 2189     		ldrh	r1, [r4, #8]
 487              		.loc 1 112 0
 488 004e 42F40452 		orr	r2, r2, #8448
 489              		.loc 1 110 0
 490 0052 40F04000 		orr	r0, r0, #64
 491              		.loc 1 111 0
 492 0056 41F00101 		orr	r1, r1, #1
 493              		.loc 1 112 0
 494 005a 42F02C02 		orr	r2, r2, #44
 495 005e 92B2     		uxth	r2, r2
 496              		.loc 1 110 0
 497 0060 80B2     		uxth	r0, r0
 498              		.loc 1 111 0
 499 0062 89B2     		uxth	r1, r1
 500              		.loc 1 110 0
 501 0064 1882     		strh	r0, [r3, #16]	@ movhi
 502              		.loc 1 111 0
 503 0066 9982     		strh	r1, [r3, #20]	@ movhi
 504              		.loc 1 112 0
 505 0068 9A81     		strh	r2, [r3, #12]	@ movhi
 506              		.loc 1 115 0
 507 006a 0022     		movs	r2, #0
 508 006c 1A80     		strh	r2, [r3, #0]	@ movhi
 509              		.loc 1 116 0
 510 006e 1A88     		ldrh	r2, [r3, #0]
 511              		.loc 1 117 0
ARM GAS  /tmp/ccXIrMZk.s 			page 10


 512 0070 9B88     		ldrh	r3, [r3, #4]
 513              	.LVL63:
 514 0072 38BD     		pop	{r3, r4, r5, pc}
 515              	.LVL64:
 516              	.L57:
 517              	.LBE50:
 518              	.LBE49:
 519              		.loc 1 465 0
 520 0074 084B     		ldr	r3, .L58+4
 521 0076 9842     		cmp	r0, r3
 522 0078 CBD1     		bne	.L53
 523              		.loc 1 466 0
 524 007a 4FF46053 		mov	r3, #14336
 525 007e C4F20203 		movt	r3, 16386
 526              		.loc 1 467 0
 527 0082 4720     		movs	r0, #71
 528              	.LVL65:
 529              		.loc 1 466 0
 530 0084 5A6C     		ldr	r2, [r3, #68]
 531 0086 42F02002 		orr	r2, r2, #32
 532 008a 5A64     		str	r2, [r3, #68]
 533              		.loc 1 467 0
 534 008c C021     		movs	r1, #192
 535 008e FFF7FEFF 		bl	nvicEnableVector
 536              	.LVL66:
 537 0092 BEE7     		b	.L53
 538              	.L59:
 539              		.align	2
 540              	.L58:
 541 0094 00000000 		.word	.LANCHOR1
 542 0098 00000000 		.word	.LANCHOR0
 543              		.cfi_endproc
 544              	.LFE125:
 545              		.size	sd_lld_start, .-sd_lld_start
 546 009c AFF30080 		.section	.text.sd_lld_stop,"ax",%progbits
 547              		.align	2
 548              		.p2align 4,,15
 549              		.global	sd_lld_stop
 550              		.thumb
 551              		.thumb_func
 552              		.type	sd_lld_stop, %function
 553              	sd_lld_stop:
 554              	.LFB126:
 555              		.loc 1 484 0
 556              		.cfi_startproc
 557              		@ args = 0, pretend = 0, frame = 0
 558              		@ frame_needed = 0, uses_anonymous_args = 0
 559              		@ link register save eliminated.
 560              	.LVL67:
 561              		.loc 1 486 0
 562 0000 037A     		ldrb	r3, [r0, #8]	@ zero_extendqisi2
 563 0002 022B     		cmp	r3, #2
 564 0004 00D0     		beq	.L64
 565              	.L60:
 566 0006 7047     		bx	lr
 567              	.L64:
 568              		.loc 1 487 0
ARM GAS  /tmp/ccXIrMZk.s 			page 11


 569 0008 436F     		ldr	r3, [r0, #116]
 570              	.LVL68:
 571              	.LBB51:
 572              	.LBB52:
 573              		.loc 1 128 0
 574 000a 0022     		movs	r2, #0
 575 000c 9A81     		strh	r2, [r3, #12]	@ movhi
 576              		.loc 1 129 0
 577 000e 1A82     		strh	r2, [r3, #16]	@ movhi
 578              		.loc 1 130 0
 579 0010 9A82     		strh	r2, [r3, #20]	@ movhi
 580              	.LBE52:
 581              	.LBE51:
 582              		.loc 1 524 0
 583 0012 074B     		ldr	r3, .L65
 584              	.LVL69:
 585 0014 9842     		cmp	r0, r3
 586 0016 F6D1     		bne	.L60
 587              		.loc 1 525 0
 588 0018 4FF46053 		mov	r3, #14336
 589 001c C4F20203 		movt	r3, 16386
 590              		.loc 1 526 0
 591 0020 4720     		movs	r0, #71
 592              	.LVL70:
 593              		.loc 1 525 0
 594 0022 5A6C     		ldr	r2, [r3, #68]
 595 0024 22F02002 		bic	r2, r2, #32
 596 0028 5A64     		str	r2, [r3, #68]
 597              		.loc 1 531 0
 598              		.loc 1 526 0
 599 002a FFF7FEBF 		b	nvicDisableVector
 600              	.LVL71:
 601              	.L66:
 602 002e 00BF     		.align	2
 603              	.L65:
 604 0030 00000000 		.word	.LANCHOR0
 605              		.cfi_endproc
 606              	.LFE126:
 607              		.size	sd_lld_stop, .-sd_lld_stop
 608              		.global	SD6
 609 0034 AFF30080 		.section	.rodata.default_config,"a",%progbits
 609      AFF30080 
 609      AFF30080 
 610              		.align	2
 611              		.set	.LANCHOR1,. + 0
 612              		.type	default_config, %object
 613              		.size	default_config, 12
 614              	default_config:
 615 0000 00C20100 		.word	115200
 616 0004 0000     		.short	0
 617 0006 0040     		.short	16384
 618 0008 0000     		.short	0
 619 000a 0000     		.space	2
 620              		.section	.bss.SD6,"aw",%nobits
 621              		.align	2
 622              		.set	.LANCHOR0,. + 0
 623              		.type	SD6, %object
ARM GAS  /tmp/ccXIrMZk.s 			page 12


 624              		.size	SD6, 120
 625              	SD6:
 626 0000 00000000 		.space	120
 626      00000000 
 626      00000000 
 626      00000000 
 626      00000000 
 627              		.text
 628              	.Letext0:
 629              		.file 2 "/home/david/toolchains/psas/x-tools/stm32f407/arm-psas-eabi/bin/../lib/gcc/arm-psas-eabi/
 630              		.file 3 "/home/david/toolchains/psas/x-tools/stm32f407/arm-psas-eabi/bin/../lib/gcc/arm-psas-eabi/
 631              		.file 4 "../../ChibiOS/os/ports/GCC/ARMCMx/chtypes.h"
 632              		.file 5 "../../ChibiOS/os/kernel/include/chlists.h"
 633              		.file 6 "../../ChibiOS/os/kernel/include/chthreads.h"
 634              		.file 7 "../../ChibiOS/os/ports/GCC/ARMCMx/chcore_v7m.h"
 635              		.file 8 "../../ChibiOS/os/kernel/include/chmtx.h"
 636              		.file 9 "../../ChibiOS/os/kernel/include/chevents.h"
 637              		.file 10 "../../ChibiOS/os/kernel/include/chqueues.h"
 638              		.file 11 "../../ChibiOS/os/hal/platforms/STM32F4xx/stm32f4xx.h"
 639              		.file 12 "../../ChibiOS/os/hal/include/serial.h"
 640              		.file 13 "../../ChibiOS/os/hal/platforms/STM32/USARTv1/serial_lld.h"
 641              		.file 14 "../../ChibiOS/os/kernel/include/chdebug.h"
 642              		.file 15 "../../ChibiOS/os/ports/common/ARMCMx/nvic.h"
 643              		.file 16 "../../ChibiOS/os/ports/common/ARMCMx/CMSIS/include/core_cm4.h"