ARM GAS  /tmp/ccXIrMZk.s 			page 1


   1              		.syntax unified
   2              		.cpu cortex-m4
   3              		.eabi_attribute 27, 3
   4              		.eabi_attribute 28, 1
   5              		.fpu fpv4-sp-d16
   6              		.eabi_attribute 20, 1
   7              		.eabi_attribute 21, 1
   8              		.eabi_attribute 23, 3
   9              		.eabi_attribute 24, 1
  10              		.eabi_attribute 25, 1
  11              		.eabi_attribute 26, 1
  12              		.eabi_attribute 30, 2
  13              		.eabi_attribute 34, 1
  14              		.eabi_attribute 18, 4
  15              		.thumb
  16              		.file	"serial_lld.c"
  17              		.text
  18              	.Ltext0:
  19              		.cfi_sections	.debug_frame
  20              		.section	.text.notify6,"ax",%progbits
  21              		.align	2
  22              		.p2align 4,,15
  23              		.thumb
  24              		.thumb_func
  25              		.type	notify6, %function
  26              	notify6:
  27              	.LFB122:
  28              		.file 1 "../../ChibiOS/os/hal/platforms/STM32/USARTv1/serial_lld.c"
  29              		.loc 1 246 0
  30              		.cfi_startproc
  31              		@ args = 0, pretend = 0, frame = 0
  32              		@ frame_needed = 0, uses_anonymous_args = 0
  33              		@ link register save eliminated.
  34              	.LVL0:
  35              		.loc 1 249 0
  36 0000 4FF4A053 		mov	r3, #5120
  37 0004 C4F20103 		movt	r3, 16385
  38 0008 9A89     		ldrh	r2, [r3, #12]
  39 000a 92B2     		uxth	r2, r2
  40 000c 42F08002 		orr	r2, r2, #128
  41 0010 9A81     		strh	r2, [r3, #12]	@ movhi
  42 0012 7047     		bx	lr
  43              		.cfi_endproc
  44              	.LFE122:
  45              		.size	notify6, .-notify6
  46              		.section	.text.Vector15C,"ax",%progbits
  47              		.align	2
  48              		.p2align 4,,15
  49              		.global	Vector15C
  50              		.thumb
  51              		.thumb_func
  52              		.type	Vector15C, %function
  53              	Vector15C:
  54              	.LFB123:
  55              		.loc 1 361 0
  56              		.cfi_startproc
  57              		@ args = 0, pretend = 0, frame = 0
ARM GAS  /tmp/ccXIrMZk.s 			page 2


  58              		@ frame_needed = 0, uses_anonymous_args = 0
  59 0000 2DE9F041 		push	{r4, r5, r6, r7, r8, lr}
  60              	.LCFI0:
  61              		.cfi_def_cfa_offset 24
  62              		.cfi_offset 4, -24
  63              		.cfi_offset 5, -20
  64              		.cfi_offset 6, -16
  65              		.cfi_offset 7, -12
  66              		.cfi_offset 8, -8
  67              		.cfi_offset 14, -4
  68              		.loc 1 363 0
  69 0004 FFF7FEFF 		bl	dbg_check_enter_isr
  70              	.LVL1:
  71              	.LBB30:
  72              	.LBB31:
  73              		.loc 1 161 0
  74 0008 554B     		ldr	r3, .L48
  75 000a 5D6F     		ldr	r5, [r3, #116]
  76              	.LVL2:
  77              		.loc 1 162 0
  78 000c AE89     		ldrh	r6, [r5, #12]
  79              		.loc 1 163 0
  80 000e 2C88     		ldrh	r4, [r5, #0]
  81              		.loc 1 164 0
  82 0010 A988     		ldrh	r1, [r5, #4]
  83              		.loc 1 163 0
  84 0012 A4B2     		uxth	r4, r4
  85              		.loc 1 167 0
  86 0014 2207     		lsls	r2, r4, #28
  87              		.loc 1 162 0
  88 0016 B6B2     		uxth	r6, r6
  89              	.LVL3:
  90              		.loc 1 164 0
  91 0018 8FB2     		uxth	r7, r1
  92              	.LVL4:
  93              		.loc 1 167 0
  94 001a 59D1     		bne	.L43
  95              	.LVL5:
  96              	.L3:
  97              		.loc 1 170 0
  98 001c 04F48073 		and	r3, r4, #256
  99              	.LVL6:
 100 0020 9BB2     		uxth	r3, r3
 101 0022 002B     		cmp	r3, #0
 102 0024 3ED1     		bne	.L44
 103              	.L8:
 104              		.loc 1 177 0
 105 0026 04F02003 		and	r3, r4, #32
 106 002a 9BB2     		uxth	r3, r3
 107 002c 002B     		cmp	r3, #0
 108 002e 2AD1     		bne	.L45
 109              	.LVL7:
 110              	.L9:
 111              		.loc 1 183 0
 112 0030 06F08003 		and	r3, r6, #128
 113              	.LVL8:
 114 0034 9BB2     		uxth	r3, r3
ARM GAS  /tmp/ccXIrMZk.s 			page 3


 115 0036 23B1     		cbz	r3, .L10
 116 0038 04F08003 		and	r3, r4, #128
 117 003c 9BB2     		uxth	r3, r3
 118 003e 002B     		cmp	r3, #0
 119 0040 70D1     		bne	.L46
 120              	.LVL9:
 121              	.L10:
 122              		.loc 1 196 0
 123 0042 04F04004 		and	r4, r4, #64
 124              	.LVL10:
 125 0046 A4B2     		uxth	r4, r4
 126 0048 BCB1     		cbz	r4, .L13
 127              	.LBB32:
 128              		.loc 1 197 0
 129 004a 2023     		movs	r3, #32
 130              	.LVL11:
 131              	@ 197 "../../ChibiOS/os/hal/platforms/STM32/USARTv1/serial_lld.c" 1
 132 004c 83F31188 		msr     BASEPRI, r3
 133              	@ 0 "" 2
 134              	.LVL12:
 135              		.thumb
 136              	.LBE32:
 137 0050 FFF7FEFF 		bl	dbg_check_lock_from_isr
 138              	.LVL13:
 139              		.loc 1 198 0
 140 0054 4348     		ldr	r0, .L48+4
 141 0056 1021     		movs	r1, #16
 142 0058 FFF7FEFF 		bl	chEvtBroadcastFlagsI
 143              	.LVL14:
 144              		.loc 1 199 0
 145 005c FFF7FEFF 		bl	dbg_check_unlock_from_isr
 146              	.LVL15:
 147              	.LBB33:
 148 0060 0023     		movs	r3, #0
 149              	.LVL16:
 150              	@ 199 "../../ChibiOS/os/hal/platforms/STM32/USARTv1/serial_lld.c" 1
 151 0062 83F31188 		msr     BASEPRI, r3
 152              	@ 0 "" 2
 153              	.LVL17:
 154              		.thumb
 155              	.LBE33:
 156              		.loc 1 200 0
 157 0066 4FF6BF73 		movw	r3, #65471
 158              	.LVL18:
 159 006a 3340     		ands	r3, r3, r6
 160 006c AB81     		strh	r3, [r5, #12]	@ movhi
 161              		.loc 1 201 0
 162 006e 2B88     		ldrh	r3, [r5, #0]
 163 0070 23F04003 		bic	r3, r3, #64
 164 0074 1B04     		lsls	r3, r3, #16
 165 0076 1B0C     		lsrs	r3, r3, #16
 166 0078 2B80     		strh	r3, [r5, #0]	@ movhi
 167              	.LVL19:
 168              	.L13:
 169              	.LBE31:
 170              	.LBE30:
 171              		.loc 1 367 0
ARM GAS  /tmp/ccXIrMZk.s 			page 4


 172 007a FFF7FEFF 		bl	dbg_check_leave_isr
 173              	.LVL20:
 174              		.loc 1 368 0
 175 007e BDE8F041 		pop	{r4, r5, r6, r7, r8, lr}
 176              		.loc 1 367 0
 177 0082 FFF7FEBF 		b	_port_irq_epilogue
 178              	.LVL21:
 179              	.L45:
 180              	.LBB46:
 181              	.LBB45:
 182              	.LBB34:
 183              		.loc 1 178 0
 184 0086 2023     		movs	r3, #32
 185              	.LVL22:
 186              	@ 178 "../../ChibiOS/os/hal/platforms/STM32/USARTv1/serial_lld.c" 1
 187 0088 83F31188 		msr     BASEPRI, r3
 188              	@ 0 "" 2
 189              	.LVL23:
 190              		.thumb
 191              	.LBE34:
 192 008c FFF7FEFF 		bl	dbg_check_lock_from_isr
 193              	.LVL24:
 194              		.loc 1 179 0
 195 0090 3348     		ldr	r0, .L48
 196 0092 F9B2     		uxtb	r1, r7
 197 0094 FFF7FEFF 		bl	sdIncomingDataI
 198              	.LVL25:
 199              		.loc 1 180 0
 200 0098 FFF7FEFF 		bl	dbg_check_unlock_from_isr
 201              	.LVL26:
 202              	.LBB35:
 203 009c 0023     		movs	r3, #0
 204              	@ 180 "../../ChibiOS/os/hal/platforms/STM32/USARTv1/serial_lld.c" 1
 205 009e 83F31188 		msr     BASEPRI, r3
 206              	@ 0 "" 2
 207              	.LVL27:
 208              		.thumb
 209 00a2 C5E7     		b	.L9
 210              	.LVL28:
 211              	.L44:
 212              	.LBE35:
 213              	.LBB36:
 214              		.loc 1 171 0
 215 00a4 2023     		movs	r3, #32
 216              	.LVL29:
 217              	@ 171 "../../ChibiOS/os/hal/platforms/STM32/USARTv1/serial_lld.c" 1
 218 00a6 83F31188 		msr     BASEPRI, r3
 219              	@ 0 "" 2
 220              	.LVL30:
 221              		.thumb
 222              	.LBE36:
 223 00aa FFF7FEFF 		bl	dbg_check_lock_from_isr
 224              	.LVL31:
 225              		.loc 1 172 0
 226 00ae 2D48     		ldr	r0, .L48+4
 227 00b0 4FF40071 		mov	r1, #512
 228 00b4 FFF7FEFF 		bl	chEvtBroadcastFlagsI
ARM GAS  /tmp/ccXIrMZk.s 			page 5


 229              	.LVL32:
 230              		.loc 1 173 0
 231 00b8 FFF7FEFF 		bl	dbg_check_unlock_from_isr
 232              	.LVL33:
 233              	.LBB37:
 234 00bc 0023     		movs	r3, #0
 235              	.LVL34:
 236              	@ 173 "../../ChibiOS/os/hal/platforms/STM32/USARTv1/serial_lld.c" 1
 237 00be 83F31188 		msr     BASEPRI, r3
 238              	@ 0 "" 2
 239              	.LVL35:
 240              		.thumb
 241              	.LBE37:
 242              		.loc 1 174 0
 243 00c2 2B88     		ldrh	r3, [r5, #0]
 244              	.LVL36:
 245 00c4 23F48073 		bic	r3, r3, #256
 246 00c8 1B04     		lsls	r3, r3, #16
 247 00ca 1B0C     		lsrs	r3, r3, #16
 248 00cc 2B80     		strh	r3, [r5, #0]	@ movhi
 249 00ce AAE7     		b	.L8
 250              	.LVL37:
 251              	.L43:
 252              	.LBB38:
 253              	.LBB39:
 254              		.loc 1 142 0
 255 00d0 04F00808 		and	r8, r4, #8
 256 00d4 1FFA88F8 		uxth	r8, r8
 257              		.loc 1 143 0
 258 00d8 B8F1000F 		cmp	r8, #0
 259 00dc 14BF     		ite	ne
 260 00de 4FF08008 		movne	r8, #128
 261 00e2 4FF00008 		moveq	r8, #0
 262              	.LVL38:
 263              		.loc 1 144 0
 264 00e6 E307     		lsls	r3, r4, #31
 265              		.loc 1 146 0
 266 00e8 04F00203 		and	r3, r4, #2
 267 00ec 9BB2     		uxth	r3, r3
 268              		.loc 1 145 0
 269 00ee 48BF     		it	mi
 270 00f0 48F02008 		orrmi	r8, r8, #32
 271              	.LVL39:
 272              		.loc 1 146 0
 273 00f4 0BB1     		cbz	r3, .L6
 274              		.loc 1 147 0
 275 00f6 48F04008 		orr	r8, r8, #64
 276              	.LVL40:
 277              	.L6:
 278              		.loc 1 148 0
 279 00fa 04F00403 		and	r3, r4, #4
 280 00fe 9BB2     		uxth	r3, r3
 281 0100 0BB1     		cbz	r3, .L7
 282              		.loc 1 149 0
 283 0102 48F48078 		orr	r8, r8, #256
 284              	.LVL41:
 285              	.L7:
ARM GAS  /tmp/ccXIrMZk.s 			page 6


 286              	.LBB40:
 287              		.loc 1 150 0
 288 0106 2023     		movs	r3, #32
 289              	.LVL42:
 290              	@ 150 "../../ChibiOS/os/hal/platforms/STM32/USARTv1/serial_lld.c" 1
 291 0108 83F31188 		msr     BASEPRI, r3
 292              	@ 0 "" 2
 293              	.LVL43:
 294              		.thumb
 295              	.LBE40:
 296 010c FFF7FEFF 		bl	dbg_check_lock_from_isr
 297              	.LVL44:
 298              		.loc 1 151 0
 299 0110 1448     		ldr	r0, .L48+4
 300 0112 4146     		mov	r1, r8
 301 0114 FFF7FEFF 		bl	chEvtBroadcastFlagsI
 302              	.LVL45:
 303              		.loc 1 152 0
 304 0118 FFF7FEFF 		bl	dbg_check_unlock_from_isr
 305              	.LVL46:
 306              	.LBB41:
 307 011c 0023     		movs	r3, #0
 308              	@ 152 "../../ChibiOS/os/hal/platforms/STM32/USARTv1/serial_lld.c" 1
 309 011e 83F31188 		msr     BASEPRI, r3
 310              	@ 0 "" 2
 311              	.LVL47:
 312              		.thumb
 313 0122 7BE7     		b	.L3
 314              	.LVL48:
 315              	.L46:
 316              	.LBE41:
 317              	.LBE39:
 318              	.LBE38:
 319              	.LBB42:
 320              	.LBB43:
 321              		.loc 1 185 0
 322 0124 2023     		movs	r3, #32
 323              	.LVL49:
 324              	@ 185 "../../ChibiOS/os/hal/platforms/STM32/USARTv1/serial_lld.c" 1
 325 0126 83F31188 		msr     BASEPRI, r3
 326              	@ 0 "" 2
 327              	.LVL50:
 328              		.thumb
 329              	.LBE43:
 330 012a FFF7FEFF 		bl	dbg_check_lock_from_isr
 331              	.LVL51:
 332              		.loc 1 186 0
 333 012e 0E48     		ldr	r0, .L48+8
 334 0130 FFF7FEFF 		bl	chOQGetI
 335              	.LVL52:
 336              		.loc 1 187 0
 337 0134 0028     		cmp	r0, #0
 338              		.loc 1 192 0
 339 0136 A4BF     		itt	ge
 340 0138 80B2     		uxthge	r0, r0
 341              	.LVL53:
 342 013a A880     		strhge	r0, [r5, #4]	@ movhi
ARM GAS  /tmp/ccXIrMZk.s 			page 7


 343              		.loc 1 187 0
 344 013c 05DB     		blt	.L47
 345              	.L12:
 346              		.loc 1 193 0
 347 013e FFF7FEFF 		bl	dbg_check_unlock_from_isr
 348              	.LVL54:
 349              	.LBB44:
 350 0142 0023     		movs	r3, #0
 351              	@ 193 "../../ChibiOS/os/hal/platforms/STM32/USARTv1/serial_lld.c" 1
 352 0144 83F31188 		msr     BASEPRI, r3
 353              	@ 0 "" 2
 354              	.LVL55:
 355              		.thumb
 356 0148 7BE7     		b	.L10
 357              	.LVL56:
 358              	.L47:
 359              	.LBE44:
 360              		.loc 1 188 0
 361 014a 0648     		ldr	r0, .L48+4
 362 014c 0821     		movs	r1, #8
 363 014e FFF7FEFF 		bl	chEvtBroadcastFlagsI
 364              	.LVL57:
 365              		.loc 1 189 0
 366 0152 26F0C003 		bic	r3, r6, #192
 367 0156 43F04003 		orr	r3, r3, #64
 368 015a AB81     		strh	r3, [r5, #12]	@ movhi
 369 015c EFE7     		b	.L12
 370              	.L49:
 371 015e 00BF     		.align	2
 372              	.L48:
 373 0160 00000000 		.word	.LANCHOR0
 374 0164 04000000 		.word	.LANCHOR0+4
 375 0168 30000000 		.word	.LANCHOR0+48
 376              	.LBE42:
 377              	.LBE45:
 378              	.LBE46:
 379              		.cfi_endproc
 380              	.LFE123:
 381              		.size	Vector15C, .-Vector15C
 382 016c AFF30080 		.section	.text.sd_lld_init,"ax",%progbits
 383              		.align	2
 384              		.p2align 4,,15
 385              		.global	sd_lld_init
 386              		.thumb
 387              		.thumb_func
 388              		.type	sd_lld_init, %function
 389              	sd_lld_init:
 390              	.LFB124:
 391              		.loc 1 380 0
 392              		.cfi_startproc
 393              		@ args = 0, pretend = 0, frame = 0
 394              		@ frame_needed = 0, uses_anonymous_args = 0
 395 0000 10B5     		push	{r4, lr}
 396              	.LCFI1:
 397              		.cfi_def_cfa_offset 8
 398              		.cfi_offset 4, -8
 399              		.cfi_offset 14, -4
ARM GAS  /tmp/ccXIrMZk.s 			page 8


 400              		.loc 1 408 0
 401 0002 40F20004 		movw	r4, #:lower16:.LANCHOR0
 402 0006 C0F20004 		movt	r4, #:upper16:.LANCHOR0
 403 000a 40F20002 		movw	r2, #:lower16:notify6
 404 000e 2046     		mov	r0, r4
 405 0010 0021     		movs	r1, #0
 406 0012 C0F20002 		movt	r2, #:upper16:notify6
 407 0016 FFF7FEFF 		bl	sdObjectInit
 408              	.LVL58:
 409              		.loc 1 409 0
 410 001a 4FF4A053 		mov	r3, #5120
 411 001e C4F20103 		movt	r3, 16385
 412 0022 6367     		str	r3, [r4, #116]
 413 0024 10BD     		pop	{r4, pc}
 414              		.cfi_endproc
 415              	.LFE124:
 416              		.size	sd_lld_init, .-sd_lld_init
 417 0026 00BFAFF3 		.section	.text.sd_lld_start,"ax",%progbits
 417      0080AFF3 
 417      0080
 418              		.align	2
 419              		.p2align 4,,15
 420              		.global	sd_lld_start
 421              		.thumb
 422              		.thumb_func
 423              		.type	sd_lld_start, %function
 424              	sd_lld_start:
 425              	.LFB125:
 426              		.loc 1 423 0
 427              		.cfi_startproc
 428              		@ args = 0, pretend = 0, frame = 0
 429              		@ frame_needed = 0, uses_anonymous_args = 0
 430              	.LVL59:
 431 0000 38B5     		push	{r3, r4, r5, lr}
 432              	.LCFI2:
 433              		.cfi_def_cfa_offset 16
 434              		.cfi_offset 3, -16
 435              		.cfi_offset 4, -12
 436              		.cfi_offset 5, -8
 437              		.cfi_offset 14, -4
 438              		.loc 1 428 0
 439 0002 037A     		ldrb	r3, [r0, #8]	@ zero_extendqisi2
 440              		.loc 1 426 0
 441 0004 234C     		ldr	r4, .L58
 442 0006 0029     		cmp	r1, #0
 443 0008 18BF     		it	ne
 444 000a 0C46     		movne	r4, r1
 445              	.LVL60:
 446              		.loc 1 428 0
 447 000c 012B     		cmp	r3, #1
 448              		.loc 1 423 0
 449 000e 0546     		mov	r5, r0
 450              		.loc 1 428 0
 451 0010 30D0     		beq	.L57
 452              	.LVL61:
 453              	.L53:
 454              	.LBB49:
ARM GAS  /tmp/ccXIrMZk.s 			page 9


 455              	.LBB50:
 456              		.loc 1 97 0
 457 0012 6B6F     		ldr	r3, [r5, #116]
 458              	.LVL62:
 459              		.loc 1 101 0
 460 0014 4FF4A051 		mov	r1, #5120
 461 0018 4FF48052 		mov	r2, #4096
 462 001c C4F20102 		movt	r2, 16385
 463 0020 C4F20101 		movt	r1, 16385
 464 0024 9342     		cmp	r3, r2
 465 0026 18BF     		it	ne
 466 0028 8B42     		cmpne	r3, r1
 467              		.loc 1 105 0
 468 002a 08BF     		it	eq
 469 002c 4FF43D42 		moveq	r2, #48384
 470 0030 2168     		ldr	r1, [r4, #0]
 471              		.loc 1 107 0
 472 0032 16BF     		itet	ne
 473 0034 4DF68062 		movwne	r2, #56960
 474              		.loc 1 105 0
 475 0038 C0F20152 		movteq	r2, 1281
 476              		.loc 1 107 0
 477 003c C0F28022 		movtne	r2, 640
 478 0040 B2FBF1F2 		udiv	r2, r2, r1
 479 0044 92B2     		uxth	r2, r2
 480 0046 1A81     		strh	r2, [r3, #8]	@ movhi
 481              		.loc 1 112 0
 482 0048 A288     		ldrh	r2, [r4, #4]
 483              		.loc 1 110 0
 484 004a E088     		ldrh	r0, [r4, #6]
 485              		.loc 1 111 0
 486 004c 2189     		ldrh	r1, [r4, #8]
 487              		.loc 1 112 0
 488 004e 42F40452 		orr	r2, r2, #8448
 489              		.loc 1 110 0
 490 0052 40F04000 		orr	r0, r0, #64
 491              		.loc 1 111 0
 492 0056 41F00101 		orr	r1, r1, #1
 493              		.loc 1 112 0
 494 005a 42F02C02 		orr	r2, r2, #44
 495 005e 92B2     		uxth	r2, r2
 496              		.loc 1 110 0
 497 0060 80B2     		uxth	r0, r0
 498              		.loc 1 111 0
 499 0062 89B2     		uxth	r1, r1
 500              		.loc 1 110 0
 501 0064 1882     		strh	r0, [r3, #16]	@ movhi
 502              		.loc 1 111 0
 503 0066 9982     		strh	r1, [r3, #20]	@ movhi
 504              		.loc 1 112 0
 505 0068 9A81     		strh	r2, [r3, #12]	@ movhi
 506              		.loc 1 115 0
 507 006a 0022     		movs	r2, #0
 508 006c 1A80     		strh	r2, [r3, #0]	@ movhi
 509              		.loc 1 116 0
 510 006e 1A88     		ldrh	r2, [r3, #0]
 511              		.loc 1 117 0
ARM GAS  /tmp/ccXIrMZk.s 			page 10


 512 0070 9B88     		ldrh	r3, [r3, #4]
 513              	.LVL63:
 514 0072 38BD     		pop	{r3, r4, r5, pc}
 515              	.LVL64:
 516              	.L57:
 517              	.LBE50:
 518              	.LBE49:
 519              		.loc 1 465 0
 520 0074 084B     		ldr	r3, .L58+4
 521 0076 9842     		cmp	r0, r3
 522 0078 CBD1     		bne	.L53
 523              		.loc 1 466 0
 524 007a 4FF46053 		mov	r3, #14336
 525 007e C4F20203 		movt	r3, 16386
 526              		.loc 1 467 0
 527 0082 4720     		movs	r0, #71
 528              	.LVL65:
 529              		.loc 1 466 0
 530 0084 5A6C     		ldr	r2, [r3, #68]
 531 0086 42F02002 		orr	r2, r2, #32
 532 008a 5A64     		str	r2, [r3, #68]
 533              		.loc 1 467 0
 534 008c C021     		movs	r1, #192
 535 008e FFF7FEFF 		bl	nvicEnableVector
 536              	.LVL66:
 537 0092 BEE7     		b	.L53
 538              	.L59:
 539              		.align	2
 540              	.L58:
 541 0094 00000000 		.word	.LANCHOR1
 542 0098 00000000 		.word	.LANCHOR0
 543              		.cfi_endproc
 544              	.LFE125:
 545              		.size	sd_lld_start, .-sd_lld_start
 546 009c AFF30080 		.section	.text.sd_lld_stop,"ax",%progbits
 547              		.align	2
 548              		.p2align 4,,15
 549              		.global	sd_lld_stop
 550              		.thumb
 551              		.thumb_func
 552              		.type	sd_lld_stop, %function
 553              	sd_lld_stop:
 554              	.LFB126:
 555              		.loc 1 484 0
 556              		.cfi_startproc
 557              		@ args = 0, pretend = 0, frame = 0
 558              		@ frame_needed = 0, uses_anonymous_args = 0
 559              		@ link register save eliminated.
 560              	.LVL67:
 561              		.loc 1 486 0
 562 0000 037A     		ldrb	r3, [r0, #8]	@ zero_extendqisi2
 563 0002 022B     		cmp	r3, #2
 564 0004 00D0     		beq	.L64
 565              	.L60:
 566 0006 7047     		bx	lr
 567              	.L64:
 568              		.loc 1 487 0
ARM GAS  /tmp/ccXIrMZk.s 			page 11


 569 0008 436F     		ldr	r3, [r0, #116]
 570              	.LVL68:
 571              	.LBB51:
 572              	.LBB52:
 573              		.loc 1 128 0
 574 000a 0022     		movs	r2, #0
 575 000c 9A81     		strh	r2, [r3, #12]	@ movhi
 576              		.loc 1 129 0
 577 000e 1A82     		strh	r2, [r3, #16]	@ movhi
 578              		.loc 1 130 0
 579 0010 9A82     		strh	r2, [r3, #20]	@ movhi
 580              	.LBE52:
 581              	.LBE51:
 582              		.loc 1 524 0
 583 0012 074B     		ldr	r3, .L65
 584              	.LVL69:
 585 0014 9842     		cmp	r0, r3
 586 0016 F6D1     		bne	.L60
 587              		.loc 1 525 0
 588 0018 4FF46053 		mov	r3, #14336
 589 001c C4F20203 		movt	r3, 16386
 590              		.loc 1 526 0
 591 0020 4720     		movs	r0, #71
 592              	.LVL70:
 593              		.loc 1 525 0
 594 0022 5A6C     		ldr	r2, [r3, #68]
 595 0024 22F02002 		bic	r2, r2, #32
 596 0028 5A64     		str	r2, [r3, #68]
 597              		.loc 1 531 0
 598              		.loc 1 526 0
 599 002a FFF7FEBF 		b	nvicDisableVector
 600              	.LVL71:
 601              	.L66:
 602 002e 00BF     		.align	2
 603              	.L65:
 604 0030 00000000 		.word	.LANCHOR0
 605              		.cfi_endproc
 606              	.LFE126:
 607              		.size	sd_lld_stop, .-sd_lld_stop
 608              		.global	SD6
 609 0034 AFF30080 		.section	.rodata.default_config,"a",%progbits
 609      AFF30080 
 609      AFF30080 
 610              		.align	2
 611              		.set	.LANCHOR1,. + 0
 612              		.type	default_config, %object
 613              		.size	default_config, 12
 614              	default_config:
 615 0000 00C20100 		.word	115200
 616 0004 0000     		.short	0
 617 0006 0040     		.short	16384
 618 0008 0000     		.short	0
 619 000a 0000     		.space	2
 620              		.section	.bss.SD6,"aw",%nobits
 621              		.align	2
 622              		.set	.LANCHOR0,. + 0
 623              		.type	SD6, %object
ARM GAS  /tmp/ccXIrMZk.s 			page 12


 624              		.size	SD6, 120
 625              	SD6:
 626 0000 00000000 		.space	120
 626      00000000 
 626      00000000 
 626      00000000 
 626      00000000 
 627              		.text
 628              	.Letext0:
 629              		.file 2 "/home/david/toolchains/psas/x-tools/stm32f407/arm-psas-eabi/bin/../lib/gcc/arm-psas-eabi/
 630              		.file 3 "/home/david/toolchains/psas/x-tools/stm32f407/arm-psas-eabi/bin/../lib/gcc/arm-psas-eabi/
 631              		.file 4 "../../ChibiOS/os/ports/GCC/ARMCMx/chtypes.h"
 632              		.file 5 "../../ChibiOS/os/kernel/include/chlists.h"
 633              		.file 6 "../../ChibiOS/os/kernel/include/chthreads.h"
 634              		.file 7 "../../ChibiOS/os/ports/GCC/ARMCMx/chcore_v7m.h"
 635              		.file 8 "../../ChibiOS/os/kernel/include/chmtx.h"
 636              		.file 9 "../../ChibiOS/os/kernel/include/chevents.h"
 637              		.file 10 "../../ChibiOS/os/kernel/include/chqueues.h"
 638              		.file 11 "../../ChibiOS/os/hal/platforms/STM32F4xx/stm32f4xx.h"
 639              		.file 12 "../../ChibiOS/os/hal/include/serial.h"
 640              		.file 13 "../../ChibiOS/os/hal/platforms/STM32/USARTv1/serial_lld.h"
 641              		.file 14 "../../ChibiOS/os/kernel/include/chdebug.h"
 642              		.file 15 "../../ChibiOS/os/ports/common/ARMCMx/nvic.h"
 643              		.file 16 "../../ChibiOS/os/ports/common/ARMCMx/CMSIS/include/core_cm4.h"
 644              		.section	.debug_info,"",%progbits
 645              	.Ldebug_info0:
 646 0000 78130000 		.4byte	0x1378
 647 0004 0200     		.2byte	0x2
 648 0006 00000000 		.4byte	.Ldebug_abbrev0
 649 000a 04       		.byte	0x4
 650 000b 01       		.uleb128 0x1
 651 000c CE000000 		.4byte	.LASF241
 652 0010 01       		.byte	0x1
 653 0011 51010000 		.4byte	.LASF242
 654 0015 AD020000 		.4byte	.LASF243
 655 0019 30000000 		.4byte	.Ldebug_ranges0+0x30
 656 001d 00000000 		.4byte	0
 657 0021 00000000 		.4byte	0
 658 0025 00000000 		.4byte	.Ldebug_line0
 659 0029 02       		.uleb128 0x2
 660 002a 04       		.byte	0x4
 661 002b 05       		.byte	0x5
 662 002c 696E7400 		.ascii	"int\000"
 663 0030 03       		.uleb128 0x3
 664 0031 00000000 		.4byte	.LASF2
 665 0035 02       		.byte	0x2
 666 0036 D5       		.byte	0xd5
 667 0037 3B000000 		.4byte	0x3b
 668 003b 04       		.uleb128 0x4
 669 003c 04       		.byte	0x4
 670 003d 07       		.byte	0x7
 671 003e EA060000 		.4byte	.LASF0
 672 0042 04       		.uleb128 0x4
 673 0043 01       		.byte	0x1
 674 0044 06       		.byte	0x6
 675 0045 7B020000 		.4byte	.LASF1
 676 0049 03       		.uleb128 0x3
ARM GAS  /tmp/ccXIrMZk.s 			page 13


 677 004a 91020000 		.4byte	.LASF3
 678 004e 03       		.byte	0x3
 679 004f 2A       		.byte	0x2a
 680 0050 54000000 		.4byte	0x54
 681 0054 04       		.uleb128 0x4
 682 0055 01       		.byte	0x1
 683 0056 08       		.byte	0x8
 684 0057 02030000 		.4byte	.LASF4
 685 005b 04       		.uleb128 0x4
 686 005c 02       		.byte	0x2
 687 005d 05       		.byte	0x5
 688 005e B6090000 		.4byte	.LASF5
 689 0062 03       		.uleb128 0x3
 690 0063 9A080000 		.4byte	.LASF6
 691 0067 03       		.byte	0x3
 692 0068 36       		.byte	0x36
 693 0069 6D000000 		.4byte	0x6d
 694 006d 04       		.uleb128 0x4
 695 006e 02       		.byte	0x2
 696 006f 07       		.byte	0x7
 697 0070 9E0A0000 		.4byte	.LASF7
 698 0074 03       		.uleb128 0x3
 699 0075 51000000 		.4byte	.LASF8
 700 0079 03       		.byte	0x3
 701 007a 4F       		.byte	0x4f
 702 007b 7F000000 		.4byte	0x7f
 703 007f 04       		.uleb128 0x4
 704 0080 04       		.byte	0x4
 705 0081 05       		.byte	0x5
 706 0082 CF010000 		.4byte	.LASF9
 707 0086 03       		.uleb128 0x3
 708 0087 5B0A0000 		.4byte	.LASF10
 709 008b 03       		.byte	0x3
 710 008c 50       		.byte	0x50
 711 008d 91000000 		.4byte	0x91
 712 0091 04       		.uleb128 0x4
 713 0092 04       		.byte	0x4
 714 0093 07       		.byte	0x7
 715 0094 14050000 		.4byte	.LASF11
 716 0098 04       		.uleb128 0x4
 717 0099 08       		.byte	0x8
 718 009a 05       		.byte	0x5
 719 009b 09060000 		.4byte	.LASF12
 720 009f 03       		.uleb128 0x3
 721 00a0 C0090000 		.4byte	.LASF13
 722 00a4 03       		.byte	0x3
 723 00a5 78       		.byte	0x78
 724 00a6 AA000000 		.4byte	0xaa
 725 00aa 04       		.uleb128 0x4
 726 00ab 08       		.byte	0x8
 727 00ac 07       		.byte	0x7
 728 00ad 7B080000 		.4byte	.LASF14
 729 00b1 03       		.uleb128 0x3
 730 00b2 20090000 		.4byte	.LASF15
 731 00b6 04       		.byte	0x4
 732 00b7 28       		.byte	0x28
 733 00b8 49000000 		.4byte	0x49
ARM GAS  /tmp/ccXIrMZk.s 			page 14


 734 00bc 03       		.uleb128 0x3
 735 00bd 0F020000 		.4byte	.LASF16
 736 00c1 04       		.byte	0x4
 737 00c2 29       		.byte	0x29
 738 00c3 49000000 		.4byte	0x49
 739 00c7 03       		.uleb128 0x3
 740 00c8 120A0000 		.4byte	.LASF17
 741 00cc 04       		.byte	0x4
 742 00cd 2A       		.byte	0x2a
 743 00ce 49000000 		.4byte	0x49
 744 00d2 03       		.uleb128 0x3
 745 00d3 BF080000 		.4byte	.LASF18
 746 00d7 04       		.byte	0x4
 747 00d8 2B       		.byte	0x2b
 748 00d9 49000000 		.4byte	0x49
 749 00dd 03       		.uleb128 0x3
 750 00de 3E000000 		.4byte	.LASF19
 751 00e2 04       		.byte	0x4
 752 00e3 2C       		.byte	0x2c
 753 00e4 86000000 		.4byte	0x86
 754 00e8 03       		.uleb128 0x3
 755 00e9 A3080000 		.4byte	.LASF20
 756 00ed 04       		.byte	0x4
 757 00ee 2D       		.byte	0x2d
 758 00ef 74000000 		.4byte	0x74
 759 00f3 03       		.uleb128 0x3
 760 00f4 99020000 		.4byte	.LASF21
 761 00f8 04       		.byte	0x4
 762 00f9 2F       		.byte	0x2f
 763 00fa 86000000 		.4byte	0x86
 764 00fe 03       		.uleb128 0x3
 765 00ff 6E070000 		.4byte	.LASF22
 766 0103 04       		.byte	0x4
 767 0104 30       		.byte	0x30
 768 0105 86000000 		.4byte	0x86
 769 0109 03       		.uleb128 0x3
 770 010a 23000000 		.4byte	.LASF23
 771 010e 04       		.byte	0x4
 772 010f 31       		.byte	0x31
 773 0110 86000000 		.4byte	0x86
 774 0114 03       		.uleb128 0x3
 775 0115 EB090000 		.4byte	.LASF24
 776 0119 05       		.byte	0x5
 777 011a 23       		.byte	0x23
 778 011b 1F010000 		.4byte	0x11f
 779 011f 05       		.uleb128 0x5
 780 0120 EB090000 		.4byte	.LASF24
 781 0124 4C       		.byte	0x4c
 782 0125 06       		.byte	0x6
 783 0126 57       		.byte	0x57
 784 0127 52020000 		.4byte	0x252
 785 012b 06       		.uleb128 0x6
 786 012c D8010000 		.4byte	.LASF25
 787 0130 06       		.byte	0x6
 788 0131 58       		.byte	0x58
 789 0132 77020000 		.4byte	0x277
 790 0136 02       		.byte	0x2
ARM GAS  /tmp/ccXIrMZk.s 			page 15


 791 0137 23       		.byte	0x23
 792 0138 00       		.uleb128 0
 793 0139 06       		.uleb128 0x6
 794 013a E7010000 		.4byte	.LASF26
 795 013e 06       		.byte	0x6
 796 013f 5A       		.byte	0x5a
 797 0140 77020000 		.4byte	0x277
 798 0144 02       		.byte	0x2
 799 0145 23       		.byte	0x23
 800 0146 04       		.uleb128 0x4
 801 0147 06       		.uleb128 0x6
 802 0148 9F030000 		.4byte	.LASF27
 803 014c 06       		.byte	0x6
 804 014d 5C       		.byte	0x5c
 805 014e DD000000 		.4byte	0xdd
 806 0152 02       		.byte	0x2
 807 0153 23       		.byte	0x23
 808 0154 08       		.uleb128 0x8
 809 0155 06       		.uleb128 0x6
 810 0156 38000000 		.4byte	.LASF28
 811 015a 06       		.byte	0x6
 812 015b 5D       		.byte	0x5d
 813 015c 50030000 		.4byte	0x350
 814 0160 02       		.byte	0x2
 815 0161 23       		.byte	0x23
 816 0162 0C       		.uleb128 0xc
 817 0163 06       		.uleb128 0x6
 818 0164 C7010000 		.4byte	.LASF29
 819 0168 06       		.byte	0x6
 820 0169 5F       		.byte	0x5f
 821 016a 77020000 		.4byte	0x277
 822 016e 02       		.byte	0x2
 823 016f 23       		.byte	0x23
 824 0170 10       		.uleb128 0x10
 825 0171 06       		.uleb128 0x6
 826 0172 92080000 		.4byte	.LASF30
 827 0176 06       		.byte	0x6
 828 0177 60       		.byte	0x60
 829 0178 77020000 		.4byte	0x277
 830 017c 02       		.byte	0x2
 831 017d 23       		.byte	0x23
 832 017e 14       		.uleb128 0x14
 833 017f 06       		.uleb128 0x6
 834 0180 3F0B0000 		.4byte	.LASF31
 835 0184 06       		.byte	0x6
 836 0185 67       		.byte	0x67
 837 0186 7D040000 		.4byte	0x47d
 838 018a 02       		.byte	0x2
 839 018b 23       		.byte	0x23
 840 018c 18       		.uleb128 0x18
 841 018d 06       		.uleb128 0x6
 842 018e 090B0000 		.4byte	.LASF32
 843 0192 06       		.byte	0x6
 844 0193 6D       		.byte	0x6d
 845 0194 8F040000 		.4byte	0x48f
 846 0198 02       		.byte	0x2
 847 0199 23       		.byte	0x23
ARM GAS  /tmp/ccXIrMZk.s 			page 16


 848 019a 1C       		.uleb128 0x1c
 849 019b 06       		.uleb128 0x6
 850 019c 790B0000 		.4byte	.LASF33
 851 01a0 06       		.byte	0x6
 852 01a1 72       		.byte	0x72
 853 01a2 BC000000 		.4byte	0xbc
 854 01a6 02       		.byte	0x2
 855 01a7 23       		.byte	0x23
 856 01a8 20       		.uleb128 0x20
 857 01a9 06       		.uleb128 0x6
 858 01aa DD060000 		.4byte	.LASF34
 859 01ae 06       		.byte	0x6
 860 01af 76       		.byte	0x76
 861 01b0 B1000000 		.4byte	0xb1
 862 01b4 02       		.byte	0x2
 863 01b5 23       		.byte	0x23
 864 01b6 21       		.uleb128 0x21
 865 01b7 06       		.uleb128 0x6
 866 01b8 1A070000 		.4byte	.LASF35
 867 01bc 06       		.byte	0x6
 868 01bd 7B       		.byte	0x7b
 869 01be C7000000 		.4byte	0xc7
 870 01c2 02       		.byte	0x2
 871 01c3 23       		.byte	0x23
 872 01c4 22       		.uleb128 0x22
 873 01c5 06       		.uleb128 0x6
 874 01c6 87020000 		.4byte	.LASF36
 875 01ca 06       		.byte	0x6
 876 01cb 81       		.byte	0x81
 877 01cc D2000000 		.4byte	0xd2
 878 01d0 02       		.byte	0x2
 879 01d1 23       		.byte	0x23
 880 01d2 23       		.uleb128 0x23
 881 01d3 06       		.uleb128 0x6
 882 01d4 99070000 		.4byte	.LASF37
 883 01d8 06       		.byte	0x6
 884 01d9 88       		.byte	0x88
 885 01da 7F030000 		.4byte	0x37f
 886 01de 02       		.byte	0x2
 887 01df 23       		.byte	0x23
 888 01e0 24       		.uleb128 0x24
 889 01e1 07       		.uleb128 0x7
 890 01e2 705F7500 		.ascii	"p_u\000"
 891 01e6 06       		.byte	0x6
 892 01e7 AD       		.byte	0xad
 893 01e8 48040000 		.4byte	0x448
 894 01ec 02       		.byte	0x2
 895 01ed 23       		.byte	0x23
 896 01ee 28       		.uleb128 0x28
 897 01ef 06       		.uleb128 0x6
 898 01f0 AA060000 		.4byte	.LASF38
 899 01f4 06       		.byte	0x6
 900 01f5 B2       		.byte	0xb2
 901 01f6 9F020000 		.4byte	0x29f
 902 01fa 02       		.byte	0x2
 903 01fb 23       		.byte	0x23
 904 01fc 2C       		.uleb128 0x2c
ARM GAS  /tmp/ccXIrMZk.s 			page 17


 905 01fd 06       		.uleb128 0x6
 906 01fe 46000000 		.4byte	.LASF39
 907 0202 06       		.byte	0x6
 908 0203 B8       		.byte	0xb8
 909 0204 7D020000 		.4byte	0x27d
 910 0208 02       		.byte	0x2
 911 0209 23       		.byte	0x23
 912 020a 30       		.uleb128 0x30
 913 020b 06       		.uleb128 0x6
 914 020c 670B0000 		.4byte	.LASF40
 915 0210 06       		.byte	0x6
 916 0211 BC       		.byte	0xbc
 917 0212 E8000000 		.4byte	0xe8
 918 0216 02       		.byte	0x2
 919 0217 23       		.byte	0x23
 920 0218 38       		.uleb128 0x38
 921 0219 06       		.uleb128 0x6
 922 021a 55040000 		.4byte	.LASF41
 923 021e 06       		.byte	0x6
 924 021f C2       		.byte	0xc2
 925 0220 F3000000 		.4byte	0xf3
 926 0224 02       		.byte	0x2
 927 0225 23       		.byte	0x23
 928 0226 3C       		.uleb128 0x3c
 929 0227 06       		.uleb128 0x6
 930 0228 18020000 		.4byte	.LASF42
 931 022c 06       		.byte	0x6
 932 022d C9       		.byte	0xc9
 933 022e 95040000 		.4byte	0x495
 934 0232 02       		.byte	0x2
 935 0233 23       		.byte	0x23
 936 0234 40       		.uleb128 0x40
 937 0235 06       		.uleb128 0x6
 938 0236 E7070000 		.4byte	.LASF43
 939 023a 06       		.byte	0x6
 940 023b CD       		.byte	0xcd
 941 023c DD000000 		.4byte	0xdd
 942 0240 02       		.byte	0x2
 943 0241 23       		.byte	0x23
 944 0242 44       		.uleb128 0x44
 945 0243 06       		.uleb128 0x6
 946 0244 05070000 		.4byte	.LASF44
 947 0248 06       		.byte	0x6
 948 0249 D3       		.byte	0xd3
 949 024a B5020000 		.4byte	0x2b5
 950 024e 02       		.byte	0x2
 951 024f 23       		.byte	0x23
 952 0250 48       		.uleb128 0x48
 953 0251 00       		.byte	0
 954 0252 08       		.uleb128 0x8
 955 0253 08       		.byte	0x8
 956 0254 05       		.byte	0x5
 957 0255 5A       		.byte	0x5a
 958 0256 77020000 		.4byte	0x277
 959 025a 06       		.uleb128 0x6
 960 025b D8010000 		.4byte	.LASF25
 961 025f 05       		.byte	0x5
ARM GAS  /tmp/ccXIrMZk.s 			page 18


 962 0260 5B       		.byte	0x5b
 963 0261 77020000 		.4byte	0x277
 964 0265 02       		.byte	0x2
 965 0266 23       		.byte	0x23
 966 0267 00       		.uleb128 0
 967 0268 06       		.uleb128 0x6
 968 0269 E7010000 		.4byte	.LASF26
 969 026d 05       		.byte	0x5
 970 026e 5D       		.byte	0x5d
 971 026f 77020000 		.4byte	0x277
 972 0273 02       		.byte	0x2
 973 0274 23       		.byte	0x23
 974 0275 04       		.uleb128 0x4
 975 0276 00       		.byte	0
 976 0277 09       		.uleb128 0x9
 977 0278 04       		.byte	0x4
 978 0279 14010000 		.4byte	0x114
 979 027d 03       		.uleb128 0x3
 980 027e 720A0000 		.4byte	.LASF45
 981 0282 05       		.byte	0x5
 982 0283 5F       		.byte	0x5f
 983 0284 52020000 		.4byte	0x252
 984 0288 08       		.uleb128 0x8
 985 0289 04       		.byte	0x4
 986 028a 05       		.byte	0x5
 987 028b 64       		.byte	0x64
 988 028c 9F020000 		.4byte	0x29f
 989 0290 06       		.uleb128 0x6
 990 0291 D8010000 		.4byte	.LASF25
 991 0295 05       		.byte	0x5
 992 0296 66       		.byte	0x66
 993 0297 77020000 		.4byte	0x277
 994 029b 02       		.byte	0x2
 995 029c 23       		.byte	0x23
 996 029d 00       		.uleb128 0
 997 029e 00       		.byte	0
 998 029f 03       		.uleb128 0x3
 999 02a0 46070000 		.4byte	.LASF46
 1000 02a4 05       		.byte	0x5
 1001 02a5 69       		.byte	0x69
 1002 02a6 88020000 		.4byte	0x288
 1003 02aa 03       		.uleb128 0x3
 1004 02ab 41020000 		.4byte	.LASF47
 1005 02af 07       		.byte	0x7
 1006 02b0 DE       		.byte	0xde
 1007 02b1 B5020000 		.4byte	0x2b5
 1008 02b5 0A       		.uleb128 0xa
 1009 02b6 04       		.byte	0x4
 1010 02b7 03       		.uleb128 0x3
 1011 02b8 D5030000 		.4byte	.LASF48
 1012 02bc 07       		.byte	0x7
 1013 02bd E4       		.byte	0xe4
 1014 02be 9F000000 		.4byte	0x9f
 1015 02c2 0B       		.uleb128 0xb
 1016 02c3 4E040000 		.4byte	.LASF49
 1017 02c7 24       		.byte	0x24
 1018 02c8 07       		.byte	0x7
ARM GAS  /tmp/ccXIrMZk.s 			page 19


 1019 02c9 0501     		.2byte	0x105
 1020 02cb 50030000 		.4byte	0x350
 1021 02cf 0C       		.uleb128 0xc
 1022 02d0 723400   		.ascii	"r4\000"
 1023 02d3 07       		.byte	0x7
 1024 02d4 1801     		.2byte	0x118
 1025 02d6 AA020000 		.4byte	0x2aa
 1026 02da 02       		.byte	0x2
 1027 02db 23       		.byte	0x23
 1028 02dc 00       		.uleb128 0
 1029 02dd 0C       		.uleb128 0xc
 1030 02de 723500   		.ascii	"r5\000"
 1031 02e1 07       		.byte	0x7
 1032 02e2 1901     		.2byte	0x119
 1033 02e4 AA020000 		.4byte	0x2aa
 1034 02e8 02       		.byte	0x2
 1035 02e9 23       		.byte	0x23
 1036 02ea 04       		.uleb128 0x4
 1037 02eb 0C       		.uleb128 0xc
 1038 02ec 723600   		.ascii	"r6\000"
 1039 02ef 07       		.byte	0x7
 1040 02f0 1A01     		.2byte	0x11a
 1041 02f2 AA020000 		.4byte	0x2aa
 1042 02f6 02       		.byte	0x2
 1043 02f7 23       		.byte	0x23
 1044 02f8 08       		.uleb128 0x8
 1045 02f9 0C       		.uleb128 0xc
 1046 02fa 723700   		.ascii	"r7\000"
 1047 02fd 07       		.byte	0x7
 1048 02fe 1B01     		.2byte	0x11b
 1049 0300 AA020000 		.4byte	0x2aa
 1050 0304 02       		.byte	0x2
 1051 0305 23       		.byte	0x23
 1052 0306 0C       		.uleb128 0xc
 1053 0307 0C       		.uleb128 0xc
 1054 0308 723800   		.ascii	"r8\000"
 1055 030b 07       		.byte	0x7
 1056 030c 1C01     		.2byte	0x11c
 1057 030e AA020000 		.4byte	0x2aa
 1058 0312 02       		.byte	0x2
 1059 0313 23       		.byte	0x23
 1060 0314 10       		.uleb128 0x10
 1061 0315 0C       		.uleb128 0xc
 1062 0316 723900   		.ascii	"r9\000"
 1063 0319 07       		.byte	0x7
 1064 031a 1D01     		.2byte	0x11d
 1065 031c AA020000 		.4byte	0x2aa
 1066 0320 02       		.byte	0x2
 1067 0321 23       		.byte	0x23
 1068 0322 14       		.uleb128 0x14
 1069 0323 0C       		.uleb128 0xc
 1070 0324 72313000 		.ascii	"r10\000"
 1071 0328 07       		.byte	0x7
 1072 0329 1E01     		.2byte	0x11e
 1073 032b AA020000 		.4byte	0x2aa
 1074 032f 02       		.byte	0x2
 1075 0330 23       		.byte	0x23
ARM GAS  /tmp/ccXIrMZk.s 			page 20


 1076 0331 18       		.uleb128 0x18
 1077 0332 0C       		.uleb128 0xc
 1078 0333 72313100 		.ascii	"r11\000"
 1079 0337 07       		.byte	0x7
 1080 0338 1F01     		.2byte	0x11f
 1081 033a AA020000 		.4byte	0x2aa
 1082 033e 02       		.byte	0x2
 1083 033f 23       		.byte	0x23
 1084 0340 1C       		.uleb128 0x1c
 1085 0341 0C       		.uleb128 0xc
 1086 0342 6C7200   		.ascii	"lr\000"
 1087 0345 07       		.byte	0x7
 1088 0346 2001     		.2byte	0x120
 1089 0348 AA020000 		.4byte	0x2aa
 1090 034c 02       		.byte	0x2
 1091 034d 23       		.byte	0x23
 1092 034e 20       		.uleb128 0x20
 1093 034f 00       		.byte	0
 1094 0350 0B       		.uleb128 0xb
 1095 0351 A5020000 		.4byte	.LASF50
 1096 0355 04       		.byte	0x4
 1097 0356 07       		.byte	0x7
 1098 0357 2A01     		.2byte	0x12a
 1099 0359 6D030000 		.4byte	0x36d
 1100 035d 0C       		.uleb128 0xc
 1101 035e 72313300 		.ascii	"r13\000"
 1102 0362 07       		.byte	0x7
 1103 0363 2B01     		.2byte	0x12b
 1104 0365 6D030000 		.4byte	0x36d
 1105 0369 02       		.byte	0x2
 1106 036a 23       		.byte	0x23
 1107 036b 00       		.uleb128 0
 1108 036c 00       		.byte	0
 1109 036d 09       		.uleb128 0x9
 1110 036e 04       		.byte	0x4
 1111 036f C2020000 		.4byte	0x2c2
 1112 0373 0D       		.uleb128 0xd
 1113 0374 86000000 		.4byte	0x86
 1114 0378 04       		.uleb128 0x4
 1115 0379 04       		.byte	0x4
 1116 037a 07       		.byte	0x7
 1117 037b 1A000000 		.4byte	.LASF51
 1118 037f 0D       		.uleb128 0xd
 1119 0380 09010000 		.4byte	0x109
 1120 0384 05       		.uleb128 0x5
 1121 0385 E9050000 		.4byte	.LASF52
 1122 0389 10       		.byte	0x10
 1123 038a 08       		.byte	0x8
 1124 038b 25       		.byte	0x25
 1125 038c BB030000 		.4byte	0x3bb
 1126 0390 06       		.uleb128 0x6
 1127 0391 3B060000 		.4byte	.LASF53
 1128 0395 08       		.byte	0x8
 1129 0396 26       		.byte	0x26
 1130 0397 7D020000 		.4byte	0x27d
 1131 039b 02       		.byte	0x2
 1132 039c 23       		.byte	0x23
ARM GAS  /tmp/ccXIrMZk.s 			page 21


 1133 039d 00       		.uleb128 0
 1134 039e 06       		.uleb128 0x6
 1135 039f 0E010000 		.4byte	.LASF54
 1136 03a3 08       		.byte	0x8
 1137 03a4 28       		.byte	0x28
 1138 03a5 77020000 		.4byte	0x277
 1139 03a9 02       		.byte	0x2
 1140 03aa 23       		.byte	0x23
 1141 03ab 08       		.uleb128 0x8
 1142 03ac 06       		.uleb128 0x6
 1143 03ad 460B0000 		.4byte	.LASF55
 1144 03b1 08       		.byte	0x8
 1145 03b2 2A       		.byte	0x2a
 1146 03b3 BB030000 		.4byte	0x3bb
 1147 03b7 02       		.byte	0x2
 1148 03b8 23       		.byte	0x23
 1149 03b9 0C       		.uleb128 0xc
 1150 03ba 00       		.byte	0
 1151 03bb 09       		.uleb128 0x9
 1152 03bc 04       		.byte	0x4
 1153 03bd 84030000 		.4byte	0x384
 1154 03c1 03       		.uleb128 0x3
 1155 03c2 E9050000 		.4byte	.LASF52
 1156 03c6 08       		.byte	0x8
 1157 03c7 2C       		.byte	0x2c
 1158 03c8 84030000 		.4byte	0x384
 1159 03cc 03       		.uleb128 0x3
 1160 03cd 3C0A0000 		.4byte	.LASF56
 1161 03d1 09       		.byte	0x9
 1162 03d2 25       		.byte	0x25
 1163 03d3 D7030000 		.4byte	0x3d7
 1164 03d7 05       		.uleb128 0x5
 1165 03d8 3C0A0000 		.4byte	.LASF56
 1166 03dc 10       		.byte	0x10
 1167 03dd 09       		.byte	0x9
 1168 03de 2A       		.byte	0x2a
 1169 03df 1C040000 		.4byte	0x41c
 1170 03e3 06       		.uleb128 0x6
 1171 03e4 5A050000 		.4byte	.LASF57
 1172 03e8 09       		.byte	0x9
 1173 03e9 2B       		.byte	0x2b
 1174 03ea 1C040000 		.4byte	0x41c
 1175 03ee 02       		.byte	0x2
 1176 03ef 23       		.byte	0x23
 1177 03f0 00       		.uleb128 0
 1178 03f1 06       		.uleb128 0x6
 1179 03f2 6D0B0000 		.4byte	.LASF58
 1180 03f6 09       		.byte	0x9
 1181 03f7 2E       		.byte	0x2e
 1182 03f8 77020000 		.4byte	0x277
 1183 03fc 02       		.byte	0x2
 1184 03fd 23       		.byte	0x23
 1185 03fe 04       		.uleb128 0x4
 1186 03ff 06       		.uleb128 0x6
 1187 0400 370B0000 		.4byte	.LASF59
 1188 0404 09       		.byte	0x9
 1189 0405 30       		.byte	0x30
ARM GAS  /tmp/ccXIrMZk.s 			page 22


 1190 0406 F3000000 		.4byte	0xf3
 1191 040a 02       		.byte	0x2
 1192 040b 23       		.byte	0x23
 1193 040c 08       		.uleb128 0x8
 1194 040d 06       		.uleb128 0x6
 1195 040e A9000000 		.4byte	.LASF60
 1196 0412 09       		.byte	0x9
 1197 0413 33       		.byte	0x33
 1198 0414 FE000000 		.4byte	0xfe
 1199 0418 02       		.byte	0x2
 1200 0419 23       		.byte	0x23
 1201 041a 0C       		.uleb128 0xc
 1202 041b 00       		.byte	0
 1203 041c 09       		.uleb128 0x9
 1204 041d 04       		.byte	0x4
 1205 041e CC030000 		.4byte	0x3cc
 1206 0422 05       		.uleb128 0x5
 1207 0423 FE040000 		.4byte	.LASF61
 1208 0427 04       		.byte	0x4
 1209 0428 09       		.byte	0x9
 1210 0429 3A       		.byte	0x3a
 1211 042a 3D040000 		.4byte	0x43d
 1212 042e 06       		.uleb128 0x6
 1213 042f C2040000 		.4byte	.LASF62
 1214 0433 09       		.byte	0x9
 1215 0434 3B       		.byte	0x3b
 1216 0435 1C040000 		.4byte	0x41c
 1217 0439 02       		.byte	0x2
 1218 043a 23       		.byte	0x23
 1219 043b 00       		.uleb128 0
 1220 043c 00       		.byte	0
 1221 043d 03       		.uleb128 0x3
 1222 043e FE040000 		.4byte	.LASF61
 1223 0442 09       		.byte	0x9
 1224 0443 3E       		.byte	0x3e
 1225 0444 22040000 		.4byte	0x422
 1226 0448 0E       		.uleb128 0xe
 1227 0449 04       		.byte	0x4
 1228 044a 06       		.byte	0x6
 1229 044b 8F       		.byte	0x8f
 1230 044c 7D040000 		.4byte	0x47d
 1231 0450 0F       		.uleb128 0xf
 1232 0451 8C0A0000 		.4byte	.LASF63
 1233 0455 06       		.byte	0x6
 1234 0456 96       		.byte	0x96
 1235 0457 E8000000 		.4byte	0xe8
 1236 045b 0F       		.uleb128 0xf
 1237 045c 16010000 		.4byte	.LASF64
 1238 0460 06       		.byte	0x6
 1239 0461 9D       		.byte	0x9d
 1240 0462 E8000000 		.4byte	0xe8
 1241 0466 0F       		.uleb128 0xf
 1242 0467 BB030000 		.4byte	.LASF65
 1243 046b 06       		.byte	0x6
 1244 046c A4       		.byte	0xa4
 1245 046d B5020000 		.4byte	0x2b5
 1246 0471 0F       		.uleb128 0xf
ARM GAS  /tmp/ccXIrMZk.s 			page 23


 1247 0472 36010000 		.4byte	.LASF66
 1248 0476 06       		.byte	0x6
 1249 0477 AB       		.byte	0xab
 1250 0478 F3000000 		.4byte	0xf3
 1251 047c 00       		.byte	0
 1252 047d 09       		.uleb128 0x9
 1253 047e 04       		.byte	0x4
 1254 047f 83040000 		.4byte	0x483
 1255 0483 10       		.uleb128 0x10
 1256 0484 88040000 		.4byte	0x488
 1257 0488 04       		.uleb128 0x4
 1258 0489 01       		.byte	0x1
 1259 048a 08       		.byte	0x8
 1260 048b 9A030000 		.4byte	.LASF67
 1261 048f 09       		.uleb128 0x9
 1262 0490 04       		.byte	0x4
 1263 0491 B7020000 		.4byte	0x2b7
 1264 0495 09       		.uleb128 0x9
 1265 0496 04       		.byte	0x4
 1266 0497 C1030000 		.4byte	0x3c1
 1267 049b 09       		.uleb128 0x9
 1268 049c 04       		.byte	0x4
 1269 049d A1040000 		.4byte	0x4a1
 1270 04a1 11       		.uleb128 0x11
 1271 04a2 01       		.byte	0x1
 1272 04a3 E8000000 		.4byte	0xe8
 1273 04a7 B1040000 		.4byte	0x4b1
 1274 04ab 12       		.uleb128 0x12
 1275 04ac B5020000 		.4byte	0x2b5
 1276 04b0 00       		.byte	0
 1277 04b1 03       		.uleb128 0x3
 1278 04b2 AE030000 		.4byte	.LASF68
 1279 04b6 0A       		.byte	0xa
 1280 04b7 30       		.byte	0x30
 1281 04b8 BC040000 		.4byte	0x4bc
 1282 04bc 05       		.uleb128 0x5
 1283 04bd AE030000 		.4byte	.LASF68
 1284 04c1 24       		.byte	0x24
 1285 04c2 0A       		.byte	0xa
 1286 04c3 3E       		.byte	0x3e
 1287 04c4 39050000 		.4byte	0x539
 1288 04c8 06       		.uleb128 0x6
 1289 04c9 0B090000 		.4byte	.LASF69
 1290 04cd 0A       		.byte	0xa
 1291 04ce 3F       		.byte	0x3f
 1292 04cf 7D020000 		.4byte	0x27d
 1293 04d3 02       		.byte	0x2
 1294 04d4 23       		.byte	0x23
 1295 04d5 00       		.uleb128 0
 1296 04d6 06       		.uleb128 0x6
 1297 04d7 CA040000 		.4byte	.LASF70
 1298 04db 0A       		.byte	0xa
 1299 04dc 40       		.byte	0x40
 1300 04dd 30000000 		.4byte	0x30
 1301 04e1 02       		.byte	0x2
 1302 04e2 23       		.byte	0x23
 1303 04e3 08       		.uleb128 0x8
ARM GAS  /tmp/ccXIrMZk.s 			page 24


 1304 04e4 06       		.uleb128 0x6
 1305 04e5 A8010000 		.4byte	.LASF71
 1306 04e9 0A       		.byte	0xa
 1307 04ea 41       		.byte	0x41
 1308 04eb 5C050000 		.4byte	0x55c
 1309 04ef 02       		.byte	0x2
 1310 04f0 23       		.byte	0x23
 1311 04f1 0C       		.uleb128 0xc
 1312 04f2 06       		.uleb128 0x6
 1313 04f3 30010000 		.4byte	.LASF72
 1314 04f7 0A       		.byte	0xa
 1315 04f8 42       		.byte	0x42
 1316 04f9 5C050000 		.4byte	0x55c
 1317 04fd 02       		.byte	0x2
 1318 04fe 23       		.byte	0x23
 1319 04ff 10       		.uleb128 0x10
 1320 0500 06       		.uleb128 0x6
 1321 0501 62050000 		.4byte	.LASF73
 1322 0505 0A       		.byte	0xa
 1323 0506 44       		.byte	0x44
 1324 0507 5C050000 		.4byte	0x55c
 1325 050b 02       		.byte	0x2
 1326 050c 23       		.byte	0x23
 1327 050d 14       		.uleb128 0x14
 1328 050e 06       		.uleb128 0x6
 1329 050f DF010000 		.4byte	.LASF74
 1330 0513 0A       		.byte	0xa
 1331 0514 45       		.byte	0x45
 1332 0515 5C050000 		.4byte	0x55c
 1333 0519 02       		.byte	0x2
 1334 051a 23       		.byte	0x23
 1335 051b 18       		.uleb128 0x18
 1336 051c 06       		.uleb128 0x6
 1337 051d B1010000 		.4byte	.LASF75
 1338 0521 0A       		.byte	0xa
 1339 0522 46       		.byte	0x46
 1340 0523 39050000 		.4byte	0x539
 1341 0527 02       		.byte	0x2
 1342 0528 23       		.byte	0x23
 1343 0529 1C       		.uleb128 0x1c
 1344 052a 06       		.uleb128 0x6
 1345 052b 2C030000 		.4byte	.LASF76
 1346 052f 0A       		.byte	0xa
 1347 0530 47       		.byte	0x47
 1348 0531 B5020000 		.4byte	0x2b5
 1349 0535 02       		.byte	0x2
 1350 0536 23       		.byte	0x23
 1351 0537 20       		.uleb128 0x20
 1352 0538 00       		.byte	0
 1353 0539 03       		.uleb128 0x3
 1354 053a A0060000 		.4byte	.LASF77
 1355 053e 0A       		.byte	0xa
 1356 053f 33       		.byte	0x33
 1357 0540 44050000 		.4byte	0x544
 1358 0544 09       		.uleb128 0x9
 1359 0545 04       		.byte	0x4
 1360 0546 4A050000 		.4byte	0x54a
ARM GAS  /tmp/ccXIrMZk.s 			page 25


 1361 054a 13       		.uleb128 0x13
 1362 054b 01       		.byte	0x1
 1363 054c 56050000 		.4byte	0x556
 1364 0550 12       		.uleb128 0x12
 1365 0551 56050000 		.4byte	0x556
 1366 0555 00       		.byte	0
 1367 0556 09       		.uleb128 0x9
 1368 0557 04       		.byte	0x4
 1369 0558 B1040000 		.4byte	0x4b1
 1370 055c 09       		.uleb128 0x9
 1371 055d 04       		.byte	0x4
 1372 055e 49000000 		.4byte	0x49
 1373 0562 03       		.uleb128 0x3
 1374 0563 D40A0000 		.4byte	.LASF78
 1375 0567 0A       		.byte	0xa
 1376 0568 7B       		.byte	0x7b
 1377 0569 B1040000 		.4byte	0x4b1
 1378 056d 03       		.uleb128 0x3
 1379 056e EE030000 		.4byte	.LASF79
 1380 0572 0A       		.byte	0xa
 1381 0573 EE       		.byte	0xee
 1382 0574 B1040000 		.4byte	0x4b1
 1383 0578 11       		.uleb128 0x11
 1384 0579 01       		.byte	0x1
 1385 057a 30000000 		.4byte	0x30
 1386 057e 92050000 		.4byte	0x592
 1387 0582 12       		.uleb128 0x12
 1388 0583 B5020000 		.4byte	0x2b5
 1389 0587 12       		.uleb128 0x12
 1390 0588 92050000 		.4byte	0x592
 1391 058c 12       		.uleb128 0x12
 1392 058d 30000000 		.4byte	0x30
 1393 0591 00       		.byte	0
 1394 0592 09       		.uleb128 0x9
 1395 0593 04       		.byte	0x4
 1396 0594 98050000 		.4byte	0x598
 1397 0598 10       		.uleb128 0x10
 1398 0599 49000000 		.4byte	0x49
 1399 059d 09       		.uleb128 0x9
 1400 059e 04       		.byte	0x4
 1401 059f 78050000 		.4byte	0x578
 1402 05a3 11       		.uleb128 0x11
 1403 05a4 01       		.byte	0x1
 1404 05a5 30000000 		.4byte	0x30
 1405 05a9 BD050000 		.4byte	0x5bd
 1406 05ad 12       		.uleb128 0x12
 1407 05ae B5020000 		.4byte	0x2b5
 1408 05b2 12       		.uleb128 0x12
 1409 05b3 5C050000 		.4byte	0x55c
 1410 05b7 12       		.uleb128 0x12
 1411 05b8 30000000 		.4byte	0x30
 1412 05bc 00       		.byte	0
 1413 05bd 09       		.uleb128 0x9
 1414 05be 04       		.byte	0x4
 1415 05bf A3050000 		.4byte	0x5a3
 1416 05c3 11       		.uleb128 0x11
 1417 05c4 01       		.byte	0x1
ARM GAS  /tmp/ccXIrMZk.s 			page 26


 1418 05c5 E8000000 		.4byte	0xe8
 1419 05c9 D8050000 		.4byte	0x5d8
 1420 05cd 12       		.uleb128 0x12
 1421 05ce B5020000 		.4byte	0x2b5
 1422 05d2 12       		.uleb128 0x12
 1423 05d3 49000000 		.4byte	0x49
 1424 05d7 00       		.byte	0
 1425 05d8 09       		.uleb128 0x9
 1426 05d9 04       		.byte	0x4
 1427 05da C3050000 		.4byte	0x5c3
 1428 05de 14       		.uleb128 0x14
 1429 05df A0070000 		.4byte	.LASF244
 1430 05e3 01       		.byte	0x1
 1431 05e4 0B       		.byte	0xb
 1432 05e5 8C       		.byte	0x8c
 1433 05e6 19080000 		.4byte	0x819
 1434 05ea 15       		.uleb128 0x15
 1435 05eb E0040000 		.4byte	.LASF80
 1436 05ef 72       		.sleb128 -14
 1437 05f0 15       		.uleb128 0x15
 1438 05f1 26050000 		.4byte	.LASF81
 1439 05f5 74       		.sleb128 -12
 1440 05f6 15       		.uleb128 0x15
 1441 05f7 94050000 		.4byte	.LASF82
 1442 05fb 75       		.sleb128 -11
 1443 05fc 15       		.uleb128 0x15
 1444 05fd 8A030000 		.4byte	.LASF83
 1445 0601 76       		.sleb128 -10
 1446 0602 15       		.uleb128 0x15
 1447 0603 53060000 		.4byte	.LASF84
 1448 0607 7B       		.sleb128 -5
 1449 0608 15       		.uleb128 0x15
 1450 0609 5E090000 		.4byte	.LASF85
 1451 060d 7C       		.sleb128 -4
 1452 060e 15       		.uleb128 0x15
 1453 060f EA0A0000 		.4byte	.LASF86
 1454 0613 7E       		.sleb128 -2
 1455 0614 15       		.uleb128 0x15
 1456 0615 5C020000 		.4byte	.LASF87
 1457 0619 7F       		.sleb128 -1
 1458 061a 15       		.uleb128 0x15
 1459 061b 0A050000 		.4byte	.LASF88
 1460 061f 00       		.sleb128 0
 1461 0620 15       		.uleb128 0x15
 1462 0621 F5080000 		.4byte	.LASF89
 1463 0625 01       		.sleb128 1
 1464 0626 15       		.uleb128 0x15
 1465 0627 3C050000 		.4byte	.LASF90
 1466 062b 02       		.sleb128 2
 1467 062c 15       		.uleb128 0x15
 1468 062d 2E0A0000 		.4byte	.LASF91
 1469 0631 03       		.sleb128 3
 1470 0632 15       		.uleb128 0x15
 1471 0633 94000000 		.4byte	.LASF92
 1472 0637 04       		.sleb128 4
 1473 0638 15       		.uleb128 0x15
 1474 0639 C9090000 		.4byte	.LASF93
ARM GAS  /tmp/ccXIrMZk.s 			page 27


 1475 063d 05       		.sleb128 5
 1476 063e 15       		.uleb128 0x15
 1477 063f 15090000 		.4byte	.LASF94
 1478 0643 06       		.sleb128 6
 1479 0644 15       		.uleb128 0x15
 1480 0645 80040000 		.4byte	.LASF95
 1481 0649 07       		.sleb128 7
 1482 064a 15       		.uleb128 0x15
 1483 064b C9080000 		.4byte	.LASF96
 1484 064f 08       		.sleb128 8
 1485 0650 15       		.uleb128 0x15
 1486 0651 DF0A0000 		.4byte	.LASF97
 1487 0655 09       		.sleb128 9
 1488 0656 15       		.uleb128 0x15
 1489 0657 930A0000 		.4byte	.LASF98
 1490 065b 0A       		.sleb128 10
 1491 065c 15       		.uleb128 0x15
 1492 065d 04080000 		.4byte	.LASF99
 1493 0661 0B       		.sleb128 11
 1494 0662 15       		.uleb128 0x15
 1495 0663 5C070000 		.4byte	.LASF100
 1496 0667 0C       		.sleb128 12
 1497 0668 15       		.uleb128 0x15
 1498 0669 DC020000 		.4byte	.LASF101
 1499 066d 0D       		.sleb128 13
 1500 066e 15       		.uleb128 0x15
 1501 066f D9090000 		.4byte	.LASF102
 1502 0673 0E       		.sleb128 14
 1503 0674 15       		.uleb128 0x15
 1504 0675 28090000 		.4byte	.LASF103
 1505 0679 0F       		.sleb128 15
 1506 067a 15       		.uleb128 0x15
 1507 067b 98040000 		.4byte	.LASF104
 1508 067f 10       		.sleb128 16
 1509 0680 15       		.uleb128 0x15
 1510 0681 A5070000 		.4byte	.LASF105
 1511 0685 11       		.sleb128 17
 1512 0686 15       		.uleb128 0x15
 1513 0687 E2080000 		.4byte	.LASF106
 1514 068b 12       		.sleb128 18
 1515 068c 15       		.uleb128 0x15
 1516 068d 8B040000 		.4byte	.LASF107
 1517 0691 13       		.sleb128 19
 1518 0692 15       		.uleb128 0x15
 1519 0693 C2030000 		.4byte	.LASF108
 1520 0697 14       		.sleb128 20
 1521 0698 15       		.uleb128 0x15
 1522 0699 640A0000 		.4byte	.LASF109
 1523 069d 15       		.sleb128 21
 1524 069e 15       		.uleb128 0x15
 1525 069f 4C050000 		.4byte	.LASF110
 1526 06a3 16       		.sleb128 22
 1527 06a4 15       		.uleb128 0x15
 1528 06a5 7F0A0000 		.4byte	.LASF111
 1529 06a9 17       		.sleb128 23
 1530 06aa 15       		.uleb128 0x15
 1531 06ab C1050000 		.4byte	.LASF112
ARM GAS  /tmp/ccXIrMZk.s 			page 28


 1532 06af 18       		.sleb128 24
 1533 06b0 15       		.uleb128 0x15
 1534 06b1 F2090000 		.4byte	.LASF113
 1535 06b5 19       		.sleb128 25
 1536 06b6 15       		.uleb128 0x15
 1537 06b7 22020000 		.4byte	.LASF114
 1538 06bb 1A       		.sleb128 26
 1539 06bc 15       		.uleb128 0x15
 1540 06bd 65040000 		.4byte	.LASF115
 1541 06c1 1B       		.sleb128 27
 1542 06c2 15       		.uleb128 0x15
 1543 06c3 C4000000 		.4byte	.LASF116
 1544 06c7 1C       		.sleb128 28
 1545 06c8 15       		.uleb128 0x15
 1546 06c9 A9080000 		.4byte	.LASF117
 1547 06cd 1D       		.sleb128 29
 1548 06ce 15       		.uleb128 0x15
 1549 06cf FA030000 		.4byte	.LASF118
 1550 06d3 1E       		.sleb128 30
 1551 06d4 15       		.uleb128 0x15
 1552 06d5 2D040000 		.4byte	.LASF119
 1553 06d9 1F       		.sleb128 31
 1554 06da 15       		.uleb128 0x15
 1555 06db 3D030000 		.4byte	.LASF120
 1556 06df 20       		.sleb128 32
 1557 06e0 15       		.uleb128 0x15
 1558 06e1 0D070000 		.4byte	.LASF121
 1559 06e5 21       		.sleb128 33
 1560 06e6 15       		.uleb128 0x15
 1561 06e7 87050000 		.4byte	.LASF122
 1562 06eb 22       		.sleb128 34
 1563 06ec 15       		.uleb128 0x15
 1564 06ed 49060000 		.4byte	.LASF123
 1565 06f1 23       		.sleb128 35
 1566 06f2 15       		.uleb128 0x15
 1567 06f3 25060000 		.4byte	.LASF124
 1568 06f7 24       		.sleb128 36
 1569 06f8 15       		.uleb128 0x15
 1570 06f9 B3080000 		.4byte	.LASF125
 1571 06fd 25       		.sleb128 37
 1572 06fe 15       		.uleb128 0x15
 1573 06ff 04040000 		.4byte	.LASF126
 1574 0703 26       		.sleb128 38
 1575 0704 15       		.uleb128 0x15
 1576 0705 69020000 		.4byte	.LASF127
 1577 0709 27       		.sleb128 39
 1578 070a 15       		.uleb128 0x15
 1579 070b 6C080000 		.4byte	.LASF128
 1580 070f 28       		.sleb128 40
 1581 0710 15       		.uleb128 0x15
 1582 0711 2A080000 		.4byte	.LASF129
 1583 0715 29       		.sleb128 41
 1584 0716 15       		.uleb128 0x15
 1585 0717 CC060000 		.4byte	.LASF130
 1586 071b 2A       		.sleb128 42
 1587 071c 15       		.uleb128 0x15
 1588 071d 3D010000 		.4byte	.LASF131
ARM GAS  /tmp/ccXIrMZk.s 			page 29


 1589 0721 2B       		.sleb128 43
 1590 0722 15       		.uleb128 0x15
 1591 0723 07000000 		.4byte	.LASF132
 1592 0727 2C       		.sleb128 44
 1593 0728 15       		.uleb128 0x15
 1594 0729 AA040000 		.4byte	.LASF133
 1595 072d 2D       		.sleb128 45
 1596 072e 15       		.uleb128 0x15
 1597 072f BD0A0000 		.4byte	.LASF134
 1598 0733 2E       		.sleb128 46
 1599 0734 15       		.uleb128 0x15
 1600 0735 140B0000 		.4byte	.LASF135
 1601 0739 2F       		.sleb128 47
 1602 073a 15       		.uleb128 0x15
 1603 073b F4040000 		.4byte	.LASF136
 1604 073f 30       		.sleb128 48
 1605 0740 15       		.uleb128 0x15
 1606 0741 CA0A0000 		.4byte	.LASF137
 1607 0745 31       		.sleb128 49
 1608 0746 15       		.uleb128 0x15
 1609 0747 76030000 		.4byte	.LASF138
 1610 074b 32       		.sleb128 50
 1611 074c 15       		.uleb128 0x15
 1612 074d 8A000000 		.4byte	.LASF139
 1613 0751 33       		.sleb128 51
 1614 0752 15       		.uleb128 0x15
 1615 0753 8B060000 		.4byte	.LASF140
 1616 0757 34       		.sleb128 52
 1617 0758 15       		.uleb128 0x15
 1618 0759 B6050000 		.4byte	.LASF141
 1619 075d 35       		.sleb128 53
 1620 075e 15       		.uleb128 0x15
 1621 075f F7060000 		.4byte	.LASF142
 1622 0763 36       		.sleb128 54
 1623 0764 15       		.uleb128 0x15
 1624 0765 FF050000 		.4byte	.LASF143
 1625 0769 37       		.sleb128 55
 1626 076a 15       		.uleb128 0x15
 1627 076b B4060000 		.4byte	.LASF144
 1628 076f 38       		.sleb128 56
 1629 0770 15       		.uleb128 0x15
 1630 0771 78000000 		.4byte	.LASF145
 1631 0775 39       		.sleb128 57
 1632 0776 15       		.uleb128 0x15
 1633 0777 550B0000 		.4byte	.LASF146
 1634 077b 3A       		.sleb128 58
 1635 077c 15       		.uleb128 0x15
 1636 077d 7A070000 		.4byte	.LASF147
 1637 0781 3B       		.sleb128 59
 1638 0782 15       		.uleb128 0x15
 1639 0783 10030000 		.4byte	.LASF148
 1640 0787 3C       		.sleb128 60
 1641 0788 15       		.uleb128 0x15
 1642 0789 8F090000 		.4byte	.LASF149
 1643 078d 3D       		.sleb128 61
 1644 078e 15       		.uleb128 0x15
 1645 078f 17060000 		.4byte	.LASF150
ARM GAS  /tmp/ccXIrMZk.s 			page 30


 1646 0793 3E       		.sleb128 62
 1647 0794 15       		.uleb128 0x15
 1648 0795 8C070000 		.4byte	.LASF151
 1649 0799 3F       		.sleb128 63
 1650 079a 15       		.uleb128 0x15
 1651 079b F4000000 		.4byte	.LASF152
 1652 079f C000     		.sleb128 64
 1653 07a1 15       		.uleb128 0x15
 1654 07a2 D4080000 		.4byte	.LASF153
 1655 07a6 C100     		.sleb128 65
 1656 07a8 15       		.uleb128 0x15
 1657 07a9 4A030000 		.4byte	.LASF154
 1658 07ad C200     		.sleb128 66
 1659 07af 15       		.uleb128 0x15
 1660 07b0 D4040000 		.4byte	.LASF155
 1661 07b4 C300     		.sleb128 67
 1662 07b6 15       		.uleb128 0x15
 1663 07b7 FD010000 		.4byte	.LASF156
 1664 07bb C400     		.sleb128 68
 1665 07bd 15       		.uleb128 0x15
 1666 07be 44090000 		.4byte	.LASF157
 1667 07c2 C500     		.sleb128 69
 1668 07c4 15       		.uleb128 0x15
 1669 07c5 F2070000 		.4byte	.LASF158
 1670 07c9 C600     		.sleb128 70
 1671 07cb 15       		.uleb128 0x15
 1672 07cc 02010000 		.4byte	.LASF159
 1673 07d0 C700     		.sleb128 71
 1674 07d2 15       		.uleb128 0x15
 1675 07d3 79090000 		.4byte	.LASF160
 1676 07d7 C800     		.sleb128 72
 1677 07d9 15       		.uleb128 0x15
 1678 07da 41080000 		.4byte	.LASF161
 1679 07de C900     		.sleb128 73
 1680 07e0 15       		.uleb128 0x15
 1681 07e1 1A0A0000 		.4byte	.LASF162
 1682 07e5 CA00     		.sleb128 74
 1683 07e7 15       		.uleb128 0x15
 1684 07e8 F60A0000 		.4byte	.LASF163
 1685 07ec CB00     		.sleb128 75
 1686 07ee 15       		.uleb128 0x15
 1687 07ef 1F010000 		.4byte	.LASF164
 1688 07f3 CC00     		.sleb128 76
 1689 07f5 15       		.uleb128 0x15
 1690 07f6 2F060000 		.4byte	.LASF165
 1691 07fa CD00     		.sleb128 77
 1692 07fc 15       		.uleb128 0x15
 1693 07fd 9F000000 		.4byte	.LASF166
 1694 0801 CE00     		.sleb128 78
 1695 0803 15       		.uleb128 0x15
 1696 0804 62080000 		.4byte	.LASF167
 1697 0808 CF00     		.sleb128 79
 1698 080a 15       		.uleb128 0x15
 1699 080b 72040000 		.4byte	.LASF168
 1700 080f D000     		.sleb128 80
 1701 0811 15       		.uleb128 0x15
 1702 0812 82060000 		.4byte	.LASF169
ARM GAS  /tmp/ccXIrMZk.s 			page 31


 1703 0816 D100     		.sleb128 81
 1704 0818 00       		.byte	0
 1705 0819 16       		.uleb128 0x16
 1706 081a 86000000 		.4byte	0x86
 1707 081e 29080000 		.4byte	0x829
 1708 0822 17       		.uleb128 0x17
 1709 0823 78030000 		.4byte	0x378
 1710 0827 01       		.byte	0x1
 1711 0828 00       		.byte	0
 1712 0829 0D       		.uleb128 0xd
 1713 082a 62000000 		.4byte	0x62
 1714 082e 0D       		.uleb128 0xd
 1715 082f 74000000 		.4byte	0x74
 1716 0833 18       		.uleb128 0x18
 1717 0834 88       		.byte	0x88
 1718 0835 0B       		.byte	0xb
 1719 0836 DB02     		.2byte	0x2db
 1720 0838 000A0000 		.4byte	0xa00
 1721 083c 0C       		.uleb128 0xc
 1722 083d 435200   		.ascii	"CR\000"
 1723 0840 0B       		.byte	0xb
 1724 0841 DD02     		.2byte	0x2dd
 1725 0843 73030000 		.4byte	0x373
 1726 0847 02       		.byte	0x2
 1727 0848 23       		.byte	0x23
 1728 0849 00       		.uleb128 0
 1729 084a 19       		.uleb128 0x19
 1730 084b AE050000 		.4byte	.LASF170
 1731 084f 0B       		.byte	0xb
 1732 0850 DE02     		.2byte	0x2de
 1733 0852 73030000 		.4byte	0x373
 1734 0856 02       		.byte	0x2
 1735 0857 23       		.byte	0x23
 1736 0858 04       		.uleb128 0x4
 1737 0859 19       		.uleb128 0x19
 1738 085a 60040000 		.4byte	.LASF171
 1739 085e 0B       		.byte	0xb
 1740 085f DF02     		.2byte	0x2df
 1741 0861 73030000 		.4byte	0x373
 1742 0865 02       		.byte	0x2
 1743 0866 23       		.byte	0x23
 1744 0867 08       		.uleb128 0x8
 1745 0868 0C       		.uleb128 0xc
 1746 0869 43495200 		.ascii	"CIR\000"
 1747 086d 0B       		.byte	0xb
 1748 086e E002     		.2byte	0x2e0
 1749 0870 73030000 		.4byte	0x373
 1750 0874 02       		.byte	0x2
 1751 0875 23       		.byte	0x23
 1752 0876 0C       		.uleb128 0xc
 1753 0877 19       		.uleb128 0x19
 1754 0878 260B0000 		.4byte	.LASF172
 1755 087c 0B       		.byte	0xb
 1756 087d E102     		.2byte	0x2e1
 1757 087f 73030000 		.4byte	0x373
 1758 0883 02       		.byte	0x2
 1759 0884 23       		.byte	0x23
ARM GAS  /tmp/ccXIrMZk.s 			page 32


 1760 0885 10       		.uleb128 0x10
 1761 0886 19       		.uleb128 0x19
 1762 0887 86090000 		.4byte	.LASF173
 1763 088b 0B       		.byte	0xb
 1764 088c E202     		.2byte	0x2e2
 1765 088e 73030000 		.4byte	0x373
 1766 0892 02       		.byte	0x2
 1767 0893 23       		.byte	0x23
 1768 0894 14       		.uleb128 0x14
 1769 0895 19       		.uleb128 0x19
 1770 0896 CC070000 		.4byte	.LASF174
 1771 089a 0B       		.byte	0xb
 1772 089b E302     		.2byte	0x2e3
 1773 089d 73030000 		.4byte	0x373
 1774 08a1 02       		.byte	0x2
 1775 08a2 23       		.byte	0x23
 1776 08a3 18       		.uleb128 0x18
 1777 08a4 19       		.uleb128 0x19
 1778 08a5 EE020000 		.4byte	.LASF175
 1779 08a9 0B       		.byte	0xb
 1780 08aa E402     		.2byte	0x2e4
 1781 08ac 86000000 		.4byte	0x86
 1782 08b0 02       		.byte	0x2
 1783 08b1 23       		.byte	0x23
 1784 08b2 1C       		.uleb128 0x1c
 1785 08b3 19       		.uleb128 0x19
 1786 08b4 16080000 		.4byte	.LASF176
 1787 08b8 0B       		.byte	0xb
 1788 08b9 E502     		.2byte	0x2e5
 1789 08bb 73030000 		.4byte	0x373
 1790 08bf 02       		.byte	0x2
 1791 08c0 23       		.byte	0x23
 1792 08c1 20       		.uleb128 0x20
 1793 08c2 19       		.uleb128 0x19
 1794 08c3 5F060000 		.4byte	.LASF177
 1795 08c7 0B       		.byte	0xb
 1796 08c8 E602     		.2byte	0x2e6
 1797 08ca 73030000 		.4byte	0x373
 1798 08ce 02       		.byte	0x2
 1799 08cf 23       		.byte	0x23
 1800 08d0 24       		.uleb128 0x24
 1801 08d1 19       		.uleb128 0x19
 1802 08d2 F8020000 		.4byte	.LASF178
 1803 08d6 0B       		.byte	0xb
 1804 08d7 E702     		.2byte	0x2e7
 1805 08d9 19080000 		.4byte	0x819
 1806 08dd 02       		.byte	0x2
 1807 08de 23       		.byte	0x23
 1808 08df 28       		.uleb128 0x28
 1809 08e0 19       		.uleb128 0x19
 1810 08e1 56090000 		.4byte	.LASF179
 1811 08e5 0B       		.byte	0xb
 1812 08e6 E802     		.2byte	0x2e8
 1813 08e8 73030000 		.4byte	0x373
 1814 08ec 02       		.byte	0x2
 1815 08ed 23       		.byte	0x23
 1816 08ee 30       		.uleb128 0x30
ARM GAS  /tmp/ccXIrMZk.s 			page 33


 1817 08ef 19       		.uleb128 0x19
 1818 08f0 A6030000 		.4byte	.LASF180
 1819 08f4 0B       		.byte	0xb
 1820 08f5 E902     		.2byte	0x2e9
 1821 08f7 73030000 		.4byte	0x373
 1822 08fb 02       		.byte	0x2
 1823 08fc 23       		.byte	0x23
 1824 08fd 34       		.uleb128 0x34
 1825 08fe 19       		.uleb128 0x19
 1826 08ff 4D0B0000 		.4byte	.LASF181
 1827 0903 0B       		.byte	0xb
 1828 0904 EA02     		.2byte	0x2ea
 1829 0906 73030000 		.4byte	0x373
 1830 090a 02       		.byte	0x2
 1831 090b 23       		.byte	0x23
 1832 090c 38       		.uleb128 0x38
 1833 090d 19       		.uleb128 0x19
 1834 090e 62030000 		.4byte	.LASF182
 1835 0912 0B       		.byte	0xb
 1836 0913 EB02     		.2byte	0x2eb
 1837 0915 86000000 		.4byte	0x86
 1838 0919 02       		.byte	0x2
 1839 091a 23       		.byte	0x23
 1840 091b 3C       		.uleb128 0x3c
 1841 091c 19       		.uleb128 0x19
 1842 091d 39080000 		.4byte	.LASF183
 1843 0921 0B       		.byte	0xb
 1844 0922 EC02     		.2byte	0x2ec
 1845 0924 73030000 		.4byte	0x373
 1846 0928 02       		.byte	0x2
 1847 0929 23       		.byte	0x23
 1848 092a 40       		.uleb128 0x40
 1849 092b 19       		.uleb128 0x19
 1850 092c 4A020000 		.4byte	.LASF184
 1851 0930 0B       		.byte	0xb
 1852 0931 ED02     		.2byte	0x2ed
 1853 0933 73030000 		.4byte	0x373
 1854 0937 02       		.byte	0x2
 1855 0938 23       		.byte	0x23
 1856 0939 44       		.uleb128 0x44
 1857 093a 19       		.uleb128 0x19
 1858 093b 6C030000 		.4byte	.LASF185
 1859 093f 0B       		.byte	0xb
 1860 0940 EE02     		.2byte	0x2ee
 1861 0942 19080000 		.4byte	0x819
 1862 0946 02       		.byte	0x2
 1863 0947 23       		.byte	0x23
 1864 0948 48       		.uleb128 0x48
 1865 0949 19       		.uleb128 0x19
 1866 094a 52020000 		.4byte	.LASF186
 1867 094e 0B       		.byte	0xb
 1868 094f EF02     		.2byte	0x2ef
 1869 0951 73030000 		.4byte	0x373
 1870 0955 02       		.byte	0x2
 1871 0956 23       		.byte	0x23
 1872 0957 50       		.uleb128 0x50
 1873 0958 19       		.uleb128 0x19
ARM GAS  /tmp/ccXIrMZk.s 			page 34


 1874 0959 8B010000 		.4byte	.LASF187
 1875 095d 0B       		.byte	0xb
 1876 095e F002     		.2byte	0x2f0
 1877 0960 73030000 		.4byte	0x373
 1878 0964 02       		.byte	0x2
 1879 0965 23       		.byte	0x23
 1880 0966 54       		.uleb128 0x54
 1881 0967 19       		.uleb128 0x19
 1882 0968 EB080000 		.4byte	.LASF188
 1883 096c 0B       		.byte	0xb
 1884 096d F102     		.2byte	0x2f1
 1885 096f 73030000 		.4byte	0x373
 1886 0973 02       		.byte	0x2
 1887 0974 23       		.byte	0x23
 1888 0975 58       		.uleb128 0x58
 1889 0976 19       		.uleb128 0x19
 1890 0977 22030000 		.4byte	.LASF189
 1891 097b 0B       		.byte	0xb
 1892 097c F202     		.2byte	0x2f2
 1893 097e 86000000 		.4byte	0x86
 1894 0982 02       		.byte	0x2
 1895 0983 23       		.byte	0x23
 1896 0984 5C       		.uleb128 0x5c
 1897 0985 19       		.uleb128 0x19
 1898 0986 52070000 		.4byte	.LASF190
 1899 098a 0B       		.byte	0xb
 1900 098b F302     		.2byte	0x2f3
 1901 098d 73030000 		.4byte	0x373
 1902 0991 02       		.byte	0x2
 1903 0992 23       		.byte	0x23
 1904 0993 60       		.uleb128 0x60
 1905 0994 19       		.uleb128 0x19
 1906 0995 96060000 		.4byte	.LASF191
 1907 0999 0B       		.byte	0xb
 1908 099a F402     		.2byte	0x2f4
 1909 099c 73030000 		.4byte	0x373
 1910 09a0 02       		.byte	0x2
 1911 09a1 23       		.byte	0x23
 1912 09a2 64       		.uleb128 0x64
 1913 09a3 19       		.uleb128 0x19
 1914 09a4 80030000 		.4byte	.LASF192
 1915 09a8 0B       		.byte	0xb
 1916 09a9 F502     		.2byte	0x2f5
 1917 09ab 19080000 		.4byte	0x819
 1918 09af 02       		.byte	0x2
 1919 09b0 23       		.byte	0x23
 1920 09b1 68       		.uleb128 0x68
 1921 09b2 19       		.uleb128 0x19
 1922 09b3 28040000 		.4byte	.LASF193
 1923 09b7 0B       		.byte	0xb
 1924 09b8 F602     		.2byte	0x2f6
 1925 09ba 73030000 		.4byte	0x373
 1926 09be 02       		.byte	0x2
 1927 09bf 23       		.byte	0x23
 1928 09c0 70       		.uleb128 0x70
 1929 09c1 0C       		.uleb128 0xc
 1930 09c2 43535200 		.ascii	"CSR\000"
ARM GAS  /tmp/ccXIrMZk.s 			page 35


 1931 09c6 0B       		.byte	0xb
 1932 09c7 F702     		.2byte	0x2f7
 1933 09c9 73030000 		.4byte	0x373
 1934 09cd 02       		.byte	0x2
 1935 09ce 23       		.byte	0x23
 1936 09cf 74       		.uleb128 0x74
 1937 09d0 19       		.uleb128 0x19
 1938 09d1 33030000 		.4byte	.LASF194
 1939 09d5 0B       		.byte	0xb
 1940 09d6 F802     		.2byte	0x2f8
 1941 09d8 19080000 		.4byte	0x819
 1942 09dc 02       		.byte	0x2
 1943 09dd 23       		.byte	0x23
 1944 09de 78       		.uleb128 0x78
 1945 09df 19       		.uleb128 0x19
 1946 09e0 43060000 		.4byte	.LASF195
 1947 09e4 0B       		.byte	0xb
 1948 09e5 F902     		.2byte	0x2f9
 1949 09e7 73030000 		.4byte	0x373
 1950 09eb 03       		.byte	0x3
 1951 09ec 23       		.byte	0x23
 1952 09ed 8001     		.uleb128 0x80
 1953 09ef 19       		.uleb128 0x19
 1954 09f0 2D000000 		.4byte	.LASF196
 1955 09f4 0B       		.byte	0xb
 1956 09f5 FA02     		.2byte	0x2fa
 1957 09f7 73030000 		.4byte	0x373
 1958 09fb 03       		.byte	0x3
 1959 09fc 23       		.byte	0x23
 1960 09fd 8401     		.uleb128 0x84
 1961 09ff 00       		.byte	0
 1962 0a00 1A       		.uleb128 0x1a
 1963 0a01 A0090000 		.4byte	.LASF197
 1964 0a05 0B       		.byte	0xb
 1965 0a06 FB02     		.2byte	0x2fb
 1966 0a08 33080000 		.4byte	0x833
 1967 0a0c 18       		.uleb128 0x18
 1968 0a0d 1C       		.byte	0x1c
 1969 0a0e 0B       		.byte	0xb
 1970 0a0f 9303     		.2byte	0x393
 1971 0a11 E60A0000 		.4byte	0xae6
 1972 0a15 0C       		.uleb128 0xc
 1973 0a16 535200   		.ascii	"SR\000"
 1974 0a19 0B       		.byte	0xb
 1975 0a1a 9503     		.2byte	0x395
 1976 0a1c 29080000 		.4byte	0x829
 1977 0a20 02       		.byte	0x2
 1978 0a21 23       		.byte	0x23
 1979 0a22 00       		.uleb128 0
 1980 0a23 19       		.uleb128 0x19
 1981 0a24 EE020000 		.4byte	.LASF175
 1982 0a28 0B       		.byte	0xb
 1983 0a29 9603     		.2byte	0x396
 1984 0a2b 62000000 		.4byte	0x62
 1985 0a2f 02       		.byte	0x2
 1986 0a30 23       		.byte	0x23
 1987 0a31 02       		.uleb128 0x2
ARM GAS  /tmp/ccXIrMZk.s 			page 36


 1988 0a32 0C       		.uleb128 0xc
 1989 0a33 445200   		.ascii	"DR\000"
 1990 0a36 0B       		.byte	0xb
 1991 0a37 9703     		.2byte	0x397
 1992 0a39 29080000 		.4byte	0x829
 1993 0a3d 02       		.byte	0x2
 1994 0a3e 23       		.byte	0x23
 1995 0a3f 04       		.uleb128 0x4
 1996 0a40 19       		.uleb128 0x19
 1997 0a41 F8020000 		.4byte	.LASF178
 1998 0a45 0B       		.byte	0xb
 1999 0a46 9803     		.2byte	0x398
 2000 0a48 62000000 		.4byte	0x62
 2001 0a4c 02       		.byte	0x2
 2002 0a4d 23       		.byte	0x23
 2003 0a4e 06       		.uleb128 0x6
 2004 0a4f 0C       		.uleb128 0xc
 2005 0a50 42525200 		.ascii	"BRR\000"
 2006 0a54 0B       		.byte	0xb
 2007 0a55 9903     		.2byte	0x399
 2008 0a57 29080000 		.4byte	0x829
 2009 0a5b 02       		.byte	0x2
 2010 0a5c 23       		.byte	0x23
 2011 0a5d 08       		.uleb128 0x8
 2012 0a5e 19       		.uleb128 0x19
 2013 0a5f 62030000 		.4byte	.LASF182
 2014 0a63 0B       		.byte	0xb
 2015 0a64 9A03     		.2byte	0x39a
 2016 0a66 62000000 		.4byte	0x62
 2017 0a6a 02       		.byte	0x2
 2018 0a6b 23       		.byte	0x23
 2019 0a6c 0A       		.uleb128 0xa
 2020 0a6d 0C       		.uleb128 0xc
 2021 0a6e 43523100 		.ascii	"CR1\000"
 2022 0a72 0B       		.byte	0xb
 2023 0a73 9B03     		.2byte	0x39b
 2024 0a75 29080000 		.4byte	0x829
 2025 0a79 02       		.byte	0x2
 2026 0a7a 23       		.byte	0x23
 2027 0a7b 0C       		.uleb128 0xc
 2028 0a7c 19       		.uleb128 0x19
 2029 0a7d 6C030000 		.4byte	.LASF185
 2030 0a81 0B       		.byte	0xb
 2031 0a82 9C03     		.2byte	0x39c
 2032 0a84 62000000 		.4byte	0x62
 2033 0a88 02       		.byte	0x2
 2034 0a89 23       		.byte	0x23
 2035 0a8a 0E       		.uleb128 0xe
 2036 0a8b 0C       		.uleb128 0xc
 2037 0a8c 43523200 		.ascii	"CR2\000"
 2038 0a90 0B       		.byte	0xb
 2039 0a91 9D03     		.2byte	0x39d
 2040 0a93 29080000 		.4byte	0x829
 2041 0a97 02       		.byte	0x2
 2042 0a98 23       		.byte	0x23
 2043 0a99 10       		.uleb128 0x10
 2044 0a9a 19       		.uleb128 0x19
ARM GAS  /tmp/ccXIrMZk.s 			page 37


 2045 0a9b 22030000 		.4byte	.LASF189
 2046 0a9f 0B       		.byte	0xb
 2047 0aa0 9E03     		.2byte	0x39e
 2048 0aa2 62000000 		.4byte	0x62
 2049 0aa6 02       		.byte	0x2
 2050 0aa7 23       		.byte	0x23
 2051 0aa8 12       		.uleb128 0x12
 2052 0aa9 0C       		.uleb128 0xc
 2053 0aaa 43523300 		.ascii	"CR3\000"
 2054 0aae 0B       		.byte	0xb
 2055 0aaf 9F03     		.2byte	0x39f
 2056 0ab1 29080000 		.4byte	0x829
 2057 0ab5 02       		.byte	0x2
 2058 0ab6 23       		.byte	0x23
 2059 0ab7 14       		.uleb128 0x14
 2060 0ab8 19       		.uleb128 0x19
 2061 0ab9 80030000 		.4byte	.LASF192
 2062 0abd 0B       		.byte	0xb
 2063 0abe A003     		.2byte	0x3a0
 2064 0ac0 62000000 		.4byte	0x62
 2065 0ac4 02       		.byte	0x2
 2066 0ac5 23       		.byte	0x23
 2067 0ac6 16       		.uleb128 0x16
 2068 0ac7 19       		.uleb128 0x19
 2069 0ac8 6D000000 		.4byte	.LASF198
 2070 0acc 0B       		.byte	0xb
 2071 0acd A103     		.2byte	0x3a1
 2072 0acf 29080000 		.4byte	0x829
 2073 0ad3 02       		.byte	0x2
 2074 0ad4 23       		.byte	0x23
 2075 0ad5 18       		.uleb128 0x18
 2076 0ad6 19       		.uleb128 0x19
 2077 0ad7 33030000 		.4byte	.LASF194
 2078 0adb 0B       		.byte	0xb
 2079 0adc A203     		.2byte	0x3a2
 2080 0ade 62000000 		.4byte	0x62
 2081 0ae2 02       		.byte	0x2
 2082 0ae3 23       		.byte	0x23
 2083 0ae4 1A       		.uleb128 0x1a
 2084 0ae5 00       		.byte	0
 2085 0ae6 1A       		.uleb128 0x1a
 2086 0ae7 E0030000 		.4byte	.LASF199
 2087 0aeb 0B       		.byte	0xb
 2088 0aec A303     		.2byte	0x3a3
 2089 0aee 0C0A0000 		.4byte	0xa0c
 2090 0af2 11       		.uleb128 0x11
 2091 0af3 01       		.byte	0x1
 2092 0af4 E8000000 		.4byte	0xe8
 2093 0af8 0C0B0000 		.4byte	0xb0c
 2094 0afc 12       		.uleb128 0x12
 2095 0afd B5020000 		.4byte	0x2b5
 2096 0b01 12       		.uleb128 0x12
 2097 0b02 49000000 		.4byte	0x49
 2098 0b06 12       		.uleb128 0x12
 2099 0b07 09010000 		.4byte	0x109
 2100 0b0b 00       		.byte	0
 2101 0b0c 09       		.uleb128 0x9
ARM GAS  /tmp/ccXIrMZk.s 			page 38


 2102 0b0d 04       		.byte	0x4
 2103 0b0e F20A0000 		.4byte	0xaf2
 2104 0b12 11       		.uleb128 0x11
 2105 0b13 01       		.byte	0x1
 2106 0b14 E8000000 		.4byte	0xe8
 2107 0b18 270B0000 		.4byte	0xb27
 2108 0b1c 12       		.uleb128 0x12
 2109 0b1d B5020000 		.4byte	0x2b5
 2110 0b21 12       		.uleb128 0x12
 2111 0b22 09010000 		.4byte	0x109
 2112 0b26 00       		.byte	0
 2113 0b27 09       		.uleb128 0x9
 2114 0b28 04       		.byte	0x4
 2115 0b29 120B0000 		.4byte	0xb12
 2116 0b2d 11       		.uleb128 0x11
 2117 0b2e 01       		.byte	0x1
 2118 0b2f 30000000 		.4byte	0x30
 2119 0b33 4C0B0000 		.4byte	0xb4c
 2120 0b37 12       		.uleb128 0x12
 2121 0b38 B5020000 		.4byte	0x2b5
 2122 0b3c 12       		.uleb128 0x12
 2123 0b3d 92050000 		.4byte	0x592
 2124 0b41 12       		.uleb128 0x12
 2125 0b42 30000000 		.4byte	0x30
 2126 0b46 12       		.uleb128 0x12
 2127 0b47 09010000 		.4byte	0x109
 2128 0b4b 00       		.byte	0
 2129 0b4c 09       		.uleb128 0x9
 2130 0b4d 04       		.byte	0x4
 2131 0b4e 2D0B0000 		.4byte	0xb2d
 2132 0b52 11       		.uleb128 0x11
 2133 0b53 01       		.byte	0x1
 2134 0b54 30000000 		.4byte	0x30
 2135 0b58 710B0000 		.4byte	0xb71
 2136 0b5c 12       		.uleb128 0x12
 2137 0b5d B5020000 		.4byte	0x2b5
 2138 0b61 12       		.uleb128 0x12
 2139 0b62 5C050000 		.4byte	0x55c
 2140 0b66 12       		.uleb128 0x12
 2141 0b67 30000000 		.4byte	0x30
 2142 0b6b 12       		.uleb128 0x12
 2143 0b6c 09010000 		.4byte	0x109
 2144 0b70 00       		.byte	0
 2145 0b71 09       		.uleb128 0x9
 2146 0b72 04       		.byte	0x4
 2147 0b73 520B0000 		.4byte	0xb52
 2148 0b77 1B       		.uleb128 0x1b
 2149 0b78 01       		.byte	0x1
 2150 0b79 0C       		.byte	0xc
 2151 0b7a 5D       		.byte	0x5d
 2152 0b7b 920B0000 		.4byte	0xb92
 2153 0b7f 15       		.uleb128 0x15
 2154 0b80 58030000 		.4byte	.LASF200
 2155 0b84 00       		.sleb128 0
 2156 0b85 15       		.uleb128 0x15
 2157 0b86 2F0B0000 		.4byte	.LASF201
 2158 0b8a 01       		.sleb128 1
ARM GAS  /tmp/ccXIrMZk.s 			page 39


 2159 0b8b 15       		.uleb128 0x15
 2160 0b8c 70090000 		.4byte	.LASF202
 2161 0b90 02       		.sleb128 2
 2162 0b91 00       		.byte	0
 2163 0b92 03       		.uleb128 0x3
 2164 0b93 3A090000 		.4byte	.LASF203
 2165 0b97 0C       		.byte	0xc
 2166 0b98 61       		.byte	0x61
 2167 0b99 770B0000 		.4byte	0xb77
 2168 0b9d 03       		.uleb128 0x3
 2169 0b9e FE080000 		.4byte	.LASF204
 2170 0ba2 0C       		.byte	0xc
 2171 0ba3 66       		.byte	0x66
 2172 0ba4 A80B0000 		.4byte	0xba8
 2173 0ba8 05       		.uleb128 0x5
 2174 0ba9 FE080000 		.4byte	.LASF204
 2175 0bad 78       		.byte	0x78
 2176 0bae 0C       		.byte	0xc
 2177 0baf 80       		.byte	0x80
 2178 0bb0 230C0000 		.4byte	0xc23
 2179 0bb4 07       		.uleb128 0x7
 2180 0bb5 766D7400 		.ascii	"vmt\000"
 2181 0bb9 0C       		.byte	0xc
 2182 0bba 82       		.byte	0x82
 2183 0bbb EC0C0000 		.4byte	0xcec
 2184 0bbf 02       		.byte	0x2
 2185 0bc0 23       		.byte	0x23
 2186 0bc1 00       		.uleb128 0
 2187 0bc2 06       		.uleb128 0x6
 2188 0bc3 C6060000 		.4byte	.LASF205
 2189 0bc7 0C       		.byte	0xc
 2190 0bc8 83       		.byte	0x83
 2191 0bc9 3D040000 		.4byte	0x43d
 2192 0bcd 02       		.byte	0x2
 2193 0bce 23       		.byte	0x23
 2194 0bcf 04       		.uleb128 0x4
 2195 0bd0 06       		.uleb128 0x6
 2196 0bd1 B9000000 		.4byte	.LASF206
 2197 0bd5 0C       		.byte	0xc
 2198 0bd6 83       		.byte	0x83
 2199 0bd7 920B0000 		.4byte	0xb92
 2200 0bdb 02       		.byte	0x2
 2201 0bdc 23       		.byte	0x23
 2202 0bdd 08       		.uleb128 0x8
 2203 0bde 06       		.uleb128 0x6
 2204 0bdf D2090000 		.4byte	.LASF207
 2205 0be3 0C       		.byte	0xc
 2206 0be4 83       		.byte	0x83
 2207 0be5 62050000 		.4byte	0x562
 2208 0be9 02       		.byte	0x2
 2209 0bea 23       		.byte	0x23
 2210 0beb 0C       		.uleb128 0xc
 2211 0bec 06       		.uleb128 0x6
 2212 0bed 3A020000 		.4byte	.LASF208
 2213 0bf1 0C       		.byte	0xc
 2214 0bf2 83       		.byte	0x83
 2215 0bf3 6D050000 		.4byte	0x56d
ARM GAS  /tmp/ccXIrMZk.s 			page 40


 2216 0bf7 02       		.byte	0x2
 2217 0bf8 23       		.byte	0x23
 2218 0bf9 30       		.uleb128 0x30
 2219 0bfa 07       		.uleb128 0x7
 2220 0bfb 696200   		.ascii	"ib\000"
 2221 0bfe 0C       		.byte	0xc
 2222 0bff 83       		.byte	0x83
 2223 0c00 F70C0000 		.4byte	0xcf7
 2224 0c04 02       		.byte	0x2
 2225 0c05 23       		.byte	0x23
 2226 0c06 54       		.uleb128 0x54
 2227 0c07 07       		.uleb128 0x7
 2228 0c08 6F6200   		.ascii	"ob\000"
 2229 0c0b 0C       		.byte	0xc
 2230 0c0c 83       		.byte	0x83
 2231 0c0d F70C0000 		.4byte	0xcf7
 2232 0c11 02       		.byte	0x2
 2233 0c12 23       		.byte	0x23
 2234 0c13 64       		.uleb128 0x64
 2235 0c14 06       		.uleb128 0x6
 2236 0c15 75020000 		.4byte	.LASF209
 2237 0c19 0C       		.byte	0xc
 2238 0c1a 83       		.byte	0x83
 2239 0c1b 070D0000 		.4byte	0xd07
 2240 0c1f 02       		.byte	0x2
 2241 0c20 23       		.byte	0x23
 2242 0c21 74       		.uleb128 0x74
 2243 0c22 00       		.byte	0
 2244 0c23 08       		.uleb128 0x8
 2245 0c24 0C       		.byte	0xc
 2246 0c25 0D       		.byte	0xd
 2247 0c26 DB       		.byte	0xdb
 2248 0c27 640C0000 		.4byte	0xc64
 2249 0c2b 06       		.uleb128 0x6
 2250 0c2c 2A070000 		.4byte	.LASF210
 2251 0c30 0D       		.byte	0xd
 2252 0c31 DF       		.byte	0xdf
 2253 0c32 86000000 		.4byte	0x86
 2254 0c36 02       		.byte	0x2
 2255 0c37 23       		.byte	0x23
 2256 0c38 00       		.uleb128 0
 2257 0c39 06       		.uleb128 0x6
 2258 0c3a D4050000 		.4byte	.LASF211
 2259 0c3e 0D       		.byte	0xd
 2260 0c3f E3       		.byte	0xe3
 2261 0c40 62000000 		.4byte	0x62
 2262 0c44 02       		.byte	0x2
 2263 0c45 23       		.byte	0x23
 2264 0c46 04       		.uleb128 0x4
 2265 0c47 06       		.uleb128 0x6
 2266 0c48 DB050000 		.4byte	.LASF212
 2267 0c4c 0D       		.byte	0xd
 2268 0c4d E7       		.byte	0xe7
 2269 0c4e 62000000 		.4byte	0x62
 2270 0c52 02       		.byte	0x2
 2271 0c53 23       		.byte	0x23
 2272 0c54 06       		.uleb128 0x6
ARM GAS  /tmp/ccXIrMZk.s 			page 41


 2273 0c55 06       		.uleb128 0x6
 2274 0c56 E2050000 		.4byte	.LASF213
 2275 0c5a 0D       		.byte	0xd
 2276 0c5b EB       		.byte	0xeb
 2277 0c5c 62000000 		.4byte	0x62
 2278 0c60 02       		.byte	0x2
 2279 0c61 23       		.byte	0x23
 2280 0c62 08       		.uleb128 0x8
 2281 0c63 00       		.byte	0
 2282 0c64 03       		.uleb128 0x3
 2283 0c65 59000000 		.4byte	.LASF214
 2284 0c69 0D       		.byte	0xd
 2285 0c6a EC       		.byte	0xec
 2286 0c6b 230C0000 		.4byte	0xc23
 2287 0c6f 05       		.uleb128 0x5
 2288 0c70 6A050000 		.4byte	.LASF215
 2289 0c74 20       		.byte	0x20
 2290 0c75 0C       		.byte	0xc
 2291 0c76 75       		.byte	0x75
 2292 0c77 EC0C0000 		.4byte	0xcec
 2293 0c7b 06       		.uleb128 0x6
 2294 0c7c 72000000 		.4byte	.LASF216
 2295 0c80 0C       		.byte	0xc
 2296 0c81 76       		.byte	0x76
 2297 0c82 9D050000 		.4byte	0x59d
 2298 0c86 02       		.byte	0x2
 2299 0c87 23       		.byte	0x23
 2300 0c88 00       		.uleb128 0
 2301 0c89 06       		.uleb128 0x6
 2302 0c8a E5060000 		.4byte	.LASF217
 2303 0c8e 0C       		.byte	0xc
 2304 0c8f 76       		.byte	0x76
 2305 0c90 BD050000 		.4byte	0x5bd
 2306 0c94 02       		.byte	0x2
 2307 0c95 23       		.byte	0x23
 2308 0c96 04       		.uleb128 0x4
 2309 0c97 07       		.uleb128 0x7
 2310 0c98 70757400 		.ascii	"put\000"
 2311 0c9c 0C       		.byte	0xc
 2312 0c9d 76       		.byte	0x76
 2313 0c9e D8050000 		.4byte	0x5d8
 2314 0ca2 02       		.byte	0x2
 2315 0ca3 23       		.byte	0x23
 2316 0ca4 08       		.uleb128 0x8
 2317 0ca5 07       		.uleb128 0x7
 2318 0ca6 67657400 		.ascii	"get\000"
 2319 0caa 0C       		.byte	0xc
 2320 0cab 76       		.byte	0x76
 2321 0cac 9B040000 		.4byte	0x49b
 2322 0cb0 02       		.byte	0x2
 2323 0cb1 23       		.byte	0x23
 2324 0cb2 0C       		.uleb128 0xc
 2325 0cb3 06       		.uleb128 0x6
 2326 0cb4 BF000000 		.4byte	.LASF218
 2327 0cb8 0C       		.byte	0xc
 2328 0cb9 76       		.byte	0x76
 2329 0cba 0C0B0000 		.4byte	0xb0c
ARM GAS  /tmp/ccXIrMZk.s 			page 42


 2330 0cbe 02       		.byte	0x2
 2331 0cbf 23       		.byte	0x23
 2332 0cc0 10       		.uleb128 0x10
 2333 0cc1 06       		.uleb128 0x6
 2334 0cc2 D0030000 		.4byte	.LASF219
 2335 0cc6 0C       		.byte	0xc
 2336 0cc7 76       		.byte	0x76
 2337 0cc8 270B0000 		.4byte	0xb27
 2338 0ccc 02       		.byte	0x2
 2339 0ccd 23       		.byte	0x23
 2340 0cce 14       		.uleb128 0x14
 2341 0ccf 06       		.uleb128 0x6
 2342 0cd0 66000000 		.4byte	.LASF220
 2343 0cd4 0C       		.byte	0xc
 2344 0cd5 76       		.byte	0x76
 2345 0cd6 4C0B0000 		.4byte	0xb4c
 2346 0cda 02       		.byte	0x2
 2347 0cdb 23       		.byte	0x23
 2348 0cdc 18       		.uleb128 0x18
 2349 0cdd 06       		.uleb128 0x6
 2350 0cde 95010000 		.4byte	.LASF221
 2351 0ce2 0C       		.byte	0xc
 2352 0ce3 76       		.byte	0x76
 2353 0ce4 710B0000 		.4byte	0xb71
 2354 0ce8 02       		.byte	0x2
 2355 0ce9 23       		.byte	0x23
 2356 0cea 1C       		.uleb128 0x1c
 2357 0ceb 00       		.byte	0
 2358 0cec 09       		.uleb128 0x9
 2359 0ced 04       		.byte	0x4
 2360 0cee F20C0000 		.4byte	0xcf2
 2361 0cf2 10       		.uleb128 0x10
 2362 0cf3 6F0C0000 		.4byte	0xc6f
 2363 0cf7 16       		.uleb128 0x16
 2364 0cf8 49000000 		.4byte	0x49
 2365 0cfc 070D0000 		.4byte	0xd07
 2366 0d00 17       		.uleb128 0x17
 2367 0d01 78030000 		.4byte	0x378
 2368 0d05 0F       		.byte	0xf
 2369 0d06 00       		.byte	0
 2370 0d07 09       		.uleb128 0x9
 2371 0d08 04       		.byte	0x4
 2372 0d09 E60A0000 		.4byte	0xae6
 2373 0d0d 09       		.uleb128 0x9
 2374 0d0e 04       		.byte	0x4
 2375 0d0f 6D050000 		.4byte	0x56d
 2376 0d13 1C       		.uleb128 0x1c
 2377 0d14 7A050000 		.4byte	.LASF222
 2378 0d18 01       		.byte	0x1
 2379 0d19 7E       		.byte	0x7e
 2380 0d1a 01       		.byte	0x1
 2381 0d1b 01       		.byte	0x1
 2382 0d1c 2A0D0000 		.4byte	0xd2a
 2383 0d20 1D       		.uleb128 0x1d
 2384 0d21 7500     		.ascii	"u\000"
 2385 0d23 01       		.byte	0x1
 2386 0d24 7E       		.byte	0x7e
ARM GAS  /tmp/ccXIrMZk.s 			page 43


 2387 0d25 070D0000 		.4byte	0xd07
 2388 0d29 00       		.byte	0
 2389 0d2a 1C       		.uleb128 0x1c
 2390 0d2b EA000000 		.4byte	.LASF223
 2391 0d2f 01       		.byte	0x1
 2392 0d30 8B       		.byte	0x8b
 2393 0d31 01       		.byte	0x1
 2394 0d32 01       		.byte	0x1
 2395 0d33 760D0000 		.4byte	0xd76
 2396 0d37 1D       		.uleb128 0x1d
 2397 0d38 73647000 		.ascii	"sdp\000"
 2398 0d3c 01       		.byte	0x1
 2399 0d3d 8B       		.byte	0x8b
 2400 0d3e 760D0000 		.4byte	0xd76
 2401 0d42 1D       		.uleb128 0x1d
 2402 0d43 737200   		.ascii	"sr\000"
 2403 0d46 01       		.byte	0x1
 2404 0d47 8B       		.byte	0x8b
 2405 0d48 62000000 		.4byte	0x62
 2406 0d4c 1E       		.uleb128 0x1e
 2407 0d4d 73747300 		.ascii	"sts\000"
 2408 0d51 01       		.byte	0x1
 2409 0d52 8C       		.byte	0x8c
 2410 0d53 FE000000 		.4byte	0xfe
 2411 0d57 1F       		.uleb128 0x1f
 2412 0d58 680D0000 		.4byte	0xd68
 2413 0d5c 1E       		.uleb128 0x1e
 2414 0d5d 746D7000 		.ascii	"tmp\000"
 2415 0d61 01       		.byte	0x1
 2416 0d62 96       		.byte	0x96
 2417 0d63 86000000 		.4byte	0x86
 2418 0d67 00       		.byte	0
 2419 0d68 20       		.uleb128 0x20
 2420 0d69 1E       		.uleb128 0x1e
 2421 0d6a 746D7000 		.ascii	"tmp\000"
 2422 0d6e 01       		.byte	0x1
 2423 0d6f 98       		.byte	0x98
 2424 0d70 86000000 		.4byte	0x86
 2425 0d74 00       		.byte	0
 2426 0d75 00       		.byte	0
 2427 0d76 09       		.uleb128 0x9
 2428 0d77 04       		.byte	0x4
 2429 0d78 9D0B0000 		.4byte	0xb9d
 2430 0d7c 1C       		.uleb128 0x1c
 2431 0d7d DA000000 		.4byte	.LASF224
 2432 0d81 01       		.byte	0x1
 2433 0d82 A0       		.byte	0xa0
 2434 0d83 01       		.byte	0x1
 2435 0d84 01       		.byte	0x1
 2436 0d85 4C0E0000 		.4byte	0xe4c
 2437 0d89 1D       		.uleb128 0x1d
 2438 0d8a 73647000 		.ascii	"sdp\000"
 2439 0d8e 01       		.byte	0x1
 2440 0d8f A0       		.byte	0xa0
 2441 0d90 760D0000 		.4byte	0xd76
 2442 0d94 1E       		.uleb128 0x1e
 2443 0d95 7500     		.ascii	"u\000"
ARM GAS  /tmp/ccXIrMZk.s 			page 44


 2444 0d97 01       		.byte	0x1
 2445 0d98 A1       		.byte	0xa1
 2446 0d99 070D0000 		.4byte	0xd07
 2447 0d9d 1E       		.uleb128 0x1e
 2448 0d9e 63723100 		.ascii	"cr1\000"
 2449 0da2 01       		.byte	0x1
 2450 0da3 A2       		.byte	0xa2
 2451 0da4 62000000 		.4byte	0x62
 2452 0da8 1E       		.uleb128 0x1e
 2453 0da9 737200   		.ascii	"sr\000"
 2454 0dac 01       		.byte	0x1
 2455 0dad A3       		.byte	0xa3
 2456 0dae 62000000 		.4byte	0x62
 2457 0db2 1E       		.uleb128 0x1e
 2458 0db3 647200   		.ascii	"dr\000"
 2459 0db6 01       		.byte	0x1
 2460 0db7 A4       		.byte	0xa4
 2461 0db8 62000000 		.4byte	0x62
 2462 0dbc 1F       		.uleb128 0x1f
 2463 0dbd CD0D0000 		.4byte	0xdcd
 2464 0dc1 1E       		.uleb128 0x1e
 2465 0dc2 746D7000 		.ascii	"tmp\000"
 2466 0dc6 01       		.byte	0x1
 2467 0dc7 AB       		.byte	0xab
 2468 0dc8 86000000 		.4byte	0x86
 2469 0dcc 00       		.byte	0
 2470 0dcd 1F       		.uleb128 0x1f
 2471 0dce DE0D0000 		.4byte	0xdde
 2472 0dd2 1E       		.uleb128 0x1e
 2473 0dd3 746D7000 		.ascii	"tmp\000"
 2474 0dd7 01       		.byte	0x1
 2475 0dd8 AD       		.byte	0xad
 2476 0dd9 86000000 		.4byte	0x86
 2477 0ddd 00       		.byte	0
 2478 0dde 1F       		.uleb128 0x1f
 2479 0ddf EF0D0000 		.4byte	0xdef
 2480 0de3 1E       		.uleb128 0x1e
 2481 0de4 746D7000 		.ascii	"tmp\000"
 2482 0de8 01       		.byte	0x1
 2483 0de9 B2       		.byte	0xb2
 2484 0dea 86000000 		.4byte	0x86
 2485 0dee 00       		.byte	0
 2486 0def 1F       		.uleb128 0x1f
 2487 0df0 000E0000 		.4byte	0xe00
 2488 0df4 1E       		.uleb128 0x1e
 2489 0df5 746D7000 		.ascii	"tmp\000"
 2490 0df9 01       		.byte	0x1
 2491 0dfa B4       		.byte	0xb4
 2492 0dfb 86000000 		.4byte	0x86
 2493 0dff 00       		.byte	0
 2494 0e00 1F       		.uleb128 0x1f
 2495 0e01 2D0E0000 		.4byte	0xe2d
 2496 0e05 1E       		.uleb128 0x1e
 2497 0e06 6200     		.ascii	"b\000"
 2498 0e08 01       		.byte	0x1
 2499 0e09 B8       		.byte	0xb8
 2500 0e0a E8000000 		.4byte	0xe8
ARM GAS  /tmp/ccXIrMZk.s 			page 45


 2501 0e0e 1F       		.uleb128 0x1f
 2502 0e0f 1F0E0000 		.4byte	0xe1f
 2503 0e13 1E       		.uleb128 0x1e
 2504 0e14 746D7000 		.ascii	"tmp\000"
 2505 0e18 01       		.byte	0x1
 2506 0e19 B9       		.byte	0xb9
 2507 0e1a 86000000 		.4byte	0x86
 2508 0e1e 00       		.byte	0
 2509 0e1f 20       		.uleb128 0x20
 2510 0e20 1E       		.uleb128 0x1e
 2511 0e21 746D7000 		.ascii	"tmp\000"
 2512 0e25 01       		.byte	0x1
 2513 0e26 C1       		.byte	0xc1
 2514 0e27 86000000 		.4byte	0x86
 2515 0e2b 00       		.byte	0
 2516 0e2c 00       		.byte	0
 2517 0e2d 1F       		.uleb128 0x1f
 2518 0e2e 3E0E0000 		.4byte	0xe3e
 2519 0e32 1E       		.uleb128 0x1e
 2520 0e33 746D7000 		.ascii	"tmp\000"
 2521 0e37 01       		.byte	0x1
 2522 0e38 C5       		.byte	0xc5
 2523 0e39 86000000 		.4byte	0x86
 2524 0e3d 00       		.byte	0
 2525 0e3e 20       		.uleb128 0x20
 2526 0e3f 1E       		.uleb128 0x1e
 2527 0e40 746D7000 		.ascii	"tmp\000"
 2528 0e44 01       		.byte	0x1
 2529 0e45 C7       		.byte	0xc7
 2530 0e46 86000000 		.4byte	0x86
 2531 0e4a 00       		.byte	0
 2532 0e4b 00       		.byte	0
 2533 0e4c 21       		.uleb128 0x21
 2534 0e4d 98090000 		.4byte	.LASF245
 2535 0e51 01       		.byte	0x1
 2536 0e52 F6       		.byte	0xf6
 2537 0e53 01       		.byte	0x1
 2538 0e54 00000000 		.4byte	.LFB122
 2539 0e58 14000000 		.4byte	.LFE122
 2540 0e5c 02       		.byte	0x2
 2541 0e5d 7D       		.byte	0x7d
 2542 0e5e 00       		.sleb128 0
 2543 0e5f 01       		.byte	0x1
 2544 0e60 710E0000 		.4byte	0xe71
 2545 0e64 22       		.uleb128 0x22
 2546 0e65 717000   		.ascii	"qp\000"
 2547 0e68 01       		.byte	0x1
 2548 0e69 F6       		.byte	0xf6
 2549 0e6a 56050000 		.4byte	0x556
 2550 0e6e 01       		.byte	0x1
 2551 0e6f 50       		.byte	0x50
 2552 0e70 00       		.byte	0
 2553 0e71 23       		.uleb128 0x23
 2554 0e72 01       		.byte	0x1
 2555 0e73 AC090000 		.4byte	.LASF225
 2556 0e77 01       		.byte	0x1
 2557 0e78 6901     		.2byte	0x169
ARM GAS  /tmp/ccXIrMZk.s 			page 46


 2558 0e7a 01       		.byte	0x1
 2559 0e7b 00000000 		.4byte	.LFB123
 2560 0e7f 6C010000 		.4byte	.LFE123
 2561 0e83 00000000 		.4byte	.LLST0
 2562 0e87 01       		.byte	0x1
 2563 0e88 23110000 		.4byte	0x1123
 2564 0e8c 24       		.uleb128 0x24
 2565 0e8d 7C0D0000 		.4byte	0xd7c
 2566 0e91 08000000 		.4byte	.LBB30
 2567 0e95 00000000 		.4byte	.Ldebug_ranges0+0
 2568 0e99 01       		.byte	0x1
 2569 0e9a 6D01     		.2byte	0x16d
 2570 0e9c 06110000 		.4byte	0x1106
 2571 0ea0 25       		.uleb128 0x25
 2572 0ea1 18000000 		.4byte	.Ldebug_ranges0+0x18
 2573 0ea5 26       		.uleb128 0x26
 2574 0ea6 940D0000 		.4byte	0xd94
 2575 0eaa 01       		.byte	0x1
 2576 0eab 55       		.byte	0x55
 2577 0eac 26       		.uleb128 0x26
 2578 0ead 9D0D0000 		.4byte	0xd9d
 2579 0eb1 01       		.byte	0x1
 2580 0eb2 56       		.byte	0x56
 2581 0eb3 27       		.uleb128 0x27
 2582 0eb4 A80D0000 		.4byte	0xda8
 2583 0eb8 20000000 		.4byte	.LLST1
 2584 0ebc 27       		.uleb128 0x27
 2585 0ebd B20D0000 		.4byte	0xdb2
 2586 0ec1 3E000000 		.4byte	.LLST2
 2587 0ec5 28       		.uleb128 0x28
 2588 0ec6 890D0000 		.4byte	0xd89
 2589 0eca 06       		.byte	0x6
 2590 0ecb 03       		.byte	0x3
 2591 0ecc 00000000 		.4byte	SD6
 2592 0ed0 9F       		.byte	0x9f
 2593 0ed1 29       		.uleb128 0x29
 2594 0ed2 4A000000 		.4byte	.LBB32
 2595 0ed6 50000000 		.4byte	.LBE32
 2596 0eda E80E0000 		.4byte	0xee8
 2597 0ede 27       		.uleb128 0x27
 2598 0edf 320E0000 		.4byte	0xe32
 2599 0ee3 72000000 		.4byte	.LLST3
 2600 0ee7 00       		.byte	0
 2601 0ee8 29       		.uleb128 0x29
 2602 0ee9 60000000 		.4byte	.LBB33
 2603 0eed 66000000 		.4byte	.LBE33
 2604 0ef1 FF0E0000 		.4byte	0xeff
 2605 0ef5 27       		.uleb128 0x27
 2606 0ef6 3F0E0000 		.4byte	0xe3f
 2607 0efa 85000000 		.4byte	.LLST4
 2608 0efe 00       		.byte	0
 2609 0eff 29       		.uleb128 0x29
 2610 0f00 86000000 		.4byte	.LBB34
 2611 0f04 8C000000 		.4byte	.LBE34
 2612 0f08 160F0000 		.4byte	0xf16
 2613 0f0c 27       		.uleb128 0x27
 2614 0f0d E30D0000 		.4byte	0xde3
ARM GAS  /tmp/ccXIrMZk.s 			page 47


 2615 0f11 98000000 		.4byte	.LLST5
 2616 0f15 00       		.byte	0
 2617 0f16 29       		.uleb128 0x29
 2618 0f17 9C000000 		.4byte	.LBB35
 2619 0f1b A4000000 		.4byte	.LBE35
 2620 0f1f 2D0F0000 		.4byte	0xf2d
 2621 0f23 27       		.uleb128 0x27
 2622 0f24 F40D0000 		.4byte	0xdf4
 2623 0f28 AB000000 		.4byte	.LLST6
 2624 0f2c 00       		.byte	0
 2625 0f2d 29       		.uleb128 0x29
 2626 0f2e A4000000 		.4byte	.LBB36
 2627 0f32 AA000000 		.4byte	.LBE36
 2628 0f36 440F0000 		.4byte	0xf44
 2629 0f3a 27       		.uleb128 0x27
 2630 0f3b C10D0000 		.4byte	0xdc1
 2631 0f3f C9000000 		.4byte	.LLST7
 2632 0f43 00       		.byte	0
 2633 0f44 29       		.uleb128 0x29
 2634 0f45 BC000000 		.4byte	.LBB37
 2635 0f49 C2000000 		.4byte	.LBE37
 2636 0f4d 5B0F0000 		.4byte	0xf5b
 2637 0f51 27       		.uleb128 0x27
 2638 0f52 D20D0000 		.4byte	0xdd2
 2639 0f56 DC000000 		.4byte	.LLST8
 2640 0f5a 00       		.byte	0
 2641 0f5b 2A       		.uleb128 0x2a
 2642 0f5c 2A0D0000 		.4byte	0xd2a
 2643 0f60 D0000000 		.4byte	.LBB38
 2644 0f64 24010000 		.4byte	.LBE38
 2645 0f68 01       		.byte	0x1
 2646 0f69 A8       		.byte	0xa8
 2647 0f6a F10F0000 		.4byte	0xff1
 2648 0f6e 2B       		.uleb128 0x2b
 2649 0f6f 420D0000 		.4byte	0xd42
 2650 0f73 EF000000 		.4byte	.LLST9
 2651 0f77 2C       		.uleb128 0x2c
 2652 0f78 D0000000 		.4byte	.LBB39
 2653 0f7c 24010000 		.4byte	.LBE39
 2654 0f80 27       		.uleb128 0x27
 2655 0f81 4C0D0000 		.4byte	0xd4c
 2656 0f85 02010000 		.4byte	.LLST10
 2657 0f89 2B       		.uleb128 0x2b
 2658 0f8a 370D0000 		.4byte	0xd37
 2659 0f8e 21010000 		.4byte	.LLST11
 2660 0f92 29       		.uleb128 0x29
 2661 0f93 06010000 		.4byte	.LBB40
 2662 0f97 0C010000 		.4byte	.LBE40
 2663 0f9b A90F0000 		.4byte	0xfa9
 2664 0f9f 27       		.uleb128 0x27
 2665 0fa0 5C0D0000 		.4byte	0xd5c
 2666 0fa4 39010000 		.4byte	.LLST12
 2667 0fa8 00       		.byte	0
 2668 0fa9 29       		.uleb128 0x29
 2669 0faa 1C010000 		.4byte	.LBB41
 2670 0fae 24010000 		.4byte	.LBE41
 2671 0fb2 C00F0000 		.4byte	0xfc0
ARM GAS  /tmp/ccXIrMZk.s 			page 48


 2672 0fb6 27       		.uleb128 0x27
 2673 0fb7 690D0000 		.4byte	0xd69
 2674 0fbb 4C010000 		.4byte	.LLST13
 2675 0fbf 00       		.byte	0
 2676 0fc0 2D       		.uleb128 0x2d
 2677 0fc1 10010000 		.4byte	.LVL44
 2678 0fc5 AC120000 		.4byte	0x12ac
 2679 0fc9 2E       		.uleb128 0x2e
 2680 0fca 18010000 		.4byte	.LVL45
 2681 0fce B6120000 		.4byte	0x12b6
 2682 0fd2 E60F0000 		.4byte	0xfe6
 2683 0fd6 2F       		.uleb128 0x2f
 2684 0fd7 01       		.byte	0x1
 2685 0fd8 51       		.byte	0x51
 2686 0fd9 02       		.byte	0x2
 2687 0fda 78       		.byte	0x78
 2688 0fdb 00       		.sleb128 0
 2689 0fdc 2F       		.uleb128 0x2f
 2690 0fdd 01       		.byte	0x1
 2691 0fde 50       		.byte	0x50
 2692 0fdf 05       		.byte	0x5
 2693 0fe0 03       		.byte	0x3
 2694 0fe1 04000000 		.4byte	.LANCHOR0+4
 2695 0fe5 00       		.byte	0
 2696 0fe6 2D       		.uleb128 0x2d
 2697 0fe7 1C010000 		.4byte	.LVL46
 2698 0feb D5120000 		.4byte	0x12d5
 2699 0fef 00       		.byte	0
 2700 0ff0 00       		.byte	0
 2701 0ff1 29       		.uleb128 0x29
 2702 0ff2 24010000 		.4byte	.LBB42
 2703 0ff6 6C010000 		.4byte	.LBE42
 2704 0ffa 77100000 		.4byte	0x1077
 2705 0ffe 27       		.uleb128 0x27
 2706 0fff 050E0000 		.4byte	0xe05
 2707 1003 6A010000 		.4byte	.LLST14
 2708 1007 29       		.uleb128 0x29
 2709 1008 24010000 		.4byte	.LBB43
 2710 100c 2A010000 		.4byte	.LBE43
 2711 1010 1E100000 		.4byte	0x101e
 2712 1014 27       		.uleb128 0x27
 2713 1015 130E0000 		.4byte	0xe13
 2714 1019 7D010000 		.4byte	.LLST15
 2715 101d 00       		.byte	0
 2716 101e 29       		.uleb128 0x29
 2717 101f 42010000 		.4byte	.LBB44
 2718 1023 4A010000 		.4byte	.LBE44
 2719 1027 35100000 		.4byte	0x1035
 2720 102b 27       		.uleb128 0x27
 2721 102c 200E0000 		.4byte	0xe20
 2722 1030 90010000 		.4byte	.LLST16
 2723 1034 00       		.byte	0
 2724 1035 2D       		.uleb128 0x2d
 2725 1036 2E010000 		.4byte	.LVL51
 2726 103a AC120000 		.4byte	0x12ac
 2727 103e 2E       		.uleb128 0x2e
 2728 103f 34010000 		.4byte	.LVL52
ARM GAS  /tmp/ccXIrMZk.s 			page 49


 2729 1043 DF120000 		.4byte	0x12df
 2730 1047 55100000 		.4byte	0x1055
 2731 104b 2F       		.uleb128 0x2f
 2732 104c 01       		.byte	0x1
 2733 104d 50       		.byte	0x50
 2734 104e 05       		.byte	0x5
 2735 104f 03       		.byte	0x3
 2736 1050 30000000 		.4byte	.LANCHOR0+48
 2737 1054 00       		.byte	0
 2738 1055 2D       		.uleb128 0x2d
 2739 1056 42010000 		.4byte	.LVL54
 2740 105a D5120000 		.4byte	0x12d5
 2741 105e 30       		.uleb128 0x30
 2742 105f 52010000 		.4byte	.LVL57
 2743 1063 B6120000 		.4byte	0x12b6
 2744 1067 2F       		.uleb128 0x2f
 2745 1068 01       		.byte	0x1
 2746 1069 51       		.byte	0x51
 2747 106a 01       		.byte	0x1
 2748 106b 38       		.byte	0x38
 2749 106c 2F       		.uleb128 0x2f
 2750 106d 01       		.byte	0x1
 2751 106e 50       		.byte	0x50
 2752 106f 05       		.byte	0x5
 2753 1070 03       		.byte	0x3
 2754 1071 04000000 		.4byte	.LANCHOR0+4
 2755 1075 00       		.byte	0
 2756 1076 00       		.byte	0
 2757 1077 2D       		.uleb128 0x2d
 2758 1078 54000000 		.4byte	.LVL13
 2759 107c AC120000 		.4byte	0x12ac
 2760 1080 2E       		.uleb128 0x2e
 2761 1081 5C000000 		.4byte	.LVL14
 2762 1085 B6120000 		.4byte	0x12b6
 2763 1089 9C100000 		.4byte	0x109c
 2764 108d 2F       		.uleb128 0x2f
 2765 108e 01       		.byte	0x1
 2766 108f 51       		.byte	0x51
 2767 1090 01       		.byte	0x1
 2768 1091 40       		.byte	0x40
 2769 1092 2F       		.uleb128 0x2f
 2770 1093 01       		.byte	0x1
 2771 1094 50       		.byte	0x50
 2772 1095 05       		.byte	0x5
 2773 1096 03       		.byte	0x3
 2774 1097 04000000 		.4byte	.LANCHOR0+4
 2775 109b 00       		.byte	0
 2776 109c 2D       		.uleb128 0x2d
 2777 109d 60000000 		.4byte	.LVL15
 2778 10a1 D5120000 		.4byte	0x12d5
 2779 10a5 2D       		.uleb128 0x2d
 2780 10a6 90000000 		.4byte	.LVL24
 2781 10aa AC120000 		.4byte	0x12ac
 2782 10ae 2E       		.uleb128 0x2e
 2783 10af 98000000 		.4byte	.LVL25
 2784 10b3 F8120000 		.4byte	0x12f8
 2785 10b7 CB100000 		.4byte	0x10cb
ARM GAS  /tmp/ccXIrMZk.s 			page 50


 2786 10bb 2F       		.uleb128 0x2f
 2787 10bc 01       		.byte	0x1
 2788 10bd 51       		.byte	0x51
 2789 10be 02       		.byte	0x2
 2790 10bf 77       		.byte	0x77
 2791 10c0 00       		.sleb128 0
 2792 10c1 2F       		.uleb128 0x2f
 2793 10c2 01       		.byte	0x1
 2794 10c3 50       		.byte	0x50
 2795 10c4 05       		.byte	0x5
 2796 10c5 03       		.byte	0x3
 2797 10c6 00000000 		.4byte	.LANCHOR0
 2798 10ca 00       		.byte	0
 2799 10cb 2D       		.uleb128 0x2d
 2800 10cc 9C000000 		.4byte	.LVL26
 2801 10d0 D5120000 		.4byte	0x12d5
 2802 10d4 2D       		.uleb128 0x2d
 2803 10d5 AE000000 		.4byte	.LVL31
 2804 10d9 AC120000 		.4byte	0x12ac
 2805 10dd 2E       		.uleb128 0x2e
 2806 10de B8000000 		.4byte	.LVL32
 2807 10e2 B6120000 		.4byte	0x12b6
 2808 10e6 FB100000 		.4byte	0x10fb
 2809 10ea 2F       		.uleb128 0x2f
 2810 10eb 01       		.byte	0x1
 2811 10ec 51       		.byte	0x51
 2812 10ed 03       		.byte	0x3
 2813 10ee 0A       		.byte	0xa
 2814 10ef 0002     		.2byte	0x200
 2815 10f1 2F       		.uleb128 0x2f
 2816 10f2 01       		.byte	0x1
 2817 10f3 50       		.byte	0x50
 2818 10f4 05       		.byte	0x5
 2819 10f5 03       		.byte	0x3
 2820 10f6 04000000 		.4byte	.LANCHOR0+4
 2821 10fa 00       		.byte	0
 2822 10fb 2D       		.uleb128 0x2d
 2823 10fc BC000000 		.4byte	.LVL33
 2824 1100 D5120000 		.4byte	0x12d5
 2825 1104 00       		.byte	0
 2826 1105 00       		.byte	0
 2827 1106 2D       		.uleb128 0x2d
 2828 1107 08000000 		.4byte	.LVL1
 2829 110b 12130000 		.4byte	0x1312
 2830 110f 2D       		.uleb128 0x2d
 2831 1110 7E000000 		.4byte	.LVL20
 2832 1114 1C130000 		.4byte	0x131c
 2833 1118 31       		.uleb128 0x31
 2834 1119 86000000 		.4byte	.LVL21
 2835 111d 01       		.byte	0x1
 2836 111e 26130000 		.4byte	0x1326
 2837 1122 00       		.byte	0
 2838 1123 23       		.uleb128 0x23
 2839 1124 01       		.byte	0x1
 2840 1125 A2050000 		.4byte	.LASF226
 2841 1129 01       		.byte	0x1
 2842 112a 7C01     		.2byte	0x17c
ARM GAS  /tmp/ccXIrMZk.s 			page 51


 2843 112c 01       		.byte	0x1
 2844 112d 00000000 		.4byte	.LFB124
 2845 1131 26000000 		.4byte	.LFE124
 2846 1135 B9010000 		.4byte	.LLST17
 2847 1139 01       		.byte	0x1
 2848 113a 5D110000 		.4byte	0x115d
 2849 113e 30       		.uleb128 0x30
 2850 113f 1A000000 		.4byte	.LVL58
 2851 1143 31130000 		.4byte	0x1331
 2852 1147 2F       		.uleb128 0x2f
 2853 1148 01       		.byte	0x1
 2854 1149 52       		.byte	0x52
 2855 114a 05       		.byte	0x5
 2856 114b 03       		.byte	0x3
 2857 114c 00000000 		.4byte	notify6
 2858 1150 2F       		.uleb128 0x2f
 2859 1151 01       		.byte	0x1
 2860 1152 51       		.byte	0x51
 2861 1153 01       		.byte	0x1
 2862 1154 30       		.byte	0x30
 2863 1155 2F       		.uleb128 0x2f
 2864 1156 01       		.byte	0x1
 2865 1157 50       		.byte	0x50
 2866 1158 02       		.byte	0x2
 2867 1159 74       		.byte	0x74
 2868 115a 00       		.sleb128 0
 2869 115b 00       		.byte	0
 2870 115c 00       		.byte	0
 2871 115d 1C       		.uleb128 0x1c
 2872 115e 1F080000 		.4byte	.LASF227
 2873 1162 01       		.byte	0x1
 2874 1163 60       		.byte	0x60
 2875 1164 01       		.byte	0x1
 2876 1165 01       		.byte	0x1
 2877 1166 8A110000 		.4byte	0x118a
 2878 116a 1D       		.uleb128 0x1d
 2879 116b 73647000 		.ascii	"sdp\000"
 2880 116f 01       		.byte	0x1
 2881 1170 60       		.byte	0x60
 2882 1171 760D0000 		.4byte	0xd76
 2883 1175 32       		.uleb128 0x32
 2884 1176 B2000000 		.4byte	.LASF228
 2885 117a 01       		.byte	0x1
 2886 117b 60       		.byte	0x60
 2887 117c 8A110000 		.4byte	0x118a
 2888 1180 1E       		.uleb128 0x1e
 2889 1181 7500     		.ascii	"u\000"
 2890 1183 01       		.byte	0x1
 2891 1184 61       		.byte	0x61
 2892 1185 070D0000 		.4byte	0xd07
 2893 1189 00       		.byte	0
 2894 118a 09       		.uleb128 0x9
 2895 118b 04       		.byte	0x4
 2896 118c 90110000 		.4byte	0x1190
 2897 1190 10       		.uleb128 0x10
 2898 1191 640C0000 		.4byte	0xc64
 2899 1195 23       		.uleb128 0x23
ARM GAS  /tmp/ccXIrMZk.s 			page 52


 2900 1196 01       		.byte	0x1
 2901 1197 9B010000 		.4byte	.LASF229
 2902 119b 01       		.byte	0x1
 2903 119c A701     		.2byte	0x1a7
 2904 119e 01       		.byte	0x1
 2905 119f 00000000 		.4byte	.LFB125
 2906 11a3 9C000000 		.4byte	.LFE125
 2907 11a7 D9010000 		.4byte	.LLST18
 2908 11ab 01       		.byte	0x1
 2909 11ac 21120000 		.4byte	0x1221
 2910 11b0 33       		.uleb128 0x33
 2911 11b1 73647000 		.ascii	"sdp\000"
 2912 11b5 01       		.byte	0x1
 2913 11b6 A701     		.2byte	0x1a7
 2914 11b8 760D0000 		.4byte	0xd76
 2915 11bc F9010000 		.4byte	.LLST19
 2916 11c0 34       		.uleb128 0x34
 2917 11c1 B2000000 		.4byte	.LASF228
 2918 11c5 01       		.byte	0x1
 2919 11c6 A701     		.2byte	0x1a7
 2920 11c8 8A110000 		.4byte	0x118a
 2921 11cc 2D020000 		.4byte	.LLST20
 2922 11d0 35       		.uleb128 0x35
 2923 11d1 5D110000 		.4byte	0x115d
 2924 11d5 12000000 		.4byte	.LBB49
 2925 11d9 74000000 		.4byte	.LBE49
 2926 11dd 01       		.byte	0x1
 2927 11de D801     		.2byte	0x1d8
 2928 11e0 0A120000 		.4byte	0x120a
 2929 11e4 2B       		.uleb128 0x2b
 2930 11e5 75110000 		.4byte	0x1175
 2931 11e9 4B020000 		.4byte	.LLST21
 2932 11ed 2B       		.uleb128 0x2b
 2933 11ee 6A110000 		.4byte	0x116a
 2934 11f2 5E020000 		.4byte	.LLST22
 2935 11f6 2C       		.uleb128 0x2c
 2936 11f7 12000000 		.4byte	.LBB50
 2937 11fb 74000000 		.4byte	.LBE50
 2938 11ff 27       		.uleb128 0x27
 2939 1200 80110000 		.4byte	0x1180
 2940 1204 71020000 		.4byte	.LLST23
 2941 1208 00       		.byte	0
 2942 1209 00       		.byte	0
 2943 120a 30       		.uleb128 0x30
 2944 120b 92000000 		.4byte	.LVL66
 2945 120f 50130000 		.4byte	0x1350
 2946 1213 2F       		.uleb128 0x2f
 2947 1214 01       		.byte	0x1
 2948 1215 51       		.byte	0x51
 2949 1216 02       		.byte	0x2
 2950 1217 08       		.byte	0x8
 2951 1218 C0       		.byte	0xc0
 2952 1219 2F       		.uleb128 0x2f
 2953 121a 01       		.byte	0x1
 2954 121b 50       		.byte	0x50
 2955 121c 02       		.byte	0x2
 2956 121d 08       		.byte	0x8
ARM GAS  /tmp/ccXIrMZk.s 			page 53


 2957 121e 47       		.byte	0x47
 2958 121f 00       		.byte	0
 2959 1220 00       		.byte	0
 2960 1221 36       		.uleb128 0x36
 2961 1222 01       		.byte	0x1
 2962 1223 B10A0000 		.4byte	.LASF230
 2963 1227 01       		.byte	0x1
 2964 1228 E401     		.2byte	0x1e4
 2965 122a 01       		.byte	0x1
 2966 122b 00000000 		.4byte	.LFB126
 2967 122f 34000000 		.4byte	.LFE126
 2968 1233 02       		.byte	0x2
 2969 1234 7D       		.byte	0x7d
 2970 1235 00       		.sleb128 0
 2971 1236 01       		.byte	0x1
 2972 1237 7B120000 		.4byte	0x127b
 2973 123b 33       		.uleb128 0x33
 2974 123c 73647000 		.ascii	"sdp\000"
 2975 1240 01       		.byte	0x1
 2976 1241 E401     		.2byte	0x1e4
 2977 1243 760D0000 		.4byte	0xd76
 2978 1247 91020000 		.4byte	.LLST24
 2979 124b 35       		.uleb128 0x35
 2980 124c 130D0000 		.4byte	0xd13
 2981 1250 0A000000 		.4byte	.LBB51
 2982 1254 12000000 		.4byte	.LBE51
 2983 1258 01       		.byte	0x1
 2984 1259 E701     		.2byte	0x1e7
 2985 125b 69120000 		.4byte	0x1269
 2986 125f 2B       		.uleb128 0x2b
 2987 1260 200D0000 		.4byte	0xd20
 2988 1264 B2020000 		.4byte	.LLST25
 2989 1268 00       		.byte	0
 2990 1269 37       		.uleb128 0x37
 2991 126a 2E000000 		.4byte	.LVL71
 2992 126e 01       		.byte	0x1
 2993 126f 6A130000 		.4byte	0x136a
 2994 1273 2F       		.uleb128 0x2f
 2995 1274 01       		.byte	0x1
 2996 1275 50       		.byte	0x50
 2997 1276 02       		.byte	0x2
 2998 1277 08       		.byte	0x8
 2999 1278 47       		.byte	0x47
 3000 1279 00       		.byte	0
 3001 127a 00       		.byte	0
 3002 127b 38       		.uleb128 0x38
 3003 127c EE010000 		.4byte	.LASF246
 3004 1280 01       		.byte	0x1
 3005 1281 4D       		.byte	0x4d
 3006 1282 90110000 		.4byte	0x1190
 3007 1286 05       		.byte	0x5
 3008 1287 03       		.byte	0x3
 3009 1288 00000000 		.4byte	default_config
 3010 128c 39       		.uleb128 0x39
 3011 128d 050A0000 		.4byte	.LASF231
 3012 1291 10       		.byte	0x10
 3013 1292 9806     		.2byte	0x698
ARM GAS  /tmp/ccXIrMZk.s 			page 54


 3014 1294 2E080000 		.4byte	0x82e
 3015 1298 01       		.byte	0x1
 3016 1299 01       		.byte	0x1
 3017 129a 3A       		.uleb128 0x3a
 3018 129b 53443600 		.ascii	"SD6\000"
 3019 129f 01       		.byte	0x1
 3020 12a0 45       		.byte	0x45
 3021 12a1 9D0B0000 		.4byte	0xb9d
 3022 12a5 01       		.byte	0x1
 3023 12a6 05       		.byte	0x5
 3024 12a7 03       		.byte	0x3
 3025 12a8 00000000 		.4byte	SD6
 3026 12ac 3B       		.uleb128 0x3b
 3027 12ad 01       		.byte	0x1
 3028 12ae 10040000 		.4byte	.LASF232
 3029 12b2 0E       		.byte	0xe
 3030 12b3 E2       		.byte	0xe2
 3031 12b4 01       		.byte	0x1
 3032 12b5 01       		.byte	0x1
 3033 12b6 3C       		.uleb128 0x3c
 3034 12b7 01       		.byte	0x1
 3035 12b8 B7070000 		.4byte	.LASF234
 3036 12bc 09       		.byte	0x9
 3037 12bd B3       		.byte	0xb3
 3038 12be 01       		.byte	0x1
 3039 12bf 01       		.byte	0x1
 3040 12c0 CF120000 		.4byte	0x12cf
 3041 12c4 12       		.uleb128 0x12
 3042 12c5 CF120000 		.4byte	0x12cf
 3043 12c9 12       		.uleb128 0x12
 3044 12ca FE000000 		.4byte	0xfe
 3045 12ce 00       		.byte	0
 3046 12cf 09       		.uleb128 0x9
 3047 12d0 04       		.byte	0x4
 3048 12d1 3D040000 		.4byte	0x43d
 3049 12d5 3B       		.uleb128 0x3b
 3050 12d6 01       		.byte	0x1
 3051 12d7 68060000 		.4byte	.LASF233
 3052 12db 0E       		.byte	0xe
 3053 12dc E3       		.byte	0xe3
 3054 12dd 01       		.byte	0x1
 3055 12de 01       		.byte	0x1
 3056 12df 3D       		.uleb128 0x3d
 3057 12e0 01       		.byte	0x1
 3058 12e1 21070000 		.4byte	.LASF247
 3059 12e5 0A       		.byte	0xa
 3060 12e6 6701     		.2byte	0x167
 3061 12e8 01       		.byte	0x1
 3062 12e9 E8000000 		.4byte	0xe8
 3063 12ed 01       		.byte	0x1
 3064 12ee F8120000 		.4byte	0x12f8
 3065 12f2 12       		.uleb128 0x12
 3066 12f3 0D0D0000 		.4byte	0xd0d
 3067 12f7 00       		.byte	0
 3068 12f8 3E       		.uleb128 0x3e
 3069 12f9 01       		.byte	0x1
 3070 12fa EF050000 		.4byte	.LASF235
ARM GAS  /tmp/ccXIrMZk.s 			page 55


 3071 12fe 0C       		.byte	0xc
 3072 12ff 3401     		.2byte	0x134
 3073 1301 01       		.byte	0x1
 3074 1302 01       		.byte	0x1
 3075 1303 12130000 		.4byte	0x1312
 3076 1307 12       		.uleb128 0x12
 3077 1308 760D0000 		.4byte	0xd76
 3078 130c 12       		.uleb128 0x12
 3079 130d 49000000 		.4byte	0x49
 3080 1311 00       		.byte	0
 3081 1312 3B       		.uleb128 0x3b
 3082 1313 01       		.byte	0x1
 3083 1314 3A040000 		.4byte	.LASF236
 3084 1318 0E       		.byte	0xe
 3085 1319 E4       		.byte	0xe4
 3086 131a 01       		.byte	0x1
 3087 131b 01       		.byte	0x1
 3088 131c 3B       		.uleb128 0x3b
 3089 131d 01       		.byte	0x1
 3090 131e 4E080000 		.4byte	.LASF237
 3091 1322 0E       		.byte	0xe
 3092 1323 E5       		.byte	0xe5
 3093 1324 01       		.byte	0x1
 3094 1325 01       		.byte	0x1
 3095 1326 3F       		.uleb128 0x3f
 3096 1327 01       		.byte	0x1
 3097 1328 33070000 		.4byte	.LASF238
 3098 132c 07       		.byte	0x7
 3099 132d FC01     		.2byte	0x1fc
 3100 132f 01       		.byte	0x1
 3101 1330 01       		.byte	0x1
 3102 1331 3E       		.uleb128 0x3e
 3103 1332 01       		.byte	0x1
 3104 1333 BA010000 		.4byte	.LASF239
 3105 1337 0C       		.byte	0xc
 3106 1338 3101     		.2byte	0x131
 3107 133a 01       		.byte	0x1
 3108 133b 01       		.byte	0x1
 3109 133c 50130000 		.4byte	0x1350
 3110 1340 12       		.uleb128 0x12
 3111 1341 760D0000 		.4byte	0xd76
 3112 1345 12       		.uleb128 0x12
 3113 1346 39050000 		.4byte	0x539
 3114 134a 12       		.uleb128 0x12
 3115 134b 39050000 		.4byte	0x539
 3116 134f 00       		.byte	0
 3117 1350 3E       		.uleb128 0x3e
 3118 1351 01       		.byte	0x1
 3119 1352 4A0A0000 		.4byte	.LASF240
 3120 1356 0F       		.byte	0xf
 3121 1357 1C01     		.2byte	0x11c
 3122 1359 01       		.byte	0x1
 3123 135a 01       		.byte	0x1
 3124 135b 6A130000 		.4byte	0x136a
 3125 135f 12       		.uleb128 0x12
 3126 1360 86000000 		.4byte	0x86
 3127 1364 12       		.uleb128 0x12
ARM GAS  /tmp/ccXIrMZk.s 			page 56


 3128 1365 86000000 		.4byte	0x86
 3129 1369 00       		.byte	0
 3130 136a 40       		.uleb128 0x40
 3131 136b 01       		.byte	0x1
 3132 136c D5070000 		.4byte	.LASF248
 3133 1370 0F       		.byte	0xf
 3134 1371 1D01     		.2byte	0x11d
 3135 1373 01       		.byte	0x1
 3136 1374 01       		.byte	0x1
 3137 1375 12       		.uleb128 0x12
 3138 1376 86000000 		.4byte	0x86
 3139 137a 00       		.byte	0
 3140 137b 00       		.byte	0
 3141              		.section	.debug_abbrev,"",%progbits
 3142              	.Ldebug_abbrev0:
 3143 0000 01       		.uleb128 0x1
 3144 0001 11       		.uleb128 0x11
 3145 0002 01       		.byte	0x1
 3146 0003 25       		.uleb128 0x25
 3147 0004 0E       		.uleb128 0xe
 3148 0005 13       		.uleb128 0x13
 3149 0006 0B       		.uleb128 0xb
 3150 0007 03       		.uleb128 0x3
 3151 0008 0E       		.uleb128 0xe
 3152 0009 1B       		.uleb128 0x1b
 3153 000a 0E       		.uleb128 0xe
 3154 000b 55       		.uleb128 0x55
 3155 000c 06       		.uleb128 0x6
 3156 000d 11       		.uleb128 0x11
 3157 000e 01       		.uleb128 0x1
 3158 000f 52       		.uleb128 0x52
 3159 0010 01       		.uleb128 0x1
 3160 0011 10       		.uleb128 0x10
 3161 0012 06       		.uleb128 0x6
 3162 0013 00       		.byte	0
 3163 0014 00       		.byte	0
 3164 0015 02       		.uleb128 0x2
 3165 0016 24       		.uleb128 0x24
 3166 0017 00       		.byte	0
 3167 0018 0B       		.uleb128 0xb
 3168 0019 0B       		.uleb128 0xb
 3169 001a 3E       		.uleb128 0x3e
 3170 001b 0B       		.uleb128 0xb
 3171 001c 03       		.uleb128 0x3
 3172 001d 08       		.uleb128 0x8
 3173 001e 00       		.byte	0
 3174 001f 00       		.byte	0
 3175 0020 03       		.uleb128 0x3
 3176 0021 16       		.uleb128 0x16
 3177 0022 00       		.byte	0
 3178 0023 03       		.uleb128 0x3
 3179 0024 0E       		.uleb128 0xe
 3180 0025 3A       		.uleb128 0x3a
 3181 0026 0B       		.uleb128 0xb
 3182 0027 3B       		.uleb128 0x3b
 3183 0028 0B       		.uleb128 0xb
 3184 0029 49       		.uleb128 0x49
ARM GAS  /tmp/ccXIrMZk.s 			page 57


 3185 002a 13       		.uleb128 0x13
 3186 002b 00       		.byte	0
 3187 002c 00       		.byte	0
 3188 002d 04       		.uleb128 0x4
 3189 002e 24       		.uleb128 0x24
 3190 002f 00       		.byte	0
 3191 0030 0B       		.uleb128 0xb
 3192 0031 0B       		.uleb128 0xb
 3193 0032 3E       		.uleb128 0x3e
 3194 0033 0B       		.uleb128 0xb
 3195 0034 03       		.uleb128 0x3
 3196 0035 0E       		.uleb128 0xe
 3197 0036 00       		.byte	0
 3198 0037 00       		.byte	0
 3199 0038 05       		.uleb128 0x5
 3200 0039 13       		.uleb128 0x13
 3201 003a 01       		.byte	0x1
 3202 003b 03       		.uleb128 0x3
 3203 003c 0E       		.uleb128 0xe
 3204 003d 0B       		.uleb128 0xb
 3205 003e 0B       		.uleb128 0xb
 3206 003f 3A       		.uleb128 0x3a
 3207 0040 0B       		.uleb128 0xb
 3208 0041 3B       		.uleb128 0x3b
 3209 0042 0B       		.uleb128 0xb
 3210 0043 01       		.uleb128 0x1
 3211 0044 13       		.uleb128 0x13
 3212 0045 00       		.byte	0
 3213 0046 00       		.byte	0
 3214 0047 06       		.uleb128 0x6
 3215 0048 0D       		.uleb128 0xd
 3216 0049 00       		.byte	0
 3217 004a 03       		.uleb128 0x3
 3218 004b 0E       		.uleb128 0xe
 3219 004c 3A       		.uleb128 0x3a
 3220 004d 0B       		.uleb128 0xb
 3221 004e 3B       		.uleb128 0x3b
 3222 004f 0B       		.uleb128 0xb
 3223 0050 49       		.uleb128 0x49
 3224 0051 13       		.uleb128 0x13
 3225 0052 38       		.uleb128 0x38
 3226 0053 0A       		.uleb128 0xa
 3227 0054 00       		.byte	0
 3228 0055 00       		.byte	0
 3229 0056 07       		.uleb128 0x7
 3230 0057 0D       		.uleb128 0xd
 3231 0058 00       		.byte	0
 3232 0059 03       		.uleb128 0x3
 3233 005a 08       		.uleb128 0x8
 3234 005b 3A       		.uleb128 0x3a
 3235 005c 0B       		.uleb128 0xb
 3236 005d 3B       		.uleb128 0x3b
 3237 005e 0B       		.uleb128 0xb
 3238 005f 49       		.uleb128 0x49
 3239 0060 13       		.uleb128 0x13
 3240 0061 38       		.uleb128 0x38
 3241 0062 0A       		.uleb128 0xa
ARM GAS  /tmp/ccXIrMZk.s 			page 58


 3242 0063 00       		.byte	0
 3243 0064 00       		.byte	0
 3244 0065 08       		.uleb128 0x8
 3245 0066 13       		.uleb128 0x13
 3246 0067 01       		.byte	0x1
 3247 0068 0B       		.uleb128 0xb
 3248 0069 0B       		.uleb128 0xb
 3249 006a 3A       		.uleb128 0x3a
 3250 006b 0B       		.uleb128 0xb
 3251 006c 3B       		.uleb128 0x3b
 3252 006d 0B       		.uleb128 0xb
 3253 006e 01       		.uleb128 0x1
 3254 006f 13       		.uleb128 0x13
 3255 0070 00       		.byte	0
 3256 0071 00       		.byte	0
 3257 0072 09       		.uleb128 0x9
 3258 0073 0F       		.uleb128 0xf
 3259 0074 00       		.byte	0
 3260 0075 0B       		.uleb128 0xb
 3261 0076 0B       		.uleb128 0xb
 3262 0077 49       		.uleb128 0x49
 3263 0078 13       		.uleb128 0x13
 3264 0079 00       		.byte	0
 3265 007a 00       		.byte	0
 3266 007b 0A       		.uleb128 0xa
 3267 007c 0F       		.uleb128 0xf
 3268 007d 00       		.byte	0
 3269 007e 0B       		.uleb128 0xb
 3270 007f 0B       		.uleb128 0xb
 3271 0080 00       		.byte	0
 3272 0081 00       		.byte	0
 3273 0082 0B       		.uleb128 0xb
 3274 0083 13       		.uleb128 0x13
 3275 0084 01       		.byte	0x1
 3276 0085 03       		.uleb128 0x3
 3277 0086 0E       		.uleb128 0xe
 3278 0087 0B       		.uleb128 0xb
 3279 0088 0B       		.uleb128 0xb
 3280 0089 3A       		.uleb128 0x3a
 3281 008a 0B       		.uleb128 0xb
 3282 008b 3B       		.uleb128 0x3b
 3283 008c 05       		.uleb128 0x5
 3284 008d 01       		.uleb128 0x1
 3285 008e 13       		.uleb128 0x13
 3286 008f 00       		.byte	0
 3287 0090 00       		.byte	0
 3288 0091 0C       		.uleb128 0xc
 3289 0092 0D       		.uleb128 0xd
 3290 0093 00       		.byte	0
 3291 0094 03       		.uleb128 0x3
 3292 0095 08       		.uleb128 0x8
 3293 0096 3A       		.uleb128 0x3a
 3294 0097 0B       		.uleb128 0xb
 3295 0098 3B       		.uleb128 0x3b
 3296 0099 05       		.uleb128 0x5
 3297 009a 49       		.uleb128 0x49
 3298 009b 13       		.uleb128 0x13
ARM GAS  /tmp/ccXIrMZk.s 			page 59


 3299 009c 38       		.uleb128 0x38
 3300 009d 0A       		.uleb128 0xa
 3301 009e 00       		.byte	0
 3302 009f 00       		.byte	0
 3303 00a0 0D       		.uleb128 0xd
 3304 00a1 35       		.uleb128 0x35
 3305 00a2 00       		.byte	0
 3306 00a3 49       		.uleb128 0x49
 3307 00a4 13       		.uleb128 0x13
 3308 00a5 00       		.byte	0
 3309 00a6 00       		.byte	0
 3310 00a7 0E       		.uleb128 0xe
 3311 00a8 17       		.uleb128 0x17
 3312 00a9 01       		.byte	0x1
 3313 00aa 0B       		.uleb128 0xb
 3314 00ab 0B       		.uleb128 0xb
 3315 00ac 3A       		.uleb128 0x3a
 3316 00ad 0B       		.uleb128 0xb
 3317 00ae 3B       		.uleb128 0x3b
 3318 00af 0B       		.uleb128 0xb
 3319 00b0 01       		.uleb128 0x1
 3320 00b1 13       		.uleb128 0x13
 3321 00b2 00       		.byte	0
 3322 00b3 00       		.byte	0
 3323 00b4 0F       		.uleb128 0xf
 3324 00b5 0D       		.uleb128 0xd
 3325 00b6 00       		.byte	0
 3326 00b7 03       		.uleb128 0x3
 3327 00b8 0E       		.uleb128 0xe
 3328 00b9 3A       		.uleb128 0x3a
 3329 00ba 0B       		.uleb128 0xb
 3330 00bb 3B       		.uleb128 0x3b
 3331 00bc 0B       		.uleb128 0xb
 3332 00bd 49       		.uleb128 0x49
 3333 00be 13       		.uleb128 0x13
 3334 00bf 00       		.byte	0
 3335 00c0 00       		.byte	0
 3336 00c1 10       		.uleb128 0x10
 3337 00c2 26       		.uleb128 0x26
 3338 00c3 00       		.byte	0
 3339 00c4 49       		.uleb128 0x49
 3340 00c5 13       		.uleb128 0x13
 3341 00c6 00       		.byte	0
 3342 00c7 00       		.byte	0
 3343 00c8 11       		.uleb128 0x11
 3344 00c9 15       		.uleb128 0x15
 3345 00ca 01       		.byte	0x1
 3346 00cb 27       		.uleb128 0x27
 3347 00cc 0C       		.uleb128 0xc
 3348 00cd 49       		.uleb128 0x49
 3349 00ce 13       		.uleb128 0x13
 3350 00cf 01       		.uleb128 0x1
 3351 00d0 13       		.uleb128 0x13
 3352 00d1 00       		.byte	0
 3353 00d2 00       		.byte	0
 3354 00d3 12       		.uleb128 0x12
 3355 00d4 05       		.uleb128 0x5
ARM GAS  /tmp/ccXIrMZk.s 			page 60


 3356 00d5 00       		.byte	0
 3357 00d6 49       		.uleb128 0x49
 3358 00d7 13       		.uleb128 0x13
 3359 00d8 00       		.byte	0
 3360 00d9 00       		.byte	0
 3361 00da 13       		.uleb128 0x13
 3362 00db 15       		.uleb128 0x15
 3363 00dc 01       		.byte	0x1
 3364 00dd 27       		.uleb128 0x27
 3365 00de 0C       		.uleb128 0xc
 3366 00df 01       		.uleb128 0x1
 3367 00e0 13       		.uleb128 0x13
 3368 00e1 00       		.byte	0
 3369 00e2 00       		.byte	0
 3370 00e3 14       		.uleb128 0x14
 3371 00e4 04       		.uleb128 0x4
 3372 00e5 01       		.byte	0x1
 3373 00e6 03       		.uleb128 0x3
 3374 00e7 0E       		.uleb128 0xe
 3375 00e8 0B       		.uleb128 0xb
 3376 00e9 0B       		.uleb128 0xb
 3377 00ea 3A       		.uleb128 0x3a
 3378 00eb 0B       		.uleb128 0xb
 3379 00ec 3B       		.uleb128 0x3b
 3380 00ed 0B       		.uleb128 0xb
 3381 00ee 01       		.uleb128 0x1
 3382 00ef 13       		.uleb128 0x13
 3383 00f0 00       		.byte	0
 3384 00f1 00       		.byte	0
 3385 00f2 15       		.uleb128 0x15
 3386 00f3 28       		.uleb128 0x28
 3387 00f4 00       		.byte	0
 3388 00f5 03       		.uleb128 0x3
 3389 00f6 0E       		.uleb128 0xe
 3390 00f7 1C       		.uleb128 0x1c
 3391 00f8 0D       		.uleb128 0xd
 3392 00f9 00       		.byte	0
 3393 00fa 00       		.byte	0
 3394 00fb 16       		.uleb128 0x16
 3395 00fc 01       		.uleb128 0x1
 3396 00fd 01       		.byte	0x1
 3397 00fe 49       		.uleb128 0x49
 3398 00ff 13       		.uleb128 0x13
 3399 0100 01       		.uleb128 0x1
 3400 0101 13       		.uleb128 0x13
 3401 0102 00       		.byte	0
 3402 0103 00       		.byte	0
 3403 0104 17       		.uleb128 0x17
 3404 0105 21       		.uleb128 0x21
 3405 0106 00       		.byte	0
 3406 0107 49       		.uleb128 0x49
 3407 0108 13       		.uleb128 0x13
 3408 0109 2F       		.uleb128 0x2f
 3409 010a 0B       		.uleb128 0xb
 3410 010b 00       		.byte	0
 3411 010c 00       		.byte	0
 3412 010d 18       		.uleb128 0x18
ARM GAS  /tmp/ccXIrMZk.s 			page 61


 3413 010e 13       		.uleb128 0x13
 3414 010f 01       		.byte	0x1
 3415 0110 0B       		.uleb128 0xb
 3416 0111 0B       		.uleb128 0xb
 3417 0112 3A       		.uleb128 0x3a
 3418 0113 0B       		.uleb128 0xb
 3419 0114 3B       		.uleb128 0x3b
 3420 0115 05       		.uleb128 0x5
 3421 0116 01       		.uleb128 0x1
 3422 0117 13       		.uleb128 0x13
 3423 0118 00       		.byte	0
 3424 0119 00       		.byte	0
 3425 011a 19       		.uleb128 0x19
 3426 011b 0D       		.uleb128 0xd
 3427 011c 00       		.byte	0
 3428 011d 03       		.uleb128 0x3
 3429 011e 0E       		.uleb128 0xe
 3430 011f 3A       		.uleb128 0x3a
 3431 0120 0B       		.uleb128 0xb
 3432 0121 3B       		.uleb128 0x3b
 3433 0122 05       		.uleb128 0x5
 3434 0123 49       		.uleb128 0x49
 3435 0124 13       		.uleb128 0x13
 3436 0125 38       		.uleb128 0x38
 3437 0126 0A       		.uleb128 0xa
 3438 0127 00       		.byte	0
 3439 0128 00       		.byte	0
 3440 0129 1A       		.uleb128 0x1a
 3441 012a 16       		.uleb128 0x16
 3442 012b 00       		.byte	0
 3443 012c 03       		.uleb128 0x3
 3444 012d 0E       		.uleb128 0xe
 3445 012e 3A       		.uleb128 0x3a
 3446 012f 0B       		.uleb128 0xb
 3447 0130 3B       		.uleb128 0x3b
 3448 0131 05       		.uleb128 0x5
 3449 0132 49       		.uleb128 0x49
 3450 0133 13       		.uleb128 0x13
 3451 0134 00       		.byte	0
 3452 0135 00       		.byte	0
 3453 0136 1B       		.uleb128 0x1b
 3454 0137 04       		.uleb128 0x4
 3455 0138 01       		.byte	0x1
 3456 0139 0B       		.uleb128 0xb
 3457 013a 0B       		.uleb128 0xb
 3458 013b 3A       		.uleb128 0x3a
 3459 013c 0B       		.uleb128 0xb
 3460 013d 3B       		.uleb128 0x3b
 3461 013e 0B       		.uleb128 0xb
 3462 013f 01       		.uleb128 0x1
 3463 0140 13       		.uleb128 0x13
 3464 0141 00       		.byte	0
 3465 0142 00       		.byte	0
 3466 0143 1C       		.uleb128 0x1c
 3467 0144 2E       		.uleb128 0x2e
 3468 0145 01       		.byte	0x1
 3469 0146 03       		.uleb128 0x3
ARM GAS  /tmp/ccXIrMZk.s 			page 62


 3470 0147 0E       		.uleb128 0xe
 3471 0148 3A       		.uleb128 0x3a
 3472 0149 0B       		.uleb128 0xb
 3473 014a 3B       		.uleb128 0x3b
 3474 014b 0B       		.uleb128 0xb
 3475 014c 27       		.uleb128 0x27
 3476 014d 0C       		.uleb128 0xc
 3477 014e 20       		.uleb128 0x20
 3478 014f 0B       		.uleb128 0xb
 3479 0150 01       		.uleb128 0x1
 3480 0151 13       		.uleb128 0x13
 3481 0152 00       		.byte	0
 3482 0153 00       		.byte	0
 3483 0154 1D       		.uleb128 0x1d
 3484 0155 05       		.uleb128 0x5
 3485 0156 00       		.byte	0
 3486 0157 03       		.uleb128 0x3
 3487 0158 08       		.uleb128 0x8
 3488 0159 3A       		.uleb128 0x3a
 3489 015a 0B       		.uleb128 0xb
 3490 015b 3B       		.uleb128 0x3b
 3491 015c 0B       		.uleb128 0xb
 3492 015d 49       		.uleb128 0x49
 3493 015e 13       		.uleb128 0x13
 3494 015f 00       		.byte	0
 3495 0160 00       		.byte	0
 3496 0161 1E       		.uleb128 0x1e
 3497 0162 34       		.uleb128 0x34
 3498 0163 00       		.byte	0
 3499 0164 03       		.uleb128 0x3
 3500 0165 08       		.uleb128 0x8
 3501 0166 3A       		.uleb128 0x3a
 3502 0167 0B       		.uleb128 0xb
 3503 0168 3B       		.uleb128 0x3b
 3504 0169 0B       		.uleb128 0xb
 3505 016a 49       		.uleb128 0x49
 3506 016b 13       		.uleb128 0x13
 3507 016c 00       		.byte	0
 3508 016d 00       		.byte	0
 3509 016e 1F       		.uleb128 0x1f
 3510 016f 0B       		.uleb128 0xb
 3511 0170 01       		.byte	0x1
 3512 0171 01       		.uleb128 0x1
 3513 0172 13       		.uleb128 0x13
 3514 0173 00       		.byte	0
 3515 0174 00       		.byte	0
 3516 0175 20       		.uleb128 0x20
 3517 0176 0B       		.uleb128 0xb
 3518 0177 01       		.byte	0x1
 3519 0178 00       		.byte	0
 3520 0179 00       		.byte	0
 3521 017a 21       		.uleb128 0x21
 3522 017b 2E       		.uleb128 0x2e
 3523 017c 01       		.byte	0x1
 3524 017d 03       		.uleb128 0x3
 3525 017e 0E       		.uleb128 0xe
 3526 017f 3A       		.uleb128 0x3a
ARM GAS  /tmp/ccXIrMZk.s 			page 63


 3527 0180 0B       		.uleb128 0xb
 3528 0181 3B       		.uleb128 0x3b
 3529 0182 0B       		.uleb128 0xb
 3530 0183 27       		.uleb128 0x27
 3531 0184 0C       		.uleb128 0xc
 3532 0185 11       		.uleb128 0x11
 3533 0186 01       		.uleb128 0x1
 3534 0187 12       		.uleb128 0x12
 3535 0188 01       		.uleb128 0x1
 3536 0189 40       		.uleb128 0x40
 3537 018a 0A       		.uleb128 0xa
 3538 018b 9742     		.uleb128 0x2117
 3539 018d 0C       		.uleb128 0xc
 3540 018e 01       		.uleb128 0x1
 3541 018f 13       		.uleb128 0x13
 3542 0190 00       		.byte	0
 3543 0191 00       		.byte	0
 3544 0192 22       		.uleb128 0x22
 3545 0193 05       		.uleb128 0x5
 3546 0194 00       		.byte	0
 3547 0195 03       		.uleb128 0x3
 3548 0196 08       		.uleb128 0x8
 3549 0197 3A       		.uleb128 0x3a
 3550 0198 0B       		.uleb128 0xb
 3551 0199 3B       		.uleb128 0x3b
 3552 019a 0B       		.uleb128 0xb
 3553 019b 49       		.uleb128 0x49
 3554 019c 13       		.uleb128 0x13
 3555 019d 02       		.uleb128 0x2
 3556 019e 0A       		.uleb128 0xa
 3557 019f 00       		.byte	0
 3558 01a0 00       		.byte	0
 3559 01a1 23       		.uleb128 0x23
 3560 01a2 2E       		.uleb128 0x2e
 3561 01a3 01       		.byte	0x1
 3562 01a4 3F       		.uleb128 0x3f
 3563 01a5 0C       		.uleb128 0xc
 3564 01a6 03       		.uleb128 0x3
 3565 01a7 0E       		.uleb128 0xe
 3566 01a8 3A       		.uleb128 0x3a
 3567 01a9 0B       		.uleb128 0xb
 3568 01aa 3B       		.uleb128 0x3b
 3569 01ab 05       		.uleb128 0x5
 3570 01ac 27       		.uleb128 0x27
 3571 01ad 0C       		.uleb128 0xc
 3572 01ae 11       		.uleb128 0x11
 3573 01af 01       		.uleb128 0x1
 3574 01b0 12       		.uleb128 0x12
 3575 01b1 01       		.uleb128 0x1
 3576 01b2 40       		.uleb128 0x40
 3577 01b3 06       		.uleb128 0x6
 3578 01b4 9742     		.uleb128 0x2117
 3579 01b6 0C       		.uleb128 0xc
 3580 01b7 01       		.uleb128 0x1
 3581 01b8 13       		.uleb128 0x13
 3582 01b9 00       		.byte	0
 3583 01ba 00       		.byte	0
ARM GAS  /tmp/ccXIrMZk.s 			page 64


 3584 01bb 24       		.uleb128 0x24
 3585 01bc 1D       		.uleb128 0x1d
 3586 01bd 01       		.byte	0x1
 3587 01be 31       		.uleb128 0x31
 3588 01bf 13       		.uleb128 0x13
 3589 01c0 52       		.uleb128 0x52
 3590 01c1 01       		.uleb128 0x1
 3591 01c2 55       		.uleb128 0x55
 3592 01c3 06       		.uleb128 0x6
 3593 01c4 58       		.uleb128 0x58
 3594 01c5 0B       		.uleb128 0xb
 3595 01c6 59       		.uleb128 0x59
 3596 01c7 05       		.uleb128 0x5
 3597 01c8 01       		.uleb128 0x1
 3598 01c9 13       		.uleb128 0x13
 3599 01ca 00       		.byte	0
 3600 01cb 00       		.byte	0
 3601 01cc 25       		.uleb128 0x25
 3602 01cd 0B       		.uleb128 0xb
 3603 01ce 01       		.byte	0x1
 3604 01cf 55       		.uleb128 0x55
 3605 01d0 06       		.uleb128 0x6
 3606 01d1 00       		.byte	0
 3607 01d2 00       		.byte	0
 3608 01d3 26       		.uleb128 0x26
 3609 01d4 34       		.uleb128 0x34
 3610 01d5 00       		.byte	0
 3611 01d6 31       		.uleb128 0x31
 3612 01d7 13       		.uleb128 0x13
 3613 01d8 02       		.uleb128 0x2
 3614 01d9 0A       		.uleb128 0xa
 3615 01da 00       		.byte	0
 3616 01db 00       		.byte	0
 3617 01dc 27       		.uleb128 0x27
 3618 01dd 34       		.uleb128 0x34
 3619 01de 00       		.byte	0
 3620 01df 31       		.uleb128 0x31
 3621 01e0 13       		.uleb128 0x13
 3622 01e1 02       		.uleb128 0x2
 3623 01e2 06       		.uleb128 0x6
 3624 01e3 00       		.byte	0
 3625 01e4 00       		.byte	0
 3626 01e5 28       		.uleb128 0x28
 3627 01e6 05       		.uleb128 0x5
 3628 01e7 00       		.byte	0
 3629 01e8 31       		.uleb128 0x31
 3630 01e9 13       		.uleb128 0x13
 3631 01ea 02       		.uleb128 0x2
 3632 01eb 0A       		.uleb128 0xa
 3633 01ec 00       		.byte	0
 3634 01ed 00       		.byte	0
 3635 01ee 29       		.uleb128 0x29
 3636 01ef 0B       		.uleb128 0xb
 3637 01f0 01       		.byte	0x1
 3638 01f1 11       		.uleb128 0x11
 3639 01f2 01       		.uleb128 0x1
 3640 01f3 12       		.uleb128 0x12
ARM GAS  /tmp/ccXIrMZk.s 			page 65


 3641 01f4 01       		.uleb128 0x1
 3642 01f5 01       		.uleb128 0x1
 3643 01f6 13       		.uleb128 0x13
 3644 01f7 00       		.byte	0
 3645 01f8 00       		.byte	0
 3646 01f9 2A       		.uleb128 0x2a
 3647 01fa 1D       		.uleb128 0x1d
 3648 01fb 01       		.byte	0x1
 3649 01fc 31       		.uleb128 0x31
 3650 01fd 13       		.uleb128 0x13
 3651 01fe 11       		.uleb128 0x11
 3652 01ff 01       		.uleb128 0x1
 3653 0200 12       		.uleb128 0x12
 3654 0201 01       		.uleb128 0x1
 3655 0202 58       		.uleb128 0x58
 3656 0203 0B       		.uleb128 0xb
 3657 0204 59       		.uleb128 0x59
 3658 0205 0B       		.uleb128 0xb
 3659 0206 01       		.uleb128 0x1
 3660 0207 13       		.uleb128 0x13
 3661 0208 00       		.byte	0
 3662 0209 00       		.byte	0
 3663 020a 2B       		.uleb128 0x2b
 3664 020b 05       		.uleb128 0x5
 3665 020c 00       		.byte	0
 3666 020d 31       		.uleb128 0x31
 3667 020e 13       		.uleb128 0x13
 3668 020f 02       		.uleb128 0x2
 3669 0210 06       		.uleb128 0x6
 3670 0211 00       		.byte	0
 3671 0212 00       		.byte	0
 3672 0213 2C       		.uleb128 0x2c
 3673 0214 0B       		.uleb128 0xb
 3674 0215 01       		.byte	0x1
 3675 0216 11       		.uleb128 0x11
 3676 0217 01       		.uleb128 0x1
 3677 0218 12       		.uleb128 0x12
 3678 0219 01       		.uleb128 0x1
 3679 021a 00       		.byte	0
 3680 021b 00       		.byte	0
 3681 021c 2D       		.uleb128 0x2d
 3682 021d 898201   		.uleb128 0x4109
 3683 0220 00       		.byte	0
 3684 0221 11       		.uleb128 0x11
 3685 0222 01       		.uleb128 0x1
 3686 0223 31       		.uleb128 0x31
 3687 0224 13       		.uleb128 0x13
 3688 0225 00       		.byte	0
 3689 0226 00       		.byte	0
 3690 0227 2E       		.uleb128 0x2e
 3691 0228 898201   		.uleb128 0x4109
 3692 022b 01       		.byte	0x1
 3693 022c 11       		.uleb128 0x11
 3694 022d 01       		.uleb128 0x1
 3695 022e 31       		.uleb128 0x31
 3696 022f 13       		.uleb128 0x13
 3697 0230 01       		.uleb128 0x1
ARM GAS  /tmp/ccXIrMZk.s 			page 66


 3698 0231 13       		.uleb128 0x13
 3699 0232 00       		.byte	0
 3700 0233 00       		.byte	0
 3701 0234 2F       		.uleb128 0x2f
 3702 0235 8A8201   		.uleb128 0x410a
 3703 0238 00       		.byte	0
 3704 0239 02       		.uleb128 0x2
 3705 023a 0A       		.uleb128 0xa
 3706 023b 9142     		.uleb128 0x2111
 3707 023d 0A       		.uleb128 0xa
 3708 023e 00       		.byte	0
 3709 023f 00       		.byte	0
 3710 0240 30       		.uleb128 0x30
 3711 0241 898201   		.uleb128 0x4109
 3712 0244 01       		.byte	0x1
 3713 0245 11       		.uleb128 0x11
 3714 0246 01       		.uleb128 0x1
 3715 0247 31       		.uleb128 0x31
 3716 0248 13       		.uleb128 0x13
 3717 0249 00       		.byte	0
 3718 024a 00       		.byte	0
 3719 024b 31       		.uleb128 0x31
 3720 024c 898201   		.uleb128 0x4109
 3721 024f 00       		.byte	0
 3722 0250 11       		.uleb128 0x11
 3723 0251 01       		.uleb128 0x1
 3724 0252 9542     		.uleb128 0x2115
 3725 0254 0C       		.uleb128 0xc
 3726 0255 31       		.uleb128 0x31
 3727 0256 13       		.uleb128 0x13
 3728 0257 00       		.byte	0
 3729 0258 00       		.byte	0
 3730 0259 32       		.uleb128 0x32
 3731 025a 05       		.uleb128 0x5
 3732 025b 00       		.byte	0
 3733 025c 03       		.uleb128 0x3
 3734 025d 0E       		.uleb128 0xe
 3735 025e 3A       		.uleb128 0x3a
 3736 025f 0B       		.uleb128 0xb
 3737 0260 3B       		.uleb128 0x3b
 3738 0261 0B       		.uleb128 0xb
 3739 0262 49       		.uleb128 0x49
 3740 0263 13       		.uleb128 0x13
 3741 0264 00       		.byte	0
 3742 0265 00       		.byte	0
 3743 0266 33       		.uleb128 0x33
 3744 0267 05       		.uleb128 0x5
 3745 0268 00       		.byte	0
 3746 0269 03       		.uleb128 0x3
 3747 026a 08       		.uleb128 0x8
 3748 026b 3A       		.uleb128 0x3a
 3749 026c 0B       		.uleb128 0xb
 3750 026d 3B       		.uleb128 0x3b
 3751 026e 05       		.uleb128 0x5
 3752 026f 49       		.uleb128 0x49
 3753 0270 13       		.uleb128 0x13
 3754 0271 02       		.uleb128 0x2
ARM GAS  /tmp/ccXIrMZk.s 			page 67


 3755 0272 06       		.uleb128 0x6
 3756 0273 00       		.byte	0
 3757 0274 00       		.byte	0
 3758 0275 34       		.uleb128 0x34
 3759 0276 05       		.uleb128 0x5
 3760 0277 00       		.byte	0
 3761 0278 03       		.uleb128 0x3
 3762 0279 0E       		.uleb128 0xe
 3763 027a 3A       		.uleb128 0x3a
 3764 027b 0B       		.uleb128 0xb
 3765 027c 3B       		.uleb128 0x3b
 3766 027d 05       		.uleb128 0x5
 3767 027e 49       		.uleb128 0x49
 3768 027f 13       		.uleb128 0x13
 3769 0280 02       		.uleb128 0x2
 3770 0281 06       		.uleb128 0x6
 3771 0282 00       		.byte	0
 3772 0283 00       		.byte	0
 3773 0284 35       		.uleb128 0x35
 3774 0285 1D       		.uleb128 0x1d
 3775 0286 01       		.byte	0x1
 3776 0287 31       		.uleb128 0x31
 3777 0288 13       		.uleb128 0x13
 3778 0289 11       		.uleb128 0x11
 3779 028a 01       		.uleb128 0x1
 3780 028b 12       		.uleb128 0x12
 3781 028c 01       		.uleb128 0x1
 3782 028d 58       		.uleb128 0x58
 3783 028e 0B       		.uleb128 0xb
 3784 028f 59       		.uleb128 0x59
 3785 0290 05       		.uleb128 0x5
 3786 0291 01       		.uleb128 0x1
 3787 0292 13       		.uleb128 0x13
 3788 0293 00       		.byte	0
 3789 0294 00       		.byte	0
 3790 0295 36       		.uleb128 0x36
 3791 0296 2E       		.uleb128 0x2e
 3792 0297 01       		.byte	0x1
 3793 0298 3F       		.uleb128 0x3f
 3794 0299 0C       		.uleb128 0xc
 3795 029a 03       		.uleb128 0x3
 3796 029b 0E       		.uleb128 0xe
 3797 029c 3A       		.uleb128 0x3a
 3798 029d 0B       		.uleb128 0xb
 3799 029e 3B       		.uleb128 0x3b
 3800 029f 05       		.uleb128 0x5
 3801 02a0 27       		.uleb128 0x27
 3802 02a1 0C       		.uleb128 0xc
 3803 02a2 11       		.uleb128 0x11
 3804 02a3 01       		.uleb128 0x1
 3805 02a4 12       		.uleb128 0x12
 3806 02a5 01       		.uleb128 0x1
 3807 02a6 40       		.uleb128 0x40
 3808 02a7 0A       		.uleb128 0xa
 3809 02a8 9742     		.uleb128 0x2117
 3810 02aa 0C       		.uleb128 0xc
 3811 02ab 01       		.uleb128 0x1
ARM GAS  /tmp/ccXIrMZk.s 			page 68


 3812 02ac 13       		.uleb128 0x13
 3813 02ad 00       		.byte	0
 3814 02ae 00       		.byte	0
 3815 02af 37       		.uleb128 0x37
 3816 02b0 898201   		.uleb128 0x4109
 3817 02b3 01       		.byte	0x1
 3818 02b4 11       		.uleb128 0x11
 3819 02b5 01       		.uleb128 0x1
 3820 02b6 9542     		.uleb128 0x2115
 3821 02b8 0C       		.uleb128 0xc
 3822 02b9 31       		.uleb128 0x31
 3823 02ba 13       		.uleb128 0x13
 3824 02bb 00       		.byte	0
 3825 02bc 00       		.byte	0
 3826 02bd 38       		.uleb128 0x38
 3827 02be 34       		.uleb128 0x34
 3828 02bf 00       		.byte	0
 3829 02c0 03       		.uleb128 0x3
 3830 02c1 0E       		.uleb128 0xe
 3831 02c2 3A       		.uleb128 0x3a
 3832 02c3 0B       		.uleb128 0xb
 3833 02c4 3B       		.uleb128 0x3b
 3834 02c5 0B       		.uleb128 0xb
 3835 02c6 49       		.uleb128 0x49
 3836 02c7 13       		.uleb128 0x13
 3837 02c8 02       		.uleb128 0x2
 3838 02c9 0A       		.uleb128 0xa
 3839 02ca 00       		.byte	0
 3840 02cb 00       		.byte	0
 3841 02cc 39       		.uleb128 0x39
 3842 02cd 34       		.uleb128 0x34
 3843 02ce 00       		.byte	0
 3844 02cf 03       		.uleb128 0x3
 3845 02d0 0E       		.uleb128 0xe
 3846 02d1 3A       		.uleb128 0x3a
 3847 02d2 0B       		.uleb128 0xb
 3848 02d3 3B       		.uleb128 0x3b
 3849 02d4 05       		.uleb128 0x5
 3850 02d5 49       		.uleb128 0x49
 3851 02d6 13       		.uleb128 0x13
 3852 02d7 3F       		.uleb128 0x3f
 3853 02d8 0C       		.uleb128 0xc
 3854 02d9 3C       		.uleb128 0x3c
 3855 02da 0C       		.uleb128 0xc
 3856 02db 00       		.byte	0
 3857 02dc 00       		.byte	0
 3858 02dd 3A       		.uleb128 0x3a
 3859 02de 34       		.uleb128 0x34
 3860 02df 00       		.byte	0
 3861 02e0 03       		.uleb128 0x3
 3862 02e1 08       		.uleb128 0x8
 3863 02e2 3A       		.uleb128 0x3a
 3864 02e3 0B       		.uleb128 0xb
 3865 02e4 3B       		.uleb128 0x3b
 3866 02e5 0B       		.uleb128 0xb
 3867 02e6 49       		.uleb128 0x49
 3868 02e7 13       		.uleb128 0x13
ARM GAS  /tmp/ccXIrMZk.s 			page 69


 3869 02e8 3F       		.uleb128 0x3f
 3870 02e9 0C       		.uleb128 0xc
 3871 02ea 02       		.uleb128 0x2
 3872 02eb 0A       		.uleb128 0xa
 3873 02ec 00       		.byte	0
 3874 02ed 00       		.byte	0
 3875 02ee 3B       		.uleb128 0x3b
 3876 02ef 2E       		.uleb128 0x2e
 3877 02f0 00       		.byte	0
 3878 02f1 3F       		.uleb128 0x3f
 3879 02f2 0C       		.uleb128 0xc
 3880 02f3 03       		.uleb128 0x3
 3881 02f4 0E       		.uleb128 0xe
 3882 02f5 3A       		.uleb128 0x3a
 3883 02f6 0B       		.uleb128 0xb
 3884 02f7 3B       		.uleb128 0x3b
 3885 02f8 0B       		.uleb128 0xb
 3886 02f9 27       		.uleb128 0x27
 3887 02fa 0C       		.uleb128 0xc
 3888 02fb 3C       		.uleb128 0x3c
 3889 02fc 0C       		.uleb128 0xc
 3890 02fd 00       		.byte	0
 3891 02fe 00       		.byte	0
 3892 02ff 3C       		.uleb128 0x3c
 3893 0300 2E       		.uleb128 0x2e
 3894 0301 01       		.byte	0x1
 3895 0302 3F       		.uleb128 0x3f
 3896 0303 0C       		.uleb128 0xc
 3897 0304 03       		.uleb128 0x3
 3898 0305 0E       		.uleb128 0xe
 3899 0306 3A       		.uleb128 0x3a
 3900 0307 0B       		.uleb128 0xb
 3901 0308 3B       		.uleb128 0x3b
 3902 0309 0B       		.uleb128 0xb
 3903 030a 27       		.uleb128 0x27
 3904 030b 0C       		.uleb128 0xc
 3905 030c 3C       		.uleb128 0x3c
 3906 030d 0C       		.uleb128 0xc
 3907 030e 01       		.uleb128 0x1
 3908 030f 13       		.uleb128 0x13
 3909 0310 00       		.byte	0
 3910 0311 00       		.byte	0
 3911 0312 3D       		.uleb128 0x3d
 3912 0313 2E       		.uleb128 0x2e
 3913 0314 01       		.byte	0x1
 3914 0315 3F       		.uleb128 0x3f
 3915 0316 0C       		.uleb128 0xc
 3916 0317 03       		.uleb128 0x3
 3917 0318 0E       		.uleb128 0xe
 3918 0319 3A       		.uleb128 0x3a
 3919 031a 0B       		.uleb128 0xb
 3920 031b 3B       		.uleb128 0x3b
 3921 031c 05       		.uleb128 0x5
 3922 031d 27       		.uleb128 0x27
 3923 031e 0C       		.uleb128 0xc
 3924 031f 49       		.uleb128 0x49
 3925 0320 13       		.uleb128 0x13
ARM GAS  /tmp/ccXIrMZk.s 			page 70


 3926 0321 3C       		.uleb128 0x3c
 3927 0322 0C       		.uleb128 0xc
 3928 0323 01       		.uleb128 0x1
 3929 0324 13       		.uleb128 0x13
 3930 0325 00       		.byte	0
 3931 0326 00       		.byte	0
 3932 0327 3E       		.uleb128 0x3e
 3933 0328 2E       		.uleb128 0x2e
 3934 0329 01       		.byte	0x1
 3935 032a 3F       		.uleb128 0x3f
 3936 032b 0C       		.uleb128 0xc
 3937 032c 03       		.uleb128 0x3
 3938 032d 0E       		.uleb128 0xe
 3939 032e 3A       		.uleb128 0x3a
 3940 032f 0B       		.uleb128 0xb
 3941 0330 3B       		.uleb128 0x3b
 3942 0331 05       		.uleb128 0x5
 3943 0332 27       		.uleb128 0x27
 3944 0333 0C       		.uleb128 0xc
 3945 0334 3C       		.uleb128 0x3c
 3946 0335 0C       		.uleb128 0xc
 3947 0336 01       		.uleb128 0x1
 3948 0337 13       		.uleb128 0x13
 3949 0338 00       		.byte	0
 3950 0339 00       		.byte	0
 3951 033a 3F       		.uleb128 0x3f
 3952 033b 2E       		.uleb128 0x2e
 3953 033c 00       		.byte	0
 3954 033d 3F       		.uleb128 0x3f
 3955 033e 0C       		.uleb128 0xc
 3956 033f 03       		.uleb128 0x3
 3957 0340 0E       		.uleb128 0xe
 3958 0341 3A       		.uleb128 0x3a
 3959 0342 0B       		.uleb128 0xb
 3960 0343 3B       		.uleb128 0x3b
 3961 0344 05       		.uleb128 0x5
 3962 0345 27       		.uleb128 0x27
 3963 0346 0C       		.uleb128 0xc
 3964 0347 3C       		.uleb128 0x3c
 3965 0348 0C       		.uleb128 0xc
 3966 0349 00       		.byte	0
 3967 034a 00       		.byte	0
 3968 034b 40       		.uleb128 0x40
 3969 034c 2E       		.uleb128 0x2e
 3970 034d 01       		.byte	0x1
 3971 034e 3F       		.uleb128 0x3f
 3972 034f 0C       		.uleb128 0xc
 3973 0350 03       		.uleb128 0x3
 3974 0351 0E       		.uleb128 0xe
 3975 0352 3A       		.uleb128 0x3a
 3976 0353 0B       		.uleb128 0xb
 3977 0354 3B       		.uleb128 0x3b
 3978 0355 05       		.uleb128 0x5
 3979 0356 27       		.uleb128 0x27
 3980 0357 0C       		.uleb128 0xc
 3981 0358 3C       		.uleb128 0x3c
 3982 0359 0C       		.uleb128 0xc
ARM GAS  /tmp/ccXIrMZk.s 			page 71


 3983 035a 00       		.byte	0
 3984 035b 00       		.byte	0
 3985 035c 00       		.byte	0
 3986              		.section	.debug_loc,"",%progbits
 3987              	.Ldebug_loc0:
 3988              	.LLST0:
 3989 0000 00000000 		.4byte	.LFB123
 3990 0004 04000000 		.4byte	.LCFI0
 3991 0008 0200     		.2byte	0x2
 3992 000a 7D       		.byte	0x7d
 3993 000b 00       		.sleb128 0
 3994 000c 04000000 		.4byte	.LCFI0
 3995 0010 6C010000 		.4byte	.LFE123
 3996 0014 0200     		.2byte	0x2
 3997 0016 7D       		.byte	0x7d
 3998 0017 18       		.sleb128 24
 3999 0018 00000000 		.4byte	0
 4000 001c 00000000 		.4byte	0
 4001              	.LLST1:
 4002 0020 18000000 		.4byte	.LVL3
 4003 0024 46000000 		.4byte	.LVL10
 4004 0028 0100     		.2byte	0x1
 4005 002a 54       		.byte	0x54
 4006 002b 86000000 		.4byte	.LVL21
 4007 002f 6C010000 		.4byte	.LFE123
 4008 0033 0100     		.2byte	0x1
 4009 0035 54       		.byte	0x54
 4010 0036 00000000 		.4byte	0
 4011 003a 00000000 		.4byte	0
 4012              	.LLST2:
 4013 003e 1A000000 		.4byte	.LVL4
 4014 0042 1C000000 		.4byte	.LVL5
 4015 0046 0100     		.2byte	0x1
 4016 0048 51       		.byte	0x51
 4017 0049 1C000000 		.4byte	.LVL5
 4018 004d D0000000 		.4byte	.LVL37
 4019 0051 0100     		.2byte	0x1
 4020 0053 57       		.byte	0x57
 4021 0054 D0000000 		.4byte	.LVL37
 4022 0058 0F010000 		.4byte	.LVL44-1
 4023 005c 0100     		.2byte	0x1
 4024 005e 51       		.byte	0x51
 4025 005f 0F010000 		.4byte	.LVL44-1
 4026 0063 6C010000 		.4byte	.LFE123
 4027 0067 0100     		.2byte	0x1
 4028 0069 57       		.byte	0x57
 4029 006a 00000000 		.4byte	0
 4030 006e 00000000 		.4byte	0
 4031              	.LLST3:
 4032 0072 50000000 		.4byte	.LVL12
 4033 0076 53000000 		.4byte	.LVL13-1
 4034 007a 0100     		.2byte	0x1
 4035 007c 53       		.byte	0x53
 4036 007d 00000000 		.4byte	0
 4037 0081 00000000 		.4byte	0
 4038              	.LLST4:
 4039 0085 66000000 		.4byte	.LVL17
ARM GAS  /tmp/ccXIrMZk.s 			page 72


 4040 0089 6A000000 		.4byte	.LVL18
 4041 008d 0100     		.2byte	0x1
 4042 008f 53       		.byte	0x53
 4043 0090 00000000 		.4byte	0
 4044 0094 00000000 		.4byte	0
 4045              	.LLST5:
 4046 0098 8C000000 		.4byte	.LVL23
 4047 009c 8F000000 		.4byte	.LVL24-1
 4048 00a0 0100     		.2byte	0x1
 4049 00a2 53       		.byte	0x53
 4050 00a3 00000000 		.4byte	0
 4051 00a7 00000000 		.4byte	0
 4052              	.LLST6:
 4053 00ab 30000000 		.4byte	.LVL7
 4054 00af 34000000 		.4byte	.LVL8
 4055 00b3 0100     		.2byte	0x1
 4056 00b5 53       		.byte	0x53
 4057 00b6 A2000000 		.4byte	.LVL27
 4058 00ba A4000000 		.4byte	.LVL28
 4059 00be 0100     		.2byte	0x1
 4060 00c0 53       		.byte	0x53
 4061 00c1 00000000 		.4byte	0
 4062 00c5 00000000 		.4byte	0
 4063              	.LLST7:
 4064 00c9 AA000000 		.4byte	.LVL30
 4065 00cd AD000000 		.4byte	.LVL31-1
 4066 00d1 0100     		.2byte	0x1
 4067 00d3 53       		.byte	0x53
 4068 00d4 00000000 		.4byte	0
 4069 00d8 00000000 		.4byte	0
 4070              	.LLST8:
 4071 00dc C2000000 		.4byte	.LVL35
 4072 00e0 C4000000 		.4byte	.LVL36
 4073 00e4 0100     		.2byte	0x1
 4074 00e6 53       		.byte	0x53
 4075 00e7 00000000 		.4byte	0
 4076 00eb 00000000 		.4byte	0
 4077              	.LLST9:
 4078 00ef D0000000 		.4byte	.LVL37
 4079 00f3 24010000 		.4byte	.LVL48
 4080 00f7 0100     		.2byte	0x1
 4081 00f9 54       		.byte	0x54
 4082 00fa 00000000 		.4byte	0
 4083 00fe 00000000 		.4byte	0
 4084              	.LLST10:
 4085 0102 D0000000 		.4byte	.LVL37
 4086 0106 E6000000 		.4byte	.LVL38
 4087 010a 0200     		.2byte	0x2
 4088 010c 30       		.byte	0x30
 4089 010d 9F       		.byte	0x9f
 4090 010e E6000000 		.4byte	.LVL38
 4091 0112 24010000 		.4byte	.LVL48
 4092 0116 0100     		.2byte	0x1
 4093 0118 58       		.byte	0x58
 4094 0119 00000000 		.4byte	0
 4095 011d 00000000 		.4byte	0
 4096              	.LLST11:
ARM GAS  /tmp/ccXIrMZk.s 			page 73


 4097 0121 D0000000 		.4byte	.LVL37
 4098 0125 24010000 		.4byte	.LVL48
 4099 0129 0600     		.2byte	0x6
 4100 012b 03       		.byte	0x3
 4101 012c 00000000 		.4byte	SD6
 4102 0130 9F       		.byte	0x9f
 4103 0131 00000000 		.4byte	0
 4104 0135 00000000 		.4byte	0
 4105              	.LLST12:
 4106 0139 0C010000 		.4byte	.LVL43
 4107 013d 0F010000 		.4byte	.LVL44-1
 4108 0141 0100     		.2byte	0x1
 4109 0143 53       		.byte	0x53
 4110 0144 00000000 		.4byte	0
 4111 0148 00000000 		.4byte	0
 4112              	.LLST13:
 4113 014c 1C000000 		.4byte	.LVL5
 4114 0150 20000000 		.4byte	.LVL6
 4115 0154 0100     		.2byte	0x1
 4116 0156 53       		.byte	0x53
 4117 0157 22010000 		.4byte	.LVL47
 4118 015b 24010000 		.4byte	.LVL48
 4119 015f 0100     		.2byte	0x1
 4120 0161 53       		.byte	0x53
 4121 0162 00000000 		.4byte	0
 4122 0166 00000000 		.4byte	0
 4123              	.LLST14:
 4124 016a 34010000 		.4byte	.LVL52
 4125 016e 3A010000 		.4byte	.LVL53
 4126 0172 0100     		.2byte	0x1
 4127 0174 50       		.byte	0x50
 4128 0175 00000000 		.4byte	0
 4129 0179 00000000 		.4byte	0
 4130              	.LLST15:
 4131 017d 2A010000 		.4byte	.LVL50
 4132 0181 2D010000 		.4byte	.LVL51-1
 4133 0185 0100     		.2byte	0x1
 4134 0187 53       		.byte	0x53
 4135 0188 00000000 		.4byte	0
 4136 018c 00000000 		.4byte	0
 4137              	.LLST16:
 4138 0190 42000000 		.4byte	.LVL9
 4139 0194 4C000000 		.4byte	.LVL11
 4140 0198 0100     		.2byte	0x1
 4141 019a 53       		.byte	0x53
 4142 019b 7A000000 		.4byte	.LVL19
 4143 019f 7D000000 		.4byte	.LVL20-1
 4144 01a3 0100     		.2byte	0x1
 4145 01a5 53       		.byte	0x53
 4146 01a6 48010000 		.4byte	.LVL55
 4147 01aa 4A010000 		.4byte	.LVL56
 4148 01ae 0100     		.2byte	0x1
 4149 01b0 53       		.byte	0x53
 4150 01b1 00000000 		.4byte	0
 4151 01b5 00000000 		.4byte	0
 4152              	.LLST17:
 4153 01b9 00000000 		.4byte	.LFB124
ARM GAS  /tmp/ccXIrMZk.s 			page 74


 4154 01bd 02000000 		.4byte	.LCFI1
 4155 01c1 0200     		.2byte	0x2
 4156 01c3 7D       		.byte	0x7d
 4157 01c4 00       		.sleb128 0
 4158 01c5 02000000 		.4byte	.LCFI1
 4159 01c9 26000000 		.4byte	.LFE124
 4160 01cd 0200     		.2byte	0x2
 4161 01cf 7D       		.byte	0x7d
 4162 01d0 08       		.sleb128 8
 4163 01d1 00000000 		.4byte	0
 4164 01d5 00000000 		.4byte	0
 4165              	.LLST18:
 4166 01d9 00000000 		.4byte	.LFB125
 4167 01dd 02000000 		.4byte	.LCFI2
 4168 01e1 0200     		.2byte	0x2
 4169 01e3 7D       		.byte	0x7d
 4170 01e4 00       		.sleb128 0
 4171 01e5 02000000 		.4byte	.LCFI2
 4172 01e9 9C000000 		.4byte	.LFE125
 4173 01ed 0200     		.2byte	0x2
 4174 01ef 7D       		.byte	0x7d
 4175 01f0 10       		.sleb128 16
 4176 01f1 00000000 		.4byte	0
 4177 01f5 00000000 		.4byte	0
 4178              	.LLST19:
 4179 01f9 00000000 		.4byte	.LVL59
 4180 01fd 12000000 		.4byte	.LVL61
 4181 0201 0100     		.2byte	0x1
 4182 0203 50       		.byte	0x50
 4183 0204 12000000 		.4byte	.LVL61
 4184 0208 74000000 		.4byte	.LVL64
 4185 020c 0100     		.2byte	0x1
 4186 020e 55       		.byte	0x55
 4187 020f 74000000 		.4byte	.LVL64
 4188 0213 84000000 		.4byte	.LVL65
 4189 0217 0100     		.2byte	0x1
 4190 0219 50       		.byte	0x50
 4191 021a 84000000 		.4byte	.LVL65
 4192 021e 9C000000 		.4byte	.LFE125
 4193 0222 0100     		.2byte	0x1
 4194 0224 55       		.byte	0x55
 4195 0225 00000000 		.4byte	0
 4196 0229 00000000 		.4byte	0
 4197              	.LLST20:
 4198 022d 00000000 		.4byte	.LVL59
 4199 0231 0C000000 		.4byte	.LVL60
 4200 0235 0100     		.2byte	0x1
 4201 0237 51       		.byte	0x51
 4202 0238 0C000000 		.4byte	.LVL60
 4203 023c 9C000000 		.4byte	.LFE125
 4204 0240 0100     		.2byte	0x1
 4205 0242 54       		.byte	0x54
 4206 0243 00000000 		.4byte	0
 4207 0247 00000000 		.4byte	0
 4208              	.LLST21:
 4209 024b 12000000 		.4byte	.LVL61
 4210 024f 74000000 		.4byte	.LVL64
ARM GAS  /tmp/ccXIrMZk.s 			page 75


 4211 0253 0100     		.2byte	0x1
 4212 0255 54       		.byte	0x54
 4213 0256 00000000 		.4byte	0
 4214 025a 00000000 		.4byte	0
 4215              	.LLST22:
 4216 025e 12000000 		.4byte	.LVL61
 4217 0262 74000000 		.4byte	.LVL64
 4218 0266 0100     		.2byte	0x1
 4219 0268 55       		.byte	0x55
 4220 0269 00000000 		.4byte	0
 4221 026d 00000000 		.4byte	0
 4222              	.LLST23:
 4223 0271 14000000 		.4byte	.LVL62
 4224 0275 72000000 		.4byte	.LVL63
 4225 0279 0100     		.2byte	0x1
 4226 027b 53       		.byte	0x53
 4227 027c 72000000 		.4byte	.LVL63
 4228 0280 74000000 		.4byte	.LVL64
 4229 0284 0300     		.2byte	0x3
 4230 0286 75       		.byte	0x75
 4231 0287 F400     		.sleb128 116
 4232 0289 00000000 		.4byte	0
 4233 028d 00000000 		.4byte	0
 4234              	.LLST24:
 4235 0291 00000000 		.4byte	.LVL67
 4236 0295 22000000 		.4byte	.LVL70
 4237 0299 0100     		.2byte	0x1
 4238 029b 50       		.byte	0x50
 4239 029c 22000000 		.4byte	.LVL70
 4240 02a0 34000000 		.4byte	.LFE126
 4241 02a4 0400     		.2byte	0x4
 4242 02a6 F3       		.byte	0xf3
 4243 02a7 01       		.uleb128 0x1
 4244 02a8 50       		.byte	0x50
 4245 02a9 9F       		.byte	0x9f
 4246 02aa 00000000 		.4byte	0
 4247 02ae 00000000 		.4byte	0
 4248              	.LLST25:
 4249 02b2 0A000000 		.4byte	.LVL68
 4250 02b6 14000000 		.4byte	.LVL69
 4251 02ba 0100     		.2byte	0x1
 4252 02bc 53       		.byte	0x53
 4253 02bd 14000000 		.4byte	.LVL69
 4254 02c1 22000000 		.4byte	.LVL70
 4255 02c5 0300     		.2byte	0x3
 4256 02c7 70       		.byte	0x70
 4257 02c8 F400     		.sleb128 116
 4258 02ca 22000000 		.4byte	.LVL70
 4259 02ce 2D000000 		.4byte	.LVL71-1
 4260 02d2 0500     		.2byte	0x5
 4261 02d4 F3       		.byte	0xf3
 4262 02d5 01       		.uleb128 0x1
 4263 02d6 50       		.byte	0x50
 4264 02d7 23       		.byte	0x23
 4265 02d8 74       		.uleb128 0x74
 4266 02d9 00000000 		.4byte	0
 4267 02dd 00000000 		.4byte	0
ARM GAS  /tmp/ccXIrMZk.s 			page 76


 4268              		.section	.debug_aranges,"",%progbits
 4269 0000 3C000000 		.4byte	0x3c
 4270 0004 0200     		.2byte	0x2
 4271 0006 00000000 		.4byte	.Ldebug_info0
 4272 000a 04       		.byte	0x4
 4273 000b 00       		.byte	0
 4274 000c 0000     		.2byte	0
 4275 000e 0000     		.2byte	0
 4276 0010 00000000 		.4byte	.LFB122
 4277 0014 14000000 		.4byte	.LFE122-.LFB122
 4278 0018 00000000 		.4byte	.LFB123
 4279 001c 6C010000 		.4byte	.LFE123-.LFB123
 4280 0020 00000000 		.4byte	.LFB124
 4281 0024 26000000 		.4byte	.LFE124-.LFB124
 4282 0028 00000000 		.4byte	.LFB125
 4283 002c 9C000000 		.4byte	.LFE125-.LFB125
 4284 0030 00000000 		.4byte	.LFB126
 4285 0034 34000000 		.4byte	.LFE126-.LFB126
 4286 0038 00000000 		.4byte	0
 4287 003c 00000000 		.4byte	0
 4288              		.section	.debug_ranges,"",%progbits
 4289              	.Ldebug_ranges0:
 4290 0000 08000000 		.4byte	.LBB30
 4291 0004 7A000000 		.4byte	.LBE30
 4292 0008 86000000 		.4byte	.LBB46
 4293 000c 6C010000 		.4byte	.LBE46
 4294 0010 00000000 		.4byte	0
 4295 0014 00000000 		.4byte	0
 4296 0018 08000000 		.4byte	.LBB31
 4297 001c 7A000000 		.4byte	.LBE31
 4298 0020 86000000 		.4byte	.LBB45
 4299 0024 6C010000 		.4byte	.LBE45
 4300 0028 00000000 		.4byte	0
 4301 002c 00000000 		.4byte	0
 4302 0030 00000000 		.4byte	.LFB122
 4303 0034 14000000 		.4byte	.LFE122
 4304 0038 00000000 		.4byte	.LFB123
 4305 003c 6C010000 		.4byte	.LFE123
 4306 0040 00000000 		.4byte	.LFB124
 4307 0044 26000000 		.4byte	.LFE124
 4308 0048 00000000 		.4byte	.LFB125
 4309 004c 9C000000 		.4byte	.LFE125
 4310 0050 00000000 		.4byte	.LFB126
 4311 0054 34000000 		.4byte	.LFE126
 4312 0058 00000000 		.4byte	0
 4313 005c 00000000 		.4byte	0
 4314              		.section	.debug_line,"",%progbits
 4315              	.Ldebug_line0:
 4316 0000 B3030000 		.section	.debug_str,"MS",%progbits,1
 4316      0200E002 
 4316      00000201 
 4316      FB0E0D00 
 4316      01010101 
 4317              	.LASF2:
 4318 0000 73697A65 		.ascii	"size_t\000"
 4318      5F7400
 4319              	.LASF132:
ARM GAS  /tmp/ccXIrMZk.s 			page 77


 4320 0007 54494D38 		.ascii	"TIM8_UP_TIM13_IRQn\000"
 4320      5F55505F 
 4320      54494D31 
 4320      335F4952 
 4320      516E00
 4321              	.LASF51:
 4322 001a 73697A65 		.ascii	"sizetype\000"
 4322      74797065 
 4322      00
 4323              	.LASF23:
 4324 0023 73797374 		.ascii	"systime_t\000"
 4324      696D655F 
 4324      7400
 4325              	.LASF196:
 4326 002d 504C4C49 		.ascii	"PLLI2SCFGR\000"
 4326      32534346 
 4326      475200
 4327              	.LASF28:
 4328 0038 705F6374 		.ascii	"p_ctx\000"
 4328      7800
 4329              	.LASF19:
 4330 003e 74707269 		.ascii	"tprio_t\000"
 4330      6F5F7400 
 4331              	.LASF39:
 4332 0046 705F6D73 		.ascii	"p_msgqueue\000"
 4332      67717565 
 4332      756500
 4333              	.LASF8:
 4334 0051 696E7433 		.ascii	"int32_t\000"
 4334      325F7400 
 4335              	.LASF214:
 4336 0059 53657269 		.ascii	"SerialConfig\000"
 4336      616C436F 
 4336      6E666967 
 4336      00
 4337              	.LASF220:
 4338 0066 77726974 		.ascii	"writet\000"
 4338      657400
 4339              	.LASF198:
 4340 006d 47545052 		.ascii	"GTPR\000"
 4340      00
 4341              	.LASF216:
 4342 0072 77726974 		.ascii	"write\000"
 4342      6500
 4343              	.LASF145:
 4344 0078 444D4132 		.ascii	"DMA2_Stream1_IRQn\000"
 4344      5F537472 
 4344      65616D31 
 4344      5F495251 
 4344      6E00
 4345              	.LASF139:
 4346 008a 53504933 		.ascii	"SPI3_IRQn\000"
 4346      5F495251 
 4346      6E00
 4347              	.LASF92:
 4348 0094 464C4153 		.ascii	"FLASH_IRQn\000"
 4348      485F4952 
ARM GAS  /tmp/ccXIrMZk.s 			page 78


 4348      516E00
 4349              	.LASF166:
 4350 009f 44434D49 		.ascii	"DCMI_IRQn\000"
 4350      5F495251 
 4350      6E00
 4351              	.LASF60:
 4352 00a9 656C5F66 		.ascii	"el_flags\000"
 4352      6C616773 
 4352      00
 4353              	.LASF228:
 4354 00b2 636F6E66 		.ascii	"config\000"
 4354      696700
 4355              	.LASF206:
 4356 00b9 73746174 		.ascii	"state\000"
 4356      6500
 4357              	.LASF218:
 4358 00bf 70757474 		.ascii	"putt\000"
 4358      00
 4359              	.LASF116:
 4360 00c4 54494D32 		.ascii	"TIM2_IRQn\000"
 4360      5F495251 
 4360      6E00
 4361              	.LASF241:
 4362 00ce 474E5520 		.ascii	"GNU C 4.7.2\000"
 4362      4320342E 
 4362      372E3200 
 4363              	.LASF224:
 4364 00da 73657276 		.ascii	"serve_interrupt\000"
 4364      655F696E 
 4364      74657272 
 4364      75707400 
 4365              	.LASF223:
 4366 00ea 7365745F 		.ascii	"set_error\000"
 4366      6572726F 
 4366      7200
 4367              	.LASF152:
 4368 00f4 43414E32 		.ascii	"CAN2_RX0_IRQn\000"
 4368      5F525830 
 4368      5F495251 
 4368      6E00
 4369              	.LASF159:
 4370 0102 55534152 		.ascii	"USART6_IRQn\000"
 4370      54365F49 
 4370      52516E00 
 4371              	.LASF54:
 4372 010e 6D5F6F77 		.ascii	"m_owner\000"
 4372      6E657200 
 4373              	.LASF64:
 4374 0116 65786974 		.ascii	"exitcode\000"
 4374      636F6465 
 4374      00
 4375              	.LASF164:
 4376 011f 4F54475F 		.ascii	"OTG_HS_WKUP_IRQn\000"
 4376      48535F57 
 4376      4B55505F 
 4376      4952516E 
 4376      00
ARM GAS  /tmp/ccXIrMZk.s 			page 79


 4377              	.LASF72:
 4378 0130 715F746F 		.ascii	"q_top\000"
 4378      7000
 4379              	.LASF66:
 4380 0136 65776D61 		.ascii	"ewmask\000"
 4380      736B00
 4381              	.LASF131:
 4382 013d 54494D38 		.ascii	"TIM8_BRK_TIM12_IRQn\000"
 4382      5F42524B 
 4382      5F54494D 
 4382      31325F49 
 4382      52516E00 
 4383              	.LASF242:
 4384 0151 2E2E2F2E 		.ascii	"../../ChibiOS/os/hal/platforms/STM32/USARTv1/serial"
 4384      2E2F4368 
 4384      6962694F 
 4384      532F6F73 
 4384      2F68616C 
 4385 0184 5F6C6C64 		.ascii	"_lld.c\000"
 4385      2E6300
 4386              	.LASF187:
 4387 018b 41484232 		.ascii	"AHB2LPENR\000"
 4387      4C50454E 
 4387      5200
 4388              	.LASF221:
 4389 0195 72656164 		.ascii	"readt\000"
 4389      7400
 4390              	.LASF229:
 4391 019b 73645F6C 		.ascii	"sd_lld_start\000"
 4391      6C645F73 
 4391      74617274 
 4391      00
 4392              	.LASF71:
 4393 01a8 715F6275 		.ascii	"q_buffer\000"
 4393      66666572 
 4393      00
 4394              	.LASF75:
 4395 01b1 715F6E6F 		.ascii	"q_notify\000"
 4395      74696679 
 4395      00
 4396              	.LASF239:
 4397 01ba 73644F62 		.ascii	"sdObjectInit\000"
 4397      6A656374 
 4397      496E6974 
 4397      00
 4398              	.LASF29:
 4399 01c7 705F6E65 		.ascii	"p_newer\000"
 4399      77657200 
 4400              	.LASF9:
 4401 01cf 6C6F6E67 		.ascii	"long int\000"
 4401      20696E74 
 4401      00
 4402              	.LASF25:
 4403 01d8 705F6E65 		.ascii	"p_next\000"
 4403      787400
 4404              	.LASF74:
 4405 01df 715F7264 		.ascii	"q_rdptr\000"
ARM GAS  /tmp/ccXIrMZk.s 			page 80


 4405      70747200 
 4406              	.LASF26:
 4407 01e7 705F7072 		.ascii	"p_prev\000"
 4407      657600
 4408              	.LASF246:
 4409 01ee 64656661 		.ascii	"default_config\000"
 4409      756C745F 
 4409      636F6E66 
 4409      696700
 4410              	.LASF156:
 4411 01fd 444D4132 		.ascii	"DMA2_Stream5_IRQn\000"
 4411      5F537472 
 4411      65616D35 
 4411      5F495251 
 4411      6E00
 4412              	.LASF16:
 4413 020f 74737461 		.ascii	"tstate_t\000"
 4413      74655F74 
 4413      00
 4414              	.LASF42:
 4415 0218 705F6D74 		.ascii	"p_mtxlist\000"
 4415      786C6973 
 4415      7400
 4416              	.LASF114:
 4417 0222 54494D31 		.ascii	"TIM1_TRG_COM_TIM11_IRQn\000"
 4417      5F545247 
 4417      5F434F4D 
 4417      5F54494D 
 4417      31315F49 
 4418              	.LASF208:
 4419 023a 6F717565 		.ascii	"oqueue\000"
 4419      756500
 4420              	.LASF47:
 4421 0241 72656761 		.ascii	"regarm_t\000"
 4421      726D5F74 
 4421      00
 4422              	.LASF184:
 4423 024a 41504232 		.ascii	"APB2ENR\000"
 4423      454E5200 
 4424              	.LASF186:
 4425 0252 41484231 		.ascii	"AHB1LPENR\000"
 4425      4C50454E 
 4425      5200
 4426              	.LASF87:
 4427 025c 53797354 		.ascii	"SysTick_IRQn\000"
 4427      69636B5F 
 4427      4952516E 
 4427      00
 4428              	.LASF127:
 4429 0269 55534152 		.ascii	"USART3_IRQn\000"
 4429      54335F49 
 4429      52516E00 
 4430              	.LASF209:
 4431 0275 75736172 		.ascii	"usart\000"
 4431      7400
 4432              	.LASF1:
 4433 027b 7369676E 		.ascii	"signed char\000"
ARM GAS  /tmp/ccXIrMZk.s 			page 81


 4433      65642063 
 4433      68617200 
 4434              	.LASF36:
 4435 0287 705F7072 		.ascii	"p_preempt\000"
 4435      65656D70 
 4435      7400
 4436              	.LASF3:
 4437 0291 75696E74 		.ascii	"uint8_t\000"
 4437      385F7400 
 4438              	.LASF21:
 4439 0299 6576656E 		.ascii	"eventmask_t\000"
 4439      746D6173 
 4439      6B5F7400 
 4440              	.LASF50:
 4441 02a5 636F6E74 		.ascii	"context\000"
 4441      65787400 
 4442              	.LASF243:
 4443 02ad 2F686F6D 		.ascii	"/home/david/Projects/stm32/src/pressure_sensor\000"
 4443      652F6461 
 4443      7669642F 
 4443      50726F6A 
 4443      65637473 
 4444              	.LASF101:
 4445 02dc 444D4131 		.ascii	"DMA1_Stream2_IRQn\000"
 4445      5F537472 
 4445      65616D32 
 4445      5F495251 
 4445      6E00
 4446              	.LASF175:
 4447 02ee 52455345 		.ascii	"RESERVED0\000"
 4447      52564544 
 4447      3000
 4448              	.LASF178:
 4449 02f8 52455345 		.ascii	"RESERVED1\000"
 4449      52564544 
 4449      3100
 4450              	.LASF4:
 4451 0302 756E7369 		.ascii	"unsigned char\000"
 4451      676E6564 
 4451      20636861 
 4451      7200
 4452              	.LASF148:
 4453 0310 444D4132 		.ascii	"DMA2_Stream4_IRQn\000"
 4453      5F537472 
 4453      65616D34 
 4453      5F495251 
 4453      6E00
 4454              	.LASF189:
 4455 0322 52455345 		.ascii	"RESERVED4\000"
 4455      52564544 
 4455      3400
 4456              	.LASF76:
 4457 032c 715F6C69 		.ascii	"q_link\000"
 4457      6E6B00
 4458              	.LASF194:
 4459 0333 52455345 		.ascii	"RESERVED6\000"
 4459      52564544 
ARM GAS  /tmp/ccXIrMZk.s 			page 82


 4459      3600
 4460              	.LASF120:
 4461 033d 49324331 		.ascii	"I2C1_ER_IRQn\000"
 4461      5F45525F 
 4461      4952516E 
 4461      00
 4462              	.LASF154:
 4463 034a 43414E32 		.ascii	"CAN2_SCE_IRQn\000"
 4463      5F534345 
 4463      5F495251 
 4463      6E00
 4464              	.LASF200:
 4465 0358 53445F55 		.ascii	"SD_UNINIT\000"
 4465      4E494E49 
 4465      5400
 4466              	.LASF182:
 4467 0362 52455345 		.ascii	"RESERVED2\000"
 4467      52564544 
 4467      3200
 4468              	.LASF185:
 4469 036c 52455345 		.ascii	"RESERVED3\000"
 4469      52564544 
 4469      3300
 4470              	.LASF138:
 4471 0376 54494D35 		.ascii	"TIM5_IRQn\000"
 4471      5F495251 
 4471      6E00
 4472              	.LASF192:
 4473 0380 52455345 		.ascii	"RESERVED5\000"
 4473      52564544 
 4473      3500
 4474              	.LASF83:
 4475 038a 55736167 		.ascii	"UsageFault_IRQn\000"
 4475      65466175 
 4475      6C745F49 
 4475      52516E00 
 4476              	.LASF67:
 4477 039a 63686172 		.ascii	"char\000"
 4477      00
 4478              	.LASF27:
 4479 039f 705F7072 		.ascii	"p_prio\000"
 4479      696F00
 4480              	.LASF180:
 4481 03a6 41484232 		.ascii	"AHB2ENR\000"
 4481      454E5200 
 4482              	.LASF68:
 4483 03ae 47656E65 		.ascii	"GenericQueue\000"
 4483      72696351 
 4483      75657565 
 4483      00
 4484              	.LASF65:
 4485 03bb 77746F62 		.ascii	"wtobjp\000"
 4485      6A7000
 4486              	.LASF108:
 4487 03c2 43414E31 		.ascii	"CAN1_RX0_IRQn\000"
 4487      5F525830 
 4487      5F495251 
ARM GAS  /tmp/ccXIrMZk.s 			page 83


 4487      6E00
 4488              	.LASF219:
 4489 03d0 67657474 		.ascii	"gett\000"
 4489      00
 4490              	.LASF48:
 4491 03d5 73746B61 		.ascii	"stkalign_t\000"
 4491      6C69676E 
 4491      5F7400
 4492              	.LASF199:
 4493 03e0 55534152 		.ascii	"USART_TypeDef\000"
 4493      545F5479 
 4493      70654465 
 4493      6600
 4494              	.LASF79:
 4495 03ee 4F757470 		.ascii	"OutputQueue\000"
 4495      75745175 
 4495      65756500 
 4496              	.LASF118:
 4497 03fa 54494D34 		.ascii	"TIM4_IRQn\000"
 4497      5F495251 
 4497      6E00
 4498              	.LASF126:
 4499 0404 55534152 		.ascii	"USART2_IRQn\000"
 4499      54325F49 
 4499      52516E00 
 4500              	.LASF232:
 4501 0410 6462675F 		.ascii	"dbg_check_lock_from_isr\000"
 4501      63686563 
 4501      6B5F6C6F 
 4501      636B5F66 
 4501      726F6D5F 
 4502              	.LASF193:
 4503 0428 42444352 		.ascii	"BDCR\000"
 4503      00
 4504              	.LASF119:
 4505 042d 49324331 		.ascii	"I2C1_EV_IRQn\000"
 4505      5F45565F 
 4505      4952516E 
 4505      00
 4506              	.LASF236:
 4507 043a 6462675F 		.ascii	"dbg_check_enter_isr\000"
 4507      63686563 
 4507      6B5F656E 
 4507      7465725F 
 4507      69737200 
 4508              	.LASF49:
 4509 044e 696E7463 		.ascii	"intctx\000"
 4509      747800
 4510              	.LASF41:
 4511 0455 705F6570 		.ascii	"p_epending\000"
 4511      656E6469 
 4511      6E6700
 4512              	.LASF171:
 4513 0460 43464752 		.ascii	"CFGR\000"
 4513      00
 4514              	.LASF115:
 4515 0465 54494D31 		.ascii	"TIM1_CC_IRQn\000"
ARM GAS  /tmp/ccXIrMZk.s 			page 84


 4515      5F43435F 
 4515      4952516E 
 4515      00
 4516              	.LASF168:
 4517 0472 48415348 		.ascii	"HASH_RNG_IRQn\000"
 4517      5F524E47 
 4517      5F495251 
 4517      6E00
 4518              	.LASF95:
 4519 0480 45585449 		.ascii	"EXTI1_IRQn\000"
 4519      315F4952 
 4519      516E00
 4520              	.LASF107:
 4521 048b 43414E31 		.ascii	"CAN1_TX_IRQn\000"
 4521      5F54585F 
 4521      4952516E 
 4521      00
 4522              	.LASF104:
 4523 0498 444D4131 		.ascii	"DMA1_Stream5_IRQn\000"
 4523      5F537472 
 4523      65616D35 
 4523      5F495251 
 4523      6E00
 4524              	.LASF133:
 4525 04aa 54494D38 		.ascii	"TIM8_TRG_COM_TIM14_IRQn\000"
 4525      5F545247 
 4525      5F434F4D 
 4525      5F54494D 
 4525      31345F49 
 4526              	.LASF62:
 4527 04c2 65735F6E 		.ascii	"es_next\000"
 4527      65787400 
 4528              	.LASF70:
 4529 04ca 715F636F 		.ascii	"q_counter\000"
 4529      756E7465 
 4529      7200
 4530              	.LASF155:
 4531 04d4 4F54475F 		.ascii	"OTG_FS_IRQn\000"
 4531      46535F49 
 4531      52516E00 
 4532              	.LASF80:
 4533 04e0 4E6F6E4D 		.ascii	"NonMaskableInt_IRQn\000"
 4533      61736B61 
 4533      626C6549 
 4533      6E745F49 
 4533      52516E00 
 4534              	.LASF136:
 4535 04f4 46534D43 		.ascii	"FSMC_IRQn\000"
 4535      5F495251 
 4535      6E00
 4536              	.LASF61:
 4537 04fe 4576656E 		.ascii	"EventSource\000"
 4537      74536F75 
 4537      72636500 
 4538              	.LASF88:
 4539 050a 57574447 		.ascii	"WWDG_IRQn\000"
 4539      5F495251 
ARM GAS  /tmp/ccXIrMZk.s 			page 85


 4539      6E00
 4540              	.LASF11:
 4541 0514 6C6F6E67 		.ascii	"long unsigned int\000"
 4541      20756E73 
 4541      69676E65 
 4541      6420696E 
 4541      7400
 4542              	.LASF81:
 4543 0526 4D656D6F 		.ascii	"MemoryManagement_IRQn\000"
 4543      72794D61 
 4543      6E616765 
 4543      6D656E74 
 4543      5F495251 
 4544              	.LASF90:
 4545 053c 54414D50 		.ascii	"TAMP_STAMP_IRQn\000"
 4545      5F535441 
 4545      4D505F49 
 4545      52516E00 
 4546              	.LASF110:
 4547 054c 43414E31 		.ascii	"CAN1_SCE_IRQn\000"
 4547      5F534345 
 4547      5F495251 
 4547      6E00
 4548              	.LASF57:
 4549 055a 656C5F6E 		.ascii	"el_next\000"
 4549      65787400 
 4550              	.LASF73:
 4551 0562 715F7772 		.ascii	"q_wrptr\000"
 4551      70747200 
 4552              	.LASF215:
 4553 056a 53657269 		.ascii	"SerialDriverVMT\000"
 4553      616C4472 
 4553      69766572 
 4553      564D5400 
 4554              	.LASF222:
 4555 057a 75736172 		.ascii	"usart_deinit\000"
 4555      745F6465 
 4555      696E6974 
 4555      00
 4556              	.LASF122:
 4557 0587 49324332 		.ascii	"I2C2_ER_IRQn\000"
 4557      5F45525F 
 4557      4952516E 
 4557      00
 4558              	.LASF82:
 4559 0594 42757346 		.ascii	"BusFault_IRQn\000"
 4559      61756C74 
 4559      5F495251 
 4559      6E00
 4560              	.LASF226:
 4561 05a2 73645F6C 		.ascii	"sd_lld_init\000"
 4561      6C645F69 
 4561      6E697400 
 4562              	.LASF170:
 4563 05ae 504C4C43 		.ascii	"PLLCFGR\000"
 4563      46475200 
 4564              	.LASF141:
ARM GAS  /tmp/ccXIrMZk.s 			page 86


 4565 05b6 55415254 		.ascii	"UART5_IRQn\000"
 4565      355F4952 
 4565      516E00
 4566              	.LASF112:
 4567 05c1 54494D31 		.ascii	"TIM1_BRK_TIM9_IRQn\000"
 4567      5F42524B 
 4567      5F54494D 
 4567      395F4952 
 4567      516E00
 4568              	.LASF211:
 4569 05d4 73635F63 		.ascii	"sc_cr1\000"
 4569      723100
 4570              	.LASF212:
 4571 05db 73635F63 		.ascii	"sc_cr2\000"
 4571      723200
 4572              	.LASF213:
 4573 05e2 73635F63 		.ascii	"sc_cr3\000"
 4573      723300
 4574              	.LASF52:
 4575 05e9 4D757465 		.ascii	"Mutex\000"
 4575      7800
 4576              	.LASF235:
 4577 05ef 7364496E 		.ascii	"sdIncomingDataI\000"
 4577      636F6D69 
 4577      6E674461 
 4577      74614900 
 4578              	.LASF143:
 4579 05ff 54494D37 		.ascii	"TIM7_IRQn\000"
 4579      5F495251 
 4579      6E00
 4580              	.LASF12:
 4581 0609 6C6F6E67 		.ascii	"long long int\000"
 4581      206C6F6E 
 4581      6720696E 
 4581      7400
 4582              	.LASF150:
 4583 0617 4554485F 		.ascii	"ETH_WKUP_IRQn\000"
 4583      574B5550 
 4583      5F495251 
 4583      6E00
 4584              	.LASF124:
 4585 0625 53504932 		.ascii	"SPI2_IRQn\000"
 4585      5F495251 
 4585      6E00
 4586              	.LASF165:
 4587 062f 4F54475F 		.ascii	"OTG_HS_IRQn\000"
 4587      48535F49 
 4587      52516E00 
 4588              	.LASF53:
 4589 063b 6D5F7175 		.ascii	"m_queue\000"
 4589      65756500 
 4590              	.LASF195:
 4591 0643 53534347 		.ascii	"SSCGR\000"
 4591      5200
 4592              	.LASF123:
 4593 0649 53504931 		.ascii	"SPI1_IRQn\000"
 4593      5F495251 
ARM GAS  /tmp/ccXIrMZk.s 			page 87


 4593      6E00
 4594              	.LASF84:
 4595 0653 53564361 		.ascii	"SVCall_IRQn\000"
 4595      6C6C5F49 
 4595      52516E00 
 4596              	.LASF177:
 4597 065f 41504232 		.ascii	"APB2RSTR\000"
 4597      52535452 
 4597      00
 4598              	.LASF233:
 4599 0668 6462675F 		.ascii	"dbg_check_unlock_from_isr\000"
 4599      63686563 
 4599      6B5F756E 
 4599      6C6F636B 
 4599      5F66726F 
 4600              	.LASF169:
 4601 0682 4650555F 		.ascii	"FPU_IRQn\000"
 4601      4952516E 
 4601      00
 4602              	.LASF140:
 4603 068b 55415254 		.ascii	"UART4_IRQn\000"
 4603      345F4952 
 4603      516E00
 4604              	.LASF191:
 4605 0696 41504232 		.ascii	"APB2LPENR\000"
 4605      4C50454E 
 4605      5200
 4606              	.LASF77:
 4607 06a0 716E6F74 		.ascii	"qnotify_t\000"
 4607      6966795F 
 4607      7400
 4608              	.LASF38:
 4609 06aa 705F7761 		.ascii	"p_waiting\000"
 4609      6974696E 
 4609      6700
 4610              	.LASF144:
 4611 06b4 444D4132 		.ascii	"DMA2_Stream0_IRQn\000"
 4611      5F537472 
 4611      65616D30 
 4611      5F495251 
 4611      6E00
 4612              	.LASF205:
 4613 06c6 6576656E 		.ascii	"event\000"
 4613      7400
 4614              	.LASF130:
 4615 06cc 4F54475F 		.ascii	"OTG_FS_WKUP_IRQn\000"
 4615      46535F57 
 4615      4B55505F 
 4615      4952516E 
 4615      00
 4616              	.LASF34:
 4617 06dd 705F666C 		.ascii	"p_flags\000"
 4617      61677300 
 4618              	.LASF217:
 4619 06e5 72656164 		.ascii	"read\000"
 4619      00
 4620              	.LASF0:
ARM GAS  /tmp/ccXIrMZk.s 			page 88


 4621 06ea 756E7369 		.ascii	"unsigned int\000"
 4621      676E6564 
 4621      20696E74 
 4621      00
 4622              	.LASF142:
 4623 06f7 54494D36 		.ascii	"TIM6_DAC_IRQn\000"
 4623      5F444143 
 4623      5F495251 
 4623      6E00
 4624              	.LASF44:
 4625 0705 705F6D70 		.ascii	"p_mpool\000"
 4625      6F6F6C00 
 4626              	.LASF121:
 4627 070d 49324332 		.ascii	"I2C2_EV_IRQn\000"
 4627      5F45565F 
 4627      4952516E 
 4627      00
 4628              	.LASF35:
 4629 071a 705F7265 		.ascii	"p_refs\000"
 4629      667300
 4630              	.LASF247:
 4631 0721 63684F51 		.ascii	"chOQGetI\000"
 4631      47657449 
 4631      00
 4632              	.LASF210:
 4633 072a 73635F73 		.ascii	"sc_speed\000"
 4633      70656564 
 4633      00
 4634              	.LASF238:
 4635 0733 5F706F72 		.ascii	"_port_irq_epilogue\000"
 4635      745F6972 
 4635      715F6570 
 4635      696C6F67 
 4635      756500
 4636              	.LASF46:
 4637 0746 54687265 		.ascii	"ThreadsList\000"
 4637      6164734C 
 4637      69737400 
 4638              	.LASF190:
 4639 0752 41504231 		.ascii	"APB1LPENR\000"
 4639      4C50454E 
 4639      5200
 4640              	.LASF100:
 4641 075c 444D4131 		.ascii	"DMA1_Stream1_IRQn\000"
 4641      5F537472 
 4641      65616D31 
 4641      5F495251 
 4641      6E00
 4642              	.LASF22:
 4643 076e 666C6167 		.ascii	"flagsmask_t\000"
 4643      736D6173 
 4643      6B5F7400 
 4644              	.LASF147:
 4645 077a 444D4132 		.ascii	"DMA2_Stream3_IRQn\000"
 4645      5F537472 
 4645      65616D33 
 4645      5F495251 
ARM GAS  /tmp/ccXIrMZk.s 			page 89


 4645      6E00
 4646              	.LASF151:
 4647 078c 43414E32 		.ascii	"CAN2_TX_IRQn\000"
 4647      5F54585F 
 4647      4952516E 
 4647      00
 4648              	.LASF37:
 4649 0799 705F7469 		.ascii	"p_time\000"
 4649      6D6500
 4650              	.LASF244:
 4651 07a0 4952516E 		.ascii	"IRQn\000"
 4651      00
 4652              	.LASF105:
 4653 07a5 444D4131 		.ascii	"DMA1_Stream6_IRQn\000"
 4653      5F537472 
 4653      65616D36 
 4653      5F495251 
 4653      6E00
 4654              	.LASF234:
 4655 07b7 63684576 		.ascii	"chEvtBroadcastFlagsI\000"
 4655      7442726F 
 4655      61646361 
 4655      7374466C 
 4655      61677349 
 4656              	.LASF174:
 4657 07cc 41484233 		.ascii	"AHB3RSTR\000"
 4657      52535452 
 4657      00
 4658              	.LASF248:
 4659 07d5 6E766963 		.ascii	"nvicDisableVector\000"
 4659      44697361 
 4659      626C6556 
 4659      6563746F 
 4659      7200
 4660              	.LASF43:
 4661 07e7 705F7265 		.ascii	"p_realprio\000"
 4661      616C7072 
 4661      696F00
 4662              	.LASF158:
 4663 07f2 444D4132 		.ascii	"DMA2_Stream7_IRQn\000"
 4663      5F537472 
 4663      65616D37 
 4663      5F495251 
 4663      6E00
 4664              	.LASF99:
 4665 0804 444D4131 		.ascii	"DMA1_Stream0_IRQn\000"
 4665      5F537472 
 4665      65616D30 
 4665      5F495251 
 4665      6E00
 4666              	.LASF176:
 4667 0816 41504231 		.ascii	"APB1RSTR\000"
 4667      52535452 
 4667      00
 4668              	.LASF227:
 4669 081f 75736172 		.ascii	"usart_init\000"
 4669      745F696E 
ARM GAS  /tmp/ccXIrMZk.s 			page 90


 4669      697400
 4670              	.LASF129:
 4671 082a 5254435F 		.ascii	"RTC_Alarm_IRQn\000"
 4671      416C6172 
 4671      6D5F4952 
 4671      516E00
 4672              	.LASF183:
 4673 0839 41504231 		.ascii	"APB1ENR\000"
 4673      454E5200 
 4674              	.LASF161:
 4675 0841 49324333 		.ascii	"I2C3_ER_IRQn\000"
 4675      5F45525F 
 4675      4952516E 
 4675      00
 4676              	.LASF237:
 4677 084e 6462675F 		.ascii	"dbg_check_leave_isr\000"
 4677      63686563 
 4677      6B5F6C65 
 4677      6176655F 
 4677      69737200 
 4678              	.LASF167:
 4679 0862 43525950 		.ascii	"CRYP_IRQn\000"
 4679      5F495251 
 4679      6E00
 4680              	.LASF128:
 4681 086c 45585449 		.ascii	"EXTI15_10_IRQn\000"
 4681      31355F31 
 4681      305F4952 
 4681      516E00
 4682              	.LASF14:
 4683 087b 6C6F6E67 		.ascii	"long long unsigned int\000"
 4683      206C6F6E 
 4683      6720756E 
 4683      7369676E 
 4683      65642069 
 4684              	.LASF30:
 4685 0892 705F6F6C 		.ascii	"p_older\000"
 4685      64657200 
 4686              	.LASF6:
 4687 089a 75696E74 		.ascii	"uint16_t\000"
 4687      31365F74 
 4687      00
 4688              	.LASF20:
 4689 08a3 6D73675F 		.ascii	"msg_t\000"
 4689      7400
 4690              	.LASF117:
 4691 08a9 54494D33 		.ascii	"TIM3_IRQn\000"
 4691      5F495251 
 4691      6E00
 4692              	.LASF125:
 4693 08b3 55534152 		.ascii	"USART1_IRQn\000"
 4693      54315F49 
 4693      52516E00 
 4694              	.LASF18:
 4695 08bf 74736C69 		.ascii	"tslices_t\000"
 4695      6365735F 
 4695      7400
ARM GAS  /tmp/ccXIrMZk.s 			page 91


 4696              	.LASF96:
 4697 08c9 45585449 		.ascii	"EXTI2_IRQn\000"
 4697      325F4952 
 4697      516E00
 4698              	.LASF153:
 4699 08d4 43414E32 		.ascii	"CAN2_RX1_IRQn\000"
 4699      5F525831 
 4699      5F495251 
 4699      6E00
 4700              	.LASF106:
 4701 08e2 4144435F 		.ascii	"ADC_IRQn\000"
 4701      4952516E 
 4701      00
 4702              	.LASF188:
 4703 08eb 41484233 		.ascii	"AHB3LPENR\000"
 4703      4C50454E 
 4703      5200
 4704              	.LASF89:
 4705 08f5 5056445F 		.ascii	"PVD_IRQn\000"
 4705      4952516E 
 4705      00
 4706              	.LASF204:
 4707 08fe 53657269 		.ascii	"SerialDriver\000"
 4707      616C4472 
 4707      69766572 
 4707      00
 4708              	.LASF69:
 4709 090b 715F7761 		.ascii	"q_waiting\000"
 4709      6974696E 
 4709      6700
 4710              	.LASF94:
 4711 0915 45585449 		.ascii	"EXTI0_IRQn\000"
 4711      305F4952 
 4711      516E00
 4712              	.LASF15:
 4713 0920 746D6F64 		.ascii	"tmode_t\000"
 4713      655F7400 
 4714              	.LASF103:
 4715 0928 444D4131 		.ascii	"DMA1_Stream4_IRQn\000"
 4715      5F537472 
 4715      65616D34 
 4715      5F495251 
 4715      6E00
 4716              	.LASF203:
 4717 093a 73647374 		.ascii	"sdstate_t\000"
 4717      6174655F 
 4717      7400
 4718              	.LASF157:
 4719 0944 444D4132 		.ascii	"DMA2_Stream6_IRQn\000"
 4719      5F537472 
 4719      65616D36 
 4719      5F495251 
 4719      6E00
 4720              	.LASF179:
 4721 0956 41484231 		.ascii	"AHB1ENR\000"
 4721      454E5200 
 4722              	.LASF85:
ARM GAS  /tmp/ccXIrMZk.s 			page 92


 4723 095e 44656275 		.ascii	"DebugMonitor_IRQn\000"
 4723      674D6F6E 
 4723      69746F72 
 4723      5F495251 
 4723      6E00
 4724              	.LASF202:
 4725 0970 53445F52 		.ascii	"SD_READY\000"
 4725      45414459 
 4725      00
 4726              	.LASF160:
 4727 0979 49324333 		.ascii	"I2C3_EV_IRQn\000"
 4727      5F45565F 
 4727      4952516E 
 4727      00
 4728              	.LASF173:
 4729 0986 41484232 		.ascii	"AHB2RSTR\000"
 4729      52535452 
 4729      00
 4730              	.LASF149:
 4731 098f 4554485F 		.ascii	"ETH_IRQn\000"
 4731      4952516E 
 4731      00
 4732              	.LASF245:
 4733 0998 6E6F7469 		.ascii	"notify6\000"
 4733      66793600 
 4734              	.LASF197:
 4735 09a0 5243435F 		.ascii	"RCC_TypeDef\000"
 4735      54797065 
 4735      44656600 
 4736              	.LASF225:
 4737 09ac 56656374 		.ascii	"Vector15C\000"
 4737      6F723135 
 4737      4300
 4738              	.LASF5:
 4739 09b6 73686F72 		.ascii	"short int\000"
 4739      7420696E 
 4739      7400
 4740              	.LASF13:
 4741 09c0 75696E74 		.ascii	"uint64_t\000"
 4741      36345F74 
 4741      00
 4742              	.LASF93:
 4743 09c9 5243435F 		.ascii	"RCC_IRQn\000"
 4743      4952516E 
 4743      00
 4744              	.LASF207:
 4745 09d2 69717565 		.ascii	"iqueue\000"
 4745      756500
 4746              	.LASF102:
 4747 09d9 444D4131 		.ascii	"DMA1_Stream3_IRQn\000"
 4747      5F537472 
 4747      65616D33 
 4747      5F495251 
 4747      6E00
 4748              	.LASF24:
 4749 09eb 54687265 		.ascii	"Thread\000"
 4749      616400
ARM GAS  /tmp/ccXIrMZk.s 			page 93


 4750              	.LASF113:
 4751 09f2 54494D31 		.ascii	"TIM1_UP_TIM10_IRQn\000"
 4751      5F55505F 
 4751      54494D31 
 4751      305F4952 
 4751      516E00
 4752              	.LASF231:
 4753 0a05 49544D5F 		.ascii	"ITM_RxBuffer\000"
 4753      52784275 
 4753      66666572 
 4753      00
 4754              	.LASF17:
 4755 0a12 74726566 		.ascii	"trefs_t\000"
 4755      735F7400 
 4756              	.LASF162:
 4757 0a1a 4F54475F 		.ascii	"OTG_HS_EP1_OUT_IRQn\000"
 4757      48535F45 
 4757      50315F4F 
 4757      55545F49 
 4757      52516E00 
 4758              	.LASF91:
 4759 0a2e 5254435F 		.ascii	"RTC_WKUP_IRQn\000"
 4759      574B5550 
 4759      5F495251 
 4759      6E00
 4760              	.LASF56:
 4761 0a3c 4576656E 		.ascii	"EventListener\000"
 4761      744C6973 
 4761      74656E65 
 4761      7200
 4762              	.LASF240:
 4763 0a4a 6E766963 		.ascii	"nvicEnableVector\000"
 4763      456E6162 
 4763      6C655665 
 4763      63746F72 
 4763      00
 4764              	.LASF10:
 4765 0a5b 75696E74 		.ascii	"uint32_t\000"
 4765      33325F74 
 4765      00
 4766              	.LASF109:
 4767 0a64 43414E31 		.ascii	"CAN1_RX1_IRQn\000"
 4767      5F525831 
 4767      5F495251 
 4767      6E00
 4768              	.LASF45:
 4769 0a72 54687265 		.ascii	"ThreadsQueue\000"
 4769      61647351 
 4769      75657565 
 4769      00
 4770              	.LASF111:
 4771 0a7f 45585449 		.ascii	"EXTI9_5_IRQn\000"
 4771      395F355F 
 4771      4952516E 
 4771      00
 4772              	.LASF63:
 4773 0a8c 7264796D 		.ascii	"rdymsg\000"
ARM GAS  /tmp/ccXIrMZk.s 			page 94


 4773      736700
 4774              	.LASF98:
 4775 0a93 45585449 		.ascii	"EXTI4_IRQn\000"
 4775      345F4952 
 4775      516E00
 4776              	.LASF7:
 4777 0a9e 73686F72 		.ascii	"short unsigned int\000"
 4777      7420756E 
 4777      7369676E 
 4777      65642069 
 4777      6E7400
 4778              	.LASF230:
 4779 0ab1 73645F6C 		.ascii	"sd_lld_stop\000"
 4779      6C645F73 
 4779      746F7000 
 4780              	.LASF134:
 4781 0abd 54494D38 		.ascii	"TIM8_CC_IRQn\000"
 4781      5F43435F 
 4781      4952516E 
 4781      00
 4782              	.LASF137:
 4783 0aca 5344494F 		.ascii	"SDIO_IRQn\000"
 4783      5F495251 
 4783      6E00
 4784              	.LASF78:
 4785 0ad4 496E7075 		.ascii	"InputQueue\000"
 4785      74517565 
 4785      756500
 4786              	.LASF97:
 4787 0adf 45585449 		.ascii	"EXTI3_IRQn\000"
 4787      335F4952 
 4787      516E00
 4788              	.LASF86:
 4789 0aea 50656E64 		.ascii	"PendSV_IRQn\000"
 4789      53565F49 
 4789      52516E00 
 4790              	.LASF163:
 4791 0af6 4F54475F 		.ascii	"OTG_HS_EP1_IN_IRQn\000"
 4791      48535F45 
 4791      50315F49 
 4791      4E5F4952 
 4791      516E00
 4792              	.LASF32:
 4793 0b09 705F7374 		.ascii	"p_stklimit\000"
 4793      6B6C696D 
 4793      697400
 4794              	.LASF135:
 4795 0b14 444D4131 		.ascii	"DMA1_Stream7_IRQn\000"
 4795      5F537472 
 4795      65616D37 
 4795      5F495251 
 4795      6E00
 4796              	.LASF172:
 4797 0b26 41484231 		.ascii	"AHB1RSTR\000"
 4797      52535452 
 4797      00
 4798              	.LASF201:
ARM GAS  /tmp/ccXIrMZk.s 			page 95


 4799 0b2f 53445F53 		.ascii	"SD_STOP\000"
 4799      544F5000 
 4800              	.LASF59:
 4801 0b37 656C5F6D 		.ascii	"el_mask\000"
 4801      61736B00 
 4802              	.LASF31:
 4803 0b3f 705F6E61 		.ascii	"p_name\000"
 4803      6D6500
 4804              	.LASF55:
 4805 0b46 6D5F6E65 		.ascii	"m_next\000"
 4805      787400
 4806              	.LASF181:
 4807 0b4d 41484233 		.ascii	"AHB3ENR\000"
 4807      454E5200 
 4808              	.LASF146:
 4809 0b55 444D4132 		.ascii	"DMA2_Stream2_IRQn\000"
 4809      5F537472 
 4809      65616D32 
 4809      5F495251 
 4809      6E00
 4810              	.LASF40:
 4811 0b67 705F6D73 		.ascii	"p_msg\000"
 4811      6700
 4812              	.LASF58:
 4813 0b6d 656C5F6C 		.ascii	"el_listener\000"
 4813      69737465 
 4813      6E657200 
 4814              	.LASF33:
 4815 0b79 705F7374 		.ascii	"p_state\000"
 4815      61746500 
 4816              		.ident	"GCC: (crosstool-NG 1.17.0 - PSAS ST32F4 GFE) 4.7.2"
ARM GAS  /tmp/ccXIrMZk.s 			page 96


DEFINED SYMBOLS
                            *ABS*:0000000000000000 serial_lld.c
     /tmp/ccXIrMZk.s:21     .text.notify6:0000000000000000 $t
     /tmp/ccXIrMZk.s:26     .text.notify6:0000000000000000 notify6
     /tmp/ccXIrMZk.s:47     .text.Vector15C:0000000000000000 $t
     /tmp/ccXIrMZk.s:53     .text.Vector15C:0000000000000000 Vector15C
     /tmp/ccXIrMZk.s:373    .text.Vector15C:0000000000000160 $d
     /tmp/ccXIrMZk.s:383    .text.sd_lld_init:0000000000000000 $t
     /tmp/ccXIrMZk.s:389    .text.sd_lld_init:0000000000000000 sd_lld_init
     /tmp/ccXIrMZk.s:622    .bss.SD6:0000000000000000 .LANCHOR0
     /tmp/ccXIrMZk.s:418    .text.sd_lld_start:0000000000000000 $t
     /tmp/ccXIrMZk.s:424    .text.sd_lld_start:0000000000000000 sd_lld_start
     /tmp/ccXIrMZk.s:541    .text.sd_lld_start:0000000000000094 $d
     /tmp/ccXIrMZk.s:547    .text.sd_lld_stop:0000000000000000 $t
     /tmp/ccXIrMZk.s:553    .text.sd_lld_stop:0000000000000000 sd_lld_stop
     /tmp/ccXIrMZk.s:604    .text.sd_lld_stop:0000000000000030 $d
     /tmp/ccXIrMZk.s:625    .bss.SD6:0000000000000000 SD6
     /tmp/ccXIrMZk.s:610    .rodata.default_config:0000000000000000 $d
     /tmp/ccXIrMZk.s:614    .rodata.default_config:0000000000000000 default_config
     /tmp/ccXIrMZk.s:621    .bss.SD6:0000000000000000 $d
                     .debug_frame:0000000000000010 $d
     /tmp/ccXIrMZk.s:382    .text.Vector15C:000000000000016c $t
     /tmp/ccXIrMZk.s:546    .text.sd_lld_start:000000000000009c $t
     /tmp/ccXIrMZk.s:609    .text.sd_lld_stop:0000000000000034 $t

UNDEFINED SYMBOLS
dbg_check_enter_isr
dbg_check_lock_from_isr
chEvtBroadcastFlagsI
dbg_check_unlock_from_isr
dbg_check_leave_isr
_port_irq_epilogue
sdIncomingDataI
chOQGetI
sdObjectInit
nvicEnableVector
nvicDisableVector
